Archive member included because of file (symbol)

/Users/imac/Downloads/gcc-arm-none-eabi-4_9-2015q2/bin/../lib/gcc/arm-none-eabi/4.9.3/../../../../arm-none-eabi/lib/armv7e-m/fpu/libm.a(lib_a-sf_cos.o)
                              build/obj/mcpwm.o (cosf)
/Users/imac/Downloads/gcc-arm-none-eabi-4_9-2015q2/bin/../lib/gcc/arm-none-eabi/4.9.3/../../../../arm-none-eabi/lib/armv7e-m/fpu/libm.a(lib_a-sf_sin.o)
                              build/obj/mcpwm.o (sinf)
/Users/imac/Downloads/gcc-arm-none-eabi-4_9-2015q2/bin/../lib/gcc/arm-none-eabi/4.9.3/../../../../arm-none-eabi/lib/armv7e-m/fpu/libm.a(lib_a-wf_atan2.o)
                              build/obj/mcpwm.o (atan2f)
/Users/imac/Downloads/gcc-arm-none-eabi-4_9-2015q2/bin/../lib/gcc/arm-none-eabi/4.9.3/../../../../arm-none-eabi/lib/armv7e-m/fpu/libm.a(lib_a-wf_fmod.o)
                              build/obj/utils.o (fmodf)
/Users/imac/Downloads/gcc-arm-none-eabi-4_9-2015q2/bin/../lib/gcc/arm-none-eabi/4.9.3/../../../../arm-none-eabi/lib/armv7e-m/fpu/libm.a(lib_a-wf_sqrt.o)
                              build/obj/mcpwm.o (sqrtf)
/Users/imac/Downloads/gcc-arm-none-eabi-4_9-2015q2/bin/../lib/gcc/arm-none-eabi/4.9.3/../../../../arm-none-eabi/lib/armv7e-m/fpu/libm.a(lib_a-ef_atan2.o)
                              /Users/imac/Downloads/gcc-arm-none-eabi-4_9-2015q2/bin/../lib/gcc/arm-none-eabi/4.9.3/../../../../arm-none-eabi/lib/armv7e-m/fpu/libm.a(lib_a-wf_atan2.o) (__ieee754_atan2f)
/Users/imac/Downloads/gcc-arm-none-eabi-4_9-2015q2/bin/../lib/gcc/arm-none-eabi/4.9.3/../../../../arm-none-eabi/lib/armv7e-m/fpu/libm.a(lib_a-ef_fmod.o)
                              /Users/imac/Downloads/gcc-arm-none-eabi-4_9-2015q2/bin/../lib/gcc/arm-none-eabi/4.9.3/../../../../arm-none-eabi/lib/armv7e-m/fpu/libm.a(lib_a-wf_fmod.o) (__ieee754_fmodf)
/Users/imac/Downloads/gcc-arm-none-eabi-4_9-2015q2/bin/../lib/gcc/arm-none-eabi/4.9.3/../../../../arm-none-eabi/lib/armv7e-m/fpu/libm.a(lib_a-ef_rem_pio2.o)
                              /Users/imac/Downloads/gcc-arm-none-eabi-4_9-2015q2/bin/../lib/gcc/arm-none-eabi/4.9.3/../../../../arm-none-eabi/lib/armv7e-m/fpu/libm.a(lib_a-sf_cos.o) (__ieee754_rem_pio2f)
/Users/imac/Downloads/gcc-arm-none-eabi-4_9-2015q2/bin/../lib/gcc/arm-none-eabi/4.9.3/../../../../arm-none-eabi/lib/armv7e-m/fpu/libm.a(lib_a-ef_sqrt.o)
                              /Users/imac/Downloads/gcc-arm-none-eabi-4_9-2015q2/bin/../lib/gcc/arm-none-eabi/4.9.3/../../../../arm-none-eabi/lib/armv7e-m/fpu/libm.a(lib_a-wf_sqrt.o) (__ieee754_sqrtf)
/Users/imac/Downloads/gcc-arm-none-eabi-4_9-2015q2/bin/../lib/gcc/arm-none-eabi/4.9.3/../../../../arm-none-eabi/lib/armv7e-m/fpu/libm.a(lib_a-kf_cos.o)
                              /Users/imac/Downloads/gcc-arm-none-eabi-4_9-2015q2/bin/../lib/gcc/arm-none-eabi/4.9.3/../../../../arm-none-eabi/lib/armv7e-m/fpu/libm.a(lib_a-sf_cos.o) (__kernel_cosf)
/Users/imac/Downloads/gcc-arm-none-eabi-4_9-2015q2/bin/../lib/gcc/arm-none-eabi/4.9.3/../../../../arm-none-eabi/lib/armv7e-m/fpu/libm.a(lib_a-kf_rem_pio2.o)
                              /Users/imac/Downloads/gcc-arm-none-eabi-4_9-2015q2/bin/../lib/gcc/arm-none-eabi/4.9.3/../../../../arm-none-eabi/lib/armv7e-m/fpu/libm.a(lib_a-ef_rem_pio2.o) (__kernel_rem_pio2f)
/Users/imac/Downloads/gcc-arm-none-eabi-4_9-2015q2/bin/../lib/gcc/arm-none-eabi/4.9.3/../../../../arm-none-eabi/lib/armv7e-m/fpu/libm.a(lib_a-kf_sin.o)
                              /Users/imac/Downloads/gcc-arm-none-eabi-4_9-2015q2/bin/../lib/gcc/arm-none-eabi/4.9.3/../../../../arm-none-eabi/lib/armv7e-m/fpu/libm.a(lib_a-sf_cos.o) (__kernel_sinf)
/Users/imac/Downloads/gcc-arm-none-eabi-4_9-2015q2/bin/../lib/gcc/arm-none-eabi/4.9.3/../../../../arm-none-eabi/lib/armv7e-m/fpu/libm.a(lib_a-s_lib_ver.o)
                              /Users/imac/Downloads/gcc-arm-none-eabi-4_9-2015q2/bin/../lib/gcc/arm-none-eabi/4.9.3/../../../../arm-none-eabi/lib/armv7e-m/fpu/libm.a(lib_a-wf_fmod.o) (__fdlib_version)
/Users/imac/Downloads/gcc-arm-none-eabi-4_9-2015q2/bin/../lib/gcc/arm-none-eabi/4.9.3/../../../../arm-none-eabi/lib/armv7e-m/fpu/libm.a(lib_a-s_matherr.o)
                              /Users/imac/Downloads/gcc-arm-none-eabi-4_9-2015q2/bin/../lib/gcc/arm-none-eabi/4.9.3/../../../../arm-none-eabi/lib/armv7e-m/fpu/libm.a(lib_a-wf_fmod.o) (matherr)
/Users/imac/Downloads/gcc-arm-none-eabi-4_9-2015q2/bin/../lib/gcc/arm-none-eabi/4.9.3/../../../../arm-none-eabi/lib/armv7e-m/fpu/libm.a(lib_a-sf_atan.o)
                              /Users/imac/Downloads/gcc-arm-none-eabi-4_9-2015q2/bin/../lib/gcc/arm-none-eabi/4.9.3/../../../../arm-none-eabi/lib/armv7e-m/fpu/libm.a(lib_a-ef_atan2.o) (atanf)
/Users/imac/Downloads/gcc-arm-none-eabi-4_9-2015q2/bin/../lib/gcc/arm-none-eabi/4.9.3/../../../../arm-none-eabi/lib/armv7e-m/fpu/libm.a(lib_a-sf_fabs.o)
                              /Users/imac/Downloads/gcc-arm-none-eabi-4_9-2015q2/bin/../lib/gcc/arm-none-eabi/4.9.3/../../../../arm-none-eabi/lib/armv7e-m/fpu/libm.a(lib_a-ef_atan2.o) (fabsf)
/Users/imac/Downloads/gcc-arm-none-eabi-4_9-2015q2/bin/../lib/gcc/arm-none-eabi/4.9.3/../../../../arm-none-eabi/lib/armv7e-m/fpu/libm.a(lib_a-sf_floor.o)
                              /Users/imac/Downloads/gcc-arm-none-eabi-4_9-2015q2/bin/../lib/gcc/arm-none-eabi/4.9.3/../../../../arm-none-eabi/lib/armv7e-m/fpu/libm.a(lib_a-kf_rem_pio2.o) (floorf)
/Users/imac/Downloads/gcc-arm-none-eabi-4_9-2015q2/bin/../lib/gcc/arm-none-eabi/4.9.3/../../../../arm-none-eabi/lib/armv7e-m/fpu/libm.a(lib_a-sf_fpclassify.o)
                              /Users/imac/Downloads/gcc-arm-none-eabi-4_9-2015q2/bin/../lib/gcc/arm-none-eabi/4.9.3/../../../../arm-none-eabi/lib/armv7e-m/fpu/libm.a(lib_a-wf_fmod.o) (__fpclassifyf)
/Users/imac/Downloads/gcc-arm-none-eabi-4_9-2015q2/bin/../lib/gcc/arm-none-eabi/4.9.3/../../../../arm-none-eabi/lib/armv7e-m/fpu/libm.a(lib_a-sf_scalbn.o)
                              /Users/imac/Downloads/gcc-arm-none-eabi-4_9-2015q2/bin/../lib/gcc/arm-none-eabi/4.9.3/../../../../arm-none-eabi/lib/armv7e-m/fpu/libm.a(lib_a-kf_rem_pio2.o) (scalbnf)
/Users/imac/Downloads/gcc-arm-none-eabi-4_9-2015q2/bin/../lib/gcc/arm-none-eabi/4.9.3/../../../../arm-none-eabi/lib/armv7e-m/fpu/libm.a(lib_a-sf_copysign.o)
                              /Users/imac/Downloads/gcc-arm-none-eabi-4_9-2015q2/bin/../lib/gcc/arm-none-eabi/4.9.3/../../../../arm-none-eabi/lib/armv7e-m/fpu/libm.a(lib_a-sf_scalbn.o) (copysignf)
/Users/imac/Downloads/gcc-arm-none-eabi-4_9-2015q2/bin/../lib/gcc/arm-none-eabi/4.9.3/armv7e-m/fpu/libgcc.a(_arm_addsubdf3.o)
                              build/obj/chprintf.o (__aeabi_dsub)
/Users/imac/Downloads/gcc-arm-none-eabi-4_9-2015q2/bin/../lib/gcc/arm-none-eabi/4.9.3/armv7e-m/fpu/libgcc.a(_arm_muldivdf3.o)
                              build/obj/chprintf.o (__aeabi_dmul)
/Users/imac/Downloads/gcc-arm-none-eabi-4_9-2015q2/bin/../lib/gcc/arm-none-eabi/4.9.3/armv7e-m/fpu/libgcc.a(_arm_fixdfsi.o)
                              build/obj/chprintf.o (__aeabi_d2iz)
/Users/imac/Downloads/gcc-arm-none-eabi-4_9-2015q2/bin/../lib/gcc/arm-none-eabi/4.9.3/armv7e-m/fpu/libgcc.a(_arm_truncdfsf2.o)
                              build/obj/chprintf.o (__aeabi_d2f)
/Users/imac/Downloads/gcc-arm-none-eabi-4_9-2015q2/bin/../lib/gcc/arm-none-eabi/4.9.3/../../../../arm-none-eabi/lib/armv7e-m/fpu/libg.a(lib_a-errno.o)
                              /Users/imac/Downloads/gcc-arm-none-eabi-4_9-2015q2/bin/../lib/gcc/arm-none-eabi/4.9.3/../../../../arm-none-eabi/lib/armv7e-m/fpu/libm.a(lib_a-wf_fmod.o) (__errno)
/Users/imac/Downloads/gcc-arm-none-eabi-4_9-2015q2/bin/../lib/gcc/arm-none-eabi/4.9.3/../../../../arm-none-eabi/lib/armv7e-m/fpu/libg.a(lib_a-impure.o)
                              /Users/imac/Downloads/gcc-arm-none-eabi-4_9-2015q2/bin/../lib/gcc/arm-none-eabi/4.9.3/../../../../arm-none-eabi/lib/armv7e-m/fpu/libg.a(lib_a-errno.o) (_impure_ptr)
/Users/imac/Downloads/gcc-arm-none-eabi-4_9-2015q2/bin/../lib/gcc/arm-none-eabi/4.9.3/../../../../arm-none-eabi/lib/armv7e-m/fpu/libg.a(lib_a-memset.o)
                              build/obj/usb.o (memset)
/Users/imac/Downloads/gcc-arm-none-eabi-4_9-2015q2/bin/../lib/gcc/arm-none-eabi/4.9.3/../../../../arm-none-eabi/lib/armv7e-m/fpu/libg.a(lib_a-vsnprintf.o)
                              build/obj/usb_uart.o (vsnprintf)
/Users/imac/Downloads/gcc-arm-none-eabi-4_9-2015q2/bin/../lib/gcc/arm-none-eabi/4.9.3/../../../../arm-none-eabi/lib/armv7e-m/fpu/libg.a(lib_a-svfprintf.o)
                              /Users/imac/Downloads/gcc-arm-none-eabi-4_9-2015q2/bin/../lib/gcc/arm-none-eabi/4.9.3/../../../../arm-none-eabi/lib/armv7e-m/fpu/libg.a(lib_a-vsnprintf.o) (_svfprintf_r)
/Users/imac/Downloads/gcc-arm-none-eabi-4_9-2015q2/bin/../lib/gcc/arm-none-eabi/4.9.3/../../../../arm-none-eabi/lib/armv7e-m/fpu/libg.a(lib_a-dtoa.o)
                              /Users/imac/Downloads/gcc-arm-none-eabi-4_9-2015q2/bin/../lib/gcc/arm-none-eabi/4.9.3/../../../../arm-none-eabi/lib/armv7e-m/fpu/libg.a(lib_a-svfprintf.o) (_dtoa_r)
/Users/imac/Downloads/gcc-arm-none-eabi-4_9-2015q2/bin/../lib/gcc/arm-none-eabi/4.9.3/../../../../arm-none-eabi/lib/armv7e-m/fpu/libg.a(lib_a-locale.o)
                              /Users/imac/Downloads/gcc-arm-none-eabi-4_9-2015q2/bin/../lib/gcc/arm-none-eabi/4.9.3/../../../../arm-none-eabi/lib/armv7e-m/fpu/libg.a(lib_a-svfprintf.o) (_localeconv_r)
/Users/imac/Downloads/gcc-arm-none-eabi-4_9-2015q2/bin/../lib/gcc/arm-none-eabi/4.9.3/../../../../arm-none-eabi/lib/armv7e-m/fpu/libg.a(lib_a-mallocr.o)
                              /Users/imac/Downloads/gcc-arm-none-eabi-4_9-2015q2/bin/../lib/gcc/arm-none-eabi/4.9.3/../../../../arm-none-eabi/lib/armv7e-m/fpu/libg.a(lib_a-svfprintf.o) (_malloc_r)
/Users/imac/Downloads/gcc-arm-none-eabi-4_9-2015q2/bin/../lib/gcc/arm-none-eabi/4.9.3/../../../../arm-none-eabi/lib/armv7e-m/fpu/libg.a(lib_a-memchr.o)
                              /Users/imac/Downloads/gcc-arm-none-eabi-4_9-2015q2/bin/../lib/gcc/arm-none-eabi/4.9.3/../../../../arm-none-eabi/lib/armv7e-m/fpu/libg.a(lib_a-svfprintf.o) (memchr)
/Users/imac/Downloads/gcc-arm-none-eabi-4_9-2015q2/bin/../lib/gcc/arm-none-eabi/4.9.3/../../../../arm-none-eabi/lib/armv7e-m/fpu/libg.a(lib_a-memcpy.o)
                              /Users/imac/Downloads/gcc-arm-none-eabi-4_9-2015q2/bin/../lib/gcc/arm-none-eabi/4.9.3/../../../../arm-none-eabi/lib/armv7e-m/fpu/libg.a(lib_a-dtoa.o) (memcpy)
/Users/imac/Downloads/gcc-arm-none-eabi-4_9-2015q2/bin/../lib/gcc/arm-none-eabi/4.9.3/../../../../arm-none-eabi/lib/armv7e-m/fpu/libg.a(lib_a-mlock.o)
                              /Users/imac/Downloads/gcc-arm-none-eabi-4_9-2015q2/bin/../lib/gcc/arm-none-eabi/4.9.3/../../../../arm-none-eabi/lib/armv7e-m/fpu/libg.a(lib_a-mallocr.o) (__malloc_lock)
/Users/imac/Downloads/gcc-arm-none-eabi-4_9-2015q2/bin/../lib/gcc/arm-none-eabi/4.9.3/../../../../arm-none-eabi/lib/armv7e-m/fpu/libg.a(lib_a-mprec.o)
                              /Users/imac/Downloads/gcc-arm-none-eabi-4_9-2015q2/bin/../lib/gcc/arm-none-eabi/4.9.3/../../../../arm-none-eabi/lib/armv7e-m/fpu/libg.a(lib_a-dtoa.o) (_Balloc)
/Users/imac/Downloads/gcc-arm-none-eabi-4_9-2015q2/bin/../lib/gcc/arm-none-eabi/4.9.3/../../../../arm-none-eabi/lib/armv7e-m/fpu/libg.a(lib_a-s_fpclassify.o)
                              /Users/imac/Downloads/gcc-arm-none-eabi-4_9-2015q2/bin/../lib/gcc/arm-none-eabi/4.9.3/../../../../arm-none-eabi/lib/armv7e-m/fpu/libg.a(lib_a-svfprintf.o) (__fpclassifyd)
/Users/imac/Downloads/gcc-arm-none-eabi-4_9-2015q2/bin/../lib/gcc/arm-none-eabi/4.9.3/../../../../arm-none-eabi/lib/armv7e-m/fpu/libg.a(lib_a-strcmp.o)
                              /Users/imac/Downloads/gcc-arm-none-eabi-4_9-2015q2/bin/../lib/gcc/arm-none-eabi/4.9.3/../../../../arm-none-eabi/lib/armv7e-m/fpu/libg.a(lib_a-locale.o) (strcmp)
/Users/imac/Downloads/gcc-arm-none-eabi-4_9-2015q2/bin/../lib/gcc/arm-none-eabi/4.9.3/../../../../arm-none-eabi/lib/armv7e-m/fpu/libg.a(lib_a-strlen.o)
                              /Users/imac/Downloads/gcc-arm-none-eabi-4_9-2015q2/bin/../lib/gcc/arm-none-eabi/4.9.3/../../../../arm-none-eabi/lib/armv7e-m/fpu/libg.a(lib_a-svfprintf.o) (strlen)
/Users/imac/Downloads/gcc-arm-none-eabi-4_9-2015q2/bin/../lib/gcc/arm-none-eabi/4.9.3/../../../../arm-none-eabi/lib/armv7e-m/fpu/libg.a(lib_a-svfiprintf.o)
                              /Users/imac/Downloads/gcc-arm-none-eabi-4_9-2015q2/bin/../lib/gcc/arm-none-eabi/4.9.3/../../../../arm-none-eabi/lib/armv7e-m/fpu/libg.a(lib_a-svfprintf.o) (__ssprint_r)
/Users/imac/Downloads/gcc-arm-none-eabi-4_9-2015q2/bin/../lib/gcc/arm-none-eabi/4.9.3/../../../../arm-none-eabi/lib/armv7e-m/fpu/libg.a(lib_a-callocr.o)
                              /Users/imac/Downloads/gcc-arm-none-eabi-4_9-2015q2/bin/../lib/gcc/arm-none-eabi/4.9.3/../../../../arm-none-eabi/lib/armv7e-m/fpu/libg.a(lib_a-mprec.o) (_calloc_r)
/Users/imac/Downloads/gcc-arm-none-eabi-4_9-2015q2/bin/../lib/gcc/arm-none-eabi/4.9.3/../../../../arm-none-eabi/lib/armv7e-m/fpu/libg.a(lib_a-freer.o)
                              /Users/imac/Downloads/gcc-arm-none-eabi-4_9-2015q2/bin/../lib/gcc/arm-none-eabi/4.9.3/../../../../arm-none-eabi/lib/armv7e-m/fpu/libg.a(lib_a-mallocr.o) (_free_r)
/Users/imac/Downloads/gcc-arm-none-eabi-4_9-2015q2/bin/../lib/gcc/arm-none-eabi/4.9.3/../../../../arm-none-eabi/lib/armv7e-m/fpu/libg.a(lib_a-memmove.o)
                              /Users/imac/Downloads/gcc-arm-none-eabi-4_9-2015q2/bin/../lib/gcc/arm-none-eabi/4.9.3/../../../../arm-none-eabi/lib/armv7e-m/fpu/libg.a(lib_a-svfiprintf.o) (memmove)
/Users/imac/Downloads/gcc-arm-none-eabi-4_9-2015q2/bin/../lib/gcc/arm-none-eabi/4.9.3/../../../../arm-none-eabi/lib/armv7e-m/fpu/libg.a(lib_a-reallocr.o)
                              /Users/imac/Downloads/gcc-arm-none-eabi-4_9-2015q2/bin/../lib/gcc/arm-none-eabi/4.9.3/../../../../arm-none-eabi/lib/armv7e-m/fpu/libg.a(lib_a-svfiprintf.o) (_realloc_r)
/Users/imac/Downloads/gcc-arm-none-eabi-4_9-2015q2/bin/../lib/gcc/arm-none-eabi/4.9.3/armv7e-m/fpu/libgcc.a(_arm_cmpdf2.o)
                              /Users/imac/Downloads/gcc-arm-none-eabi-4_9-2015q2/bin/../lib/gcc/arm-none-eabi/4.9.3/../../../../arm-none-eabi/lib/armv7e-m/fpu/libg.a(lib_a-svfprintf.o) (__aeabi_dcmpeq)
/Users/imac/Downloads/gcc-arm-none-eabi-4_9-2015q2/bin/../lib/gcc/arm-none-eabi/4.9.3/armv7e-m/fpu/libgcc.a(_aeabi_uldivmod.o)
                              /Users/imac/Downloads/gcc-arm-none-eabi-4_9-2015q2/bin/../lib/gcc/arm-none-eabi/4.9.3/../../../../arm-none-eabi/lib/armv7e-m/fpu/libg.a(lib_a-svfprintf.o) (__aeabi_uldivmod)
/Users/imac/Downloads/gcc-arm-none-eabi-4_9-2015q2/bin/../lib/gcc/arm-none-eabi/4.9.3/armv7e-m/fpu/libgcc.a(bpabi.o)
                              /Users/imac/Downloads/gcc-arm-none-eabi-4_9-2015q2/bin/../lib/gcc/arm-none-eabi/4.9.3/armv7e-m/fpu/libgcc.a(_aeabi_uldivmod.o) (__gnu_uldivmod_helper)
/Users/imac/Downloads/gcc-arm-none-eabi-4_9-2015q2/bin/../lib/gcc/arm-none-eabi/4.9.3/armv7e-m/fpu/libgcc.a(_dvmd_tls.o)
                              /Users/imac/Downloads/gcc-arm-none-eabi-4_9-2015q2/bin/../lib/gcc/arm-none-eabi/4.9.3/armv7e-m/fpu/libgcc.a(_aeabi_uldivmod.o) (__aeabi_ldiv0)
/Users/imac/Downloads/gcc-arm-none-eabi-4_9-2015q2/bin/../lib/gcc/arm-none-eabi/4.9.3/armv7e-m/fpu/libgcc.a(_divdi3.o)
                              /Users/imac/Downloads/gcc-arm-none-eabi-4_9-2015q2/bin/../lib/gcc/arm-none-eabi/4.9.3/armv7e-m/fpu/libgcc.a(bpabi.o) (__divdi3)
/Users/imac/Downloads/gcc-arm-none-eabi-4_9-2015q2/bin/../lib/gcc/arm-none-eabi/4.9.3/armv7e-m/fpu/libgcc.a(_udivdi3.o)
                              /Users/imac/Downloads/gcc-arm-none-eabi-4_9-2015q2/bin/../lib/gcc/arm-none-eabi/4.9.3/armv7e-m/fpu/libgcc.a(bpabi.o) (__udivdi3)

Discarded input sections

 .data          0x0000000000000000        0x0 build/obj/crt0_v7m.o
 .bss           0x0000000000000000        0x0 build/obj/crt0_v7m.o
 .data          0x0000000000000000        0x0 build/obj/chcoreasm_v7m.o
 .bss           0x0000000000000000        0x0 build/obj/chcoreasm_v7m.o
 .text          0x0000000000000000        0x0 build/obj/crt1.o
 .data          0x0000000000000000        0x0 build/obj/crt1.o
 .bss           0x0000000000000000        0x0 build/obj/crt1.o
 .text.__early_init
                0x0000000000000000        0x4 build/obj/crt1.o
 .text          0x0000000000000000        0x0 build/obj/vectors.o
 .data          0x0000000000000000        0x0 build/obj/vectors.o
 .bss           0x0000000000000000        0x0 build/obj/vectors.o
 .text          0x0000000000000000        0x0 build/obj/chsys.o
 .data          0x0000000000000000        0x0 build/obj/chsys.o
 .bss           0x0000000000000000        0x0 build/obj/chsys.o
 .text.chSysHalt
                0x0000000000000000        0xc build/obj/chsys.o
 .text.chSysIntegrityCheckI
                0x0000000000000000       0xc0 build/obj/chsys.o
 .text.chSysGetStatusAndLockX
                0x0000000000000000       0x14 build/obj/chsys.o
 .text.chSysRestoreStatusX
                0x0000000000000000       0x20 build/obj/chsys.o
 .text.chSysIsCounterWithinX
                0x0000000000000000       0x10 build/obj/chsys.o
 .text          0x0000000000000000        0x0 build/obj/chdebug.o
 .data          0x0000000000000000        0x0 build/obj/chdebug.o
 .bss           0x0000000000000000        0x0 build/obj/chdebug.o
 .debug_info    0x0000000000000000      0x719 build/obj/chdebug.o
 .debug_abbrev  0x0000000000000000      0x125 build/obj/chdebug.o
 .debug_aranges
                0x0000000000000000       0x18 build/obj/chdebug.o
 .debug_line    0x0000000000000000      0x1ee build/obj/chdebug.o
 .debug_str     0x0000000000000000      0x5a3 build/obj/chdebug.o
 .comment       0x0000000000000000       0x71 build/obj/chdebug.o
 .ARM.attributes
                0x0000000000000000       0x39 build/obj/chdebug.o
 .text          0x0000000000000000        0x0 build/obj/chvt.o
 .data          0x0000000000000000        0x0 build/obj/chvt.o
 .bss           0x0000000000000000        0x0 build/obj/chvt.o
 .text          0x0000000000000000        0x0 build/obj/chschd.o
 .data          0x0000000000000000        0x0 build/obj/chschd.o
 .bss           0x0000000000000000        0x0 build/obj/chschd.o
 .text          0x0000000000000000        0x0 build/obj/chthreads.o
 .data          0x0000000000000000        0x0 build/obj/chthreads.o
 .bss           0x0000000000000000        0x0 build/obj/chthreads.o
 .text.chThdStart
                0x0000000000000000       0x14 build/obj/chthreads.o
 .text.chThdSetPriority
                0x0000000000000000       0x30 build/obj/chthreads.o
 .text.chThdTerminate
                0x0000000000000000       0x18 build/obj/chthreads.o
 .text.chThdSleepUntil
                0x0000000000000000       0x24 build/obj/chthreads.o
 .text.chThdSleepUntilWindowed
                0x0000000000000000       0x2c build/obj/chthreads.o
 .text.chThdYield
                0x0000000000000000       0x28 build/obj/chthreads.o
 .text.chThdWait
                0x0000000000000000       0x38 build/obj/chthreads.o
 .text.chThdSuspendTimeoutS
                0x0000000000000000       0x1c build/obj/chthreads.o
 .text.chThdResumeS
                0x0000000000000000       0x10 build/obj/chthreads.o
 .text.chThdResume
                0x0000000000000000       0x28 build/obj/chthreads.o
 .text.chThdDequeueNextI
                0x0000000000000000       0x20 build/obj/chthreads.o
 .text          0x0000000000000000        0x0 build/obj/chtm.o
 .data          0x0000000000000000        0x0 build/obj/chtm.o
 .bss           0x0000000000000000        0x0 build/obj/chtm.o
 .text.chTMObjectInit
                0x0000000000000000       0x18 build/obj/chtm.o
 .text.chTMChainMeasurementToX
                0x0000000000000000       0x40 build/obj/chtm.o
 .text          0x0000000000000000        0x0 build/obj/chdynamic.o
 .data          0x0000000000000000        0x0 build/obj/chdynamic.o
 .bss           0x0000000000000000        0x0 build/obj/chdynamic.o
 .text.chThdAddRef
                0x0000000000000000       0x14 build/obj/chdynamic.o
 .text.chThdRelease
                0x0000000000000000       0x50 build/obj/chdynamic.o
 .text.chThdCreateFromHeap
                0x0000000000000000       0x3c build/obj/chdynamic.o
 .text.chThdCreateFromMemoryPool
                0x0000000000000000       0x44 build/obj/chdynamic.o
 .debug_info    0x0000000000000000      0xdca build/obj/chdynamic.o
 .debug_abbrev  0x0000000000000000      0x304 build/obj/chdynamic.o
 .debug_loc     0x0000000000000000      0x223 build/obj/chdynamic.o
 .debug_aranges
                0x0000000000000000       0x38 build/obj/chdynamic.o
 .debug_ranges  0x0000000000000000       0x28 build/obj/chdynamic.o
 .debug_line    0x0000000000000000      0x392 build/obj/chdynamic.o
 .debug_str     0x0000000000000000      0x741 build/obj/chdynamic.o
 .comment       0x0000000000000000       0x71 build/obj/chdynamic.o
 .debug_frame   0x0000000000000000       0x84 build/obj/chdynamic.o
 .ARM.attributes
                0x0000000000000000       0x39 build/obj/chdynamic.o
 .text          0x0000000000000000        0x0 build/obj/chregistry.o
 .data          0x0000000000000000        0x0 build/obj/chregistry.o
 .bss           0x0000000000000000        0x0 build/obj/chregistry.o
 .text.chRegFirstThread
                0x0000000000000000       0x1c build/obj/chregistry.o
 .text.chRegNextThread
                0x0000000000000000       0x2c build/obj/chregistry.o
 .text          0x0000000000000000        0x0 build/obj/chsem.o
 .data          0x0000000000000000        0x0 build/obj/chsem.o
 .bss           0x0000000000000000        0x0 build/obj/chsem.o
 .text.chSemObjectInit
                0x0000000000000000        0x8 build/obj/chsem.o
 .text.chSemResetI
                0x0000000000000000       0x28 build/obj/chsem.o
 .text.chSemReset
                0x0000000000000000       0x18 build/obj/chsem.o
 .text.chSemWait
                0x0000000000000000       0x44 build/obj/chsem.o
 .text.chSemWaitS
                0x0000000000000000       0x34 build/obj/chsem.o
 .text.chSemWaitTimeoutS
                0x0000000000000000       0x40 build/obj/chsem.o
 .text.chSemWaitTimeout
                0x0000000000000000       0x14 build/obj/chsem.o
 .text.chSemSignal
                0x0000000000000000       0x34 build/obj/chsem.o
 .text.chSemSignalI
                0x0000000000000000       0x20 build/obj/chsem.o
 .text.chSemAddCounterI
                0x0000000000000000       0x30 build/obj/chsem.o
 .text.chSemSignalWait
                0x0000000000000000       0x6c build/obj/chsem.o
 .debug_info    0x0000000000000000     0x1173 build/obj/chsem.o
 .debug_abbrev  0x0000000000000000      0x437 build/obj/chsem.o
 .debug_loc     0x0000000000000000      0x5a8 build/obj/chsem.o
 .debug_aranges
                0x0000000000000000       0x70 build/obj/chsem.o
 .debug_ranges  0x0000000000000000      0x168 build/obj/chsem.o
 .debug_line    0x0000000000000000      0x482 build/obj/chsem.o
 .debug_str     0x0000000000000000      0x71d build/obj/chsem.o
 .comment       0x0000000000000000       0x71 build/obj/chsem.o
 .debug_frame   0x0000000000000000      0x14c build/obj/chsem.o
 .ARM.attributes
                0x0000000000000000       0x39 build/obj/chsem.o
 .text          0x0000000000000000        0x0 build/obj/chmtx.o
 .data          0x0000000000000000        0x0 build/obj/chmtx.o
 .bss           0x0000000000000000        0x0 build/obj/chmtx.o
 .text.chMtxLockS
                0x0000000000000000       0xc8 build/obj/chmtx.o
 .text.chMtxLock
                0x0000000000000000       0x14 build/obj/chmtx.o
 .text.chMtxTryLock
                0x0000000000000000       0x30 build/obj/chmtx.o
 .text.chMtxTryLockS
                0x0000000000000000       0x20 build/obj/chmtx.o
 .text.chMtxUnlock
                0x0000000000000000       0x64 build/obj/chmtx.o
 .text.chMtxUnlockS
                0x0000000000000000       0x50 build/obj/chmtx.o
 .text.chMtxUnlockAll
                0x0000000000000000       0x54 build/obj/chmtx.o
 .text          0x0000000000000000        0x0 build/obj/chcond.o
 .data          0x0000000000000000        0x0 build/obj/chcond.o
 .bss           0x0000000000000000        0x0 build/obj/chcond.o
 .text.chCondObjectInit
                0x0000000000000000        0x8 build/obj/chcond.o
 .text.chCondSignal
                0x0000000000000000       0x28 build/obj/chcond.o
 .text.chCondSignalI
                0x0000000000000000       0x18 build/obj/chcond.o
 .text.chCondBroadcastI
                0x0000000000000000       0x24 build/obj/chcond.o
 .text.chCondBroadcast
                0x0000000000000000       0x18 build/obj/chcond.o
 .text.chCondWaitS
                0x0000000000000000       0x44 build/obj/chcond.o
 .text.chCondWait
                0x0000000000000000       0x14 build/obj/chcond.o
 .text.chCondWaitTimeoutS
                0x0000000000000000       0x50 build/obj/chcond.o
 .text.chCondWaitTimeout
                0x0000000000000000       0x14 build/obj/chcond.o
 .debug_info    0x0000000000000000      0xfff build/obj/chcond.o
 .debug_abbrev  0x0000000000000000      0x3cb build/obj/chcond.o
 .debug_loc     0x0000000000000000      0x377 build/obj/chcond.o
 .debug_aranges
                0x0000000000000000       0x60 build/obj/chcond.o
 .debug_ranges  0x0000000000000000       0xc0 build/obj/chcond.o
 .debug_line    0x0000000000000000      0x41f build/obj/chcond.o
 .debug_str     0x0000000000000000      0x773 build/obj/chcond.o
 .comment       0x0000000000000000       0x71 build/obj/chcond.o
 .debug_frame   0x0000000000000000      0x108 build/obj/chcond.o
 .ARM.attributes
                0x0000000000000000       0x39 build/obj/chcond.o
 .text          0x0000000000000000        0x0 build/obj/chevents.o
 .data          0x0000000000000000        0x0 build/obj/chevents.o
 .bss           0x0000000000000000        0x0 build/obj/chevents.o
 .text.chEvtRegisterMaskWithFlags
                0x0000000000000000       0x28 build/obj/chevents.o
 .text.chEvtUnregister
                0x0000000000000000       0x2c build/obj/chevents.o
 .text.chEvtGetAndClearEvents
                0x0000000000000000       0x20 build/obj/chevents.o
 .text.chEvtAddEvents
                0x0000000000000000       0x1c build/obj/chevents.o
 .text.chEvtGetAndClearFlags
                0x0000000000000000       0x14 build/obj/chevents.o
 .text.chEvtSignal
                0x0000000000000000       0x18 build/obj/chevents.o
 .text.chEvtBroadcastFlags
                0x0000000000000000       0x18 build/obj/chevents.o
 .text.chEvtGetAndClearFlagsI
                0x0000000000000000        0xc build/obj/chevents.o
 .text.chEvtDispatch
                0x0000000000000000       0x38 build/obj/chevents.o
 .text.chEvtWaitOne
                0x0000000000000000       0x3c build/obj/chevents.o
 .text.chEvtWaitAny
                0x0000000000000000       0x38 build/obj/chevents.o
 .text.chEvtWaitAll
                0x0000000000000000       0x38 build/obj/chevents.o
 .text.chEvtWaitOneTimeout
                0x0000000000000000       0x50 build/obj/chevents.o
 .text.chEvtWaitAnyTimeout
                0x0000000000000000       0x50 build/obj/chevents.o
 .text.chEvtWaitAllTimeout
                0x0000000000000000       0x48 build/obj/chevents.o
 .text          0x0000000000000000        0x0 build/obj/chmsg.o
 .data          0x0000000000000000        0x0 build/obj/chmsg.o
 .bss           0x0000000000000000        0x0 build/obj/chmsg.o
 .text.chMsgSend
                0x0000000000000000       0x40 build/obj/chmsg.o
 .text.chMsgWait
                0x0000000000000000       0x3c build/obj/chmsg.o
 .text.chMsgRelease
                0x0000000000000000       0x14 build/obj/chmsg.o
 .debug_info    0x0000000000000000      0xb97 build/obj/chmsg.o
 .debug_abbrev  0x0000000000000000      0x31f build/obj/chmsg.o
 .debug_loc     0x0000000000000000      0x179 build/obj/chmsg.o
 .debug_aranges
                0x0000000000000000       0x30 build/obj/chmsg.o
 .debug_ranges  0x0000000000000000       0x80 build/obj/chmsg.o
 .debug_line    0x0000000000000000      0x309 build/obj/chmsg.o
 .debug_str     0x0000000000000000      0x675 build/obj/chmsg.o
 .comment       0x0000000000000000       0x71 build/obj/chmsg.o
 .debug_frame   0x0000000000000000       0x68 build/obj/chmsg.o
 .ARM.attributes
                0x0000000000000000       0x39 build/obj/chmsg.o
 .text          0x0000000000000000        0x0 build/obj/chmboxes.o
 .data          0x0000000000000000        0x0 build/obj/chmboxes.o
 .bss           0x0000000000000000        0x0 build/obj/chmboxes.o
 .text.chMBObjectInit
                0x0000000000000000       0x28 build/obj/chmboxes.o
 .text.chMBResetI
                0x0000000000000000       0x24 build/obj/chmboxes.o
 .text.chMBReset
                0x0000000000000000       0x18 build/obj/chmboxes.o
 .text.chMBPostS
                0x0000000000000000       0x38 build/obj/chmboxes.o
 .text.chMBPost
                0x0000000000000000       0x14 build/obj/chmboxes.o
 .text.chMBPostI
                0x0000000000000000       0x34 build/obj/chmboxes.o
 .text.chMBPostAheadS
                0x0000000000000000       0x38 build/obj/chmboxes.o
 .text.chMBPostAhead
                0x0000000000000000       0x14 build/obj/chmboxes.o
 .text.chMBPostAheadI
                0x0000000000000000       0x30 build/obj/chmboxes.o
 .text.chMBFetchS
                0x0000000000000000       0x38 build/obj/chmboxes.o
 .text.chMBFetch
                0x0000000000000000       0x14 build/obj/chmboxes.o
 .text.chMBFetchI
                0x0000000000000000       0x38 build/obj/chmboxes.o
 .debug_info    0x0000000000000000     0x11c1 build/obj/chmboxes.o
 .debug_abbrev  0x0000000000000000      0x3c8 build/obj/chmboxes.o
 .debug_loc     0x0000000000000000      0x64c build/obj/chmboxes.o
 .debug_aranges
                0x0000000000000000       0x78 build/obj/chmboxes.o
 .debug_ranges  0x0000000000000000       0xc8 build/obj/chmboxes.o
 .debug_line    0x0000000000000000      0x413 build/obj/chmboxes.o
 .debug_str     0x0000000000000000      0x743 build/obj/chmboxes.o
 .comment       0x0000000000000000       0x71 build/obj/chmboxes.o
 .debug_frame   0x0000000000000000      0x180 build/obj/chmboxes.o
 .ARM.attributes
                0x0000000000000000       0x39 build/obj/chmboxes.o
 .text          0x0000000000000000        0x0 build/obj/chqueues.o
 .data          0x0000000000000000        0x0 build/obj/chqueues.o
 .bss           0x0000000000000000        0x0 build/obj/chqueues.o
 .text.chIQPutI
                0x0000000000000000       0x38 build/obj/chqueues.o
 .text.chOQGetI
                0x0000000000000000       0x38 build/obj/chqueues.o
 .text          0x0000000000000000        0x0 build/obj/chmemcore.o
 .data          0x0000000000000000        0x0 build/obj/chmemcore.o
 .bss           0x0000000000000000        0x0 build/obj/chmemcore.o
 .text.chCoreAllocI
                0x0000000000000000       0x2c build/obj/chmemcore.o
 .text.chCoreGetStatusX
                0x0000000000000000       0x14 build/obj/chmemcore.o
 .text          0x0000000000000000        0x0 build/obj/chheap.o
 .data          0x0000000000000000        0x0 build/obj/chheap.o
 .bss           0x0000000000000000        0x0 build/obj/chheap.o
 .text.chHeapObjectInit
                0x0000000000000000       0x14 build/obj/chheap.o
 .text.chHeapAlloc
                0x0000000000000000       0x8c build/obj/chheap.o
 .text.chHeapFree
                0x0000000000000000       0x94 build/obj/chheap.o
 .text.chHeapStatus
                0x0000000000000000       0x44 build/obj/chheap.o
 .text          0x0000000000000000        0x0 build/obj/chmempools.o
 .data          0x0000000000000000        0x0 build/obj/chmempools.o
 .bss           0x0000000000000000        0x0 build/obj/chmempools.o
 .text.chPoolObjectInit
                0x0000000000000000        0xc build/obj/chmempools.o
 .text.chPoolLoadArray
                0x0000000000000000       0x24 build/obj/chmempools.o
 .text.chPoolAllocI
                0x0000000000000000       0x18 build/obj/chmempools.o
 .text.chPoolAlloc
                0x0000000000000000       0x2c build/obj/chmempools.o
 .text.chPoolFreeI
                0x0000000000000000        0x8 build/obj/chmempools.o
 .text.chPoolFree
                0x0000000000000000       0x14 build/obj/chmempools.o
 .debug_info    0x0000000000000000      0xcaa build/obj/chmempools.o
 .debug_abbrev  0x0000000000000000      0x31b build/obj/chmempools.o
 .debug_loc     0x0000000000000000      0x1f7 build/obj/chmempools.o
 .debug_aranges
                0x0000000000000000       0x48 build/obj/chmempools.o
 .debug_ranges  0x0000000000000000       0xe0 build/obj/chmempools.o
 .debug_line    0x0000000000000000      0x399 build/obj/chmempools.o
 .debug_str     0x0000000000000000      0x6b6 build/obj/chmempools.o
 .comment       0x0000000000000000       0x71 build/obj/chmempools.o
 .debug_frame   0x0000000000000000       0x8c build/obj/chmempools.o
 .ARM.attributes
                0x0000000000000000       0x39 build/obj/chmempools.o
 .text          0x0000000000000000        0x0 build/obj/chcore.o
 .data          0x0000000000000000        0x0 build/obj/chcore.o
 .bss           0x0000000000000000        0x0 build/obj/chcore.o
 .debug_info    0x0000000000000000      0x719 build/obj/chcore.o
 .debug_abbrev  0x0000000000000000      0x125 build/obj/chcore.o
 .debug_aranges
                0x0000000000000000       0x18 build/obj/chcore.o
 .debug_line    0x0000000000000000      0x1ee build/obj/chcore.o
 .debug_str     0x0000000000000000      0x5ab build/obj/chcore.o
 .comment       0x0000000000000000       0x71 build/obj/chcore.o
 .ARM.attributes
                0x0000000000000000       0x39 build/obj/chcore.o
 .text          0x0000000000000000        0x0 build/obj/chcore_v7m.o
 .data          0x0000000000000000        0x0 build/obj/chcore_v7m.o
 .bss           0x0000000000000000        0x0 build/obj/chcore_v7m.o
 .text          0x0000000000000000        0x0 build/obj/osal.o
 .data          0x0000000000000000        0x0 build/obj/osal.o
 .bss           0x0000000000000000        0x0 build/obj/osal.o
 .debug_info    0x0000000000000000      0x719 build/obj/osal.o
 .debug_abbrev  0x0000000000000000      0x125 build/obj/osal.o
 .debug_aranges
                0x0000000000000000       0x18 build/obj/osal.o
 .debug_line    0x0000000000000000      0x1ee build/obj/osal.o
 .debug_str     0x0000000000000000      0x5a5 build/obj/osal.o
 .comment       0x0000000000000000       0x71 build/obj/osal.o
 .ARM.attributes
                0x0000000000000000       0x39 build/obj/osal.o
 .text          0x0000000000000000        0x0 build/obj/hal.o
 .data          0x0000000000000000        0x0 build/obj/hal.o
 .bss           0x0000000000000000        0x0 build/obj/hal.o
 .text          0x0000000000000000        0x0 build/obj/st.o
 .data          0x0000000000000000        0x0 build/obj/st.o
 .bss           0x0000000000000000        0x0 build/obj/st.o
 .text.stStartAlarm
                0x0000000000000000       0x10 build/obj/st.o
 .text.stStopAlarm
                0x0000000000000000        0xc build/obj/st.o
 .text.stSetAlarm
                0x0000000000000000        0x8 build/obj/st.o
 .text.stGetAlarm
                0x0000000000000000        0x8 build/obj/st.o
 .text          0x0000000000000000        0x0 build/obj/hal_queues.o
 .data          0x0000000000000000        0x0 build/obj/hal_queues.o
 .bss           0x0000000000000000        0x0 build/obj/hal_queues.o
 .debug_info    0x0000000000000000      0x720 build/obj/hal_queues.o
 .debug_abbrev  0x0000000000000000      0x125 build/obj/hal_queues.o
 .debug_aranges
                0x0000000000000000       0x18 build/obj/hal_queues.o
 .debug_line    0x0000000000000000      0x1ee build/obj/hal_queues.o
 .debug_str     0x0000000000000000      0x5ad build/obj/hal_queues.o
 .comment       0x0000000000000000       0x71 build/obj/hal_queues.o
 .ARM.attributes
                0x0000000000000000       0x39 build/obj/hal_queues.o
 .text          0x0000000000000000        0x0 build/obj/hal_mmcsd.o
 .data          0x0000000000000000        0x0 build/obj/hal_mmcsd.o
 .bss           0x0000000000000000        0x0 build/obj/hal_mmcsd.o
 .debug_info    0x0000000000000000      0x720 build/obj/hal_mmcsd.o
 .debug_abbrev  0x0000000000000000      0x125 build/obj/hal_mmcsd.o
 .debug_aranges
                0x0000000000000000       0x18 build/obj/hal_mmcsd.o
 .debug_line    0x0000000000000000      0x1ee build/obj/hal_mmcsd.o
 .debug_str     0x0000000000000000      0x5ac build/obj/hal_mmcsd.o
 .comment       0x0000000000000000       0x71 build/obj/hal_mmcsd.o
 .ARM.attributes
                0x0000000000000000       0x39 build/obj/hal_mmcsd.o
 .text          0x0000000000000000        0x0 build/obj/can.o
 .data          0x0000000000000000        0x0 build/obj/can.o
 .bss           0x0000000000000000        0x0 build/obj/can.o
 .text.canStart
                0x0000000000000000       0x20 build/obj/can.o
 .text.canStop  0x0000000000000000       0x38 build/obj/can.o
 .text.canTransmit
                0x0000000000000000       0x50 build/obj/can.o
 .text.canReceive
                0x0000000000000000       0x50 build/obj/can.o
 .text.canSleep
                0x0000000000000000       0x38 build/obj/can.o
 .text.canWakeup
                0x0000000000000000       0x38 build/obj/can.o
 .text          0x0000000000000000        0x0 build/obj/i2c.o
 .data          0x0000000000000000        0x0 build/obj/i2c.o
 .bss           0x0000000000000000        0x0 build/obj/i2c.o
 .text.i2cStart
                0x0000000000000000       0x1c build/obj/i2c.o
 .text.i2cStop  0x0000000000000000       0x1c build/obj/i2c.o
 .text.i2cGetErrors
                0x0000000000000000        0x4 build/obj/i2c.o
 .text.i2cMasterTransmitTimeout
                0x0000000000000000       0x40 build/obj/i2c.o
 .text.i2cMasterReceiveTimeout
                0x0000000000000000       0x30 build/obj/i2c.o
 .text.i2cAcquireBus
                0x0000000000000000        0x8 build/obj/i2c.o
 .text.i2cReleaseBus
                0x0000000000000000        0x8 build/obj/i2c.o
 .text          0x0000000000000000        0x0 build/obj/icu.o
 .data          0x0000000000000000        0x0 build/obj/icu.o
 .bss           0x0000000000000000        0x0 build/obj/icu.o
 .text.icuStart
                0x0000000000000000       0x1c build/obj/icu.o
 .text.icuStop  0x0000000000000000       0x1c build/obj/icu.o
 .text.icuStartCapture
                0x0000000000000000       0x1c build/obj/icu.o
 .text.icuWaitCapture
                0x0000000000000000       0x20 build/obj/icu.o
 .text.icuStopCapture
                0x0000000000000000       0x1c build/obj/icu.o
 .text.icuEnableNotifications
                0x0000000000000000       0x14 build/obj/icu.o
 .text.icuDisableNotifications
                0x0000000000000000       0x14 build/obj/icu.o
 .text          0x0000000000000000        0x0 build/obj/pal.o
 .data          0x0000000000000000        0x0 build/obj/pal.o
 .bss           0x0000000000000000        0x0 build/obj/pal.o
 .text.palReadBus
                0x0000000000000000       0x10 build/obj/pal.o
 .text.palWriteBus
                0x0000000000000000       0x20 build/obj/pal.o
 .text.palSetBusMode
                0x0000000000000000        0xc build/obj/pal.o
 .debug_info    0x0000000000000000      0x9a3 build/obj/pal.o
 .debug_abbrev  0x0000000000000000      0x1cd build/obj/pal.o
 .debug_loc     0x0000000000000000       0xb0 build/obj/pal.o
 .debug_aranges
                0x0000000000000000       0x30 build/obj/pal.o
 .debug_ranges  0x0000000000000000       0x20 build/obj/pal.o
 .debug_line    0x0000000000000000      0x306 build/obj/pal.o
 .debug_str     0x0000000000000000      0x68a build/obj/pal.o
 .comment       0x0000000000000000       0x71 build/obj/pal.o
 .debug_frame   0x0000000000000000       0x50 build/obj/pal.o
 .ARM.attributes
                0x0000000000000000       0x39 build/obj/pal.o
 .text          0x0000000000000000        0x0 build/obj/serial_usb.o
 .data          0x0000000000000000        0x0 build/obj/serial_usb.o
 .bss           0x0000000000000000        0x0 build/obj/serial_usb.o
 .text.sduStop  0x0000000000000000       0x5c build/obj/serial_usb.o
 .text          0x0000000000000000        0x0 build/obj/uart.o
 .data          0x0000000000000000        0x0 build/obj/uart.o
 .bss           0x0000000000000000        0x0 build/obj/uart.o
 .text.uartStart
                0x0000000000000000       0x1c build/obj/uart.o
 .text.uartStop
                0x0000000000000000       0x20 build/obj/uart.o
 .text.uartStartSend
                0x0000000000000000       0x1c build/obj/uart.o
 .text.uartStartSendI
                0x0000000000000000       0x10 build/obj/uart.o
 .text.uartStopSend
                0x0000000000000000       0x2c build/obj/uart.o
 .text.uartStopSendI
                0x0000000000000000       0x18 build/obj/uart.o
 .text.uartStartReceive
                0x0000000000000000       0x1c build/obj/uart.o
 .text.uartStartReceiveI
                0x0000000000000000       0x10 build/obj/uart.o
 .text.uartStopReceive
                0x0000000000000000       0x2c build/obj/uart.o
 .text.uartStopReceiveI
                0x0000000000000000       0x18 build/obj/uart.o
 .text          0x0000000000000000        0x0 build/obj/usb.o
 .data          0x0000000000000000        0x0 build/obj/usb.o
 .bss           0x0000000000000000        0x0 build/obj/usb.o
 .text.usbStop  0x0000000000000000       0x1c build/obj/usb.o
 .text.usbDisableEndpointsI
                0x0000000000000000       0x24 build/obj/usb.o
 .text.usbPrepareReceive
                0x0000000000000000       0x1c build/obj/usb.o
 .text.usbPrepareTransmit
                0x0000000000000000       0x1c build/obj/usb.o
 .text.usbStallReceiveI
                0x0000000000000000       0x1c build/obj/usb.o
 .text.usbStallTransmitI
                0x0000000000000000       0x1c build/obj/usb.o
 .text          0x0000000000000000        0x0 build/obj/nvic.o
 .data          0x0000000000000000        0x0 build/obj/nvic.o
 .bss           0x0000000000000000        0x0 build/obj/nvic.o
 .text.nvicDisableVector
                0x0000000000000000       0x28 build/obj/nvic.o
 .text.nvicClearPending
                0x0000000000000000       0x18 build/obj/nvic.o
 .text          0x0000000000000000        0x0 build/obj/stm32_dma.o
 .data          0x0000000000000000        0x0 build/obj/stm32_dma.o
 .bss           0x0000000000000000        0x0 build/obj/stm32_dma.o
 .text.dmaStreamRelease
                0x0000000000000000       0x44 build/obj/stm32_dma.o
 .text          0x0000000000000000        0x0 build/obj/hal_lld.o
 .data          0x0000000000000000        0x0 build/obj/hal_lld.o
 .bss           0x0000000000000000        0x0 build/obj/hal_lld.o
 .data.SystemCoreClock
                0x0000000000000000        0x4 build/obj/hal_lld.o
 .text          0x0000000000000000        0x0 build/obj/st_lld.o
 .data          0x0000000000000000        0x0 build/obj/st_lld.o
 .bss           0x0000000000000000        0x0 build/obj/st_lld.o
 .text          0x0000000000000000        0x0 build/obj/can_lld.o
 .data          0x0000000000000000        0x0 build/obj/can_lld.o
 .bss           0x0000000000000000        0x0 build/obj/can_lld.o
 .text.can_lld_start
                0x0000000000000000       0x70 build/obj/can_lld.o
 .text.can_lld_stop
                0x0000000000000000       0x50 build/obj/can_lld.o
 .text.can_lld_is_tx_empty
                0x0000000000000000       0x40 build/obj/can_lld.o
 .text.can_lld_transmit
                0x0000000000000000       0x78 build/obj/can_lld.o
 .text.can_lld_is_rx_nonempty
                0x0000000000000000       0x38 build/obj/can_lld.o
 .text.can_lld_receive
                0x0000000000000000       0xc8 build/obj/can_lld.o
 .text.can_lld_sleep
                0x0000000000000000        0xc build/obj/can_lld.o
 .text.can_lld_wakeup
                0x0000000000000000        0xc build/obj/can_lld.o
 .text.canSTM32SetFilters
                0x0000000000000000        0x4 build/obj/can_lld.o
 .text          0x0000000000000000        0x0 build/obj/pal_lld.o
 .data          0x0000000000000000        0x0 build/obj/pal_lld.o
 .bss           0x0000000000000000        0x0 build/obj/pal_lld.o
 .text          0x0000000000000000        0x0 build/obj/i2c_lld.o
 .data          0x0000000000000000        0x0 build/obj/i2c_lld.o
 .bss           0x0000000000000000        0x0 build/obj/i2c_lld.o
 .text.i2c_lld_serve_tx_end_irq
                0x0000000000000000       0x40 build/obj/i2c_lld.o
 .text.i2c_lld_serve_rx_end_irq
                0x0000000000000000       0x64 build/obj/i2c_lld.o
 .text.i2c_lld_start
                0x0000000000000000      0x180 build/obj/i2c_lld.o
 .text.i2c_lld_stop
                0x0000000000000000       0x88 build/obj/i2c_lld.o
 .text.i2c_lld_master_receive_timeout
                0x0000000000000000       0x74 build/obj/i2c_lld.o
 .text.i2c_lld_master_transmit_timeout
                0x0000000000000000       0x90 build/obj/i2c_lld.o
 .rodata.str1.4
                0x0000000000000000        0xc build/obj/i2c_lld.o
 .text          0x0000000000000000        0x0 build/obj/usb_lld.o
 .data          0x0000000000000000        0x0 build/obj/usb_lld.o
 .bss           0x0000000000000000        0x0 build/obj/usb_lld.o
 .text.usb_lld_stop
                0x0000000000000000       0x44 build/obj/usb_lld.o
 .text.usb_lld_disable_endpoints
                0x0000000000000000       0x10 build/obj/usb_lld.o
 .text          0x0000000000000000        0x0 build/obj/icu_lld.o
 .data          0x0000000000000000        0x0 build/obj/icu_lld.o
 .bss           0x0000000000000000        0x0 build/obj/icu_lld.o
 .text.icu_lld_wait_edge.isra.0
                0x0000000000000000       0x38 build/obj/icu_lld.o
 .text.icu_lld_start
                0x0000000000000000       0xbc build/obj/icu_lld.o
 .text.icu_lld_stop
                0x0000000000000000       0x34 build/obj/icu_lld.o
 .text.icu_lld_start_capture
                0x0000000000000000       0x14 build/obj/icu_lld.o
 .text.icu_lld_wait_capture
                0x0000000000000000       0x2c build/obj/icu_lld.o
 .text.icu_lld_stop_capture
                0x0000000000000000       0x10 build/obj/icu_lld.o
 .text.icu_lld_enable_notifications
                0x0000000000000000       0x40 build/obj/icu_lld.o
 .text.icu_lld_disable_notifications
                0x0000000000000000        0xc build/obj/icu_lld.o
 .text          0x0000000000000000        0x0 build/obj/uart_lld.o
 .data          0x0000000000000000        0x0 build/obj/uart_lld.o
 .bss           0x0000000000000000        0x0 build/obj/uart_lld.o
 .text.usart_stop
                0x0000000000000000       0x48 build/obj/uart_lld.o
 .text.uart_lld_serve_tx_end_irq
                0x0000000000000000       0x50 build/obj/uart_lld.o
 .text.uart_lld_serve_rx_end_irq
                0x0000000000000000       0x90 build/obj/uart_lld.o
 .text.uart_lld_start
                0x0000000000000000      0x15c build/obj/uart_lld.o
 .text.uart_lld_stop
                0x0000000000000000       0x5c build/obj/uart_lld.o
 .text.uart_lld_start_send
                0x0000000000000000       0x34 build/obj/uart_lld.o
 .text.uart_lld_stop_send
                0x0000000000000000       0x20 build/obj/uart_lld.o
 .text.uart_lld_start_receive
                0x0000000000000000       0x38 build/obj/uart_lld.o
 .text.uart_lld_stop_receive
                0x0000000000000000       0x4c build/obj/uart_lld.o
 .rodata.str1.4
                0x0000000000000000        0xc build/obj/uart_lld.o
 .text          0x0000000000000000        0x0 build/obj/board.o
 .data          0x0000000000000000        0x0 build/obj/board.o
 .bss           0x0000000000000000        0x0 build/obj/board.o
 .text          0x0000000000000000        0x0 build/obj/chprintf.o
 .data          0x0000000000000000        0x0 build/obj/chprintf.o
 .bss           0x0000000000000000        0x0 build/obj/chprintf.o
 .text.long_to_string_with_divisor
                0x0000000000000000       0x48 build/obj/chprintf.o
 .text.chvprintf
                0x0000000000000000      0x408 build/obj/chprintf.o
 .text.chsnprintf
                0x0000000000000000       0x60 build/obj/chprintf.o
 .rodata.str1.4
                0x0000000000000000        0x7 build/obj/chprintf.o
 .rodata.pow10  0x0000000000000000       0x24 build/obj/chprintf.o
 .debug_info    0x0000000000000000      0xd77 build/obj/chprintf.o
 .debug_abbrev  0x0000000000000000      0x32b build/obj/chprintf.o
 .debug_loc     0x0000000000000000      0xa64 build/obj/chprintf.o
 .debug_aranges
                0x0000000000000000       0x30 build/obj/chprintf.o
 .debug_ranges  0x0000000000000000       0x50 build/obj/chprintf.o
 .debug_line    0x0000000000000000      0x42b build/obj/chprintf.o
 .debug_str     0x0000000000000000      0x6fe build/obj/chprintf.o
 .comment       0x0000000000000000       0x71 build/obj/chprintf.o
 .debug_frame   0x0000000000000000       0xdc build/obj/chprintf.o
 .ARM.attributes
                0x0000000000000000       0x39 build/obj/chprintf.o
 .text          0x0000000000000000        0x0 build/obj/syscalls.o
 .data          0x0000000000000000        0x0 build/obj/syscalls.o
 .bss           0x0000000000000000        0x0 build/obj/syscalls.o
 .text._read_r  0x0000000000000000        0xc build/obj/syscalls.o
 .text._lseek_r
                0x0000000000000000        0x4 build/obj/syscalls.o
 .text._write_r
                0x0000000000000000        0x4 build/obj/syscalls.o
 .text._close_r
                0x0000000000000000        0x4 build/obj/syscalls.o
 .text._fstat_r
                0x0000000000000000       0x18 build/obj/syscalls.o
 .text._isatty_r
                0x0000000000000000        0x4 build/obj/syscalls.o
 .text          0x0000000000000000        0x0 build/obj/bldc.o
 .data          0x0000000000000000        0x0 build/obj/bldc.o
 .bss           0x0000000000000000        0x0 build/obj/bldc.o
 .text          0x0000000000000000        0x0 build/obj/mcpwm.o
 .data          0x0000000000000000        0x0 build/obj/mcpwm.o
 .bss           0x0000000000000000        0x0 build/obj/mcpwm.o
 .text.fputc    0x0000000000000000       0x24 build/obj/mcpwm.o
 .text.SetupParm
                0x0000000000000000       0x84 build/obj/mcpwm.o
 .text.InitPI   0x0000000000000000        0x8 build/obj/mcpwm.o
 .text.DebounceDelay
                0x0000000000000000        0x4 build/obj/mcpwm.o
 .text.MeasCompCurr
                0x0000000000000000       0x48 build/obj/mcpwm.o
 .text.InitMeasCompCurr
                0x0000000000000000        0xc build/obj/mcpwm.o
 .text.CalcRefVec
                0x0000000000000000       0x48 build/obj/mcpwm.o
 .text.SMCInit  0x0000000000000000       0x30 build/obj/mcpwm.o
 .text.SMC_Position_Estimation
                0x0000000000000000      0x1fc build/obj/mcpwm.o
 .text.CalculateParkAngle
                0x0000000000000000       0xf8 build/obj/mcpwm.o
 .text.FieldWeakening
                0x0000000000000000       0x34 build/obj/mcpwm.o
 .text.stop_pwm_hw
                0x0000000000000000       0x70 build/obj/mcpwm.o
 .text.mcpwm_get_tot_current
                0x0000000000000000       0x24 build/obj/mcpwm.o
 .text.mcpwm_get_rpm
                0x0000000000000000       0x24 build/obj/mcpwm.o
 .text.mcpwm_fault_to_string
                0x0000000000000000       0x18 build/obj/mcpwm.o
 .text.mcpwm_get_rpm_dep
                0x0000000000000000        0x4 build/obj/mcpwm.o
 .text.mcpwm_get_configuration
                0x0000000000000000        0x8 build/obj/mcpwm.o
 .text.mcpwm_set_configuration
                0x0000000000000000        0x4 build/obj/mcpwm.o
 .bss.rpm_now   0x0000000000000000        0x4 build/obj/mcpwm.o
 .bss.HallPLLA1
                0x0000000000000000        0x4 build/obj/mcpwm.o
 .bss.Wpll1     0x0000000000000000        0x4 build/obj/mcpwm.o
 .data.Kpll     0x0000000000000000        0x4 build/obj/mcpwm.o
 .rodata.CSWTCH.131
                0x0000000000000000       0x1c build/obj/mcpwm.o
 .bss.HallPLLdef1
                0x0000000000000000        0x4 build/obj/mcpwm.o
 .bss.conf      0x0000000000000000       0xb0 build/obj/mcpwm.o
 .bss.HallPLLqe
                0x0000000000000000        0x4 build/obj/mcpwm.o
 .bss.Init_Charge_cnt
                0x0000000000000000        0x4 build/obj/mcpwm.o
 .bss.AccumTheta
                0x0000000000000000        0x4 build/obj/mcpwm.o
 .bss.Drive_Status
                0x0000000000000000        0x4 build/obj/mcpwm.o
 .bss.Futi      0x0000000000000000        0x4 build/obj/mcpwm.o
 .bss.PrevTheta
                0x0000000000000000        0x4 build/obj/mcpwm.o
 .bss.count     0x0000000000000000        0x4 build/obj/mcpwm.o
 .bss.HallPLLdef
                0x0000000000000000        0x4 build/obj/mcpwm.o
 .bss.last_current_sample_filtered
                0x0000000000000000        0x4 build/obj/mcpwm.o
 .bss.Wplli     0x0000000000000000        0x4 build/obj/mcpwm.o
 .bss.Init_Charge_cnt_EN
                0x0000000000000000        0x4 build/obj/mcpwm.o
 .bss.State_Index
                0x0000000000000000        0x4 build/obj/mcpwm.o
 .bss.HallPLLde
                0x0000000000000000        0x4 build/obj/mcpwm.o
 .bss.Wpllp     0x0000000000000000        0x4 build/obj/mcpwm.o
 .bss.SpeedReference
                0x0000000000000000        0x4 build/obj/mcpwm.o
 .bss.Hall_KA   0x0000000000000000        0x4 build/obj/mcpwm.o
 .bss.last_current_sample
                0x0000000000000000        0x4 build/obj/mcpwm.o
 .bss.Seq       0x0000000000000000        0x4 build/obj/mcpwm.o
 .bss.HallPLLlead1
                0x0000000000000000        0x4 build/obj/mcpwm.o
 .bss.iADCisrCnt
                0x0000000000000000        0x2 build/obj/mcpwm.o
 .bss.Theta_error
                0x0000000000000000        0x4 build/obj/mcpwm.o
 .bss.direction
                0x0000000000000000        0x4 build/obj/mcpwm.o
 .bss.HallPLLlead
                0x0000000000000000        0x4 build/obj/mcpwm.o
 .bss.ThetaCal  0x0000000000000000        0x4 build/obj/mcpwm.o
 .bss.HallPLLB_filtered
                0x0000000000000000        0x4 build/obj/mcpwm.o
 .bss.VelReq    0x0000000000000000        0x4 build/obj/mcpwm.o
 .bss.HallPLLA_old
                0x0000000000000000        0x4 build/obj/mcpwm.o
 .bss.MotorParm
                0x0000000000000000        0x8 build/obj/mcpwm.o
 .data.Ipll     0x0000000000000000        0x4 build/obj/mcpwm.o
 .bss.HallPLLB_old
                0x0000000000000000        0x4 build/obj/mcpwm.o
 .bss.HallPLLA_filtered
                0x0000000000000000        0x4 build/obj/mcpwm.o
 .bss.HallPLLlead2
                0x0000000000000000        0x4 build/obj/mcpwm.o
 .data.Init_Charge_Time
                0x0000000000000000        0x4 build/obj/mcpwm.o
 .bss.HallPLLde1
                0x0000000000000000        0x4 build/obj/mcpwm.o
 .bss.Fault_seq
                0x0000000000000000        0x4 build/obj/mcpwm.o
 .bss.Hall_KB   0x0000000000000000        0x4 build/obj/mcpwm.o
 .bss.Wpll      0x0000000000000000        0x4 build/obj/mcpwm.o
 .text          0x0000000000000000        0x0 build/obj/usb_uart.o
 .data          0x0000000000000000        0x0 build/obj/usb_uart.o
 .bss           0x0000000000000000        0x0 build/obj/usb_uart.o
 .text.usb_uart_isActive
                0x0000000000000000       0x1c build/obj/usb_uart.o
 .text          0x0000000000000000        0x0 build/obj/irq_handlers.o
 .data          0x0000000000000000        0x0 build/obj/irq_handlers.o
 .bss           0x0000000000000000        0x0 build/obj/irq_handlers.o
 .text          0x0000000000000000        0x0 build/obj/comm_usb.o
 .data          0x0000000000000000        0x0 build/obj/comm_usb.o
 .bss           0x0000000000000000        0x0 build/obj/comm_usb.o
 .text          0x0000000000000000        0x0 build/obj/servo_dec.o
 .data          0x0000000000000000        0x0 build/obj/servo_dec.o
 .bss           0x0000000000000000        0x0 build/obj/servo_dec.o
 .text.icuperiodcb
                0x0000000000000000        0x4 build/obj/servo_dec.o
 .text.icuwidthcb
                0x0000000000000000      0x164 build/obj/servo_dec.o
 .text.servodec_init
                0x0000000000000000       0x50 build/obj/servo_dec.o
 .text.servodec_set_pulse_options
                0x0000000000000000       0x20 build/obj/servo_dec.o
 .text.servodec_get_servo
                0x0000000000000000       0x1c build/obj/servo_dec.o
 .text.servodec_get_time_since_update
                0x0000000000000000       0x20 build/obj/servo_dec.o
 .text.servodec_get_last_pulse_len
                0x0000000000000000       0x1c build/obj/servo_dec.o
 .data.c2.8829  0x0000000000000000        0x4 build/obj/servo_dec.o
 .bss.servo_pos
                0x0000000000000000        0x4 build/obj/servo_dec.o
 .data.c1.8828  0x0000000000000000        0x4 build/obj/servo_dec.o
 .data.pulse_end
                0x0000000000000000        0x4 build/obj/servo_dec.o
 .bss.last_update_time
                0x0000000000000000        0x4 build/obj/servo_dec.o
 .bss.last_len_received
                0x0000000000000000        0x4 build/obj/servo_dec.o
 .bss.use_median_filter
                0x0000000000000000        0x1 build/obj/servo_dec.o
 .data.pulse_start
                0x0000000000000000        0x4 build/obj/servo_dec.o
 .bss.done_func
                0x0000000000000000        0x4 build/obj/servo_dec.o
 .data.icucfg   0x0000000000000000       0x1c build/obj/servo_dec.o
 .debug_info    0x0000000000000000     0x100c build/obj/servo_dec.o
 .debug_abbrev  0x0000000000000000      0x3af build/obj/servo_dec.o
 .debug_loc     0x0000000000000000      0x138 build/obj/servo_dec.o
 .debug_aranges
                0x0000000000000000       0x50 build/obj/servo_dec.o
 .debug_ranges  0x0000000000000000       0xc0 build/obj/servo_dec.o
 .debug_line    0x0000000000000000      0x440 build/obj/servo_dec.o
 .debug_str     0x0000000000000000      0x993 build/obj/servo_dec.o
 .comment       0x0000000000000000       0x71 build/obj/servo_dec.o
 .debug_frame   0x0000000000000000       0xe4 build/obj/servo_dec.o
 .ARM.attributes
                0x0000000000000000       0x39 build/obj/servo_dec.o
 .text          0x0000000000000000        0x0 build/obj/utils.o
 .data          0x0000000000000000        0x0 build/obj/utils.o
 .bss           0x0000000000000000        0x0 build/obj/utils.o
 .text.utils_step_towards
                0x0000000000000000       0x38 build/obj/utils.o
 .text.utils_calc_ratio
                0x0000000000000000       0x10 build/obj/utils.o
 .text.utils_norm_angle
                0x0000000000000000       0x34 build/obj/utils.o
 .text.utils_truncate_number
                0x0000000000000000       0x2c build/obj/utils.o
 .text.utils_map
                0x0000000000000000       0x1c build/obj/utils.o
 .text.utils_deadband
                0x0000000000000000       0x48 build/obj/utils.o
 .text.utils_angle_difference
                0x0000000000000000       0x60 build/obj/utils.o
 .text          0x0000000000000000        0x0 build/obj/conf_general.o
 .data          0x0000000000000000        0x0 build/obj/conf_general.o
 .bss           0x0000000000000000        0x0 build/obj/conf_general.o
 .text.conf_general_store_app_configuration
                0x0000000000000000       0x5c build/obj/conf_general.o
 .text.conf_general_store_mc_configuration
                0x0000000000000000       0x5c build/obj/conf_general.o
 .text.conf_general_detect_motor_param
                0x0000000000000000        0x4 build/obj/conf_general.o
 .text          0x0000000000000000        0x0 build/obj/eeprom.o
 .data          0x0000000000000000        0x0 build/obj/eeprom.o
 .bss           0x0000000000000000        0x0 build/obj/eeprom.o
 .text.EE_WriteVariable
                0x0000000000000000       0xbc build/obj/eeprom.o
 .text          0x0000000000000000        0x0 build/obj/flash_helper.o
 .data          0x0000000000000000        0x0 build/obj/flash_helper.o
 .bss           0x0000000000000000        0x0 build/obj/flash_helper.o
 .text.flash_helper_erase_new_app
                0x0000000000000000       0x70 build/obj/flash_helper.o
 .text.flash_helper_write_new_app_data
                0x0000000000000000       0x60 build/obj/flash_helper.o
 .text.flash_helper_jump_to_bootloader
                0x0000000000000000       0x90 build/obj/flash_helper.o
 .text          0x0000000000000000        0x0 build/obj/hw_oroca.o
 .data          0x0000000000000000        0x0 build/obj/hw_oroca.o
 .bss           0x0000000000000000        0x0 build/obj/hw_oroca.o
 .text.hw_start_i2c
                0x0000000000000000       0x50 build/obj/hw_oroca.o
 .text.hw_stop_i2c
                0x0000000000000000       0x48 build/obj/hw_oroca.o
 .text.hw_try_restore_i2c
                0x0000000000000000       0xc4 build/obj/hw_oroca.o
 .bss.i2c_running
                0x0000000000000000        0x1 build/obj/hw_oroca.o
 .rodata.i2cfg  0x0000000000000000        0xc build/obj/hw_oroca.o
 .text          0x0000000000000000        0x0 build/obj/misc.o
 .data          0x0000000000000000        0x0 build/obj/misc.o
 .bss           0x0000000000000000        0x0 build/obj/misc.o
 .text.NVIC_PriorityGroupConfig
                0x0000000000000000       0x14 build/obj/misc.o
 .text.NVIC_SetVectorTable
                0x0000000000000000       0x14 build/obj/misc.o
 .text.NVIC_SystemLPConfig
                0x0000000000000000       0x18 build/obj/misc.o
 .text.SysTick_CLKSourceConfig
                0x0000000000000000       0x18 build/obj/misc.o
 .text          0x0000000000000000        0x0 build/obj/stm32f4xx_adc.o
 .data          0x0000000000000000        0x0 build/obj/stm32f4xx_adc.o
 .bss           0x0000000000000000        0x0 build/obj/stm32f4xx_adc.o
 .text.ADC_DeInit
                0x0000000000000000       0x1c build/obj/stm32f4xx_adc.o
 .text.ADC_StructInit
                0x0000000000000000       0x14 build/obj/stm32f4xx_adc.o
 .text.ADC_CommonStructInit
                0x0000000000000000        0xc build/obj/stm32f4xx_adc.o
 .text.ADC_AnalogWatchdogCmd
                0x0000000000000000       0x10 build/obj/stm32f4xx_adc.o
 .text.ADC_AnalogWatchdogThresholdsConfig
                0x0000000000000000        0x8 build/obj/stm32f4xx_adc.o
 .text.ADC_AnalogWatchdogSingleChannelConfig
                0x0000000000000000        0xc build/obj/stm32f4xx_adc.o
 .text.ADC_TempSensorVrefintCmd
                0x0000000000000000       0x1c build/obj/stm32f4xx_adc.o
 .text.ADC_VBATCmd
                0x0000000000000000       0x1c build/obj/stm32f4xx_adc.o
 .text.ADC_SoftwareStartConv
                0x0000000000000000        0xc build/obj/stm32f4xx_adc.o
 .text.ADC_GetSoftwareStartConvStatus
                0x0000000000000000        0x8 build/obj/stm32f4xx_adc.o
 .text.ADC_EOCOnEachRegularChannelCmd
                0x0000000000000000       0x14 build/obj/stm32f4xx_adc.o
 .text.ADC_ContinuousModeCmd
                0x0000000000000000       0x14 build/obj/stm32f4xx_adc.o
 .text.ADC_DiscModeChannelCountConfig
                0x0000000000000000       0x10 build/obj/stm32f4xx_adc.o
 .text.ADC_DiscModeCmd
                0x0000000000000000       0x14 build/obj/stm32f4xx_adc.o
 .text.ADC_GetConversionValue
                0x0000000000000000        0x8 build/obj/stm32f4xx_adc.o
 .text.ADC_GetMultiModeConversionValue
                0x0000000000000000        0xc build/obj/stm32f4xx_adc.o
 .text.ADC_DMACmd
                0x0000000000000000       0x14 build/obj/stm32f4xx_adc.o
 .text.ADC_DMARequestAfterLastTransferCmd
                0x0000000000000000       0x14 build/obj/stm32f4xx_adc.o
 .text.ADC_SetInjectedOffset
                0x0000000000000000       0x18 build/obj/stm32f4xx_adc.o
 .text.ADC_SoftwareStartInjectedConv
                0x0000000000000000        0xc build/obj/stm32f4xx_adc.o
 .text.ADC_GetSoftwareStartInjectedConvCmdStatus
                0x0000000000000000        0x8 build/obj/stm32f4xx_adc.o
 .text.ADC_AutoInjectedConvCmd
                0x0000000000000000       0x14 build/obj/stm32f4xx_adc.o
 .text.ADC_InjectedDiscModeCmd
                0x0000000000000000       0x14 build/obj/stm32f4xx_adc.o
 .text.ADC_GetFlagStatus
                0x0000000000000000        0xc build/obj/stm32f4xx_adc.o
 .text.ADC_ClearFlag
                0x0000000000000000        0x8 build/obj/stm32f4xx_adc.o
 .text.ADC_GetITStatus
                0x0000000000000000       0x1c build/obj/stm32f4xx_adc.o
 .text          0x0000000000000000        0x0 build/obj/stm32f4xx_dma.o
 .data          0x0000000000000000        0x0 build/obj/stm32f4xx_dma.o
 .bss           0x0000000000000000        0x0 build/obj/stm32f4xx_dma.o
 .text.DMA_DeInit
                0x0000000000000000      0x130 build/obj/stm32f4xx_dma.o
 .text.DMA_StructInit
                0x0000000000000000       0x24 build/obj/stm32f4xx_dma.o
 .text.DMA_PeriphIncOffsetSizeConfig
                0x0000000000000000       0x14 build/obj/stm32f4xx_dma.o
 .text.DMA_FlowControllerConfig
                0x0000000000000000       0x14 build/obj/stm32f4xx_dma.o
 .text.DMA_SetCurrDataCounter
                0x0000000000000000        0x4 build/obj/stm32f4xx_dma.o
 .text.DMA_GetCurrDataCounter
                0x0000000000000000        0x8 build/obj/stm32f4xx_dma.o
 .text.DMA_DoubleBufferModeConfig
                0x0000000000000000       0x18 build/obj/stm32f4xx_dma.o
 .text.DMA_DoubleBufferModeCmd
                0x0000000000000000       0x14 build/obj/stm32f4xx_dma.o
 .text.DMA_MemoryTargetConfig
                0x0000000000000000        0xc build/obj/stm32f4xx_dma.o
 .text.DMA_GetCurrentMemoryTarget
                0x0000000000000000        0x8 build/obj/stm32f4xx_dma.o
 .text.DMA_GetCmdStatus
                0x0000000000000000        0x8 build/obj/stm32f4xx_dma.o
 .text.DMA_GetFIFOStatus
                0x0000000000000000        0x8 build/obj/stm32f4xx_dma.o
 .text.DMA_GetFlagStatus
                0x0000000000000000       0x3c build/obj/stm32f4xx_dma.o
 .text.DMA_ClearFlag
                0x0000000000000000       0x34 build/obj/stm32f4xx_dma.o
 .text.DMA_GetITStatus
                0x0000000000000000       0x50 build/obj/stm32f4xx_dma.o
 .text.DMA_ClearITPendingBit
                0x0000000000000000       0x34 build/obj/stm32f4xx_dma.o
 .text          0x0000000000000000        0x0 build/obj/stm32f4xx_exti.o
 .data          0x0000000000000000        0x0 build/obj/stm32f4xx_exti.o
 .bss           0x0000000000000000        0x0 build/obj/stm32f4xx_exti.o
 .text.EXTI_DeInit
                0x0000000000000000       0x1c build/obj/stm32f4xx_exti.o
 .text.EXTI_Init
                0x0000000000000000       0x7c build/obj/stm32f4xx_exti.o
 .text.EXTI_StructInit
                0x0000000000000000       0x10 build/obj/stm32f4xx_exti.o
 .text.EXTI_GenerateSWInterrupt
                0x0000000000000000       0x10 build/obj/stm32f4xx_exti.o
 .text.EXTI_GetFlagStatus
                0x0000000000000000       0x14 build/obj/stm32f4xx_exti.o
 .text.EXTI_ClearFlag
                0x0000000000000000        0xc build/obj/stm32f4xx_exti.o
 .text          0x0000000000000000        0x0 build/obj/stm32f4xx_flash.o
 .data          0x0000000000000000        0x0 build/obj/stm32f4xx_flash.o
 .bss           0x0000000000000000        0x0 build/obj/stm32f4xx_flash.o
 .text.FLASH_SetLatency
                0x0000000000000000        0xc build/obj/stm32f4xx_flash.o
 .text.FLASH_PrefetchBufferCmd
                0x0000000000000000       0x1c build/obj/stm32f4xx_flash.o
 .text.FLASH_InstructionCacheCmd
                0x0000000000000000       0x1c build/obj/stm32f4xx_flash.o
 .text.FLASH_DataCacheCmd
                0x0000000000000000       0x1c build/obj/stm32f4xx_flash.o
 .text.FLASH_InstructionCacheReset
                0x0000000000000000       0x10 build/obj/stm32f4xx_flash.o
 .text.FLASH_DataCacheReset
                0x0000000000000000       0x10 build/obj/stm32f4xx_flash.o
 .text.FLASH_Lock
                0x0000000000000000       0x10 build/obj/stm32f4xx_flash.o
 .text.FLASH_OB_Unlock
                0x0000000000000000       0x20 build/obj/stm32f4xx_flash.o
 .text.FLASH_OB_Lock
                0x0000000000000000       0x10 build/obj/stm32f4xx_flash.o
 .text.FLASH_OB_PCROPSelectionConfig
                0x0000000000000000       0x14 build/obj/stm32f4xx_flash.o
 .text.FLASH_OB_BootConfig
                0x0000000000000000       0x18 build/obj/stm32f4xx_flash.o
 .text.FLASH_OB_BORConfig
                0x0000000000000000       0x18 build/obj/stm32f4xx_flash.o
 .text.FLASH_OB_GetUser
                0x0000000000000000       0x10 build/obj/stm32f4xx_flash.o
 .text.FLASH_OB_GetWRP
                0x0000000000000000        0xc build/obj/stm32f4xx_flash.o
 .text.FLASH_OB_GetWRP1
                0x0000000000000000        0xc build/obj/stm32f4xx_flash.o
 .text.FLASH_OB_GetPCROP
                0x0000000000000000        0xc build/obj/stm32f4xx_flash.o
 .text.FLASH_OB_GetPCROP1
                0x0000000000000000        0xc build/obj/stm32f4xx_flash.o
 .text.FLASH_OB_GetRDP
                0x0000000000000000       0x10 build/obj/stm32f4xx_flash.o
 .text.FLASH_OB_GetBOR
                0x0000000000000000       0x10 build/obj/stm32f4xx_flash.o
 .text.FLASH_ITConfig
                0x0000000000000000       0x18 build/obj/stm32f4xx_flash.o
 .text.FLASH_GetFlagStatus
                0x0000000000000000       0x14 build/obj/stm32f4xx_flash.o
 .text.FLASH_EraseAllSectors
                0x0000000000000000       0x5c build/obj/stm32f4xx_flash.o
 .text.FLASH_EraseAllBank1Sectors
                0x0000000000000000       0x5c build/obj/stm32f4xx_flash.o
 .text.FLASH_EraseAllBank2Sectors
                0x0000000000000000       0x5c build/obj/stm32f4xx_flash.o
 .text.FLASH_ProgramDoubleWord
                0x0000000000000000       0x44 build/obj/stm32f4xx_flash.o
 .text.FLASH_ProgramWord
                0x0000000000000000       0x40 build/obj/stm32f4xx_flash.o
 .text.FLASH_ProgramByte
                0x0000000000000000       0x3c build/obj/stm32f4xx_flash.o
 .text.FLASH_OB_WRPConfig
                0x0000000000000000       0x2c build/obj/stm32f4xx_flash.o
 .text.FLASH_OB_WRP1Config
                0x0000000000000000       0x2c build/obj/stm32f4xx_flash.o
 .text.FLASH_OB_PCROPConfig
                0x0000000000000000       0x2c build/obj/stm32f4xx_flash.o
 .text.FLASH_OB_PCROP1Config
                0x0000000000000000       0x2c build/obj/stm32f4xx_flash.o
 .text.FLASH_OB_RDPConfig
                0x0000000000000000       0x18 build/obj/stm32f4xx_flash.o
 .text.FLASH_OB_UserConfig
                0x0000000000000000       0x28 build/obj/stm32f4xx_flash.o
 .text.FLASH_OB_Launch
                0x0000000000000000       0x14 build/obj/stm32f4xx_flash.o
 .text          0x0000000000000000        0x0 build/obj/stm32f4xx_rcc.o
 .data          0x0000000000000000        0x0 build/obj/stm32f4xx_rcc.o
 .bss           0x0000000000000000        0x0 build/obj/stm32f4xx_rcc.o
 .text.RCC_DeInit
                0x0000000000000000       0x34 build/obj/stm32f4xx_rcc.o
 .text.RCC_HSEConfig
                0x0000000000000000       0x10 build/obj/stm32f4xx_rcc.o
 .text.RCC_WaitForHSEStartUp
                0x0000000000000000       0x34 build/obj/stm32f4xx_rcc.o
 .text.RCC_AdjustHSICalibrationValue
                0x0000000000000000       0x14 build/obj/stm32f4xx_rcc.o
 .text.RCC_HSICmd
                0x0000000000000000        0xc build/obj/stm32f4xx_rcc.o
 .text.RCC_LSEConfig
                0x0000000000000000       0x20 build/obj/stm32f4xx_rcc.o
 .text.RCC_LSICmd
                0x0000000000000000        0xc build/obj/stm32f4xx_rcc.o
 .text.RCC_PLLCmd
                0x0000000000000000        0xc build/obj/stm32f4xx_rcc.o
 .text.RCC_PLLI2SCmd
                0x0000000000000000        0xc build/obj/stm32f4xx_rcc.o
 .text.RCC_PLLSAICmd
                0x0000000000000000        0xc build/obj/stm32f4xx_rcc.o
 .text.RCC_ClockSecuritySystemCmd
                0x0000000000000000        0xc build/obj/stm32f4xx_rcc.o
 .text.RCC_MCO1Config
                0x0000000000000000       0x14 build/obj/stm32f4xx_rcc.o
 .text.RCC_MCO2Config
                0x0000000000000000       0x14 build/obj/stm32f4xx_rcc.o
 .text.RCC_SYSCLKConfig
                0x0000000000000000       0x14 build/obj/stm32f4xx_rcc.o
 .text.RCC_GetSYSCLKSource
                0x0000000000000000       0x10 build/obj/stm32f4xx_rcc.o
 .text.RCC_HCLKConfig
                0x0000000000000000       0x14 build/obj/stm32f4xx_rcc.o
 .text.RCC_PCLK1Config
                0x0000000000000000       0x14 build/obj/stm32f4xx_rcc.o
 .text.RCC_PCLK2Config
                0x0000000000000000       0x14 build/obj/stm32f4xx_rcc.o
 .text.RCC_GetClocksFreq
                0x0000000000000000       0x98 build/obj/stm32f4xx_rcc.o
 .text.RCC_RTCCLKConfig
                0x0000000000000000       0x30 build/obj/stm32f4xx_rcc.o
 .text.RCC_RTCCLKCmd
                0x0000000000000000        0xc build/obj/stm32f4xx_rcc.o
 .text.RCC_BackupResetCmd
                0x0000000000000000        0xc build/obj/stm32f4xx_rcc.o
 .text.RCC_TIMCLKPresConfig
                0x0000000000000000        0xc build/obj/stm32f4xx_rcc.o
 .text.RCC_AHB2PeriphClockCmd
                0x0000000000000000       0x18 build/obj/stm32f4xx_rcc.o
 .text.RCC_AHB1PeriphResetCmd
                0x0000000000000000       0x18 build/obj/stm32f4xx_rcc.o
 .text.RCC_AHB2PeriphResetCmd
                0x0000000000000000       0x18 build/obj/stm32f4xx_rcc.o
 .text.RCC_AHB1PeriphClockLPModeCmd
                0x0000000000000000       0x18 build/obj/stm32f4xx_rcc.o
 .text.RCC_AHB2PeriphClockLPModeCmd
                0x0000000000000000       0x18 build/obj/stm32f4xx_rcc.o
 .text.RCC_APB1PeriphClockLPModeCmd
                0x0000000000000000       0x18 build/obj/stm32f4xx_rcc.o
 .text.RCC_APB2PeriphClockLPModeCmd
                0x0000000000000000       0x18 build/obj/stm32f4xx_rcc.o
 .text.RCC_LSEModeConfig
                0x0000000000000000       0x18 build/obj/stm32f4xx_rcc.o
 .text.RCC_ITConfig
                0x0000000000000000       0x18 build/obj/stm32f4xx_rcc.o
 .text.RCC_GetFlagStatus
                0x0000000000000000       0x34 build/obj/stm32f4xx_rcc.o
 .text.RCC_ClearFlag
                0x0000000000000000       0x10 build/obj/stm32f4xx_rcc.o
 .text.RCC_GetITStatus
                0x0000000000000000       0x14 build/obj/stm32f4xx_rcc.o
 .text.RCC_ClearITPendingBit
                0x0000000000000000        0xc build/obj/stm32f4xx_rcc.o
 .data.APBAHBPrescTable
                0x0000000000000000       0x10 build/obj/stm32f4xx_rcc.o
 .text          0x0000000000000000        0x0 build/obj/stm32f4xx_syscfg.o
 .data          0x0000000000000000        0x0 build/obj/stm32f4xx_syscfg.o
 .bss           0x0000000000000000        0x0 build/obj/stm32f4xx_syscfg.o
 .text.SYSCFG_DeInit
                0x0000000000000000       0x1c build/obj/stm32f4xx_syscfg.o
 .text.SYSCFG_MemoryRemapConfig
                0x0000000000000000        0xc build/obj/stm32f4xx_syscfg.o
 .text.SYSCFG_MemorySwappingBank
                0x0000000000000000        0xc build/obj/stm32f4xx_syscfg.o
 .text.SYSCFG_EXTILineConfig
                0x0000000000000000       0x30 build/obj/stm32f4xx_syscfg.o
 .text.SYSCFG_ETH_MediaInterfaceConfig
                0x0000000000000000        0xc build/obj/stm32f4xx_syscfg.o
 .text.SYSCFG_CompensationCellCmd
                0x0000000000000000        0xc build/obj/stm32f4xx_syscfg.o
 .text.SYSCFG_GetCompensationCellStatus
                0x0000000000000000       0x10 build/obj/stm32f4xx_syscfg.o
 .debug_info    0x0000000000000000      0x2d8 build/obj/stm32f4xx_syscfg.o
 .debug_abbrev  0x0000000000000000      0x169 build/obj/stm32f4xx_syscfg.o
 .debug_loc     0x0000000000000000       0xa6 build/obj/stm32f4xx_syscfg.o
 .debug_aranges
                0x0000000000000000       0x50 build/obj/stm32f4xx_syscfg.o
 .debug_ranges  0x0000000000000000       0x40 build/obj/stm32f4xx_syscfg.o
 .debug_line    0x0000000000000000      0x25c build/obj/stm32f4xx_syscfg.o
 .debug_str     0x0000000000000000      0x3e7 build/obj/stm32f4xx_syscfg.o
 .comment       0x0000000000000000       0x71 build/obj/stm32f4xx_syscfg.o
 .debug_frame   0x0000000000000000       0x9c build/obj/stm32f4xx_syscfg.o
 .ARM.attributes
                0x0000000000000000       0x39 build/obj/stm32f4xx_syscfg.o
 .text          0x0000000000000000        0x0 build/obj/stm32f4xx_tim.o
 .data          0x0000000000000000        0x0 build/obj/stm32f4xx_tim.o
 .bss           0x0000000000000000        0x0 build/obj/stm32f4xx_tim.o
 .text.TIM_TimeBaseStructInit
                0x0000000000000000       0x14 build/obj/stm32f4xx_tim.o
 .text.TIM_PrescalerConfig
                0x0000000000000000        0x8 build/obj/stm32f4xx_tim.o
 .text.TIM_CounterModeConfig
                0x0000000000000000       0x10 build/obj/stm32f4xx_tim.o
 .text.TIM_SetCounter
                0x0000000000000000        0x4 build/obj/stm32f4xx_tim.o
 .text.TIM_SetAutoreload
                0x0000000000000000        0x4 build/obj/stm32f4xx_tim.o
 .text.TIM_GetCounter
                0x0000000000000000        0x4 build/obj/stm32f4xx_tim.o
 .text.TIM_GetPrescaler
                0x0000000000000000        0x8 build/obj/stm32f4xx_tim.o
 .text.TIM_UpdateDisableConfig
                0x0000000000000000       0x18 build/obj/stm32f4xx_tim.o
 .text.TIM_UpdateRequestConfig
                0x0000000000000000       0x18 build/obj/stm32f4xx_tim.o
 .text.TIM_SelectOnePulseMode
                0x0000000000000000       0x14 build/obj/stm32f4xx_tim.o
 .text.TIM_SetClockDivision
                0x0000000000000000       0x14 build/obj/stm32f4xx_tim.o
 .text.TIM_OCStructInit
                0x0000000000000000       0x14 build/obj/stm32f4xx_tim.o
 .text.TIM_SelectOCxM
                0x0000000000000000       0x50 build/obj/stm32f4xx_tim.o
 .text.TIM_SetCompare1
                0x0000000000000000        0x4 build/obj/stm32f4xx_tim.o
 .text.TIM_SetCompare2
                0x0000000000000000        0x4 build/obj/stm32f4xx_tim.o
 .text.TIM_SetCompare3
                0x0000000000000000        0x4 build/obj/stm32f4xx_tim.o
 .text.TIM_SetCompare4
                0x0000000000000000        0x4 build/obj/stm32f4xx_tim.o
 .text.TIM_ForcedOC1Config
                0x0000000000000000       0x10 build/obj/stm32f4xx_tim.o
 .text.TIM_ForcedOC2Config
                0x0000000000000000       0x14 build/obj/stm32f4xx_tim.o
 .text.TIM_ForcedOC3Config
                0x0000000000000000       0x10 build/obj/stm32f4xx_tim.o
 .text.TIM_ForcedOC4Config
                0x0000000000000000       0x14 build/obj/stm32f4xx_tim.o
 .text.TIM_OC1FastConfig
                0x0000000000000000       0x10 build/obj/stm32f4xx_tim.o
 .text.TIM_OC2FastConfig
                0x0000000000000000       0x14 build/obj/stm32f4xx_tim.o
 .text.TIM_OC3FastConfig
                0x0000000000000000       0x10 build/obj/stm32f4xx_tim.o
 .text.TIM_OC4FastConfig
                0x0000000000000000       0x14 build/obj/stm32f4xx_tim.o
 .text.TIM_ClearOC1Ref
                0x0000000000000000       0x10 build/obj/stm32f4xx_tim.o
 .text.TIM_ClearOC2Ref
                0x0000000000000000       0x10 build/obj/stm32f4xx_tim.o
 .text.TIM_ClearOC3Ref
                0x0000000000000000       0x10 build/obj/stm32f4xx_tim.o
 .text.TIM_ClearOC4Ref
                0x0000000000000000       0x10 build/obj/stm32f4xx_tim.o
 .text.TIM_OC1PolarityConfig
                0x0000000000000000       0x10 build/obj/stm32f4xx_tim.o
 .text.TIM_OC1NPolarityConfig
                0x0000000000000000       0x10 build/obj/stm32f4xx_tim.o
 .text.TIM_OC2PolarityConfig
                0x0000000000000000       0x14 build/obj/stm32f4xx_tim.o
 .text.TIM_OC2NPolarityConfig
                0x0000000000000000       0x14 build/obj/stm32f4xx_tim.o
 .text.TIM_OC3PolarityConfig
                0x0000000000000000       0x14 build/obj/stm32f4xx_tim.o
 .text.TIM_OC3NPolarityConfig
                0x0000000000000000       0x14 build/obj/stm32f4xx_tim.o
 .text.TIM_OC4PolarityConfig
                0x0000000000000000       0x14 build/obj/stm32f4xx_tim.o
 .text.TIM_CCxCmd
                0x0000000000000000       0x20 build/obj/stm32f4xx_tim.o
 .text.TIM_CCxNCmd
                0x0000000000000000       0x20 build/obj/stm32f4xx_tim.o
 .text.TIM_ICInit
                0x0000000000000000      0x140 build/obj/stm32f4xx_tim.o
 .text.TIM_ICStructInit
                0x0000000000000000       0x10 build/obj/stm32f4xx_tim.o
 .text.TIM_PWMIConfig
                0x0000000000000000      0x144 build/obj/stm32f4xx_tim.o
 .text.TIM_GetCapture1
                0x0000000000000000        0x4 build/obj/stm32f4xx_tim.o
 .text.TIM_GetCapture2
                0x0000000000000000        0x4 build/obj/stm32f4xx_tim.o
 .text.TIM_GetCapture3
                0x0000000000000000        0x4 build/obj/stm32f4xx_tim.o
 .text.TIM_GetCapture4
                0x0000000000000000        0x4 build/obj/stm32f4xx_tim.o
 .text.TIM_SetIC1Prescaler
                0x0000000000000000       0x14 build/obj/stm32f4xx_tim.o
 .text.TIM_SetIC2Prescaler
                0x0000000000000000       0x18 build/obj/stm32f4xx_tim.o
 .text.TIM_SetIC3Prescaler
                0x0000000000000000       0x14 build/obj/stm32f4xx_tim.o
 .text.TIM_SetIC4Prescaler
                0x0000000000000000       0x18 build/obj/stm32f4xx_tim.o
 .text.TIM_BDTRStructInit
                0x0000000000000000       0x14 build/obj/stm32f4xx_tim.o
 .text.TIM_SelectCOM
                0x0000000000000000       0x18 build/obj/stm32f4xx_tim.o
 .text.TIM_ITConfig
                0x0000000000000000       0x18 build/obj/stm32f4xx_tim.o
 .text.TIM_GenerateEvent
                0x0000000000000000        0x4 build/obj/stm32f4xx_tim.o
 .text.TIM_GetFlagStatus
                0x0000000000000000        0xc build/obj/stm32f4xx_tim.o
 .text.TIM_ClearFlag
                0x0000000000000000        0x8 build/obj/stm32f4xx_tim.o
 .text.TIM_GetITStatus
                0x0000000000000000       0x14 build/obj/stm32f4xx_tim.o
 .text.TIM_DMAConfig
                0x0000000000000000        0x8 build/obj/stm32f4xx_tim.o
 .text.TIM_DMACmd
                0x0000000000000000       0x18 build/obj/stm32f4xx_tim.o
 .text.TIM_SelectCCDMA
                0x0000000000000000       0x18 build/obj/stm32f4xx_tim.o
 .text.TIM_InternalClockConfig
                0x0000000000000000        0xc build/obj/stm32f4xx_tim.o
 .text.TIM_ITRxExternalClockConfig
                0x0000000000000000       0x18 build/obj/stm32f4xx_tim.o
 .text.TIM_TIxExternalClockConfig
                0x0000000000000000       0x80 build/obj/stm32f4xx_tim.o
 .text.TIM_ETRClockMode1Config
                0x0000000000000000       0x28 build/obj/stm32f4xx_tim.o
 .text.TIM_ETRClockMode2Config
                0x0000000000000000       0x20 build/obj/stm32f4xx_tim.o
 .text.TIM_ETRConfig
                0x0000000000000000       0x18 build/obj/stm32f4xx_tim.o
 .text.TIM_EncoderInterfaceConfig
                0x0000000000000000       0x38 build/obj/stm32f4xx_tim.o
 .text.TIM_SelectHallSensor
                0x0000000000000000       0x18 build/obj/stm32f4xx_tim.o
 .text.TIM_RemapConfig
                0x0000000000000000        0x4 build/obj/stm32f4xx_tim.o
 .text          0x0000000000000000        0x0 build/obj/stm32f4xx_wwdg.o
 .data          0x0000000000000000        0x0 build/obj/stm32f4xx_wwdg.o
 .bss           0x0000000000000000        0x0 build/obj/stm32f4xx_wwdg.o
 .text.WWDG_DeInit
                0x0000000000000000       0x1c build/obj/stm32f4xx_wwdg.o
 .text.WWDG_EnableIT
                0x0000000000000000        0xc build/obj/stm32f4xx_wwdg.o
 .text.WWDG_GetFlagStatus
                0x0000000000000000       0x10 build/obj/stm32f4xx_wwdg.o
 .text.WWDG_ClearFlag
                0x0000000000000000        0xc build/obj/stm32f4xx_wwdg.o
 .text          0x0000000000000000        0x0 build/obj/main.o
 .data          0x0000000000000000        0x0 build/obj/main.o
 .bss           0x0000000000000000        0x0 build/obj/main.o
 .text._ZN5cTest5printEv
                0x0000000000000000        0x4 build/obj/main.o
 .text._Z9main_initv
                0x0000000000000000        0x4 build/obj/main.o
 .bss.test      0x0000000000000000        0x1 build/obj/main.o
 .text          0x0000000000000000        0x0 /Users/imac/Downloads/gcc-arm-none-eabi-4_9-2015q2/bin/../lib/gcc/arm-none-eabi/4.9.3/../../../../arm-none-eabi/lib/armv7e-m/fpu/libm.a(lib_a-sf_cos.o)
 .data          0x0000000000000000        0x0 /Users/imac/Downloads/gcc-arm-none-eabi-4_9-2015q2/bin/../lib/gcc/arm-none-eabi/4.9.3/../../../../arm-none-eabi/lib/armv7e-m/fpu/libm.a(lib_a-sf_cos.o)
 .bss           0x0000000000000000        0x0 /Users/imac/Downloads/gcc-arm-none-eabi-4_9-2015q2/bin/../lib/gcc/arm-none-eabi/4.9.3/../../../../arm-none-eabi/lib/armv7e-m/fpu/libm.a(lib_a-sf_cos.o)
 .text          0x0000000000000000        0x0 /Users/imac/Downloads/gcc-arm-none-eabi-4_9-2015q2/bin/../lib/gcc/arm-none-eabi/4.9.3/../../../../arm-none-eabi/lib/armv7e-m/fpu/libm.a(lib_a-sf_sin.o)
 .data          0x0000000000000000        0x0 /Users/imac/Downloads/gcc-arm-none-eabi-4_9-2015q2/bin/../lib/gcc/arm-none-eabi/4.9.3/../../../../arm-none-eabi/lib/armv7e-m/fpu/libm.a(lib_a-sf_sin.o)
 .bss           0x0000000000000000        0x0 /Users/imac/Downloads/gcc-arm-none-eabi-4_9-2015q2/bin/../lib/gcc/arm-none-eabi/4.9.3/../../../../arm-none-eabi/lib/armv7e-m/fpu/libm.a(lib_a-sf_sin.o)
 .text          0x0000000000000000        0x0 /Users/imac/Downloads/gcc-arm-none-eabi-4_9-2015q2/bin/../lib/gcc/arm-none-eabi/4.9.3/../../../../arm-none-eabi/lib/armv7e-m/fpu/libm.a(lib_a-wf_atan2.o)
 .data          0x0000000000000000        0x0 /Users/imac/Downloads/gcc-arm-none-eabi-4_9-2015q2/bin/../lib/gcc/arm-none-eabi/4.9.3/../../../../arm-none-eabi/lib/armv7e-m/fpu/libm.a(lib_a-wf_atan2.o)
 .bss           0x0000000000000000        0x0 /Users/imac/Downloads/gcc-arm-none-eabi-4_9-2015q2/bin/../lib/gcc/arm-none-eabi/4.9.3/../../../../arm-none-eabi/lib/armv7e-m/fpu/libm.a(lib_a-wf_atan2.o)
 .text.atan2f   0x0000000000000000        0x4 /Users/imac/Downloads/gcc-arm-none-eabi-4_9-2015q2/bin/../lib/gcc/arm-none-eabi/4.9.3/../../../../arm-none-eabi/lib/armv7e-m/fpu/libm.a(lib_a-wf_atan2.o)
 .debug_frame   0x0000000000000000       0x20 /Users/imac/Downloads/gcc-arm-none-eabi-4_9-2015q2/bin/../lib/gcc/arm-none-eabi/4.9.3/../../../../arm-none-eabi/lib/armv7e-m/fpu/libm.a(lib_a-wf_atan2.o)
 .ARM.attributes
                0x0000000000000000       0x34 /Users/imac/Downloads/gcc-arm-none-eabi-4_9-2015q2/bin/../lib/gcc/arm-none-eabi/4.9.3/../../../../arm-none-eabi/lib/armv7e-m/fpu/libm.a(lib_a-wf_atan2.o)
 .text          0x0000000000000000        0x0 /Users/imac/Downloads/gcc-arm-none-eabi-4_9-2015q2/bin/../lib/gcc/arm-none-eabi/4.9.3/../../../../arm-none-eabi/lib/armv7e-m/fpu/libm.a(lib_a-wf_fmod.o)
 .data          0x0000000000000000        0x0 /Users/imac/Downloads/gcc-arm-none-eabi-4_9-2015q2/bin/../lib/gcc/arm-none-eabi/4.9.3/../../../../arm-none-eabi/lib/armv7e-m/fpu/libm.a(lib_a-wf_fmod.o)
 .bss           0x0000000000000000        0x0 /Users/imac/Downloads/gcc-arm-none-eabi-4_9-2015q2/bin/../lib/gcc/arm-none-eabi/4.9.3/../../../../arm-none-eabi/lib/armv7e-m/fpu/libm.a(lib_a-wf_fmod.o)
 .text.fmodf    0x0000000000000000       0xcc /Users/imac/Downloads/gcc-arm-none-eabi-4_9-2015q2/bin/../lib/gcc/arm-none-eabi/4.9.3/../../../../arm-none-eabi/lib/armv7e-m/fpu/libm.a(lib_a-wf_fmod.o)
 .rodata.str1.4
                0x0000000000000000        0x6 /Users/imac/Downloads/gcc-arm-none-eabi-4_9-2015q2/bin/../lib/gcc/arm-none-eabi/4.9.3/../../../../arm-none-eabi/lib/armv7e-m/fpu/libm.a(lib_a-wf_fmod.o)
 .debug_frame   0x0000000000000000       0x50 /Users/imac/Downloads/gcc-arm-none-eabi-4_9-2015q2/bin/../lib/gcc/arm-none-eabi/4.9.3/../../../../arm-none-eabi/lib/armv7e-m/fpu/libm.a(lib_a-wf_fmod.o)
 .ARM.attributes
                0x0000000000000000       0x34 /Users/imac/Downloads/gcc-arm-none-eabi-4_9-2015q2/bin/../lib/gcc/arm-none-eabi/4.9.3/../../../../arm-none-eabi/lib/armv7e-m/fpu/libm.a(lib_a-wf_fmod.o)
 .text          0x0000000000000000        0x0 /Users/imac/Downloads/gcc-arm-none-eabi-4_9-2015q2/bin/../lib/gcc/arm-none-eabi/4.9.3/../../../../arm-none-eabi/lib/armv7e-m/fpu/libm.a(lib_a-wf_sqrt.o)
 .data          0x0000000000000000        0x0 /Users/imac/Downloads/gcc-arm-none-eabi-4_9-2015q2/bin/../lib/gcc/arm-none-eabi/4.9.3/../../../../arm-none-eabi/lib/armv7e-m/fpu/libm.a(lib_a-wf_sqrt.o)
 .bss           0x0000000000000000        0x0 /Users/imac/Downloads/gcc-arm-none-eabi-4_9-2015q2/bin/../lib/gcc/arm-none-eabi/4.9.3/../../../../arm-none-eabi/lib/armv7e-m/fpu/libm.a(lib_a-wf_sqrt.o)
 .text          0x0000000000000000        0x0 /Users/imac/Downloads/gcc-arm-none-eabi-4_9-2015q2/bin/../lib/gcc/arm-none-eabi/4.9.3/../../../../arm-none-eabi/lib/armv7e-m/fpu/libm.a(lib_a-ef_atan2.o)
 .data          0x0000000000000000        0x0 /Users/imac/Downloads/gcc-arm-none-eabi-4_9-2015q2/bin/../lib/gcc/arm-none-eabi/4.9.3/../../../../arm-none-eabi/lib/armv7e-m/fpu/libm.a(lib_a-ef_atan2.o)
 .bss           0x0000000000000000        0x0 /Users/imac/Downloads/gcc-arm-none-eabi-4_9-2015q2/bin/../lib/gcc/arm-none-eabi/4.9.3/../../../../arm-none-eabi/lib/armv7e-m/fpu/libm.a(lib_a-ef_atan2.o)
 .text.__ieee754_atan2f
                0x0000000000000000      0x16c /Users/imac/Downloads/gcc-arm-none-eabi-4_9-2015q2/bin/../lib/gcc/arm-none-eabi/4.9.3/../../../../arm-none-eabi/lib/armv7e-m/fpu/libm.a(lib_a-ef_atan2.o)
 .debug_frame   0x0000000000000000       0x48 /Users/imac/Downloads/gcc-arm-none-eabi-4_9-2015q2/bin/../lib/gcc/arm-none-eabi/4.9.3/../../../../arm-none-eabi/lib/armv7e-m/fpu/libm.a(lib_a-ef_atan2.o)
 .ARM.attributes
                0x0000000000000000       0x34 /Users/imac/Downloads/gcc-arm-none-eabi-4_9-2015q2/bin/../lib/gcc/arm-none-eabi/4.9.3/../../../../arm-none-eabi/lib/armv7e-m/fpu/libm.a(lib_a-ef_atan2.o)
 .text          0x0000000000000000        0x0 /Users/imac/Downloads/gcc-arm-none-eabi-4_9-2015q2/bin/../lib/gcc/arm-none-eabi/4.9.3/../../../../arm-none-eabi/lib/armv7e-m/fpu/libm.a(lib_a-ef_fmod.o)
 .data          0x0000000000000000        0x0 /Users/imac/Downloads/gcc-arm-none-eabi-4_9-2015q2/bin/../lib/gcc/arm-none-eabi/4.9.3/../../../../arm-none-eabi/lib/armv7e-m/fpu/libm.a(lib_a-ef_fmod.o)
 .bss           0x0000000000000000        0x0 /Users/imac/Downloads/gcc-arm-none-eabi-4_9-2015q2/bin/../lib/gcc/arm-none-eabi/4.9.3/../../../../arm-none-eabi/lib/armv7e-m/fpu/libm.a(lib_a-ef_fmod.o)
 .text.__ieee754_fmodf
                0x0000000000000000      0x11c /Users/imac/Downloads/gcc-arm-none-eabi-4_9-2015q2/bin/../lib/gcc/arm-none-eabi/4.9.3/../../../../arm-none-eabi/lib/armv7e-m/fpu/libm.a(lib_a-ef_fmod.o)
 .rodata.Zero   0x0000000000000000        0x8 /Users/imac/Downloads/gcc-arm-none-eabi-4_9-2015q2/bin/../lib/gcc/arm-none-eabi/4.9.3/../../../../arm-none-eabi/lib/armv7e-m/fpu/libm.a(lib_a-ef_fmod.o)
 .debug_frame   0x0000000000000000       0x3c /Users/imac/Downloads/gcc-arm-none-eabi-4_9-2015q2/bin/../lib/gcc/arm-none-eabi/4.9.3/../../../../arm-none-eabi/lib/armv7e-m/fpu/libm.a(lib_a-ef_fmod.o)
 .ARM.attributes
                0x0000000000000000       0x34 /Users/imac/Downloads/gcc-arm-none-eabi-4_9-2015q2/bin/../lib/gcc/arm-none-eabi/4.9.3/../../../../arm-none-eabi/lib/armv7e-m/fpu/libm.a(lib_a-ef_fmod.o)
 .text          0x0000000000000000        0x0 /Users/imac/Downloads/gcc-arm-none-eabi-4_9-2015q2/bin/../lib/gcc/arm-none-eabi/4.9.3/../../../../arm-none-eabi/lib/armv7e-m/fpu/libm.a(lib_a-ef_rem_pio2.o)
 .data          0x0000000000000000        0x0 /Users/imac/Downloads/gcc-arm-none-eabi-4_9-2015q2/bin/../lib/gcc/arm-none-eabi/4.9.3/../../../../arm-none-eabi/lib/armv7e-m/fpu/libm.a(lib_a-ef_rem_pio2.o)
 .bss           0x0000000000000000        0x0 /Users/imac/Downloads/gcc-arm-none-eabi-4_9-2015q2/bin/../lib/gcc/arm-none-eabi/4.9.3/../../../../arm-none-eabi/lib/armv7e-m/fpu/libm.a(lib_a-ef_rem_pio2.o)
 .text          0x0000000000000000        0x0 /Users/imac/Downloads/gcc-arm-none-eabi-4_9-2015q2/bin/../lib/gcc/arm-none-eabi/4.9.3/../../../../arm-none-eabi/lib/armv7e-m/fpu/libm.a(lib_a-ef_sqrt.o)
 .data          0x0000000000000000        0x0 /Users/imac/Downloads/gcc-arm-none-eabi-4_9-2015q2/bin/../lib/gcc/arm-none-eabi/4.9.3/../../../../arm-none-eabi/lib/armv7e-m/fpu/libm.a(lib_a-ef_sqrt.o)
 .bss           0x0000000000000000        0x0 /Users/imac/Downloads/gcc-arm-none-eabi-4_9-2015q2/bin/../lib/gcc/arm-none-eabi/4.9.3/../../../../arm-none-eabi/lib/armv7e-m/fpu/libm.a(lib_a-ef_sqrt.o)
 .text          0x0000000000000000        0x0 /Users/imac/Downloads/gcc-arm-none-eabi-4_9-2015q2/bin/../lib/gcc/arm-none-eabi/4.9.3/../../../../arm-none-eabi/lib/armv7e-m/fpu/libm.a(lib_a-kf_cos.o)
 .data          0x0000000000000000        0x0 /Users/imac/Downloads/gcc-arm-none-eabi-4_9-2015q2/bin/../lib/gcc/arm-none-eabi/4.9.3/../../../../arm-none-eabi/lib/armv7e-m/fpu/libm.a(lib_a-kf_cos.o)
 .bss           0x0000000000000000        0x0 /Users/imac/Downloads/gcc-arm-none-eabi-4_9-2015q2/bin/../lib/gcc/arm-none-eabi/4.9.3/../../../../arm-none-eabi/lib/armv7e-m/fpu/libm.a(lib_a-kf_cos.o)
 .text          0x0000000000000000        0x0 /Users/imac/Downloads/gcc-arm-none-eabi-4_9-2015q2/bin/../lib/gcc/arm-none-eabi/4.9.3/../../../../arm-none-eabi/lib/armv7e-m/fpu/libm.a(lib_a-kf_rem_pio2.o)
 .data          0x0000000000000000        0x0 /Users/imac/Downloads/gcc-arm-none-eabi-4_9-2015q2/bin/../lib/gcc/arm-none-eabi/4.9.3/../../../../arm-none-eabi/lib/armv7e-m/fpu/libm.a(lib_a-kf_rem_pio2.o)
 .bss           0x0000000000000000        0x0 /Users/imac/Downloads/gcc-arm-none-eabi-4_9-2015q2/bin/../lib/gcc/arm-none-eabi/4.9.3/../../../../arm-none-eabi/lib/armv7e-m/fpu/libm.a(lib_a-kf_rem_pio2.o)
 .text          0x0000000000000000        0x0 /Users/imac/Downloads/gcc-arm-none-eabi-4_9-2015q2/bin/../lib/gcc/arm-none-eabi/4.9.3/../../../../arm-none-eabi/lib/armv7e-m/fpu/libm.a(lib_a-kf_sin.o)
 .data          0x0000000000000000        0x0 /Users/imac/Downloads/gcc-arm-none-eabi-4_9-2015q2/bin/../lib/gcc/arm-none-eabi/4.9.3/../../../../arm-none-eabi/lib/armv7e-m/fpu/libm.a(lib_a-kf_sin.o)
 .bss           0x0000000000000000        0x0 /Users/imac/Downloads/gcc-arm-none-eabi-4_9-2015q2/bin/../lib/gcc/arm-none-eabi/4.9.3/../../../../arm-none-eabi/lib/armv7e-m/fpu/libm.a(lib_a-kf_sin.o)
 .text          0x0000000000000000        0x0 /Users/imac/Downloads/gcc-arm-none-eabi-4_9-2015q2/bin/../lib/gcc/arm-none-eabi/4.9.3/../../../../arm-none-eabi/lib/armv7e-m/fpu/libm.a(lib_a-s_lib_ver.o)
 .data          0x0000000000000000        0x0 /Users/imac/Downloads/gcc-arm-none-eabi-4_9-2015q2/bin/../lib/gcc/arm-none-eabi/4.9.3/../../../../arm-none-eabi/lib/armv7e-m/fpu/libm.a(lib_a-s_lib_ver.o)
 .bss           0x0000000000000000        0x0 /Users/imac/Downloads/gcc-arm-none-eabi-4_9-2015q2/bin/../lib/gcc/arm-none-eabi/4.9.3/../../../../arm-none-eabi/lib/armv7e-m/fpu/libm.a(lib_a-s_lib_ver.o)
 .text          0x0000000000000000        0x0 /Users/imac/Downloads/gcc-arm-none-eabi-4_9-2015q2/bin/../lib/gcc/arm-none-eabi/4.9.3/../../../../arm-none-eabi/lib/armv7e-m/fpu/libm.a(lib_a-s_matherr.o)
 .data          0x0000000000000000        0x0 /Users/imac/Downloads/gcc-arm-none-eabi-4_9-2015q2/bin/../lib/gcc/arm-none-eabi/4.9.3/../../../../arm-none-eabi/lib/armv7e-m/fpu/libm.a(lib_a-s_matherr.o)
 .bss           0x0000000000000000        0x0 /Users/imac/Downloads/gcc-arm-none-eabi-4_9-2015q2/bin/../lib/gcc/arm-none-eabi/4.9.3/../../../../arm-none-eabi/lib/armv7e-m/fpu/libm.a(lib_a-s_matherr.o)
 .text          0x0000000000000000        0x0 /Users/imac/Downloads/gcc-arm-none-eabi-4_9-2015q2/bin/../lib/gcc/arm-none-eabi/4.9.3/../../../../arm-none-eabi/lib/armv7e-m/fpu/libm.a(lib_a-sf_atan.o)
 .data          0x0000000000000000        0x0 /Users/imac/Downloads/gcc-arm-none-eabi-4_9-2015q2/bin/../lib/gcc/arm-none-eabi/4.9.3/../../../../arm-none-eabi/lib/armv7e-m/fpu/libm.a(lib_a-sf_atan.o)
 .bss           0x0000000000000000        0x0 /Users/imac/Downloads/gcc-arm-none-eabi-4_9-2015q2/bin/../lib/gcc/arm-none-eabi/4.9.3/../../../../arm-none-eabi/lib/armv7e-m/fpu/libm.a(lib_a-sf_atan.o)
 .text.atanf    0x0000000000000000      0x1b8 /Users/imac/Downloads/gcc-arm-none-eabi-4_9-2015q2/bin/../lib/gcc/arm-none-eabi/4.9.3/../../../../arm-none-eabi/lib/armv7e-m/fpu/libm.a(lib_a-sf_atan.o)
 .rodata.atanlo
                0x0000000000000000       0x10 /Users/imac/Downloads/gcc-arm-none-eabi-4_9-2015q2/bin/../lib/gcc/arm-none-eabi/4.9.3/../../../../arm-none-eabi/lib/armv7e-m/fpu/libm.a(lib_a-sf_atan.o)
 .rodata.atanhi
                0x0000000000000000       0x10 /Users/imac/Downloads/gcc-arm-none-eabi-4_9-2015q2/bin/../lib/gcc/arm-none-eabi/4.9.3/../../../../arm-none-eabi/lib/armv7e-m/fpu/libm.a(lib_a-sf_atan.o)
 .debug_frame   0x0000000000000000       0x2c /Users/imac/Downloads/gcc-arm-none-eabi-4_9-2015q2/bin/../lib/gcc/arm-none-eabi/4.9.3/../../../../arm-none-eabi/lib/armv7e-m/fpu/libm.a(lib_a-sf_atan.o)
 .ARM.attributes
                0x0000000000000000       0x34 /Users/imac/Downloads/gcc-arm-none-eabi-4_9-2015q2/bin/../lib/gcc/arm-none-eabi/4.9.3/../../../../arm-none-eabi/lib/armv7e-m/fpu/libm.a(lib_a-sf_atan.o)
 .text          0x0000000000000000        0x0 /Users/imac/Downloads/gcc-arm-none-eabi-4_9-2015q2/bin/../lib/gcc/arm-none-eabi/4.9.3/../../../../arm-none-eabi/lib/armv7e-m/fpu/libm.a(lib_a-sf_fabs.o)
 .data          0x0000000000000000        0x0 /Users/imac/Downloads/gcc-arm-none-eabi-4_9-2015q2/bin/../lib/gcc/arm-none-eabi/4.9.3/../../../../arm-none-eabi/lib/armv7e-m/fpu/libm.a(lib_a-sf_fabs.o)
 .bss           0x0000000000000000        0x0 /Users/imac/Downloads/gcc-arm-none-eabi-4_9-2015q2/bin/../lib/gcc/arm-none-eabi/4.9.3/../../../../arm-none-eabi/lib/armv7e-m/fpu/libm.a(lib_a-sf_fabs.o)
 .text          0x0000000000000000        0x0 /Users/imac/Downloads/gcc-arm-none-eabi-4_9-2015q2/bin/../lib/gcc/arm-none-eabi/4.9.3/../../../../arm-none-eabi/lib/armv7e-m/fpu/libm.a(lib_a-sf_floor.o)
 .data          0x0000000000000000        0x0 /Users/imac/Downloads/gcc-arm-none-eabi-4_9-2015q2/bin/../lib/gcc/arm-none-eabi/4.9.3/../../../../arm-none-eabi/lib/armv7e-m/fpu/libm.a(lib_a-sf_floor.o)
 .bss           0x0000000000000000        0x0 /Users/imac/Downloads/gcc-arm-none-eabi-4_9-2015q2/bin/../lib/gcc/arm-none-eabi/4.9.3/../../../../arm-none-eabi/lib/armv7e-m/fpu/libm.a(lib_a-sf_floor.o)
 .text          0x0000000000000000        0x0 /Users/imac/Downloads/gcc-arm-none-eabi-4_9-2015q2/bin/../lib/gcc/arm-none-eabi/4.9.3/../../../../arm-none-eabi/lib/armv7e-m/fpu/libm.a(lib_a-sf_fpclassify.o)
 .data          0x0000000000000000        0x0 /Users/imac/Downloads/gcc-arm-none-eabi-4_9-2015q2/bin/../lib/gcc/arm-none-eabi/4.9.3/../../../../arm-none-eabi/lib/armv7e-m/fpu/libm.a(lib_a-sf_fpclassify.o)
 .bss           0x0000000000000000        0x0 /Users/imac/Downloads/gcc-arm-none-eabi-4_9-2015q2/bin/../lib/gcc/arm-none-eabi/4.9.3/../../../../arm-none-eabi/lib/armv7e-m/fpu/libm.a(lib_a-sf_fpclassify.o)
 .text          0x0000000000000000        0x0 /Users/imac/Downloads/gcc-arm-none-eabi-4_9-2015q2/bin/../lib/gcc/arm-none-eabi/4.9.3/../../../../arm-none-eabi/lib/armv7e-m/fpu/libm.a(lib_a-sf_scalbn.o)
 .data          0x0000000000000000        0x0 /Users/imac/Downloads/gcc-arm-none-eabi-4_9-2015q2/bin/../lib/gcc/arm-none-eabi/4.9.3/../../../../arm-none-eabi/lib/armv7e-m/fpu/libm.a(lib_a-sf_scalbn.o)
 .bss           0x0000000000000000        0x0 /Users/imac/Downloads/gcc-arm-none-eabi-4_9-2015q2/bin/../lib/gcc/arm-none-eabi/4.9.3/../../../../arm-none-eabi/lib/armv7e-m/fpu/libm.a(lib_a-sf_scalbn.o)
 .text          0x0000000000000000        0x0 /Users/imac/Downloads/gcc-arm-none-eabi-4_9-2015q2/bin/../lib/gcc/arm-none-eabi/4.9.3/../../../../arm-none-eabi/lib/armv7e-m/fpu/libm.a(lib_a-sf_copysign.o)
 .data          0x0000000000000000        0x0 /Users/imac/Downloads/gcc-arm-none-eabi-4_9-2015q2/bin/../lib/gcc/arm-none-eabi/4.9.3/../../../../arm-none-eabi/lib/armv7e-m/fpu/libm.a(lib_a-sf_copysign.o)
 .bss           0x0000000000000000        0x0 /Users/imac/Downloads/gcc-arm-none-eabi-4_9-2015q2/bin/../lib/gcc/arm-none-eabi/4.9.3/../../../../arm-none-eabi/lib/armv7e-m/fpu/libm.a(lib_a-sf_copysign.o)
 .data          0x0000000000000000        0x0 /Users/imac/Downloads/gcc-arm-none-eabi-4_9-2015q2/bin/../lib/gcc/arm-none-eabi/4.9.3/armv7e-m/fpu/libgcc.a(_arm_addsubdf3.o)
 .bss           0x0000000000000000        0x0 /Users/imac/Downloads/gcc-arm-none-eabi-4_9-2015q2/bin/../lib/gcc/arm-none-eabi/4.9.3/armv7e-m/fpu/libgcc.a(_arm_addsubdf3.o)
 .data          0x0000000000000000        0x0 /Users/imac/Downloads/gcc-arm-none-eabi-4_9-2015q2/bin/../lib/gcc/arm-none-eabi/4.9.3/armv7e-m/fpu/libgcc.a(_arm_muldivdf3.o)
 .bss           0x0000000000000000        0x0 /Users/imac/Downloads/gcc-arm-none-eabi-4_9-2015q2/bin/../lib/gcc/arm-none-eabi/4.9.3/armv7e-m/fpu/libgcc.a(_arm_muldivdf3.o)
 .data          0x0000000000000000        0x0 /Users/imac/Downloads/gcc-arm-none-eabi-4_9-2015q2/bin/../lib/gcc/arm-none-eabi/4.9.3/armv7e-m/fpu/libgcc.a(_arm_fixdfsi.o)
 .bss           0x0000000000000000        0x0 /Users/imac/Downloads/gcc-arm-none-eabi-4_9-2015q2/bin/../lib/gcc/arm-none-eabi/4.9.3/armv7e-m/fpu/libgcc.a(_arm_fixdfsi.o)
 .data          0x0000000000000000        0x0 /Users/imac/Downloads/gcc-arm-none-eabi-4_9-2015q2/bin/../lib/gcc/arm-none-eabi/4.9.3/armv7e-m/fpu/libgcc.a(_arm_truncdfsf2.o)
 .bss           0x0000000000000000        0x0 /Users/imac/Downloads/gcc-arm-none-eabi-4_9-2015q2/bin/../lib/gcc/arm-none-eabi/4.9.3/armv7e-m/fpu/libgcc.a(_arm_truncdfsf2.o)
 .text          0x0000000000000000        0x0 /Users/imac/Downloads/gcc-arm-none-eabi-4_9-2015q2/bin/../lib/gcc/arm-none-eabi/4.9.3/../../../../arm-none-eabi/lib/armv7e-m/fpu/libg.a(lib_a-errno.o)
 .data          0x0000000000000000        0x0 /Users/imac/Downloads/gcc-arm-none-eabi-4_9-2015q2/bin/../lib/gcc/arm-none-eabi/4.9.3/../../../../arm-none-eabi/lib/armv7e-m/fpu/libg.a(lib_a-errno.o)
 .bss           0x0000000000000000        0x0 /Users/imac/Downloads/gcc-arm-none-eabi-4_9-2015q2/bin/../lib/gcc/arm-none-eabi/4.9.3/../../../../arm-none-eabi/lib/armv7e-m/fpu/libg.a(lib_a-errno.o)
 .text          0x0000000000000000        0x0 /Users/imac/Downloads/gcc-arm-none-eabi-4_9-2015q2/bin/../lib/gcc/arm-none-eabi/4.9.3/../../../../arm-none-eabi/lib/armv7e-m/fpu/libg.a(lib_a-impure.o)
 .data          0x0000000000000000        0x0 /Users/imac/Downloads/gcc-arm-none-eabi-4_9-2015q2/bin/../lib/gcc/arm-none-eabi/4.9.3/../../../../arm-none-eabi/lib/armv7e-m/fpu/libg.a(lib_a-impure.o)
 .bss           0x0000000000000000        0x0 /Users/imac/Downloads/gcc-arm-none-eabi-4_9-2015q2/bin/../lib/gcc/arm-none-eabi/4.9.3/../../../../arm-none-eabi/lib/armv7e-m/fpu/libg.a(lib_a-impure.o)
 .rodata._global_impure_ptr
                0x0000000000000000        0x4 /Users/imac/Downloads/gcc-arm-none-eabi-4_9-2015q2/bin/../lib/gcc/arm-none-eabi/4.9.3/../../../../arm-none-eabi/lib/armv7e-m/fpu/libg.a(lib_a-impure.o)
 .text          0x0000000000000000        0x0 /Users/imac/Downloads/gcc-arm-none-eabi-4_9-2015q2/bin/../lib/gcc/arm-none-eabi/4.9.3/../../../../arm-none-eabi/lib/armv7e-m/fpu/libg.a(lib_a-memset.o)
 .data          0x0000000000000000        0x0 /Users/imac/Downloads/gcc-arm-none-eabi-4_9-2015q2/bin/../lib/gcc/arm-none-eabi/4.9.3/../../../../arm-none-eabi/lib/armv7e-m/fpu/libg.a(lib_a-memset.o)
 .bss           0x0000000000000000        0x0 /Users/imac/Downloads/gcc-arm-none-eabi-4_9-2015q2/bin/../lib/gcc/arm-none-eabi/4.9.3/../../../../arm-none-eabi/lib/armv7e-m/fpu/libg.a(lib_a-memset.o)
 .text          0x0000000000000000        0x0 /Users/imac/Downloads/gcc-arm-none-eabi-4_9-2015q2/bin/../lib/gcc/arm-none-eabi/4.9.3/../../../../arm-none-eabi/lib/armv7e-m/fpu/libg.a(lib_a-vsnprintf.o)
 .data          0x0000000000000000        0x0 /Users/imac/Downloads/gcc-arm-none-eabi-4_9-2015q2/bin/../lib/gcc/arm-none-eabi/4.9.3/../../../../arm-none-eabi/lib/armv7e-m/fpu/libg.a(lib_a-vsnprintf.o)
 .bss           0x0000000000000000        0x0 /Users/imac/Downloads/gcc-arm-none-eabi-4_9-2015q2/bin/../lib/gcc/arm-none-eabi/4.9.3/../../../../arm-none-eabi/lib/armv7e-m/fpu/libg.a(lib_a-vsnprintf.o)
 .text          0x0000000000000000        0x0 /Users/imac/Downloads/gcc-arm-none-eabi-4_9-2015q2/bin/../lib/gcc/arm-none-eabi/4.9.3/../../../../arm-none-eabi/lib/armv7e-m/fpu/libg.a(lib_a-svfprintf.o)
 .data          0x0000000000000000        0x0 /Users/imac/Downloads/gcc-arm-none-eabi-4_9-2015q2/bin/../lib/gcc/arm-none-eabi/4.9.3/../../../../arm-none-eabi/lib/armv7e-m/fpu/libg.a(lib_a-svfprintf.o)
 .bss           0x0000000000000000        0x0 /Users/imac/Downloads/gcc-arm-none-eabi-4_9-2015q2/bin/../lib/gcc/arm-none-eabi/4.9.3/../../../../arm-none-eabi/lib/armv7e-m/fpu/libg.a(lib_a-svfprintf.o)
 .text          0x0000000000000000        0x0 /Users/imac/Downloads/gcc-arm-none-eabi-4_9-2015q2/bin/../lib/gcc/arm-none-eabi/4.9.3/../../../../arm-none-eabi/lib/armv7e-m/fpu/libg.a(lib_a-dtoa.o)
 .data          0x0000000000000000        0x0 /Users/imac/Downloads/gcc-arm-none-eabi-4_9-2015q2/bin/../lib/gcc/arm-none-eabi/4.9.3/../../../../arm-none-eabi/lib/armv7e-m/fpu/libg.a(lib_a-dtoa.o)
 .bss           0x0000000000000000        0x0 /Users/imac/Downloads/gcc-arm-none-eabi-4_9-2015q2/bin/../lib/gcc/arm-none-eabi/4.9.3/../../../../arm-none-eabi/lib/armv7e-m/fpu/libg.a(lib_a-dtoa.o)
 .text          0x0000000000000000        0x0 /Users/imac/Downloads/gcc-arm-none-eabi-4_9-2015q2/bin/../lib/gcc/arm-none-eabi/4.9.3/../../../../arm-none-eabi/lib/armv7e-m/fpu/libg.a(lib_a-locale.o)
 .data          0x0000000000000000        0x0 /Users/imac/Downloads/gcc-arm-none-eabi-4_9-2015q2/bin/../lib/gcc/arm-none-eabi/4.9.3/../../../../arm-none-eabi/lib/armv7e-m/fpu/libg.a(lib_a-locale.o)
 .bss           0x0000000000000000        0x0 /Users/imac/Downloads/gcc-arm-none-eabi-4_9-2015q2/bin/../lib/gcc/arm-none-eabi/4.9.3/../../../../arm-none-eabi/lib/armv7e-m/fpu/libg.a(lib_a-locale.o)
 .text._setlocale_r
                0x0000000000000000       0x44 /Users/imac/Downloads/gcc-arm-none-eabi-4_9-2015q2/bin/../lib/gcc/arm-none-eabi/4.9.3/../../../../arm-none-eabi/lib/armv7e-m/fpu/libg.a(lib_a-locale.o)
 .text.__locale_charset
                0x0000000000000000        0x8 /Users/imac/Downloads/gcc-arm-none-eabi-4_9-2015q2/bin/../lib/gcc/arm-none-eabi/4.9.3/../../../../arm-none-eabi/lib/armv7e-m/fpu/libg.a(lib_a-locale.o)
 .text.__locale_mb_cur_max
                0x0000000000000000        0xc /Users/imac/Downloads/gcc-arm-none-eabi-4_9-2015q2/bin/../lib/gcc/arm-none-eabi/4.9.3/../../../../arm-none-eabi/lib/armv7e-m/fpu/libg.a(lib_a-locale.o)
 .text.__locale_msgcharset
                0x0000000000000000        0x8 /Users/imac/Downloads/gcc-arm-none-eabi-4_9-2015q2/bin/../lib/gcc/arm-none-eabi/4.9.3/../../../../arm-none-eabi/lib/armv7e-m/fpu/libg.a(lib_a-locale.o)
 .text.__locale_cjk_lang
                0x0000000000000000        0x4 /Users/imac/Downloads/gcc-arm-none-eabi-4_9-2015q2/bin/../lib/gcc/arm-none-eabi/4.9.3/../../../../arm-none-eabi/lib/armv7e-m/fpu/libg.a(lib_a-locale.o)
 .text.setlocale
                0x0000000000000000       0x10 /Users/imac/Downloads/gcc-arm-none-eabi-4_9-2015q2/bin/../lib/gcc/arm-none-eabi/4.9.3/../../../../arm-none-eabi/lib/armv7e-m/fpu/libg.a(lib_a-locale.o)
 .text.localeconv
                0x0000000000000000        0x8 /Users/imac/Downloads/gcc-arm-none-eabi-4_9-2015q2/bin/../lib/gcc/arm-none-eabi/4.9.3/../../../../arm-none-eabi/lib/armv7e-m/fpu/libg.a(lib_a-locale.o)
 .data.lc_message_charset
                0x0000000000000000       0x20 /Users/imac/Downloads/gcc-arm-none-eabi-4_9-2015q2/bin/../lib/gcc/arm-none-eabi/4.9.3/../../../../arm-none-eabi/lib/armv7e-m/fpu/libg.a(lib_a-locale.o)
 .bss._PathLocale
                0x0000000000000000        0x4 /Users/imac/Downloads/gcc-arm-none-eabi-4_9-2015q2/bin/../lib/gcc/arm-none-eabi/4.9.3/../../../../arm-none-eabi/lib/armv7e-m/fpu/libg.a(lib_a-locale.o)
 .bss.__nlocale_changed
                0x0000000000000000        0x4 /Users/imac/Downloads/gcc-arm-none-eabi-4_9-2015q2/bin/../lib/gcc/arm-none-eabi/4.9.3/../../../../arm-none-eabi/lib/armv7e-m/fpu/libg.a(lib_a-locale.o)
 .bss.__mlocale_changed
                0x0000000000000000        0x4 /Users/imac/Downloads/gcc-arm-none-eabi-4_9-2015q2/bin/../lib/gcc/arm-none-eabi/4.9.3/../../../../arm-none-eabi/lib/armv7e-m/fpu/libg.a(lib_a-locale.o)
 .data.lc_ctype_charset
                0x0000000000000000       0x20 /Users/imac/Downloads/gcc-arm-none-eabi-4_9-2015q2/bin/../lib/gcc/arm-none-eabi/4.9.3/../../../../arm-none-eabi/lib/armv7e-m/fpu/libg.a(lib_a-locale.o)
 .data.__mb_cur_max
                0x0000000000000000        0x4 /Users/imac/Downloads/gcc-arm-none-eabi-4_9-2015q2/bin/../lib/gcc/arm-none-eabi/4.9.3/../../../../arm-none-eabi/lib/armv7e-m/fpu/libg.a(lib_a-locale.o)
 .text          0x0000000000000000        0x0 /Users/imac/Downloads/gcc-arm-none-eabi-4_9-2015q2/bin/../lib/gcc/arm-none-eabi/4.9.3/../../../../arm-none-eabi/lib/armv7e-m/fpu/libg.a(lib_a-mallocr.o)
 .data          0x0000000000000000        0x0 /Users/imac/Downloads/gcc-arm-none-eabi-4_9-2015q2/bin/../lib/gcc/arm-none-eabi/4.9.3/../../../../arm-none-eabi/lib/armv7e-m/fpu/libg.a(lib_a-mallocr.o)
 .bss           0x0000000000000000        0x0 /Users/imac/Downloads/gcc-arm-none-eabi-4_9-2015q2/bin/../lib/gcc/arm-none-eabi/4.9.3/../../../../arm-none-eabi/lib/armv7e-m/fpu/libg.a(lib_a-mallocr.o)
 .text          0x0000000000000000        0x0 /Users/imac/Downloads/gcc-arm-none-eabi-4_9-2015q2/bin/../lib/gcc/arm-none-eabi/4.9.3/../../../../arm-none-eabi/lib/armv7e-m/fpu/libg.a(lib_a-memchr.o)
 .data          0x0000000000000000        0x0 /Users/imac/Downloads/gcc-arm-none-eabi-4_9-2015q2/bin/../lib/gcc/arm-none-eabi/4.9.3/../../../../arm-none-eabi/lib/armv7e-m/fpu/libg.a(lib_a-memchr.o)
 .bss           0x0000000000000000        0x0 /Users/imac/Downloads/gcc-arm-none-eabi-4_9-2015q2/bin/../lib/gcc/arm-none-eabi/4.9.3/../../../../arm-none-eabi/lib/armv7e-m/fpu/libg.a(lib_a-memchr.o)
 .data          0x0000000000000000        0x0 /Users/imac/Downloads/gcc-arm-none-eabi-4_9-2015q2/bin/../lib/gcc/arm-none-eabi/4.9.3/../../../../arm-none-eabi/lib/armv7e-m/fpu/libg.a(lib_a-memcpy.o)
 .bss           0x0000000000000000        0x0 /Users/imac/Downloads/gcc-arm-none-eabi-4_9-2015q2/bin/../lib/gcc/arm-none-eabi/4.9.3/../../../../arm-none-eabi/lib/armv7e-m/fpu/libg.a(lib_a-memcpy.o)
 .text          0x0000000000000000        0x0 /Users/imac/Downloads/gcc-arm-none-eabi-4_9-2015q2/bin/../lib/gcc/arm-none-eabi/4.9.3/../../../../arm-none-eabi/lib/armv7e-m/fpu/libg.a(lib_a-mlock.o)
 .data          0x0000000000000000        0x0 /Users/imac/Downloads/gcc-arm-none-eabi-4_9-2015q2/bin/../lib/gcc/arm-none-eabi/4.9.3/../../../../arm-none-eabi/lib/armv7e-m/fpu/libg.a(lib_a-mlock.o)
 .bss           0x0000000000000000        0x0 /Users/imac/Downloads/gcc-arm-none-eabi-4_9-2015q2/bin/../lib/gcc/arm-none-eabi/4.9.3/../../../../arm-none-eabi/lib/armv7e-m/fpu/libg.a(lib_a-mlock.o)
 .text          0x0000000000000000        0x0 /Users/imac/Downloads/gcc-arm-none-eabi-4_9-2015q2/bin/../lib/gcc/arm-none-eabi/4.9.3/../../../../arm-none-eabi/lib/armv7e-m/fpu/libg.a(lib_a-mprec.o)
 .data          0x0000000000000000        0x0 /Users/imac/Downloads/gcc-arm-none-eabi-4_9-2015q2/bin/../lib/gcc/arm-none-eabi/4.9.3/../../../../arm-none-eabi/lib/armv7e-m/fpu/libg.a(lib_a-mprec.o)
 .bss           0x0000000000000000        0x0 /Users/imac/Downloads/gcc-arm-none-eabi-4_9-2015q2/bin/../lib/gcc/arm-none-eabi/4.9.3/../../../../arm-none-eabi/lib/armv7e-m/fpu/libg.a(lib_a-mprec.o)
 .text.__s2b    0x0000000000000000       0x98 /Users/imac/Downloads/gcc-arm-none-eabi-4_9-2015q2/bin/../lib/gcc/arm-none-eabi/4.9.3/../../../../arm-none-eabi/lib/armv7e-m/fpu/libg.a(lib_a-mprec.o)
 .text.__ulp    0x0000000000000000       0x50 /Users/imac/Downloads/gcc-arm-none-eabi-4_9-2015q2/bin/../lib/gcc/arm-none-eabi/4.9.3/../../../../arm-none-eabi/lib/armv7e-m/fpu/libg.a(lib_a-mprec.o)
 .text.__b2d    0x0000000000000000       0xc4 /Users/imac/Downloads/gcc-arm-none-eabi-4_9-2015q2/bin/../lib/gcc/arm-none-eabi/4.9.3/../../../../arm-none-eabi/lib/armv7e-m/fpu/libg.a(lib_a-mprec.o)
 .text.__ratio  0x0000000000000000       0x60 /Users/imac/Downloads/gcc-arm-none-eabi-4_9-2015q2/bin/../lib/gcc/arm-none-eabi/4.9.3/../../../../arm-none-eabi/lib/armv7e-m/fpu/libg.a(lib_a-mprec.o)
 .text._mprec_log10
                0x0000000000000000       0x38 /Users/imac/Downloads/gcc-arm-none-eabi-4_9-2015q2/bin/../lib/gcc/arm-none-eabi/4.9.3/../../../../arm-none-eabi/lib/armv7e-m/fpu/libg.a(lib_a-mprec.o)
 .text.__copybits
                0x0000000000000000       0x48 /Users/imac/Downloads/gcc-arm-none-eabi-4_9-2015q2/bin/../lib/gcc/arm-none-eabi/4.9.3/../../../../arm-none-eabi/lib/armv7e-m/fpu/libg.a(lib_a-mprec.o)
 .text.__any_on
                0x0000000000000000       0x60 /Users/imac/Downloads/gcc-arm-none-eabi-4_9-2015q2/bin/../lib/gcc/arm-none-eabi/4.9.3/../../../../arm-none-eabi/lib/armv7e-m/fpu/libg.a(lib_a-mprec.o)
 .rodata.__mprec_tinytens
                0x0000000000000000       0x28 /Users/imac/Downloads/gcc-arm-none-eabi-4_9-2015q2/bin/../lib/gcc/arm-none-eabi/4.9.3/../../../../arm-none-eabi/lib/armv7e-m/fpu/libg.a(lib_a-mprec.o)
 .text          0x0000000000000000        0x0 /Users/imac/Downloads/gcc-arm-none-eabi-4_9-2015q2/bin/../lib/gcc/arm-none-eabi/4.9.3/../../../../arm-none-eabi/lib/armv7e-m/fpu/libg.a(lib_a-s_fpclassify.o)
 .data          0x0000000000000000        0x0 /Users/imac/Downloads/gcc-arm-none-eabi-4_9-2015q2/bin/../lib/gcc/arm-none-eabi/4.9.3/../../../../arm-none-eabi/lib/armv7e-m/fpu/libg.a(lib_a-s_fpclassify.o)
 .bss           0x0000000000000000        0x0 /Users/imac/Downloads/gcc-arm-none-eabi-4_9-2015q2/bin/../lib/gcc/arm-none-eabi/4.9.3/../../../../arm-none-eabi/lib/armv7e-m/fpu/libg.a(lib_a-s_fpclassify.o)
 .text          0x0000000000000000      0x2dc /Users/imac/Downloads/gcc-arm-none-eabi-4_9-2015q2/bin/../lib/gcc/arm-none-eabi/4.9.3/../../../../arm-none-eabi/lib/armv7e-m/fpu/libg.a(lib_a-strcmp.o)
 .data          0x0000000000000000        0x0 /Users/imac/Downloads/gcc-arm-none-eabi-4_9-2015q2/bin/../lib/gcc/arm-none-eabi/4.9.3/../../../../arm-none-eabi/lib/armv7e-m/fpu/libg.a(lib_a-strcmp.o)
 .bss           0x0000000000000000        0x0 /Users/imac/Downloads/gcc-arm-none-eabi-4_9-2015q2/bin/../lib/gcc/arm-none-eabi/4.9.3/../../../../arm-none-eabi/lib/armv7e-m/fpu/libg.a(lib_a-strcmp.o)
 .eh_frame      0x0000000000000000       0x70 /Users/imac/Downloads/gcc-arm-none-eabi-4_9-2015q2/bin/../lib/gcc/arm-none-eabi/4.9.3/../../../../arm-none-eabi/lib/armv7e-m/fpu/libg.a(lib_a-strcmp.o)
 .ARM.attributes
                0x0000000000000000       0x20 /Users/imac/Downloads/gcc-arm-none-eabi-4_9-2015q2/bin/../lib/gcc/arm-none-eabi/4.9.3/../../../../arm-none-eabi/lib/armv7e-m/fpu/libg.a(lib_a-strcmp.o)
 .text          0x0000000000000000        0x0 /Users/imac/Downloads/gcc-arm-none-eabi-4_9-2015q2/bin/../lib/gcc/arm-none-eabi/4.9.3/../../../../arm-none-eabi/lib/armv7e-m/fpu/libg.a(lib_a-strlen.o)
 .data          0x0000000000000000        0x0 /Users/imac/Downloads/gcc-arm-none-eabi-4_9-2015q2/bin/../lib/gcc/arm-none-eabi/4.9.3/../../../../arm-none-eabi/lib/armv7e-m/fpu/libg.a(lib_a-strlen.o)
 .bss           0x0000000000000000        0x0 /Users/imac/Downloads/gcc-arm-none-eabi-4_9-2015q2/bin/../lib/gcc/arm-none-eabi/4.9.3/../../../../arm-none-eabi/lib/armv7e-m/fpu/libg.a(lib_a-strlen.o)
 .text          0x0000000000000000        0x0 /Users/imac/Downloads/gcc-arm-none-eabi-4_9-2015q2/bin/../lib/gcc/arm-none-eabi/4.9.3/../../../../arm-none-eabi/lib/armv7e-m/fpu/libg.a(lib_a-svfiprintf.o)
 .data          0x0000000000000000        0x0 /Users/imac/Downloads/gcc-arm-none-eabi-4_9-2015q2/bin/../lib/gcc/arm-none-eabi/4.9.3/../../../../arm-none-eabi/lib/armv7e-m/fpu/libg.a(lib_a-svfiprintf.o)
 .bss           0x0000000000000000        0x0 /Users/imac/Downloads/gcc-arm-none-eabi-4_9-2015q2/bin/../lib/gcc/arm-none-eabi/4.9.3/../../../../arm-none-eabi/lib/armv7e-m/fpu/libg.a(lib_a-svfiprintf.o)
 .text._svfiprintf_r
                0x0000000000000000      0xaa0 /Users/imac/Downloads/gcc-arm-none-eabi-4_9-2015q2/bin/../lib/gcc/arm-none-eabi/4.9.3/../../../../arm-none-eabi/lib/armv7e-m/fpu/libg.a(lib_a-svfiprintf.o)
 .rodata.blanks.6854
                0x0000000000000000       0x10 /Users/imac/Downloads/gcc-arm-none-eabi-4_9-2015q2/bin/../lib/gcc/arm-none-eabi/4.9.3/../../../../arm-none-eabi/lib/armv7e-m/fpu/libg.a(lib_a-svfiprintf.o)
 .rodata.str1.4
                0x0000000000000000       0x2f /Users/imac/Downloads/gcc-arm-none-eabi-4_9-2015q2/bin/../lib/gcc/arm-none-eabi/4.9.3/../../../../arm-none-eabi/lib/armv7e-m/fpu/libg.a(lib_a-svfiprintf.o)
 .rodata.zeroes.6855
                0x0000000000000000       0x10 /Users/imac/Downloads/gcc-arm-none-eabi-4_9-2015q2/bin/../lib/gcc/arm-none-eabi/4.9.3/../../../../arm-none-eabi/lib/armv7e-m/fpu/libg.a(lib_a-svfiprintf.o)
 .text          0x0000000000000000        0x0 /Users/imac/Downloads/gcc-arm-none-eabi-4_9-2015q2/bin/../lib/gcc/arm-none-eabi/4.9.3/../../../../arm-none-eabi/lib/armv7e-m/fpu/libg.a(lib_a-callocr.o)
 .data          0x0000000000000000        0x0 /Users/imac/Downloads/gcc-arm-none-eabi-4_9-2015q2/bin/../lib/gcc/arm-none-eabi/4.9.3/../../../../arm-none-eabi/lib/armv7e-m/fpu/libg.a(lib_a-callocr.o)
 .bss           0x0000000000000000        0x0 /Users/imac/Downloads/gcc-arm-none-eabi-4_9-2015q2/bin/../lib/gcc/arm-none-eabi/4.9.3/../../../../arm-none-eabi/lib/armv7e-m/fpu/libg.a(lib_a-callocr.o)
 .text          0x0000000000000000        0x0 /Users/imac/Downloads/gcc-arm-none-eabi-4_9-2015q2/bin/../lib/gcc/arm-none-eabi/4.9.3/../../../../arm-none-eabi/lib/armv7e-m/fpu/libg.a(lib_a-freer.o)
 .data          0x0000000000000000        0x0 /Users/imac/Downloads/gcc-arm-none-eabi-4_9-2015q2/bin/../lib/gcc/arm-none-eabi/4.9.3/../../../../arm-none-eabi/lib/armv7e-m/fpu/libg.a(lib_a-freer.o)
 .bss           0x0000000000000000        0x0 /Users/imac/Downloads/gcc-arm-none-eabi-4_9-2015q2/bin/../lib/gcc/arm-none-eabi/4.9.3/../../../../arm-none-eabi/lib/armv7e-m/fpu/libg.a(lib_a-freer.o)
 .text          0x0000000000000000        0x0 /Users/imac/Downloads/gcc-arm-none-eabi-4_9-2015q2/bin/../lib/gcc/arm-none-eabi/4.9.3/../../../../arm-none-eabi/lib/armv7e-m/fpu/libg.a(lib_a-memmove.o)
 .data          0x0000000000000000        0x0 /Users/imac/Downloads/gcc-arm-none-eabi-4_9-2015q2/bin/../lib/gcc/arm-none-eabi/4.9.3/../../../../arm-none-eabi/lib/armv7e-m/fpu/libg.a(lib_a-memmove.o)
 .bss           0x0000000000000000        0x0 /Users/imac/Downloads/gcc-arm-none-eabi-4_9-2015q2/bin/../lib/gcc/arm-none-eabi/4.9.3/../../../../arm-none-eabi/lib/armv7e-m/fpu/libg.a(lib_a-memmove.o)
 .text          0x0000000000000000        0x0 /Users/imac/Downloads/gcc-arm-none-eabi-4_9-2015q2/bin/../lib/gcc/arm-none-eabi/4.9.3/../../../../arm-none-eabi/lib/armv7e-m/fpu/libg.a(lib_a-reallocr.o)
 .data          0x0000000000000000        0x0 /Users/imac/Downloads/gcc-arm-none-eabi-4_9-2015q2/bin/../lib/gcc/arm-none-eabi/4.9.3/../../../../arm-none-eabi/lib/armv7e-m/fpu/libg.a(lib_a-reallocr.o)
 .bss           0x0000000000000000        0x0 /Users/imac/Downloads/gcc-arm-none-eabi-4_9-2015q2/bin/../lib/gcc/arm-none-eabi/4.9.3/../../../../arm-none-eabi/lib/armv7e-m/fpu/libg.a(lib_a-reallocr.o)
 .data          0x0000000000000000        0x0 /Users/imac/Downloads/gcc-arm-none-eabi-4_9-2015q2/bin/../lib/gcc/arm-none-eabi/4.9.3/armv7e-m/fpu/libgcc.a(_arm_cmpdf2.o)
 .bss           0x0000000000000000        0x0 /Users/imac/Downloads/gcc-arm-none-eabi-4_9-2015q2/bin/../lib/gcc/arm-none-eabi/4.9.3/armv7e-m/fpu/libgcc.a(_arm_cmpdf2.o)
 .data          0x0000000000000000        0x0 /Users/imac/Downloads/gcc-arm-none-eabi-4_9-2015q2/bin/../lib/gcc/arm-none-eabi/4.9.3/armv7e-m/fpu/libgcc.a(_aeabi_uldivmod.o)
 .bss           0x0000000000000000        0x0 /Users/imac/Downloads/gcc-arm-none-eabi-4_9-2015q2/bin/../lib/gcc/arm-none-eabi/4.9.3/armv7e-m/fpu/libgcc.a(_aeabi_uldivmod.o)
 .data          0x0000000000000000        0x0 /Users/imac/Downloads/gcc-arm-none-eabi-4_9-2015q2/bin/../lib/gcc/arm-none-eabi/4.9.3/armv7e-m/fpu/libgcc.a(bpabi.o)
 .bss           0x0000000000000000        0x0 /Users/imac/Downloads/gcc-arm-none-eabi-4_9-2015q2/bin/../lib/gcc/arm-none-eabi/4.9.3/armv7e-m/fpu/libgcc.a(bpabi.o)
 .data          0x0000000000000000        0x0 /Users/imac/Downloads/gcc-arm-none-eabi-4_9-2015q2/bin/../lib/gcc/arm-none-eabi/4.9.3/armv7e-m/fpu/libgcc.a(_dvmd_tls.o)
 .bss           0x0000000000000000        0x0 /Users/imac/Downloads/gcc-arm-none-eabi-4_9-2015q2/bin/../lib/gcc/arm-none-eabi/4.9.3/armv7e-m/fpu/libgcc.a(_dvmd_tls.o)
 .data          0x0000000000000000        0x0 /Users/imac/Downloads/gcc-arm-none-eabi-4_9-2015q2/bin/../lib/gcc/arm-none-eabi/4.9.3/armv7e-m/fpu/libgcc.a(_divdi3.o)
 .bss           0x0000000000000000        0x0 /Users/imac/Downloads/gcc-arm-none-eabi-4_9-2015q2/bin/../lib/gcc/arm-none-eabi/4.9.3/armv7e-m/fpu/libgcc.a(_divdi3.o)
 .ARM.extab     0x0000000000000000        0x0 /Users/imac/Downloads/gcc-arm-none-eabi-4_9-2015q2/bin/../lib/gcc/arm-none-eabi/4.9.3/armv7e-m/fpu/libgcc.a(_divdi3.o)
 .data          0x0000000000000000        0x0 /Users/imac/Downloads/gcc-arm-none-eabi-4_9-2015q2/bin/../lib/gcc/arm-none-eabi/4.9.3/armv7e-m/fpu/libgcc.a(_udivdi3.o)
 .bss           0x0000000000000000        0x0 /Users/imac/Downloads/gcc-arm-none-eabi-4_9-2015q2/bin/../lib/gcc/arm-none-eabi/4.9.3/armv7e-m/fpu/libgcc.a(_udivdi3.o)
 .ARM.extab     0x0000000000000000        0x0 /Users/imac/Downloads/gcc-arm-none-eabi-4_9-2015q2/bin/../lib/gcc/arm-none-eabi/4.9.3/armv7e-m/fpu/libgcc.a(_udivdi3.o)

Memory Configuration

Name             Origin             Length             Attributes
flash            0x0000000008000000 0x0000000000004000
flash2           0x000000000800c000 0x0000000000078000
ram0             0x0000000020000000 0x0000000000020000
ram1             0x0000000020000000 0x000000000001c000
ram2             0x000000002001c000 0x0000000000004000
ram3             0x0000000000000000 0x0000000000000000
ram4             0x0000000010000000 0x0000000000010000
ram5             0x0000000040024000 0x0000000000001000
ram6             0x0000000000000000 0x0000000000000000
ram7             0x0000000000000000 0x0000000000000000
*default*        0x0000000000000000 0xffffffffffffffff

Linker script and memory map

LOAD build/obj/crt0_v7m.o
LOAD build/obj/chcoreasm_v7m.o
LOAD build/obj/crt1.o
LOAD build/obj/vectors.o
LOAD build/obj/chsys.o
LOAD build/obj/chdebug.o
LOAD build/obj/chvt.o
LOAD build/obj/chschd.o
LOAD build/obj/chthreads.o
LOAD build/obj/chtm.o
LOAD build/obj/chdynamic.o
LOAD build/obj/chregistry.o
LOAD build/obj/chsem.o
LOAD build/obj/chmtx.o
LOAD build/obj/chcond.o
LOAD build/obj/chevents.o
LOAD build/obj/chmsg.o
LOAD build/obj/chmboxes.o
LOAD build/obj/chqueues.o
LOAD build/obj/chmemcore.o
LOAD build/obj/chheap.o
LOAD build/obj/chmempools.o
LOAD build/obj/chcore.o
LOAD build/obj/chcore_v7m.o
LOAD build/obj/osal.o
LOAD build/obj/hal.o
LOAD build/obj/st.o
LOAD build/obj/hal_queues.o
LOAD build/obj/hal_mmcsd.o
LOAD build/obj/can.o
LOAD build/obj/i2c.o
LOAD build/obj/icu.o
LOAD build/obj/pal.o
LOAD build/obj/serial_usb.o
LOAD build/obj/uart.o
LOAD build/obj/usb.o
LOAD build/obj/nvic.o
LOAD build/obj/stm32_dma.o
LOAD build/obj/hal_lld.o
LOAD build/obj/st_lld.o
LOAD build/obj/can_lld.o
LOAD build/obj/pal_lld.o
LOAD build/obj/i2c_lld.o
LOAD build/obj/usb_lld.o
LOAD build/obj/icu_lld.o
LOAD build/obj/uart_lld.o
LOAD build/obj/board.o
LOAD build/obj/chprintf.o
LOAD build/obj/syscalls.o
LOAD build/obj/bldc.o
LOAD build/obj/mcpwm.o
LOAD build/obj/usb_uart.o
LOAD build/obj/irq_handlers.o
LOAD build/obj/comm_usb.o
LOAD build/obj/servo_dec.o
LOAD build/obj/utils.o
LOAD build/obj/conf_general.o
LOAD build/obj/eeprom.o
LOAD build/obj/flash_helper.o
LOAD build/obj/hw_oroca.o
LOAD build/obj/misc.o
LOAD build/obj/stm32f4xx_adc.o
LOAD build/obj/stm32f4xx_dma.o
LOAD build/obj/stm32f4xx_exti.o
LOAD build/obj/stm32f4xx_flash.o
LOAD build/obj/stm32f4xx_rcc.o
LOAD build/obj/stm32f4xx_syscfg.o
LOAD build/obj/stm32f4xx_tim.o
LOAD build/obj/stm32f4xx_wwdg.o
LOAD build/obj/main.o
                0x0000000020000000                __ram0_start__ = ORIGIN (ram0)
                0x0000000000020000                __ram0_size__ = 0x20000
                0x0000000020020000                __ram0_end__ = (__ram0_start__ + __ram0_size__)
                0x0000000020000000                __ram1_start__ = ORIGIN (ram1)
                0x000000000001c000                __ram1_size__ = 0x1c000
                0x000000002001c000                __ram1_end__ = (__ram1_start__ + __ram1_size__)
                0x000000002001c000                __ram2_start__ = ORIGIN (ram2)
                0x0000000000004000                __ram2_size__ = 0x4000
                0x0000000020020000                __ram2_end__ = (__ram2_start__ + __ram2_size__)
                0x0000000000000000                __ram3_start__ = ORIGIN (ram3)
                0x0000000000000000                __ram3_size__ = 0x0
                0x0000000000000000                __ram3_end__ = (__ram3_start__ + __ram3_size__)
                0x0000000010000000                __ram4_start__ = ORIGIN (ram4)
                0x0000000000010000                __ram4_size__ = 0x10000
                0x0000000010010000                __ram4_end__ = (__ram4_start__ + __ram4_size__)
                0x0000000040024000                __ram5_start__ = ORIGIN (ram5)
                0x0000000000001000                __ram5_size__ = 0x1000
                0x0000000040025000                __ram5_end__ = (__ram5_start__ + __ram5_size__)
                0x0000000000000000                __ram6_start__ = ORIGIN (ram6)
                0x0000000000000000                __ram6_size__ = 0x0
                0x0000000000000000                __ram6_end__ = (__ram6_start__ + __ram6_size__)
                0x0000000000000000                __ram7_start__ = ORIGIN (ram7)
                0x0000000000000000                __ram7_size__ = 0x0
                0x0000000000000000                __ram7_end__ = (__ram7_start__ + __ram7_size__)
                0x0000000000000000                . = 0x0
                0x0000000000000000                _text = .

startup         0x0000000008000000      0x1c0
 *(.vectors)
 .vectors       0x0000000008000000      0x1c0 build/obj/vectors.o
                0x0000000008000000                _vectors

constructors    0x000000000800c000        0x0
                0x000000000800c000                PROVIDE (__init_array_start, .)
 *(SORT(.init_array.*))
 *(.init_array)
                0x000000000800c000                PROVIDE (__init_array_end, .)

destructors     0x000000000800c000        0x0
                0x000000000800c000                PROVIDE (__fini_array_start, .)
 *(.fini_array)
 *(SORT(.fini_array.*))
                0x000000000800c000                PROVIDE (__fini_array_end, .)

.text           0x000000000800c000     0xbf08
 *(.text)
 .text          0x000000000800c000      0x108 build/obj/crt0_v7m.o
                0x000000000800c000                Reset_Handler
 *fill*         0x000000000800c108        0x8 
 .text          0x000000000800c110       0x30 build/obj/chcoreasm_v7m.o
                0x000000000800c110                _port_switch
                0x000000000800c128                _port_thread_start
                0x000000000800c138                _port_switch_from_isr
                0x000000000800c13c                _port_exit_from_isr
 .text          0x000000000800c140      0x370 /Users/imac/Downloads/gcc-arm-none-eabi-4_9-2015q2/bin/../lib/gcc/arm-none-eabi/4.9.3/armv7e-m/fpu/libgcc.a(_arm_addsubdf3.o)
                0x000000000800c140                __aeabi_drsub
                0x000000000800c148                __subdf3
                0x000000000800c148                __aeabi_dsub
                0x000000000800c14c                __aeabi_dadd
                0x000000000800c14c                __adddf3
                0x000000000800c3c4                __aeabi_ui2d
                0x000000000800c3c4                __floatunsidf
                0x000000000800c3e4                __floatsidf
                0x000000000800c3e4                __aeabi_i2d
                0x000000000800c408                __extendsfdf2
                0x000000000800c408                __aeabi_f2d
                0x000000000800c444                __aeabi_ul2d
                0x000000000800c444                __floatundidf
                0x000000000800c454                __aeabi_l2d
                0x000000000800c454                __floatdidf
 .text          0x000000000800c4b0      0x424 /Users/imac/Downloads/gcc-arm-none-eabi-4_9-2015q2/bin/../lib/gcc/arm-none-eabi/4.9.3/armv7e-m/fpu/libgcc.a(_arm_muldivdf3.o)
                0x000000000800c4b0                __aeabi_dmul
                0x000000000800c4b0                __muldf3
                0x000000000800c704                __aeabi_ddiv
                0x000000000800c704                __divdf3
 *fill*         0x000000000800c8d4        0xc 
 .text          0x000000000800c8e0       0x50 /Users/imac/Downloads/gcc-arm-none-eabi-4_9-2015q2/bin/../lib/gcc/arm-none-eabi/4.9.3/armv7e-m/fpu/libgcc.a(_arm_fixdfsi.o)
                0x000000000800c8e0                __fixdfsi
                0x000000000800c8e0                __aeabi_d2iz
 .text          0x000000000800c930       0xa0 /Users/imac/Downloads/gcc-arm-none-eabi-4_9-2015q2/bin/../lib/gcc/arm-none-eabi/4.9.3/armv7e-m/fpu/libgcc.a(_arm_truncdfsf2.o)
                0x000000000800c930                __aeabi_d2f
                0x000000000800c930                __truncdfsf2
 .text          0x000000000800c9d0      0x134 /Users/imac/Downloads/gcc-arm-none-eabi-4_9-2015q2/bin/../lib/gcc/arm-none-eabi/4.9.3/../../../../arm-none-eabi/lib/armv7e-m/fpu/libg.a(lib_a-memcpy.o)
                0x000000000800c9d0                memcpy
 *fill*         0x000000000800cb04        0xc 
 .text          0x000000000800cb10      0x110 /Users/imac/Downloads/gcc-arm-none-eabi-4_9-2015q2/bin/../lib/gcc/arm-none-eabi/4.9.3/armv7e-m/fpu/libgcc.a(_arm_cmpdf2.o)
                0x000000000800cb10                __gtdf2
                0x000000000800cb10                __gedf2
                0x000000000800cb18                __ltdf2
                0x000000000800cb18                __ledf2
                0x000000000800cb20                __eqdf2
                0x000000000800cb20                __nedf2
                0x000000000800cb20                __cmpdf2
                0x000000000800cb9c                __aeabi_cdrcmple
                0x000000000800cbac                __aeabi_cdcmple
                0x000000000800cbac                __aeabi_cdcmpeq
                0x000000000800cbbc                __aeabi_dcmpeq
                0x000000000800cbd0                __aeabi_dcmplt
                0x000000000800cbe4                __aeabi_dcmple
                0x000000000800cbf8                __aeabi_dcmpge
                0x000000000800cc0c                __aeabi_dcmpgt
 .text          0x000000000800cc20       0x30 /Users/imac/Downloads/gcc-arm-none-eabi-4_9-2015q2/bin/../lib/gcc/arm-none-eabi/4.9.3/armv7e-m/fpu/libgcc.a(_aeabi_uldivmod.o)
                0x000000000800cc20                __aeabi_uldivmod
 .text          0x000000000800cc50       0x60 /Users/imac/Downloads/gcc-arm-none-eabi-4_9-2015q2/bin/../lib/gcc/arm-none-eabi/4.9.3/armv7e-m/fpu/libgcc.a(bpabi.o)
                0x000000000800cc50                __gnu_ldivmod_helper
                0x000000000800cc80                __gnu_uldivmod_helper
 .text          0x000000000800ccb0        0x4 /Users/imac/Downloads/gcc-arm-none-eabi-4_9-2015q2/bin/../lib/gcc/arm-none-eabi/4.9.3/armv7e-m/fpu/libgcc.a(_dvmd_tls.o)
                0x000000000800ccb0                __aeabi_ldiv0
                0x000000000800ccb0                __aeabi_idiv0
 *fill*         0x000000000800ccb4        0xc 
 .text          0x000000000800ccc0      0x29c /Users/imac/Downloads/gcc-arm-none-eabi-4_9-2015q2/bin/../lib/gcc/arm-none-eabi/4.9.3/armv7e-m/fpu/libgcc.a(_divdi3.o)
                0x000000000800ccc0                __divdi3
 *fill*         0x000000000800cf5c        0x4 
 .text          0x000000000800cf60      0x26c /Users/imac/Downloads/gcc-arm-none-eabi-4_9-2015q2/bin/../lib/gcc/arm-none-eabi/4.9.3/armv7e-m/fpu/libgcc.a(_udivdi3.o)
                0x000000000800cf60                __udivdi3
 *(.text.*)
 *fill*         0x000000000800d1cc        0x4 
 .text.__core_init
                0x000000000800d1d0        0x4 build/obj/crt1.o
                0x000000000800d1d0                __core_init
 *fill*         0x000000000800d1d4        0xc 
 .text.__late_init
                0x000000000800d1e0        0x4 build/obj/crt1.o
                0x000000000800d1e0                __late_init
 *fill*         0x000000000800d1e4        0xc 
 .text.__default_exit
                0x000000000800d1f0        0x4 build/obj/crt1.o
                0x000000000800d1f0                __default_exit
 *fill*         0x000000000800d1f4        0xc 
 .text._unhandled_exception
                0x000000000800d200        0x4 build/obj/vectors.o
                0x000000000800d200                Vector174
                0x000000000800d200                VectorE8
                0x000000000800d200                Vector9C
                0x000000000800d200                VectorAC
                0x000000000800d200                DebugMon_Handler
                0x000000000800d200                Vector1A0
                0x000000000800d200                Vector5C
                0x000000000800d200                HardFault_Handler
                0x000000000800d200                Vector1B8
                0x000000000800d200                Vector19C
                0x000000000800d200                PendSV_Handler
                0x000000000800d200                Vector168
                0x000000000800d200                NMI_Handler
                0x000000000800d200                Vector110
                0x000000000800d200                VectorA8
                0x000000000800d200                Vector160
                0x000000000800d200                Vector1B0
                0x000000000800d200                UsageFault_Handler
                0x000000000800d200                VectorEC
                0x000000000800d200                Vector40
                0x000000000800d200                VectorF8
                0x000000000800d200                Vector108
                0x000000000800d200                VectorBC
                0x000000000800d200                Vector190
                0x000000000800d200                Vector148
                0x000000000800d200                Vector188
                0x000000000800d200                Vector198
                0x000000000800d200                Vector118
                0x000000000800d200                Vector64
                0x000000000800d200                VectorCC
                0x000000000800d200                Vector54
                0x000000000800d200                VectorD8
                0x000000000800d200                Vector138
                0x000000000800d200                Vector24
                0x000000000800d200                Vector1AC
                0x000000000800d200                Vector178
                0x000000000800d200                Vector1A4
                0x000000000800d200                VectorD0
                0x000000000800d200                Vector1B4
                0x000000000800d200                Vector140
                0x000000000800d200                VectorE4
                0x000000000800d200                VectorC0
                0x000000000800d200                Vector134
                0x000000000800d200                VectorF0
                0x000000000800d200                Vector13C
                0x000000000800d200                Vector100
                0x000000000800d200                VectorF4
                0x000000000800d200                MemManage_Handler
                0x000000000800d200                VectorA0
                0x000000000800d200                Vector180
                0x000000000800d200                VectorB0
                0x000000000800d200                Vector114
                0x000000000800d200                Vector164
                0x000000000800d200                Vector60
                0x000000000800d200                Vector1C
                0x000000000800d200                Vector1BC
                0x000000000800d200                Vector17C
                0x000000000800d200                Vector48
                0x000000000800d200                Vector1A8
                0x000000000800d200                Vector16C
                0x000000000800d200                VectorD4
                0x000000000800d200                Vector4C
                0x000000000800d200                Vector144
                0x000000000800d200                Vector68
                0x000000000800d200                _unhandled_exception
                0x000000000800d200                Vector170
                0x000000000800d200                Vector104
                0x000000000800d200                Vector184
                0x000000000800d200                Vector10C
                0x000000000800d200                BusFault_Handler
                0x000000000800d200                Vector50
                0x000000000800d200                Vector194
                0x000000000800d200                Vector44
                0x000000000800d200                Vector28
                0x000000000800d200                VectorB8
                0x000000000800d200                Vector34
                0x000000000800d200                VectorA4
                0x000000000800d200                Vector20
                0x000000000800d200                Vector18C
                0x000000000800d200                Vector58
 *fill*         0x000000000800d204        0xc 
 .text._idle_thread
                0x000000000800d210        0x4 build/obj/chsys.o
 *fill*         0x000000000800d214        0xc 
 .text.chSysInit
                0x000000000800d220       0xa4 build/obj/chsys.o
                0x000000000800d220                chSysInit
 *fill*         0x000000000800d2c4        0xc 
 .text.chSysTimerHandlerI
                0x000000000800d2d0       0x58 build/obj/chsys.o
                0x000000000800d2d0                chSysTimerHandlerI
 *fill*         0x000000000800d328        0x8 
 .text.chSysPolledDelayX
                0x000000000800d330       0x14 build/obj/chsys.o
                0x000000000800d330                chSysPolledDelayX
 *fill*         0x000000000800d344        0xc 
 .text._vt_init
                0x000000000800d350       0x1c build/obj/chvt.o
                0x000000000800d350                _vt_init
 *fill*         0x000000000800d36c        0x4 
 .text.chVTDoSetI
                0x000000000800d370       0x3c build/obj/chvt.o
                0x000000000800d370                chVTDoSetI
 *fill*         0x000000000800d3ac        0x4 
 .text.chVTDoResetI
                0x000000000800d3b0       0x28 build/obj/chvt.o
                0x000000000800d3b0                chVTDoResetI
 *fill*         0x000000000800d3d8        0x8 
 .text.wakeup   0x000000000800d3e0       0x70 build/obj/chschd.o
 .text._scheduler_init
                0x000000000800d450       0x14 build/obj/chschd.o
                0x000000000800d450                _scheduler_init
 *fill*         0x000000000800d464        0xc 
 .text.chSchReadyI
                0x000000000800d470       0x2c build/obj/chschd.o
                0x000000000800d470                chSchReadyI
 *fill*         0x000000000800d49c        0x4 
 .text.chSchGoSleepS
                0x000000000800d4a0       0x28 build/obj/chschd.o
                0x000000000800d4a0                chSchGoSleepS
 *fill*         0x000000000800d4c8        0x8 
 .text.chSchGoSleepTimeoutS
                0x000000000800d4d0       0x44 build/obj/chschd.o
                0x000000000800d4d0                chSchGoSleepTimeoutS
 *fill*         0x000000000800d514        0xc 
 .text.chSchWakeupS
                0x000000000800d520       0x58 build/obj/chschd.o
                0x000000000800d520                chSchWakeupS
 *fill*         0x000000000800d578        0x8 
 .text.chSchIsPreemptionRequired
                0x000000000800d580       0x28 build/obj/chschd.o
                0x000000000800d580                chSchIsPreemptionRequired
 *fill*         0x000000000800d5a8        0x8 
 .text.chSchDoRescheduleBehind
                0x000000000800d5b0       0x40 build/obj/chschd.o
                0x000000000800d5b0                chSchDoRescheduleBehind
 .text.chSchDoRescheduleAhead
                0x000000000800d5f0       0x3c build/obj/chschd.o
                0x000000000800d5f0                chSchDoRescheduleAhead
 *fill*         0x000000000800d62c        0x4 
 .text.chSchRescheduleS
                0x000000000800d630       0x18 build/obj/chschd.o
                0x000000000800d630                chSchRescheduleS
 *fill*         0x000000000800d648        0x8 
 .text.chSchDoReschedule
                0x000000000800d650       0x14 build/obj/chschd.o
                0x000000000800d650                chSchDoReschedule
 *fill*         0x000000000800d664        0xc 
 .text._thread_init
                0x000000000800d670       0x50 build/obj/chthreads.o
                0x000000000800d670                _thread_init
 .text.chThdCreateI
                0x000000000800d6c0       0x70 build/obj/chthreads.o
                0x000000000800d6c0                chThdCreateI
 .text.chThdCreateStatic
                0x000000000800d730       0x80 build/obj/chthreads.o
                0x000000000800d730                chThdCreateStatic
 .text.chThdSleep
                0x000000000800d7b0       0x18 build/obj/chthreads.o
                0x000000000800d7b0                chThdSleep
 *fill*         0x000000000800d7c8        0x8 
 .text.chThdExitS
                0x000000000800d7d0       0x40 build/obj/chthreads.o
                0x000000000800d7d0                chThdExitS
 .text.chThdExit
                0x000000000800d810        0xc build/obj/chthreads.o
                0x000000000800d810                chThdExit
 *fill*         0x000000000800d81c        0x4 
 .text.chThdSuspendS
                0x000000000800d820       0x1c build/obj/chthreads.o
                0x000000000800d820                chThdSuspendS
 *fill*         0x000000000800d83c        0x4 
 .text.chThdResumeI
                0x000000000800d840       0x14 build/obj/chthreads.o
                0x000000000800d840                chThdResumeI
 *fill*         0x000000000800d854        0xc 
 .text.chThdEnqueueTimeoutS
                0x000000000800d860       0x28 build/obj/chthreads.o
                0x000000000800d860                chThdEnqueueTimeoutS
 *fill*         0x000000000800d888        0x8 
 .text.chThdDequeueAllI
                0x000000000800d890       0x24 build/obj/chthreads.o
                0x000000000800d890                chThdDequeueAllI
 *fill*         0x000000000800d8b4        0xc 
 .text.chTMStartMeasurementX
                0x000000000800d8c0        0xc build/obj/chtm.o
                0x000000000800d8c0                chTMStartMeasurementX
 *fill*         0x000000000800d8cc        0x4 
 .text.chTMStopMeasurementX
                0x000000000800d8d0       0x48 build/obj/chtm.o
                0x000000000800d8d0                chTMStopMeasurementX
 *fill*         0x000000000800d918        0x8 
 .text._tm_init
                0x000000000800d920       0x38 build/obj/chtm.o
                0x000000000800d920                _tm_init
 *fill*         0x000000000800d958        0x8 
 .text.chMtxObjectInit
                0x000000000800d960        0xc build/obj/chmtx.o
                0x000000000800d960                chMtxObjectInit
 *fill*         0x000000000800d96c        0x4 
 .text.chEvtSignalI
                0x000000000800d970       0x2c build/obj/chevents.o
                0x000000000800d970                chEvtSignalI
 *fill*         0x000000000800d99c        0x4 
 .text.chEvtBroadcastFlagsI
                0x000000000800d9a0       0x2c build/obj/chevents.o
                0x000000000800d9a0                chEvtBroadcastFlagsI
 *fill*         0x000000000800d9cc        0x4 
 .text.chIQObjectInit
                0x000000000800d9d0       0x20 build/obj/chqueues.o
                0x000000000800d9d0                chIQObjectInit
 .text.chIQResetI
                0x000000000800d9f0       0x14 build/obj/chqueues.o
                0x000000000800d9f0                chIQResetI
 *fill*         0x000000000800da04        0xc 
 .text.chIQGetTimeout
                0x000000000800da10       0x50 build/obj/chqueues.o
                0x000000000800da10                chIQGetTimeout
 .text.chIQReadTimeout
                0x000000000800da60       0x78 build/obj/chqueues.o
                0x000000000800da60                chIQReadTimeout
 *fill*         0x000000000800dad8        0x8 
 .text.chOQObjectInit
                0x000000000800dae0       0x1c build/obj/chqueues.o
                0x000000000800dae0                chOQObjectInit
 *fill*         0x000000000800dafc        0x4 
 .text.chOQResetI
                0x000000000800db00       0x1c build/obj/chqueues.o
                0x000000000800db00                chOQResetI
 *fill*         0x000000000800db1c        0x4 
 .text.chOQPutTimeout
                0x000000000800db20       0x54 build/obj/chqueues.o
                0x000000000800db20                chOQPutTimeout
 *fill*         0x000000000800db74        0xc 
 .text.chOQWriteTimeout
                0x000000000800db80       0x84 build/obj/chqueues.o
                0x000000000800db80                chOQWriteTimeout
 *fill*         0x000000000800dc04        0xc 
 .text._core_init
                0x000000000800dc10       0x28 build/obj/chmemcore.o
                0x000000000800dc10                _core_init
 *fill*         0x000000000800dc38        0x8 
 .text.chCoreAlloc
                0x000000000800dc40       0x38 build/obj/chmemcore.o
                0x000000000800dc40                chCoreAlloc
 *fill*         0x000000000800dc78        0x8 
 .text._heap_init
                0x000000000800dc80       0x1c build/obj/chheap.o
                0x000000000800dc80                _heap_init
 *fill*         0x000000000800dc9c        0x4 
 .text.SVC_Handler
                0x000000000800dca0       0x20 build/obj/chcore_v7m.o
                0x000000000800dca0                SVC_Handler
 .text._port_irq_epilogue
                0x000000000800dcc0       0x60 build/obj/chcore_v7m.o
                0x000000000800dcc0                _port_irq_epilogue
 .text.halInit  0x000000000800dd20       0x34 build/obj/hal.o
                0x000000000800dd20                halInit
 *fill*         0x000000000800dd54        0xc 
 .text.stInit   0x000000000800dd60        0x4 build/obj/st.o
                0x000000000800dd60                stInit
 *fill*         0x000000000800dd64        0xc 
 .text.canInit  0x000000000800dd70        0x4 build/obj/can.o
                0x000000000800dd70                canInit
 *fill*         0x000000000800dd74        0xc 
 .text.canObjectInit
                0x000000000800dd80       0x44 build/obj/can.o
                0x000000000800dd80                canObjectInit
 *fill*         0x000000000800ddc4        0xc 
 .text.i2cInit  0x000000000800ddd0        0x4 build/obj/i2c.o
                0x000000000800ddd0                i2cInit
 *fill*         0x000000000800ddd4        0xc 
 .text.i2cObjectInit
                0x000000000800dde0       0x10 build/obj/i2c.o
                0x000000000800dde0                i2cObjectInit
 .text.icuInit  0x000000000800ddf0        0x4 build/obj/icu.o
                0x000000000800ddf0                icuInit
 *fill*         0x000000000800ddf4        0xc 
 .text.icuObjectInit
                0x000000000800de00        0xc build/obj/icu.o
                0x000000000800de00                icuObjectInit
 *fill*         0x000000000800de0c        0x4 
 .text.onotify  0x000000000800de10       0x5c build/obj/serial_usb.o
 *fill*         0x000000000800de6c        0x4 
 .text.inotify  0x000000000800de70       0x6c build/obj/serial_usb.o
 *fill*         0x000000000800dedc        0x4 
 .text.readt    0x000000000800dee0        0x8 build/obj/serial_usb.o
 *fill*         0x000000000800dee8        0x8 
 .text.read     0x000000000800def0        0xc build/obj/serial_usb.o
 *fill*         0x000000000800defc        0x4 
 .text.writet   0x000000000800df00        0x8 build/obj/serial_usb.o
 *fill*         0x000000000800df08        0x8 
 .text.write    0x000000000800df10        0xc build/obj/serial_usb.o
 *fill*         0x000000000800df1c        0x4 
 .text.gett     0x000000000800df20        0x8 build/obj/serial_usb.o
 *fill*         0x000000000800df28        0x8 
 .text.get      0x000000000800df30        0xc build/obj/serial_usb.o
 *fill*         0x000000000800df3c        0x4 
 .text.putt     0x000000000800df40        0x8 build/obj/serial_usb.o
 *fill*         0x000000000800df48        0x8 
 .text.put      0x000000000800df50        0xc build/obj/serial_usb.o
 *fill*         0x000000000800df5c        0x4 
 .text.sduInit  0x000000000800df60        0x4 build/obj/serial_usb.o
                0x000000000800df60                sduInit
 *fill*         0x000000000800df64        0xc 
 .text.sduObjectInit
                0x000000000800df70       0x4c build/obj/serial_usb.o
                0x000000000800df70                sduObjectInit
 *fill*         0x000000000800dfbc        0x4 
 .text.sduStart
                0x000000000800dfc0       0x34 build/obj/serial_usb.o
                0x000000000800dfc0                sduStart
 *fill*         0x000000000800dff4        0xc 
 .text.sduConfigureHookI
                0x000000000800e000       0x4c build/obj/serial_usb.o
                0x000000000800e000                sduConfigureHookI
 *fill*         0x000000000800e04c        0x4 
 .text.sduRequestsHook
                0x000000000800e050       0x40 build/obj/serial_usb.o
                0x000000000800e050                sduRequestsHook
 .text.sduDataTransmitted
                0x000000000800e090       0x6c build/obj/serial_usb.o
                0x000000000800e090                sduDataTransmitted
 *fill*         0x000000000800e0fc        0x4 
 .text.sduDataReceived
                0x000000000800e100       0x6c build/obj/serial_usb.o
                0x000000000800e100                sduDataReceived
 *fill*         0x000000000800e16c        0x4 
 .text.sduInterruptTransmitted
                0x000000000800e170        0x4 build/obj/serial_usb.o
                0x000000000800e170                sduInterruptTransmitted
 *fill*         0x000000000800e174        0xc 
 .text.uartInit
                0x000000000800e180        0x4 build/obj/uart.o
                0x000000000800e180                uartInit
 *fill*         0x000000000800e184        0xc 
 .text.uartObjectInit
                0x000000000800e190       0x10 build/obj/uart.o
                0x000000000800e190                uartObjectInit
 .text.usbInit  0x000000000800e1a0        0x4 build/obj/usb.o
                0x000000000800e1a0                usbInit
 *fill*         0x000000000800e1a4        0xc 
 .text.usbObjectInit
                0x000000000800e1b0       0x1c build/obj/usb.o
                0x000000000800e1b0                usbObjectInit
 *fill*         0x000000000800e1cc        0x4 
 .text.usbStart
                0x000000000800e1d0       0x24 build/obj/usb.o
                0x000000000800e1d0                usbStart
 *fill*         0x000000000800e1f4        0xc 
 .text.usbInitEndpointI
                0x000000000800e200       0x34 build/obj/usb.o
                0x000000000800e200                usbInitEndpointI
 *fill*         0x000000000800e234        0xc 
 .text.usbPrepareQueuedReceive
                0x000000000800e240       0x1c build/obj/usb.o
                0x000000000800e240                usbPrepareQueuedReceive
 *fill*         0x000000000800e25c        0x4 
 .text.usbPrepareQueuedTransmit
                0x000000000800e260       0x1c build/obj/usb.o
                0x000000000800e260                usbPrepareQueuedTransmit
 *fill*         0x000000000800e27c        0x4 
 .text.usbStartReceiveI
                0x000000000800e280       0x24 build/obj/usb.o
                0x000000000800e280                usbStartReceiveI
 *fill*         0x000000000800e2a4        0xc 
 .text.usbStartTransmitI
                0x000000000800e2b0       0x24 build/obj/usb.o
                0x000000000800e2b0                usbStartTransmitI
 *fill*         0x000000000800e2d4        0xc 
 .text._usb_reset
                0x000000000800e2e0       0x28 build/obj/usb.o
                0x000000000800e2e0                _usb_reset
 *fill*         0x000000000800e308        0x8 
 .text._usb_ep0setup
                0x000000000800e310      0x34c build/obj/usb.o
                0x000000000800e310                _usb_ep0setup
 *fill*         0x000000000800e65c        0x4 
 .text._usb_ep0in
                0x000000000800e660       0xc4 build/obj/usb.o
                0x000000000800e660                _usb_ep0in
 *fill*         0x000000000800e724        0xc 
 .text._usb_ep0out
                0x000000000800e730       0x88 build/obj/usb.o
                0x000000000800e730                _usb_ep0out
 *fill*         0x000000000800e7b8        0x8 
 .text.nvicEnableVector
                0x000000000800e7c0       0x34 build/obj/nvic.o
                0x000000000800e7c0                nvicEnableVector
 *fill*         0x000000000800e7f4        0xc 
 .text.nvicSetSystemHandlerPriority
                0x000000000800e800       0x10 build/obj/nvic.o
                0x000000000800e800                nvicSetSystemHandlerPriority
 .text.Vector6C
                0x000000000800e810       0x28 build/obj/stm32_dma.o
                0x000000000800e810                Vector6C
 *fill*         0x000000000800e838        0x8 
 .text.Vector70
                0x000000000800e840       0x2c build/obj/stm32_dma.o
                0x000000000800e840                Vector70
 *fill*         0x000000000800e86c        0x4 
 .text.Vector74
                0x000000000800e870       0x2c build/obj/stm32_dma.o
                0x000000000800e870                Vector74
 *fill*         0x000000000800e89c        0x4 
 .text.Vector78
                0x000000000800e8a0       0x2c build/obj/stm32_dma.o
                0x000000000800e8a0                Vector78
 *fill*         0x000000000800e8cc        0x4 
 .text.Vector7C
                0x000000000800e8d0       0x28 build/obj/stm32_dma.o
                0x000000000800e8d0                Vector7C
 *fill*         0x000000000800e8f8        0x8 
 .text.Vector80
                0x000000000800e900       0x2c build/obj/stm32_dma.o
                0x000000000800e900                Vector80
 *fill*         0x000000000800e92c        0x4 
 .text.Vector84
                0x000000000800e930       0x2c build/obj/stm32_dma.o
                0x000000000800e930                Vector84
 *fill*         0x000000000800e95c        0x4 
 .text.VectorFC
                0x000000000800e960       0x2c build/obj/stm32_dma.o
                0x000000000800e960                VectorFC
 *fill*         0x000000000800e98c        0x4 
 .text.Vector120
                0x000000000800e990       0x28 build/obj/stm32_dma.o
                0x000000000800e990                Vector120
 *fill*         0x000000000800e9b8        0x8 
 .text.Vector124
                0x000000000800e9c0       0x2c build/obj/stm32_dma.o
                0x000000000800e9c0                Vector124
 *fill*         0x000000000800e9ec        0x4 
 .text.Vector128
                0x000000000800e9f0       0x2c build/obj/stm32_dma.o
                0x000000000800e9f0                Vector128
 *fill*         0x000000000800ea1c        0x4 
 .text.Vector12C
                0x000000000800ea20       0x2c build/obj/stm32_dma.o
                0x000000000800ea20                Vector12C
 *fill*         0x000000000800ea4c        0x4 
 .text.Vector130
                0x000000000800ea50       0x28 build/obj/stm32_dma.o
                0x000000000800ea50                Vector130
 *fill*         0x000000000800ea78        0x8 
 .text.Vector150
                0x000000000800ea80       0x2c build/obj/stm32_dma.o
                0x000000000800ea80                Vector150
 *fill*         0x000000000800eaac        0x4 
 .text.Vector154
                0x000000000800eab0       0x2c build/obj/stm32_dma.o
                0x000000000800eab0                Vector154
 *fill*         0x000000000800eadc        0x4 
 .text.Vector158
                0x000000000800eae0       0x2c build/obj/stm32_dma.o
                0x000000000800eae0                Vector158
 *fill*         0x000000000800eb0c        0x4 
 .text.dmaInit  0x000000000800eb10       0x4c build/obj/stm32_dma.o
                0x000000000800eb10                dmaInit
 *fill*         0x000000000800eb5c        0x4 
 .text.dmaStreamAllocate
                0x000000000800eb60       0x8c build/obj/stm32_dma.o
                0x000000000800eb60                dmaStreamAllocate
 *fill*         0x000000000800ebec        0x4 
 .text.hal_lld_init
                0x000000000800ebf0       0x68 build/obj/hal_lld.o
                0x000000000800ebf0                hal_lld_init
 *fill*         0x000000000800ec58        0x8 
 .text.stm32_clock_init
                0x000000000800ec60       0xc8 build/obj/hal_lld.o
                0x000000000800ec60                stm32_clock_init
 *fill*         0x000000000800ed28        0x8 
 .text.SysTick_Handler
                0x000000000800ed30       0x1c build/obj/st_lld.o
                0x000000000800ed30                SysTick_Handler
 *fill*         0x000000000800ed4c        0x4 
 .text.st_lld_init
                0x000000000800ed50       0x1c build/obj/st_lld.o
                0x000000000800ed50                st_lld_init
 *fill*         0x000000000800ed6c        0x4 
 .text.can_lld_set_filters
                0x000000000800ed70      0x118 build/obj/can_lld.o
 *fill*         0x000000000800ee88        0x8 
 .text.Vector8C
                0x000000000800ee90       0x3c build/obj/can_lld.o
                0x000000000800ee90                Vector8C
 *fill*         0x000000000800eecc        0x4 
 .text.Vector90
                0x000000000800eed0       0x64 build/obj/can_lld.o
                0x000000000800eed0                Vector90
 *fill*         0x000000000800ef34        0xc 
 .text.Vector94
                0x000000000800ef40       0x64 build/obj/can_lld.o
                0x000000000800ef40                Vector94
 *fill*         0x000000000800efa4        0xc 
 .text.Vector98
                0x000000000800efb0       0x78 build/obj/can_lld.o
                0x000000000800efb0                Vector98
 *fill*         0x000000000800f028        0x8 
 .text.can_lld_init
                0x000000000800f030       0x24 build/obj/can_lld.o
                0x000000000800f030                can_lld_init
 *fill*         0x000000000800f054        0xc 
 .text._pal_lld_init
                0x000000000800f060      0x1cc build/obj/pal_lld.o
                0x000000000800f060                _pal_lld_init
 *fill*         0x000000000800f22c        0x4 
 .text._pal_lld_setgroupmode
                0x000000000800f230       0xac build/obj/pal_lld.o
                0x000000000800f230                _pal_lld_setgroupmode
 *fill*         0x000000000800f2dc        0x4 
 .text.VectorC4
                0x000000000800f2e0       0xf8 build/obj/i2c_lld.o
                0x000000000800f2e0                VectorC4
 *fill*         0x000000000800f3d8        0x8 
 .text.VectorC8
                0x000000000800f3e0       0xdc build/obj/i2c_lld.o
                0x000000000800f3e0                VectorC8
 *fill*         0x000000000800f4bc        0x4 
 .text.i2c_lld_init
                0x000000000800f4c0       0x2c build/obj/i2c_lld.o
                0x000000000800f4c0                i2c_lld_init
 *fill*         0x000000000800f4ec        0x4 
 .text.usb_lld_pump
                0x000000000800f4f0      0x328 build/obj/usb_lld.o
                0x000000000800f4f0                usb_lld_pump
 *fill*         0x000000000800f818        0x8 
 .text.otg_disable_ep.isra.0
                0x000000000800f820       0x74 build/obj/usb_lld.o
 *fill*         0x000000000800f894        0xc 
 .text.usb_lld_init
                0x000000000800f8a0       0x24 build/obj/usb_lld.o
                0x000000000800f8a0                usb_lld_init
 *fill*         0x000000000800f8c4        0xc 
 .text.usb_lld_start
                0x000000000800f8d0       0xe8 build/obj/usb_lld.o
                0x000000000800f8d0                usb_lld_start
 *fill*         0x000000000800f9b8        0x8 
 .text.usb_lld_reset
                0x000000000800f9c0       0xc4 build/obj/usb_lld.o
                0x000000000800f9c0                usb_lld_reset
 *fill*         0x000000000800fa84        0xc 
 .text.usb_lld_set_address
                0x000000000800fa90       0x18 build/obj/usb_lld.o
                0x000000000800fa90                usb_lld_set_address
 *fill*         0x000000000800faa8        0x8 
 .text.usb_lld_init_endpoint
                0x000000000800fab0      0x160 build/obj/usb_lld.o
                0x000000000800fab0                usb_lld_init_endpoint
 .text.usb_lld_get_status_out
                0x000000000800fc10       0x1c build/obj/usb_lld.o
                0x000000000800fc10                usb_lld_get_status_out
 *fill*         0x000000000800fc2c        0x4 
 .text.usb_lld_get_status_in
                0x000000000800fc30       0x1c build/obj/usb_lld.o
                0x000000000800fc30                usb_lld_get_status_in
 *fill*         0x000000000800fc4c        0x4 
 .text.usb_lld_read_setup
                0x000000000800fc50       0x14 build/obj/usb_lld.o
                0x000000000800fc50                usb_lld_read_setup
 *fill*         0x000000000800fc64        0xc 
 .text.usb_lld_prepare_receive
                0x000000000800fc70       0x44 build/obj/usb_lld.o
                0x000000000800fc70                usb_lld_prepare_receive
 *fill*         0x000000000800fcb4        0xc 
 .text.otg_epout_handler.constprop.7
                0x000000000800fcc0       0xa4 build/obj/usb_lld.o
 *fill*         0x000000000800fd64        0xc 
 .text.usb_lld_prepare_transmit
                0x000000000800fd70       0x50 build/obj/usb_lld.o
                0x000000000800fd70                usb_lld_prepare_transmit
 .text.otg_epin_handler.constprop.8
                0x000000000800fdc0       0xd0 build/obj/usb_lld.o
 .text.Vector14C
                0x000000000800fe90       0xf4 build/obj/usb_lld.o
                0x000000000800fe90                Vector14C
 *fill*         0x000000000800ff84        0xc 
 .text.usb_lld_start_out
                0x000000000800ff90       0x14 build/obj/usb_lld.o
                0x000000000800ff90                usb_lld_start_out
 *fill*         0x000000000800ffa4        0xc 
 .text.usb_lld_start_in
                0x000000000800ffb0       0x28 build/obj/usb_lld.o
                0x000000000800ffb0                usb_lld_start_in
 *fill*         0x000000000800ffd8        0x8 
 .text.usb_lld_stall_out
                0x000000000800ffe0       0x14 build/obj/usb_lld.o
                0x000000000800ffe0                usb_lld_stall_out
 *fill*         0x000000000800fff4        0xc 
 .text.usb_lld_stall_in
                0x0000000008010000       0x14 build/obj/usb_lld.o
                0x0000000008010000                usb_lld_stall_in
 *fill*         0x0000000008010014        0xc 
 .text.usb_lld_clear_out
                0x0000000008010020       0x14 build/obj/usb_lld.o
                0x0000000008010020                usb_lld_clear_out
 *fill*         0x0000000008010034        0xc 
 .text.usb_lld_clear_in
                0x0000000008010040       0x14 build/obj/usb_lld.o
                0x0000000008010040                usb_lld_clear_in
 *fill*         0x0000000008010054        0xc 
 .text.VectorB4
                0x0000000008010060       0x9c build/obj/icu_lld.o
                0x0000000008010060                VectorB4
 *fill*         0x00000000080100fc        0x4 
 .text.icu_lld_init
                0x0000000008010100       0x18 build/obj/icu_lld.o
                0x0000000008010100                icu_lld_init
 *fill*         0x0000000008010118        0x8 
 .text.serve_usart_irq
                0x0000000008010120       0x78 build/obj/uart_lld.o
 *fill*         0x0000000008010198        0x8 
 .text.VectorDC
                0x00000000080101a0       0x14 build/obj/uart_lld.o
                0x00000000080101a0                VectorDC
 *fill*         0x00000000080101b4        0xc 
 .text.Vector15C
                0x00000000080101c0       0x14 build/obj/uart_lld.o
                0x00000000080101c0                Vector15C
 *fill*         0x00000000080101d4        0xc 
 .text.uart_lld_init
                0x00000000080101e0       0x48 build/obj/uart_lld.o
                0x00000000080101e0                uart_lld_init
 *fill*         0x0000000008010228        0x8 
 .text.__early_init
                0x0000000008010230        0x4 build/obj/board.o
                0x0000000008010230                __early_init
 *fill*         0x0000000008010234        0xc 
 .text.boardInit
                0x0000000008010240        0x4 build/obj/board.o
                0x0000000008010240                boardInit
 *fill*         0x0000000008010244        0xc 
 .text._sbrk_r  0x0000000008010250       0x18 build/obj/syscalls.o
                0x0000000008010250                _sbrk_r
 *fill*         0x0000000008010268        0x8 
 .text.uart_process_thread
                0x0000000008010270       0x28 build/obj/bldc.o
 *fill*         0x0000000008010298        0x8 
 .text.periodic_thread
                0x00000000080102a0       0x68 build/obj/bldc.o
 *fill*         0x0000000008010308        0x8 
 .text.bldc_init
                0x0000000008010310       0x3c build/obj/bldc.o
                0x0000000008010310                bldc_init
 *fill*         0x000000000801034c        0x4 
 .text.bldc_start
                0x0000000008010350       0xc4 build/obj/bldc.o
                0x0000000008010350                bldc_start
 *fill*         0x0000000008010414        0xc 
 .text.SEQUENCE_thread
                0x0000000008010420       0x1c build/obj/mcpwm.o
 *fill*         0x000000000801043c        0x4 
 .text.mcpwm_adc_int_handler
                0x0000000008010440       0x1c build/obj/mcpwm.o
                0x0000000008010440                mcpwm_adc_int_handler
 *fill*         0x000000000801045c        0x4 
 .text.ClarkePark
                0x0000000008010460       0x68 build/obj/mcpwm.o
                0x0000000008010460                ClarkePark
 *fill*         0x00000000080104c8        0x8 
 .text.CalcPI   0x00000000080104d0       0x60 build/obj/mcpwm.o
                0x00000000080104d0                CalcPI
 .text.SetupControlParameters
                0x0000000008010530       0x98 build/obj/mcpwm.o
                0x0000000008010530                SetupControlParameters
 *fill*         0x00000000080105c8        0x8 
 .text.VoltRippleComp
                0x00000000080105d0       0x5c build/obj/mcpwm.o
                0x00000000080105d0                VoltRippleComp
 *fill*         0x000000000801062c        0x4 
 .text.DoControl
                0x0000000008010630      0x248 build/obj/mcpwm.o
                0x0000000008010630                DoControl
 *fill*         0x0000000008010878        0x8 
 .text.InvPark  0x0000000008010880       0x4c build/obj/mcpwm.o
                0x0000000008010880                InvPark
 *fill*         0x00000000080108cc        0x4 
 .text.CalcTimes
                0x00000000080108d0       0x6c build/obj/mcpwm.o
                0x00000000080108d0                CalcTimes
 *fill*         0x000000000801093c        0x4 
 .text.update_timer_Duty
                0x0000000008010940       0x4c build/obj/mcpwm.o
                0x0000000008010940                update_timer_Duty
 *fill*         0x000000000801098c        0x4 
 .text.CalcSVGen
                0x0000000008010990      0x104 build/obj/mcpwm.o
                0x0000000008010990                CalcSVGen
 *fill*         0x0000000008010a94        0xc 
 .text.SMC_HallSensor_Estimation
                0x0000000008010aa0      0x19c build/obj/mcpwm.o
                0x0000000008010aa0                SMC_HallSensor_Estimation
 *fill*         0x0000000008010c3c        0x4 
 .text.mcpwm_adc_inj_int_handler
                0x0000000008010c40      0x160 build/obj/mcpwm.o
                0x0000000008010c40                mcpwm_adc_inj_int_handler
 .text.FWInit   0x0000000008010da0       0xac build/obj/mcpwm.o
                0x0000000008010da0                FWInit
 *fill*         0x0000000008010e4c        0x4 
 .text.mcpwm_init
                0x0000000008010e50      0x4f8 build/obj/mcpwm.o
                0x0000000008010e50                mcpwm_init
 *fill*         0x0000000008011348        0x8 
 .text.mcpwm_get_state
                0x0000000008011350        0x4 build/obj/mcpwm.o
                0x0000000008011350                mcpwm_get_state
 *fill*         0x0000000008011354        0xc 
 .text.mcpwm_get_fault
                0x0000000008011360        0xc build/obj/mcpwm.o
                0x0000000008011360                mcpwm_get_fault
 *fill*         0x000000000801136c        0x4 
 .text.get_descriptor
                0x0000000008011370       0x30 build/obj/usb_uart.o
 .text.usb_event
                0x00000000080113a0       0x40 build/obj/usb_uart.o
 .text.usb_uart_init
                0x00000000080113e0       0x4c build/obj/usb_uart.o
                0x00000000080113e0                usb_uart_init
 *fill*         0x000000000801142c        0x4 
 .text.usb_uart_printf
                0x0000000008011430       0x38 build/obj/usb_uart.o
                0x0000000008011430                usb_uart_printf
 *fill*         0x0000000008011468        0x8 
 .text.usb_uart_getch
                0x0000000008011470       0x20 build/obj/usb_uart.o
                0x0000000008011470                usb_uart_getch
 .text.Vector11C
                0x0000000008011490       0x18 build/obj/irq_handlers.o
                0x0000000008011490                Vector11C
 *fill*         0x00000000080114a8        0x8 
 .text.Vector88
                0x00000000080114b0       0x1c build/obj/irq_handlers.o
                0x00000000080114b0                Vector88
 *fill*         0x00000000080114cc        0x4 
 .text.VectorE0
                0x00000000080114d0       0x24 build/obj/irq_handlers.o
                0x00000000080114d0                VectorE0
 *fill*         0x00000000080114f4        0xc 
 .text.comm_usb_init
                0x0000000008011500       0x14 build/obj/comm_usb.o
                0x0000000008011500                comm_usb_init
 *fill*         0x0000000008011514        0xc 
 .text.utils_sys_lock_cnt
                0x0000000008011520       0x18 build/obj/utils.o
                0x0000000008011520                utils_sys_lock_cnt
 *fill*         0x0000000008011538        0x8 
 .text.utils_sys_unlock_cnt
                0x0000000008011540       0x1c build/obj/utils.o
                0x0000000008011540                utils_sys_unlock_cnt
 *fill*         0x000000000801155c        0x4 
 .text.conf_general_init
                0x0000000008011560       0x58 build/obj/conf_general.o
                0x0000000008011560                conf_general_init
 *fill*         0x00000000080115b8        0x8 
 .text.conf_general_read_app_configuration
                0x00000000080115c0      0x124 build/obj/conf_general.o
                0x00000000080115c0                conf_general_read_app_configuration
 *fill*         0x00000000080116e4        0xc 
 .text.conf_general_read_mc_configuration
                0x00000000080116f0      0x1a0 build/obj/conf_general.o
                0x00000000080116f0                conf_general_read_mc_configuration
 .text.EE_VerifyPageFullWriteVariable
                0x0000000008011890       0x7c build/obj/eeprom.o
 *fill*         0x000000000801190c        0x4 
 .text.EE_EraseSectorIfNotEmpty.constprop.1
                0x0000000008011910       0x30 build/obj/eeprom.o
 .text.EE_Format
                0x0000000008011940       0x2c build/obj/eeprom.o
 *fill*         0x000000000801196c        0x4 
 .text.EE_ReadVariable
                0x0000000008011970       0x70 build/obj/eeprom.o
                0x0000000008011970                EE_ReadVariable
 .text.EE_Init  0x00000000080119e0      0x140 build/obj/eeprom.o
                0x00000000080119e0                EE_Init
 .text.flash_helper_get_sector_address
                0x0000000008011b20       0x28 build/obj/flash_helper.o
                0x0000000008011b20                flash_helper_get_sector_address
 *fill*         0x0000000008011b48        0x8 
 .text.hw_init_gpio
                0x0000000008011b50      0x190 build/obj/hw_oroca.o
                0x0000000008011b50                hw_init_gpio
 .text.hw_setup_adc_channels
                0x0000000008011ce0       0xc0 build/obj/hw_oroca.o
                0x0000000008011ce0                hw_setup_adc_channels
 .text.NVIC_Init
                0x0000000008011da0       0x70 build/obj/misc.o
                0x0000000008011da0                NVIC_Init
 .text.ADC_Init
                0x0000000008011e10       0x50 build/obj/stm32f4xx_adc.o
                0x0000000008011e10                ADC_Init
 .text.ADC_CommonInit
                0x0000000008011e60       0x28 build/obj/stm32f4xx_adc.o
                0x0000000008011e60                ADC_CommonInit
 *fill*         0x0000000008011e88        0x8 
 .text.ADC_Cmd  0x0000000008011e90       0x14 build/obj/stm32f4xx_adc.o
                0x0000000008011e90                ADC_Cmd
 *fill*         0x0000000008011ea4        0xc 
 .text.ADC_RegularChannelConfig
                0x0000000008011eb0       0x8c build/obj/stm32f4xx_adc.o
                0x0000000008011eb0                ADC_RegularChannelConfig
 *fill*         0x0000000008011f3c        0x4 
 .text.ADC_MultiModeDMARequestAfterLastTransferCmd
                0x0000000008011f40       0x1c build/obj/stm32f4xx_adc.o
                0x0000000008011f40                ADC_MultiModeDMARequestAfterLastTransferCmd
 *fill*         0x0000000008011f5c        0x4 
 .text.ADC_InjectedChannelConfig
                0x0000000008011f60       0x58 build/obj/stm32f4xx_adc.o
                0x0000000008011f60                ADC_InjectedChannelConfig
 *fill*         0x0000000008011fb8        0x8 
 .text.ADC_InjectedSequencerLengthConfig
                0x0000000008011fc0       0x10 build/obj/stm32f4xx_adc.o
                0x0000000008011fc0                ADC_InjectedSequencerLengthConfig
 .text.ADC_ExternalTrigInjectedConvConfig
                0x0000000008011fd0        0xc build/obj/stm32f4xx_adc.o
                0x0000000008011fd0                ADC_ExternalTrigInjectedConvConfig
 *fill*         0x0000000008011fdc        0x4 
 .text.ADC_ExternalTrigInjectedConvEdgeConfig
                0x0000000008011fe0        0xc build/obj/stm32f4xx_adc.o
                0x0000000008011fe0                ADC_ExternalTrigInjectedConvEdgeConfig
 *fill*         0x0000000008011fec        0x4 
 .text.ADC_GetInjectedConversionValue
                0x0000000008011ff0       0x1c build/obj/stm32f4xx_adc.o
                0x0000000008011ff0                ADC_GetInjectedConversionValue
 *fill*         0x000000000801200c        0x4 
 .text.ADC_ITConfig
                0x0000000008012010       0x1c build/obj/stm32f4xx_adc.o
                0x0000000008012010                ADC_ITConfig
 *fill*         0x000000000801202c        0x4 
 .text.ADC_ClearITPendingBit
                0x0000000008012030        0x8 build/obj/stm32f4xx_adc.o
                0x0000000008012030                ADC_ClearITPendingBit
 *fill*         0x0000000008012038        0x8 
 .text.DMA_Init
                0x0000000008012040       0x70 build/obj/stm32f4xx_dma.o
                0x0000000008012040                DMA_Init
 .text.DMA_Cmd  0x00000000080120b0       0x14 build/obj/stm32f4xx_dma.o
                0x00000000080120b0                DMA_Cmd
 *fill*         0x00000000080120c4        0xc 
 .text.DMA_ITConfig
                0x00000000080120d0       0x40 build/obj/stm32f4xx_dma.o
                0x00000000080120d0                DMA_ITConfig
 .text.EXTI_GetITStatus
                0x0000000008012110       0x14 build/obj/stm32f4xx_exti.o
                0x0000000008012110                EXTI_GetITStatus
 *fill*         0x0000000008012124        0xc 
 .text.EXTI_ClearITPendingBit
                0x0000000008012130        0xc build/obj/stm32f4xx_exti.o
                0x0000000008012130                EXTI_ClearITPendingBit
 *fill*         0x000000000801213c        0x4 
 .text.FLASH_Unlock
                0x0000000008012140       0x20 build/obj/stm32f4xx_flash.o
                0x0000000008012140                FLASH_Unlock
 .text.FLASH_ClearFlag
                0x0000000008012160        0xc build/obj/stm32f4xx_flash.o
                0x0000000008012160                FLASH_ClearFlag
 *fill*         0x000000000801216c        0x4 
 .text.FLASH_GetStatus
                0x0000000008012170       0x40 build/obj/stm32f4xx_flash.o
                0x0000000008012170                FLASH_GetStatus
 .text.FLASH_WaitForLastOperation
                0x00000000080121b0       0x28 build/obj/stm32f4xx_flash.o
                0x00000000080121b0                FLASH_WaitForLastOperation
 *fill*         0x00000000080121d8        0x8 
 .text.FLASH_EraseSector
                0x00000000080121e0       0x74 build/obj/stm32f4xx_flash.o
                0x00000000080121e0                FLASH_EraseSector
 *fill*         0x0000000008012254        0xc 
 .text.FLASH_ProgramHalfWord
                0x0000000008012260       0x40 build/obj/stm32f4xx_flash.o
                0x0000000008012260                FLASH_ProgramHalfWord
 .text.RCC_AHB1PeriphClockCmd
                0x00000000080122a0       0x18 build/obj/stm32f4xx_rcc.o
                0x00000000080122a0                RCC_AHB1PeriphClockCmd
 *fill*         0x00000000080122b8        0x8 
 .text.RCC_APB1PeriphClockCmd
                0x00000000080122c0       0x18 build/obj/stm32f4xx_rcc.o
                0x00000000080122c0                RCC_APB1PeriphClockCmd
 *fill*         0x00000000080122d8        0x8 
 .text.RCC_APB2PeriphClockCmd
                0x00000000080122e0       0x18 build/obj/stm32f4xx_rcc.o
                0x00000000080122e0                RCC_APB2PeriphClockCmd
 *fill*         0x00000000080122f8        0x8 
 .text.RCC_APB1PeriphResetCmd
                0x0000000008012300       0x18 build/obj/stm32f4xx_rcc.o
                0x0000000008012300                RCC_APB1PeriphResetCmd
 *fill*         0x0000000008012318        0x8 
 .text.RCC_APB2PeriphResetCmd
                0x0000000008012320       0x18 build/obj/stm32f4xx_rcc.o
                0x0000000008012320                RCC_APB2PeriphResetCmd
 *fill*         0x0000000008012338        0x8 
 .text.TIM_DeInit
                0x0000000008012340      0x1b8 build/obj/stm32f4xx_tim.o
                0x0000000008012340                TIM_DeInit
 *fill*         0x00000000080124f8        0x8 
 .text.TIM_TimeBaseInit
                0x0000000008012500       0x98 build/obj/stm32f4xx_tim.o
                0x0000000008012500                TIM_TimeBaseInit
 *fill*         0x0000000008012598        0x8 
 .text.TIM_ARRPreloadConfig
                0x00000000080125a0       0x18 build/obj/stm32f4xx_tim.o
                0x00000000080125a0                TIM_ARRPreloadConfig
 *fill*         0x00000000080125b8        0x8 
 .text.TIM_Cmd  0x00000000080125c0       0x18 build/obj/stm32f4xx_tim.o
                0x00000000080125c0                TIM_Cmd
 *fill*         0x00000000080125d8        0x8 
 .text.TIM_OC1Init
                0x00000000080125e0       0x7c build/obj/stm32f4xx_tim.o
                0x00000000080125e0                TIM_OC1Init
 *fill*         0x000000000801265c        0x4 
 .text.TIM_OC2Init
                0x0000000008012660       0x98 build/obj/stm32f4xx_tim.o
                0x0000000008012660                TIM_OC2Init
 *fill*         0x00000000080126f8        0x8 
 .text.TIM_OC3Init
                0x0000000008012700       0x90 build/obj/stm32f4xx_tim.o
                0x0000000008012700                TIM_OC3Init
 .text.TIM_OC4Init
                0x0000000008012790       0x74 build/obj/stm32f4xx_tim.o
                0x0000000008012790                TIM_OC4Init
 *fill*         0x0000000008012804        0xc 
 .text.TIM_OC1PreloadConfig
                0x0000000008012810       0x10 build/obj/stm32f4xx_tim.o
                0x0000000008012810                TIM_OC1PreloadConfig
 .text.TIM_OC2PreloadConfig
                0x0000000008012820       0x14 build/obj/stm32f4xx_tim.o
                0x0000000008012820                TIM_OC2PreloadConfig
 *fill*         0x0000000008012834        0xc 
 .text.TIM_OC3PreloadConfig
                0x0000000008012840       0x10 build/obj/stm32f4xx_tim.o
                0x0000000008012840                TIM_OC3PreloadConfig
 .text.TIM_OC4PreloadConfig
                0x0000000008012850       0x14 build/obj/stm32f4xx_tim.o
                0x0000000008012850                TIM_OC4PreloadConfig
 *fill*         0x0000000008012864        0xc 
 .text.TIM_BDTRConfig
                0x0000000008012870       0x28 build/obj/stm32f4xx_tim.o
                0x0000000008012870                TIM_BDTRConfig
 *fill*         0x0000000008012898        0x8 
 .text.TIM_CtrlPWMOutputs
                0x00000000080128a0       0x14 build/obj/stm32f4xx_tim.o
                0x00000000080128a0                TIM_CtrlPWMOutputs
 *fill*         0x00000000080128b4        0xc 
 .text.TIM_CCPreloadControl
                0x00000000080128c0       0x18 build/obj/stm32f4xx_tim.o
                0x00000000080128c0                TIM_CCPreloadControl
 *fill*         0x00000000080128d8        0x8 
 .text.TIM_ClearITPendingBit
                0x00000000080128e0        0x8 build/obj/stm32f4xx_tim.o
                0x00000000080128e0                TIM_ClearITPendingBit
 *fill*         0x00000000080128e8        0x8 
 .text.TIM_SelectInputTrigger
                0x00000000080128f0       0x10 build/obj/stm32f4xx_tim.o
                0x00000000080128f0                TIM_SelectInputTrigger
 .text.TIM_SelectOutputTrigger
                0x0000000008012900       0x14 build/obj/stm32f4xx_tim.o
                0x0000000008012900                TIM_SelectOutputTrigger
 *fill*         0x0000000008012914        0xc 
 .text.TIM_SelectSlaveMode
                0x0000000008012920       0x14 build/obj/stm32f4xx_tim.o
                0x0000000008012920                TIM_SelectSlaveMode
 *fill*         0x0000000008012934        0xc 
 .text.TIM_SelectMasterSlaveMode
                0x0000000008012940       0x14 build/obj/stm32f4xx_tim.o
                0x0000000008012940                TIM_SelectMasterSlaveMode
 *fill*         0x0000000008012954        0xc 
 .text.WWDG_SetPrescaler
                0x0000000008012960       0x14 build/obj/stm32f4xx_wwdg.o
                0x0000000008012960                WWDG_SetPrescaler
 *fill*         0x0000000008012974        0xc 
 .text.WWDG_SetWindowValue
                0x0000000008012980       0x28 build/obj/stm32f4xx_wwdg.o
                0x0000000008012980                WWDG_SetWindowValue
 *fill*         0x00000000080129a8        0x8 
 .text.WWDG_SetCounter
                0x00000000080129b0       0x10 build/obj/stm32f4xx_wwdg.o
                0x00000000080129b0                WWDG_SetCounter
 .text.WWDG_Enable
                0x00000000080129c0       0x10 build/obj/stm32f4xx_wwdg.o
                0x00000000080129c0                WWDG_Enable
 .text.startup.main
                0x00000000080129d0       0x10 build/obj/main.o
                0x00000000080129d0                main
 .text.cosf     0x00000000080129e0       0x78 /Users/imac/Downloads/gcc-arm-none-eabi-4_9-2015q2/bin/../lib/gcc/arm-none-eabi/4.9.3/../../../../arm-none-eabi/lib/armv7e-m/fpu/libm.a(lib_a-sf_cos.o)
                0x00000000080129e0                cosf
 *fill*         0x0000000008012a58        0x8 
 .text.sinf     0x0000000008012a60       0x7c /Users/imac/Downloads/gcc-arm-none-eabi-4_9-2015q2/bin/../lib/gcc/arm-none-eabi/4.9.3/../../../../arm-none-eabi/lib/armv7e-m/fpu/libm.a(lib_a-sf_sin.o)
                0x0000000008012a60                sinf
 *fill*         0x0000000008012adc        0x4 
 .text.sqrtf    0x0000000008012ae0       0xb8 /Users/imac/Downloads/gcc-arm-none-eabi-4_9-2015q2/bin/../lib/gcc/arm-none-eabi/4.9.3/../../../../arm-none-eabi/lib/armv7e-m/fpu/libm.a(lib_a-wf_sqrt.o)
                0x0000000008012ae0                sqrtf
 *fill*         0x0000000008012b98        0x8 
 .text.__ieee754_rem_pio2f
                0x0000000008012ba0      0x290 /Users/imac/Downloads/gcc-arm-none-eabi-4_9-2015q2/bin/../lib/gcc/arm-none-eabi/4.9.3/../../../../arm-none-eabi/lib/armv7e-m/fpu/libm.a(lib_a-ef_rem_pio2.o)
                0x0000000008012ba0                __ieee754_rem_pio2f
 .text.__ieee754_sqrtf
                0x0000000008012e30       0xa4 /Users/imac/Downloads/gcc-arm-none-eabi-4_9-2015q2/bin/../lib/gcc/arm-none-eabi/4.9.3/../../../../arm-none-eabi/lib/armv7e-m/fpu/libm.a(lib_a-ef_sqrt.o)
                0x0000000008012e30                __ieee754_sqrtf
 *fill*         0x0000000008012ed4        0xc 
 .text.__kernel_cosf
                0x0000000008012ee0      0x104 /Users/imac/Downloads/gcc-arm-none-eabi-4_9-2015q2/bin/../lib/gcc/arm-none-eabi/4.9.3/../../../../arm-none-eabi/lib/armv7e-m/fpu/libm.a(lib_a-kf_cos.o)
                0x0000000008012ee0                __kernel_cosf
 *fill*         0x0000000008012fe4        0xc 
 .text.__kernel_rem_pio2f
                0x0000000008012ff0      0x5e4 /Users/imac/Downloads/gcc-arm-none-eabi-4_9-2015q2/bin/../lib/gcc/arm-none-eabi/4.9.3/../../../../arm-none-eabi/lib/armv7e-m/fpu/libm.a(lib_a-kf_rem_pio2.o)
                0x0000000008012ff0                __kernel_rem_pio2f
 *fill*         0x00000000080135d4        0xc 
 .text.__kernel_sinf
                0x00000000080135e0       0x90 /Users/imac/Downloads/gcc-arm-none-eabi-4_9-2015q2/bin/../lib/gcc/arm-none-eabi/4.9.3/../../../../arm-none-eabi/lib/armv7e-m/fpu/libm.a(lib_a-kf_sin.o)
                0x00000000080135e0                __kernel_sinf
 .text.matherr  0x0000000008013670        0x4 /Users/imac/Downloads/gcc-arm-none-eabi-4_9-2015q2/bin/../lib/gcc/arm-none-eabi/4.9.3/../../../../arm-none-eabi/lib/armv7e-m/fpu/libm.a(lib_a-s_matherr.o)
                0x0000000008013670                matherr
 *fill*         0x0000000008013674        0xc 
 .text.fabsf    0x0000000008013680       0x10 /Users/imac/Downloads/gcc-arm-none-eabi-4_9-2015q2/bin/../lib/gcc/arm-none-eabi/4.9.3/../../../../arm-none-eabi/lib/armv7e-m/fpu/libm.a(lib_a-sf_fabs.o)
                0x0000000008013680                fabsf
 .text.floorf   0x0000000008013690       0x90 /Users/imac/Downloads/gcc-arm-none-eabi-4_9-2015q2/bin/../lib/gcc/arm-none-eabi/4.9.3/../../../../arm-none-eabi/lib/armv7e-m/fpu/libm.a(lib_a-sf_floor.o)
                0x0000000008013690                floorf
 .text.__fpclassifyf
                0x0000000008013720       0x38 /Users/imac/Downloads/gcc-arm-none-eabi-4_9-2015q2/bin/../lib/gcc/arm-none-eabi/4.9.3/../../../../arm-none-eabi/lib/armv7e-m/fpu/libm.a(lib_a-sf_fpclassify.o)
                0x0000000008013720                __fpclassifyf
 *fill*         0x0000000008013758        0x8 
 .text.scalbnf  0x0000000008013760       0xd0 /Users/imac/Downloads/gcc-arm-none-eabi-4_9-2015q2/bin/../lib/gcc/arm-none-eabi/4.9.3/../../../../arm-none-eabi/lib/armv7e-m/fpu/libm.a(lib_a-sf_scalbn.o)
                0x0000000008013760                scalbnf
 .text.copysignf
                0x0000000008013830       0x18 /Users/imac/Downloads/gcc-arm-none-eabi-4_9-2015q2/bin/../lib/gcc/arm-none-eabi/4.9.3/../../../../arm-none-eabi/lib/armv7e-m/fpu/libm.a(lib_a-sf_copysign.o)
                0x0000000008013830                copysignf
 *fill*         0x0000000008013848        0x8 
 .text.__errno  0x0000000008013850        0xc /Users/imac/Downloads/gcc-arm-none-eabi-4_9-2015q2/bin/../lib/gcc/arm-none-eabi/4.9.3/../../../../arm-none-eabi/lib/armv7e-m/fpu/libg.a(lib_a-errno.o)
                0x0000000008013850                __errno
 *fill*         0x000000000801385c        0x4 
 .text.memset   0x0000000008013860       0x9c /Users/imac/Downloads/gcc-arm-none-eabi-4_9-2015q2/bin/../lib/gcc/arm-none-eabi/4.9.3/../../../../arm-none-eabi/lib/armv7e-m/fpu/libg.a(lib_a-memset.o)
                0x0000000008013860                memset
 *fill*         0x00000000080138fc        0x4 
 .text._vsnprintf_r
                0x0000000008013900       0x74 /Users/imac/Downloads/gcc-arm-none-eabi-4_9-2015q2/bin/../lib/gcc/arm-none-eabi/4.9.3/../../../../arm-none-eabi/lib/armv7e-m/fpu/libg.a(lib_a-vsnprintf.o)
                0x0000000008013900                _vsnprintf_r
 *fill*         0x0000000008013974        0xc 
 .text.vsnprintf
                0x0000000008013980       0x20 /Users/imac/Downloads/gcc-arm-none-eabi-4_9-2015q2/bin/../lib/gcc/arm-none-eabi/4.9.3/../../../../arm-none-eabi/lib/armv7e-m/fpu/libg.a(lib_a-vsnprintf.o)
                0x0000000008013980                vsnprintf
 .text._svfprintf_r
                0x00000000080139a0     0x14cc /Users/imac/Downloads/gcc-arm-none-eabi-4_9-2015q2/bin/../lib/gcc/arm-none-eabi/4.9.3/../../../../arm-none-eabi/lib/armv7e-m/fpu/libg.a(lib_a-svfprintf.o)
                0x00000000080139a0                _svfprintf_r
 *fill*         0x0000000008014e6c        0x4 
 .text.quorem   0x0000000008014e70      0x12c /Users/imac/Downloads/gcc-arm-none-eabi-4_9-2015q2/bin/../lib/gcc/arm-none-eabi/4.9.3/../../../../arm-none-eabi/lib/armv7e-m/fpu/libg.a(lib_a-dtoa.o)
 *fill*         0x0000000008014f9c        0x4 
 .text._dtoa_r  0x0000000008014fa0      0xea4 /Users/imac/Downloads/gcc-arm-none-eabi-4_9-2015q2/bin/../lib/gcc/arm-none-eabi/4.9.3/../../../../arm-none-eabi/lib/armv7e-m/fpu/libg.a(lib_a-dtoa.o)
                0x0000000008014fa0                _dtoa_r
 *fill*         0x0000000008015e44        0xc 
 .text._localeconv_r
                0x0000000008015e50        0x8 /Users/imac/Downloads/gcc-arm-none-eabi-4_9-2015q2/bin/../lib/gcc/arm-none-eabi/4.9.3/../../../../arm-none-eabi/lib/armv7e-m/fpu/libg.a(lib_a-locale.o)
                0x0000000008015e50                _localeconv_r
 *fill*         0x0000000008015e58        0x8 
 .text._malloc_r
                0x0000000008015e60      0x524 /Users/imac/Downloads/gcc-arm-none-eabi-4_9-2015q2/bin/../lib/gcc/arm-none-eabi/4.9.3/../../../../arm-none-eabi/lib/armv7e-m/fpu/libg.a(lib_a-mallocr.o)
                0x0000000008015e60                _malloc_r
 *fill*         0x0000000008016384        0xc 
 .text.memchr   0x0000000008016390       0x94 /Users/imac/Downloads/gcc-arm-none-eabi-4_9-2015q2/bin/../lib/gcc/arm-none-eabi/4.9.3/../../../../arm-none-eabi/lib/armv7e-m/fpu/libg.a(lib_a-memchr.o)
                0x0000000008016390                memchr
 *fill*         0x0000000008016424        0xc 
 .text.__malloc_lock
                0x0000000008016430        0x4 /Users/imac/Downloads/gcc-arm-none-eabi-4_9-2015q2/bin/../lib/gcc/arm-none-eabi/4.9.3/../../../../arm-none-eabi/lib/armv7e-m/fpu/libg.a(lib_a-mlock.o)
                0x0000000008016430                __malloc_lock
 *fill*         0x0000000008016434        0xc 
 .text.__malloc_unlock
                0x0000000008016440        0x4 /Users/imac/Downloads/gcc-arm-none-eabi-4_9-2015q2/bin/../lib/gcc/arm-none-eabi/4.9.3/../../../../arm-none-eabi/lib/armv7e-m/fpu/libg.a(lib_a-mlock.o)
                0x0000000008016440                __malloc_unlock
 *fill*         0x0000000008016444        0xc 
 .text._Balloc  0x0000000008016450       0x4c /Users/imac/Downloads/gcc-arm-none-eabi-4_9-2015q2/bin/../lib/gcc/arm-none-eabi/4.9.3/../../../../arm-none-eabi/lib/armv7e-m/fpu/libg.a(lib_a-mprec.o)
                0x0000000008016450                _Balloc
 *fill*         0x000000000801649c        0x4 
 .text._Bfree   0x00000000080164a0       0x14 /Users/imac/Downloads/gcc-arm-none-eabi-4_9-2015q2/bin/../lib/gcc/arm-none-eabi/4.9.3/../../../../arm-none-eabi/lib/armv7e-m/fpu/libg.a(lib_a-mprec.o)
                0x00000000080164a0                _Bfree
 *fill*         0x00000000080164b4        0xc 
 .text.__multadd
                0x00000000080164c0       0x84 /Users/imac/Downloads/gcc-arm-none-eabi-4_9-2015q2/bin/../lib/gcc/arm-none-eabi/4.9.3/../../../../arm-none-eabi/lib/armv7e-m/fpu/libg.a(lib_a-mprec.o)
                0x00000000080164c0                __multadd
 *fill*         0x0000000008016544        0xc 
 .text.__hi0bits
                0x0000000008016550       0x40 /Users/imac/Downloads/gcc-arm-none-eabi-4_9-2015q2/bin/../lib/gcc/arm-none-eabi/4.9.3/../../../../arm-none-eabi/lib/armv7e-m/fpu/libg.a(lib_a-mprec.o)
                0x0000000008016550                __hi0bits
 .text.__lo0bits
                0x0000000008016590       0x5c /Users/imac/Downloads/gcc-arm-none-eabi-4_9-2015q2/bin/../lib/gcc/arm-none-eabi/4.9.3/../../../../arm-none-eabi/lib/armv7e-m/fpu/libg.a(lib_a-mprec.o)
                0x0000000008016590                __lo0bits
 *fill*         0x00000000080165ec        0x4 
 .text.__i2b    0x00000000080165f0       0x14 /Users/imac/Downloads/gcc-arm-none-eabi-4_9-2015q2/bin/../lib/gcc/arm-none-eabi/4.9.3/../../../../arm-none-eabi/lib/armv7e-m/fpu/libg.a(lib_a-mprec.o)
                0x00000000080165f0                __i2b
 *fill*         0x0000000008016604        0xc 
 .text.__multiply
                0x0000000008016610      0x134 /Users/imac/Downloads/gcc-arm-none-eabi-4_9-2015q2/bin/../lib/gcc/arm-none-eabi/4.9.3/../../../../arm-none-eabi/lib/armv7e-m/fpu/libg.a(lib_a-mprec.o)
                0x0000000008016610                __multiply
 *fill*         0x0000000008016744        0xc 
 .text.__pow5mult
                0x0000000008016750       0xa0 /Users/imac/Downloads/gcc-arm-none-eabi-4_9-2015q2/bin/../lib/gcc/arm-none-eabi/4.9.3/../../../../arm-none-eabi/lib/armv7e-m/fpu/libg.a(lib_a-mprec.o)
                0x0000000008016750                __pow5mult
 .text.__lshift
                0x00000000080167f0       0xac /Users/imac/Downloads/gcc-arm-none-eabi-4_9-2015q2/bin/../lib/gcc/arm-none-eabi/4.9.3/../../../../arm-none-eabi/lib/armv7e-m/fpu/libg.a(lib_a-mprec.o)
                0x00000000080167f0                __lshift
 *fill*         0x000000000801689c        0x4 
 .text.__mcmp   0x00000000080168a0       0x48 /Users/imac/Downloads/gcc-arm-none-eabi-4_9-2015q2/bin/../lib/gcc/arm-none-eabi/4.9.3/../../../../arm-none-eabi/lib/armv7e-m/fpu/libg.a(lib_a-mprec.o)
                0x00000000080168a0                __mcmp
 *fill*         0x00000000080168e8        0x8 
 .text.__mdiff  0x00000000080168f0       0xd4 /Users/imac/Downloads/gcc-arm-none-eabi-4_9-2015q2/bin/../lib/gcc/arm-none-eabi/4.9.3/../../../../arm-none-eabi/lib/armv7e-m/fpu/libg.a(lib_a-mprec.o)
                0x00000000080168f0                __mdiff
 *fill*         0x00000000080169c4        0xc 
 .text.__d2b    0x00000000080169d0       0xbc /Users/imac/Downloads/gcc-arm-none-eabi-4_9-2015q2/bin/../lib/gcc/arm-none-eabi/4.9.3/../../../../arm-none-eabi/lib/armv7e-m/fpu/libg.a(lib_a-mprec.o)
                0x00000000080169d0                __d2b
 *fill*         0x0000000008016a8c        0x4 
 .text.__fpclassifyd
                0x0000000008016a90       0x5c /Users/imac/Downloads/gcc-arm-none-eabi-4_9-2015q2/bin/../lib/gcc/arm-none-eabi/4.9.3/../../../../arm-none-eabi/lib/armv7e-m/fpu/libg.a(lib_a-s_fpclassify.o)
                0x0000000008016a90                __fpclassifyd
 *fill*         0x0000000008016aec        0x4 
 .text.strlen   0x0000000008016af0       0x5c /Users/imac/Downloads/gcc-arm-none-eabi-4_9-2015q2/bin/../lib/gcc/arm-none-eabi/4.9.3/../../../../arm-none-eabi/lib/armv7e-m/fpu/libg.a(lib_a-strlen.o)
                0x0000000008016af0                strlen
 *fill*         0x0000000008016b4c        0x4 
 .text.__ssprint_r
                0x0000000008016b50      0x104 /Users/imac/Downloads/gcc-arm-none-eabi-4_9-2015q2/bin/../lib/gcc/arm-none-eabi/4.9.3/../../../../arm-none-eabi/lib/armv7e-m/fpu/libg.a(lib_a-svfiprintf.o)
                0x0000000008016b50                __ssprint_r
 *fill*         0x0000000008016c54        0xc 
 .text._calloc_r
                0x0000000008016c60       0x60 /Users/imac/Downloads/gcc-arm-none-eabi-4_9-2015q2/bin/../lib/gcc/arm-none-eabi/4.9.3/../../../../arm-none-eabi/lib/armv7e-m/fpu/libg.a(lib_a-callocr.o)
                0x0000000008016c60                _calloc_r
 .text._malloc_trim_r
                0x0000000008016cc0       0x9c /Users/imac/Downloads/gcc-arm-none-eabi-4_9-2015q2/bin/../lib/gcc/arm-none-eabi/4.9.3/../../../../arm-none-eabi/lib/armv7e-m/fpu/libg.a(lib_a-freer.o)
                0x0000000008016cc0                _malloc_trim_r
 *fill*         0x0000000008016d5c        0x4 
 .text._free_r  0x0000000008016d60      0x1b0 /Users/imac/Downloads/gcc-arm-none-eabi-4_9-2015q2/bin/../lib/gcc/arm-none-eabi/4.9.3/../../../../arm-none-eabi/lib/armv7e-m/fpu/libg.a(lib_a-freer.o)
                0x0000000008016d60                _free_r
 .text.memmove  0x0000000008016f10       0xc8 /Users/imac/Downloads/gcc-arm-none-eabi-4_9-2015q2/bin/../lib/gcc/arm-none-eabi/4.9.3/../../../../arm-none-eabi/lib/armv7e-m/fpu/libg.a(lib_a-memmove.o)
                0x0000000008016f10                memmove
 *fill*         0x0000000008016fd8        0x8 
 .text._realloc_r
                0x0000000008016fe0      0x3ec /Users/imac/Downloads/gcc-arm-none-eabi-4_9-2015q2/bin/../lib/gcc/arm-none-eabi/4.9.3/../../../../arm-none-eabi/lib/armv7e-m/fpu/libg.a(lib_a-reallocr.o)
                0x0000000008016fe0                _realloc_r
 *(.rodata)
 *(.rodata.*)
 *fill*         0x00000000080173cc        0x4 
 .rodata.str1.4
                0x00000000080173d0        0x5 build/obj/chsys.o
 *fill*         0x00000000080173d5        0xb 
 .rodata.ch_debug
                0x00000000080173e0       0x16 build/obj/chregistry.o
                0x00000000080173e0                ch_debug
 *fill*         0x00000000080173f6        0xa 
 .rodata.vmt    0x0000000008017400       0x20 build/obj/serial_usb.o
 .rodata.zero_status
                0x0000000008017420        0x2 build/obj/usb.o
 *fill*         0x0000000008017422        0xe 
 .rodata.active_status
                0x0000000008017430        0x2 build/obj/usb.o
 *fill*         0x0000000008017432        0xe 
 .rodata.halted_status
                0x0000000008017440        0x2 build/obj/usb.o
 *fill*         0x0000000008017442        0xe 
 .rodata._stm32_dma_streams
                0x0000000008017450       0xc0 build/obj/stm32_dma.o
                0x0000000008017450                _stm32_dma_streams
 .rodata.fsparams
                0x0000000008017510        0xc build/obj/usb_lld.o
 *fill*         0x000000000801751c        0x4 
 .rodata.str1.4
                0x0000000008017520        0xd build/obj/usb_lld.o
 *fill*         0x000000000801752d        0x3 
 .rodata.ep0config
                0x0000000008017530       0x24 build/obj/usb_lld.o
 *fill*         0x0000000008017554        0xc 
 .rodata.pal_default_config
                0x0000000008017560       0xfc build/obj/board.o
                0x0000000008017560                pal_default_config
 *fill*         0x000000000801765c        0x4 
 .rodata.str1.4
                0x0000000008017660       0x2e build/obj/bldc.o
 *fill*         0x000000000801768e        0x2 
 .rodata.str1.4
                0x0000000008017690       0xc7 build/obj/mcpwm.o
 *fill*         0x0000000008017757        0x9 
 .rodata.ep1config
                0x0000000008017760       0x24 build/obj/usb_uart.o
 *fill*         0x0000000008017784        0xc 
 .rodata.vcom_configuration_descriptor
                0x0000000008017790        0x8 build/obj/usb_uart.o
 *fill*         0x0000000008017798        0x8 
 .rodata.ep2config
                0x00000000080177a0       0x24 build/obj/usb_uart.o
 *fill*         0x00000000080177c4        0xc 
 .rodata.usbcfg
                0x00000000080177d0       0x10 build/obj/usb_uart.o
 .rodata.vcom_configuration_descriptor_data
                0x00000000080177e0       0x43 build/obj/usb_uart.o
 *fill*         0x0000000008017823        0xd 
 .rodata.vcom_device_descriptor_data
                0x0000000008017830       0x12 build/obj/usb_uart.o
 *fill*         0x0000000008017842        0xe 
 .rodata.vcom_string0
                0x0000000008017850        0x4 build/obj/usb_uart.o
 *fill*         0x0000000008017854        0xc 
 .rodata.vcom_string1
                0x0000000008017860       0x26 build/obj/usb_uart.o
 *fill*         0x0000000008017886        0xa 
 .rodata.vcom_string2
                0x0000000008017890       0x38 build/obj/usb_uart.o
 *fill*         0x00000000080178c8        0x8 
 .rodata.vcom_string3
                0x00000000080178d0        0x8 build/obj/usb_uart.o
 *fill*         0x00000000080178d8        0x8 
 .rodata.vcom_strings
                0x00000000080178e0       0x20 build/obj/usb_uart.o
 .rodata.serusbcfg
                0x0000000008017900        0x8 build/obj/usb_uart.o
                0x0000000008017900                serusbcfg
 *fill*         0x0000000008017908        0x8 
 .rodata.vcom_device_descriptor
                0x0000000008017910        0x8 build/obj/usb_uart.o
 *fill*         0x0000000008017918        0x8 
 .rodata.flash_sector
                0x0000000008017920       0x18 build/obj/flash_helper.o
 *fill*         0x0000000008017938        0x8 
 .rodata.flash_addr
                0x0000000008017940       0x30 build/obj/flash_helper.o
 .rodata.str1.4
                0x0000000008017970        0x6 /Users/imac/Downloads/gcc-arm-none-eabi-4_9-2015q2/bin/../lib/gcc/arm-none-eabi/4.9.3/../../../../arm-none-eabi/lib/armv7e-m/fpu/libm.a(lib_a-wf_sqrt.o)
 *fill*         0x0000000008017976        0xa 
 .rodata.npio2_hw
                0x0000000008017980       0x80 /Users/imac/Downloads/gcc-arm-none-eabi-4_9-2015q2/bin/../lib/gcc/arm-none-eabi/4.9.3/../../../../arm-none-eabi/lib/armv7e-m/fpu/libm.a(lib_a-ef_rem_pio2.o)
 .rodata.two_over_pi
                0x0000000008017a00      0x318 /Users/imac/Downloads/gcc-arm-none-eabi-4_9-2015q2/bin/../lib/gcc/arm-none-eabi/4.9.3/../../../../arm-none-eabi/lib/armv7e-m/fpu/libm.a(lib_a-ef_rem_pio2.o)
 *fill*         0x0000000008017d18        0x8 
 .rodata.init_jk
                0x0000000008017d20        0xc /Users/imac/Downloads/gcc-arm-none-eabi-4_9-2015q2/bin/../lib/gcc/arm-none-eabi/4.9.3/../../../../arm-none-eabi/lib/armv7e-m/fpu/libm.a(lib_a-kf_rem_pio2.o)
 *fill*         0x0000000008017d2c        0x4 
 .rodata.PIo2   0x0000000008017d30       0x2c /Users/imac/Downloads/gcc-arm-none-eabi-4_9-2015q2/bin/../lib/gcc/arm-none-eabi/4.9.3/../../../../arm-none-eabi/lib/armv7e-m/fpu/libm.a(lib_a-kf_rem_pio2.o)
 *fill*         0x0000000008017d5c        0x4 
 .rodata.str1.4
                0x0000000008017d60        0x2 /Users/imac/Downloads/gcc-arm-none-eabi-4_9-2015q2/bin/../lib/gcc/arm-none-eabi/4.9.3/../../../../arm-none-eabi/lib/armv7e-m/fpu/libg.a(lib_a-impure.o)
 *fill*         0x0000000008017d62        0xe 
 .rodata.zeroes.6911
                0x0000000008017d70       0x10 /Users/imac/Downloads/gcc-arm-none-eabi-4_9-2015q2/bin/../lib/gcc/arm-none-eabi/4.9.3/../../../../arm-none-eabi/lib/armv7e-m/fpu/libg.a(lib_a-svfprintf.o)
 .rodata.blanks.6910
                0x0000000008017d80       0x10 /Users/imac/Downloads/gcc-arm-none-eabi-4_9-2015q2/bin/../lib/gcc/arm-none-eabi/4.9.3/../../../../arm-none-eabi/lib/armv7e-m/fpu/libg.a(lib_a-svfprintf.o)
 .rodata.str1.4
                0x0000000008017d90       0x42 /Users/imac/Downloads/gcc-arm-none-eabi-4_9-2015q2/bin/../lib/gcc/arm-none-eabi/4.9.3/../../../../arm-none-eabi/lib/armv7e-m/fpu/libg.a(lib_a-svfprintf.o)
 *fill*         0x0000000008017dd2        0xe 
 .rodata.str1.4
                0x0000000008017de0       0x10 /Users/imac/Downloads/gcc-arm-none-eabi-4_9-2015q2/bin/../lib/gcc/arm-none-eabi/4.9.3/../../../../arm-none-eabi/lib/armv7e-m/fpu/libg.a(lib_a-dtoa.o)
                                         0x12 (size before relaxing)
 .rodata.str1.4
                0x0000000008017df0        0xc /Users/imac/Downloads/gcc-arm-none-eabi-4_9-2015q2/bin/../lib/gcc/arm-none-eabi/4.9.3/../../../../arm-none-eabi/lib/armv7e-m/fpu/libg.a(lib_a-locale.o)
                                         0x12 (size before relaxing)
 *fill*         0x0000000008017dfc        0x4 
 .rodata.__mprec_tens
                0x0000000008017e00       0xc8 /Users/imac/Downloads/gcc-arm-none-eabi-4_9-2015q2/bin/../lib/gcc/arm-none-eabi/4.9.3/../../../../arm-none-eabi/lib/armv7e-m/fpu/libg.a(lib_a-mprec.o)
                0x0000000008017e00                __mprec_tens
 *fill*         0x0000000008017ec8        0x8 
 .rodata.p05.5302
                0x0000000008017ed0        0xc /Users/imac/Downloads/gcc-arm-none-eabi-4_9-2015q2/bin/../lib/gcc/arm-none-eabi/4.9.3/../../../../arm-none-eabi/lib/armv7e-m/fpu/libg.a(lib_a-mprec.o)
 *fill*         0x0000000008017edc        0x4 
 .rodata.__mprec_bigtens
                0x0000000008017ee0       0x28 /Users/imac/Downloads/gcc-arm-none-eabi-4_9-2015q2/bin/../lib/gcc/arm-none-eabi/4.9.3/../../../../arm-none-eabi/lib/armv7e-m/fpu/libg.a(lib_a-mprec.o)
                0x0000000008017ee0                __mprec_bigtens
 *(.glue_7t)
 .glue_7t       0x0000000000000000        0x0 linker stubs
 *(.glue_7)
 .glue_7        0x0000000000000000        0x0 linker stubs
 *(.gcc*)

.vfp11_veneer   0x0000000008017f08        0x0
 .vfp11_veneer  0x0000000000000000        0x0 linker stubs

.v4_bx          0x0000000008017f08        0x0
 .v4_bx         0x0000000000000000        0x0 linker stubs

.iplt           0x0000000008017f08        0x0
 .iplt          0x0000000000000000        0x0 build/obj/crt0_v7m.o

.ARM.extab
 *(.ARM.extab* .gnu.linkonce.armextab.*)

.ARM.exidx      0x0000000008017f08        0x8
                0x0000000008017f08                PROVIDE (__exidx_start, .)
 *(.ARM.exidx* .gnu.linkonce.armexidx.*)
 .ARM.exidx     0x0000000008017f08        0x8 /Users/imac/Downloads/gcc-arm-none-eabi-4_9-2015q2/bin/../lib/gcc/arm-none-eabi/4.9.3/armv7e-m/fpu/libgcc.a(_divdi3.o)
 .ARM.exidx     0x0000000008017f10        0x0 /Users/imac/Downloads/gcc-arm-none-eabi-4_9-2015q2/bin/../lib/gcc/arm-none-eabi/4.9.3/armv7e-m/fpu/libgcc.a(_udivdi3.o)
                                          0x8 (size before relaxing)
                0x0000000008017f10                PROVIDE (__exidx_end, .)

.rel.dyn        0x0000000008017f10        0x0
 .rel.iplt      0x0000000000000000        0x0 build/obj/crt0_v7m.o

.eh_frame_hdr
 *(.eh_frame_hdr)

.eh_frame
 *(.eh_frame)

.textalign      0x0000000008017f10        0x0
                0x0000000008017f10                . = ALIGN (0x8)
                0x0000000008017f10                . = ALIGN (0x4)
                0x0000000008017f10                _etext = .
                0x0000000008017f10                _textdata = _etext

.mstack         0x0000000020000000      0x400
                0x0000000020000000                . = ALIGN (0x8)
                0x0000000020000000                __main_stack_base__ = .
                0x0000000020000400                . = (. + __main_stack_size__)
 *fill*         0x0000000020000000      0x400 
                0x0000000020000400                . = ALIGN (0x8)
                0x0000000020000400                __main_stack_end__ = .

.pstack         0x0000000020000400      0x400
                0x0000000020000400                __process_stack_base__ = .
                0x0000000020000400                __main_thread_stack_base__ = .
                0x0000000020000800                . = (. + __process_stack_size__)
 *fill*         0x0000000020000400      0x400 
                0x0000000020000800                . = ALIGN (0x8)
                0x0000000020000800                __process_stack_end__ = .
                0x0000000020000800                __main_thread_stack_end__ = .

.data           0x0000000020000800      0x88c load address 0x0000000008017f10
                0x0000000020000800                . = ALIGN (0x4)
                0x0000000020000800                PROVIDE (_data, .)
 *(.data)
 *(.data.*)
 .data.linecoding
                0x0000000020000800        0x7 build/obj/serial_usb.o
 *fill*         0x0000000020000807        0x1 
 .data.qVelRef  0x0000000020000808        0x4 build/obj/bldc.o
                0x0000000020000808                qVelRef
 .data.switching_frequency_now
                0x000000002000080c        0x4 build/obj/mcpwm.o
                0x000000002000080c                switching_frequency_now
 .data.__fdlib_version
                0x0000000020000810        0x1 /Users/imac/Downloads/gcc-arm-none-eabi-4_9-2015q2/bin/../lib/gcc/arm-none-eabi/4.9.3/../../../../arm-none-eabi/lib/armv7e-m/fpu/libm.a(lib_a-s_lib_ver.o)
                0x0000000020000810                __fdlib_version
 *fill*         0x0000000020000811        0x7 
 .data.impure_data
                0x0000000020000818      0x428 /Users/imac/Downloads/gcc-arm-none-eabi-4_9-2015q2/bin/../lib/gcc/arm-none-eabi/4.9.3/../../../../arm-none-eabi/lib/armv7e-m/fpu/libg.a(lib_a-impure.o)
 .data._impure_ptr
                0x0000000020000c40        0x4 /Users/imac/Downloads/gcc-arm-none-eabi-4_9-2015q2/bin/../lib/gcc/arm-none-eabi/4.9.3/../../../../arm-none-eabi/lib/armv7e-m/fpu/libg.a(lib_a-impure.o)
                0x0000000020000c40                _impure_ptr
 .data.lconv    0x0000000020000c44       0x38 /Users/imac/Downloads/gcc-arm-none-eabi-4_9-2015q2/bin/../lib/gcc/arm-none-eabi/4.9.3/../../../../arm-none-eabi/lib/armv7e-m/fpu/libg.a(lib_a-locale.o)
 .data.__malloc_av_
                0x0000000020000c7c      0x408 /Users/imac/Downloads/gcc-arm-none-eabi-4_9-2015q2/bin/../lib/gcc/arm-none-eabi/4.9.3/../../../../arm-none-eabi/lib/armv7e-m/fpu/libg.a(lib_a-mallocr.o)
                0x0000000020000c7c                __malloc_av_
 .data.__malloc_trim_threshold
                0x0000000020001084        0x4 /Users/imac/Downloads/gcc-arm-none-eabi-4_9-2015q2/bin/../lib/gcc/arm-none-eabi/4.9.3/../../../../arm-none-eabi/lib/armv7e-m/fpu/libg.a(lib_a-mallocr.o)
                0x0000000020001084                __malloc_trim_threshold
 .data.__malloc_sbrk_base
                0x0000000020001088        0x4 /Users/imac/Downloads/gcc-arm-none-eabi-4_9-2015q2/bin/../lib/gcc/arm-none-eabi/4.9.3/../../../../arm-none-eabi/lib/armv7e-m/fpu/libg.a(lib_a-mallocr.o)
                0x0000000020001088                __malloc_sbrk_base
 *(.ramtext)
                0x000000002000108c                . = ALIGN (0x4)
                0x000000002000108c                PROVIDE (_edata, .)

.igot.plt       0x000000002000108c        0x0 load address 0x000000000801879c
 .igot.plt      0x0000000000000000        0x0 build/obj/crt0_v7m.o

.bss            0x0000000020001090     0x1f18 load address 0x000000000801879c
                0x0000000020001090                . = ALIGN (0x4)
                0x0000000020001090                PROVIDE (_bss_start, .)
 *(.bss)
 *(.bss.*)
 .bss.ch        0x0000000020001090      0x258 build/obj/chschd.o
                0x0000000020001090                ch
 .bss.endmem    0x00000000200012e8        0x4 build/obj/chmemcore.o
 .bss.nextmem   0x00000000200012ec        0x4 build/obj/chmemcore.o
 .bss.default_heap
                0x00000000200012f0       0x20 build/obj/chheap.o
 .bss.dma_isr_redir
                0x0000000020001310       0x80 build/obj/stm32_dma.o
 .bss.dma_streams_mask
                0x0000000020001390        0x4 build/obj/stm32_dma.o
 .bss.CAND1     0x0000000020001394       0x30 build/obj/can_lld.o
                0x0000000020001394                CAND1
 .bss.I2CD2     0x00000000200013c4       0x38 build/obj/i2c_lld.o
                0x00000000200013c4                I2CD2
 *fill*         0x00000000200013fc        0x4 
 .bss.USBD1     0x0000000020001400      0x280 build/obj/usb_lld.o
                0x0000000020001400                USBD1
 .bss.ep0_state
                0x0000000020001680       0x14 build/obj/usb_lld.o
 .bss.ep0setup_buffer
                0x0000000020001694        0x8 build/obj/usb_lld.o
 .bss.ICUD3     0x000000002000169c       0x18 build/obj/icu_lld.o
                0x000000002000169c                ICUD3
 .bss.UARTD3    0x00000000200016b4       0x1c build/obj/uart_lld.o
                0x00000000200016b4                UARTD3
 .bss.UARTD6    0x00000000200016d0       0x1c build/obj/uart_lld.o
                0x00000000200016d0                UARTD6
 .bss.Ch        0x00000000200016ec        0x1 build/obj/bldc.o
                0x00000000200016ec                Ch
 *fill*         0x00000000200016ed        0x1 
 .bss.dbg_AccumTheta
                0x00000000200016ee        0x2 build/obj/bldc.o
                0x00000000200016ee                dbg_AccumTheta
 .bss.dbg_fMea  0x00000000200016f0        0x4 build/obj/bldc.o
                0x00000000200016f0                dbg_fMea
 .bss.dbg_fTheta
                0x00000000200016f4        0x4 build/obj/bldc.o
                0x00000000200016f4                dbg_fTheta
 .bss.uart_thread_wa
                0x00000000200016f8      0x218 build/obj/bldc.o
 .bss.periodic_thread_wa
                0x0000000020001910      0x598 build/obj/bldc.o
 .bss.curr0_offset
                0x0000000020001ea8        0x4 build/obj/mcpwm.o
 .bss.ADC_Value
                0x0000000020001eac       0x18 build/obj/mcpwm.o
                0x0000000020001eac                ADC_Value
 .bss.Startup_Ramp
                0x0000000020001ec4        0x4 build/obj/mcpwm.o
                0x0000000020001ec4                Startup_Ramp
 .bss.PIParmD   0x0000000020001ec8       0x24 build/obj/mcpwm.o
                0x0000000020001ec8                PIParmD
 .bss.curr1_sum
                0x0000000020001eec        0x4 build/obj/mcpwm.o
 .bss.CtrlParm  0x0000000020001ef0        0xc build/obj/mcpwm.o
                0x0000000020001ef0                CtrlParm
 *fill*         0x0000000020001efc        0x4 
 .bss.SEQUENCE_thread_wa
                0x0000000020001f00      0x998 build/obj/mcpwm.o
 .bss.PIParmQ   0x0000000020002898       0x24 build/obj/mcpwm.o
                0x0000000020002898                PIParmQ
 .bss.uGF       0x00000000200028bc        0x4 build/obj/mcpwm.o
                0x00000000200028bc                uGF
 .bss.Hall_SinCos
                0x00000000200028c0        0x4 build/obj/mcpwm.o
                0x00000000200028c0                Hall_SinCos
 .bss.PIParmW   0x00000000200028c4       0x24 build/obj/mcpwm.o
                0x00000000200028c4                PIParmW
 .bss.curr_start_samples
                0x00000000200028e8        0x4 build/obj/mcpwm.o
 .bss.Hall_CosSin
                0x00000000200028ec        0x4 build/obj/mcpwm.o
                0x00000000200028ec                Hall_CosSin
 .bss.dccal_done
                0x00000000200028f0        0x1 build/obj/mcpwm.o
 *fill*         0x00000000200028f1        0x3 
 .bss.Hall_Err0
                0x00000000200028f4        0x4 build/obj/mcpwm.o
 .bss.Startup_Lock
                0x00000000200028f8        0x4 build/obj/mcpwm.o
                0x00000000200028f8                Startup_Lock
 .bss.AccumThetaCnt
                0x00000000200028fc        0x2 build/obj/mcpwm.o
                0x00000000200028fc                AccumThetaCnt
 *fill*         0x00000000200028fe        0x2 
 .bss.PIParmPLL
                0x0000000020002900       0x24 build/obj/mcpwm.o
                0x0000000020002900                PIParmPLL
 .bss.sinth     0x0000000020002924        0x4 build/obj/mcpwm.o
                0x0000000020002924                sinth
 .bss.qVdSquared
                0x0000000020002928        0x4 build/obj/mcpwm.o
 .bss.DCbus     0x000000002000292c        0x4 build/obj/mcpwm.o
 .bss.TargetDCbus
                0x0000000020002930        0x4 build/obj/mcpwm.o
 .bss.Theta     0x0000000020002934        0x4 build/obj/mcpwm.o
 .bss.smc1      0x0000000020002938       0x64 build/obj/mcpwm.o
                0x0000000020002938                smc1
 .bss.ParkParm  0x000000002000299c       0x40 build/obj/mcpwm.o
                0x000000002000299c                ParkParm
 .bss.costh     0x00000000200029dc        0x4 build/obj/mcpwm.o
                0x00000000200029dc                costh
 .bss.SVGenParm
                0x00000000200029e0       0x24 build/obj/mcpwm.o
                0x00000000200029e0                SVGenParm
 .bss.curr1_offset
                0x0000000020002a04        0x4 build/obj/mcpwm.o
 .bss.curr0_sum
                0x0000000020002a08        0x4 build/obj/mcpwm.o
 .bss.FdWeakParm
                0x0000000020002a0c       0x5c build/obj/mcpwm.o
                0x0000000020002a0c                FdWeakParm
 .bss.Hall_PIout
                0x0000000020002a68        0x4 build/obj/mcpwm.o
 .bss.fault_now
                0x0000000020002a6c        0x1 build/obj/mcpwm.o
 *fill*         0x0000000020002a6d        0x3 
 .bss.HallPLLA  0x0000000020002a70        0x4 build/obj/mcpwm.o
                0x0000000020002a70                HallPLLA
 .bss.HallPLLB  0x0000000020002a74        0x4 build/obj/mcpwm.o
                0x0000000020002a74                HallPLLB
 .bss.MeasCurrParm
                0x0000000020002a78       0x10 build/obj/mcpwm.o
 .bss.print_buffer.9327
                0x0000000020002a88       0xff build/obj/usb_uart.o
 *fill*         0x0000000020002b87        0x1 
 .bss.ep2instate
                0x0000000020002b88       0x14 build/obj/usb_uart.o
 .bss.SDU1      0x0000000020002b9c      0x258 build/obj/usb_uart.o
                0x0000000020002b9c                SDU1
 .bss.ep1instate
                0x0000000020002df4       0x14 build/obj/usb_uart.o
 .bss.ep1outstate
                0x0000000020002e08       0x14 build/obj/usb_uart.o
 .bss.send_mutex
                0x0000000020002e1c       0x10 build/obj/comm_usb.o
 .bss.sys_lock_cnt
                0x0000000020002e2c        0x4 build/obj/utils.o
 .bss.VirtAddVarTab
                0x0000000020002e30      0x140 build/obj/conf_general.o
                0x0000000020002e30                VirtAddVarTab
 .bss.DataVar   0x0000000020002f70        0x2 build/obj/eeprom.o
                0x0000000020002f70                DataVar
 *fill*         0x0000000020002f72        0x2 
 .bss.__malloc_max_total_mem
                0x0000000020002f74        0x4 /Users/imac/Downloads/gcc-arm-none-eabi-4_9-2015q2/bin/../lib/gcc/arm-none-eabi/4.9.3/../../../../arm-none-eabi/lib/armv7e-m/fpu/libg.a(lib_a-mallocr.o)
                0x0000000020002f74                __malloc_max_total_mem
 .bss.__malloc_max_sbrked_mem
                0x0000000020002f78        0x4 /Users/imac/Downloads/gcc-arm-none-eabi-4_9-2015q2/bin/../lib/gcc/arm-none-eabi/4.9.3/../../../../arm-none-eabi/lib/armv7e-m/fpu/libg.a(lib_a-mallocr.o)
                0x0000000020002f78                __malloc_max_sbrked_mem
 .bss.__malloc_top_pad
                0x0000000020002f7c        0x4 /Users/imac/Downloads/gcc-arm-none-eabi-4_9-2015q2/bin/../lib/gcc/arm-none-eabi/4.9.3/../../../../arm-none-eabi/lib/armv7e-m/fpu/libg.a(lib_a-mallocr.o)
                0x0000000020002f7c                __malloc_top_pad
 .bss.__malloc_current_mallinfo
                0x0000000020002f80       0x28 /Users/imac/Downloads/gcc-arm-none-eabi-4_9-2015q2/bin/../lib/gcc/arm-none-eabi/4.9.3/../../../../arm-none-eabi/lib/armv7e-m/fpu/libg.a(lib_a-mallocr.o)
                0x0000000020002f80                __malloc_current_mallinfo
 *(COMMON)
                0x0000000020002fa8                . = ALIGN (0x4)
                0x0000000020002fa8                PROVIDE (_bss_end, .)
                0x0000000020002fa8                PROVIDE (end, .)

.ram0           0x0000000020002fa8        0x0 load address 0x000000000801879c
                0x0000000020002fa8                . = ALIGN (0x4)
 *(.ram0)
 *(.ram0.*)
                0x0000000020002fa8                . = ALIGN (0x4)
                0x0000000020002fa8                __ram0_free__ = .

.ram1           0x0000000020000000        0x0
                0x0000000020000000                . = ALIGN (0x4)
 *(.ram1)
 *(.ram1.*)
                0x0000000020000000                . = ALIGN (0x4)
                0x0000000020000000                __ram1_free__ = .

.ram2           0x000000002001c000        0x0
                0x000000002001c000                . = ALIGN (0x4)
 *(.ram2)
 *(.ram2.*)
                0x000000002001c000                . = ALIGN (0x4)
                0x000000002001c000                __ram2_free__ = .

.ram3           0x0000000000000000        0x0
                0x0000000000000000                . = ALIGN (0x4)
 *(.ram3)
 *(.ram3.*)
                0x0000000000000000                . = ALIGN (0x4)
                0x0000000000000000                __ram3_free__ = .

.ram4           0x0000000010000000        0x0
                0x0000000010000000                . = ALIGN (0x4)
 *(.ram4)
 *(.ram4.*)
                0x0000000010000000                . = ALIGN (0x4)
                0x0000000010000000                __ram4_free__ = .

.ram5           0x0000000040024000        0x0
                0x0000000040024000                . = ALIGN (0x4)
 *(.ram5)
 *(.ram5.*)
                0x0000000040024000                . = ALIGN (0x4)
                0x0000000040024000                __ram5_free__ = .

.ram6           0x0000000000000000        0x0
                0x0000000000000000                . = ALIGN (0x4)
 *(.ram6)
 *(.ram6.*)
                0x0000000000000000                . = ALIGN (0x4)
                0x0000000000000000                __ram6_free__ = .

.ram7           0x0000000000000000        0x0
                0x0000000000000000                . = ALIGN (0x4)
 *(.ram7)
 *(.ram7.*)
                0x0000000000000000                . = ALIGN (0x4)
                0x0000000000000000                __ram7_free__ = .
                0x0000000020002fa8                __heap_base__ = __ram0_free__
                0x0000000020020000                __heap_end__ = __ram0_end__
                0x0000000000000400                __process_stack_size__ = 0x400
                0x0000000000000400                __main_stack_size__ = 0x400
LOAD /Users/imac/Downloads/gcc-arm-none-eabi-4_9-2015q2/bin/../lib/gcc/arm-none-eabi/4.9.3/../../../../arm-none-eabi/lib/armv7e-m/fpu/libstdc++.a
LOAD /Users/imac/Downloads/gcc-arm-none-eabi-4_9-2015q2/bin/../lib/gcc/arm-none-eabi/4.9.3/../../../../arm-none-eabi/lib/armv7e-m/fpu/libm.a
START GROUP
LOAD /Users/imac/Downloads/gcc-arm-none-eabi-4_9-2015q2/bin/../lib/gcc/arm-none-eabi/4.9.3/armv7e-m/fpu/libgcc.a
LOAD /Users/imac/Downloads/gcc-arm-none-eabi-4_9-2015q2/bin/../lib/gcc/arm-none-eabi/4.9.3/../../../../arm-none-eabi/lib/armv7e-m/fpu/libg.a
LOAD /Users/imac/Downloads/gcc-arm-none-eabi-4_9-2015q2/bin/../lib/gcc/arm-none-eabi/4.9.3/../../../../arm-none-eabi/lib/armv7e-m/fpu/libc.a
END GROUP
OUTPUT(build/oroca_bldc.elf elf32-littlearm)

.ARM.attributes
                0x0000000000000000       0x35
 .ARM.attributes
                0x0000000000000000       0x25 build/obj/crt0_v7m.o
 .ARM.attributes
                0x0000000000000025       0x25 build/obj/chcoreasm_v7m.o
 .ARM.attributes
                0x000000000000004a       0x39 build/obj/crt1.o
 .ARM.attributes
                0x0000000000000083       0x39 build/obj/vectors.o
 .ARM.attributes
                0x00000000000000bc       0x39 build/obj/chsys.o
 .ARM.attributes
                0x00000000000000f5       0x39 build/obj/chvt.o
 .ARM.attributes
                0x000000000000012e       0x39 build/obj/chschd.o
 .ARM.attributes
                0x0000000000000167       0x39 build/obj/chthreads.o
 .ARM.attributes
                0x00000000000001a0       0x39 build/obj/chtm.o
 .ARM.attributes
                0x00000000000001d9       0x39 build/obj/chregistry.o
 .ARM.attributes
                0x0000000000000212       0x39 build/obj/chmtx.o
 .ARM.attributes
                0x000000000000024b       0x39 build/obj/chevents.o
 .ARM.attributes
                0x0000000000000284       0x39 build/obj/chqueues.o
 .ARM.attributes
                0x00000000000002bd       0x39 build/obj/chmemcore.o
 .ARM.attributes
                0x00000000000002f6       0x39 build/obj/chheap.o
 .ARM.attributes
                0x000000000000032f       0x39 build/obj/chcore_v7m.o
 .ARM.attributes
                0x0000000000000368       0x39 build/obj/hal.o
 .ARM.attributes
                0x00000000000003a1       0x39 build/obj/st.o
 .ARM.attributes
                0x00000000000003da       0x39 build/obj/can.o
 .ARM.attributes
                0x0000000000000413       0x39 build/obj/i2c.o
 .ARM.attributes
                0x000000000000044c       0x39 build/obj/icu.o
 .ARM.attributes
                0x0000000000000485       0x39 build/obj/serial_usb.o
 .ARM.attributes
                0x00000000000004be       0x39 build/obj/uart.o
 .ARM.attributes
                0x00000000000004f7       0x39 build/obj/usb.o
 .ARM.attributes
                0x0000000000000530       0x39 build/obj/nvic.o
 .ARM.attributes
                0x0000000000000569       0x39 build/obj/stm32_dma.o
 .ARM.attributes
                0x00000000000005a2       0x39 build/obj/hal_lld.o
 .ARM.attributes
                0x00000000000005db       0x39 build/obj/st_lld.o
 .ARM.attributes
                0x0000000000000614       0x39 build/obj/can_lld.o
 .ARM.attributes
                0x000000000000064d       0x39 build/obj/pal_lld.o
 .ARM.attributes
                0x0000000000000686       0x39 build/obj/i2c_lld.o
 .ARM.attributes
                0x00000000000006bf       0x39 build/obj/usb_lld.o
 .ARM.attributes
                0x00000000000006f8       0x39 build/obj/icu_lld.o
 .ARM.attributes
                0x0000000000000731       0x39 build/obj/uart_lld.o
 .ARM.attributes
                0x000000000000076a       0x39 build/obj/board.o
 .ARM.attributes
                0x00000000000007a3       0x39 build/obj/syscalls.o
 .ARM.attributes
                0x00000000000007dc       0x39 build/obj/bldc.o
 .ARM.attributes
                0x0000000000000815       0x39 build/obj/mcpwm.o
 .ARM.attributes
                0x000000000000084e       0x39 build/obj/usb_uart.o
 .ARM.attributes
                0x0000000000000887       0x39 build/obj/irq_handlers.o
 .ARM.attributes
                0x00000000000008c0       0x39 build/obj/comm_usb.o
 .ARM.attributes
                0x00000000000008f9       0x39 build/obj/utils.o
 .ARM.attributes
                0x0000000000000932       0x39 build/obj/conf_general.o
 .ARM.attributes
                0x000000000000096b       0x39 build/obj/eeprom.o
 .ARM.attributes
                0x00000000000009a4       0x39 build/obj/flash_helper.o
 .ARM.attributes
                0x00000000000009dd       0x39 build/obj/hw_oroca.o
 .ARM.attributes
                0x0000000000000a16       0x39 build/obj/misc.o
 .ARM.attributes
                0x0000000000000a4f       0x39 build/obj/stm32f4xx_adc.o
 .ARM.attributes
                0x0000000000000a88       0x39 build/obj/stm32f4xx_dma.o
 .ARM.attributes
                0x0000000000000ac1       0x39 build/obj/stm32f4xx_exti.o
 .ARM.attributes
                0x0000000000000afa       0x39 build/obj/stm32f4xx_flash.o
 .ARM.attributes
                0x0000000000000b33       0x39 build/obj/stm32f4xx_rcc.o
 .ARM.attributes
                0x0000000000000b6c       0x39 build/obj/stm32f4xx_tim.o
 .ARM.attributes
                0x0000000000000ba5       0x39 build/obj/stm32f4xx_wwdg.o
 .ARM.attributes
                0x0000000000000bde       0x39 build/obj/main.o
 .ARM.attributes
                0x0000000000000c17       0x34 /Users/imac/Downloads/gcc-arm-none-eabi-4_9-2015q2/bin/../lib/gcc/arm-none-eabi/4.9.3/../../../../arm-none-eabi/lib/armv7e-m/fpu/libm.a(lib_a-sf_cos.o)
 .ARM.attributes
                0x0000000000000c4b       0x34 /Users/imac/Downloads/gcc-arm-none-eabi-4_9-2015q2/bin/../lib/gcc/arm-none-eabi/4.9.3/../../../../arm-none-eabi/lib/armv7e-m/fpu/libm.a(lib_a-sf_sin.o)
 .ARM.attributes
                0x0000000000000c7f       0x34 /Users/imac/Downloads/gcc-arm-none-eabi-4_9-2015q2/bin/../lib/gcc/arm-none-eabi/4.9.3/../../../../arm-none-eabi/lib/armv7e-m/fpu/libm.a(lib_a-wf_sqrt.o)
 .ARM.attributes
                0x0000000000000cb3       0x34 /Users/imac/Downloads/gcc-arm-none-eabi-4_9-2015q2/bin/../lib/gcc/arm-none-eabi/4.9.3/../../../../arm-none-eabi/lib/armv7e-m/fpu/libm.a(lib_a-ef_rem_pio2.o)
 .ARM.attributes
                0x0000000000000ce7       0x34 /Users/imac/Downloads/gcc-arm-none-eabi-4_9-2015q2/bin/../lib/gcc/arm-none-eabi/4.9.3/../../../../arm-none-eabi/lib/armv7e-m/fpu/libm.a(lib_a-ef_sqrt.o)
 .ARM.attributes
                0x0000000000000d1b       0x34 /Users/imac/Downloads/gcc-arm-none-eabi-4_9-2015q2/bin/../lib/gcc/arm-none-eabi/4.9.3/../../../../arm-none-eabi/lib/armv7e-m/fpu/libm.a(lib_a-kf_cos.o)
 .ARM.attributes
                0x0000000000000d4f       0x34 /Users/imac/Downloads/gcc-arm-none-eabi-4_9-2015q2/bin/../lib/gcc/arm-none-eabi/4.9.3/../../../../arm-none-eabi/lib/armv7e-m/fpu/libm.a(lib_a-kf_rem_pio2.o)
 .ARM.attributes
                0x0000000000000d83       0x34 /Users/imac/Downloads/gcc-arm-none-eabi-4_9-2015q2/bin/../lib/gcc/arm-none-eabi/4.9.3/../../../../arm-none-eabi/lib/armv7e-m/fpu/libm.a(lib_a-kf_sin.o)
 .ARM.attributes
                0x0000000000000db7       0x34 /Users/imac/Downloads/gcc-arm-none-eabi-4_9-2015q2/bin/../lib/gcc/arm-none-eabi/4.9.3/../../../../arm-none-eabi/lib/armv7e-m/fpu/libm.a(lib_a-s_lib_ver.o)
 .ARM.attributes
                0x0000000000000deb       0x34 /Users/imac/Downloads/gcc-arm-none-eabi-4_9-2015q2/bin/../lib/gcc/arm-none-eabi/4.9.3/../../../../arm-none-eabi/lib/armv7e-m/fpu/libm.a(lib_a-s_matherr.o)
 .ARM.attributes
                0x0000000000000e1f       0x34 /Users/imac/Downloads/gcc-arm-none-eabi-4_9-2015q2/bin/../lib/gcc/arm-none-eabi/4.9.3/../../../../arm-none-eabi/lib/armv7e-m/fpu/libm.a(lib_a-sf_fabs.o)
 .ARM.attributes
                0x0000000000000e53       0x34 /Users/imac/Downloads/gcc-arm-none-eabi-4_9-2015q2/bin/../lib/gcc/arm-none-eabi/4.9.3/../../../../arm-none-eabi/lib/armv7e-m/fpu/libm.a(lib_a-sf_floor.o)
 .ARM.attributes
                0x0000000000000e87       0x34 /Users/imac/Downloads/gcc-arm-none-eabi-4_9-2015q2/bin/../lib/gcc/arm-none-eabi/4.9.3/../../../../arm-none-eabi/lib/armv7e-m/fpu/libm.a(lib_a-sf_fpclassify.o)
 .ARM.attributes
                0x0000000000000ebb       0x34 /Users/imac/Downloads/gcc-arm-none-eabi-4_9-2015q2/bin/../lib/gcc/arm-none-eabi/4.9.3/../../../../arm-none-eabi/lib/armv7e-m/fpu/libm.a(lib_a-sf_scalbn.o)
 .ARM.attributes
                0x0000000000000eef       0x34 /Users/imac/Downloads/gcc-arm-none-eabi-4_9-2015q2/bin/../lib/gcc/arm-none-eabi/4.9.3/../../../../arm-none-eabi/lib/armv7e-m/fpu/libm.a(lib_a-sf_copysign.o)
 .ARM.attributes
                0x0000000000000f23       0x22 /Users/imac/Downloads/gcc-arm-none-eabi-4_9-2015q2/bin/../lib/gcc/arm-none-eabi/4.9.3/armv7e-m/fpu/libgcc.a(_arm_addsubdf3.o)
 .ARM.attributes
                0x0000000000000f45       0x22 /Users/imac/Downloads/gcc-arm-none-eabi-4_9-2015q2/bin/../lib/gcc/arm-none-eabi/4.9.3/armv7e-m/fpu/libgcc.a(_arm_muldivdf3.o)
 .ARM.attributes
                0x0000000000000f67       0x22 /Users/imac/Downloads/gcc-arm-none-eabi-4_9-2015q2/bin/../lib/gcc/arm-none-eabi/4.9.3/armv7e-m/fpu/libgcc.a(_arm_fixdfsi.o)
 .ARM.attributes
                0x0000000000000f89       0x22 /Users/imac/Downloads/gcc-arm-none-eabi-4_9-2015q2/bin/../lib/gcc/arm-none-eabi/4.9.3/armv7e-m/fpu/libgcc.a(_arm_truncdfsf2.o)
 .ARM.attributes
                0x0000000000000fab       0x34 /Users/imac/Downloads/gcc-arm-none-eabi-4_9-2015q2/bin/../lib/gcc/arm-none-eabi/4.9.3/../../../../arm-none-eabi/lib/armv7e-m/fpu/libg.a(lib_a-errno.o)
 .ARM.attributes
                0x0000000000000fdf       0x34 /Users/imac/Downloads/gcc-arm-none-eabi-4_9-2015q2/bin/../lib/gcc/arm-none-eabi/4.9.3/../../../../arm-none-eabi/lib/armv7e-m/fpu/libg.a(lib_a-impure.o)
 .ARM.attributes
                0x0000000000001013       0x34 /Users/imac/Downloads/gcc-arm-none-eabi-4_9-2015q2/bin/../lib/gcc/arm-none-eabi/4.9.3/../../../../arm-none-eabi/lib/armv7e-m/fpu/libg.a(lib_a-memset.o)
 .ARM.attributes
                0x0000000000001047       0x34 /Users/imac/Downloads/gcc-arm-none-eabi-4_9-2015q2/bin/../lib/gcc/arm-none-eabi/4.9.3/../../../../arm-none-eabi/lib/armv7e-m/fpu/libg.a(lib_a-vsnprintf.o)
 .ARM.attributes
                0x000000000000107b       0x34 /Users/imac/Downloads/gcc-arm-none-eabi-4_9-2015q2/bin/../lib/gcc/arm-none-eabi/4.9.3/../../../../arm-none-eabi/lib/armv7e-m/fpu/libg.a(lib_a-svfprintf.o)
 .ARM.attributes
                0x00000000000010af       0x34 /Users/imac/Downloads/gcc-arm-none-eabi-4_9-2015q2/bin/../lib/gcc/arm-none-eabi/4.9.3/../../../../arm-none-eabi/lib/armv7e-m/fpu/libg.a(lib_a-dtoa.o)
 .ARM.attributes
                0x00000000000010e3       0x34 /Users/imac/Downloads/gcc-arm-none-eabi-4_9-2015q2/bin/../lib/gcc/arm-none-eabi/4.9.3/../../../../arm-none-eabi/lib/armv7e-m/fpu/libg.a(lib_a-locale.o)
 .ARM.attributes
                0x0000000000001117       0x34 /Users/imac/Downloads/gcc-arm-none-eabi-4_9-2015q2/bin/../lib/gcc/arm-none-eabi/4.9.3/../../../../arm-none-eabi/lib/armv7e-m/fpu/libg.a(lib_a-mallocr.o)
 .ARM.attributes
                0x000000000000114b       0x34 /Users/imac/Downloads/gcc-arm-none-eabi-4_9-2015q2/bin/../lib/gcc/arm-none-eabi/4.9.3/../../../../arm-none-eabi/lib/armv7e-m/fpu/libg.a(lib_a-memchr.o)
 .ARM.attributes
                0x000000000000117f       0x20 /Users/imac/Downloads/gcc-arm-none-eabi-4_9-2015q2/bin/../lib/gcc/arm-none-eabi/4.9.3/../../../../arm-none-eabi/lib/armv7e-m/fpu/libg.a(lib_a-memcpy.o)
 .ARM.attributes
                0x000000000000119f       0x34 /Users/imac/Downloads/gcc-arm-none-eabi-4_9-2015q2/bin/../lib/gcc/arm-none-eabi/4.9.3/../../../../arm-none-eabi/lib/armv7e-m/fpu/libg.a(lib_a-mlock.o)
 .ARM.attributes
                0x00000000000011d3       0x34 /Users/imac/Downloads/gcc-arm-none-eabi-4_9-2015q2/bin/../lib/gcc/arm-none-eabi/4.9.3/../../../../arm-none-eabi/lib/armv7e-m/fpu/libg.a(lib_a-mprec.o)
 .ARM.attributes
                0x0000000000001207       0x34 /Users/imac/Downloads/gcc-arm-none-eabi-4_9-2015q2/bin/../lib/gcc/arm-none-eabi/4.9.3/../../../../arm-none-eabi/lib/armv7e-m/fpu/libg.a(lib_a-s_fpclassify.o)
 .ARM.attributes
                0x000000000000123b       0x34 /Users/imac/Downloads/gcc-arm-none-eabi-4_9-2015q2/bin/../lib/gcc/arm-none-eabi/4.9.3/../../../../arm-none-eabi/lib/armv7e-m/fpu/libg.a(lib_a-strlen.o)
 .ARM.attributes
                0x000000000000126f       0x34 /Users/imac/Downloads/gcc-arm-none-eabi-4_9-2015q2/bin/../lib/gcc/arm-none-eabi/4.9.3/../../../../arm-none-eabi/lib/armv7e-m/fpu/libg.a(lib_a-svfiprintf.o)
 .ARM.attributes
                0x00000000000012a3       0x34 /Users/imac/Downloads/gcc-arm-none-eabi-4_9-2015q2/bin/../lib/gcc/arm-none-eabi/4.9.3/../../../../arm-none-eabi/lib/armv7e-m/fpu/libg.a(lib_a-callocr.o)
 .ARM.attributes
                0x00000000000012d7       0x34 /Users/imac/Downloads/gcc-arm-none-eabi-4_9-2015q2/bin/../lib/gcc/arm-none-eabi/4.9.3/../../../../arm-none-eabi/lib/armv7e-m/fpu/libg.a(lib_a-freer.o)
 .ARM.attributes
                0x000000000000130b       0x34 /Users/imac/Downloads/gcc-arm-none-eabi-4_9-2015q2/bin/../lib/gcc/arm-none-eabi/4.9.3/../../../../arm-none-eabi/lib/armv7e-m/fpu/libg.a(lib_a-memmove.o)
 .ARM.attributes
                0x000000000000133f       0x34 /Users/imac/Downloads/gcc-arm-none-eabi-4_9-2015q2/bin/../lib/gcc/arm-none-eabi/4.9.3/../../../../arm-none-eabi/lib/armv7e-m/fpu/libg.a(lib_a-reallocr.o)
 .ARM.attributes
                0x0000000000001373       0x22 /Users/imac/Downloads/gcc-arm-none-eabi-4_9-2015q2/bin/../lib/gcc/arm-none-eabi/4.9.3/armv7e-m/fpu/libgcc.a(_arm_cmpdf2.o)
 .ARM.attributes
                0x0000000000001395       0x22 /Users/imac/Downloads/gcc-arm-none-eabi-4_9-2015q2/bin/../lib/gcc/arm-none-eabi/4.9.3/armv7e-m/fpu/libgcc.a(_aeabi_uldivmod.o)
 .ARM.attributes
                0x00000000000013b7       0x34 /Users/imac/Downloads/gcc-arm-none-eabi-4_9-2015q2/bin/../lib/gcc/arm-none-eabi/4.9.3/armv7e-m/fpu/libgcc.a(bpabi.o)
 .ARM.attributes
                0x00000000000013eb       0x22 /Users/imac/Downloads/gcc-arm-none-eabi-4_9-2015q2/bin/../lib/gcc/arm-none-eabi/4.9.3/armv7e-m/fpu/libgcc.a(_dvmd_tls.o)
 .ARM.attributes
                0x000000000000140d       0x34 /Users/imac/Downloads/gcc-arm-none-eabi-4_9-2015q2/bin/../lib/gcc/arm-none-eabi/4.9.3/armv7e-m/fpu/libgcc.a(_divdi3.o)
 .ARM.attributes
                0x0000000000001441       0x34 /Users/imac/Downloads/gcc-arm-none-eabi-4_9-2015q2/bin/../lib/gcc/arm-none-eabi/4.9.3/armv7e-m/fpu/libgcc.a(_udivdi3.o)

.comment        0x0000000000000000       0x70
 .comment       0x0000000000000000       0x70 build/obj/crt1.o
                                         0x71 (size before relaxing)
 .comment       0x0000000000000000       0x71 build/obj/vectors.o
 .comment       0x0000000000000000       0x71 build/obj/chsys.o
 .comment       0x0000000000000000       0x71 build/obj/chvt.o
 .comment       0x0000000000000000       0x71 build/obj/chschd.o
 .comment       0x0000000000000000       0x71 build/obj/chthreads.o
 .comment       0x0000000000000000       0x71 build/obj/chtm.o
 .comment       0x0000000000000000       0x71 build/obj/chregistry.o
 .comment       0x0000000000000000       0x71 build/obj/chmtx.o
 .comment       0x0000000000000000       0x71 build/obj/chevents.o
 .comment       0x0000000000000000       0x71 build/obj/chqueues.o
 .comment       0x0000000000000000       0x71 build/obj/chmemcore.o
 .comment       0x0000000000000000       0x71 build/obj/chheap.o
 .comment       0x0000000000000000       0x71 build/obj/chcore_v7m.o
 .comment       0x0000000000000000       0x71 build/obj/hal.o
 .comment       0x0000000000000000       0x71 build/obj/st.o
 .comment       0x0000000000000000       0x71 build/obj/can.o
 .comment       0x0000000000000000       0x71 build/obj/i2c.o
 .comment       0x0000000000000000       0x71 build/obj/icu.o
 .comment       0x0000000000000000       0x71 build/obj/serial_usb.o
 .comment       0x0000000000000000       0x71 build/obj/uart.o
 .comment       0x0000000000000000       0x71 build/obj/usb.o
 .comment       0x0000000000000000       0x71 build/obj/nvic.o
 .comment       0x0000000000000000       0x71 build/obj/stm32_dma.o
 .comment       0x0000000000000000       0x71 build/obj/hal_lld.o
 .comment       0x0000000000000000       0x71 build/obj/st_lld.o
 .comment       0x0000000000000000       0x71 build/obj/can_lld.o
 .comment       0x0000000000000000       0x71 build/obj/pal_lld.o
 .comment       0x0000000000000000       0x71 build/obj/i2c_lld.o
 .comment       0x0000000000000000       0x71 build/obj/usb_lld.o
 .comment       0x0000000000000000       0x71 build/obj/icu_lld.o
 .comment       0x0000000000000000       0x71 build/obj/uart_lld.o
 .comment       0x0000000000000000       0x71 build/obj/board.o
 .comment       0x0000000000000000       0x71 build/obj/syscalls.o
 .comment       0x0000000000000000       0x71 build/obj/bldc.o
 .comment       0x0000000000000000       0x71 build/obj/mcpwm.o
 .comment       0x0000000000000000       0x71 build/obj/usb_uart.o
 .comment       0x0000000000000000       0x71 build/obj/irq_handlers.o
 .comment       0x0000000000000000       0x71 build/obj/comm_usb.o
 .comment       0x0000000000000000       0x71 build/obj/utils.o
 .comment       0x0000000000000000       0x71 build/obj/conf_general.o
 .comment       0x0000000000000000       0x71 build/obj/eeprom.o
 .comment       0x0000000000000000       0x71 build/obj/flash_helper.o
 .comment       0x0000000000000000       0x71 build/obj/hw_oroca.o
 .comment       0x0000000000000000       0x71 build/obj/misc.o
 .comment       0x0000000000000000       0x71 build/obj/stm32f4xx_adc.o
 .comment       0x0000000000000000       0x71 build/obj/stm32f4xx_dma.o
 .comment       0x0000000000000000       0x71 build/obj/stm32f4xx_exti.o
 .comment       0x0000000000000000       0x71 build/obj/stm32f4xx_flash.o
 .comment       0x0000000000000000       0x71 build/obj/stm32f4xx_rcc.o
 .comment       0x0000000000000000       0x71 build/obj/stm32f4xx_tim.o
 .comment       0x0000000000000000       0x71 build/obj/stm32f4xx_wwdg.o
 .comment       0x0000000000000000       0x71 build/obj/main.o

.debug_info     0x0000000000000000    0x3b1eb
 .debug_info    0x0000000000000000       0xde build/obj/crt1.o
 .debug_info    0x00000000000000de      0x1e7 build/obj/vectors.o
 .debug_info    0x00000000000002c5     0x17e3 build/obj/chsys.o
 .debug_info    0x0000000000001aa8      0x7fd build/obj/chvt.o
 .debug_info    0x00000000000022a5      0xe6f build/obj/chschd.o
 .debug_info    0x0000000000003114     0x1b65 build/obj/chthreads.o
 .debug_info    0x0000000000004c79      0xaac build/obj/chtm.o
 .debug_info    0x0000000000005725      0xa5c build/obj/chregistry.o
 .debug_info    0x0000000000006181     0x10e3 build/obj/chmtx.o
 .debug_info    0x0000000000007264     0x16a1 build/obj/chevents.o
 .debug_info    0x0000000000008905     0x123c build/obj/chqueues.o
 .debug_info    0x0000000000009b41      0x947 build/obj/chmemcore.o
 .debug_info    0x000000000000a488      0xaab build/obj/chheap.o
 .debug_info    0x000000000000af33      0xcc7 build/obj/chcore_v7m.o
 .debug_info    0x000000000000bbfa      0x8f4 build/obj/hal.o
 .debug_info    0x000000000000c4ee      0x9e5 build/obj/st.o
 .debug_info    0x000000000000ced3     0x1ac4 build/obj/can.o
 .debug_info    0x000000000000e997     0x1232 build/obj/i2c.o
 .debug_info    0x000000000000fbc9     0x1232 build/obj/icu.o
 .debug_info    0x0000000000010dfb     0x2832 build/obj/serial_usb.o
 .debug_info    0x000000000001362d     0x1411 build/obj/uart.o
 .debug_info    0x0000000000014a3e     0x2977 build/obj/usb.o
 .debug_info    0x00000000000173b5      0xabd build/obj/nvic.o
 .debug_info    0x0000000000017e72     0x10dc build/obj/stm32_dma.o
 .debug_info    0x0000000000018f4e      0x9e1 build/obj/hal_lld.o
 .debug_info    0x000000000001992f      0x92b build/obj/st_lld.o
 .debug_info    0x000000000001a25a     0x1e5e build/obj/can_lld.o
 .debug_info    0x000000000001c0b8      0xd5b build/obj/pal_lld.o
 .debug_info    0x000000000001ce13     0x1db5 build/obj/i2c_lld.o
 .debug_info    0x000000000001ebc8     0x31d8 build/obj/usb_lld.o
 .debug_info    0x0000000000021da0      0xfd6 build/obj/icu_lld.o
 .debug_info    0x0000000000022d76     0x139a build/obj/uart_lld.o
 .debug_info    0x0000000000024110      0x869 build/obj/board.o
 .debug_info    0x0000000000024979     0x12bc build/obj/syscalls.o
 .debug_info    0x0000000000025c35     0x1330 build/obj/bldc.o
 .debug_info    0x0000000000026f65     0x4113 build/obj/mcpwm.o
 .debug_info    0x000000000002b078     0x1c4c build/obj/usb_uart.o
 .debug_info    0x000000000002ccc4      0xac8 build/obj/irq_handlers.o
 .debug_info    0x000000000002d78c     0x16df build/obj/comm_usb.o
 .debug_info    0x000000000002ee6b      0xab6 build/obj/utils.o
 .debug_info    0x000000000002f921     0x12b0 build/obj/conf_general.o
 .debug_info    0x0000000000030bd1      0xe99 build/obj/eeprom.o
 .debug_info    0x0000000000031a6a     0x1fd4 build/obj/flash_helper.o
 .debug_info    0x0000000000033a3e     0x15ee build/obj/hw_oroca.o
 .debug_info    0x000000000003502c      0x545 build/obj/misc.o
 .debug_info    0x0000000000035571      0xc6c build/obj/stm32f4xx_adc.o
 .debug_info    0x00000000000361dd      0x73a build/obj/stm32f4xx_dma.o
 .debug_info    0x0000000000036917      0x33b build/obj/stm32f4xx_exti.o
 .debug_info    0x0000000000036c52      0xa5f build/obj/stm32f4xx_flash.o
 .debug_info    0x00000000000376b1      0xc05 build/obj/stm32f4xx_rcc.o
 .debug_info    0x00000000000382b6     0x2406 build/obj/stm32f4xx_tim.o
 .debug_info    0x000000000003a6bc      0x29e build/obj/stm32f4xx_wwdg.o
 .debug_info    0x000000000003a95a      0x891 build/obj/main.o

.debug_abbrev   0x0000000000000000     0x9669
 .debug_abbrev  0x0000000000000000       0x67 build/obj/crt1.o
 .debug_abbrev  0x0000000000000067       0xc7 build/obj/vectors.o
 .debug_abbrev  0x000000000000012e      0x4e9 build/obj/chsys.o
 .debug_abbrev  0x0000000000000617      0x1b1 build/obj/chvt.o
 .debug_abbrev  0x00000000000007c8      0x3d3 build/obj/chschd.o
 .debug_abbrev  0x0000000000000b9b      0x475 build/obj/chthreads.o
 .debug_abbrev  0x0000000000001010      0x277 build/obj/chtm.o
 .debug_abbrev  0x0000000000001287      0x238 build/obj/chregistry.o
 .debug_abbrev  0x00000000000014bf      0x3d2 build/obj/chmtx.o
 .debug_abbrev  0x0000000000001891      0x3b8 build/obj/chevents.o
 .debug_abbrev  0x0000000000001c49      0x3e0 build/obj/chqueues.o
 .debug_abbrev  0x0000000000002029      0x282 build/obj/chmemcore.o
 .debug_abbrev  0x00000000000022ab      0x292 build/obj/chheap.o
 .debug_abbrev  0x000000000000253d      0x231 build/obj/chcore_v7m.o
 .debug_abbrev  0x000000000000276e      0x1a0 build/obj/hal.o
 .debug_abbrev  0x000000000000290e      0x217 build/obj/st.o
 .debug_abbrev  0x0000000000002b25      0x430 build/obj/can.o
 .debug_abbrev  0x0000000000002f55      0x345 build/obj/i2c.o
 .debug_abbrev  0x000000000000329a      0x2c9 build/obj/icu.o
 .debug_abbrev  0x0000000000003563      0x541 build/obj/serial_usb.o
 .debug_abbrev  0x0000000000003aa4      0x392 build/obj/uart.o
 .debug_abbrev  0x0000000000003e36      0x469 build/obj/usb.o
 .debug_abbrev  0x000000000000429f      0x1ba build/obj/nvic.o
 .debug_abbrev  0x0000000000004459      0x278 build/obj/stm32_dma.o
 .debug_abbrev  0x00000000000046d1      0x1c3 build/obj/hal_lld.o
 .debug_abbrev  0x0000000000004894      0x208 build/obj/st_lld.o
 .debug_abbrev  0x0000000000004a9c      0x481 build/obj/can_lld.o
 .debug_abbrev  0x0000000000004f1d      0x20c build/obj/pal_lld.o
 .debug_abbrev  0x0000000000005129      0x40e build/obj/i2c_lld.o
 .debug_abbrev  0x0000000000005537      0x51c build/obj/usb_lld.o
 .debug_abbrev  0x0000000000005a53      0x39d build/obj/icu_lld.o
 .debug_abbrev  0x0000000000005df0      0x428 build/obj/uart_lld.o
 .debug_abbrev  0x0000000000006218      0x18b build/obj/board.o
 .debug_abbrev  0x00000000000063a3      0x24b build/obj/syscalls.o
 .debug_abbrev  0x00000000000065ee      0x33d build/obj/bldc.o
 .debug_abbrev  0x000000000000692b      0x5ab build/obj/mcpwm.o
 .debug_abbrev  0x0000000000006ed6      0x3c5 build/obj/usb_uart.o
 .debug_abbrev  0x000000000000729b      0x206 build/obj/irq_handlers.o
 .debug_abbrev  0x00000000000074a1      0x26b build/obj/comm_usb.o
 .debug_abbrev  0x000000000000770c      0x270 build/obj/utils.o
 .debug_abbrev  0x000000000000797c      0x32b build/obj/conf_general.o
 .debug_abbrev  0x0000000000007ca7      0x336 build/obj/eeprom.o
 .debug_abbrev  0x0000000000007fdd      0x3cd build/obj/flash_helper.o
 .debug_abbrev  0x00000000000083aa      0x236 build/obj/hw_oroca.o
 .debug_abbrev  0x00000000000085e0      0x156 build/obj/misc.o
 .debug_abbrev  0x0000000000008736      0x1a5 build/obj/stm32f4xx_adc.o
 .debug_abbrev  0x00000000000088db      0x175 build/obj/stm32f4xx_dma.o
 .debug_abbrev  0x0000000000008a50      0x1b8 build/obj/stm32f4xx_exti.o
 .debug_abbrev  0x0000000000008c08      0x1bf build/obj/stm32f4xx_flash.o
 .debug_abbrev  0x0000000000008dc7      0x260 build/obj/stm32f4xx_rcc.o
 .debug_abbrev  0x0000000000009027      0x291 build/obj/stm32f4xx_tim.o
 .debug_abbrev  0x00000000000092b8      0x178 build/obj/stm32f4xx_wwdg.o
 .debug_abbrev  0x0000000000009430      0x239 build/obj/main.o

.debug_aranges  0x0000000000000000     0x1858
 .debug_aranges
                0x0000000000000000       0x38 build/obj/crt1.o
 .debug_aranges
                0x0000000000000038       0x20 build/obj/vectors.o
 .debug_aranges
                0x0000000000000058       0x60 build/obj/chsys.o
 .debug_aranges
                0x00000000000000b8       0x30 build/obj/chvt.o
 .debug_aranges
                0x00000000000000e8       0x70 build/obj/chschd.o
 .debug_aranges
                0x0000000000000158       0xc0 build/obj/chthreads.o
 .debug_aranges
                0x0000000000000218       0x40 build/obj/chtm.o
 .debug_aranges
                0x0000000000000258       0x28 build/obj/chregistry.o
 .debug_aranges
                0x0000000000000280       0x58 build/obj/chmtx.o
 .debug_aranges
                0x00000000000002d8       0xa0 build/obj/chevents.o
 .debug_aranges
                0x0000000000000378       0x68 build/obj/chqueues.o
 .debug_aranges
                0x00000000000003e0       0x38 build/obj/chmemcore.o
 .debug_aranges
                0x0000000000000418       0x40 build/obj/chheap.o
 .debug_aranges
                0x0000000000000458       0x28 build/obj/chcore_v7m.o
 .debug_aranges
                0x0000000000000480       0x20 build/obj/hal.o
 .debug_aranges
                0x00000000000004a0       0x40 build/obj/st.o
 .debug_aranges
                0x00000000000004e0       0x58 build/obj/can.o
 .debug_aranges
                0x0000000000000538       0x60 build/obj/i2c.o
 .debug_aranges
                0x0000000000000598       0x60 build/obj/icu.o
 .debug_aranges
                0x00000000000005f8       0xb0 build/obj/serial_usb.o
 .debug_aranges
                0x00000000000006a8       0x78 build/obj/uart.o
 .debug_aranges
                0x0000000000000720       0xa8 build/obj/usb.o
 .debug_aranges
                0x00000000000007c8       0x38 build/obj/nvic.o
 .debug_aranges
                0x0000000000000800       0xb0 build/obj/stm32_dma.o
 .debug_aranges
                0x00000000000008b0       0x28 build/obj/hal_lld.o
 .debug_aranges
                0x00000000000008d8       0x28 build/obj/st_lld.o
 .debug_aranges
                0x0000000000000900       0x90 build/obj/can_lld.o
 .debug_aranges
                0x0000000000000990       0x28 build/obj/pal_lld.o
 .debug_aranges
                0x00000000000009b8       0x60 build/obj/i2c_lld.o
 .debug_aranges
                0x0000000000000a18       0xd0 build/obj/usb_lld.o
 .debug_aranges
                0x0000000000000ae8       0x68 build/obj/icu_lld.o
 .debug_aranges
                0x0000000000000b50       0x80 build/obj/uart_lld.o
 .debug_aranges
                0x0000000000000bd0       0x28 build/obj/board.o
 .debug_aranges
                0x0000000000000bf8       0x50 build/obj/syscalls.o
 .debug_aranges
                0x0000000000000c48       0x38 build/obj/bldc.o
 .debug_aranges
                0x0000000000000c80      0x130 build/obj/mcpwm.o
 .debug_aranges
                0x0000000000000db0       0x48 build/obj/usb_uart.o
 .debug_aranges
                0x0000000000000df8       0x30 build/obj/irq_handlers.o
 .debug_aranges
                0x0000000000000e28       0x20 build/obj/comm_usb.o
 .debug_aranges
                0x0000000000000e48       0x60 build/obj/utils.o
 .debug_aranges
                0x0000000000000ea8       0x48 build/obj/conf_general.o
 .debug_aranges
                0x0000000000000ef0       0x48 build/obj/eeprom.o
 .debug_aranges
                0x0000000000000f38       0x38 build/obj/flash_helper.o
 .debug_aranges
                0x0000000000000f70       0x40 build/obj/hw_oroca.o
 .debug_aranges
                0x0000000000000fb0       0x40 build/obj/misc.o
 .debug_aranges
                0x0000000000000ff0      0x148 build/obj/stm32f4xx_adc.o
 .debug_aranges
                0x0000000000001138       0xb0 build/obj/stm32f4xx_dma.o
 .debug_aranges
                0x00000000000011e8       0x58 build/obj/stm32f4xx_exti.o
 .debug_aranges
                0x0000000000001240      0x158 build/obj/stm32f4xx_flash.o
 .debug_aranges
                0x0000000000001398      0x160 build/obj/stm32f4xx_rcc.o
 .debug_aranges
                0x00000000000014f8      0x2d8 build/obj/stm32f4xx_tim.o
 .debug_aranges
                0x00000000000017d0       0x58 build/obj/stm32f4xx_wwdg.o
 .debug_aranges
                0x0000000000001828       0x30 build/obj/main.o

.debug_ranges   0x0000000000000000     0x27e8
 .debug_ranges  0x0000000000000000       0x28 build/obj/crt1.o
 .debug_ranges  0x0000000000000028       0x10 build/obj/vectors.o
 .debug_ranges  0x0000000000000038      0x148 build/obj/chsys.o
 .debug_ranges  0x0000000000000180       0x20 build/obj/chvt.o
 .debug_ranges  0x00000000000001a0      0x1c0 build/obj/chschd.o
 .debug_ranges  0x0000000000000360      0x218 build/obj/chthreads.o
 .debug_ranges  0x0000000000000578       0xc0 build/obj/chtm.o
 .debug_ranges  0x0000000000000638       0x18 build/obj/chregistry.o
 .debug_ranges  0x0000000000000650      0x1a0 build/obj/chmtx.o
 .debug_ranges  0x00000000000007f0       0xd8 build/obj/chevents.o
 .debug_ranges  0x00000000000008c8      0x148 build/obj/chqueues.o
 .debug_ranges  0x0000000000000a10       0x28 build/obj/chmemcore.o
 .debug_ranges  0x0000000000000a38       0x30 build/obj/chheap.o
 .debug_ranges  0x0000000000000a68       0x18 build/obj/chcore_v7m.o
 .debug_ranges  0x0000000000000a80       0x10 build/obj/hal.o
 .debug_ranges  0x0000000000000a90       0x30 build/obj/st.o
 .debug_ranges  0x0000000000000ac0       0xd8 build/obj/can.o
 .debug_ranges  0x0000000000000b98       0x80 build/obj/i2c.o
 .debug_ranges  0x0000000000000c18       0xc8 build/obj/icu.o
 .debug_ranges  0x0000000000000ce0       0xd8 build/obj/serial_usb.o
 .debug_ranges  0x0000000000000db8       0xf8 build/obj/uart.o
 .debug_ranges  0x0000000000000eb0      0x170 build/obj/usb.o
 .debug_ranges  0x0000000000001020       0x28 build/obj/nvic.o
 .debug_ranges  0x0000000000001048       0xa0 build/obj/stm32_dma.o
 .debug_ranges  0x00000000000010e8       0x38 build/obj/hal_lld.o
 .debug_ranges  0x0000000000001120       0x18 build/obj/st_lld.o
 .debug_ranges  0x0000000000001138       0xf8 build/obj/can_lld.o
 .debug_ranges  0x0000000000001230      0x120 build/obj/pal_lld.o
 .debug_ranges  0x0000000000001350      0x1d8 build/obj/i2c_lld.o
 .debug_ranges  0x0000000000001528      0x358 build/obj/usb_lld.o
 .debug_ranges  0x0000000000001880       0x70 build/obj/icu_lld.o
 .debug_ranges  0x00000000000018f0      0x118 build/obj/uart_lld.o
 .debug_ranges  0x0000000000001a08       0x18 build/obj/board.o
 .debug_ranges  0x0000000000001a20       0x40 build/obj/syscalls.o
 .debug_ranges  0x0000000000001a60       0x58 build/obj/bldc.o
 .debug_ranges  0x0000000000001ab8      0x220 build/obj/mcpwm.o
 .debug_ranges  0x0000000000001cd8       0x38 build/obj/usb_uart.o
 .debug_ranges  0x0000000000001d10       0x20 build/obj/irq_handlers.o
 .debug_ranges  0x0000000000001d30       0x10 build/obj/comm_usb.o
 .debug_ranges  0x0000000000001d40       0x50 build/obj/utils.o
 .debug_ranges  0x0000000000001d90       0x68 build/obj/conf_general.o
 .debug_ranges  0x0000000000001df8       0x80 build/obj/eeprom.o
 .debug_ranges  0x0000000000001e78       0x58 build/obj/flash_helper.o
 .debug_ranges  0x0000000000001ed0       0x48 build/obj/hw_oroca.o
 .debug_ranges  0x0000000000001f18       0x30 build/obj/misc.o
 .debug_ranges  0x0000000000001f48      0x138 build/obj/stm32f4xx_adc.o
 .debug_ranges  0x0000000000002080       0xa0 build/obj/stm32f4xx_dma.o
 .debug_ranges  0x0000000000002120       0x48 build/obj/stm32f4xx_exti.o
 .debug_ranges  0x0000000000002168      0x148 build/obj/stm32f4xx_flash.o
 .debug_ranges  0x00000000000022b0      0x170 build/obj/stm32f4xx_rcc.o
 .debug_ranges  0x0000000000002420      0x360 build/obj/stm32f4xx_tim.o
 .debug_ranges  0x0000000000002780       0x48 build/obj/stm32f4xx_wwdg.o
 .debug_ranges  0x00000000000027c8       0x20 build/obj/main.o

.debug_line     0x0000000000000000     0xf25a
 .debug_line    0x0000000000000000      0x195 build/obj/crt1.o
 .debug_line    0x0000000000000195      0x16a build/obj/vectors.o
 .debug_line    0x00000000000002ff      0x534 build/obj/chsys.o
 .debug_line    0x0000000000000833      0x282 build/obj/chvt.o
 .debug_line    0x0000000000000ab5      0x52e build/obj/chschd.o
 .debug_line    0x0000000000000fe3      0x718 build/obj/chthreads.o
 .debug_line    0x00000000000016fb      0x300 build/obj/chtm.o
 .debug_line    0x00000000000019fb      0x30e build/obj/chregistry.o
 .debug_line    0x0000000000001d09      0x4a1 build/obj/chmtx.o
 .debug_line    0x00000000000021aa      0x533 build/obj/chevents.o
 .debug_line    0x00000000000026dd      0x511 build/obj/chqueues.o
 .debug_line    0x0000000000002bee      0x306 build/obj/chmemcore.o
 .debug_line    0x0000000000002ef4      0x36f build/obj/chheap.o
 .debug_line    0x0000000000003263      0x281 build/obj/chcore_v7m.o
 .debug_line    0x00000000000034e4      0x381 build/obj/hal.o
 .debug_line    0x0000000000003865      0x2cd build/obj/st.o
 .debug_line    0x0000000000003b32      0x4b6 build/obj/can.o
 .debug_line    0x0000000000003fe8      0x4be build/obj/i2c.o
 .debug_line    0x00000000000044a6      0x428 build/obj/icu.o
 .debug_line    0x00000000000048ce      0x625 build/obj/serial_usb.o
 .debug_line    0x0000000000004ef3      0x54d build/obj/uart.o
 .debug_line    0x0000000000005440      0x712 build/obj/usb.o
 .debug_line    0x0000000000005b52      0x277 build/obj/nvic.o
 .debug_line    0x0000000000005dc9      0x546 build/obj/stm32_dma.o
 .debug_line    0x000000000000630f      0x358 build/obj/hal_lld.o
 .debug_line    0x0000000000006667      0x2e8 build/obj/st_lld.o
 .debug_line    0x000000000000694f      0x671 build/obj/can_lld.o
 .debug_line    0x0000000000006fc0      0x313 build/obj/pal_lld.o
 .debug_line    0x00000000000072d3      0x721 build/obj/i2c_lld.o
 .debug_line    0x00000000000079f4      0x98e build/obj/usb_lld.o
 .debug_line    0x0000000000008382      0x4c1 build/obj/icu_lld.o
 .debug_line    0x0000000000008843      0x6e8 build/obj/uart_lld.o
 .debug_line    0x0000000000008f2b      0x32b build/obj/board.o
 .debug_line    0x0000000000009256      0x34b build/obj/syscalls.o
 .debug_line    0x00000000000095a1      0x423 build/obj/bldc.o
 .debug_line    0x00000000000099c4      0xcb6 build/obj/mcpwm.o
 .debug_line    0x000000000000a67a      0x43a build/obj/usb_uart.o
 .debug_line    0x000000000000aab4      0x2fe build/obj/irq_handlers.o
 .debug_line    0x000000000000adb2      0x32b build/obj/comm_usb.o
 .debug_line    0x000000000000b0dd      0x3b0 build/obj/utils.o
 .debug_line    0x000000000000b48d      0x4e7 build/obj/conf_general.o
 .debug_line    0x000000000000b974      0x444 build/obj/eeprom.o
 .debug_line    0x000000000000bdb8      0x528 build/obj/flash_helper.o
 .debug_line    0x000000000000c2e0      0x4e6 build/obj/hw_oroca.o
 .debug_line    0x000000000000c7c6      0x230 build/obj/misc.o
 .debug_line    0x000000000000c9f6      0x579 build/obj/stm32f4xx_adc.o
 .debug_line    0x000000000000cf6f      0x42a build/obj/stm32f4xx_dma.o
 .debug_line    0x000000000000d399      0x298 build/obj/stm32f4xx_exti.o
 .debug_line    0x000000000000d631      0x57b build/obj/stm32f4xx_flash.o
 .debug_line    0x000000000000dbac      0x55a build/obj/stm32f4xx_rcc.o
 .debug_line    0x000000000000e106      0xc14 build/obj/stm32f4xx_tim.o
 .debug_line    0x000000000000ed1a      0x269 build/obj/stm32f4xx_wwdg.o
 .debug_line    0x000000000000ef83      0x2d7 build/obj/main.o

.debug_str      0x0000000000000000     0x826b
 .debug_str     0x0000000000000000      0x22d build/obj/crt1.o
                                        0x269 (size before relaxing)
 .debug_str     0x000000000000022d      0x16e build/obj/vectors.o
                                        0x376 (size before relaxing)
 .debug_str     0x000000000000039b      0xdb3 build/obj/chsys.o
                                       0x1063 (size before relaxing)
 .debug_str     0x000000000000114e       0x48 build/obj/chvt.o
                                        0x5dd (size before relaxing)
 .debug_str     0x0000000000001196      0x13c build/obj/chschd.o
                                        0x78a (size before relaxing)
 .debug_str     0x00000000000012d2      0x223 build/obj/chthreads.o
                                        0x8c6 (size before relaxing)
 .debug_str     0x00000000000014f5       0xc0 build/obj/chtm.o
                                        0x71b (size before relaxing)
 .debug_str     0x00000000000015b5       0x4a build/obj/chregistry.o
                                        0x727 (size before relaxing)
 .debug_str     0x00000000000015ff       0xb2 build/obj/chmtx.o
                                        0x6eb (size before relaxing)
 .debug_str     0x00000000000016b1      0x1f9 build/obj/chevents.o
                                        0x818 (size before relaxing)
 .debug_str     0x00000000000018aa      0x17b build/obj/chqueues.o
                                        0x7a3 (size before relaxing)
 .debug_str     0x0000000000001a25       0x7c build/obj/chmemcore.o
                                        0x659 (size before relaxing)
 .debug_str     0x0000000000001aa1       0xc4 build/obj/chheap.o
                                        0x691 (size before relaxing)
 .debug_str     0x0000000000001b65       0xd4 build/obj/chcore_v7m.o
                                        0x728 (size before relaxing)
 .debug_str     0x0000000000001c39      0x125 build/obj/hal.o
                                        0x6a8 (size before relaxing)
 .debug_str     0x0000000000001d5e       0xe8 build/obj/st.o
                                        0x680 (size before relaxing)
 .debug_str     0x0000000000001e46      0x358 build/obj/can.o
                                        0xa8f (size before relaxing)
 .debug_str     0x000000000000219e      0x30a build/obj/i2c.o
                                        0x967 (size before relaxing)
 .debug_str     0x00000000000024a8      0x253 build/obj/icu.o
                                        0x89c (size before relaxing)
 .debug_str     0x00000000000026fb      0x818 build/obj/serial_usb.o
                                       0x10e7 (size before relaxing)
 .debug_str     0x0000000000002f13      0x282 build/obj/uart.o
                                        0x918 (size before relaxing)
 .debug_str     0x0000000000003195      0x2c6 build/obj/usb.o
                                       0x1071 (size before relaxing)
 .debug_str     0x000000000000345b       0x85 build/obj/nvic.o
                                        0x6d5 (size before relaxing)
 .debug_str     0x00000000000034e0      0x246 build/obj/stm32_dma.o
                                        0xdb6 (size before relaxing)
 .debug_str     0x0000000000003726       0xa4 build/obj/hal_lld.o
                                        0x744 (size before relaxing)
 .debug_str     0x00000000000037ca       0x74 build/obj/st_lld.o
                                        0x6e9 (size before relaxing)
 .debug_str     0x000000000000383e      0x134 build/obj/can_lld.o
                                        0xc13 (size before relaxing)
 .debug_str     0x0000000000003972       0xd5 build/obj/pal_lld.o
                                        0x808 (size before relaxing)
 .debug_str     0x0000000000003a47      0x170 build/obj/i2c_lld.o
                                       0x113b (size before relaxing)
 .debug_str     0x0000000000003bb7      0x218 build/obj/usb_lld.o
                                       0x1328 (size before relaxing)
 .debug_str     0x0000000000003dcf       0x72 build/obj/icu_lld.o
                                        0x994 (size before relaxing)
 .debug_str     0x0000000000003e41       0xe6 build/obj/uart_lld.o
                                        0xa7b (size before relaxing)
 .debug_str     0x0000000000003f27       0x3d build/obj/board.o
                                        0x683 (size before relaxing)
 .debug_str     0x0000000000003f64      0x4a5 build/obj/syscalls.o
                                        0xab4 (size before relaxing)
 .debug_str     0x0000000000004409      0xa4c build/obj/bldc.o
                                       0x10e8 (size before relaxing)
 .debug_str     0x0000000000004e55     0x1104 build/obj/mcpwm.o
                                       0x26b3 (size before relaxing)
 .debug_str     0x0000000000005f59      0x18e build/obj/usb_uart.o
                                       0x103e (size before relaxing)
 .debug_str     0x00000000000060e7       0x88 build/obj/irq_handlers.o
                                        0x711 (size before relaxing)
 .debug_str     0x000000000000616f       0x91 build/obj/comm_usb.o
                                        0xe60 (size before relaxing)
 .debug_str     0x0000000000006200       0xdc build/obj/utils.o
                                        0x70a (size before relaxing)
 .debug_str     0x00000000000062dc      0x18a build/obj/conf_general.o
                                       0x1039 (size before relaxing)
 .debug_str     0x0000000000006466      0x18b build/obj/eeprom.o
                                        0x82e (size before relaxing)
 .debug_str     0x00000000000065f1      0x131 build/obj/flash_helper.o
                                       0x121a (size before relaxing)
 .debug_str     0x0000000000006722       0x87 build/obj/hw_oroca.o
                                        0x96d (size before relaxing)
 .debug_str     0x00000000000067a9       0xfe build/obj/misc.o
                                        0x490 (size before relaxing)
 .debug_str     0x00000000000068a7      0x3d9 build/obj/stm32f4xx_adc.o
                                        0x8dd (size before relaxing)
 .debug_str     0x0000000000006c80      0x214 build/obj/stm32f4xx_dma.o
                                        0x604 (size before relaxing)
 .debug_str     0x0000000000006e94      0x198 build/obj/stm32f4xx_exti.o
                                        0x40e (size before relaxing)
 .debug_str     0x000000000000702c      0x38c build/obj/stm32f4xx_flash.o
                                        0x761 (size before relaxing)
 .debug_str     0x00000000000073b8      0x489 build/obj/stm32f4xx_rcc.o
                                        0x897 (size before relaxing)
 .debug_str     0x0000000000007841      0x7d2 build/obj/stm32f4xx_tim.o
                                        0xe25 (size before relaxing)
 .debug_str     0x0000000000008013       0x95 build/obj/stm32f4xx_wwdg.o
                                        0x360 (size before relaxing)
 .debug_str     0x00000000000080a8      0x1c3 build/obj/main.o
                                        0x68c (size before relaxing)

.debug_frame    0x0000000000000000     0x4d48
 .debug_frame   0x0000000000000000       0x50 build/obj/crt1.o
 .debug_frame   0x0000000000000050       0x20 build/obj/vectors.o
 .debug_frame   0x0000000000000070       0xfc build/obj/chsys.o
 .debug_frame   0x000000000000016c       0x68 build/obj/chvt.o
 .debug_frame   0x00000000000001d4      0x164 build/obj/chschd.o
 .debug_frame   0x0000000000000338      0x274 build/obj/chthreads.o
 .debug_frame   0x00000000000005ac       0xc8 build/obj/chtm.o
 .debug_frame   0x0000000000000674       0x3c build/obj/chregistry.o
 .debug_frame   0x00000000000006b0       0xf8 build/obj/chmtx.o
 .debug_frame   0x00000000000007a8      0x1d0 build/obj/chevents.o
 .debug_frame   0x0000000000000978      0x168 build/obj/chqueues.o
 .debug_frame   0x0000000000000ae0       0x68 build/obj/chmemcore.o
 .debug_frame   0x0000000000000b48       0xc0 build/obj/chheap.o
 .debug_frame   0x0000000000000c08       0x3c build/obj/chcore_v7m.o
 .debug_frame   0x0000000000000c44       0x30 build/obj/hal.o
 .debug_frame   0x0000000000000c74       0x60 build/obj/st.o
 .debug_frame   0x0000000000000cd4      0x104 build/obj/can.o
 .debug_frame   0x0000000000000dd8       0xe8 build/obj/i2c.o
 .debug_frame   0x0000000000000ec0       0xf4 build/obj/icu.o
 .debug_frame   0x0000000000000fb4      0x1d8 build/obj/serial_usb.o
 .debug_frame   0x000000000000118c      0x148 build/obj/uart.o
 .debug_frame   0x00000000000012d4      0x234 build/obj/usb.o
 .debug_frame   0x0000000000001508       0x68 build/obj/nvic.o
 .debug_frame   0x0000000000001570      0x274 build/obj/stm32_dma.o
 .debug_frame   0x00000000000017e4       0x3c build/obj/hal_lld.o
 .debug_frame   0x0000000000001820       0x40 build/obj/st_lld.o
 .debug_frame   0x0000000000001860      0x1d4 build/obj/can_lld.o
 .debug_frame   0x0000000000001a34       0x70 build/obj/pal_lld.o
 .debug_frame   0x0000000000001aa4      0x1d0 build/obj/i2c_lld.o
 .debug_frame   0x0000000000001c74      0x2c4 build/obj/usb_lld.o
 .debug_frame   0x0000000000001f38      0x130 build/obj/icu_lld.o
 .debug_frame   0x0000000000002068      0x1d4 build/obj/uart_lld.o
 .debug_frame   0x000000000000223c       0x30 build/obj/board.o
 .debug_frame   0x000000000000226c       0x98 build/obj/syscalls.o
 .debug_frame   0x0000000000002304       0x90 build/obj/bldc.o
 .debug_frame   0x0000000000002394      0x45c build/obj/mcpwm.o
 .debug_frame   0x00000000000027f0       0xe4 build/obj/usb_uart.o
 .debug_frame   0x00000000000028d4       0x70 build/obj/irq_handlers.o
 .debug_frame   0x0000000000002944       0x30 build/obj/comm_usb.o
 .debug_frame   0x0000000000002974       0xcc build/obj/utils.o
 .debug_frame   0x0000000000002a40       0xf0 build/obj/conf_general.o
 .debug_frame   0x0000000000002b30      0x110 build/obj/eeprom.o
 .debug_frame   0x0000000000002c40       0x90 build/obj/flash_helper.o
 .debug_frame   0x0000000000002cd0       0xfc build/obj/hw_oroca.o
 .debug_frame   0x0000000000002dcc       0x7c build/obj/misc.o
 .debug_frame   0x0000000000002e48      0x308 build/obj/stm32f4xx_adc.o
 .debug_frame   0x0000000000003150      0x1d0 build/obj/stm32f4xx_dma.o
 .debug_frame   0x0000000000003320       0xc4 build/obj/stm32f4xx_exti.o
 .debug_frame   0x00000000000033e4      0x380 build/obj/stm32f4xx_flash.o
 .debug_frame   0x0000000000003764      0x2b8 build/obj/stm32f4xx_rcc.o
 .debug_frame   0x0000000000003a1c      0x770 build/obj/stm32f4xx_tim.o
 .debug_frame   0x000000000000418c       0xa8 build/obj/stm32f4xx_wwdg.o
 .debug_frame   0x0000000000004234       0x4c build/obj/main.o
 .debug_frame   0x0000000000004280       0x34 /Users/imac/Downloads/gcc-arm-none-eabi-4_9-2015q2/bin/../lib/gcc/arm-none-eabi/4.9.3/../../../../arm-none-eabi/lib/armv7e-m/fpu/libm.a(lib_a-sf_cos.o)
 .debug_frame   0x00000000000042b4       0x34 /Users/imac/Downloads/gcc-arm-none-eabi-4_9-2015q2/bin/../lib/gcc/arm-none-eabi/4.9.3/../../../../arm-none-eabi/lib/armv7e-m/fpu/libm.a(lib_a-sf_sin.o)
 .debug_frame   0x00000000000042e8       0x50 /Users/imac/Downloads/gcc-arm-none-eabi-4_9-2015q2/bin/../lib/gcc/arm-none-eabi/4.9.3/../../../../arm-none-eabi/lib/armv7e-m/fpu/libm.a(lib_a-wf_sqrt.o)
 .debug_frame   0x0000000000004338       0x3c /Users/imac/Downloads/gcc-arm-none-eabi-4_9-2015q2/bin/../lib/gcc/arm-none-eabi/4.9.3/../../../../arm-none-eabi/lib/armv7e-m/fpu/libm.a(lib_a-ef_rem_pio2.o)
 .debug_frame   0x0000000000004374       0x3c /Users/imac/Downloads/gcc-arm-none-eabi-4_9-2015q2/bin/../lib/gcc/arm-none-eabi/4.9.3/../../../../arm-none-eabi/lib/armv7e-m/fpu/libm.a(lib_a-ef_sqrt.o)
 .debug_frame   0x00000000000043b0       0x20 /Users/imac/Downloads/gcc-arm-none-eabi-4_9-2015q2/bin/../lib/gcc/arm-none-eabi/4.9.3/../../../../arm-none-eabi/lib/armv7e-m/fpu/libm.a(lib_a-kf_cos.o)
 .debug_frame   0x00000000000043d0       0x5c /Users/imac/Downloads/gcc-arm-none-eabi-4_9-2015q2/bin/../lib/gcc/arm-none-eabi/4.9.3/../../../../arm-none-eabi/lib/armv7e-m/fpu/libm.a(lib_a-kf_rem_pio2.o)
 .debug_frame   0x000000000000442c       0x20 /Users/imac/Downloads/gcc-arm-none-eabi-4_9-2015q2/bin/../lib/gcc/arm-none-eabi/4.9.3/../../../../arm-none-eabi/lib/armv7e-m/fpu/libm.a(lib_a-kf_sin.o)
 .debug_frame   0x000000000000444c       0x20 /Users/imac/Downloads/gcc-arm-none-eabi-4_9-2015q2/bin/../lib/gcc/arm-none-eabi/4.9.3/../../../../arm-none-eabi/lib/armv7e-m/fpu/libm.a(lib_a-s_matherr.o)
 .debug_frame   0x000000000000446c       0x20 /Users/imac/Downloads/gcc-arm-none-eabi-4_9-2015q2/bin/../lib/gcc/arm-none-eabi/4.9.3/../../../../arm-none-eabi/lib/armv7e-m/fpu/libm.a(lib_a-sf_fabs.o)
 .debug_frame   0x000000000000448c       0x20 /Users/imac/Downloads/gcc-arm-none-eabi-4_9-2015q2/bin/../lib/gcc/arm-none-eabi/4.9.3/../../../../arm-none-eabi/lib/armv7e-m/fpu/libm.a(lib_a-sf_floor.o)
 .debug_frame   0x00000000000044ac       0x20 /Users/imac/Downloads/gcc-arm-none-eabi-4_9-2015q2/bin/../lib/gcc/arm-none-eabi/4.9.3/../../../../arm-none-eabi/lib/armv7e-m/fpu/libm.a(lib_a-sf_fpclassify.o)
 .debug_frame   0x00000000000044cc       0x44 /Users/imac/Downloads/gcc-arm-none-eabi-4_9-2015q2/bin/../lib/gcc/arm-none-eabi/4.9.3/../../../../arm-none-eabi/lib/armv7e-m/fpu/libm.a(lib_a-sf_scalbn.o)
 .debug_frame   0x0000000000004510       0x20 /Users/imac/Downloads/gcc-arm-none-eabi-4_9-2015q2/bin/../lib/gcc/arm-none-eabi/4.9.3/../../../../arm-none-eabi/lib/armv7e-m/fpu/libm.a(lib_a-sf_copysign.o)
 .debug_frame   0x0000000000004530       0x20 /Users/imac/Downloads/gcc-arm-none-eabi-4_9-2015q2/bin/../lib/gcc/arm-none-eabi/4.9.3/../../../../arm-none-eabi/lib/armv7e-m/fpu/libg.a(lib_a-errno.o)
 .debug_frame   0x0000000000004550       0x34 /Users/imac/Downloads/gcc-arm-none-eabi-4_9-2015q2/bin/../lib/gcc/arm-none-eabi/4.9.3/../../../../arm-none-eabi/lib/armv7e-m/fpu/libg.a(lib_a-memset.o)
 .debug_frame   0x0000000000004584       0x60 /Users/imac/Downloads/gcc-arm-none-eabi-4_9-2015q2/bin/../lib/gcc/arm-none-eabi/4.9.3/../../../../arm-none-eabi/lib/armv7e-m/fpu/libg.a(lib_a-vsnprintf.o)
 .debug_frame   0x00000000000045e4       0x40 /Users/imac/Downloads/gcc-arm-none-eabi-4_9-2015q2/bin/../lib/gcc/arm-none-eabi/4.9.3/../../../../arm-none-eabi/lib/armv7e-m/fpu/libg.a(lib_a-svfprintf.o)
 .debug_frame   0x0000000000004624       0x88 /Users/imac/Downloads/gcc-arm-none-eabi-4_9-2015q2/bin/../lib/gcc/arm-none-eabi/4.9.3/../../../../arm-none-eabi/lib/armv7e-m/fpu/libg.a(lib_a-dtoa.o)
 .debug_frame   0x00000000000046ac       0x9c /Users/imac/Downloads/gcc-arm-none-eabi-4_9-2015q2/bin/../lib/gcc/arm-none-eabi/4.9.3/../../../../arm-none-eabi/lib/armv7e-m/fpu/libg.a(lib_a-locale.o)
 .debug_frame   0x0000000000004748       0x58 /Users/imac/Downloads/gcc-arm-none-eabi-4_9-2015q2/bin/../lib/gcc/arm-none-eabi/4.9.3/../../../../arm-none-eabi/lib/armv7e-m/fpu/libg.a(lib_a-mallocr.o)
 .debug_frame   0x00000000000047a0       0x3c /Users/imac/Downloads/gcc-arm-none-eabi-4_9-2015q2/bin/../lib/gcc/arm-none-eabi/4.9.3/../../../../arm-none-eabi/lib/armv7e-m/fpu/libg.a(lib_a-memchr.o)
 .debug_frame   0x00000000000047dc       0x30 /Users/imac/Downloads/gcc-arm-none-eabi-4_9-2015q2/bin/../lib/gcc/arm-none-eabi/4.9.3/../../../../arm-none-eabi/lib/armv7e-m/fpu/libg.a(lib_a-mlock.o)
 .debug_frame   0x000000000000480c      0x268 /Users/imac/Downloads/gcc-arm-none-eabi-4_9-2015q2/bin/../lib/gcc/arm-none-eabi/4.9.3/../../../../arm-none-eabi/lib/armv7e-m/fpu/libg.a(lib_a-mprec.o)
 .debug_frame   0x0000000000004a74       0x34 /Users/imac/Downloads/gcc-arm-none-eabi-4_9-2015q2/bin/../lib/gcc/arm-none-eabi/4.9.3/../../../../arm-none-eabi/lib/armv7e-m/fpu/libg.a(lib_a-s_fpclassify.o)
 .debug_frame   0x0000000000004aa8       0x20 /Users/imac/Downloads/gcc-arm-none-eabi-4_9-2015q2/bin/../lib/gcc/arm-none-eabi/4.9.3/../../../../arm-none-eabi/lib/armv7e-m/fpu/libg.a(lib_a-strlen.o)
 .debug_frame   0x0000000000004ac8       0x78 /Users/imac/Downloads/gcc-arm-none-eabi-4_9-2015q2/bin/../lib/gcc/arm-none-eabi/4.9.3/../../../../arm-none-eabi/lib/armv7e-m/fpu/libg.a(lib_a-svfiprintf.o)
 .debug_frame   0x0000000000004b40       0x28 /Users/imac/Downloads/gcc-arm-none-eabi-4_9-2015q2/bin/../lib/gcc/arm-none-eabi/4.9.3/../../../../arm-none-eabi/lib/armv7e-m/fpu/libg.a(lib_a-callocr.o)
 .debug_frame   0x0000000000004b68       0x74 /Users/imac/Downloads/gcc-arm-none-eabi-4_9-2015q2/bin/../lib/gcc/arm-none-eabi/4.9.3/../../../../arm-none-eabi/lib/armv7e-m/fpu/libg.a(lib_a-freer.o)
 .debug_frame   0x0000000000004bdc       0x30 /Users/imac/Downloads/gcc-arm-none-eabi-4_9-2015q2/bin/../lib/gcc/arm-none-eabi/4.9.3/../../../../arm-none-eabi/lib/armv7e-m/fpu/libg.a(lib_a-memmove.o)
 .debug_frame   0x0000000000004c0c       0x60 /Users/imac/Downloads/gcc-arm-none-eabi-4_9-2015q2/bin/../lib/gcc/arm-none-eabi/4.9.3/../../../../arm-none-eabi/lib/armv7e-m/fpu/libg.a(lib_a-reallocr.o)
 .debug_frame   0x0000000000004c6c       0x28 /Users/imac/Downloads/gcc-arm-none-eabi-4_9-2015q2/bin/../lib/gcc/arm-none-eabi/4.9.3/armv7e-m/fpu/libgcc.a(_aeabi_uldivmod.o)
 .debug_frame   0x0000000000004c94       0x50 /Users/imac/Downloads/gcc-arm-none-eabi-4_9-2015q2/bin/../lib/gcc/arm-none-eabi/4.9.3/armv7e-m/fpu/libgcc.a(bpabi.o)
 .debug_frame   0x0000000000004ce4       0x34 /Users/imac/Downloads/gcc-arm-none-eabi-4_9-2015q2/bin/../lib/gcc/arm-none-eabi/4.9.3/armv7e-m/fpu/libgcc.a(_divdi3.o)
 .debug_frame   0x0000000000004d18       0x30 /Users/imac/Downloads/gcc-arm-none-eabi-4_9-2015q2/bin/../lib/gcc/arm-none-eabi/4.9.3/armv7e-m/fpu/libgcc.a(_udivdi3.o)

.debug_loc      0x0000000000000000     0xd8ff
 .debug_loc     0x0000000000000000      0x303 build/obj/chsys.o
 .debug_loc     0x0000000000000303       0x9f build/obj/chvt.o
 .debug_loc     0x00000000000003a2      0x371 build/obj/chschd.o
 .debug_loc     0x0000000000000713      0xa5a build/obj/chthreads.o
 .debug_loc     0x000000000000116d       0xb7 build/obj/chtm.o
 .debug_loc     0x0000000000001224       0x3f build/obj/chregistry.o
 .debug_loc     0x0000000000001263      0x5d6 build/obj/chmtx.o
 .debug_loc     0x0000000000001839      0x61d build/obj/chevents.o
 .debug_loc     0x0000000000001e56      0x653 build/obj/chqueues.o
 .debug_loc     0x00000000000024a9       0xb0 build/obj/chmemcore.o
 .debug_loc     0x0000000000002559      0x387 build/obj/chheap.o
 .debug_loc     0x00000000000028e0       0xc7 build/obj/chcore_v7m.o
 .debug_loc     0x00000000000029a7      0x2bc build/obj/can.o
 .debug_loc     0x0000000000002c63      0x29a build/obj/i2c.o
 .debug_loc     0x0000000000002efd       0xf9 build/obj/icu.o
 .debug_loc     0x0000000000002ff6      0x92d build/obj/serial_usb.o
 .debug_loc     0x0000000000003923      0x335 build/obj/uart.o
 .debug_loc     0x0000000000003c58      0xde1 build/obj/usb.o
 .debug_loc     0x0000000000004a39       0xee build/obj/nvic.o
 .debug_loc     0x0000000000004b27      0x276 build/obj/stm32_dma.o
 .debug_loc     0x0000000000004d9d      0x636 build/obj/can_lld.o
 .debug_loc     0x00000000000053d3      0x129 build/obj/pal_lld.o
 .debug_loc     0x00000000000054fc      0xaa9 build/obj/i2c_lld.o
 .debug_loc     0x0000000000005fa5     0x112c build/obj/usb_lld.o
 .debug_loc     0x00000000000070d1      0x2a3 build/obj/icu_lld.o
 .debug_loc     0x0000000000007374      0x3ef build/obj/uart_lld.o
 .debug_loc     0x0000000000007763      0x183 build/obj/syscalls.o
 .debug_loc     0x00000000000078e6       0x8c build/obj/bldc.o
 .debug_loc     0x0000000000007972      0x487 build/obj/mcpwm.o
 .debug_loc     0x0000000000007df9      0x161 build/obj/usb_uart.o
 .debug_loc     0x0000000000007f5a      0x296 build/obj/utils.o
 .debug_loc     0x00000000000081f0      0x2c9 build/obj/conf_general.o
 .debug_loc     0x00000000000084b9      0x8a1 build/obj/eeprom.o
 .debug_loc     0x0000000000008d5a      0x24c build/obj/flash_helper.o
 .debug_loc     0x0000000000008fa6       0x41 build/obj/hw_oroca.o
 .debug_loc     0x0000000000008fe7      0x161 build/obj/misc.o
 .debug_loc     0x0000000000009148      0xa81 build/obj/stm32f4xx_adc.o
 .debug_loc     0x0000000000009bc9      0x480 build/obj/stm32f4xx_dma.o
 .debug_loc     0x000000000000a049      0x1a1 build/obj/stm32f4xx_exti.o
 .debug_loc     0x000000000000a1ea      0x8b7 build/obj/stm32f4xx_flash.o
 .debug_loc     0x000000000000aaa1      0x9f2 build/obj/stm32f4xx_rcc.o
 .debug_loc     0x000000000000b493     0x239b build/obj/stm32f4xx_tim.o
 .debug_loc     0x000000000000d82e       0xd1 build/obj/stm32f4xx_wwdg.o

Cross Reference Table

Symbol                                            File
ADC_AnalogWatchdogCmd                             build/obj/stm32f4xx_adc.o
ADC_AnalogWatchdogSingleChannelConfig             build/obj/stm32f4xx_adc.o
ADC_AnalogWatchdogThresholdsConfig                build/obj/stm32f4xx_adc.o
ADC_AutoInjectedConvCmd                           build/obj/stm32f4xx_adc.o
ADC_ClearFlag                                     build/obj/stm32f4xx_adc.o
ADC_ClearITPendingBit                             build/obj/stm32f4xx_adc.o
                                                  build/obj/irq_handlers.o
ADC_Cmd                                           build/obj/stm32f4xx_adc.o
                                                  build/obj/mcpwm.o
ADC_CommonInit                                    build/obj/stm32f4xx_adc.o
                                                  build/obj/mcpwm.o
ADC_CommonStructInit                              build/obj/stm32f4xx_adc.o
ADC_ContinuousModeCmd                             build/obj/stm32f4xx_adc.o
ADC_DMACmd                                        build/obj/stm32f4xx_adc.o
ADC_DMARequestAfterLastTransferCmd                build/obj/stm32f4xx_adc.o
ADC_DeInit                                        build/obj/stm32f4xx_adc.o
ADC_DiscModeChannelCountConfig                    build/obj/stm32f4xx_adc.o
ADC_DiscModeCmd                                   build/obj/stm32f4xx_adc.o
ADC_EOCOnEachRegularChannelCmd                    build/obj/stm32f4xx_adc.o
ADC_ExternalTrigInjectedConvConfig                build/obj/stm32f4xx_adc.o
                                                  build/obj/mcpwm.o
ADC_ExternalTrigInjectedConvEdgeConfig            build/obj/stm32f4xx_adc.o
                                                  build/obj/mcpwm.o
ADC_GetConversionValue                            build/obj/stm32f4xx_adc.o
ADC_GetFlagStatus                                 build/obj/stm32f4xx_adc.o
ADC_GetITStatus                                   build/obj/stm32f4xx_adc.o
ADC_GetInjectedConversionValue                    build/obj/stm32f4xx_adc.o
                                                  build/obj/mcpwm.o
ADC_GetMultiModeConversionValue                   build/obj/stm32f4xx_adc.o
ADC_GetSoftwareStartConvStatus                    build/obj/stm32f4xx_adc.o
ADC_GetSoftwareStartInjectedConvCmdStatus         build/obj/stm32f4xx_adc.o
ADC_ITConfig                                      build/obj/stm32f4xx_adc.o
                                                  build/obj/mcpwm.o
ADC_Init                                          build/obj/stm32f4xx_adc.o
                                                  build/obj/mcpwm.o
ADC_InjectedChannelConfig                         build/obj/stm32f4xx_adc.o
                                                  build/obj/hw_oroca.o
ADC_InjectedDiscModeCmd                           build/obj/stm32f4xx_adc.o
ADC_InjectedSequencerLengthConfig                 build/obj/stm32f4xx_adc.o
                                                  build/obj/mcpwm.o
ADC_MultiModeDMARequestAfterLastTransferCmd       build/obj/stm32f4xx_adc.o
                                                  build/obj/mcpwm.o
ADC_RegularChannelConfig                          build/obj/stm32f4xx_adc.o
                                                  build/obj/hw_oroca.o
ADC_SetInjectedOffset                             build/obj/stm32f4xx_adc.o
ADC_SoftwareStartConv                             build/obj/stm32f4xx_adc.o
ADC_SoftwareStartInjectedConv                     build/obj/stm32f4xx_adc.o
ADC_StructInit                                    build/obj/stm32f4xx_adc.o
ADC_TempSensorVrefintCmd                          build/obj/stm32f4xx_adc.o
ADC_VBATCmd                                       build/obj/stm32f4xx_adc.o
ADC_Value                                         build/obj/mcpwm.o
AccumTheta                                        build/obj/mcpwm.o
AccumThetaCnt                                     build/obj/mcpwm.o
BusFault_Handler                                  build/obj/vectors.o
CAND1                                             build/obj/can_lld.o
CalcPI                                            build/obj/mcpwm.o
CalcRefVec                                        build/obj/mcpwm.o
CalcSVGen                                         build/obj/mcpwm.o
CalcTimes                                         build/obj/mcpwm.o
CalculateParkAngle                                build/obj/mcpwm.o
Ch                                                build/obj/bldc.o
ClarkePark                                        build/obj/mcpwm.o
CtrlParm                                          build/obj/mcpwm.o
DMA_ClearFlag                                     build/obj/stm32f4xx_dma.o
DMA_ClearITPendingBit                             build/obj/stm32f4xx_dma.o
DMA_Cmd                                           build/obj/stm32f4xx_dma.o
                                                  build/obj/mcpwm.o
DMA_DeInit                                        build/obj/stm32f4xx_dma.o
DMA_DoubleBufferModeCmd                           build/obj/stm32f4xx_dma.o
DMA_DoubleBufferModeConfig                        build/obj/stm32f4xx_dma.o
DMA_FlowControllerConfig                          build/obj/stm32f4xx_dma.o
DMA_GetCmdStatus                                  build/obj/stm32f4xx_dma.o
DMA_GetCurrDataCounter                            build/obj/stm32f4xx_dma.o
DMA_GetCurrentMemoryTarget                        build/obj/stm32f4xx_dma.o
DMA_GetFIFOStatus                                 build/obj/stm32f4xx_dma.o
DMA_GetFlagStatus                                 build/obj/stm32f4xx_dma.o
DMA_GetITStatus                                   build/obj/stm32f4xx_dma.o
DMA_ITConfig                                      build/obj/stm32f4xx_dma.o
                                                  build/obj/mcpwm.o
DMA_Init                                          build/obj/stm32f4xx_dma.o
                                                  build/obj/mcpwm.o
DMA_MemoryTargetConfig                            build/obj/stm32f4xx_dma.o
DMA_PeriphIncOffsetSizeConfig                     build/obj/stm32f4xx_dma.o
DMA_SetCurrDataCounter                            build/obj/stm32f4xx_dma.o
DMA_StructInit                                    build/obj/stm32f4xx_dma.o
DataVar                                           build/obj/eeprom.o
DebounceDelay                                     build/obj/mcpwm.o
DebugMon_Handler                                  build/obj/vectors.o
DoControl                                         build/obj/mcpwm.o
Drive_Status                                      build/obj/mcpwm.o
EE_Init                                           build/obj/eeprom.o
                                                  build/obj/conf_general.o
EE_ReadVariable                                   build/obj/eeprom.o
                                                  build/obj/conf_general.o
EE_WriteVariable                                  build/obj/eeprom.o
                                                  build/obj/conf_general.o
EXTI_ClearFlag                                    build/obj/stm32f4xx_exti.o
EXTI_ClearITPendingBit                            build/obj/stm32f4xx_exti.o
                                                  build/obj/irq_handlers.o
EXTI_DeInit                                       build/obj/stm32f4xx_exti.o
EXTI_GenerateSWInterrupt                          build/obj/stm32f4xx_exti.o
EXTI_GetFlagStatus                                build/obj/stm32f4xx_exti.o
EXTI_GetITStatus                                  build/obj/stm32f4xx_exti.o
                                                  build/obj/irq_handlers.o
EXTI_Init                                         build/obj/stm32f4xx_exti.o
EXTI_StructInit                                   build/obj/stm32f4xx_exti.o
FLASH_ClearFlag                                   build/obj/stm32f4xx_flash.o
                                                  build/obj/flash_helper.o
                                                  build/obj/conf_general.o
FLASH_DataCacheCmd                                build/obj/stm32f4xx_flash.o
FLASH_DataCacheReset                              build/obj/stm32f4xx_flash.o
FLASH_EraseAllBank1Sectors                        build/obj/stm32f4xx_flash.o
FLASH_EraseAllBank2Sectors                        build/obj/stm32f4xx_flash.o
FLASH_EraseAllSectors                             build/obj/stm32f4xx_flash.o
FLASH_EraseSector                                 build/obj/stm32f4xx_flash.o
                                                  build/obj/flash_helper.o
                                                  build/obj/eeprom.o
FLASH_GetFlagStatus                               build/obj/stm32f4xx_flash.o
FLASH_GetStatus                                   build/obj/stm32f4xx_flash.o
FLASH_ITConfig                                    build/obj/stm32f4xx_flash.o
FLASH_InstructionCacheCmd                         build/obj/stm32f4xx_flash.o
FLASH_InstructionCacheReset                       build/obj/stm32f4xx_flash.o
FLASH_Lock                                        build/obj/stm32f4xx_flash.o
FLASH_OB_BORConfig                                build/obj/stm32f4xx_flash.o
FLASH_OB_BootConfig                               build/obj/stm32f4xx_flash.o
FLASH_OB_GetBOR                                   build/obj/stm32f4xx_flash.o
FLASH_OB_GetPCROP                                 build/obj/stm32f4xx_flash.o
FLASH_OB_GetPCROP1                                build/obj/stm32f4xx_flash.o
FLASH_OB_GetRDP                                   build/obj/stm32f4xx_flash.o
FLASH_OB_GetUser                                  build/obj/stm32f4xx_flash.o
FLASH_OB_GetWRP                                   build/obj/stm32f4xx_flash.o
FLASH_OB_GetWRP1                                  build/obj/stm32f4xx_flash.o
FLASH_OB_Launch                                   build/obj/stm32f4xx_flash.o
FLASH_OB_Lock                                     build/obj/stm32f4xx_flash.o
FLASH_OB_PCROP1Config                             build/obj/stm32f4xx_flash.o
FLASH_OB_PCROPConfig                              build/obj/stm32f4xx_flash.o
FLASH_OB_PCROPSelectionConfig                     build/obj/stm32f4xx_flash.o
FLASH_OB_RDPConfig                                build/obj/stm32f4xx_flash.o
FLASH_OB_Unlock                                   build/obj/stm32f4xx_flash.o
FLASH_OB_UserConfig                               build/obj/stm32f4xx_flash.o
FLASH_OB_WRP1Config                               build/obj/stm32f4xx_flash.o
FLASH_OB_WRPConfig                                build/obj/stm32f4xx_flash.o
FLASH_PrefetchBufferCmd                           build/obj/stm32f4xx_flash.o
FLASH_ProgramByte                                 build/obj/stm32f4xx_flash.o
                                                  build/obj/flash_helper.o
FLASH_ProgramDoubleWord                           build/obj/stm32f4xx_flash.o
FLASH_ProgramHalfWord                             build/obj/stm32f4xx_flash.o
                                                  build/obj/eeprom.o
FLASH_ProgramWord                                 build/obj/stm32f4xx_flash.o
FLASH_SetLatency                                  build/obj/stm32f4xx_flash.o
FLASH_Unlock                                      build/obj/stm32f4xx_flash.o
                                                  build/obj/flash_helper.o
                                                  build/obj/conf_general.o
FLASH_WaitForLastOperation                        build/obj/stm32f4xx_flash.o
FWInit                                            build/obj/mcpwm.o
Fault_seq                                         build/obj/mcpwm.o
FdWeakParm                                        build/obj/mcpwm.o
FieldWeakening                                    build/obj/mcpwm.o
HallPLLA                                          build/obj/mcpwm.o
HallPLLA1                                         build/obj/mcpwm.o
HallPLLA_filtered                                 build/obj/mcpwm.o
HallPLLA_old                                      build/obj/mcpwm.o
HallPLLB                                          build/obj/mcpwm.o
HallPLLB_filtered                                 build/obj/mcpwm.o
HallPLLB_old                                      build/obj/mcpwm.o
HallPLLde                                         build/obj/mcpwm.o
HallPLLde1                                        build/obj/mcpwm.o
HallPLLdef                                        build/obj/mcpwm.o
HallPLLdef1                                       build/obj/mcpwm.o
HallPLLlead                                       build/obj/mcpwm.o
HallPLLlead1                                      build/obj/mcpwm.o
HallPLLlead2                                      build/obj/mcpwm.o
HallPLLqe                                         build/obj/mcpwm.o
Hall_CosSin                                       build/obj/mcpwm.o
Hall_SinCos                                       build/obj/mcpwm.o
HardFault_Handler                                 build/obj/vectors.o
I2CD2                                             build/obj/i2c_lld.o
                                                  build/obj/hw_oroca.o
ICUD3                                             build/obj/icu_lld.o
                                                  build/obj/servo_dec.o
InitMeasCompCurr                                  build/obj/mcpwm.o
InitPI                                            build/obj/mcpwm.o
Init_Charge_Time                                  build/obj/mcpwm.o
Init_Charge_cnt                                   build/obj/mcpwm.o
Init_Charge_cnt_EN                                build/obj/mcpwm.o
InvPark                                           build/obj/mcpwm.o
Ipll                                              build/obj/mcpwm.o
Kpll                                              build/obj/mcpwm.o
MeasCompCurr                                      build/obj/mcpwm.o
MemManage_Handler                                 build/obj/vectors.o
MotorParm                                         build/obj/mcpwm.o
NMI_Handler                                       build/obj/vectors.o
NVIC_Init                                         build/obj/misc.o
                                                  build/obj/mcpwm.o
NVIC_PriorityGroupConfig                          build/obj/misc.o
NVIC_SetVectorTable                               build/obj/misc.o
NVIC_SystemLPConfig                               build/obj/misc.o
PIParmD                                           build/obj/mcpwm.o
PIParmPLL                                         build/obj/mcpwm.o
PIParmQ                                           build/obj/mcpwm.o
PIParmW                                           build/obj/mcpwm.o
ParkParm                                          build/obj/mcpwm.o
PendSV_Handler                                    build/obj/vectors.o
PrevTheta                                         build/obj/mcpwm.o
RCC_AHB1PeriphClockCmd                            build/obj/stm32f4xx_rcc.o
                                                  build/obj/hw_oroca.o
                                                  build/obj/mcpwm.o
RCC_AHB1PeriphClockLPModeCmd                      build/obj/stm32f4xx_rcc.o
RCC_AHB1PeriphResetCmd                            build/obj/stm32f4xx_rcc.o
RCC_AHB2PeriphClockCmd                            build/obj/stm32f4xx_rcc.o
RCC_AHB2PeriphClockLPModeCmd                      build/obj/stm32f4xx_rcc.o
RCC_AHB2PeriphResetCmd                            build/obj/stm32f4xx_rcc.o
RCC_APB1PeriphClockCmd                            build/obj/stm32f4xx_rcc.o
                                                  build/obj/flash_helper.o
                                                  build/obj/conf_general.o
                                                  build/obj/mcpwm.o
RCC_APB1PeriphClockLPModeCmd                      build/obj/stm32f4xx_rcc.o
RCC_APB1PeriphResetCmd                            build/obj/stm32f4xx_rcc.o
                                                  build/obj/stm32f4xx_wwdg.o
                                                  build/obj/stm32f4xx_tim.o
RCC_APB2PeriphClockCmd                            build/obj/stm32f4xx_rcc.o
                                                  build/obj/mcpwm.o
RCC_APB2PeriphClockLPModeCmd                      build/obj/stm32f4xx_rcc.o
RCC_APB2PeriphResetCmd                            build/obj/stm32f4xx_rcc.o
                                                  build/obj/stm32f4xx_tim.o
                                                  build/obj/stm32f4xx_syscfg.o
                                                  build/obj/stm32f4xx_adc.o
RCC_AdjustHSICalibrationValue                     build/obj/stm32f4xx_rcc.o
RCC_BackupResetCmd                                build/obj/stm32f4xx_rcc.o
RCC_ClearFlag                                     build/obj/stm32f4xx_rcc.o
RCC_ClearITPendingBit                             build/obj/stm32f4xx_rcc.o
RCC_ClockSecuritySystemCmd                        build/obj/stm32f4xx_rcc.o
RCC_DeInit                                        build/obj/stm32f4xx_rcc.o
RCC_GetClocksFreq                                 build/obj/stm32f4xx_rcc.o
RCC_GetFlagStatus                                 build/obj/stm32f4xx_rcc.o
RCC_GetITStatus                                   build/obj/stm32f4xx_rcc.o
RCC_GetSYSCLKSource                               build/obj/stm32f4xx_rcc.o
RCC_HCLKConfig                                    build/obj/stm32f4xx_rcc.o
RCC_HSEConfig                                     build/obj/stm32f4xx_rcc.o
RCC_HSICmd                                        build/obj/stm32f4xx_rcc.o
RCC_ITConfig                                      build/obj/stm32f4xx_rcc.o
RCC_LSEConfig                                     build/obj/stm32f4xx_rcc.o
RCC_LSEModeConfig                                 build/obj/stm32f4xx_rcc.o
RCC_LSICmd                                        build/obj/stm32f4xx_rcc.o
RCC_MCO1Config                                    build/obj/stm32f4xx_rcc.o
RCC_MCO2Config                                    build/obj/stm32f4xx_rcc.o
RCC_PCLK1Config                                   build/obj/stm32f4xx_rcc.o
RCC_PCLK2Config                                   build/obj/stm32f4xx_rcc.o
RCC_PLLCmd                                        build/obj/stm32f4xx_rcc.o
RCC_PLLI2SCmd                                     build/obj/stm32f4xx_rcc.o
RCC_PLLSAICmd                                     build/obj/stm32f4xx_rcc.o
RCC_RTCCLKCmd                                     build/obj/stm32f4xx_rcc.o
RCC_RTCCLKConfig                                  build/obj/stm32f4xx_rcc.o
RCC_SYSCLKConfig                                  build/obj/stm32f4xx_rcc.o
RCC_TIMCLKPresConfig                              build/obj/stm32f4xx_rcc.o
RCC_WaitForHSEStartUp                             build/obj/stm32f4xx_rcc.o
Reset_Handler                                     build/obj/crt0_v7m.o
SDU1                                              build/obj/usb_uart.o
SMCInit                                           build/obj/mcpwm.o
SMC_HallSensor_Estimation                         build/obj/mcpwm.o
SMC_Position_Estimation                           build/obj/mcpwm.o
SVC_Handler                                       build/obj/chcore_v7m.o
                                                  build/obj/vectors.o
SVGenParm                                         build/obj/mcpwm.o
SYSCFG_CompensationCellCmd                        build/obj/stm32f4xx_syscfg.o
SYSCFG_DeInit                                     build/obj/stm32f4xx_syscfg.o
SYSCFG_ETH_MediaInterfaceConfig                   build/obj/stm32f4xx_syscfg.o
SYSCFG_EXTILineConfig                             build/obj/stm32f4xx_syscfg.o
SYSCFG_GetCompensationCellStatus                  build/obj/stm32f4xx_syscfg.o
SYSCFG_MemoryRemapConfig                          build/obj/stm32f4xx_syscfg.o
SYSCFG_MemorySwappingBank                         build/obj/stm32f4xx_syscfg.o
Seq                                               build/obj/mcpwm.o
SetupControlParameters                            build/obj/mcpwm.o
SetupParm                                         build/obj/mcpwm.o
SpeedReference                                    build/obj/mcpwm.o
Startup_Lock                                      build/obj/mcpwm.o
Startup_Ramp                                      build/obj/mcpwm.o
State_Index                                       build/obj/mcpwm.o
SysTick_CLKSourceConfig                           build/obj/misc.o
SysTick_Handler                                   build/obj/st_lld.o
                                                  build/obj/vectors.o
SystemCoreClock                                   build/obj/hal_lld.o
TIM_ARRPreloadConfig                              build/obj/stm32f4xx_tim.o
                                                  build/obj/mcpwm.o
TIM_BDTRConfig                                    build/obj/stm32f4xx_tim.o
                                                  build/obj/mcpwm.o
TIM_BDTRStructInit                                build/obj/stm32f4xx_tim.o
TIM_CCPreloadControl                              build/obj/stm32f4xx_tim.o
                                                  build/obj/mcpwm.o
TIM_CCxCmd                                        build/obj/stm32f4xx_tim.o
                                                  build/obj/mcpwm.o
TIM_CCxNCmd                                       build/obj/stm32f4xx_tim.o
                                                  build/obj/mcpwm.o
TIM_ClearFlag                                     build/obj/stm32f4xx_tim.o
TIM_ClearITPendingBit                             build/obj/stm32f4xx_tim.o
                                                  build/obj/irq_handlers.o
TIM_ClearOC1Ref                                   build/obj/stm32f4xx_tim.o
TIM_ClearOC2Ref                                   build/obj/stm32f4xx_tim.o
TIM_ClearOC3Ref                                   build/obj/stm32f4xx_tim.o
TIM_ClearOC4Ref                                   build/obj/stm32f4xx_tim.o
TIM_Cmd                                           build/obj/stm32f4xx_tim.o
                                                  build/obj/mcpwm.o
TIM_CounterModeConfig                             build/obj/stm32f4xx_tim.o
TIM_CtrlPWMOutputs                                build/obj/stm32f4xx_tim.o
                                                  build/obj/mcpwm.o
TIM_DMACmd                                        build/obj/stm32f4xx_tim.o
TIM_DMAConfig                                     build/obj/stm32f4xx_tim.o
TIM_DeInit                                        build/obj/stm32f4xx_tim.o
                                                  build/obj/mcpwm.o
TIM_ETRClockMode1Config                           build/obj/stm32f4xx_tim.o
TIM_ETRClockMode2Config                           build/obj/stm32f4xx_tim.o
TIM_ETRConfig                                     build/obj/stm32f4xx_tim.o
TIM_EncoderInterfaceConfig                        build/obj/stm32f4xx_tim.o
TIM_ForcedOC1Config                               build/obj/stm32f4xx_tim.o
TIM_ForcedOC2Config                               build/obj/stm32f4xx_tim.o
TIM_ForcedOC3Config                               build/obj/stm32f4xx_tim.o
TIM_ForcedOC4Config                               build/obj/stm32f4xx_tim.o
TIM_GenerateEvent                                 build/obj/stm32f4xx_tim.o
                                                  build/obj/mcpwm.o
TIM_GetCapture1                                   build/obj/stm32f4xx_tim.o
TIM_GetCapture2                                   build/obj/stm32f4xx_tim.o
TIM_GetCapture3                                   build/obj/stm32f4xx_tim.o
TIM_GetCapture4                                   build/obj/stm32f4xx_tim.o
TIM_GetCounter                                    build/obj/stm32f4xx_tim.o
TIM_GetFlagStatus                                 build/obj/stm32f4xx_tim.o
TIM_GetITStatus                                   build/obj/stm32f4xx_tim.o
TIM_GetPrescaler                                  build/obj/stm32f4xx_tim.o
TIM_ICInit                                        build/obj/stm32f4xx_tim.o
TIM_ICStructInit                                  build/obj/stm32f4xx_tim.o
TIM_ITConfig                                      build/obj/stm32f4xx_tim.o
TIM_ITRxExternalClockConfig                       build/obj/stm32f4xx_tim.o
TIM_InternalClockConfig                           build/obj/stm32f4xx_tim.o
TIM_OC1FastConfig                                 build/obj/stm32f4xx_tim.o
TIM_OC1Init                                       build/obj/stm32f4xx_tim.o
                                                  build/obj/mcpwm.o
TIM_OC1NPolarityConfig                            build/obj/stm32f4xx_tim.o
TIM_OC1PolarityConfig                             build/obj/stm32f4xx_tim.o
TIM_OC1PreloadConfig                              build/obj/stm32f4xx_tim.o
                                                  build/obj/mcpwm.o
TIM_OC2FastConfig                                 build/obj/stm32f4xx_tim.o
TIM_OC2Init                                       build/obj/stm32f4xx_tim.o
                                                  build/obj/mcpwm.o
TIM_OC2NPolarityConfig                            build/obj/stm32f4xx_tim.o
TIM_OC2PolarityConfig                             build/obj/stm32f4xx_tim.o
TIM_OC2PreloadConfig                              build/obj/stm32f4xx_tim.o
                                                  build/obj/mcpwm.o
TIM_OC3FastConfig                                 build/obj/stm32f4xx_tim.o
TIM_OC3Init                                       build/obj/stm32f4xx_tim.o
                                                  build/obj/mcpwm.o
TIM_OC3NPolarityConfig                            build/obj/stm32f4xx_tim.o
TIM_OC3PolarityConfig                             build/obj/stm32f4xx_tim.o
TIM_OC3PreloadConfig                              build/obj/stm32f4xx_tim.o
                                                  build/obj/mcpwm.o
TIM_OC4FastConfig                                 build/obj/stm32f4xx_tim.o
TIM_OC4Init                                       build/obj/stm32f4xx_tim.o
                                                  build/obj/mcpwm.o
TIM_OC4PolarityConfig                             build/obj/stm32f4xx_tim.o
TIM_OC4PreloadConfig                              build/obj/stm32f4xx_tim.o
                                                  build/obj/mcpwm.o
TIM_OCStructInit                                  build/obj/stm32f4xx_tim.o
TIM_PWMIConfig                                    build/obj/stm32f4xx_tim.o
TIM_PrescalerConfig                               build/obj/stm32f4xx_tim.o
TIM_RemapConfig                                   build/obj/stm32f4xx_tim.o
TIM_SelectCCDMA                                   build/obj/stm32f4xx_tim.o
TIM_SelectCOM                                     build/obj/stm32f4xx_tim.o
TIM_SelectHallSensor                              build/obj/stm32f4xx_tim.o
TIM_SelectInputTrigger                            build/obj/stm32f4xx_tim.o
                                                  build/obj/mcpwm.o
TIM_SelectMasterSlaveMode                         build/obj/stm32f4xx_tim.o
                                                  build/obj/mcpwm.o
TIM_SelectOCxM                                    build/obj/stm32f4xx_tim.o
                                                  build/obj/mcpwm.o
TIM_SelectOnePulseMode                            build/obj/stm32f4xx_tim.o
TIM_SelectOutputTrigger                           build/obj/stm32f4xx_tim.o
                                                  build/obj/mcpwm.o
TIM_SelectSlaveMode                               build/obj/stm32f4xx_tim.o
                                                  build/obj/mcpwm.o
TIM_SetAutoreload                                 build/obj/stm32f4xx_tim.o
TIM_SetClockDivision                              build/obj/stm32f4xx_tim.o
TIM_SetCompare1                                   build/obj/stm32f4xx_tim.o
TIM_SetCompare2                                   build/obj/stm32f4xx_tim.o
TIM_SetCompare3                                   build/obj/stm32f4xx_tim.o
TIM_SetCompare4                                   build/obj/stm32f4xx_tim.o
TIM_SetCounter                                    build/obj/stm32f4xx_tim.o
TIM_SetIC1Prescaler                               build/obj/stm32f4xx_tim.o
TIM_SetIC2Prescaler                               build/obj/stm32f4xx_tim.o
TIM_SetIC3Prescaler                               build/obj/stm32f4xx_tim.o
TIM_SetIC4Prescaler                               build/obj/stm32f4xx_tim.o
TIM_TIxExternalClockConfig                        build/obj/stm32f4xx_tim.o
TIM_TimeBaseInit                                  build/obj/stm32f4xx_tim.o
                                                  build/obj/mcpwm.o
TIM_TimeBaseStructInit                            build/obj/stm32f4xx_tim.o
TIM_UpdateDisableConfig                           build/obj/stm32f4xx_tim.o
TIM_UpdateRequestConfig                           build/obj/stm32f4xx_tim.o
UARTD3                                            build/obj/uart_lld.o
                                                  build/obj/flash_helper.o
UARTD6                                            build/obj/uart_lld.o
USBD1                                             build/obj/usb_lld.o
                                                  build/obj/flash_helper.o
                                                  build/obj/usb_uart.o
UsageFault_Handler                                build/obj/vectors.o
Vector100                                         build/obj/vectors.o
Vector104                                         build/obj/vectors.o
Vector108                                         build/obj/vectors.o
Vector10C                                         build/obj/vectors.o
Vector110                                         build/obj/vectors.o
Vector114                                         build/obj/vectors.o
Vector118                                         build/obj/vectors.o
Vector11C                                         build/obj/irq_handlers.o
                                                  build/obj/vectors.o
Vector120                                         build/obj/stm32_dma.o
                                                  build/obj/vectors.o
Vector124                                         build/obj/stm32_dma.o
                                                  build/obj/vectors.o
Vector128                                         build/obj/stm32_dma.o
                                                  build/obj/vectors.o
Vector12C                                         build/obj/stm32_dma.o
                                                  build/obj/vectors.o
Vector130                                         build/obj/stm32_dma.o
                                                  build/obj/vectors.o
Vector134                                         build/obj/vectors.o
Vector138                                         build/obj/vectors.o
Vector13C                                         build/obj/vectors.o
Vector140                                         build/obj/vectors.o
Vector144                                         build/obj/vectors.o
Vector148                                         build/obj/vectors.o
Vector14C                                         build/obj/usb_lld.o
                                                  build/obj/vectors.o
Vector150                                         build/obj/stm32_dma.o
                                                  build/obj/vectors.o
Vector154                                         build/obj/stm32_dma.o
                                                  build/obj/vectors.o
Vector158                                         build/obj/stm32_dma.o
                                                  build/obj/vectors.o
Vector15C                                         build/obj/uart_lld.o
                                                  build/obj/vectors.o
Vector160                                         build/obj/vectors.o
Vector164                                         build/obj/vectors.o
Vector168                                         build/obj/vectors.o
Vector16C                                         build/obj/vectors.o
Vector170                                         build/obj/vectors.o
Vector174                                         build/obj/vectors.o
Vector178                                         build/obj/vectors.o
Vector17C                                         build/obj/vectors.o
Vector180                                         build/obj/vectors.o
Vector184                                         build/obj/vectors.o
Vector188                                         build/obj/vectors.o
Vector18C                                         build/obj/vectors.o
Vector190                                         build/obj/vectors.o
Vector194                                         build/obj/vectors.o
Vector198                                         build/obj/vectors.o
Vector19C                                         build/obj/vectors.o
Vector1A0                                         build/obj/vectors.o
Vector1A4                                         build/obj/vectors.o
Vector1A8                                         build/obj/vectors.o
Vector1AC                                         build/obj/vectors.o
Vector1B0                                         build/obj/vectors.o
Vector1B4                                         build/obj/vectors.o
Vector1B8                                         build/obj/vectors.o
Vector1BC                                         build/obj/vectors.o
Vector1C                                          build/obj/vectors.o
Vector20                                          build/obj/vectors.o
Vector24                                          build/obj/vectors.o
Vector28                                          build/obj/vectors.o
Vector34                                          build/obj/vectors.o
Vector40                                          build/obj/vectors.o
Vector44                                          build/obj/vectors.o
Vector48                                          build/obj/vectors.o
Vector4C                                          build/obj/vectors.o
Vector50                                          build/obj/vectors.o
Vector54                                          build/obj/vectors.o
Vector58                                          build/obj/vectors.o
Vector5C                                          build/obj/vectors.o
Vector60                                          build/obj/vectors.o
Vector64                                          build/obj/vectors.o
Vector68                                          build/obj/vectors.o
Vector6C                                          build/obj/stm32_dma.o
                                                  build/obj/vectors.o
Vector70                                          build/obj/stm32_dma.o
                                                  build/obj/vectors.o
Vector74                                          build/obj/stm32_dma.o
                                                  build/obj/vectors.o
Vector78                                          build/obj/stm32_dma.o
                                                  build/obj/vectors.o
Vector7C                                          build/obj/stm32_dma.o
                                                  build/obj/vectors.o
Vector80                                          build/obj/stm32_dma.o
                                                  build/obj/vectors.o
Vector84                                          build/obj/stm32_dma.o
                                                  build/obj/vectors.o
Vector88                                          build/obj/irq_handlers.o
                                                  build/obj/vectors.o
Vector8C                                          build/obj/can_lld.o
                                                  build/obj/vectors.o
Vector90                                          build/obj/can_lld.o
                                                  build/obj/vectors.o
Vector94                                          build/obj/can_lld.o
                                                  build/obj/vectors.o
Vector98                                          build/obj/can_lld.o
                                                  build/obj/vectors.o
Vector9C                                          build/obj/vectors.o
VectorA0                                          build/obj/vectors.o
VectorA4                                          build/obj/vectors.o
VectorA8                                          build/obj/vectors.o
VectorAC                                          build/obj/vectors.o
VectorB0                                          build/obj/vectors.o
VectorB4                                          build/obj/icu_lld.o
                                                  build/obj/vectors.o
VectorB8                                          build/obj/vectors.o
VectorBC                                          build/obj/vectors.o
VectorC0                                          build/obj/vectors.o
VectorC4                                          build/obj/i2c_lld.o
                                                  build/obj/vectors.o
VectorC8                                          build/obj/i2c_lld.o
                                                  build/obj/vectors.o
VectorCC                                          build/obj/vectors.o
VectorD0                                          build/obj/vectors.o
VectorD4                                          build/obj/vectors.o
VectorD8                                          build/obj/vectors.o
VectorDC                                          build/obj/uart_lld.o
                                                  build/obj/vectors.o
VectorE0                                          build/obj/irq_handlers.o
                                                  build/obj/vectors.o
VectorE4                                          build/obj/vectors.o
VectorE8                                          build/obj/vectors.o
VectorEC                                          build/obj/vectors.o
VectorF0                                          build/obj/vectors.o
VectorF4                                          build/obj/vectors.o
VectorF8                                          build/obj/vectors.o
VectorFC                                          build/obj/stm32_dma.o
                                                  build/obj/vectors.o
VelReq                                            build/obj/mcpwm.o
VirtAddVarTab                                     build/obj/conf_general.o
                                                  build/obj/eeprom.o
VoltRippleComp                                    build/obj/mcpwm.o
WWDG_ClearFlag                                    build/obj/stm32f4xx_wwdg.o
WWDG_DeInit                                       build/obj/stm32f4xx_wwdg.o
WWDG_Enable                                       build/obj/stm32f4xx_wwdg.o
                                                  build/obj/mcpwm.o
WWDG_EnableIT                                     build/obj/stm32f4xx_wwdg.o
WWDG_GetFlagStatus                                build/obj/stm32f4xx_wwdg.o
WWDG_SetCounter                                   build/obj/stm32f4xx_wwdg.o
                                                  build/obj/mcpwm.o
WWDG_SetPrescaler                                 build/obj/stm32f4xx_wwdg.o
                                                  build/obj/mcpwm.o
WWDG_SetWindowValue                               build/obj/stm32f4xx_wwdg.o
                                                  build/obj/mcpwm.o
Wpll                                              build/obj/mcpwm.o
Wpll1                                             build/obj/mcpwm.o
Wplli                                             build/obj/mcpwm.o
Wpllp                                             build/obj/mcpwm.o
_Balloc                                           /Users/imac/Downloads/gcc-arm-none-eabi-4_9-2015q2/bin/../lib/gcc/arm-none-eabi/4.9.3/../../../../arm-none-eabi/lib/armv7e-m/fpu/libg.a(lib_a-mprec.o)
                                                  /Users/imac/Downloads/gcc-arm-none-eabi-4_9-2015q2/bin/../lib/gcc/arm-none-eabi/4.9.3/../../../../arm-none-eabi/lib/armv7e-m/fpu/libg.a(lib_a-dtoa.o)
_Bfree                                            /Users/imac/Downloads/gcc-arm-none-eabi-4_9-2015q2/bin/../lib/gcc/arm-none-eabi/4.9.3/../../../../arm-none-eabi/lib/armv7e-m/fpu/libg.a(lib_a-mprec.o)
                                                  /Users/imac/Downloads/gcc-arm-none-eabi-4_9-2015q2/bin/../lib/gcc/arm-none-eabi/4.9.3/../../../../arm-none-eabi/lib/armv7e-m/fpu/libg.a(lib_a-dtoa.o)
_PathLocale                                       /Users/imac/Downloads/gcc-arm-none-eabi-4_9-2015q2/bin/../lib/gcc/arm-none-eabi/4.9.3/../../../../arm-none-eabi/lib/armv7e-m/fpu/libg.a(lib_a-locale.o)
__adddf3                                          /Users/imac/Downloads/gcc-arm-none-eabi-4_9-2015q2/bin/../lib/gcc/arm-none-eabi/4.9.3/armv7e-m/fpu/libgcc.a(_arm_addsubdf3.o)
__aeabi_cdcmpeq                                   /Users/imac/Downloads/gcc-arm-none-eabi-4_9-2015q2/bin/../lib/gcc/arm-none-eabi/4.9.3/armv7e-m/fpu/libgcc.a(_arm_cmpdf2.o)
__aeabi_cdcmple                                   /Users/imac/Downloads/gcc-arm-none-eabi-4_9-2015q2/bin/../lib/gcc/arm-none-eabi/4.9.3/armv7e-m/fpu/libgcc.a(_arm_cmpdf2.o)
__aeabi_cdrcmple                                  /Users/imac/Downloads/gcc-arm-none-eabi-4_9-2015q2/bin/../lib/gcc/arm-none-eabi/4.9.3/armv7e-m/fpu/libgcc.a(_arm_cmpdf2.o)
__aeabi_d2f                                       /Users/imac/Downloads/gcc-arm-none-eabi-4_9-2015q2/bin/../lib/gcc/arm-none-eabi/4.9.3/armv7e-m/fpu/libgcc.a(_arm_truncdfsf2.o)
                                                  /Users/imac/Downloads/gcc-arm-none-eabi-4_9-2015q2/bin/../lib/gcc/arm-none-eabi/4.9.3/../../../../arm-none-eabi/lib/armv7e-m/fpu/libm.a(lib_a-wf_sqrt.o)
                                                  /Users/imac/Downloads/gcc-arm-none-eabi-4_9-2015q2/bin/../lib/gcc/arm-none-eabi/4.9.3/../../../../arm-none-eabi/lib/armv7e-m/fpu/libm.a(lib_a-wf_fmod.o)
                                                  build/obj/chprintf.o
__aeabi_d2iz                                      /Users/imac/Downloads/gcc-arm-none-eabi-4_9-2015q2/bin/../lib/gcc/arm-none-eabi/4.9.3/armv7e-m/fpu/libgcc.a(_arm_fixdfsi.o)
                                                  /Users/imac/Downloads/gcc-arm-none-eabi-4_9-2015q2/bin/../lib/gcc/arm-none-eabi/4.9.3/../../../../arm-none-eabi/lib/armv7e-m/fpu/libg.a(lib_a-dtoa.o)
                                                  build/obj/chprintf.o
__aeabi_dadd                                      /Users/imac/Downloads/gcc-arm-none-eabi-4_9-2015q2/bin/../lib/gcc/arm-none-eabi/4.9.3/armv7e-m/fpu/libgcc.a(_arm_addsubdf3.o)
                                                  /Users/imac/Downloads/gcc-arm-none-eabi-4_9-2015q2/bin/../lib/gcc/arm-none-eabi/4.9.3/../../../../arm-none-eabi/lib/armv7e-m/fpu/libg.a(lib_a-dtoa.o)
__aeabi_dcmpeq                                    /Users/imac/Downloads/gcc-arm-none-eabi-4_9-2015q2/bin/../lib/gcc/arm-none-eabi/4.9.3/armv7e-m/fpu/libgcc.a(_arm_cmpdf2.o)
                                                  /Users/imac/Downloads/gcc-arm-none-eabi-4_9-2015q2/bin/../lib/gcc/arm-none-eabi/4.9.3/../../../../arm-none-eabi/lib/armv7e-m/fpu/libg.a(lib_a-dtoa.o)
                                                  /Users/imac/Downloads/gcc-arm-none-eabi-4_9-2015q2/bin/../lib/gcc/arm-none-eabi/4.9.3/../../../../arm-none-eabi/lib/armv7e-m/fpu/libg.a(lib_a-svfprintf.o)
__aeabi_dcmpge                                    /Users/imac/Downloads/gcc-arm-none-eabi-4_9-2015q2/bin/../lib/gcc/arm-none-eabi/4.9.3/armv7e-m/fpu/libgcc.a(_arm_cmpdf2.o)
                                                  /Users/imac/Downloads/gcc-arm-none-eabi-4_9-2015q2/bin/../lib/gcc/arm-none-eabi/4.9.3/../../../../arm-none-eabi/lib/armv7e-m/fpu/libg.a(lib_a-dtoa.o)
__aeabi_dcmpgt                                    /Users/imac/Downloads/gcc-arm-none-eabi-4_9-2015q2/bin/../lib/gcc/arm-none-eabi/4.9.3/armv7e-m/fpu/libgcc.a(_arm_cmpdf2.o)
                                                  /Users/imac/Downloads/gcc-arm-none-eabi-4_9-2015q2/bin/../lib/gcc/arm-none-eabi/4.9.3/../../../../arm-none-eabi/lib/armv7e-m/fpu/libg.a(lib_a-dtoa.o)
__aeabi_dcmple                                    /Users/imac/Downloads/gcc-arm-none-eabi-4_9-2015q2/bin/../lib/gcc/arm-none-eabi/4.9.3/armv7e-m/fpu/libgcc.a(_arm_cmpdf2.o)
__aeabi_dcmplt                                    /Users/imac/Downloads/gcc-arm-none-eabi-4_9-2015q2/bin/../lib/gcc/arm-none-eabi/4.9.3/armv7e-m/fpu/libgcc.a(_arm_cmpdf2.o)
                                                  /Users/imac/Downloads/gcc-arm-none-eabi-4_9-2015q2/bin/../lib/gcc/arm-none-eabi/4.9.3/../../../../arm-none-eabi/lib/armv7e-m/fpu/libg.a(lib_a-dtoa.o)
                                                  /Users/imac/Downloads/gcc-arm-none-eabi-4_9-2015q2/bin/../lib/gcc/arm-none-eabi/4.9.3/../../../../arm-none-eabi/lib/armv7e-m/fpu/libg.a(lib_a-svfprintf.o)
__aeabi_ddiv                                      /Users/imac/Downloads/gcc-arm-none-eabi-4_9-2015q2/bin/../lib/gcc/arm-none-eabi/4.9.3/armv7e-m/fpu/libgcc.a(_arm_muldivdf3.o)
                                                  /Users/imac/Downloads/gcc-arm-none-eabi-4_9-2015q2/bin/../lib/gcc/arm-none-eabi/4.9.3/../../../../arm-none-eabi/lib/armv7e-m/fpu/libg.a(lib_a-mprec.o)
                                                  /Users/imac/Downloads/gcc-arm-none-eabi-4_9-2015q2/bin/../lib/gcc/arm-none-eabi/4.9.3/../../../../arm-none-eabi/lib/armv7e-m/fpu/libg.a(lib_a-dtoa.o)
                                                  /Users/imac/Downloads/gcc-arm-none-eabi-4_9-2015q2/bin/../lib/gcc/arm-none-eabi/4.9.3/../../../../arm-none-eabi/lib/armv7e-m/fpu/libm.a(lib_a-wf_sqrt.o)
                                                  /Users/imac/Downloads/gcc-arm-none-eabi-4_9-2015q2/bin/../lib/gcc/arm-none-eabi/4.9.3/../../../../arm-none-eabi/lib/armv7e-m/fpu/libm.a(lib_a-wf_fmod.o)
__aeabi_dmul                                      /Users/imac/Downloads/gcc-arm-none-eabi-4_9-2015q2/bin/../lib/gcc/arm-none-eabi/4.9.3/armv7e-m/fpu/libgcc.a(_arm_muldivdf3.o)
                                                  /Users/imac/Downloads/gcc-arm-none-eabi-4_9-2015q2/bin/../lib/gcc/arm-none-eabi/4.9.3/../../../../arm-none-eabi/lib/armv7e-m/fpu/libg.a(lib_a-mprec.o)
                                                  /Users/imac/Downloads/gcc-arm-none-eabi-4_9-2015q2/bin/../lib/gcc/arm-none-eabi/4.9.3/../../../../arm-none-eabi/lib/armv7e-m/fpu/libg.a(lib_a-dtoa.o)
                                                  build/obj/chprintf.o
__aeabi_drsub                                     /Users/imac/Downloads/gcc-arm-none-eabi-4_9-2015q2/bin/../lib/gcc/arm-none-eabi/4.9.3/armv7e-m/fpu/libgcc.a(_arm_addsubdf3.o)
__aeabi_dsub                                      /Users/imac/Downloads/gcc-arm-none-eabi-4_9-2015q2/bin/../lib/gcc/arm-none-eabi/4.9.3/armv7e-m/fpu/libgcc.a(_arm_addsubdf3.o)
                                                  /Users/imac/Downloads/gcc-arm-none-eabi-4_9-2015q2/bin/../lib/gcc/arm-none-eabi/4.9.3/../../../../arm-none-eabi/lib/armv7e-m/fpu/libg.a(lib_a-dtoa.o)
                                                  build/obj/chprintf.o
__aeabi_f2d                                       /Users/imac/Downloads/gcc-arm-none-eabi-4_9-2015q2/bin/../lib/gcc/arm-none-eabi/4.9.3/armv7e-m/fpu/libgcc.a(_arm_addsubdf3.o)
                                                  /Users/imac/Downloads/gcc-arm-none-eabi-4_9-2015q2/bin/../lib/gcc/arm-none-eabi/4.9.3/../../../../arm-none-eabi/lib/armv7e-m/fpu/libm.a(lib_a-wf_sqrt.o)
                                                  /Users/imac/Downloads/gcc-arm-none-eabi-4_9-2015q2/bin/../lib/gcc/arm-none-eabi/4.9.3/../../../../arm-none-eabi/lib/armv7e-m/fpu/libm.a(lib_a-wf_fmod.o)
                                                  build/obj/servo_dec.o
                                                  build/obj/bldc.o
                                                  build/obj/chprintf.o
__aeabi_i2d                                       /Users/imac/Downloads/gcc-arm-none-eabi-4_9-2015q2/bin/../lib/gcc/arm-none-eabi/4.9.3/armv7e-m/fpu/libgcc.a(_arm_addsubdf3.o)
                                                  /Users/imac/Downloads/gcc-arm-none-eabi-4_9-2015q2/bin/../lib/gcc/arm-none-eabi/4.9.3/../../../../arm-none-eabi/lib/armv7e-m/fpu/libg.a(lib_a-dtoa.o)
                                                  build/obj/chprintf.o
__aeabi_idiv0                                     /Users/imac/Downloads/gcc-arm-none-eabi-4_9-2015q2/bin/../lib/gcc/arm-none-eabi/4.9.3/armv7e-m/fpu/libgcc.a(_dvmd_tls.o)
__aeabi_l2d                                       /Users/imac/Downloads/gcc-arm-none-eabi-4_9-2015q2/bin/../lib/gcc/arm-none-eabi/4.9.3/armv7e-m/fpu/libgcc.a(_arm_addsubdf3.o)
__aeabi_ldiv0                                     /Users/imac/Downloads/gcc-arm-none-eabi-4_9-2015q2/bin/../lib/gcc/arm-none-eabi/4.9.3/armv7e-m/fpu/libgcc.a(_dvmd_tls.o)
                                                  /Users/imac/Downloads/gcc-arm-none-eabi-4_9-2015q2/bin/../lib/gcc/arm-none-eabi/4.9.3/armv7e-m/fpu/libgcc.a(_aeabi_uldivmod.o)
__aeabi_ui2d                                      /Users/imac/Downloads/gcc-arm-none-eabi-4_9-2015q2/bin/../lib/gcc/arm-none-eabi/4.9.3/armv7e-m/fpu/libgcc.a(_arm_addsubdf3.o)
                                                  /Users/imac/Downloads/gcc-arm-none-eabi-4_9-2015q2/bin/../lib/gcc/arm-none-eabi/4.9.3/../../../../arm-none-eabi/lib/armv7e-m/fpu/libg.a(lib_a-dtoa.o)
                                                  build/obj/chprintf.o
__aeabi_ul2d                                      /Users/imac/Downloads/gcc-arm-none-eabi-4_9-2015q2/bin/../lib/gcc/arm-none-eabi/4.9.3/armv7e-m/fpu/libgcc.a(_arm_addsubdf3.o)
__aeabi_uldivmod                                  /Users/imac/Downloads/gcc-arm-none-eabi-4_9-2015q2/bin/../lib/gcc/arm-none-eabi/4.9.3/armv7e-m/fpu/libgcc.a(_aeabi_uldivmod.o)
                                                  /Users/imac/Downloads/gcc-arm-none-eabi-4_9-2015q2/bin/../lib/gcc/arm-none-eabi/4.9.3/../../../../arm-none-eabi/lib/armv7e-m/fpu/libg.a(lib_a-svfiprintf.o)
                                                  /Users/imac/Downloads/gcc-arm-none-eabi-4_9-2015q2/bin/../lib/gcc/arm-none-eabi/4.9.3/../../../../arm-none-eabi/lib/armv7e-m/fpu/libg.a(lib_a-svfprintf.o)
__any_on                                          /Users/imac/Downloads/gcc-arm-none-eabi-4_9-2015q2/bin/../lib/gcc/arm-none-eabi/4.9.3/../../../../arm-none-eabi/lib/armv7e-m/fpu/libg.a(lib_a-mprec.o)
__b2d                                             /Users/imac/Downloads/gcc-arm-none-eabi-4_9-2015q2/bin/../lib/gcc/arm-none-eabi/4.9.3/../../../../arm-none-eabi/lib/armv7e-m/fpu/libg.a(lib_a-mprec.o)
__cmpdf2                                          /Users/imac/Downloads/gcc-arm-none-eabi-4_9-2015q2/bin/../lib/gcc/arm-none-eabi/4.9.3/armv7e-m/fpu/libgcc.a(_arm_cmpdf2.o)
__copybits                                        /Users/imac/Downloads/gcc-arm-none-eabi-4_9-2015q2/bin/../lib/gcc/arm-none-eabi/4.9.3/../../../../arm-none-eabi/lib/armv7e-m/fpu/libg.a(lib_a-mprec.o)
__core_init                                       build/obj/crt1.o
                                                  build/obj/crt0_v7m.o
__d2b                                             /Users/imac/Downloads/gcc-arm-none-eabi-4_9-2015q2/bin/../lib/gcc/arm-none-eabi/4.9.3/../../../../arm-none-eabi/lib/armv7e-m/fpu/libg.a(lib_a-mprec.o)
                                                  /Users/imac/Downloads/gcc-arm-none-eabi-4_9-2015q2/bin/../lib/gcc/arm-none-eabi/4.9.3/../../../../arm-none-eabi/lib/armv7e-m/fpu/libg.a(lib_a-dtoa.o)
__default_exit                                    build/obj/crt1.o
                                                  build/obj/crt0_v7m.o
__divdf3                                          /Users/imac/Downloads/gcc-arm-none-eabi-4_9-2015q2/bin/../lib/gcc/arm-none-eabi/4.9.3/armv7e-m/fpu/libgcc.a(_arm_muldivdf3.o)
__divdi3                                          /Users/imac/Downloads/gcc-arm-none-eabi-4_9-2015q2/bin/../lib/gcc/arm-none-eabi/4.9.3/armv7e-m/fpu/libgcc.a(_divdi3.o)
                                                  /Users/imac/Downloads/gcc-arm-none-eabi-4_9-2015q2/bin/../lib/gcc/arm-none-eabi/4.9.3/armv7e-m/fpu/libgcc.a(bpabi.o)
__early_init                                      build/obj/board.o
                                                  build/obj/crt1.o
                                                  build/obj/crt0_v7m.o
__eqdf2                                           /Users/imac/Downloads/gcc-arm-none-eabi-4_9-2015q2/bin/../lib/gcc/arm-none-eabi/4.9.3/armv7e-m/fpu/libgcc.a(_arm_cmpdf2.o)
__errno                                           /Users/imac/Downloads/gcc-arm-none-eabi-4_9-2015q2/bin/../lib/gcc/arm-none-eabi/4.9.3/../../../../arm-none-eabi/lib/armv7e-m/fpu/libg.a(lib_a-errno.o)
                                                  /Users/imac/Downloads/gcc-arm-none-eabi-4_9-2015q2/bin/../lib/gcc/arm-none-eabi/4.9.3/../../../../arm-none-eabi/lib/armv7e-m/fpu/libm.a(lib_a-wf_sqrt.o)
                                                  /Users/imac/Downloads/gcc-arm-none-eabi-4_9-2015q2/bin/../lib/gcc/arm-none-eabi/4.9.3/../../../../arm-none-eabi/lib/armv7e-m/fpu/libm.a(lib_a-wf_fmod.o)
__extendsfdf2                                     /Users/imac/Downloads/gcc-arm-none-eabi-4_9-2015q2/bin/../lib/gcc/arm-none-eabi/4.9.3/armv7e-m/fpu/libgcc.a(_arm_addsubdf3.o)
__fdlib_version                                   /Users/imac/Downloads/gcc-arm-none-eabi-4_9-2015q2/bin/../lib/gcc/arm-none-eabi/4.9.3/../../../../arm-none-eabi/lib/armv7e-m/fpu/libm.a(lib_a-s_lib_ver.o)
                                                  /Users/imac/Downloads/gcc-arm-none-eabi-4_9-2015q2/bin/../lib/gcc/arm-none-eabi/4.9.3/../../../../arm-none-eabi/lib/armv7e-m/fpu/libm.a(lib_a-wf_sqrt.o)
                                                  /Users/imac/Downloads/gcc-arm-none-eabi-4_9-2015q2/bin/../lib/gcc/arm-none-eabi/4.9.3/../../../../arm-none-eabi/lib/armv7e-m/fpu/libm.a(lib_a-wf_fmod.o)
__fini_array_end                                  build/obj/crt0_v7m.o
__fini_array_start                                build/obj/crt0_v7m.o
__fixdfsi                                         /Users/imac/Downloads/gcc-arm-none-eabi-4_9-2015q2/bin/../lib/gcc/arm-none-eabi/4.9.3/armv7e-m/fpu/libgcc.a(_arm_fixdfsi.o)
__floatdidf                                       /Users/imac/Downloads/gcc-arm-none-eabi-4_9-2015q2/bin/../lib/gcc/arm-none-eabi/4.9.3/armv7e-m/fpu/libgcc.a(_arm_addsubdf3.o)
__floatsidf                                       /Users/imac/Downloads/gcc-arm-none-eabi-4_9-2015q2/bin/../lib/gcc/arm-none-eabi/4.9.3/armv7e-m/fpu/libgcc.a(_arm_addsubdf3.o)
__floatundidf                                     /Users/imac/Downloads/gcc-arm-none-eabi-4_9-2015q2/bin/../lib/gcc/arm-none-eabi/4.9.3/armv7e-m/fpu/libgcc.a(_arm_addsubdf3.o)
__floatunsidf                                     /Users/imac/Downloads/gcc-arm-none-eabi-4_9-2015q2/bin/../lib/gcc/arm-none-eabi/4.9.3/armv7e-m/fpu/libgcc.a(_arm_addsubdf3.o)
__fpclassifyd                                     /Users/imac/Downloads/gcc-arm-none-eabi-4_9-2015q2/bin/../lib/gcc/arm-none-eabi/4.9.3/../../../../arm-none-eabi/lib/armv7e-m/fpu/libg.a(lib_a-s_fpclassify.o)
                                                  /Users/imac/Downloads/gcc-arm-none-eabi-4_9-2015q2/bin/../lib/gcc/arm-none-eabi/4.9.3/../../../../arm-none-eabi/lib/armv7e-m/fpu/libg.a(lib_a-svfprintf.o)
__fpclassifyf                                     /Users/imac/Downloads/gcc-arm-none-eabi-4_9-2015q2/bin/../lib/gcc/arm-none-eabi/4.9.3/../../../../arm-none-eabi/lib/armv7e-m/fpu/libm.a(lib_a-sf_fpclassify.o)
                                                  /Users/imac/Downloads/gcc-arm-none-eabi-4_9-2015q2/bin/../lib/gcc/arm-none-eabi/4.9.3/../../../../arm-none-eabi/lib/armv7e-m/fpu/libm.a(lib_a-wf_sqrt.o)
                                                  /Users/imac/Downloads/gcc-arm-none-eabi-4_9-2015q2/bin/../lib/gcc/arm-none-eabi/4.9.3/../../../../arm-none-eabi/lib/armv7e-m/fpu/libm.a(lib_a-wf_fmod.o)
__gedf2                                           /Users/imac/Downloads/gcc-arm-none-eabi-4_9-2015q2/bin/../lib/gcc/arm-none-eabi/4.9.3/armv7e-m/fpu/libgcc.a(_arm_cmpdf2.o)
__gnu_ldivmod_helper                              /Users/imac/Downloads/gcc-arm-none-eabi-4_9-2015q2/bin/../lib/gcc/arm-none-eabi/4.9.3/armv7e-m/fpu/libgcc.a(bpabi.o)
__gnu_uldivmod_helper                             /Users/imac/Downloads/gcc-arm-none-eabi-4_9-2015q2/bin/../lib/gcc/arm-none-eabi/4.9.3/armv7e-m/fpu/libgcc.a(bpabi.o)
                                                  /Users/imac/Downloads/gcc-arm-none-eabi-4_9-2015q2/bin/../lib/gcc/arm-none-eabi/4.9.3/armv7e-m/fpu/libgcc.a(_aeabi_uldivmod.o)
__gtdf2                                           /Users/imac/Downloads/gcc-arm-none-eabi-4_9-2015q2/bin/../lib/gcc/arm-none-eabi/4.9.3/armv7e-m/fpu/libgcc.a(_arm_cmpdf2.o)
__heap_base__                                     build/obj/chmemcore.o
__heap_end__                                      build/obj/chmemcore.o
__hi0bits                                         /Users/imac/Downloads/gcc-arm-none-eabi-4_9-2015q2/bin/../lib/gcc/arm-none-eabi/4.9.3/../../../../arm-none-eabi/lib/armv7e-m/fpu/libg.a(lib_a-mprec.o)
                                                  /Users/imac/Downloads/gcc-arm-none-eabi-4_9-2015q2/bin/../lib/gcc/arm-none-eabi/4.9.3/../../../../arm-none-eabi/lib/armv7e-m/fpu/libg.a(lib_a-dtoa.o)
__i2b                                             /Users/imac/Downloads/gcc-arm-none-eabi-4_9-2015q2/bin/../lib/gcc/arm-none-eabi/4.9.3/../../../../arm-none-eabi/lib/armv7e-m/fpu/libg.a(lib_a-mprec.o)
                                                  /Users/imac/Downloads/gcc-arm-none-eabi-4_9-2015q2/bin/../lib/gcc/arm-none-eabi/4.9.3/../../../../arm-none-eabi/lib/armv7e-m/fpu/libg.a(lib_a-dtoa.o)
__ieee754_atan2f                                  /Users/imac/Downloads/gcc-arm-none-eabi-4_9-2015q2/bin/../lib/gcc/arm-none-eabi/4.9.3/../../../../arm-none-eabi/lib/armv7e-m/fpu/libm.a(lib_a-ef_atan2.o)
                                                  /Users/imac/Downloads/gcc-arm-none-eabi-4_9-2015q2/bin/../lib/gcc/arm-none-eabi/4.9.3/../../../../arm-none-eabi/lib/armv7e-m/fpu/libm.a(lib_a-wf_atan2.o)
__ieee754_fmodf                                   /Users/imac/Downloads/gcc-arm-none-eabi-4_9-2015q2/bin/../lib/gcc/arm-none-eabi/4.9.3/../../../../arm-none-eabi/lib/armv7e-m/fpu/libm.a(lib_a-ef_fmod.o)
                                                  /Users/imac/Downloads/gcc-arm-none-eabi-4_9-2015q2/bin/../lib/gcc/arm-none-eabi/4.9.3/../../../../arm-none-eabi/lib/armv7e-m/fpu/libm.a(lib_a-wf_fmod.o)
__ieee754_rem_pio2f                               /Users/imac/Downloads/gcc-arm-none-eabi-4_9-2015q2/bin/../lib/gcc/arm-none-eabi/4.9.3/../../../../arm-none-eabi/lib/armv7e-m/fpu/libm.a(lib_a-ef_rem_pio2.o)
                                                  /Users/imac/Downloads/gcc-arm-none-eabi-4_9-2015q2/bin/../lib/gcc/arm-none-eabi/4.9.3/../../../../arm-none-eabi/lib/armv7e-m/fpu/libm.a(lib_a-sf_sin.o)
                                                  /Users/imac/Downloads/gcc-arm-none-eabi-4_9-2015q2/bin/../lib/gcc/arm-none-eabi/4.9.3/../../../../arm-none-eabi/lib/armv7e-m/fpu/libm.a(lib_a-sf_cos.o)
__ieee754_sqrtf                                   /Users/imac/Downloads/gcc-arm-none-eabi-4_9-2015q2/bin/../lib/gcc/arm-none-eabi/4.9.3/../../../../arm-none-eabi/lib/armv7e-m/fpu/libm.a(lib_a-ef_sqrt.o)
                                                  /Users/imac/Downloads/gcc-arm-none-eabi-4_9-2015q2/bin/../lib/gcc/arm-none-eabi/4.9.3/../../../../arm-none-eabi/lib/armv7e-m/fpu/libm.a(lib_a-wf_sqrt.o)
__init_array_end                                  build/obj/crt0_v7m.o
__init_array_start                                build/obj/crt0_v7m.o
__kernel_cosf                                     /Users/imac/Downloads/gcc-arm-none-eabi-4_9-2015q2/bin/../lib/gcc/arm-none-eabi/4.9.3/../../../../arm-none-eabi/lib/armv7e-m/fpu/libm.a(lib_a-kf_cos.o)
                                                  /Users/imac/Downloads/gcc-arm-none-eabi-4_9-2015q2/bin/../lib/gcc/arm-none-eabi/4.9.3/../../../../arm-none-eabi/lib/armv7e-m/fpu/libm.a(lib_a-sf_sin.o)
                                                  /Users/imac/Downloads/gcc-arm-none-eabi-4_9-2015q2/bin/../lib/gcc/arm-none-eabi/4.9.3/../../../../arm-none-eabi/lib/armv7e-m/fpu/libm.a(lib_a-sf_cos.o)
__kernel_rem_pio2f                                /Users/imac/Downloads/gcc-arm-none-eabi-4_9-2015q2/bin/../lib/gcc/arm-none-eabi/4.9.3/../../../../arm-none-eabi/lib/armv7e-m/fpu/libm.a(lib_a-kf_rem_pio2.o)
                                                  /Users/imac/Downloads/gcc-arm-none-eabi-4_9-2015q2/bin/../lib/gcc/arm-none-eabi/4.9.3/../../../../arm-none-eabi/lib/armv7e-m/fpu/libm.a(lib_a-ef_rem_pio2.o)
__kernel_sinf                                     /Users/imac/Downloads/gcc-arm-none-eabi-4_9-2015q2/bin/../lib/gcc/arm-none-eabi/4.9.3/../../../../arm-none-eabi/lib/armv7e-m/fpu/libm.a(lib_a-kf_sin.o)
                                                  /Users/imac/Downloads/gcc-arm-none-eabi-4_9-2015q2/bin/../lib/gcc/arm-none-eabi/4.9.3/../../../../arm-none-eabi/lib/armv7e-m/fpu/libm.a(lib_a-sf_sin.o)
                                                  /Users/imac/Downloads/gcc-arm-none-eabi-4_9-2015q2/bin/../lib/gcc/arm-none-eabi/4.9.3/../../../../arm-none-eabi/lib/armv7e-m/fpu/libm.a(lib_a-sf_cos.o)
__late_init                                       build/obj/crt1.o
                                                  build/obj/crt0_v7m.o
__ledf2                                           /Users/imac/Downloads/gcc-arm-none-eabi-4_9-2015q2/bin/../lib/gcc/arm-none-eabi/4.9.3/armv7e-m/fpu/libgcc.a(_arm_cmpdf2.o)
__lo0bits                                         /Users/imac/Downloads/gcc-arm-none-eabi-4_9-2015q2/bin/../lib/gcc/arm-none-eabi/4.9.3/../../../../arm-none-eabi/lib/armv7e-m/fpu/libg.a(lib_a-mprec.o)
__locale_charset                                  /Users/imac/Downloads/gcc-arm-none-eabi-4_9-2015q2/bin/../lib/gcc/arm-none-eabi/4.9.3/../../../../arm-none-eabi/lib/armv7e-m/fpu/libg.a(lib_a-locale.o)
__locale_cjk_lang                                 /Users/imac/Downloads/gcc-arm-none-eabi-4_9-2015q2/bin/../lib/gcc/arm-none-eabi/4.9.3/../../../../arm-none-eabi/lib/armv7e-m/fpu/libg.a(lib_a-locale.o)
__locale_mb_cur_max                               /Users/imac/Downloads/gcc-arm-none-eabi-4_9-2015q2/bin/../lib/gcc/arm-none-eabi/4.9.3/../../../../arm-none-eabi/lib/armv7e-m/fpu/libg.a(lib_a-locale.o)
__locale_msgcharset                               /Users/imac/Downloads/gcc-arm-none-eabi-4_9-2015q2/bin/../lib/gcc/arm-none-eabi/4.9.3/../../../../arm-none-eabi/lib/armv7e-m/fpu/libg.a(lib_a-locale.o)
__lshift                                          /Users/imac/Downloads/gcc-arm-none-eabi-4_9-2015q2/bin/../lib/gcc/arm-none-eabi/4.9.3/../../../../arm-none-eabi/lib/armv7e-m/fpu/libg.a(lib_a-mprec.o)
                                                  /Users/imac/Downloads/gcc-arm-none-eabi-4_9-2015q2/bin/../lib/gcc/arm-none-eabi/4.9.3/../../../../arm-none-eabi/lib/armv7e-m/fpu/libg.a(lib_a-dtoa.o)
__ltdf2                                           /Users/imac/Downloads/gcc-arm-none-eabi-4_9-2015q2/bin/../lib/gcc/arm-none-eabi/4.9.3/armv7e-m/fpu/libgcc.a(_arm_cmpdf2.o)
__main_stack_base__                               build/obj/crt0_v7m.o
__main_stack_end__                                build/obj/vectors.o
                                                  build/obj/crt0_v7m.o
__malloc_av_                                      /Users/imac/Downloads/gcc-arm-none-eabi-4_9-2015q2/bin/../lib/gcc/arm-none-eabi/4.9.3/../../../../arm-none-eabi/lib/armv7e-m/fpu/libg.a(lib_a-mallocr.o)
                                                  /Users/imac/Downloads/gcc-arm-none-eabi-4_9-2015q2/bin/../lib/gcc/arm-none-eabi/4.9.3/../../../../arm-none-eabi/lib/armv7e-m/fpu/libg.a(lib_a-reallocr.o)
                                                  /Users/imac/Downloads/gcc-arm-none-eabi-4_9-2015q2/bin/../lib/gcc/arm-none-eabi/4.9.3/../../../../arm-none-eabi/lib/armv7e-m/fpu/libg.a(lib_a-freer.o)
__malloc_current_mallinfo                         /Users/imac/Downloads/gcc-arm-none-eabi-4_9-2015q2/bin/../lib/gcc/arm-none-eabi/4.9.3/../../../../arm-none-eabi/lib/armv7e-m/fpu/libg.a(lib_a-mallocr.o)
                                                  /Users/imac/Downloads/gcc-arm-none-eabi-4_9-2015q2/bin/../lib/gcc/arm-none-eabi/4.9.3/../../../../arm-none-eabi/lib/armv7e-m/fpu/libg.a(lib_a-freer.o)
__malloc_lock                                     /Users/imac/Downloads/gcc-arm-none-eabi-4_9-2015q2/bin/../lib/gcc/arm-none-eabi/4.9.3/../../../../arm-none-eabi/lib/armv7e-m/fpu/libg.a(lib_a-mlock.o)
                                                  /Users/imac/Downloads/gcc-arm-none-eabi-4_9-2015q2/bin/../lib/gcc/arm-none-eabi/4.9.3/../../../../arm-none-eabi/lib/armv7e-m/fpu/libg.a(lib_a-reallocr.o)
                                                  /Users/imac/Downloads/gcc-arm-none-eabi-4_9-2015q2/bin/../lib/gcc/arm-none-eabi/4.9.3/../../../../arm-none-eabi/lib/armv7e-m/fpu/libg.a(lib_a-freer.o)
                                                  /Users/imac/Downloads/gcc-arm-none-eabi-4_9-2015q2/bin/../lib/gcc/arm-none-eabi/4.9.3/../../../../arm-none-eabi/lib/armv7e-m/fpu/libg.a(lib_a-mallocr.o)
__malloc_max_sbrked_mem                           /Users/imac/Downloads/gcc-arm-none-eabi-4_9-2015q2/bin/../lib/gcc/arm-none-eabi/4.9.3/../../../../arm-none-eabi/lib/armv7e-m/fpu/libg.a(lib_a-mallocr.o)
__malloc_max_total_mem                            /Users/imac/Downloads/gcc-arm-none-eabi-4_9-2015q2/bin/../lib/gcc/arm-none-eabi/4.9.3/../../../../arm-none-eabi/lib/armv7e-m/fpu/libg.a(lib_a-mallocr.o)
__malloc_sbrk_base                                /Users/imac/Downloads/gcc-arm-none-eabi-4_9-2015q2/bin/../lib/gcc/arm-none-eabi/4.9.3/../../../../arm-none-eabi/lib/armv7e-m/fpu/libg.a(lib_a-mallocr.o)
                                                  /Users/imac/Downloads/gcc-arm-none-eabi-4_9-2015q2/bin/../lib/gcc/arm-none-eabi/4.9.3/../../../../arm-none-eabi/lib/armv7e-m/fpu/libg.a(lib_a-freer.o)
__malloc_top_pad                                  /Users/imac/Downloads/gcc-arm-none-eabi-4_9-2015q2/bin/../lib/gcc/arm-none-eabi/4.9.3/../../../../arm-none-eabi/lib/armv7e-m/fpu/libg.a(lib_a-mallocr.o)
                                                  /Users/imac/Downloads/gcc-arm-none-eabi-4_9-2015q2/bin/../lib/gcc/arm-none-eabi/4.9.3/../../../../arm-none-eabi/lib/armv7e-m/fpu/libg.a(lib_a-freer.o)
__malloc_trim_threshold                           /Users/imac/Downloads/gcc-arm-none-eabi-4_9-2015q2/bin/../lib/gcc/arm-none-eabi/4.9.3/../../../../arm-none-eabi/lib/armv7e-m/fpu/libg.a(lib_a-mallocr.o)
                                                  /Users/imac/Downloads/gcc-arm-none-eabi-4_9-2015q2/bin/../lib/gcc/arm-none-eabi/4.9.3/../../../../arm-none-eabi/lib/armv7e-m/fpu/libg.a(lib_a-freer.o)
__malloc_unlock                                   /Users/imac/Downloads/gcc-arm-none-eabi-4_9-2015q2/bin/../lib/gcc/arm-none-eabi/4.9.3/../../../../arm-none-eabi/lib/armv7e-m/fpu/libg.a(lib_a-mlock.o)
                                                  /Users/imac/Downloads/gcc-arm-none-eabi-4_9-2015q2/bin/../lib/gcc/arm-none-eabi/4.9.3/../../../../arm-none-eabi/lib/armv7e-m/fpu/libg.a(lib_a-reallocr.o)
                                                  /Users/imac/Downloads/gcc-arm-none-eabi-4_9-2015q2/bin/../lib/gcc/arm-none-eabi/4.9.3/../../../../arm-none-eabi/lib/armv7e-m/fpu/libg.a(lib_a-freer.o)
                                                  /Users/imac/Downloads/gcc-arm-none-eabi-4_9-2015q2/bin/../lib/gcc/arm-none-eabi/4.9.3/../../../../arm-none-eabi/lib/armv7e-m/fpu/libg.a(lib_a-mallocr.o)
__mb_cur_max                                      /Users/imac/Downloads/gcc-arm-none-eabi-4_9-2015q2/bin/../lib/gcc/arm-none-eabi/4.9.3/../../../../arm-none-eabi/lib/armv7e-m/fpu/libg.a(lib_a-locale.o)
__mcmp                                            /Users/imac/Downloads/gcc-arm-none-eabi-4_9-2015q2/bin/../lib/gcc/arm-none-eabi/4.9.3/../../../../arm-none-eabi/lib/armv7e-m/fpu/libg.a(lib_a-mprec.o)
                                                  /Users/imac/Downloads/gcc-arm-none-eabi-4_9-2015q2/bin/../lib/gcc/arm-none-eabi/4.9.3/../../../../arm-none-eabi/lib/armv7e-m/fpu/libg.a(lib_a-dtoa.o)
__mdiff                                           /Users/imac/Downloads/gcc-arm-none-eabi-4_9-2015q2/bin/../lib/gcc/arm-none-eabi/4.9.3/../../../../arm-none-eabi/lib/armv7e-m/fpu/libg.a(lib_a-mprec.o)
                                                  /Users/imac/Downloads/gcc-arm-none-eabi-4_9-2015q2/bin/../lib/gcc/arm-none-eabi/4.9.3/../../../../arm-none-eabi/lib/armv7e-m/fpu/libg.a(lib_a-dtoa.o)
__mlocale_changed                                 /Users/imac/Downloads/gcc-arm-none-eabi-4_9-2015q2/bin/../lib/gcc/arm-none-eabi/4.9.3/../../../../arm-none-eabi/lib/armv7e-m/fpu/libg.a(lib_a-locale.o)
__mprec_bigtens                                   /Users/imac/Downloads/gcc-arm-none-eabi-4_9-2015q2/bin/../lib/gcc/arm-none-eabi/4.9.3/../../../../arm-none-eabi/lib/armv7e-m/fpu/libg.a(lib_a-mprec.o)
                                                  /Users/imac/Downloads/gcc-arm-none-eabi-4_9-2015q2/bin/../lib/gcc/arm-none-eabi/4.9.3/../../../../arm-none-eabi/lib/armv7e-m/fpu/libg.a(lib_a-dtoa.o)
__mprec_tens                                      /Users/imac/Downloads/gcc-arm-none-eabi-4_9-2015q2/bin/../lib/gcc/arm-none-eabi/4.9.3/../../../../arm-none-eabi/lib/armv7e-m/fpu/libg.a(lib_a-mprec.o)
                                                  /Users/imac/Downloads/gcc-arm-none-eabi-4_9-2015q2/bin/../lib/gcc/arm-none-eabi/4.9.3/../../../../arm-none-eabi/lib/armv7e-m/fpu/libg.a(lib_a-dtoa.o)
__mprec_tinytens                                  /Users/imac/Downloads/gcc-arm-none-eabi-4_9-2015q2/bin/../lib/gcc/arm-none-eabi/4.9.3/../../../../arm-none-eabi/lib/armv7e-m/fpu/libg.a(lib_a-mprec.o)
__muldf3                                          /Users/imac/Downloads/gcc-arm-none-eabi-4_9-2015q2/bin/../lib/gcc/arm-none-eabi/4.9.3/armv7e-m/fpu/libgcc.a(_arm_muldivdf3.o)
__multadd                                         /Users/imac/Downloads/gcc-arm-none-eabi-4_9-2015q2/bin/../lib/gcc/arm-none-eabi/4.9.3/../../../../arm-none-eabi/lib/armv7e-m/fpu/libg.a(lib_a-mprec.o)
                                                  /Users/imac/Downloads/gcc-arm-none-eabi-4_9-2015q2/bin/../lib/gcc/arm-none-eabi/4.9.3/../../../../arm-none-eabi/lib/armv7e-m/fpu/libg.a(lib_a-dtoa.o)
__multiply                                        /Users/imac/Downloads/gcc-arm-none-eabi-4_9-2015q2/bin/../lib/gcc/arm-none-eabi/4.9.3/../../../../arm-none-eabi/lib/armv7e-m/fpu/libg.a(lib_a-mprec.o)
                                                  /Users/imac/Downloads/gcc-arm-none-eabi-4_9-2015q2/bin/../lib/gcc/arm-none-eabi/4.9.3/../../../../arm-none-eabi/lib/armv7e-m/fpu/libg.a(lib_a-dtoa.o)
__nedf2                                           /Users/imac/Downloads/gcc-arm-none-eabi-4_9-2015q2/bin/../lib/gcc/arm-none-eabi/4.9.3/armv7e-m/fpu/libgcc.a(_arm_cmpdf2.o)
__nlocale_changed                                 /Users/imac/Downloads/gcc-arm-none-eabi-4_9-2015q2/bin/../lib/gcc/arm-none-eabi/4.9.3/../../../../arm-none-eabi/lib/armv7e-m/fpu/libg.a(lib_a-locale.o)
__pow5mult                                        /Users/imac/Downloads/gcc-arm-none-eabi-4_9-2015q2/bin/../lib/gcc/arm-none-eabi/4.9.3/../../../../arm-none-eabi/lib/armv7e-m/fpu/libg.a(lib_a-mprec.o)
                                                  /Users/imac/Downloads/gcc-arm-none-eabi-4_9-2015q2/bin/../lib/gcc/arm-none-eabi/4.9.3/../../../../arm-none-eabi/lib/armv7e-m/fpu/libg.a(lib_a-dtoa.o)
__process_stack_base__                            build/obj/crt0_v7m.o
__process_stack_end__                             build/obj/crt0_v7m.o
__ratio                                           /Users/imac/Downloads/gcc-arm-none-eabi-4_9-2015q2/bin/../lib/gcc/arm-none-eabi/4.9.3/../../../../arm-none-eabi/lib/armv7e-m/fpu/libg.a(lib_a-mprec.o)
__s2b                                             /Users/imac/Downloads/gcc-arm-none-eabi-4_9-2015q2/bin/../lib/gcc/arm-none-eabi/4.9.3/../../../../arm-none-eabi/lib/armv7e-m/fpu/libg.a(lib_a-mprec.o)
__ssprint_r                                       /Users/imac/Downloads/gcc-arm-none-eabi-4_9-2015q2/bin/../lib/gcc/arm-none-eabi/4.9.3/../../../../arm-none-eabi/lib/armv7e-m/fpu/libg.a(lib_a-svfiprintf.o)
                                                  /Users/imac/Downloads/gcc-arm-none-eabi-4_9-2015q2/bin/../lib/gcc/arm-none-eabi/4.9.3/../../../../arm-none-eabi/lib/armv7e-m/fpu/libg.a(lib_a-svfprintf.o)
__subdf3                                          /Users/imac/Downloads/gcc-arm-none-eabi-4_9-2015q2/bin/../lib/gcc/arm-none-eabi/4.9.3/armv7e-m/fpu/libgcc.a(_arm_addsubdf3.o)
__truncdfsf2                                      /Users/imac/Downloads/gcc-arm-none-eabi-4_9-2015q2/bin/../lib/gcc/arm-none-eabi/4.9.3/armv7e-m/fpu/libgcc.a(_arm_truncdfsf2.o)
__udivdi3                                         /Users/imac/Downloads/gcc-arm-none-eabi-4_9-2015q2/bin/../lib/gcc/arm-none-eabi/4.9.3/armv7e-m/fpu/libgcc.a(_udivdi3.o)
                                                  /Users/imac/Downloads/gcc-arm-none-eabi-4_9-2015q2/bin/../lib/gcc/arm-none-eabi/4.9.3/armv7e-m/fpu/libgcc.a(bpabi.o)
__ulp                                             /Users/imac/Downloads/gcc-arm-none-eabi-4_9-2015q2/bin/../lib/gcc/arm-none-eabi/4.9.3/../../../../arm-none-eabi/lib/armv7e-m/fpu/libg.a(lib_a-mprec.o)
_bss_end                                          build/obj/crt0_v7m.o
_bss_start                                        build/obj/crt0_v7m.o
_calloc_r                                         /Users/imac/Downloads/gcc-arm-none-eabi-4_9-2015q2/bin/../lib/gcc/arm-none-eabi/4.9.3/../../../../arm-none-eabi/lib/armv7e-m/fpu/libg.a(lib_a-callocr.o)
                                                  /Users/imac/Downloads/gcc-arm-none-eabi-4_9-2015q2/bin/../lib/gcc/arm-none-eabi/4.9.3/../../../../arm-none-eabi/lib/armv7e-m/fpu/libg.a(lib_a-mprec.o)
_close_r                                          build/obj/syscalls.o
_core_init                                        build/obj/chmemcore.o
                                                  build/obj/chsys.o
_data                                             build/obj/crt0_v7m.o
_dtoa_r                                           /Users/imac/Downloads/gcc-arm-none-eabi-4_9-2015q2/bin/../lib/gcc/arm-none-eabi/4.9.3/../../../../arm-none-eabi/lib/armv7e-m/fpu/libg.a(lib_a-dtoa.o)
                                                  /Users/imac/Downloads/gcc-arm-none-eabi-4_9-2015q2/bin/../lib/gcc/arm-none-eabi/4.9.3/../../../../arm-none-eabi/lib/armv7e-m/fpu/libg.a(lib_a-svfprintf.o)
_edata                                            build/obj/crt0_v7m.o
_free_r                                           /Users/imac/Downloads/gcc-arm-none-eabi-4_9-2015q2/bin/../lib/gcc/arm-none-eabi/4.9.3/../../../../arm-none-eabi/lib/armv7e-m/fpu/libg.a(lib_a-freer.o)
                                                  /Users/imac/Downloads/gcc-arm-none-eabi-4_9-2015q2/bin/../lib/gcc/arm-none-eabi/4.9.3/../../../../arm-none-eabi/lib/armv7e-m/fpu/libg.a(lib_a-reallocr.o)
                                                  /Users/imac/Downloads/gcc-arm-none-eabi-4_9-2015q2/bin/../lib/gcc/arm-none-eabi/4.9.3/../../../../arm-none-eabi/lib/armv7e-m/fpu/libg.a(lib_a-svfiprintf.o)
                                                  /Users/imac/Downloads/gcc-arm-none-eabi-4_9-2015q2/bin/../lib/gcc/arm-none-eabi/4.9.3/../../../../arm-none-eabi/lib/armv7e-m/fpu/libg.a(lib_a-mallocr.o)
_fstat_r                                          build/obj/syscalls.o
_global_impure_ptr                                /Users/imac/Downloads/gcc-arm-none-eabi-4_9-2015q2/bin/../lib/gcc/arm-none-eabi/4.9.3/../../../../arm-none-eabi/lib/armv7e-m/fpu/libg.a(lib_a-impure.o)
_heap_init                                        build/obj/chheap.o
                                                  build/obj/chsys.o
_impure_ptr                                       /Users/imac/Downloads/gcc-arm-none-eabi-4_9-2015q2/bin/../lib/gcc/arm-none-eabi/4.9.3/../../../../arm-none-eabi/lib/armv7e-m/fpu/libg.a(lib_a-impure.o)
                                                  /Users/imac/Downloads/gcc-arm-none-eabi-4_9-2015q2/bin/../lib/gcc/arm-none-eabi/4.9.3/../../../../arm-none-eabi/lib/armv7e-m/fpu/libg.a(lib_a-locale.o)
                                                  /Users/imac/Downloads/gcc-arm-none-eabi-4_9-2015q2/bin/../lib/gcc/arm-none-eabi/4.9.3/../../../../arm-none-eabi/lib/armv7e-m/fpu/libg.a(lib_a-vsnprintf.o)
                                                  /Users/imac/Downloads/gcc-arm-none-eabi-4_9-2015q2/bin/../lib/gcc/arm-none-eabi/4.9.3/../../../../arm-none-eabi/lib/armv7e-m/fpu/libg.a(lib_a-errno.o)
_isatty_r                                         build/obj/syscalls.o
_localeconv_r                                     /Users/imac/Downloads/gcc-arm-none-eabi-4_9-2015q2/bin/../lib/gcc/arm-none-eabi/4.9.3/../../../../arm-none-eabi/lib/armv7e-m/fpu/libg.a(lib_a-locale.o)
                                                  /Users/imac/Downloads/gcc-arm-none-eabi-4_9-2015q2/bin/../lib/gcc/arm-none-eabi/4.9.3/../../../../arm-none-eabi/lib/armv7e-m/fpu/libg.a(lib_a-svfprintf.o)
_lseek_r                                          build/obj/syscalls.o
_malloc_r                                         /Users/imac/Downloads/gcc-arm-none-eabi-4_9-2015q2/bin/../lib/gcc/arm-none-eabi/4.9.3/../../../../arm-none-eabi/lib/armv7e-m/fpu/libg.a(lib_a-mallocr.o)
                                                  /Users/imac/Downloads/gcc-arm-none-eabi-4_9-2015q2/bin/../lib/gcc/arm-none-eabi/4.9.3/../../../../arm-none-eabi/lib/armv7e-m/fpu/libg.a(lib_a-reallocr.o)
                                                  /Users/imac/Downloads/gcc-arm-none-eabi-4_9-2015q2/bin/../lib/gcc/arm-none-eabi/4.9.3/../../../../arm-none-eabi/lib/armv7e-m/fpu/libg.a(lib_a-callocr.o)
                                                  /Users/imac/Downloads/gcc-arm-none-eabi-4_9-2015q2/bin/../lib/gcc/arm-none-eabi/4.9.3/../../../../arm-none-eabi/lib/armv7e-m/fpu/libg.a(lib_a-svfiprintf.o)
                                                  /Users/imac/Downloads/gcc-arm-none-eabi-4_9-2015q2/bin/../lib/gcc/arm-none-eabi/4.9.3/../../../../arm-none-eabi/lib/armv7e-m/fpu/libg.a(lib_a-svfprintf.o)
_malloc_trim_r                                    /Users/imac/Downloads/gcc-arm-none-eabi-4_9-2015q2/bin/../lib/gcc/arm-none-eabi/4.9.3/../../../../arm-none-eabi/lib/armv7e-m/fpu/libg.a(lib_a-freer.o)
_mprec_log10                                      /Users/imac/Downloads/gcc-arm-none-eabi-4_9-2015q2/bin/../lib/gcc/arm-none-eabi/4.9.3/../../../../arm-none-eabi/lib/armv7e-m/fpu/libg.a(lib_a-mprec.o)
_pal_lld_init                                     build/obj/pal_lld.o
                                                  build/obj/hal.o
_pal_lld_setgroupmode                             build/obj/pal_lld.o
                                                  build/obj/hw_oroca.o
                                                  build/obj/flash_helper.o
                                                  build/obj/servo_dec.o
                                                  build/obj/pal.o
_port_exit_from_isr                               build/obj/chcoreasm_v7m.o
                                                  build/obj/chcore_v7m.o
_port_irq_epilogue                                build/obj/chcore_v7m.o
                                                  build/obj/irq_handlers.o
                                                  build/obj/uart_lld.o
                                                  build/obj/icu_lld.o
                                                  build/obj/usb_lld.o
                                                  build/obj/i2c_lld.o
                                                  build/obj/can_lld.o
                                                  build/obj/st_lld.o
                                                  build/obj/stm32_dma.o
_port_switch                                      build/obj/chcoreasm_v7m.o
                                                  build/obj/chschd.o
_port_switch_from_isr                             build/obj/chcoreasm_v7m.o
                                                  build/obj/chcore_v7m.o
_port_thread_start                                build/obj/chcoreasm_v7m.o
                                                  build/obj/chthreads.o
_read_r                                           build/obj/syscalls.o
_realloc_r                                        /Users/imac/Downloads/gcc-arm-none-eabi-4_9-2015q2/bin/../lib/gcc/arm-none-eabi/4.9.3/../../../../arm-none-eabi/lib/armv7e-m/fpu/libg.a(lib_a-reallocr.o)
                                                  /Users/imac/Downloads/gcc-arm-none-eabi-4_9-2015q2/bin/../lib/gcc/arm-none-eabi/4.9.3/../../../../arm-none-eabi/lib/armv7e-m/fpu/libg.a(lib_a-svfiprintf.o)
_sbrk_r                                           build/obj/syscalls.o
                                                  /Users/imac/Downloads/gcc-arm-none-eabi-4_9-2015q2/bin/../lib/gcc/arm-none-eabi/4.9.3/../../../../arm-none-eabi/lib/armv7e-m/fpu/libg.a(lib_a-freer.o)
                                                  /Users/imac/Downloads/gcc-arm-none-eabi-4_9-2015q2/bin/../lib/gcc/arm-none-eabi/4.9.3/../../../../arm-none-eabi/lib/armv7e-m/fpu/libg.a(lib_a-mallocr.o)
_scheduler_init                                   build/obj/chschd.o
                                                  build/obj/chsys.o
_setlocale_r                                      /Users/imac/Downloads/gcc-arm-none-eabi-4_9-2015q2/bin/../lib/gcc/arm-none-eabi/4.9.3/../../../../arm-none-eabi/lib/armv7e-m/fpu/libg.a(lib_a-locale.o)
_stm32_dma_streams                                build/obj/stm32_dma.o
                                                  build/obj/mcpwm.o
                                                  build/obj/uart_lld.o
                                                  build/obj/i2c_lld.o
_svfiprintf_r                                     /Users/imac/Downloads/gcc-arm-none-eabi-4_9-2015q2/bin/../lib/gcc/arm-none-eabi/4.9.3/../../../../arm-none-eabi/lib/armv7e-m/fpu/libg.a(lib_a-svfiprintf.o)
_svfprintf_r                                      /Users/imac/Downloads/gcc-arm-none-eabi-4_9-2015q2/bin/../lib/gcc/arm-none-eabi/4.9.3/../../../../arm-none-eabi/lib/armv7e-m/fpu/libg.a(lib_a-svfprintf.o)
                                                  /Users/imac/Downloads/gcc-arm-none-eabi-4_9-2015q2/bin/../lib/gcc/arm-none-eabi/4.9.3/../../../../arm-none-eabi/lib/armv7e-m/fpu/libg.a(lib_a-vsnprintf.o)
_textdata                                         build/obj/crt0_v7m.o
_thread_init                                      build/obj/chthreads.o
                                                  build/obj/chsys.o
_tm_init                                          build/obj/chtm.o
                                                  build/obj/chsys.o
_unhandled_exception                              build/obj/vectors.o
_usb_ep0in                                        build/obj/usb.o
                                                  build/obj/usb_lld.o
_usb_ep0out                                       build/obj/usb.o
                                                  build/obj/usb_lld.o
_usb_ep0setup                                     build/obj/usb.o
                                                  build/obj/usb_lld.o
_usb_reset                                        build/obj/usb.o
                                                  build/obj/usb_lld.o
_vectors                                          build/obj/vectors.o
_vsnprintf_r                                      /Users/imac/Downloads/gcc-arm-none-eabi-4_9-2015q2/bin/../lib/gcc/arm-none-eabi/4.9.3/../../../../arm-none-eabi/lib/armv7e-m/fpu/libg.a(lib_a-vsnprintf.o)
_vt_init                                          build/obj/chvt.o
                                                  build/obj/chsys.o
_write_r                                          build/obj/syscalls.o
atan2f                                            /Users/imac/Downloads/gcc-arm-none-eabi-4_9-2015q2/bin/../lib/gcc/arm-none-eabi/4.9.3/../../../../arm-none-eabi/lib/armv7e-m/fpu/libm.a(lib_a-wf_atan2.o)
                                                  build/obj/mcpwm.o
atanf                                             /Users/imac/Downloads/gcc-arm-none-eabi-4_9-2015q2/bin/../lib/gcc/arm-none-eabi/4.9.3/../../../../arm-none-eabi/lib/armv7e-m/fpu/libm.a(lib_a-sf_atan.o)
                                                  /Users/imac/Downloads/gcc-arm-none-eabi-4_9-2015q2/bin/../lib/gcc/arm-none-eabi/4.9.3/../../../../arm-none-eabi/lib/armv7e-m/fpu/libm.a(lib_a-ef_atan2.o)
bldc_init                                         build/obj/bldc.o
                                                  build/obj/main.o
bldc_start                                        build/obj/bldc.o
                                                  build/obj/main.o
boardInit                                         build/obj/board.o
                                                  build/obj/hal.o
cTest::print()                                    build/obj/main.o
canInit                                           build/obj/can.o
                                                  build/obj/hal.o
canObjectInit                                     build/obj/can.o
                                                  build/obj/can_lld.o
canReceive                                        build/obj/can.o
canSTM32SetFilters                                build/obj/can_lld.o
canSleep                                          build/obj/can.o
canStart                                          build/obj/can.o
canStop                                           build/obj/can.o
canTransmit                                       build/obj/can.o
canWakeup                                         build/obj/can.o
can_lld_init                                      build/obj/can_lld.o
                                                  build/obj/can.o
can_lld_is_rx_nonempty                            build/obj/can_lld.o
                                                  build/obj/can.o
can_lld_is_tx_empty                               build/obj/can_lld.o
                                                  build/obj/can.o
can_lld_receive                                   build/obj/can_lld.o
                                                  build/obj/can.o
can_lld_sleep                                     build/obj/can_lld.o
                                                  build/obj/can.o
can_lld_start                                     build/obj/can_lld.o
                                                  build/obj/can.o
can_lld_stop                                      build/obj/can_lld.o
                                                  build/obj/can.o
can_lld_transmit                                  build/obj/can_lld.o
                                                  build/obj/can.o
can_lld_wakeup                                    build/obj/can_lld.o
                                                  build/obj/can.o
ch                                                build/obj/chschd.o
                                                  build/obj/servo_dec.o
                                                  build/obj/mcpwm.o
                                                  build/obj/bldc.o
                                                  build/obj/usb_lld.o
                                                  build/obj/i2c_lld.o
                                                  build/obj/chmsg.o
                                                  build/obj/chevents.o
                                                  build/obj/chcond.o
                                                  build/obj/chmtx.o
                                                  build/obj/chsem.o
                                                  build/obj/chregistry.o
                                                  build/obj/chtm.o
                                                  build/obj/chthreads.o
                                                  build/obj/chvt.o
                                                  build/obj/chsys.o
chCondBroadcast                                   build/obj/chcond.o
chCondBroadcastI                                  build/obj/chcond.o
chCondObjectInit                                  build/obj/chcond.o
chCondSignal                                      build/obj/chcond.o
chCondSignalI                                     build/obj/chcond.o
chCondWait                                        build/obj/chcond.o
chCondWaitS                                       build/obj/chcond.o
chCondWaitTimeout                                 build/obj/chcond.o
chCondWaitTimeoutS                                build/obj/chcond.o
chCoreAlloc                                       build/obj/chmemcore.o
                                                  build/obj/syscalls.o
                                                  build/obj/chheap.o
chCoreAllocI                                      build/obj/chmemcore.o
chCoreGetStatusX                                  build/obj/chmemcore.o
chEvtAddEvents                                    build/obj/chevents.o
chEvtBroadcastFlags                               build/obj/chevents.o
chEvtBroadcastFlagsI                              build/obj/chevents.o
                                                  build/obj/can_lld.o
                                                  build/obj/serial_usb.o
                                                  build/obj/can.o
chEvtDispatch                                     build/obj/chevents.o
chEvtGetAndClearEvents                            build/obj/chevents.o
chEvtGetAndClearFlags                             build/obj/chevents.o
chEvtGetAndClearFlagsI                            build/obj/chevents.o
chEvtRegisterMaskWithFlags                        build/obj/chevents.o
chEvtSignal                                       build/obj/chevents.o
chEvtSignalI                                      build/obj/chevents.o
chEvtUnregister                                   build/obj/chevents.o
chEvtWaitAll                                      build/obj/chevents.o
chEvtWaitAllTimeout                               build/obj/chevents.o
chEvtWaitAny                                      build/obj/chevents.o
chEvtWaitAnyTimeout                               build/obj/chevents.o
chEvtWaitOne                                      build/obj/chevents.o
chEvtWaitOneTimeout                               build/obj/chevents.o
chHeapAlloc                                       build/obj/chheap.o
                                                  build/obj/chdynamic.o
chHeapFree                                        build/obj/chheap.o
                                                  build/obj/chdynamic.o
chHeapObjectInit                                  build/obj/chheap.o
chHeapStatus                                      build/obj/chheap.o
chIQGetTimeout                                    build/obj/chqueues.o
                                                  build/obj/serial_usb.o
chIQObjectInit                                    build/obj/chqueues.o
                                                  build/obj/serial_usb.o
chIQPutI                                          build/obj/chqueues.o
chIQReadTimeout                                   build/obj/chqueues.o
                                                  build/obj/serial_usb.o
chIQResetI                                        build/obj/chqueues.o
                                                  build/obj/serial_usb.o
chMBFetch                                         build/obj/chmboxes.o
chMBFetchI                                        build/obj/chmboxes.o
chMBFetchS                                        build/obj/chmboxes.o
chMBObjectInit                                    build/obj/chmboxes.o
chMBPost                                          build/obj/chmboxes.o
chMBPostAhead                                     build/obj/chmboxes.o
chMBPostAheadI                                    build/obj/chmboxes.o
chMBPostAheadS                                    build/obj/chmboxes.o
chMBPostI                                         build/obj/chmboxes.o
chMBPostS                                         build/obj/chmboxes.o
chMBReset                                         build/obj/chmboxes.o
chMBResetI                                        build/obj/chmboxes.o
chMsgRelease                                      build/obj/chmsg.o
chMsgSend                                         build/obj/chmsg.o
chMsgWait                                         build/obj/chmsg.o
chMtxLock                                         build/obj/chmtx.o
                                                  build/obj/i2c.o
                                                  build/obj/chheap.o
chMtxLockS                                        build/obj/chmtx.o
                                                  build/obj/chcond.o
chMtxObjectInit                                   build/obj/chmtx.o
                                                  build/obj/comm_usb.o
                                                  build/obj/i2c.o
                                                  build/obj/chheap.o
chMtxTryLock                                      build/obj/chmtx.o
chMtxTryLockS                                     build/obj/chmtx.o
chMtxUnlock                                       build/obj/chmtx.o
                                                  build/obj/i2c.o
                                                  build/obj/chheap.o
chMtxUnlockAll                                    build/obj/chmtx.o
chMtxUnlockS                                      build/obj/chmtx.o
                                                  build/obj/chcond.o
chOQGetI                                          build/obj/chqueues.o
chOQObjectInit                                    build/obj/chqueues.o
                                                  build/obj/serial_usb.o
chOQPutTimeout                                    build/obj/chqueues.o
                                                  build/obj/serial_usb.o
chOQResetI                                        build/obj/chqueues.o
                                                  build/obj/serial_usb.o
chOQWriteTimeout                                  build/obj/chqueues.o
                                                  build/obj/serial_usb.o
chPoolAlloc                                       build/obj/chmempools.o
                                                  build/obj/chdynamic.o
chPoolAllocI                                      build/obj/chmempools.o
chPoolFree                                        build/obj/chmempools.o
                                                  build/obj/chdynamic.o
chPoolFreeI                                       build/obj/chmempools.o
chPoolLoadArray                                   build/obj/chmempools.o
chPoolObjectInit                                  build/obj/chmempools.o
chRegFirstThread                                  build/obj/chregistry.o
chRegNextThread                                   build/obj/chregistry.o
chSchDoReschedule                                 build/obj/chschd.o
                                                  build/obj/chcoreasm_v7m.o
chSchDoRescheduleAhead                            build/obj/chschd.o
chSchDoRescheduleBehind                           build/obj/chschd.o
                                                  build/obj/chthreads.o
chSchGoSleepS                                     build/obj/chschd.o
                                                  build/obj/chmsg.o
                                                  build/obj/chevents.o
                                                  build/obj/chcond.o
                                                  build/obj/chmtx.o
                                                  build/obj/chsem.o
                                                  build/obj/chthreads.o
chSchGoSleepTimeoutS                              build/obj/chschd.o
                                                  build/obj/can_lld.o
                                                  build/obj/chevents.o
                                                  build/obj/chcond.o
                                                  build/obj/chsem.o
                                                  build/obj/chthreads.o
chSchIsPreemptionRequired                         build/obj/chschd.o
                                                  build/obj/chcore_v7m.o
chSchReadyI                                       build/obj/chschd.o
                                                  build/obj/usb_lld.o
                                                  build/obj/chmsg.o
                                                  build/obj/chevents.o
                                                  build/obj/chcond.o
                                                  build/obj/chmtx.o
                                                  build/obj/chsem.o
                                                  build/obj/chthreads.o
chSchRescheduleS                                  build/obj/chschd.o
                                                  build/obj/usb_lld.o
                                                  build/obj/serial_usb.o
                                                  build/obj/can.o
                                                  build/obj/chmboxes.o
                                                  build/obj/chevents.o
                                                  build/obj/chcond.o
                                                  build/obj/chmtx.o
                                                  build/obj/chsem.o
                                                  build/obj/chthreads.o
                                                  build/obj/chsys.o
chSchWakeupS                                      build/obj/chschd.o
                                                  build/obj/chmsg.o
                                                  build/obj/chcond.o
                                                  build/obj/chsem.o
                                                  build/obj/chdynamic.o
                                                  build/obj/chthreads.o
chSemAddCounterI                                  build/obj/chsem.o
chSemObjectInit                                   build/obj/chsem.o
                                                  build/obj/chmboxes.o
chSemReset                                        build/obj/chsem.o
chSemResetI                                       build/obj/chsem.o
                                                  build/obj/chmboxes.o
chSemSignal                                       build/obj/chsem.o
chSemSignalI                                      build/obj/chsem.o
                                                  build/obj/chmboxes.o
chSemSignalWait                                   build/obj/chsem.o
chSemWait                                         build/obj/chsem.o
chSemWaitS                                        build/obj/chsem.o
chSemWaitTimeout                                  build/obj/chsem.o
chSemWaitTimeoutS                                 build/obj/chsem.o
                                                  build/obj/chmboxes.o
chSysGetStatusAndLockX                            build/obj/chsys.o
chSysHalt                                         build/obj/chsys.o
                                                  build/obj/uart_lld.o
                                                  build/obj/i2c_lld.o
chSysInit                                         build/obj/chsys.o
                                                  build/obj/bldc.o
chSysIntegrityCheckI                              build/obj/chsys.o
chSysIsCounterWithinX                             build/obj/chsys.o
chSysPolledDelayX                                 build/obj/chsys.o
                                                  build/obj/usb_lld.o
chSysRestoreStatusX                               build/obj/chsys.o
chSysTimerHandlerI                                build/obj/chsys.o
                                                  build/obj/st_lld.o
chTMChainMeasurementToX                           build/obj/chtm.o
chTMObjectInit                                    build/obj/chtm.o
chTMStartMeasurementX                             build/obj/chtm.o
chTMStopMeasurementX                              build/obj/chtm.o
chThdAddRef                                       build/obj/chdynamic.o
chThdCreateFromHeap                               build/obj/chdynamic.o
chThdCreateFromMemoryPool                         build/obj/chdynamic.o
chThdCreateI                                      build/obj/chthreads.o
                                                  build/obj/usb_lld.o
                                                  build/obj/chdynamic.o
chThdCreateStatic                                 build/obj/chthreads.o
                                                  build/obj/mcpwm.o
                                                  build/obj/bldc.o
                                                  build/obj/chsys.o
chThdDequeueAllI                                  build/obj/chthreads.o
                                                  build/obj/usb_lld.o
                                                  build/obj/can_lld.o
                                                  build/obj/can.o
                                                  build/obj/chqueues.o
chThdDequeueNextI                                 build/obj/chthreads.o
                                                  build/obj/chqueues.o
chThdEnqueueTimeoutS                              build/obj/chthreads.o
                                                  build/obj/can.o
                                                  build/obj/chqueues.o
chThdExit                                         build/obj/chthreads.o
                                                  build/obj/chcoreasm_v7m.o
chThdExitS                                        build/obj/chthreads.o
chThdRelease                                      build/obj/chdynamic.o
                                                  build/obj/chregistry.o
                                                  build/obj/chthreads.o
chThdResume                                       build/obj/chthreads.o
chThdResumeI                                      build/obj/chthreads.o
                                                  build/obj/usb_lld.o
                                                  build/obj/i2c_lld.o
chThdResumeS                                      build/obj/chthreads.o
chThdSetPriority                                  build/obj/chthreads.o
chThdSleep                                        build/obj/chthreads.o
                                                  build/obj/hw_oroca.o
                                                  build/obj/usb_uart.o
                                                  build/obj/mcpwm.o
                                                  build/obj/bldc.o
chThdSleepUntil                                   build/obj/chthreads.o
chThdSleepUntilWindowed                           build/obj/chthreads.o
chThdStart                                        build/obj/chthreads.o
chThdSuspendS                                     build/obj/chthreads.o
                                                  build/obj/usb_lld.o
chThdSuspendTimeoutS                              build/obj/chthreads.o
                                                  build/obj/i2c_lld.o
chThdTerminate                                    build/obj/chthreads.o
chThdWait                                         build/obj/chthreads.o
chThdYield                                        build/obj/chthreads.o
chVTDoResetI                                      build/obj/chvt.o
                                                  build/obj/chschd.o
chVTDoSetI                                        build/obj/chvt.o
                                                  build/obj/chschd.o
ch_debug                                          build/obj/chregistry.o
                                                  build/obj/chsys.o
chsnprintf                                        build/obj/chprintf.o
chvprintf                                         build/obj/chprintf.o
comm_usb_init                                     build/obj/comm_usb.o
                                                  build/obj/bldc.o
conf_general_detect_motor_param                   build/obj/conf_general.o
conf_general_init                                 build/obj/conf_general.o
                                                  build/obj/bldc.o
conf_general_read_app_configuration               build/obj/conf_general.o
                                                  build/obj/bldc.o
conf_general_read_mc_configuration                build/obj/conf_general.o
                                                  build/obj/bldc.o
conf_general_store_app_configuration              build/obj/conf_general.o
conf_general_store_mc_configuration               build/obj/conf_general.o
copysignf                                         /Users/imac/Downloads/gcc-arm-none-eabi-4_9-2015q2/bin/../lib/gcc/arm-none-eabi/4.9.3/../../../../arm-none-eabi/lib/armv7e-m/fpu/libm.a(lib_a-sf_copysign.o)
                                                  /Users/imac/Downloads/gcc-arm-none-eabi-4_9-2015q2/bin/../lib/gcc/arm-none-eabi/4.9.3/../../../../arm-none-eabi/lib/armv7e-m/fpu/libm.a(lib_a-sf_scalbn.o)
cosf                                              /Users/imac/Downloads/gcc-arm-none-eabi-4_9-2015q2/bin/../lib/gcc/arm-none-eabi/4.9.3/../../../../arm-none-eabi/lib/armv7e-m/fpu/libm.a(lib_a-sf_cos.o)
                                                  build/obj/mcpwm.o
costh                                             build/obj/mcpwm.o
count                                             build/obj/mcpwm.o
dbg_AccumTheta                                    build/obj/bldc.o
                                                  build/obj/mcpwm.o
dbg_fMea                                          build/obj/bldc.o
                                                  build/obj/mcpwm.o
dbg_fTheta                                        build/obj/bldc.o
                                                  build/obj/mcpwm.o
dmaInit                                           build/obj/stm32_dma.o
                                                  build/obj/hal_lld.o
dmaStreamAllocate                                 build/obj/stm32_dma.o
                                                  build/obj/mcpwm.o
                                                  build/obj/uart_lld.o
                                                  build/obj/i2c_lld.o
dmaStreamRelease                                  build/obj/stm32_dma.o
                                                  build/obj/uart_lld.o
                                                  build/obj/i2c_lld.o
fabsf                                             /Users/imac/Downloads/gcc-arm-none-eabi-4_9-2015q2/bin/../lib/gcc/arm-none-eabi/4.9.3/../../../../arm-none-eabi/lib/armv7e-m/fpu/libm.a(lib_a-sf_fabs.o)
                                                  /Users/imac/Downloads/gcc-arm-none-eabi-4_9-2015q2/bin/../lib/gcc/arm-none-eabi/4.9.3/../../../../arm-none-eabi/lib/armv7e-m/fpu/libm.a(lib_a-sf_atan.o)
                                                  /Users/imac/Downloads/gcc-arm-none-eabi-4_9-2015q2/bin/../lib/gcc/arm-none-eabi/4.9.3/../../../../arm-none-eabi/lib/armv7e-m/fpu/libm.a(lib_a-ef_rem_pio2.o)
                                                  /Users/imac/Downloads/gcc-arm-none-eabi-4_9-2015q2/bin/../lib/gcc/arm-none-eabi/4.9.3/../../../../arm-none-eabi/lib/armv7e-m/fpu/libm.a(lib_a-ef_atan2.o)
flash_helper_erase_new_app                        build/obj/flash_helper.o
flash_helper_get_sector_address                   build/obj/flash_helper.o
                                                  build/obj/eeprom.o
flash_helper_jump_to_bootloader                   build/obj/flash_helper.o
flash_helper_write_new_app_data                   build/obj/flash_helper.o
floorf                                            /Users/imac/Downloads/gcc-arm-none-eabi-4_9-2015q2/bin/../lib/gcc/arm-none-eabi/4.9.3/../../../../arm-none-eabi/lib/armv7e-m/fpu/libm.a(lib_a-sf_floor.o)
                                                  /Users/imac/Downloads/gcc-arm-none-eabi-4_9-2015q2/bin/../lib/gcc/arm-none-eabi/4.9.3/../../../../arm-none-eabi/lib/armv7e-m/fpu/libm.a(lib_a-kf_rem_pio2.o)
fmodf                                             /Users/imac/Downloads/gcc-arm-none-eabi-4_9-2015q2/bin/../lib/gcc/arm-none-eabi/4.9.3/../../../../arm-none-eabi/lib/armv7e-m/fpu/libm.a(lib_a-wf_fmod.o)
                                                  build/obj/utils.o
fputc                                             build/obj/mcpwm.o
halInit                                           build/obj/hal.o
                                                  build/obj/bldc.o
hal_lld_init                                      build/obj/hal_lld.o
                                                  build/obj/hal.o
hw_init_gpio                                      build/obj/hw_oroca.o
                                                  build/obj/bldc.o
hw_setup_adc_channels                             build/obj/hw_oroca.o
                                                  build/obj/mcpwm.o
hw_start_i2c                                      build/obj/hw_oroca.o
hw_stop_i2c                                       build/obj/hw_oroca.o
hw_try_restore_i2c                                build/obj/hw_oroca.o
i2cAcquireBus                                     build/obj/i2c.o
                                                  build/obj/hw_oroca.o
i2cGetErrors                                      build/obj/i2c.o
i2cInit                                           build/obj/i2c.o
                                                  build/obj/hal.o
i2cMasterReceiveTimeout                           build/obj/i2c.o
i2cMasterTransmitTimeout                          build/obj/i2c.o
i2cObjectInit                                     build/obj/i2c.o
                                                  build/obj/i2c_lld.o
i2cReleaseBus                                     build/obj/i2c.o
                                                  build/obj/hw_oroca.o
i2cStart                                          build/obj/i2c.o
                                                  build/obj/hw_oroca.o
i2cStop                                           build/obj/i2c.o
                                                  build/obj/hw_oroca.o
i2c_lld_init                                      build/obj/i2c_lld.o
                                                  build/obj/i2c.o
i2c_lld_master_receive_timeout                    build/obj/i2c_lld.o
                                                  build/obj/i2c.o
i2c_lld_master_transmit_timeout                   build/obj/i2c_lld.o
                                                  build/obj/i2c.o
i2c_lld_start                                     build/obj/i2c_lld.o
                                                  build/obj/i2c.o
i2c_lld_stop                                      build/obj/i2c_lld.o
                                                  build/obj/i2c.o
iADCisrCnt                                        build/obj/mcpwm.o
icuDisableNotifications                           build/obj/icu.o
icuEnableNotifications                            build/obj/icu.o
                                                  build/obj/servo_dec.o
icuInit                                           build/obj/icu.o
                                                  build/obj/hal.o
icuObjectInit                                     build/obj/icu.o
                                                  build/obj/icu_lld.o
icuStart                                          build/obj/icu.o
                                                  build/obj/servo_dec.o
icuStartCapture                                   build/obj/icu.o
                                                  build/obj/servo_dec.o
icuStop                                           build/obj/icu.o
icuStopCapture                                    build/obj/icu.o
icuWaitCapture                                    build/obj/icu.o
icu_lld_disable_notifications                     build/obj/icu_lld.o
                                                  build/obj/icu.o
icu_lld_enable_notifications                      build/obj/icu_lld.o
                                                  build/obj/icu.o
icu_lld_init                                      build/obj/icu_lld.o
                                                  build/obj/icu.o
icu_lld_start                                     build/obj/icu_lld.o
                                                  build/obj/icu.o
icu_lld_start_capture                             build/obj/icu_lld.o
                                                  build/obj/icu.o
icu_lld_stop                                      build/obj/icu_lld.o
                                                  build/obj/icu.o
icu_lld_stop_capture                              build/obj/icu_lld.o
                                                  build/obj/icu.o
icu_lld_wait_capture                              build/obj/icu_lld.o
                                                  build/obj/icu.o
localeconv                                        /Users/imac/Downloads/gcc-arm-none-eabi-4_9-2015q2/bin/../lib/gcc/arm-none-eabi/4.9.3/../../../../arm-none-eabi/lib/armv7e-m/fpu/libg.a(lib_a-locale.o)
main                                              build/obj/main.o
                                                  build/obj/crt0_v7m.o
main_init()                                       build/obj/main.o
matherr                                           /Users/imac/Downloads/gcc-arm-none-eabi-4_9-2015q2/bin/../lib/gcc/arm-none-eabi/4.9.3/../../../../arm-none-eabi/lib/armv7e-m/fpu/libm.a(lib_a-s_matherr.o)
                                                  /Users/imac/Downloads/gcc-arm-none-eabi-4_9-2015q2/bin/../lib/gcc/arm-none-eabi/4.9.3/../../../../arm-none-eabi/lib/armv7e-m/fpu/libm.a(lib_a-wf_sqrt.o)
                                                  /Users/imac/Downloads/gcc-arm-none-eabi-4_9-2015q2/bin/../lib/gcc/arm-none-eabi/4.9.3/../../../../arm-none-eabi/lib/armv7e-m/fpu/libm.a(lib_a-wf_fmod.o)
mc_interface_release_motor                        build/obj/flash_helper.o
mc_interface_unlock                               build/obj/flash_helper.o
mcpwm_adc_inj_int_handler                         build/obj/mcpwm.o
                                                  build/obj/irq_handlers.o
mcpwm_adc_int_handler                             build/obj/mcpwm.o
mcpwm_fault_to_string                             build/obj/mcpwm.o
mcpwm_get_configuration                           build/obj/mcpwm.o
mcpwm_get_fault                                   build/obj/mcpwm.o
                                                  build/obj/bldc.o
mcpwm_get_rpm                                     build/obj/mcpwm.o
mcpwm_get_rpm_dep                                 build/obj/mcpwm.o
mcpwm_get_state                                   build/obj/mcpwm.o
                                                  build/obj/bldc.o
mcpwm_get_tot_current                             build/obj/mcpwm.o
mcpwm_init                                        build/obj/mcpwm.o
                                                  build/obj/bldc.o
mcpwm_set_configuration                           build/obj/mcpwm.o
memchr                                            /Users/imac/Downloads/gcc-arm-none-eabi-4_9-2015q2/bin/../lib/gcc/arm-none-eabi/4.9.3/../../../../arm-none-eabi/lib/armv7e-m/fpu/libg.a(lib_a-memchr.o)
                                                  /Users/imac/Downloads/gcc-arm-none-eabi-4_9-2015q2/bin/../lib/gcc/arm-none-eabi/4.9.3/../../../../arm-none-eabi/lib/armv7e-m/fpu/libg.a(lib_a-svfiprintf.o)
                                                  /Users/imac/Downloads/gcc-arm-none-eabi-4_9-2015q2/bin/../lib/gcc/arm-none-eabi/4.9.3/../../../../arm-none-eabi/lib/armv7e-m/fpu/libg.a(lib_a-svfprintf.o)
memcpy                                            /Users/imac/Downloads/gcc-arm-none-eabi-4_9-2015q2/bin/../lib/gcc/arm-none-eabi/4.9.3/../../../../arm-none-eabi/lib/armv7e-m/fpu/libg.a(lib_a-memcpy.o)
                                                  /Users/imac/Downloads/gcc-arm-none-eabi-4_9-2015q2/bin/../lib/gcc/arm-none-eabi/4.9.3/../../../../arm-none-eabi/lib/armv7e-m/fpu/libg.a(lib_a-svfiprintf.o)
                                                  /Users/imac/Downloads/gcc-arm-none-eabi-4_9-2015q2/bin/../lib/gcc/arm-none-eabi/4.9.3/../../../../arm-none-eabi/lib/armv7e-m/fpu/libg.a(lib_a-mprec.o)
                                                  /Users/imac/Downloads/gcc-arm-none-eabi-4_9-2015q2/bin/../lib/gcc/arm-none-eabi/4.9.3/../../../../arm-none-eabi/lib/armv7e-m/fpu/libg.a(lib_a-dtoa.o)
memmove                                           /Users/imac/Downloads/gcc-arm-none-eabi-4_9-2015q2/bin/../lib/gcc/arm-none-eabi/4.9.3/../../../../arm-none-eabi/lib/armv7e-m/fpu/libg.a(lib_a-memmove.o)
                                                  /Users/imac/Downloads/gcc-arm-none-eabi-4_9-2015q2/bin/../lib/gcc/arm-none-eabi/4.9.3/../../../../arm-none-eabi/lib/armv7e-m/fpu/libg.a(lib_a-reallocr.o)
                                                  /Users/imac/Downloads/gcc-arm-none-eabi-4_9-2015q2/bin/../lib/gcc/arm-none-eabi/4.9.3/../../../../arm-none-eabi/lib/armv7e-m/fpu/libg.a(lib_a-svfiprintf.o)
memset                                            /Users/imac/Downloads/gcc-arm-none-eabi-4_9-2015q2/bin/../lib/gcc/arm-none-eabi/4.9.3/../../../../arm-none-eabi/lib/armv7e-m/fpu/libg.a(lib_a-memset.o)
                                                  /Users/imac/Downloads/gcc-arm-none-eabi-4_9-2015q2/bin/../lib/gcc/arm-none-eabi/4.9.3/../../../../arm-none-eabi/lib/armv7e-m/fpu/libg.a(lib_a-callocr.o)
                                                  build/obj/conf_general.o
                                                  build/obj/syscalls.o
                                                  build/obj/usb.o
msObjectInit                                      build/obj/chprintf.o
nvicClearPending                                  build/obj/nvic.o
nvicDisableVector                                 build/obj/nvic.o
                                                  build/obj/uart_lld.o
                                                  build/obj/icu_lld.o
                                                  build/obj/usb_lld.o
                                                  build/obj/i2c_lld.o
                                                  build/obj/can_lld.o
                                                  build/obj/stm32_dma.o
nvicEnableVector                                  build/obj/nvic.o
                                                  build/obj/uart_lld.o
                                                  build/obj/icu_lld.o
                                                  build/obj/usb_lld.o
                                                  build/obj/i2c_lld.o
                                                  build/obj/can_lld.o
                                                  build/obj/stm32_dma.o
nvicSetSystemHandlerPriority                      build/obj/nvic.o
                                                  build/obj/st_lld.o
palReadBus                                        build/obj/pal.o
palSetBusMode                                     build/obj/pal.o
palWriteBus                                       build/obj/pal.o
pal_default_config                                build/obj/board.o
                                                  build/obj/hal.o
qVelRef                                           build/obj/bldc.o
                                                  build/obj/mcpwm.o
scalbnf                                           /Users/imac/Downloads/gcc-arm-none-eabi-4_9-2015q2/bin/../lib/gcc/arm-none-eabi/4.9.3/../../../../arm-none-eabi/lib/armv7e-m/fpu/libm.a(lib_a-sf_scalbn.o)
                                                  /Users/imac/Downloads/gcc-arm-none-eabi-4_9-2015q2/bin/../lib/gcc/arm-none-eabi/4.9.3/../../../../arm-none-eabi/lib/armv7e-m/fpu/libm.a(lib_a-kf_rem_pio2.o)
sduConfigureHookI                                 build/obj/serial_usb.o
                                                  build/obj/usb_uart.o
sduDataReceived                                   build/obj/serial_usb.o
                                                  build/obj/usb_uart.o
sduDataTransmitted                                build/obj/serial_usb.o
                                                  build/obj/usb_uart.o
sduInit                                           build/obj/serial_usb.o
                                                  build/obj/hal.o
sduInterruptTransmitted                           build/obj/serial_usb.o
                                                  build/obj/usb_uart.o
sduObjectInit                                     build/obj/serial_usb.o
                                                  build/obj/usb_uart.o
sduRequestsHook                                   build/obj/serial_usb.o
                                                  build/obj/usb_uart.o
sduStart                                          build/obj/serial_usb.o
                                                  build/obj/usb_uart.o
sduStop                                           build/obj/serial_usb.o
serusbcfg                                         build/obj/usb_uart.o
servodec_get_last_pulse_len                       build/obj/servo_dec.o
servodec_get_servo                                build/obj/servo_dec.o
servodec_get_time_since_update                    build/obj/servo_dec.o
servodec_init                                     build/obj/servo_dec.o
servodec_set_pulse_options                        build/obj/servo_dec.o
setlocale                                         /Users/imac/Downloads/gcc-arm-none-eabi-4_9-2015q2/bin/../lib/gcc/arm-none-eabi/4.9.3/../../../../arm-none-eabi/lib/armv7e-m/fpu/libg.a(lib_a-locale.o)
sinf                                              /Users/imac/Downloads/gcc-arm-none-eabi-4_9-2015q2/bin/../lib/gcc/arm-none-eabi/4.9.3/../../../../arm-none-eabi/lib/armv7e-m/fpu/libm.a(lib_a-sf_sin.o)
                                                  build/obj/mcpwm.o
sinth                                             build/obj/mcpwm.o
smc1                                              build/obj/mcpwm.o
sqrtf                                             /Users/imac/Downloads/gcc-arm-none-eabi-4_9-2015q2/bin/../lib/gcc/arm-none-eabi/4.9.3/../../../../arm-none-eabi/lib/armv7e-m/fpu/libm.a(lib_a-wf_sqrt.o)
                                                  build/obj/mcpwm.o
stGetAlarm                                        build/obj/st.o
stInit                                            build/obj/st.o
                                                  build/obj/hal.o
stSetAlarm                                        build/obj/st.o
stStartAlarm                                      build/obj/st.o
stStopAlarm                                       build/obj/st.o
st_lld_init                                       build/obj/st_lld.o
                                                  build/obj/st.o
stm32_clock_init                                  build/obj/hal_lld.o
                                                  build/obj/board.o
stop_pwm_hw                                       build/obj/mcpwm.o
strcmp                                            /Users/imac/Downloads/gcc-arm-none-eabi-4_9-2015q2/bin/../lib/gcc/arm-none-eabi/4.9.3/../../../../arm-none-eabi/lib/armv7e-m/fpu/libg.a(lib_a-strcmp.o)
                                                  /Users/imac/Downloads/gcc-arm-none-eabi-4_9-2015q2/bin/../lib/gcc/arm-none-eabi/4.9.3/../../../../arm-none-eabi/lib/armv7e-m/fpu/libg.a(lib_a-locale.o)
strlen                                            /Users/imac/Downloads/gcc-arm-none-eabi-4_9-2015q2/bin/../lib/gcc/arm-none-eabi/4.9.3/../../../../arm-none-eabi/lib/armv7e-m/fpu/libg.a(lib_a-strlen.o)
                                                  /Users/imac/Downloads/gcc-arm-none-eabi-4_9-2015q2/bin/../lib/gcc/arm-none-eabi/4.9.3/../../../../arm-none-eabi/lib/armv7e-m/fpu/libg.a(lib_a-svfiprintf.o)
                                                  /Users/imac/Downloads/gcc-arm-none-eabi-4_9-2015q2/bin/../lib/gcc/arm-none-eabi/4.9.3/../../../../arm-none-eabi/lib/armv7e-m/fpu/libg.a(lib_a-svfprintf.o)
switching_frequency_now                           build/obj/mcpwm.o
test                                              build/obj/main.o
uGF                                               build/obj/mcpwm.o
uartInit                                          build/obj/uart.o
                                                  build/obj/hal.o
uartObjectInit                                    build/obj/uart.o
                                                  build/obj/uart_lld.o
uartStart                                         build/obj/uart.o
uartStartReceive                                  build/obj/uart.o
uartStartReceiveI                                 build/obj/uart.o
uartStartSend                                     build/obj/uart.o
uartStartSendI                                    build/obj/uart.o
uartStop                                          build/obj/uart.o
                                                  build/obj/flash_helper.o
uartStopReceive                                   build/obj/uart.o
uartStopReceiveI                                  build/obj/uart.o
uartStopSend                                      build/obj/uart.o
uartStopSendI                                     build/obj/uart.o
uart_lld_init                                     build/obj/uart_lld.o
                                                  build/obj/uart.o
uart_lld_start                                    build/obj/uart_lld.o
                                                  build/obj/uart.o
uart_lld_start_receive                            build/obj/uart_lld.o
                                                  build/obj/uart.o
uart_lld_start_send                               build/obj/uart_lld.o
                                                  build/obj/uart.o
uart_lld_stop                                     build/obj/uart_lld.o
                                                  build/obj/uart.o
uart_lld_stop_receive                             build/obj/uart_lld.o
                                                  build/obj/uart.o
uart_lld_stop_send                                build/obj/uart_lld.o
                                                  build/obj/uart.o
update_timer_Duty                                 build/obj/mcpwm.o
usbDisableEndpointsI                              build/obj/usb.o
usbInit                                           build/obj/usb.o
                                                  build/obj/hal.o
usbInitEndpointI                                  build/obj/usb.o
                                                  build/obj/usb_uart.o
usbObjectInit                                     build/obj/usb.o
                                                  build/obj/usb_lld.o
usbPrepareQueuedReceive                           build/obj/usb.o
                                                  build/obj/serial_usb.o
usbPrepareQueuedTransmit                          build/obj/usb.o
                                                  build/obj/serial_usb.o
usbPrepareReceive                                 build/obj/usb.o
usbPrepareTransmit                                build/obj/usb.o
usbStallReceiveI                                  build/obj/usb.o
usbStallTransmitI                                 build/obj/usb.o
usbStart                                          build/obj/usb.o
                                                  build/obj/usb_uart.o
usbStartReceiveI                                  build/obj/usb.o
                                                  build/obj/serial_usb.o
usbStartTransmitI                                 build/obj/usb.o
                                                  build/obj/serial_usb.o
usbStop                                           build/obj/usb.o
                                                  build/obj/flash_helper.o
usb_lld_clear_in                                  build/obj/usb_lld.o
                                                  build/obj/usb.o
usb_lld_clear_out                                 build/obj/usb_lld.o
                                                  build/obj/usb.o
usb_lld_disable_endpoints                         build/obj/usb_lld.o
                                                  build/obj/usb.o
usb_lld_get_status_in                             build/obj/usb_lld.o
                                                  build/obj/usb.o
usb_lld_get_status_out                            build/obj/usb_lld.o
                                                  build/obj/usb.o
usb_lld_init                                      build/obj/usb_lld.o
                                                  build/obj/usb.o
usb_lld_init_endpoint                             build/obj/usb_lld.o
                                                  build/obj/usb.o
usb_lld_prepare_receive                           build/obj/usb_lld.o
                                                  build/obj/usb.o
usb_lld_prepare_transmit                          build/obj/usb_lld.o
                                                  build/obj/usb.o
usb_lld_pump                                      build/obj/usb_lld.o
usb_lld_read_setup                                build/obj/usb_lld.o
                                                  build/obj/usb.o
usb_lld_reset                                     build/obj/usb_lld.o
                                                  build/obj/usb.o
usb_lld_set_address                               build/obj/usb_lld.o
                                                  build/obj/usb.o
usb_lld_stall_in                                  build/obj/usb_lld.o
                                                  build/obj/usb.o
usb_lld_stall_out                                 build/obj/usb_lld.o
                                                  build/obj/usb.o
usb_lld_start                                     build/obj/usb_lld.o
                                                  build/obj/usb.o
usb_lld_start_in                                  build/obj/usb_lld.o
                                                  build/obj/usb.o
usb_lld_start_out                                 build/obj/usb_lld.o
                                                  build/obj/usb.o
usb_lld_stop                                      build/obj/usb_lld.o
                                                  build/obj/usb.o
usb_uart_getch                                    build/obj/usb_uart.o
                                                  build/obj/bldc.o
usb_uart_init                                     build/obj/usb_uart.o
                                                  build/obj/comm_usb.o
usb_uart_isActive                                 build/obj/usb_uart.o
usb_uart_printf                                   build/obj/usb_uart.o
                                                  build/obj/bldc.o
utils_angle_difference                            build/obj/utils.o
utils_calc_ratio                                  build/obj/utils.o
utils_deadband                                    build/obj/utils.o
utils_map                                         build/obj/utils.o
utils_middle_of_3                                 build/obj/servo_dec.o
utils_norm_angle                                  build/obj/utils.o
utils_step_towards                                build/obj/utils.o
utils_sys_lock_cnt                                build/obj/utils.o
                                                  build/obj/flash_helper.o
                                                  build/obj/conf_general.o
                                                  build/obj/mcpwm.o
utils_sys_unlock_cnt                              build/obj/utils.o
                                                  build/obj/flash_helper.o
                                                  build/obj/conf_general.o
                                                  build/obj/mcpwm.o
utils_truncate_number                             build/obj/utils.o
vsnprintf                                         /Users/imac/Downloads/gcc-arm-none-eabi-4_9-2015q2/bin/../lib/gcc/arm-none-eabi/4.9.3/../../../../arm-none-eabi/lib/armv7e-m/fpu/libg.a(lib_a-vsnprintf.o)
                                                  build/obj/usb_uart.o
