ARM GAS  /var/folders/bz/nn5481rn5xq59rb0mbj7x0880000gn/T//ccORlfgW.s 			page 1


   1              		.syntax unified
   2              		.cpu cortex-m4
   3              		.eabi_attribute 27, 1
   4              		.eabi_attribute 28, 1
   5              		.fpu fpv4-sp-d16
   6              		.eabi_attribute 20, 1
   7              		.eabi_attribute 21, 1
   8              		.eabi_attribute 23, 3
   9              		.eabi_attribute 24, 1
  10              		.eabi_attribute 25, 1
  11              		.eabi_attribute 26, 1
  12              		.eabi_attribute 30, 2
  13              		.eabi_attribute 34, 1
  14              		.eabi_attribute 18, 4
  15              		.thumb
  16              		.file	"app.c"
  17              		.text
  18              	.Ltext0:
  19              		.cfi_sections	.debug_frame
  20              		.section	.text.app_get_configuration,"ax",%progbits
  21              		.align	2
  22              		.p2align 4,,15
  23              		.global	app_get_configuration
  24              		.thumb
  25              		.thumb_func
  26              		.type	app_get_configuration, %function
  27              	app_get_configuration:
  28              	.LFB119:
  29              		.file 1 "lib/app/app.c"
  30              		.loc 1 86 0
  31              		.cfi_startproc
  32              		@ args = 0, pretend = 0, frame = 0
  33              		@ frame_needed = 0, uses_anonymous_args = 0
  34              		@ link register save eliminated.
  35              		.loc 1 88 0
  36 0000 0048     		ldr	r0, .L2
  37 0002 7047     		bx	lr
  38              	.L3:
  39              		.align	2
  40              	.L2:
  41 0004 00000000 		.word	.LANCHOR0
  42              		.cfi_endproc
  43              	.LFE119:
  44              		.size	app_get_configuration, .-app_get_configuration
  45              		.section	.text.app_set_configuration,"ax",%progbits
  46              		.align	2
  47              		.p2align 4,,15
  48              		.global	app_set_configuration
  49              		.thumb
  50              		.thumb_func
  51              		.type	app_set_configuration, %function
  52              	app_set_configuration:
  53              	.LFB120:
  54              		.loc 1 97 0
  55              		.cfi_startproc
  56              		@ args = 0, pretend = 0, frame = 0
  57              		@ frame_needed = 0, uses_anonymous_args = 0
ARM GAS  /var/folders/bz/nn5481rn5xq59rb0mbj7x0880000gn/T//ccORlfgW.s 			page 2


  58              	.LVL0:
  59 0000 10B5     		push	{r4, lr}
  60              		.cfi_def_cfa_offset 8
  61              		.cfi_offset 4, -8
  62              		.cfi_offset 14, -4
  63              		.loc 1 98 0
  64 0002 0B4C     		ldr	r4, .L6
  65              		.loc 1 97 0
  66 0004 0146     		mov	r1, r0
  67              		.loc 1 98 0
  68 0006 8C22     		movs	r2, #140
  69 0008 2046     		mov	r0, r4
  70              	.LVL1:
  71 000a FFF7FEFF 		bl	memcpy
  72              	.LVL2:
  73              		.loc 1 99 0
  74 000e 04F11800 		add	r0, r4, #24
  75 0012 FFF7FEFF 		bl	app_ppm_configure
  76              	.LVL3:
  77              		.loc 1 100 0
  78 0016 04F14000 		add	r0, r4, #64
  79 001a FFF7FEFF 		bl	app_adc_configure
  80              	.LVL4:
  81              		.loc 1 101 0
  82 001e A06E     		ldr	r0, [r4, #104]
  83 0020 FFF7FEFF 		bl	app_uartcomm_configure
  84              	.LVL5:
  85              		.loc 1 102 0
  86 0024 04F16C00 		add	r0, r4, #108
  87              		.loc 1 103 0
  88 0028 BDE81040 		pop	{r4, lr}
  89              		.cfi_restore 14
  90              		.cfi_restore 4
  91              		.cfi_def_cfa_offset 0
  92              		.loc 1 102 0
  93 002c FFF7FEBF 		b	app_nunchuk_configure
  94              	.LVL6:
  95              	.L7:
  96              		.align	2
  97              	.L6:
  98 0030 00000000 		.word	.LANCHOR0
  99              		.cfi_endproc
 100              	.LFE120:
 101              		.size	app_set_configuration, .-app_set_configuration
 102              		.section	.text.app_init,"ax",%progbits
 103              		.align	2
 104              		.p2align 4,,15
 105              		.global	app_init
 106              		.thumb
 107              		.thumb_func
 108              		.type	app_init, %function
 109              	app_init:
 110              	.LFB118:
 111              		.loc 1 34 0
 112              		.cfi_startproc
 113              		@ args = 0, pretend = 0, frame = 0
 114              		@ frame_needed = 0, uses_anonymous_args = 0
ARM GAS  /var/folders/bz/nn5481rn5xq59rb0mbj7x0880000gn/T//ccORlfgW.s 			page 3


 115              	.LVL7:
 116 0000 08B5     		push	{r3, lr}
 117              		.cfi_def_cfa_offset 8
 118              		.cfi_offset 3, -8
 119              		.cfi_offset 14, -4
 120              		.loc 1 35 0
 121 0002 FFF7FEFF 		bl	app_set_configuration
 122              	.LVL8:
 123              		.loc 1 37 0
 124 0006 194B     		ldr	r3, .L20
 125 0008 1B7D     		ldrb	r3, [r3, #20]	@ zero_extendqisi2
 126 000a 013B     		subs	r3, r3, #1
 127 000c 062B     		cmp	r3, #6
 128 000e 2BD8     		bhi	.L8
 129 0010 DFE803F0 		tbb	[pc, r3]
 130              	.L11:
 131 0014 08       		.byte	(.L10-.L11)/2
 132 0015 0C       		.byte	(.L12-.L11)/2
 133 0016 10       		.byte	(.L13-.L11)/2
 134 0017 16       		.byte	(.L14-.L11)/2
 135 0018 1E       		.byte	(.L15-.L11)/2
 136 0019 26       		.byte	(.L16-.L11)/2
 137 001a 04       		.byte	(.L17-.L11)/2
 138 001b 00       		.p2align 1
 139              	.L17:
 140              		.loc 1 84 0
 141 001c BDE80840 		pop	{r3, lr}
 142              		.cfi_remember_state
 143              		.cfi_restore 14
 144              		.cfi_restore 3
 145              		.cfi_def_cfa_offset 0
 146              		.loc 1 68 0
 147 0020 FFF7FEBF 		b	nrf_driver_init
 148              	.LVL9:
 149              	.L10:
 150              		.cfi_restore_state
 151              		.loc 1 84 0
 152 0024 BDE80840 		pop	{r3, lr}
 153              		.cfi_remember_state
 154              		.cfi_restore 14
 155              		.cfi_restore 3
 156              		.cfi_def_cfa_offset 0
 157              		.loc 1 39 0
 158 0028 FFF7FEBF 		b	app_ppm_start
 159              	.LVL10:
 160              	.L12:
 161              		.cfi_restore_state
 162              		.loc 1 84 0
 163 002c BDE80840 		pop	{r3, lr}
 164              		.cfi_remember_state
 165              		.cfi_restore 14
 166              		.cfi_restore 3
 167              		.cfi_def_cfa_offset 0
 168              		.loc 1 43 0
 169 0030 FFF7FEBF 		b	app_adc_start
 170              	.LVL11:
 171              	.L13:
ARM GAS  /var/folders/bz/nn5481rn5xq59rb0mbj7x0880000gn/T//ccORlfgW.s 			page 4


 172              		.cfi_restore_state
 173              		.loc 1 47 0
 174 0034 FFF7FEFF 		bl	hw_stop_i2c
 175              	.LVL12:
 176              		.loc 1 84 0
 177 0038 BDE80840 		pop	{r3, lr}
 178              		.cfi_remember_state
 179              		.cfi_restore 14
 180              		.cfi_restore 3
 181              		.cfi_def_cfa_offset 0
 182              		.loc 1 48 0
 183 003c FFF7FEBF 		b	app_uartcomm_start
 184              	.LVL13:
 185              	.L14:
 186              		.cfi_restore_state
 187              		.loc 1 52 0
 188 0040 FFF7FEFF 		bl	hw_stop_i2c
 189              	.LVL14:
 190              		.loc 1 53 0
 191 0044 FFF7FEFF 		bl	app_ppm_start
 192              	.LVL15:
 193              		.loc 1 84 0
 194 0048 BDE80840 		pop	{r3, lr}
 195              		.cfi_remember_state
 196              		.cfi_restore 14
 197              		.cfi_restore 3
 198              		.cfi_def_cfa_offset 0
 199              		.loc 1 54 0
 200 004c FFF7FEBF 		b	app_uartcomm_start
 201              	.LVL16:
 202              	.L15:
 203              		.cfi_restore_state
 204              		.loc 1 58 0
 205 0050 FFF7FEFF 		bl	hw_stop_i2c
 206              	.LVL17:
 207              		.loc 1 59 0
 208 0054 FFF7FEFF 		bl	app_adc_start
 209              	.LVL18:
 210              		.loc 1 84 0
 211 0058 BDE80840 		pop	{r3, lr}
 212              		.cfi_remember_state
 213              		.cfi_restore 14
 214              		.cfi_restore 3
 215              		.cfi_def_cfa_offset 0
 216              		.loc 1 60 0
 217 005c FFF7FEBF 		b	app_uartcomm_start
 218              	.LVL19:
 219              	.L16:
 220              		.cfi_restore_state
 221              		.loc 1 84 0
 222 0060 BDE80840 		pop	{r3, lr}
 223              		.cfi_restore 14
 224              		.cfi_restore 3
 225              		.cfi_def_cfa_offset 0
 226              		.loc 1 64 0
 227 0064 FFF7FEBF 		b	app_nunchuk_start
 228              	.LVL20:
ARM GAS  /var/folders/bz/nn5481rn5xq59rb0mbj7x0880000gn/T//ccORlfgW.s 			page 5


 229              	.L8:
 230 0068 08BD     		pop	{r3, pc}
 231              	.L21:
 232 006a 00BF     		.align	2
 233              	.L20:
 234 006c 00000000 		.word	.LANCHOR0
 235              		.cfi_endproc
 236              	.LFE118:
 237              		.size	app_init, .-app_init
 238              		.section	.bss.appconf,"aw",%nobits
 239              		.align	2
 240              		.set	.LANCHOR0,. + 0
 241              		.type	appconf, %object
 242              		.size	appconf, 140
 243              	appconf:
 244 0000 00000000 		.space	140
 244      00000000 
 244      00000000 
 244      00000000 
 244      00000000 
 245              		.text
 246              	.Letext0:
 247              		.file 2 "/Users/imac/Downloads/gcc-arm-none-eabi-4_9-2015q2/arm-none-eabi/include/machine/_default
 248              		.file 3 "/Users/imac/Downloads/gcc-arm-none-eabi-4_9-2015q2/arm-none-eabi/include/sys/_stdint.h"
 249              		.file 4 "src/core/datatypes.h"
 250              		.file 5 "lib/app/app.h"
 251              		.file 6 "lib/nrf/nrf_driver.h"
 252              		.file 7 "lib/hwconf/hw.h"
 253              		.file 8 "lib/ChibiOS_2.6.6/os/ports/common/ARMCMx/CMSIS/include/core_cm4.h"