ARM GAS  /var/folders/bz/nn5481rn5xq59rb0mbj7x0880000gn/T//ccHcHkHf.s 			page 1


   1              		.syntax unified
   2              		.cpu cortex-m4
   3              		.eabi_attribute 27, 1
   4              		.eabi_attribute 28, 1
   5              		.fpu fpv4-sp-d16
   6              		.eabi_attribute 20, 1
   7              		.eabi_attribute 21, 1
   8              		.eabi_attribute 23, 3
   9              		.eabi_attribute 24, 1
  10              		.eabi_attribute 25, 1
  11              		.eabi_attribute 26, 1
  12              		.eabi_attribute 30, 2
  13              		.eabi_attribute 34, 1
  14              		.eabi_attribute 18, 4
  15              		.thumb
  16              		.file	"app_nunchuk.c"
  17              		.text
  18              	.Ltext0:
  19              		.cfi_sections	.debug_frame
  20              		.section	.text.output_thread,"ax",%progbits
  21              		.align	2
  22              		.p2align 4,,15
  23              		.thumb
  24              		.thumb_func
  25              		.type	output_thread, %function
  26              	output_thread:
  27              	.LFB123:
  28              		.file 1 "lib/app/app_nunchuk.c"
  29              		.loc 1 174 0
  30              		.cfi_startproc
  31              		@ Volatile: function does not return.
  32              		@ args = 0, pretend = 0, frame = 0
  33              		@ frame_needed = 0, uses_anonymous_args = 0
  34              	.LVL0:
  35 0000 08B5     		push	{r3, lr}
  36              		.cfi_def_cfa_offset 8
  37              		.cfi_offset 3, -8
  38              		.cfi_offset 14, -4
  39              		.loc 1 177 0
  40 0002 044B     		ldr	r3, .L5
  41 0004 044A     		ldr	r2, .L5+4
  42 0006 9B69     		ldr	r3, [r3, #24]
  43 0008 9A61     		str	r2, [r3, #24]
  44              	.LVL1:
  45              	.L2:
  46              		.loc 1 180 0 discriminator 1
  47 000a 0A20     		movs	r0, #10
  48 000c FFF7FEFF 		bl	chThdSleep
  49              	.LVL2:
  50              		.loc 1 432 0 discriminator 1
  51 0010 FBE7     		b	.L2
  52              	.L6:
  53 0012 00BF     		.align	2
  54              	.L5:
  55 0014 00000000 		.word	rlist
  56 0018 00000000 		.word	.LC0
  57              		.cfi_endproc
ARM GAS  /var/folders/bz/nn5481rn5xq59rb0mbj7x0880000gn/T//ccHcHkHf.s 			page 2


  58              	.LFE123:
  59              		.size	output_thread, .-output_thread
  60              		.section	.text.app_nunchuk_configure,"ax",%progbits
  61              		.align	2
  62              		.p2align 4,,15
  63              		.global	app_nunchuk_configure
  64              		.thumb
  65              		.thumb_func
  66              		.type	app_nunchuk_configure, %function
  67              	app_nunchuk_configure:
  68              	.LFB118:
  69              		.loc 1 58 0
  70              		.cfi_startproc
  71              		@ args = 0, pretend = 0, frame = 0
  72              		@ frame_needed = 0, uses_anonymous_args = 0
  73              		@ link register save eliminated.
  74              	.LVL3:
  75 0000 30B4     		push	{r4, r5}
  76              		.cfi_def_cfa_offset 8
  77              		.cfi_offset 4, -8
  78              		.cfi_offset 5, -4
  79              		.loc 1 59 0
  80 0002 0546     		mov	r5, r0
  81 0004 0FCD     		ldmia	r5!, {r0, r1, r2, r3}
  82              	.LVL4:
  83 0006 044C     		ldr	r4, .L9
  84 0008 0FC4     		stmia	r4!, {r0, r1, r2, r3}
  85 000a 95E80F00 		ldmia	r5, {r0, r1, r2, r3}
  86 000e 84E80F00 		stmia	r4, {r0, r1, r2, r3}
  87              		.loc 1 60 0
  88 0012 30BC     		pop	{r4, r5}
  89              		.cfi_restore 5
  90              		.cfi_restore 4
  91              		.cfi_def_cfa_offset 0
  92              	.LVL5:
  93 0014 7047     		bx	lr
  94              	.L10:
  95 0016 00BF     		.align	2
  96              	.L9:
  97 0018 00000000 		.word	.LANCHOR0
  98              		.cfi_endproc
  99              	.LFE118:
 100              		.size	app_nunchuk_configure, .-app_nunchuk_configure
 101              		.section	.text.app_nunchuk_start,"ax",%progbits
 102              		.align	2
 103              		.p2align 4,,15
 104              		.global	app_nunchuk_start
 105              		.thumb
 106              		.thumb_func
 107              		.type	app_nunchuk_start, %function
 108              	app_nunchuk_start:
 109              	.LFB119:
 110              		.loc 1 62 0
 111              		.cfi_startproc
 112              		@ args = 0, pretend = 0, frame = 0
 113              		@ frame_needed = 0, uses_anonymous_args = 0
 114 0000 30B5     		push	{r4, r5, lr}
ARM GAS  /var/folders/bz/nn5481rn5xq59rb0mbj7x0880000gn/T//ccHcHkHf.s 			page 3


 115              		.cfi_def_cfa_offset 12
 116              		.cfi_offset 4, -12
 117              		.cfi_offset 5, -8
 118              		.cfi_offset 14, -4
 119 0002 83B0     		sub	sp, sp, #12
 120              		.cfi_def_cfa_offset 24
 121              		.loc 1 63 0
 122 0004 064C     		ldr	r4, .L13
 123              		.loc 1 64 0
 124 0006 074B     		ldr	r3, .L13+4
 125 0008 0748     		ldr	r0, .L13+8
 126 000a 0022     		movs	r2, #0
 127 000c 0092     		str	r2, [sp]
 128              		.loc 1 63 0
 129 000e 8025     		movs	r5, #128
 130              		.loc 1 64 0
 131 0010 4FF4B361 		mov	r1, #1432
 132 0014 4022     		movs	r2, #64
 133              		.loc 1 63 0
 134 0016 6560     		str	r5, [r4, #4]
 135              		.loc 1 64 0
 136 0018 FFF7FEFF 		bl	chThdCreateStatic
 137              	.LVL6:
 138              		.loc 1 65 0
 139 001c 03B0     		add	sp, sp, #12
 140              		.cfi_def_cfa_offset 12
 141              		@ sp needed
 142 001e 30BD     		pop	{r4, r5, pc}
 143              	.L14:
 144              		.align	2
 145              	.L13:
 146 0020 00000000 		.word	.LANCHOR1
 147 0024 00000000 		.word	chuk_thread
 148 0028 00000000 		.word	.LANCHOR2
 149              		.cfi_endproc
 150              	.LFE119:
 151              		.size	app_nunchuk_start, .-app_nunchuk_start
 152              		.section	.text.app_nunchuk_get_decoded_chuk,"ax",%progbits
 153              		.align	2
 154              		.p2align 4,,15
 155              		.global	app_nunchuk_get_decoded_chuk
 156              		.thumb
 157              		.thumb_func
 158              		.type	app_nunchuk_get_decoded_chuk, %function
 159              	app_nunchuk_get_decoded_chuk:
 160              	.LFB120:
 161              		.loc 1 67 0
 162              		.cfi_startproc
 163              		@ args = 0, pretend = 0, frame = 0
 164              		@ frame_needed = 0, uses_anonymous_args = 0
 165              		@ link register save eliminated.
 166              		.loc 1 68 0
 167 0000 064B     		ldr	r3, .L16
 168 0002 9FED077A 		flds	s14, .L16+4
 169 0006 D3ED017A 		flds	s15, [r3, #4]	@ int
 170 000a 9FED060A 		flds	s0, .L16+8
 171 000e F8EEE77A 		fsitos	s15, s15
ARM GAS  /var/folders/bz/nn5481rn5xq59rb0mbj7x0880000gn/T//ccHcHkHf.s 			page 4


 172 0012 77EEC77A 		fsubs	s15, s15, s14
 173              		.loc 1 69 0
 174 0016 27EE800A 		fmuls	s0, s15, s0
 175 001a 7047     		bx	lr
 176              	.L17:
 177              		.align	2
 178              	.L16:
 179 001c 00000000 		.word	.LANCHOR1
 180 0020 00000043 		.word	1124073472
 181 0024 0000003C 		.word	1006632960
 182              		.cfi_endproc
 183              	.LFE120:
 184              		.size	app_nunchuk_get_decoded_chuk, .-app_nunchuk_get_decoded_chuk
 185              		.section	.text.app_nunchuk_update_output,"ax",%progbits
 186              		.align	2
 187              		.p2align 4,,15
 188              		.global	app_nunchuk_update_output
 189              		.thumb
 190              		.thumb_func
 191              		.type	app_nunchuk_update_output, %function
 192              	app_nunchuk_update_output:
 193              	.LFB121:
 194              		.loc 1 71 0
 195              		.cfi_startproc
 196              		@ args = 0, pretend = 0, frame = 0
 197              		@ frame_needed = 0, uses_anonymous_args = 0
 198              	.LVL7:
 199 0000 70B5     		push	{r4, r5, r6, lr}
 200              		.cfi_def_cfa_offset 16
 201              		.cfi_offset 4, -16
 202              		.cfi_offset 5, -12
 203              		.cfi_offset 6, -8
 204              		.cfi_offset 14, -4
 205              		.loc 1 72 0
 206 0002 104A     		ldr	r2, .L22
 207 0004 1378     		ldrb	r3, [r2]	@ zero_extendqisi2
 208              		.loc 1 71 0
 209 0006 82B0     		sub	sp, sp, #8
 210              		.cfi_def_cfa_offset 24
 211              		.loc 1 71 0
 212 0008 0446     		mov	r4, r0
 213              		.loc 1 72 0
 214 000a 03F0FF01 		and	r1, r3, #255
 215 000e 63B9     		cbnz	r3, .L19
 216              		.loc 1 75 0
 217 0010 0091     		str	r1, [sp]
 218              		.loc 1 74 0
 219 0012 0D4D     		ldr	r5, .L22+4
 220              		.loc 1 75 0
 221 0014 0D48     		ldr	r0, .L22+8
 222              	.LVL8:
 223 0016 0E4B     		ldr	r3, .L22+12
 224              		.loc 1 73 0
 225 0018 0121     		movs	r1, #1
 226 001a 1170     		strb	r1, [r2]
 227              		.loc 1 74 0
 228 001c 8026     		movs	r6, #128
ARM GAS  /var/folders/bz/nn5481rn5xq59rb0mbj7x0880000gn/T//ccHcHkHf.s 			page 5


 229              		.loc 1 75 0
 230 001e 4FF4B361 		mov	r1, #1432
 231 0022 4022     		movs	r2, #64
 232              		.loc 1 74 0
 233 0024 6E60     		str	r6, [r5, #4]
 234              		.loc 1 75 0
 235 0026 FFF7FEFF 		bl	chThdCreateStatic
 236              	.LVL9:
 237              	.L19:
 238              		.loc 1 78 0
 239 002a 0FCC     		ldmia	r4!, {r0, r1, r2, r3}
 240              	.LVL10:
 241 002c 064D     		ldr	r5, .L22+4
 242 002e 0FC5     		stmia	r5!, {r0, r1, r2, r3}
 243 0030 94E80300 		ldmia	r4, {r0, r1}
 244 0034 85E80300 		stmia	r5, {r0, r1}
 245              		.loc 1 80 0
 246 0038 02B0     		add	sp, sp, #8
 247              		.cfi_def_cfa_offset 16
 248              		@ sp needed
 249 003a BDE87040 		pop	{r4, r5, r6, lr}
 250              		.cfi_restore 14
 251              		.cfi_restore 6
 252              		.cfi_restore 5
 253              		.cfi_restore 4
 254              		.cfi_def_cfa_offset 0
 255              	.LVL11:
 256              		.loc 1 79 0
 257 003e FFF7FEBF 		b	timeout_reset
 258              	.LVL12:
 259              	.L23:
 260 0042 00BF     		.align	2
 261              	.L22:
 262 0044 00000000 		.word	.LANCHOR3
 263 0048 00000000 		.word	.LANCHOR1
 264 004c 00000000 		.word	.LANCHOR4
 265 0050 00000000 		.word	output_thread
 266              		.cfi_endproc
 267              	.LFE121:
 268              		.size	app_nunchuk_update_output, .-app_nunchuk_update_output
 269              		.section	.text.chuk_thread,"ax",%progbits
 270              		.align	2
 271              		.p2align 4,,15
 272              		.thumb
 273              		.thumb_func
 274              		.type	chuk_thread, %function
 275              	chuk_thread:
 276              	.LFB122:
 277              		.loc 1 82 0
 278              		.cfi_startproc
 279              		@ args = 0, pretend = 0, frame = 48
 280              		@ frame_needed = 0, uses_anonymous_args = 0
 281              	.LVL13:
 282 0000 2DE9F047 		push	{r4, r5, r6, r7, r8, r9, r10, lr}
 283              		.cfi_def_cfa_offset 32
 284              		.cfi_offset 4, -32
 285              		.cfi_offset 5, -28
ARM GAS  /var/folders/bz/nn5481rn5xq59rb0mbj7x0880000gn/T//ccHcHkHf.s 			page 6


 286              		.cfi_offset 6, -24
 287              		.cfi_offset 7, -20
 288              		.cfi_offset 8, -16
 289              		.cfi_offset 9, -12
 290              		.cfi_offset 10, -8
 291              		.cfi_offset 14, -4
 292              		.loc 1 85 0
 293 0004 634B     		ldr	r3, .L39
 294 0006 6449     		ldr	r1, .L39+4
 295 0008 9A69     		ldr	r2, [r3, #24]
 296              		.loc 1 86 0
 297 000a 644B     		ldr	r3, .L39+8
 298              		.loc 1 85 0
 299 000c 9161     		str	r1, [r2, #24]
 300              		.loc 1 82 0
 301 000e 90B0     		sub	sp, sp, #64
 302              		.cfi_def_cfa_offset 96
 303              		.loc 1 86 0
 304 0010 0122     		movs	r2, #1
 305 0012 634F     		ldr	r7, .L39+12
 306 0014 1A70     		strb	r2, [r3]
 307              	.LVL14:
 308              		.loc 1 95 0
 309 0016 FFF7FEFF 		bl	hw_start_i2c
 310              	.LVL15:
 311              		.loc 1 96 0
 312 001a 6420     		movs	r0, #100
 313 001c FFF7FEFF 		bl	chThdSleep
 314              	.LVL16:
 315 0020 604E     		ldr	r6, .L39+16
 316 0022 07F10408 		add	r8, r7, #4
 317 0026 BC1D     		adds	r4, r7, #6
 318 0028 04AD     		add	r5, sp, #16
 319 002a 0AE0     		b	.L32
 320              	.LVL17:
 321              	.L27:
 322              	.LBB2:
 323              		.loc 1 163 0
 324 002c 0223     		movs	r3, #2
 325 002e 3360     		str	r3, [r6]
 326              		.loc 1 164 0
 327 0030 FFF7FEFF 		bl	hw_try_restore_i2c
 328              	.LVL18:
 329              		.loc 1 165 0
 330 0034 4FF47A70 		mov	r0, #1000
 331 0038 FFF7FEFF 		bl	chThdSleep
 332              	.LVL19:
 333              	.L31:
 334              		.loc 1 168 0
 335 003c 6420     		movs	r0, #100
 336 003e FFF7FEFF 		bl	chThdSleep
 337              	.LVL20:
 338              	.L32:
 339              		.loc 1 101 0
 340 0042 F022     		movs	r2, #240
 341              		.loc 1 102 0
 342 0044 5523     		movs	r3, #85
ARM GAS  /var/folders/bz/nn5481rn5xq59rb0mbj7x0880000gn/T//ccHcHkHf.s 			page 7


 343              		.loc 1 103 0
 344 0046 5848     		ldr	r0, .L39+20
 345              		.loc 1 101 0
 346 0048 8DF81C20 		strb	r2, [sp, #28]
 347              		.loc 1 102 0
 348 004c 8DF81D30 		strb	r3, [sp, #29]
 349              		.loc 1 104 0
 350 0050 4FF03209 		mov	r9, #50
 351              		.loc 1 103 0
 352 0054 FFF7FEFF 		bl	i2cAcquireBus
 353              	.LVL21:
 354              		.loc 1 104 0
 355 0058 0023     		movs	r3, #0
 356 005a 0193     		str	r3, [sp, #4]
 357 005c 0095     		str	r5, [sp]
 358 005e CDF80890 		str	r9, [sp, #8]
 359 0062 5148     		ldr	r0, .L39+20
 360 0064 5221     		movs	r1, #82
 361 0066 07AA     		add	r2, sp, #28
 362 0068 0223     		movs	r3, #2
 363 006a FFF7FEFF 		bl	i2cMasterTransmitTimeout
 364              	.LVL22:
 365 006e 8246     		mov	r10, r0
 366              	.LVL23:
 367              		.loc 1 105 0
 368 0070 4D48     		ldr	r0, .L39+20
 369              	.LVL24:
 370 0072 FFF7FEFF 		bl	i2cReleaseBus
 371              	.LVL25:
 372              		.loc 1 108 0
 373 0076 BAF1000F 		cmp	r10, #0
 374 007a D7D1     		bne	.L27
 375              		.loc 1 109 0
 376 007c FB23     		movs	r3, #251
 377              		.loc 1 111 0
 378 007e 4A48     		ldr	r0, .L39+20
 379              		.loc 1 110 0
 380 0080 8DF81DA0 		strb	r10, [sp, #29]
 381              		.loc 1 109 0
 382 0084 8DF81C30 		strb	r3, [sp, #28]
 383              		.loc 1 111 0
 384 0088 FFF7FEFF 		bl	i2cAcquireBus
 385              	.LVL26:
 386              		.loc 1 112 0
 387 008c 8DE82004 		stmia	sp, {r5, r10}
 388 0090 CDF80890 		str	r9, [sp, #8]
 389 0094 4448     		ldr	r0, .L39+20
 390 0096 5221     		movs	r1, #82
 391 0098 07AA     		add	r2, sp, #28
 392 009a 0223     		movs	r3, #2
 393 009c FFF7FEFF 		bl	i2cMasterTransmitTimeout
 394              	.LVL27:
 395 00a0 8246     		mov	r10, r0
 396              	.LVL28:
 397              		.loc 1 113 0
 398 00a2 4148     		ldr	r0, .L39+20
 399              	.LVL29:
ARM GAS  /var/folders/bz/nn5481rn5xq59rb0mbj7x0880000gn/T//ccHcHkHf.s 			page 8


 400 00a4 FFF7FEFF 		bl	i2cReleaseBus
 401              	.LVL30:
 402              		.loc 1 117 0
 403 00a8 BAF1000F 		cmp	r10, #0
 404 00ac BED1     		bne	.L27
 405              		.loc 1 119 0
 406 00ae 3E48     		ldr	r0, .L39+20
 407              		.loc 1 118 0
 408 00b0 8DF81CA0 		strb	r10, [sp, #28]
 409              		.loc 1 119 0
 410 00b4 FFF7FEFF 		bl	i2cAcquireBus
 411              	.LVL31:
 412              		.loc 1 120 0
 413 00b8 8DE82004 		stmia	sp, {r5, r10}
 414 00bc CDF80890 		str	r9, [sp, #8]
 415 00c0 3948     		ldr	r0, .L39+20
 416 00c2 5221     		movs	r1, #82
 417 00c4 07AA     		add	r2, sp, #28
 418 00c6 0123     		movs	r3, #1
 419 00c8 FFF7FEFF 		bl	i2cMasterTransmitTimeout
 420              	.LVL32:
 421 00cc 8246     		mov	r10, r0
 422              	.LVL33:
 423              		.loc 1 121 0
 424 00ce 3648     		ldr	r0, .L39+20
 425              	.LVL34:
 426 00d0 FFF7FEFF 		bl	i2cReleaseBus
 427              	.LVL35:
 428              		.loc 1 125 0
 429 00d4 BAF1000F 		cmp	r10, #0
 430 00d8 A8D1     		bne	.L27
 431              		.loc 1 126 0
 432 00da 1E20     		movs	r0, #30
 433 00dc FFF7FEFF 		bl	chThdSleep
 434              	.LVL36:
 435              		.loc 1 128 0
 436 00e0 3148     		ldr	r0, .L39+20
 437 00e2 FFF7FEFF 		bl	i2cAcquireBus
 438              	.LVL37:
 439              		.loc 1 129 0
 440 00e6 CDF80090 		str	r9, [sp]
 441 00ea 2F48     		ldr	r0, .L39+20
 442 00ec 5221     		movs	r1, #82
 443 00ee 2A46     		mov	r2, r5
 444 00f0 0623     		movs	r3, #6
 445 00f2 FFF7FEFF 		bl	i2cMasterReceiveTimeout
 446              	.LVL38:
 447 00f6 8146     		mov	r9, r0
 448              	.LVL39:
 449              		.loc 1 130 0
 450 00f8 2B48     		ldr	r0, .L39+20
 451              	.LVL40:
 452 00fa FFF7FEFF 		bl	i2cReleaseBus
 453              	.LVL41:
 454              		.loc 1 134 0
 455 00fe B9F1000F 		cmp	r9, #0
 456 0102 93D1     		bne	.L27
ARM GAS  /var/folders/bz/nn5481rn5xq59rb0mbj7x0880000gn/T//ccHcHkHf.s 			page 9


 457 0104 264B     		ldr	r3, .L39+12
 458 0106 2946     		mov	r1, r5
 459 0108 0122     		movs	r2, #1
 460              	.L29:
 461              	.LVL42:
 462              	.LBB3:
 463              	.LBB4:
 464              		.loc 1 139 0
 465 010a 13F801EB 		ldrb	lr, [r3], #1	@ zero_extendqisi2
 466              	.LVL43:
 467 010e 11F8010B 		ldrb	r0, [r1], #1	@ zero_extendqisi2
 468              		.loc 1 140 0
 469 0112 8645     		cmp	lr, r0
 470 0114 18BF     		it	ne
 471 0116 0022     		movne	r2, #0
 472              	.LVL44:
 473              		.loc 1 138 0
 474 0118 A342     		cmp	r3, r4
 475 011a F6D1     		bne	.L29
 476              	.LBE4:
 477              		.loc 1 144 0
 478 011c 95E80300 		ldmia	r5, {r0, r1}
 479 0120 3860     		str	r0, [r7]
 480 0122 A8F80010 		strh	r1, [r8]	@ movhi
 481              		.loc 1 146 0
 482 0126 32B1     		cbz	r2, .L38
 483              	.LVL45:
 484              	.L30:
 485              		.loc 1 159 0
 486 0128 FFF7FEFF 		bl	timeout_has_timeout
 487              	.LVL46:
 488 012c 0028     		cmp	r0, #0
 489 012e 85D0     		beq	.L31
 490              		.loc 1 160 0
 491 0130 0123     		movs	r3, #1
 492 0132 3360     		str	r3, [r6]
 493 0134 82E7     		b	.L31
 494              	.LVL47:
 495              	.L38:
 496              		.loc 1 150 0
 497 0136 9DF81510 		ldrb	r1, [sp, #21]	@ zero_extendqisi2
 498 013a 9DF812E0 		ldrb	lr, [sp, #18]	@ zero_extendqisi2
 499              		.loc 1 152 0
 500 013e 9DF81430 		ldrb	r3, [sp, #20]	@ zero_extendqisi2
 501              	.LVL48:
 502              		.loc 1 151 0
 503 0142 9DF813C0 		ldrb	ip, [sp, #19]	@ zero_extendqisi2
 504              		.loc 1 147 0
 505 0146 3260     		str	r2, [r6]
 506              		.loc 1 150 0
 507 0148 C1F38100 		ubfx	r0, r1, #2, #2
 508              		.loc 1 151 0
 509 014c C1F30112 		ubfx	r2, r1, #4, #2
 510              	.LVL49:
 511              		.loc 1 150 0
 512 0150 40EA8E00 		orr	r0, r0, lr, lsl #2
 513              		.loc 1 151 0
ARM GAS  /var/folders/bz/nn5481rn5xq59rb0mbj7x0880000gn/T//ccHcHkHf.s 			page 10


 514 0154 42EA8C0C 		orr	ip, r2, ip, lsl #2
 515              		.loc 1 153 0
 516 0158 01F0010E 		and	lr, r1, #1
 517              		.loc 1 154 0
 518 015c C1F34002 		ubfx	r2, r1, #1, #1
 519              		.loc 1 152 0
 520 0160 9B00     		lsls	r3, r3, #2
 521 0162 43EA9113 		orr	r3, r3, r1, lsr #6
 522              		.loc 1 148 0
 523 0166 9DF81090 		ldrb	r9, [sp, #16]	@ zero_extendqisi2
 524              	.LVL50:
 525              		.loc 1 149 0
 526 016a 9DF81110 		ldrb	r1, [sp, #17]	@ zero_extendqisi2
 527              		.loc 1 150 0
 528 016e 0C90     		str	r0, [sp, #48]
 529              		.loc 1 153 0
 530 0170 8EF0010E 		eor	lr, lr, #1
 531              		.loc 1 154 0
 532 0174 82F00102 		eor	r2, r2, #1
 533              		.loc 1 156 0
 534 0178 0AA8     		add	r0, sp, #40
 535              		.loc 1 151 0
 536 017a CDF834C0 		str	ip, [sp, #52]
 537              		.loc 1 153 0
 538 017e 8DF83DE0 		strb	lr, [sp, #61]
 539              		.loc 1 154 0
 540 0182 8DF83C20 		strb	r2, [sp, #60]
 541              		.loc 1 152 0
 542 0186 0E93     		str	r3, [sp, #56]
 543              		.loc 1 148 0
 544 0188 CDF82890 		str	r9, [sp, #40]
 545              		.loc 1 149 0
 546 018c 0B91     		str	r1, [sp, #44]
 547              		.loc 1 156 0
 548 018e FFF7FEFF 		bl	app_nunchuk_update_output
 549              	.LVL51:
 550 0192 C9E7     		b	.L30
 551              	.L40:
 552              		.align	2
 553              	.L39:
 554 0194 00000000 		.word	rlist
 555 0198 10000000 		.word	.LC1
 556 019c 00000000 		.word	.LANCHOR5
 557 01a0 00000000 		.word	.LANCHOR6
 558 01a4 00000000 		.word	.LANCHOR7
 559 01a8 00000000 		.word	I2CD2
 560              	.LBE3:
 561              	.LBE2:
 562              		.cfi_endproc
 563              	.LFE122:
 564              		.size	chuk_thread, .-chuk_thread
 565              		.section	.bss.output_running,"aw",%nobits
 566              		.set	.LANCHOR3,. + 0
 567              		.type	output_running, %object
 568              		.size	output_running, 1
 569              	output_running:
 570 0000 00       		.space	1
ARM GAS  /var/folders/bz/nn5481rn5xq59rb0mbj7x0880000gn/T//ccHcHkHf.s 			page 11


 571              		.section	.bss.chuk_thread_wa,"aw",%nobits
 572              		.align	3
 573              		.set	.LANCHOR2,. + 0
 574              		.type	chuk_thread_wa, %object
 575              		.size	chuk_thread_wa, 1432
 576              	chuk_thread_wa:
 577 0000 00000000 		.space	1432
 577      00000000 
 577      00000000 
 577      00000000 
 577      00000000 
 578              		.section	.bss.output_thread_wa,"aw",%nobits
 579              		.align	3
 580              		.set	.LANCHOR4,. + 0
 581              		.type	output_thread_wa, %object
 582              		.size	output_thread_wa, 1432
 583              	output_thread_wa:
 584 0000 00000000 		.space	1432
 584      00000000 
 584      00000000 
 584      00000000 
 584      00000000 
 585              		.section	.bss.is_running,"aw",%nobits
 586              		.set	.LANCHOR5,. + 0
 587              		.type	is_running, %object
 588              		.size	is_running, 1
 589              	is_running:
 590 0000 00       		.space	1
 591              		.section	.bss.chuck_d,"aw",%nobits
 592              		.align	2
 593              		.set	.LANCHOR1,. + 0
 594              		.type	chuck_d, %object
 595              		.size	chuck_d, 24
 596              	chuck_d:
 597 0000 00000000 		.space	24
 597      00000000 
 597      00000000 
 597      00000000 
 597      00000000 
 598              		.section	.rodata.str1.4,"aMS",%progbits,1
 599              		.align	2
 600              	.LC0:
 601 0000 4E756E63 		.ascii	"Nunchuk output\000"
 601      68756B20 
 601      6F757470 
 601      757400
 602 000f 00       		.space	1
 603              	.LC1:
 604 0010 4E756E63 		.ascii	"Nunchuk i2c\000"
 604      68756B20 
 604      69326300 
 605              		.section	.bss.chuck_error,"aw",%nobits
 606              		.align	2
 607              		.set	.LANCHOR7,. + 0
 608              		.type	chuck_error, %object
 609              		.size	chuck_error, 4
 610              	chuck_error:
ARM GAS  /var/folders/bz/nn5481rn5xq59rb0mbj7x0880000gn/T//ccHcHkHf.s 			page 12


 611 0000 00000000 		.space	4
 612              		.section	.bss.last_buffer.10480,"aw",%nobits
 613              		.align	2
 614              		.set	.LANCHOR6,. + 0
 615              		.type	last_buffer.10480, %object
 616              		.size	last_buffer.10480, 10
 617              	last_buffer.10480:
 618 0000 00000000 		.space	10
 618      00000000 
 618      0000
 619              		.section	.bss.config,"aw",%nobits
 620              		.align	2
 621              		.set	.LANCHOR0,. + 0
 622              		.type	config, %object
 623              		.size	config, 32
 624              	config:
 625 0000 00000000 		.space	32
 625      00000000 
 625      00000000 
 625      00000000 
 625      00000000 
 626              		.text
 627              	.Letext0:
 628              		.file 2 "/Users/imac/Downloads/gcc-arm-none-eabi-4_9-2015q2/arm-none-eabi/include/machine/_default
 629              		.file 3 "/Users/imac/Downloads/gcc-arm-none-eabi-4_9-2015q2/arm-none-eabi/include/sys/_stdint.h"
 630              		.file 4 "/Users/imac/Downloads/gcc-arm-none-eabi-4_9-2015q2/lib/gcc/arm-none-eabi/4.9.3/include/st
 631              		.file 5 "lib/ChibiOS_2.6.6/os/ports/GCC/ARMCMx/chtypes.h"
 632              		.file 6 "lib/ChibiOS_2.6.6/os/kernel/include/chlists.h"
 633              		.file 7 "lib/ChibiOS_2.6.6/os/kernel/include/chthreads.h"
 634              		.file 8 "lib/ChibiOS_2.6.6/os/ports/GCC/ARMCMx/chcore_v7m.h"
 635              		.file 9 "lib/ChibiOS_2.6.6/os/kernel/include/chschd.h"
 636              		.file 10 "lib/ChibiOS_2.6.6/os/kernel/include/chmtx.h"
 637              		.file 11 "src/core/datatypes.h"
 638              		.file 12 "lib/ChibiOS_2.6.6/os/hal/platforms/STM32F4xx/stm32f4xx.h"
 639              		.file 13 "lib/ChibiOS_2.6.6/os/hal/platforms/STM32F4xx/stm32_dma.h"
 640              		.file 14 "lib/ChibiOS_2.6.6/os/hal/include/i2c.h"
 641              		.file 15 "lib/ChibiOS_2.6.6/os/hal/platforms/STM32/I2Cv1/i2c_lld.h"
 642              		.file 16 "lib/ChibiOS_2.6.6/os/ports/common/ARMCMx/CMSIS/include/core_cm4.h"
 643              		.file 17 "src/core/timeout.h"
 644              		.file 18 "lib/hwconf/hw.h"
 645              		.section	.debug_info,"",%progbits
 646              	.Ldebug_info0:
 647 0000 2C0F0000 		.4byte	0xf2c
 648 0004 0400     		.2byte	0x4
 649 0006 00000000 		.4byte	.Ldebug_abbrev0
 650 000a 04       		.byte	0x4
 651 000b 01       		.uleb128 0x1
 652 000c B4060000 		.4byte	.LASF187
 653 0010 01       		.byte	0x1
 654 0011 00000000 		.4byte	.LASF188
 655 0015 78040000 		.4byte	.LASF189
 656 0019 00000000 		.4byte	.Ldebug_ranges0+0
 657 001d 00000000 		.4byte	0
 658 0021 00000000 		.4byte	.Ldebug_line0
 659 0025 02       		.uleb128 0x2
 660 0026 01       		.byte	0x1
 661 0027 06       		.byte	0x6
ARM GAS  /var/folders/bz/nn5481rn5xq59rb0mbj7x0880000gn/T//ccHcHkHf.s 			page 13


 662 0028 5E000000 		.4byte	.LASF0
 663 002c 03       		.uleb128 0x3
 664 002d 6A000000 		.4byte	.LASF3
 665 0031 02       		.byte	0x2
 666 0032 1D       		.byte	0x1d
 667 0033 37000000 		.4byte	0x37
 668 0037 02       		.uleb128 0x2
 669 0038 01       		.byte	0x1
 670 0039 08       		.byte	0x8
 671 003a 55050000 		.4byte	.LASF1
 672 003e 02       		.uleb128 0x2
 673 003f 02       		.byte	0x2
 674 0040 05       		.byte	0x5
 675 0041 65060000 		.4byte	.LASF2
 676 0045 03       		.uleb128 0x3
 677 0046 52060000 		.4byte	.LASF4
 678 004a 02       		.byte	0x2
 679 004b 2B       		.byte	0x2b
 680 004c 50000000 		.4byte	0x50
 681 0050 02       		.uleb128 0x2
 682 0051 02       		.byte	0x2
 683 0052 07       		.byte	0x7
 684 0053 1C030000 		.4byte	.LASF5
 685 0057 03       		.uleb128 0x3
 686 0058 9F060000 		.4byte	.LASF6
 687 005c 02       		.byte	0x2
 688 005d 3F       		.byte	0x3f
 689 005e 62000000 		.4byte	0x62
 690 0062 02       		.uleb128 0x2
 691 0063 04       		.byte	0x4
 692 0064 05       		.byte	0x5
 693 0065 F2070000 		.4byte	.LASF7
 694 0069 03       		.uleb128 0x3
 695 006a A9060000 		.4byte	.LASF8
 696 006e 02       		.byte	0x2
 697 006f 41       		.byte	0x41
 698 0070 74000000 		.4byte	0x74
 699 0074 02       		.uleb128 0x2
 700 0075 04       		.byte	0x4
 701 0076 07       		.byte	0x7
 702 0077 88010000 		.4byte	.LASF9
 703 007b 02       		.uleb128 0x2
 704 007c 08       		.byte	0x8
 705 007d 05       		.byte	0x5
 706 007e 4A010000 		.4byte	.LASF10
 707 0082 03       		.uleb128 0x3
 708 0083 D0030000 		.4byte	.LASF11
 709 0087 02       		.byte	0x2
 710 0088 5B       		.byte	0x5b
 711 0089 8D000000 		.4byte	0x8d
 712 008d 02       		.uleb128 0x2
 713 008e 08       		.byte	0x8
 714 008f 07       		.byte	0x7
 715 0090 A2010000 		.4byte	.LASF12
 716 0094 04       		.uleb128 0x4
 717 0095 04       		.byte	0x4
 718 0096 05       		.byte	0x5
ARM GAS  /var/folders/bz/nn5481rn5xq59rb0mbj7x0880000gn/T//ccHcHkHf.s 			page 14


 719 0097 696E7400 		.ascii	"int\000"
 720 009b 02       		.uleb128 0x2
 721 009c 04       		.byte	0x4
 722 009d 07       		.byte	0x7
 723 009e 9D020000 		.4byte	.LASF13
 724 00a2 03       		.uleb128 0x3
 725 00a3 71080000 		.4byte	.LASF14
 726 00a7 03       		.byte	0x3
 727 00a8 14       		.byte	0x14
 728 00a9 2C000000 		.4byte	0x2c
 729 00ad 03       		.uleb128 0x3
 730 00ae AA020000 		.4byte	.LASF15
 731 00b2 03       		.byte	0x3
 732 00b3 1A       		.byte	0x1a
 733 00b4 45000000 		.4byte	0x45
 734 00b8 03       		.uleb128 0x3
 735 00b9 E4030000 		.4byte	.LASF16
 736 00bd 03       		.byte	0x3
 737 00be 1F       		.byte	0x1f
 738 00bf 57000000 		.4byte	0x57
 739 00c3 03       		.uleb128 0x3
 740 00c4 F7050000 		.4byte	.LASF17
 741 00c8 03       		.byte	0x3
 742 00c9 20       		.byte	0x20
 743 00ca 69000000 		.4byte	0x69
 744 00ce 03       		.uleb128 0x3
 745 00cf 55000000 		.4byte	.LASF18
 746 00d3 03       		.byte	0x3
 747 00d4 26       		.byte	0x26
 748 00d5 82000000 		.4byte	0x82
 749 00d9 03       		.uleb128 0x3
 750 00da 46040000 		.4byte	.LASF19
 751 00de 04       		.byte	0x4
 752 00df D4       		.byte	0xd4
 753 00e0 9B000000 		.4byte	0x9b
 754 00e4 02       		.uleb128 0x2
 755 00e5 01       		.byte	0x1
 756 00e6 02       		.byte	0x2
 757 00e7 45050000 		.4byte	.LASF20
 758 00eb 03       		.uleb128 0x3
 759 00ec 79030000 		.4byte	.LASF21
 760 00f0 05       		.byte	0x5
 761 00f1 2C       		.byte	0x2c
 762 00f2 A2000000 		.4byte	0xa2
 763 00f6 03       		.uleb128 0x3
 764 00f7 F2010000 		.4byte	.LASF22
 765 00fb 05       		.byte	0x5
 766 00fc 2D       		.byte	0x2d
 767 00fd A2000000 		.4byte	0xa2
 768 0101 03       		.uleb128 0x3
 769 0102 A5040000 		.4byte	.LASF23
 770 0106 05       		.byte	0x5
 771 0107 2E       		.byte	0x2e
 772 0108 A2000000 		.4byte	0xa2
 773 010c 03       		.uleb128 0x3
 774 010d CD010000 		.4byte	.LASF24
 775 0111 05       		.byte	0x5
ARM GAS  /var/folders/bz/nn5481rn5xq59rb0mbj7x0880000gn/T//ccHcHkHf.s 			page 15


 776 0112 2F       		.byte	0x2f
 777 0113 A2000000 		.4byte	0xa2
 778 0117 03       		.uleb128 0x3
 779 0118 1D050000 		.4byte	.LASF25
 780 011c 05       		.byte	0x5
 781 011d 30       		.byte	0x30
 782 011e C3000000 		.4byte	0xc3
 783 0122 03       		.uleb128 0x3
 784 0123 4D030000 		.4byte	.LASF26
 785 0127 05       		.byte	0x5
 786 0128 31       		.byte	0x31
 787 0129 B8000000 		.4byte	0xb8
 788 012d 03       		.uleb128 0x3
 789 012e 90030000 		.4byte	.LASF27
 790 0132 05       		.byte	0x5
 791 0133 33       		.byte	0x33
 792 0134 C3000000 		.4byte	0xc3
 793 0138 03       		.uleb128 0x3
 794 0139 8A060000 		.4byte	.LASF28
 795 013d 05       		.byte	0x5
 796 013e 35       		.byte	0x35
 797 013f C3000000 		.4byte	0xc3
 798 0143 03       		.uleb128 0x3
 799 0144 C1050000 		.4byte	.LASF29
 800 0148 06       		.byte	0x6
 801 0149 2A       		.byte	0x2a
 802 014a 4E010000 		.4byte	0x14e
 803 014e 05       		.uleb128 0x5
 804 014f C1050000 		.4byte	.LASF29
 805 0153 48       		.byte	0x48
 806 0154 07       		.byte	0x7
 807 0155 5E       		.byte	0x5e
 808 0156 4B020000 		.4byte	0x24b
 809 015a 06       		.uleb128 0x6
 810 015b A8050000 		.4byte	.LASF30
 811 015f 07       		.byte	0x7
 812 0160 5F       		.byte	0x5f
 813 0161 6C020000 		.4byte	0x26c
 814 0165 00       		.byte	0
 815 0166 06       		.uleb128 0x6
 816 0167 EB040000 		.4byte	.LASF31
 817 016b 07       		.byte	0x7
 818 016c 61       		.byte	0x61
 819 016d 6C020000 		.4byte	0x26c
 820 0171 04       		.byte	0x4
 821 0172 06       		.uleb128 0x6
 822 0173 11040000 		.4byte	.LASF32
 823 0177 07       		.byte	0x7
 824 0178 63       		.byte	0x63
 825 0179 17010000 		.4byte	0x117
 826 017d 08       		.byte	0x8
 827 017e 06       		.uleb128 0x6
 828 017f 13090000 		.4byte	.LASF33
 829 0183 07       		.byte	0x7
 830 0184 64       		.byte	0x64
 831 0185 01040000 		.4byte	0x401
 832 0189 0C       		.byte	0xc
ARM GAS  /var/folders/bz/nn5481rn5xq59rb0mbj7x0880000gn/T//ccHcHkHf.s 			page 16


 833 018a 06       		.uleb128 0x6
 834 018b 14020000 		.4byte	.LASF34
 835 018f 07       		.byte	0x7
 836 0190 66       		.byte	0x66
 837 0191 6C020000 		.4byte	0x26c
 838 0195 10       		.byte	0x10
 839 0196 06       		.uleb128 0x6
 840 0197 18040000 		.4byte	.LASF35
 841 019b 07       		.byte	0x7
 842 019c 67       		.byte	0x67
 843 019d 6C020000 		.4byte	0x26c
 844 01a1 14       		.byte	0x14
 845 01a2 06       		.uleb128 0x6
 846 01a3 A9080000 		.4byte	.LASF36
 847 01a7 07       		.byte	0x7
 848 01a8 6E       		.byte	0x6e
 849 01a9 06050000 		.4byte	0x506
 850 01ad 18       		.byte	0x18
 851 01ae 06       		.uleb128 0x6
 852 01af 88050000 		.4byte	.LASF37
 853 01b3 07       		.byte	0x7
 854 01b4 79       		.byte	0x79
 855 01b5 F6000000 		.4byte	0xf6
 856 01b9 1C       		.byte	0x1c
 857 01ba 06       		.uleb128 0x6
 858 01bb AF050000 		.4byte	.LASF38
 859 01bf 07       		.byte	0x7
 860 01c0 7D       		.byte	0x7d
 861 01c1 EB000000 		.4byte	0xeb
 862 01c5 1D       		.byte	0x1d
 863 01c6 06       		.uleb128 0x6
 864 01c7 48080000 		.4byte	.LASF39
 865 01cb 07       		.byte	0x7
 866 01cc 82       		.byte	0x82
 867 01cd 01010000 		.4byte	0x101
 868 01d1 1E       		.byte	0x1e
 869 01d2 06       		.uleb128 0x6
 870 01d3 90050000 		.4byte	.LASF40
 871 01d7 07       		.byte	0x7
 872 01d8 88       		.byte	0x88
 873 01d9 0C010000 		.4byte	0x10c
 874 01dd 1F       		.byte	0x1f
 875 01de 06       		.uleb128 0x6
 876 01df EB070000 		.4byte	.LASF41
 877 01e3 07       		.byte	0x7
 878 01e4 8F       		.byte	0x8f
 879 01e5 2E040000 		.4byte	0x42e
 880 01e9 20       		.byte	0x20
 881 01ea 07       		.uleb128 0x7
 882 01eb 705F7500 		.ascii	"p_u\000"
 883 01ef 07       		.byte	0x7
 884 01f0 B4       		.byte	0xb4
 885 01f1 D1040000 		.4byte	0x4d1
 886 01f5 24       		.byte	0x24
 887 01f6 06       		.uleb128 0x6
 888 01f7 19090000 		.4byte	.LASF42
 889 01fb 07       		.byte	0x7
ARM GAS  /var/folders/bz/nn5481rn5xq59rb0mbj7x0880000gn/T//ccHcHkHf.s 			page 17


 890 01fc B9       		.byte	0xb9
 891 01fd 92020000 		.4byte	0x292
 892 0201 28       		.byte	0x28
 893 0202 06       		.uleb128 0x6
 894 0203 02080000 		.4byte	.LASF43
 895 0207 07       		.byte	0x7
 896 0208 BF       		.byte	0xbf
 897 0209 72020000 		.4byte	0x272
 898 020d 2C       		.byte	0x2c
 899 020e 06       		.uleb128 0x6
 900 020f E0080000 		.4byte	.LASF44
 901 0213 07       		.byte	0x7
 902 0214 C3       		.byte	0xc3
 903 0215 22010000 		.4byte	0x122
 904 0219 34       		.byte	0x34
 905 021a 06       		.uleb128 0x6
 906 021b DD050000 		.4byte	.LASF45
 907 021f 07       		.byte	0x7
 908 0220 C9       		.byte	0xc9
 909 0221 2D010000 		.4byte	0x12d
 910 0225 38       		.byte	0x38
 911 0226 06       		.uleb128 0x6
 912 0227 72050000 		.4byte	.LASF46
 913 022b 07       		.byte	0x7
 914 022c D0       		.byte	0xd0
 915 022d 18050000 		.4byte	0x518
 916 0231 3C       		.byte	0x3c
 917 0232 06       		.uleb128 0x6
 918 0233 94060000 		.4byte	.LASF47
 919 0237 07       		.byte	0x7
 920 0238 D4       		.byte	0xd4
 921 0239 17010000 		.4byte	0x117
 922 023d 40       		.byte	0x40
 923 023e 06       		.uleb128 0x6
 924 023f 9A010000 		.4byte	.LASF48
 925 0243 07       		.byte	0x7
 926 0244 DA       		.byte	0xda
 927 0245 A8020000 		.4byte	0x2a8
 928 0249 44       		.byte	0x44
 929 024a 00       		.byte	0
 930 024b 08       		.uleb128 0x8
 931 024c 08       		.byte	0x8
 932 024d 06       		.byte	0x6
 933 024e 61       		.byte	0x61
 934 024f 6C020000 		.4byte	0x26c
 935 0253 06       		.uleb128 0x6
 936 0254 A8050000 		.4byte	.LASF30
 937 0258 06       		.byte	0x6
 938 0259 62       		.byte	0x62
 939 025a 6C020000 		.4byte	0x26c
 940 025e 00       		.byte	0
 941 025f 06       		.uleb128 0x6
 942 0260 EB040000 		.4byte	.LASF31
 943 0264 06       		.byte	0x6
 944 0265 64       		.byte	0x64
 945 0266 6C020000 		.4byte	0x26c
 946 026a 04       		.byte	0x4
ARM GAS  /var/folders/bz/nn5481rn5xq59rb0mbj7x0880000gn/T//ccHcHkHf.s 			page 18


 947 026b 00       		.byte	0
 948 026c 09       		.uleb128 0x9
 949 026d 04       		.byte	0x4
 950 026e 43010000 		.4byte	0x143
 951 0272 03       		.uleb128 0x3
 952 0273 B4000000 		.4byte	.LASF49
 953 0277 06       		.byte	0x6
 954 0278 66       		.byte	0x66
 955 0279 4B020000 		.4byte	0x24b
 956 027d 08       		.uleb128 0x8
 957 027e 04       		.byte	0x4
 958 027f 06       		.byte	0x6
 959 0280 6B       		.byte	0x6b
 960 0281 92020000 		.4byte	0x292
 961 0285 06       		.uleb128 0x6
 962 0286 A8050000 		.4byte	.LASF30
 963 028a 06       		.byte	0x6
 964 028b 6D       		.byte	0x6d
 965 028c 6C020000 		.4byte	0x26c
 966 0290 00       		.byte	0
 967 0291 00       		.byte	0
 968 0292 03       		.uleb128 0x3
 969 0293 42000000 		.4byte	.LASF50
 970 0297 06       		.byte	0x6
 971 0298 70       		.byte	0x70
 972 0299 7D020000 		.4byte	0x27d
 973 029d 03       		.uleb128 0x3
 974 029e 00060000 		.4byte	.LASF51
 975 02a2 08       		.byte	0x8
 976 02a3 E5       		.byte	0xe5
 977 02a4 A8020000 		.4byte	0x2a8
 978 02a8 0A       		.uleb128 0xa
 979 02a9 04       		.byte	0x4
 980 02aa 03       		.uleb128 0x3
 981 02ab B3030000 		.4byte	.LASF52
 982 02af 08       		.byte	0x8
 983 02b0 EB       		.byte	0xeb
 984 02b1 CE000000 		.4byte	0xce
 985 02b5 0B       		.uleb128 0xb
 986 02b6 FB070000 		.4byte	.LASF53
 987 02ba 64       		.byte	0x64
 988 02bb 08       		.byte	0x8
 989 02bc 0C01     		.2byte	0x10c
 990 02be 01040000 		.4byte	0x401
 991 02c2 0C       		.uleb128 0xc
 992 02c3 73313600 		.ascii	"s16\000"
 993 02c7 08       		.byte	0x8
 994 02c8 0E01     		.2byte	0x10e
 995 02ca 9D020000 		.4byte	0x29d
 996 02ce 00       		.byte	0
 997 02cf 0C       		.uleb128 0xc
 998 02d0 73313700 		.ascii	"s17\000"
 999 02d4 08       		.byte	0x8
 1000 02d5 0F01     		.2byte	0x10f
 1001 02d7 9D020000 		.4byte	0x29d
 1002 02db 04       		.byte	0x4
 1003 02dc 0C       		.uleb128 0xc
ARM GAS  /var/folders/bz/nn5481rn5xq59rb0mbj7x0880000gn/T//ccHcHkHf.s 			page 19


 1004 02dd 73313800 		.ascii	"s18\000"
 1005 02e1 08       		.byte	0x8
 1006 02e2 1001     		.2byte	0x110
 1007 02e4 9D020000 		.4byte	0x29d
 1008 02e8 08       		.byte	0x8
 1009 02e9 0C       		.uleb128 0xc
 1010 02ea 73313900 		.ascii	"s19\000"
 1011 02ee 08       		.byte	0x8
 1012 02ef 1101     		.2byte	0x111
 1013 02f1 9D020000 		.4byte	0x29d
 1014 02f5 0C       		.byte	0xc
 1015 02f6 0C       		.uleb128 0xc
 1016 02f7 73323000 		.ascii	"s20\000"
 1017 02fb 08       		.byte	0x8
 1018 02fc 1201     		.2byte	0x112
 1019 02fe 9D020000 		.4byte	0x29d
 1020 0302 10       		.byte	0x10
 1021 0303 0C       		.uleb128 0xc
 1022 0304 73323100 		.ascii	"s21\000"
 1023 0308 08       		.byte	0x8
 1024 0309 1301     		.2byte	0x113
 1025 030b 9D020000 		.4byte	0x29d
 1026 030f 14       		.byte	0x14
 1027 0310 0C       		.uleb128 0xc
 1028 0311 73323200 		.ascii	"s22\000"
 1029 0315 08       		.byte	0x8
 1030 0316 1401     		.2byte	0x114
 1031 0318 9D020000 		.4byte	0x29d
 1032 031c 18       		.byte	0x18
 1033 031d 0C       		.uleb128 0xc
 1034 031e 73323300 		.ascii	"s23\000"
 1035 0322 08       		.byte	0x8
 1036 0323 1501     		.2byte	0x115
 1037 0325 9D020000 		.4byte	0x29d
 1038 0329 1C       		.byte	0x1c
 1039 032a 0C       		.uleb128 0xc
 1040 032b 73323400 		.ascii	"s24\000"
 1041 032f 08       		.byte	0x8
 1042 0330 1601     		.2byte	0x116
 1043 0332 9D020000 		.4byte	0x29d
 1044 0336 20       		.byte	0x20
 1045 0337 0C       		.uleb128 0xc
 1046 0338 73323500 		.ascii	"s25\000"
 1047 033c 08       		.byte	0x8
 1048 033d 1701     		.2byte	0x117
 1049 033f 9D020000 		.4byte	0x29d
 1050 0343 24       		.byte	0x24
 1051 0344 0C       		.uleb128 0xc
 1052 0345 73323600 		.ascii	"s26\000"
 1053 0349 08       		.byte	0x8
 1054 034a 1801     		.2byte	0x118
 1055 034c 9D020000 		.4byte	0x29d
 1056 0350 28       		.byte	0x28
 1057 0351 0C       		.uleb128 0xc
 1058 0352 73323700 		.ascii	"s27\000"
 1059 0356 08       		.byte	0x8
 1060 0357 1901     		.2byte	0x119
ARM GAS  /var/folders/bz/nn5481rn5xq59rb0mbj7x0880000gn/T//ccHcHkHf.s 			page 20


 1061 0359 9D020000 		.4byte	0x29d
 1062 035d 2C       		.byte	0x2c
 1063 035e 0C       		.uleb128 0xc
 1064 035f 73323800 		.ascii	"s28\000"
 1065 0363 08       		.byte	0x8
 1066 0364 1A01     		.2byte	0x11a
 1067 0366 9D020000 		.4byte	0x29d
 1068 036a 30       		.byte	0x30
 1069 036b 0C       		.uleb128 0xc
 1070 036c 73323900 		.ascii	"s29\000"
 1071 0370 08       		.byte	0x8
 1072 0371 1B01     		.2byte	0x11b
 1073 0373 9D020000 		.4byte	0x29d
 1074 0377 34       		.byte	0x34
 1075 0378 0C       		.uleb128 0xc
 1076 0379 73333000 		.ascii	"s30\000"
 1077 037d 08       		.byte	0x8
 1078 037e 1C01     		.2byte	0x11c
 1079 0380 9D020000 		.4byte	0x29d
 1080 0384 38       		.byte	0x38
 1081 0385 0C       		.uleb128 0xc
 1082 0386 73333100 		.ascii	"s31\000"
 1083 038a 08       		.byte	0x8
 1084 038b 1D01     		.2byte	0x11d
 1085 038d 9D020000 		.4byte	0x29d
 1086 0391 3C       		.byte	0x3c
 1087 0392 0C       		.uleb128 0xc
 1088 0393 723400   		.ascii	"r4\000"
 1089 0396 08       		.byte	0x8
 1090 0397 1F01     		.2byte	0x11f
 1091 0399 9D020000 		.4byte	0x29d
 1092 039d 40       		.byte	0x40
 1093 039e 0C       		.uleb128 0xc
 1094 039f 723500   		.ascii	"r5\000"
 1095 03a2 08       		.byte	0x8
 1096 03a3 2001     		.2byte	0x120
 1097 03a5 9D020000 		.4byte	0x29d
 1098 03a9 44       		.byte	0x44
 1099 03aa 0C       		.uleb128 0xc
 1100 03ab 723600   		.ascii	"r6\000"
 1101 03ae 08       		.byte	0x8
 1102 03af 2101     		.2byte	0x121
 1103 03b1 9D020000 		.4byte	0x29d
 1104 03b5 48       		.byte	0x48
 1105 03b6 0C       		.uleb128 0xc
 1106 03b7 723700   		.ascii	"r7\000"
 1107 03ba 08       		.byte	0x8
 1108 03bb 2201     		.2byte	0x122
 1109 03bd 9D020000 		.4byte	0x29d
 1110 03c1 4C       		.byte	0x4c
 1111 03c2 0C       		.uleb128 0xc
 1112 03c3 723800   		.ascii	"r8\000"
 1113 03c6 08       		.byte	0x8
 1114 03c7 2301     		.2byte	0x123
 1115 03c9 9D020000 		.4byte	0x29d
 1116 03cd 50       		.byte	0x50
 1117 03ce 0C       		.uleb128 0xc
ARM GAS  /var/folders/bz/nn5481rn5xq59rb0mbj7x0880000gn/T//ccHcHkHf.s 			page 21


 1118 03cf 723900   		.ascii	"r9\000"
 1119 03d2 08       		.byte	0x8
 1120 03d3 2401     		.2byte	0x124
 1121 03d5 9D020000 		.4byte	0x29d
 1122 03d9 54       		.byte	0x54
 1123 03da 0C       		.uleb128 0xc
 1124 03db 72313000 		.ascii	"r10\000"
 1125 03df 08       		.byte	0x8
 1126 03e0 2501     		.2byte	0x125
 1127 03e2 9D020000 		.4byte	0x29d
 1128 03e6 58       		.byte	0x58
 1129 03e7 0C       		.uleb128 0xc
 1130 03e8 72313100 		.ascii	"r11\000"
 1131 03ec 08       		.byte	0x8
 1132 03ed 2601     		.2byte	0x126
 1133 03ef 9D020000 		.4byte	0x29d
 1134 03f3 5C       		.byte	0x5c
 1135 03f4 0C       		.uleb128 0xc
 1136 03f5 6C7200   		.ascii	"lr\000"
 1137 03f8 08       		.byte	0x8
 1138 03f9 2701     		.2byte	0x127
 1139 03fb 9D020000 		.4byte	0x29d
 1140 03ff 60       		.byte	0x60
 1141 0400 00       		.byte	0
 1142 0401 0B       		.uleb128 0xb
 1143 0402 BB080000 		.4byte	.LASF54
 1144 0406 04       		.byte	0x4
 1145 0407 08       		.byte	0x8
 1146 0408 3101     		.2byte	0x131
 1147 040a 1C040000 		.4byte	0x41c
 1148 040e 0C       		.uleb128 0xc
 1149 040f 72313300 		.ascii	"r13\000"
 1150 0413 08       		.byte	0x8
 1151 0414 3201     		.2byte	0x132
 1152 0416 1C040000 		.4byte	0x41c
 1153 041a 00       		.byte	0
 1154 041b 00       		.byte	0
 1155 041c 09       		.uleb128 0x9
 1156 041d 04       		.byte	0x4
 1157 041e B5020000 		.4byte	0x2b5
 1158 0422 0D       		.uleb128 0xd
 1159 0423 C3000000 		.4byte	0xc3
 1160 0427 02       		.uleb128 0x2
 1161 0428 04       		.byte	0x4
 1162 0429 07       		.byte	0x7
 1163 042a EC030000 		.4byte	.LASF55
 1164 042e 0D       		.uleb128 0xd
 1165 042f 38010000 		.4byte	0x138
 1166 0433 08       		.uleb128 0x8
 1167 0434 1C       		.byte	0x1c
 1168 0435 09       		.byte	0x9
 1169 0436 5E       		.byte	0x5e
 1170 0437 84040000 		.4byte	0x484
 1171 043b 06       		.uleb128 0x6
 1172 043c 09060000 		.4byte	.LASF56
 1173 0440 09       		.byte	0x9
 1174 0441 5F       		.byte	0x5f
ARM GAS  /var/folders/bz/nn5481rn5xq59rb0mbj7x0880000gn/T//ccHcHkHf.s 			page 22


 1175 0442 72020000 		.4byte	0x272
 1176 0446 00       		.byte	0
 1177 0447 06       		.uleb128 0x6
 1178 0448 9A050000 		.4byte	.LASF57
 1179 044c 09       		.byte	0x9
 1180 044d 60       		.byte	0x60
 1181 044e 17010000 		.4byte	0x117
 1182 0452 08       		.byte	0x8
 1183 0453 06       		.uleb128 0x6
 1184 0454 2A040000 		.4byte	.LASF58
 1185 0458 09       		.byte	0x9
 1186 0459 62       		.byte	0x62
 1187 045a 01040000 		.4byte	0x401
 1188 045e 0C       		.byte	0xc
 1189 045f 06       		.uleb128 0x6
 1190 0460 63020000 		.4byte	.LASF59
 1191 0464 09       		.byte	0x9
 1192 0465 65       		.byte	0x65
 1193 0466 6C020000 		.4byte	0x26c
 1194 046a 10       		.byte	0x10
 1195 046b 06       		.uleb128 0x6
 1196 046c 62040000 		.4byte	.LASF60
 1197 0470 09       		.byte	0x9
 1198 0471 66       		.byte	0x66
 1199 0472 6C020000 		.4byte	0x26c
 1200 0476 14       		.byte	0x14
 1201 0477 06       		.uleb128 0x6
 1202 0478 58040000 		.4byte	.LASF61
 1203 047c 09       		.byte	0x9
 1204 047d 69       		.byte	0x69
 1205 047e 6C020000 		.4byte	0x26c
 1206 0482 18       		.byte	0x18
 1207 0483 00       		.byte	0
 1208 0484 03       		.uleb128 0x3
 1209 0485 56080000 		.4byte	.LASF62
 1210 0489 09       		.byte	0x9
 1211 048a 6B       		.byte	0x6b
 1212 048b 33040000 		.4byte	0x433
 1213 048f 05       		.uleb128 0x5
 1214 0490 A8030000 		.4byte	.LASF63
 1215 0494 10       		.byte	0x10
 1216 0495 0A       		.byte	0xa
 1217 0496 2C       		.byte	0x2c
 1218 0497 C0040000 		.4byte	0x4c0
 1219 049b 06       		.uleb128 0x6
 1220 049c B9010000 		.4byte	.LASF64
 1221 04a0 0A       		.byte	0xa
 1222 04a1 2D       		.byte	0x2d
 1223 04a2 72020000 		.4byte	0x272
 1224 04a6 00       		.byte	0
 1225 04a7 06       		.uleb128 0x6
 1226 04a8 04090000 		.4byte	.LASF65
 1227 04ac 0A       		.byte	0xa
 1228 04ad 2F       		.byte	0x2f
 1229 04ae 6C020000 		.4byte	0x26c
 1230 04b2 08       		.byte	0x8
 1231 04b3 06       		.uleb128 0x6
ARM GAS  /var/folders/bz/nn5481rn5xq59rb0mbj7x0880000gn/T//ccHcHkHf.s 			page 23


 1232 04b4 83060000 		.4byte	.LASF66
 1233 04b8 0A       		.byte	0xa
 1234 04b9 31       		.byte	0x31
 1235 04ba C0040000 		.4byte	0x4c0
 1236 04be 0C       		.byte	0xc
 1237 04bf 00       		.byte	0
 1238 04c0 09       		.uleb128 0x9
 1239 04c1 04       		.byte	0x4
 1240 04c2 8F040000 		.4byte	0x48f
 1241 04c6 03       		.uleb128 0x3
 1242 04c7 A8030000 		.4byte	.LASF63
 1243 04cb 0A       		.byte	0xa
 1244 04cc 33       		.byte	0x33
 1245 04cd 8F040000 		.4byte	0x48f
 1246 04d1 0E       		.uleb128 0xe
 1247 04d2 04       		.byte	0x4
 1248 04d3 07       		.byte	0x7
 1249 04d4 96       		.byte	0x96
 1250 04d5 06050000 		.4byte	0x506
 1251 04d9 0F       		.uleb128 0xf
 1252 04da 4E000000 		.4byte	.LASF67
 1253 04de 07       		.byte	0x7
 1254 04df 9D       		.byte	0x9d
 1255 04e0 22010000 		.4byte	0x122
 1256 04e4 0F       		.uleb128 0xf
 1257 04e5 70030000 		.4byte	.LASF68
 1258 04e9 07       		.byte	0x7
 1259 04ea A4       		.byte	0xa4
 1260 04eb 22010000 		.4byte	0x122
 1261 04ef 0F       		.uleb128 0xf
 1262 04f0 C6010000 		.4byte	.LASF69
 1263 04f4 07       		.byte	0x7
 1264 04f5 AB       		.byte	0xab
 1265 04f6 A8020000 		.4byte	0x2a8
 1266 04fa 0F       		.uleb128 0xf
 1267 04fb A1050000 		.4byte	.LASF70
 1268 04ff 07       		.byte	0x7
 1269 0500 B2       		.byte	0xb2
 1270 0501 2D010000 		.4byte	0x12d
 1271 0505 00       		.byte	0
 1272 0506 09       		.uleb128 0x9
 1273 0507 04       		.byte	0x4
 1274 0508 0C050000 		.4byte	0x50c
 1275 050c 10       		.uleb128 0x10
 1276 050d 11050000 		.4byte	0x511
 1277 0511 02       		.uleb128 0x2
 1278 0512 01       		.byte	0x1
 1279 0513 08       		.byte	0x8
 1280 0514 4D060000 		.4byte	.LASF71
 1281 0518 09       		.uleb128 0x9
 1282 0519 04       		.byte	0x4
 1283 051a C6040000 		.4byte	0x4c6
 1284 051e 03       		.uleb128 0x3
 1285 051f 5D060000 		.4byte	.LASF72
 1286 0523 07       		.byte	0x7
 1287 0524 E5       		.byte	0xe5
 1288 0525 29050000 		.4byte	0x529
ARM GAS  /var/folders/bz/nn5481rn5xq59rb0mbj7x0880000gn/T//ccHcHkHf.s 			page 24


 1289 0529 09       		.uleb128 0x9
 1290 052a 04       		.byte	0x4
 1291 052b 2F050000 		.4byte	0x52f
 1292 052f 11       		.uleb128 0x11
 1293 0530 22010000 		.4byte	0x122
 1294 0534 3E050000 		.4byte	0x53e
 1295 0538 12       		.uleb128 0x12
 1296 0539 A8020000 		.4byte	0x2a8
 1297 053d 00       		.byte	0
 1298 053e 09       		.uleb128 0x9
 1299 053f 04       		.byte	0x4
 1300 0540 A2000000 		.4byte	0xa2
 1301 0544 09       		.uleb128 0x9
 1302 0545 04       		.byte	0x4
 1303 0546 4A050000 		.4byte	0x54a
 1304 054a 10       		.uleb128 0x10
 1305 054b A2000000 		.4byte	0xa2
 1306 054f 02       		.uleb128 0x2
 1307 0550 04       		.byte	0x4
 1308 0551 04       		.byte	0x4
 1309 0552 9F040000 		.4byte	.LASF73
 1310 0556 13       		.uleb128 0x13
 1311 0557 01       		.byte	0x1
 1312 0558 0B       		.byte	0xb
 1313 0559 DB       		.byte	0xdb
 1314 055a 71050000 		.4byte	0x571
 1315 055e 14       		.uleb128 0x14
 1316 055f 39030000 		.4byte	.LASF74
 1317 0563 00       		.sleb128 0
 1318 0564 14       		.uleb128 0x14
 1319 0565 26080000 		.4byte	.LASF75
 1320 0569 01       		.sleb128 1
 1321 056a 14       		.uleb128 0x14
 1322 056b C3080000 		.4byte	.LASF76
 1323 056f 02       		.sleb128 2
 1324 0570 00       		.byte	0
 1325 0571 03       		.uleb128 0x3
 1326 0572 1C020000 		.4byte	.LASF77
 1327 0576 0B       		.byte	0xb
 1328 0577 DF       		.byte	0xdf
 1329 0578 56050000 		.4byte	0x556
 1330 057c 08       		.uleb128 0x8
 1331 057d 20       		.byte	0x20
 1332 057e 0B       		.byte	0xb
 1333 057f E1       		.byte	0xe1
 1334 0580 F0050000 		.4byte	0x5f0
 1335 0584 06       		.uleb128 0x6
 1336 0585 74000000 		.4byte	.LASF78
 1337 0589 0B       		.byte	0xb
 1338 058a E2       		.byte	0xe2
 1339 058b 71050000 		.4byte	0x571
 1340 058f 00       		.byte	0
 1341 0590 06       		.uleb128 0x6
 1342 0591 F5030000 		.4byte	.LASF79
 1343 0595 0B       		.byte	0xb
 1344 0596 E3       		.byte	0xe3
 1345 0597 4F050000 		.4byte	0x54f
ARM GAS  /var/folders/bz/nn5481rn5xq59rb0mbj7x0880000gn/T//ccHcHkHf.s 			page 25


 1346 059b 04       		.byte	0x4
 1347 059c 06       		.uleb128 0x6
 1348 059d 6A040000 		.4byte	.LASF80
 1349 05a1 0B       		.byte	0xb
 1350 05a2 E4       		.byte	0xe4
 1351 05a3 4F050000 		.4byte	0x54f
 1352 05a7 08       		.byte	0x8
 1353 05a8 06       		.uleb128 0x6
 1354 05a9 9C030000 		.4byte	.LASF81
 1355 05ad 0B       		.byte	0xb
 1356 05ae E5       		.byte	0xe5
 1357 05af 4F050000 		.4byte	0x54f
 1358 05b3 0C       		.byte	0xc
 1359 05b4 06       		.uleb128 0x6
 1360 05b5 8C000000 		.4byte	.LASF82
 1361 05b9 0B       		.byte	0xb
 1362 05ba E6       		.byte	0xe6
 1363 05bb 4F050000 		.4byte	0x54f
 1364 05bf 10       		.byte	0x10
 1365 05c0 06       		.uleb128 0x6
 1366 05c1 A6000000 		.4byte	.LASF83
 1367 05c5 0B       		.byte	0xb
 1368 05c6 E7       		.byte	0xe7
 1369 05c7 4F050000 		.4byte	0x54f
 1370 05cb 14       		.byte	0x14
 1371 05cc 06       		.uleb128 0x6
 1372 05cd 4B050000 		.4byte	.LASF84
 1373 05d1 0B       		.byte	0xb
 1374 05d2 E8       		.byte	0xe8
 1375 05d3 E4000000 		.4byte	0xe4
 1376 05d7 18       		.byte	0x18
 1377 05d8 07       		.uleb128 0x7
 1378 05d9 746300   		.ascii	"tc\000"
 1379 05dc 0B       		.byte	0xb
 1380 05dd E9       		.byte	0xe9
 1381 05de E4000000 		.4byte	0xe4
 1382 05e2 19       		.byte	0x19
 1383 05e3 06       		.uleb128 0x6
 1384 05e4 16010000 		.4byte	.LASF85
 1385 05e8 0B       		.byte	0xb
 1386 05e9 EA       		.byte	0xea
 1387 05ea 4F050000 		.4byte	0x54f
 1388 05ee 1C       		.byte	0x1c
 1389 05ef 00       		.byte	0
 1390 05f0 03       		.uleb128 0x3
 1391 05f1 30040000 		.4byte	.LASF86
 1392 05f5 0B       		.byte	0xb
 1393 05f6 EB       		.byte	0xeb
 1394 05f7 7C050000 		.4byte	0x57c
 1395 05fb 15       		.uleb128 0x15
 1396 05fc 18       		.byte	0x18
 1397 05fd 0B       		.byte	0xb
 1398 05fe 4E01     		.2byte	0x14e
 1399 0600 60060000 		.4byte	0x660
 1400 0604 16       		.uleb128 0x16
 1401 0605 37060000 		.4byte	.LASF87
 1402 0609 0B       		.byte	0xb
ARM GAS  /var/folders/bz/nn5481rn5xq59rb0mbj7x0880000gn/T//ccHcHkHf.s 			page 26


 1403 060a 4F01     		.2byte	0x14f
 1404 060c 94000000 		.4byte	0x94
 1405 0610 00       		.byte	0
 1406 0611 16       		.uleb128 0x16
 1407 0612 3C060000 		.4byte	.LASF88
 1408 0616 0B       		.byte	0xb
 1409 0617 5001     		.2byte	0x150
 1410 0619 94000000 		.4byte	0x94
 1411 061d 04       		.byte	0x4
 1412 061e 16       		.uleb128 0x16
 1413 061f CD020000 		.4byte	.LASF89
 1414 0623 0B       		.byte	0xb
 1415 0624 5101     		.2byte	0x151
 1416 0626 94000000 		.4byte	0x94
 1417 062a 08       		.byte	0x8
 1418 062b 16       		.uleb128 0x16
 1419 062c D3020000 		.4byte	.LASF90
 1420 0630 0B       		.byte	0xb
 1421 0631 5201     		.2byte	0x152
 1422 0633 94000000 		.4byte	0x94
 1423 0637 0C       		.byte	0xc
 1424 0638 16       		.uleb128 0x16
 1425 0639 D9020000 		.4byte	.LASF91
 1426 063d 0B       		.byte	0xb
 1427 063e 5301     		.2byte	0x153
 1428 0640 94000000 		.4byte	0x94
 1429 0644 10       		.byte	0x10
 1430 0645 16       		.uleb128 0x16
 1431 0646 53030000 		.4byte	.LASF92
 1432 064a 0B       		.byte	0xb
 1433 064b 5401     		.2byte	0x154
 1434 064d E4000000 		.4byte	0xe4
 1435 0651 14       		.byte	0x14
 1436 0652 16       		.uleb128 0x16
 1437 0653 AE030000 		.4byte	.LASF93
 1438 0657 0B       		.byte	0xb
 1439 0658 5501     		.2byte	0x155
 1440 065a E4000000 		.4byte	0xe4
 1441 065e 15       		.byte	0x15
 1442 065f 00       		.byte	0
 1443 0660 17       		.uleb128 0x17
 1444 0661 63010000 		.4byte	.LASF94
 1445 0665 0B       		.byte	0xb
 1446 0666 5601     		.2byte	0x156
 1447 0668 FB050000 		.4byte	0x5fb
 1448 066c 0D       		.uleb128 0xd
 1449 066d AD000000 		.4byte	0xad
 1450 0671 0D       		.uleb128 0xd
 1451 0672 B8000000 		.4byte	0xb8
 1452 0676 15       		.uleb128 0x15
 1453 0677 18       		.byte	0x18
 1454 0678 0C       		.byte	0xc
 1455 0679 B102     		.2byte	0x2b1
 1456 067b CD060000 		.4byte	0x6cd
 1457 067f 0C       		.uleb128 0xc
 1458 0680 435200   		.ascii	"CR\000"
 1459 0683 0C       		.byte	0xc
ARM GAS  /var/folders/bz/nn5481rn5xq59rb0mbj7x0880000gn/T//ccHcHkHf.s 			page 27


 1460 0684 B302     		.2byte	0x2b3
 1461 0686 22040000 		.4byte	0x422
 1462 068a 00       		.byte	0
 1463 068b 16       		.uleb128 0x16
 1464 068c 22010000 		.4byte	.LASF95
 1465 0690 0C       		.byte	0xc
 1466 0691 B402     		.2byte	0x2b4
 1467 0693 22040000 		.4byte	0x422
 1468 0697 04       		.byte	0x4
 1469 0698 0C       		.uleb128 0xc
 1470 0699 50415200 		.ascii	"PAR\000"
 1471 069d 0C       		.byte	0xc
 1472 069e B502     		.2byte	0x2b5
 1473 06a0 22040000 		.4byte	0x422
 1474 06a4 08       		.byte	0x8
 1475 06a5 16       		.uleb128 0x16
 1476 06a6 2E000000 		.4byte	.LASF96
 1477 06aa 0C       		.byte	0xc
 1478 06ab B602     		.2byte	0x2b6
 1479 06ad 22040000 		.4byte	0x422
 1480 06b1 0C       		.byte	0xc
 1481 06b2 16       		.uleb128 0x16
 1482 06b3 0D080000 		.4byte	.LASF97
 1483 06b7 0C       		.byte	0xc
 1484 06b8 B702     		.2byte	0x2b7
 1485 06ba 22040000 		.4byte	0x422
 1486 06be 10       		.byte	0x10
 1487 06bf 0C       		.uleb128 0xc
 1488 06c0 46435200 		.ascii	"FCR\000"
 1489 06c4 0C       		.byte	0xc
 1490 06c5 B802     		.2byte	0x2b8
 1491 06c7 22040000 		.4byte	0x422
 1492 06cb 14       		.byte	0x14
 1493 06cc 00       		.byte	0
 1494 06cd 17       		.uleb128 0x17
 1495 06ce D8070000 		.4byte	.LASF98
 1496 06d2 0C       		.byte	0xc
 1497 06d3 B902     		.2byte	0x2b9
 1498 06d5 76060000 		.4byte	0x676
 1499 06d9 15       		.uleb128 0x15
 1500 06da 28       		.byte	0x28
 1501 06db 0C       		.byte	0xc
 1502 06dc F603     		.2byte	0x3f6
 1503 06de E6070000 		.4byte	0x7e6
 1504 06e2 0C       		.uleb128 0xc
 1505 06e3 43523100 		.ascii	"CR1\000"
 1506 06e7 0C       		.byte	0xc
 1507 06e8 F803     		.2byte	0x3f8
 1508 06ea 6C060000 		.4byte	0x66c
 1509 06ee 00       		.byte	0
 1510 06ef 16       		.uleb128 0x16
 1511 06f0 B7050000 		.4byte	.LASF99
 1512 06f4 0C       		.byte	0xc
 1513 06f5 F903     		.2byte	0x3f9
 1514 06f7 AD000000 		.4byte	0xad
 1515 06fb 02       		.byte	0x2
 1516 06fc 0C       		.uleb128 0xc
ARM GAS  /var/folders/bz/nn5481rn5xq59rb0mbj7x0880000gn/T//ccHcHkHf.s 			page 28


 1517 06fd 43523200 		.ascii	"CR2\000"
 1518 0701 0C       		.byte	0xc
 1519 0702 FA03     		.2byte	0x3fa
 1520 0704 6C060000 		.4byte	0x66c
 1521 0708 04       		.byte	0x4
 1522 0709 16       		.uleb128 0x16
 1523 070a C8050000 		.4byte	.LASF100
 1524 070e 0C       		.byte	0xc
 1525 070f FB03     		.2byte	0x3fb
 1526 0711 AD000000 		.4byte	0xad
 1527 0715 06       		.byte	0x6
 1528 0716 16       		.uleb128 0x16
 1529 0717 79080000 		.4byte	.LASF101
 1530 071b 0C       		.byte	0xc
 1531 071c FC03     		.2byte	0x3fc
 1532 071e 6C060000 		.4byte	0x66c
 1533 0722 08       		.byte	0x8
 1534 0723 16       		.uleb128 0x16
 1535 0724 CD040000 		.4byte	.LASF102
 1536 0728 0C       		.byte	0xc
 1537 0729 FD03     		.2byte	0x3fd
 1538 072b AD000000 		.4byte	0xad
 1539 072f 0A       		.byte	0xa
 1540 0730 16       		.uleb128 0x16
 1541 0731 7E080000 		.4byte	.LASF103
 1542 0735 0C       		.byte	0xc
 1543 0736 FE03     		.2byte	0x3fe
 1544 0738 6C060000 		.4byte	0x66c
 1545 073c 0C       		.byte	0xc
 1546 073d 16       		.uleb128 0x16
 1547 073e D7040000 		.4byte	.LASF104
 1548 0742 0C       		.byte	0xc
 1549 0743 FF03     		.2byte	0x3ff
 1550 0745 AD000000 		.4byte	0xad
 1551 0749 0E       		.byte	0xe
 1552 074a 0C       		.uleb128 0xc
 1553 074b 445200   		.ascii	"DR\000"
 1554 074e 0C       		.byte	0xc
 1555 074f 0004     		.2byte	0x400
 1556 0751 6C060000 		.4byte	0x66c
 1557 0755 10       		.byte	0x10
 1558 0756 16       		.uleb128 0x16
 1559 0757 E1040000 		.4byte	.LASF105
 1560 075b 0C       		.byte	0xc
 1561 075c 0104     		.2byte	0x401
 1562 075e AD000000 		.4byte	0xad
 1563 0762 12       		.byte	0x12
 1564 0763 0C       		.uleb128 0xc
 1565 0764 53523100 		.ascii	"SR1\000"
 1566 0768 0C       		.byte	0xc
 1567 0769 0204     		.2byte	0x402
 1568 076b 6C060000 		.4byte	0x66c
 1569 076f 14       		.byte	0x14
 1570 0770 16       		.uleb128 0x16
 1571 0771 ED050000 		.4byte	.LASF106
 1572 0775 0C       		.byte	0xc
 1573 0776 0304     		.2byte	0x403
ARM GAS  /var/folders/bz/nn5481rn5xq59rb0mbj7x0880000gn/T//ccHcHkHf.s 			page 29


 1574 0778 AD000000 		.4byte	0xad
 1575 077c 16       		.byte	0x16
 1576 077d 0C       		.uleb128 0xc
 1577 077e 53523200 		.ascii	"SR2\000"
 1578 0782 0C       		.byte	0xc
 1579 0783 0404     		.2byte	0x404
 1580 0785 6C060000 		.4byte	0x66c
 1581 0789 18       		.byte	0x18
 1582 078a 16       		.uleb128 0x16
 1583 078b F2040000 		.4byte	.LASF107
 1584 078f 0C       		.byte	0xc
 1585 0790 0504     		.2byte	0x405
 1586 0792 AD000000 		.4byte	0xad
 1587 0796 1A       		.byte	0x1a
 1588 0797 0C       		.uleb128 0xc
 1589 0798 43435200 		.ascii	"CCR\000"
 1590 079c 0C       		.byte	0xc
 1591 079d 0604     		.2byte	0x406
 1592 079f 6C060000 		.4byte	0x66c
 1593 07a3 1C       		.byte	0x1c
 1594 07a4 16       		.uleb128 0x16
 1595 07a5 12080000 		.4byte	.LASF108
 1596 07a9 0C       		.byte	0xc
 1597 07aa 0704     		.2byte	0x407
 1598 07ac AD000000 		.4byte	0xad
 1599 07b0 1E       		.byte	0x1e
 1600 07b1 16       		.uleb128 0x16
 1601 07b2 9A000000 		.4byte	.LASF109
 1602 07b6 0C       		.byte	0xc
 1603 07b7 0804     		.2byte	0x408
 1604 07b9 6C060000 		.4byte	0x66c
 1605 07bd 20       		.byte	0x20
 1606 07be 16       		.uleb128 0x16
 1607 07bf 1C080000 		.4byte	.LASF110
 1608 07c3 0C       		.byte	0xc
 1609 07c4 0904     		.2byte	0x409
 1610 07c6 AD000000 		.4byte	0xad
 1611 07ca 22       		.byte	0x22
 1612 07cb 16       		.uleb128 0x16
 1613 07cc 03020000 		.4byte	.LASF111
 1614 07d0 0C       		.byte	0xc
 1615 07d1 0A04     		.2byte	0x40a
 1616 07d3 6C060000 		.4byte	0x66c
 1617 07d7 24       		.byte	0x24
 1618 07d8 16       		.uleb128 0x16
 1619 07d9 11060000 		.4byte	.LASF112
 1620 07dd 0C       		.byte	0xc
 1621 07de 0B04     		.2byte	0x40b
 1622 07e0 AD000000 		.4byte	0xad
 1623 07e4 26       		.byte	0x26
 1624 07e5 00       		.byte	0
 1625 07e6 17       		.uleb128 0x17
 1626 07e7 E6080000 		.4byte	.LASF113
 1627 07eb 0C       		.byte	0xc
 1628 07ec 0C04     		.2byte	0x40c
 1629 07ee D9060000 		.4byte	0x6d9
 1630 07f2 08       		.uleb128 0x8
ARM GAS  /var/folders/bz/nn5481rn5xq59rb0mbj7x0880000gn/T//ccHcHkHf.s 			page 30


 1631 07f3 0C       		.byte	0xc
 1632 07f4 0D       		.byte	0xd
 1633 07f5 DA       		.byte	0xda
 1634 07f6 37080000 		.4byte	0x837
 1635 07fa 06       		.uleb128 0x6
 1636 07fb 7D020000 		.4byte	.LASF114
 1637 07ff 0D       		.byte	0xd
 1638 0800 DB       		.byte	0xdb
 1639 0801 37080000 		.4byte	0x837
 1640 0805 00       		.byte	0
 1641 0806 06       		.uleb128 0x6
 1642 0807 E8050000 		.4byte	.LASF115
 1643 080b 0D       		.byte	0xd
 1644 080c DC       		.byte	0xdc
 1645 080d 3D080000 		.4byte	0x83d
 1646 0811 04       		.byte	0x4
 1647 0812 06       		.uleb128 0x6
 1648 0813 DF020000 		.4byte	.LASF116
 1649 0817 0D       		.byte	0xd
 1650 0818 DD       		.byte	0xdd
 1651 0819 A2000000 		.4byte	0xa2
 1652 081d 08       		.byte	0x8
 1653 081e 06       		.uleb128 0x6
 1654 081f 6B020000 		.4byte	.LASF117
 1655 0823 0D       		.byte	0xd
 1656 0824 DF       		.byte	0xdf
 1657 0825 A2000000 		.4byte	0xa2
 1658 0829 09       		.byte	0x9
 1659 082a 06       		.uleb128 0x6
 1660 082b E0000000 		.4byte	.LASF118
 1661 082f 0D       		.byte	0xd
 1662 0830 E0       		.byte	0xe0
 1663 0831 A2000000 		.4byte	0xa2
 1664 0835 0A       		.byte	0xa
 1665 0836 00       		.byte	0
 1666 0837 09       		.uleb128 0x9
 1667 0838 04       		.byte	0x4
 1668 0839 CD060000 		.4byte	0x6cd
 1669 083d 09       		.uleb128 0x9
 1670 083e 04       		.byte	0x4
 1671 083f 22040000 		.4byte	0x422
 1672 0843 03       		.uleb128 0x3
 1673 0844 FC040000 		.4byte	.LASF119
 1674 0848 0D       		.byte	0xd
 1675 0849 E1       		.byte	0xe1
 1676 084a F2070000 		.4byte	0x7f2
 1677 084e 13       		.uleb128 0x13
 1678 084f 01       		.byte	0x1
 1679 0850 0E       		.byte	0xe
 1680 0851 5A       		.byte	0x5a
 1681 0852 7B080000 		.4byte	0x87b
 1682 0856 14       		.uleb128 0x14
 1683 0857 58010000 		.4byte	.LASF120
 1684 085b 00       		.sleb128 0
 1685 085c 14       		.uleb128 0x14
 1686 085d DB030000 		.4byte	.LASF121
 1687 0861 01       		.sleb128 1
ARM GAS  /var/folders/bz/nn5481rn5xq59rb0mbj7x0880000gn/T//ccHcHkHf.s 			page 31


 1688 0862 14       		.uleb128 0x14
 1689 0863 27010000 		.4byte	.LASF122
 1690 0867 02       		.sleb128 2
 1691 0868 14       		.uleb128 0x14
 1692 0869 25050000 		.4byte	.LASF123
 1693 086d 03       		.sleb128 3
 1694 086e 14       		.uleb128 0x14
 1695 086f D2000000 		.4byte	.LASF124
 1696 0873 04       		.sleb128 4
 1697 0874 14       		.uleb128 0x14
 1698 0875 D2050000 		.4byte	.LASF125
 1699 0879 05       		.sleb128 5
 1700 087a 00       		.byte	0
 1701 087b 03       		.uleb128 0x3
 1702 087c AD040000 		.4byte	.LASF126
 1703 0880 0E       		.byte	0xe
 1704 0881 61       		.byte	0x61
 1705 0882 4E080000 		.4byte	0x84e
 1706 0886 17       		.uleb128 0x17
 1707 0887 DC010000 		.4byte	.LASF127
 1708 088b 0F       		.byte	0xf
 1709 088c 3501     		.2byte	0x135
 1710 088e AD000000 		.4byte	0xad
 1711 0892 17       		.uleb128 0x17
 1712 0893 33050000 		.4byte	.LASF128
 1713 0897 0F       		.byte	0xf
 1714 0898 3A01     		.2byte	0x13a
 1715 089a C3000000 		.4byte	0xc3
 1716 089e 18       		.uleb128 0x18
 1717 089f 01       		.byte	0x1
 1718 08a0 0F       		.byte	0xf
 1719 08a1 3F01     		.2byte	0x13f
 1720 08a3 BA080000 		.4byte	0x8ba
 1721 08a7 14       		.uleb128 0x14
 1722 08a8 4D040000 		.4byte	.LASF129
 1723 08ac 01       		.sleb128 1
 1724 08ad 14       		.uleb128 0x14
 1725 08ae 08030000 		.4byte	.LASF130
 1726 08b2 02       		.sleb128 2
 1727 08b3 14       		.uleb128 0x14
 1728 08b4 51020000 		.4byte	.LASF131
 1729 08b8 03       		.sleb128 3
 1730 08b9 00       		.byte	0
 1731 08ba 17       		.uleb128 0x17
 1732 08bb 08020000 		.4byte	.LASF132
 1733 08bf 0F       		.byte	0xf
 1734 08c0 4301     		.2byte	0x143
 1735 08c2 9E080000 		.4byte	0x89e
 1736 08c6 18       		.uleb128 0x18
 1737 08c7 01       		.byte	0x1
 1738 08c8 0F       		.byte	0xf
 1739 08c9 4801     		.2byte	0x148
 1740 08cb E2080000 		.4byte	0x8e2
 1741 08cf 14       		.uleb128 0x14
 1742 08d0 81030000 		.4byte	.LASF133
 1743 08d4 01       		.sleb128 1
 1744 08d5 14       		.uleb128 0x14
ARM GAS  /var/folders/bz/nn5481rn5xq59rb0mbj7x0880000gn/T//ccHcHkHf.s 			page 32


 1745 08d6 58030000 		.4byte	.LASF134
 1746 08da 02       		.sleb128 2
 1747 08db 14       		.uleb128 0x14
 1748 08dc B8040000 		.4byte	.LASF135
 1749 08e0 03       		.sleb128 3
 1750 08e1 00       		.byte	0
 1751 08e2 17       		.uleb128 0x17
 1752 08e3 63050000 		.4byte	.LASF136
 1753 08e7 0F       		.byte	0xf
 1754 08e8 4C01     		.2byte	0x14c
 1755 08ea C6080000 		.4byte	0x8c6
 1756 08ee 15       		.uleb128 0x15
 1757 08ef 0C       		.byte	0xc
 1758 08f0 0F       		.byte	0xf
 1759 08f1 5101     		.2byte	0x151
 1760 08f3 1F090000 		.4byte	0x91f
 1761 08f7 16       		.uleb128 0x16
 1762 08f8 75020000 		.4byte	.LASF137
 1763 08fc 0F       		.byte	0xf
 1764 08fd 5201     		.2byte	0x152
 1765 08ff BA080000 		.4byte	0x8ba
 1766 0903 00       		.byte	0
 1767 0904 16       		.uleb128 0x16
 1768 0905 7C050000 		.4byte	.LASF138
 1769 0909 0F       		.byte	0xf
 1770 090a 5301     		.2byte	0x153
 1771 090c C3000000 		.4byte	0xc3
 1772 0910 04       		.byte	0x4
 1773 0911 16       		.uleb128 0x16
 1774 0912 06040000 		.4byte	.LASF139
 1775 0916 0F       		.byte	0xf
 1776 0917 5601     		.2byte	0x156
 1777 0919 E2080000 		.4byte	0x8e2
 1778 091d 08       		.byte	0x8
 1779 091e 00       		.byte	0
 1780 091f 17       		.uleb128 0x17
 1781 0920 20040000 		.4byte	.LASF140
 1782 0924 0F       		.byte	0xf
 1783 0925 5801     		.2byte	0x158
 1784 0927 EE080000 		.4byte	0x8ee
 1785 092b 17       		.uleb128 0x17
 1786 092c 2F030000 		.4byte	.LASF141
 1787 0930 0F       		.byte	0xf
 1788 0931 5D01     		.2byte	0x15d
 1789 0933 37090000 		.4byte	0x937
 1790 0937 0B       		.uleb128 0xb
 1791 0938 2F030000 		.4byte	.LASF141
 1792 093c 38       		.byte	0x38
 1793 093d 0F       		.byte	0xf
 1794 093e 6201     		.2byte	0x162
 1795 0940 D4090000 		.4byte	0x9d4
 1796 0944 16       		.uleb128 0x16
 1797 0945 E6010000 		.4byte	.LASF142
 1798 0949 0F       		.byte	0xf
 1799 094a 6601     		.2byte	0x166
 1800 094c 7B080000 		.4byte	0x87b
 1801 0950 00       		.byte	0
ARM GAS  /var/folders/bz/nn5481rn5xq59rb0mbj7x0880000gn/T//ccHcHkHf.s 			page 33


 1802 0951 16       		.uleb128 0x16
 1803 0952 B3020000 		.4byte	.LASF143
 1804 0956 0F       		.byte	0xf
 1805 0957 6A01     		.2byte	0x16a
 1806 0959 D4090000 		.4byte	0x9d4
 1807 095d 04       		.byte	0x4
 1808 095e 16       		.uleb128 0x16
 1809 095f BA020000 		.4byte	.LASF144
 1810 0963 0F       		.byte	0xf
 1811 0964 6E01     		.2byte	0x16e
 1812 0966 92080000 		.4byte	0x892
 1813 096a 08       		.byte	0x8
 1814 096b 16       		.uleb128 0x16
 1815 096c EC010000 		.4byte	.LASF145
 1816 0970 0F       		.byte	0xf
 1817 0971 7401     		.2byte	0x174
 1818 0973 C6040000 		.4byte	0x4c6
 1819 0977 0C       		.byte	0xc
 1820 0978 16       		.uleb128 0x16
 1821 0979 3E050000 		.4byte	.LASF146
 1822 097d 0F       		.byte	0xf
 1823 097e 8001     		.2byte	0x180
 1824 0980 6C020000 		.4byte	0x26c
 1825 0984 1C       		.byte	0x1c
 1826 0985 16       		.uleb128 0x16
 1827 0986 C1010000 		.4byte	.LASF147
 1828 098a 0F       		.byte	0xf
 1829 098b 8401     		.2byte	0x184
 1830 098d 86080000 		.4byte	0x886
 1831 0991 20       		.byte	0x20
 1832 0992 16       		.uleb128 0x16
 1833 0993 2E020000 		.4byte	.LASF148
 1834 0997 0F       		.byte	0xf
 1835 0998 8801     		.2byte	0x188
 1836 099a C3000000 		.4byte	0xc3
 1837 099e 24       		.byte	0x24
 1838 099f 16       		.uleb128 0x16
 1839 09a0 3C040000 		.4byte	.LASF149
 1840 09a4 0F       		.byte	0xf
 1841 09a5 8C01     		.2byte	0x18c
 1842 09a7 C3000000 		.4byte	0xc3
 1843 09ab 28       		.byte	0x28
 1844 09ac 16       		.uleb128 0x16
 1845 09ad 16000000 		.4byte	.LASF150
 1846 09b1 0F       		.byte	0xf
 1847 09b2 9001     		.2byte	0x190
 1848 09b4 DF090000 		.4byte	0x9df
 1849 09b8 2C       		.byte	0x2c
 1850 09b9 16       		.uleb128 0x16
 1851 09ba 38020000 		.4byte	.LASF151
 1852 09be 0F       		.byte	0xf
 1853 09bf 9401     		.2byte	0x194
 1854 09c1 DF090000 		.4byte	0x9df
 1855 09c5 30       		.byte	0x30
 1856 09c6 0C       		.uleb128 0xc
 1857 09c7 69326300 		.ascii	"i2c\000"
 1858 09cb 0F       		.byte	0xf
ARM GAS  /var/folders/bz/nn5481rn5xq59rb0mbj7x0880000gn/T//ccHcHkHf.s 			page 34


 1859 09cc 9801     		.2byte	0x198
 1860 09ce EA090000 		.4byte	0x9ea
 1861 09d2 34       		.byte	0x34
 1862 09d3 00       		.byte	0
 1863 09d4 09       		.uleb128 0x9
 1864 09d5 04       		.byte	0x4
 1865 09d6 DA090000 		.4byte	0x9da
 1866 09da 10       		.uleb128 0x10
 1867 09db 1F090000 		.4byte	0x91f
 1868 09df 09       		.uleb128 0x9
 1869 09e0 04       		.byte	0x4
 1870 09e1 E5090000 		.4byte	0x9e5
 1871 09e5 10       		.uleb128 0x10
 1872 09e6 43080000 		.4byte	0x843
 1873 09ea 09       		.uleb128 0x9
 1874 09eb 04       		.byte	0x4
 1875 09ec E6070000 		.4byte	0x7e6
 1876 09f0 02       		.uleb128 0x2
 1877 09f1 08       		.byte	0x8
 1878 09f2 04       		.byte	0x4
 1879 09f3 0C090000 		.4byte	.LASF152
 1880 09f7 02       		.uleb128 0x2
 1881 09f8 08       		.byte	0x8
 1882 09f9 04       		.byte	0x4
 1883 09fa 41060000 		.4byte	.LASF153
 1884 09fe 19       		.uleb128 0x19
 1885 09ff 7E000000 		.4byte	.LASF159
 1886 0a03 01       		.byte	0x1
 1887 0a04 AE       		.byte	0xae
 1888 0a05 22010000 		.4byte	0x122
 1889 0a09 00000000 		.4byte	.LFB123
 1890 0a0d 1C000000 		.4byte	.LFE123-.LFB123
 1891 0a11 01       		.uleb128 0x1
 1892 0a12 9C       		.byte	0x9c
 1893 0a13 360A0000 		.4byte	0xa36
 1894 0a17 1A       		.uleb128 0x1a
 1895 0a18 61726700 		.ascii	"arg\000"
 1896 0a1c 01       		.byte	0x1
 1897 0a1d AE       		.byte	0xae
 1898 0a1e A8020000 		.4byte	0x2a8
 1899 0a22 00000000 		.4byte	.LLST0
 1900 0a26 1B       		.uleb128 0x1b
 1901 0a27 10000000 		.4byte	.LVL2
 1902 0a2b 4F0E0000 		.4byte	0xe4f
 1903 0a2f 1C       		.uleb128 0x1c
 1904 0a30 01       		.uleb128 0x1
 1905 0a31 50       		.byte	0x50
 1906 0a32 01       		.uleb128 0x1
 1907 0a33 3A       		.byte	0x3a
 1908 0a34 00       		.byte	0
 1909 0a35 00       		.byte	0
 1910 0a36 1D       		.uleb128 0x1d
 1911 0a37 1B060000 		.4byte	.LASF155
 1912 0a3b 01       		.byte	0x1
 1913 0a3c 3A       		.byte	0x3a
 1914 0a3d 00000000 		.4byte	.LFB118
 1915 0a41 1C000000 		.4byte	.LFE118-.LFB118
ARM GAS  /var/folders/bz/nn5481rn5xq59rb0mbj7x0880000gn/T//ccHcHkHf.s 			page 35


 1916 0a45 01       		.uleb128 0x1
 1917 0a46 9C       		.byte	0x9c
 1918 0a47 5B0A0000 		.4byte	0xa5b
 1919 0a4b 1E       		.uleb128 0x1e
 1920 0a4c D7010000 		.4byte	.LASF154
 1921 0a50 01       		.byte	0x1
 1922 0a51 3A       		.byte	0x3a
 1923 0a52 5B0A0000 		.4byte	0xa5b
 1924 0a56 21000000 		.4byte	.LLST1
 1925 0a5a 00       		.byte	0
 1926 0a5b 09       		.uleb128 0x9
 1927 0a5c 04       		.byte	0x4
 1928 0a5d F0050000 		.4byte	0x5f0
 1929 0a61 1D       		.uleb128 0x1d
 1930 0a62 1C000000 		.4byte	.LASF156
 1931 0a66 01       		.byte	0x1
 1932 0a67 3E       		.byte	0x3e
 1933 0a68 00000000 		.4byte	.LFB119
 1934 0a6c 2C000000 		.4byte	.LFE119-.LFB119
 1935 0a70 01       		.uleb128 0x1
 1936 0a71 9C       		.byte	0x9c
 1937 0a72 A60A0000 		.4byte	0xaa6
 1938 0a76 1B       		.uleb128 0x1b
 1939 0a77 1C000000 		.4byte	.LVL6
 1940 0a7b 610E0000 		.4byte	0xe61
 1941 0a7f 1C       		.uleb128 0x1c
 1942 0a80 01       		.uleb128 0x1
 1943 0a81 53       		.byte	0x53
 1944 0a82 05       		.uleb128 0x5
 1945 0a83 03       		.byte	0x3
 1946 0a84 00000000 		.4byte	chuk_thread
 1947 0a88 1C       		.uleb128 0x1c
 1948 0a89 01       		.uleb128 0x1
 1949 0a8a 52       		.byte	0x52
 1950 0a8b 02       		.uleb128 0x2
 1951 0a8c 08       		.byte	0x8
 1952 0a8d 40       		.byte	0x40
 1953 0a8e 1C       		.uleb128 0x1c
 1954 0a8f 01       		.uleb128 0x1
 1955 0a90 51       		.byte	0x51
 1956 0a91 03       		.uleb128 0x3
 1957 0a92 0A       		.byte	0xa
 1958 0a93 9805     		.2byte	0x598
 1959 0a95 1C       		.uleb128 0x1c
 1960 0a96 01       		.uleb128 0x1
 1961 0a97 50       		.byte	0x50
 1962 0a98 05       		.uleb128 0x5
 1963 0a99 03       		.byte	0x3
 1964 0a9a 00000000 		.4byte	.LANCHOR2
 1965 0a9e 1C       		.uleb128 0x1c
 1966 0a9f 02       		.uleb128 0x2
 1967 0aa0 7D       		.byte	0x7d
 1968 0aa1 00       		.sleb128 0
 1969 0aa2 01       		.uleb128 0x1
 1970 0aa3 30       		.byte	0x30
 1971 0aa4 00       		.byte	0
 1972 0aa5 00       		.byte	0
ARM GAS  /var/folders/bz/nn5481rn5xq59rb0mbj7x0880000gn/T//ccHcHkHf.s 			page 36


 1973 0aa6 1F       		.uleb128 0x1f
 1974 0aa7 E6020000 		.4byte	.LASF190
 1975 0aab 01       		.byte	0x1
 1976 0aac 43       		.byte	0x43
 1977 0aad 4F050000 		.4byte	0x54f
 1978 0ab1 00000000 		.4byte	.LFB120
 1979 0ab5 28000000 		.4byte	.LFE120-.LFB120
 1980 0ab9 01       		.uleb128 0x1
 1981 0aba 9C       		.byte	0x9c
 1982 0abb 1D       		.uleb128 0x1d
 1983 0abc 6E010000 		.4byte	.LASF157
 1984 0ac0 01       		.byte	0x1
 1985 0ac1 47       		.byte	0x47
 1986 0ac2 00000000 		.4byte	.LFB121
 1987 0ac6 54000000 		.4byte	.LFE121-.LFB121
 1988 0aca 01       		.uleb128 0x1
 1989 0acb 9C       		.byte	0x9c
 1990 0acc 160B0000 		.4byte	0xb16
 1991 0ad0 1E       		.uleb128 0x1e
 1992 0ad1 03030000 		.4byte	.LASF158
 1993 0ad5 01       		.byte	0x1
 1994 0ad6 47       		.byte	0x47
 1995 0ad7 160B0000 		.4byte	0xb16
 1996 0adb 4F000000 		.4byte	.LLST2
 1997 0adf 20       		.uleb128 0x20
 1998 0ae0 2A000000 		.4byte	.LVL9
 1999 0ae4 610E0000 		.4byte	0xe61
 2000 0ae8 0C0B0000 		.4byte	0xb0c
 2001 0aec 1C       		.uleb128 0x1c
 2002 0aed 01       		.uleb128 0x1
 2003 0aee 53       		.byte	0x53
 2004 0aef 05       		.uleb128 0x5
 2005 0af0 03       		.byte	0x3
 2006 0af1 00000000 		.4byte	output_thread
 2007 0af5 1C       		.uleb128 0x1c
 2008 0af6 01       		.uleb128 0x1
 2009 0af7 52       		.byte	0x52
 2010 0af8 02       		.uleb128 0x2
 2011 0af9 08       		.byte	0x8
 2012 0afa 40       		.byte	0x40
 2013 0afb 1C       		.uleb128 0x1c
 2014 0afc 01       		.uleb128 0x1
 2015 0afd 51       		.byte	0x51
 2016 0afe 03       		.uleb128 0x3
 2017 0aff 0A       		.byte	0xa
 2018 0b00 9805     		.2byte	0x598
 2019 0b02 1C       		.uleb128 0x1c
 2020 0b03 01       		.uleb128 0x1
 2021 0b04 50       		.byte	0x50
 2022 0b05 05       		.uleb128 0x5
 2023 0b06 03       		.byte	0x3
 2024 0b07 00000000 		.4byte	.LANCHOR4
 2025 0b0b 00       		.byte	0
 2026 0b0c 21       		.uleb128 0x21
 2027 0b0d 42000000 		.4byte	.LVL12
 2028 0b11 8B0E0000 		.4byte	0xe8b
 2029 0b15 00       		.byte	0
ARM GAS  /var/folders/bz/nn5481rn5xq59rb0mbj7x0880000gn/T//ccHcHkHf.s 			page 37


 2030 0b16 09       		.uleb128 0x9
 2031 0b17 04       		.byte	0x4
 2032 0b18 60060000 		.4byte	0x660
 2033 0b1c 19       		.uleb128 0x19
 2034 0b1d F2080000 		.4byte	.LASF160
 2035 0b21 01       		.byte	0x1
 2036 0b22 52       		.byte	0x52
 2037 0b23 22010000 		.4byte	0x122
 2038 0b27 00000000 		.4byte	.LFB122
 2039 0b2b AC010000 		.4byte	.LFE122-.LFB122
 2040 0b2f 01       		.uleb128 0x1
 2041 0b30 9C       		.byte	0x9c
 2042 0b31 810D0000 		.4byte	0xd81
 2043 0b35 1A       		.uleb128 0x1a
 2044 0b36 61726700 		.ascii	"arg\000"
 2045 0b3a 01       		.byte	0x1
 2046 0b3b 52       		.byte	0x52
 2047 0b3c A8020000 		.4byte	0x2a8
 2048 0b40 88000000 		.4byte	.LLST3
 2049 0b44 22       		.uleb128 0x22
 2050 0b45 A0000000 		.4byte	.LASF161
 2051 0b49 01       		.byte	0x1
 2052 0b4a 58       		.byte	0x58
 2053 0b4b 810D0000 		.4byte	0xd81
 2054 0b4f 03       		.uleb128 0x3
 2055 0b50 91       		.byte	0x91
 2056 0b51 B07F     		.sleb128 -80
 2057 0b53 22       		.uleb128 0x22
 2058 0b54 FE080000 		.4byte	.LASF162
 2059 0b58 01       		.byte	0x1
 2060 0b59 59       		.byte	0x59
 2061 0b5a 810D0000 		.4byte	0xd81
 2062 0b5e 03       		.uleb128 0x3
 2063 0b5f 91       		.byte	0x91
 2064 0b60 BC7F     		.sleb128 -68
 2065 0b62 23       		.uleb128 0x23
 2066 0b63 4F080000 		.4byte	.LASF163
 2067 0b67 01       		.byte	0x1
 2068 0b68 5A       		.byte	0x5a
 2069 0b69 22010000 		.4byte	0x122
 2070 0b6d A9000000 		.4byte	.LLST4
 2071 0b71 24       		.uleb128 0x24
 2072 0b72 746D6F00 		.ascii	"tmo\000"
 2073 0b76 01       		.byte	0x1
 2074 0b77 5B       		.byte	0x5b
 2075 0b78 38010000 		.4byte	0x138
 2076 0b7c 32       		.byte	0x32
 2077 0b7d 25       		.uleb128 0x25
 2078 0b7e B0080000 		.4byte	.LASF164
 2079 0b82 01       		.byte	0x1
 2080 0b83 5C       		.byte	0x5c
 2081 0b84 86080000 		.4byte	0x886
 2082 0b88 52       		.byte	0x52
 2083 0b89 22       		.uleb128 0x22
 2084 0b8a C1020000 		.4byte	.LASF165
 2085 0b8e 01       		.byte	0x1
 2086 0b8f 5D       		.byte	0x5d
ARM GAS  /var/folders/bz/nn5481rn5xq59rb0mbj7x0880000gn/T//ccHcHkHf.s 			page 38


 2087 0b90 60060000 		.4byte	0x660
 2088 0b94 02       		.uleb128 0x2
 2089 0b95 91       		.byte	0x91
 2090 0b96 48       		.sleb128 -56
 2091 0b97 26       		.uleb128 0x26
 2092 0b98 2C000000 		.4byte	.LBB2
 2093 0b9c 80010000 		.4byte	.LBE2-.LBB2
 2094 0ba0 670D0000 		.4byte	0xd67
 2095 0ba4 23       		.uleb128 0x23
 2096 0ba5 6A030000 		.4byte	.LASF166
 2097 0ba9 01       		.byte	0x1
 2098 0baa 63       		.byte	0x63
 2099 0bab E4000000 		.4byte	0xe4
 2100 0baf 20010000 		.4byte	.LLST5
 2101 0bb3 26       		.uleb128 0x26
 2102 0bb4 0A010000 		.4byte	.LBB3
 2103 0bb8 A2000000 		.4byte	.LBE3-.LBB3
 2104 0bbc 150C0000 		.4byte	0xc15
 2105 0bc0 22       		.uleb128 0x22
 2106 0bc1 84020000 		.4byte	.LASF167
 2107 0bc5 01       		.byte	0x1
 2108 0bc6 87       		.byte	0x87
 2109 0bc7 810D0000 		.4byte	0xd81
 2110 0bcb 05       		.uleb128 0x5
 2111 0bcc 03       		.byte	0x3
 2112 0bcd 00000000 		.4byte	last_buffer.10480
 2113 0bd1 23       		.uleb128 0x23
 2114 0bd2 11010000 		.4byte	.LASF168
 2115 0bd6 01       		.byte	0x1
 2116 0bd7 88       		.byte	0x88
 2117 0bd8 94000000 		.4byte	0x94
 2118 0bdc 7F010000 		.4byte	.LLST6
 2119 0be0 26       		.uleb128 0x26
 2120 0be1 0A010000 		.4byte	.LBB4
 2121 0be5 12000000 		.4byte	.LBE4-.LBB4
 2122 0be9 FB0B0000 		.4byte	0xbfb
 2123 0bed 27       		.uleb128 0x27
 2124 0bee 6900     		.ascii	"i\000"
 2125 0bf0 01       		.byte	0x1
 2126 0bf1 8A       		.byte	0x8a
 2127 0bf2 94000000 		.4byte	0x94
 2128 0bf6 AC010000 		.4byte	.LLST7
 2129 0bfa 00       		.byte	0
 2130 0bfb 28       		.uleb128 0x28
 2131 0bfc 2C010000 		.4byte	.LVL46
 2132 0c00 920E0000 		.4byte	0xe92
 2133 0c04 1B       		.uleb128 0x1b
 2134 0c05 92010000 		.4byte	.LVL51
 2135 0c09 BB0A0000 		.4byte	0xabb
 2136 0c0d 1C       		.uleb128 0x1c
 2137 0c0e 01       		.uleb128 0x1
 2138 0c0f 50       		.byte	0x50
 2139 0c10 02       		.uleb128 0x2
 2140 0c11 91       		.byte	0x91
 2141 0c12 48       		.sleb128 -56
 2142 0c13 00       		.byte	0
 2143 0c14 00       		.byte	0
ARM GAS  /var/folders/bz/nn5481rn5xq59rb0mbj7x0880000gn/T//ccHcHkHf.s 			page 39


 2144 0c15 28       		.uleb128 0x28
 2145 0c16 34000000 		.4byte	.LVL18
 2146 0c1a 9D0E0000 		.4byte	0xe9d
 2147 0c1e 20       		.uleb128 0x20
 2148 0c1f 3C000000 		.4byte	.LVL19
 2149 0c23 4F0E0000 		.4byte	0xe4f
 2150 0c27 330C0000 		.4byte	0xc33
 2151 0c2b 1C       		.uleb128 0x1c
 2152 0c2c 01       		.uleb128 0x1
 2153 0c2d 50       		.byte	0x50
 2154 0c2e 03       		.uleb128 0x3
 2155 0c2f 0A       		.byte	0xa
 2156 0c30 E803     		.2byte	0x3e8
 2157 0c32 00       		.byte	0
 2158 0c33 20       		.uleb128 0x20
 2159 0c34 42000000 		.4byte	.LVL20
 2160 0c38 4F0E0000 		.4byte	0xe4f
 2161 0c3c 470C0000 		.4byte	0xc47
 2162 0c40 1C       		.uleb128 0x1c
 2163 0c41 01       		.uleb128 0x1
 2164 0c42 50       		.byte	0x50
 2165 0c43 02       		.uleb128 0x2
 2166 0c44 08       		.byte	0x8
 2167 0c45 64       		.byte	0x64
 2168 0c46 00       		.byte	0
 2169 0c47 28       		.uleb128 0x28
 2170 0c48 58000000 		.4byte	.LVL21
 2171 0c4c A40E0000 		.4byte	0xea4
 2172 0c50 20       		.uleb128 0x20
 2173 0c51 6E000000 		.4byte	.LVL22
 2174 0c55 BB0E0000 		.4byte	0xebb
 2175 0c59 840C0000 		.4byte	0xc84
 2176 0c5d 1C       		.uleb128 0x1c
 2177 0c5e 01       		.uleb128 0x1
 2178 0c5f 53       		.byte	0x53
 2179 0c60 01       		.uleb128 0x1
 2180 0c61 32       		.byte	0x32
 2181 0c62 1C       		.uleb128 0x1c
 2182 0c63 01       		.uleb128 0x1
 2183 0c64 52       		.byte	0x52
 2184 0c65 03       		.uleb128 0x3
 2185 0c66 91       		.byte	0x91
 2186 0c67 BC7F     		.sleb128 -68
 2187 0c69 1C       		.uleb128 0x1c
 2188 0c6a 01       		.uleb128 0x1
 2189 0c6b 51       		.byte	0x51
 2190 0c6c 02       		.uleb128 0x2
 2191 0c6d 08       		.byte	0x8
 2192 0c6e 52       		.byte	0x52
 2193 0c6f 1C       		.uleb128 0x1c
 2194 0c70 02       		.uleb128 0x2
 2195 0c71 7D       		.byte	0x7d
 2196 0c72 08       		.sleb128 8
 2197 0c73 02       		.uleb128 0x2
 2198 0c74 79       		.byte	0x79
 2199 0c75 00       		.sleb128 0
 2200 0c76 1C       		.uleb128 0x1c
ARM GAS  /var/folders/bz/nn5481rn5xq59rb0mbj7x0880000gn/T//ccHcHkHf.s 			page 40


 2201 0c77 02       		.uleb128 0x2
 2202 0c78 7D       		.byte	0x7d
 2203 0c79 04       		.sleb128 4
 2204 0c7a 01       		.uleb128 0x1
 2205 0c7b 30       		.byte	0x30
 2206 0c7c 1C       		.uleb128 0x1c
 2207 0c7d 02       		.uleb128 0x2
 2208 0c7e 7D       		.byte	0x7d
 2209 0c7f 00       		.sleb128 0
 2210 0c80 02       		.uleb128 0x2
 2211 0c81 75       		.byte	0x75
 2212 0c82 00       		.sleb128 0
 2213 0c83 00       		.byte	0
 2214 0c84 28       		.uleb128 0x28
 2215 0c85 76000000 		.4byte	.LVL25
 2216 0c89 EE0E0000 		.4byte	0xeee
 2217 0c8d 28       		.uleb128 0x28
 2218 0c8e 8C000000 		.4byte	.LVL26
 2219 0c92 A40E0000 		.4byte	0xea4
 2220 0c96 20       		.uleb128 0x20
 2221 0c97 A0000000 		.4byte	.LVL27
 2222 0c9b BB0E0000 		.4byte	0xebb
 2223 0c9f CB0C0000 		.4byte	0xccb
 2224 0ca3 1C       		.uleb128 0x1c
 2225 0ca4 01       		.uleb128 0x1
 2226 0ca5 53       		.byte	0x53
 2227 0ca6 01       		.uleb128 0x1
 2228 0ca7 32       		.byte	0x32
 2229 0ca8 1C       		.uleb128 0x1c
 2230 0ca9 01       		.uleb128 0x1
 2231 0caa 52       		.byte	0x52
 2232 0cab 03       		.uleb128 0x3
 2233 0cac 91       		.byte	0x91
 2234 0cad BC7F     		.sleb128 -68
 2235 0caf 1C       		.uleb128 0x1c
 2236 0cb0 01       		.uleb128 0x1
 2237 0cb1 51       		.byte	0x51
 2238 0cb2 02       		.uleb128 0x2
 2239 0cb3 08       		.byte	0x8
 2240 0cb4 52       		.byte	0x52
 2241 0cb5 1C       		.uleb128 0x1c
 2242 0cb6 02       		.uleb128 0x2
 2243 0cb7 7D       		.byte	0x7d
 2244 0cb8 08       		.sleb128 8
 2245 0cb9 02       		.uleb128 0x2
 2246 0cba 79       		.byte	0x79
 2247 0cbb 00       		.sleb128 0
 2248 0cbc 1C       		.uleb128 0x1c
 2249 0cbd 02       		.uleb128 0x2
 2250 0cbe 7D       		.byte	0x7d
 2251 0cbf 04       		.sleb128 4
 2252 0cc0 02       		.uleb128 0x2
 2253 0cc1 7A       		.byte	0x7a
 2254 0cc2 00       		.sleb128 0
 2255 0cc3 1C       		.uleb128 0x1c
 2256 0cc4 02       		.uleb128 0x2
 2257 0cc5 7D       		.byte	0x7d
ARM GAS  /var/folders/bz/nn5481rn5xq59rb0mbj7x0880000gn/T//ccHcHkHf.s 			page 41


 2258 0cc6 00       		.sleb128 0
 2259 0cc7 02       		.uleb128 0x2
 2260 0cc8 75       		.byte	0x75
 2261 0cc9 00       		.sleb128 0
 2262 0cca 00       		.byte	0
 2263 0ccb 28       		.uleb128 0x28
 2264 0ccc A8000000 		.4byte	.LVL30
 2265 0cd0 EE0E0000 		.4byte	0xeee
 2266 0cd4 28       		.uleb128 0x28
 2267 0cd5 B8000000 		.4byte	.LVL31
 2268 0cd9 A40E0000 		.4byte	0xea4
 2269 0cdd 20       		.uleb128 0x20
 2270 0cde CC000000 		.4byte	.LVL32
 2271 0ce2 BB0E0000 		.4byte	0xebb
 2272 0ce6 120D0000 		.4byte	0xd12
 2273 0cea 1C       		.uleb128 0x1c
 2274 0ceb 01       		.uleb128 0x1
 2275 0cec 53       		.byte	0x53
 2276 0ced 01       		.uleb128 0x1
 2277 0cee 31       		.byte	0x31
 2278 0cef 1C       		.uleb128 0x1c
 2279 0cf0 01       		.uleb128 0x1
 2280 0cf1 52       		.byte	0x52
 2281 0cf2 03       		.uleb128 0x3
 2282 0cf3 91       		.byte	0x91
 2283 0cf4 BC7F     		.sleb128 -68
 2284 0cf6 1C       		.uleb128 0x1c
 2285 0cf7 01       		.uleb128 0x1
 2286 0cf8 51       		.byte	0x51
 2287 0cf9 02       		.uleb128 0x2
 2288 0cfa 08       		.byte	0x8
 2289 0cfb 52       		.byte	0x52
 2290 0cfc 1C       		.uleb128 0x1c
 2291 0cfd 02       		.uleb128 0x2
 2292 0cfe 7D       		.byte	0x7d
 2293 0cff 08       		.sleb128 8
 2294 0d00 02       		.uleb128 0x2
 2295 0d01 79       		.byte	0x79
 2296 0d02 00       		.sleb128 0
 2297 0d03 1C       		.uleb128 0x1c
 2298 0d04 02       		.uleb128 0x2
 2299 0d05 7D       		.byte	0x7d
 2300 0d06 04       		.sleb128 4
 2301 0d07 02       		.uleb128 0x2
 2302 0d08 7A       		.byte	0x7a
 2303 0d09 00       		.sleb128 0
 2304 0d0a 1C       		.uleb128 0x1c
 2305 0d0b 02       		.uleb128 0x2
 2306 0d0c 7D       		.byte	0x7d
 2307 0d0d 00       		.sleb128 0
 2308 0d0e 02       		.uleb128 0x2
 2309 0d0f 75       		.byte	0x75
 2310 0d10 00       		.sleb128 0
 2311 0d11 00       		.byte	0
 2312 0d12 28       		.uleb128 0x28
 2313 0d13 D4000000 		.4byte	.LVL35
 2314 0d17 EE0E0000 		.4byte	0xeee
ARM GAS  /var/folders/bz/nn5481rn5xq59rb0mbj7x0880000gn/T//ccHcHkHf.s 			page 42


 2315 0d1b 20       		.uleb128 0x20
 2316 0d1c E0000000 		.4byte	.LVL36
 2317 0d20 4F0E0000 		.4byte	0xe4f
 2318 0d24 2E0D0000 		.4byte	0xd2e
 2319 0d28 1C       		.uleb128 0x1c
 2320 0d29 01       		.uleb128 0x1
 2321 0d2a 50       		.byte	0x50
 2322 0d2b 01       		.uleb128 0x1
 2323 0d2c 4E       		.byte	0x4e
 2324 0d2d 00       		.byte	0
 2325 0d2e 28       		.uleb128 0x28
 2326 0d2f E6000000 		.4byte	.LVL37
 2327 0d33 A40E0000 		.4byte	0xea4
 2328 0d37 20       		.uleb128 0x20
 2329 0d38 F6000000 		.4byte	.LVL38
 2330 0d3c FF0E0000 		.4byte	0xeff
 2331 0d40 5D0D0000 		.4byte	0xd5d
 2332 0d44 1C       		.uleb128 0x1c
 2333 0d45 01       		.uleb128 0x1
 2334 0d46 53       		.byte	0x53
 2335 0d47 01       		.uleb128 0x1
 2336 0d48 36       		.byte	0x36
 2337 0d49 1C       		.uleb128 0x1c
 2338 0d4a 01       		.uleb128 0x1
 2339 0d4b 52       		.byte	0x52
 2340 0d4c 02       		.uleb128 0x2
 2341 0d4d 75       		.byte	0x75
 2342 0d4e 00       		.sleb128 0
 2343 0d4f 1C       		.uleb128 0x1c
 2344 0d50 01       		.uleb128 0x1
 2345 0d51 51       		.byte	0x51
 2346 0d52 02       		.uleb128 0x2
 2347 0d53 08       		.byte	0x8
 2348 0d54 52       		.byte	0x52
 2349 0d55 1C       		.uleb128 0x1c
 2350 0d56 02       		.uleb128 0x2
 2351 0d57 7D       		.byte	0x7d
 2352 0d58 00       		.sleb128 0
 2353 0d59 02       		.uleb128 0x2
 2354 0d5a 79       		.byte	0x79
 2355 0d5b 00       		.sleb128 0
 2356 0d5c 00       		.byte	0
 2357 0d5d 28       		.uleb128 0x28
 2358 0d5e FE000000 		.4byte	.LVL41
 2359 0d62 EE0E0000 		.4byte	0xeee
 2360 0d66 00       		.byte	0
 2361 0d67 28       		.uleb128 0x28
 2362 0d68 1A000000 		.4byte	.LVL15
 2363 0d6c 280F0000 		.4byte	0xf28
 2364 0d70 1B       		.uleb128 0x1b
 2365 0d71 20000000 		.4byte	.LVL16
 2366 0d75 4F0E0000 		.4byte	0xe4f
 2367 0d79 1C       		.uleb128 0x1c
 2368 0d7a 01       		.uleb128 0x1
 2369 0d7b 50       		.byte	0x50
 2370 0d7c 02       		.uleb128 0x2
 2371 0d7d 08       		.byte	0x8
ARM GAS  /var/folders/bz/nn5481rn5xq59rb0mbj7x0880000gn/T//ccHcHkHf.s 			page 43


 2372 0d7e 64       		.byte	0x64
 2373 0d7f 00       		.byte	0
 2374 0d80 00       		.byte	0
 2375 0d81 29       		.uleb128 0x29
 2376 0d82 A2000000 		.4byte	0xa2
 2377 0d86 910D0000 		.4byte	0xd91
 2378 0d8a 2A       		.uleb128 0x2a
 2379 0d8b 27040000 		.4byte	0x427
 2380 0d8f 09       		.byte	0x9
 2381 0d90 00       		.byte	0
 2382 0d91 29       		.uleb128 0x29
 2383 0d92 AA020000 		.4byte	0x2aa
 2384 0d96 A10D0000 		.4byte	0xda1
 2385 0d9a 2A       		.uleb128 0x2a
 2386 0d9b 27040000 		.4byte	0x427
 2387 0d9f B2       		.byte	0xb2
 2388 0da0 00       		.byte	0
 2389 0da1 22       		.uleb128 0x22
 2390 0da2 F5000000 		.4byte	.LASF169
 2391 0da6 01       		.byte	0x1
 2392 0da7 2F       		.byte	0x2f
 2393 0da8 910D0000 		.4byte	0xd91
 2394 0dac 05       		.uleb128 0x5
 2395 0dad 03       		.byte	0x3
 2396 0dae 00000000 		.4byte	chuk_thread_wa
 2397 0db2 22       		.uleb128 0x22
 2398 0db3 C1000000 		.4byte	.LASF170
 2399 0db7 01       		.byte	0x1
 2400 0db8 31       		.byte	0x31
 2401 0db9 910D0000 		.4byte	0xd91
 2402 0dbd 05       		.uleb128 0x5
 2403 0dbe 03       		.byte	0x3
 2404 0dbf 00000000 		.4byte	output_thread_wa
 2405 0dc3 22       		.uleb128 0x22
 2406 0dc4 60080000 		.4byte	.LASF171
 2407 0dc8 01       		.byte	0x1
 2408 0dc9 34       		.byte	0x34
 2409 0dca D40D0000 		.4byte	0xdd4
 2410 0dce 05       		.uleb128 0x5
 2411 0dcf 03       		.byte	0x3
 2412 0dd0 00000000 		.4byte	is_running
 2413 0dd4 0D       		.uleb128 0xd
 2414 0dd5 E4000000 		.4byte	0xe4
 2415 0dd9 22       		.uleb128 0x22
 2416 0dda FB010000 		.4byte	.LASF172
 2417 0dde 01       		.byte	0x1
 2418 0ddf 35       		.byte	0x35
 2419 0de0 EA0D0000 		.4byte	0xdea
 2420 0de4 05       		.uleb128 0x5
 2421 0de5 03       		.byte	0x3
 2422 0de6 00000000 		.4byte	chuck_d
 2423 0dea 0D       		.uleb128 0xd
 2424 0deb 60060000 		.4byte	0x660
 2425 0def 22       		.uleb128 0x22
 2426 0df0 FA030000 		.4byte	.LASF173
 2427 0df4 01       		.byte	0x1
 2428 0df5 36       		.byte	0x36
ARM GAS  /var/folders/bz/nn5481rn5xq59rb0mbj7x0880000gn/T//ccHcHkHf.s 			page 44


 2429 0df6 000E0000 		.4byte	0xe00
 2430 0dfa 05       		.uleb128 0x5
 2431 0dfb 03       		.byte	0x3
 2432 0dfc 00000000 		.4byte	chuck_error
 2433 0e00 0D       		.uleb128 0xd
 2434 0e01 94000000 		.4byte	0x94
 2435 0e05 22       		.uleb128 0x22
 2436 0e06 B3020000 		.4byte	.LASF143
 2437 0e0a 01       		.byte	0x1
 2438 0e0b 37       		.byte	0x37
 2439 0e0c 160E0000 		.4byte	0xe16
 2440 0e10 05       		.uleb128 0x5
 2441 0e11 03       		.byte	0x3
 2442 0e12 00000000 		.4byte	config
 2443 0e16 0D       		.uleb128 0xd
 2444 0e17 F0050000 		.4byte	0x5f0
 2445 0e1b 22       		.uleb128 0x22
 2446 0e1c 33000000 		.4byte	.LASF174
 2447 0e20 01       		.byte	0x1
 2448 0e21 38       		.byte	0x38
 2449 0e22 D40D0000 		.4byte	0xdd4
 2450 0e26 05       		.uleb128 0x5
 2451 0e27 03       		.byte	0x3
 2452 0e28 00000000 		.4byte	output_running
 2453 0e2c 2B       		.uleb128 0x2b
 2454 0e2d 6B080000 		.4byte	.LASF175
 2455 0e31 09       		.byte	0x9
 2456 0e32 6F       		.byte	0x6f
 2457 0e33 84040000 		.4byte	0x484
 2458 0e37 2C       		.uleb128 0x2c
 2459 0e38 04010000 		.4byte	.LASF176
 2460 0e3c 10       		.byte	0x10
 2461 0e3d 9806     		.2byte	0x698
 2462 0e3f 71060000 		.4byte	0x671
 2463 0e43 2C       		.uleb128 0x2c
 2464 0e44 31060000 		.4byte	.LASF177
 2465 0e48 0F       		.byte	0xf
 2466 0e49 B201     		.2byte	0x1b2
 2467 0e4b 2B090000 		.4byte	0x92b
 2468 0e4f 2D       		.uleb128 0x2d
 2469 0e50 3D080000 		.4byte	.LASF180
 2470 0e54 07       		.byte	0x7
 2471 0e55 7501     		.2byte	0x175
 2472 0e57 610E0000 		.4byte	0xe61
 2473 0e5b 12       		.uleb128 0x12
 2474 0e5c 38010000 		.4byte	0x138
 2475 0e60 00       		.byte	0
 2476 0e61 2E       		.uleb128 0x2e
 2477 0e62 BE030000 		.4byte	.LASF182
 2478 0e66 07       		.byte	0x7
 2479 0e67 7001     		.2byte	0x170
 2480 0e69 6C020000 		.4byte	0x26c
 2481 0e6d 8B0E0000 		.4byte	0xe8b
 2482 0e71 12       		.uleb128 0x12
 2483 0e72 A8020000 		.4byte	0x2a8
 2484 0e76 12       		.uleb128 0x12
 2485 0e77 D9000000 		.4byte	0xd9
ARM GAS  /var/folders/bz/nn5481rn5xq59rb0mbj7x0880000gn/T//ccHcHkHf.s 			page 45


 2486 0e7b 12       		.uleb128 0x12
 2487 0e7c 17010000 		.4byte	0x117
 2488 0e80 12       		.uleb128 0x12
 2489 0e81 1E050000 		.4byte	0x51e
 2490 0e85 12       		.uleb128 0x12
 2491 0e86 A8020000 		.4byte	0x2a8
 2492 0e8a 00       		.byte	0
 2493 0e8b 2F       		.uleb128 0x2f
 2494 0e8c 9B080000 		.4byte	.LASF178
 2495 0e90 11       		.byte	0x11
 2496 0e91 21       		.byte	0x21
 2497 0e92 30       		.uleb128 0x30
 2498 0e93 6F060000 		.4byte	.LASF191
 2499 0e97 11       		.byte	0x11
 2500 0e98 22       		.byte	0x22
 2501 0e99 E4000000 		.4byte	0xe4
 2502 0e9d 2F       		.uleb128 0x2f
 2503 0e9e 3E020000 		.4byte	.LASF179
 2504 0ea2 12       		.byte	0x12
 2505 0ea3 36       		.byte	0x36
 2506 0ea4 31       		.uleb128 0x31
 2507 0ea5 0F050000 		.4byte	.LASF181
 2508 0ea9 0E       		.byte	0xe
 2509 0eaa 8E       		.byte	0x8e
 2510 0eab B50E0000 		.4byte	0xeb5
 2511 0eaf 12       		.uleb128 0x12
 2512 0eb0 B50E0000 		.4byte	0xeb5
 2513 0eb4 00       		.byte	0
 2514 0eb5 09       		.uleb128 0x9
 2515 0eb6 04       		.byte	0x4
 2516 0eb7 2B090000 		.4byte	0x92b
 2517 0ebb 32       		.uleb128 0x32
 2518 0ebc 31010000 		.4byte	.LASF183
 2519 0ec0 0E       		.byte	0xe
 2520 0ec1 84       		.byte	0x84
 2521 0ec2 22010000 		.4byte	0x122
 2522 0ec6 EE0E0000 		.4byte	0xeee
 2523 0eca 12       		.uleb128 0x12
 2524 0ecb B50E0000 		.4byte	0xeb5
 2525 0ecf 12       		.uleb128 0x12
 2526 0ed0 86080000 		.4byte	0x886
 2527 0ed4 12       		.uleb128 0x12
 2528 0ed5 44050000 		.4byte	0x544
 2529 0ed9 12       		.uleb128 0x12
 2530 0eda D9000000 		.4byte	0xd9
 2531 0ede 12       		.uleb128 0x12
 2532 0edf 3E050000 		.4byte	0x53e
 2533 0ee3 12       		.uleb128 0x12
 2534 0ee4 D9000000 		.4byte	0xd9
 2535 0ee8 12       		.uleb128 0x12
 2536 0ee9 38010000 		.4byte	0x138
 2537 0eed 00       		.byte	0
 2538 0eee 31       		.uleb128 0x31
 2539 0eef E7000000 		.4byte	.LASF184
 2540 0ef3 0E       		.byte	0xe
 2541 0ef4 8F       		.byte	0x8f
 2542 0ef5 FF0E0000 		.4byte	0xeff
ARM GAS  /var/folders/bz/nn5481rn5xq59rb0mbj7x0880000gn/T//ccHcHkHf.s 			page 46


 2543 0ef9 12       		.uleb128 0x12
 2544 0efa B50E0000 		.4byte	0xeb5
 2545 0efe 00       		.byte	0
 2546 0eff 32       		.uleb128 0x32
 2547 0f00 83080000 		.4byte	.LASF185
 2548 0f04 0E       		.byte	0xe
 2549 0f05 89       		.byte	0x89
 2550 0f06 22010000 		.4byte	0x122
 2551 0f0a 280F0000 		.4byte	0xf28
 2552 0f0e 12       		.uleb128 0x12
 2553 0f0f B50E0000 		.4byte	0xeb5
 2554 0f13 12       		.uleb128 0x12
 2555 0f14 86080000 		.4byte	0x886
 2556 0f18 12       		.uleb128 0x12
 2557 0f19 3E050000 		.4byte	0x53e
 2558 0f1d 12       		.uleb128 0x12
 2559 0f1e D9000000 		.4byte	0xd9
 2560 0f22 12       		.uleb128 0x12
 2561 0f23 38010000 		.4byte	0x138
 2562 0f27 00       		.byte	0
 2563 0f28 2F       		.uleb128 0x2f
 2564 0f29 90020000 		.4byte	.LASF186
 2565 0f2d 12       		.byte	0x12
 2566 0f2e 34       		.byte	0x34
 2567 0f2f 00       		.byte	0
 2568              		.section	.debug_abbrev,"",%progbits
 2569              	.Ldebug_abbrev0:
 2570 0000 01       		.uleb128 0x1
 2571 0001 11       		.uleb128 0x11
 2572 0002 01       		.byte	0x1
 2573 0003 25       		.uleb128 0x25
 2574 0004 0E       		.uleb128 0xe
 2575 0005 13       		.uleb128 0x13
 2576 0006 0B       		.uleb128 0xb
 2577 0007 03       		.uleb128 0x3
 2578 0008 0E       		.uleb128 0xe
 2579 0009 1B       		.uleb128 0x1b
 2580 000a 0E       		.uleb128 0xe
 2581 000b 55       		.uleb128 0x55
 2582 000c 17       		.uleb128 0x17
 2583 000d 11       		.uleb128 0x11
 2584 000e 01       		.uleb128 0x1
 2585 000f 10       		.uleb128 0x10
 2586 0010 17       		.uleb128 0x17
 2587 0011 00       		.byte	0
 2588 0012 00       		.byte	0
 2589 0013 02       		.uleb128 0x2
 2590 0014 24       		.uleb128 0x24
 2591 0015 00       		.byte	0
 2592 0016 0B       		.uleb128 0xb
 2593 0017 0B       		.uleb128 0xb
 2594 0018 3E       		.uleb128 0x3e
 2595 0019 0B       		.uleb128 0xb
 2596 001a 03       		.uleb128 0x3
 2597 001b 0E       		.uleb128 0xe
 2598 001c 00       		.byte	0
 2599 001d 00       		.byte	0
ARM GAS  /var/folders/bz/nn5481rn5xq59rb0mbj7x0880000gn/T//ccHcHkHf.s 			page 47


 2600 001e 03       		.uleb128 0x3
 2601 001f 16       		.uleb128 0x16
 2602 0020 00       		.byte	0
 2603 0021 03       		.uleb128 0x3
 2604 0022 0E       		.uleb128 0xe
 2605 0023 3A       		.uleb128 0x3a
 2606 0024 0B       		.uleb128 0xb
 2607 0025 3B       		.uleb128 0x3b
 2608 0026 0B       		.uleb128 0xb
 2609 0027 49       		.uleb128 0x49
 2610 0028 13       		.uleb128 0x13
 2611 0029 00       		.byte	0
 2612 002a 00       		.byte	0
 2613 002b 04       		.uleb128 0x4
 2614 002c 24       		.uleb128 0x24
 2615 002d 00       		.byte	0
 2616 002e 0B       		.uleb128 0xb
 2617 002f 0B       		.uleb128 0xb
 2618 0030 3E       		.uleb128 0x3e
 2619 0031 0B       		.uleb128 0xb
 2620 0032 03       		.uleb128 0x3
 2621 0033 08       		.uleb128 0x8
 2622 0034 00       		.byte	0
 2623 0035 00       		.byte	0
 2624 0036 05       		.uleb128 0x5
 2625 0037 13       		.uleb128 0x13
 2626 0038 01       		.byte	0x1
 2627 0039 03       		.uleb128 0x3
 2628 003a 0E       		.uleb128 0xe
 2629 003b 0B       		.uleb128 0xb
 2630 003c 0B       		.uleb128 0xb
 2631 003d 3A       		.uleb128 0x3a
 2632 003e 0B       		.uleb128 0xb
 2633 003f 3B       		.uleb128 0x3b
 2634 0040 0B       		.uleb128 0xb
 2635 0041 01       		.uleb128 0x1
 2636 0042 13       		.uleb128 0x13
 2637 0043 00       		.byte	0
 2638 0044 00       		.byte	0
 2639 0045 06       		.uleb128 0x6
 2640 0046 0D       		.uleb128 0xd
 2641 0047 00       		.byte	0
 2642 0048 03       		.uleb128 0x3
 2643 0049 0E       		.uleb128 0xe
 2644 004a 3A       		.uleb128 0x3a
 2645 004b 0B       		.uleb128 0xb
 2646 004c 3B       		.uleb128 0x3b
 2647 004d 0B       		.uleb128 0xb
 2648 004e 49       		.uleb128 0x49
 2649 004f 13       		.uleb128 0x13
 2650 0050 38       		.uleb128 0x38
 2651 0051 0B       		.uleb128 0xb
 2652 0052 00       		.byte	0
 2653 0053 00       		.byte	0
 2654 0054 07       		.uleb128 0x7
 2655 0055 0D       		.uleb128 0xd
 2656 0056 00       		.byte	0
ARM GAS  /var/folders/bz/nn5481rn5xq59rb0mbj7x0880000gn/T//ccHcHkHf.s 			page 48


 2657 0057 03       		.uleb128 0x3
 2658 0058 08       		.uleb128 0x8
 2659 0059 3A       		.uleb128 0x3a
 2660 005a 0B       		.uleb128 0xb
 2661 005b 3B       		.uleb128 0x3b
 2662 005c 0B       		.uleb128 0xb
 2663 005d 49       		.uleb128 0x49
 2664 005e 13       		.uleb128 0x13
 2665 005f 38       		.uleb128 0x38
 2666 0060 0B       		.uleb128 0xb
 2667 0061 00       		.byte	0
 2668 0062 00       		.byte	0
 2669 0063 08       		.uleb128 0x8
 2670 0064 13       		.uleb128 0x13
 2671 0065 01       		.byte	0x1
 2672 0066 0B       		.uleb128 0xb
 2673 0067 0B       		.uleb128 0xb
 2674 0068 3A       		.uleb128 0x3a
 2675 0069 0B       		.uleb128 0xb
 2676 006a 3B       		.uleb128 0x3b
 2677 006b 0B       		.uleb128 0xb
 2678 006c 01       		.uleb128 0x1
 2679 006d 13       		.uleb128 0x13
 2680 006e 00       		.byte	0
 2681 006f 00       		.byte	0
 2682 0070 09       		.uleb128 0x9
 2683 0071 0F       		.uleb128 0xf
 2684 0072 00       		.byte	0
 2685 0073 0B       		.uleb128 0xb
 2686 0074 0B       		.uleb128 0xb
 2687 0075 49       		.uleb128 0x49
 2688 0076 13       		.uleb128 0x13
 2689 0077 00       		.byte	0
 2690 0078 00       		.byte	0
 2691 0079 0A       		.uleb128 0xa
 2692 007a 0F       		.uleb128 0xf
 2693 007b 00       		.byte	0
 2694 007c 0B       		.uleb128 0xb
 2695 007d 0B       		.uleb128 0xb
 2696 007e 00       		.byte	0
 2697 007f 00       		.byte	0
 2698 0080 0B       		.uleb128 0xb
 2699 0081 13       		.uleb128 0x13
 2700 0082 01       		.byte	0x1
 2701 0083 03       		.uleb128 0x3
 2702 0084 0E       		.uleb128 0xe
 2703 0085 0B       		.uleb128 0xb
 2704 0086 0B       		.uleb128 0xb
 2705 0087 3A       		.uleb128 0x3a
 2706 0088 0B       		.uleb128 0xb
 2707 0089 3B       		.uleb128 0x3b
 2708 008a 05       		.uleb128 0x5
 2709 008b 01       		.uleb128 0x1
 2710 008c 13       		.uleb128 0x13
 2711 008d 00       		.byte	0
 2712 008e 00       		.byte	0
 2713 008f 0C       		.uleb128 0xc
ARM GAS  /var/folders/bz/nn5481rn5xq59rb0mbj7x0880000gn/T//ccHcHkHf.s 			page 49


 2714 0090 0D       		.uleb128 0xd
 2715 0091 00       		.byte	0
 2716 0092 03       		.uleb128 0x3
 2717 0093 08       		.uleb128 0x8
 2718 0094 3A       		.uleb128 0x3a
 2719 0095 0B       		.uleb128 0xb
 2720 0096 3B       		.uleb128 0x3b
 2721 0097 05       		.uleb128 0x5
 2722 0098 49       		.uleb128 0x49
 2723 0099 13       		.uleb128 0x13
 2724 009a 38       		.uleb128 0x38
 2725 009b 0B       		.uleb128 0xb
 2726 009c 00       		.byte	0
 2727 009d 00       		.byte	0
 2728 009e 0D       		.uleb128 0xd
 2729 009f 35       		.uleb128 0x35
 2730 00a0 00       		.byte	0
 2731 00a1 49       		.uleb128 0x49
 2732 00a2 13       		.uleb128 0x13
 2733 00a3 00       		.byte	0
 2734 00a4 00       		.byte	0
 2735 00a5 0E       		.uleb128 0xe
 2736 00a6 17       		.uleb128 0x17
 2737 00a7 01       		.byte	0x1
 2738 00a8 0B       		.uleb128 0xb
 2739 00a9 0B       		.uleb128 0xb
 2740 00aa 3A       		.uleb128 0x3a
 2741 00ab 0B       		.uleb128 0xb
 2742 00ac 3B       		.uleb128 0x3b
 2743 00ad 0B       		.uleb128 0xb
 2744 00ae 01       		.uleb128 0x1
 2745 00af 13       		.uleb128 0x13
 2746 00b0 00       		.byte	0
 2747 00b1 00       		.byte	0
 2748 00b2 0F       		.uleb128 0xf
 2749 00b3 0D       		.uleb128 0xd
 2750 00b4 00       		.byte	0
 2751 00b5 03       		.uleb128 0x3
 2752 00b6 0E       		.uleb128 0xe
 2753 00b7 3A       		.uleb128 0x3a
 2754 00b8 0B       		.uleb128 0xb
 2755 00b9 3B       		.uleb128 0x3b
 2756 00ba 0B       		.uleb128 0xb
 2757 00bb 49       		.uleb128 0x49
 2758 00bc 13       		.uleb128 0x13
 2759 00bd 00       		.byte	0
 2760 00be 00       		.byte	0
 2761 00bf 10       		.uleb128 0x10
 2762 00c0 26       		.uleb128 0x26
 2763 00c1 00       		.byte	0
 2764 00c2 49       		.uleb128 0x49
 2765 00c3 13       		.uleb128 0x13
 2766 00c4 00       		.byte	0
 2767 00c5 00       		.byte	0
 2768 00c6 11       		.uleb128 0x11
 2769 00c7 15       		.uleb128 0x15
 2770 00c8 01       		.byte	0x1
ARM GAS  /var/folders/bz/nn5481rn5xq59rb0mbj7x0880000gn/T//ccHcHkHf.s 			page 50


 2771 00c9 27       		.uleb128 0x27
 2772 00ca 19       		.uleb128 0x19
 2773 00cb 49       		.uleb128 0x49
 2774 00cc 13       		.uleb128 0x13
 2775 00cd 01       		.uleb128 0x1
 2776 00ce 13       		.uleb128 0x13
 2777 00cf 00       		.byte	0
 2778 00d0 00       		.byte	0
 2779 00d1 12       		.uleb128 0x12
 2780 00d2 05       		.uleb128 0x5
 2781 00d3 00       		.byte	0
 2782 00d4 49       		.uleb128 0x49
 2783 00d5 13       		.uleb128 0x13
 2784 00d6 00       		.byte	0
 2785 00d7 00       		.byte	0
 2786 00d8 13       		.uleb128 0x13
 2787 00d9 04       		.uleb128 0x4
 2788 00da 01       		.byte	0x1
 2789 00db 0B       		.uleb128 0xb
 2790 00dc 0B       		.uleb128 0xb
 2791 00dd 3A       		.uleb128 0x3a
 2792 00de 0B       		.uleb128 0xb
 2793 00df 3B       		.uleb128 0x3b
 2794 00e0 0B       		.uleb128 0xb
 2795 00e1 01       		.uleb128 0x1
 2796 00e2 13       		.uleb128 0x13
 2797 00e3 00       		.byte	0
 2798 00e4 00       		.byte	0
 2799 00e5 14       		.uleb128 0x14
 2800 00e6 28       		.uleb128 0x28
 2801 00e7 00       		.byte	0
 2802 00e8 03       		.uleb128 0x3
 2803 00e9 0E       		.uleb128 0xe
 2804 00ea 1C       		.uleb128 0x1c
 2805 00eb 0D       		.uleb128 0xd
 2806 00ec 00       		.byte	0
 2807 00ed 00       		.byte	0
 2808 00ee 15       		.uleb128 0x15
 2809 00ef 13       		.uleb128 0x13
 2810 00f0 01       		.byte	0x1
 2811 00f1 0B       		.uleb128 0xb
 2812 00f2 0B       		.uleb128 0xb
 2813 00f3 3A       		.uleb128 0x3a
 2814 00f4 0B       		.uleb128 0xb
 2815 00f5 3B       		.uleb128 0x3b
 2816 00f6 05       		.uleb128 0x5
 2817 00f7 01       		.uleb128 0x1
 2818 00f8 13       		.uleb128 0x13
 2819 00f9 00       		.byte	0
 2820 00fa 00       		.byte	0
 2821 00fb 16       		.uleb128 0x16
 2822 00fc 0D       		.uleb128 0xd
 2823 00fd 00       		.byte	0
 2824 00fe 03       		.uleb128 0x3
 2825 00ff 0E       		.uleb128 0xe
 2826 0100 3A       		.uleb128 0x3a
 2827 0101 0B       		.uleb128 0xb
ARM GAS  /var/folders/bz/nn5481rn5xq59rb0mbj7x0880000gn/T//ccHcHkHf.s 			page 51


 2828 0102 3B       		.uleb128 0x3b
 2829 0103 05       		.uleb128 0x5
 2830 0104 49       		.uleb128 0x49
 2831 0105 13       		.uleb128 0x13
 2832 0106 38       		.uleb128 0x38
 2833 0107 0B       		.uleb128 0xb
 2834 0108 00       		.byte	0
 2835 0109 00       		.byte	0
 2836 010a 17       		.uleb128 0x17
 2837 010b 16       		.uleb128 0x16
 2838 010c 00       		.byte	0
 2839 010d 03       		.uleb128 0x3
 2840 010e 0E       		.uleb128 0xe
 2841 010f 3A       		.uleb128 0x3a
 2842 0110 0B       		.uleb128 0xb
 2843 0111 3B       		.uleb128 0x3b
 2844 0112 05       		.uleb128 0x5
 2845 0113 49       		.uleb128 0x49
 2846 0114 13       		.uleb128 0x13
 2847 0115 00       		.byte	0
 2848 0116 00       		.byte	0
 2849 0117 18       		.uleb128 0x18
 2850 0118 04       		.uleb128 0x4
 2851 0119 01       		.byte	0x1
 2852 011a 0B       		.uleb128 0xb
 2853 011b 0B       		.uleb128 0xb
 2854 011c 3A       		.uleb128 0x3a
 2855 011d 0B       		.uleb128 0xb
 2856 011e 3B       		.uleb128 0x3b
 2857 011f 05       		.uleb128 0x5
 2858 0120 01       		.uleb128 0x1
 2859 0121 13       		.uleb128 0x13
 2860 0122 00       		.byte	0
 2861 0123 00       		.byte	0
 2862 0124 19       		.uleb128 0x19
 2863 0125 2E       		.uleb128 0x2e
 2864 0126 01       		.byte	0x1
 2865 0127 03       		.uleb128 0x3
 2866 0128 0E       		.uleb128 0xe
 2867 0129 3A       		.uleb128 0x3a
 2868 012a 0B       		.uleb128 0xb
 2869 012b 3B       		.uleb128 0x3b
 2870 012c 0B       		.uleb128 0xb
 2871 012d 27       		.uleb128 0x27
 2872 012e 19       		.uleb128 0x19
 2873 012f 49       		.uleb128 0x49
 2874 0130 13       		.uleb128 0x13
 2875 0131 11       		.uleb128 0x11
 2876 0132 01       		.uleb128 0x1
 2877 0133 12       		.uleb128 0x12
 2878 0134 06       		.uleb128 0x6
 2879 0135 40       		.uleb128 0x40
 2880 0136 18       		.uleb128 0x18
 2881 0137 9742     		.uleb128 0x2117
 2882 0139 19       		.uleb128 0x19
 2883 013a 01       		.uleb128 0x1
 2884 013b 13       		.uleb128 0x13
ARM GAS  /var/folders/bz/nn5481rn5xq59rb0mbj7x0880000gn/T//ccHcHkHf.s 			page 52


 2885 013c 00       		.byte	0
 2886 013d 00       		.byte	0
 2887 013e 1A       		.uleb128 0x1a
 2888 013f 05       		.uleb128 0x5
 2889 0140 00       		.byte	0
 2890 0141 03       		.uleb128 0x3
 2891 0142 08       		.uleb128 0x8
 2892 0143 3A       		.uleb128 0x3a
 2893 0144 0B       		.uleb128 0xb
 2894 0145 3B       		.uleb128 0x3b
 2895 0146 0B       		.uleb128 0xb
 2896 0147 49       		.uleb128 0x49
 2897 0148 13       		.uleb128 0x13
 2898 0149 02       		.uleb128 0x2
 2899 014a 17       		.uleb128 0x17
 2900 014b 00       		.byte	0
 2901 014c 00       		.byte	0
 2902 014d 1B       		.uleb128 0x1b
 2903 014e 898201   		.uleb128 0x4109
 2904 0151 01       		.byte	0x1
 2905 0152 11       		.uleb128 0x11
 2906 0153 01       		.uleb128 0x1
 2907 0154 31       		.uleb128 0x31
 2908 0155 13       		.uleb128 0x13
 2909 0156 00       		.byte	0
 2910 0157 00       		.byte	0
 2911 0158 1C       		.uleb128 0x1c
 2912 0159 8A8201   		.uleb128 0x410a
 2913 015c 00       		.byte	0
 2914 015d 02       		.uleb128 0x2
 2915 015e 18       		.uleb128 0x18
 2916 015f 9142     		.uleb128 0x2111
 2917 0161 18       		.uleb128 0x18
 2918 0162 00       		.byte	0
 2919 0163 00       		.byte	0
 2920 0164 1D       		.uleb128 0x1d
 2921 0165 2E       		.uleb128 0x2e
 2922 0166 01       		.byte	0x1
 2923 0167 3F       		.uleb128 0x3f
 2924 0168 19       		.uleb128 0x19
 2925 0169 03       		.uleb128 0x3
 2926 016a 0E       		.uleb128 0xe
 2927 016b 3A       		.uleb128 0x3a
 2928 016c 0B       		.uleb128 0xb
 2929 016d 3B       		.uleb128 0x3b
 2930 016e 0B       		.uleb128 0xb
 2931 016f 27       		.uleb128 0x27
 2932 0170 19       		.uleb128 0x19
 2933 0171 11       		.uleb128 0x11
 2934 0172 01       		.uleb128 0x1
 2935 0173 12       		.uleb128 0x12
 2936 0174 06       		.uleb128 0x6
 2937 0175 40       		.uleb128 0x40
 2938 0176 18       		.uleb128 0x18
 2939 0177 9742     		.uleb128 0x2117
 2940 0179 19       		.uleb128 0x19
 2941 017a 01       		.uleb128 0x1
ARM GAS  /var/folders/bz/nn5481rn5xq59rb0mbj7x0880000gn/T//ccHcHkHf.s 			page 53


 2942 017b 13       		.uleb128 0x13
 2943 017c 00       		.byte	0
 2944 017d 00       		.byte	0
 2945 017e 1E       		.uleb128 0x1e
 2946 017f 05       		.uleb128 0x5
 2947 0180 00       		.byte	0
 2948 0181 03       		.uleb128 0x3
 2949 0182 0E       		.uleb128 0xe
 2950 0183 3A       		.uleb128 0x3a
 2951 0184 0B       		.uleb128 0xb
 2952 0185 3B       		.uleb128 0x3b
 2953 0186 0B       		.uleb128 0xb
 2954 0187 49       		.uleb128 0x49
 2955 0188 13       		.uleb128 0x13
 2956 0189 02       		.uleb128 0x2
 2957 018a 17       		.uleb128 0x17
 2958 018b 00       		.byte	0
 2959 018c 00       		.byte	0
 2960 018d 1F       		.uleb128 0x1f
 2961 018e 2E       		.uleb128 0x2e
 2962 018f 00       		.byte	0
 2963 0190 3F       		.uleb128 0x3f
 2964 0191 19       		.uleb128 0x19
 2965 0192 03       		.uleb128 0x3
 2966 0193 0E       		.uleb128 0xe
 2967 0194 3A       		.uleb128 0x3a
 2968 0195 0B       		.uleb128 0xb
 2969 0196 3B       		.uleb128 0x3b
 2970 0197 0B       		.uleb128 0xb
 2971 0198 27       		.uleb128 0x27
 2972 0199 19       		.uleb128 0x19
 2973 019a 49       		.uleb128 0x49
 2974 019b 13       		.uleb128 0x13
 2975 019c 11       		.uleb128 0x11
 2976 019d 01       		.uleb128 0x1
 2977 019e 12       		.uleb128 0x12
 2978 019f 06       		.uleb128 0x6
 2979 01a0 40       		.uleb128 0x40
 2980 01a1 18       		.uleb128 0x18
 2981 01a2 9742     		.uleb128 0x2117
 2982 01a4 19       		.uleb128 0x19
 2983 01a5 00       		.byte	0
 2984 01a6 00       		.byte	0
 2985 01a7 20       		.uleb128 0x20
 2986 01a8 898201   		.uleb128 0x4109
 2987 01ab 01       		.byte	0x1
 2988 01ac 11       		.uleb128 0x11
 2989 01ad 01       		.uleb128 0x1
 2990 01ae 31       		.uleb128 0x31
 2991 01af 13       		.uleb128 0x13
 2992 01b0 01       		.uleb128 0x1
 2993 01b1 13       		.uleb128 0x13
 2994 01b2 00       		.byte	0
 2995 01b3 00       		.byte	0
 2996 01b4 21       		.uleb128 0x21
 2997 01b5 898201   		.uleb128 0x4109
 2998 01b8 00       		.byte	0
ARM GAS  /var/folders/bz/nn5481rn5xq59rb0mbj7x0880000gn/T//ccHcHkHf.s 			page 54


 2999 01b9 11       		.uleb128 0x11
 3000 01ba 01       		.uleb128 0x1
 3001 01bb 9542     		.uleb128 0x2115
 3002 01bd 19       		.uleb128 0x19
 3003 01be 31       		.uleb128 0x31
 3004 01bf 13       		.uleb128 0x13
 3005 01c0 00       		.byte	0
 3006 01c1 00       		.byte	0
 3007 01c2 22       		.uleb128 0x22
 3008 01c3 34       		.uleb128 0x34
 3009 01c4 00       		.byte	0
 3010 01c5 03       		.uleb128 0x3
 3011 01c6 0E       		.uleb128 0xe
 3012 01c7 3A       		.uleb128 0x3a
 3013 01c8 0B       		.uleb128 0xb
 3014 01c9 3B       		.uleb128 0x3b
 3015 01ca 0B       		.uleb128 0xb
 3016 01cb 49       		.uleb128 0x49
 3017 01cc 13       		.uleb128 0x13
 3018 01cd 02       		.uleb128 0x2
 3019 01ce 18       		.uleb128 0x18
 3020 01cf 00       		.byte	0
 3021 01d0 00       		.byte	0
 3022 01d1 23       		.uleb128 0x23
 3023 01d2 34       		.uleb128 0x34
 3024 01d3 00       		.byte	0
 3025 01d4 03       		.uleb128 0x3
 3026 01d5 0E       		.uleb128 0xe
 3027 01d6 3A       		.uleb128 0x3a
 3028 01d7 0B       		.uleb128 0xb
 3029 01d8 3B       		.uleb128 0x3b
 3030 01d9 0B       		.uleb128 0xb
 3031 01da 49       		.uleb128 0x49
 3032 01db 13       		.uleb128 0x13
 3033 01dc 02       		.uleb128 0x2
 3034 01dd 17       		.uleb128 0x17
 3035 01de 00       		.byte	0
 3036 01df 00       		.byte	0
 3037 01e0 24       		.uleb128 0x24
 3038 01e1 34       		.uleb128 0x34
 3039 01e2 00       		.byte	0
 3040 01e3 03       		.uleb128 0x3
 3041 01e4 08       		.uleb128 0x8
 3042 01e5 3A       		.uleb128 0x3a
 3043 01e6 0B       		.uleb128 0xb
 3044 01e7 3B       		.uleb128 0x3b
 3045 01e8 0B       		.uleb128 0xb
 3046 01e9 49       		.uleb128 0x49
 3047 01ea 13       		.uleb128 0x13
 3048 01eb 1C       		.uleb128 0x1c
 3049 01ec 0B       		.uleb128 0xb
 3050 01ed 00       		.byte	0
 3051 01ee 00       		.byte	0
 3052 01ef 25       		.uleb128 0x25
 3053 01f0 34       		.uleb128 0x34
 3054 01f1 00       		.byte	0
 3055 01f2 03       		.uleb128 0x3
ARM GAS  /var/folders/bz/nn5481rn5xq59rb0mbj7x0880000gn/T//ccHcHkHf.s 			page 55


 3056 01f3 0E       		.uleb128 0xe
 3057 01f4 3A       		.uleb128 0x3a
 3058 01f5 0B       		.uleb128 0xb
 3059 01f6 3B       		.uleb128 0x3b
 3060 01f7 0B       		.uleb128 0xb
 3061 01f8 49       		.uleb128 0x49
 3062 01f9 13       		.uleb128 0x13
 3063 01fa 1C       		.uleb128 0x1c
 3064 01fb 0B       		.uleb128 0xb
 3065 01fc 00       		.byte	0
 3066 01fd 00       		.byte	0
 3067 01fe 26       		.uleb128 0x26
 3068 01ff 0B       		.uleb128 0xb
 3069 0200 01       		.byte	0x1
 3070 0201 11       		.uleb128 0x11
 3071 0202 01       		.uleb128 0x1
 3072 0203 12       		.uleb128 0x12
 3073 0204 06       		.uleb128 0x6
 3074 0205 01       		.uleb128 0x1
 3075 0206 13       		.uleb128 0x13
 3076 0207 00       		.byte	0
 3077 0208 00       		.byte	0
 3078 0209 27       		.uleb128 0x27
 3079 020a 34       		.uleb128 0x34
 3080 020b 00       		.byte	0
 3081 020c 03       		.uleb128 0x3
 3082 020d 08       		.uleb128 0x8
 3083 020e 3A       		.uleb128 0x3a
 3084 020f 0B       		.uleb128 0xb
 3085 0210 3B       		.uleb128 0x3b
 3086 0211 0B       		.uleb128 0xb
 3087 0212 49       		.uleb128 0x49
 3088 0213 13       		.uleb128 0x13
 3089 0214 02       		.uleb128 0x2
 3090 0215 17       		.uleb128 0x17
 3091 0216 00       		.byte	0
 3092 0217 00       		.byte	0
 3093 0218 28       		.uleb128 0x28
 3094 0219 898201   		.uleb128 0x4109
 3095 021c 00       		.byte	0
 3096 021d 11       		.uleb128 0x11
 3097 021e 01       		.uleb128 0x1
 3098 021f 31       		.uleb128 0x31
 3099 0220 13       		.uleb128 0x13
 3100 0221 00       		.byte	0
 3101 0222 00       		.byte	0
 3102 0223 29       		.uleb128 0x29
 3103 0224 01       		.uleb128 0x1
 3104 0225 01       		.byte	0x1
 3105 0226 49       		.uleb128 0x49
 3106 0227 13       		.uleb128 0x13
 3107 0228 01       		.uleb128 0x1
 3108 0229 13       		.uleb128 0x13
 3109 022a 00       		.byte	0
 3110 022b 00       		.byte	0
 3111 022c 2A       		.uleb128 0x2a
 3112 022d 21       		.uleb128 0x21
ARM GAS  /var/folders/bz/nn5481rn5xq59rb0mbj7x0880000gn/T//ccHcHkHf.s 			page 56


 3113 022e 00       		.byte	0
 3114 022f 49       		.uleb128 0x49
 3115 0230 13       		.uleb128 0x13
 3116 0231 2F       		.uleb128 0x2f
 3117 0232 0B       		.uleb128 0xb
 3118 0233 00       		.byte	0
 3119 0234 00       		.byte	0
 3120 0235 2B       		.uleb128 0x2b
 3121 0236 34       		.uleb128 0x34
 3122 0237 00       		.byte	0
 3123 0238 03       		.uleb128 0x3
 3124 0239 0E       		.uleb128 0xe
 3125 023a 3A       		.uleb128 0x3a
 3126 023b 0B       		.uleb128 0xb
 3127 023c 3B       		.uleb128 0x3b
 3128 023d 0B       		.uleb128 0xb
 3129 023e 49       		.uleb128 0x49
 3130 023f 13       		.uleb128 0x13
 3131 0240 3F       		.uleb128 0x3f
 3132 0241 19       		.uleb128 0x19
 3133 0242 3C       		.uleb128 0x3c
 3134 0243 19       		.uleb128 0x19
 3135 0244 00       		.byte	0
 3136 0245 00       		.byte	0
 3137 0246 2C       		.uleb128 0x2c
 3138 0247 34       		.uleb128 0x34
 3139 0248 00       		.byte	0
 3140 0249 03       		.uleb128 0x3
 3141 024a 0E       		.uleb128 0xe
 3142 024b 3A       		.uleb128 0x3a
 3143 024c 0B       		.uleb128 0xb
 3144 024d 3B       		.uleb128 0x3b
 3145 024e 05       		.uleb128 0x5
 3146 024f 49       		.uleb128 0x49
 3147 0250 13       		.uleb128 0x13
 3148 0251 3F       		.uleb128 0x3f
 3149 0252 19       		.uleb128 0x19
 3150 0253 3C       		.uleb128 0x3c
 3151 0254 19       		.uleb128 0x19
 3152 0255 00       		.byte	0
 3153 0256 00       		.byte	0
 3154 0257 2D       		.uleb128 0x2d
 3155 0258 2E       		.uleb128 0x2e
 3156 0259 01       		.byte	0x1
 3157 025a 3F       		.uleb128 0x3f
 3158 025b 19       		.uleb128 0x19
 3159 025c 03       		.uleb128 0x3
 3160 025d 0E       		.uleb128 0xe
 3161 025e 3A       		.uleb128 0x3a
 3162 025f 0B       		.uleb128 0xb
 3163 0260 3B       		.uleb128 0x3b
 3164 0261 05       		.uleb128 0x5
 3165 0262 27       		.uleb128 0x27
 3166 0263 19       		.uleb128 0x19
 3167 0264 3C       		.uleb128 0x3c
 3168 0265 19       		.uleb128 0x19
 3169 0266 01       		.uleb128 0x1
ARM GAS  /var/folders/bz/nn5481rn5xq59rb0mbj7x0880000gn/T//ccHcHkHf.s 			page 57


 3170 0267 13       		.uleb128 0x13
 3171 0268 00       		.byte	0
 3172 0269 00       		.byte	0
 3173 026a 2E       		.uleb128 0x2e
 3174 026b 2E       		.uleb128 0x2e
 3175 026c 01       		.byte	0x1
 3176 026d 3F       		.uleb128 0x3f
 3177 026e 19       		.uleb128 0x19
 3178 026f 03       		.uleb128 0x3
 3179 0270 0E       		.uleb128 0xe
 3180 0271 3A       		.uleb128 0x3a
 3181 0272 0B       		.uleb128 0xb
 3182 0273 3B       		.uleb128 0x3b
 3183 0274 05       		.uleb128 0x5
 3184 0275 27       		.uleb128 0x27
 3185 0276 19       		.uleb128 0x19
 3186 0277 49       		.uleb128 0x49
 3187 0278 13       		.uleb128 0x13
 3188 0279 3C       		.uleb128 0x3c
 3189 027a 19       		.uleb128 0x19
 3190 027b 01       		.uleb128 0x1
 3191 027c 13       		.uleb128 0x13
 3192 027d 00       		.byte	0
 3193 027e 00       		.byte	0
 3194 027f 2F       		.uleb128 0x2f
 3195 0280 2E       		.uleb128 0x2e
 3196 0281 00       		.byte	0
 3197 0282 3F       		.uleb128 0x3f
 3198 0283 19       		.uleb128 0x19
 3199 0284 03       		.uleb128 0x3
 3200 0285 0E       		.uleb128 0xe
 3201 0286 3A       		.uleb128 0x3a
 3202 0287 0B       		.uleb128 0xb
 3203 0288 3B       		.uleb128 0x3b
 3204 0289 0B       		.uleb128 0xb
 3205 028a 27       		.uleb128 0x27
 3206 028b 19       		.uleb128 0x19
 3207 028c 3C       		.uleb128 0x3c
 3208 028d 19       		.uleb128 0x19
 3209 028e 00       		.byte	0
 3210 028f 00       		.byte	0
 3211 0290 30       		.uleb128 0x30
 3212 0291 2E       		.uleb128 0x2e
 3213 0292 00       		.byte	0
 3214 0293 3F       		.uleb128 0x3f
 3215 0294 19       		.uleb128 0x19
 3216 0295 03       		.uleb128 0x3
 3217 0296 0E       		.uleb128 0xe
 3218 0297 3A       		.uleb128 0x3a
 3219 0298 0B       		.uleb128 0xb
 3220 0299 3B       		.uleb128 0x3b
 3221 029a 0B       		.uleb128 0xb
 3222 029b 27       		.uleb128 0x27
 3223 029c 19       		.uleb128 0x19
 3224 029d 49       		.uleb128 0x49
 3225 029e 13       		.uleb128 0x13
 3226 029f 3C       		.uleb128 0x3c
ARM GAS  /var/folders/bz/nn5481rn5xq59rb0mbj7x0880000gn/T//ccHcHkHf.s 			page 58


 3227 02a0 19       		.uleb128 0x19
 3228 02a1 00       		.byte	0
 3229 02a2 00       		.byte	0
 3230 02a3 31       		.uleb128 0x31
 3231 02a4 2E       		.uleb128 0x2e
 3232 02a5 01       		.byte	0x1
 3233 02a6 3F       		.uleb128 0x3f
 3234 02a7 19       		.uleb128 0x19
 3235 02a8 03       		.uleb128 0x3
 3236 02a9 0E       		.uleb128 0xe
 3237 02aa 3A       		.uleb128 0x3a
 3238 02ab 0B       		.uleb128 0xb
 3239 02ac 3B       		.uleb128 0x3b
 3240 02ad 0B       		.uleb128 0xb
 3241 02ae 27       		.uleb128 0x27
 3242 02af 19       		.uleb128 0x19
 3243 02b0 3C       		.uleb128 0x3c
 3244 02b1 19       		.uleb128 0x19
 3245 02b2 01       		.uleb128 0x1
 3246 02b3 13       		.uleb128 0x13
 3247 02b4 00       		.byte	0
 3248 02b5 00       		.byte	0
 3249 02b6 32       		.uleb128 0x32
 3250 02b7 2E       		.uleb128 0x2e
 3251 02b8 01       		.byte	0x1
 3252 02b9 3F       		.uleb128 0x3f
 3253 02ba 19       		.uleb128 0x19
 3254 02bb 03       		.uleb128 0x3
 3255 02bc 0E       		.uleb128 0xe
 3256 02bd 3A       		.uleb128 0x3a
 3257 02be 0B       		.uleb128 0xb
 3258 02bf 3B       		.uleb128 0x3b
 3259 02c0 0B       		.uleb128 0xb
 3260 02c1 27       		.uleb128 0x27
 3261 02c2 19       		.uleb128 0x19
 3262 02c3 49       		.uleb128 0x49
 3263 02c4 13       		.uleb128 0x13
 3264 02c5 3C       		.uleb128 0x3c
 3265 02c6 19       		.uleb128 0x19
 3266 02c7 01       		.uleb128 0x1
 3267 02c8 13       		.uleb128 0x13
 3268 02c9 00       		.byte	0
 3269 02ca 00       		.byte	0
 3270 02cb 00       		.byte	0
 3271              		.section	.debug_loc,"",%progbits
 3272              	.Ldebug_loc0:
 3273              	.LLST0:
 3274 0000 00000000 		.4byte	.LVL0
 3275 0004 0A000000 		.4byte	.LVL1
 3276 0008 0100     		.2byte	0x1
 3277 000a 50       		.byte	0x50
 3278 000b 0A000000 		.4byte	.LVL1
 3279 000f 1C000000 		.4byte	.LFE123
 3280 0013 0400     		.2byte	0x4
 3281 0015 F3       		.byte	0xf3
 3282 0016 01       		.uleb128 0x1
 3283 0017 50       		.byte	0x50
ARM GAS  /var/folders/bz/nn5481rn5xq59rb0mbj7x0880000gn/T//ccHcHkHf.s 			page 59


 3284 0018 9F       		.byte	0x9f
 3285 0019 00000000 		.4byte	0
 3286 001d 00000000 		.4byte	0
 3287              	.LLST1:
 3288 0021 00000000 		.4byte	.LVL3
 3289 0025 06000000 		.4byte	.LVL4
 3290 0029 0100     		.2byte	0x1
 3291 002b 50       		.byte	0x50
 3292 002c 06000000 		.4byte	.LVL4
 3293 0030 14000000 		.4byte	.LVL5
 3294 0034 0300     		.2byte	0x3
 3295 0036 75       		.byte	0x75
 3296 0037 70       		.sleb128 -16
 3297 0038 9F       		.byte	0x9f
 3298 0039 14000000 		.4byte	.LVL5
 3299 003d 1C000000 		.4byte	.LFE118
 3300 0041 0400     		.2byte	0x4
 3301 0043 F3       		.byte	0xf3
 3302 0044 01       		.uleb128 0x1
 3303 0045 50       		.byte	0x50
 3304 0046 9F       		.byte	0x9f
 3305 0047 00000000 		.4byte	0
 3306 004b 00000000 		.4byte	0
 3307              	.LLST2:
 3308 004f 00000000 		.4byte	.LVL7
 3309 0053 16000000 		.4byte	.LVL8
 3310 0057 0100     		.2byte	0x1
 3311 0059 50       		.byte	0x50
 3312 005a 16000000 		.4byte	.LVL8
 3313 005e 2C000000 		.4byte	.LVL10
 3314 0062 0100     		.2byte	0x1
 3315 0064 54       		.byte	0x54
 3316 0065 2C000000 		.4byte	.LVL10
 3317 0069 3E000000 		.4byte	.LVL11
 3318 006d 0300     		.2byte	0x3
 3319 006f 74       		.byte	0x74
 3320 0070 70       		.sleb128 -16
 3321 0071 9F       		.byte	0x9f
 3322 0072 3E000000 		.4byte	.LVL11
 3323 0076 54000000 		.4byte	.LFE121
 3324 007a 0400     		.2byte	0x4
 3325 007c F3       		.byte	0xf3
 3326 007d 01       		.uleb128 0x1
 3327 007e 50       		.byte	0x50
 3328 007f 9F       		.byte	0x9f
 3329 0080 00000000 		.4byte	0
 3330 0084 00000000 		.4byte	0
 3331              	.LLST3:
 3332 0088 00000000 		.4byte	.LVL13
 3333 008c 19000000 		.4byte	.LVL15-1
 3334 0090 0100     		.2byte	0x1
 3335 0092 50       		.byte	0x50
 3336 0093 19000000 		.4byte	.LVL15-1
 3337 0097 AC010000 		.4byte	.LFE122
 3338 009b 0400     		.2byte	0x4
 3339 009d F3       		.byte	0xf3
 3340 009e 01       		.uleb128 0x1
ARM GAS  /var/folders/bz/nn5481rn5xq59rb0mbj7x0880000gn/T//ccHcHkHf.s 			page 60


 3341 009f 50       		.byte	0x50
 3342 00a0 9F       		.byte	0x9f
 3343 00a1 00000000 		.4byte	0
 3344 00a5 00000000 		.4byte	0
 3345              	.LLST4:
 3346 00a9 16000000 		.4byte	.LVL14
 3347 00ad 2C000000 		.4byte	.LVL17
 3348 00b1 0200     		.2byte	0x2
 3349 00b3 30       		.byte	0x30
 3350 00b4 9F       		.byte	0x9f
 3351 00b5 70000000 		.4byte	.LVL23
 3352 00b9 72000000 		.4byte	.LVL24
 3353 00bd 0100     		.2byte	0x1
 3354 00bf 50       		.byte	0x50
 3355 00c0 72000000 		.4byte	.LVL24
 3356 00c4 A2000000 		.4byte	.LVL28
 3357 00c8 0100     		.2byte	0x1
 3358 00ca 5A       		.byte	0x5a
 3359 00cb A2000000 		.4byte	.LVL28
 3360 00cf A4000000 		.4byte	.LVL29
 3361 00d3 0100     		.2byte	0x1
 3362 00d5 50       		.byte	0x50
 3363 00d6 A4000000 		.4byte	.LVL29
 3364 00da CE000000 		.4byte	.LVL33
 3365 00de 0100     		.2byte	0x1
 3366 00e0 5A       		.byte	0x5a
 3367 00e1 CE000000 		.4byte	.LVL33
 3368 00e5 D0000000 		.4byte	.LVL34
 3369 00e9 0100     		.2byte	0x1
 3370 00eb 50       		.byte	0x50
 3371 00ec D0000000 		.4byte	.LVL34
 3372 00f0 F8000000 		.4byte	.LVL39
 3373 00f4 0100     		.2byte	0x1
 3374 00f6 5A       		.byte	0x5a
 3375 00f7 F8000000 		.4byte	.LVL39
 3376 00fb FA000000 		.4byte	.LVL40
 3377 00ff 0100     		.2byte	0x1
 3378 0101 50       		.byte	0x50
 3379 0102 FA000000 		.4byte	.LVL40
 3380 0106 28010000 		.4byte	.LVL45
 3381 010a 0100     		.2byte	0x1
 3382 010c 59       		.byte	0x59
 3383 010d 36010000 		.4byte	.LVL47
 3384 0111 6A010000 		.4byte	.LVL50
 3385 0115 0100     		.2byte	0x1
 3386 0117 59       		.byte	0x59
 3387 0118 00000000 		.4byte	0
 3388 011c 00000000 		.4byte	0
 3389              	.LLST5:
 3390 0120 42000000 		.4byte	.LVL20
 3391 0124 76000000 		.4byte	.LVL25
 3392 0128 0200     		.2byte	0x2
 3393 012a 31       		.byte	0x31
 3394 012b 9F       		.byte	0x9f
 3395 012c 76000000 		.4byte	.LVL25
 3396 0130 A2000000 		.4byte	.LVL28
 3397 0134 0500     		.2byte	0x5
ARM GAS  /var/folders/bz/nn5481rn5xq59rb0mbj7x0880000gn/T//ccHcHkHf.s 			page 61


 3398 0136 7A       		.byte	0x7a
 3399 0137 00       		.sleb128 0
 3400 0138 30       		.byte	0x30
 3401 0139 29       		.byte	0x29
 3402 013a 9F       		.byte	0x9f
 3403 013b A8000000 		.4byte	.LVL30
 3404 013f CE000000 		.4byte	.LVL33
 3405 0143 0500     		.2byte	0x5
 3406 0145 7A       		.byte	0x7a
 3407 0146 00       		.sleb128 0
 3408 0147 30       		.byte	0x30
 3409 0148 29       		.byte	0x29
 3410 0149 9F       		.byte	0x9f
 3411 014a D4000000 		.4byte	.LVL35
 3412 014e FE000000 		.4byte	.LVL41
 3413 0152 0500     		.2byte	0x5
 3414 0154 7A       		.byte	0x7a
 3415 0155 00       		.sleb128 0
 3416 0156 30       		.byte	0x30
 3417 0157 29       		.byte	0x29
 3418 0158 9F       		.byte	0x9f
 3419 0159 FE000000 		.4byte	.LVL41
 3420 015d 28010000 		.4byte	.LVL45
 3421 0161 0500     		.2byte	0x5
 3422 0163 79       		.byte	0x79
 3423 0164 00       		.sleb128 0
 3424 0165 30       		.byte	0x30
 3425 0166 29       		.byte	0x29
 3426 0167 9F       		.byte	0x9f
 3427 0168 36010000 		.4byte	.LVL47
 3428 016c 6A010000 		.4byte	.LVL50
 3429 0170 0500     		.2byte	0x5
 3430 0172 79       		.byte	0x79
 3431 0173 00       		.sleb128 0
 3432 0174 30       		.byte	0x30
 3433 0175 29       		.byte	0x29
 3434 0176 9F       		.byte	0x9f
 3435 0177 00000000 		.4byte	0
 3436 017b 00000000 		.4byte	0
 3437              	.LLST6:
 3438 017f 0A010000 		.4byte	.LVL42
 3439 0183 28010000 		.4byte	.LVL45
 3440 0187 0100     		.2byte	0x1
 3441 0189 52       		.byte	0x52
 3442 018a 36010000 		.4byte	.LVL47
 3443 018e 50010000 		.4byte	.LVL49
 3444 0192 0100     		.2byte	0x1
 3445 0194 52       		.byte	0x52
 3446 0195 50010000 		.4byte	.LVL49
 3447 0199 91010000 		.4byte	.LVL51-1
 3448 019d 0500     		.2byte	0x5
 3449 019f 03       		.byte	0x3
 3450 01a0 00000000 		.4byte	chuck_error
 3451 01a4 00000000 		.4byte	0
 3452 01a8 00000000 		.4byte	0
 3453              	.LLST7:
 3454 01ac 0A010000 		.4byte	.LVL42
ARM GAS  /var/folders/bz/nn5481rn5xq59rb0mbj7x0880000gn/T//ccHcHkHf.s 			page 62


 3455 01b0 0E010000 		.4byte	.LVL43
 3456 01b4 0900     		.2byte	0x9
 3457 01b6 73       		.byte	0x73
 3458 01b7 00       		.sleb128 0
 3459 01b8 03       		.byte	0x3
 3460 01b9 00000000 		.4byte	last_buffer.10480
 3461 01bd 1C       		.byte	0x1c
 3462 01be 9F       		.byte	0x9f
 3463 01bf 0E010000 		.4byte	.LVL43
 3464 01c3 18010000 		.4byte	.LVL44
 3465 01c7 0A00     		.2byte	0xa
 3466 01c9 03       		.byte	0x3
 3467 01ca 00000000 		.4byte	last_buffer.10480
 3468 01ce 20       		.byte	0x20
 3469 01cf 73       		.byte	0x73
 3470 01d0 00       		.sleb128 0
 3471 01d1 22       		.byte	0x22
 3472 01d2 9F       		.byte	0x9f
 3473 01d3 18010000 		.4byte	.LVL44
 3474 01d7 28010000 		.4byte	.LVL45
 3475 01db 0900     		.2byte	0x9
 3476 01dd 73       		.byte	0x73
 3477 01de 00       		.sleb128 0
 3478 01df 03       		.byte	0x3
 3479 01e0 00000000 		.4byte	last_buffer.10480
 3480 01e4 1C       		.byte	0x1c
 3481 01e5 9F       		.byte	0x9f
 3482 01e6 36010000 		.4byte	.LVL47
 3483 01ea 42010000 		.4byte	.LVL48
 3484 01ee 0900     		.2byte	0x9
 3485 01f0 73       		.byte	0x73
 3486 01f1 00       		.sleb128 0
 3487 01f2 03       		.byte	0x3
 3488 01f3 00000000 		.4byte	last_buffer.10480
 3489 01f7 1C       		.byte	0x1c
 3490 01f8 9F       		.byte	0x9f
 3491 01f9 00000000 		.4byte	0
 3492 01fd 00000000 		.4byte	0
 3493              		.section	.debug_aranges,"",%progbits
 3494 0000 44000000 		.4byte	0x44
 3495 0004 0200     		.2byte	0x2
 3496 0006 00000000 		.4byte	.Ldebug_info0
 3497 000a 04       		.byte	0x4
 3498 000b 00       		.byte	0
 3499 000c 0000     		.2byte	0
 3500 000e 0000     		.2byte	0
 3501 0010 00000000 		.4byte	.LFB123
 3502 0014 1C000000 		.4byte	.LFE123-.LFB123
 3503 0018 00000000 		.4byte	.LFB118
 3504 001c 1C000000 		.4byte	.LFE118-.LFB118
 3505 0020 00000000 		.4byte	.LFB119
 3506 0024 2C000000 		.4byte	.LFE119-.LFB119
 3507 0028 00000000 		.4byte	.LFB120
 3508 002c 28000000 		.4byte	.LFE120-.LFB120
 3509 0030 00000000 		.4byte	.LFB121
 3510 0034 54000000 		.4byte	.LFE121-.LFB121
 3511 0038 00000000 		.4byte	.LFB122
ARM GAS  /var/folders/bz/nn5481rn5xq59rb0mbj7x0880000gn/T//ccHcHkHf.s 			page 63


 3512 003c AC010000 		.4byte	.LFE122-.LFB122
 3513 0040 00000000 		.4byte	0
 3514 0044 00000000 		.4byte	0
 3515              		.section	.debug_ranges,"",%progbits
 3516              	.Ldebug_ranges0:
 3517 0000 00000000 		.4byte	.LFB123
 3518 0004 1C000000 		.4byte	.LFE123
 3519 0008 00000000 		.4byte	.LFB118
 3520 000c 1C000000 		.4byte	.LFE118
 3521 0010 00000000 		.4byte	.LFB119
 3522 0014 2C000000 		.4byte	.LFE119
 3523 0018 00000000 		.4byte	.LFB120
 3524 001c 28000000 		.4byte	.LFE120
 3525 0020 00000000 		.4byte	.LFB121
 3526 0024 54000000 		.4byte	.LFE121
 3527 0028 00000000 		.4byte	.LFB122
 3528 002c AC010000 		.4byte	.LFE122
 3529 0030 00000000 		.4byte	0
 3530 0034 00000000 		.4byte	0
 3531              		.section	.debug_line,"",%progbits
 3532              	.Ldebug_line0:
 3533 0000 F5030000 		.section	.debug_str,"MS",%progbits,1
 3533      02001603 
 3533      00000201 
 3533      FB0E0D00 
 3533      01010101 
 3534              	.LASF188:
 3535 0000 6C69622F 		.ascii	"lib/app/app_nunchuk.c\000"
 3535      6170702F 
 3535      6170705F 
 3535      6E756E63 
 3535      68756B2E 
 3536              	.LASF150:
 3537 0016 646D6172 		.ascii	"dmarx\000"
 3537      7800
 3538              	.LASF156:
 3539 001c 6170705F 		.ascii	"app_nunchuk_start\000"
 3539      6E756E63 
 3539      68756B5F 
 3539      73746172 
 3539      7400
 3540              	.LASF96:
 3541 002e 4D304152 		.ascii	"M0AR\000"
 3541      00
 3542              	.LASF174:
 3543 0033 6F757470 		.ascii	"output_running\000"
 3543      75745F72 
 3543      756E6E69 
 3543      6E6700
 3544              	.LASF50:
 3545 0042 54687265 		.ascii	"ThreadsList\000"
 3545      6164734C 
 3545      69737400 
 3546              	.LASF67:
 3547 004e 7264796D 		.ascii	"rdymsg\000"
 3547      736700
 3548              	.LASF18:
ARM GAS  /var/folders/bz/nn5481rn5xq59rb0mbj7x0880000gn/T//ccHcHkHf.s 			page 64


 3549 0055 75696E74 		.ascii	"uint64_t\000"
 3549      36345F74 
 3549      00
 3550              	.LASF0:
 3551 005e 7369676E 		.ascii	"signed char\000"
 3551      65642063 
 3551      68617200 
 3552              	.LASF3:
 3553 006a 5F5F7569 		.ascii	"__uint8_t\000"
 3553      6E74385F 
 3553      7400
 3554              	.LASF78:
 3555 0074 6374726C 		.ascii	"ctrl_type\000"
 3555      5F747970 
 3555      6500
 3556              	.LASF159:
 3557 007e 6F757470 		.ascii	"output_thread\000"
 3557      75745F74 
 3557      68726561 
 3557      6400
 3558              	.LASF82:
 3559 008c 72616D70 		.ascii	"ramp_time_pos\000"
 3559      5F74696D 
 3559      655F706F 
 3559      7300
 3560              	.LASF109:
 3561 009a 54524953 		.ascii	"TRISE\000"
 3561      4500
 3562              	.LASF161:
 3563 00a0 72786275 		.ascii	"rxbuf\000"
 3563      6600
 3564              	.LASF83:
 3565 00a6 72616D70 		.ascii	"ramp_time_neg\000"
 3565      5F74696D 
 3565      655F6E65 
 3565      6700
 3566              	.LASF49:
 3567 00b4 54687265 		.ascii	"ThreadsQueue\000"
 3567      61647351 
 3567      75657565 
 3567      00
 3568              	.LASF170:
 3569 00c1 6F757470 		.ascii	"output_thread_wa\000"
 3569      75745F74 
 3569      68726561 
 3569      645F7761 
 3569      00
 3570              	.LASF124:
 3571 00d2 4932435F 		.ascii	"I2C_ACTIVE_RX\000"
 3571      41435449 
 3571      56455F52 
 3571      5800
 3572              	.LASF118:
 3573 00e0 76656374 		.ascii	"vector\000"
 3573      6F7200
 3574              	.LASF184:
 3575 00e7 69326352 		.ascii	"i2cReleaseBus\000"
ARM GAS  /var/folders/bz/nn5481rn5xq59rb0mbj7x0880000gn/T//ccHcHkHf.s 			page 65


 3575      656C6561 
 3575      73654275 
 3575      7300
 3576              	.LASF169:
 3577 00f5 6368756B 		.ascii	"chuk_thread_wa\000"
 3577      5F746872 
 3577      6561645F 
 3577      776100
 3578              	.LASF176:
 3579 0104 49544D5F 		.ascii	"ITM_RxBuffer\000"
 3579      52784275 
 3579      66666572 
 3579      00
 3580              	.LASF168:
 3581 0111 73616D65 		.ascii	"same\000"
 3581      00
 3582              	.LASF85:
 3583 0116 74635F6D 		.ascii	"tc_max_diff\000"
 3583      61785F64 
 3583      69666600 
 3584              	.LASF95:
 3585 0122 4E445452 		.ascii	"NDTR\000"
 3585      00
 3586              	.LASF122:
 3587 0127 4932435F 		.ascii	"I2C_READY\000"
 3587      52454144 
 3587      5900
 3588              	.LASF183:
 3589 0131 6932634D 		.ascii	"i2cMasterTransmitTimeout\000"
 3589      61737465 
 3589      72547261 
 3589      6E736D69 
 3589      7454696D 
 3590              	.LASF10:
 3591 014a 6C6F6E67 		.ascii	"long long int\000"
 3591      206C6F6E 
 3591      6720696E 
 3591      7400
 3592              	.LASF120:
 3593 0158 4932435F 		.ascii	"I2C_UNINIT\000"
 3593      554E494E 
 3593      495400
 3594              	.LASF94:
 3595 0163 63687563 		.ascii	"chuck_data\000"
 3595      6B5F6461 
 3595      746100
 3596              	.LASF157:
 3597 016e 6170705F 		.ascii	"app_nunchuk_update_output\000"
 3597      6E756E63 
 3597      68756B5F 
 3597      75706461 
 3597      74655F6F 
 3598              	.LASF9:
 3599 0188 6C6F6E67 		.ascii	"long unsigned int\000"
 3599      20756E73 
 3599      69676E65 
 3599      6420696E 
ARM GAS  /var/folders/bz/nn5481rn5xq59rb0mbj7x0880000gn/T//ccHcHkHf.s 			page 66


 3599      7400
 3600              	.LASF48:
 3601 019a 705F6D70 		.ascii	"p_mpool\000"
 3601      6F6F6C00 
 3602              	.LASF12:
 3603 01a2 6C6F6E67 		.ascii	"long long unsigned int\000"
 3603      206C6F6E 
 3603      6720756E 
 3603      7369676E 
 3603      65642069 
 3604              	.LASF64:
 3605 01b9 6D5F7175 		.ascii	"m_queue\000"
 3605      65756500 
 3606              	.LASF147:
 3607 01c1 61646472 		.ascii	"addr\000"
 3607      00
 3608              	.LASF69:
 3609 01c6 77746F62 		.ascii	"wtobjp\000"
 3609      6A7000
 3610              	.LASF24:
 3611 01cd 74736C69 		.ascii	"tslices_t\000"
 3611      6365735F 
 3611      7400
 3612              	.LASF154:
 3613 01d7 636F6E66 		.ascii	"conf\000"
 3613      00
 3614              	.LASF127:
 3615 01dc 69326361 		.ascii	"i2caddr_t\000"
 3615      6464725F 
 3615      7400
 3616              	.LASF142:
 3617 01e6 73746174 		.ascii	"state\000"
 3617      6500
 3618              	.LASF145:
 3619 01ec 6D757465 		.ascii	"mutex\000"
 3619      7800
 3620              	.LASF22:
 3621 01f2 74737461 		.ascii	"tstate_t\000"
 3621      74655F74 
 3621      00
 3622              	.LASF172:
 3623 01fb 63687563 		.ascii	"chuck_d\000"
 3623      6B5F6400 
 3624              	.LASF111:
 3625 0203 464C5452 		.ascii	"FLTR\000"
 3625      00
 3626              	.LASF132:
 3627 0208 6932636F 		.ascii	"i2copmode_t\000"
 3627      706D6F64 
 3627      655F7400 
 3628              	.LASF34:
 3629 0214 705F6E65 		.ascii	"p_newer\000"
 3629      77657200 
 3630              	.LASF77:
 3631 021c 6368756B 		.ascii	"chuk_control_type\000"
 3631      5F636F6E 
 3631      74726F6C 
ARM GAS  /var/folders/bz/nn5481rn5xq59rb0mbj7x0880000gn/T//ccHcHkHf.s 			page 67


 3631      5F747970 
 3631      6500
 3632              	.LASF148:
 3633 022e 7278646D 		.ascii	"rxdmamode\000"
 3633      616D6F64 
 3633      6500
 3634              	.LASF151:
 3635 0238 646D6174 		.ascii	"dmatx\000"
 3635      7800
 3636              	.LASF179:
 3637 023e 68775F74 		.ascii	"hw_try_restore_i2c\000"
 3637      72795F72 
 3637      6573746F 
 3637      72655F69 
 3637      326300
 3638              	.LASF131:
 3639 0251 4F504D4F 		.ascii	"OPMODE_SMBUS_HOST\000"
 3639      44455F53 
 3639      4D425553 
 3639      5F484F53 
 3639      5400
 3640              	.LASF59:
 3641 0263 725F6E65 		.ascii	"r_newer\000"
 3641      77657200 
 3642              	.LASF117:
 3643 026b 73656C66 		.ascii	"selfindex\000"
 3643      696E6465 
 3643      7800
 3644              	.LASF137:
 3645 0275 6F705F6D 		.ascii	"op_mode\000"
 3645      6F646500 
 3646              	.LASF114:
 3647 027d 73747265 		.ascii	"stream\000"
 3647      616D00
 3648              	.LASF167:
 3649 0284 6C617374 		.ascii	"last_buffer\000"
 3649      5F627566 
 3649      66657200 
 3650              	.LASF186:
 3651 0290 68775F73 		.ascii	"hw_start_i2c\000"
 3651      74617274 
 3651      5F693263 
 3651      00
 3652              	.LASF13:
 3653 029d 756E7369 		.ascii	"unsigned int\000"
 3653      676E6564 
 3653      20696E74 
 3653      00
 3654              	.LASF15:
 3655 02aa 75696E74 		.ascii	"uint16_t\000"
 3655      31365F74 
 3655      00
 3656              	.LASF143:
 3657 02b3 636F6E66 		.ascii	"config\000"
 3657      696700
 3658              	.LASF144:
 3659 02ba 6572726F 		.ascii	"errors\000"
ARM GAS  /var/folders/bz/nn5481rn5xq59rb0mbj7x0880000gn/T//ccHcHkHf.s 			page 68


 3659      727300
 3660              	.LASF165:
 3661 02c1 63687563 		.ascii	"chuck_d_tmp\000"
 3661      6B5F645F 
 3661      746D7000 
 3662              	.LASF89:
 3663 02cd 6163635F 		.ascii	"acc_x\000"
 3663      7800
 3664              	.LASF90:
 3665 02d3 6163635F 		.ascii	"acc_y\000"
 3665      7900
 3666              	.LASF91:
 3667 02d9 6163635F 		.ascii	"acc_z\000"
 3667      7A00
 3668              	.LASF116:
 3669 02df 69736869 		.ascii	"ishift\000"
 3669      667400
 3670              	.LASF190:
 3671 02e6 6170705F 		.ascii	"app_nunchuk_get_decoded_chuk\000"
 3671      6E756E63 
 3671      68756B5F 
 3671      6765745F 
 3671      6465636F 
 3672              	.LASF158:
 3673 0303 64617461 		.ascii	"data\000"
 3673      00
 3674              	.LASF130:
 3675 0308 4F504D4F 		.ascii	"OPMODE_SMBUS_DEVICE\000"
 3675      44455F53 
 3675      4D425553 
 3675      5F444556 
 3675      49434500 
 3676              	.LASF5:
 3677 031c 73686F72 		.ascii	"short unsigned int\000"
 3677      7420756E 
 3677      7369676E 
 3677      65642069 
 3677      6E7400
 3678              	.LASF141:
 3679 032f 49324344 		.ascii	"I2CDriver\000"
 3679      72697665 
 3679      7200
 3680              	.LASF74:
 3681 0339 4348554B 		.ascii	"CHUK_CTRL_TYPE_NONE\000"
 3681      5F435452 
 3681      4C5F5459 
 3681      50455F4E 
 3681      4F4E4500 
 3682              	.LASF26:
 3683 034d 6D73675F 		.ascii	"msg_t\000"
 3683      7400
 3684              	.LASF92:
 3685 0353 62745F63 		.ascii	"bt_c\000"
 3685      00
 3686              	.LASF134:
 3687 0358 46415354 		.ascii	"FAST_DUTY_CYCLE_2\000"
 3687      5F445554 
ARM GAS  /var/folders/bz/nn5481rn5xq59rb0mbj7x0880000gn/T//ccHcHkHf.s 			page 69


 3687      595F4359 
 3687      434C455F 
 3687      3200
 3688              	.LASF166:
 3689 036a 69735F6F 		.ascii	"is_ok\000"
 3689      6B00
 3690              	.LASF68:
 3691 0370 65786974 		.ascii	"exitcode\000"
 3691      636F6465 
 3691      00
 3692              	.LASF21:
 3693 0379 746D6F64 		.ascii	"tmode_t\000"
 3693      655F7400 
 3694              	.LASF133:
 3695 0381 5354445F 		.ascii	"STD_DUTY_CYCLE\000"
 3695      44555459 
 3695      5F435943 
 3695      4C4500
 3696              	.LASF27:
 3697 0390 6576656E 		.ascii	"eventmask_t\000"
 3697      746D6173 
 3697      6B5F7400 
 3698              	.LASF81:
 3699 039c 72706D5F 		.ascii	"rpm_lim_end\000"
 3699      6C696D5F 
 3699      656E6400 
 3700              	.LASF63:
 3701 03a8 4D757465 		.ascii	"Mutex\000"
 3701      7800
 3702              	.LASF93:
 3703 03ae 62745F7A 		.ascii	"bt_z\000"
 3703      00
 3704              	.LASF52:
 3705 03b3 73746B61 		.ascii	"stkalign_t\000"
 3705      6C69676E 
 3705      5F7400
 3706              	.LASF182:
 3707 03be 63685468 		.ascii	"chThdCreateStatic\000"
 3707      64437265 
 3707      61746553 
 3707      74617469 
 3707      6300
 3708              	.LASF11:
 3709 03d0 5F5F7569 		.ascii	"__uint64_t\000"
 3709      6E743634 
 3709      5F7400
 3710              	.LASF121:
 3711 03db 4932435F 		.ascii	"I2C_STOP\000"
 3711      53544F50 
 3711      00
 3712              	.LASF16:
 3713 03e4 696E7433 		.ascii	"int32_t\000"
 3713      325F7400 
 3714              	.LASF55:
 3715 03ec 73697A65 		.ascii	"sizetype\000"
 3715      74797065 
 3715      00
ARM GAS  /var/folders/bz/nn5481rn5xq59rb0mbj7x0880000gn/T//ccHcHkHf.s 			page 70


 3716              	.LASF79:
 3717 03f5 68797374 		.ascii	"hyst\000"
 3717      00
 3718              	.LASF173:
 3719 03fa 63687563 		.ascii	"chuck_error\000"
 3719      6B5F6572 
 3719      726F7200 
 3720              	.LASF139:
 3721 0406 64757479 		.ascii	"duty_cycle\000"
 3721      5F637963 
 3721      6C6500
 3722              	.LASF32:
 3723 0411 705F7072 		.ascii	"p_prio\000"
 3723      696F00
 3724              	.LASF35:
 3725 0418 705F6F6C 		.ascii	"p_older\000"
 3725      64657200 
 3726              	.LASF140:
 3727 0420 49324343 		.ascii	"I2CConfig\000"
 3727      6F6E6669 
 3727      6700
 3728              	.LASF58:
 3729 042a 725F6374 		.ascii	"r_ctx\000"
 3729      7800
 3730              	.LASF86:
 3731 0430 6368756B 		.ascii	"chuk_config\000"
 3731      5F636F6E 
 3731      66696700 
 3732              	.LASF149:
 3733 043c 7478646D 		.ascii	"txdmamode\000"
 3733      616D6F64 
 3733      6500
 3734              	.LASF19:
 3735 0446 73697A65 		.ascii	"size_t\000"
 3735      5F7400
 3736              	.LASF129:
 3737 044d 4F504D4F 		.ascii	"OPMODE_I2C\000"
 3737      44455F49 
 3737      324300
 3738              	.LASF61:
 3739 0458 725F6375 		.ascii	"r_current\000"
 3739      7272656E 
 3739      7400
 3740              	.LASF60:
 3741 0462 725F6F6C 		.ascii	"r_older\000"
 3741      64657200 
 3742              	.LASF80:
 3743 046a 72706D5F 		.ascii	"rpm_lim_start\000"
 3743      6C696D5F 
 3743      73746172 
 3743      7400
 3744              	.LASF189:
 3745 0478 2F557365 		.ascii	"/Users/imac/oroca_bldc_dev/oroca_bldc/\000"
 3745      72732F69 
 3745      6D61632F 
 3745      6F726F63 
 3745      615F626C 
ARM GAS  /var/folders/bz/nn5481rn5xq59rb0mbj7x0880000gn/T//ccHcHkHf.s 			page 71


 3746              	.LASF73:
 3747 049f 666C6F61 		.ascii	"float\000"
 3747      7400
 3748              	.LASF23:
 3749 04a5 74726566 		.ascii	"trefs_t\000"
 3749      735F7400 
 3750              	.LASF126:
 3751 04ad 69326373 		.ascii	"i2cstate_t\000"
 3751      74617465 
 3751      5F7400
 3752              	.LASF135:
 3753 04b8 46415354 		.ascii	"FAST_DUTY_CYCLE_16_9\000"
 3753      5F445554 
 3753      595F4359 
 3753      434C455F 
 3753      31365F39 
 3754              	.LASF102:
 3755 04cd 52455345 		.ascii	"RESERVED2\000"
 3755      52564544 
 3755      3200
 3756              	.LASF104:
 3757 04d7 52455345 		.ascii	"RESERVED3\000"
 3757      52564544 
 3757      3300
 3758              	.LASF105:
 3759 04e1 52455345 		.ascii	"RESERVED4\000"
 3759      52564544 
 3759      3400
 3760              	.LASF31:
 3761 04eb 705F7072 		.ascii	"p_prev\000"
 3761      657600
 3762              	.LASF107:
 3763 04f2 52455345 		.ascii	"RESERVED6\000"
 3763      52564544 
 3763      3600
 3764              	.LASF119:
 3765 04fc 73746D33 		.ascii	"stm32_dma_stream_t\000"
 3765      325F646D 
 3765      615F7374 
 3765      7265616D 
 3765      5F7400
 3766              	.LASF181:
 3767 050f 69326341 		.ascii	"i2cAcquireBus\000"
 3767      63717569 
 3767      72654275 
 3767      7300
 3768              	.LASF25:
 3769 051d 74707269 		.ascii	"tprio_t\000"
 3769      6F5F7400 
 3770              	.LASF123:
 3771 0525 4932435F 		.ascii	"I2C_ACTIVE_TX\000"
 3771      41435449 
 3771      56455F54 
 3771      5800
 3772              	.LASF128:
 3773 0533 69326366 		.ascii	"i2cflags_t\000"
 3773      6C616773 
ARM GAS  /var/folders/bz/nn5481rn5xq59rb0mbj7x0880000gn/T//ccHcHkHf.s 			page 72


 3773      5F7400
 3774              	.LASF146:
 3775 053e 74687265 		.ascii	"thread\000"
 3775      616400
 3776              	.LASF20:
 3777 0545 5F426F6F 		.ascii	"_Bool\000"
 3777      6C00
 3778              	.LASF84:
 3779 054b 6D756C74 		.ascii	"multi_esc\000"
 3779      695F6573 
 3779      6300
 3780              	.LASF1:
 3781 0555 756E7369 		.ascii	"unsigned char\000"
 3781      676E6564 
 3781      20636861 
 3781      7200
 3782              	.LASF136:
 3783 0563 69326364 		.ascii	"i2cdutycycle_t\000"
 3783      75747963 
 3783      79636C65 
 3783      5F7400
 3784              	.LASF46:
 3785 0572 705F6D74 		.ascii	"p_mtxlist\000"
 3785      786C6973 
 3785      7400
 3786              	.LASF138:
 3787 057c 636C6F63 		.ascii	"clock_speed\000"
 3787      6B5F7370 
 3787      65656400 
 3788              	.LASF37:
 3789 0588 705F7374 		.ascii	"p_state\000"
 3789      61746500 
 3790              	.LASF40:
 3791 0590 705F7072 		.ascii	"p_preempt\000"
 3791      65656D70 
 3791      7400
 3792              	.LASF57:
 3793 059a 725F7072 		.ascii	"r_prio\000"
 3793      696F00
 3794              	.LASF70:
 3795 05a1 65776D61 		.ascii	"ewmask\000"
 3795      736B00
 3796              	.LASF30:
 3797 05a8 705F6E65 		.ascii	"p_next\000"
 3797      787400
 3798              	.LASF38:
 3799 05af 705F666C 		.ascii	"p_flags\000"
 3799      61677300 
 3800              	.LASF99:
 3801 05b7 52455345 		.ascii	"RESERVED0\000"
 3801      52564544 
 3801      3000
 3802              	.LASF29:
 3803 05c1 54687265 		.ascii	"Thread\000"
 3803      616400
 3804              	.LASF100:
 3805 05c8 52455345 		.ascii	"RESERVED1\000"
ARM GAS  /var/folders/bz/nn5481rn5xq59rb0mbj7x0880000gn/T//ccHcHkHf.s 			page 73


 3805      52564544 
 3805      3100
 3806              	.LASF125:
 3807 05d2 4932435F 		.ascii	"I2C_LOCKED\000"
 3807      4C4F434B 
 3807      454400
 3808              	.LASF45:
 3809 05dd 705F6570 		.ascii	"p_epending\000"
 3809      656E6469 
 3809      6E6700
 3810              	.LASF115:
 3811 05e8 69666372 		.ascii	"ifcr\000"
 3811      00
 3812              	.LASF106:
 3813 05ed 52455345 		.ascii	"RESERVED5\000"
 3813      52564544 
 3813      3500
 3814              	.LASF17:
 3815 05f7 75696E74 		.ascii	"uint32_t\000"
 3815      33325F74 
 3815      00
 3816              	.LASF51:
 3817 0600 72656761 		.ascii	"regarm_t\000"
 3817      726D5F74 
 3817      00
 3818              	.LASF56:
 3819 0609 725F7175 		.ascii	"r_queue\000"
 3819      65756500 
 3820              	.LASF112:
 3821 0611 52455345 		.ascii	"RESERVED9\000"
 3821      52564544 
 3821      3900
 3822              	.LASF155:
 3823 061b 6170705F 		.ascii	"app_nunchuk_configure\000"
 3823      6E756E63 
 3823      68756B5F 
 3823      636F6E66 
 3823      69677572 
 3824              	.LASF177:
 3825 0631 49324344 		.ascii	"I2CD2\000"
 3825      3200
 3826              	.LASF87:
 3827 0637 6A735F78 		.ascii	"js_x\000"
 3827      00
 3828              	.LASF88:
 3829 063c 6A735F79 		.ascii	"js_y\000"
 3829      00
 3830              	.LASF153:
 3831 0641 6C6F6E67 		.ascii	"long double\000"
 3831      20646F75 
 3831      626C6500 
 3832              	.LASF71:
 3833 064d 63686172 		.ascii	"char\000"
 3833      00
 3834              	.LASF4:
 3835 0652 5F5F7569 		.ascii	"__uint16_t\000"
 3835      6E743136 
ARM GAS  /var/folders/bz/nn5481rn5xq59rb0mbj7x0880000gn/T//ccHcHkHf.s 			page 74


 3835      5F7400
 3836              	.LASF72:
 3837 065d 7466756E 		.ascii	"tfunc_t\000"
 3837      635F7400 
 3838              	.LASF2:
 3839 0665 73686F72 		.ascii	"short int\000"
 3839      7420696E 
 3839      7400
 3840              	.LASF191:
 3841 066f 74696D65 		.ascii	"timeout_has_timeout\000"
 3841      6F75745F 
 3841      6861735F 
 3841      74696D65 
 3841      6F757400 
 3842              	.LASF66:
 3843 0683 6D5F6E65 		.ascii	"m_next\000"
 3843      787400
 3844              	.LASF28:
 3845 068a 73797374 		.ascii	"systime_t\000"
 3845      696D655F 
 3845      7400
 3846              	.LASF47:
 3847 0694 705F7265 		.ascii	"p_realprio\000"
 3847      616C7072 
 3847      696F00
 3848              	.LASF6:
 3849 069f 5F5F696E 		.ascii	"__int32_t\000"
 3849      7433325F 
 3849      7400
 3850              	.LASF8:
 3851 06a9 5F5F7569 		.ascii	"__uint32_t\000"
 3851      6E743332 
 3851      5F7400
 3852              	.LASF187:
 3853 06b4 474E5520 		.ascii	"GNU C 4.9.3 20150529 (release) [ARM/embedded-4_9-br"
 3853      4320342E 
 3853      392E3320 
 3853      32303135 
 3853      30353239 
 3854 06e7 616E6368 		.ascii	"anch revision 224288] -mcpu=cortex-m4 -mfloat-abi=h"
 3854      20726576 
 3854      6973696F 
 3854      6E203232 
 3854      34323838 
 3855 071a 61726420 		.ascii	"ard -mfpu=fpv4-sp-d16 -mno-thumb-interwork -mthumb "
 3855      2D6D6670 
 3855      753D6670 
 3855      76342D73 
 3855      702D6431 
 3856 074d 2D676764 		.ascii	"-ggdb -O2 -std=gnu99 -fomit-frame-pointer -falign-f"
 3856      62202D4F 
 3856      32202D73 
 3856      74643D67 
 3856      6E753939 
 3857 0780 756E6374 		.ascii	"unctions=16 -ffunction-sections -fdata-sections -fn"
 3857      696F6E73 
 3857      3D313620 
ARM GAS  /var/folders/bz/nn5481rn5xq59rb0mbj7x0880000gn/T//ccHcHkHf.s 			page 75


 3857      2D666675 
 3857      6E637469 
 3858 07b3 6F2D636F 		.ascii	"o-common -fsingle-precision-constant\000"
 3858      6D6D6F6E 
 3858      202D6673 
 3858      696E676C 
 3858      652D7072 
 3859              	.LASF98:
 3860 07d8 444D415F 		.ascii	"DMA_Stream_TypeDef\000"
 3860      53747265 
 3860      616D5F54 
 3860      79706544 
 3860      656600
 3861              	.LASF41:
 3862 07eb 705F7469 		.ascii	"p_time\000"
 3862      6D6500
 3863              	.LASF7:
 3864 07f2 6C6F6E67 		.ascii	"long int\000"
 3864      20696E74 
 3864      00
 3865              	.LASF53:
 3866 07fb 696E7463 		.ascii	"intctx\000"
 3866      747800
 3867              	.LASF43:
 3868 0802 705F6D73 		.ascii	"p_msgqueue\000"
 3868      67717565 
 3868      756500
 3869              	.LASF97:
 3870 080d 4D314152 		.ascii	"M1AR\000"
 3870      00
 3871              	.LASF108:
 3872 0812 52455345 		.ascii	"RESERVED7\000"
 3872      52564544 
 3872      3700
 3873              	.LASF110:
 3874 081c 52455345 		.ascii	"RESERVED8\000"
 3874      52564544 
 3874      3800
 3875              	.LASF75:
 3876 0826 4348554B 		.ascii	"CHUK_CTRL_TYPE_CURRENT\000"
 3876      5F435452 
 3876      4C5F5459 
 3876      50455F43 
 3876      55525245 
 3877              	.LASF180:
 3878 083d 63685468 		.ascii	"chThdSleep\000"
 3878      64536C65 
 3878      657000
 3879              	.LASF39:
 3880 0848 705F7265 		.ascii	"p_refs\000"
 3880      667300
 3881              	.LASF163:
 3882 084f 73746174 		.ascii	"status\000"
 3882      757300
 3883              	.LASF62:
 3884 0856 52656164 		.ascii	"ReadyList\000"
 3884      794C6973 
ARM GAS  /var/folders/bz/nn5481rn5xq59rb0mbj7x0880000gn/T//ccHcHkHf.s 			page 76


 3884      7400
 3885              	.LASF171:
 3886 0860 69735F72 		.ascii	"is_running\000"
 3886      756E6E69 
 3886      6E6700
 3887              	.LASF175:
 3888 086b 726C6973 		.ascii	"rlist\000"
 3888      7400
 3889              	.LASF14:
 3890 0871 75696E74 		.ascii	"uint8_t\000"
 3890      385F7400 
 3891              	.LASF101:
 3892 0879 4F415231 		.ascii	"OAR1\000"
 3892      00
 3893              	.LASF103:
 3894 087e 4F415232 		.ascii	"OAR2\000"
 3894      00
 3895              	.LASF185:
 3896 0883 6932634D 		.ascii	"i2cMasterReceiveTimeout\000"
 3896      61737465 
 3896      72526563 
 3896      65697665 
 3896      54696D65 
 3897              	.LASF178:
 3898 089b 74696D65 		.ascii	"timeout_reset\000"
 3898      6F75745F 
 3898      72657365 
 3898      7400
 3899              	.LASF36:
 3900 08a9 705F6E61 		.ascii	"p_name\000"
 3900      6D6500
 3901              	.LASF164:
 3902 08b0 63687563 		.ascii	"chuck_addr\000"
 3902      6B5F6164 
 3902      647200
 3903              	.LASF54:
 3904 08bb 636F6E74 		.ascii	"context\000"
 3904      65787400 
 3905              	.LASF76:
 3906 08c3 4348554B 		.ascii	"CHUK_CTRL_TYPE_CURRENT_NOREV\000"
 3906      5F435452 
 3906      4C5F5459 
 3906      50455F43 
 3906      55525245 
 3907              	.LASF44:
 3908 08e0 705F6D73 		.ascii	"p_msg\000"
 3908      6700
 3909              	.LASF113:
 3910 08e6 4932435F 		.ascii	"I2C_TypeDef\000"
 3910      54797065 
 3910      44656600 
 3911              	.LASF160:
 3912 08f2 6368756B 		.ascii	"chuk_thread\000"
 3912      5F746872 
 3912      65616400 
 3913              	.LASF162:
 3914 08fe 74786275 		.ascii	"txbuf\000"
ARM GAS  /var/folders/bz/nn5481rn5xq59rb0mbj7x0880000gn/T//ccHcHkHf.s 			page 77


 3914      6600
 3915              	.LASF65:
 3916 0904 6D5F6F77 		.ascii	"m_owner\000"
 3916      6E657200 
 3917              	.LASF152:
 3918 090c 646F7562 		.ascii	"double\000"
 3918      6C6500
 3919              	.LASF33:
 3920 0913 705F6374 		.ascii	"p_ctx\000"
 3920      7800
 3921              	.LASF42:
 3922 0919 705F7761 		.ascii	"p_waiting\000"
 3922      6974696E 
 3922      6700
 3923              		.ident	"GCC: (GNU Tools for ARM Embedded Processors) 4.9.3 20150529 (release) [ARM/embedded-4_9-br
ARM GAS  /var/folders/bz/nn5481rn5xq59rb0mbj7x0880000gn/T//ccHcHkHf.s 			page 78


DEFINED SYMBOLS
                            *ABS*:0000000000000000 app_nunchuk.c
/var/folders/bz/nn5481rn5xq59rb0mbj7x0880000gn/T//ccHcHkHf.s:21     .text.output_thread:0000000000000000 $t
/var/folders/bz/nn5481rn5xq59rb0mbj7x0880000gn/T//ccHcHkHf.s:26     .text.output_thread:0000000000000000 output_thread
/var/folders/bz/nn5481rn5xq59rb0mbj7x0880000gn/T//ccHcHkHf.s:55     .text.output_thread:0000000000000014 $d
/var/folders/bz/nn5481rn5xq59rb0mbj7x0880000gn/T//ccHcHkHf.s:61     .text.app_nunchuk_configure:0000000000000000 $t
/var/folders/bz/nn5481rn5xq59rb0mbj7x0880000gn/T//ccHcHkHf.s:67     .text.app_nunchuk_configure:0000000000000000 app_nunchuk_configure
/var/folders/bz/nn5481rn5xq59rb0mbj7x0880000gn/T//ccHcHkHf.s:97     .text.app_nunchuk_configure:0000000000000018 $d
/var/folders/bz/nn5481rn5xq59rb0mbj7x0880000gn/T//ccHcHkHf.s:102    .text.app_nunchuk_start:0000000000000000 $t
/var/folders/bz/nn5481rn5xq59rb0mbj7x0880000gn/T//ccHcHkHf.s:108    .text.app_nunchuk_start:0000000000000000 app_nunchuk_start
/var/folders/bz/nn5481rn5xq59rb0mbj7x0880000gn/T//ccHcHkHf.s:146    .text.app_nunchuk_start:0000000000000020 $d
/var/folders/bz/nn5481rn5xq59rb0mbj7x0880000gn/T//ccHcHkHf.s:275    .text.chuk_thread:0000000000000000 chuk_thread
/var/folders/bz/nn5481rn5xq59rb0mbj7x0880000gn/T//ccHcHkHf.s:153    .text.app_nunchuk_get_decoded_chuk:0000000000000000 $t
/var/folders/bz/nn5481rn5xq59rb0mbj7x0880000gn/T//ccHcHkHf.s:159    .text.app_nunchuk_get_decoded_chuk:0000000000000000 app_nunchuk_get_decoded_chuk
/var/folders/bz/nn5481rn5xq59rb0mbj7x0880000gn/T//ccHcHkHf.s:179    .text.app_nunchuk_get_decoded_chuk:000000000000001c $d
/var/folders/bz/nn5481rn5xq59rb0mbj7x0880000gn/T//ccHcHkHf.s:186    .text.app_nunchuk_update_output:0000000000000000 $t
/var/folders/bz/nn5481rn5xq59rb0mbj7x0880000gn/T//ccHcHkHf.s:192    .text.app_nunchuk_update_output:0000000000000000 app_nunchuk_update_output
/var/folders/bz/nn5481rn5xq59rb0mbj7x0880000gn/T//ccHcHkHf.s:262    .text.app_nunchuk_update_output:0000000000000044 $d
/var/folders/bz/nn5481rn5xq59rb0mbj7x0880000gn/T//ccHcHkHf.s:270    .text.chuk_thread:0000000000000000 $t
/var/folders/bz/nn5481rn5xq59rb0mbj7x0880000gn/T//ccHcHkHf.s:554    .text.chuk_thread:0000000000000194 $d
/var/folders/bz/nn5481rn5xq59rb0mbj7x0880000gn/T//ccHcHkHf.s:569    .bss.output_running:0000000000000000 output_running
/var/folders/bz/nn5481rn5xq59rb0mbj7x0880000gn/T//ccHcHkHf.s:570    .bss.output_running:0000000000000000 $d
/var/folders/bz/nn5481rn5xq59rb0mbj7x0880000gn/T//ccHcHkHf.s:572    .bss.chuk_thread_wa:0000000000000000 $d
/var/folders/bz/nn5481rn5xq59rb0mbj7x0880000gn/T//ccHcHkHf.s:576    .bss.chuk_thread_wa:0000000000000000 chuk_thread_wa
/var/folders/bz/nn5481rn5xq59rb0mbj7x0880000gn/T//ccHcHkHf.s:579    .bss.output_thread_wa:0000000000000000 $d
/var/folders/bz/nn5481rn5xq59rb0mbj7x0880000gn/T//ccHcHkHf.s:583    .bss.output_thread_wa:0000000000000000 output_thread_wa
/var/folders/bz/nn5481rn5xq59rb0mbj7x0880000gn/T//ccHcHkHf.s:589    .bss.is_running:0000000000000000 is_running
/var/folders/bz/nn5481rn5xq59rb0mbj7x0880000gn/T//ccHcHkHf.s:590    .bss.is_running:0000000000000000 $d
/var/folders/bz/nn5481rn5xq59rb0mbj7x0880000gn/T//ccHcHkHf.s:592    .bss.chuck_d:0000000000000000 $d
/var/folders/bz/nn5481rn5xq59rb0mbj7x0880000gn/T//ccHcHkHf.s:596    .bss.chuck_d:0000000000000000 chuck_d
/var/folders/bz/nn5481rn5xq59rb0mbj7x0880000gn/T//ccHcHkHf.s:599    .rodata.str1.4:0000000000000000 $d
/var/folders/bz/nn5481rn5xq59rb0mbj7x0880000gn/T//ccHcHkHf.s:606    .bss.chuck_error:0000000000000000 $d
/var/folders/bz/nn5481rn5xq59rb0mbj7x0880000gn/T//ccHcHkHf.s:610    .bss.chuck_error:0000000000000000 chuck_error
/var/folders/bz/nn5481rn5xq59rb0mbj7x0880000gn/T//ccHcHkHf.s:613    .bss.last_buffer.10480:0000000000000000 $d
/var/folders/bz/nn5481rn5xq59rb0mbj7x0880000gn/T//ccHcHkHf.s:617    .bss.last_buffer.10480:0000000000000000 last_buffer.10480
/var/folders/bz/nn5481rn5xq59rb0mbj7x0880000gn/T//ccHcHkHf.s:620    .bss.config:0000000000000000 $d
/var/folders/bz/nn5481rn5xq59rb0mbj7x0880000gn/T//ccHcHkHf.s:624    .bss.config:0000000000000000 config
                     .debug_frame:0000000000000010 $d

UNDEFINED SYMBOLS
chThdSleep
rlist
chThdCreateStatic
timeout_reset
hw_start_i2c
hw_try_restore_i2c
i2cAcquireBus
i2cMasterTransmitTimeout
i2cReleaseBus
i2cMasterReceiveTimeout
timeout_has_timeout
I2CD2
