ARM GAS  /var/folders/7z/kps_xzfj7sn5l5gkyq8s9db00000gn/T//ccxQhDy0.s 			page 1


   1              		.syntax unified
   2              		.cpu cortex-m4
   3              		.eabi_attribute 27, 1
   4              		.eabi_attribute 28, 1
   5              		.fpu fpv4-sp-d16
   6              		.eabi_attribute 20, 1
   7              		.eabi_attribute 21, 1
   8              		.eabi_attribute 23, 3
   9              		.eabi_attribute 24, 1
  10              		.eabi_attribute 25, 1
  11              		.eabi_attribute 26, 1
  12              		.eabi_attribute 30, 2
  13              		.eabi_attribute 34, 1
  14              		.eabi_attribute 18, 4
  15              		.thumb
  16              		.file	"app_ppm.c"
  17              		.text
  18              	.Ltext0:
  19              		.cfi_sections	.debug_frame
  20              		.section	.text.update,"ax",%progbits
  21              		.align	2
  22              		.p2align 4,,15
  23              		.thumb
  24              		.thumb_func
  25              		.type	update, %function
  26              	update:
  27              	.LFB121:
  28              		.file 1 "lib/app/app_ppm.c"
  29              		.loc 1 82 0
  30              		.cfi_startproc
  31              		@ args = 0, pretend = 0, frame = 0
  32              		@ frame_needed = 0, uses_anonymous_args = 0
  33              	.LVL0:
  34 0000 08B5     		push	{r3, lr}
  35              		.cfi_def_cfa_offset 8
  36              		.cfi_offset 3, -8
  37              		.cfi_offset 14, -4
  38              		.loc 1 82 0
  39 0002 0346     		mov	r3, r0
  40              		.loc 1 83 0
  41              	@ 83 "lib/app/app_ppm.c" 1
  42 0004 72B6     		cpsid   i
  43              	@ 0 "" 2
  44              		.loc 1 84 0
  45              		.thumb
  46 0006 064A     		ldr	r2, .L3
  47 0008 0648     		ldr	r0, .L3+4
  48              	.LVL1:
  49 000a 1421     		movs	r1, #20
  50 000c FFF7FEFF 		bl	chVTSetI
  51              	.LVL2:
  52              		.loc 1 85 0
  53 0010 054B     		ldr	r3, .L3+8
  54 0012 0121     		movs	r1, #1
  55 0014 1868     		ldr	r0, [r3]
  56 0016 FFF7FEFF 		bl	chEvtSignalI
  57              	.LVL3:
ARM GAS  /var/folders/7z/kps_xzfj7sn5l5gkyq8s9db00000gn/T//ccxQhDy0.s 			page 2


  58              		.loc 1 86 0
  59              	@ 86 "lib/app/app_ppm.c" 1
  60 001a 62B6     		cpsie   i
  61              	@ 0 "" 2
  62              		.thumb
  63 001c 08BD     		pop	{r3, pc}
  64              	.L4:
  65 001e 00BF     		.align	2
  66              	.L3:
  67 0020 00000000 		.word	update
  68 0024 00000000 		.word	.LANCHOR0
  69 0028 00000000 		.word	.LANCHOR1
  70              		.cfi_endproc
  71              	.LFE121:
  72              		.size	update, .-update
  73 002c AFF30080 		.section	.text.ppm_thread,"ax",%progbits
  74              		.align	2
  75              		.p2align 4,,15
  76              		.thumb
  77              		.thumb_func
  78              		.type	ppm_thread, %function
  79              	ppm_thread:
  80              	.LFB122:
  81              		.loc 1 89 0
  82              		.cfi_startproc
  83              		@ Volatile: function does not return.
  84              		@ args = 0, pretend = 0, frame = 0
  85              		@ frame_needed = 0, uses_anonymous_args = 0
  86              	.LVL4:
  87              		.loc 1 92 0
  88 0000 0A4A     		ldr	r2, .L9
  89 0002 0B49     		ldr	r1, .L9+4
  90 0004 9269     		ldr	r2, [r2, #24]
  91              		.loc 1 89 0
  92 0006 08B5     		push	{r3, lr}
  93              		.cfi_def_cfa_offset 8
  94              		.cfi_offset 3, -8
  95              		.cfi_offset 14, -4
  96              		.loc 1 95 0
  97 0008 0A4B     		ldr	r3, .L9+8
  98              		.loc 1 92 0
  99 000a 9161     		str	r1, [r2, #24]
 100              		.loc 1 95 0
 101 000c 93ED030A 		flds	s0, [r3, #12]
 102 0010 D3ED040A 		flds	s1, [r3, #16]
 103 0014 187D     		ldrb	r0, [r3, #20]	@ zero_extendqisi2
 104              	.LVL5:
 105              		.loc 1 93 0
 106 0016 084B     		ldr	r3, .L9+12
 107 0018 1A60     		str	r2, [r3]
 108              		.loc 1 95 0
 109 001a FFF7FEFF 		bl	servodec_set_pulse_options
 110              	.LVL6:
 111              		.loc 1 96 0
 112 001e 0748     		ldr	r0, .L9+16
 113 0020 FFF7FEFF 		bl	servodec_init
 114              	.LVL7:
ARM GAS  /var/folders/7z/kps_xzfj7sn5l5gkyq8s9db00000gn/T//ccxQhDy0.s 			page 3


 115              		.loc 1 97 0
 116 0024 064B     		ldr	r3, .L9+20
 117 0026 0122     		movs	r2, #1
 118 0028 1A70     		strb	r2, [r3]
 119              	.L6:
 120              		.loc 1 307 0 discriminator 1
 121 002a FEE7     		b	.L6
 122              	.L10:
 123              		.align	2
 124              	.L9:
 125 002c 00000000 		.word	rlist
 126 0030 00000000 		.word	.LC0
 127 0034 00000000 		.word	.LANCHOR2
 128 0038 00000000 		.word	.LANCHOR1
 129 003c 00000000 		.word	servodec_func
 130 0040 00000000 		.word	.LANCHOR3
 131              		.cfi_endproc
 132              	.LFE122:
 133              		.size	ppm_thread, .-ppm_thread
 134 0044 AFF30080 		.section	.text.servodec_func,"ax",%progbits
 134      AFF30080 
 134      AFF30080 
 135              		.align	2
 136              		.p2align 4,,15
 137              		.thumb
 138              		.thumb_func
 139              		.type	servodec_func, %function
 140              	servodec_func:
 141              	.LFB120:
 142              		.loc 1 75 0
 143              		.cfi_startproc
 144              		@ args = 0, pretend = 0, frame = 0
 145              		@ frame_needed = 0, uses_anonymous_args = 0
 146 0000 08B5     		push	{r3, lr}
 147              		.cfi_def_cfa_offset 8
 148              		.cfi_offset 3, -8
 149              		.cfi_offset 14, -4
 150              		.loc 1 76 0
 151              	@ 76 "lib/app/app_ppm.c" 1
 152 0002 72B6     		cpsid   i
 153              	@ 0 "" 2
 154              		.loc 1 77 0
 155              		.thumb
 156 0004 FFF7FEFF 		bl	timeout_reset
 157              	.LVL8:
 158              		.loc 1 78 0
 159 0008 034B     		ldr	r3, .L13
 160 000a 0121     		movs	r1, #1
 161 000c 1868     		ldr	r0, [r3]
 162 000e FFF7FEFF 		bl	chEvtSignalI
 163              	.LVL9:
 164              		.loc 1 79 0
 165              	@ 79 "lib/app/app_ppm.c" 1
 166 0012 62B6     		cpsie   i
 167              	@ 0 "" 2
 168              		.thumb
 169 0014 08BD     		pop	{r3, pc}
ARM GAS  /var/folders/7z/kps_xzfj7sn5l5gkyq8s9db00000gn/T//ccxQhDy0.s 			page 4


 170              	.L14:
 171 0016 00BF     		.align	2
 172              	.L13:
 173 0018 00000000 		.word	.LANCHOR1
 174              		.cfi_endproc
 175              	.LFE120:
 176              		.size	servodec_func, .-servodec_func
 177 001c AFF30080 		.section	.text.app_ppm_configure,"ax",%progbits
 178              		.align	2
 179              		.p2align 4,,15
 180              		.global	app_ppm_configure
 181              		.thumb
 182              		.thumb_func
 183              		.type	app_ppm_configure, %function
 184              	app_ppm_configure:
 185              	.LFB118:
 186              		.loc 1 58 0
 187              		.cfi_startproc
 188              		@ args = 0, pretend = 0, frame = 0
 189              		@ frame_needed = 0, uses_anonymous_args = 0
 190              	.LVL10:
 191 0000 F0B5     		push	{r4, r5, r6, r7, lr}
 192              		.cfi_def_cfa_offset 20
 193              		.cfi_offset 4, -20
 194              		.cfi_offset 5, -16
 195              		.cfi_offset 6, -12
 196              		.cfi_offset 7, -8
 197              		.cfi_offset 14, -4
 198              		.loc 1 59 0
 199 0002 0546     		mov	r5, r0
 200 0004 0FCD     		ldmia	r5!, {r0, r1, r2, r3}
 201              	.LVL11:
 202 0006 0D4E     		ldr	r6, .L19
 203              		.loc 1 60 0
 204 0008 DFF838E0 		ldr	lr, .L19+8
 205              		.loc 1 62 0
 206 000c 0C4F     		ldr	r7, .L19+4
 207              		.loc 1 59 0
 208 000e 3446     		mov	r4, r6
 209 0010 0FC4     		stmia	r4!, {r0, r1, r2, r3}
 210 0012 0FCD     		ldmia	r5!, {r0, r1, r2, r3}
 211              	.LVL12:
 212 0014 0FC4     		stmia	r4!, {r0, r1, r2, r3}
 213 0016 95E80300 		ldmia	r5, {r0, r1}
 214 001a 84E80300 		stmia	r4, {r0, r1}
 215              		.loc 1 60 0
 216 001e 0023     		movs	r3, #0
 217 0020 CEF80030 		str	r3, [lr]
 218              		.loc 1 62 0
 219 0024 3B78     		ldrb	r3, [r7]	@ zero_extendqisi2
 220 0026 03B9     		cbnz	r3, .L18
 221 0028 F0BD     		pop	{r4, r5, r6, r7, pc}
 222              	.LVL13:
 223              	.L18:
 224              		.loc 1 63 0
 225 002a 96ED030A 		flds	s0, [r6, #12]
 226 002e D6ED040A 		flds	s1, [r6, #16]
ARM GAS  /var/folders/7z/kps_xzfj7sn5l5gkyq8s9db00000gn/T//ccxQhDy0.s 			page 5


 227 0032 307D     		ldrb	r0, [r6, #20]	@ zero_extendqisi2
 228              		.loc 1 65 0
 229 0034 BDE8F040 		pop	{r4, r5, r6, r7, lr}
 230              		.cfi_restore 14
 231              		.cfi_restore 7
 232              		.cfi_restore 6
 233              		.cfi_restore 5
 234              		.cfi_restore 4
 235              		.cfi_def_cfa_offset 0
 236              		.loc 1 63 0
 237 0038 FFF7FEBF 		b	servodec_set_pulse_options
 238              	.LVL14:
 239              	.L20:
 240              		.align	2
 241              	.L19:
 242 003c 00000000 		.word	.LANCHOR2
 243 0040 00000000 		.word	.LANCHOR3
 244 0044 00000000 		.word	.LANCHOR4
 245              		.cfi_endproc
 246              	.LFE118:
 247              		.size	app_ppm_configure, .-app_ppm_configure
 248 0048 AFF30080 		.section	.text.app_ppm_start,"ax",%progbits
 248      AFF30080 
 249              		.align	2
 250              		.p2align 4,,15
 251              		.global	app_ppm_start
 252              		.thumb
 253              		.thumb_func
 254              		.type	app_ppm_start, %function
 255              	app_ppm_start:
 256              	.LFB119:
 257              		.loc 1 67 0
 258              		.cfi_startproc
 259              		@ args = 0, pretend = 0, frame = 0
 260              		@ frame_needed = 0, uses_anonymous_args = 0
 261 0000 10B5     		push	{r4, lr}
 262              		.cfi_def_cfa_offset 8
 263              		.cfi_offset 4, -8
 264              		.cfi_offset 14, -4
 265 0002 82B0     		sub	sp, sp, #8
 266              		.cfi_def_cfa_offset 16
 267              		.loc 1 68 0
 268 0004 0024     		movs	r4, #0
 269 0006 0094     		str	r4, [sp]
 270 0008 084B     		ldr	r3, .L23
 271 000a 0948     		ldr	r0, .L23+4
 272 000c 4FF4B361 		mov	r1, #1432
 273 0010 4022     		movs	r2, #64
 274 0012 FFF7FEFF 		bl	chThdCreateStatic
 275              	.LVL15:
 276              		.loc 1 70 0
 277              	@ 70 "lib/app/app_ppm.c" 1
 278 0016 72B6     		cpsid   i
 279              	@ 0 "" 2
 280              		.loc 1 71 0
 281              		.thumb
 282 0018 0648     		ldr	r0, .L23+8
ARM GAS  /var/folders/7z/kps_xzfj7sn5l5gkyq8s9db00000gn/T//ccxQhDy0.s 			page 6


 283 001a 074A     		ldr	r2, .L23+12
 284 001c 2346     		mov	r3, r4
 285 001e 0A21     		movs	r1, #10
 286 0020 FFF7FEFF 		bl	chVTSetI
 287              	.LVL16:
 288              		.loc 1 72 0
 289              	@ 72 "lib/app/app_ppm.c" 1
 290 0024 62B6     		cpsie   i
 291              	@ 0 "" 2
 292              		.loc 1 73 0
 293              		.thumb
 294 0026 02B0     		add	sp, sp, #8
 295              		.cfi_def_cfa_offset 8
 296              		@ sp needed
 297 0028 10BD     		pop	{r4, pc}
 298              	.L24:
 299 002a 00BF     		.align	2
 300              	.L23:
 301 002c 00000000 		.word	ppm_thread
 302 0030 00000000 		.word	.LANCHOR5
 303 0034 00000000 		.word	.LANCHOR0
 304 0038 00000000 		.word	update
 305              		.cfi_endproc
 306              	.LFE119:
 307              		.size	app_ppm_start, .-app_ppm_start
 308              		.global	vt
 309 003c AFF30080 		.section	.bss.is_running,"aw",%nobits
 310              		.set	.LANCHOR3,. + 0
 311              		.type	is_running, %object
 312              		.size	is_running, 1
 313              	is_running:
 314 0000 00       		.space	1
 315              		.section	.bss.ppm_tp,"aw",%nobits
 316              		.align	2
 317              		.set	.LANCHOR1,. + 0
 318              		.type	ppm_tp, %object
 319              		.size	ppm_tp, 4
 320              	ppm_tp:
 321 0000 00000000 		.space	4
 322              		.section	.bss.ppm_thread_wa,"aw",%nobits
 323              		.align	3
 324              		.set	.LANCHOR5,. + 0
 325              		.type	ppm_thread_wa, %object
 326              		.size	ppm_thread_wa, 1432
 327              	ppm_thread_wa:
 328 0000 00000000 		.space	1432
 328      00000000 
 328      00000000 
 328      00000000 
 328      00000000 
 329              		.section	.bss.pulses_without_power,"aw",%nobits
 330              		.align	2
 331              		.set	.LANCHOR4,. + 0
 332              		.type	pulses_without_power, %object
 333              		.size	pulses_without_power, 4
 334              	pulses_without_power:
 335 0000 00000000 		.space	4
ARM GAS  /var/folders/7z/kps_xzfj7sn5l5gkyq8s9db00000gn/T//ccxQhDy0.s 			page 7


 336              		.section	.rodata.str1.4,"aMS",%progbits,1
 337              		.align	2
 338              	.LC0:
 339 0000 4150505F 		.ascii	"APP_PPM\000"
 339      50504D00 
 340              		.section	.bss.vt,"aw",%nobits
 341              		.align	2
 342              		.set	.LANCHOR0,. + 0
 343              		.type	vt, %object
 344              		.size	vt, 20
 345              	vt:
 346 0000 00000000 		.space	20
 346      00000000 
 346      00000000 
 346      00000000 
 346      00000000 
 347              		.section	.bss.config,"aw",%nobits
 348              		.align	2
 349              		.set	.LANCHOR2,. + 0
 350              		.type	config, %object
 351              		.size	config, 40
 352              	config:
 353 0000 00000000 		.space	40
 353      00000000 
 353      00000000 
 353      00000000 
 353      00000000 
 354              		.text
 355              	.Letext0:
 356              		.file 2 "/Users/Baram/gcc-arm-none-eabi/arm-none-eabi/include/machine/_default_types.h"
 357              		.file 3 "/Users/Baram/gcc-arm-none-eabi/arm-none-eabi/include/stdint.h"
 358              		.file 4 "/Users/Baram/gcc-arm-none-eabi/lib/gcc/arm-none-eabi/4.9.3/include/stddef.h"
 359              		.file 5 "lib/ChibiOS_2.6.6/os/ports/GCC/ARMCMx/chtypes.h"
 360              		.file 6 "lib/ChibiOS_2.6.6/os/kernel/include/chlists.h"
 361              		.file 7 "lib/ChibiOS_2.6.6/os/kernel/include/chthreads.h"
 362              		.file 8 "lib/ChibiOS_2.6.6/os/ports/GCC/ARMCMx/chcore_v7m.h"
 363              		.file 9 "lib/ChibiOS_2.6.6/os/kernel/include/chvt.h"
 364              		.file 10 "lib/ChibiOS_2.6.6/os/kernel/include/chschd.h"
 365              		.file 11 "lib/ChibiOS_2.6.6/os/kernel/include/chmtx.h"
 366              		.file 12 "src/core/datatypes.h"
 367              		.file 13 "lib/ChibiOS_2.6.6/os/ports/common/ARMCMx/CMSIS/include/core_cm4.h"
 368              		.file 14 "lib/ChibiOS_2.6.6/os/kernel/include/chevents.h"
 369              		.file 15 "src/core/servo_dec.h"
 370              		.file 16 "src/core/timeout.h"