ARM GAS  /var/folders/bz/nn5481rn5xq59rb0mbj7x0880000gn/T//ccHcHkHf.s 			page 1


   1              		.syntax unified
   2              		.cpu cortex-m4
   3              		.eabi_attribute 27, 1
   4              		.eabi_attribute 28, 1
   5              		.fpu fpv4-sp-d16
   6              		.eabi_attribute 20, 1
   7              		.eabi_attribute 21, 1
   8              		.eabi_attribute 23, 3
   9              		.eabi_attribute 24, 1
  10              		.eabi_attribute 25, 1
  11              		.eabi_attribute 26, 1
  12              		.eabi_attribute 30, 2
  13              		.eabi_attribute 34, 1
  14              		.eabi_attribute 18, 4
  15              		.thumb
  16              		.file	"app_nunchuk.c"
  17              		.text
  18              	.Ltext0:
  19              		.cfi_sections	.debug_frame
  20              		.section	.text.output_thread,"ax",%progbits
  21              		.align	2
  22              		.p2align 4,,15
  23              		.thumb
  24              		.thumb_func
  25              		.type	output_thread, %function
  26              	output_thread:
  27              	.LFB123:
  28              		.file 1 "lib/app/app_nunchuk.c"
  29              		.loc 1 174 0
  30              		.cfi_startproc
  31              		@ Volatile: function does not return.
  32              		@ args = 0, pretend = 0, frame = 0
  33              		@ frame_needed = 0, uses_anonymous_args = 0
  34              	.LVL0:
  35 0000 08B5     		push	{r3, lr}
  36              		.cfi_def_cfa_offset 8
  37              		.cfi_offset 3, -8
  38              		.cfi_offset 14, -4
  39              		.loc 1 177 0
  40 0002 044B     		ldr	r3, .L5
  41 0004 044A     		ldr	r2, .L5+4
  42 0006 9B69     		ldr	r3, [r3, #24]
  43 0008 9A61     		str	r2, [r3, #24]
  44              	.LVL1:
  45              	.L2:
  46              		.loc 1 180 0 discriminator 1
  47 000a 0A20     		movs	r0, #10
  48 000c FFF7FEFF 		bl	chThdSleep
  49              	.LVL2:
  50              		.loc 1 432 0 discriminator 1
  51 0010 FBE7     		b	.L2
  52              	.L6:
  53 0012 00BF     		.align	2
  54              	.L5:
  55 0014 00000000 		.word	rlist
  56 0018 00000000 		.word	.LC0
  57              		.cfi_endproc
ARM GAS  /var/folders/bz/nn5481rn5xq59rb0mbj7x0880000gn/T//ccHcHkHf.s 			page 2


  58              	.LFE123:
  59              		.size	output_thread, .-output_thread
  60              		.section	.text.app_nunchuk_configure,"ax",%progbits
  61              		.align	2
  62              		.p2align 4,,15
  63              		.global	app_nunchuk_configure
  64              		.thumb
  65              		.thumb_func
  66              		.type	app_nunchuk_configure, %function
  67              	app_nunchuk_configure:
  68              	.LFB118:
  69              		.loc 1 58 0
  70              		.cfi_startproc
  71              		@ args = 0, pretend = 0, frame = 0
  72              		@ frame_needed = 0, uses_anonymous_args = 0
  73              		@ link register save eliminated.
  74              	.LVL3:
  75 0000 30B4     		push	{r4, r5}
  76              		.cfi_def_cfa_offset 8
  77              		.cfi_offset 4, -8
  78              		.cfi_offset 5, -4
  79              		.loc 1 59 0
  80 0002 0546     		mov	r5, r0
  81 0004 0FCD     		ldmia	r5!, {r0, r1, r2, r3}
  82              	.LVL4:
  83 0006 044C     		ldr	r4, .L9
  84 0008 0FC4     		stmia	r4!, {r0, r1, r2, r3}
  85 000a 95E80F00 		ldmia	r5, {r0, r1, r2, r3}
  86 000e 84E80F00 		stmia	r4, {r0, r1, r2, r3}
  87              		.loc 1 60 0
  88 0012 30BC     		pop	{r4, r5}
  89              		.cfi_restore 5
  90              		.cfi_restore 4
  91              		.cfi_def_cfa_offset 0
  92              	.LVL5:
  93 0014 7047     		bx	lr
  94              	.L10:
  95 0016 00BF     		.align	2
  96              	.L9:
  97 0018 00000000 		.word	.LANCHOR0
  98              		.cfi_endproc
  99              	.LFE118:
 100              		.size	app_nunchuk_configure, .-app_nunchuk_configure
 101              		.section	.text.app_nunchuk_start,"ax",%progbits
 102              		.align	2
 103              		.p2align 4,,15
 104              		.global	app_nunchuk_start
 105              		.thumb
 106              		.thumb_func
 107              		.type	app_nunchuk_start, %function
 108              	app_nunchuk_start:
 109              	.LFB119:
 110              		.loc 1 62 0
 111              		.cfi_startproc
 112              		@ args = 0, pretend = 0, frame = 0
 113              		@ frame_needed = 0, uses_anonymous_args = 0
 114 0000 30B5     		push	{r4, r5, lr}
ARM GAS  /var/folders/bz/nn5481rn5xq59rb0mbj7x0880000gn/T//ccHcHkHf.s 			page 3


 115              		.cfi_def_cfa_offset 12
 116              		.cfi_offset 4, -12
 117              		.cfi_offset 5, -8
 118              		.cfi_offset 14, -4
 119 0002 83B0     		sub	sp, sp, #12
 120              		.cfi_def_cfa_offset 24
 121              		.loc 1 63 0
 122 0004 064C     		ldr	r4, .L13
 123              		.loc 1 64 0
 124 0006 074B     		ldr	r3, .L13+4
 125 0008 0748     		ldr	r0, .L13+8
 126 000a 0022     		movs	r2, #0
 127 000c 0092     		str	r2, [sp]
 128              		.loc 1 63 0
 129 000e 8025     		movs	r5, #128
 130              		.loc 1 64 0
 131 0010 4FF4B361 		mov	r1, #1432
 132 0014 4022     		movs	r2, #64
 133              		.loc 1 63 0
 134 0016 6560     		str	r5, [r4, #4]
 135              		.loc 1 64 0
 136 0018 FFF7FEFF 		bl	chThdCreateStatic
 137              	.LVL6:
 138              		.loc 1 65 0
 139 001c 03B0     		add	sp, sp, #12
 140              		.cfi_def_cfa_offset 12
 141              		@ sp needed
 142 001e 30BD     		pop	{r4, r5, pc}
 143              	.L14:
 144              		.align	2
 145              	.L13:
 146 0020 00000000 		.word	.LANCHOR1
 147 0024 00000000 		.word	chuk_thread
 148 0028 00000000 		.word	.LANCHOR2
 149              		.cfi_endproc
 150              	.LFE119:
 151              		.size	app_nunchuk_start, .-app_nunchuk_start
 152              		.section	.text.app_nunchuk_get_decoded_chuk,"ax",%progbits
 153              		.align	2
 154              		.p2align 4,,15
 155              		.global	app_nunchuk_get_decoded_chuk
 156              		.thumb
 157              		.thumb_func
 158              		.type	app_nunchuk_get_decoded_chuk, %function
 159              	app_nunchuk_get_decoded_chuk:
 160              	.LFB120:
 161              		.loc 1 67 0
 162              		.cfi_startproc
 163              		@ args = 0, pretend = 0, frame = 0
 164              		@ frame_needed = 0, uses_anonymous_args = 0
 165              		@ link register save eliminated.
 166              		.loc 1 68 0
 167 0000 064B     		ldr	r3, .L16
 168 0002 9FED077A 		flds	s14, .L16+4
 169 0006 D3ED017A 		flds	s15, [r3, #4]	@ int
 170 000a 9FED060A 		flds	s0, .L16+8
 171 000e F8EEE77A 		fsitos	s15, s15
ARM GAS  /var/folders/bz/nn5481rn5xq59rb0mbj7x0880000gn/T//ccHcHkHf.s 			page 4


 172 0012 77EEC77A 		fsubs	s15, s15, s14
 173              		.loc 1 69 0
 174 0016 27EE800A 		fmuls	s0, s15, s0
 175 001a 7047     		bx	lr
 176              	.L17:
 177              		.align	2
 178              	.L16:
 179 001c 00000000 		.word	.LANCHOR1
 180 0020 00000043 		.word	1124073472
 181 0024 0000003C 		.word	1006632960
 182              		.cfi_endproc
 183              	.LFE120:
 184              		.size	app_nunchuk_get_decoded_chuk, .-app_nunchuk_get_decoded_chuk
 185              		.section	.text.app_nunchuk_update_output,"ax",%progbits
 186              		.align	2
 187              		.p2align 4,,15
 188              		.global	app_nunchuk_update_output
 189              		.thumb
 190              		.thumb_func
 191              		.type	app_nunchuk_update_output, %function
 192              	app_nunchuk_update_output:
 193              	.LFB121:
 194              		.loc 1 71 0
 195              		.cfi_startproc
 196              		@ args = 0, pretend = 0, frame = 0
 197              		@ frame_needed = 0, uses_anonymous_args = 0
 198              	.LVL7:
 199 0000 70B5     		push	{r4, r5, r6, lr}
 200              		.cfi_def_cfa_offset 16
 201              		.cfi_offset 4, -16
 202              		.cfi_offset 5, -12
 203              		.cfi_offset 6, -8
 204              		.cfi_offset 14, -4
 205              		.loc 1 72 0
 206 0002 104A     		ldr	r2, .L22
 207 0004 1378     		ldrb	r3, [r2]	@ zero_extendqisi2
 208              		.loc 1 71 0
 209 0006 82B0     		sub	sp, sp, #8
 210              		.cfi_def_cfa_offset 24
 211              		.loc 1 71 0
 212 0008 0446     		mov	r4, r0
 213              		.loc 1 72 0
 214 000a 03F0FF01 		and	r1, r3, #255
 215 000e 63B9     		cbnz	r3, .L19
 216              		.loc 1 75 0
 217 0010 0091     		str	r1, [sp]
 218              		.loc 1 74 0
 219 0012 0D4D     		ldr	r5, .L22+4
 220              		.loc 1 75 0
 221 0014 0D48     		ldr	r0, .L22+8
 222              	.LVL8:
 223 0016 0E4B     		ldr	r3, .L22+12
 224              		.loc 1 73 0
 225 0018 0121     		movs	r1, #1
 226 001a 1170     		strb	r1, [r2]
 227              		.loc 1 74 0
 228 001c 8026     		movs	r6, #128
ARM GAS  /var/folders/bz/nn5481rn5xq59rb0mbj7x0880000gn/T//ccHcHkHf.s 			page 5


 229              		.loc 1 75 0
 230 001e 4FF4B361 		mov	r1, #1432
 231 0022 4022     		movs	r2, #64
 232              		.loc 1 74 0
 233 0024 6E60     		str	r6, [r5, #4]
 234              		.loc 1 75 0
 235 0026 FFF7FEFF 		bl	chThdCreateStatic
 236              	.LVL9:
 237              	.L19:
 238              		.loc 1 78 0
 239 002a 0FCC     		ldmia	r4!, {r0, r1, r2, r3}
 240              	.LVL10:
 241 002c 064D     		ldr	r5, .L22+4
 242 002e 0FC5     		stmia	r5!, {r0, r1, r2, r3}
 243 0030 94E80300 		ldmia	r4, {r0, r1}
 244 0034 85E80300 		stmia	r5, {r0, r1}
 245              		.loc 1 80 0
 246 0038 02B0     		add	sp, sp, #8
 247              		.cfi_def_cfa_offset 16
 248              		@ sp needed
 249 003a BDE87040 		pop	{r4, r5, r6, lr}
 250              		.cfi_restore 14
 251              		.cfi_restore 6
 252              		.cfi_restore 5
 253              		.cfi_restore 4
 254              		.cfi_def_cfa_offset 0
 255              	.LVL11:
 256              		.loc 1 79 0
 257 003e FFF7FEBF 		b	timeout_reset
 258              	.LVL12:
 259              	.L23:
 260 0042 00BF     		.align	2
 261              	.L22:
 262 0044 00000000 		.word	.LANCHOR3
 263 0048 00000000 		.word	.LANCHOR1
 264 004c 00000000 		.word	.LANCHOR4
 265 0050 00000000 		.word	output_thread
 266              		.cfi_endproc
 267              	.LFE121:
 268              		.size	app_nunchuk_update_output, .-app_nunchuk_update_output
 269              		.section	.text.chuk_thread,"ax",%progbits
 270              		.align	2
 271              		.p2align 4,,15
 272              		.thumb
 273              		.thumb_func
 274              		.type	chuk_thread, %function
 275              	chuk_thread:
 276              	.LFB122:
 277              		.loc 1 82 0
 278              		.cfi_startproc
 279              		@ args = 0, pretend = 0, frame = 48
 280              		@ frame_needed = 0, uses_anonymous_args = 0
 281              	.LVL13:
 282 0000 2DE9F047 		push	{r4, r5, r6, r7, r8, r9, r10, lr}
 283              		.cfi_def_cfa_offset 32
 284              		.cfi_offset 4, -32
 285              		.cfi_offset 5, -28
ARM GAS  /var/folders/bz/nn5481rn5xq59rb0mbj7x0880000gn/T//ccHcHkHf.s 			page 6


 286              		.cfi_offset 6, -24
 287              		.cfi_offset 7, -20
 288              		.cfi_offset 8, -16
 289              		.cfi_offset 9, -12
 290              		.cfi_offset 10, -8
 291              		.cfi_offset 14, -4
 292              		.loc 1 85 0
 293 0004 634B     		ldr	r3, .L39
 294 0006 6449     		ldr	r1, .L39+4
 295 0008 9A69     		ldr	r2, [r3, #24]
 296              		.loc 1 86 0
 297 000a 644B     		ldr	r3, .L39+8
 298              		.loc 1 85 0
 299 000c 9161     		str	r1, [r2, #24]
 300              		.loc 1 82 0
 301 000e 90B0     		sub	sp, sp, #64
 302              		.cfi_def_cfa_offset 96
 303              		.loc 1 86 0
 304 0010 0122     		movs	r2, #1
 305 0012 634F     		ldr	r7, .L39+12
 306 0014 1A70     		strb	r2, [r3]
 307              	.LVL14:
 308              		.loc 1 95 0
 309 0016 FFF7FEFF 		bl	hw_start_i2c
 310              	.LVL15:
 311              		.loc 1 96 0
 312 001a 6420     		movs	r0, #100
 313 001c FFF7FEFF 		bl	chThdSleep
 314              	.LVL16:
 315 0020 604E     		ldr	r6, .L39+16
 316 0022 07F10408 		add	r8, r7, #4
 317 0026 BC1D     		adds	r4, r7, #6
 318 0028 04AD     		add	r5, sp, #16
 319 002a 0AE0     		b	.L32
 320              	.LVL17:
 321              	.L27:
 322              	.LBB2:
 323              		.loc 1 163 0
 324 002c 0223     		movs	r3, #2
 325 002e 3360     		str	r3, [r6]
 326              		.loc 1 164 0
 327 0030 FFF7FEFF 		bl	hw_try_restore_i2c
 328              	.LVL18:
 329              		.loc 1 165 0
 330 0034 4FF47A70 		mov	r0, #1000
 331 0038 FFF7FEFF 		bl	chThdSleep
 332              	.LVL19:
 333              	.L31:
 334              		.loc 1 168 0
 335 003c 6420     		movs	r0, #100
 336 003e FFF7FEFF 		bl	chThdSleep
 337              	.LVL20:
 338              	.L32:
 339              		.loc 1 101 0
 340 0042 F022     		movs	r2, #240
 341              		.loc 1 102 0
 342 0044 5523     		movs	r3, #85
ARM GAS  /var/folders/bz/nn5481rn5xq59rb0mbj7x0880000gn/T//ccHcHkHf.s 			page 7


 343              		.loc 1 103 0
 344 0046 5848     		ldr	r0, .L39+20
 345              		.loc 1 101 0
 346 0048 8DF81C20 		strb	r2, [sp, #28]
 347              		.loc 1 102 0
 348 004c 8DF81D30 		strb	r3, [sp, #29]
 349              		.loc 1 104 0
 350 0050 4FF03209 		mov	r9, #50
 351              		.loc 1 103 0
 352 0054 FFF7FEFF 		bl	i2cAcquireBus
 353              	.LVL21:
 354              		.loc 1 104 0
 355 0058 0023     		movs	r3, #0
 356 005a 0193     		str	r3, [sp, #4]
 357 005c 0095     		str	r5, [sp]
 358 005e CDF80890 		str	r9, [sp, #8]
 359 0062 5148     		ldr	r0, .L39+20
 360 0064 5221     		movs	r1, #82
 361 0066 07AA     		add	r2, sp, #28
 362 0068 0223     		movs	r3, #2
 363 006a FFF7FEFF 		bl	i2cMasterTransmitTimeout
 364              	.LVL22:
 365 006e 8246     		mov	r10, r0
 366              	.LVL23:
 367              		.loc 1 105 0
 368 0070 4D48     		ldr	r0, .L39+20
 369              	.LVL24:
 370 0072 FFF7FEFF 		bl	i2cReleaseBus
 371              	.LVL25:
 372              		.loc 1 108 0
 373 0076 BAF1000F 		cmp	r10, #0
 374 007a D7D1     		bne	.L27
 375              		.loc 1 109 0
 376 007c FB23     		movs	r3, #251
 377              		.loc 1 111 0
 378 007e 4A48     		ldr	r0, .L39+20
 379              		.loc 1 110 0
 380 0080 8DF81DA0 		strb	r10, [sp, #29]
 381              		.loc 1 109 0
 382 0084 8DF81C30 		strb	r3, [sp, #28]
 383              		.loc 1 111 0
 384 0088 FFF7FEFF 		bl	i2cAcquireBus
 385              	.LVL26:
 386              		.loc 1 112 0
 387 008c 8DE82004 		stmia	sp, {r5, r10}
 388 0090 CDF80890 		str	r9, [sp, #8]
 389 0094 4448     		ldr	r0, .L39+20
 390 0096 5221     		movs	r1, #82
 391 0098 07AA     		add	r2, sp, #28
 392 009a 0223     		movs	r3, #2
 393 009c FFF7FEFF 		bl	i2cMasterTransmitTimeout
 394              	.LVL27:
 395 00a0 8246     		mov	r10, r0
 396              	.LVL28:
 397              		.loc 1 113 0
 398 00a2 4148     		ldr	r0, .L39+20
 399              	.LVL29:
ARM GAS  /var/folders/bz/nn5481rn5xq59rb0mbj7x0880000gn/T//ccHcHkHf.s 			page 8


 400 00a4 FFF7FEFF 		bl	i2cReleaseBus
 401              	.LVL30:
 402              		.loc 1 117 0
 403 00a8 BAF1000F 		cmp	r10, #0
 404 00ac BED1     		bne	.L27
 405              		.loc 1 119 0
 406 00ae 3E48     		ldr	r0, .L39+20
 407              		.loc 1 118 0
 408 00b0 8DF81CA0 		strb	r10, [sp, #28]
 409              		.loc 1 119 0
 410 00b4 FFF7FEFF 		bl	i2cAcquireBus
 411              	.LVL31:
 412              		.loc 1 120 0
 413 00b8 8DE82004 		stmia	sp, {r5, r10}
 414 00bc CDF80890 		str	r9, [sp, #8]
 415 00c0 3948     		ldr	r0, .L39+20
 416 00c2 5221     		movs	r1, #82
 417 00c4 07AA     		add	r2, sp, #28
 418 00c6 0123     		movs	r3, #1
 419 00c8 FFF7FEFF 		bl	i2cMasterTransmitTimeout
 420              	.LVL32:
 421 00cc 8246     		mov	r10, r0
 422              	.LVL33:
 423              		.loc 1 121 0
 424 00ce 3648     		ldr	r0, .L39+20
 425              	.LVL34:
 426 00d0 FFF7FEFF 		bl	i2cReleaseBus
 427              	.LVL35:
 428              		.loc 1 125 0
 429 00d4 BAF1000F 		cmp	r10, #0
 430 00d8 A8D1     		bne	.L27
 431              		.loc 1 126 0
 432 00da 1E20     		movs	r0, #30
 433 00dc FFF7FEFF 		bl	chThdSleep
 434              	.LVL36:
 435              		.loc 1 128 0
 436 00e0 3148     		ldr	r0, .L39+20
 437 00e2 FFF7FEFF 		bl	i2cAcquireBus
 438              	.LVL37:
 439              		.loc 1 129 0
 440 00e6 CDF80090 		str	r9, [sp]
 441 00ea 2F48     		ldr	r0, .L39+20
 442 00ec 5221     		movs	r1, #82
 443 00ee 2A46     		mov	r2, r5
 444 00f0 0623     		movs	r3, #6
 445 00f2 FFF7FEFF 		bl	i2cMasterReceiveTimeout
 446              	.LVL38:
 447 00f6 8146     		mov	r9, r0
 448              	.LVL39:
 449              		.loc 1 130 0
 450 00f8 2B48     		ldr	r0, .L39+20
 451              	.LVL40:
 452 00fa FFF7FEFF 		bl	i2cReleaseBus
 453              	.LVL41:
 454              		.loc 1 134 0
 455 00fe B9F1000F 		cmp	r9, #0
 456 0102 93D1     		bne	.L27
ARM GAS  /var/folders/bz/nn5481rn5xq59rb0mbj7x0880000gn/T//ccHcHkHf.s 			page 9


 457 0104 264B     		ldr	r3, .L39+12
 458 0106 2946     		mov	r1, r5
 459 0108 0122     		movs	r2, #1
 460              	.L29:
 461              	.LVL42:
 462              	.LBB3:
 463              	.LBB4:
 464              		.loc 1 139 0
 465 010a 13F801EB 		ldrb	lr, [r3], #1	@ zero_extendqisi2
 466              	.LVL43:
 467 010e 11F8010B 		ldrb	r0, [r1], #1	@ zero_extendqisi2
 468              		.loc 1 140 0
 469 0112 8645     		cmp	lr, r0
 470 0114 18BF     		it	ne
 471 0116 0022     		movne	r2, #0
 472              	.LVL44:
 473              		.loc 1 138 0
 474 0118 A342     		cmp	r3, r4
 475 011a F6D1     		bne	.L29
 476              	.LBE4:
 477              		.loc 1 144 0
 478 011c 95E80300 		ldmia	r5, {r0, r1}
 479 0120 3860     		str	r0, [r7]
 480 0122 A8F80010 		strh	r1, [r8]	@ movhi
 481              		.loc 1 146 0
 482 0126 32B1     		cbz	r2, .L38
 483              	.LVL45:
 484              	.L30:
 485              		.loc 1 159 0
 486 0128 FFF7FEFF 		bl	timeout_has_timeout
 487              	.LVL46:
 488 012c 0028     		cmp	r0, #0
 489 012e 85D0     		beq	.L31
 490              		.loc 1 160 0
 491 0130 0123     		movs	r3, #1
 492 0132 3360     		str	r3, [r6]
 493 0134 82E7     		b	.L31
 494              	.LVL47:
 495              	.L38:
 496              		.loc 1 150 0
 497 0136 9DF81510 		ldrb	r1, [sp, #21]	@ zero_extendqisi2
 498 013a 9DF812E0 		ldrb	lr, [sp, #18]	@ zero_extendqisi2
 499              		.loc 1 152 0
 500 013e 9DF81430 		ldrb	r3, [sp, #20]	@ zero_extendqisi2
 501              	.LVL48:
 502              		.loc 1 151 0
 503 0142 9DF813C0 		ldrb	ip, [sp, #19]	@ zero_extendqisi2
 504              		.loc 1 147 0
 505 0146 3260     		str	r2, [r6]
 506              		.loc 1 150 0
 507 0148 C1F38100 		ubfx	r0, r1, #2, #2
 508              		.loc 1 151 0
 509 014c C1F30112 		ubfx	r2, r1, #4, #2
 510              	.LVL49:
 511              		.loc 1 150 0
 512 0150 40EA8E00 		orr	r0, r0, lr, lsl #2
 513              		.loc 1 151 0
ARM GAS  /var/folders/bz/nn5481rn5xq59rb0mbj7x0880000gn/T//ccHcHkHf.s 			page 10


 514 0154 42EA8C0C 		orr	ip, r2, ip, lsl #2
 515              		.loc 1 153 0
 516 0158 01F0010E 		and	lr, r1, #1
 517              		.loc 1 154 0
 518 015c C1F34002 		ubfx	r2, r1, #1, #1
 519              		.loc 1 152 0
 520 0160 9B00     		lsls	r3, r3, #2
 521 0162 43EA9113 		orr	r3, r3, r1, lsr #6
 522              		.loc 1 148 0
 523 0166 9DF81090 		ldrb	r9, [sp, #16]	@ zero_extendqisi2
 524              	.LVL50:
 525              		.loc 1 149 0
 526 016a 9DF81110 		ldrb	r1, [sp, #17]	@ zero_extendqisi2
 527              		.loc 1 150 0
 528 016e 0C90     		str	r0, [sp, #48]
 529              		.loc 1 153 0
 530 0170 8EF0010E 		eor	lr, lr, #1
 531              		.loc 1 154 0
 532 0174 82F00102 		eor	r2, r2, #1
 533              		.loc 1 156 0
 534 0178 0AA8     		add	r0, sp, #40
 535              		.loc 1 151 0
 536 017a CDF834C0 		str	ip, [sp, #52]
 537              		.loc 1 153 0
 538 017e 8DF83DE0 		strb	lr, [sp, #61]
 539              		.loc 1 154 0
 540 0182 8DF83C20 		strb	r2, [sp, #60]
 541              		.loc 1 152 0
 542 0186 0E93     		str	r3, [sp, #56]
 543              		.loc 1 148 0
 544 0188 CDF82890 		str	r9, [sp, #40]
 545              		.loc 1 149 0
 546 018c 0B91     		str	r1, [sp, #44]
 547              		.loc 1 156 0
 548 018e FFF7FEFF 		bl	app_nunchuk_update_output
 549              	.LVL51:
 550 0192 C9E7     		b	.L30
 551              	.L40:
 552              		.align	2
 553              	.L39:
 554 0194 00000000 		.word	rlist
 555 0198 10000000 		.word	.LC1
 556 019c 00000000 		.word	.LANCHOR5
 557 01a0 00000000 		.word	.LANCHOR6
 558 01a4 00000000 		.word	.LANCHOR7
 559 01a8 00000000 		.word	I2CD2
 560              	.LBE3:
 561              	.LBE2:
 562              		.cfi_endproc
 563              	.LFE122:
 564              		.size	chuk_thread, .-chuk_thread
 565              		.section	.bss.output_running,"aw",%nobits
 566              		.set	.LANCHOR3,. + 0
 567              		.type	output_running, %object
 568              		.size	output_running, 1
 569              	output_running:
 570 0000 00       		.space	1
ARM GAS  /var/folders/bz/nn5481rn5xq59rb0mbj7x0880000gn/T//ccHcHkHf.s 			page 11


 571              		.section	.bss.chuk_thread_wa,"aw",%nobits
 572              		.align	3
 573              		.set	.LANCHOR2,. + 0
 574              		.type	chuk_thread_wa, %object
 575              		.size	chuk_thread_wa, 1432
 576              	chuk_thread_wa:
 577 0000 00000000 		.space	1432
 577      00000000 
 577      00000000 
 577      00000000 
 577      00000000 
 578              		.section	.bss.output_thread_wa,"aw",%nobits
 579              		.align	3
 580              		.set	.LANCHOR4,. + 0
 581              		.type	output_thread_wa, %object
 582              		.size	output_thread_wa, 1432
 583              	output_thread_wa:
 584 0000 00000000 		.space	1432
 584      00000000 
 584      00000000 
 584      00000000 
 584      00000000 
 585              		.section	.bss.is_running,"aw",%nobits
 586              		.set	.LANCHOR5,. + 0
 587              		.type	is_running, %object
 588              		.size	is_running, 1
 589              	is_running:
 590 0000 00       		.space	1
 591              		.section	.bss.chuck_d,"aw",%nobits
 592              		.align	2
 593              		.set	.LANCHOR1,. + 0
 594              		.type	chuck_d, %object
 595              		.size	chuck_d, 24
 596              	chuck_d:
 597 0000 00000000 		.space	24
 597      00000000 
 597      00000000 
 597      00000000 
 597      00000000 
 598              		.section	.rodata.str1.4,"aMS",%progbits,1
 599              		.align	2
 600              	.LC0:
 601 0000 4E756E63 		.ascii	"Nunchuk output\000"
 601      68756B20 
 601      6F757470 
 601      757400
 602 000f 00       		.space	1
 603              	.LC1:
 604 0010 4E756E63 		.ascii	"Nunchuk i2c\000"
 604      68756B20 
 604      69326300 
 605              		.section	.bss.chuck_error,"aw",%nobits
 606              		.align	2
 607              		.set	.LANCHOR7,. + 0
 608              		.type	chuck_error, %object
 609              		.size	chuck_error, 4
 610              	chuck_error:
ARM GAS  /var/folders/bz/nn5481rn5xq59rb0mbj7x0880000gn/T//ccHcHkHf.s 			page 12


 611 0000 00000000 		.space	4
 612              		.section	.bss.last_buffer.10480,"aw",%nobits
 613              		.align	2
 614              		.set	.LANCHOR6,. + 0
 615              		.type	last_buffer.10480, %object
 616              		.size	last_buffer.10480, 10
 617              	last_buffer.10480:
 618 0000 00000000 		.space	10
 618      00000000 
 618      0000
 619              		.section	.bss.config,"aw",%nobits
 620              		.align	2
 621              		.set	.LANCHOR0,. + 0
 622              		.type	config, %object
 623              		.size	config, 32
 624              	config:
 625 0000 00000000 		.space	32
 625      00000000 
 625      00000000 
 625      00000000 
 625      00000000 
 626              		.text
 627              	.Letext0:
 628              		.file 2 "/Users/imac/Downloads/gcc-arm-none-eabi-4_9-2015q2/arm-none-eabi/include/machine/_default
 629              		.file 3 "/Users/imac/Downloads/gcc-arm-none-eabi-4_9-2015q2/arm-none-eabi/include/sys/_stdint.h"
 630              		.file 4 "/Users/imac/Downloads/gcc-arm-none-eabi-4_9-2015q2/lib/gcc/arm-none-eabi/4.9.3/include/st
 631              		.file 5 "lib/ChibiOS_2.6.6/os/ports/GCC/ARMCMx/chtypes.h"
 632              		.file 6 "lib/ChibiOS_2.6.6/os/kernel/include/chlists.h"
 633              		.file 7 "lib/ChibiOS_2.6.6/os/kernel/include/chthreads.h"
 634              		.file 8 "lib/ChibiOS_2.6.6/os/ports/GCC/ARMCMx/chcore_v7m.h"
 635              		.file 9 "lib/ChibiOS_2.6.6/os/kernel/include/chschd.h"
 636              		.file 10 "lib/ChibiOS_2.6.6/os/kernel/include/chmtx.h"
 637              		.file 11 "src/core/datatypes.h"
 638              		.file 12 "lib/ChibiOS_2.6.6/os/hal/platforms/STM32F4xx/stm32f4xx.h"
 639              		.file 13 "lib/ChibiOS_2.6.6/os/hal/platforms/STM32F4xx/stm32_dma.h"
 640              		.file 14 "lib/ChibiOS_2.6.6/os/hal/include/i2c.h"
 641              		.file 15 "lib/ChibiOS_2.6.6/os/hal/platforms/STM32/I2Cv1/i2c_lld.h"
 642              		.file 16 "lib/ChibiOS_2.6.6/os/ports/common/ARMCMx/CMSIS/include/core_cm4.h"
 643              		.file 17 "src/core/timeout.h"
 644              		.file 18 "lib/hwconf/hw.h"