ARM GAS  /var/folders/bz/nn5481rn5xq59rb0mbj7x0880000gn/T//cc8J9Emv.s 			page 1


   1              		.syntax unified
   2              		.cpu cortex-m4
   3              		.eabi_attribute 27, 1
   4              		.eabi_attribute 28, 1
   5              		.fpu fpv4-sp-d16
   6              		.eabi_attribute 20, 1
   7              		.eabi_attribute 21, 1
   8              		.eabi_attribute 23, 3
   9              		.eabi_attribute 24, 1
  10              		.eabi_attribute 25, 1
  11              		.eabi_attribute 26, 1
  12              		.eabi_attribute 30, 2
  13              		.eabi_attribute 34, 1
  14              		.eabi_attribute 18, 4
  15              		.thumb
  16              		.file	"bldc.c"
  17              		.text
  18              	.Ltext0:
  19              		.cfi_sections	.debug_frame
  20              		.section	.text.timer_thread,"ax",%progbits
  21              		.align	2
  22              		.p2align 4,,15
  23              		.thumb
  24              		.thumb_func
  25              		.type	timer_thread, %function
  26              	timer_thread:
  27              	.LFB123:
  28              		.file 1 "src/bldc/bldc.c"
  29              		.loc 1 233 0
  30              		.cfi_startproc
  31              		@ Volatile: function does not return.
  32              		@ args = 0, pretend = 0, frame = 0
  33              		@ frame_needed = 0, uses_anonymous_args = 0
  34              	.LVL0:
  35 0000 08B5     		push	{r3, lr}
  36              		.cfi_def_cfa_offset 8
  37              		.cfi_offset 3, -8
  38              		.cfi_offset 14, -4
  39              		.loc 1 236 0
  40 0002 054B     		ldr	r3, .L5
  41 0004 054A     		ldr	r2, .L5+4
  42 0006 9B69     		ldr	r3, [r3, #24]
  43 0008 9A61     		str	r2, [r3, #24]
  44              	.LVL1:
  45              	.L2:
  46              		.loc 1 239 0 discriminator 1
  47 000a FFF7FEFF 		bl	packet_timerfunc
  48              	.LVL2:
  49              		.loc 1 240 0 discriminator 1
  50 000e 0A20     		movs	r0, #10
  51 0010 FFF7FEFF 		bl	chThdSleep
  52              	.LVL3:
  53              		.loc 1 241 0 discriminator 1
  54 0014 F9E7     		b	.L2
  55              	.L6:
  56 0016 00BF     		.align	2
  57              	.L5:
ARM GAS  /var/folders/bz/nn5481rn5xq59rb0mbj7x0880000gn/T//cc8J9Emv.s 			page 2


  58 0018 00000000 		.word	rlist
  59 001c 00000000 		.word	.LC0
  60              		.cfi_endproc
  61              	.LFE123:
  62              		.size	timer_thread, .-timer_thread
  63              		.section	.text.sample_send_thread,"ax",%progbits
  64              		.align	2
  65              		.p2align 4,,15
  66              		.thumb
  67              		.thumb_func
  68              		.type	sample_send_thread, %function
  69              	sample_send_thread:
  70              	.LFB122:
  71              		.loc 1 194 0
  72              		.cfi_startproc
  73              		@ args = 0, pretend = 0, frame = 32
  74              		@ frame_needed = 0, uses_anonymous_args = 0
  75              	.LVL4:
  76 0000 2DE9F04F 		push	{r4, r5, r6, r7, r8, r9, r10, fp, lr}
  77              		.cfi_def_cfa_offset 36
  78              		.cfi_offset 4, -36
  79              		.cfi_offset 5, -32
  80              		.cfi_offset 6, -28
  81              		.cfi_offset 7, -24
  82              		.cfi_offset 8, -20
  83              		.cfi_offset 9, -16
  84              		.cfi_offset 10, -12
  85              		.cfi_offset 11, -8
  86              		.cfi_offset 14, -4
  87              		.loc 1 197 0
  88 0004 3D4B     		ldr	r3, .L14
  89              		.loc 1 199 0
  90 0006 3E4A     		ldr	r2, .L14+4
  91              		.loc 1 197 0
  92 0008 9B69     		ldr	r3, [r3, #24]
  93 000a 3E49     		ldr	r1, .L14+8
  94 000c DFF810B1 		ldr	fp, .L14+36
  95 0010 DFF810A1 		ldr	r10, .L14+40
  96 0014 DFF81091 		ldr	r9, .L14+44
  97 0018 DFF81081 		ldr	r8, .L14+48
  98 001c 3A4F     		ldr	r7, .L14+12
  99 001e 3B4E     		ldr	r6, .L14+16
 100 0020 3B4D     		ldr	r5, .L14+20
 101 0022 3C4C     		ldr	r4, .L14+24
 102 0024 9961     		str	r1, [r3, #24]
 103              		.loc 1 194 0
 104 0026 89B0     		sub	sp, sp, #36
 105              		.cfi_def_cfa_offset 72
 106              		.loc 1 199 0
 107 0028 1360     		str	r3, [r2]
 108              	.LVL5:
 109              	.L9:
 110              		.loc 1 202 0
 111 002a 0120     		movs	r0, #1
 112 002c FFF7FEFF 		bl	chEvtWaitAny
 113              	.LVL6:
 114              	.LBB4:
ARM GAS  /var/folders/bz/nn5481rn5xq59rb0mbj7x0880000gn/T//cc8J9Emv.s 			page 3


 115              		.loc 1 204 0
 116 0030 394B     		ldr	r3, .L14+28
 117 0032 1B68     		ldr	r3, [r3]
 118 0034 002B     		cmp	r3, #0
 119 0036 F8DD     		ble	.L9
 120 0038 0023     		movs	r3, #0
 121              	.LVL7:
 122              	.L8:
 123              	.LBB5:
 124              		.loc 1 208 0 discriminator 3
 125 003a 3BF81300 		ldrh	r0, [fp, r3, lsl #1]
 126              		.loc 1 209 0 discriminator 3
 127 003e 3BF81320 		ldrh	r2, [fp, r3, lsl #1]
 128 0042 8DF80D20 		strb	r2, [sp, #13]
 129              		.loc 1 210 0 discriminator 3
 130 0046 3AF81310 		ldrh	r1, [r10, r3, lsl #1]
 131              		.loc 1 211 0 discriminator 3
 132 004a 3AF813E0 		ldrh	lr, [r10, r3, lsl #1]
 133              		.loc 1 212 0 discriminator 3
 134 004e 39F81320 		ldrh	r2, [r9, r3, lsl #1]
 135              		.loc 1 211 0 discriminator 3
 136 0052 8DF80FE0 		strb	lr, [sp, #15]
 137              		.loc 1 213 0 discriminator 3
 138 0056 39F813E0 		ldrh	lr, [r9, r3, lsl #1]
 139 005a 8DF811E0 		strb	lr, [sp, #17]
 140              		.loc 1 212 0 discriminator 3
 141 005e 42F30722 		sbfx	r2, r2, #8, #8
 142              		.loc 1 214 0 discriminator 3
 143 0062 38F813E0 		ldrh	lr, [r8, r3, lsl #1]
 144              		.loc 1 212 0 discriminator 3
 145 0066 8DF81020 		strb	r2, [sp, #16]
 146              		.loc 1 220 0 discriminator 3
 147 006a 2C4A     		ldr	r2, .L14+32
 148              		.loc 1 215 0 discriminator 3
 149 006c 38F813C0 		ldrh	ip, [r8, r3, lsl #1]
 150 0070 8DF813C0 		strb	ip, [sp, #19]
 151              		.loc 1 208 0 discriminator 3
 152 0074 40F30720 		sbfx	r0, r0, #8, #8
 153              		.loc 1 210 0 discriminator 3
 154 0078 41F30721 		sbfx	r1, r1, #8, #8
 155              		.loc 1 214 0 discriminator 3
 156 007c 4EF3072E 		sbfx	lr, lr, #8, #8
 157              		.loc 1 208 0 discriminator 3
 158 0080 8DF80C00 		strb	r0, [sp, #12]
 159              	.LVL8:
 160              		.loc 1 210 0 discriminator 3
 161 0084 8DF80E10 		strb	r1, [sp, #14]
 162              	.LVL9:
 163              		.loc 1 216 0 discriminator 3
 164 0088 37F81300 		ldrh	r0, [r7, r3, lsl #1]
 165              		.loc 1 214 0 discriminator 3
 166 008c 8DF812E0 		strb	lr, [sp, #18]
 167              	.LVL10:
 168              		.loc 1 217 0 discriminator 3
 169 0090 37F81310 		ldrh	r1, [r7, r3, lsl #1]
 170              		.loc 1 218 0 discriminator 3
 171 0094 36F813C0 		ldrh	ip, [r6, r3, lsl #1]
ARM GAS  /var/folders/bz/nn5481rn5xq59rb0mbj7x0880000gn/T//cc8J9Emv.s 			page 4


 172              		.loc 1 219 0 discriminator 3
 173 0098 36F813E0 		ldrh	lr, [r6, r3, lsl #1]
 174              		.loc 1 220 0 discriminator 3
 175 009c D25C     		ldrb	r2, [r2, r3]	@ zero_extendqisi2
 176              		.loc 1 217 0 discriminator 3
 177 009e 8DF81510 		strb	r1, [sp, #21]
 178              		.loc 1 220 0 discriminator 3
 179 00a2 8DF81820 		strb	r2, [sp, #24]
 180              		.loc 1 221 0 discriminator 3
 181 00a6 35F81310 		ldrh	r1, [r5, r3, lsl #1]
 182              		.loc 1 222 0 discriminator 3
 183 00aa 35F81320 		ldrh	r2, [r5, r3, lsl #1]
 184 00ae 8DF81A20 		strb	r2, [sp, #26]
 185              		.loc 1 223 0 discriminator 3
 186 00b2 34F81320 		ldrh	r2, [r4, r3, lsl #1]
 187              		.loc 1 219 0 discriminator 3
 188 00b6 8DF817E0 		strb	lr, [sp, #23]
 189              		.loc 1 216 0 discriminator 3
 190 00ba 40F30720 		sbfx	r0, r0, #8, #8
 191              		.loc 1 221 0 discriminator 3
 192 00be 41F30721 		sbfx	r1, r1, #8, #8
 193              		.loc 1 224 0 discriminator 3
 194 00c2 34F813E0 		ldrh	lr, [r4, r3, lsl #1]
 195              		.loc 1 216 0 discriminator 3
 196 00c6 8DF81400 		strb	r0, [sp, #20]
 197              	.LVL11:
 198              		.loc 1 223 0 discriminator 3
 199 00ca 42F30722 		sbfx	r2, r2, #8, #8
 200              		.loc 1 218 0 discriminator 3
 201 00ce 4CF3072C 		sbfx	ip, ip, #8, #8
 202              		.loc 1 221 0 discriminator 3
 203 00d2 8DF81910 		strb	r1, [sp, #25]
 204              		.loc 1 226 0 discriminator 3
 205 00d6 03A8     		add	r0, sp, #12
 206 00d8 1121     		movs	r1, #17
 207              		.loc 1 224 0 discriminator 3
 208 00da 0193     		str	r3, [sp, #4]
 209              		.loc 1 218 0 discriminator 3
 210 00dc 8DF816C0 		strb	ip, [sp, #22]
 211              	.LVL12:
 212              		.loc 1 223 0 discriminator 3
 213 00e0 8DF81B20 		strb	r2, [sp, #27]
 214              	.LVL13:
 215              		.loc 1 224 0 discriminator 3
 216 00e4 8DF81CE0 		strb	lr, [sp, #28]
 217              		.loc 1 226 0 discriminator 3
 218 00e8 FFF7FEFF 		bl	commands_send_samples
 219              	.LVL14:
 220              	.LBE5:
 221              		.loc 1 204 0 discriminator 3
 222 00ec 0A4B     		ldr	r3, .L14+28
 223 00ee 1A68     		ldr	r2, [r3]
 224 00f0 019B     		ldr	r3, [sp, #4]
 225 00f2 0133     		adds	r3, r3, #1
 226              	.LVL15:
 227 00f4 9A42     		cmp	r2, r3
 228 00f6 A0DC     		bgt	.L8
ARM GAS  /var/folders/bz/nn5481rn5xq59rb0mbj7x0880000gn/T//cc8J9Emv.s 			page 5


 229 00f8 97E7     		b	.L9
 230              	.L15:
 231 00fa 00BF     		.align	2
 232              	.L14:
 233 00fc 00000000 		.word	rlist
 234 0100 00000000 		.word	.LANCHOR0
 235 0104 0C000000 		.word	.LC1
 236 0108 00000000 		.word	.LANCHOR6
 237 010c 00000000 		.word	.LANCHOR7
 238 0110 00000000 		.word	.LANCHOR9
 239 0114 00000000 		.word	.LANCHOR10
 240 0118 00000000 		.word	.LANCHOR1
 241 011c 00000000 		.word	.LANCHOR8
 242 0120 00000000 		.word	.LANCHOR2
 243 0124 00000000 		.word	.LANCHOR3
 244 0128 00000000 		.word	.LANCHOR4
 245 012c 00000000 		.word	.LANCHOR5
 246              	.LBE4:
 247              		.cfi_endproc
 248              	.LFE122:
 249              		.size	sample_send_thread, .-sample_send_thread
 250              		.section	.text.periodic_thread,"ax",%progbits
 251              		.align	2
 252              		.p2align 4,,15
 253              		.thumb
 254              		.thumb_func
 255              		.type	periodic_thread, %function
 256              	periodic_thread:
 257              	.LFB121:
 258              		.loc 1 144 0
 259              		.cfi_startproc
 260              		@ args = 0, pretend = 0, frame = 0
 261              		@ frame_needed = 0, uses_anonymous_args = 0
 262              	.LVL16:
 263 0000 38B5     		push	{r3, r4, r5, lr}
 264              		.cfi_def_cfa_offset 16
 265              		.cfi_offset 3, -16
 266              		.cfi_offset 4, -12
 267              		.cfi_offset 5, -8
 268              		.cfi_offset 14, -4
 269              		.loc 1 147 0
 270 0002 1D4B     		ldr	r3, .L32
 271 0004 1D4A     		ldr	r2, .L32+4
 272 0006 9B69     		ldr	r3, [r3, #24]
 273 0008 9A61     		str	r2, [r3, #24]
 274              	.LVL17:
 275              	.L22:
 276              	.LBB6:
 277              		.loc 1 153 0
 278 000a FFF7FEFF 		bl	mcpwm_get_state
 279              	.LVL18:
 280 000e 0228     		cmp	r0, #2
 281              		.loc 1 154 0
 282 0010 08BF     		it	eq
 283 0012 B7EE000A 		fconstseq	s0, #112
 284 0016 4FF00000 		mov	r0, #0
 285              		.loc 1 156 0
ARM GAS  /var/folders/bz/nn5481rn5xq59rb0mbj7x0880000gn/T//cc8J9Emv.s 			page 6


 286 001a 18BF     		it	ne
 287 001c 9FED180A 		fldsne	s0, .L32+8
 288 0020 FFF7FEFF 		bl	ledpwm_set_intensity
 289              	.LVL19:
 290              		.loc 1 159 0
 291 0024 FFF7FEFF 		bl	mcpwm_get_fault
 292              	.LVL20:
 293              		.loc 1 160 0
 294 0028 0546     		mov	r5, r0
 295 002a F8B1     		cbz	r0, .L31
 296              	.LVL21:
 297              	.LBB7:
 298              		.loc 1 166 0
 299 002c 0024     		movs	r4, #0
 300              	.LVL22:
 301              	.L20:
 302              		.loc 1 167 0 discriminator 3
 303 002e B7EE000A 		fconsts	s0, #112
 304 0032 0120     		movs	r0, #1
 305 0034 FFF7FEFF 		bl	ledpwm_set_intensity
 306              	.LVL23:
 307              		.loc 1 168 0 discriminator 3
 308 0038 40F6C410 		movw	r0, #2500
 309 003c FFF7FEFF 		bl	chThdSleep
 310              	.LVL24:
 311              		.loc 1 169 0 discriminator 3
 312 0040 0120     		movs	r0, #1
 313 0042 9FED100A 		flds	s0, .L32+12
 314              		.loc 1 166 0 discriminator 3
 315 0046 0444     		add	r4, r4, r0
 316              	.LVL25:
 317              		.loc 1 169 0 discriminator 3
 318 0048 FFF7FEFF 		bl	ledpwm_set_intensity
 319              	.LVL26:
 320              		.loc 1 170 0 discriminator 3
 321 004c 40F6C410 		movw	r0, #2500
 322 0050 FFF7FEFF 		bl	chThdSleep
 323              	.LVL27:
 324              		.loc 1 166 0 discriminator 3
 325 0054 AC42     		cmp	r4, r5
 326 0056 EAD1     		bne	.L20
 327              	.LBE7:
 328              		.loc 1 173 0
 329 0058 41F28830 		movw	r0, #5000
 330 005c FFF7FEFF 		bl	chThdSleep
 331              	.LVL28:
 332              	.L19:
 333              		.loc 1 179 0
 334 0060 FFF7FEFF 		bl	mcpwm_get_state
 335              	.LVL29:
 336              		.loc 1 188 0
 337 0064 6420     		movs	r0, #100
 338 0066 FFF7FEFF 		bl	chThdSleep
 339              	.LVL30:
 340              	.LBE6:
 341              		.loc 1 189 0
 342 006a CEE7     		b	.L22
ARM GAS  /var/folders/bz/nn5481rn5xq59rb0mbj7x0880000gn/T//cc8J9Emv.s 			page 7


 343              	.LVL31:
 344              	.L31:
 345              	.LBB8:
 346              		.loc 1 175 0
 347 006c 0120     		movs	r0, #1
 348              	.LVL32:
 349 006e 9FED050A 		flds	s0, .L32+12
 350 0072 FFF7FEFF 		bl	ledpwm_set_intensity
 351              	.LVL33:
 352 0076 F3E7     		b	.L19
 353              	.L33:
 354              		.align	2
 355              	.L32:
 356 0078 00000000 		.word	rlist
 357 007c 18000000 		.word	.LC2
 358 0080 CDCC4C3E 		.word	1045220557
 359 0084 00000000 		.word	0
 360              	.LBE8:
 361              		.cfi_endproc
 362              	.LFE121:
 363              		.size	periodic_thread, .-periodic_thread
 364              		.section	.text.debug_print_usb,"ax",%progbits
 365              		.align	2
 366              		.p2align 4,,15
 367              		.global	debug_print_usb
 368              		.thumb
 369              		.thumb_func
 370              		.type	debug_print_usb, %function
 371              	debug_print_usb:
 372              	.LFB119:
 373              		.loc 1 30 0
 374              		.cfi_startproc
 375              		@ args = 4, pretend = 16, frame = 24
 376              		@ frame_needed = 0, uses_anonymous_args = 1
 377              	.LVL34:
 378 0000 0FB4     		push	{r0, r1, r2, r3}
 379              		.cfi_def_cfa_offset 16
 380              		.cfi_offset 0, -16
 381              		.cfi_offset 1, -12
 382              		.cfi_offset 2, -8
 383              		.cfi_offset 3, -4
 384 0002 70B5     		push	{r4, r5, r6, lr}
 385              		.cfi_def_cfa_offset 32
 386              		.cfi_offset 4, -32
 387              		.cfi_offset 5, -28
 388              		.cfi_offset 6, -24
 389              		.cfi_offset 14, -20
 390 0004 86B0     		sub	sp, sp, #24
 391              		.cfi_def_cfa_offset 56
 392              		.loc 1 30 0
 393 0006 0AAC     		add	r4, sp, #40
 394              		.loc 1 46 0
 395 0008 114D     		ldr	r5, .L36
 396              		.loc 1 30 0
 397 000a 54F8046B 		ldr	r6, [r4], #4
 398              		.loc 1 46 0
 399 000e 2946     		mov	r1, r5
ARM GAS  /var/folders/bz/nn5481rn5xq59rb0mbj7x0880000gn/T//cc8J9Emv.s 			page 8


 400 0010 01A8     		add	r0, sp, #4
 401 0012 0023     		movs	r3, #0
 402 0014 4FF48062 		mov	r2, #1024
 403 0018 FFF7FEFF 		bl	msObjectInit
 404              	.LVL35:
 405              		.loc 1 51 0
 406 001c 2246     		mov	r2, r4
 407 001e 3146     		mov	r1, r6
 408 0020 01A8     		add	r0, sp, #4
 409              	.LVL36:
 410              		.loc 1 50 0
 411 0022 0094     		str	r4, [sp]
 412              		.loc 1 51 0
 413 0024 FFF7FEFF 		bl	chvprintf
 414              	.LVL37:
 415              		.loc 1 55 0
 416 0028 019B     		ldr	r3, [sp, #4]
 417 002a 01A8     		add	r0, sp, #4
 418              	.LVL38:
 419 002c 9B68     		ldr	r3, [r3, #8]
 420 002e 0021     		movs	r1, #0
 421 0030 9847     		blx	r3
 422              	.LVL39:
 423              		.loc 1 56 0
 424 0032 049C     		ldr	r4, [sp, #16]
 425              		.loc 1 61 0
 426 0034 0748     		ldr	r0, .L36+4
 427              		.loc 1 56 0
 428 0036 013C     		subs	r4, r4, #1
 429              	.LVL40:
 430              		.loc 1 61 0
 431 0038 2946     		mov	r1, r5
 432 003a 2246     		mov	r2, r4
 433 003c 0023     		movs	r3, #0
 434 003e FFF7FEFF 		bl	chOQWriteTimeout
 435              	.LVL41:
 436              		.loc 1 64 0
 437 0042 2046     		mov	r0, r4
 438 0044 06B0     		add	sp, sp, #24
 439              		.cfi_def_cfa_offset 32
 440              		@ sp needed
 441 0046 BDE87040 		pop	{r4, r5, r6, lr}
 442              		.cfi_restore 14
 443              		.cfi_restore 6
 444              		.cfi_restore 5
 445              		.cfi_restore 4
 446              		.cfi_def_cfa_offset 16
 447              	.LVL42:
 448 004a 04B0     		add	sp, sp, #16
 449              		.cfi_restore 3
 450              		.cfi_restore 2
 451              		.cfi_restore 1
 452              		.cfi_restore 0
 453              		.cfi_def_cfa_offset 0
 454 004c 7047     		bx	lr
 455              	.L37:
 456 004e 00BF     		.align	2
ARM GAS  /var/folders/bz/nn5481rn5xq59rb0mbj7x0880000gn/T//cc8J9Emv.s 			page 9


 457              	.L36:
 458 0050 00000000 		.word	.LANCHOR11
 459 0054 30000000 		.word	SDU1+48
 460              		.cfi_endproc
 461              	.LFE119:
 462              		.size	debug_print_usb, .-debug_print_usb
 463              		.section	.text.USB_Uart_Getch,"ax",%progbits
 464              		.align	2
 465              		.p2align 4,,15
 466              		.global	USB_Uart_Getch
 467              		.thumb
 468              		.thumb_func
 469              		.type	USB_Uart_Getch, %function
 470              	USB_Uart_Getch:
 471              	.LFB120:
 472              		.loc 1 67 0
 473              		.cfi_startproc
 474              		@ args = 0, pretend = 0, frame = 128
 475              		@ frame_needed = 0, uses_anonymous_args = 0
 476              	.LVL43:
 477 0000 00B5     		push	{lr}
 478              		.cfi_def_cfa_offset 4
 479              		.cfi_offset 14, -4
 480              		.loc 1 73 0
 481 0002 0648     		ldr	r0, .L40
 482 0004 0368     		ldr	r3, [r0]
 483              		.loc 1 67 0
 484 0006 A1B0     		sub	sp, sp, #132
 485              		.cfi_def_cfa_offset 136
 486              		.loc 1 73 0
 487 0008 5B68     		ldr	r3, [r3, #4]
 488 000a 6946     		mov	r1, sp
 489 000c 0122     		movs	r2, #1
 490 000e 9847     		blx	r3
 491              	.LVL44:
 492              		.loc 1 76 0
 493 0010 9DF80000 		ldrb	r0, [sp]	@ zero_extendqisi2
 494 0014 21B0     		add	sp, sp, #132
 495              		.cfi_def_cfa_offset 4
 496              		@ sp needed
 497 0016 5DF804FB 		ldr	pc, [sp], #4
 498              	.L41:
 499 001a 00BF     		.align	2
 500              	.L40:
 501 001c 00000000 		.word	SDU1
 502              		.cfi_endproc
 503              	.LFE120:
 504              		.size	USB_Uart_Getch, .-USB_Uart_Getch
 505              		.section	.text.main_dma_adc_handler,"ax",%progbits
 506              		.align	2
 507              		.p2align 4,,15
 508              		.global	main_dma_adc_handler
 509              		.thumb
 510              		.thumb_func
 511              		.type	main_dma_adc_handler, %function
 512              	main_dma_adc_handler:
 513              	.LFB124:
ARM GAS  /var/folders/bz/nn5481rn5xq59rb0mbj7x0880000gn/T//cc8J9Emv.s 			page 10


 514              		.loc 1 250 0
 515              		.cfi_startproc
 516              		@ args = 0, pretend = 0, frame = 0
 517              		@ frame_needed = 0, uses_anonymous_args = 0
 518              		@ link register save eliminated.
 519 0000 7047     		bx	lr
 520              		.cfi_endproc
 521              	.LFE124:
 522              		.size	main_dma_adc_handler, .-main_dma_adc_handler
 523 0002 00BF     		.section	.text.main_get_last_adc_isr_duration,"ax",%progbits
 524              		.align	2
 525              		.p2align 4,,15
 526              		.global	main_get_last_adc_isr_duration
 527              		.thumb
 528              		.thumb_func
 529              		.type	main_get_last_adc_isr_duration, %function
 530              	main_get_last_adc_isr_duration:
 531              	.LFB125:
 532              		.loc 1 258 0
 533              		.cfi_startproc
 534              		@ args = 0, pretend = 0, frame = 0
 535              		@ frame_needed = 0, uses_anonymous_args = 0
 536              		@ link register save eliminated.
 537              		.loc 1 259 0
 538 0000 014B     		ldr	r3, .L44
 539 0002 93ED000A 		flds	s0, [r3]
 540              		.loc 1 260 0
 541 0006 7047     		bx	lr
 542              	.L45:
 543              		.align	2
 544              	.L44:
 545 0008 00000000 		.word	.LANCHOR12
 546              		.cfi_endproc
 547              	.LFE125:
 548              		.size	main_get_last_adc_isr_duration, .-main_get_last_adc_isr_duration
 549              		.section	.text.main_sample_print_data,"ax",%progbits
 550              		.align	2
 551              		.p2align 4,,15
 552              		.global	main_sample_print_data
 553              		.thumb
 554              		.thumb_func
 555              		.type	main_sample_print_data, %function
 556              	main_sample_print_data:
 557              	.LFB126:
 558              		.loc 1 262 0
 559              		.cfi_startproc
 560              		@ args = 0, pretend = 0, frame = 0
 561              		@ frame_needed = 0, uses_anonymous_args = 0
 562              		@ link register save eliminated.
 563              	.LVL45:
 564 0000 7047     		bx	lr
 565              		.cfi_endproc
 566              	.LFE126:
 567              		.size	main_sample_print_data, .-main_sample_print_data
 568 0002 00BF     		.section	.text.test_dac_loop,"ax",%progbits
 569              		.align	2
 570              		.p2align 4,,15
ARM GAS  /var/folders/bz/nn5481rn5xq59rb0mbj7x0880000gn/T//cc8J9Emv.s 			page 11


 571              		.global	test_dac_loop
 572              		.thumb
 573              		.thumb_func
 574              		.type	test_dac_loop, %function
 575              	test_dac_loop:
 576              	.LFB127:
 577              		.loc 1 271 0
 578              		.cfi_startproc
 579              		@ Volatile: function does not return.
 580              		@ args = 0, pretend = 0, frame = 0
 581              		@ frame_needed = 0, uses_anonymous_args = 0
 582              		.loc 1 271 0
 583 0000 08B5     		push	{r3, lr}
 584              		.cfi_def_cfa_offset 8
 585              		.cfi_offset 3, -8
 586              		.cfi_offset 14, -4
 587 0002 0B4C     		ldr	r4, .L52
 588              	.LBB9:
 589              		.loc 1 280 0
 590 0004 0026     		movs	r6, #0
 591              		.loc 1 277 0
 592 0006 2546     		mov	r5, r4
 593              	.L48:
 594 0008 2088     		ldrh	r0, [r4]
 595 000a 00B2     		sxth	r0, r0
 596 000c FFF7FEFF 		bl	spi_dac_write_A
 597              	.LVL46:
 598              		.loc 1 278 0
 599 0010 2088     		ldrh	r0, [r4]
 600 0012 80B2     		uxth	r0, r0
 601 0014 431C     		adds	r3, r0, #1
 602 0016 9BB2     		uxth	r3, r3
 603 0018 00B2     		sxth	r0, r0
 604 001a 2380     		strh	r3, [r4]	@ movhi
 605 001c FFF7FEFF 		bl	spi_dac_write_B
 606              	.LVL47:
 607              		.loc 1 280 0
 608 0020 2388     		ldrh	r3, [r4]
 609 0022 1BB2     		sxth	r3, r3
 610 0024 B3F5006F 		cmp	r3, #2048
 611 0028 C8BF     		it	gt
 612 002a 2E80     		strhgt	r6, [r5]	@ movhi
 613 002c ECE7     		b	.L48
 614              	.L53:
 615 002e 00BF     		.align	2
 616              	.L52:
 617 0030 00000000 		.word	.LANCHOR13
 618              	.LBE9:
 619              		.cfi_endproc
 620              	.LFE127:
 621              		.size	test_dac_loop, .-test_dac_loop
 622              		.section	.text.bldc_init,"ax",%progbits
 623              		.align	2
 624              		.p2align 4,,15
 625              		.global	bldc_init
 626              		.thumb
 627              		.thumb_func
ARM GAS  /var/folders/bz/nn5481rn5xq59rb0mbj7x0880000gn/T//cc8J9Emv.s 			page 12


 628              		.type	bldc_init, %function
 629              	bldc_init:
 630              	.LFB128:
 631              		.loc 1 296 0
 632              		.cfi_startproc
 633              		@ args = 0, pretend = 0, frame = 320
 634              		@ frame_needed = 0, uses_anonymous_args = 0
 635 0000 00B5     		push	{lr}
 636              		.cfi_def_cfa_offset 4
 637              		.cfi_offset 14, -4
 638 0002 D1B0     		sub	sp, sp, #324
 639              		.cfi_def_cfa_offset 328
 640              		.loc 1 297 0
 641 0004 FFF7FEFF 		bl	halInit
 642              	.LVL48:
 643              		.loc 1 298 0
 644 0008 FFF7FEFF 		bl	chSysInit
 645              	.LVL49:
 646              		.loc 1 300 0
 647 000c 42F21070 		movw	r0, #10000
 648 0010 FFF7FEFF 		bl	chThdSleep
 649              	.LVL50:
 650              		.loc 1 302 0
 651 0014 FFF7FEFF 		bl	conf_general_init
 652              	.LVL51:
 653              		.loc 1 303 0
 654 0018 FFF7FEFF 		bl	hw_init_gpio
 655              	.LVL52:
 656              		.loc 1 306 0
 657 001c FFF7FEFF 		bl	spi_dac_hw_init
 658              	.LVL53:
 659              		.loc 1 308 0
 660 0020 FFF7FEFF 		bl	ledpwm_init
 661              	.LVL54:
 662              		.loc 1 312 0
 663 0024 24A8     		add	r0, sp, #144
 664 0026 FFF7FEFF 		bl	conf_general_read_mc_configuration
 665              	.LVL55:
 666              		.loc 1 313 0
 667 002a 24A8     		add	r0, sp, #144
 668 002c FFF7FEFF 		bl	mcpwm_init
 669              	.LVL56:
 670              		.loc 1 315 0
 671 0030 FFF7FEFF 		bl	commands_init
 672              	.LVL57:
 673              		.loc 1 316 0
 674 0034 FFF7FEFF 		bl	comm_usb_init
 675              	.LVL58:
 676              		.loc 1 319 0
 677 0038 01A8     		add	r0, sp, #4
 678 003a FFF7FEFF 		bl	conf_general_read_app_configuration
 679              	.LVL59:
 680              		.loc 1 320 0
 681 003e 01A8     		add	r0, sp, #4
 682 0040 FFF7FEFF 		bl	app_init
 683              	.LVL60:
 684              		.loc 1 322 0
ARM GAS  /var/folders/bz/nn5481rn5xq59rb0mbj7x0880000gn/T//cc8J9Emv.s 			page 13


 685 0044 FFF7FEFF 		bl	timeout_init
 686              	.LVL61:
 687              		.loc 1 323 0
 688 0048 0298     		ldr	r0, [sp, #8]
 689 004a 9DED030A 		flds	s0, [sp, #12]
 690 004e FFF7FEFF 		bl	timeout_configure
 691              	.LVL62:
 692              		.loc 1 340 0
 693 0052 0020     		movs	r0, #0
 694 0054 51B0     		add	sp, sp, #324
 695              		.cfi_def_cfa_offset 4
 696              		@ sp needed
 697 0056 5DF804FB 		ldr	pc, [sp], #4
 698              		.cfi_endproc
 699              	.LFE128:
 700              		.size	bldc_init, .-bldc_init
 701              		.global	__aeabi_f2d
 702 005a 00BF     		.section	.text.bldc_start,"ax",%progbits
 703              		.align	2
 704              		.p2align 4,,15
 705              		.global	bldc_start
 706              		.thumb
 707              		.thumb_func
 708              		.type	bldc_start, %function
 709              	bldc_start:
 710              	.LFB129:
 711              		.loc 1 346 0
 712              		.cfi_startproc
 713              		@ args = 0, pretend = 0, frame = 128
 714              		@ frame_needed = 0, uses_anonymous_args = 0
 715 0000 70B5     		push	{r4, r5, r6, lr}
 716              		.cfi_def_cfa_offset 16
 717              		.cfi_offset 4, -16
 718              		.cfi_offset 5, -12
 719              		.cfi_offset 6, -8
 720              		.cfi_offset 14, -4
 721 0002 2DED028B 		fstmfdd	sp!, {d8}
 722              		.cfi_def_cfa_offset 24
 723              		.cfi_offset 80, -24
 724              		.cfi_offset 81, -20
 725 0006 A2B0     		sub	sp, sp, #136
 726              		.cfi_def_cfa_offset 160
 727              		.loc 1 352 0
 728 0008 0026     		movs	r6, #0
 729 000a 0096     		str	r6, [sp]
 730 000c 254B     		ldr	r3, .L63
 731 000e 2648     		ldr	r0, .L63+4
 732 0010 264C     		ldr	r4, .L63+8
 733 0012 274D     		ldr	r5, .L63+12
 734              		.loc 1 369 0
 735 0014 9FED278A 		flds	s16, .L63+16
 736              		.loc 1 352 0
 737 0018 4FF4B361 		mov	r1, #1432
 738 001c 4022     		movs	r2, #64
 739 001e FFF7FEFF 		bl	chThdCreateStatic
 740              	.LVL63:
 741              		.loc 1 353 0
ARM GAS  /var/folders/bz/nn5481rn5xq59rb0mbj7x0880000gn/T//cc8J9Emv.s 			page 14


 742 0022 0096     		str	r6, [sp]
 743 0024 244B     		ldr	r3, .L63+20
 744 0026 2548     		ldr	r0, .L63+24
 745 0028 4FF4B361 		mov	r1, #1432
 746 002c 3F22     		movs	r2, #63
 747 002e FFF7FEFF 		bl	chThdCreateStatic
 748              	.LVL64:
 749              		.loc 1 354 0
 750 0032 0096     		str	r6, [sp]
 751 0034 224B     		ldr	r3, .L63+28
 752 0036 2348     		ldr	r0, .L63+32
 753 0038 4FF40671 		mov	r1, #536
 754 003c 4022     		movs	r2, #64
 755 003e FFF7FEFF 		bl	chThdCreateStatic
 756              	.LVL65:
 757 0042 01E0     		b	.L57
 758              	.LVL66:
 759              	.L58:
 760              		.loc 1 373 0
 761 0044 612B     		cmp	r3, #97
 762 0046 1CD0     		beq	.L62
 763              	.LVL67:
 764              	.L57:
 765              		.loc 1 362 0
 766 0048 0A20     		movs	r0, #10
 767 004a FFF7FEFF 		bl	chThdSleep
 768              	.LVL68:
 769              	.LBB10:
 770              	.LBB11:
 771              		.loc 1 73 0
 772 004e 2368     		ldr	r3, [r4]
 773 0050 1648     		ldr	r0, .L63+8
 774 0052 5B68     		ldr	r3, [r3, #4]
 775 0054 02A9     		add	r1, sp, #8
 776 0056 0122     		movs	r2, #1
 777 0058 9847     		blx	r3
 778              	.LVL69:
 779              		.loc 1 75 0
 780 005a 9DF80830 		ldrb	r3, [sp, #8]	@ zero_extendqisi2
 781              	.LBE11:
 782              	.LBE10:
 783              		.loc 1 367 0
 784 005e 712B     		cmp	r3, #113
 785 0060 F0D1     		bne	.L58
 786              		.loc 1 369 0
 787 0062 D5ED007A 		flds	s15, [r5]
 788 0066 77EE887A 		fadds	s15, s15, s16
 789              		.loc 1 370 0
 790 006a 17EE900A 		fmrs	r0, s15
 791              		.loc 1 369 0
 792 006e C5ED007A 		fsts	s15, [r5]
 793              		.loc 1 370 0
 794 0072 FFF7FEFF 		bl	__aeabi_f2d
 795              	.LVL70:
 796 0076 0246     		mov	r2, r0
 797 0078 0B46     		mov	r3, r1
 798 007a 1348     		ldr	r0, .L63+36
ARM GAS  /var/folders/bz/nn5481rn5xq59rb0mbj7x0880000gn/T//cc8J9Emv.s 			page 15


 799 007c FFF7FEFF 		bl	debug_print_usb
 800              	.LVL71:
 801 0080 E2E7     		b	.L57
 802              	.L62:
 803              		.loc 1 375 0
 804 0082 D5ED007A 		flds	s15, [r5]
 805 0086 77EEC87A 		fsubs	s15, s15, s16
 806              		.loc 1 376 0
 807 008a 17EE900A 		fmrs	r0, s15
 808              		.loc 1 375 0
 809 008e C5ED007A 		fsts	s15, [r5]
 810              		.loc 1 376 0
 811 0092 FFF7FEFF 		bl	__aeabi_f2d
 812              	.LVL72:
 813 0096 0246     		mov	r2, r0
 814 0098 0B46     		mov	r3, r1
 815 009a 0C48     		ldr	r0, .L63+40
 816 009c FFF7FEFF 		bl	debug_print_usb
 817              	.LVL73:
 818 00a0 D2E7     		b	.L57
 819              	.L64:
 820 00a2 00BF     		.align	2
 821              	.L63:
 822 00a4 00000000 		.word	periodic_thread
 823 00a8 00000000 		.word	.LANCHOR14
 824 00ac 00000000 		.word	SDU1
 825 00b0 00000000 		.word	.LANCHOR17
 826 00b4 0AD7233C 		.word	1008981770
 827 00b8 00000000 		.word	sample_send_thread
 828 00bc 00000000 		.word	.LANCHOR15
 829 00c0 00000000 		.word	timer_thread
 830 00c4 00000000 		.word	.LANCHOR16
 831 00c8 28000000 		.word	.LC3
 832 00cc 38000000 		.word	.LC4
 833              		.cfi_endproc
 834              	.LFE129:
 835              		.size	bldc_start, .-bldc_start
 836              		.global	qVelRef
 837              		.section	.bss.sample_at_start,"aw",%nobits
 838              		.align	2
 839              		.type	sample_at_start, %object
 840              		.size	sample_at_start, 4
 841              	sample_at_start:
 842 0000 00000000 		.space	4
 843              		.section	.data.sample_ready,"aw",%progbits
 844              		.align	2
 845              		.type	sample_ready, %object
 846              		.size	sample_ready, 4
 847              	sample_ready:
 848 0000 01000000 		.word	1
 849              		.section	.bss.timer_thread_wa,"aw",%nobits
 850              		.align	3
 851              		.set	.LANCHOR16,. + 0
 852              		.type	timer_thread_wa, %object
 853              		.size	timer_thread_wa, 536
 854              	timer_thread_wa:
 855 0000 00000000 		.space	536
ARM GAS  /var/folders/bz/nn5481rn5xq59rb0mbj7x0880000gn/T//cc8J9Emv.s 			page 16


 855      00000000 
 855      00000000 
 855      00000000 
 855      00000000 
 856              		.section	.bss.periodic_thread_wa,"aw",%nobits
 857              		.align	3
 858              		.set	.LANCHOR14,. + 0
 859              		.type	periodic_thread_wa, %object
 860              		.size	periodic_thread_wa, 1432
 861              	periodic_thread_wa:
 862 0000 00000000 		.space	1432
 862      00000000 
 862      00000000 
 862      00000000 
 862      00000000 
 863              		.section	.bss.qVelRef,"aw",%nobits
 864              		.align	2
 865              		.set	.LANCHOR17,. + 0
 866              		.type	qVelRef, %object
 867              		.size	qVelRef, 4
 868              	qVelRef:
 869 0000 00000000 		.space	4
 870              		.section	.bss.dacDataA,"aw",%nobits
 871              		.align	1
 872              		.set	.LANCHOR13,. + 0
 873              		.type	dacDataA, %object
 874              		.size	dacDataA, 2
 875              	dacDataA:
 876 0000 0000     		.space	2
 877              		.section	.bss.debug_usb_buff.11714,"aw",%nobits
 878              		.align	2
 879              		.set	.LANCHOR11,. + 0
 880              		.type	debug_usb_buff.11714, %object
 881              		.size	debug_usb_buff.11714, 1024
 882              	debug_usb_buff.11714:
 883 0000 00000000 		.space	1024
 883      00000000 
 883      00000000 
 883      00000000 
 883      00000000 
 884              		.section	.bss.start_comm,"aw",%nobits
 885              		.align	2
 886              		.type	start_comm, %object
 887              		.size	start_comm, 4
 888              	start_comm:
 889 0000 00000000 		.space	4
 890              		.section	.bss.ph3_samples,"aw",%nobits
 891              		.align	2
 892              		.set	.LANCHOR6,. + 0
 893              		.type	ph3_samples, %object
 894              		.size	ph3_samples, 4000
 895              	ph3_samples:
 896 0000 00000000 		.space	4000
 896      00000000 
 896      00000000 
 896      00000000 
 896      00000000 
ARM GAS  /var/folders/bz/nn5481rn5xq59rb0mbj7x0880000gn/T//cc8J9Emv.s 			page 17


 897              		.section	.bss.curr_fir_samples,"aw",%nobits
 898              		.align	2
 899              		.set	.LANCHOR9,. + 0
 900              		.type	curr_fir_samples, %object
 901              		.size	curr_fir_samples, 4000
 902              	curr_fir_samples:
 903 0000 00000000 		.space	4000
 903      00000000 
 903      00000000 
 903      00000000 
 903      00000000 
 904              		.section	.bss.f_sw_samples,"aw",%nobits
 905              		.align	2
 906              		.set	.LANCHOR10,. + 0
 907              		.type	f_sw_samples, %object
 908              		.size	f_sw_samples, 4000
 909              	f_sw_samples:
 910 0000 00000000 		.space	4000
 910      00000000 
 910      00000000 
 910      00000000 
 910      00000000 
 911              		.section	.bss.main_last_adc_duration,"aw",%nobits
 912              		.align	2
 913              		.set	.LANCHOR12,. + 0
 914              		.type	main_last_adc_duration, %object
 915              		.size	main_last_adc_duration, 4
 916              	main_last_adc_duration:
 917 0000 00000000 		.space	4
 918              		.section	.data.sample_len,"aw",%progbits
 919              		.align	2
 920              		.set	.LANCHOR1,. + 0
 921              		.type	sample_len, %object
 922              		.size	sample_len, 4
 923              	sample_len:
 924 0000 E8030000 		.word	1000
 925              		.section	.bss.vzero_samples,"aw",%nobits
 926              		.align	2
 927              		.set	.LANCHOR7,. + 0
 928              		.type	vzero_samples, %object
 929              		.size	vzero_samples, 4000
 930              	vzero_samples:
 931 0000 00000000 		.space	4000
 931      00000000 
 931      00000000 
 931      00000000 
 931      00000000 
 932              		.section	.bss.curr0_samples,"aw",%nobits
 933              		.align	2
 934              		.set	.LANCHOR2,. + 0
 935              		.type	curr0_samples, %object
 936              		.size	curr0_samples, 4000
 937              	curr0_samples:
 938 0000 00000000 		.space	4000
 938      00000000 
 938      00000000 
 938      00000000 
ARM GAS  /var/folders/bz/nn5481rn5xq59rb0mbj7x0880000gn/T//cc8J9Emv.s 			page 18


 938      00000000 
 939              		.section	.bss.sample_send_tp,"aw",%nobits
 940              		.align	2
 941              		.set	.LANCHOR0,. + 0
 942              		.type	sample_send_tp, %object
 943              		.size	sample_send_tp, 4
 944              	sample_send_tp:
 945 0000 00000000 		.space	4
 946              		.section	.rodata.str1.4,"aMS",%progbits,1
 947              		.align	2
 948              	.LC0:
 949 0000 6D736563 		.ascii	"msec_timer\000"
 949      5F74696D 
 949      657200
 950 000b 00       		.space	1
 951              	.LC1:
 952 000c 4D61696E 		.ascii	"Main sample\000"
 952      2073616D 
 952      706C6500 
 953              	.LC2:
 954 0018 4D61696E 		.ascii	"Main periodic\000"
 954      20706572 
 954      696F6469 
 954      6300
 955 0026 0000     		.space	2
 956              	.LC3:
 957 0028 456E7465 		.ascii	"Enter q : %f\015\012\000"
 957      72207120 
 957      3A202566 
 957      0D0A00
 958 0037 00       		.space	1
 959              	.LC4:
 960 0038 456E7465 		.ascii	"Enter a : %f\015\012\000"
 960      72206120 
 960      3A202566 
 960      0D0A00
 961              		.section	.bss.ph1_samples,"aw",%nobits
 962              		.align	2
 963              		.set	.LANCHOR4,. + 0
 964              		.type	ph1_samples, %object
 965              		.size	ph1_samples, 4000
 966              	ph1_samples:
 967 0000 00000000 		.space	4000
 967      00000000 
 967      00000000 
 967      00000000 
 967      00000000 
 968              		.section	.data.sample_int,"aw",%progbits
 969              		.align	2
 970              		.type	sample_int, %object
 971              		.size	sample_int, 4
 972              	sample_int:
 973 0000 01000000 		.word	1
 974              		.section	.bss.sample_send_thread_wa,"aw",%nobits
 975              		.align	3
 976              		.set	.LANCHOR15,. + 0
 977              		.type	sample_send_thread_wa, %object
ARM GAS  /var/folders/bz/nn5481rn5xq59rb0mbj7x0880000gn/T//cc8J9Emv.s 			page 19


 978              		.size	sample_send_thread_wa, 1432
 979              	sample_send_thread_wa:
 980 0000 00000000 		.space	1432
 980      00000000 
 980      00000000 
 980      00000000 
 980      00000000 
 981              		.section	.bss.was_start_sample,"aw",%nobits
 982              		.align	2
 983              		.type	was_start_sample, %object
 984              		.size	was_start_sample, 4
 985              	was_start_sample:
 986 0000 00000000 		.space	4
 987              		.section	.bss.status_samples,"aw",%nobits
 988              		.align	2
 989              		.set	.LANCHOR8,. + 0
 990              		.type	status_samples, %object
 991              		.size	status_samples, 2000
 992              	status_samples:
 993 0000 00000000 		.space	2000
 993      00000000 
 993      00000000 
 993      00000000 
 993      00000000 
 994              		.section	.bss.sample_now,"aw",%nobits
 995              		.align	2
 996              		.type	sample_now, %object
 997              		.size	sample_now, 4
 998              	sample_now:
 999 0000 00000000 		.space	4
 1000              		.section	.bss.curr1_samples,"aw",%nobits
 1001              		.align	2
 1002              		.set	.LANCHOR3,. + 0
 1003              		.type	curr1_samples, %object
 1004              		.size	curr1_samples, 4000
 1005              	curr1_samples:
 1006 0000 00000000 		.space	4000
 1006      00000000 
 1006      00000000 
 1006      00000000 
 1006      00000000 
 1007              		.section	.bss.ph2_samples,"aw",%nobits
 1008              		.align	2
 1009              		.set	.LANCHOR5,. + 0
 1010              		.type	ph2_samples, %object
 1011              		.size	ph2_samples, 4000
 1012              	ph2_samples:
 1013 0000 00000000 		.space	4000
 1013      00000000 
 1013      00000000 
 1013      00000000 
 1013      00000000 
 1014              		.text
 1015              	.Letext0:
 1016              		.file 2 "/Users/imac/Downloads/gcc-arm-none-eabi-4_9-2015q2/arm-none-eabi/include/machine/_default
 1017              		.file 3 "/Users/imac/Downloads/gcc-arm-none-eabi-4_9-2015q2/arm-none-eabi/include/sys/_stdint.h"
 1018              		.file 4 "/Users/imac/Downloads/gcc-arm-none-eabi-4_9-2015q2/lib/gcc/arm-none-eabi/4.9.3/include/st
ARM GAS  /var/folders/bz/nn5481rn5xq59rb0mbj7x0880000gn/T//cc8J9Emv.s 			page 20


 1019              		.file 5 "/Users/imac/Downloads/gcc-arm-none-eabi-4_9-2015q2/lib/gcc/arm-none-eabi/4.9.3/include/st
 1020              		.file 6 "lib/ChibiOS_2.6.6/os/ports/GCC/ARMCMx/chtypes.h"
 1021              		.file 7 "lib/ChibiOS_2.6.6/os/kernel/include/chlists.h"
 1022              		.file 8 "<built-in>"
 1023              		.file 9 "lib/ChibiOS_2.6.6/os/kernel/include/chthreads.h"
 1024              		.file 10 "lib/ChibiOS_2.6.6/os/ports/GCC/ARMCMx/chcore_v7m.h"
 1025              		.file 11 "lib/ChibiOS_2.6.6/os/kernel/include/chschd.h"
 1026              		.file 12 "lib/ChibiOS_2.6.6/os/kernel/include/chmtx.h"
 1027              		.file 13 "lib/ChibiOS_2.6.6/os/kernel/include/chevents.h"
 1028              		.file 14 "lib/ChibiOS_2.6.6/os/kernel/include/chqueues.h"
 1029              		.file 15 "lib/ChibiOS_2.6.6/os/kernel/include/chstreams.h"
 1030              		.file 16 "lib/ChibiOS_2.6.6/os/hal/include/usb.h"
 1031              		.file 17 "lib/ChibiOS_2.6.6/os/hal/platforms/STM32/OTGv1/usb_lld.h"
 1032              		.file 18 "lib/ChibiOS_2.6.6/os/hal/platforms/STM32/OTGv1/stm32_otg.h"
 1033              		.file 19 "lib/ChibiOS_2.6.6/os/hal/include/serial_usb.h"
 1034              		.file 20 "src/core/datatypes.h"
 1035              		.file 21 "lib/ChibiOS_2.6.6/os/various/memstreams.h"
 1036              		.file 22 "lib/ChibiOS_2.6.6/os/ports/common/ARMCMx/CMSIS/include/core_cm4.h"
 1037              		.file 23 "src/core/commands.h"
 1038              		.file 24 "src/core/ledpwm.h"
 1039              		.file 25 "src/bldc/mcpwm.h"
 1040              		.file 26 "lib/ChibiOS_2.6.6/os/various/chprintf.h"
 1041              		.file 27 "src/core/packet.h"
 1042              		.file 28 "lib/ChibiOS_2.6.6/os/hal/include/hal.h"
 1043              		.file 29 "lib/ChibiOS_2.6.6/os/kernel/include/chsys.h"
 1044              		.file 30 "src/core/conf_general.h"
 1045              		.file 31 "lib/hwconf/hw.h"
 1046              		.file 32 "src/core/comm_usb.h"
 1047              		.file 33 "lib/app/app.h"
 1048              		.file 34 "src/core/timeout.h"