ARM GAS  /var/folders/7z/kps_xzfj7sn5l5gkyq8s9db00000gn/T//ccZa3GMJ.s 			page 1


   1              		.syntax unified
   2              		.cpu cortex-m4
   3              		.eabi_attribute 27, 1
   4              		.eabi_attribute 28, 1
   5              		.fpu fpv4-sp-d16
   6              		.eabi_attribute 20, 1
   7              		.eabi_attribute 21, 1
   8              		.eabi_attribute 23, 3
   9              		.eabi_attribute 24, 1
  10              		.eabi_attribute 25, 1
  11              		.eabi_attribute 26, 1
  12              		.eabi_attribute 30, 2
  13              		.eabi_attribute 34, 1
  14              		.eabi_attribute 18, 4
  15              		.thumb
  16              		.file	"chcore_v7m.c"
  17              		.text
  18              	.Ltext0:
  19              		.cfi_sections	.debug_frame
  20              		.section	.text._port_switch_from_isr,"ax",%progbits
  21              		.align	2
  22              		.p2align 4,,15
  23              		.global	_port_switch_from_isr
  24              		.thumb
  25              		.thumb_func
  26              		.type	_port_switch_from_isr, %function
  27              	_port_switch_from_isr:
  28              	.LFB11:
  29              		.file 1 "lib/ChibiOS_2.6.6/os/ports/GCC/ARMCMx/chcore_v7m.c"
  30              		.loc 1 200 0
  31              		.cfi_startproc
  32              		@ Naked Function: prologue and epilogue provided by programmer.
  33              		@ Volatile: function does not return.
  34              		@ args = 0, pretend = 0, frame = 0
  35              		@ frame_needed = 0, uses_anonymous_args = 0
  36              		.loc 1 203 0
  37 0000 FFF7FEFF 		bl	chSchDoReschedule
  38              	.LVL0:
  39              		.loc 1 205 0
  40              	@ 205 "lib/ChibiOS_2.6.6/os/ports/GCC/ARMCMx/chcore_v7m.c" 1
  41              		_port_exit_from_isr:
  42              	@ 0 "" 2
  43              		.loc 1 209 0
  44              		.thumb
  45 0004 024B     		ldr	r3, .L4
  46 0006 4FF08052 		mov	r2, #268435456
  47 000a 5A60     		str	r2, [r3, #4]
  48              		.loc 1 210 0
  49              	@ 210 "lib/ChibiOS_2.6.6/os/ports/GCC/ARMCMx/chcore_v7m.c" 1
  50 000c 62B6     		cpsie   i
  51              	@ 0 "" 2
  52              		.thumb
  53              	.L2:
  54              		.loc 1 212 0 discriminator 1
  55 000e FEE7     		b	.L2
  56              	.L5:
  57              		.align	2
ARM GAS  /var/folders/7z/kps_xzfj7sn5l5gkyq8s9db00000gn/T//ccZa3GMJ.s 			page 2


  58              	.L4:
  59 0010 00ED00E0 		.word	-536810240
  60              		.cfi_endproc
  61              	.LFE11:
  62              		.size	_port_switch_from_isr, .-_port_switch_from_isr
  63 0014 AFF30080 		.section	.text.PendSVVector,"ax",%progbits
  63      AFF30080 
  63      AFF30080 
  64              		.align	2
  65              		.p2align 4,,15
  66              		.global	PendSVVector
  67              		.thumb
  68              		.thumb_func
  69              		.type	PendSVVector, %function
  70              	PendSVVector:
  71              	.LFB8:
  72              		.loc 1 93 0
  73              		.cfi_startproc
  74              		@ args = 0, pretend = 0, frame = 0
  75              		@ frame_needed = 0, uses_anonymous_args = 0
  76              		@ link register save eliminated.
  77              		.loc 1 98 0
  78 0000 054A     		ldr	r2, .L7
  79 0002 5368     		ldr	r3, [r2, #4]
  80 0004 23F00103 		bic	r3, r3, #1
  81 0008 5360     		str	r3, [r2, #4]
  82              		.loc 1 102 0
  83              	@ 102 "lib/ChibiOS_2.6.6/os/ports/GCC/ARMCMx/chcore_v7m.c" 1
  84 000a EFF30983 		mrs     r3, PSP
  85              	@ 0 "" 2
  86              	.LVL1:
  87              		.loc 1 106 0
  88              		.thumb
  89 000e 6833     		adds	r3, r3, #104
  90              	.LVL2:
  91              		.loc 1 109 0
  92              	@ 109 "lib/ChibiOS_2.6.6/os/ports/GCC/ARMCMx/chcore_v7m.c" 1
  93 0010 83F30988 		msr     PSP, r3
  94              	@ 0 "" 2
  95              		.thumb
  96 0014 7047     		bx	lr
  97              	.L8:
  98 0016 00BF     		.align	2
  99              	.L7:
 100 0018 30EF00E0 		.word	-536809680
 101              		.cfi_endproc
 102              	.LFE8:
 103              		.size	PendSVVector, .-PendSVVector
 104 001c AFF30080 		.section	.text._port_init,"ax",%progbits
 105              		.align	2
 106              		.p2align 4,,15
 107              		.global	_port_init
 108              		.thumb
 109              		.thumb_func
 110              		.type	_port_init, %function
 111              	_port_init:
 112              	.LFB9:
ARM GAS  /var/folders/7z/kps_xzfj7sn5l5gkyq8s9db00000gn/T//ccZa3GMJ.s 			page 3


 113              		.loc 1 120 0
 114              		.cfi_startproc
 115              		@ args = 0, pretend = 0, frame = 0
 116              		@ frame_needed = 0, uses_anonymous_args = 0
 117 0000 08B5     		push	{r3, lr}
 118              		.cfi_def_cfa_offset 8
 119              		.cfi_offset 3, -8
 120              		.cfi_offset 14, -4
 121              		.loc 1 123 0
 122 0002 094B     		ldr	r3, .L11
 123              		.loc 1 124 0
 124 0004 094A     		ldr	r2, .L11+4
 125              		.loc 1 123 0
 126 0006 0021     		movs	r1, #0
 127 0008 9960     		str	r1, [r3, #8]
 128              		.loc 1 127 0
 129 000a 0720     		movs	r0, #7
 130              		.loc 1 124 0
 131 000c DA60     		str	r2, [r3, #12]
 132              		.loc 1 127 0
 133 000e 1021     		movs	r1, #16
 134 0010 FFF7FEFF 		bl	nvicSetSystemHandlerPriority
 135              	.LVL3:
 136              		.loc 1 129 0
 137 0014 0A20     		movs	r0, #10
 138 0016 1021     		movs	r1, #16
 139 0018 FFF7FEFF 		bl	nvicSetSystemHandlerPriority
 140              	.LVL4:
 141              		.loc 1 131 0
 142 001c 0B20     		movs	r0, #11
 143 001e 8021     		movs	r1, #128
 144              		.loc 1 133 0
 145 0020 BDE80840 		pop	{r3, lr}
 146              		.cfi_restore 14
 147              		.cfi_restore 3
 148              		.cfi_def_cfa_offset 0
 149              		.loc 1 131 0
 150 0024 FFF7FEBF 		b	nvicSetSystemHandlerPriority
 151              	.LVL5:
 152              	.L12:
 153              		.align	2
 154              	.L11:
 155 0028 00ED00E0 		.word	-536810240
 156 002c 0003FA05 		.word	100270848
 157              		.cfi_endproc
 158              	.LFE9:
 159              		.size	_port_init, .-_port_init
 160              		.section	.text._port_irq_epilogue,"ax",%progbits
 161              		.align	2
 162              		.p2align 4,,15
 163              		.global	_port_irq_epilogue
 164              		.thumb
 165              		.thumb_func
 166              		.type	_port_irq_epilogue, %function
 167              	_port_irq_epilogue:
 168              	.LFB10:
 169              		.loc 1 150 0
ARM GAS  /var/folders/7z/kps_xzfj7sn5l5gkyq8s9db00000gn/T//ccZa3GMJ.s 			page 4


 170              		.cfi_startproc
 171              		@ args = 0, pretend = 0, frame = 0
 172              		@ frame_needed = 0, uses_anonymous_args = 0
 173              		@ link register save eliminated.
 174              		.loc 1 152 0
 175              	@ 152 "lib/ChibiOS_2.6.6/os/ports/GCC/ARMCMx/chcore_v7m.c" 1
 176 0000 72B6     		cpsid   i
 177              	@ 0 "" 2
 178              		.loc 1 153 0
 179              		.thumb
 180 0002 194B     		ldr	r3, .L20
 181 0004 5B68     		ldr	r3, [r3, #4]
 182 0006 1B05     		lsls	r3, r3, #20
 183 0008 1FD5     		bpl	.L14
 184              	.LBB7:
 185              	.LBB8:
 186              		.loc 1 159 0
 187              	@ 159 "lib/ChibiOS_2.6.6/os/ports/GCC/ARMCMx/chcore_v7m.c" 1
 188 000a F1EE10FA 		vmrs    APSR_nzcv, FPSCR
 189              	@ 0 "" 2
 190              		.loc 1 163 0
 191              	@ 163 "lib/ChibiOS_2.6.6/os/ports/GCC/ARMCMx/chcore_v7m.c" 1
 192 000e EFF30983 		mrs     r3, PSP
 193              	@ 0 "" 2
 194              	.LVL6:
 195              		.loc 1 170 0
 196              		.thumb
 197 0012 164A     		ldr	r2, .L20+4
 198              		.loc 1 168 0
 199 0014 4FF08071 		mov	r1, #16777216
 200              		.loc 1 170 0
 201 0018 D268     		ldr	r2, [r2, #12]
 202 001a 43F8082C 		str	r2, [r3, #-8]
 203              		.loc 1 168 0
 204 001e 43F84C1C 		str	r1, [r3, #-76]
 205              		.loc 1 167 0
 206 0022 A3F16802 		sub	r2, r3, #104
 207              	.LVL7:
 208              		.loc 1 172 0
 209              	@ 172 "lib/ChibiOS_2.6.6/os/ports/GCC/ARMCMx/chcore_v7m.c" 1
 210 0026 82F30988 		msr     PSP, r2
 211              	@ 0 "" 2
 212              		.loc 1 176 0
 213              		.thumb
 214 002a 1149     		ldr	r1, .L20+8
 215 002c 8A69     		ldr	r2, [r1, #24]
 216              	.LVL8:
 217 002e D07F     		ldrb	r0, [r2, #31]	@ zero_extendqisi2
 218 0030 68B1     		cbz	r0, .L15
 219 0032 0868     		ldr	r0, [r1]
 220 0034 9168     		ldr	r1, [r2, #8]
 221 0036 8268     		ldr	r2, [r0, #8]
 222 0038 8A42     		cmp	r2, r1
 223 003a 94BF     		ite	ls
 224 003c 0022     		movls	r2, #0
 225 003e 0122     		movhi	r2, #1
 226 0040 72B1     		cbz	r2, .L17
ARM GAS  /var/folders/7z/kps_xzfj7sn5l5gkyq8s9db00000gn/T//ccZa3GMJ.s 			page 5


 227              	.L19:
 228              		.loc 1 178 0
 229 0042 0C4A     		ldr	r2, .L20+12
 230 0044 43F8502C 		str	r2, [r3, #-80]
 231 0048 7047     		bx	lr
 232              	.LVL9:
 233              	.L14:
 234              	.LBE8:
 235              	.LBE7:
 236              		.loc 1 190 0
 237              	@ 190 "lib/ChibiOS_2.6.6/os/ports/GCC/ARMCMx/chcore_v7m.c" 1
 238 004a 62B6     		cpsie   i
 239              	@ 0 "" 2
 240              		.thumb
 241 004c 7047     		bx	lr
 242              	.LVL10:
 243              	.L15:
 244              	.LBB10:
 245              	.LBB9:
 246              		.loc 1 176 0
 247 004e 0868     		ldr	r0, [r1]
 248 0050 9168     		ldr	r1, [r2, #8]
 249 0052 8268     		ldr	r2, [r0, #8]
 250 0054 8A42     		cmp	r2, r1
 251 0056 34BF     		ite	cc
 252 0058 0022     		movcc	r2, #0
 253 005a 0122     		movcs	r2, #1
 254 005c 002A     		cmp	r2, #0
 255 005e F0D1     		bne	.L19
 256              	.L17:
 257              		.loc 1 183 0
 258 0060 054A     		ldr	r2, .L20+16
 259 0062 43F8502C 		str	r2, [r3, #-80]
 260 0066 7047     		bx	lr
 261              	.L21:
 262              		.align	2
 263              	.L20:
 264 0068 00ED00E0 		.word	-536810240
 265 006c 30EF00E0 		.word	-536809680
 266 0070 00000000 		.word	rlist
 267 0074 00000000 		.word	_port_switch_from_isr
 268 0078 04000000 		.word	_port_exit_from_isr
 269              	.LBE9:
 270              	.LBE10:
 271              		.cfi_endproc
 272              	.LFE10:
 273              		.size	_port_irq_epilogue, .-_port_irq_epilogue
 274 007c AFF30080 		.section	.text.SysTickVector,"ax",%progbits
 275              		.align	2
 276              		.p2align 4,,15
 277              		.global	SysTickVector
 278              		.thumb
 279              		.thumb_func
 280              		.type	SysTickVector, %function
 281              	SysTickVector:
 282              	.LFB7:
 283              		.loc 1 47 0
ARM GAS  /var/folders/7z/kps_xzfj7sn5l5gkyq8s9db00000gn/T//ccZa3GMJ.s 			page 6


 284              		.cfi_startproc
 285              		@ args = 0, pretend = 0, frame = 0
 286              		@ frame_needed = 0, uses_anonymous_args = 0
 287 0000 08B5     		push	{r3, lr}
 288              		.cfi_def_cfa_offset 8
 289              		.cfi_offset 3, -8
 290              		.cfi_offset 14, -4
 291              		.loc 1 51 0
 292              	@ 51 "lib/ChibiOS_2.6.6/os/ports/GCC/ARMCMx/chcore_v7m.c" 1
 293 0002 72B6     		cpsid   i
 294              	@ 0 "" 2
 295              		.loc 1 52 0
 296              		.thumb
 297 0004 FFF7FEFF 		bl	chSysTimerHandlerI
 298              	.LVL11:
 299              		.loc 1 53 0
 300              	@ 53 "lib/ChibiOS_2.6.6/os/ports/GCC/ARMCMx/chcore_v7m.c" 1
 301 0008 62B6     		cpsie   i
 302              	@ 0 "" 2
 303              		.loc 1 56 0
 304              		.thumb
 305 000a BDE80840 		pop	{r3, lr}
 306              		.cfi_restore 14
 307              		.cfi_restore 3
 308              		.cfi_def_cfa_offset 0
 309              		.loc 1 55 0
 310 000e FFF7FEBF 		b	_port_irq_epilogue
 311              	.LVL12:
 312              		.cfi_endproc
 313              	.LFE7:
 314              		.size	SysTickVector, .-SysTickVector
 315 0012 00BFAFF3 		.section	.text._port_switch,"ax",%progbits
 315      0080AFF3 
 315      0080AFF3 
 315      0080
 316              		.align	2
 317              		.p2align 4,,15
 318              		.global	_port_switch
 319              		.thumb
 320              		.thumb_func
 321              		.type	_port_switch, %function
 322              	_port_switch:
 323              	.LFB12:
 324              		.loc 1 229 0
 325              		.cfi_startproc
 326              		@ Naked Function: prologue and epilogue provided by programmer.
 327              		@ args = 0, pretend = 0, frame = 0
 328              		@ frame_needed = 0, uses_anonymous_args = 0
 329              	.LVL13:
 330              		.loc 1 231 0
 331              	@ 231 "lib/ChibiOS_2.6.6/os/ports/GCC/ARMCMx/chcore_v7m.c" 1
 332 0000 2DE9F04F 		push    {r4, r5, r6, r7, r8, r9, r10, r11, lr}
 333              	@ 0 "" 2
 334              		.loc 1 234 0
 335              	@ 234 "lib/ChibiOS_2.6.6/os/ports/GCC/ARMCMx/chcore_v7m.c" 1
 336 0004 2DED108A 		vpush   {s16-s31}
 337              	@ 0 "" 2
ARM GAS  /var/folders/7z/kps_xzfj7sn5l5gkyq8s9db00000gn/T//ccZa3GMJ.s 			page 7


 338              		.loc 1 237 0
 339              	@ 237 "lib/ChibiOS_2.6.6/os/ports/GCC/ARMCMx/chcore_v7m.c" 1
 340 0008 C1F80CD0 		str     sp, [r1, #12]                          
 341 000c D0F80CD0 		ldr     sp, [r0, #12]
 342              	@ 0 "" 2
 343              		.loc 1 241 0
 344              	@ 241 "lib/ChibiOS_2.6.6/os/ports/GCC/ARMCMx/chcore_v7m.c" 1
 345 0010 BDEC108A 		vpop    {s16-s31}
 346              	@ 0 "" 2
 347              		.loc 1 243 0
 348              	@ 243 "lib/ChibiOS_2.6.6/os/ports/GCC/ARMCMx/chcore_v7m.c" 1
 349 0014 BDE8F08F 		pop     {r4, r5, r6, r7, r8, r9, r10, r11, pc}
 350              	@ 0 "" 2
 351              		.loc 1 245 0
 352              		.thumb
 353              		.cfi_endproc
 354              	.LFE12:
 355              		.size	_port_switch, .-_port_switch
 356 0018 AFF30080 		.section	.text._port_thread_start,"ax",%progbits
 356      AFF30080 
 357              		.align	2
 358              		.p2align 4,,15
 359              		.global	_port_thread_start
 360              		.thumb
 361              		.thumb_func
 362              		.type	_port_thread_start, %function
 363              	_port_thread_start:
 364              	.LFB13:
 365              		.loc 1 252 0
 366              		.cfi_startproc
 367              		@ args = 0, pretend = 0, frame = 0
 368              		@ frame_needed = 0, uses_anonymous_args = 0
 369              		@ link register save eliminated.
 370              		.loc 1 254 0
 371              	@ 254 "lib/ChibiOS_2.6.6/os/ports/GCC/ARMCMx/chcore_v7m.c" 1
 372 0000 62B6     		cpsie   i
 373              	@ 0 "" 2
 374              		.loc 1 255 0
 375              	@ 255 "lib/ChibiOS_2.6.6/os/ports/GCC/ARMCMx/chcore_v7m.c" 1
 376 0002 2846     		mov     r0, r5                                 
 377 0004 A047     		blx     r4                                     
 378 0006 FFF7FEFF 		bl      chThdExit
 379              	@ 0 "" 2
 380              		.thumb
 381 000a 7047     		bx	lr
 382              		.cfi_endproc
 383              	.LFE13:
 384              		.size	_port_thread_start, .-_port_thread_start
 385 000c AFF30080 		.text
 386              	.Letext0:
 387              		.file 2 "/Users/Baram/gcc-arm-none-eabi/arm-none-eabi/include/machine/_default_types.h"
 388              		.file 3 "/Users/Baram/gcc-arm-none-eabi/arm-none-eabi/include/stdint.h"
 389              		.file 4 "lib/ChibiOS_2.6.6/os/ports/GCC/ARMCMx/chtypes.h"
 390              		.file 5 "lib/ChibiOS_2.6.6/os/kernel/include/chlists.h"
 391              		.file 6 "lib/ChibiOS_2.6.6/os/kernel/include/chthreads.h"
 392              		.file 7 "lib/ChibiOS_2.6.6/os/ports/GCC/ARMCMx/chcore_v7m.h"
 393              		.file 8 "lib/ChibiOS_2.6.6/os/ports/common/ARMCMx/nvic.h"
ARM GAS  /var/folders/7z/kps_xzfj7sn5l5gkyq8s9db00000gn/T//ccZa3GMJ.s 			page 8


 394              		.file 9 "lib/ChibiOS_2.6.6/os/kernel/include/chschd.h"
 395              		.file 10 "lib/ChibiOS_2.6.6/os/kernel/include/chmtx.h"
 396              		.file 11 "lib/ChibiOS_2.6.6/os/kernel/include/chsys.h"