ARM GAS  /var/folders/7z/kps_xzfj7sn5l5gkyq8s9db00000gn/T//ccOO866d.s 			page 1


   1              		.syntax unified
   2              		.cpu cortex-m4
   3              		.eabi_attribute 27, 1
   4              		.eabi_attribute 28, 1
   5              		.fpu fpv4-sp-d16
   6              		.eabi_attribute 20, 1
   7              		.eabi_attribute 21, 1
   8              		.eabi_attribute 23, 3
   9              		.eabi_attribute 24, 1
  10              		.eabi_attribute 25, 1
  11              		.eabi_attribute 26, 1
  12              		.eabi_attribute 30, 2
  13              		.eabi_attribute 34, 1
  14              		.eabi_attribute 18, 4
  15              		.thumb
  16              		.file	"chmtx.c"
  17              		.text
  18              	.Ltext0:
  19              		.cfi_sections	.debug_frame
  20              		.section	.text.chMtxInit,"ax",%progbits
  21              		.align	2
  22              		.p2align 4,,15
  23              		.global	chMtxInit
  24              		.thumb
  25              		.thumb_func
  26              		.type	chMtxInit, %function
  27              	chMtxInit:
  28              	.LFB7:
  29              		.file 1 "lib/ChibiOS_2.6.6/os/kernel/src/chmtx.c"
  30              		.loc 1 86 0
  31              		.cfi_startproc
  32              		@ args = 0, pretend = 0, frame = 0
  33              		@ frame_needed = 0, uses_anonymous_args = 0
  34              		@ link register save eliminated.
  35              	.LVL0:
  36              		.loc 1 91 0
  37 0000 0023     		movs	r3, #0
  38              		.loc 1 90 0
  39 0002 4060     		str	r0, [r0, #4]
  40 0004 0060     		str	r0, [r0]
  41              		.loc 1 91 0
  42 0006 8360     		str	r3, [r0, #8]
  43 0008 7047     		bx	lr
  44              		.cfi_endproc
  45              	.LFE7:
  46              		.size	chMtxInit, .-chMtxInit
  47 000a 00BFAFF3 		.section	.text.chMtxLockS,"ax",%progbits
  47      0080
  48              		.align	2
  49              		.p2align 4,,15
  50              		.global	chMtxLockS
  51              		.thumb
  52              		.thumb_func
  53              		.type	chMtxLockS, %function
  54              	chMtxLockS:
  55              	.LFB9:
  56              		.loc 1 121 0
ARM GAS  /var/folders/7z/kps_xzfj7sn5l5gkyq8s9db00000gn/T//ccOO866d.s 			page 2


  57              		.cfi_startproc
  58              		@ args = 0, pretend = 0, frame = 0
  59              		@ frame_needed = 0, uses_anonymous_args = 0
  60              	.LVL1:
  61              		.loc 1 122 0
  62 0000 304B     		ldr	r3, .L28
  63              		.loc 1 128 0
  64 0002 8268     		ldr	r2, [r0, #8]
  65              		.loc 1 121 0
  66 0004 70B5     		push	{r4, r5, r6, lr}
  67              		.cfi_def_cfa_offset 16
  68              		.cfi_offset 4, -16
  69              		.cfi_offset 5, -12
  70              		.cfi_offset 6, -8
  71              		.cfi_offset 14, -4
  72              		.loc 1 122 0
  73 0006 9C69     		ldr	r4, [r3, #24]
  74              	.LVL2:
  75              		.loc 1 128 0
  76 0008 002A     		cmp	r2, #0
  77 000a 55D0     		beq	.L3
  78              	.LBB27:
  79              		.loc 1 135 0
  80 000c A168     		ldr	r1, [r4, #8]
  81 000e 9368     		ldr	r3, [r2, #8]
  82 0010 9942     		cmp	r1, r3
  83 0012 0546     		mov	r5, r0
  84              	.LVL3:
  85 0014 06D9     		bls	.L5
  86              	.LVL4:
  87              	.L10:
  88              		.loc 1 139 0
  89 0016 137F     		ldrb	r3, [r2, #28]	@ zero_extendqisi2
  90              		.loc 1 137 0
  91 0018 9160     		str	r1, [r2, #8]
  92              		.loc 1 139 0
  93 001a 042B     		cmp	r3, #4
  94 001c 33D0     		beq	.L6
  95 001e 052B     		cmp	r3, #5
  96 0020 1DD0     		beq	.L7
  97 0022 9BB1     		cbz	r3, .L27
  98              	.LVL5:
  99              	.L5:
 100              	.LBB28:
 101              	.LBB29:
 102              		.file 2 "lib/ChibiOS_2.6.6/os/kernel/include/chinline.h"
 103              		.loc 2 43 0
 104 0024 2B46     		mov	r3, r5
 105 0026 03E0     		b	.L18
 106              	.LVL6:
 107              	.L17:
 108              		.loc 2 46 0
 109 0028 9968     		ldr	r1, [r3, #8]
 110 002a A268     		ldr	r2, [r4, #8]
 111 002c 9142     		cmp	r1, r2
 112 002e 02D3     		bcc	.L19
 113              	.L18:
ARM GAS  /var/folders/7z/kps_xzfj7sn5l5gkyq8s9db00000gn/T//ccOO866d.s 			page 3


 114              		.loc 2 45 0
 115 0030 1B68     		ldr	r3, [r3]
 116              	.LVL7:
 117              		.loc 2 46 0
 118 0032 9D42     		cmp	r5, r3
 119 0034 F8D1     		bne	.L17
 120              	.L19:
 121              		.loc 2 48 0
 122 0036 5A68     		ldr	r2, [r3, #4]
 123 0038 6260     		str	r2, [r4, #4]
 124              		.loc 2 47 0
 125 003a 2360     		str	r3, [r4]
 126              		.loc 2 49 0
 127 003c 5C60     		str	r4, [r3, #4]
 128 003e 1460     		str	r4, [r2]
 129              	.LBE29:
 130              	.LBE28:
 131              		.loc 1 174 0
 132 0040 6562     		str	r5, [r4, #36]
 133              		.loc 1 175 0
 134 0042 0420     		movs	r0, #4
 135              	.LBE27:
 136              		.loc 1 187 0
 137 0044 BDE87040 		pop	{r4, r5, r6, lr}
 138              		.cfi_remember_state
 139              		.cfi_restore 14
 140              		.cfi_restore 6
 141              		.cfi_restore 5
 142              		.cfi_restore 4
 143              		.cfi_def_cfa_offset 0
 144              	.LVL8:
 145              	.LBB46:
 146              		.loc 1 175 0
 147 0048 FFF7FEBF 		b	chSchGoSleepS
 148              	.LVL9:
 149              	.L27:
 150              		.cfi_restore_state
 151              	.LBB30:
 152              	.LBB31:
 153              		.loc 2 75 0
 154 004c 92E80A00 		ldmia	r2, {r1, r3}
 155 0050 1960     		str	r1, [r3]
 156              		.loc 2 76 0
 157 0052 1168     		ldr	r1, [r2]
 158              	.LBE31:
 159              	.LBE30:
 160              		.loc 1 167 0
 161 0054 1046     		mov	r0, r2
 162              	.LBB33:
 163              	.LBB32:
 164              		.loc 2 76 0
 165 0056 4B60     		str	r3, [r1, #4]
 166              	.LBE32:
 167              	.LBE33:
 168              		.loc 1 167 0
 169 0058 FFF7FEFF 		bl	chSchReadyI
 170              	.LVL10:
ARM GAS  /var/folders/7z/kps_xzfj7sn5l5gkyq8s9db00000gn/T//ccOO866d.s 			page 4


 171              		.loc 1 168 0
 172 005c E2E7     		b	.L5
 173              	.LVL11:
 174              	.L7:
 175              	.LBB34:
 176              	.LBB35:
 177              		.loc 2 75 0
 178 005e 92E80900 		ldmia	r2, {r0, r3}
 179 0062 1860     		str	r0, [r3]
 180              	.LBE35:
 181              	.LBE34:
 182              		.loc 1 158 0
 183 0064 566A     		ldr	r6, [r2, #36]
 184              	.LVL12:
 185              	.LBB37:
 186              	.LBB36:
 187              		.loc 2 76 0
 188 0066 1068     		ldr	r0, [r2]
 189 0068 4360     		str	r3, [r0, #4]
 190              	.LBE36:
 191              	.LBE37:
 192              	.LBB38:
 193              	.LBB39:
 194              		.loc 2 43 0
 195 006a 3346     		mov	r3, r6
 196 006c 02E0     		b	.L15
 197              	.LVL13:
 198              	.L14:
 199              		.loc 2 46 0
 200 006e 9868     		ldr	r0, [r3, #8]
 201 0070 8842     		cmp	r0, r1
 202 0072 02D3     		bcc	.L16
 203              	.L15:
 204              		.loc 2 45 0
 205 0074 1B68     		ldr	r3, [r3]
 206              	.LVL14:
 207              		.loc 2 46 0
 208 0076 9E42     		cmp	r6, r3
 209 0078 F9D1     		bne	.L14
 210              	.L16:
 211              		.loc 2 48 0
 212 007a 5968     		ldr	r1, [r3, #4]
 213 007c 5160     		str	r1, [r2, #4]
 214              		.loc 2 47 0
 215 007e 1360     		str	r3, [r2]
 216              		.loc 2 49 0
 217 0080 5A60     		str	r2, [r3, #4]
 218 0082 0A60     		str	r2, [r1]
 219 0084 CEE7     		b	.L5
 220              	.LVL15:
 221              	.L6:
 222              	.LBE39:
 223              	.LBE38:
 224              	.LBB40:
 225              	.LBB41:
 226              		.loc 2 75 0
 227 0086 92E80900 		ldmia	r2, {r0, r3}
ARM GAS  /var/folders/7z/kps_xzfj7sn5l5gkyq8s9db00000gn/T//ccOO866d.s 			page 5


 228 008a 1860     		str	r0, [r3]
 229              	.LBE41:
 230              	.LBE40:
 231              		.loc 1 142 0
 232 008c 566A     		ldr	r6, [r2, #36]
 233              	.LVL16:
 234              	.LBB43:
 235              	.LBB42:
 236              		.loc 2 76 0
 237 008e 1068     		ldr	r0, [r2]
 238 0090 4360     		str	r3, [r0, #4]
 239              	.LBE42:
 240              	.LBE43:
 241              		.loc 1 142 0
 242 0092 3346     		mov	r3, r6
 243 0094 02E0     		b	.L12
 244              	.LVL17:
 245              	.L9:
 246              	.LBB44:
 247              	.LBB45:
 248              		.loc 2 46 0
 249 0096 9868     		ldr	r0, [r3, #8]
 250 0098 8842     		cmp	r0, r1
 251 009a 02D3     		bcc	.L13
 252              	.L12:
 253              		.loc 2 45 0
 254 009c 1B68     		ldr	r3, [r3]
 255              	.LVL18:
 256              		.loc 2 46 0
 257 009e 9E42     		cmp	r6, r3
 258 00a0 F9D1     		bne	.L9
 259              	.L13:
 260              		.loc 2 48 0
 261 00a2 5968     		ldr	r1, [r3, #4]
 262 00a4 5160     		str	r1, [r2, #4]
 263              		.loc 2 47 0
 264 00a6 1360     		str	r3, [r2]
 265              		.loc 2 49 0
 266 00a8 5A60     		str	r2, [r3, #4]
 267 00aa 0A60     		str	r2, [r1]
 268              	.LBE45:
 269              	.LBE44:
 270              		.loc 1 143 0
 271 00ac B268     		ldr	r2, [r6, #8]
 272              	.LVL19:
 273              		.loc 1 135 0
 274 00ae A168     		ldr	r1, [r4, #8]
 275 00b0 9368     		ldr	r3, [r2, #8]
 276              	.LVL20:
 277 00b2 8B42     		cmp	r3, r1
 278 00b4 AFD3     		bcc	.L10
 279 00b6 B5E7     		b	.L5
 280              	.LVL21:
 281              	.L3:
 282              	.LBE46:
 283              		.loc 1 184 0
 284 00b8 E36B     		ldr	r3, [r4, #60]
ARM GAS  /var/folders/7z/kps_xzfj7sn5l5gkyq8s9db00000gn/T//ccOO866d.s 			page 6


 285 00ba C360     		str	r3, [r0, #12]
 286              		.loc 1 183 0
 287 00bc 8460     		str	r4, [r0, #8]
 288              		.loc 1 185 0
 289 00be E063     		str	r0, [r4, #60]
 290 00c0 70BD     		pop	{r4, r5, r6, pc}
 291              	.LVL22:
 292              	.L29:
 293 00c2 00BF     		.align	2
 294              	.L28:
 295 00c4 00000000 		.word	rlist
 296              		.cfi_endproc
 297              	.LFE9:
 298              		.size	chMtxLockS, .-chMtxLockS
 299 00c8 AFF30080 		.section	.text.chMtxLock,"ax",%progbits
 299      AFF30080 
 300              		.align	2
 301              		.p2align 4,,15
 302              		.global	chMtxLock
 303              		.thumb
 304              		.thumb_func
 305              		.type	chMtxLock, %function
 306              	chMtxLock:
 307              	.LFB8:
 308              		.loc 1 103 0
 309              		.cfi_startproc
 310              		@ args = 0, pretend = 0, frame = 0
 311              		@ frame_needed = 0, uses_anonymous_args = 0
 312              	.LVL23:
 313 0000 08B5     		push	{r3, lr}
 314              		.cfi_def_cfa_offset 8
 315              		.cfi_offset 3, -8
 316              		.cfi_offset 14, -4
 317              		.loc 1 105 0
 318              	@ 105 "lib/ChibiOS_2.6.6/os/kernel/src/chmtx.c" 1
 319 0002 72B6     		cpsid   i
 320              	@ 0 "" 2
 321              		.loc 1 107 0
 322              		.thumb
 323 0004 FFF7FEFF 		bl	chMtxLockS
 324              	.LVL24:
 325              		.loc 1 109 0
 326              	@ 109 "lib/ChibiOS_2.6.6/os/kernel/src/chmtx.c" 1
 327 0008 62B6     		cpsie   i
 328              	@ 0 "" 2
 329              		.thumb
 330 000a 08BD     		pop	{r3, pc}
 331              		.cfi_endproc
 332              	.LFE8:
 333              		.size	chMtxLock, .-chMtxLock
 334 000c AFF30080 		.section	.text.chMtxTryLock,"ax",%progbits
 335              		.align	2
 336              		.p2align 4,,15
 337              		.global	chMtxTryLock
 338              		.thumb
 339              		.thumb_func
 340              		.type	chMtxTryLock, %function
ARM GAS  /var/folders/7z/kps_xzfj7sn5l5gkyq8s9db00000gn/T//ccOO866d.s 			page 7


 341              	chMtxTryLock:
 342              	.LFB10:
 343              		.loc 1 206 0
 344              		.cfi_startproc
 345              		@ args = 0, pretend = 0, frame = 0
 346              		@ frame_needed = 0, uses_anonymous_args = 0
 347              		@ link register save eliminated.
 348              	.LVL25:
 349              		.loc 1 206 0
 350 0000 0346     		mov	r3, r0
 351              		.loc 1 209 0
 352              	@ 209 "lib/ChibiOS_2.6.6/os/kernel/src/chmtx.c" 1
 353 0002 72B6     		cpsid   i
 354              	@ 0 "" 2
 355              	.LVL26:
 356              		.thumb
 357              	.LBB51:
 358              	.LBB52:
 359              		.loc 1 239 0
 360 0004 8268     		ldr	r2, [r0, #8]
 361              		.loc 1 240 0
 362 0006 0020     		movs	r0, #0
 363              	.LVL27:
 364              		.loc 1 239 0
 365 0008 0AB1     		cbz	r2, .L35
 366              	.LBE52:
 367              	.LBE51:
 368              		.loc 1 213 0
 369              	@ 213 "lib/ChibiOS_2.6.6/os/kernel/src/chmtx.c" 1
 370 000a 62B6     		cpsie   i
 371              	@ 0 "" 2
 372              		.loc 1 215 0
 373              		.thumb
 374 000c 7047     		bx	lr
 375              	.L35:
 376              	.LVL28:
 377              	.LBB56:
 378              	.LBB55:
 379              	.LBB53:
 380              	.LBB54:
 381              		.loc 1 241 0
 382 000e 044A     		ldr	r2, .L36
 383 0010 9269     		ldr	r2, [r2, #24]
 384 0012 9A60     		str	r2, [r3, #8]
 385              		.loc 1 242 0
 386 0014 D16B     		ldr	r1, [r2, #60]
 387 0016 D960     		str	r1, [r3, #12]
 388              		.loc 1 243 0
 389 0018 0120     		movs	r0, #1
 390 001a D363     		str	r3, [r2, #60]
 391              	.LBE54:
 392              	.LBE53:
 393              	.LBE55:
 394              	.LBE56:
 395              		.loc 1 213 0
 396              	@ 213 "lib/ChibiOS_2.6.6/os/kernel/src/chmtx.c" 1
 397 001c 62B6     		cpsie   i
ARM GAS  /var/folders/7z/kps_xzfj7sn5l5gkyq8s9db00000gn/T//ccOO866d.s 			page 8


 398              	@ 0 "" 2
 399              		.loc 1 215 0
 400              		.thumb
 401 001e 7047     		bx	lr
 402              	.L37:
 403              		.align	2
 404              	.L36:
 405 0020 00000000 		.word	rlist
 406              		.cfi_endproc
 407              	.LFE10:
 408              		.size	chMtxTryLock, .-chMtxTryLock
 409 0024 AFF30080 		.section	.text.chMtxTryLockS,"ax",%progbits
 409      AFF30080 
 409      AFF30080 
 410              		.align	2
 411              		.p2align 4,,15
 412              		.global	chMtxTryLockS
 413              		.thumb
 414              		.thumb_func
 415              		.type	chMtxTryLockS, %function
 416              	chMtxTryLockS:
 417              	.LFB11:
 418              		.loc 1 234 0
 419              		.cfi_startproc
 420              		@ args = 0, pretend = 0, frame = 0
 421              		@ frame_needed = 0, uses_anonymous_args = 0
 422              		@ link register save eliminated.
 423              	.LVL29:
 424              		.loc 1 239 0
 425 0000 8268     		ldr	r2, [r0, #8]
 426              		.loc 1 234 0
 427 0002 0346     		mov	r3, r0
 428              		.loc 1 239 0
 429 0004 0AB1     		cbz	r2, .L41
 430              		.loc 1 240 0
 431 0006 0020     		movs	r0, #0
 432              	.LVL30:
 433              		.loc 1 245 0
 434 0008 7047     		bx	lr
 435              	.LVL31:
 436              	.L41:
 437              	.LBB59:
 438              	.LBB60:
 439              		.loc 1 241 0
 440 000a 044A     		ldr	r2, .L42
 441 000c 9269     		ldr	r2, [r2, #24]
 442 000e 8260     		str	r2, [r0, #8]
 443              		.loc 1 242 0
 444 0010 D16B     		ldr	r1, [r2, #60]
 445 0012 C160     		str	r1, [r0, #12]
 446              		.loc 1 243 0
 447 0014 0120     		movs	r0, #1
 448              	.LVL32:
 449 0016 D363     		str	r3, [r2, #60]
 450 0018 7047     		bx	lr
 451              	.L43:
 452 001a 00BF     		.align	2
ARM GAS  /var/folders/7z/kps_xzfj7sn5l5gkyq8s9db00000gn/T//ccOO866d.s 			page 9


 453              	.L42:
 454 001c 00000000 		.word	rlist
 455              	.LBE60:
 456              	.LBE59:
 457              		.cfi_endproc
 458              	.LFE11:
 459              		.size	chMtxTryLockS, .-chMtxTryLockS
 460              		.section	.text.chMtxUnlock,"ax",%progbits
 461              		.align	2
 462              		.p2align 4,,15
 463              		.global	chMtxUnlock
 464              		.thumb
 465              		.thumb_func
 466              		.type	chMtxUnlock, %function
 467              	chMtxUnlock:
 468              	.LFB12:
 469              		.loc 1 257 0
 470              		.cfi_startproc
 471              		@ args = 0, pretend = 0, frame = 0
 472              		@ frame_needed = 0, uses_anonymous_args = 0
 473 0000 38B5     		push	{r3, r4, r5, lr}
 474              		.cfi_def_cfa_offset 16
 475              		.cfi_offset 3, -16
 476              		.cfi_offset 4, -12
 477              		.cfi_offset 5, -8
 478              		.cfi_offset 14, -4
 479              		.loc 1 258 0
 480 0002 144B     		ldr	r3, .L55
 481 0004 9869     		ldr	r0, [r3, #24]
 482              	.LVL33:
 483              		.loc 1 261 0
 484              	@ 261 "lib/ChibiOS_2.6.6/os/kernel/src/chmtx.c" 1
 485 0006 72B6     		cpsid   i
 486              	@ 0 "" 2
 487              		.loc 1 270 0
 488              		.thumb
 489 0008 C46B     		ldr	r4, [r0, #60]
 490              	.LVL34:
 491              		.loc 1 273 0
 492 000a 2568     		ldr	r5, [r4]
 493              		.loc 1 271 0
 494 000c E368     		ldr	r3, [r4, #12]
 495 000e C363     		str	r3, [r0, #60]
 496              		.loc 1 273 0
 497 0010 A542     		cmp	r5, r4
 498 0012 1AD0     		beq	.L45
 499              	.LBB61:
 500              		.loc 1 278 0
 501 0014 016C     		ldr	r1, [r0, #64]
 502              	.LVL35:
 503              		.loc 1 280 0
 504 0016 4BB1     		cbz	r3, .L46
 505              	.L48:
 506              		.loc 1 284 0
 507 0018 1A68     		ldr	r2, [r3]
 508 001a 9A42     		cmp	r2, r3
 509 001c 03D0     		beq	.L47
ARM GAS  /var/folders/7z/kps_xzfj7sn5l5gkyq8s9db00000gn/T//ccOO866d.s 			page 10


 510              		.loc 1 284 0 is_stmt 0 discriminator 1
 511 001e 9268     		ldr	r2, [r2, #8]
 512 0020 9142     		cmp	r1, r2
 513 0022 38BF     		it	cc
 514 0024 1146     		movcc	r1, r2
 515              	.LVL36:
 516              	.L47:
 517              		.loc 1 286 0 is_stmt 1
 518 0026 DB68     		ldr	r3, [r3, #12]
 519              	.LVL37:
 520              		.loc 1 280 0
 521 0028 002B     		cmp	r3, #0
 522 002a F5D1     		bne	.L48
 523              	.L46:
 524              	.LBB62:
 525              	.LBB63:
 526              		.loc 2 62 0
 527 002c 2B68     		ldr	r3, [r5]
 528              	.LVL38:
 529              	.LBE63:
 530              	.LBE62:
 531              		.loc 1 295 0
 532 002e EA6B     		ldr	r2, [r5, #60]
 533              		.loc 1 290 0
 534 0030 8160     		str	r1, [r0, #8]
 535              	.LVL39:
 536              	.LBB66:
 537              	.LBB64:
 538              		.loc 2 62 0
 539 0032 2360     		str	r3, [r4]
 540              	.LBE64:
 541              	.LBE66:
 542              		.loc 1 297 0
 543 0034 2846     		mov	r0, r5
 544              	.LVL40:
 545              	.LBB67:
 546              	.LBB65:
 547              		.loc 2 62 0
 548 0036 5C60     		str	r4, [r3, #4]
 549              	.LBE65:
 550              	.LBE67:
 551              		.loc 1 297 0
 552 0038 0021     		movs	r1, #0
 553              	.LVL41:
 554              		.loc 1 294 0
 555 003a A560     		str	r5, [r4, #8]
 556              		.loc 1 295 0
 557 003c E260     		str	r2, [r4, #12]
 558              		.loc 1 296 0
 559 003e EC63     		str	r4, [r5, #60]
 560              		.loc 1 297 0
 561 0040 FFF7FEFF 		bl	chSchWakeupS
 562              	.LVL42:
 563              	.LBE61:
 564              		.loc 1 301 0
 565              	@ 301 "lib/ChibiOS_2.6.6/os/kernel/src/chmtx.c" 1
 566 0044 62B6     		cpsie   i
ARM GAS  /var/folders/7z/kps_xzfj7sn5l5gkyq8s9db00000gn/T//ccOO866d.s 			page 11


 567              	@ 0 "" 2
 568              		.loc 1 303 0
 569              		.thumb
 570 0046 2046     		mov	r0, r4
 571 0048 38BD     		pop	{r3, r4, r5, pc}
 572              	.LVL43:
 573              	.L45:
 574              		.loc 1 300 0
 575 004a 0023     		movs	r3, #0
 576 004c A360     		str	r3, [r4, #8]
 577              		.loc 1 301 0
 578              	@ 301 "lib/ChibiOS_2.6.6/os/kernel/src/chmtx.c" 1
 579 004e 62B6     		cpsie   i
 580              	@ 0 "" 2
 581              		.loc 1 303 0
 582              		.thumb
 583 0050 2046     		mov	r0, r4
 584              	.LVL44:
 585 0052 38BD     		pop	{r3, r4, r5, pc}
 586              	.LVL45:
 587              	.L56:
 588              		.align	2
 589              	.L55:
 590 0054 00000000 		.word	rlist
 591              		.cfi_endproc
 592              	.LFE12:
 593              		.size	chMtxUnlock, .-chMtxUnlock
 594 0058 AFF30080 		.section	.text.chMtxUnlockS,"ax",%progbits
 594      AFF30080 
 595              		.align	2
 596              		.p2align 4,,15
 597              		.global	chMtxUnlockS
 598              		.thumb
 599              		.thumb_func
 600              		.type	chMtxUnlockS, %function
 601              	chMtxUnlockS:
 602              	.LFB13:
 603              		.loc 1 317 0
 604              		.cfi_startproc
 605              		@ args = 0, pretend = 0, frame = 0
 606              		@ frame_needed = 0, uses_anonymous_args = 0
 607 0000 38B5     		push	{r3, r4, r5, lr}
 608              		.cfi_def_cfa_offset 16
 609              		.cfi_offset 3, -16
 610              		.cfi_offset 4, -12
 611              		.cfi_offset 5, -8
 612              		.cfi_offset 14, -4
 613              		.loc 1 318 0
 614 0002 124B     		ldr	r3, .L68
 615 0004 9869     		ldr	r0, [r3, #24]
 616              	.LVL46:
 617              		.loc 1 331 0
 618 0006 C46B     		ldr	r4, [r0, #60]
 619              	.LVL47:
 620              		.loc 1 334 0
 621 0008 2568     		ldr	r5, [r4]
 622              		.loc 1 332 0
ARM GAS  /var/folders/7z/kps_xzfj7sn5l5gkyq8s9db00000gn/T//ccOO866d.s 			page 12


 623 000a E368     		ldr	r3, [r4, #12]
 624 000c C363     		str	r3, [r0, #60]
 625              		.loc 1 334 0
 626 000e A542     		cmp	r5, r4
 627 0010 18D0     		beq	.L58
 628              	.LBB68:
 629              		.loc 1 339 0
 630 0012 016C     		ldr	r1, [r0, #64]
 631              	.LVL48:
 632              		.loc 1 341 0
 633 0014 4BB1     		cbz	r3, .L59
 634              	.L61:
 635              		.loc 1 345 0
 636 0016 1A68     		ldr	r2, [r3]
 637 0018 9A42     		cmp	r2, r3
 638 001a 03D0     		beq	.L60
 639              		.loc 1 345 0 is_stmt 0 discriminator 1
 640 001c 9268     		ldr	r2, [r2, #8]
 641 001e 9142     		cmp	r1, r2
 642 0020 38BF     		it	cc
 643 0022 1146     		movcc	r1, r2
 644              	.LVL49:
 645              	.L60:
 646              		.loc 1 347 0 is_stmt 1
 647 0024 DB68     		ldr	r3, [r3, #12]
 648              	.LVL50:
 649              		.loc 1 341 0
 650 0026 002B     		cmp	r3, #0
 651 0028 F5D1     		bne	.L61
 652              	.L59:
 653              	.LBB69:
 654              	.LBB70:
 655              		.loc 2 62 0
 656 002a 2B68     		ldr	r3, [r5]
 657              	.LVL51:
 658              	.LBE70:
 659              	.LBE69:
 660              		.loc 1 354 0
 661 002c EA6B     		ldr	r2, [r5, #60]
 662              		.loc 1 349 0
 663 002e 8160     		str	r1, [r0, #8]
 664              	.LVL52:
 665              	.LBB73:
 666              	.LBB71:
 667              		.loc 2 62 0
 668 0030 2360     		str	r3, [r4]
 669              	.LBE71:
 670              	.LBE73:
 671              		.loc 1 356 0
 672 0032 2846     		mov	r0, r5
 673              	.LVL53:
 674              	.LBB74:
 675              	.LBB72:
 676              		.loc 2 62 0
 677 0034 5C60     		str	r4, [r3, #4]
 678              	.LBE72:
 679              	.LBE74:
ARM GAS  /var/folders/7z/kps_xzfj7sn5l5gkyq8s9db00000gn/T//ccOO866d.s 			page 13


 680              		.loc 1 353 0
 681 0036 A560     		str	r5, [r4, #8]
 682              		.loc 1 354 0
 683 0038 E260     		str	r2, [r4, #12]
 684              		.loc 1 355 0
 685 003a EC63     		str	r4, [r5, #60]
 686              		.loc 1 356 0
 687 003c FFF7FEFF 		bl	chSchReadyI
 688              	.LVL54:
 689              	.LBE68:
 690              		.loc 1 361 0
 691 0040 2046     		mov	r0, r4
 692 0042 38BD     		pop	{r3, r4, r5, pc}
 693              	.LVL55:
 694              	.L58:
 695              		.loc 1 359 0
 696 0044 0023     		movs	r3, #0
 697 0046 A360     		str	r3, [r4, #8]
 698              		.loc 1 361 0
 699 0048 2046     		mov	r0, r4
 700              	.LVL56:
 701 004a 38BD     		pop	{r3, r4, r5, pc}
 702              	.LVL57:
 703              	.L69:
 704              		.align	2
 705              	.L68:
 706 004c 00000000 		.word	rlist
 707              		.cfi_endproc
 708              	.LFE13:
 709              		.size	chMtxUnlockS, .-chMtxUnlockS
 710              		.section	.text.chMtxUnlockAll,"ax",%progbits
 711              		.align	2
 712              		.p2align 4,,15
 713              		.global	chMtxUnlockAll
 714              		.thumb
 715              		.thumb_func
 716              		.type	chMtxUnlockAll, %function
 717              	chMtxUnlockAll:
 718              	.LFB14:
 719              		.loc 1 374 0
 720              		.cfi_startproc
 721              		@ args = 0, pretend = 0, frame = 0
 722              		@ frame_needed = 0, uses_anonymous_args = 0
 723              		.loc 1 375 0
 724 0000 114B     		ldr	r3, .L82
 725              		.loc 1 374 0
 726 0002 70B5     		push	{r4, r5, r6, lr}
 727              		.cfi_def_cfa_offset 16
 728              		.cfi_offset 4, -16
 729              		.cfi_offset 5, -12
 730              		.cfi_offset 6, -8
 731              		.cfi_offset 14, -4
 732              		.loc 1 375 0
 733 0004 9C69     		ldr	r4, [r3, #24]
 734              	.LVL58:
 735              		.loc 1 377 0
 736              	@ 377 "lib/ChibiOS_2.6.6/os/kernel/src/chmtx.c" 1
ARM GAS  /var/folders/7z/kps_xzfj7sn5l5gkyq8s9db00000gn/T//ccOO866d.s 			page 14


 737 0006 72B6     		cpsid   i
 738              	@ 0 "" 2
 739              		.loc 1 378 0
 740              		.thumb
 741 0008 E36B     		ldr	r3, [r4, #60]
 742 000a D3B1     		cbz	r3, .L71
 743              	.LBB75:
 744              		.loc 1 390 0
 745 000c 0026     		movs	r6, #0
 746 000e 0AE0     		b	.L74
 747              	.LVL59:
 748              	.L81:
 749              	.LBB76:
 750              	.LBB77:
 751              	.LBB78:
 752              		.loc 2 62 0
 753 0010 1168     		ldr	r1, [r2]
 754              	.LBE78:
 755              	.LBE77:
 756              		.loc 1 385 0
 757 0012 D56B     		ldr	r5, [r2, #60]
 758              	.LBB80:
 759              	.LBB79:
 760              		.loc 2 62 0
 761 0014 1960     		str	r1, [r3]
 762 0016 4B60     		str	r3, [r1, #4]
 763              	.LBE79:
 764              	.LBE80:
 765              		.loc 1 384 0
 766 0018 9A60     		str	r2, [r3, #8]
 767              		.loc 1 385 0
 768 001a DD60     		str	r5, [r3, #12]
 769              		.loc 1 386 0
 770 001c D363     		str	r3, [r2, #60]
 771              		.loc 1 387 0
 772 001e FFF7FEFF 		bl	chSchReadyI
 773              	.LVL60:
 774              	.LBE76:
 775              	.LBE75:
 776              		.loc 1 391 0
 777 0022 E36B     		ldr	r3, [r4, #60]
 778 0024 4BB1     		cbz	r3, .L80
 779              	.L74:
 780              	.LVL61:
 781              	.LBB82:
 782              		.loc 1 382 0
 783 0026 1A68     		ldr	r2, [r3]
 784              	.LVL62:
 785              		.loc 1 381 0
 786 0028 D968     		ldr	r1, [r3, #12]
 787 002a E163     		str	r1, [r4, #60]
 788              		.loc 1 382 0
 789 002c 9A42     		cmp	r2, r3
 790              	.LBB81:
 791              		.loc 1 387 0
 792 002e 1046     		mov	r0, r2
 793              	.LBE81:
ARM GAS  /var/folders/7z/kps_xzfj7sn5l5gkyq8s9db00000gn/T//ccOO866d.s 			page 15


 794              		.loc 1 382 0
 795 0030 EED1     		bne	.L81
 796              		.loc 1 390 0
 797 0032 9E60     		str	r6, [r3, #8]
 798              	.LBE82:
 799              		.loc 1 391 0
 800 0034 E36B     		ldr	r3, [r4, #60]
 801              	.LVL63:
 802 0036 002B     		cmp	r3, #0
 803 0038 F5D1     		bne	.L74
 804              	.LVL64:
 805              	.L80:
 806              		.loc 1 392 0
 807 003a 236C     		ldr	r3, [r4, #64]
 808 003c A360     		str	r3, [r4, #8]
 809              		.loc 1 393 0
 810 003e FFF7FEFF 		bl	chSchRescheduleS
 811              	.LVL65:
 812              	.L71:
 813              		.loc 1 395 0
 814              	@ 395 "lib/ChibiOS_2.6.6/os/kernel/src/chmtx.c" 1
 815 0042 62B6     		cpsie   i
 816              	@ 0 "" 2
 817              		.thumb
 818 0044 70BD     		pop	{r4, r5, r6, pc}
 819              	.LVL66:
 820              	.L83:
 821 0046 00BF     		.align	2
 822              	.L82:
 823 0048 00000000 		.word	rlist
 824              		.cfi_endproc
 825              	.LFE14:
 826              		.size	chMtxUnlockAll, .-chMtxUnlockAll
 827 004c AFF30080 		.text
 828              	.Letext0:
 829              		.file 3 "/Users/Baram/gcc-arm-none-eabi/arm-none-eabi/include/machine/_default_types.h"
 830              		.file 4 "/Users/Baram/gcc-arm-none-eabi/arm-none-eabi/include/stdint.h"
 831              		.file 5 "lib/ChibiOS_2.6.6/os/ports/GCC/ARMCMx/chtypes.h"
 832              		.file 6 "lib/ChibiOS_2.6.6/os/kernel/include/chlists.h"
 833              		.file 7 "lib/ChibiOS_2.6.6/os/kernel/include/chthreads.h"
 834              		.file 8 "lib/ChibiOS_2.6.6/os/ports/GCC/ARMCMx/chcore_v7m.h"
 835              		.file 9 "lib/ChibiOS_2.6.6/os/kernel/include/chschd.h"
 836              		.file 10 "lib/ChibiOS_2.6.6/os/kernel/include/chmtx.h"