ARM GAS  /var/folders/bz/nn5481rn5xq59rb0mbj7x0880000gn/T//cceEuKgd.s 			page 1


   1              		.syntax unified
   2              		.cpu cortex-m4
   3              		.eabi_attribute 27, 1
   4              		.eabi_attribute 28, 1
   5              		.fpu fpv4-sp-d16
   6              		.eabi_attribute 20, 1
   7              		.eabi_attribute 21, 1
   8              		.eabi_attribute 23, 3
   9              		.eabi_attribute 24, 1
  10              		.eabi_attribute 25, 1
  11              		.eabi_attribute 26, 1
  12              		.eabi_attribute 30, 2
  13              		.eabi_attribute 34, 1
  14              		.eabi_attribute 18, 4
  15              		.thumb
  16              		.file	"chprintf.c"
  17              		.text
  18              	.Ltext0:
  19              		.cfi_sections	.debug_frame
  20              		.section	.text.long_to_string_with_divisor,"ax",%progbits
  21              		.align	2
  22              		.p2align 4,,15
  23              		.thumb
  24              		.thumb_func
  25              		.type	long_to_string_with_divisor, %function
  26              	long_to_string_with_divisor:
  27              	.LFB8:
  28              		.file 1 "lib/ChibiOS_2.6.6/os/various/chprintf.c"
  29              		.loc 1 40 0
  30              		.cfi_startproc
  31              		@ args = 0, pretend = 0, frame = 0
  32              		@ frame_needed = 0, uses_anonymous_args = 0
  33              		@ link register save eliminated.
  34              	.LVL0:
  35 0000 F0B4     		push	{r4, r5, r6, r7}
  36              		.cfi_def_cfa_offset 16
  37              		.cfi_offset 4, -16
  38              		.cfi_offset 5, -12
  39              		.cfi_offset 6, -8
  40              		.cfi_offset 7, -4
  41              		.loc 1 52 0
  42 0002 00F10B07 		add	r7, r0, #11
  43              		.loc 1 46 0
  44 0006 002B     		cmp	r3, #0
  45 0008 08BF     		it	eq
  46 000a 0B46     		moveq	r3, r1
  47              	.LVL1:
  48              		.loc 1 52 0
  49 000c 3D46     		mov	r5, r7
  50              	.LVL2:
  51              	.L4:
  52              		.loc 1 54 0
  53 000e B1FBF2F6 		udiv	r6, r1, r2
  54 0012 02FB1611 		mls	r1, r2, r6, r1
  55              	.LVL3:
  56              		.loc 1 55 0
  57 0016 01F13004 		add	r4, r1, #48
ARM GAS  /var/folders/bz/nn5481rn5xq59rb0mbj7x0880000gn/T//cceEuKgd.s 			page 2


  58              	.LVL4:
  59              		.loc 1 56 0
  60 001a 392C     		cmp	r4, #57
  61              		.loc 1 57 0
  62 001c C8BF     		it	gt
  63 001e 01F13704 		addgt	r4, r1, #55
  64              	.LVL5:
  65              		.loc 1 58 0
  66 0022 E4B2     		uxtb	r4, r4
  67              	.LVL6:
  68 0024 05F8014D 		strb	r4, [r5, #-1]!
  69              	.LVL7:
  70              		.loc 1 60 0
  71 0028 B3FBF2F3 		udiv	r3, r3, r2
  72              	.LVL8:
  73              		.loc 1 59 0
  74 002c 3146     		mov	r1, r6
  75              	.LVL9:
  76              		.loc 1 60 0
  77 002e 002B     		cmp	r3, #0
  78 0030 EDD1     		bne	.L4
  79              	.LVL10:
  80              		.loc 1 62 0
  81 0032 7B1B     		subs	r3, r7, r5
  82              	.LVL11:
  83 0034 0344     		add	r3, r3, r0
  84 0036 01E0     		b	.L6
  85              	.LVL12:
  86              	.L12:
  87 0038 15F8014F 		ldrb	r4, [r5, #1]!	@ zero_extendqisi2
  88              	.LVL13:
  89              	.L6:
  90              		.loc 1 64 0 discriminator 1
  91 003c 00F8014B 		strb	r4, [r0], #1
  92              	.LVL14:
  93              		.loc 1 65 0 discriminator 1
  94 0040 9842     		cmp	r0, r3
  95 0042 F9D1     		bne	.L12
  96              		.loc 1 68 0
  97 0044 F0BC     		pop	{r4, r5, r6, r7}
  98              		.cfi_restore 7
  99              		.cfi_restore 6
 100              		.cfi_restore 5
 101              		.cfi_restore 4
 102              		.cfi_def_cfa_offset 0
 103 0046 7047     		bx	lr
 104              		.cfi_endproc
 105              	.LFE8:
 106              		.size	long_to_string_with_divisor, .-long_to_string_with_divisor
 107              		.global	__aeabi_d2f
 108              		.global	__aeabi_f2d
 109              		.global	__aeabi_i2d
 110              		.global	__aeabi_dsub
 111              		.global	__aeabi_dmul
 112              		.global	__aeabi_d2iz
 113              		.section	.text.chvprintf,"ax",%progbits
 114              		.align	2
ARM GAS  /var/folders/bz/nn5481rn5xq59rb0mbj7x0880000gn/T//cceEuKgd.s 			page 3


 115              		.p2align 4,,15
 116              		.global	chvprintf
 117              		.thumb
 118              		.thumb_func
 119              		.type	chvprintf, %function
 120              	chvprintf:
 121              	.LFB11:
 122              		.loc 1 112 0
 123              		.cfi_startproc
 124              		@ args = 0, pretend = 0, frame = 40
 125              		@ frame_needed = 0, uses_anonymous_args = 0
 126              	.LVL15:
 127 0000 2DE9F04F 		push	{r4, r5, r6, r7, r8, r9, r10, fp, lr}
 128              		.cfi_def_cfa_offset 36
 129              		.cfi_offset 4, -36
 130              		.cfi_offset 5, -32
 131              		.cfi_offset 6, -28
 132              		.cfi_offset 7, -24
 133              		.cfi_offset 8, -20
 134              		.cfi_offset 9, -16
 135              		.cfi_offset 10, -12
 136              		.cfi_offset 11, -8
 137              		.cfi_offset 14, -4
 138 0004 2DED028B 		fstmfdd	sp!, {d8}
 139              		.cfi_def_cfa_offset 44
 140              		.cfi_offset 80, -44
 141              		.cfi_offset 81, -40
 142 0008 8BB0     		sub	sp, sp, #44
 143              		.cfi_def_cfa_offset 88
 144              		.loc 1 112 0
 145 000a 0646     		mov	r6, r0
 146 000c 0D46     		mov	r5, r1
 147 000e 1746     		mov	r7, r2
 148 0010 0DF11009 		add	r9, sp, #16
 149              	.LVL16:
 150              	.L14:
 151              		.loc 1 125 0
 152 0014 2978     		ldrb	r1, [r5]	@ zero_extendqisi2
 153 0016 6B1C     		adds	r3, r5, #1
 154              	.LVL17:
 155              		.loc 1 126 0
 156 0018 51B1     		cbz	r1, .L13
 157              	.L103:
 158              		.loc 1 128 0
 159 001a 2529     		cmp	r1, #37
 160 001c 0DD0     		beq	.L16
 161              		.loc 1 129 0
 162 001e 3268     		ldr	r2, [r6]
 163              	.LVL18:
 164              		.loc 1 125 0
 165 0020 1D46     		mov	r5, r3
 166              		.loc 1 129 0
 167 0022 9268     		ldr	r2, [r2, #8]
 168 0024 3046     		mov	r0, r6
 169 0026 9047     		blx	r2
 170              	.LVL19:
 171              		.loc 1 125 0
ARM GAS  /var/folders/bz/nn5481rn5xq59rb0mbj7x0880000gn/T//cceEuKgd.s 			page 4


 172 0028 2978     		ldrb	r1, [r5]	@ zero_extendqisi2
 173 002a 6B1C     		adds	r3, r5, #1
 174              	.LVL20:
 175              		.loc 1 126 0
 176 002c 0029     		cmp	r1, #0
 177 002e F4D1     		bne	.L103
 178              	.LVL21:
 179              	.L13:
 180              		.loc 1 261 0
 181 0030 0BB0     		add	sp, sp, #44
 182              		.cfi_remember_state
 183              		.cfi_def_cfa_offset 44
 184              		@ sp needed
 185 0032 BDEC028B 		fldmfdd	sp!, {d8}
 186              		.cfi_restore 80
 187              		.cfi_restore 81
 188              		.cfi_def_cfa_offset 36
 189 0036 BDE8F08F 		pop	{r4, r5, r6, r7, r8, r9, r10, fp, pc}
 190              	.LVL22:
 191              	.L16:
 192              		.cfi_restore_state
 193              		.loc 1 135 0
 194 003a 6A78     		ldrb	r2, [r5, #1]	@ zero_extendqisi2
 195              	.LVL23:
 196 003c 2D2A     		cmp	r2, #45
 197 003e 03BF     		ittte	eq
 198 0040 AA78     		ldrbeq	r2, [r5, #2]	@ zero_extendqisi2
 199              		.loc 1 136 0
 200 0042 AB1C     		addeq	r3, r5, #2
 201              	.LVL24:
 202              		.loc 1 137 0
 203 0044 4FF0010A 		moveq	r10, #1
 204              		.loc 1 134 0
 205 0048 4FF0000A 		movne	r10, #0
 206              	.LVL25:
 207              		.loc 1 140 0
 208 004c 2E2A     		cmp	r2, #46
 209 004e 00F05C81 		beq	.L19
 210              		.loc 1 140 0 is_stmt 0 discriminator 1
 211 0052 302A     		cmp	r2, #48
 212 0054 00F05981 		beq	.L19
 213              		.loc 1 139 0 is_stmt 1
 214 0058 4FF02008 		mov	r8, #32
 215              	.LVL26:
 216              	.L20:
 217 005c 591C     		adds	r1, r3, #1
 218              	.LVL27:
 219              		.loc 1 144 0
 220 005e 0024     		movs	r4, #0
 221 0060 05E0     		b	.L23
 222              	.LVL28:
 223              	.L104:
 224              		.loc 1 150 0
 225 0062 3B78     		ldrb	r3, [r7]	@ zero_extendqisi2
 226              	.LVL29:
 227 0064 0437     		adds	r7, r7, #4
 228              	.LVL30:
ARM GAS  /var/folders/bz/nn5481rn5xq59rb0mbj7x0880000gn/T//cceEuKgd.s 			page 5


 229              	.L21:
 230 0066 2A78     		ldrb	r2, [r5]	@ zero_extendqisi2
 231              		.loc 1 153 0
 232 0068 03EB4004 		add	r4, r3, r0, lsl #1
 233              	.LVL31:
 234 006c 0131     		adds	r1, r1, #1
 235              	.LVL32:
 236              	.L23:
 237              		.loc 1 147 0
 238 006e A2F13003 		sub	r3, r2, #48
 239 0072 DBB2     		uxtb	r3, r3
 240 0074 092B     		cmp	r3, #9
 241              		.loc 1 146 0
 242 0076 0D46     		mov	r5, r1
 243              	.LVL33:
 244              		.loc 1 153 0
 245 0078 04EB8400 		add	r0, r4, r4, lsl #2
 246              		.loc 1 147 0
 247 007c F3D9     		bls	.L21
 248              		.loc 1 149 0
 249 007e 2A2A     		cmp	r2, #42
 250 0080 EFD0     		beq	.L104
 251              	.LVL34:
 252              		.loc 1 156 0
 253 0082 2E2A     		cmp	r2, #46
 254 0084 4FF00001 		mov	r1, #0
 255              	.LVL35:
 256 0088 43D0     		beq	.L26
 257              	.LVL36:
 258              		.loc 1 170 0
 259 008a 02F0DF03 		and	r3, r2, #223
 260 008e 4C2B     		cmp	r3, #76
 261 0090 4ED0     		beq	.L105
 262              	.L93:
 263              		.loc 1 179 0
 264 0092 A2F14400 		sub	r0, r2, #68
 265 0096 3428     		cmp	r0, #52
 266 0098 00F22E81 		bhi	.L29
 267 009c DFE810F0 		tbh	[pc, r0, lsl #1]
 268              	.L39:
 269 00a0 1201     		.2byte	(.L47-.L39)/2
 270 00a2 2C01     		.2byte	(.L29-.L39)/2
 271 00a4 2C01     		.2byte	(.L29-.L39)/2
 272 00a6 2C01     		.2byte	(.L29-.L39)/2
 273 00a8 2C01     		.2byte	(.L29-.L39)/2
 274 00aa 1201     		.2byte	(.L47-.L39)/2
 275 00ac 2C01     		.2byte	(.L29-.L39)/2
 276 00ae 2C01     		.2byte	(.L29-.L39)/2
 277 00b0 2C01     		.2byte	(.L29-.L39)/2
 278 00b2 2C01     		.2byte	(.L29-.L39)/2
 279 00b4 2C01     		.2byte	(.L29-.L39)/2
 280 00b6 E300     		.2byte	(.L32-.L39)/2
 281 00b8 2C01     		.2byte	(.L29-.L39)/2
 282 00ba 2C01     		.2byte	(.L29-.L39)/2
 283 00bc 2C01     		.2byte	(.L29-.L39)/2
 284 00be 2C01     		.2byte	(.L29-.L39)/2
 285 00c0 2C01     		.2byte	(.L29-.L39)/2
ARM GAS  /var/folders/bz/nn5481rn5xq59rb0mbj7x0880000gn/T//cceEuKgd.s 			page 6


 286 00c2 1A01     		.2byte	(.L33-.L39)/2
 287 00c4 2C01     		.2byte	(.L29-.L39)/2
 288 00c6 2C01     		.2byte	(.L29-.L39)/2
 289 00c8 2901     		.2byte	(.L74-.L39)/2
 290 00ca 2C01     		.2byte	(.L29-.L39)/2
 291 00cc 2C01     		.2byte	(.L29-.L39)/2
 292 00ce 2C01     		.2byte	(.L29-.L39)/2
 293 00d0 2C01     		.2byte	(.L29-.L39)/2
 294 00d2 2C01     		.2byte	(.L29-.L39)/2
 295 00d4 2C01     		.2byte	(.L29-.L39)/2
 296 00d6 2C01     		.2byte	(.L29-.L39)/2
 297 00d8 2C01     		.2byte	(.L29-.L39)/2
 298 00da 2C01     		.2byte	(.L29-.L39)/2
 299 00dc 2C01     		.2byte	(.L29-.L39)/2
 300 00de 1C01     		.2byte	(.L35-.L39)/2
 301 00e0 1201     		.2byte	(.L47-.L39)/2
 302 00e2 2C01     		.2byte	(.L29-.L39)/2
 303 00e4 A100     		.2byte	(.L36-.L39)/2
 304 00e6 2C01     		.2byte	(.L29-.L39)/2
 305 00e8 2C01     		.2byte	(.L29-.L39)/2
 306 00ea 1201     		.2byte	(.L47-.L39)/2
 307 00ec 2C01     		.2byte	(.L29-.L39)/2
 308 00ee 2C01     		.2byte	(.L29-.L39)/2
 309 00f0 2C01     		.2byte	(.L29-.L39)/2
 310 00f2 2C01     		.2byte	(.L29-.L39)/2
 311 00f4 2C01     		.2byte	(.L29-.L39)/2
 312 00f6 E300     		.2byte	(.L32-.L39)/2
 313 00f8 2C01     		.2byte	(.L29-.L39)/2
 314 00fa 2C01     		.2byte	(.L29-.L39)/2
 315 00fc 2C01     		.2byte	(.L29-.L39)/2
 316 00fe 6F00     		.2byte	(.L37-.L39)/2
 317 0100 2C01     		.2byte	(.L29-.L39)/2
 318 0102 1A01     		.2byte	(.L33-.L39)/2
 319 0104 2C01     		.2byte	(.L29-.L39)/2
 320 0106 2C01     		.2byte	(.L29-.L39)/2
 321 0108 2901     		.2byte	(.L74-.L39)/2
 322              	.LVL37:
 323              		.p2align 1
 324              	.L106:
 325              		.loc 1 162 0
 326 010a 3B78     		ldrb	r3, [r7]	@ zero_extendqisi2
 327              	.LVL38:
 328 010c 0437     		adds	r7, r7, #4
 329              	.LVL39:
 330              	.L25:
 331              		.loc 1 166 0
 332 010e 03EB4001 		add	r1, r3, r0, lsl #1
 333              	.LVL40:
 334              	.L26:
 335              		.loc 1 158 0
 336 0112 15F8012B 		ldrb	r2, [r5], #1	@ zero_extendqisi2
 337              	.LVL41:
 338              		.loc 1 159 0
 339 0116 A2F13003 		sub	r3, r2, #48
 340 011a DBB2     		uxtb	r3, r3
 341 011c 092B     		cmp	r3, #9
 342              		.loc 1 165 0
ARM GAS  /var/folders/bz/nn5481rn5xq59rb0mbj7x0880000gn/T//cceEuKgd.s 			page 7


 343 011e 01EB8100 		add	r0, r1, r1, lsl #2
 344              		.loc 1 159 0
 345 0122 F4D9     		bls	.L25
 346              		.loc 1 161 0
 347 0124 2A2A     		cmp	r2, #42
 348 0126 F0D0     		beq	.L106
 349              	.LVL42:
 350              		.loc 1 170 0
 351 0128 02F0DF03 		and	r3, r2, #223
 352 012c 4C2B     		cmp	r3, #76
 353 012e B0D1     		bne	.L93
 354              	.L105:
 355              	.LVL43:
 356              		.loc 1 172 0
 357 0130 2B78     		ldrb	r3, [r5]	@ zero_extendqisi2
 358 0132 002B     		cmp	r3, #0
 359 0134 00F0E080 		beq	.L29
 360              		.loc 1 179 0
 361 0138 A3F14402 		sub	r2, r3, #68
 362              	.LVL44:
 363              		.loc 1 173 0
 364 013c 0135     		adds	r5, r5, #1
 365              	.LVL45:
 366              		.loc 1 179 0
 367 013e 342A     		cmp	r2, #52
 368 0140 00F2D980 		bhi	.L71
 369 0144 DFE802F0 		tbb	[pc, r2]
 370              	.L31:
 371 0148 BE       		.byte	(.L47-.L31)/2
 372 0149 D7       		.byte	(.L71-.L31)/2
 373 014a D7       		.byte	(.L71-.L31)/2
 374 014b D7       		.byte	(.L71-.L31)/2
 375 014c D7       		.byte	(.L71-.L31)/2
 376 014d BE       		.byte	(.L47-.L31)/2
 377 014e D7       		.byte	(.L71-.L31)/2
 378 014f D7       		.byte	(.L71-.L31)/2
 379 0150 D7       		.byte	(.L71-.L31)/2
 380 0151 D7       		.byte	(.L71-.L31)/2
 381 0152 D7       		.byte	(.L71-.L31)/2
 382 0153 8F       		.byte	(.L32-.L31)/2
 383 0154 D7       		.byte	(.L71-.L31)/2
 384 0155 D7       		.byte	(.L71-.L31)/2
 385 0156 D7       		.byte	(.L71-.L31)/2
 386 0157 D7       		.byte	(.L71-.L31)/2
 387 0158 D7       		.byte	(.L71-.L31)/2
 388 0159 C6       		.byte	(.L33-.L31)/2
 389 015a D7       		.byte	(.L71-.L31)/2
 390 015b D7       		.byte	(.L71-.L31)/2
 391 015c D5       		.byte	(.L74-.L31)/2
 392 015d D7       		.byte	(.L71-.L31)/2
 393 015e D7       		.byte	(.L71-.L31)/2
 394 015f D7       		.byte	(.L71-.L31)/2
 395 0160 D7       		.byte	(.L71-.L31)/2
 396 0161 D7       		.byte	(.L71-.L31)/2
 397 0162 D7       		.byte	(.L71-.L31)/2
 398 0163 D7       		.byte	(.L71-.L31)/2
 399 0164 D7       		.byte	(.L71-.L31)/2
ARM GAS  /var/folders/bz/nn5481rn5xq59rb0mbj7x0880000gn/T//cceEuKgd.s 			page 8


 400 0165 D7       		.byte	(.L71-.L31)/2
 401 0166 D7       		.byte	(.L71-.L31)/2
 402 0167 C8       		.byte	(.L35-.L31)/2
 403 0168 BE       		.byte	(.L47-.L31)/2
 404 0169 D7       		.byte	(.L71-.L31)/2
 405 016a 4D       		.byte	(.L36-.L31)/2
 406 016b D7       		.byte	(.L71-.L31)/2
 407 016c D7       		.byte	(.L71-.L31)/2
 408 016d BE       		.byte	(.L47-.L31)/2
 409 016e D7       		.byte	(.L71-.L31)/2
 410 016f D7       		.byte	(.L71-.L31)/2
 411 0170 D7       		.byte	(.L71-.L31)/2
 412 0171 D7       		.byte	(.L71-.L31)/2
 413 0172 D7       		.byte	(.L71-.L31)/2
 414 0173 8F       		.byte	(.L32-.L31)/2
 415 0174 D7       		.byte	(.L71-.L31)/2
 416 0175 D7       		.byte	(.L71-.L31)/2
 417 0176 D7       		.byte	(.L71-.L31)/2
 418 0177 1B       		.byte	(.L37-.L31)/2
 419 0178 D7       		.byte	(.L71-.L31)/2
 420 0179 C6       		.byte	(.L33-.L31)/2
 421 017a D7       		.byte	(.L71-.L31)/2
 422 017b D7       		.byte	(.L71-.L31)/2
 423 017c D5       		.byte	(.L74-.L31)/2
 424              	.LVL46:
 425 017d 00       		.p2align 1
 426              	.L37:
 427              		.loc 1 186 0
 428 017e D7F800B0 		ldr	fp, [r7]
 429              		.loc 1 187 0
 430 0182 7D4B     		ldr	r3, .L112+8
 431 0184 BBF1000F 		cmp	fp, #0
 432 0188 08BF     		it	eq
 433 018a 9B46     		moveq	fp, r3
 434              		.loc 1 186 0
 435 018c 0437     		adds	r7, r7, #4
 436              	.LVL47:
 437              		.loc 1 190 0
 438 018e 9BF80030 		ldrb	r3, [fp]	@ zero_extendqisi2
 439              		.loc 1 188 0
 440 0192 0029     		cmp	r1, #0
 441 0194 00F0BE80 		beq	.L43
 442              	.LVL48:
 443              		.loc 1 190 0 discriminator 1
 444 0198 002B     		cmp	r3, #0
 445 019a 00F0C080 		beq	.L44
 446              		.loc 1 190 0 is_stmt 0
 447 019e 0139     		subs	r1, r1, #1
 448              	.LVL49:
 449              	.L63:
 450              		.loc 1 190 0 discriminator 4
 451 01a0 5846     		mov	r0, fp
 452 01a2 01E0     		b	.L46
 453              	.LVL50:
 454              	.L107:
 455              		.loc 1 190 0 discriminator 3
 456 01a4 0139     		subs	r1, r1, #1
ARM GAS  /var/folders/bz/nn5481rn5xq59rb0mbj7x0880000gn/T//cceEuKgd.s 			page 9


 457              	.LVL51:
 458 01a6 03D4     		bmi	.L98
 459              	.LVL52:
 460              	.L46:
 461              		.loc 1 190 0 discriminator 4
 462 01a8 10F8013F 		ldrb	r3, [r0, #1]!	@ zero_extendqisi2
 463              	.LVL53:
 464 01ac 002B     		cmp	r3, #0
 465 01ae F9D1     		bne	.L107
 466              	.LVL54:
 467              	.L98:
 468 01b0 CBEB0000 		rsb	r0, fp, r0
 469              	.LVL55:
 470              		.loc 1 240 0 is_stmt 1
 471 01b4 241A     		subs	r4, r4, r0
 472              	.LVL56:
 473 01b6 431E     		subs	r3, r0, #1
 474              		.loc 1 185 0
 475 01b8 4FF02008 		mov	r8, #32
 476              	.LVL57:
 477 01bc 24EAE474 		bic	r4, r4, r4, asr #31
 478              	.LVL58:
 479              		.loc 1 242 0
 480 01c0 BAF1000F 		cmp	r10, #0
 481 01c4 60D0     		beq	.L108
 482              	.L54:
 483              	.LVL59:
 484              		.loc 1 253 0
 485 01c6 B3F1000A 		subs	r10, r3, #0
 486              	.LVL60:
 487 01ca 6FDA     		bge	.L60
 488              	.LVL61:
 489              	.L59:
 490              		.loc 1 256 0
 491 01cc 002C     		cmp	r4, #0
 492 01ce 3FF421AF 		beq	.L14
 493              	.L61:
 494              		.loc 1 257 0
 495 01d2 3368     		ldr	r3, [r6]
 496 01d4 3046     		mov	r0, r6
 497 01d6 9B68     		ldr	r3, [r3, #8]
 498 01d8 4146     		mov	r1, r8
 499 01da 9847     		blx	r3
 500              	.LVL62:
 501              		.loc 1 256 0
 502 01dc 013C     		subs	r4, r4, #1
 503              	.LVL63:
 504 01de F8D1     		bne	.L61
 505 01e0 18E7     		b	.L14
 506              	.LVL64:
 507              	.L36:
 508              		.loc 1 209 0
 509 01e2 0737     		adds	r7, r7, #7
 510 01e4 27F00707 		bic	r7, r7, #7
 511 01e8 D7E90001 		ldrd	r0, [r7]
 512 01ec FFF7FEFF 		bl	__aeabi_d2f
 513              	.LVL65:
ARM GAS  /var/folders/bz/nn5481rn5xq59rb0mbj7x0880000gn/T//cceEuKgd.s 			page 10


 514 01f0 08EE100A 		fmsr	s16, r0
 515              		.loc 1 210 0
 516 01f4 B5EEC08A 		fcmpezs	s16
 517 01f8 F1EE10FA 		fmstat
 518              		.loc 1 209 0
 519 01fc 07F10807 		add	r7, r7, #8
 520              	.LVL66:
 521              		.loc 1 210 0
 522 0200 00F1A380 		bmi	.L109
 523              		.loc 1 132 0
 524 0204 4846     		mov	r0, r9
 525              	.LVL67:
 526              	.L50:
 527              	.LBB12:
 528              	.LBB13:
 529              		.loc 1 80 0
 530 0206 FDEEC87A 		ftosizs	s15, s16
 531              		.loc 1 81 0
 532 020a 0A22     		movs	r2, #10
 533 020c 17EE901A 		fmrs	r1, s15	@ int
 534 0210 0023     		movs	r3, #0
 535              		.loc 1 80 0
 536 0212 CDED017A 		fsts	s15, [sp, #4]	@ int
 537              	.LVL68:
 538              		.loc 1 81 0
 539 0216 FFF7FEFF 		bl	long_to_string_with_divisor
 540              	.LVL69:
 541              		.loc 1 82 0
 542 021a 8346     		mov	fp, r0
 543 021c 2E23     		movs	r3, #46
 544 021e 0BF8013B 		strb	r3, [fp], #1
 545              	.LVL70:
 546              	.LBE13:
 547              	.LBE12:
 548              		.loc 1 214 0
 549 0222 18EE100A 		fmrs	r0, s16
 550 0226 FFF7FEFF 		bl	__aeabi_f2d
 551              	.LVL71:
 552 022a CDE90201 		strd	r0, [sp, #8]
 553              	.LBB15:
 554              	.LBB14:
 555              		.loc 1 83 0
 556 022e 0198     		ldr	r0, [sp, #4]
 557 0230 FFF7FEFF 		bl	__aeabi_i2d
 558              	.LVL72:
 559 0234 0246     		mov	r2, r0
 560 0236 0B46     		mov	r3, r1
 561 0238 DDE90201 		ldrd	r0, [sp, #8]
 562 023c FFF7FEFF 		bl	__aeabi_dsub
 563              	.LVL73:
 564 0240 4BA3     		adr	r3, .L112
 565 0242 D3E90023 		ldrd	r2, [r3]
 566 0246 FFF7FEFF 		bl	__aeabi_dmul
 567              	.LVL74:
 568 024a FFF7FEFF 		bl	__aeabi_d2iz
 569              	.LVL75:
 570              		.loc 1 84 0
ARM GAS  /var/folders/bz/nn5481rn5xq59rb0mbj7x0880000gn/T//cceEuKgd.s 			page 11


 571 024e 42F21073 		movw	r3, #10000
 572              		.loc 1 83 0
 573 0252 0146     		mov	r1, r0
 574              		.loc 1 84 0
 575 0254 0A22     		movs	r2, #10
 576 0256 5846     		mov	r0, fp
 577 0258 FFF7FEFF 		bl	long_to_string_with_divisor
 578              	.LVL76:
 579 025c C9EB0000 		rsb	r0, r9, r0
 580 0260 431E     		subs	r3, r0, #1
 581              	.LBE14:
 582              	.LBE15:
 583              		.loc 1 133 0
 584 0262 CB46     		mov	fp, r9
 585              	.LVL77:
 586              		.loc 1 215 0
 587 0264 0AE0     		b	.L41
 588              	.LVL78:
 589              	.L32:
 590 0266 0822     		movs	r2, #8
 591              	.LVL79:
 592              	.L100:
 593              		.loc 1 232 0
 594 0268 3968     		ldr	r1, [r7]
 595              	.LVL80:
 596              	.LBB16:
 597              	.LBB17:
 598              		.loc 1 72 0
 599 026a 4846     		mov	r0, r9
 600              	.LBE17:
 601              	.LBE16:
 602              		.loc 1 232 0
 603 026c 0437     		adds	r7, r7, #4
 604              	.LVL81:
 605              	.L99:
 606              	.LBB19:
 607              	.LBB18:
 608              		.loc 1 72 0
 609 026e 0023     		movs	r3, #0
 610 0270 FFF7FEFF 		bl	long_to_string_with_divisor
 611              	.LVL82:
 612 0274 C9EB0000 		rsb	r0, r9, r0
 613 0278 431E     		subs	r3, r0, #1
 614              	.LBE18:
 615              	.LBE19:
 616              		.loc 1 133 0
 617 027a CB46     		mov	fp, r9
 618              	.LVL83:
 619              	.L41:
 620              		.loc 1 240 0
 621 027c 241A     		subs	r4, r4, r0
 622              	.LVL84:
 623 027e 24EAE474 		bic	r4, r4, r4, asr #31
 624              	.LVL85:
 625              		.loc 1 242 0
 626 0282 BAF1000F 		cmp	r10, #0
 627 0286 9ED1     		bne	.L54
ARM GAS  /var/folders/bz/nn5481rn5xq59rb0mbj7x0880000gn/T//cceEuKgd.s 			page 12


 628              	.LVL86:
 629              	.L108:
 630 0288 9A46     		mov	r10, r3
 631              	.LVL87:
 632              	.L65:
 633              		.loc 1 243 0
 634 028a 6442     		negs	r4, r4
 635              	.LVL88:
 636              		.loc 1 244 0
 637 028c 54B1     		cbz	r4, .L55
 638              		.loc 1 245 0
 639 028e 9BF80010 		ldrb	r1, [fp]	@ zero_extendqisi2
 640 0292 2D29     		cmp	r1, #45
 641 0294 4DD0     		beq	.L110
 642              	.LVL89:
 643              	.L57:
 644              		.loc 1 250 0 discriminator 1
 645 0296 3368     		ldr	r3, [r6]
 646 0298 3046     		mov	r0, r6
 647 029a 9B68     		ldr	r3, [r3, #8]
 648 029c 4146     		mov	r1, r8
 649 029e 9847     		blx	r3
 650              	.LVL90:
 651              		.loc 1 251 0 discriminator 1
 652 02a0 0134     		adds	r4, r4, #1
 653              	.LVL91:
 654 02a2 F8D1     		bne	.L57
 655              	.L55:
 656              	.LVL92:
 657              		.loc 1 253 0
 658 02a4 BAF1000F 		cmp	r10, #0
 659 02a8 FFF6B4AE 		blt	.L14
 660              	.LVL93:
 661              	.L60:
 662              		.loc 1 254 0
 663 02ac 3368     		ldr	r3, [r6]
 664 02ae 1BF8011B 		ldrb	r1, [fp], #1	@ zero_extendqisi2
 665              	.LVL94:
 666 02b2 9B68     		ldr	r3, [r3, #8]
 667              		.loc 1 253 0
 668 02b4 0AF1FF3A 		add	r10, r10, #-1
 669              	.LVL95:
 670              		.loc 1 254 0
 671 02b8 3046     		mov	r0, r6
 672 02ba 9847     		blx	r3
 673              	.LVL96:
 674              		.loc 1 253 0
 675 02bc BAF1FF3F 		cmp	r10, #-1
 676 02c0 F4D1     		bne	.L60
 677 02c2 83E7     		b	.L59
 678              	.LVL97:
 679              	.L47:
 680              		.loc 1 200 0
 681 02c4 3968     		ldr	r1, [r7]
 682              	.LVL98:
 683              		.loc 1 201 0
 684 02c6 0029     		cmp	r1, #0
ARM GAS  /var/folders/bz/nn5481rn5xq59rb0mbj7x0880000gn/T//cceEuKgd.s 			page 13


 685              		.loc 1 200 0
 686 02c8 07F10407 		add	r7, r7, #4
 687              		.loc 1 201 0
 688 02cc 45DB     		blt	.L111
 689              		.loc 1 132 0
 690 02ce 4846     		mov	r0, r9
 691              	.LVL99:
 692              	.L49:
 693              	.LBB20:
 694              	.LBB21:
 695              		.loc 1 72 0
 696 02d0 0A22     		movs	r2, #10
 697 02d2 CCE7     		b	.L99
 698              	.LVL100:
 699              	.L33:
 700              	.LBE21:
 701              	.LBE20:
 702              		.loc 1 224 0
 703 02d4 0A22     		movs	r2, #10
 704 02d6 C7E7     		b	.L100
 705              	.LVL101:
 706              	.L35:
 707 02d8 0DF11100 		add	r0, sp, #17
 708              	.LVL102:
 709              		.loc 1 182 0
 710 02dc 3B68     		ldr	r3, [r7]
 711 02de 8DF81030 		strb	r3, [sp, #16]
 712 02e2 C9EB0000 		rsb	r0, r9, r0
 713              	.LVL103:
 714 02e6 431E     		subs	r3, r0, #1
 715 02e8 0437     		adds	r7, r7, #4
 716              		.loc 1 181 0
 717 02ea 4FF02008 		mov	r8, #32
 718              		.loc 1 133 0
 719 02ee CB46     		mov	fp, r9
 720              		.loc 1 183 0
 721 02f0 C4E7     		b	.L41
 722              	.LVL104:
 723              	.L74:
 724              	.L40:
 725              		.loc 1 179 0
 726 02f2 1022     		movs	r2, #16
 727 02f4 B8E7     		b	.L100
 728              	.LVL105:
 729              	.L71:
 730 02f6 1A46     		mov	r2, r3
 731              	.LVL106:
 732              	.L29:
 733 02f8 0DF11100 		add	r0, sp, #17
 734              	.LVL107:
 735 02fc C9EB0000 		rsb	r0, r9, r0
 736              	.LVL108:
 737              		.loc 1 236 0
 738 0300 8DF81020 		strb	r2, [sp, #16]
 739 0304 431E     		subs	r3, r0, #1
 740              		.loc 1 133 0
 741 0306 CB46     		mov	fp, r9
ARM GAS  /var/folders/bz/nn5481rn5xq59rb0mbj7x0880000gn/T//cceEuKgd.s 			page 14


 742              		.loc 1 237 0
 743 0308 B8E7     		b	.L41
 744              	.LVL109:
 745              	.L19:
 746 030a 5A78     		ldrb	r2, [r3, #1]	@ zero_extendqisi2
 747              		.loc 1 142 0
 748 030c 4FF03008 		mov	r8, #48
 749              		.loc 1 141 0
 750 0310 0133     		adds	r3, r3, #1
 751              	.LVL110:
 752 0312 A3E6     		b	.L20
 753              	.LVL111:
 754              	.L43:
 755              		.loc 1 190 0
 756 0314 47F6FE71 		movw	r1, #32766
 757 0318 002B     		cmp	r3, #0
 758 031a 7FF441AF 		bne	.L63
 759              	.LVL112:
 760              	.L44:
 761 031e 24EAE474 		bic	r4, r4, r4, asr #31
 762              	.LVL113:
 763              		.loc 1 242 0
 764 0322 BAF1000F 		cmp	r10, #0
 765 0326 1FD1     		bne	.L78
 766 0328 4FF0FF3A 		mov	r10, #-1
 767              	.LVL114:
 768 032c 4FF02008 		mov	r8, #32
 769 0330 ABE7     		b	.L65
 770              	.LVL115:
 771              	.L110:
 772              		.loc 1 245 0 discriminator 1
 773 0332 B8F1300F 		cmp	r8, #48
 774 0336 AED1     		bne	.L57
 775              		.loc 1 246 0
 776 0338 3368     		ldr	r3, [r6]
 777 033a 3046     		mov	r0, r6
 778 033c 9B68     		ldr	r3, [r3, #8]
 779 033e 9847     		blx	r3
 780              	.LVL116:
 781 0340 0BF1010B 		add	fp, fp, #1
 782              	.LVL117:
 783 0344 0AF1FF3A 		add	r10, r10, #-1
 784              	.LVL118:
 785 0348 A5E7     		b	.L57
 786              	.LVL119:
 787              	.L109:
 788              		.loc 1 211 0
 789 034a 2D23     		movs	r3, #45
 790              		.loc 1 212 0
 791 034c B1EE488A 		fnegs	s16, s16
 792              	.LVL120:
 793              		.loc 1 211 0
 794 0350 8DF81030 		strb	r3, [sp, #16]
 795 0354 0DF11100 		add	r0, sp, #17
 796              	.LVL121:
 797 0358 55E7     		b	.L50
 798              	.LVL122:
ARM GAS  /var/folders/bz/nn5481rn5xq59rb0mbj7x0880000gn/T//cceEuKgd.s 			page 15


 799              	.L111:
 800              		.loc 1 202 0
 801 035a 2D23     		movs	r3, #45
 802              		.loc 1 203 0
 803 035c 4942     		negs	r1, r1
 804              	.LVL123:
 805              		.loc 1 202 0
 806 035e 8DF81030 		strb	r3, [sp, #16]
 807 0362 0DF11100 		add	r0, sp, #17
 808              	.LVL124:
 809 0366 B3E7     		b	.L49
 810              	.LVL125:
 811              	.L78:
 812              		.loc 1 242 0
 813 0368 4FF02008 		mov	r8, #32
 814 036c 2EE7     		b	.L59
 815              	.L113:
 816 036e 00BF     		.align	3
 817              	.L112:
 818 0370 00000000 		.word	0
 819 0374 006AF840 		.word	1090021888
 820 0378 00000000 		.word	.LC0
 821              		.cfi_endproc
 822              	.LFE11:
 823              		.size	chvprintf, .-chvprintf
 824              		.section	.text.chsnprintf,"ax",%progbits
 825              		.align	2
 826              		.p2align 4,,15
 827              		.global	chsnprintf
 828              		.thumb
 829              		.thumb_func
 830              		.type	chsnprintf, %function
 831              	chsnprintf:
 832              	.LFB12:
 833              		.loc 1 288 0
 834              		.cfi_startproc
 835              		@ args = 4, pretend = 8, frame = 24
 836              		@ frame_needed = 0, uses_anonymous_args = 1
 837              	.LVL126:
 838 0000 0CB4     		push	{r2, r3}
 839              		.cfi_def_cfa_offset 8
 840              		.cfi_offset 2, -8
 841              		.cfi_offset 3, -4
 842 0002 30B5     		push	{r4, r5, lr}
 843              		.cfi_def_cfa_offset 20
 844              		.cfi_offset 4, -20
 845              		.cfi_offset 5, -16
 846              		.cfi_offset 14, -12
 847 0004 87B0     		sub	sp, sp, #28
 848              		.cfi_def_cfa_offset 48
 849              		.loc 1 288 0
 850 0006 0AAC     		add	r4, sp, #40
 851 0008 0A46     		mov	r2, r1
 852 000a 54F8045B 		ldr	r5, [r4], #4
 853              		.loc 1 294 0
 854 000e 0146     		mov	r1, r0
 855              	.LVL127:
ARM GAS  /var/folders/bz/nn5481rn5xq59rb0mbj7x0880000gn/T//cceEuKgd.s 			page 16


 856 0010 0023     		movs	r3, #0
 857 0012 01A8     		add	r0, sp, #4
 858              	.LVL128:
 859 0014 FFF7FEFF 		bl	msObjectInit
 860              	.LVL129:
 861              		.loc 1 299 0
 862 0018 2946     		mov	r1, r5
 863 001a 2246     		mov	r2, r4
 864 001c 01A8     		add	r0, sp, #4
 865              	.LVL130:
 866              		.loc 1 298 0
 867 001e 0094     		str	r4, [sp]
 868              		.loc 1 299 0
 869 0020 FFF7FEFF 		bl	chvprintf
 870              	.LVL131:
 871              		.loc 1 303 0
 872 0024 019B     		ldr	r3, [sp, #4]
 873 0026 01A8     		add	r0, sp, #4
 874              	.LVL132:
 875 0028 9B68     		ldr	r3, [r3, #8]
 876 002a 0021     		movs	r1, #0
 877 002c 9847     		blx	r3
 878              	.LVL133:
 879              		.loc 1 304 0
 880 002e 0498     		ldr	r0, [sp, #16]
 881              		.loc 1 305 0
 882 0030 0138     		subs	r0, r0, #1
 883 0032 07B0     		add	sp, sp, #28
 884              		.cfi_def_cfa_offset 20
 885              		@ sp needed
 886 0034 BDE83040 		pop	{r4, r5, lr}
 887              		.cfi_restore 14
 888              		.cfi_restore 5
 889              		.cfi_restore 4
 890              		.cfi_def_cfa_offset 8
 891 0038 02B0     		add	sp, sp, #8
 892              		.cfi_restore 3
 893              		.cfi_restore 2
 894              		.cfi_def_cfa_offset 0
 895 003a 7047     		bx	lr
 896              		.cfi_endproc
 897              	.LFE12:
 898              		.size	chsnprintf, .-chsnprintf
 899              		.section	.rodata.str1.4,"aMS",%progbits,1
 900              		.align	2
 901              	.LC0:
 902 0000 286E756C 		.ascii	"(null)\000"
 902      6C2900
 903              		.text
 904              	.Letext0:
 905              		.file 2 "/Users/imac/Downloads/gcc-arm-none-eabi-4_9-2015q2/lib/gcc/arm-none-eabi/4.9.3/include/st
 906              		.file 3 "/Users/imac/Downloads/gcc-arm-none-eabi-4_9-2015q2/arm-none-eabi/include/machine/_default
 907              		.file 4 "/Users/imac/Downloads/gcc-arm-none-eabi-4_9-2015q2/arm-none-eabi/include/sys/_stdint.h"
 908              		.file 5 "lib/ChibiOS_2.6.6/os/ports/GCC/ARMCMx/chtypes.h"
 909              		.file 6 "lib/ChibiOS_2.6.6/os/kernel/include/chstreams.h"
 910              		.file 7 "/Users/imac/Downloads/gcc-arm-none-eabi-4_9-2015q2/lib/gcc/arm-none-eabi/4.9.3/include/st
 911              		.file 8 "<built-in>"
ARM GAS  /var/folders/bz/nn5481rn5xq59rb0mbj7x0880000gn/T//cceEuKgd.s 			page 17


 912              		.file 9 "lib/ChibiOS_2.6.6/os/various/memstreams.h"
 913              		.section	.debug_info,"",%progbits
 914              	.Ldebug_info0:
 915 0000 B9060000 		.4byte	0x6b9
 916 0004 0400     		.2byte	0x4
 917 0006 00000000 		.4byte	.Ldebug_abbrev0
 918 000a 04       		.byte	0x4
 919 000b 01       		.uleb128 0x1
 920 000c 0F020000 		.4byte	.LASF43
 921 0010 01       		.byte	0x1
 922 0011 11000000 		.4byte	.LASF44
 923 0015 B1000000 		.4byte	.LASF45
 924 0019 30000000 		.4byte	.Ldebug_ranges0+0x30
 925 001d 00000000 		.4byte	0
 926 0021 00000000 		.4byte	.Ldebug_line0
 927 0025 02       		.uleb128 0x2
 928 0026 08       		.byte	0x8
 929 0027 04       		.byte	0x4
 930 0028 A3000000 		.4byte	.LASF0
 931 002c 03       		.uleb128 0x3
 932 002d 04       		.byte	0x4
 933 002e 05       		.byte	0x5
 934 002f 696E7400 		.ascii	"int\000"
 935 0033 02       		.uleb128 0x2
 936 0034 04       		.byte	0x4
 937 0035 04       		.byte	0x4
 938 0036 9F010000 		.4byte	.LASF1
 939 003a 04       		.uleb128 0x4
 940 003b 00000000 		.4byte	.LASF4
 941 003f 02       		.byte	0x2
 942 0040 D4       		.byte	0xd4
 943 0041 45000000 		.4byte	0x45
 944 0045 02       		.uleb128 0x2
 945 0046 04       		.byte	0x4
 946 0047 07       		.byte	0x7
 947 0048 FC000000 		.4byte	.LASF2
 948 004c 02       		.uleb128 0x2
 949 004d 01       		.byte	0x1
 950 004e 06       		.byte	0x6
 951 004f 6B000000 		.4byte	.LASF3
 952 0053 04       		.uleb128 0x4
 953 0054 07000000 		.4byte	.LASF5
 954 0058 03       		.byte	0x3
 955 0059 1D       		.byte	0x1d
 956 005a 5E000000 		.4byte	0x5e
 957 005e 02       		.uleb128 0x2
 958 005f 01       		.byte	0x1
 959 0060 08       		.byte	0x8
 960 0061 C0010000 		.4byte	.LASF6
 961 0065 02       		.uleb128 0x2
 962 0066 02       		.byte	0x2
 963 0067 05       		.byte	0x5
 964 0068 CE010000 		.4byte	.LASF7
 965 006c 02       		.uleb128 0x2
 966 006d 02       		.byte	0x2
 967 006e 07       		.byte	0x7
 968 006f 31010000 		.4byte	.LASF8
ARM GAS  /var/folders/bz/nn5481rn5xq59rb0mbj7x0880000gn/T//cceEuKgd.s 			page 18


 969 0073 04       		.uleb128 0x4
 970 0074 05020000 		.4byte	.LASF9
 971 0078 03       		.byte	0x3
 972 0079 3F       		.byte	0x3f
 973 007a 7E000000 		.4byte	0x7e
 974 007e 02       		.uleb128 0x2
 975 007f 04       		.byte	0x4
 976 0080 05       		.byte	0x5
 977 0081 85000000 		.4byte	.LASF10
 978 0085 02       		.uleb128 0x2
 979 0086 04       		.byte	0x4
 980 0087 07       		.byte	0x7
 981 0088 09010000 		.4byte	.LASF11
 982 008c 02       		.uleb128 0x2
 983 008d 08       		.byte	0x8
 984 008e 05       		.byte	0x5
 985 008f 5D000000 		.4byte	.LASF12
 986 0093 02       		.uleb128 0x2
 987 0094 08       		.byte	0x8
 988 0095 07       		.byte	0x7
 989 0096 46000000 		.4byte	.LASF13
 990 009a 04       		.uleb128 0x4
 991 009b 3F030000 		.4byte	.LASF14
 992 009f 04       		.byte	0x4
 993 00a0 14       		.byte	0x14
 994 00a1 53000000 		.4byte	0x53
 995 00a5 04       		.uleb128 0x4
 996 00a6 B8010000 		.4byte	.LASF15
 997 00aa 04       		.byte	0x4
 998 00ab 1F       		.byte	0x1f
 999 00ac 73000000 		.4byte	0x73
 1000 00b0 04       		.uleb128 0x4
 1001 00b1 77000000 		.4byte	.LASF16
 1002 00b5 05       		.byte	0x5
 1003 00b6 2B       		.byte	0x2b
 1004 00b7 BB000000 		.4byte	0xbb
 1005 00bb 02       		.uleb128 0x2
 1006 00bc 01       		.byte	0x1
 1007 00bd 02       		.byte	0x2
 1008 00be B2010000 		.4byte	.LASF17
 1009 00c2 04       		.uleb128 0x4
 1010 00c3 44010000 		.4byte	.LASF18
 1011 00c7 05       		.byte	0x5
 1012 00c8 31       		.byte	0x31
 1013 00c9 A5000000 		.4byte	0xa5
 1014 00cd 05       		.uleb128 0x5
 1015 00ce 04       		.byte	0x4
 1016 00cf 02       		.uleb128 0x2
 1017 00d0 04       		.byte	0x4
 1018 00d1 07       		.byte	0x7
 1019 00d2 62010000 		.4byte	.LASF19
 1020 00d6 06       		.uleb128 0x6
 1021 00d7 04       		.byte	0x4
 1022 00d8 DC000000 		.4byte	0xdc
 1023 00dc 07       		.uleb128 0x7
 1024 00dd E1000000 		.4byte	0xe1
 1025 00e1 02       		.uleb128 0x2
ARM GAS  /var/folders/bz/nn5481rn5xq59rb0mbj7x0880000gn/T//cceEuKgd.s 			page 19


 1026 00e2 01       		.byte	0x1
 1027 00e3 08       		.byte	0x8
 1028 00e4 F6010000 		.4byte	.LASF20
 1029 00e8 06       		.uleb128 0x6
 1030 00e9 04       		.byte	0x4
 1031 00ea EE000000 		.4byte	0xee
 1032 00ee 08       		.uleb128 0x8
 1033 00ef C2000000 		.4byte	0xc2
 1034 00f3 FD000000 		.4byte	0xfd
 1035 00f7 09       		.uleb128 0x9
 1036 00f8 CD000000 		.4byte	0xcd
 1037 00fc 00       		.byte	0
 1038 00fd 06       		.uleb128 0x6
 1039 00fe 04       		.byte	0x4
 1040 00ff 9A000000 		.4byte	0x9a
 1041 0103 0A       		.uleb128 0xa
 1042 0104 D8010000 		.4byte	.LASF25
 1043 0108 10       		.byte	0x10
 1044 0109 06       		.byte	0x6
 1045 010a 48       		.byte	0x48
 1046 010b 40010000 		.4byte	0x140
 1047 010f 0B       		.uleb128 0xb
 1048 0110 5C010000 		.4byte	.LASF21
 1049 0114 06       		.byte	0x6
 1050 0115 49       		.byte	0x49
 1051 0116 64010000 		.4byte	0x164
 1052 011a 00       		.byte	0
 1053 011b 0B       		.uleb128 0xb
 1054 011c 51030000 		.4byte	.LASF22
 1055 0120 06       		.byte	0x6
 1056 0121 49       		.byte	0x49
 1057 0122 83010000 		.4byte	0x183
 1058 0126 04       		.byte	0x4
 1059 0127 0C       		.uleb128 0xc
 1060 0128 70757400 		.ascii	"put\000"
 1061 012c 06       		.byte	0x6
 1062 012d 49       		.byte	0x49
 1063 012e 9D010000 		.4byte	0x19d
 1064 0132 08       		.byte	0x8
 1065 0133 0C       		.uleb128 0xc
 1066 0134 67657400 		.ascii	"get\000"
 1067 0138 06       		.byte	0x6
 1068 0139 49       		.byte	0x49
 1069 013a E8000000 		.4byte	0xe8
 1070 013e 0C       		.byte	0xc
 1071 013f 00       		.byte	0
 1072 0140 08       		.uleb128 0x8
 1073 0141 3A000000 		.4byte	0x3a
 1074 0145 59010000 		.4byte	0x159
 1075 0149 09       		.uleb128 0x9
 1076 014a CD000000 		.4byte	0xcd
 1077 014e 09       		.uleb128 0x9
 1078 014f 59010000 		.4byte	0x159
 1079 0153 09       		.uleb128 0x9
 1080 0154 3A000000 		.4byte	0x3a
 1081 0158 00       		.byte	0
 1082 0159 06       		.uleb128 0x6
ARM GAS  /var/folders/bz/nn5481rn5xq59rb0mbj7x0880000gn/T//cceEuKgd.s 			page 20


 1083 015a 04       		.byte	0x4
 1084 015b 5F010000 		.4byte	0x15f
 1085 015f 07       		.uleb128 0x7
 1086 0160 9A000000 		.4byte	0x9a
 1087 0164 06       		.uleb128 0x6
 1088 0165 04       		.byte	0x4
 1089 0166 40010000 		.4byte	0x140
 1090 016a 08       		.uleb128 0x8
 1091 016b 3A000000 		.4byte	0x3a
 1092 016f 83010000 		.4byte	0x183
 1093 0173 09       		.uleb128 0x9
 1094 0174 CD000000 		.4byte	0xcd
 1095 0178 09       		.uleb128 0x9
 1096 0179 FD000000 		.4byte	0xfd
 1097 017d 09       		.uleb128 0x9
 1098 017e 3A000000 		.4byte	0x3a
 1099 0182 00       		.byte	0
 1100 0183 06       		.uleb128 0x6
 1101 0184 04       		.byte	0x4
 1102 0185 6A010000 		.4byte	0x16a
 1103 0189 08       		.uleb128 0x8
 1104 018a C2000000 		.4byte	0xc2
 1105 018e 9D010000 		.4byte	0x19d
 1106 0192 09       		.uleb128 0x9
 1107 0193 CD000000 		.4byte	0xcd
 1108 0197 09       		.uleb128 0x9
 1109 0198 9A000000 		.4byte	0x9a
 1110 019c 00       		.byte	0
 1111 019d 06       		.uleb128 0x6
 1112 019e 04       		.byte	0x4
 1113 019f 89010000 		.4byte	0x189
 1114 01a3 0D       		.uleb128 0xd
 1115 01a4 04       		.byte	0x4
 1116 01a5 06       		.byte	0x6
 1117 01a6 51       		.byte	0x51
 1118 01a7 B8010000 		.4byte	0x1b8
 1119 01ab 0C       		.uleb128 0xc
 1120 01ac 766D7400 		.ascii	"vmt\000"
 1121 01b0 06       		.byte	0x6
 1122 01b1 53       		.byte	0x53
 1123 01b2 B8010000 		.4byte	0x1b8
 1124 01b6 00       		.byte	0
 1125 01b7 00       		.byte	0
 1126 01b8 06       		.uleb128 0x6
 1127 01b9 04       		.byte	0x4
 1128 01ba BE010000 		.4byte	0x1be
 1129 01be 07       		.uleb128 0x7
 1130 01bf 03010000 		.4byte	0x103
 1131 01c3 04       		.uleb128 0x4
 1132 01c4 E7000000 		.4byte	.LASF23
 1133 01c8 06       		.byte	0x6
 1134 01c9 55       		.byte	0x55
 1135 01ca A3010000 		.4byte	0x1a3
 1136 01ce 04       		.uleb128 0x4
 1137 01cf 83010000 		.4byte	.LASF24
 1138 01d3 07       		.byte	0x7
 1139 01d4 28       		.byte	0x28
ARM GAS  /var/folders/bz/nn5481rn5xq59rb0mbj7x0880000gn/T//cceEuKgd.s 			page 21


 1140 01d5 D9010000 		.4byte	0x1d9
 1141 01d9 0A       		.uleb128 0xa
 1142 01da 99000000 		.4byte	.LASF26
 1143 01de 04       		.byte	0x4
 1144 01df 08       		.byte	0x8
 1145 01e0 00       		.byte	0
 1146 01e1 F0010000 		.4byte	0x1f0
 1147 01e5 0E       		.uleb128 0xe
 1148 01e6 3A030000 		.4byte	.LASF46
 1149 01ea CD000000 		.4byte	0xcd
 1150 01ee 00       		.byte	0
 1151 01ef 00       		.byte	0
 1152 01f0 04       		.uleb128 0x4
 1153 01f1 39000000 		.4byte	.LASF27
 1154 01f5 07       		.byte	0x7
 1155 01f6 62       		.byte	0x62
 1156 01f7 CE010000 		.4byte	0x1ce
 1157 01fb 0A       		.uleb128 0xa
 1158 01fc 92010000 		.4byte	.LASF28
 1159 0200 10       		.byte	0x10
 1160 0201 09       		.byte	0x9
 1161 0202 3D       		.byte	0x3d
 1162 0203 38020000 		.4byte	0x238
 1163 0207 0B       		.uleb128 0xb
 1164 0208 5C010000 		.4byte	.LASF21
 1165 020c 09       		.byte	0x9
 1166 020d 3E       		.byte	0x3e
 1167 020e 64010000 		.4byte	0x164
 1168 0212 00       		.byte	0
 1169 0213 0B       		.uleb128 0xb
 1170 0214 51030000 		.4byte	.LASF22
 1171 0218 09       		.byte	0x9
 1172 0219 3E       		.byte	0x3e
 1173 021a 83010000 		.4byte	0x183
 1174 021e 04       		.byte	0x4
 1175 021f 0C       		.uleb128 0xc
 1176 0220 70757400 		.ascii	"put\000"
 1177 0224 09       		.byte	0x9
 1178 0225 3E       		.byte	0x3e
 1179 0226 9D010000 		.4byte	0x19d
 1180 022a 08       		.byte	0x8
 1181 022b 0C       		.uleb128 0xc
 1182 022c 67657400 		.ascii	"get\000"
 1183 0230 09       		.byte	0x9
 1184 0231 3E       		.byte	0x3e
 1185 0232 E8000000 		.4byte	0xe8
 1186 0236 0C       		.byte	0xc
 1187 0237 00       		.byte	0
 1188 0238 0D       		.uleb128 0xd
 1189 0239 14       		.byte	0x14
 1190 023a 09       		.byte	0x9
 1191 023b 46       		.byte	0x46
 1192 023c 7D020000 		.4byte	0x27d
 1193 0240 0C       		.uleb128 0xc
 1194 0241 766D7400 		.ascii	"vmt\000"
 1195 0245 09       		.byte	0x9
 1196 0246 48       		.byte	0x48
ARM GAS  /var/folders/bz/nn5481rn5xq59rb0mbj7x0880000gn/T//cceEuKgd.s 			page 22


 1197 0247 7D020000 		.4byte	0x27d
 1198 024b 00       		.byte	0
 1199 024c 0B       		.uleb128 0xb
 1200 024d AA000000 		.4byte	.LASF29
 1201 0251 09       		.byte	0x9
 1202 0252 49       		.byte	0x49
 1203 0253 FD000000 		.4byte	0xfd
 1204 0257 04       		.byte	0x4
 1205 0258 0B       		.uleb128 0xb
 1206 0259 2C010000 		.4byte	.LASF30
 1207 025d 09       		.byte	0x9
 1208 025e 49       		.byte	0x49
 1209 025f 3A000000 		.4byte	0x3a
 1210 0263 08       		.byte	0x8
 1211 0264 0C       		.uleb128 0xc
 1212 0265 656F7300 		.ascii	"eos\000"
 1213 0269 09       		.byte	0x9
 1214 026a 49       		.byte	0x49
 1215 026b 3A000000 		.4byte	0x3a
 1216 026f 0C       		.byte	0xc
 1217 0270 0B       		.uleb128 0xb
 1218 0271 33030000 		.4byte	.LASF31
 1219 0275 09       		.byte	0x9
 1220 0276 49       		.byte	0x49
 1221 0277 3A000000 		.4byte	0x3a
 1222 027b 10       		.byte	0x10
 1223 027c 00       		.byte	0
 1224 027d 06       		.uleb128 0x6
 1225 027e 04       		.byte	0x4
 1226 027f 83020000 		.4byte	0x283
 1227 0283 07       		.uleb128 0x7
 1228 0284 FB010000 		.4byte	0x1fb
 1229 0288 04       		.uleb128 0x4
 1230 0289 A5010000 		.4byte	.LASF32
 1231 028d 09       		.byte	0x9
 1232 028e 4A       		.byte	0x4a
 1233 028f 38020000 		.4byte	0x238
 1234 0293 0F       		.uleb128 0xf
 1235 0294 4A010000 		.4byte	.LASF35
 1236 0298 01       		.byte	0x1
 1237 0299 46       		.byte	0x46
 1238 029a C3020000 		.4byte	0x2c3
 1239 029e 01       		.byte	0x1
 1240 029f C3020000 		.4byte	0x2c3
 1241 02a3 10       		.uleb128 0x10
 1242 02a4 7000     		.ascii	"p\000"
 1243 02a6 01       		.byte	0x1
 1244 02a7 46       		.byte	0x46
 1245 02a8 C3020000 		.4byte	0x2c3
 1246 02ac 10       		.uleb128 0x10
 1247 02ad 6E756D00 		.ascii	"num\000"
 1248 02b1 01       		.byte	0x1
 1249 02b2 46       		.byte	0x46
 1250 02b3 7E000000 		.4byte	0x7e
 1251 02b7 11       		.uleb128 0x11
 1252 02b8 F0010000 		.4byte	.LASF33
 1253 02bc 01       		.byte	0x1
ARM GAS  /var/folders/bz/nn5481rn5xq59rb0mbj7x0880000gn/T//cceEuKgd.s 			page 23


 1254 02bd 46       		.byte	0x46
 1255 02be 45000000 		.4byte	0x45
 1256 02c2 00       		.byte	0
 1257 02c3 06       		.uleb128 0x6
 1258 02c4 04       		.byte	0x4
 1259 02c5 E1000000 		.4byte	0xe1
 1260 02c9 12       		.uleb128 0x12
 1261 02ca 56030000 		.4byte	.LASF47
 1262 02ce 01       		.byte	0x1
 1263 02cf 25       		.byte	0x25
 1264 02d0 C3020000 		.4byte	0x2c3
 1265 02d4 00000000 		.4byte	.LFB8
 1266 02d8 48000000 		.4byte	.LFE8-.LFB8
 1267 02dc 01       		.uleb128 0x1
 1268 02dd 9C       		.byte	0x9c
 1269 02de 50030000 		.4byte	0x350
 1270 02e2 13       		.uleb128 0x13
 1271 02e3 7000     		.ascii	"p\000"
 1272 02e5 01       		.byte	0x1
 1273 02e6 25       		.byte	0x25
 1274 02e7 C3020000 		.4byte	0x2c3
 1275 02eb 00000000 		.4byte	.LLST0
 1276 02ef 13       		.uleb128 0x13
 1277 02f0 6E756D00 		.ascii	"num\000"
 1278 02f4 01       		.byte	0x1
 1279 02f5 26       		.byte	0x26
 1280 02f6 7E000000 		.4byte	0x7e
 1281 02fa 38000000 		.4byte	.LLST1
 1282 02fe 14       		.uleb128 0x14
 1283 02ff F0010000 		.4byte	.LASF33
 1284 0303 01       		.byte	0x1
 1285 0304 27       		.byte	0x27
 1286 0305 45000000 		.4byte	0x45
 1287 0309 01       		.uleb128 0x1
 1288 030a 52       		.byte	0x52
 1289 030b 15       		.uleb128 0x15
 1290 030c 7B010000 		.4byte	.LASF34
 1291 0310 01       		.byte	0x1
 1292 0311 28       		.byte	0x28
 1293 0312 7E000000 		.4byte	0x7e
 1294 0316 59000000 		.4byte	.LLST2
 1295 031a 16       		.uleb128 0x16
 1296 031b 6900     		.ascii	"i\000"
 1297 031d 01       		.byte	0x1
 1298 031e 29       		.byte	0x29
 1299 031f 2C000000 		.4byte	0x2c
 1300 0323 7A000000 		.4byte	.LLST3
 1301 0327 16       		.uleb128 0x16
 1302 0328 7100     		.ascii	"q\000"
 1303 032a 01       		.byte	0x1
 1304 032b 2A       		.byte	0x2a
 1305 032c C3020000 		.4byte	0x2c3
 1306 0330 A8000000 		.4byte	.LLST4
 1307 0334 16       		.uleb128 0x16
 1308 0335 6C00     		.ascii	"l\000"
 1309 0337 01       		.byte	0x1
 1310 0338 2B       		.byte	0x2b
ARM GAS  /var/folders/bz/nn5481rn5xq59rb0mbj7x0880000gn/T//cceEuKgd.s 			page 24


 1311 0339 7E000000 		.4byte	0x7e
 1312 033d DE000000 		.4byte	.LLST5
 1313 0341 16       		.uleb128 0x16
 1314 0342 6C6C00   		.ascii	"ll\000"
 1315 0345 01       		.byte	0x1
 1316 0346 2B       		.byte	0x2b
 1317 0347 7E000000 		.4byte	0x7e
 1318 034b FC000000 		.4byte	.LLST6
 1319 034f 00       		.byte	0
 1320 0350 0F       		.uleb128 0xf
 1321 0351 41000000 		.4byte	.LASF36
 1322 0355 01       		.byte	0x1
 1323 0356 4C       		.byte	0x4c
 1324 0357 C3020000 		.4byte	0x2c3
 1325 035b 01       		.byte	0x1
 1326 035c 89030000 		.4byte	0x389
 1327 0360 10       		.uleb128 0x10
 1328 0361 7000     		.ascii	"p\000"
 1329 0363 01       		.byte	0x1
 1330 0364 4C       		.byte	0x4c
 1331 0365 C3020000 		.4byte	0x2c3
 1332 0369 10       		.uleb128 0x10
 1333 036a 6E756D00 		.ascii	"num\000"
 1334 036e 01       		.byte	0x1
 1335 036f 4C       		.byte	0x4c
 1336 0370 25000000 		.4byte	0x25
 1337 0374 17       		.uleb128 0x17
 1338 0375 6C00     		.ascii	"l\000"
 1339 0377 01       		.byte	0x1
 1340 0378 4D       		.byte	0x4d
 1341 0379 7E000000 		.4byte	0x7e
 1342 037d 18       		.uleb128 0x18
 1343 037e FB010000 		.4byte	.LASF37
 1344 0382 01       		.byte	0x1
 1345 0383 4E       		.byte	0x4e
 1346 0384 85000000 		.4byte	0x85
 1347 0388 00       		.byte	0
 1348 0389 19       		.uleb128 0x19
 1349 038a 47030000 		.4byte	.LASF48
 1350 038e 01       		.byte	0x1
 1351 038f 70       		.byte	0x70
 1352 0390 00000000 		.4byte	.LFB11
 1353 0394 7C030000 		.4byte	.LFE11-.LFB11
 1354 0398 01       		.uleb128 0x1
 1355 0399 9C       		.byte	0x9c
 1356 039a B1050000 		.4byte	0x5b1
 1357 039e 13       		.uleb128 0x13
 1358 039f 63687000 		.ascii	"chp\000"
 1359 03a3 01       		.byte	0x1
 1360 03a4 70       		.byte	0x70
 1361 03a5 B1050000 		.4byte	0x5b1
 1362 03a9 1A010000 		.4byte	.LLST7
 1363 03ad 13       		.uleb128 0x13
 1364 03ae 666D7400 		.ascii	"fmt\000"
 1365 03b2 01       		.byte	0x1
 1366 03b3 70       		.byte	0x70
 1367 03b4 D6000000 		.4byte	0xd6
ARM GAS  /var/folders/bz/nn5481rn5xq59rb0mbj7x0880000gn/T//cceEuKgd.s 			page 25


 1368 03b8 38010000 		.4byte	.LLST8
 1369 03bc 13       		.uleb128 0x13
 1370 03bd 617000   		.ascii	"ap\000"
 1371 03c0 01       		.byte	0x1
 1372 03c1 70       		.byte	0x70
 1373 03c2 F0010000 		.4byte	0x1f0
 1374 03c6 F8010000 		.4byte	.LLST9
 1375 03ca 16       		.uleb128 0x16
 1376 03cb 7000     		.ascii	"p\000"
 1377 03cd 01       		.byte	0x1
 1378 03ce 71       		.byte	0x71
 1379 03cf C3020000 		.4byte	0x2c3
 1380 03d3 16020000 		.4byte	.LLST10
 1381 03d7 16       		.uleb128 0x16
 1382 03d8 7300     		.ascii	"s\000"
 1383 03da 01       		.byte	0x1
 1384 03db 71       		.byte	0x71
 1385 03dc C3020000 		.4byte	0x2c3
 1386 03e0 47030000 		.4byte	.LLST11
 1387 03e4 16       		.uleb128 0x16
 1388 03e5 6300     		.ascii	"c\000"
 1389 03e7 01       		.byte	0x1
 1390 03e8 71       		.byte	0x71
 1391 03e9 E1000000 		.4byte	0xe1
 1392 03ed CA030000 		.4byte	.LLST12
 1393 03f1 1A       		.uleb128 0x1a
 1394 03f2 D8000000 		.4byte	.LASF38
 1395 03f6 01       		.byte	0x1
 1396 03f7 71       		.byte	0x71
 1397 03f8 E1000000 		.4byte	0xe1
 1398 03fc 58040000 		.4byte	.LLST13
 1399 0400 16       		.uleb128 0x16
 1400 0401 6900     		.ascii	"i\000"
 1401 0403 01       		.byte	0x1
 1402 0404 72       		.byte	0x72
 1403 0405 2C000000 		.4byte	0x2c
 1404 0409 F0040000 		.4byte	.LLST14
 1405 040d 1A       		.uleb128 0x1a
 1406 040e FB010000 		.4byte	.LASF37
 1407 0412 01       		.byte	0x1
 1408 0413 72       		.byte	0x72
 1409 0414 2C000000 		.4byte	0x2c
 1410 0418 6C050000 		.4byte	.LLST15
 1411 041c 1A       		.uleb128 0x1a
 1412 041d 26010000 		.4byte	.LASF39
 1413 0421 01       		.byte	0x1
 1414 0422 72       		.byte	0x72
 1415 0423 2C000000 		.4byte	0x2c
 1416 0427 04060000 		.4byte	.LLST16
 1417 042b 1A       		.uleb128 0x1a
 1418 042c DF000000 		.4byte	.LASF40
 1419 0430 01       		.byte	0x1
 1420 0431 73       		.byte	0x73
 1421 0432 B0000000 		.4byte	0xb0
 1422 0436 74060000 		.4byte	.LLST17
 1423 043a 1A       		.uleb128 0x1a
 1424 043b 1B010000 		.4byte	.LASF41
ARM GAS  /var/folders/bz/nn5481rn5xq59rb0mbj7x0880000gn/T//cceEuKgd.s 			page 26


 1425 043f 01       		.byte	0x1
 1426 0440 73       		.byte	0x73
 1427 0441 B0000000 		.4byte	0xb0
 1428 0445 94060000 		.4byte	.LLST18
 1429 0449 16       		.uleb128 0x16
 1430 044a 6C00     		.ascii	"l\000"
 1431 044c 01       		.byte	0x1
 1432 044d 74       		.byte	0x74
 1433 044e 7E000000 		.4byte	0x7e
 1434 0452 E0060000 		.4byte	.LLST19
 1435 0456 16       		.uleb128 0x16
 1436 0457 6600     		.ascii	"f\000"
 1437 0459 01       		.byte	0x1
 1438 045a 76       		.byte	0x76
 1439 045b 33000000 		.4byte	0x33
 1440 045f 09070000 		.4byte	.LLST20
 1441 0463 1B       		.uleb128 0x1b
 1442 0464 7E000000 		.4byte	.LASF42
 1443 0468 01       		.byte	0x1
 1444 0469 77       		.byte	0x77
 1445 046a B7050000 		.4byte	0x5b7
 1446 046e 03       		.uleb128 0x3
 1447 046f 91       		.byte	0x91
 1448 0470 B87F     		.sleb128 -72
 1449 0472 1C       		.uleb128 0x1c
 1450 0473 6B010000 		.4byte	.LASF49
 1451 0477 01       		.byte	0x1
 1452 0478 E4       		.byte	0xe4
 1453 0479 F2020000 		.4byte	.L40
 1454 047d 1D       		.uleb128 0x1d
 1455 047e 50030000 		.4byte	0x350
 1456 0482 06020000 		.4byte	.LBB12
 1457 0486 00000000 		.4byte	.Ldebug_ranges0+0
 1458 048a 01       		.byte	0x1
 1459 048b D6       		.byte	0xd6
 1460 048c F7040000 		.4byte	0x4f7
 1461 0490 1E       		.uleb128 0x1e
 1462 0491 69030000 		.4byte	0x369
 1463 0495 3F070000 		.4byte	.LLST21
 1464 0499 1E       		.uleb128 0x1e
 1465 049a 60030000 		.4byte	0x360
 1466 049e 57070000 		.4byte	.LLST22
 1467 04a2 1F       		.uleb128 0x1f
 1468 04a3 00000000 		.4byte	.Ldebug_ranges0+0
 1469 04a7 20       		.uleb128 0x20
 1470 04a8 74030000 		.4byte	0x374
 1471 04ac 82070000 		.4byte	.LLST23
 1472 04b0 20       		.uleb128 0x20
 1473 04b1 7D030000 		.4byte	0x37d
 1474 04b5 B4070000 		.4byte	.LLST24
 1475 04b9 21       		.uleb128 0x21
 1476 04ba 1A020000 		.4byte	.LVL69
 1477 04be C9020000 		.4byte	0x2c9
 1478 04c2 D9040000 		.4byte	0x4d9
 1479 04c6 22       		.uleb128 0x22
 1480 04c7 01       		.uleb128 0x1
 1481 04c8 53       		.byte	0x53
ARM GAS  /var/folders/bz/nn5481rn5xq59rb0mbj7x0880000gn/T//cceEuKgd.s 			page 27


 1482 04c9 01       		.uleb128 0x1
 1483 04ca 30       		.byte	0x30
 1484 04cb 22       		.uleb128 0x22
 1485 04cc 01       		.uleb128 0x1
 1486 04cd 52       		.byte	0x52
 1487 04ce 01       		.uleb128 0x1
 1488 04cf 3A       		.byte	0x3a
 1489 04d0 22       		.uleb128 0x22
 1490 04d1 01       		.uleb128 0x1
 1491 04d2 51       		.byte	0x51
 1492 04d3 04       		.uleb128 0x4
 1493 04d4 91       		.byte	0x91
 1494 04d5 AC7F     		.sleb128 -84
 1495 04d7 06       		.byte	0x6
 1496 04d8 00       		.byte	0
 1497 04d9 23       		.uleb128 0x23
 1498 04da 5C020000 		.4byte	.LVL76
 1499 04de C9020000 		.4byte	0x2c9
 1500 04e2 22       		.uleb128 0x22
 1501 04e3 01       		.uleb128 0x1
 1502 04e4 53       		.byte	0x53
 1503 04e5 03       		.uleb128 0x3
 1504 04e6 0A       		.byte	0xa
 1505 04e7 1027     		.2byte	0x2710
 1506 04e9 22       		.uleb128 0x22
 1507 04ea 01       		.uleb128 0x1
 1508 04eb 52       		.byte	0x52
 1509 04ec 01       		.uleb128 0x1
 1510 04ed 3A       		.byte	0x3a
 1511 04ee 22       		.uleb128 0x22
 1512 04ef 01       		.uleb128 0x1
 1513 04f0 50       		.byte	0x50
 1514 04f1 02       		.uleb128 0x2
 1515 04f2 7B       		.byte	0x7b
 1516 04f3 00       		.sleb128 0
 1517 04f4 00       		.byte	0
 1518 04f5 00       		.byte	0
 1519 04f6 00       		.byte	0
 1520 04f7 1D       		.uleb128 0x1d
 1521 04f8 93020000 		.4byte	0x293
 1522 04fc 6A020000 		.4byte	.LBB16
 1523 0500 18000000 		.4byte	.Ldebug_ranges0+0x18
 1524 0504 01       		.byte	0x1
 1525 0505 E9       		.byte	0xe9
 1526 0506 29050000 		.4byte	0x529
 1527 050a 24       		.uleb128 0x24
 1528 050b B7020000 		.4byte	0x2b7
 1529 050f 24       		.uleb128 0x24
 1530 0510 AC020000 		.4byte	0x2ac
 1531 0514 24       		.uleb128 0x24
 1532 0515 A3020000 		.4byte	0x2a3
 1533 0519 23       		.uleb128 0x23
 1534 051a 74020000 		.4byte	.LVL82
 1535 051e C9020000 		.4byte	0x2c9
 1536 0522 22       		.uleb128 0x22
 1537 0523 01       		.uleb128 0x1
 1538 0524 53       		.byte	0x53
ARM GAS  /var/folders/bz/nn5481rn5xq59rb0mbj7x0880000gn/T//cceEuKgd.s 			page 28


 1539 0525 01       		.uleb128 0x1
 1540 0526 30       		.byte	0x30
 1541 0527 00       		.byte	0
 1542 0528 00       		.byte	0
 1543 0529 25       		.uleb128 0x25
 1544 052a 93020000 		.4byte	0x293
 1545 052e D0020000 		.4byte	.LBB20
 1546 0532 04000000 		.4byte	.LBE20-.LBB20
 1547 0536 01       		.byte	0x1
 1548 0537 CD       		.byte	0xcd
 1549 0538 58050000 		.4byte	0x558
 1550 053c 1E       		.uleb128 0x1e
 1551 053d B7020000 		.4byte	0x2b7
 1552 0541 CC070000 		.4byte	.LLST25
 1553 0545 1E       		.uleb128 0x1e
 1554 0546 AC020000 		.4byte	0x2ac
 1555 054a E0070000 		.4byte	.LLST26
 1556 054e 1E       		.uleb128 0x1e
 1557 054f A3020000 		.4byte	0x2a3
 1558 0553 F3070000 		.4byte	.LLST27
 1559 0557 00       		.byte	0
 1560 0558 26       		.uleb128 0x26
 1561 0559 28000000 		.4byte	.LVL19
 1562 055d 68050000 		.4byte	0x568
 1563 0561 22       		.uleb128 0x22
 1564 0562 01       		.uleb128 0x1
 1565 0563 50       		.byte	0x50
 1566 0564 02       		.uleb128 0x2
 1567 0565 76       		.byte	0x76
 1568 0566 00       		.sleb128 0
 1569 0567 00       		.byte	0
 1570 0568 26       		.uleb128 0x26
 1571 0569 DC010000 		.4byte	.LVL62
 1572 056d 7E050000 		.4byte	0x57e
 1573 0571 22       		.uleb128 0x22
 1574 0572 01       		.uleb128 0x1
 1575 0573 51       		.byte	0x51
 1576 0574 02       		.uleb128 0x2
 1577 0575 78       		.byte	0x78
 1578 0576 00       		.sleb128 0
 1579 0577 22       		.uleb128 0x22
 1580 0578 01       		.uleb128 0x1
 1581 0579 50       		.byte	0x50
 1582 057a 02       		.uleb128 0x2
 1583 057b 76       		.byte	0x76
 1584 057c 00       		.sleb128 0
 1585 057d 00       		.byte	0
 1586 057e 26       		.uleb128 0x26
 1587 057f A0020000 		.4byte	.LVL90
 1588 0583 94050000 		.4byte	0x594
 1589 0587 22       		.uleb128 0x22
 1590 0588 01       		.uleb128 0x1
 1591 0589 51       		.byte	0x51
 1592 058a 02       		.uleb128 0x2
 1593 058b 78       		.byte	0x78
 1594 058c 00       		.sleb128 0
 1595 058d 22       		.uleb128 0x22
ARM GAS  /var/folders/bz/nn5481rn5xq59rb0mbj7x0880000gn/T//cceEuKgd.s 			page 29


 1596 058e 01       		.uleb128 0x1
 1597 058f 50       		.byte	0x50
 1598 0590 02       		.uleb128 0x2
 1599 0591 76       		.byte	0x76
 1600 0592 00       		.sleb128 0
 1601 0593 00       		.byte	0
 1602 0594 26       		.uleb128 0x26
 1603 0595 BC020000 		.4byte	.LVL96
 1604 0599 A4050000 		.4byte	0x5a4
 1605 059d 22       		.uleb128 0x22
 1606 059e 01       		.uleb128 0x1
 1607 059f 50       		.byte	0x50
 1608 05a0 02       		.uleb128 0x2
 1609 05a1 76       		.byte	0x76
 1610 05a2 00       		.sleb128 0
 1611 05a3 00       		.byte	0
 1612 05a4 27       		.uleb128 0x27
 1613 05a5 40030000 		.4byte	.LVL116
 1614 05a9 22       		.uleb128 0x22
 1615 05aa 01       		.uleb128 0x1
 1616 05ab 50       		.byte	0x50
 1617 05ac 02       		.uleb128 0x2
 1618 05ad 76       		.byte	0x76
 1619 05ae 00       		.sleb128 0
 1620 05af 00       		.byte	0
 1621 05b0 00       		.byte	0
 1622 05b1 06       		.uleb128 0x6
 1623 05b2 04       		.byte	0x4
 1624 05b3 C3010000 		.4byte	0x1c3
 1625 05b7 28       		.uleb128 0x28
 1626 05b8 E1000000 		.4byte	0xe1
 1627 05bc C7050000 		.4byte	0x5c7
 1628 05c0 29       		.uleb128 0x29
 1629 05c1 CF000000 		.4byte	0xcf
 1630 05c5 16       		.byte	0x16
 1631 05c6 00       		.byte	0
 1632 05c7 2A       		.uleb128 0x2a
 1633 05c8 8E000000 		.4byte	.LASF50
 1634 05cc 01       		.byte	0x1
 1635 05cd 2001     		.2byte	0x120
 1636 05cf 2C000000 		.4byte	0x2c
 1637 05d3 00000000 		.4byte	.LFB12
 1638 05d7 3C000000 		.4byte	.LFE12-.LFB12
 1639 05db 01       		.uleb128 0x1
 1640 05dc 9C       		.byte	0x9c
 1641 05dd 96060000 		.4byte	0x696
 1642 05e1 2B       		.uleb128 0x2b
 1643 05e2 73747200 		.ascii	"str\000"
 1644 05e6 01       		.byte	0x1
 1645 05e7 2001     		.2byte	0x120
 1646 05e9 C3020000 		.4byte	0x2c3
 1647 05ed 06080000 		.4byte	.LLST28
 1648 05f1 2C       		.uleb128 0x2c
 1649 05f2 2C010000 		.4byte	.LASF30
 1650 05f6 01       		.byte	0x1
 1651 05f7 2001     		.2byte	0x120
 1652 05f9 3A000000 		.4byte	0x3a
ARM GAS  /var/folders/bz/nn5481rn5xq59rb0mbj7x0880000gn/T//cceEuKgd.s 			page 30


 1653 05fd 32080000 		.4byte	.LLST29
 1654 0601 2D       		.uleb128 0x2d
 1655 0602 666D7400 		.ascii	"fmt\000"
 1656 0606 01       		.byte	0x1
 1657 0607 2001     		.2byte	0x120
 1658 0609 D6000000 		.4byte	0xd6
 1659 060d 02       		.uleb128 0x2
 1660 060e 91       		.byte	0x91
 1661 060f 78       		.sleb128 -8
 1662 0610 2E       		.uleb128 0x2e
 1663 0611 2F       		.uleb128 0x2f
 1664 0612 617000   		.ascii	"ap\000"
 1665 0615 01       		.byte	0x1
 1666 0616 2101     		.2byte	0x121
 1667 0618 F0010000 		.4byte	0x1f0
 1668 061c 02       		.uleb128 0x2
 1669 061d 91       		.byte	0x91
 1670 061e 50       		.sleb128 -48
 1671 061f 2F       		.uleb128 0x2f
 1672 0620 6D7300   		.ascii	"ms\000"
 1673 0623 01       		.byte	0x1
 1674 0624 2201     		.2byte	0x122
 1675 0626 88020000 		.4byte	0x288
 1676 062a 02       		.uleb128 0x2
 1677 062b 91       		.byte	0x91
 1678 062c 54       		.sleb128 -44
 1679 062d 30       		.uleb128 0x30
 1680 062e 63687000 		.ascii	"chp\000"
 1681 0632 01       		.byte	0x1
 1682 0633 2301     		.2byte	0x123
 1683 0635 B1050000 		.4byte	0x5b1
 1684 0639 5E080000 		.4byte	.LLST30
 1685 063d 21       		.uleb128 0x21
 1686 063e 18000000 		.4byte	.LVL129
 1687 0642 96060000 		.4byte	0x696
 1688 0646 64060000 		.4byte	0x664
 1689 064a 22       		.uleb128 0x22
 1690 064b 01       		.uleb128 0x1
 1691 064c 53       		.byte	0x53
 1692 064d 01       		.uleb128 0x1
 1693 064e 30       		.byte	0x30
 1694 064f 22       		.uleb128 0x22
 1695 0650 01       		.uleb128 0x1
 1696 0651 52       		.byte	0x52
 1697 0652 03       		.uleb128 0x3
 1698 0653 F3       		.byte	0xf3
 1699 0654 01       		.uleb128 0x1
 1700 0655 51       		.byte	0x51
 1701 0656 22       		.uleb128 0x22
 1702 0657 01       		.uleb128 0x1
 1703 0658 51       		.byte	0x51
 1704 0659 03       		.uleb128 0x3
 1705 065a F3       		.byte	0xf3
 1706 065b 01       		.uleb128 0x1
 1707 065c 50       		.byte	0x50
 1708 065d 22       		.uleb128 0x22
 1709 065e 01       		.uleb128 0x1
ARM GAS  /var/folders/bz/nn5481rn5xq59rb0mbj7x0880000gn/T//cceEuKgd.s 			page 31


 1710 065f 50       		.byte	0x50
 1711 0660 02       		.uleb128 0x2
 1712 0661 91       		.byte	0x91
 1713 0662 44       		.sleb128 -60
 1714 0663 00       		.byte	0
 1715 0664 21       		.uleb128 0x21
 1716 0665 24000000 		.4byte	.LVL131
 1717 0669 89030000 		.4byte	0x389
 1718 066d 84060000 		.4byte	0x684
 1719 0671 22       		.uleb128 0x22
 1720 0672 01       		.uleb128 0x1
 1721 0673 52       		.byte	0x52
 1722 0674 02       		.uleb128 0x2
 1723 0675 74       		.byte	0x74
 1724 0676 00       		.sleb128 0
 1725 0677 22       		.uleb128 0x22
 1726 0678 01       		.uleb128 0x1
 1727 0679 51       		.byte	0x51
 1728 067a 02       		.uleb128 0x2
 1729 067b 75       		.byte	0x75
 1730 067c 00       		.sleb128 0
 1731 067d 22       		.uleb128 0x22
 1732 067e 01       		.uleb128 0x1
 1733 067f 50       		.byte	0x50
 1734 0680 02       		.uleb128 0x2
 1735 0681 91       		.byte	0x91
 1736 0682 44       		.sleb128 -60
 1737 0683 00       		.byte	0
 1738 0684 27       		.uleb128 0x27
 1739 0685 2E000000 		.4byte	.LVL133
 1740 0689 22       		.uleb128 0x22
 1741 068a 01       		.uleb128 0x1
 1742 068b 51       		.byte	0x51
 1743 068c 01       		.uleb128 0x1
 1744 068d 30       		.byte	0x30
 1745 068e 22       		.uleb128 0x22
 1746 068f 01       		.uleb128 0x1
 1747 0690 50       		.byte	0x50
 1748 0691 02       		.uleb128 0x2
 1749 0692 91       		.byte	0x91
 1750 0693 44       		.sleb128 -60
 1751 0694 00       		.byte	0
 1752 0695 00       		.byte	0
 1753 0696 31       		.uleb128 0x31
 1754 0697 4F010000 		.4byte	.LASF51
 1755 069b 09       		.byte	0x9
 1756 069c 57       		.byte	0x57
 1757 069d B6060000 		.4byte	0x6b6
 1758 06a1 09       		.uleb128 0x9
 1759 06a2 B6060000 		.4byte	0x6b6
 1760 06a6 09       		.uleb128 0x9
 1761 06a7 FD000000 		.4byte	0xfd
 1762 06ab 09       		.uleb128 0x9
 1763 06ac 3A000000 		.4byte	0x3a
 1764 06b0 09       		.uleb128 0x9
 1765 06b1 3A000000 		.4byte	0x3a
 1766 06b5 00       		.byte	0
ARM GAS  /var/folders/bz/nn5481rn5xq59rb0mbj7x0880000gn/T//cceEuKgd.s 			page 32


 1767 06b6 06       		.uleb128 0x6
 1768 06b7 04       		.byte	0x4
 1769 06b8 88020000 		.4byte	0x288
 1770 06bc 00       		.byte	0
 1771              		.section	.debug_abbrev,"",%progbits
 1772              	.Ldebug_abbrev0:
 1773 0000 01       		.uleb128 0x1
 1774 0001 11       		.uleb128 0x11
 1775 0002 01       		.byte	0x1
 1776 0003 25       		.uleb128 0x25
 1777 0004 0E       		.uleb128 0xe
 1778 0005 13       		.uleb128 0x13
 1779 0006 0B       		.uleb128 0xb
 1780 0007 03       		.uleb128 0x3
 1781 0008 0E       		.uleb128 0xe
 1782 0009 1B       		.uleb128 0x1b
 1783 000a 0E       		.uleb128 0xe
 1784 000b 55       		.uleb128 0x55
 1785 000c 17       		.uleb128 0x17
 1786 000d 11       		.uleb128 0x11
 1787 000e 01       		.uleb128 0x1
 1788 000f 10       		.uleb128 0x10
 1789 0010 17       		.uleb128 0x17
 1790 0011 00       		.byte	0
 1791 0012 00       		.byte	0
 1792 0013 02       		.uleb128 0x2
 1793 0014 24       		.uleb128 0x24
 1794 0015 00       		.byte	0
 1795 0016 0B       		.uleb128 0xb
 1796 0017 0B       		.uleb128 0xb
 1797 0018 3E       		.uleb128 0x3e
 1798 0019 0B       		.uleb128 0xb
 1799 001a 03       		.uleb128 0x3
 1800 001b 0E       		.uleb128 0xe
 1801 001c 00       		.byte	0
 1802 001d 00       		.byte	0
 1803 001e 03       		.uleb128 0x3
 1804 001f 24       		.uleb128 0x24
 1805 0020 00       		.byte	0
 1806 0021 0B       		.uleb128 0xb
 1807 0022 0B       		.uleb128 0xb
 1808 0023 3E       		.uleb128 0x3e
 1809 0024 0B       		.uleb128 0xb
 1810 0025 03       		.uleb128 0x3
 1811 0026 08       		.uleb128 0x8
 1812 0027 00       		.byte	0
 1813 0028 00       		.byte	0
 1814 0029 04       		.uleb128 0x4
 1815 002a 16       		.uleb128 0x16
 1816 002b 00       		.byte	0
 1817 002c 03       		.uleb128 0x3
 1818 002d 0E       		.uleb128 0xe
 1819 002e 3A       		.uleb128 0x3a
 1820 002f 0B       		.uleb128 0xb
 1821 0030 3B       		.uleb128 0x3b
 1822 0031 0B       		.uleb128 0xb
 1823 0032 49       		.uleb128 0x49
ARM GAS  /var/folders/bz/nn5481rn5xq59rb0mbj7x0880000gn/T//cceEuKgd.s 			page 33


 1824 0033 13       		.uleb128 0x13
 1825 0034 00       		.byte	0
 1826 0035 00       		.byte	0
 1827 0036 05       		.uleb128 0x5
 1828 0037 0F       		.uleb128 0xf
 1829 0038 00       		.byte	0
 1830 0039 0B       		.uleb128 0xb
 1831 003a 0B       		.uleb128 0xb
 1832 003b 00       		.byte	0
 1833 003c 00       		.byte	0
 1834 003d 06       		.uleb128 0x6
 1835 003e 0F       		.uleb128 0xf
 1836 003f 00       		.byte	0
 1837 0040 0B       		.uleb128 0xb
 1838 0041 0B       		.uleb128 0xb
 1839 0042 49       		.uleb128 0x49
 1840 0043 13       		.uleb128 0x13
 1841 0044 00       		.byte	0
 1842 0045 00       		.byte	0
 1843 0046 07       		.uleb128 0x7
 1844 0047 26       		.uleb128 0x26
 1845 0048 00       		.byte	0
 1846 0049 49       		.uleb128 0x49
 1847 004a 13       		.uleb128 0x13
 1848 004b 00       		.byte	0
 1849 004c 00       		.byte	0
 1850 004d 08       		.uleb128 0x8
 1851 004e 15       		.uleb128 0x15
 1852 004f 01       		.byte	0x1
 1853 0050 27       		.uleb128 0x27
 1854 0051 19       		.uleb128 0x19
 1855 0052 49       		.uleb128 0x49
 1856 0053 13       		.uleb128 0x13
 1857 0054 01       		.uleb128 0x1
 1858 0055 13       		.uleb128 0x13
 1859 0056 00       		.byte	0
 1860 0057 00       		.byte	0
 1861 0058 09       		.uleb128 0x9
 1862 0059 05       		.uleb128 0x5
 1863 005a 00       		.byte	0
 1864 005b 49       		.uleb128 0x49
 1865 005c 13       		.uleb128 0x13
 1866 005d 00       		.byte	0
 1867 005e 00       		.byte	0
 1868 005f 0A       		.uleb128 0xa
 1869 0060 13       		.uleb128 0x13
 1870 0061 01       		.byte	0x1
 1871 0062 03       		.uleb128 0x3
 1872 0063 0E       		.uleb128 0xe
 1873 0064 0B       		.uleb128 0xb
 1874 0065 0B       		.uleb128 0xb
 1875 0066 3A       		.uleb128 0x3a
 1876 0067 0B       		.uleb128 0xb
 1877 0068 3B       		.uleb128 0x3b
 1878 0069 0B       		.uleb128 0xb
 1879 006a 01       		.uleb128 0x1
 1880 006b 13       		.uleb128 0x13
ARM GAS  /var/folders/bz/nn5481rn5xq59rb0mbj7x0880000gn/T//cceEuKgd.s 			page 34


 1881 006c 00       		.byte	0
 1882 006d 00       		.byte	0
 1883 006e 0B       		.uleb128 0xb
 1884 006f 0D       		.uleb128 0xd
 1885 0070 00       		.byte	0
 1886 0071 03       		.uleb128 0x3
 1887 0072 0E       		.uleb128 0xe
 1888 0073 3A       		.uleb128 0x3a
 1889 0074 0B       		.uleb128 0xb
 1890 0075 3B       		.uleb128 0x3b
 1891 0076 0B       		.uleb128 0xb
 1892 0077 49       		.uleb128 0x49
 1893 0078 13       		.uleb128 0x13
 1894 0079 38       		.uleb128 0x38
 1895 007a 0B       		.uleb128 0xb
 1896 007b 00       		.byte	0
 1897 007c 00       		.byte	0
 1898 007d 0C       		.uleb128 0xc
 1899 007e 0D       		.uleb128 0xd
 1900 007f 00       		.byte	0
 1901 0080 03       		.uleb128 0x3
 1902 0081 08       		.uleb128 0x8
 1903 0082 3A       		.uleb128 0x3a
 1904 0083 0B       		.uleb128 0xb
 1905 0084 3B       		.uleb128 0x3b
 1906 0085 0B       		.uleb128 0xb
 1907 0086 49       		.uleb128 0x49
 1908 0087 13       		.uleb128 0x13
 1909 0088 38       		.uleb128 0x38
 1910 0089 0B       		.uleb128 0xb
 1911 008a 00       		.byte	0
 1912 008b 00       		.byte	0
 1913 008c 0D       		.uleb128 0xd
 1914 008d 13       		.uleb128 0x13
 1915 008e 01       		.byte	0x1
 1916 008f 0B       		.uleb128 0xb
 1917 0090 0B       		.uleb128 0xb
 1918 0091 3A       		.uleb128 0x3a
 1919 0092 0B       		.uleb128 0xb
 1920 0093 3B       		.uleb128 0x3b
 1921 0094 0B       		.uleb128 0xb
 1922 0095 01       		.uleb128 0x1
 1923 0096 13       		.uleb128 0x13
 1924 0097 00       		.byte	0
 1925 0098 00       		.byte	0
 1926 0099 0E       		.uleb128 0xe
 1927 009a 0D       		.uleb128 0xd
 1928 009b 00       		.byte	0
 1929 009c 03       		.uleb128 0x3
 1930 009d 0E       		.uleb128 0xe
 1931 009e 49       		.uleb128 0x49
 1932 009f 13       		.uleb128 0x13
 1933 00a0 38       		.uleb128 0x38
 1934 00a1 0B       		.uleb128 0xb
 1935 00a2 34       		.uleb128 0x34
 1936 00a3 19       		.uleb128 0x19
 1937 00a4 00       		.byte	0
ARM GAS  /var/folders/bz/nn5481rn5xq59rb0mbj7x0880000gn/T//cceEuKgd.s 			page 35


 1938 00a5 00       		.byte	0
 1939 00a6 0F       		.uleb128 0xf
 1940 00a7 2E       		.uleb128 0x2e
 1941 00a8 01       		.byte	0x1
 1942 00a9 03       		.uleb128 0x3
 1943 00aa 0E       		.uleb128 0xe
 1944 00ab 3A       		.uleb128 0x3a
 1945 00ac 0B       		.uleb128 0xb
 1946 00ad 3B       		.uleb128 0x3b
 1947 00ae 0B       		.uleb128 0xb
 1948 00af 27       		.uleb128 0x27
 1949 00b0 19       		.uleb128 0x19
 1950 00b1 49       		.uleb128 0x49
 1951 00b2 13       		.uleb128 0x13
 1952 00b3 20       		.uleb128 0x20
 1953 00b4 0B       		.uleb128 0xb
 1954 00b5 01       		.uleb128 0x1
 1955 00b6 13       		.uleb128 0x13
 1956 00b7 00       		.byte	0
 1957 00b8 00       		.byte	0
 1958 00b9 10       		.uleb128 0x10
 1959 00ba 05       		.uleb128 0x5
 1960 00bb 00       		.byte	0
 1961 00bc 03       		.uleb128 0x3
 1962 00bd 08       		.uleb128 0x8
 1963 00be 3A       		.uleb128 0x3a
 1964 00bf 0B       		.uleb128 0xb
 1965 00c0 3B       		.uleb128 0x3b
 1966 00c1 0B       		.uleb128 0xb
 1967 00c2 49       		.uleb128 0x49
 1968 00c3 13       		.uleb128 0x13
 1969 00c4 00       		.byte	0
 1970 00c5 00       		.byte	0
 1971 00c6 11       		.uleb128 0x11
 1972 00c7 05       		.uleb128 0x5
 1973 00c8 00       		.byte	0
 1974 00c9 03       		.uleb128 0x3
 1975 00ca 0E       		.uleb128 0xe
 1976 00cb 3A       		.uleb128 0x3a
 1977 00cc 0B       		.uleb128 0xb
 1978 00cd 3B       		.uleb128 0x3b
 1979 00ce 0B       		.uleb128 0xb
 1980 00cf 49       		.uleb128 0x49
 1981 00d0 13       		.uleb128 0x13
 1982 00d1 00       		.byte	0
 1983 00d2 00       		.byte	0
 1984 00d3 12       		.uleb128 0x12
 1985 00d4 2E       		.uleb128 0x2e
 1986 00d5 01       		.byte	0x1
 1987 00d6 03       		.uleb128 0x3
 1988 00d7 0E       		.uleb128 0xe
 1989 00d8 3A       		.uleb128 0x3a
 1990 00d9 0B       		.uleb128 0xb
 1991 00da 3B       		.uleb128 0x3b
 1992 00db 0B       		.uleb128 0xb
 1993 00dc 27       		.uleb128 0x27
 1994 00dd 19       		.uleb128 0x19
ARM GAS  /var/folders/bz/nn5481rn5xq59rb0mbj7x0880000gn/T//cceEuKgd.s 			page 36


 1995 00de 49       		.uleb128 0x49
 1996 00df 13       		.uleb128 0x13
 1997 00e0 11       		.uleb128 0x11
 1998 00e1 01       		.uleb128 0x1
 1999 00e2 12       		.uleb128 0x12
 2000 00e3 06       		.uleb128 0x6
 2001 00e4 40       		.uleb128 0x40
 2002 00e5 18       		.uleb128 0x18
 2003 00e6 9742     		.uleb128 0x2117
 2004 00e8 19       		.uleb128 0x19
 2005 00e9 01       		.uleb128 0x1
 2006 00ea 13       		.uleb128 0x13
 2007 00eb 00       		.byte	0
 2008 00ec 00       		.byte	0
 2009 00ed 13       		.uleb128 0x13
 2010 00ee 05       		.uleb128 0x5
 2011 00ef 00       		.byte	0
 2012 00f0 03       		.uleb128 0x3
 2013 00f1 08       		.uleb128 0x8
 2014 00f2 3A       		.uleb128 0x3a
 2015 00f3 0B       		.uleb128 0xb
 2016 00f4 3B       		.uleb128 0x3b
 2017 00f5 0B       		.uleb128 0xb
 2018 00f6 49       		.uleb128 0x49
 2019 00f7 13       		.uleb128 0x13
 2020 00f8 02       		.uleb128 0x2
 2021 00f9 17       		.uleb128 0x17
 2022 00fa 00       		.byte	0
 2023 00fb 00       		.byte	0
 2024 00fc 14       		.uleb128 0x14
 2025 00fd 05       		.uleb128 0x5
 2026 00fe 00       		.byte	0
 2027 00ff 03       		.uleb128 0x3
 2028 0100 0E       		.uleb128 0xe
 2029 0101 3A       		.uleb128 0x3a
 2030 0102 0B       		.uleb128 0xb
 2031 0103 3B       		.uleb128 0x3b
 2032 0104 0B       		.uleb128 0xb
 2033 0105 49       		.uleb128 0x49
 2034 0106 13       		.uleb128 0x13
 2035 0107 02       		.uleb128 0x2
 2036 0108 18       		.uleb128 0x18
 2037 0109 00       		.byte	0
 2038 010a 00       		.byte	0
 2039 010b 15       		.uleb128 0x15
 2040 010c 05       		.uleb128 0x5
 2041 010d 00       		.byte	0
 2042 010e 03       		.uleb128 0x3
 2043 010f 0E       		.uleb128 0xe
 2044 0110 3A       		.uleb128 0x3a
 2045 0111 0B       		.uleb128 0xb
 2046 0112 3B       		.uleb128 0x3b
 2047 0113 0B       		.uleb128 0xb
 2048 0114 49       		.uleb128 0x49
 2049 0115 13       		.uleb128 0x13
 2050 0116 02       		.uleb128 0x2
 2051 0117 17       		.uleb128 0x17
ARM GAS  /var/folders/bz/nn5481rn5xq59rb0mbj7x0880000gn/T//cceEuKgd.s 			page 37


 2052 0118 00       		.byte	0
 2053 0119 00       		.byte	0
 2054 011a 16       		.uleb128 0x16
 2055 011b 34       		.uleb128 0x34
 2056 011c 00       		.byte	0
 2057 011d 03       		.uleb128 0x3
 2058 011e 08       		.uleb128 0x8
 2059 011f 3A       		.uleb128 0x3a
 2060 0120 0B       		.uleb128 0xb
 2061 0121 3B       		.uleb128 0x3b
 2062 0122 0B       		.uleb128 0xb
 2063 0123 49       		.uleb128 0x49
 2064 0124 13       		.uleb128 0x13
 2065 0125 02       		.uleb128 0x2
 2066 0126 17       		.uleb128 0x17
 2067 0127 00       		.byte	0
 2068 0128 00       		.byte	0
 2069 0129 17       		.uleb128 0x17
 2070 012a 34       		.uleb128 0x34
 2071 012b 00       		.byte	0
 2072 012c 03       		.uleb128 0x3
 2073 012d 08       		.uleb128 0x8
 2074 012e 3A       		.uleb128 0x3a
 2075 012f 0B       		.uleb128 0xb
 2076 0130 3B       		.uleb128 0x3b
 2077 0131 0B       		.uleb128 0xb
 2078 0132 49       		.uleb128 0x49
 2079 0133 13       		.uleb128 0x13
 2080 0134 00       		.byte	0
 2081 0135 00       		.byte	0
 2082 0136 18       		.uleb128 0x18
 2083 0137 34       		.uleb128 0x34
 2084 0138 00       		.byte	0
 2085 0139 03       		.uleb128 0x3
 2086 013a 0E       		.uleb128 0xe
 2087 013b 3A       		.uleb128 0x3a
 2088 013c 0B       		.uleb128 0xb
 2089 013d 3B       		.uleb128 0x3b
 2090 013e 0B       		.uleb128 0xb
 2091 013f 49       		.uleb128 0x49
 2092 0140 13       		.uleb128 0x13
 2093 0141 00       		.byte	0
 2094 0142 00       		.byte	0
 2095 0143 19       		.uleb128 0x19
 2096 0144 2E       		.uleb128 0x2e
 2097 0145 01       		.byte	0x1
 2098 0146 3F       		.uleb128 0x3f
 2099 0147 19       		.uleb128 0x19
 2100 0148 03       		.uleb128 0x3
 2101 0149 0E       		.uleb128 0xe
 2102 014a 3A       		.uleb128 0x3a
 2103 014b 0B       		.uleb128 0xb
 2104 014c 3B       		.uleb128 0x3b
 2105 014d 0B       		.uleb128 0xb
 2106 014e 27       		.uleb128 0x27
 2107 014f 19       		.uleb128 0x19
 2108 0150 11       		.uleb128 0x11
ARM GAS  /var/folders/bz/nn5481rn5xq59rb0mbj7x0880000gn/T//cceEuKgd.s 			page 38


 2109 0151 01       		.uleb128 0x1
 2110 0152 12       		.uleb128 0x12
 2111 0153 06       		.uleb128 0x6
 2112 0154 40       		.uleb128 0x40
 2113 0155 18       		.uleb128 0x18
 2114 0156 9642     		.uleb128 0x2116
 2115 0158 19       		.uleb128 0x19
 2116 0159 01       		.uleb128 0x1
 2117 015a 13       		.uleb128 0x13
 2118 015b 00       		.byte	0
 2119 015c 00       		.byte	0
 2120 015d 1A       		.uleb128 0x1a
 2121 015e 34       		.uleb128 0x34
 2122 015f 00       		.byte	0
 2123 0160 03       		.uleb128 0x3
 2124 0161 0E       		.uleb128 0xe
 2125 0162 3A       		.uleb128 0x3a
 2126 0163 0B       		.uleb128 0xb
 2127 0164 3B       		.uleb128 0x3b
 2128 0165 0B       		.uleb128 0xb
 2129 0166 49       		.uleb128 0x49
 2130 0167 13       		.uleb128 0x13
 2131 0168 02       		.uleb128 0x2
 2132 0169 17       		.uleb128 0x17
 2133 016a 00       		.byte	0
 2134 016b 00       		.byte	0
 2135 016c 1B       		.uleb128 0x1b
 2136 016d 34       		.uleb128 0x34
 2137 016e 00       		.byte	0
 2138 016f 03       		.uleb128 0x3
 2139 0170 0E       		.uleb128 0xe
 2140 0171 3A       		.uleb128 0x3a
 2141 0172 0B       		.uleb128 0xb
 2142 0173 3B       		.uleb128 0x3b
 2143 0174 0B       		.uleb128 0xb
 2144 0175 49       		.uleb128 0x49
 2145 0176 13       		.uleb128 0x13
 2146 0177 02       		.uleb128 0x2
 2147 0178 18       		.uleb128 0x18
 2148 0179 00       		.byte	0
 2149 017a 00       		.byte	0
 2150 017b 1C       		.uleb128 0x1c
 2151 017c 0A       		.uleb128 0xa
 2152 017d 00       		.byte	0
 2153 017e 03       		.uleb128 0x3
 2154 017f 0E       		.uleb128 0xe
 2155 0180 3A       		.uleb128 0x3a
 2156 0181 0B       		.uleb128 0xb
 2157 0182 3B       		.uleb128 0x3b
 2158 0183 0B       		.uleb128 0xb
 2159 0184 11       		.uleb128 0x11
 2160 0185 01       		.uleb128 0x1
 2161 0186 00       		.byte	0
 2162 0187 00       		.byte	0
 2163 0188 1D       		.uleb128 0x1d
 2164 0189 1D       		.uleb128 0x1d
 2165 018a 01       		.byte	0x1
ARM GAS  /var/folders/bz/nn5481rn5xq59rb0mbj7x0880000gn/T//cceEuKgd.s 			page 39


 2166 018b 31       		.uleb128 0x31
 2167 018c 13       		.uleb128 0x13
 2168 018d 52       		.uleb128 0x52
 2169 018e 01       		.uleb128 0x1
 2170 018f 55       		.uleb128 0x55
 2171 0190 17       		.uleb128 0x17
 2172 0191 58       		.uleb128 0x58
 2173 0192 0B       		.uleb128 0xb
 2174 0193 59       		.uleb128 0x59
 2175 0194 0B       		.uleb128 0xb
 2176 0195 01       		.uleb128 0x1
 2177 0196 13       		.uleb128 0x13
 2178 0197 00       		.byte	0
 2179 0198 00       		.byte	0
 2180 0199 1E       		.uleb128 0x1e
 2181 019a 05       		.uleb128 0x5
 2182 019b 00       		.byte	0
 2183 019c 31       		.uleb128 0x31
 2184 019d 13       		.uleb128 0x13
 2185 019e 02       		.uleb128 0x2
 2186 019f 17       		.uleb128 0x17
 2187 01a0 00       		.byte	0
 2188 01a1 00       		.byte	0
 2189 01a2 1F       		.uleb128 0x1f
 2190 01a3 0B       		.uleb128 0xb
 2191 01a4 01       		.byte	0x1
 2192 01a5 55       		.uleb128 0x55
 2193 01a6 17       		.uleb128 0x17
 2194 01a7 00       		.byte	0
 2195 01a8 00       		.byte	0
 2196 01a9 20       		.uleb128 0x20
 2197 01aa 34       		.uleb128 0x34
 2198 01ab 00       		.byte	0
 2199 01ac 31       		.uleb128 0x31
 2200 01ad 13       		.uleb128 0x13
 2201 01ae 02       		.uleb128 0x2
 2202 01af 17       		.uleb128 0x17
 2203 01b0 00       		.byte	0
 2204 01b1 00       		.byte	0
 2205 01b2 21       		.uleb128 0x21
 2206 01b3 898201   		.uleb128 0x4109
 2207 01b6 01       		.byte	0x1
 2208 01b7 11       		.uleb128 0x11
 2209 01b8 01       		.uleb128 0x1
 2210 01b9 31       		.uleb128 0x31
 2211 01ba 13       		.uleb128 0x13
 2212 01bb 01       		.uleb128 0x1
 2213 01bc 13       		.uleb128 0x13
 2214 01bd 00       		.byte	0
 2215 01be 00       		.byte	0
 2216 01bf 22       		.uleb128 0x22
 2217 01c0 8A8201   		.uleb128 0x410a
 2218 01c3 00       		.byte	0
 2219 01c4 02       		.uleb128 0x2
 2220 01c5 18       		.uleb128 0x18
 2221 01c6 9142     		.uleb128 0x2111
 2222 01c8 18       		.uleb128 0x18
ARM GAS  /var/folders/bz/nn5481rn5xq59rb0mbj7x0880000gn/T//cceEuKgd.s 			page 40


 2223 01c9 00       		.byte	0
 2224 01ca 00       		.byte	0
 2225 01cb 23       		.uleb128 0x23
 2226 01cc 898201   		.uleb128 0x4109
 2227 01cf 01       		.byte	0x1
 2228 01d0 11       		.uleb128 0x11
 2229 01d1 01       		.uleb128 0x1
 2230 01d2 31       		.uleb128 0x31
 2231 01d3 13       		.uleb128 0x13
 2232 01d4 00       		.byte	0
 2233 01d5 00       		.byte	0
 2234 01d6 24       		.uleb128 0x24
 2235 01d7 05       		.uleb128 0x5
 2236 01d8 00       		.byte	0
 2237 01d9 31       		.uleb128 0x31
 2238 01da 13       		.uleb128 0x13
 2239 01db 00       		.byte	0
 2240 01dc 00       		.byte	0
 2241 01dd 25       		.uleb128 0x25
 2242 01de 1D       		.uleb128 0x1d
 2243 01df 01       		.byte	0x1
 2244 01e0 31       		.uleb128 0x31
 2245 01e1 13       		.uleb128 0x13
 2246 01e2 11       		.uleb128 0x11
 2247 01e3 01       		.uleb128 0x1
 2248 01e4 12       		.uleb128 0x12
 2249 01e5 06       		.uleb128 0x6
 2250 01e6 58       		.uleb128 0x58
 2251 01e7 0B       		.uleb128 0xb
 2252 01e8 59       		.uleb128 0x59
 2253 01e9 0B       		.uleb128 0xb
 2254 01ea 01       		.uleb128 0x1
 2255 01eb 13       		.uleb128 0x13
 2256 01ec 00       		.byte	0
 2257 01ed 00       		.byte	0
 2258 01ee 26       		.uleb128 0x26
 2259 01ef 898201   		.uleb128 0x4109
 2260 01f2 01       		.byte	0x1
 2261 01f3 11       		.uleb128 0x11
 2262 01f4 01       		.uleb128 0x1
 2263 01f5 01       		.uleb128 0x1
 2264 01f6 13       		.uleb128 0x13
 2265 01f7 00       		.byte	0
 2266 01f8 00       		.byte	0
 2267 01f9 27       		.uleb128 0x27
 2268 01fa 898201   		.uleb128 0x4109
 2269 01fd 01       		.byte	0x1
 2270 01fe 11       		.uleb128 0x11
 2271 01ff 01       		.uleb128 0x1
 2272 0200 00       		.byte	0
 2273 0201 00       		.byte	0
 2274 0202 28       		.uleb128 0x28
 2275 0203 01       		.uleb128 0x1
 2276 0204 01       		.byte	0x1
 2277 0205 49       		.uleb128 0x49
 2278 0206 13       		.uleb128 0x13
 2279 0207 01       		.uleb128 0x1
ARM GAS  /var/folders/bz/nn5481rn5xq59rb0mbj7x0880000gn/T//cceEuKgd.s 			page 41


 2280 0208 13       		.uleb128 0x13
 2281 0209 00       		.byte	0
 2282 020a 00       		.byte	0
 2283 020b 29       		.uleb128 0x29
 2284 020c 21       		.uleb128 0x21
 2285 020d 00       		.byte	0
 2286 020e 49       		.uleb128 0x49
 2287 020f 13       		.uleb128 0x13
 2288 0210 2F       		.uleb128 0x2f
 2289 0211 0B       		.uleb128 0xb
 2290 0212 00       		.byte	0
 2291 0213 00       		.byte	0
 2292 0214 2A       		.uleb128 0x2a
 2293 0215 2E       		.uleb128 0x2e
 2294 0216 01       		.byte	0x1
 2295 0217 3F       		.uleb128 0x3f
 2296 0218 19       		.uleb128 0x19
 2297 0219 03       		.uleb128 0x3
 2298 021a 0E       		.uleb128 0xe
 2299 021b 3A       		.uleb128 0x3a
 2300 021c 0B       		.uleb128 0xb
 2301 021d 3B       		.uleb128 0x3b
 2302 021e 05       		.uleb128 0x5
 2303 021f 27       		.uleb128 0x27
 2304 0220 19       		.uleb128 0x19
 2305 0221 49       		.uleb128 0x49
 2306 0222 13       		.uleb128 0x13
 2307 0223 11       		.uleb128 0x11
 2308 0224 01       		.uleb128 0x1
 2309 0225 12       		.uleb128 0x12
 2310 0226 06       		.uleb128 0x6
 2311 0227 40       		.uleb128 0x40
 2312 0228 18       		.uleb128 0x18
 2313 0229 9742     		.uleb128 0x2117
 2314 022b 19       		.uleb128 0x19
 2315 022c 01       		.uleb128 0x1
 2316 022d 13       		.uleb128 0x13
 2317 022e 00       		.byte	0
 2318 022f 00       		.byte	0
 2319 0230 2B       		.uleb128 0x2b
 2320 0231 05       		.uleb128 0x5
 2321 0232 00       		.byte	0
 2322 0233 03       		.uleb128 0x3
 2323 0234 08       		.uleb128 0x8
 2324 0235 3A       		.uleb128 0x3a
 2325 0236 0B       		.uleb128 0xb
 2326 0237 3B       		.uleb128 0x3b
 2327 0238 05       		.uleb128 0x5
 2328 0239 49       		.uleb128 0x49
 2329 023a 13       		.uleb128 0x13
 2330 023b 02       		.uleb128 0x2
 2331 023c 17       		.uleb128 0x17
 2332 023d 00       		.byte	0
 2333 023e 00       		.byte	0
 2334 023f 2C       		.uleb128 0x2c
 2335 0240 05       		.uleb128 0x5
 2336 0241 00       		.byte	0
ARM GAS  /var/folders/bz/nn5481rn5xq59rb0mbj7x0880000gn/T//cceEuKgd.s 			page 42


 2337 0242 03       		.uleb128 0x3
 2338 0243 0E       		.uleb128 0xe
 2339 0244 3A       		.uleb128 0x3a
 2340 0245 0B       		.uleb128 0xb
 2341 0246 3B       		.uleb128 0x3b
 2342 0247 05       		.uleb128 0x5
 2343 0248 49       		.uleb128 0x49
 2344 0249 13       		.uleb128 0x13
 2345 024a 02       		.uleb128 0x2
 2346 024b 17       		.uleb128 0x17
 2347 024c 00       		.byte	0
 2348 024d 00       		.byte	0
 2349 024e 2D       		.uleb128 0x2d
 2350 024f 05       		.uleb128 0x5
 2351 0250 00       		.byte	0
 2352 0251 03       		.uleb128 0x3
 2353 0252 08       		.uleb128 0x8
 2354 0253 3A       		.uleb128 0x3a
 2355 0254 0B       		.uleb128 0xb
 2356 0255 3B       		.uleb128 0x3b
 2357 0256 05       		.uleb128 0x5
 2358 0257 49       		.uleb128 0x49
 2359 0258 13       		.uleb128 0x13
 2360 0259 02       		.uleb128 0x2
 2361 025a 18       		.uleb128 0x18
 2362 025b 00       		.byte	0
 2363 025c 00       		.byte	0
 2364 025d 2E       		.uleb128 0x2e
 2365 025e 18       		.uleb128 0x18
 2366 025f 00       		.byte	0
 2367 0260 00       		.byte	0
 2368 0261 00       		.byte	0
 2369 0262 2F       		.uleb128 0x2f
 2370 0263 34       		.uleb128 0x34
 2371 0264 00       		.byte	0
 2372 0265 03       		.uleb128 0x3
 2373 0266 08       		.uleb128 0x8
 2374 0267 3A       		.uleb128 0x3a
 2375 0268 0B       		.uleb128 0xb
 2376 0269 3B       		.uleb128 0x3b
 2377 026a 05       		.uleb128 0x5
 2378 026b 49       		.uleb128 0x49
 2379 026c 13       		.uleb128 0x13
 2380 026d 02       		.uleb128 0x2
 2381 026e 18       		.uleb128 0x18
 2382 026f 00       		.byte	0
 2383 0270 00       		.byte	0
 2384 0271 30       		.uleb128 0x30
 2385 0272 34       		.uleb128 0x34
 2386 0273 00       		.byte	0
 2387 0274 03       		.uleb128 0x3
 2388 0275 08       		.uleb128 0x8
 2389 0276 3A       		.uleb128 0x3a
 2390 0277 0B       		.uleb128 0xb
 2391 0278 3B       		.uleb128 0x3b
 2392 0279 05       		.uleb128 0x5
 2393 027a 49       		.uleb128 0x49
ARM GAS  /var/folders/bz/nn5481rn5xq59rb0mbj7x0880000gn/T//cceEuKgd.s 			page 43


 2394 027b 13       		.uleb128 0x13
 2395 027c 02       		.uleb128 0x2
 2396 027d 17       		.uleb128 0x17
 2397 027e 00       		.byte	0
 2398 027f 00       		.byte	0
 2399 0280 31       		.uleb128 0x31
 2400 0281 2E       		.uleb128 0x2e
 2401 0282 01       		.byte	0x1
 2402 0283 3F       		.uleb128 0x3f
 2403 0284 19       		.uleb128 0x19
 2404 0285 03       		.uleb128 0x3
 2405 0286 0E       		.uleb128 0xe
 2406 0287 3A       		.uleb128 0x3a
 2407 0288 0B       		.uleb128 0xb
 2408 0289 3B       		.uleb128 0x3b
 2409 028a 0B       		.uleb128 0xb
 2410 028b 27       		.uleb128 0x27
 2411 028c 19       		.uleb128 0x19
 2412 028d 3C       		.uleb128 0x3c
 2413 028e 19       		.uleb128 0x19
 2414 028f 01       		.uleb128 0x1
 2415 0290 13       		.uleb128 0x13
 2416 0291 00       		.byte	0
 2417 0292 00       		.byte	0
 2418 0293 00       		.byte	0
 2419              		.section	.debug_loc,"",%progbits
 2420              	.Ldebug_loc0:
 2421              	.LLST0:
 2422 0000 00000000 		.4byte	.LVL0
 2423 0004 38000000 		.4byte	.LVL12
 2424 0008 0100     		.2byte	0x1
 2425 000a 50       		.byte	0x50
 2426 000b 38000000 		.4byte	.LVL12
 2427 000f 3C000000 		.4byte	.LVL13
 2428 0013 0300     		.2byte	0x3
 2429 0015 70       		.byte	0x70
 2430 0016 7F       		.sleb128 -1
 2431 0017 9F       		.byte	0x9f
 2432 0018 3C000000 		.4byte	.LVL13
 2433 001c 40000000 		.4byte	.LVL14
 2434 0020 0100     		.2byte	0x1
 2435 0022 50       		.byte	0x50
 2436 0023 40000000 		.4byte	.LVL14
 2437 0027 48000000 		.4byte	.LFE8
 2438 002b 0300     		.2byte	0x3
 2439 002d 70       		.byte	0x70
 2440 002e 7F       		.sleb128 -1
 2441 002f 9F       		.byte	0x9f
 2442 0030 00000000 		.4byte	0
 2443 0034 00000000 		.4byte	0
 2444              	.LLST1:
 2445 0038 00000000 		.4byte	.LVL0
 2446 003c 0E000000 		.4byte	.LVL2
 2447 0040 0100     		.2byte	0x1
 2448 0042 51       		.byte	0x51
 2449 0043 0E000000 		.4byte	.LVL2
 2450 0047 48000000 		.4byte	.LFE8
ARM GAS  /var/folders/bz/nn5481rn5xq59rb0mbj7x0880000gn/T//cceEuKgd.s 			page 44


 2451 004b 0400     		.2byte	0x4
 2452 004d F3       		.byte	0xf3
 2453 004e 01       		.uleb128 0x1
 2454 004f 51       		.byte	0x51
 2455 0050 9F       		.byte	0x9f
 2456 0051 00000000 		.4byte	0
 2457 0055 00000000 		.4byte	0
 2458              	.LLST2:
 2459 0059 00000000 		.4byte	.LVL0
 2460 005d 0C000000 		.4byte	.LVL1
 2461 0061 0100     		.2byte	0x1
 2462 0063 53       		.byte	0x53
 2463 0064 0C000000 		.4byte	.LVL1
 2464 0068 48000000 		.4byte	.LFE8
 2465 006c 0400     		.2byte	0x4
 2466 006e F3       		.byte	0xf3
 2467 006f 01       		.uleb128 0x1
 2468 0070 53       		.byte	0x53
 2469 0071 9F       		.byte	0x9f
 2470 0072 00000000 		.4byte	0
 2471 0076 00000000 		.4byte	0
 2472              	.LLST3:
 2473 007a 16000000 		.4byte	.LVL3
 2474 007e 1A000000 		.4byte	.LVL4
 2475 0082 0100     		.2byte	0x1
 2476 0084 51       		.byte	0x51
 2477 0085 1A000000 		.4byte	.LVL4
 2478 0089 24000000 		.4byte	.LVL6
 2479 008d 0100     		.2byte	0x1
 2480 008f 54       		.byte	0x54
 2481 0090 32000000 		.4byte	.LVL10
 2482 0094 38000000 		.4byte	.LVL12
 2483 0098 0600     		.2byte	0x6
 2484 009a 77       		.byte	0x77
 2485 009b 00       		.sleb128 0
 2486 009c 75       		.byte	0x75
 2487 009d 00       		.sleb128 0
 2488 009e 1C       		.byte	0x1c
 2489 009f 9F       		.byte	0x9f
 2490 00a0 00000000 		.4byte	0
 2491 00a4 00000000 		.4byte	0
 2492              	.LLST4:
 2493 00a8 0C000000 		.4byte	.LVL1
 2494 00ac 0E000000 		.4byte	.LVL2
 2495 00b0 0100     		.2byte	0x1
 2496 00b2 57       		.byte	0x57
 2497 00b3 0E000000 		.4byte	.LVL2
 2498 00b7 22000000 		.4byte	.LVL5
 2499 00bb 0100     		.2byte	0x1
 2500 00bd 55       		.byte	0x55
 2501 00be 22000000 		.4byte	.LVL5
 2502 00c2 28000000 		.4byte	.LVL7
 2503 00c6 0300     		.2byte	0x3
 2504 00c8 75       		.byte	0x75
 2505 00c9 7F       		.sleb128 -1
 2506 00ca 9F       		.byte	0x9f
 2507 00cb 28000000 		.4byte	.LVL7
ARM GAS  /var/folders/bz/nn5481rn5xq59rb0mbj7x0880000gn/T//cceEuKgd.s 			page 45


 2508 00cf 38000000 		.4byte	.LVL12
 2509 00d3 0100     		.2byte	0x1
 2510 00d5 55       		.byte	0x55
 2511 00d6 00000000 		.4byte	0
 2512 00da 00000000 		.4byte	0
 2513              	.LLST5:
 2514 00de 00000000 		.4byte	.LVL0
 2515 00e2 16000000 		.4byte	.LVL3
 2516 00e6 0100     		.2byte	0x1
 2517 00e8 51       		.byte	0x51
 2518 00e9 2E000000 		.4byte	.LVL9
 2519 00ed 48000000 		.4byte	.LFE8
 2520 00f1 0100     		.2byte	0x1
 2521 00f3 51       		.byte	0x51
 2522 00f4 00000000 		.4byte	0
 2523 00f8 00000000 		.4byte	0
 2524              	.LLST6:
 2525 00fc 0C000000 		.4byte	.LVL1
 2526 0100 2C000000 		.4byte	.LVL8
 2527 0104 0100     		.2byte	0x1
 2528 0106 53       		.byte	0x53
 2529 0107 2E000000 		.4byte	.LVL9
 2530 010b 34000000 		.4byte	.LVL11
 2531 010f 0100     		.2byte	0x1
 2532 0111 53       		.byte	0x53
 2533 0112 00000000 		.4byte	0
 2534 0116 00000000 		.4byte	0
 2535              	.LLST7:
 2536 011a 00000000 		.4byte	.LVL15
 2537 011e 14000000 		.4byte	.LVL16
 2538 0122 0100     		.2byte	0x1
 2539 0124 50       		.byte	0x50
 2540 0125 14000000 		.4byte	.LVL16
 2541 0129 7C030000 		.4byte	.LFE11
 2542 012d 0100     		.2byte	0x1
 2543 012f 56       		.byte	0x56
 2544 0130 00000000 		.4byte	0
 2545 0134 00000000 		.4byte	0
 2546              	.LLST8:
 2547 0138 00000000 		.4byte	.LVL15
 2548 013c 14000000 		.4byte	.LVL16
 2549 0140 0100     		.2byte	0x1
 2550 0142 51       		.byte	0x51
 2551 0143 14000000 		.4byte	.LVL16
 2552 0147 18000000 		.4byte	.LVL17
 2553 014b 0100     		.2byte	0x1
 2554 014d 55       		.byte	0x55
 2555 014e 18000000 		.4byte	.LVL17
 2556 0152 27000000 		.4byte	.LVL19-1
 2557 0156 0100     		.2byte	0x1
 2558 0158 53       		.byte	0x53
 2559 0159 27000000 		.4byte	.LVL19-1
 2560 015d 2C000000 		.4byte	.LVL20
 2561 0161 0100     		.2byte	0x1
 2562 0163 55       		.byte	0x55
 2563 0164 2C000000 		.4byte	.LVL20
 2564 0168 62000000 		.4byte	.LVL28
ARM GAS  /var/folders/bz/nn5481rn5xq59rb0mbj7x0880000gn/T//cceEuKgd.s 			page 46


 2565 016c 0100     		.2byte	0x1
 2566 016e 53       		.byte	0x53
 2567 016f 62000000 		.4byte	.LVL28
 2568 0173 6E000000 		.4byte	.LVL32
 2569 0177 0100     		.2byte	0x1
 2570 0179 51       		.byte	0x51
 2571 017a 6E000000 		.4byte	.LVL32
 2572 017e 78000000 		.4byte	.LVL33
 2573 0182 0300     		.2byte	0x3
 2574 0184 71       		.byte	0x71
 2575 0185 7F       		.sleb128 -1
 2576 0186 9F       		.byte	0x9f
 2577 0187 78000000 		.4byte	.LVL33
 2578 018b 88000000 		.4byte	.LVL35
 2579 018f 0100     		.2byte	0x1
 2580 0191 51       		.byte	0x51
 2581 0192 88000000 		.4byte	.LVL35
 2582 0196 0A010000 		.4byte	.LVL37
 2583 019a 0100     		.2byte	0x1
 2584 019c 55       		.byte	0x55
 2585 019d 0A010000 		.4byte	.LVL37
 2586 01a1 12010000 		.4byte	.LVL40
 2587 01a5 0300     		.2byte	0x3
 2588 01a7 75       		.byte	0x75
 2589 01a8 7F       		.sleb128 -1
 2590 01a9 9F       		.byte	0x9f
 2591 01aa 12010000 		.4byte	.LVL40
 2592 01ae 16010000 		.4byte	.LVL41
 2593 01b2 0100     		.2byte	0x1
 2594 01b4 55       		.byte	0x55
 2595 01b5 16010000 		.4byte	.LVL41
 2596 01b9 28010000 		.4byte	.LVL42
 2597 01bd 0300     		.2byte	0x3
 2598 01bf 75       		.byte	0x75
 2599 01c0 7F       		.sleb128 -1
 2600 01c1 9F       		.byte	0x9f
 2601 01c2 28010000 		.4byte	.LVL42
 2602 01c6 0A030000 		.4byte	.LVL109
 2603 01ca 0100     		.2byte	0x1
 2604 01cc 55       		.byte	0x55
 2605 01cd 0A030000 		.4byte	.LVL109
 2606 01d1 12030000 		.4byte	.LVL110
 2607 01d5 0300     		.2byte	0x3
 2608 01d7 73       		.byte	0x73
 2609 01d8 01       		.sleb128 1
 2610 01d9 9F       		.byte	0x9f
 2611 01da 12030000 		.4byte	.LVL110
 2612 01de 14030000 		.4byte	.LVL111
 2613 01e2 0100     		.2byte	0x1
 2614 01e4 53       		.byte	0x53
 2615 01e5 14030000 		.4byte	.LVL111
 2616 01e9 7C030000 		.4byte	.LFE11
 2617 01ed 0100     		.2byte	0x1
 2618 01ef 55       		.byte	0x55
 2619 01f0 00000000 		.4byte	0
 2620 01f4 00000000 		.4byte	0
 2621              	.LLST9:
ARM GAS  /var/folders/bz/nn5481rn5xq59rb0mbj7x0880000gn/T//cceEuKgd.s 			page 47


 2622 01f8 00000000 		.4byte	.LVL15
 2623 01fc 20000000 		.4byte	.LVL18
 2624 0200 0100     		.2byte	0x1
 2625 0202 52       		.byte	0x52
 2626 0203 30000000 		.4byte	.LVL21
 2627 0207 3C000000 		.4byte	.LVL23
 2628 020b 0100     		.2byte	0x1
 2629 020d 52       		.byte	0x52
 2630 020e 00000000 		.4byte	0
 2631 0212 00000000 		.4byte	0
 2632              	.LLST10:
 2633 0216 3A000000 		.4byte	.LVL22
 2634 021a 98010000 		.4byte	.LVL48
 2635 021e 0100     		.2byte	0x1
 2636 0220 59       		.byte	0x59
 2637 0221 98010000 		.4byte	.LVL48
 2638 0225 A4010000 		.4byte	.LVL50
 2639 0229 0100     		.2byte	0x1
 2640 022b 5B       		.byte	0x5b
 2641 022c A4010000 		.4byte	.LVL50
 2642 0230 A8010000 		.4byte	.LVL52
 2643 0234 0300     		.2byte	0x3
 2644 0236 70       		.byte	0x70
 2645 0237 7F       		.sleb128 -1
 2646 0238 9F       		.byte	0x9f
 2647 0239 A8010000 		.4byte	.LVL52
 2648 023d AC010000 		.4byte	.LVL53
 2649 0241 0100     		.2byte	0x1
 2650 0243 50       		.byte	0x50
 2651 0244 AC010000 		.4byte	.LVL53
 2652 0248 B4010000 		.4byte	.LVL55
 2653 024c 0300     		.2byte	0x3
 2654 024e 70       		.byte	0x70
 2655 024f 7F       		.sleb128 -1
 2656 0250 9F       		.byte	0x9f
 2657 0251 E2010000 		.4byte	.LVL64
 2658 0255 06020000 		.4byte	.LVL67
 2659 0259 0100     		.2byte	0x1
 2660 025b 59       		.byte	0x59
 2661 025c 06020000 		.4byte	.LVL67
 2662 0260 19020000 		.4byte	.LVL69-1
 2663 0264 0100     		.2byte	0x1
 2664 0266 50       		.byte	0x50
 2665 0267 66020000 		.4byte	.LVL78
 2666 026b 6E020000 		.4byte	.LVL81
 2667 026f 0100     		.2byte	0x1
 2668 0271 59       		.byte	0x59
 2669 0272 6E020000 		.4byte	.LVL81
 2670 0276 73020000 		.4byte	.LVL82-1
 2671 027a 0100     		.2byte	0x1
 2672 027c 50       		.byte	0x50
 2673 027d C4020000 		.4byte	.LVL97
 2674 0281 D0020000 		.4byte	.LVL99
 2675 0285 0100     		.2byte	0x1
 2676 0287 59       		.byte	0x59
 2677 0288 D0020000 		.4byte	.LVL99
 2678 028c D4020000 		.4byte	.LVL100
ARM GAS  /var/folders/bz/nn5481rn5xq59rb0mbj7x0880000gn/T//cceEuKgd.s 			page 48


 2679 0290 0100     		.2byte	0x1
 2680 0292 50       		.byte	0x50
 2681 0293 D4020000 		.4byte	.LVL100
 2682 0297 D8020000 		.4byte	.LVL101
 2683 029b 0100     		.2byte	0x1
 2684 029d 59       		.byte	0x59
 2685 029e D8020000 		.4byte	.LVL101
 2686 02a2 DC020000 		.4byte	.LVL102
 2687 02a6 0400     		.2byte	0x4
 2688 02a8 91       		.byte	0x91
 2689 02a9 B97F     		.sleb128 -71
 2690 02ab 9F       		.byte	0x9f
 2691 02ac DC020000 		.4byte	.LVL102
 2692 02b0 E6020000 		.4byte	.LVL103
 2693 02b4 0100     		.2byte	0x1
 2694 02b6 50       		.byte	0x50
 2695 02b7 E6020000 		.4byte	.LVL103
 2696 02bb F2020000 		.4byte	.LVL104
 2697 02bf 0400     		.2byte	0x4
 2698 02c1 91       		.byte	0x91
 2699 02c2 B97F     		.sleb128 -71
 2700 02c4 9F       		.byte	0x9f
 2701 02c5 F2020000 		.4byte	.LVL104
 2702 02c9 F8020000 		.4byte	.LVL106
 2703 02cd 0100     		.2byte	0x1
 2704 02cf 59       		.byte	0x59
 2705 02d0 F8020000 		.4byte	.LVL106
 2706 02d4 FC020000 		.4byte	.LVL107
 2707 02d8 0400     		.2byte	0x4
 2708 02da 91       		.byte	0x91
 2709 02db B97F     		.sleb128 -71
 2710 02dd 9F       		.byte	0x9f
 2711 02de FC020000 		.4byte	.LVL107
 2712 02e2 00030000 		.4byte	.LVL108
 2713 02e6 0100     		.2byte	0x1
 2714 02e8 50       		.byte	0x50
 2715 02e9 00030000 		.4byte	.LVL108
 2716 02ed 0A030000 		.4byte	.LVL109
 2717 02f1 0400     		.2byte	0x4
 2718 02f3 91       		.byte	0x91
 2719 02f4 B97F     		.sleb128 -71
 2720 02f6 9F       		.byte	0x9f
 2721 02f7 0A030000 		.4byte	.LVL109
 2722 02fb 14030000 		.4byte	.LVL111
 2723 02ff 0100     		.2byte	0x1
 2724 0301 59       		.byte	0x59
 2725 0302 14030000 		.4byte	.LVL111
 2726 0306 1E030000 		.4byte	.LVL112
 2727 030a 0100     		.2byte	0x1
 2728 030c 5B       		.byte	0x5b
 2729 030d 4A030000 		.4byte	.LVL119
 2730 0311 58030000 		.4byte	.LVL121
 2731 0315 0400     		.2byte	0x4
 2732 0317 91       		.byte	0x91
 2733 0318 B97F     		.sleb128 -71
 2734 031a 9F       		.byte	0x9f
 2735 031b 58030000 		.4byte	.LVL121
ARM GAS  /var/folders/bz/nn5481rn5xq59rb0mbj7x0880000gn/T//cceEuKgd.s 			page 49


 2736 031f 5A030000 		.4byte	.LVL122
 2737 0323 0100     		.2byte	0x1
 2738 0325 50       		.byte	0x50
 2739 0326 5A030000 		.4byte	.LVL122
 2740 032a 66030000 		.4byte	.LVL124
 2741 032e 0400     		.2byte	0x4
 2742 0330 91       		.byte	0x91
 2743 0331 B97F     		.sleb128 -71
 2744 0333 9F       		.byte	0x9f
 2745 0334 66030000 		.4byte	.LVL124
 2746 0338 68030000 		.4byte	.LVL125
 2747 033c 0100     		.2byte	0x1
 2748 033e 50       		.byte	0x50
 2749 033f 00000000 		.4byte	0
 2750 0343 00000000 		.4byte	0
 2751              	.LLST11:
 2752 0347 3A000000 		.4byte	.LVL22
 2753 034b 8E010000 		.4byte	.LVL47
 2754 034f 0100     		.2byte	0x1
 2755 0351 59       		.byte	0x59
 2756 0352 8E010000 		.4byte	.LVL47
 2757 0356 E2010000 		.4byte	.LVL64
 2758 035a 0100     		.2byte	0x1
 2759 035c 5B       		.byte	0x5b
 2760 035d E2010000 		.4byte	.LVL64
 2761 0361 88020000 		.4byte	.LVL86
 2762 0365 0100     		.2byte	0x1
 2763 0367 59       		.byte	0x59
 2764 0368 88020000 		.4byte	.LVL86
 2765 036c 96020000 		.4byte	.LVL89
 2766 0370 0100     		.2byte	0x1
 2767 0372 5B       		.byte	0x5b
 2768 0373 A4020000 		.4byte	.LVL92
 2769 0377 B2020000 		.4byte	.LVL94
 2770 037b 0100     		.2byte	0x1
 2771 037d 5B       		.byte	0x5b
 2772 037e B2020000 		.4byte	.LVL94
 2773 0382 BC020000 		.4byte	.LVL96
 2774 0386 0300     		.2byte	0x3
 2775 0388 7B       		.byte	0x7b
 2776 0389 7F       		.sleb128 -1
 2777 038a 9F       		.byte	0x9f
 2778 038b BC020000 		.4byte	.LVL96
 2779 038f C4020000 		.4byte	.LVL97
 2780 0393 0100     		.2byte	0x1
 2781 0395 5B       		.byte	0x5b
 2782 0396 C4020000 		.4byte	.LVL97
 2783 039a 14030000 		.4byte	.LVL111
 2784 039e 0100     		.2byte	0x1
 2785 03a0 59       		.byte	0x59
 2786 03a1 14030000 		.4byte	.LVL111
 2787 03a5 4A030000 		.4byte	.LVL119
 2788 03a9 0100     		.2byte	0x1
 2789 03ab 5B       		.byte	0x5b
 2790 03ac 4A030000 		.4byte	.LVL119
 2791 03b0 68030000 		.4byte	.LVL125
 2792 03b4 0100     		.2byte	0x1
ARM GAS  /var/folders/bz/nn5481rn5xq59rb0mbj7x0880000gn/T//cceEuKgd.s 			page 50


 2793 03b6 59       		.byte	0x59
 2794 03b7 68030000 		.4byte	.LVL125
 2795 03bb 7C030000 		.4byte	.LFE11
 2796 03bf 0100     		.2byte	0x1
 2797 03c1 5B       		.byte	0x5b
 2798 03c2 00000000 		.4byte	0
 2799 03c6 00000000 		.4byte	0
 2800              	.LLST12:
 2801 03ca 18000000 		.4byte	.LVL17
 2802 03ce 27000000 		.4byte	.LVL19-1
 2803 03d2 0100     		.2byte	0x1
 2804 03d4 51       		.byte	0x51
 2805 03d5 2C000000 		.4byte	.LVL20
 2806 03d9 5E000000 		.4byte	.LVL27
 2807 03dd 0100     		.2byte	0x1
 2808 03df 51       		.byte	0x51
 2809 03e0 62000000 		.4byte	.LVL28
 2810 03e4 64000000 		.4byte	.LVL29
 2811 03e8 0100     		.2byte	0x1
 2812 03ea 52       		.byte	0x52
 2813 03eb 64000000 		.4byte	.LVL29
 2814 03ef 6E000000 		.4byte	.LVL32
 2815 03f3 0100     		.2byte	0x1
 2816 03f5 53       		.byte	0x53
 2817 03f6 78000000 		.4byte	.LVL33
 2818 03fa 0C010000 		.4byte	.LVL38
 2819 03fe 0100     		.2byte	0x1
 2820 0400 52       		.byte	0x52
 2821 0401 0C010000 		.4byte	.LVL38
 2822 0405 12010000 		.4byte	.LVL40
 2823 0409 0100     		.2byte	0x1
 2824 040b 53       		.byte	0x53
 2825 040c 16010000 		.4byte	.LVL41
 2826 0410 3C010000 		.4byte	.LVL44
 2827 0414 0100     		.2byte	0x1
 2828 0416 52       		.byte	0x52
 2829 0417 3E010000 		.4byte	.LVL45
 2830 041b 7D010000 		.4byte	.LVL46
 2831 041f 0100     		.2byte	0x1
 2832 0421 53       		.byte	0x53
 2833 0422 66020000 		.4byte	.LVL78
 2834 0426 68020000 		.4byte	.LVL79
 2835 042a 0200     		.2byte	0x2
 2836 042c 38       		.byte	0x38
 2837 042d 9F       		.byte	0x9f
 2838 042e D4020000 		.4byte	.LVL100
 2839 0432 D8020000 		.4byte	.LVL101
 2840 0436 0200     		.2byte	0x2
 2841 0438 3A       		.byte	0x3a
 2842 0439 9F       		.byte	0x9f
 2843 043a F6020000 		.4byte	.LVL105
 2844 043e F8020000 		.4byte	.LVL106
 2845 0442 0100     		.2byte	0x1
 2846 0444 53       		.byte	0x53
 2847 0445 0A030000 		.4byte	.LVL109
 2848 0449 14030000 		.4byte	.LVL111
 2849 044d 0100     		.2byte	0x1
ARM GAS  /var/folders/bz/nn5481rn5xq59rb0mbj7x0880000gn/T//cceEuKgd.s 			page 51


 2850 044f 51       		.byte	0x51
 2851 0450 00000000 		.4byte	0
 2852 0454 00000000 		.4byte	0
 2853              	.LLST13:
 2854 0458 4C000000 		.4byte	.LVL25
 2855 045c 5C000000 		.4byte	.LVL26
 2856 0460 0300     		.2byte	0x3
 2857 0462 08       		.byte	0x8
 2858 0463 20       		.byte	0x20
 2859 0464 9F       		.byte	0x9f
 2860 0465 5C000000 		.4byte	.LVL26
 2861 0469 7D010000 		.4byte	.LVL46
 2862 046d 0100     		.2byte	0x1
 2863 046f 58       		.byte	0x58
 2864 0470 7D010000 		.4byte	.LVL46
 2865 0474 BC010000 		.4byte	.LVL57
 2866 0478 0300     		.2byte	0x3
 2867 047a 08       		.byte	0x8
 2868 047b 20       		.byte	0x20
 2869 047c 9F       		.byte	0x9f
 2870 047d BC010000 		.4byte	.LVL57
 2871 0481 CC010000 		.4byte	.LVL61
 2872 0485 0100     		.2byte	0x1
 2873 0487 58       		.byte	0x58
 2874 0488 E2010000 		.4byte	.LVL64
 2875 048c 8A020000 		.4byte	.LVL87
 2876 0490 0100     		.2byte	0x1
 2877 0492 58       		.byte	0x58
 2878 0493 C4020000 		.4byte	.LVL97
 2879 0497 D8020000 		.4byte	.LVL101
 2880 049b 0100     		.2byte	0x1
 2881 049d 58       		.byte	0x58
 2882 049e D8020000 		.4byte	.LVL101
 2883 04a2 F2020000 		.4byte	.LVL104
 2884 04a6 0300     		.2byte	0x3
 2885 04a8 08       		.byte	0x8
 2886 04a9 20       		.byte	0x20
 2887 04aa 9F       		.byte	0x9f
 2888 04ab F2020000 		.4byte	.LVL104
 2889 04af 0A030000 		.4byte	.LVL109
 2890 04b3 0100     		.2byte	0x1
 2891 04b5 58       		.byte	0x58
 2892 04b6 0A030000 		.4byte	.LVL109
 2893 04ba 14030000 		.4byte	.LVL111
 2894 04be 0300     		.2byte	0x3
 2895 04c0 08       		.byte	0x8
 2896 04c1 30       		.byte	0x30
 2897 04c2 9F       		.byte	0x9f
 2898 04c3 14030000 		.4byte	.LVL111
 2899 04c7 32030000 		.4byte	.LVL115
 2900 04cb 0300     		.2byte	0x3
 2901 04cd 08       		.byte	0x8
 2902 04ce 20       		.byte	0x20
 2903 04cf 9F       		.byte	0x9f
 2904 04d0 4A030000 		.4byte	.LVL119
 2905 04d4 68030000 		.4byte	.LVL125
 2906 04d8 0100     		.2byte	0x1
ARM GAS  /var/folders/bz/nn5481rn5xq59rb0mbj7x0880000gn/T//cceEuKgd.s 			page 52


 2907 04da 58       		.byte	0x58
 2908 04db 68030000 		.4byte	.LVL125
 2909 04df 7C030000 		.4byte	.LFE11
 2910 04e3 0300     		.2byte	0x3
 2911 04e5 08       		.byte	0x8
 2912 04e6 20       		.byte	0x20
 2913 04e7 9F       		.byte	0x9f
 2914 04e8 00000000 		.4byte	0
 2915 04ec 00000000 		.4byte	0
 2916              	.LLST14:
 2917 04f0 BC010000 		.4byte	.LVL57
 2918 04f4 C6010000 		.4byte	.LVL59
 2919 04f8 0100     		.2byte	0x1
 2920 04fa 50       		.byte	0x50
 2921 04fb C6010000 		.4byte	.LVL59
 2922 04ff CC010000 		.4byte	.LVL61
 2923 0503 0100     		.2byte	0x1
 2924 0505 53       		.byte	0x53
 2925 0506 7C020000 		.4byte	.LVL83
 2926 050a 8A020000 		.4byte	.LVL87
 2927 050e 0100     		.2byte	0x1
 2928 0510 50       		.byte	0x50
 2929 0511 A4020000 		.4byte	.LVL92
 2930 0515 B8020000 		.4byte	.LVL95
 2931 0519 0100     		.2byte	0x1
 2932 051b 5A       		.byte	0x5a
 2933 051c B8020000 		.4byte	.LVL95
 2934 0520 BC020000 		.4byte	.LVL96
 2935 0524 0300     		.2byte	0x3
 2936 0526 7A       		.byte	0x7a
 2937 0527 01       		.sleb128 1
 2938 0528 9F       		.byte	0x9f
 2939 0529 BC020000 		.4byte	.LVL96
 2940 052d C4020000 		.4byte	.LVL97
 2941 0531 0100     		.2byte	0x1
 2942 0533 5A       		.byte	0x5a
 2943 0534 1E030000 		.4byte	.LVL112
 2944 0538 32030000 		.4byte	.LVL115
 2945 053c 0200     		.2byte	0x2
 2946 053e 30       		.byte	0x30
 2947 053f 9F       		.byte	0x9f
 2948 0540 44030000 		.4byte	.LVL117
 2949 0544 48030000 		.4byte	.LVL118
 2950 0548 0100     		.2byte	0x1
 2951 054a 5A       		.byte	0x5a
 2952 054b 48030000 		.4byte	.LVL118
 2953 054f 4A030000 		.4byte	.LVL119
 2954 0553 0300     		.2byte	0x3
 2955 0555 7A       		.byte	0x7a
 2956 0556 01       		.sleb128 1
 2957 0557 9F       		.byte	0x9f
 2958 0558 68030000 		.4byte	.LVL125
 2959 055c 7C030000 		.4byte	.LFE11
 2960 0560 0200     		.2byte	0x2
 2961 0562 30       		.byte	0x30
 2962 0563 9F       		.byte	0x9f
 2963 0564 00000000 		.4byte	0
ARM GAS  /var/folders/bz/nn5481rn5xq59rb0mbj7x0880000gn/T//cceEuKgd.s 			page 53


 2964 0568 00000000 		.4byte	0
 2965              	.LLST15:
 2966 056c 82000000 		.4byte	.LVL34
 2967 0570 8A000000 		.4byte	.LVL36
 2968 0574 0200     		.2byte	0x2
 2969 0576 30       		.byte	0x30
 2970 0577 9F       		.byte	0x9f
 2971 0578 8A000000 		.4byte	.LVL36
 2972 057c 0E010000 		.4byte	.LVL39
 2973 0580 0100     		.2byte	0x1
 2974 0582 51       		.byte	0x51
 2975 0583 0E010000 		.4byte	.LVL39
 2976 0587 12010000 		.4byte	.LVL40
 2977 058b 0500     		.2byte	0x5
 2978 058d 70       		.byte	0x70
 2979 058e 00       		.sleb128 0
 2980 058f 31       		.byte	0x31
 2981 0590 24       		.byte	0x24
 2982 0591 9F       		.byte	0x9f
 2983 0592 12010000 		.4byte	.LVL40
 2984 0596 A4010000 		.4byte	.LVL50
 2985 059a 0100     		.2byte	0x1
 2986 059c 51       		.byte	0x51
 2987 059d A4010000 		.4byte	.LVL50
 2988 05a1 A6010000 		.4byte	.LVL51
 2989 05a5 0300     		.2byte	0x3
 2990 05a7 71       		.byte	0x71
 2991 05a8 7F       		.sleb128 -1
 2992 05a9 9F       		.byte	0x9f
 2993 05aa A6010000 		.4byte	.LVL51
 2994 05ae A8010000 		.4byte	.LVL52
 2995 05b2 0100     		.2byte	0x1
 2996 05b4 51       		.byte	0x51
 2997 05b5 A8010000 		.4byte	.LVL52
 2998 05b9 B0010000 		.4byte	.LVL54
 2999 05bd 0300     		.2byte	0x3
 3000 05bf 71       		.byte	0x71
 3001 05c0 7F       		.sleb128 -1
 3002 05c1 9F       		.byte	0x9f
 3003 05c2 E2010000 		.4byte	.LVL64
 3004 05c6 EF010000 		.4byte	.LVL65-1
 3005 05ca 0100     		.2byte	0x1
 3006 05cc 51       		.byte	0x51
 3007 05cd 66020000 		.4byte	.LVL78
 3008 05d1 6A020000 		.4byte	.LVL80
 3009 05d5 0100     		.2byte	0x1
 3010 05d7 51       		.byte	0x51
 3011 05d8 C4020000 		.4byte	.LVL97
 3012 05dc C6020000 		.4byte	.LVL98
 3013 05e0 0100     		.2byte	0x1
 3014 05e2 51       		.byte	0x51
 3015 05e3 D4020000 		.4byte	.LVL100
 3016 05e7 0A030000 		.4byte	.LVL109
 3017 05eb 0100     		.2byte	0x1
 3018 05ed 51       		.byte	0x51
 3019 05ee 14030000 		.4byte	.LVL111
 3020 05f2 1E030000 		.4byte	.LVL112
ARM GAS  /var/folders/bz/nn5481rn5xq59rb0mbj7x0880000gn/T//cceEuKgd.s 			page 54


 3021 05f6 0400     		.2byte	0x4
 3022 05f8 0A       		.byte	0xa
 3023 05f9 FF7F     		.2byte	0x7fff
 3024 05fb 9F       		.byte	0x9f
 3025 05fc 00000000 		.4byte	0
 3026 0600 00000000 		.4byte	0
 3027              	.LLST16:
 3028 0604 5C000000 		.4byte	.LVL26
 3029 0608 62000000 		.4byte	.LVL28
 3030 060c 0200     		.2byte	0x2
 3031 060e 30       		.byte	0x30
 3032 060f 9F       		.byte	0x9f
 3033 0610 62000000 		.4byte	.LVL28
 3034 0614 B6010000 		.4byte	.LVL56
 3035 0618 0100     		.2byte	0x1
 3036 061a 54       		.byte	0x54
 3037 061b BC010000 		.4byte	.LVL57
 3038 061f DC010000 		.4byte	.LVL62
 3039 0623 0100     		.2byte	0x1
 3040 0625 54       		.byte	0x54
 3041 0626 DC010000 		.4byte	.LVL62
 3042 062a DE010000 		.4byte	.LVL63
 3043 062e 0300     		.2byte	0x3
 3044 0630 74       		.byte	0x74
 3045 0631 7F       		.sleb128 -1
 3046 0632 9F       		.byte	0x9f
 3047 0633 DE010000 		.4byte	.LVL63
 3048 0637 A0020000 		.4byte	.LVL90
 3049 063b 0100     		.2byte	0x1
 3050 063d 54       		.byte	0x54
 3051 063e A0020000 		.4byte	.LVL90
 3052 0642 A2020000 		.4byte	.LVL91
 3053 0646 0300     		.2byte	0x3
 3054 0648 74       		.byte	0x74
 3055 0649 01       		.sleb128 1
 3056 064a 9F       		.byte	0x9f
 3057 064b A2020000 		.4byte	.LVL91
 3058 064f AC020000 		.4byte	.LVL93
 3059 0653 0100     		.2byte	0x1
 3060 0655 54       		.byte	0x54
 3061 0656 C4020000 		.4byte	.LVL97
 3062 065a 0A030000 		.4byte	.LVL109
 3063 065e 0100     		.2byte	0x1
 3064 0660 54       		.byte	0x54
 3065 0661 14030000 		.4byte	.LVL111
 3066 0665 7C030000 		.4byte	.LFE11
 3067 0669 0100     		.2byte	0x1
 3068 066b 54       		.byte	0x54
 3069 066c 00000000 		.4byte	0
 3070 0670 00000000 		.4byte	0
 3071              	.LLST17:
 3072 0674 30010000 		.4byte	.LVL43
 3073 0678 7D010000 		.4byte	.LVL46
 3074 067c 0200     		.2byte	0x2
 3075 067e 31       		.byte	0x31
 3076 067f 9F       		.byte	0x9f
 3077 0680 F6020000 		.4byte	.LVL105
ARM GAS  /var/folders/bz/nn5481rn5xq59rb0mbj7x0880000gn/T//cceEuKgd.s 			page 55


 3078 0684 F8020000 		.4byte	.LVL106
 3079 0688 0200     		.2byte	0x2
 3080 068a 31       		.byte	0x31
 3081 068b 9F       		.byte	0x9f
 3082 068c 00000000 		.4byte	0
 3083 0690 00000000 		.4byte	0
 3084              	.LLST18:
 3085 0694 3A000000 		.4byte	.LVL22
 3086 0698 44000000 		.4byte	.LVL24
 3087 069c 0200     		.2byte	0x2
 3088 069e 30       		.byte	0x30
 3089 069f 9F       		.byte	0x9f
 3090 06a0 44000000 		.4byte	.LVL24
 3091 06a4 4C000000 		.4byte	.LVL25
 3092 06a8 0200     		.2byte	0x2
 3093 06aa 31       		.byte	0x31
 3094 06ab 9F       		.byte	0x9f
 3095 06ac 4C000000 		.4byte	.LVL25
 3096 06b0 CA010000 		.4byte	.LVL60
 3097 06b4 0100     		.2byte	0x1
 3098 06b6 5A       		.byte	0x5a
 3099 06b7 E2010000 		.4byte	.LVL64
 3100 06bb 8A020000 		.4byte	.LVL87
 3101 06bf 0100     		.2byte	0x1
 3102 06c1 5A       		.byte	0x5a
 3103 06c2 C4020000 		.4byte	.LVL97
 3104 06c6 2C030000 		.4byte	.LVL114
 3105 06ca 0100     		.2byte	0x1
 3106 06cc 5A       		.byte	0x5a
 3107 06cd 4A030000 		.4byte	.LVL119
 3108 06d1 7C030000 		.4byte	.LFE11
 3109 06d5 0100     		.2byte	0x1
 3110 06d7 5A       		.byte	0x5a
 3111 06d8 00000000 		.4byte	0
 3112 06dc 00000000 		.4byte	0
 3113              	.LLST19:
 3114 06e0 6A020000 		.4byte	.LVL80
 3115 06e4 73020000 		.4byte	.LVL82-1
 3116 06e8 0100     		.2byte	0x1
 3117 06ea 51       		.byte	0x51
 3118 06eb C6020000 		.4byte	.LVL98
 3119 06ef D4020000 		.4byte	.LVL100
 3120 06f3 0100     		.2byte	0x1
 3121 06f5 51       		.byte	0x51
 3122 06f6 5A030000 		.4byte	.LVL122
 3123 06fa 68030000 		.4byte	.LVL125
 3124 06fe 0100     		.2byte	0x1
 3125 0700 51       		.byte	0x51
 3126 0701 00000000 		.4byte	0
 3127 0705 00000000 		.4byte	0
 3128              	.LLST20:
 3129 0709 00020000 		.4byte	.LVL66
 3130 070d 06020000 		.4byte	.LVL67
 3131 0711 0100     		.2byte	0x1
 3132 0713 50       		.byte	0x50
 3133 0714 06020000 		.4byte	.LVL67
 3134 0718 66020000 		.4byte	.LVL78
ARM GAS  /var/folders/bz/nn5481rn5xq59rb0mbj7x0880000gn/T//cceEuKgd.s 			page 56


 3135 071c 0200     		.2byte	0x2
 3136 071e 90       		.byte	0x90
 3137 071f 50       		.uleb128 0x50
 3138 0720 4A030000 		.4byte	.LVL119
 3139 0724 50030000 		.4byte	.LVL120
 3140 0728 0100     		.2byte	0x1
 3141 072a 50       		.byte	0x50
 3142 072b 50030000 		.4byte	.LVL120
 3143 072f 5A030000 		.4byte	.LVL122
 3144 0733 0200     		.2byte	0x2
 3145 0735 90       		.byte	0x90
 3146 0736 50       		.uleb128 0x50
 3147 0737 00000000 		.4byte	0
 3148 073b 00000000 		.4byte	0
 3149              	.LLST21:
 3150 073f 06020000 		.4byte	.LVL67
 3151 0743 66020000 		.4byte	.LVL78
 3152 0747 0600     		.2byte	0x6
 3153 0749 F5       		.byte	0xf5
 3154 074a 50       		.uleb128 0x50
 3155 074b 33       		.uleb128 0x33
 3156 074c F7       		.byte	0xf7
 3157 074d 25       		.uleb128 0x25
 3158 074e 9F       		.byte	0x9f
 3159 074f 00000000 		.4byte	0
 3160 0753 00000000 		.4byte	0
 3161              	.LLST22:
 3162 0757 06020000 		.4byte	.LVL67
 3163 075b 19020000 		.4byte	.LVL69-1
 3164 075f 0100     		.2byte	0x1
 3165 0761 50       		.byte	0x50
 3166 0762 1A020000 		.4byte	.LVL69
 3167 0766 22020000 		.4byte	.LVL70
 3168 076a 0300     		.2byte	0x3
 3169 076c 70       		.byte	0x70
 3170 076d 01       		.sleb128 1
 3171 076e 9F       		.byte	0x9f
 3172 076f 22020000 		.4byte	.LVL70
 3173 0773 64020000 		.4byte	.LVL77
 3174 0777 0100     		.2byte	0x1
 3175 0779 5B       		.byte	0x5b
 3176 077a 00000000 		.4byte	0
 3177 077e 00000000 		.4byte	0
 3178              	.LLST23:
 3179 0782 16020000 		.4byte	.LVL68
 3180 0786 19020000 		.4byte	.LVL69-1
 3181 078a 0100     		.2byte	0x1
 3182 078c 51       		.byte	0x51
 3183 078d 19020000 		.4byte	.LVL69-1
 3184 0791 4A020000 		.4byte	.LVL74
 3185 0795 0300     		.2byte	0x3
 3186 0797 91       		.byte	0x91
 3187 0798 AC7F     		.sleb128 -84
 3188 079a 4A020000 		.4byte	.LVL74
 3189 079e 4D020000 		.4byte	.LVL75-1
 3190 07a2 0800     		.2byte	0x8
 3191 07a4 F5       		.byte	0xf5
ARM GAS  /var/folders/bz/nn5481rn5xq59rb0mbj7x0880000gn/T//cceEuKgd.s 			page 57


 3192 07a5 00       		.uleb128 0
 3193 07a6 25       		.uleb128 0x25
 3194 07a7 F7       		.byte	0xf7
 3195 07a8 2C       		.uleb128 0x2c
 3196 07a9 F7       		.byte	0xf7
 3197 07aa 00       		.uleb128 0
 3198 07ab 9F       		.byte	0x9f
 3199 07ac 00000000 		.4byte	0
 3200 07b0 00000000 		.4byte	0
 3201              	.LLST24:
 3202 07b4 06020000 		.4byte	.LVL67
 3203 07b8 66020000 		.4byte	.LVL78
 3204 07bc 0600     		.2byte	0x6
 3205 07be 0C       		.byte	0xc
 3206 07bf A0860100 		.4byte	0x186a0
 3207 07c3 9F       		.byte	0x9f
 3208 07c4 00000000 		.4byte	0
 3209 07c8 00000000 		.4byte	0
 3210              	.LLST25:
 3211 07cc D0020000 		.4byte	.LVL99
 3212 07d0 D4020000 		.4byte	.LVL100
 3213 07d4 0200     		.2byte	0x2
 3214 07d6 3A       		.byte	0x3a
 3215 07d7 9F       		.byte	0x9f
 3216 07d8 00000000 		.4byte	0
 3217 07dc 00000000 		.4byte	0
 3218              	.LLST26:
 3219 07e0 D0020000 		.4byte	.LVL99
 3220 07e4 D4020000 		.4byte	.LVL100
 3221 07e8 0100     		.2byte	0x1
 3222 07ea 51       		.byte	0x51
 3223 07eb 00000000 		.4byte	0
 3224 07ef 00000000 		.4byte	0
 3225              	.LLST27:
 3226 07f3 D0020000 		.4byte	.LVL99
 3227 07f7 D4020000 		.4byte	.LVL100
 3228 07fb 0100     		.2byte	0x1
 3229 07fd 50       		.byte	0x50
 3230 07fe 00000000 		.4byte	0
 3231 0802 00000000 		.4byte	0
 3232              	.LLST28:
 3233 0806 00000000 		.4byte	.LVL126
 3234 080a 14000000 		.4byte	.LVL128
 3235 080e 0100     		.2byte	0x1
 3236 0810 50       		.byte	0x50
 3237 0811 14000000 		.4byte	.LVL128
 3238 0815 17000000 		.4byte	.LVL129-1
 3239 0819 0100     		.2byte	0x1
 3240 081b 51       		.byte	0x51
 3241 081c 17000000 		.4byte	.LVL129-1
 3242 0820 3C000000 		.4byte	.LFE12
 3243 0824 0400     		.2byte	0x4
 3244 0826 F3       		.byte	0xf3
 3245 0827 01       		.uleb128 0x1
 3246 0828 50       		.byte	0x50
 3247 0829 9F       		.byte	0x9f
 3248 082a 00000000 		.4byte	0
ARM GAS  /var/folders/bz/nn5481rn5xq59rb0mbj7x0880000gn/T//cceEuKgd.s 			page 58


 3249 082e 00000000 		.4byte	0
 3250              	.LLST29:
 3251 0832 00000000 		.4byte	.LVL126
 3252 0836 10000000 		.4byte	.LVL127
 3253 083a 0100     		.2byte	0x1
 3254 083c 51       		.byte	0x51
 3255 083d 10000000 		.4byte	.LVL127
 3256 0841 17000000 		.4byte	.LVL129-1
 3257 0845 0100     		.2byte	0x1
 3258 0847 52       		.byte	0x52
 3259 0848 17000000 		.4byte	.LVL129-1
 3260 084c 3C000000 		.4byte	.LFE12
 3261 0850 0400     		.2byte	0x4
 3262 0852 F3       		.byte	0xf3
 3263 0853 01       		.uleb128 0x1
 3264 0854 51       		.byte	0x51
 3265 0855 9F       		.byte	0x9f
 3266 0856 00000000 		.4byte	0
 3267 085a 00000000 		.4byte	0
 3268              	.LLST30:
 3269 085e 18000000 		.4byte	.LVL129
 3270 0862 1E000000 		.4byte	.LVL130
 3271 0866 0300     		.2byte	0x3
 3272 0868 91       		.byte	0x91
 3273 0869 44       		.sleb128 -60
 3274 086a 9F       		.byte	0x9f
 3275 086b 1E000000 		.4byte	.LVL130
 3276 086f 23000000 		.4byte	.LVL131-1
 3277 0873 0100     		.2byte	0x1
 3278 0875 50       		.byte	0x50
 3279 0876 23000000 		.4byte	.LVL131-1
 3280 087a 28000000 		.4byte	.LVL132
 3281 087e 0300     		.2byte	0x3
 3282 0880 91       		.byte	0x91
 3283 0881 44       		.sleb128 -60
 3284 0882 9F       		.byte	0x9f
 3285 0883 28000000 		.4byte	.LVL132
 3286 0887 2D000000 		.4byte	.LVL133-1
 3287 088b 0100     		.2byte	0x1
 3288 088d 50       		.byte	0x50
 3289 088e 2D000000 		.4byte	.LVL133-1
 3290 0892 3C000000 		.4byte	.LFE12
 3291 0896 0300     		.2byte	0x3
 3292 0898 91       		.byte	0x91
 3293 0899 44       		.sleb128 -60
 3294 089a 9F       		.byte	0x9f
 3295 089b 00000000 		.4byte	0
 3296 089f 00000000 		.4byte	0
 3297              		.section	.debug_aranges,"",%progbits
 3298 0000 2C000000 		.4byte	0x2c
 3299 0004 0200     		.2byte	0x2
 3300 0006 00000000 		.4byte	.Ldebug_info0
 3301 000a 04       		.byte	0x4
 3302 000b 00       		.byte	0
 3303 000c 0000     		.2byte	0
 3304 000e 0000     		.2byte	0
 3305 0010 00000000 		.4byte	.LFB8
ARM GAS  /var/folders/bz/nn5481rn5xq59rb0mbj7x0880000gn/T//cceEuKgd.s 			page 59


 3306 0014 48000000 		.4byte	.LFE8-.LFB8
 3307 0018 00000000 		.4byte	.LFB11
 3308 001c 7C030000 		.4byte	.LFE11-.LFB11
 3309 0020 00000000 		.4byte	.LFB12
 3310 0024 3C000000 		.4byte	.LFE12-.LFB12
 3311 0028 00000000 		.4byte	0
 3312 002c 00000000 		.4byte	0
 3313              		.section	.debug_ranges,"",%progbits
 3314              	.Ldebug_ranges0:
 3315 0000 06020000 		.4byte	.LBB12
 3316 0004 22020000 		.4byte	.LBE12
 3317 0008 2E020000 		.4byte	.LBB15
 3318 000c 62020000 		.4byte	.LBE15
 3319 0010 00000000 		.4byte	0
 3320 0014 00000000 		.4byte	0
 3321 0018 6A020000 		.4byte	.LBB16
 3322 001c 6C020000 		.4byte	.LBE16
 3323 0020 6E020000 		.4byte	.LBB19
 3324 0024 7A020000 		.4byte	.LBE19
 3325 0028 00000000 		.4byte	0
 3326 002c 00000000 		.4byte	0
 3327 0030 00000000 		.4byte	.LFB8
 3328 0034 48000000 		.4byte	.LFE8
 3329 0038 00000000 		.4byte	.LFB11
 3330 003c 7C030000 		.4byte	.LFE11
 3331 0040 00000000 		.4byte	.LFB12
 3332 0044 3C000000 		.4byte	.LFE12
 3333 0048 00000000 		.4byte	0
 3334 004c 00000000 		.4byte	0
 3335              		.section	.debug_line,"",%progbits
 3336              	.Ldebug_line0:
 3337 0000 4F030000 		.section	.debug_str,"MS",%progbits,1
 3337      0200F001 
 3337      00000201 
 3337      FB0E0D00 
 3337      01010101 
 3338              	.LASF4:
 3339 0000 73697A65 		.ascii	"size_t\000"
 3339      5F7400
 3340              	.LASF5:
 3341 0007 5F5F7569 		.ascii	"__uint8_t\000"
 3341      6E74385F 
 3341      7400
 3342              	.LASF44:
 3343 0011 6C69622F 		.ascii	"lib/ChibiOS_2.6.6/os/various/chprintf.c\000"
 3343      43686962 
 3343      694F535F 
 3343      322E362E 
 3343      362F6F73 
 3344              	.LASF27:
 3345 0039 76615F6C 		.ascii	"va_list\000"
 3345      69737400 
 3346              	.LASF36:
 3347 0041 66746F61 		.ascii	"ftoa\000"
 3347      00
 3348              	.LASF13:
 3349 0046 6C6F6E67 		.ascii	"long long unsigned int\000"
ARM GAS  /var/folders/bz/nn5481rn5xq59rb0mbj7x0880000gn/T//cceEuKgd.s 			page 60


 3349      206C6F6E 
 3349      6720756E 
 3349      7369676E 
 3349      65642069 
 3350              	.LASF12:
 3351 005d 6C6F6E67 		.ascii	"long long int\000"
 3351      206C6F6E 
 3351      6720696E 
 3351      7400
 3352              	.LASF3:
 3353 006b 7369676E 		.ascii	"signed char\000"
 3353      65642063 
 3353      68617200 
 3354              	.LASF16:
 3355 0077 626F6F6C 		.ascii	"bool_t\000"
 3355      5F7400
 3356              	.LASF42:
 3357 007e 746D7062 		.ascii	"tmpbuf\000"
 3357      756600
 3358              	.LASF10:
 3359 0085 6C6F6E67 		.ascii	"long int\000"
 3359      20696E74 
 3359      00
 3360              	.LASF50:
 3361 008e 6368736E 		.ascii	"chsnprintf\000"
 3361      7072696E 
 3361      746600
 3362              	.LASF26:
 3363 0099 5F5F7661 		.ascii	"__va_list\000"
 3363      5F6C6973 
 3363      7400
 3364              	.LASF0:
 3365 00a3 646F7562 		.ascii	"double\000"
 3365      6C6500
 3366              	.LASF29:
 3367 00aa 62756666 		.ascii	"buffer\000"
 3367      657200
 3368              	.LASF45:
 3369 00b1 2F557365 		.ascii	"/Users/imac/oroca_bldc_dev/oroca_bldc/\000"
 3369      72732F69 
 3369      6D61632F 
 3369      6F726F63 
 3369      615F626C 
 3370              	.LASF38:
 3371 00d8 66696C6C 		.ascii	"filler\000"
 3371      657200
 3372              	.LASF40:
 3373 00df 69735F6C 		.ascii	"is_long\000"
 3373      6F6E6700 
 3374              	.LASF23:
 3375 00e7 42617365 		.ascii	"BaseSequentialStream\000"
 3375      53657175 
 3375      656E7469 
 3375      616C5374 
 3375      7265616D 
 3376              	.LASF2:
 3377 00fc 756E7369 		.ascii	"unsigned int\000"
ARM GAS  /var/folders/bz/nn5481rn5xq59rb0mbj7x0880000gn/T//cceEuKgd.s 			page 61


 3377      676E6564 
 3377      20696E74 
 3377      00
 3378              	.LASF11:
 3379 0109 6C6F6E67 		.ascii	"long unsigned int\000"
 3379      20756E73 
 3379      69676E65 
 3379      6420696E 
 3379      7400
 3380              	.LASF41:
 3381 011b 6C656674 		.ascii	"left_align\000"
 3381      5F616C69 
 3381      676E00
 3382              	.LASF39:
 3383 0126 77696474 		.ascii	"width\000"
 3383      6800
 3384              	.LASF30:
 3385 012c 73697A65 		.ascii	"size\000"
 3385      00
 3386              	.LASF8:
 3387 0131 73686F72 		.ascii	"short unsigned int\000"
 3387      7420756E 
 3387      7369676E 
 3387      65642069 
 3387      6E7400
 3388              	.LASF18:
 3389 0144 6D73675F 		.ascii	"msg_t\000"
 3389      7400
 3390              	.LASF35:
 3391 014a 6C746F61 		.ascii	"ltoa\000"
 3391      00
 3392              	.LASF51:
 3393 014f 6D734F62 		.ascii	"msObjectInit\000"
 3393      6A656374 
 3393      496E6974 
 3393      00
 3394              	.LASF21:
 3395 015c 77726974 		.ascii	"write\000"
 3395      6500
 3396              	.LASF19:
 3397 0162 73697A65 		.ascii	"sizetype\000"
 3397      74797065 
 3397      00
 3398              	.LASF49:
 3399 016b 756E7369 		.ascii	"unsigned_common\000"
 3399      676E6564 
 3399      5F636F6D 
 3399      6D6F6E00 
 3400              	.LASF34:
 3401 017b 64697669 		.ascii	"divisor\000"
 3401      736F7200 
 3402              	.LASF24:
 3403 0183 5F5F676E 		.ascii	"__gnuc_va_list\000"
 3403      75635F76 
 3403      615F6C69 
 3403      737400
 3404              	.LASF28:
ARM GAS  /var/folders/bz/nn5481rn5xq59rb0mbj7x0880000gn/T//cceEuKgd.s 			page 62


 3405 0192 4D656D53 		.ascii	"MemStreamVMT\000"
 3405      74726561 
 3405      6D564D54 
 3405      00
 3406              	.LASF1:
 3407 019f 666C6F61 		.ascii	"float\000"
 3407      7400
 3408              	.LASF32:
 3409 01a5 4D656D6F 		.ascii	"MemoryStream\000"
 3409      72795374 
 3409      7265616D 
 3409      00
 3410              	.LASF17:
 3411 01b2 5F426F6F 		.ascii	"_Bool\000"
 3411      6C00
 3412              	.LASF15:
 3413 01b8 696E7433 		.ascii	"int32_t\000"
 3413      325F7400 
 3414              	.LASF6:
 3415 01c0 756E7369 		.ascii	"unsigned char\000"
 3415      676E6564 
 3415      20636861 
 3415      7200
 3416              	.LASF7:
 3417 01ce 73686F72 		.ascii	"short int\000"
 3417      7420696E 
 3417      7400
 3418              	.LASF25:
 3419 01d8 42617365 		.ascii	"BaseSequentialStreamVMT\000"
 3419      53657175 
 3419      656E7469 
 3419      616C5374 
 3419      7265616D 
 3420              	.LASF33:
 3421 01f0 72616469 		.ascii	"radix\000"
 3421      7800
 3422              	.LASF20:
 3423 01f6 63686172 		.ascii	"char\000"
 3423      00
 3424              	.LASF37:
 3425 01fb 70726563 		.ascii	"precision\000"
 3425      6973696F 
 3425      6E00
 3426              	.LASF9:
 3427 0205 5F5F696E 		.ascii	"__int32_t\000"
 3427      7433325F 
 3427      7400
 3428              	.LASF43:
 3429 020f 474E5520 		.ascii	"GNU C 4.9.3 20150529 (release) [ARM/embedded-4_9-br"
 3429      4320342E 
 3429      392E3320 
 3429      32303135 
 3429      30353239 
 3430 0242 616E6368 		.ascii	"anch revision 224288] -mcpu=cortex-m4 -mfloat-abi=h"
 3430      20726576 
 3430      6973696F 
 3430      6E203232 
ARM GAS  /var/folders/bz/nn5481rn5xq59rb0mbj7x0880000gn/T//cceEuKgd.s 			page 63


 3430      34323838 
 3431 0275 61726420 		.ascii	"ard -mfpu=fpv4-sp-d16 -mno-thumb-interwork -mthumb "
 3431      2D6D6670 
 3431      753D6670 
 3431      76342D73 
 3431      702D6431 
 3432 02a8 2D676764 		.ascii	"-ggdb -O2 -std=gnu99 -fomit-frame-pointer -falign-f"
 3432      62202D4F 
 3432      32202D73 
 3432      74643D67 
 3432      6E753939 
 3433 02db 756E6374 		.ascii	"unctions=16 -ffunction-sections -fdata-sections -fn"
 3433      696F6E73 
 3433      3D313620 
 3433      2D666675 
 3433      6E637469 
 3434 030e 6F2D636F 		.ascii	"o-common -fsingle-precision-constant\000"
 3434      6D6D6F6E 
 3434      202D6673 
 3434      696E676C 
 3434      652D7072 
 3435              	.LASF31:
 3436 0333 6F666673 		.ascii	"offset\000"
 3436      657400
 3437              	.LASF46:
 3438 033a 5F5F6170 		.ascii	"__ap\000"
 3438      00
 3439              	.LASF14:
 3440 033f 75696E74 		.ascii	"uint8_t\000"
 3440      385F7400 
 3441              	.LASF48:
 3442 0347 63687670 		.ascii	"chvprintf\000"
 3442      72696E74 
 3442      6600
 3443              	.LASF22:
 3444 0351 72656164 		.ascii	"read\000"
 3444      00
 3445              	.LASF47:
 3446 0356 6C6F6E67 		.ascii	"long_to_string_with_divisor\000"
 3446      5F746F5F 
 3446      73747269 
 3446      6E675F77 
 3446      6974685F 
 3447              		.ident	"GCC: (GNU Tools for ARM Embedded Processors) 4.9.3 20150529 (release) [ARM/embedded-4_9-br
ARM GAS  /var/folders/bz/nn5481rn5xq59rb0mbj7x0880000gn/T//cceEuKgd.s 			page 64


DEFINED SYMBOLS
                            *ABS*:0000000000000000 chprintf.c
/var/folders/bz/nn5481rn5xq59rb0mbj7x0880000gn/T//cceEuKgd.s:21     .text.long_to_string_with_divisor:0000000000000000 $t
/var/folders/bz/nn5481rn5xq59rb0mbj7x0880000gn/T//cceEuKgd.s:26     .text.long_to_string_with_divisor:0000000000000000 long_to_string_with_divisor
/var/folders/bz/nn5481rn5xq59rb0mbj7x0880000gn/T//cceEuKgd.s:114    .text.chvprintf:0000000000000000 $t
/var/folders/bz/nn5481rn5xq59rb0mbj7x0880000gn/T//cceEuKgd.s:120    .text.chvprintf:0000000000000000 chvprintf
/var/folders/bz/nn5481rn5xq59rb0mbj7x0880000gn/T//cceEuKgd.s:269    .text.chvprintf:00000000000000a0 $d
/var/folders/bz/nn5481rn5xq59rb0mbj7x0880000gn/T//cceEuKgd.s:323    .text.chvprintf:000000000000010a $t
/var/folders/bz/nn5481rn5xq59rb0mbj7x0880000gn/T//cceEuKgd.s:371    .text.chvprintf:0000000000000148 $d
/var/folders/bz/nn5481rn5xq59rb0mbj7x0880000gn/T//cceEuKgd.s:818    .text.chvprintf:0000000000000370 $d
/var/folders/bz/nn5481rn5xq59rb0mbj7x0880000gn/T//cceEuKgd.s:825    .text.chsnprintf:0000000000000000 $t
/var/folders/bz/nn5481rn5xq59rb0mbj7x0880000gn/T//cceEuKgd.s:831    .text.chsnprintf:0000000000000000 chsnprintf
/var/folders/bz/nn5481rn5xq59rb0mbj7x0880000gn/T//cceEuKgd.s:900    .rodata.str1.4:0000000000000000 $d
                     .debug_frame:0000000000000010 $d
/var/folders/bz/nn5481rn5xq59rb0mbj7x0880000gn/T//cceEuKgd.s:425    .text.chvprintf:000000000000017d $d
/var/folders/bz/nn5481rn5xq59rb0mbj7x0880000gn/T//cceEuKgd.s:425    .text.chvprintf:000000000000017e $t

UNDEFINED SYMBOLS
__aeabi_d2f
__aeabi_f2d
__aeabi_i2d
__aeabi_dsub
__aeabi_dmul
__aeabi_d2iz
msObjectInit
