ARM GAS  /var/folders/bz/nn5481rn5xq59rb0mbj7x0880000gn/T//cceEuKgd.s 			page 1


   1              		.syntax unified
   2              		.cpu cortex-m4
   3              		.eabi_attribute 27, 1
   4              		.eabi_attribute 28, 1
   5              		.fpu fpv4-sp-d16
   6              		.eabi_attribute 20, 1
   7              		.eabi_attribute 21, 1
   8              		.eabi_attribute 23, 3
   9              		.eabi_attribute 24, 1
  10              		.eabi_attribute 25, 1
  11              		.eabi_attribute 26, 1
  12              		.eabi_attribute 30, 2
  13              		.eabi_attribute 34, 1
  14              		.eabi_attribute 18, 4
  15              		.thumb
  16              		.file	"chprintf.c"
  17              		.text
  18              	.Ltext0:
  19              		.cfi_sections	.debug_frame
  20              		.section	.text.long_to_string_with_divisor,"ax",%progbits
  21              		.align	2
  22              		.p2align 4,,15
  23              		.thumb
  24              		.thumb_func
  25              		.type	long_to_string_with_divisor, %function
  26              	long_to_string_with_divisor:
  27              	.LFB8:
  28              		.file 1 "lib/ChibiOS_2.6.6/os/various/chprintf.c"
  29              		.loc 1 40 0
  30              		.cfi_startproc
  31              		@ args = 0, pretend = 0, frame = 0
  32              		@ frame_needed = 0, uses_anonymous_args = 0
  33              		@ link register save eliminated.
  34              	.LVL0:
  35 0000 F0B4     		push	{r4, r5, r6, r7}
  36              		.cfi_def_cfa_offset 16
  37              		.cfi_offset 4, -16
  38              		.cfi_offset 5, -12
  39              		.cfi_offset 6, -8
  40              		.cfi_offset 7, -4
  41              		.loc 1 52 0
  42 0002 00F10B07 		add	r7, r0, #11
  43              		.loc 1 46 0
  44 0006 002B     		cmp	r3, #0
  45 0008 08BF     		it	eq
  46 000a 0B46     		moveq	r3, r1
  47              	.LVL1:
  48              		.loc 1 52 0
  49 000c 3D46     		mov	r5, r7
  50              	.LVL2:
  51              	.L4:
  52              		.loc 1 54 0
  53 000e B1FBF2F6 		udiv	r6, r1, r2
  54 0012 02FB1611 		mls	r1, r2, r6, r1
  55              	.LVL3:
  56              		.loc 1 55 0
  57 0016 01F13004 		add	r4, r1, #48
ARM GAS  /var/folders/bz/nn5481rn5xq59rb0mbj7x0880000gn/T//cceEuKgd.s 			page 2


  58              	.LVL4:
  59              		.loc 1 56 0
  60 001a 392C     		cmp	r4, #57
  61              		.loc 1 57 0
  62 001c C8BF     		it	gt
  63 001e 01F13704 		addgt	r4, r1, #55
  64              	.LVL5:
  65              		.loc 1 58 0
  66 0022 E4B2     		uxtb	r4, r4
  67              	.LVL6:
  68 0024 05F8014D 		strb	r4, [r5, #-1]!
  69              	.LVL7:
  70              		.loc 1 60 0
  71 0028 B3FBF2F3 		udiv	r3, r3, r2
  72              	.LVL8:
  73              		.loc 1 59 0
  74 002c 3146     		mov	r1, r6
  75              	.LVL9:
  76              		.loc 1 60 0
  77 002e 002B     		cmp	r3, #0
  78 0030 EDD1     		bne	.L4
  79              	.LVL10:
  80              		.loc 1 62 0
  81 0032 7B1B     		subs	r3, r7, r5
  82              	.LVL11:
  83 0034 0344     		add	r3, r3, r0
  84 0036 01E0     		b	.L6
  85              	.LVL12:
  86              	.L12:
  87 0038 15F8014F 		ldrb	r4, [r5, #1]!	@ zero_extendqisi2
  88              	.LVL13:
  89              	.L6:
  90              		.loc 1 64 0 discriminator 1
  91 003c 00F8014B 		strb	r4, [r0], #1
  92              	.LVL14:
  93              		.loc 1 65 0 discriminator 1
  94 0040 9842     		cmp	r0, r3
  95 0042 F9D1     		bne	.L12
  96              		.loc 1 68 0
  97 0044 F0BC     		pop	{r4, r5, r6, r7}
  98              		.cfi_restore 7
  99              		.cfi_restore 6
 100              		.cfi_restore 5
 101              		.cfi_restore 4
 102              		.cfi_def_cfa_offset 0
 103 0046 7047     		bx	lr
 104              		.cfi_endproc
 105              	.LFE8:
 106              		.size	long_to_string_with_divisor, .-long_to_string_with_divisor
 107              		.global	__aeabi_d2f
 108              		.global	__aeabi_f2d
 109              		.global	__aeabi_i2d
 110              		.global	__aeabi_dsub
 111              		.global	__aeabi_dmul
 112              		.global	__aeabi_d2iz
 113              		.section	.text.chvprintf,"ax",%progbits
 114              		.align	2
ARM GAS  /var/folders/bz/nn5481rn5xq59rb0mbj7x0880000gn/T//cceEuKgd.s 			page 3


 115              		.p2align 4,,15
 116              		.global	chvprintf
 117              		.thumb
 118              		.thumb_func
 119              		.type	chvprintf, %function
 120              	chvprintf:
 121              	.LFB11:
 122              		.loc 1 112 0
 123              		.cfi_startproc
 124              		@ args = 0, pretend = 0, frame = 40
 125              		@ frame_needed = 0, uses_anonymous_args = 0
 126              	.LVL15:
 127 0000 2DE9F04F 		push	{r4, r5, r6, r7, r8, r9, r10, fp, lr}
 128              		.cfi_def_cfa_offset 36
 129              		.cfi_offset 4, -36
 130              		.cfi_offset 5, -32
 131              		.cfi_offset 6, -28
 132              		.cfi_offset 7, -24
 133              		.cfi_offset 8, -20
 134              		.cfi_offset 9, -16
 135              		.cfi_offset 10, -12
 136              		.cfi_offset 11, -8
 137              		.cfi_offset 14, -4
 138 0004 2DED028B 		fstmfdd	sp!, {d8}
 139              		.cfi_def_cfa_offset 44
 140              		.cfi_offset 80, -44
 141              		.cfi_offset 81, -40
 142 0008 8BB0     		sub	sp, sp, #44
 143              		.cfi_def_cfa_offset 88
 144              		.loc 1 112 0
 145 000a 0646     		mov	r6, r0
 146 000c 0D46     		mov	r5, r1
 147 000e 1746     		mov	r7, r2
 148 0010 0DF11009 		add	r9, sp, #16
 149              	.LVL16:
 150              	.L14:
 151              		.loc 1 125 0
 152 0014 2978     		ldrb	r1, [r5]	@ zero_extendqisi2
 153 0016 6B1C     		adds	r3, r5, #1
 154              	.LVL17:
 155              		.loc 1 126 0
 156 0018 51B1     		cbz	r1, .L13
 157              	.L103:
 158              		.loc 1 128 0
 159 001a 2529     		cmp	r1, #37
 160 001c 0DD0     		beq	.L16
 161              		.loc 1 129 0
 162 001e 3268     		ldr	r2, [r6]
 163              	.LVL18:
 164              		.loc 1 125 0
 165 0020 1D46     		mov	r5, r3
 166              		.loc 1 129 0
 167 0022 9268     		ldr	r2, [r2, #8]
 168 0024 3046     		mov	r0, r6
 169 0026 9047     		blx	r2
 170              	.LVL19:
 171              		.loc 1 125 0
ARM GAS  /var/folders/bz/nn5481rn5xq59rb0mbj7x0880000gn/T//cceEuKgd.s 			page 4


 172 0028 2978     		ldrb	r1, [r5]	@ zero_extendqisi2
 173 002a 6B1C     		adds	r3, r5, #1
 174              	.LVL20:
 175              		.loc 1 126 0
 176 002c 0029     		cmp	r1, #0
 177 002e F4D1     		bne	.L103
 178              	.LVL21:
 179              	.L13:
 180              		.loc 1 261 0
 181 0030 0BB0     		add	sp, sp, #44
 182              		.cfi_remember_state
 183              		.cfi_def_cfa_offset 44
 184              		@ sp needed
 185 0032 BDEC028B 		fldmfdd	sp!, {d8}
 186              		.cfi_restore 80
 187              		.cfi_restore 81
 188              		.cfi_def_cfa_offset 36
 189 0036 BDE8F08F 		pop	{r4, r5, r6, r7, r8, r9, r10, fp, pc}
 190              	.LVL22:
 191              	.L16:
 192              		.cfi_restore_state
 193              		.loc 1 135 0
 194 003a 6A78     		ldrb	r2, [r5, #1]	@ zero_extendqisi2
 195              	.LVL23:
 196 003c 2D2A     		cmp	r2, #45
 197 003e 03BF     		ittte	eq
 198 0040 AA78     		ldrbeq	r2, [r5, #2]	@ zero_extendqisi2
 199              		.loc 1 136 0
 200 0042 AB1C     		addeq	r3, r5, #2
 201              	.LVL24:
 202              		.loc 1 137 0
 203 0044 4FF0010A 		moveq	r10, #1
 204              		.loc 1 134 0
 205 0048 4FF0000A 		movne	r10, #0
 206              	.LVL25:
 207              		.loc 1 140 0
 208 004c 2E2A     		cmp	r2, #46
 209 004e 00F05C81 		beq	.L19
 210              		.loc 1 140 0 is_stmt 0 discriminator 1
 211 0052 302A     		cmp	r2, #48
 212 0054 00F05981 		beq	.L19
 213              		.loc 1 139 0 is_stmt 1
 214 0058 4FF02008 		mov	r8, #32
 215              	.LVL26:
 216              	.L20:
 217 005c 591C     		adds	r1, r3, #1
 218              	.LVL27:
 219              		.loc 1 144 0
 220 005e 0024     		movs	r4, #0
 221 0060 05E0     		b	.L23
 222              	.LVL28:
 223              	.L104:
 224              		.loc 1 150 0
 225 0062 3B78     		ldrb	r3, [r7]	@ zero_extendqisi2
 226              	.LVL29:
 227 0064 0437     		adds	r7, r7, #4
 228              	.LVL30:
ARM GAS  /var/folders/bz/nn5481rn5xq59rb0mbj7x0880000gn/T//cceEuKgd.s 			page 5


 229              	.L21:
 230 0066 2A78     		ldrb	r2, [r5]	@ zero_extendqisi2
 231              		.loc 1 153 0
 232 0068 03EB4004 		add	r4, r3, r0, lsl #1
 233              	.LVL31:
 234 006c 0131     		adds	r1, r1, #1
 235              	.LVL32:
 236              	.L23:
 237              		.loc 1 147 0
 238 006e A2F13003 		sub	r3, r2, #48
 239 0072 DBB2     		uxtb	r3, r3
 240 0074 092B     		cmp	r3, #9
 241              		.loc 1 146 0
 242 0076 0D46     		mov	r5, r1
 243              	.LVL33:
 244              		.loc 1 153 0
 245 0078 04EB8400 		add	r0, r4, r4, lsl #2
 246              		.loc 1 147 0
 247 007c F3D9     		bls	.L21
 248              		.loc 1 149 0
 249 007e 2A2A     		cmp	r2, #42
 250 0080 EFD0     		beq	.L104
 251              	.LVL34:
 252              		.loc 1 156 0
 253 0082 2E2A     		cmp	r2, #46
 254 0084 4FF00001 		mov	r1, #0
 255              	.LVL35:
 256 0088 43D0     		beq	.L26
 257              	.LVL36:
 258              		.loc 1 170 0
 259 008a 02F0DF03 		and	r3, r2, #223
 260 008e 4C2B     		cmp	r3, #76
 261 0090 4ED0     		beq	.L105
 262              	.L93:
 263              		.loc 1 179 0
 264 0092 A2F14400 		sub	r0, r2, #68
 265 0096 3428     		cmp	r0, #52
 266 0098 00F22E81 		bhi	.L29
 267 009c DFE810F0 		tbh	[pc, r0, lsl #1]
 268              	.L39:
 269 00a0 1201     		.2byte	(.L47-.L39)/2
 270 00a2 2C01     		.2byte	(.L29-.L39)/2
 271 00a4 2C01     		.2byte	(.L29-.L39)/2
 272 00a6 2C01     		.2byte	(.L29-.L39)/2
 273 00a8 2C01     		.2byte	(.L29-.L39)/2
 274 00aa 1201     		.2byte	(.L47-.L39)/2
 275 00ac 2C01     		.2byte	(.L29-.L39)/2
 276 00ae 2C01     		.2byte	(.L29-.L39)/2
 277 00b0 2C01     		.2byte	(.L29-.L39)/2
 278 00b2 2C01     		.2byte	(.L29-.L39)/2
 279 00b4 2C01     		.2byte	(.L29-.L39)/2
 280 00b6 E300     		.2byte	(.L32-.L39)/2
 281 00b8 2C01     		.2byte	(.L29-.L39)/2
 282 00ba 2C01     		.2byte	(.L29-.L39)/2
 283 00bc 2C01     		.2byte	(.L29-.L39)/2
 284 00be 2C01     		.2byte	(.L29-.L39)/2
 285 00c0 2C01     		.2byte	(.L29-.L39)/2
ARM GAS  /var/folders/bz/nn5481rn5xq59rb0mbj7x0880000gn/T//cceEuKgd.s 			page 6


 286 00c2 1A01     		.2byte	(.L33-.L39)/2
 287 00c4 2C01     		.2byte	(.L29-.L39)/2
 288 00c6 2C01     		.2byte	(.L29-.L39)/2
 289 00c8 2901     		.2byte	(.L74-.L39)/2
 290 00ca 2C01     		.2byte	(.L29-.L39)/2
 291 00cc 2C01     		.2byte	(.L29-.L39)/2
 292 00ce 2C01     		.2byte	(.L29-.L39)/2
 293 00d0 2C01     		.2byte	(.L29-.L39)/2
 294 00d2 2C01     		.2byte	(.L29-.L39)/2
 295 00d4 2C01     		.2byte	(.L29-.L39)/2
 296 00d6 2C01     		.2byte	(.L29-.L39)/2
 297 00d8 2C01     		.2byte	(.L29-.L39)/2
 298 00da 2C01     		.2byte	(.L29-.L39)/2
 299 00dc 2C01     		.2byte	(.L29-.L39)/2
 300 00de 1C01     		.2byte	(.L35-.L39)/2
 301 00e0 1201     		.2byte	(.L47-.L39)/2
 302 00e2 2C01     		.2byte	(.L29-.L39)/2
 303 00e4 A100     		.2byte	(.L36-.L39)/2
 304 00e6 2C01     		.2byte	(.L29-.L39)/2
 305 00e8 2C01     		.2byte	(.L29-.L39)/2
 306 00ea 1201     		.2byte	(.L47-.L39)/2
 307 00ec 2C01     		.2byte	(.L29-.L39)/2
 308 00ee 2C01     		.2byte	(.L29-.L39)/2
 309 00f0 2C01     		.2byte	(.L29-.L39)/2
 310 00f2 2C01     		.2byte	(.L29-.L39)/2
 311 00f4 2C01     		.2byte	(.L29-.L39)/2
 312 00f6 E300     		.2byte	(.L32-.L39)/2
 313 00f8 2C01     		.2byte	(.L29-.L39)/2
 314 00fa 2C01     		.2byte	(.L29-.L39)/2
 315 00fc 2C01     		.2byte	(.L29-.L39)/2
 316 00fe 6F00     		.2byte	(.L37-.L39)/2
 317 0100 2C01     		.2byte	(.L29-.L39)/2
 318 0102 1A01     		.2byte	(.L33-.L39)/2
 319 0104 2C01     		.2byte	(.L29-.L39)/2
 320 0106 2C01     		.2byte	(.L29-.L39)/2
 321 0108 2901     		.2byte	(.L74-.L39)/2
 322              	.LVL37:
 323              		.p2align 1
 324              	.L106:
 325              		.loc 1 162 0
 326 010a 3B78     		ldrb	r3, [r7]	@ zero_extendqisi2
 327              	.LVL38:
 328 010c 0437     		adds	r7, r7, #4
 329              	.LVL39:
 330              	.L25:
 331              		.loc 1 166 0
 332 010e 03EB4001 		add	r1, r3, r0, lsl #1
 333              	.LVL40:
 334              	.L26:
 335              		.loc 1 158 0
 336 0112 15F8012B 		ldrb	r2, [r5], #1	@ zero_extendqisi2
 337              	.LVL41:
 338              		.loc 1 159 0
 339 0116 A2F13003 		sub	r3, r2, #48
 340 011a DBB2     		uxtb	r3, r3
 341 011c 092B     		cmp	r3, #9
 342              		.loc 1 165 0
ARM GAS  /var/folders/bz/nn5481rn5xq59rb0mbj7x0880000gn/T//cceEuKgd.s 			page 7


 343 011e 01EB8100 		add	r0, r1, r1, lsl #2
 344              		.loc 1 159 0
 345 0122 F4D9     		bls	.L25
 346              		.loc 1 161 0
 347 0124 2A2A     		cmp	r2, #42
 348 0126 F0D0     		beq	.L106
 349              	.LVL42:
 350              		.loc 1 170 0
 351 0128 02F0DF03 		and	r3, r2, #223
 352 012c 4C2B     		cmp	r3, #76
 353 012e B0D1     		bne	.L93
 354              	.L105:
 355              	.LVL43:
 356              		.loc 1 172 0
 357 0130 2B78     		ldrb	r3, [r5]	@ zero_extendqisi2
 358 0132 002B     		cmp	r3, #0
 359 0134 00F0E080 		beq	.L29
 360              		.loc 1 179 0
 361 0138 A3F14402 		sub	r2, r3, #68
 362              	.LVL44:
 363              		.loc 1 173 0
 364 013c 0135     		adds	r5, r5, #1
 365              	.LVL45:
 366              		.loc 1 179 0
 367 013e 342A     		cmp	r2, #52
 368 0140 00F2D980 		bhi	.L71
 369 0144 DFE802F0 		tbb	[pc, r2]
 370              	.L31:
 371 0148 BE       		.byte	(.L47-.L31)/2
 372 0149 D7       		.byte	(.L71-.L31)/2
 373 014a D7       		.byte	(.L71-.L31)/2
 374 014b D7       		.byte	(.L71-.L31)/2
 375 014c D7       		.byte	(.L71-.L31)/2
 376 014d BE       		.byte	(.L47-.L31)/2
 377 014e D7       		.byte	(.L71-.L31)/2
 378 014f D7       		.byte	(.L71-.L31)/2
 379 0150 D7       		.byte	(.L71-.L31)/2
 380 0151 D7       		.byte	(.L71-.L31)/2
 381 0152 D7       		.byte	(.L71-.L31)/2
 382 0153 8F       		.byte	(.L32-.L31)/2
 383 0154 D7       		.byte	(.L71-.L31)/2
 384 0155 D7       		.byte	(.L71-.L31)/2
 385 0156 D7       		.byte	(.L71-.L31)/2
 386 0157 D7       		.byte	(.L71-.L31)/2
 387 0158 D7       		.byte	(.L71-.L31)/2
 388 0159 C6       		.byte	(.L33-.L31)/2
 389 015a D7       		.byte	(.L71-.L31)/2
 390 015b D7       		.byte	(.L71-.L31)/2
 391 015c D5       		.byte	(.L74-.L31)/2
 392 015d D7       		.byte	(.L71-.L31)/2
 393 015e D7       		.byte	(.L71-.L31)/2
 394 015f D7       		.byte	(.L71-.L31)/2
 395 0160 D7       		.byte	(.L71-.L31)/2
 396 0161 D7       		.byte	(.L71-.L31)/2
 397 0162 D7       		.byte	(.L71-.L31)/2
 398 0163 D7       		.byte	(.L71-.L31)/2
 399 0164 D7       		.byte	(.L71-.L31)/2
ARM GAS  /var/folders/bz/nn5481rn5xq59rb0mbj7x0880000gn/T//cceEuKgd.s 			page 8


 400 0165 D7       		.byte	(.L71-.L31)/2
 401 0166 D7       		.byte	(.L71-.L31)/2
 402 0167 C8       		.byte	(.L35-.L31)/2
 403 0168 BE       		.byte	(.L47-.L31)/2
 404 0169 D7       		.byte	(.L71-.L31)/2
 405 016a 4D       		.byte	(.L36-.L31)/2
 406 016b D7       		.byte	(.L71-.L31)/2
 407 016c D7       		.byte	(.L71-.L31)/2
 408 016d BE       		.byte	(.L47-.L31)/2
 409 016e D7       		.byte	(.L71-.L31)/2
 410 016f D7       		.byte	(.L71-.L31)/2
 411 0170 D7       		.byte	(.L71-.L31)/2
 412 0171 D7       		.byte	(.L71-.L31)/2
 413 0172 D7       		.byte	(.L71-.L31)/2
 414 0173 8F       		.byte	(.L32-.L31)/2
 415 0174 D7       		.byte	(.L71-.L31)/2
 416 0175 D7       		.byte	(.L71-.L31)/2
 417 0176 D7       		.byte	(.L71-.L31)/2
 418 0177 1B       		.byte	(.L37-.L31)/2
 419 0178 D7       		.byte	(.L71-.L31)/2
 420 0179 C6       		.byte	(.L33-.L31)/2
 421 017a D7       		.byte	(.L71-.L31)/2
 422 017b D7       		.byte	(.L71-.L31)/2
 423 017c D5       		.byte	(.L74-.L31)/2
 424              	.LVL46:
 425 017d 00       		.p2align 1
 426              	.L37:
 427              		.loc 1 186 0
 428 017e D7F800B0 		ldr	fp, [r7]
 429              		.loc 1 187 0
 430 0182 7D4B     		ldr	r3, .L112+8
 431 0184 BBF1000F 		cmp	fp, #0
 432 0188 08BF     		it	eq
 433 018a 9B46     		moveq	fp, r3
 434              		.loc 1 186 0
 435 018c 0437     		adds	r7, r7, #4
 436              	.LVL47:
 437              		.loc 1 190 0
 438 018e 9BF80030 		ldrb	r3, [fp]	@ zero_extendqisi2
 439              		.loc 1 188 0
 440 0192 0029     		cmp	r1, #0
 441 0194 00F0BE80 		beq	.L43
 442              	.LVL48:
 443              		.loc 1 190 0 discriminator 1
 444 0198 002B     		cmp	r3, #0
 445 019a 00F0C080 		beq	.L44
 446              		.loc 1 190 0 is_stmt 0
 447 019e 0139     		subs	r1, r1, #1
 448              	.LVL49:
 449              	.L63:
 450              		.loc 1 190 0 discriminator 4
 451 01a0 5846     		mov	r0, fp
 452 01a2 01E0     		b	.L46
 453              	.LVL50:
 454              	.L107:
 455              		.loc 1 190 0 discriminator 3
 456 01a4 0139     		subs	r1, r1, #1
ARM GAS  /var/folders/bz/nn5481rn5xq59rb0mbj7x0880000gn/T//cceEuKgd.s 			page 9


 457              	.LVL51:
 458 01a6 03D4     		bmi	.L98
 459              	.LVL52:
 460              	.L46:
 461              		.loc 1 190 0 discriminator 4
 462 01a8 10F8013F 		ldrb	r3, [r0, #1]!	@ zero_extendqisi2
 463              	.LVL53:
 464 01ac 002B     		cmp	r3, #0
 465 01ae F9D1     		bne	.L107
 466              	.LVL54:
 467              	.L98:
 468 01b0 CBEB0000 		rsb	r0, fp, r0
 469              	.LVL55:
 470              		.loc 1 240 0 is_stmt 1
 471 01b4 241A     		subs	r4, r4, r0
 472              	.LVL56:
 473 01b6 431E     		subs	r3, r0, #1
 474              		.loc 1 185 0
 475 01b8 4FF02008 		mov	r8, #32
 476              	.LVL57:
 477 01bc 24EAE474 		bic	r4, r4, r4, asr #31
 478              	.LVL58:
 479              		.loc 1 242 0
 480 01c0 BAF1000F 		cmp	r10, #0
 481 01c4 60D0     		beq	.L108
 482              	.L54:
 483              	.LVL59:
 484              		.loc 1 253 0
 485 01c6 B3F1000A 		subs	r10, r3, #0
 486              	.LVL60:
 487 01ca 6FDA     		bge	.L60
 488              	.LVL61:
 489              	.L59:
 490              		.loc 1 256 0
 491 01cc 002C     		cmp	r4, #0
 492 01ce 3FF421AF 		beq	.L14
 493              	.L61:
 494              		.loc 1 257 0
 495 01d2 3368     		ldr	r3, [r6]
 496 01d4 3046     		mov	r0, r6
 497 01d6 9B68     		ldr	r3, [r3, #8]
 498 01d8 4146     		mov	r1, r8
 499 01da 9847     		blx	r3
 500              	.LVL62:
 501              		.loc 1 256 0
 502 01dc 013C     		subs	r4, r4, #1
 503              	.LVL63:
 504 01de F8D1     		bne	.L61
 505 01e0 18E7     		b	.L14
 506              	.LVL64:
 507              	.L36:
 508              		.loc 1 209 0
 509 01e2 0737     		adds	r7, r7, #7
 510 01e4 27F00707 		bic	r7, r7, #7
 511 01e8 D7E90001 		ldrd	r0, [r7]
 512 01ec FFF7FEFF 		bl	__aeabi_d2f
 513              	.LVL65:
ARM GAS  /var/folders/bz/nn5481rn5xq59rb0mbj7x0880000gn/T//cceEuKgd.s 			page 10


 514 01f0 08EE100A 		fmsr	s16, r0
 515              		.loc 1 210 0
 516 01f4 B5EEC08A 		fcmpezs	s16
 517 01f8 F1EE10FA 		fmstat
 518              		.loc 1 209 0
 519 01fc 07F10807 		add	r7, r7, #8
 520              	.LVL66:
 521              		.loc 1 210 0
 522 0200 00F1A380 		bmi	.L109
 523              		.loc 1 132 0
 524 0204 4846     		mov	r0, r9
 525              	.LVL67:
 526              	.L50:
 527              	.LBB12:
 528              	.LBB13:
 529              		.loc 1 80 0
 530 0206 FDEEC87A 		ftosizs	s15, s16
 531              		.loc 1 81 0
 532 020a 0A22     		movs	r2, #10
 533 020c 17EE901A 		fmrs	r1, s15	@ int
 534 0210 0023     		movs	r3, #0
 535              		.loc 1 80 0
 536 0212 CDED017A 		fsts	s15, [sp, #4]	@ int
 537              	.LVL68:
 538              		.loc 1 81 0
 539 0216 FFF7FEFF 		bl	long_to_string_with_divisor
 540              	.LVL69:
 541              		.loc 1 82 0
 542 021a 8346     		mov	fp, r0
 543 021c 2E23     		movs	r3, #46
 544 021e 0BF8013B 		strb	r3, [fp], #1
 545              	.LVL70:
 546              	.LBE13:
 547              	.LBE12:
 548              		.loc 1 214 0
 549 0222 18EE100A 		fmrs	r0, s16
 550 0226 FFF7FEFF 		bl	__aeabi_f2d
 551              	.LVL71:
 552 022a CDE90201 		strd	r0, [sp, #8]
 553              	.LBB15:
 554              	.LBB14:
 555              		.loc 1 83 0
 556 022e 0198     		ldr	r0, [sp, #4]
 557 0230 FFF7FEFF 		bl	__aeabi_i2d
 558              	.LVL72:
 559 0234 0246     		mov	r2, r0
 560 0236 0B46     		mov	r3, r1
 561 0238 DDE90201 		ldrd	r0, [sp, #8]
 562 023c FFF7FEFF 		bl	__aeabi_dsub
 563              	.LVL73:
 564 0240 4BA3     		adr	r3, .L112
 565 0242 D3E90023 		ldrd	r2, [r3]
 566 0246 FFF7FEFF 		bl	__aeabi_dmul
 567              	.LVL74:
 568 024a FFF7FEFF 		bl	__aeabi_d2iz
 569              	.LVL75:
 570              		.loc 1 84 0
ARM GAS  /var/folders/bz/nn5481rn5xq59rb0mbj7x0880000gn/T//cceEuKgd.s 			page 11


 571 024e 42F21073 		movw	r3, #10000
 572              		.loc 1 83 0
 573 0252 0146     		mov	r1, r0
 574              		.loc 1 84 0
 575 0254 0A22     		movs	r2, #10
 576 0256 5846     		mov	r0, fp
 577 0258 FFF7FEFF 		bl	long_to_string_with_divisor
 578              	.LVL76:
 579 025c C9EB0000 		rsb	r0, r9, r0
 580 0260 431E     		subs	r3, r0, #1
 581              	.LBE14:
 582              	.LBE15:
 583              		.loc 1 133 0
 584 0262 CB46     		mov	fp, r9
 585              	.LVL77:
 586              		.loc 1 215 0
 587 0264 0AE0     		b	.L41
 588              	.LVL78:
 589              	.L32:
 590 0266 0822     		movs	r2, #8
 591              	.LVL79:
 592              	.L100:
 593              		.loc 1 232 0
 594 0268 3968     		ldr	r1, [r7]
 595              	.LVL80:
 596              	.LBB16:
 597              	.LBB17:
 598              		.loc 1 72 0
 599 026a 4846     		mov	r0, r9
 600              	.LBE17:
 601              	.LBE16:
 602              		.loc 1 232 0
 603 026c 0437     		adds	r7, r7, #4
 604              	.LVL81:
 605              	.L99:
 606              	.LBB19:
 607              	.LBB18:
 608              		.loc 1 72 0
 609 026e 0023     		movs	r3, #0
 610 0270 FFF7FEFF 		bl	long_to_string_with_divisor
 611              	.LVL82:
 612 0274 C9EB0000 		rsb	r0, r9, r0
 613 0278 431E     		subs	r3, r0, #1
 614              	.LBE18:
 615              	.LBE19:
 616              		.loc 1 133 0
 617 027a CB46     		mov	fp, r9
 618              	.LVL83:
 619              	.L41:
 620              		.loc 1 240 0
 621 027c 241A     		subs	r4, r4, r0
 622              	.LVL84:
 623 027e 24EAE474 		bic	r4, r4, r4, asr #31
 624              	.LVL85:
 625              		.loc 1 242 0
 626 0282 BAF1000F 		cmp	r10, #0
 627 0286 9ED1     		bne	.L54
ARM GAS  /var/folders/bz/nn5481rn5xq59rb0mbj7x0880000gn/T//cceEuKgd.s 			page 12


 628              	.LVL86:
 629              	.L108:
 630 0288 9A46     		mov	r10, r3
 631              	.LVL87:
 632              	.L65:
 633              		.loc 1 243 0
 634 028a 6442     		negs	r4, r4
 635              	.LVL88:
 636              		.loc 1 244 0
 637 028c 54B1     		cbz	r4, .L55
 638              		.loc 1 245 0
 639 028e 9BF80010 		ldrb	r1, [fp]	@ zero_extendqisi2
 640 0292 2D29     		cmp	r1, #45
 641 0294 4DD0     		beq	.L110
 642              	.LVL89:
 643              	.L57:
 644              		.loc 1 250 0 discriminator 1
 645 0296 3368     		ldr	r3, [r6]
 646 0298 3046     		mov	r0, r6
 647 029a 9B68     		ldr	r3, [r3, #8]
 648 029c 4146     		mov	r1, r8
 649 029e 9847     		blx	r3
 650              	.LVL90:
 651              		.loc 1 251 0 discriminator 1
 652 02a0 0134     		adds	r4, r4, #1
 653              	.LVL91:
 654 02a2 F8D1     		bne	.L57
 655              	.L55:
 656              	.LVL92:
 657              		.loc 1 253 0
 658 02a4 BAF1000F 		cmp	r10, #0
 659 02a8 FFF6B4AE 		blt	.L14
 660              	.LVL93:
 661              	.L60:
 662              		.loc 1 254 0
 663 02ac 3368     		ldr	r3, [r6]
 664 02ae 1BF8011B 		ldrb	r1, [fp], #1	@ zero_extendqisi2
 665              	.LVL94:
 666 02b2 9B68     		ldr	r3, [r3, #8]
 667              		.loc 1 253 0
 668 02b4 0AF1FF3A 		add	r10, r10, #-1
 669              	.LVL95:
 670              		.loc 1 254 0
 671 02b8 3046     		mov	r0, r6
 672 02ba 9847     		blx	r3
 673              	.LVL96:
 674              		.loc 1 253 0
 675 02bc BAF1FF3F 		cmp	r10, #-1
 676 02c0 F4D1     		bne	.L60
 677 02c2 83E7     		b	.L59
 678              	.LVL97:
 679              	.L47:
 680              		.loc 1 200 0
 681 02c4 3968     		ldr	r1, [r7]
 682              	.LVL98:
 683              		.loc 1 201 0
 684 02c6 0029     		cmp	r1, #0
ARM GAS  /var/folders/bz/nn5481rn5xq59rb0mbj7x0880000gn/T//cceEuKgd.s 			page 13


 685              		.loc 1 200 0
 686 02c8 07F10407 		add	r7, r7, #4
 687              		.loc 1 201 0
 688 02cc 45DB     		blt	.L111
 689              		.loc 1 132 0
 690 02ce 4846     		mov	r0, r9
 691              	.LVL99:
 692              	.L49:
 693              	.LBB20:
 694              	.LBB21:
 695              		.loc 1 72 0
 696 02d0 0A22     		movs	r2, #10
 697 02d2 CCE7     		b	.L99
 698              	.LVL100:
 699              	.L33:
 700              	.LBE21:
 701              	.LBE20:
 702              		.loc 1 224 0
 703 02d4 0A22     		movs	r2, #10
 704 02d6 C7E7     		b	.L100
 705              	.LVL101:
 706              	.L35:
 707 02d8 0DF11100 		add	r0, sp, #17
 708              	.LVL102:
 709              		.loc 1 182 0
 710 02dc 3B68     		ldr	r3, [r7]
 711 02de 8DF81030 		strb	r3, [sp, #16]
 712 02e2 C9EB0000 		rsb	r0, r9, r0
 713              	.LVL103:
 714 02e6 431E     		subs	r3, r0, #1
 715 02e8 0437     		adds	r7, r7, #4
 716              		.loc 1 181 0
 717 02ea 4FF02008 		mov	r8, #32
 718              		.loc 1 133 0
 719 02ee CB46     		mov	fp, r9
 720              		.loc 1 183 0
 721 02f0 C4E7     		b	.L41
 722              	.LVL104:
 723              	.L74:
 724              	.L40:
 725              		.loc 1 179 0
 726 02f2 1022     		movs	r2, #16
 727 02f4 B8E7     		b	.L100
 728              	.LVL105:
 729              	.L71:
 730 02f6 1A46     		mov	r2, r3
 731              	.LVL106:
 732              	.L29:
 733 02f8 0DF11100 		add	r0, sp, #17
 734              	.LVL107:
 735 02fc C9EB0000 		rsb	r0, r9, r0
 736              	.LVL108:
 737              		.loc 1 236 0
 738 0300 8DF81020 		strb	r2, [sp, #16]
 739 0304 431E     		subs	r3, r0, #1
 740              		.loc 1 133 0
 741 0306 CB46     		mov	fp, r9
ARM GAS  /var/folders/bz/nn5481rn5xq59rb0mbj7x0880000gn/T//cceEuKgd.s 			page 14


 742              		.loc 1 237 0
 743 0308 B8E7     		b	.L41
 744              	.LVL109:
 745              	.L19:
 746 030a 5A78     		ldrb	r2, [r3, #1]	@ zero_extendqisi2
 747              		.loc 1 142 0
 748 030c 4FF03008 		mov	r8, #48
 749              		.loc 1 141 0
 750 0310 0133     		adds	r3, r3, #1
 751              	.LVL110:
 752 0312 A3E6     		b	.L20
 753              	.LVL111:
 754              	.L43:
 755              		.loc 1 190 0
 756 0314 47F6FE71 		movw	r1, #32766
 757 0318 002B     		cmp	r3, #0
 758 031a 7FF441AF 		bne	.L63
 759              	.LVL112:
 760              	.L44:
 761 031e 24EAE474 		bic	r4, r4, r4, asr #31
 762              	.LVL113:
 763              		.loc 1 242 0
 764 0322 BAF1000F 		cmp	r10, #0
 765 0326 1FD1     		bne	.L78
 766 0328 4FF0FF3A 		mov	r10, #-1
 767              	.LVL114:
 768 032c 4FF02008 		mov	r8, #32
 769 0330 ABE7     		b	.L65
 770              	.LVL115:
 771              	.L110:
 772              		.loc 1 245 0 discriminator 1
 773 0332 B8F1300F 		cmp	r8, #48
 774 0336 AED1     		bne	.L57
 775              		.loc 1 246 0
 776 0338 3368     		ldr	r3, [r6]
 777 033a 3046     		mov	r0, r6
 778 033c 9B68     		ldr	r3, [r3, #8]
 779 033e 9847     		blx	r3
 780              	.LVL116:
 781 0340 0BF1010B 		add	fp, fp, #1
 782              	.LVL117:
 783 0344 0AF1FF3A 		add	r10, r10, #-1
 784              	.LVL118:
 785 0348 A5E7     		b	.L57
 786              	.LVL119:
 787              	.L109:
 788              		.loc 1 211 0
 789 034a 2D23     		movs	r3, #45
 790              		.loc 1 212 0
 791 034c B1EE488A 		fnegs	s16, s16
 792              	.LVL120:
 793              		.loc 1 211 0
 794 0350 8DF81030 		strb	r3, [sp, #16]
 795 0354 0DF11100 		add	r0, sp, #17
 796              	.LVL121:
 797 0358 55E7     		b	.L50
 798              	.LVL122:
ARM GAS  /var/folders/bz/nn5481rn5xq59rb0mbj7x0880000gn/T//cceEuKgd.s 			page 15


 799              	.L111:
 800              		.loc 1 202 0
 801 035a 2D23     		movs	r3, #45
 802              		.loc 1 203 0
 803 035c 4942     		negs	r1, r1
 804              	.LVL123:
 805              		.loc 1 202 0
 806 035e 8DF81030 		strb	r3, [sp, #16]
 807 0362 0DF11100 		add	r0, sp, #17
 808              	.LVL124:
 809 0366 B3E7     		b	.L49
 810              	.LVL125:
 811              	.L78:
 812              		.loc 1 242 0
 813 0368 4FF02008 		mov	r8, #32
 814 036c 2EE7     		b	.L59
 815              	.L113:
 816 036e 00BF     		.align	3
 817              	.L112:
 818 0370 00000000 		.word	0
 819 0374 006AF840 		.word	1090021888
 820 0378 00000000 		.word	.LC0
 821              		.cfi_endproc
 822              	.LFE11:
 823              		.size	chvprintf, .-chvprintf
 824              		.section	.text.chsnprintf,"ax",%progbits
 825              		.align	2
 826              		.p2align 4,,15
 827              		.global	chsnprintf
 828              		.thumb
 829              		.thumb_func
 830              		.type	chsnprintf, %function
 831              	chsnprintf:
 832              	.LFB12:
 833              		.loc 1 288 0
 834              		.cfi_startproc
 835              		@ args = 4, pretend = 8, frame = 24
 836              		@ frame_needed = 0, uses_anonymous_args = 1
 837              	.LVL126:
 838 0000 0CB4     		push	{r2, r3}
 839              		.cfi_def_cfa_offset 8
 840              		.cfi_offset 2, -8
 841              		.cfi_offset 3, -4
 842 0002 30B5     		push	{r4, r5, lr}
 843              		.cfi_def_cfa_offset 20
 844              		.cfi_offset 4, -20
 845              		.cfi_offset 5, -16
 846              		.cfi_offset 14, -12
 847 0004 87B0     		sub	sp, sp, #28
 848              		.cfi_def_cfa_offset 48
 849              		.loc 1 288 0
 850 0006 0AAC     		add	r4, sp, #40
 851 0008 0A46     		mov	r2, r1
 852 000a 54F8045B 		ldr	r5, [r4], #4
 853              		.loc 1 294 0
 854 000e 0146     		mov	r1, r0
 855              	.LVL127:
ARM GAS  /var/folders/bz/nn5481rn5xq59rb0mbj7x0880000gn/T//cceEuKgd.s 			page 16


 856 0010 0023     		movs	r3, #0
 857 0012 01A8     		add	r0, sp, #4
 858              	.LVL128:
 859 0014 FFF7FEFF 		bl	msObjectInit
 860              	.LVL129:
 861              		.loc 1 299 0
 862 0018 2946     		mov	r1, r5
 863 001a 2246     		mov	r2, r4
 864 001c 01A8     		add	r0, sp, #4
 865              	.LVL130:
 866              		.loc 1 298 0
 867 001e 0094     		str	r4, [sp]
 868              		.loc 1 299 0
 869 0020 FFF7FEFF 		bl	chvprintf
 870              	.LVL131:
 871              		.loc 1 303 0
 872 0024 019B     		ldr	r3, [sp, #4]
 873 0026 01A8     		add	r0, sp, #4
 874              	.LVL132:
 875 0028 9B68     		ldr	r3, [r3, #8]
 876 002a 0021     		movs	r1, #0
 877 002c 9847     		blx	r3
 878              	.LVL133:
 879              		.loc 1 304 0
 880 002e 0498     		ldr	r0, [sp, #16]
 881              		.loc 1 305 0
 882 0030 0138     		subs	r0, r0, #1
 883 0032 07B0     		add	sp, sp, #28
 884              		.cfi_def_cfa_offset 20
 885              		@ sp needed
 886 0034 BDE83040 		pop	{r4, r5, lr}
 887              		.cfi_restore 14
 888              		.cfi_restore 5
 889              		.cfi_restore 4
 890              		.cfi_def_cfa_offset 8
 891 0038 02B0     		add	sp, sp, #8
 892              		.cfi_restore 3
 893              		.cfi_restore 2
 894              		.cfi_def_cfa_offset 0
 895 003a 7047     		bx	lr
 896              		.cfi_endproc
 897              	.LFE12:
 898              		.size	chsnprintf, .-chsnprintf
 899              		.section	.rodata.str1.4,"aMS",%progbits,1
 900              		.align	2
 901              	.LC0:
 902 0000 286E756C 		.ascii	"(null)\000"
 902      6C2900
 903              		.text
 904              	.Letext0:
 905              		.file 2 "/Users/imac/Downloads/gcc-arm-none-eabi-4_9-2015q2/lib/gcc/arm-none-eabi/4.9.3/include/st
 906              		.file 3 "/Users/imac/Downloads/gcc-arm-none-eabi-4_9-2015q2/arm-none-eabi/include/machine/_default
 907              		.file 4 "/Users/imac/Downloads/gcc-arm-none-eabi-4_9-2015q2/arm-none-eabi/include/sys/_stdint.h"
 908              		.file 5 "lib/ChibiOS_2.6.6/os/ports/GCC/ARMCMx/chtypes.h"
 909              		.file 6 "lib/ChibiOS_2.6.6/os/kernel/include/chstreams.h"
 910              		.file 7 "/Users/imac/Downloads/gcc-arm-none-eabi-4_9-2015q2/lib/gcc/arm-none-eabi/4.9.3/include/st
 911              		.file 8 "<built-in>"
ARM GAS  /var/folders/bz/nn5481rn5xq59rb0mbj7x0880000gn/T//cceEuKgd.s 			page 17


 912              		.file 9 "lib/ChibiOS_2.6.6/os/various/memstreams.h"