ARM GAS  /var/folders/bz/nn5481rn5xq59rb0mbj7x0880000gn/T//cch2KHK9.s 			page 1


   1              		.syntax unified
   2              		.cpu cortex-m4
   3              		.eabi_attribute 27, 1
   4              		.eabi_attribute 28, 1
   5              		.fpu fpv4-sp-d16
   6              		.eabi_attribute 20, 1
   7              		.eabi_attribute 21, 1
   8              		.eabi_attribute 23, 3
   9              		.eabi_attribute 24, 1
  10              		.eabi_attribute 25, 1
  11              		.eabi_attribute 26, 1
  12              		.eabi_attribute 30, 2
  13              		.eabi_attribute 34, 1
  14              		.eabi_attribute 18, 4
  15              		.thumb
  16              		.file	"chsem.c"
  17              		.text
  18              	.Ltext0:
  19              		.cfi_sections	.debug_frame
  20              		.section	.text.chSemInit,"ax",%progbits
  21              		.align	2
  22              		.p2align 4,,15
  23              		.global	chSemInit
  24              		.thumb
  25              		.thumb_func
  26              		.type	chSemInit, %function
  27              	chSemInit:
  28              	.LFB7:
  29              		.file 1 "lib/ChibiOS_2.6.6/os/kernel/src/chsem.c"
  30              		.loc 1 86 0
  31              		.cfi_startproc
  32              		@ args = 0, pretend = 0, frame = 0
  33              		@ frame_needed = 0, uses_anonymous_args = 0
  34              		@ link register save eliminated.
  35              	.LVL0:
  36              		.loc 1 90 0
  37 0000 4060     		str	r0, [r0, #4]
  38 0002 0060     		str	r0, [r0]
  39              		.loc 1 91 0
  40 0004 8160     		str	r1, [r0, #8]
  41 0006 7047     		bx	lr
  42              		.cfi_endproc
  43              	.LFE7:
  44              		.size	chSemInit, .-chSemInit
  45              		.section	.text.chSemResetI,"ax",%progbits
  46              		.align	2
  47              		.p2align 4,,15
  48              		.global	chSemResetI
  49              		.thumb
  50              		.thumb_func
  51              		.type	chSemResetI, %function
  52              	chSemResetI:
  53              	.LFB9:
  54              		.loc 1 136 0
  55              		.cfi_startproc
  56              		@ args = 0, pretend = 0, frame = 0
  57              		@ frame_needed = 0, uses_anonymous_args = 0
ARM GAS  /var/folders/bz/nn5481rn5xq59rb0mbj7x0880000gn/T//cch2KHK9.s 			page 2


  58              	.LVL1:
  59 0000 70B5     		push	{r4, r5, r6, lr}
  60              		.cfi_def_cfa_offset 16
  61              		.cfi_offset 4, -16
  62              		.cfi_offset 5, -12
  63              		.cfi_offset 6, -8
  64              		.cfi_offset 14, -4
  65              		.loc 1 141 0
  66 0002 8568     		ldr	r5, [r0, #8]
  67              	.LVL2:
  68              		.loc 1 147 0
  69 0004 8160     		str	r1, [r0, #8]
  70              		.loc 1 148 0
  71 0006 0135     		adds	r5, r5, #1
  72              	.LVL3:
  73 0008 002D     		cmp	r5, #0
  74 000a 0CDC     		bgt	.L2
  75 000c 0446     		mov	r4, r0
  76              		.loc 1 149 0
  77 000e 6FF00106 		mvn	r6, #1
  78              	.LVL4:
  79              	.L4:
  80              	.LBB26:
  81              	.LBB27:
  82              		.file 2 "lib/ChibiOS_2.6.6/os/kernel/include/chinline.h"
  83              		.loc 2 67 0
  84 0012 6068     		ldr	r0, [r4, #4]
  85              	.LVL5:
  86              		.loc 2 69 0
  87 0014 4368     		ldr	r3, [r0, #4]
  88 0016 6360     		str	r3, [r4, #4]
  89 0018 1C60     		str	r4, [r3]
  90              	.LBE27:
  91              	.LBE26:
  92              		.loc 1 149 0
  93 001a FFF7FEFF 		bl	chSchReadyI
  94              	.LVL6:
  95              		.loc 1 148 0
  96 001e 0135     		adds	r5, r5, #1
  97              	.LVL7:
  98 0020 012D     		cmp	r5, #1
  99              		.loc 1 149 0
 100 0022 4662     		str	r6, [r0, #36]
 101              	.LVL8:
 102              		.loc 1 148 0
 103 0024 F5D1     		bne	.L4
 104              	.LVL9:
 105              	.L2:
 106 0026 70BD     		pop	{r4, r5, r6, pc}
 107              		.cfi_endproc
 108              	.LFE9:
 109              		.size	chSemResetI, .-chSemResetI
 110              		.section	.text.chSemReset,"ax",%progbits
 111              		.align	2
 112              		.p2align 4,,15
 113              		.global	chSemReset
 114              		.thumb
ARM GAS  /var/folders/bz/nn5481rn5xq59rb0mbj7x0880000gn/T//cch2KHK9.s 			page 3


 115              		.thumb_func
 116              		.type	chSemReset, %function
 117              	chSemReset:
 118              	.LFB8:
 119              		.loc 1 109 0
 120              		.cfi_startproc
 121              		@ args = 0, pretend = 0, frame = 0
 122              		@ frame_needed = 0, uses_anonymous_args = 0
 123              	.LVL10:
 124 0000 08B5     		push	{r3, lr}
 125              		.cfi_def_cfa_offset 8
 126              		.cfi_offset 3, -8
 127              		.cfi_offset 14, -4
 128              		.loc 1 111 0
 129              	@ 111 "lib/ChibiOS_2.6.6/os/kernel/src/chsem.c" 1
 130 0002 72B6     		cpsid   i
 131              	@ 0 "" 2
 132              		.loc 1 112 0
 133              		.thumb
 134 0004 FFF7FEFF 		bl	chSemResetI
 135              	.LVL11:
 136              		.loc 1 113 0
 137 0008 FFF7FEFF 		bl	chSchRescheduleS
 138              	.LVL12:
 139              		.loc 1 114 0
 140              	@ 114 "lib/ChibiOS_2.6.6/os/kernel/src/chsem.c" 1
 141 000c 62B6     		cpsie   i
 142              	@ 0 "" 2
 143              		.thumb
 144 000e 08BD     		pop	{r3, pc}
 145              		.cfi_endproc
 146              	.LFE8:
 147              		.size	chSemReset, .-chSemReset
 148              		.section	.text.chSemWait,"ax",%progbits
 149              		.align	2
 150              		.p2align 4,,15
 151              		.global	chSemWait
 152              		.thumb
 153              		.thumb_func
 154              		.type	chSemWait, %function
 155              	chSemWait:
 156              	.LFB10:
 157              		.loc 1 164 0
 158              		.cfi_startproc
 159              		@ args = 0, pretend = 0, frame = 0
 160              		@ frame_needed = 0, uses_anonymous_args = 0
 161              	.LVL13:
 162              		.loc 1 167 0
 163              	@ 167 "lib/ChibiOS_2.6.6/os/kernel/src/chsem.c" 1
 164 0000 72B6     		cpsid   i
 165              	@ 0 "" 2
 166              	.LVL14:
 167              		.thumb
 168              	.LBB34:
 169              	.LBB35:
 170              		.loc 1 194 0
 171 0002 8368     		ldr	r3, [r0, #8]
ARM GAS  /var/folders/bz/nn5481rn5xq59rb0mbj7x0880000gn/T//cch2KHK9.s 			page 4


 172 0004 013B     		subs	r3, r3, #1
 173 0006 002B     		cmp	r3, #0
 174 0008 8360     		str	r3, [r0, #8]
 175 000a 02DB     		blt	.L16
 176              		.loc 1 200 0
 177 000c 0020     		movs	r0, #0
 178              	.LVL15:
 179              	.LBE35:
 180              	.LBE34:
 181              		.loc 1 169 0
 182              	@ 169 "lib/ChibiOS_2.6.6/os/kernel/src/chsem.c" 1
 183 000e 62B6     		cpsie   i
 184              	@ 0 "" 2
 185              		.loc 1 171 0
 186              		.thumb
 187 0010 7047     		bx	lr
 188              	.LVL16:
 189              	.L16:
 190              		.loc 1 164 0
 191 0012 10B5     		push	{r4, lr}
 192              		.cfi_def_cfa_offset 8
 193              		.cfi_offset 4, -8
 194              		.cfi_offset 14, -4
 195              	.LBB43:
 196              	.LBB42:
 197              	.LBB36:
 198              	.LBB37:
 199              		.loc 1 195 0
 200 0014 074C     		ldr	r4, .L17
 201 0016 A269     		ldr	r2, [r4, #24]
 202 0018 5062     		str	r0, [r2, #36]
 203              	.LBB38:
 204              	.LBB39:
 205              		.loc 2 55 0
 206 001a 4168     		ldr	r1, [r0, #4]
 207 001c 5160     		str	r1, [r2, #4]
 208 001e 0346     		mov	r3, r0
 209              	.LVL17:
 210              		.loc 2 54 0
 211 0020 1060     		str	r0, [r2]
 212              		.loc 2 56 0
 213 0022 5A60     		str	r2, [r3, #4]
 214              	.LBE39:
 215              	.LBE38:
 216              		.loc 1 197 0
 217 0024 0320     		movs	r0, #3
 218              	.LVL18:
 219              	.LBB41:
 220              	.LBB40:
 221              		.loc 2 56 0
 222 0026 0A60     		str	r2, [r1]
 223              	.LBE40:
 224              	.LBE41:
 225              		.loc 1 197 0
 226 0028 FFF7FEFF 		bl	chSchGoSleepS
 227              	.LVL19:
 228              		.loc 1 198 0
ARM GAS  /var/folders/bz/nn5481rn5xq59rb0mbj7x0880000gn/T//cch2KHK9.s 			page 5


 229 002c A369     		ldr	r3, [r4, #24]
 230 002e 586A     		ldr	r0, [r3, #36]
 231              	.LBE37:
 232              	.LBE36:
 233              	.LBE42:
 234              	.LBE43:
 235              		.loc 1 169 0
 236              	@ 169 "lib/ChibiOS_2.6.6/os/kernel/src/chsem.c" 1
 237 0030 62B6     		cpsie   i
 238              	@ 0 "" 2
 239              		.loc 1 171 0
 240              		.thumb
 241 0032 10BD     		pop	{r4, pc}
 242              	.L18:
 243              		.align	2
 244              	.L17:
 245 0034 00000000 		.word	rlist
 246              		.cfi_endproc
 247              	.LFE10:
 248              		.size	chSemWait, .-chSemWait
 249              		.section	.text.chSemWaitS,"ax",%progbits
 250              		.align	2
 251              		.p2align 4,,15
 252              		.global	chSemWaitS
 253              		.thumb
 254              		.thumb_func
 255              		.type	chSemWaitS, %function
 256              	chSemWaitS:
 257              	.LFB11:
 258              		.loc 1 185 0
 259              		.cfi_startproc
 260              		@ args = 0, pretend = 0, frame = 0
 261              		@ frame_needed = 0, uses_anonymous_args = 0
 262              	.LVL20:
 263              		.loc 1 194 0
 264 0000 8368     		ldr	r3, [r0, #8]
 265 0002 013B     		subs	r3, r3, #1
 266 0004 002B     		cmp	r3, #0
 267 0006 8360     		str	r3, [r0, #8]
 268 0008 01DB     		blt	.L24
 269              		.loc 1 200 0
 270 000a 0020     		movs	r0, #0
 271              	.LVL21:
 272 000c 7047     		bx	lr
 273              	.LVL22:
 274              	.L24:
 275              		.loc 1 185 0
 276 000e 10B5     		push	{r4, lr}
 277              		.cfi_def_cfa_offset 8
 278              		.cfi_offset 4, -8
 279              		.cfi_offset 14, -4
 280              	.LBB48:
 281              	.LBB49:
 282              		.loc 1 195 0
 283 0010 074C     		ldr	r4, .L25
 284 0012 A269     		ldr	r2, [r4, #24]
 285 0014 5062     		str	r0, [r2, #36]
ARM GAS  /var/folders/bz/nn5481rn5xq59rb0mbj7x0880000gn/T//cch2KHK9.s 			page 6


 286              	.LBB50:
 287              	.LBB51:
 288              		.loc 2 55 0
 289 0016 4168     		ldr	r1, [r0, #4]
 290 0018 5160     		str	r1, [r2, #4]
 291 001a 0346     		mov	r3, r0
 292              	.LVL23:
 293              		.loc 2 54 0
 294 001c 1060     		str	r0, [r2]
 295              		.loc 2 56 0
 296 001e 5A60     		str	r2, [r3, #4]
 297              	.LBE51:
 298              	.LBE50:
 299              		.loc 1 197 0
 300 0020 0320     		movs	r0, #3
 301              	.LVL24:
 302              	.LBB53:
 303              	.LBB52:
 304              		.loc 2 56 0
 305 0022 0A60     		str	r2, [r1]
 306              	.LBE52:
 307              	.LBE53:
 308              		.loc 1 197 0
 309 0024 FFF7FEFF 		bl	chSchGoSleepS
 310              	.LVL25:
 311              		.loc 1 198 0
 312 0028 A369     		ldr	r3, [r4, #24]
 313 002a 586A     		ldr	r0, [r3, #36]
 314 002c 10BD     		pop	{r4, pc}
 315              	.L26:
 316 002e 00BF     		.align	2
 317              	.L25:
 318 0030 00000000 		.word	rlist
 319              	.LBE49:
 320              	.LBE48:
 321              		.cfi_endproc
 322              	.LFE11:
 323              		.size	chSemWaitS, .-chSemWaitS
 324              		.section	.text.chSemWaitTimeoutS,"ax",%progbits
 325              		.align	2
 326              		.p2align 4,,15
 327              		.global	chSemWaitTimeoutS
 328              		.thumb
 329              		.thumb_func
 330              		.type	chSemWaitTimeoutS, %function
 331              	chSemWaitTimeoutS:
 332              	.LFB13:
 333              		.loc 1 250 0
 334              		.cfi_startproc
 335              		@ args = 0, pretend = 0, frame = 0
 336              		@ frame_needed = 0, uses_anonymous_args = 0
 337              		@ link register save eliminated.
 338              	.LVL26:
 339 0000 0346     		mov	r3, r0
 340              		.loc 1 254 0
 341 0002 8068     		ldr	r0, [r0, #8]
 342              	.LVL27:
ARM GAS  /var/folders/bz/nn5481rn5xq59rb0mbj7x0880000gn/T//cch2KHK9.s 			page 7


 343              		.loc 1 259 0
 344 0004 421E     		subs	r2, r0, #1
 345 0006 002A     		cmp	r2, #0
 346 0008 9A60     		str	r2, [r3, #8]
 347 000a 01DB     		blt	.L33
 348              		.loc 1 268 0
 349 000c 0020     		movs	r0, #0
 350 000e 7047     		bx	lr
 351              	.L33:
 352              		.loc 1 250 0
 353 0010 10B4     		push	{r4}
 354              		.cfi_def_cfa_offset 4
 355              		.cfi_offset 4, -4
 356              		.loc 1 260 0
 357 0012 61B1     		cbz	r1, .L34
 358              	.LVL28:
 359              	.LBB58:
 360              	.LBB59:
 361              		.loc 1 264 0
 362 0014 094A     		ldr	r2, .L35
 363 0016 9269     		ldr	r2, [r2, #24]
 364 0018 5362     		str	r3, [r2, #36]
 365              	.LVL29:
 366              	.LBB60:
 367              	.LBB61:
 368              		.loc 2 55 0
 369 001a 5C68     		ldr	r4, [r3, #4]
 370              	.LBE61:
 371              	.LBE60:
 372              		.loc 1 266 0
 373 001c 0320     		movs	r0, #3
 374              	.LBB63:
 375              	.LBB62:
 376              		.loc 2 55 0
 377 001e 82E81800 		stmia	r2, {r3, r4}
 378              		.loc 2 56 0
 379 0022 5A60     		str	r2, [r3, #4]
 380 0024 2260     		str	r2, [r4]
 381              	.LBE62:
 382              	.LBE63:
 383              	.LBE59:
 384              	.LBE58:
 385              		.loc 1 269 0
 386 0026 5DF8044B 		ldr	r4, [sp], #4
 387              		.cfi_remember_state
 388              		.cfi_restore 4
 389              		.cfi_def_cfa_offset 0
 390              	.LBB65:
 391              	.LBB64:
 392              		.loc 1 266 0
 393 002a FFF7FEBF 		b	chSchGoSleepTimeoutS
 394              	.LVL30:
 395              	.L34:
 396              		.cfi_restore_state
 397              	.LBE64:
 398              	.LBE65:
 399              		.loc 1 261 0
ARM GAS  /var/folders/bz/nn5481rn5xq59rb0mbj7x0880000gn/T//cch2KHK9.s 			page 8


 400 002e 9860     		str	r0, [r3, #8]
 401              		.loc 1 269 0
 402 0030 5DF8044B 		ldr	r4, [sp], #4
 403              		.cfi_restore 4
 404              		.cfi_def_cfa_offset 0
 405              		.loc 1 262 0
 406 0034 4FF0FF30 		mov	r0, #-1
 407              		.loc 1 269 0
 408 0038 7047     		bx	lr
 409              	.L36:
 410 003a 00BF     		.align	2
 411              	.L35:
 412 003c 00000000 		.word	rlist
 413              		.cfi_endproc
 414              	.LFE13:
 415              		.size	chSemWaitTimeoutS, .-chSemWaitTimeoutS
 416              		.section	.text.chSemWaitTimeout,"ax",%progbits
 417              		.align	2
 418              		.p2align 4,,15
 419              		.global	chSemWaitTimeout
 420              		.thumb
 421              		.thumb_func
 422              		.type	chSemWaitTimeout, %function
 423              	chSemWaitTimeout:
 424              	.LFB12:
 425              		.loc 1 222 0
 426              		.cfi_startproc
 427              		@ args = 0, pretend = 0, frame = 0
 428              		@ frame_needed = 0, uses_anonymous_args = 0
 429              	.LVL31:
 430 0000 08B5     		push	{r3, lr}
 431              		.cfi_def_cfa_offset 8
 432              		.cfi_offset 3, -8
 433              		.cfi_offset 14, -4
 434              		.loc 1 225 0
 435              	@ 225 "lib/ChibiOS_2.6.6/os/kernel/src/chsem.c" 1
 436 0002 72B6     		cpsid   i
 437              	@ 0 "" 2
 438              		.loc 1 226 0
 439              		.thumb
 440 0004 FFF7FEFF 		bl	chSemWaitTimeoutS
 441              	.LVL32:
 442              		.loc 1 227 0
 443              	@ 227 "lib/ChibiOS_2.6.6/os/kernel/src/chsem.c" 1
 444 0008 62B6     		cpsie   i
 445              	@ 0 "" 2
 446              		.loc 1 229 0
 447              		.thumb
 448 000a 08BD     		pop	{r3, pc}
 449              		.cfi_endproc
 450              	.LFE12:
 451              		.size	chSemWaitTimeout, .-chSemWaitTimeout
 452              		.section	.text.chSemSignal,"ax",%progbits
 453              		.align	2
 454              		.p2align 4,,15
 455              		.global	chSemSignal
 456              		.thumb
ARM GAS  /var/folders/bz/nn5481rn5xq59rb0mbj7x0880000gn/T//cch2KHK9.s 			page 9


 457              		.thumb_func
 458              		.type	chSemSignal, %function
 459              	chSemSignal:
 460              	.LFB14:
 461              		.loc 1 278 0
 462              		.cfi_startproc
 463              		@ args = 0, pretend = 0, frame = 0
 464              		@ frame_needed = 0, uses_anonymous_args = 0
 465              	.LVL33:
 466 0000 08B5     		push	{r3, lr}
 467              		.cfi_def_cfa_offset 8
 468              		.cfi_offset 3, -8
 469              		.cfi_offset 14, -4
 470              		.loc 1 286 0
 471              	@ 286 "lib/ChibiOS_2.6.6/os/kernel/src/chsem.c" 1
 472 0002 72B6     		cpsid   i
 473              	@ 0 "" 2
 474              		.loc 1 287 0
 475              		.thumb
 476 0004 8368     		ldr	r3, [r0, #8]
 477 0006 0133     		adds	r3, r3, #1
 478 0008 002B     		cmp	r3, #0
 479 000a 8360     		str	r3, [r0, #8]
 480 000c 01DD     		ble	.L42
 481              		.loc 1 289 0
 482              	@ 289 "lib/ChibiOS_2.6.6/os/kernel/src/chsem.c" 1
 483 000e 62B6     		cpsie   i
 484              	@ 0 "" 2
 485              		.thumb
 486 0010 08BD     		pop	{r3, pc}
 487              	.L42:
 488 0012 0346     		mov	r3, r0
 489              	.LVL34:
 490              	.LBB66:
 491              	.LBB67:
 492              		.loc 2 60 0
 493 0014 0068     		ldr	r0, [r0]
 494              	.LVL35:
 495              		.loc 2 62 0
 496 0016 0268     		ldr	r2, [r0]
 497 0018 1A60     		str	r2, [r3]
 498              	.LBE67:
 499              	.LBE66:
 500              		.loc 1 288 0
 501 001a 0021     		movs	r1, #0
 502              	.LBB69:
 503              	.LBB68:
 504              		.loc 2 62 0
 505 001c 5360     		str	r3, [r2, #4]
 506              	.LBE68:
 507              	.LBE69:
 508              		.loc 1 288 0
 509 001e FFF7FEFF 		bl	chSchWakeupS
 510              	.LVL36:
 511              		.loc 1 289 0
 512              	@ 289 "lib/ChibiOS_2.6.6/os/kernel/src/chsem.c" 1
 513 0022 62B6     		cpsie   i
ARM GAS  /var/folders/bz/nn5481rn5xq59rb0mbj7x0880000gn/T//cch2KHK9.s 			page 10


 514              	@ 0 "" 2
 515              		.thumb
 516 0024 08BD     		pop	{r3, pc}
 517              		.cfi_endproc
 518              	.LFE14:
 519              		.size	chSemSignal, .-chSemSignal
 520 0026 00BF     		.section	.text.chSemSignalI,"ax",%progbits
 521              		.align	2
 522              		.p2align 4,,15
 523              		.global	chSemSignalI
 524              		.thumb
 525              		.thumb_func
 526              		.type	chSemSignalI, %function
 527              	chSemSignalI:
 528              	.LFB15:
 529              		.loc 1 303 0
 530              		.cfi_startproc
 531              		@ args = 0, pretend = 0, frame = 0
 532              		@ frame_needed = 0, uses_anonymous_args = 0
 533              		@ link register save eliminated.
 534              	.LVL37:
 535              		.loc 1 312 0
 536 0000 8368     		ldr	r3, [r0, #8]
 537 0002 0133     		adds	r3, r3, #1
 538 0004 002B     		cmp	r3, #0
 539 0006 8360     		str	r3, [r0, #8]
 540 0008 00DD     		ble	.L45
 541 000a 7047     		bx	lr
 542              	.L45:
 543              	.LVL38:
 544              	.LBB70:
 545              	.LBB71:
 546              	.LBB72:
 547              		.loc 2 60 0
 548 000c 0368     		ldr	r3, [r0]
 549              	.LVL39:
 550              		.loc 2 62 0
 551 000e 1A68     		ldr	r2, [r3]
 552 0010 0260     		str	r2, [r0]
 553              	.LBE72:
 554              	.LBE71:
 555              		.loc 1 316 0
 556 0012 0021     		movs	r1, #0
 557              	.LBB74:
 558              	.LBB73:
 559              		.loc 2 62 0
 560 0014 5060     		str	r0, [r2, #4]
 561              	.LBE73:
 562              	.LBE74:
 563              		.loc 1 317 0
 564 0016 1846     		mov	r0, r3
 565              	.LVL40:
 566              		.loc 1 316 0
 567 0018 5962     		str	r1, [r3, #36]
 568              		.loc 1 317 0
 569 001a FFF7FEBF 		b	chSchReadyI
 570              	.LVL41:
ARM GAS  /var/folders/bz/nn5481rn5xq59rb0mbj7x0880000gn/T//cch2KHK9.s 			page 11


 571              	.LBE70:
 572              		.cfi_endproc
 573              	.LFE15:
 574              		.size	chSemSignalI, .-chSemSignalI
 575 001e 00BF     		.section	.text.chSemAddCounterI,"ax",%progbits
 576              		.align	2
 577              		.p2align 4,,15
 578              		.global	chSemAddCounterI
 579              		.thumb
 580              		.thumb_func
 581              		.type	chSemAddCounterI, %function
 582              	chSemAddCounterI:
 583              	.LFB16:
 584              		.loc 1 334 0
 585              		.cfi_startproc
 586              		@ args = 0, pretend = 0, frame = 0
 587              		@ frame_needed = 0, uses_anonymous_args = 0
 588              	.LVL42:
 589 0000 70B5     		push	{r4, r5, r6, lr}
 590              		.cfi_def_cfa_offset 16
 591              		.cfi_offset 4, -16
 592              		.cfi_offset 5, -12
 593              		.cfi_offset 6, -8
 594              		.cfi_offset 14, -4
 595              		.loc 1 343 0
 596 0002 0C1E     		subs	r4, r1, #0
 597 0004 12DD     		ble	.L46
 598 0006 0546     		mov	r5, r0
 599              		.loc 1 345 0
 600 0008 0026     		movs	r6, #0
 601 000a 01E0     		b	.L49
 602              	.LVL43:
 603              	.L48:
 604              		.loc 1 343 0
 605 000c 013C     		subs	r4, r4, #1
 606              	.LVL44:
 607 000e 0DD0     		beq	.L46
 608              	.LVL45:
 609              	.L49:
 610              		.loc 1 344 0
 611 0010 AB68     		ldr	r3, [r5, #8]
 612 0012 0133     		adds	r3, r3, #1
 613 0014 002B     		cmp	r3, #0
 614 0016 AB60     		str	r3, [r5, #8]
 615 0018 F8DC     		bgt	.L48
 616              	.LVL46:
 617              	.LBB75:
 618              	.LBB76:
 619              		.loc 2 60 0
 620 001a 2868     		ldr	r0, [r5]
 621              	.LVL47:
 622              		.loc 2 62 0
 623 001c 0368     		ldr	r3, [r0]
 624 001e 2B60     		str	r3, [r5]
 625 0020 5D60     		str	r5, [r3, #4]
 626              	.LBE76:
 627              	.LBE75:
ARM GAS  /var/folders/bz/nn5481rn5xq59rb0mbj7x0880000gn/T//cch2KHK9.s 			page 12


 628              		.loc 1 345 0
 629 0022 FFF7FEFF 		bl	chSchReadyI
 630              	.LVL48:
 631              		.loc 1 343 0
 632 0026 013C     		subs	r4, r4, #1
 633              	.LVL49:
 634              		.loc 1 345 0
 635 0028 4662     		str	r6, [r0, #36]
 636              	.LVL50:
 637              		.loc 1 343 0
 638 002a F1D1     		bne	.L49
 639              	.LVL51:
 640              	.L46:
 641 002c 70BD     		pop	{r4, r5, r6, pc}
 642              		.cfi_endproc
 643              	.LFE16:
 644              		.size	chSemAddCounterI, .-chSemAddCounterI
 645 002e 00BF     		.section	.text.chSemSignalWait,"ax",%progbits
 646              		.align	2
 647              		.p2align 4,,15
 648              		.global	chSemSignalWait
 649              		.thumb
 650              		.thumb_func
 651              		.type	chSemSignalWait, %function
 652              	chSemSignalWait:
 653              	.LFB17:
 654              		.loc 1 366 0
 655              		.cfi_startproc
 656              		@ args = 0, pretend = 0, frame = 8
 657              		@ frame_needed = 0, uses_anonymous_args = 0
 658              	.LVL52:
 659 0000 10B5     		push	{r4, lr}
 660              		.cfi_def_cfa_offset 8
 661              		.cfi_offset 4, -8
 662              		.cfi_offset 14, -4
 663 0002 0246     		mov	r2, r0
 664 0004 82B0     		sub	sp, sp, #8
 665              		.cfi_def_cfa_offset 16
 666              		.loc 1 379 0
 667              	@ 379 "lib/ChibiOS_2.6.6/os/kernel/src/chsem.c" 1
 668 0006 72B6     		cpsid   i
 669              	@ 0 "" 2
 670              		.loc 1 380 0
 671              		.thumb
 672 0008 8368     		ldr	r3, [r0, #8]
 673 000a 0133     		adds	r3, r3, #1
 674 000c 002B     		cmp	r3, #0
 675 000e 8360     		str	r3, [r0, #8]
 676 0010 19DD     		ble	.L58
 677              	.LVL53:
 678              	.L54:
 679              		.loc 1 382 0
 680 0012 8B68     		ldr	r3, [r1, #8]
 681 0014 013B     		subs	r3, r3, #1
 682 0016 002B     		cmp	r3, #0
 683 0018 8B60     		str	r3, [r1, #8]
 684 001a 05DB     		blt	.L59
ARM GAS  /var/folders/bz/nn5481rn5xq59rb0mbj7x0880000gn/T//cch2KHK9.s 			page 13


 685              		.loc 1 390 0
 686 001c FFF7FEFF 		bl	chSchRescheduleS
 687              	.LVL54:
 688              		.loc 1 391 0
 689 0020 0020     		movs	r0, #0
 690              	.LVL55:
 691              		.loc 1 393 0
 692              	@ 393 "lib/ChibiOS_2.6.6/os/kernel/src/chsem.c" 1
 693 0022 62B6     		cpsie   i
 694              	@ 0 "" 2
 695              		.loc 1 395 0
 696              		.thumb
 697 0024 02B0     		add	sp, sp, #8
 698              		.cfi_remember_state
 699              		.cfi_def_cfa_offset 8
 700              		@ sp needed
 701 0026 10BD     		pop	{r4, pc}
 702              	.LVL56:
 703              	.L59:
 704              		.cfi_restore_state
 705              	.LBB77:
 706              		.loc 1 383 0
 707 0028 0C4A     		ldr	r2, .L60
 708              	.LBB78:
 709              	.LBB79:
 710              		.loc 2 55 0
 711 002a 4B68     		ldr	r3, [r1, #4]
 712              	.LBE79:
 713              	.LBE78:
 714              		.loc 1 383 0
 715 002c 9469     		ldr	r4, [r2, #24]
 716              	.LVL57:
 717              		.loc 1 386 0
 718 002e 0320     		movs	r0, #3
 719              	.LBB81:
 720              	.LBB80:
 721              		.loc 2 55 0
 722 0030 84E80A00 		stmia	r4, {r1, r3}
 723              		.loc 2 56 0
 724 0034 4C60     		str	r4, [r1, #4]
 725 0036 1C60     		str	r4, [r3]
 726              	.LBE80:
 727              	.LBE81:
 728              		.loc 1 385 0
 729 0038 6162     		str	r1, [r4, #36]
 730              		.loc 1 386 0
 731 003a FFF7FEFF 		bl	chSchGoSleepS
 732              	.LVL58:
 733              		.loc 1 387 0
 734 003e 606A     		ldr	r0, [r4, #36]
 735              	.LVL59:
 736              	.LBE77:
 737              		.loc 1 393 0
 738              	@ 393 "lib/ChibiOS_2.6.6/os/kernel/src/chsem.c" 1
 739 0040 62B6     		cpsie   i
 740              	@ 0 "" 2
 741              		.loc 1 395 0
ARM GAS  /var/folders/bz/nn5481rn5xq59rb0mbj7x0880000gn/T//cch2KHK9.s 			page 14


 742              		.thumb
 743 0042 02B0     		add	sp, sp, #8
 744              		.cfi_remember_state
 745              		.cfi_def_cfa_offset 8
 746              		@ sp needed
 747 0044 10BD     		pop	{r4, pc}
 748              	.LVL60:
 749              	.L58:
 750              		.cfi_restore_state
 751              	.LBB82:
 752              	.LBB83:
 753              		.loc 2 60 0
 754 0046 0068     		ldr	r0, [r0]
 755              	.LVL61:
 756 0048 0191     		str	r1, [sp, #4]
 757              	.LVL62:
 758              		.loc 2 62 0
 759 004a 0368     		ldr	r3, [r0]
 760 004c 1360     		str	r3, [r2]
 761 004e 5A60     		str	r2, [r3, #4]
 762              	.LBE83:
 763              	.LBE82:
 764              		.loc 1 381 0
 765 0050 FFF7FEFF 		bl	chSchReadyI
 766              	.LVL63:
 767 0054 0023     		movs	r3, #0
 768 0056 4362     		str	r3, [r0, #36]
 769 0058 0199     		ldr	r1, [sp, #4]
 770 005a DAE7     		b	.L54
 771              	.L61:
 772              		.align	2
 773              	.L60:
 774 005c 00000000 		.word	rlist
 775              		.cfi_endproc
 776              	.LFE17:
 777              		.size	chSemSignalWait, .-chSemSignalWait
 778              		.text
 779              	.Letext0:
 780              		.file 3 "/Users/imac/Downloads/gcc-arm-none-eabi-4_9-2015q2/arm-none-eabi/include/machine/_default
 781              		.file 4 "/Users/imac/Downloads/gcc-arm-none-eabi-4_9-2015q2/arm-none-eabi/include/sys/_stdint.h"
 782              		.file 5 "lib/ChibiOS_2.6.6/os/ports/GCC/ARMCMx/chtypes.h"
 783              		.file 6 "lib/ChibiOS_2.6.6/os/kernel/include/chlists.h"
 784              		.file 7 "lib/ChibiOS_2.6.6/os/kernel/include/chthreads.h"
 785              		.file 8 "lib/ChibiOS_2.6.6/os/ports/GCC/ARMCMx/chcore_v7m.h"
 786              		.file 9 "lib/ChibiOS_2.6.6/os/kernel/include/chschd.h"
 787              		.file 10 "lib/ChibiOS_2.6.6/os/kernel/include/chsem.h"
 788              		.file 11 "lib/ChibiOS_2.6.6/os/kernel/include/chmtx.h"