ARM GAS  /var/folders/bz/nn5481rn5xq59rb0mbj7x0880000gn/T//cch2KHK9.s 			page 1


   1              		.syntax unified
   2              		.cpu cortex-m4
   3              		.eabi_attribute 27, 1
   4              		.eabi_attribute 28, 1
   5              		.fpu fpv4-sp-d16
   6              		.eabi_attribute 20, 1
   7              		.eabi_attribute 21, 1
   8              		.eabi_attribute 23, 3
   9              		.eabi_attribute 24, 1
  10              		.eabi_attribute 25, 1
  11              		.eabi_attribute 26, 1
  12              		.eabi_attribute 30, 2
  13              		.eabi_attribute 34, 1
  14              		.eabi_attribute 18, 4
  15              		.thumb
  16              		.file	"chsem.c"
  17              		.text
  18              	.Ltext0:
  19              		.cfi_sections	.debug_frame
  20              		.section	.text.chSemInit,"ax",%progbits
  21              		.align	2
  22              		.p2align 4,,15
  23              		.global	chSemInit
  24              		.thumb
  25              		.thumb_func
  26              		.type	chSemInit, %function
  27              	chSemInit:
  28              	.LFB7:
  29              		.file 1 "lib/ChibiOS_2.6.6/os/kernel/src/chsem.c"
  30              		.loc 1 86 0
  31              		.cfi_startproc
  32              		@ args = 0, pretend = 0, frame = 0
  33              		@ frame_needed = 0, uses_anonymous_args = 0
  34              		@ link register save eliminated.
  35              	.LVL0:
  36              		.loc 1 90 0
  37 0000 4060     		str	r0, [r0, #4]
  38 0002 0060     		str	r0, [r0]
  39              		.loc 1 91 0
  40 0004 8160     		str	r1, [r0, #8]
  41 0006 7047     		bx	lr
  42              		.cfi_endproc
  43              	.LFE7:
  44              		.size	chSemInit, .-chSemInit
  45              		.section	.text.chSemResetI,"ax",%progbits
  46              		.align	2
  47              		.p2align 4,,15
  48              		.global	chSemResetI
  49              		.thumb
  50              		.thumb_func
  51              		.type	chSemResetI, %function
  52              	chSemResetI:
  53              	.LFB9:
  54              		.loc 1 136 0
  55              		.cfi_startproc
  56              		@ args = 0, pretend = 0, frame = 0
  57              		@ frame_needed = 0, uses_anonymous_args = 0
ARM GAS  /var/folders/bz/nn5481rn5xq59rb0mbj7x0880000gn/T//cch2KHK9.s 			page 2


  58              	.LVL1:
  59 0000 70B5     		push	{r4, r5, r6, lr}
  60              		.cfi_def_cfa_offset 16
  61              		.cfi_offset 4, -16
  62              		.cfi_offset 5, -12
  63              		.cfi_offset 6, -8
  64              		.cfi_offset 14, -4
  65              		.loc 1 141 0
  66 0002 8568     		ldr	r5, [r0, #8]
  67              	.LVL2:
  68              		.loc 1 147 0
  69 0004 8160     		str	r1, [r0, #8]
  70              		.loc 1 148 0
  71 0006 0135     		adds	r5, r5, #1
  72              	.LVL3:
  73 0008 002D     		cmp	r5, #0
  74 000a 0CDC     		bgt	.L2
  75 000c 0446     		mov	r4, r0
  76              		.loc 1 149 0
  77 000e 6FF00106 		mvn	r6, #1
  78              	.LVL4:
  79              	.L4:
  80              	.LBB26:
  81              	.LBB27:
  82              		.file 2 "lib/ChibiOS_2.6.6/os/kernel/include/chinline.h"
  83              		.loc 2 67 0
  84 0012 6068     		ldr	r0, [r4, #4]
  85              	.LVL5:
  86              		.loc 2 69 0
  87 0014 4368     		ldr	r3, [r0, #4]
  88 0016 6360     		str	r3, [r4, #4]
  89 0018 1C60     		str	r4, [r3]
  90              	.LBE27:
  91              	.LBE26:
  92              		.loc 1 149 0
  93 001a FFF7FEFF 		bl	chSchReadyI
  94              	.LVL6:
  95              		.loc 1 148 0
  96 001e 0135     		adds	r5, r5, #1
  97              	.LVL7:
  98 0020 012D     		cmp	r5, #1
  99              		.loc 1 149 0
 100 0022 4662     		str	r6, [r0, #36]
 101              	.LVL8:
 102              		.loc 1 148 0
 103 0024 F5D1     		bne	.L4
 104              	.LVL9:
 105              	.L2:
 106 0026 70BD     		pop	{r4, r5, r6, pc}
 107              		.cfi_endproc
 108              	.LFE9:
 109              		.size	chSemResetI, .-chSemResetI
 110              		.section	.text.chSemReset,"ax",%progbits
 111              		.align	2
 112              		.p2align 4,,15
 113              		.global	chSemReset
 114              		.thumb
ARM GAS  /var/folders/bz/nn5481rn5xq59rb0mbj7x0880000gn/T//cch2KHK9.s 			page 3


 115              		.thumb_func
 116              		.type	chSemReset, %function
 117              	chSemReset:
 118              	.LFB8:
 119              		.loc 1 109 0
 120              		.cfi_startproc
 121              		@ args = 0, pretend = 0, frame = 0
 122              		@ frame_needed = 0, uses_anonymous_args = 0
 123              	.LVL10:
 124 0000 08B5     		push	{r3, lr}
 125              		.cfi_def_cfa_offset 8
 126              		.cfi_offset 3, -8
 127              		.cfi_offset 14, -4
 128              		.loc 1 111 0
 129              	@ 111 "lib/ChibiOS_2.6.6/os/kernel/src/chsem.c" 1
 130 0002 72B6     		cpsid   i
 131              	@ 0 "" 2
 132              		.loc 1 112 0
 133              		.thumb
 134 0004 FFF7FEFF 		bl	chSemResetI
 135              	.LVL11:
 136              		.loc 1 113 0
 137 0008 FFF7FEFF 		bl	chSchRescheduleS
 138              	.LVL12:
 139              		.loc 1 114 0
 140              	@ 114 "lib/ChibiOS_2.6.6/os/kernel/src/chsem.c" 1
 141 000c 62B6     		cpsie   i
 142              	@ 0 "" 2
 143              		.thumb
 144 000e 08BD     		pop	{r3, pc}
 145              		.cfi_endproc
 146              	.LFE8:
 147              		.size	chSemReset, .-chSemReset
 148              		.section	.text.chSemWait,"ax",%progbits
 149              		.align	2
 150              		.p2align 4,,15
 151              		.global	chSemWait
 152              		.thumb
 153              		.thumb_func
 154              		.type	chSemWait, %function
 155              	chSemWait:
 156              	.LFB10:
 157              		.loc 1 164 0
 158              		.cfi_startproc
 159              		@ args = 0, pretend = 0, frame = 0
 160              		@ frame_needed = 0, uses_anonymous_args = 0
 161              	.LVL13:
 162              		.loc 1 167 0
 163              	@ 167 "lib/ChibiOS_2.6.6/os/kernel/src/chsem.c" 1
 164 0000 72B6     		cpsid   i
 165              	@ 0 "" 2
 166              	.LVL14:
 167              		.thumb
 168              	.LBB34:
 169              	.LBB35:
 170              		.loc 1 194 0
 171 0002 8368     		ldr	r3, [r0, #8]
ARM GAS  /var/folders/bz/nn5481rn5xq59rb0mbj7x0880000gn/T//cch2KHK9.s 			page 4


 172 0004 013B     		subs	r3, r3, #1
 173 0006 002B     		cmp	r3, #0
 174 0008 8360     		str	r3, [r0, #8]
 175 000a 02DB     		blt	.L16
 176              		.loc 1 200 0
 177 000c 0020     		movs	r0, #0
 178              	.LVL15:
 179              	.LBE35:
 180              	.LBE34:
 181              		.loc 1 169 0
 182              	@ 169 "lib/ChibiOS_2.6.6/os/kernel/src/chsem.c" 1
 183 000e 62B6     		cpsie   i
 184              	@ 0 "" 2
 185              		.loc 1 171 0
 186              		.thumb
 187 0010 7047     		bx	lr
 188              	.LVL16:
 189              	.L16:
 190              		.loc 1 164 0
 191 0012 10B5     		push	{r4, lr}
 192              		.cfi_def_cfa_offset 8
 193              		.cfi_offset 4, -8
 194              		.cfi_offset 14, -4
 195              	.LBB43:
 196              	.LBB42:
 197              	.LBB36:
 198              	.LBB37:
 199              		.loc 1 195 0
 200 0014 074C     		ldr	r4, .L17
 201 0016 A269     		ldr	r2, [r4, #24]
 202 0018 5062     		str	r0, [r2, #36]
 203              	.LBB38:
 204              	.LBB39:
 205              		.loc 2 55 0
 206 001a 4168     		ldr	r1, [r0, #4]
 207 001c 5160     		str	r1, [r2, #4]
 208 001e 0346     		mov	r3, r0
 209              	.LVL17:
 210              		.loc 2 54 0
 211 0020 1060     		str	r0, [r2]
 212              		.loc 2 56 0
 213 0022 5A60     		str	r2, [r3, #4]
 214              	.LBE39:
 215              	.LBE38:
 216              		.loc 1 197 0
 217 0024 0320     		movs	r0, #3
 218              	.LVL18:
 219              	.LBB41:
 220              	.LBB40:
 221              		.loc 2 56 0
 222 0026 0A60     		str	r2, [r1]
 223              	.LBE40:
 224              	.LBE41:
 225              		.loc 1 197 0
 226 0028 FFF7FEFF 		bl	chSchGoSleepS
 227              	.LVL19:
 228              		.loc 1 198 0
ARM GAS  /var/folders/bz/nn5481rn5xq59rb0mbj7x0880000gn/T//cch2KHK9.s 			page 5


 229 002c A369     		ldr	r3, [r4, #24]
 230 002e 586A     		ldr	r0, [r3, #36]
 231              	.LBE37:
 232              	.LBE36:
 233              	.LBE42:
 234              	.LBE43:
 235              		.loc 1 169 0
 236              	@ 169 "lib/ChibiOS_2.6.6/os/kernel/src/chsem.c" 1
 237 0030 62B6     		cpsie   i
 238              	@ 0 "" 2
 239              		.loc 1 171 0
 240              		.thumb
 241 0032 10BD     		pop	{r4, pc}
 242              	.L18:
 243              		.align	2
 244              	.L17:
 245 0034 00000000 		.word	rlist
 246              		.cfi_endproc
 247              	.LFE10:
 248              		.size	chSemWait, .-chSemWait
 249              		.section	.text.chSemWaitS,"ax",%progbits
 250              		.align	2
 251              		.p2align 4,,15
 252              		.global	chSemWaitS
 253              		.thumb
 254              		.thumb_func
 255              		.type	chSemWaitS, %function
 256              	chSemWaitS:
 257              	.LFB11:
 258              		.loc 1 185 0
 259              		.cfi_startproc
 260              		@ args = 0, pretend = 0, frame = 0
 261              		@ frame_needed = 0, uses_anonymous_args = 0
 262              	.LVL20:
 263              		.loc 1 194 0
 264 0000 8368     		ldr	r3, [r0, #8]
 265 0002 013B     		subs	r3, r3, #1
 266 0004 002B     		cmp	r3, #0
 267 0006 8360     		str	r3, [r0, #8]
 268 0008 01DB     		blt	.L24
 269              		.loc 1 200 0
 270 000a 0020     		movs	r0, #0
 271              	.LVL21:
 272 000c 7047     		bx	lr
 273              	.LVL22:
 274              	.L24:
 275              		.loc 1 185 0
 276 000e 10B5     		push	{r4, lr}
 277              		.cfi_def_cfa_offset 8
 278              		.cfi_offset 4, -8
 279              		.cfi_offset 14, -4
 280              	.LBB48:
 281              	.LBB49:
 282              		.loc 1 195 0
 283 0010 074C     		ldr	r4, .L25
 284 0012 A269     		ldr	r2, [r4, #24]
 285 0014 5062     		str	r0, [r2, #36]
ARM GAS  /var/folders/bz/nn5481rn5xq59rb0mbj7x0880000gn/T//cch2KHK9.s 			page 6


 286              	.LBB50:
 287              	.LBB51:
 288              		.loc 2 55 0
 289 0016 4168     		ldr	r1, [r0, #4]
 290 0018 5160     		str	r1, [r2, #4]
 291 001a 0346     		mov	r3, r0
 292              	.LVL23:
 293              		.loc 2 54 0
 294 001c 1060     		str	r0, [r2]
 295              		.loc 2 56 0
 296 001e 5A60     		str	r2, [r3, #4]
 297              	.LBE51:
 298              	.LBE50:
 299              		.loc 1 197 0
 300 0020 0320     		movs	r0, #3
 301              	.LVL24:
 302              	.LBB53:
 303              	.LBB52:
 304              		.loc 2 56 0
 305 0022 0A60     		str	r2, [r1]
 306              	.LBE52:
 307              	.LBE53:
 308              		.loc 1 197 0
 309 0024 FFF7FEFF 		bl	chSchGoSleepS
 310              	.LVL25:
 311              		.loc 1 198 0
 312 0028 A369     		ldr	r3, [r4, #24]
 313 002a 586A     		ldr	r0, [r3, #36]
 314 002c 10BD     		pop	{r4, pc}
 315              	.L26:
 316 002e 00BF     		.align	2
 317              	.L25:
 318 0030 00000000 		.word	rlist
 319              	.LBE49:
 320              	.LBE48:
 321              		.cfi_endproc
 322              	.LFE11:
 323              		.size	chSemWaitS, .-chSemWaitS
 324              		.section	.text.chSemWaitTimeoutS,"ax",%progbits
 325              		.align	2
 326              		.p2align 4,,15
 327              		.global	chSemWaitTimeoutS
 328              		.thumb
 329              		.thumb_func
 330              		.type	chSemWaitTimeoutS, %function
 331              	chSemWaitTimeoutS:
 332              	.LFB13:
 333              		.loc 1 250 0
 334              		.cfi_startproc
 335              		@ args = 0, pretend = 0, frame = 0
 336              		@ frame_needed = 0, uses_anonymous_args = 0
 337              		@ link register save eliminated.
 338              	.LVL26:
 339 0000 0346     		mov	r3, r0
 340              		.loc 1 254 0
 341 0002 8068     		ldr	r0, [r0, #8]
 342              	.LVL27:
ARM GAS  /var/folders/bz/nn5481rn5xq59rb0mbj7x0880000gn/T//cch2KHK9.s 			page 7


 343              		.loc 1 259 0
 344 0004 421E     		subs	r2, r0, #1
 345 0006 002A     		cmp	r2, #0
 346 0008 9A60     		str	r2, [r3, #8]
 347 000a 01DB     		blt	.L33
 348              		.loc 1 268 0
 349 000c 0020     		movs	r0, #0
 350 000e 7047     		bx	lr
 351              	.L33:
 352              		.loc 1 250 0
 353 0010 10B4     		push	{r4}
 354              		.cfi_def_cfa_offset 4
 355              		.cfi_offset 4, -4
 356              		.loc 1 260 0
 357 0012 61B1     		cbz	r1, .L34
 358              	.LVL28:
 359              	.LBB58:
 360              	.LBB59:
 361              		.loc 1 264 0
 362 0014 094A     		ldr	r2, .L35
 363 0016 9269     		ldr	r2, [r2, #24]
 364 0018 5362     		str	r3, [r2, #36]
 365              	.LVL29:
 366              	.LBB60:
 367              	.LBB61:
 368              		.loc 2 55 0
 369 001a 5C68     		ldr	r4, [r3, #4]
 370              	.LBE61:
 371              	.LBE60:
 372              		.loc 1 266 0
 373 001c 0320     		movs	r0, #3
 374              	.LBB63:
 375              	.LBB62:
 376              		.loc 2 55 0
 377 001e 82E81800 		stmia	r2, {r3, r4}
 378              		.loc 2 56 0
 379 0022 5A60     		str	r2, [r3, #4]
 380 0024 2260     		str	r2, [r4]
 381              	.LBE62:
 382              	.LBE63:
 383              	.LBE59:
 384              	.LBE58:
 385              		.loc 1 269 0
 386 0026 5DF8044B 		ldr	r4, [sp], #4
 387              		.cfi_remember_state
 388              		.cfi_restore 4
 389              		.cfi_def_cfa_offset 0
 390              	.LBB65:
 391              	.LBB64:
 392              		.loc 1 266 0
 393 002a FFF7FEBF 		b	chSchGoSleepTimeoutS
 394              	.LVL30:
 395              	.L34:
 396              		.cfi_restore_state
 397              	.LBE64:
 398              	.LBE65:
 399              		.loc 1 261 0
ARM GAS  /var/folders/bz/nn5481rn5xq59rb0mbj7x0880000gn/T//cch2KHK9.s 			page 8


 400 002e 9860     		str	r0, [r3, #8]
 401              		.loc 1 269 0
 402 0030 5DF8044B 		ldr	r4, [sp], #4
 403              		.cfi_restore 4
 404              		.cfi_def_cfa_offset 0
 405              		.loc 1 262 0
 406 0034 4FF0FF30 		mov	r0, #-1
 407              		.loc 1 269 0
 408 0038 7047     		bx	lr
 409              	.L36:
 410 003a 00BF     		.align	2
 411              	.L35:
 412 003c 00000000 		.word	rlist
 413              		.cfi_endproc
 414              	.LFE13:
 415              		.size	chSemWaitTimeoutS, .-chSemWaitTimeoutS
 416              		.section	.text.chSemWaitTimeout,"ax",%progbits
 417              		.align	2
 418              		.p2align 4,,15
 419              		.global	chSemWaitTimeout
 420              		.thumb
 421              		.thumb_func
 422              		.type	chSemWaitTimeout, %function
 423              	chSemWaitTimeout:
 424              	.LFB12:
 425              		.loc 1 222 0
 426              		.cfi_startproc
 427              		@ args = 0, pretend = 0, frame = 0
 428              		@ frame_needed = 0, uses_anonymous_args = 0
 429              	.LVL31:
 430 0000 08B5     		push	{r3, lr}
 431              		.cfi_def_cfa_offset 8
 432              		.cfi_offset 3, -8
 433              		.cfi_offset 14, -4
 434              		.loc 1 225 0
 435              	@ 225 "lib/ChibiOS_2.6.6/os/kernel/src/chsem.c" 1
 436 0002 72B6     		cpsid   i
 437              	@ 0 "" 2
 438              		.loc 1 226 0
 439              		.thumb
 440 0004 FFF7FEFF 		bl	chSemWaitTimeoutS
 441              	.LVL32:
 442              		.loc 1 227 0
 443              	@ 227 "lib/ChibiOS_2.6.6/os/kernel/src/chsem.c" 1
 444 0008 62B6     		cpsie   i
 445              	@ 0 "" 2
 446              		.loc 1 229 0
 447              		.thumb
 448 000a 08BD     		pop	{r3, pc}
 449              		.cfi_endproc
 450              	.LFE12:
 451              		.size	chSemWaitTimeout, .-chSemWaitTimeout
 452              		.section	.text.chSemSignal,"ax",%progbits
 453              		.align	2
 454              		.p2align 4,,15
 455              		.global	chSemSignal
 456              		.thumb
ARM GAS  /var/folders/bz/nn5481rn5xq59rb0mbj7x0880000gn/T//cch2KHK9.s 			page 9


 457              		.thumb_func
 458              		.type	chSemSignal, %function
 459              	chSemSignal:
 460              	.LFB14:
 461              		.loc 1 278 0
 462              		.cfi_startproc
 463              		@ args = 0, pretend = 0, frame = 0
 464              		@ frame_needed = 0, uses_anonymous_args = 0
 465              	.LVL33:
 466 0000 08B5     		push	{r3, lr}
 467              		.cfi_def_cfa_offset 8
 468              		.cfi_offset 3, -8
 469              		.cfi_offset 14, -4
 470              		.loc 1 286 0
 471              	@ 286 "lib/ChibiOS_2.6.6/os/kernel/src/chsem.c" 1
 472 0002 72B6     		cpsid   i
 473              	@ 0 "" 2
 474              		.loc 1 287 0
 475              		.thumb
 476 0004 8368     		ldr	r3, [r0, #8]
 477 0006 0133     		adds	r3, r3, #1
 478 0008 002B     		cmp	r3, #0
 479 000a 8360     		str	r3, [r0, #8]
 480 000c 01DD     		ble	.L42
 481              		.loc 1 289 0
 482              	@ 289 "lib/ChibiOS_2.6.6/os/kernel/src/chsem.c" 1
 483 000e 62B6     		cpsie   i
 484              	@ 0 "" 2
 485              		.thumb
 486 0010 08BD     		pop	{r3, pc}
 487              	.L42:
 488 0012 0346     		mov	r3, r0
 489              	.LVL34:
 490              	.LBB66:
 491              	.LBB67:
 492              		.loc 2 60 0
 493 0014 0068     		ldr	r0, [r0]
 494              	.LVL35:
 495              		.loc 2 62 0
 496 0016 0268     		ldr	r2, [r0]
 497 0018 1A60     		str	r2, [r3]
 498              	.LBE67:
 499              	.LBE66:
 500              		.loc 1 288 0
 501 001a 0021     		movs	r1, #0
 502              	.LBB69:
 503              	.LBB68:
 504              		.loc 2 62 0
 505 001c 5360     		str	r3, [r2, #4]
 506              	.LBE68:
 507              	.LBE69:
 508              		.loc 1 288 0
 509 001e FFF7FEFF 		bl	chSchWakeupS
 510              	.LVL36:
 511              		.loc 1 289 0
 512              	@ 289 "lib/ChibiOS_2.6.6/os/kernel/src/chsem.c" 1
 513 0022 62B6     		cpsie   i
ARM GAS  /var/folders/bz/nn5481rn5xq59rb0mbj7x0880000gn/T//cch2KHK9.s 			page 10


 514              	@ 0 "" 2
 515              		.thumb
 516 0024 08BD     		pop	{r3, pc}
 517              		.cfi_endproc
 518              	.LFE14:
 519              		.size	chSemSignal, .-chSemSignal
 520 0026 00BF     		.section	.text.chSemSignalI,"ax",%progbits
 521              		.align	2
 522              		.p2align 4,,15
 523              		.global	chSemSignalI
 524              		.thumb
 525              		.thumb_func
 526              		.type	chSemSignalI, %function
 527              	chSemSignalI:
 528              	.LFB15:
 529              		.loc 1 303 0
 530              		.cfi_startproc
 531              		@ args = 0, pretend = 0, frame = 0
 532              		@ frame_needed = 0, uses_anonymous_args = 0
 533              		@ link register save eliminated.
 534              	.LVL37:
 535              		.loc 1 312 0
 536 0000 8368     		ldr	r3, [r0, #8]
 537 0002 0133     		adds	r3, r3, #1
 538 0004 002B     		cmp	r3, #0
 539 0006 8360     		str	r3, [r0, #8]
 540 0008 00DD     		ble	.L45
 541 000a 7047     		bx	lr
 542              	.L45:
 543              	.LVL38:
 544              	.LBB70:
 545              	.LBB71:
 546              	.LBB72:
 547              		.loc 2 60 0
 548 000c 0368     		ldr	r3, [r0]
 549              	.LVL39:
 550              		.loc 2 62 0
 551 000e 1A68     		ldr	r2, [r3]
 552 0010 0260     		str	r2, [r0]
 553              	.LBE72:
 554              	.LBE71:
 555              		.loc 1 316 0
 556 0012 0021     		movs	r1, #0
 557              	.LBB74:
 558              	.LBB73:
 559              		.loc 2 62 0
 560 0014 5060     		str	r0, [r2, #4]
 561              	.LBE73:
 562              	.LBE74:
 563              		.loc 1 317 0
 564 0016 1846     		mov	r0, r3
 565              	.LVL40:
 566              		.loc 1 316 0
 567 0018 5962     		str	r1, [r3, #36]
 568              		.loc 1 317 0
 569 001a FFF7FEBF 		b	chSchReadyI
 570              	.LVL41:
ARM GAS  /var/folders/bz/nn5481rn5xq59rb0mbj7x0880000gn/T//cch2KHK9.s 			page 11


 571              	.LBE70:
 572              		.cfi_endproc
 573              	.LFE15:
 574              		.size	chSemSignalI, .-chSemSignalI
 575 001e 00BF     		.section	.text.chSemAddCounterI,"ax",%progbits
 576              		.align	2
 577              		.p2align 4,,15
 578              		.global	chSemAddCounterI
 579              		.thumb
 580              		.thumb_func
 581              		.type	chSemAddCounterI, %function
 582              	chSemAddCounterI:
 583              	.LFB16:
 584              		.loc 1 334 0
 585              		.cfi_startproc
 586              		@ args = 0, pretend = 0, frame = 0
 587              		@ frame_needed = 0, uses_anonymous_args = 0
 588              	.LVL42:
 589 0000 70B5     		push	{r4, r5, r6, lr}
 590              		.cfi_def_cfa_offset 16
 591              		.cfi_offset 4, -16
 592              		.cfi_offset 5, -12
 593              		.cfi_offset 6, -8
 594              		.cfi_offset 14, -4
 595              		.loc 1 343 0
 596 0002 0C1E     		subs	r4, r1, #0
 597 0004 12DD     		ble	.L46
 598 0006 0546     		mov	r5, r0
 599              		.loc 1 345 0
 600 0008 0026     		movs	r6, #0
 601 000a 01E0     		b	.L49
 602              	.LVL43:
 603              	.L48:
 604              		.loc 1 343 0
 605 000c 013C     		subs	r4, r4, #1
 606              	.LVL44:
 607 000e 0DD0     		beq	.L46
 608              	.LVL45:
 609              	.L49:
 610              		.loc 1 344 0
 611 0010 AB68     		ldr	r3, [r5, #8]
 612 0012 0133     		adds	r3, r3, #1
 613 0014 002B     		cmp	r3, #0
 614 0016 AB60     		str	r3, [r5, #8]
 615 0018 F8DC     		bgt	.L48
 616              	.LVL46:
 617              	.LBB75:
 618              	.LBB76:
 619              		.loc 2 60 0
 620 001a 2868     		ldr	r0, [r5]
 621              	.LVL47:
 622              		.loc 2 62 0
 623 001c 0368     		ldr	r3, [r0]
 624 001e 2B60     		str	r3, [r5]
 625 0020 5D60     		str	r5, [r3, #4]
 626              	.LBE76:
 627              	.LBE75:
ARM GAS  /var/folders/bz/nn5481rn5xq59rb0mbj7x0880000gn/T//cch2KHK9.s 			page 12


 628              		.loc 1 345 0
 629 0022 FFF7FEFF 		bl	chSchReadyI
 630              	.LVL48:
 631              		.loc 1 343 0
 632 0026 013C     		subs	r4, r4, #1
 633              	.LVL49:
 634              		.loc 1 345 0
 635 0028 4662     		str	r6, [r0, #36]
 636              	.LVL50:
 637              		.loc 1 343 0
 638 002a F1D1     		bne	.L49
 639              	.LVL51:
 640              	.L46:
 641 002c 70BD     		pop	{r4, r5, r6, pc}
 642              		.cfi_endproc
 643              	.LFE16:
 644              		.size	chSemAddCounterI, .-chSemAddCounterI
 645 002e 00BF     		.section	.text.chSemSignalWait,"ax",%progbits
 646              		.align	2
 647              		.p2align 4,,15
 648              		.global	chSemSignalWait
 649              		.thumb
 650              		.thumb_func
 651              		.type	chSemSignalWait, %function
 652              	chSemSignalWait:
 653              	.LFB17:
 654              		.loc 1 366 0
 655              		.cfi_startproc
 656              		@ args = 0, pretend = 0, frame = 8
 657              		@ frame_needed = 0, uses_anonymous_args = 0
 658              	.LVL52:
 659 0000 10B5     		push	{r4, lr}
 660              		.cfi_def_cfa_offset 8
 661              		.cfi_offset 4, -8
 662              		.cfi_offset 14, -4
 663 0002 0246     		mov	r2, r0
 664 0004 82B0     		sub	sp, sp, #8
 665              		.cfi_def_cfa_offset 16
 666              		.loc 1 379 0
 667              	@ 379 "lib/ChibiOS_2.6.6/os/kernel/src/chsem.c" 1
 668 0006 72B6     		cpsid   i
 669              	@ 0 "" 2
 670              		.loc 1 380 0
 671              		.thumb
 672 0008 8368     		ldr	r3, [r0, #8]
 673 000a 0133     		adds	r3, r3, #1
 674 000c 002B     		cmp	r3, #0
 675 000e 8360     		str	r3, [r0, #8]
 676 0010 19DD     		ble	.L58
 677              	.LVL53:
 678              	.L54:
 679              		.loc 1 382 0
 680 0012 8B68     		ldr	r3, [r1, #8]
 681 0014 013B     		subs	r3, r3, #1
 682 0016 002B     		cmp	r3, #0
 683 0018 8B60     		str	r3, [r1, #8]
 684 001a 05DB     		blt	.L59
ARM GAS  /var/folders/bz/nn5481rn5xq59rb0mbj7x0880000gn/T//cch2KHK9.s 			page 13


 685              		.loc 1 390 0
 686 001c FFF7FEFF 		bl	chSchRescheduleS
 687              	.LVL54:
 688              		.loc 1 391 0
 689 0020 0020     		movs	r0, #0
 690              	.LVL55:
 691              		.loc 1 393 0
 692              	@ 393 "lib/ChibiOS_2.6.6/os/kernel/src/chsem.c" 1
 693 0022 62B6     		cpsie   i
 694              	@ 0 "" 2
 695              		.loc 1 395 0
 696              		.thumb
 697 0024 02B0     		add	sp, sp, #8
 698              		.cfi_remember_state
 699              		.cfi_def_cfa_offset 8
 700              		@ sp needed
 701 0026 10BD     		pop	{r4, pc}
 702              	.LVL56:
 703              	.L59:
 704              		.cfi_restore_state
 705              	.LBB77:
 706              		.loc 1 383 0
 707 0028 0C4A     		ldr	r2, .L60
 708              	.LBB78:
 709              	.LBB79:
 710              		.loc 2 55 0
 711 002a 4B68     		ldr	r3, [r1, #4]
 712              	.LBE79:
 713              	.LBE78:
 714              		.loc 1 383 0
 715 002c 9469     		ldr	r4, [r2, #24]
 716              	.LVL57:
 717              		.loc 1 386 0
 718 002e 0320     		movs	r0, #3
 719              	.LBB81:
 720              	.LBB80:
 721              		.loc 2 55 0
 722 0030 84E80A00 		stmia	r4, {r1, r3}
 723              		.loc 2 56 0
 724 0034 4C60     		str	r4, [r1, #4]
 725 0036 1C60     		str	r4, [r3]
 726              	.LBE80:
 727              	.LBE81:
 728              		.loc 1 385 0
 729 0038 6162     		str	r1, [r4, #36]
 730              		.loc 1 386 0
 731 003a FFF7FEFF 		bl	chSchGoSleepS
 732              	.LVL58:
 733              		.loc 1 387 0
 734 003e 606A     		ldr	r0, [r4, #36]
 735              	.LVL59:
 736              	.LBE77:
 737              		.loc 1 393 0
 738              	@ 393 "lib/ChibiOS_2.6.6/os/kernel/src/chsem.c" 1
 739 0040 62B6     		cpsie   i
 740              	@ 0 "" 2
 741              		.loc 1 395 0
ARM GAS  /var/folders/bz/nn5481rn5xq59rb0mbj7x0880000gn/T//cch2KHK9.s 			page 14


 742              		.thumb
 743 0042 02B0     		add	sp, sp, #8
 744              		.cfi_remember_state
 745              		.cfi_def_cfa_offset 8
 746              		@ sp needed
 747 0044 10BD     		pop	{r4, pc}
 748              	.LVL60:
 749              	.L58:
 750              		.cfi_restore_state
 751              	.LBB82:
 752              	.LBB83:
 753              		.loc 2 60 0
 754 0046 0068     		ldr	r0, [r0]
 755              	.LVL61:
 756 0048 0191     		str	r1, [sp, #4]
 757              	.LVL62:
 758              		.loc 2 62 0
 759 004a 0368     		ldr	r3, [r0]
 760 004c 1360     		str	r3, [r2]
 761 004e 5A60     		str	r2, [r3, #4]
 762              	.LBE83:
 763              	.LBE82:
 764              		.loc 1 381 0
 765 0050 FFF7FEFF 		bl	chSchReadyI
 766              	.LVL63:
 767 0054 0023     		movs	r3, #0
 768 0056 4362     		str	r3, [r0, #36]
 769 0058 0199     		ldr	r1, [sp, #4]
 770 005a DAE7     		b	.L54
 771              	.L61:
 772              		.align	2
 773              	.L60:
 774 005c 00000000 		.word	rlist
 775              		.cfi_endproc
 776              	.LFE17:
 777              		.size	chSemSignalWait, .-chSemSignalWait
 778              		.text
 779              	.Letext0:
 780              		.file 3 "/Users/imac/Downloads/gcc-arm-none-eabi-4_9-2015q2/arm-none-eabi/include/machine/_default
 781              		.file 4 "/Users/imac/Downloads/gcc-arm-none-eabi-4_9-2015q2/arm-none-eabi/include/sys/_stdint.h"
 782              		.file 5 "lib/ChibiOS_2.6.6/os/ports/GCC/ARMCMx/chtypes.h"
 783              		.file 6 "lib/ChibiOS_2.6.6/os/kernel/include/chlists.h"
 784              		.file 7 "lib/ChibiOS_2.6.6/os/kernel/include/chthreads.h"
 785              		.file 8 "lib/ChibiOS_2.6.6/os/ports/GCC/ARMCMx/chcore_v7m.h"
 786              		.file 9 "lib/ChibiOS_2.6.6/os/kernel/include/chschd.h"
 787              		.file 10 "lib/ChibiOS_2.6.6/os/kernel/include/chsem.h"
 788              		.file 11 "lib/ChibiOS_2.6.6/os/kernel/include/chmtx.h"
 789              		.section	.debug_info,"",%progbits
 790              	.Ldebug_info0:
 791 0000 100B0000 		.4byte	0xb10
 792 0004 0400     		.2byte	0x4
 793 0006 00000000 		.4byte	.Ldebug_abbrev0
 794 000a 04       		.byte	0x4
 795 000b 01       		.uleb128 0x1
 796 000c 31030000 		.4byte	.LASF86
 797 0010 01       		.byte	0x1
 798 0011 79020000 		.4byte	.LASF87
ARM GAS  /var/folders/bz/nn5481rn5xq59rb0mbj7x0880000gn/T//cch2KHK9.s 			page 15


 799 0015 C6000000 		.4byte	.LASF88
 800 0019 C0000000 		.4byte	.Ldebug_ranges0+0xc0
 801 001d 00000000 		.4byte	0
 802 0021 00000000 		.4byte	.Ldebug_line0
 803 0025 02       		.uleb128 0x2
 804 0026 04       		.byte	0x4
 805 0027 05       		.byte	0x5
 806 0028 696E7400 		.ascii	"int\000"
 807 002c 03       		.uleb128 0x3
 808 002d 04       		.byte	0x4
 809 002e 07       		.byte	0x7
 810 002f 18010000 		.4byte	.LASF0
 811 0033 03       		.uleb128 0x3
 812 0034 01       		.byte	0x1
 813 0035 06       		.byte	0x6
 814 0036 6E000000 		.4byte	.LASF1
 815 003a 04       		.uleb128 0x4
 816 003b 27000000 		.4byte	.LASF5
 817 003f 03       		.byte	0x3
 818 0040 1D       		.byte	0x1d
 819 0041 45000000 		.4byte	0x45
 820 0045 03       		.uleb128 0x3
 821 0046 01       		.byte	0x1
 822 0047 08       		.byte	0x8
 823 0048 1D020000 		.4byte	.LASF2
 824 004c 03       		.uleb128 0x3
 825 004d 02       		.byte	0x2
 826 004e 05       		.byte	0x5
 827 004f 35020000 		.4byte	.LASF3
 828 0053 03       		.uleb128 0x3
 829 0054 02       		.byte	0x2
 830 0055 07       		.byte	0x7
 831 0056 62010000 		.4byte	.LASF4
 832 005a 04       		.uleb128 0x4
 833 005b 1D030000 		.4byte	.LASF6
 834 005f 03       		.byte	0x3
 835 0060 3F       		.byte	0x3f
 836 0061 65000000 		.4byte	0x65
 837 0065 03       		.uleb128 0x3
 838 0066 04       		.byte	0x4
 839 0067 05       		.byte	0x5
 840 0068 A4000000 		.4byte	.LASF7
 841 006c 04       		.uleb128 0x4
 842 006d FE000000 		.4byte	.LASF8
 843 0071 03       		.byte	0x3
 844 0072 41       		.byte	0x41
 845 0073 77000000 		.4byte	0x77
 846 0077 03       		.uleb128 0x3
 847 0078 04       		.byte	0x4
 848 0079 07       		.byte	0x7
 849 007a 36010000 		.4byte	.LASF9
 850 007e 03       		.uleb128 0x3
 851 007f 08       		.byte	0x8
 852 0080 05       		.byte	0x5
 853 0081 60000000 		.4byte	.LASF10
 854 0085 03       		.uleb128 0x3
 855 0086 08       		.byte	0x8
ARM GAS  /var/folders/bz/nn5481rn5xq59rb0mbj7x0880000gn/T//cch2KHK9.s 			page 16


 856 0087 07       		.byte	0x7
 857 0088 31000000 		.4byte	.LASF11
 858 008c 04       		.uleb128 0x4
 859 008d B4040000 		.4byte	.LASF12
 860 0091 04       		.byte	0x4
 861 0092 14       		.byte	0x14
 862 0093 3A000000 		.4byte	0x3a
 863 0097 04       		.uleb128 0x4
 864 0098 15020000 		.4byte	.LASF13
 865 009c 04       		.byte	0x4
 866 009d 1F       		.byte	0x1f
 867 009e 5A000000 		.4byte	0x5a
 868 00a2 04       		.uleb128 0x4
 869 00a3 C1020000 		.4byte	.LASF14
 870 00a7 04       		.byte	0x4
 871 00a8 20       		.byte	0x20
 872 00a9 6C000000 		.4byte	0x6c
 873 00ad 03       		.uleb128 0x3
 874 00ae 01       		.byte	0x1
 875 00af 02       		.byte	0x2
 876 00b0 0F020000 		.4byte	.LASF15
 877 00b4 04       		.uleb128 0x4
 878 00b5 97010000 		.4byte	.LASF16
 879 00b9 05       		.byte	0x5
 880 00ba 2C       		.byte	0x2c
 881 00bb 8C000000 		.4byte	0x8c
 882 00bf 04       		.uleb128 0x4
 883 00c0 AD000000 		.4byte	.LASF17
 884 00c4 05       		.byte	0x5
 885 00c5 2D       		.byte	0x2d
 886 00c6 8C000000 		.4byte	0x8c
 887 00ca 04       		.uleb128 0x4
 888 00cb F8010000 		.4byte	.LASF18
 889 00cf 05       		.byte	0x5
 890 00d0 2E       		.byte	0x2e
 891 00d1 8C000000 		.4byte	0x8c
 892 00d5 04       		.uleb128 0x4
 893 00d6 9A000000 		.4byte	.LASF19
 894 00da 05       		.byte	0x5
 895 00db 2F       		.byte	0x2f
 896 00dc 8C000000 		.4byte	0x8c
 897 00e0 04       		.uleb128 0x4
 898 00e1 07020000 		.4byte	.LASF20
 899 00e5 05       		.byte	0x5
 900 00e6 30       		.byte	0x30
 901 00e7 A2000000 		.4byte	0xa2
 902 00eb 04       		.uleb128 0x4
 903 00ec 80010000 		.4byte	.LASF21
 904 00f0 05       		.byte	0x5
 905 00f1 31       		.byte	0x31
 906 00f2 97000000 		.4byte	0x97
 907 00f6 04       		.uleb128 0x4
 908 00f7 AB010000 		.4byte	.LASF22
 909 00fb 05       		.byte	0x5
 910 00fc 33       		.byte	0x33
 911 00fd A2000000 		.4byte	0xa2
 912 0101 04       		.uleb128 0x4
ARM GAS  /var/folders/bz/nn5481rn5xq59rb0mbj7x0880000gn/T//cch2KHK9.s 			page 17


 913 0102 08030000 		.4byte	.LASF23
 914 0106 05       		.byte	0x5
 915 0107 35       		.byte	0x35
 916 0108 A2000000 		.4byte	0xa2
 917 010c 04       		.uleb128 0x4
 918 010d 12010000 		.4byte	.LASF24
 919 0111 05       		.byte	0x5
 920 0112 36       		.byte	0x36
 921 0113 97000000 		.4byte	0x97
 922 0117 04       		.uleb128 0x4
 923 0118 A1020000 		.4byte	.LASF25
 924 011c 06       		.byte	0x6
 925 011d 2A       		.byte	0x2a
 926 011e 22010000 		.4byte	0x122
 927 0122 05       		.uleb128 0x5
 928 0123 A1020000 		.4byte	.LASF25
 929 0127 48       		.byte	0x48
 930 0128 07       		.byte	0x7
 931 0129 5E       		.byte	0x5e
 932 012a 1F020000 		.4byte	0x21f
 933 012e 06       		.uleb128 0x6
 934 012f 5F020000 		.4byte	.LASF26
 935 0133 07       		.byte	0x7
 936 0134 5F       		.byte	0x5f
 937 0135 40020000 		.4byte	0x240
 938 0139 00       		.byte	0
 939 013a 06       		.uleb128 0x6
 940 013b 00020000 		.4byte	.LASF27
 941 013f 07       		.byte	0x7
 942 0140 61       		.byte	0x61
 943 0141 40020000 		.4byte	0x240
 944 0145 04       		.byte	0x4
 945 0146 06       		.uleb128 0x6
 946 0147 59000000 		.4byte	.LASF28
 947 014b 07       		.byte	0x7
 948 014c 63       		.byte	0x63
 949 014d E0000000 		.4byte	0xe0
 950 0151 08       		.byte	0x8
 951 0152 06       		.uleb128 0x6
 952 0153 E7040000 		.4byte	.LASF29
 953 0157 07       		.byte	0x7
 954 0158 64       		.byte	0x64
 955 0159 CA030000 		.4byte	0x3ca
 956 015d 0C       		.byte	0xc
 957 015e 06       		.uleb128 0x6
 958 015f B6000000 		.4byte	.LASF30
 959 0163 07       		.byte	0x7
 960 0164 66       		.byte	0x66
 961 0165 40020000 		.4byte	0x240
 962 0169 10       		.byte	0x10
 963 016a 06       		.uleb128 0x6
 964 016b C6010000 		.4byte	.LASF31
 965 016f 07       		.byte	0x7
 966 0170 67       		.byte	0x67
 967 0171 40020000 		.4byte	0x240
 968 0175 14       		.byte	0x14
 969 0176 06       		.uleb128 0x6
ARM GAS  /var/folders/bz/nn5481rn5xq59rb0mbj7x0880000gn/T//cch2KHK9.s 			page 18


 970 0177 C3040000 		.4byte	.LASF32
 971 017b 07       		.byte	0x7
 972 017c 6E       		.byte	0x6e
 973 017d FA040000 		.4byte	0x4fa
 974 0181 18       		.byte	0x18
 975 0182 06       		.uleb128 0x6
 976 0183 3F020000 		.4byte	.LASF33
 977 0187 07       		.byte	0x7
 978 0188 79       		.byte	0x79
 979 0189 BF000000 		.4byte	0xbf
 980 018d 1C       		.byte	0x1c
 981 018e 06       		.uleb128 0x6
 982 018f 66020000 		.4byte	.LASF34
 983 0193 07       		.byte	0x7
 984 0194 7D       		.byte	0x7d
 985 0195 B4000000 		.4byte	0xb4
 986 0199 1D       		.byte	0x1d
 987 019a 06       		.uleb128 0x6
 988 019b 91040000 		.4byte	.LASF35
 989 019f 07       		.byte	0x7
 990 01a0 82       		.byte	0x82
 991 01a1 CA000000 		.4byte	0xca
 992 01a5 1E       		.byte	0x1e
 993 01a6 06       		.uleb128 0x6
 994 01a7 47020000 		.4byte	.LASF36
 995 01ab 07       		.byte	0x7
 996 01ac 88       		.byte	0x88
 997 01ad D5000000 		.4byte	0xd5
 998 01b1 1F       		.byte	0x1f
 999 01b2 06       		.uleb128 0x6
 1000 01b3 55040000 		.4byte	.LASF37
 1001 01b7 07       		.byte	0x7
 1002 01b8 8F       		.byte	0x8f
 1003 01b9 F2030000 		.4byte	0x3f2
 1004 01bd 20       		.byte	0x20
 1005 01be 07       		.uleb128 0x7
 1006 01bf 705F7500 		.ascii	"p_u\000"
 1007 01c3 07       		.byte	0x7
 1008 01c4 B4       		.byte	0xb4
 1009 01c5 C5040000 		.4byte	0x4c5
 1010 01c9 24       		.byte	0x24
 1011 01ca 06       		.uleb128 0x6
 1012 01cb ED040000 		.4byte	.LASF38
 1013 01cf 07       		.byte	0x7
 1014 01d0 B9       		.byte	0xb9
 1015 01d1 66020000 		.4byte	0x266
 1016 01d5 28       		.byte	0x28
 1017 01d6 06       		.uleb128 0x6
 1018 01d7 6F040000 		.4byte	.LASF39
 1019 01db 07       		.byte	0x7
 1020 01dc BF       		.byte	0xbf
 1021 01dd 46020000 		.4byte	0x246
 1022 01e1 2C       		.byte	0x2c
 1023 01e2 06       		.uleb128 0x6
 1024 01e3 00000000 		.4byte	.LASF40
 1025 01e7 07       		.byte	0x7
 1026 01e8 C3       		.byte	0xc3
ARM GAS  /var/folders/bz/nn5481rn5xq59rb0mbj7x0880000gn/T//cch2KHK9.s 			page 19


 1027 01e9 EB000000 		.4byte	0xeb
 1028 01ed 34       		.byte	0x34
 1029 01ee 06       		.uleb128 0x6
 1030 01ef B6020000 		.4byte	.LASF41
 1031 01f3 07       		.byte	0x7
 1032 01f4 C9       		.byte	0xc9
 1033 01f5 F6000000 		.4byte	0xf6
 1034 01f9 38       		.byte	0x38
 1035 01fa 06       		.uleb128 0x6
 1036 01fb 2B020000 		.4byte	.LASF42
 1037 01ff 07       		.byte	0x7
 1038 0200 D0       		.byte	0xd0
 1039 0201 0C050000 		.4byte	0x50c
 1040 0205 3C       		.byte	0x3c
 1041 0206 06       		.uleb128 0x6
 1042 0207 12030000 		.4byte	.LASF43
 1043 020b 07       		.byte	0x7
 1044 020c D4       		.byte	0xd4
 1045 020d E0000000 		.4byte	0xe0
 1046 0211 40       		.byte	0x40
 1047 0212 06       		.uleb128 0x6
 1048 0213 8A000000 		.4byte	.LASF44
 1049 0217 07       		.byte	0x7
 1050 0218 DA       		.byte	0xda
 1051 0219 7C020000 		.4byte	0x27c
 1052 021d 44       		.byte	0x44
 1053 021e 00       		.byte	0
 1054 021f 08       		.uleb128 0x8
 1055 0220 08       		.byte	0x8
 1056 0221 06       		.byte	0x6
 1057 0222 61       		.byte	0x61
 1058 0223 40020000 		.4byte	0x240
 1059 0227 06       		.uleb128 0x6
 1060 0228 5F020000 		.4byte	.LASF26
 1061 022c 06       		.byte	0x6
 1062 022d 62       		.byte	0x62
 1063 022e 40020000 		.4byte	0x240
 1064 0232 00       		.byte	0
 1065 0233 06       		.uleb128 0x6
 1066 0234 00020000 		.4byte	.LASF27
 1067 0238 06       		.byte	0x6
 1068 0239 64       		.byte	0x64
 1069 023a 40020000 		.4byte	0x240
 1070 023e 04       		.byte	0x4
 1071 023f 00       		.byte	0
 1072 0240 09       		.uleb128 0x9
 1073 0241 04       		.byte	0x4
 1074 0242 17010000 		.4byte	0x117
 1075 0246 04       		.uleb128 0x4
 1076 0247 D4010000 		.4byte	.LASF45
 1077 024b 06       		.byte	0x6
 1078 024c 66       		.byte	0x66
 1079 024d 1F020000 		.4byte	0x21f
 1080 0251 08       		.uleb128 0x8
 1081 0252 04       		.byte	0x4
 1082 0253 06       		.byte	0x6
 1083 0254 6B       		.byte	0x6b
ARM GAS  /var/folders/bz/nn5481rn5xq59rb0mbj7x0880000gn/T//cch2KHK9.s 			page 20


 1084 0255 66020000 		.4byte	0x266
 1085 0259 06       		.uleb128 0x6
 1086 025a 5F020000 		.4byte	.LASF26
 1087 025e 06       		.byte	0x6
 1088 025f 6D       		.byte	0x6d
 1089 0260 40020000 		.4byte	0x240
 1090 0264 00       		.byte	0
 1091 0265 00       		.byte	0
 1092 0266 04       		.uleb128 0x4
 1093 0267 9F010000 		.4byte	.LASF46
 1094 026b 06       		.byte	0x6
 1095 026c 70       		.byte	0x70
 1096 026d 51020000 		.4byte	0x251
 1097 0271 04       		.uleb128 0x4
 1098 0272 09010000 		.4byte	.LASF47
 1099 0276 08       		.byte	0x8
 1100 0277 E5       		.byte	0xe5
 1101 0278 7C020000 		.4byte	0x27c
 1102 027c 0A       		.uleb128 0xa
 1103 027d 04       		.byte	0x4
 1104 027e 0B       		.uleb128 0xb
 1105 027f 68040000 		.4byte	.LASF48
 1106 0283 64       		.byte	0x64
 1107 0284 08       		.byte	0x8
 1108 0285 0C01     		.2byte	0x10c
 1109 0287 CA030000 		.4byte	0x3ca
 1110 028b 0C       		.uleb128 0xc
 1111 028c 73313600 		.ascii	"s16\000"
 1112 0290 08       		.byte	0x8
 1113 0291 0E01     		.2byte	0x10e
 1114 0293 71020000 		.4byte	0x271
 1115 0297 00       		.byte	0
 1116 0298 0C       		.uleb128 0xc
 1117 0299 73313700 		.ascii	"s17\000"
 1118 029d 08       		.byte	0x8
 1119 029e 0F01     		.2byte	0x10f
 1120 02a0 71020000 		.4byte	0x271
 1121 02a4 04       		.byte	0x4
 1122 02a5 0C       		.uleb128 0xc
 1123 02a6 73313800 		.ascii	"s18\000"
 1124 02aa 08       		.byte	0x8
 1125 02ab 1001     		.2byte	0x110
 1126 02ad 71020000 		.4byte	0x271
 1127 02b1 08       		.byte	0x8
 1128 02b2 0C       		.uleb128 0xc
 1129 02b3 73313900 		.ascii	"s19\000"
 1130 02b7 08       		.byte	0x8
 1131 02b8 1101     		.2byte	0x111
 1132 02ba 71020000 		.4byte	0x271
 1133 02be 0C       		.byte	0xc
 1134 02bf 0C       		.uleb128 0xc
 1135 02c0 73323000 		.ascii	"s20\000"
 1136 02c4 08       		.byte	0x8
 1137 02c5 1201     		.2byte	0x112
 1138 02c7 71020000 		.4byte	0x271
 1139 02cb 10       		.byte	0x10
 1140 02cc 0C       		.uleb128 0xc
ARM GAS  /var/folders/bz/nn5481rn5xq59rb0mbj7x0880000gn/T//cch2KHK9.s 			page 21


 1141 02cd 73323100 		.ascii	"s21\000"
 1142 02d1 08       		.byte	0x8
 1143 02d2 1301     		.2byte	0x113
 1144 02d4 71020000 		.4byte	0x271
 1145 02d8 14       		.byte	0x14
 1146 02d9 0C       		.uleb128 0xc
 1147 02da 73323200 		.ascii	"s22\000"
 1148 02de 08       		.byte	0x8
 1149 02df 1401     		.2byte	0x114
 1150 02e1 71020000 		.4byte	0x271
 1151 02e5 18       		.byte	0x18
 1152 02e6 0C       		.uleb128 0xc
 1153 02e7 73323300 		.ascii	"s23\000"
 1154 02eb 08       		.byte	0x8
 1155 02ec 1501     		.2byte	0x115
 1156 02ee 71020000 		.4byte	0x271
 1157 02f2 1C       		.byte	0x1c
 1158 02f3 0C       		.uleb128 0xc
 1159 02f4 73323400 		.ascii	"s24\000"
 1160 02f8 08       		.byte	0x8
 1161 02f9 1601     		.2byte	0x116
 1162 02fb 71020000 		.4byte	0x271
 1163 02ff 20       		.byte	0x20
 1164 0300 0C       		.uleb128 0xc
 1165 0301 73323500 		.ascii	"s25\000"
 1166 0305 08       		.byte	0x8
 1167 0306 1701     		.2byte	0x117
 1168 0308 71020000 		.4byte	0x271
 1169 030c 24       		.byte	0x24
 1170 030d 0C       		.uleb128 0xc
 1171 030e 73323600 		.ascii	"s26\000"
 1172 0312 08       		.byte	0x8
 1173 0313 1801     		.2byte	0x118
 1174 0315 71020000 		.4byte	0x271
 1175 0319 28       		.byte	0x28
 1176 031a 0C       		.uleb128 0xc
 1177 031b 73323700 		.ascii	"s27\000"
 1178 031f 08       		.byte	0x8
 1179 0320 1901     		.2byte	0x119
 1180 0322 71020000 		.4byte	0x271
 1181 0326 2C       		.byte	0x2c
 1182 0327 0C       		.uleb128 0xc
 1183 0328 73323800 		.ascii	"s28\000"
 1184 032c 08       		.byte	0x8
 1185 032d 1A01     		.2byte	0x11a
 1186 032f 71020000 		.4byte	0x271
 1187 0333 30       		.byte	0x30
 1188 0334 0C       		.uleb128 0xc
 1189 0335 73323900 		.ascii	"s29\000"
 1190 0339 08       		.byte	0x8
 1191 033a 1B01     		.2byte	0x11b
 1192 033c 71020000 		.4byte	0x271
 1193 0340 34       		.byte	0x34
 1194 0341 0C       		.uleb128 0xc
 1195 0342 73333000 		.ascii	"s30\000"
 1196 0346 08       		.byte	0x8
 1197 0347 1C01     		.2byte	0x11c
ARM GAS  /var/folders/bz/nn5481rn5xq59rb0mbj7x0880000gn/T//cch2KHK9.s 			page 22


 1198 0349 71020000 		.4byte	0x271
 1199 034d 38       		.byte	0x38
 1200 034e 0C       		.uleb128 0xc
 1201 034f 73333100 		.ascii	"s31\000"
 1202 0353 08       		.byte	0x8
 1203 0354 1D01     		.2byte	0x11d
 1204 0356 71020000 		.4byte	0x271
 1205 035a 3C       		.byte	0x3c
 1206 035b 0C       		.uleb128 0xc
 1207 035c 723400   		.ascii	"r4\000"
 1208 035f 08       		.byte	0x8
 1209 0360 1F01     		.2byte	0x11f
 1210 0362 71020000 		.4byte	0x271
 1211 0366 40       		.byte	0x40
 1212 0367 0C       		.uleb128 0xc
 1213 0368 723500   		.ascii	"r5\000"
 1214 036b 08       		.byte	0x8
 1215 036c 2001     		.2byte	0x120
 1216 036e 71020000 		.4byte	0x271
 1217 0372 44       		.byte	0x44
 1218 0373 0C       		.uleb128 0xc
 1219 0374 723600   		.ascii	"r6\000"
 1220 0377 08       		.byte	0x8
 1221 0378 2101     		.2byte	0x121
 1222 037a 71020000 		.4byte	0x271
 1223 037e 48       		.byte	0x48
 1224 037f 0C       		.uleb128 0xc
 1225 0380 723700   		.ascii	"r7\000"
 1226 0383 08       		.byte	0x8
 1227 0384 2201     		.2byte	0x122
 1228 0386 71020000 		.4byte	0x271
 1229 038a 4C       		.byte	0x4c
 1230 038b 0C       		.uleb128 0xc
 1231 038c 723800   		.ascii	"r8\000"
 1232 038f 08       		.byte	0x8
 1233 0390 2301     		.2byte	0x123
 1234 0392 71020000 		.4byte	0x271
 1235 0396 50       		.byte	0x50
 1236 0397 0C       		.uleb128 0xc
 1237 0398 723900   		.ascii	"r9\000"
 1238 039b 08       		.byte	0x8
 1239 039c 2401     		.2byte	0x124
 1240 039e 71020000 		.4byte	0x271
 1241 03a2 54       		.byte	0x54
 1242 03a3 0C       		.uleb128 0xc
 1243 03a4 72313000 		.ascii	"r10\000"
 1244 03a8 08       		.byte	0x8
 1245 03a9 2501     		.2byte	0x125
 1246 03ab 71020000 		.4byte	0x271
 1247 03af 58       		.byte	0x58
 1248 03b0 0C       		.uleb128 0xc
 1249 03b1 72313100 		.ascii	"r11\000"
 1250 03b5 08       		.byte	0x8
 1251 03b6 2601     		.2byte	0x126
 1252 03b8 71020000 		.4byte	0x271
 1253 03bc 5C       		.byte	0x5c
 1254 03bd 0C       		.uleb128 0xc
ARM GAS  /var/folders/bz/nn5481rn5xq59rb0mbj7x0880000gn/T//cch2KHK9.s 			page 23


 1255 03be 6C7200   		.ascii	"lr\000"
 1256 03c1 08       		.byte	0x8
 1257 03c2 2701     		.2byte	0x127
 1258 03c4 71020000 		.4byte	0x271
 1259 03c8 60       		.byte	0x60
 1260 03c9 00       		.byte	0
 1261 03ca 0B       		.uleb128 0xb
 1262 03cb 5A010000 		.4byte	.LASF49
 1263 03cf 04       		.byte	0x4
 1264 03d0 08       		.byte	0x8
 1265 03d1 3101     		.2byte	0x131
 1266 03d3 E5030000 		.4byte	0x3e5
 1267 03d7 0C       		.uleb128 0xc
 1268 03d8 72313300 		.ascii	"r13\000"
 1269 03dc 08       		.byte	0x8
 1270 03dd 3201     		.2byte	0x132
 1271 03df E5030000 		.4byte	0x3e5
 1272 03e3 00       		.byte	0
 1273 03e4 00       		.byte	0
 1274 03e5 09       		.uleb128 0x9
 1275 03e6 04       		.byte	0x4
 1276 03e7 7E020000 		.4byte	0x27e
 1277 03eb 03       		.uleb128 0x3
 1278 03ec 04       		.byte	0x4
 1279 03ed 07       		.byte	0x7
 1280 03ee BD010000 		.4byte	.LASF50
 1281 03f2 0D       		.uleb128 0xd
 1282 03f3 01010000 		.4byte	0x101
 1283 03f7 08       		.uleb128 0x8
 1284 03f8 1C       		.byte	0x1c
 1285 03f9 09       		.byte	0x9
 1286 03fa 5E       		.byte	0x5e
 1287 03fb 48040000 		.4byte	0x448
 1288 03ff 06       		.uleb128 0x6
 1289 0400 CA020000 		.4byte	.LASF51
 1290 0404 09       		.byte	0x9
 1291 0405 5F       		.byte	0x5f
 1292 0406 46020000 		.4byte	0x246
 1293 040a 00       		.byte	0
 1294 040b 06       		.uleb128 0x6
 1295 040c 51020000 		.4byte	.LASF52
 1296 0410 09       		.byte	0x9
 1297 0411 60       		.byte	0x60
 1298 0412 E0000000 		.4byte	0xe0
 1299 0416 08       		.byte	0x8
 1300 0417 06       		.uleb128 0x6
 1301 0418 CE010000 		.4byte	.LASF53
 1302 041c 09       		.byte	0x9
 1303 041d 62       		.byte	0x62
 1304 041e CA030000 		.4byte	0x3ca
 1305 0422 0C       		.byte	0xc
 1306 0423 06       		.uleb128 0x6
 1307 0424 86010000 		.4byte	.LASF54
 1308 0428 09       		.byte	0x9
 1309 0429 65       		.byte	0x65
 1310 042a 40020000 		.4byte	0x240
 1311 042e 10       		.byte	0x10
ARM GAS  /var/folders/bz/nn5481rn5xq59rb0mbj7x0880000gn/T//cch2KHK9.s 			page 24


 1312 042f 06       		.uleb128 0x6
 1313 0430 F0010000 		.4byte	.LASF55
 1314 0434 09       		.byte	0x9
 1315 0435 66       		.byte	0x66
 1316 0436 40020000 		.4byte	0x240
 1317 043a 14       		.byte	0x14
 1318 043b 06       		.uleb128 0x6
 1319 043c E6010000 		.4byte	.LASF56
 1320 0440 09       		.byte	0x9
 1321 0441 69       		.byte	0x69
 1322 0442 40020000 		.4byte	0x240
 1323 0446 18       		.byte	0x18
 1324 0447 00       		.byte	0
 1325 0448 04       		.uleb128 0x4
 1326 0449 98040000 		.4byte	.LASF57
 1327 044d 09       		.byte	0x9
 1328 044e 6B       		.byte	0x6b
 1329 044f F7030000 		.4byte	0x3f7
 1330 0453 05       		.uleb128 0x5
 1331 0454 87040000 		.4byte	.LASF58
 1332 0458 0C       		.byte	0xc
 1333 0459 0A       		.byte	0xa
 1334 045a 2C       		.byte	0x2c
 1335 045b 78040000 		.4byte	0x478
 1336 045f 06       		.uleb128 0x6
 1337 0460 BE000000 		.4byte	.LASF59
 1338 0464 0A       		.byte	0xa
 1339 0465 2D       		.byte	0x2d
 1340 0466 46020000 		.4byte	0x246
 1341 046a 00       		.byte	0
 1342 046b 06       		.uleb128 0x6
 1343 046c 54010000 		.4byte	.LASF60
 1344 0470 0A       		.byte	0xa
 1345 0471 2F       		.byte	0x2f
 1346 0472 0C010000 		.4byte	0x10c
 1347 0476 08       		.byte	0x8
 1348 0477 00       		.byte	0
 1349 0478 04       		.uleb128 0x4
 1350 0479 87040000 		.4byte	.LASF58
 1351 047d 0A       		.byte	0xa
 1352 047e 30       		.byte	0x30
 1353 047f 53040000 		.4byte	0x453
 1354 0483 05       		.uleb128 0x5
 1355 0484 B7010000 		.4byte	.LASF61
 1356 0488 10       		.byte	0x10
 1357 0489 0B       		.byte	0xb
 1358 048a 2C       		.byte	0x2c
 1359 048b B4040000 		.4byte	0x4b4
 1360 048f 06       		.uleb128 0x6
 1361 0490 92000000 		.4byte	.LASF62
 1362 0494 0B       		.byte	0xb
 1363 0495 2D       		.byte	0x2d
 1364 0496 46020000 		.4byte	0x246
 1365 049a 00       		.byte	0
 1366 049b 06       		.uleb128 0x6
 1367 049c DF040000 		.4byte	.LASF63
 1368 04a0 0B       		.byte	0xb
ARM GAS  /var/folders/bz/nn5481rn5xq59rb0mbj7x0880000gn/T//cch2KHK9.s 			page 25


 1369 04a1 2F       		.byte	0x2f
 1370 04a2 40020000 		.4byte	0x240
 1371 04a6 08       		.byte	0x8
 1372 04a7 06       		.uleb128 0x6
 1373 04a8 01030000 		.4byte	.LASF64
 1374 04ac 0B       		.byte	0xb
 1375 04ad 31       		.byte	0x31
 1376 04ae B4040000 		.4byte	0x4b4
 1377 04b2 0C       		.byte	0xc
 1378 04b3 00       		.byte	0
 1379 04b4 09       		.uleb128 0x9
 1380 04b5 04       		.byte	0x4
 1381 04b6 83040000 		.4byte	0x483
 1382 04ba 04       		.uleb128 0x4
 1383 04bb B7010000 		.4byte	.LASF61
 1384 04bf 0B       		.byte	0xb
 1385 04c0 33       		.byte	0x33
 1386 04c1 83040000 		.4byte	0x483
 1387 04c5 0E       		.uleb128 0xe
 1388 04c6 04       		.byte	0x4
 1389 04c7 07       		.byte	0x7
 1390 04c8 96       		.byte	0x96
 1391 04c9 FA040000 		.4byte	0x4fa
 1392 04cd 0F       		.uleb128 0xf
 1393 04ce 20000000 		.4byte	.LASF65
 1394 04d2 07       		.byte	0x7
 1395 04d3 9D       		.byte	0x9d
 1396 04d4 EB000000 		.4byte	0xeb
 1397 04d8 0F       		.uleb128 0xf
 1398 04d9 8E010000 		.4byte	.LASF66
 1399 04dd 07       		.byte	0x7
 1400 04de A4       		.byte	0xa4
 1401 04df EB000000 		.4byte	0xeb
 1402 04e3 0F       		.uleb128 0xf
 1403 04e4 BC040000 		.4byte	.LASF67
 1404 04e8 07       		.byte	0x7
 1405 04e9 AB       		.byte	0xab
 1406 04ea 7C020000 		.4byte	0x27c
 1407 04ee 0F       		.uleb128 0xf
 1408 04ef 58020000 		.4byte	.LASF68
 1409 04f3 07       		.byte	0x7
 1410 04f4 B2       		.byte	0xb2
 1411 04f5 F6000000 		.4byte	0xf6
 1412 04f9 00       		.byte	0
 1413 04fa 09       		.uleb128 0x9
 1414 04fb 04       		.byte	0x4
 1415 04fc 00050000 		.4byte	0x500
 1416 0500 10       		.uleb128 0x10
 1417 0501 05050000 		.4byte	0x505
 1418 0505 03       		.uleb128 0x3
 1419 0506 01       		.byte	0x1
 1420 0507 08       		.byte	0x8
 1421 0508 D2020000 		.4byte	.LASF69
 1422 050c 09       		.uleb128 0x9
 1423 050d 04       		.byte	0x4
 1424 050e BA040000 		.4byte	0x4ba
 1425 0512 11       		.uleb128 0x11
ARM GAS  /var/folders/bz/nn5481rn5xq59rb0mbj7x0880000gn/T//cch2KHK9.s 			page 26


 1426 0513 5C040000 		.4byte	.LASF73
 1427 0517 02       		.byte	0x2
 1428 0518 42       		.byte	0x42
 1429 0519 40020000 		.4byte	0x240
 1430 051d 03       		.byte	0x3
 1431 051e 38050000 		.4byte	0x538
 1432 0522 12       		.uleb128 0x12
 1433 0523 74717000 		.ascii	"tqp\000"
 1434 0527 02       		.byte	0x2
 1435 0528 42       		.byte	0x42
 1436 0529 38050000 		.4byte	0x538
 1437 052d 13       		.uleb128 0x13
 1438 052e 747000   		.ascii	"tp\000"
 1439 0531 02       		.byte	0x2
 1440 0532 43       		.byte	0x43
 1441 0533 40020000 		.4byte	0x240
 1442 0537 00       		.byte	0
 1443 0538 09       		.uleb128 0x9
 1444 0539 04       		.byte	0x4
 1445 053a 46020000 		.4byte	0x246
 1446 053e 14       		.uleb128 0x14
 1447 053f 06000000 		.4byte	.LASF89
 1448 0543 02       		.byte	0x2
 1449 0544 34       		.byte	0x34
 1450 0545 03       		.byte	0x3
 1451 0546 60050000 		.4byte	0x560
 1452 054a 12       		.uleb128 0x12
 1453 054b 747000   		.ascii	"tp\000"
 1454 054e 02       		.byte	0x2
 1455 054f 34       		.byte	0x34
 1456 0550 40020000 		.4byte	0x240
 1457 0554 12       		.uleb128 0x12
 1458 0555 74717000 		.ascii	"tqp\000"
 1459 0559 02       		.byte	0x2
 1460 055a 34       		.byte	0x34
 1461 055b 38050000 		.4byte	0x538
 1462 055f 00       		.byte	0
 1463 0560 15       		.uleb128 0x15
 1464 0561 6E020000 		.4byte	.LASF70
 1465 0565 01       		.byte	0x1
 1466 0566 B9       		.byte	0xb9
 1467 0567 EB000000 		.4byte	0xeb
 1468 056b 01       		.byte	0x1
 1469 056c 7B050000 		.4byte	0x57b
 1470 0570 12       		.uleb128 0x12
 1471 0571 737000   		.ascii	"sp\000"
 1472 0574 01       		.byte	0x1
 1473 0575 B9       		.byte	0xb9
 1474 0576 7B050000 		.4byte	0x57b
 1475 057a 00       		.byte	0
 1476 057b 09       		.uleb128 0x9
 1477 057c 04       		.byte	0x4
 1478 057d 78040000 		.4byte	0x478
 1479 0581 15       		.uleb128 0x15
 1480 0582 E3020000 		.4byte	.LASF71
 1481 0586 01       		.byte	0x1
 1482 0587 FA       		.byte	0xfa
ARM GAS  /var/folders/bz/nn5481rn5xq59rb0mbj7x0880000gn/T//cch2KHK9.s 			page 27


 1483 0588 EB000000 		.4byte	0xeb
 1484 058c 01       		.byte	0x1
 1485 058d A7050000 		.4byte	0x5a7
 1486 0591 12       		.uleb128 0x12
 1487 0592 737000   		.ascii	"sp\000"
 1488 0595 01       		.byte	0x1
 1489 0596 FA       		.byte	0xfa
 1490 0597 7B050000 		.4byte	0x57b
 1491 059b 16       		.uleb128 0x16
 1492 059c E1010000 		.4byte	.LASF72
 1493 05a0 01       		.byte	0x1
 1494 05a1 FA       		.byte	0xfa
 1495 05a2 01010000 		.4byte	0x101
 1496 05a6 00       		.byte	0
 1497 05a7 11       		.uleb128 0x11
 1498 05a8 D7020000 		.4byte	.LASF74
 1499 05ac 02       		.byte	0x2
 1500 05ad 3B       		.byte	0x3b
 1501 05ae 40020000 		.4byte	0x240
 1502 05b2 03       		.byte	0x3
 1503 05b3 CD050000 		.4byte	0x5cd
 1504 05b7 12       		.uleb128 0x12
 1505 05b8 74717000 		.ascii	"tqp\000"
 1506 05bc 02       		.byte	0x2
 1507 05bd 3B       		.byte	0x3b
 1508 05be 38050000 		.4byte	0x538
 1509 05c2 13       		.uleb128 0x13
 1510 05c3 747000   		.ascii	"tp\000"
 1511 05c6 02       		.byte	0x2
 1512 05c7 3C       		.byte	0x3c
 1513 05c8 40020000 		.4byte	0x240
 1514 05cc 00       		.byte	0
 1515 05cd 17       		.uleb128 0x17
 1516 05ce F7040000 		.4byte	.LASF75
 1517 05d2 01       		.byte	0x1
 1518 05d3 56       		.byte	0x56
 1519 05d4 00000000 		.4byte	.LFB7
 1520 05d8 08000000 		.4byte	.LFE7-.LFB7
 1521 05dc 01       		.uleb128 0x1
 1522 05dd 9C       		.byte	0x9c
 1523 05de FA050000 		.4byte	0x5fa
 1524 05e2 18       		.uleb128 0x18
 1525 05e3 737000   		.ascii	"sp\000"
 1526 05e6 01       		.byte	0x1
 1527 05e7 56       		.byte	0x56
 1528 05e8 7B050000 		.4byte	0x57b
 1529 05ec 01       		.uleb128 0x1
 1530 05ed 50       		.byte	0x50
 1531 05ee 18       		.uleb128 0x18
 1532 05ef 6E00     		.ascii	"n\000"
 1533 05f1 01       		.byte	0x1
 1534 05f2 56       		.byte	0x56
 1535 05f3 0C010000 		.4byte	0x10c
 1536 05f7 01       		.uleb128 0x1
 1537 05f8 51       		.byte	0x51
 1538 05f9 00       		.byte	0
 1539 05fa 17       		.uleb128 0x17
ARM GAS  /var/folders/bz/nn5481rn5xq59rb0mbj7x0880000gn/T//cch2KHK9.s 			page 28


 1540 05fb A2040000 		.4byte	.LASF76
 1541 05ff 01       		.byte	0x1
 1542 0600 88       		.byte	0x88
 1543 0601 00000000 		.4byte	.LFB9
 1544 0605 28000000 		.4byte	.LFE9-.LFB9
 1545 0609 01       		.uleb128 0x1
 1546 060a 9C       		.byte	0x9c
 1547 060b 73060000 		.4byte	0x673
 1548 060f 19       		.uleb128 0x19
 1549 0610 737000   		.ascii	"sp\000"
 1550 0613 01       		.byte	0x1
 1551 0614 88       		.byte	0x88
 1552 0615 7B050000 		.4byte	0x57b
 1553 0619 00000000 		.4byte	.LLST0
 1554 061d 19       		.uleb128 0x19
 1555 061e 6E00     		.ascii	"n\000"
 1556 0620 01       		.byte	0x1
 1557 0621 88       		.byte	0x88
 1558 0622 0C010000 		.4byte	0x10c
 1559 0626 2C000000 		.4byte	.LLST1
 1560 062a 1A       		.uleb128 0x1a
 1561 062b 636E7400 		.ascii	"cnt\000"
 1562 062f 01       		.byte	0x1
 1563 0630 89       		.byte	0x89
 1564 0631 0C010000 		.4byte	0x10c
 1565 0635 4D000000 		.4byte	.LLST2
 1566 0639 1B       		.uleb128 0x1b
 1567 063a 12050000 		.4byte	0x512
 1568 063e 12000000 		.4byte	.LBB26
 1569 0642 08000000 		.4byte	.LBE26-.LBB26
 1570 0646 01       		.byte	0x1
 1571 0647 95       		.byte	0x95
 1572 0648 69060000 		.4byte	0x669
 1573 064c 1C       		.uleb128 0x1c
 1574 064d 22050000 		.4byte	0x522
 1575 0651 78000000 		.4byte	.LLST3
 1576 0655 1D       		.uleb128 0x1d
 1577 0656 12000000 		.4byte	.LBB27
 1578 065a 08000000 		.4byte	.LBE27-.LBB27
 1579 065e 1E       		.uleb128 0x1e
 1580 065f 2D050000 		.4byte	0x52d
 1581 0663 8B000000 		.4byte	.LLST4
 1582 0667 00       		.byte	0
 1583 0668 00       		.byte	0
 1584 0669 1F       		.uleb128 0x1f
 1585 066a 1E000000 		.4byte	.LVL6
 1586 066e BA0A0000 		.4byte	0xaba
 1587 0672 00       		.byte	0
 1588 0673 17       		.uleb128 0x17
 1589 0674 75010000 		.4byte	.LASF77
 1590 0678 01       		.byte	0x1
 1591 0679 6D       		.byte	0x6d
 1592 067a 00000000 		.4byte	.LFB8
 1593 067e 10000000 		.4byte	.LFE8-.LFB8
 1594 0682 01       		.uleb128 0x1
 1595 0683 9C       		.byte	0x9c
 1596 0684 C9060000 		.4byte	0x6c9
ARM GAS  /var/folders/bz/nn5481rn5xq59rb0mbj7x0880000gn/T//cch2KHK9.s 			page 29


 1597 0688 19       		.uleb128 0x19
 1598 0689 737000   		.ascii	"sp\000"
 1599 068c 01       		.byte	0x1
 1600 068d 6D       		.byte	0x6d
 1601 068e 7B050000 		.4byte	0x57b
 1602 0692 9E000000 		.4byte	.LLST5
 1603 0696 19       		.uleb128 0x19
 1604 0697 6E00     		.ascii	"n\000"
 1605 0699 01       		.byte	0x1
 1606 069a 6D       		.byte	0x6d
 1607 069b 0C010000 		.4byte	0x10c
 1608 069f BF000000 		.4byte	.LLST6
 1609 06a3 20       		.uleb128 0x20
 1610 06a4 08000000 		.4byte	.LVL11
 1611 06a8 FA050000 		.4byte	0x5fa
 1612 06ac BF060000 		.4byte	0x6bf
 1613 06b0 21       		.uleb128 0x21
 1614 06b1 01       		.uleb128 0x1
 1615 06b2 51       		.byte	0x51
 1616 06b3 03       		.uleb128 0x3
 1617 06b4 F3       		.byte	0xf3
 1618 06b5 01       		.uleb128 0x1
 1619 06b6 51       		.byte	0x51
 1620 06b7 21       		.uleb128 0x21
 1621 06b8 01       		.uleb128 0x1
 1622 06b9 50       		.byte	0x50
 1623 06ba 03       		.uleb128 0x3
 1624 06bb F3       		.byte	0xf3
 1625 06bc 01       		.uleb128 0x1
 1626 06bd 50       		.byte	0x50
 1627 06be 00       		.byte	0
 1628 06bf 1F       		.uleb128 0x1f
 1629 06c0 0C000000 		.4byte	.LVL12
 1630 06c4 CF0A0000 		.4byte	0xacf
 1631 06c8 00       		.byte	0
 1632 06c9 22       		.uleb128 0x22
 1633 06ca 27030000 		.4byte	.LASF78
 1634 06ce 01       		.byte	0x1
 1635 06cf A4       		.byte	0xa4
 1636 06d0 EB000000 		.4byte	0xeb
 1637 06d4 00000000 		.4byte	.LFB10
 1638 06d8 38000000 		.4byte	.LFE10-.LFB10
 1639 06dc 01       		.uleb128 0x1
 1640 06dd 9C       		.byte	0x9c
 1641 06de 5D070000 		.4byte	0x75d
 1642 06e2 19       		.uleb128 0x19
 1643 06e3 737000   		.ascii	"sp\000"
 1644 06e6 01       		.byte	0x1
 1645 06e7 A4       		.byte	0xa4
 1646 06e8 7B050000 		.4byte	0x57b
 1647 06ec E0000000 		.4byte	.LLST7
 1648 06f0 13       		.uleb128 0x13
 1649 06f1 6D736700 		.ascii	"msg\000"
 1650 06f5 01       		.byte	0x1
 1651 06f6 A5       		.byte	0xa5
 1652 06f7 EB000000 		.4byte	0xeb
 1653 06fb 23       		.uleb128 0x23
ARM GAS  /var/folders/bz/nn5481rn5xq59rb0mbj7x0880000gn/T//cch2KHK9.s 			page 30


 1654 06fc 60050000 		.4byte	0x560
 1655 0700 02000000 		.4byte	.LBB34
 1656 0704 00000000 		.4byte	.Ldebug_ranges0+0
 1657 0708 01       		.byte	0x1
 1658 0709 A8       		.byte	0xa8
 1659 070a 1C       		.uleb128 0x1c
 1660 070b 70050000 		.4byte	0x570
 1661 070f 25010000 		.4byte	.LLST8
 1662 0713 1D       		.uleb128 0x1d
 1663 0714 14000000 		.4byte	.LBB36
 1664 0718 1C000000 		.4byte	.LBE36-.LBB36
 1665 071c 1C       		.uleb128 0x1c
 1666 071d 70050000 		.4byte	0x570
 1667 0721 6A010000 		.4byte	.LLST9
 1668 0725 24       		.uleb128 0x24
 1669 0726 3E050000 		.4byte	0x53e
 1670 072a 1A000000 		.4byte	.LBB38
 1671 072e 18000000 		.4byte	.Ldebug_ranges0+0x18
 1672 0732 01       		.byte	0x1
 1673 0733 C4       		.byte	0xc4
 1674 0734 4B070000 		.4byte	0x74b
 1675 0738 1C       		.uleb128 0x1c
 1676 0739 54050000 		.4byte	0x554
 1677 073d 6A010000 		.4byte	.LLST9
 1678 0741 1C       		.uleb128 0x1c
 1679 0742 4A050000 		.4byte	0x54a
 1680 0746 8B010000 		.4byte	.LLST11
 1681 074a 00       		.byte	0
 1682 074b 25       		.uleb128 0x25
 1683 074c 2C000000 		.4byte	.LVL19
 1684 0750 D60A0000 		.4byte	0xad6
 1685 0754 21       		.uleb128 0x21
 1686 0755 01       		.uleb128 0x1
 1687 0756 50       		.byte	0x50
 1688 0757 01       		.uleb128 0x1
 1689 0758 33       		.byte	0x33
 1690 0759 00       		.byte	0
 1691 075a 00       		.byte	0
 1692 075b 00       		.byte	0
 1693 075c 00       		.byte	0
 1694 075d 26       		.uleb128 0x26
 1695 075e 60050000 		.4byte	0x560
 1696 0762 00000000 		.4byte	.LFB11
 1697 0766 34000000 		.4byte	.LFE11-.LFB11
 1698 076a 01       		.uleb128 0x1
 1699 076b 9C       		.byte	0x9c
 1700 076c C2070000 		.4byte	0x7c2
 1701 0770 1C       		.uleb128 0x1c
 1702 0771 70050000 		.4byte	0x570
 1703 0775 9E010000 		.4byte	.LLST12
 1704 0779 1D       		.uleb128 0x1d
 1705 077a 10000000 		.4byte	.LBB48
 1706 077e 24000000 		.4byte	.LBE48-.LBB48
 1707 0782 1C       		.uleb128 0x1c
 1708 0783 70050000 		.4byte	0x570
 1709 0787 E3010000 		.4byte	.LLST13
 1710 078b 24       		.uleb128 0x24
ARM GAS  /var/folders/bz/nn5481rn5xq59rb0mbj7x0880000gn/T//cch2KHK9.s 			page 31


 1711 078c 3E050000 		.4byte	0x53e
 1712 0790 16000000 		.4byte	.LBB50
 1713 0794 30000000 		.4byte	.Ldebug_ranges0+0x30
 1714 0798 01       		.byte	0x1
 1715 0799 C4       		.byte	0xc4
 1716 079a B1070000 		.4byte	0x7b1
 1717 079e 1C       		.uleb128 0x1c
 1718 079f 54050000 		.4byte	0x554
 1719 07a3 E3010000 		.4byte	.LLST13
 1720 07a7 1C       		.uleb128 0x1c
 1721 07a8 4A050000 		.4byte	0x54a
 1722 07ac 04020000 		.4byte	.LLST15
 1723 07b0 00       		.byte	0
 1724 07b1 25       		.uleb128 0x25
 1725 07b2 28000000 		.4byte	.LVL25
 1726 07b6 D60A0000 		.4byte	0xad6
 1727 07ba 21       		.uleb128 0x21
 1728 07bb 01       		.uleb128 0x1
 1729 07bc 50       		.byte	0x50
 1730 07bd 01       		.uleb128 0x1
 1731 07be 33       		.byte	0x33
 1732 07bf 00       		.byte	0
 1733 07c0 00       		.byte	0
 1734 07c1 00       		.byte	0
 1735 07c2 26       		.uleb128 0x26
 1736 07c3 81050000 		.4byte	0x581
 1737 07c7 00000000 		.4byte	.LFB13
 1738 07cb 40000000 		.4byte	.LFE13-.LFB13
 1739 07cf 01       		.uleb128 0x1
 1740 07d0 9C       		.byte	0x9c
 1741 07d1 32080000 		.4byte	0x832
 1742 07d5 1C       		.uleb128 0x1c
 1743 07d6 91050000 		.4byte	0x591
 1744 07da 17020000 		.4byte	.LLST16
 1745 07de 1C       		.uleb128 0x1c
 1746 07df 9B050000 		.4byte	0x59b
 1747 07e3 4E020000 		.4byte	.LLST17
 1748 07e7 27       		.uleb128 0x27
 1749 07e8 48000000 		.4byte	.Ldebug_ranges0+0x48
 1750 07ec 28       		.uleb128 0x28
 1751 07ed 9B050000 		.4byte	0x59b
 1752 07f1 1C       		.uleb128 0x1c
 1753 07f2 91050000 		.4byte	0x591
 1754 07f6 7A020000 		.4byte	.LLST18
 1755 07fa 29       		.uleb128 0x29
 1756 07fb 3E050000 		.4byte	0x53e
 1757 07ff 1A000000 		.4byte	.LBB60
 1758 0803 60000000 		.4byte	.Ldebug_ranges0+0x60
 1759 0807 01       		.byte	0x1
 1760 0808 0901     		.2byte	0x109
 1761 080a 21080000 		.4byte	0x821
 1762 080e 1C       		.uleb128 0x1c
 1763 080f 54050000 		.4byte	0x554
 1764 0813 9B020000 		.4byte	.LLST19
 1765 0817 1C       		.uleb128 0x1c
 1766 0818 4A050000 		.4byte	0x54a
 1767 081c BC020000 		.4byte	.LLST20
ARM GAS  /var/folders/bz/nn5481rn5xq59rb0mbj7x0880000gn/T//cch2KHK9.s 			page 32


 1768 0820 00       		.byte	0
 1769 0821 2A       		.uleb128 0x2a
 1770 0822 2E000000 		.4byte	.LVL30
 1771 0826 E70A0000 		.4byte	0xae7
 1772 082a 21       		.uleb128 0x21
 1773 082b 01       		.uleb128 0x1
 1774 082c 50       		.byte	0x50
 1775 082d 01       		.uleb128 0x1
 1776 082e 33       		.byte	0x33
 1777 082f 00       		.byte	0
 1778 0830 00       		.byte	0
 1779 0831 00       		.byte	0
 1780 0832 22       		.uleb128 0x22
 1781 0833 25010000 		.4byte	.LASF79
 1782 0837 01       		.byte	0x1
 1783 0838 DE       		.byte	0xde
 1784 0839 EB000000 		.4byte	0xeb
 1785 083d 00000000 		.4byte	.LFB12
 1786 0841 0C000000 		.4byte	.LFE12-.LFB12
 1787 0845 01       		.uleb128 0x1
 1788 0846 9C       		.byte	0x9c
 1789 0847 8E080000 		.4byte	0x88e
 1790 084b 19       		.uleb128 0x19
 1791 084c 737000   		.ascii	"sp\000"
 1792 084f 01       		.byte	0x1
 1793 0850 DE       		.byte	0xde
 1794 0851 7B050000 		.4byte	0x57b
 1795 0855 CF020000 		.4byte	.LLST21
 1796 0859 2B       		.uleb128 0x2b
 1797 085a E1010000 		.4byte	.LASF72
 1798 085e 01       		.byte	0x1
 1799 085f DE       		.byte	0xde
 1800 0860 01010000 		.4byte	0x101
 1801 0864 F0020000 		.4byte	.LLST22
 1802 0868 2C       		.uleb128 0x2c
 1803 0869 6D736700 		.ascii	"msg\000"
 1804 086d 01       		.byte	0x1
 1805 086e DF       		.byte	0xdf
 1806 086f EB000000 		.4byte	0xeb
 1807 0873 01       		.uleb128 0x1
 1808 0874 50       		.byte	0x50
 1809 0875 25       		.uleb128 0x25
 1810 0876 08000000 		.4byte	.LVL32
 1811 087a 81050000 		.4byte	0x581
 1812 087e 21       		.uleb128 0x21
 1813 087f 01       		.uleb128 0x1
 1814 0880 51       		.byte	0x51
 1815 0881 03       		.uleb128 0x3
 1816 0882 F3       		.byte	0xf3
 1817 0883 01       		.uleb128 0x1
 1818 0884 51       		.byte	0x51
 1819 0885 21       		.uleb128 0x21
 1820 0886 01       		.uleb128 0x1
 1821 0887 50       		.byte	0x50
 1822 0888 03       		.uleb128 0x3
 1823 0889 F3       		.byte	0xf3
 1824 088a 01       		.uleb128 0x1
ARM GAS  /var/folders/bz/nn5481rn5xq59rb0mbj7x0880000gn/T//cch2KHK9.s 			page 33


 1825 088b 50       		.byte	0x50
 1826 088c 00       		.byte	0
 1827 088d 00       		.byte	0
 1828 088e 2D       		.uleb128 0x2d
 1829 088f 48010000 		.4byte	.LASF80
 1830 0893 01       		.byte	0x1
 1831 0894 1601     		.2byte	0x116
 1832 0896 00000000 		.4byte	.LFB14
 1833 089a 26000000 		.4byte	.LFE14-.LFB14
 1834 089e 01       		.uleb128 0x1
 1835 089f 9C       		.byte	0x9c
 1836 08a0 F0080000 		.4byte	0x8f0
 1837 08a4 2E       		.uleb128 0x2e
 1838 08a5 737000   		.ascii	"sp\000"
 1839 08a8 01       		.byte	0x1
 1840 08a9 1601     		.2byte	0x116
 1841 08ab 7B050000 		.4byte	0x57b
 1842 08af 11030000 		.4byte	.LLST23
 1843 08b3 29       		.uleb128 0x29
 1844 08b4 A7050000 		.4byte	0x5a7
 1845 08b8 14000000 		.4byte	.LBB66
 1846 08bc 78000000 		.4byte	.Ldebug_ranges0+0x78
 1847 08c0 01       		.byte	0x1
 1848 08c1 2001     		.2byte	0x120
 1849 08c3 E0080000 		.4byte	0x8e0
 1850 08c7 1C       		.uleb128 0x1c
 1851 08c8 B7050000 		.4byte	0x5b7
 1852 08cc 3D030000 		.4byte	.LLST24
 1853 08d0 27       		.uleb128 0x27
 1854 08d1 78000000 		.4byte	.Ldebug_ranges0+0x78
 1855 08d5 1E       		.uleb128 0x1e
 1856 08d6 C2050000 		.4byte	0x5c2
 1857 08da 5E030000 		.4byte	.LLST25
 1858 08de 00       		.byte	0
 1859 08df 00       		.byte	0
 1860 08e0 25       		.uleb128 0x25
 1861 08e1 22000000 		.4byte	.LVL36
 1862 08e5 010B0000 		.4byte	0xb01
 1863 08e9 21       		.uleb128 0x21
 1864 08ea 01       		.uleb128 0x1
 1865 08eb 51       		.byte	0x51
 1866 08ec 01       		.uleb128 0x1
 1867 08ed 30       		.byte	0x30
 1868 08ee 00       		.byte	0
 1869 08ef 00       		.byte	0
 1870 08f0 2D       		.uleb128 0x2d
 1871 08f1 13000000 		.4byte	.LASF81
 1872 08f5 01       		.byte	0x1
 1873 08f6 2F01     		.2byte	0x12f
 1874 08f8 00000000 		.4byte	.LFB15
 1875 08fc 1E000000 		.4byte	.LFE15-.LFB15
 1876 0900 01       		.uleb128 0x1
 1877 0901 9C       		.byte	0x9c
 1878 0902 63090000 		.4byte	0x963
 1879 0906 2E       		.uleb128 0x2e
 1880 0907 737000   		.ascii	"sp\000"
 1881 090a 01       		.byte	0x1
ARM GAS  /var/folders/bz/nn5481rn5xq59rb0mbj7x0880000gn/T//cch2KHK9.s 			page 34


 1882 090b 2F01     		.2byte	0x12f
 1883 090d 7B050000 		.4byte	0x57b
 1884 0911 71030000 		.4byte	.LLST26
 1885 0915 1D       		.uleb128 0x1d
 1886 0916 0C000000 		.4byte	.LBB70
 1887 091a 12000000 		.4byte	.LBE70-.LBB70
 1888 091e 2F       		.uleb128 0x2f
 1889 091f 747000   		.ascii	"tp\000"
 1890 0922 01       		.byte	0x1
 1891 0923 3B01     		.2byte	0x13b
 1892 0925 40020000 		.4byte	0x240
 1893 0929 01       		.uleb128 0x1
 1894 092a 53       		.byte	0x53
 1895 092b 29       		.uleb128 0x29
 1896 092c A7050000 		.4byte	0x5a7
 1897 0930 0C000000 		.4byte	.LBB71
 1898 0934 90000000 		.4byte	.Ldebug_ranges0+0x90
 1899 0938 01       		.byte	0x1
 1900 0939 3B01     		.2byte	0x13b
 1901 093b 58090000 		.4byte	0x958
 1902 093f 1C       		.uleb128 0x1c
 1903 0940 B7050000 		.4byte	0x5b7
 1904 0944 9E030000 		.4byte	.LLST27
 1905 0948 27       		.uleb128 0x27
 1906 0949 90000000 		.4byte	.Ldebug_ranges0+0x90
 1907 094d 1E       		.uleb128 0x1e
 1908 094e C2050000 		.4byte	0x5c2
 1909 0952 CB030000 		.4byte	.LLST28
 1910 0956 00       		.byte	0
 1911 0957 00       		.byte	0
 1912 0958 30       		.uleb128 0x30
 1913 0959 1E000000 		.4byte	.LVL41
 1914 095d BA0A0000 		.4byte	0xaba
 1915 0961 00       		.byte	0
 1916 0962 00       		.byte	0
 1917 0963 2D       		.uleb128 0x2d
 1918 0964 48000000 		.4byte	.LASF82
 1919 0968 01       		.byte	0x1
 1920 0969 4E01     		.2byte	0x14e
 1921 096b 00000000 		.4byte	.LFB16
 1922 096f 2E000000 		.4byte	.LFE16-.LFB16
 1923 0973 01       		.uleb128 0x1
 1924 0974 9C       		.byte	0x9c
 1925 0975 D1090000 		.4byte	0x9d1
 1926 0979 2E       		.uleb128 0x2e
 1927 097a 737000   		.ascii	"sp\000"
 1928 097d 01       		.byte	0x1
 1929 097e 4E01     		.2byte	0x14e
 1930 0980 7B050000 		.4byte	0x57b
 1931 0984 DE030000 		.4byte	.LLST29
 1932 0988 2E       		.uleb128 0x2e
 1933 0989 6E00     		.ascii	"n\000"
 1934 098b 01       		.byte	0x1
 1935 098c 4E01     		.2byte	0x14e
 1936 098e 0C010000 		.4byte	0x10c
 1937 0992 0A040000 		.4byte	.LLST30
 1938 0996 31       		.uleb128 0x31
ARM GAS  /var/folders/bz/nn5481rn5xq59rb0mbj7x0880000gn/T//cch2KHK9.s 			page 35


 1939 0997 A7050000 		.4byte	0x5a7
 1940 099b 1A000000 		.4byte	.LBB75
 1941 099f 08000000 		.4byte	.LBE75-.LBB75
 1942 09a3 01       		.byte	0x1
 1943 09a4 5901     		.2byte	0x159
 1944 09a6 C7090000 		.4byte	0x9c7
 1945 09aa 1C       		.uleb128 0x1c
 1946 09ab B7050000 		.4byte	0x5b7
 1947 09af 42040000 		.4byte	.LLST31
 1948 09b3 1D       		.uleb128 0x1d
 1949 09b4 1A000000 		.4byte	.LBB76
 1950 09b8 08000000 		.4byte	.LBE76-.LBB76
 1951 09bc 1E       		.uleb128 0x1e
 1952 09bd C2050000 		.4byte	0x5c2
 1953 09c1 55040000 		.4byte	.LLST32
 1954 09c5 00       		.byte	0
 1955 09c6 00       		.byte	0
 1956 09c7 1F       		.uleb128 0x1f
 1957 09c8 26000000 		.4byte	.LVL48
 1958 09cc BA0A0000 		.4byte	0xaba
 1959 09d0 00       		.byte	0
 1960 09d1 32       		.uleb128 0x32
 1961 09d2 7A000000 		.4byte	.LASF83
 1962 09d6 01       		.byte	0x1
 1963 09d7 6E01     		.2byte	0x16e
 1964 09d9 EB000000 		.4byte	0xeb
 1965 09dd 00000000 		.4byte	.LFB17
 1966 09e1 60000000 		.4byte	.LFE17-.LFB17
 1967 09e5 01       		.uleb128 0x1
 1968 09e6 9C       		.byte	0x9c
 1969 09e7 AF0A0000 		.4byte	0xaaf
 1970 09eb 2E       		.uleb128 0x2e
 1971 09ec 73707300 		.ascii	"sps\000"
 1972 09f0 01       		.byte	0x1
 1973 09f1 6E01     		.2byte	0x16e
 1974 09f3 7B050000 		.4byte	0x57b
 1975 09f7 68040000 		.4byte	.LLST33
 1976 09fb 2E       		.uleb128 0x2e
 1977 09fc 73707700 		.ascii	"spw\000"
 1978 0a00 01       		.byte	0x1
 1979 0a01 6E01     		.2byte	0x16e
 1980 0a03 7B050000 		.4byte	0x57b
 1981 0a07 AD040000 		.4byte	.LLST34
 1982 0a0b 33       		.uleb128 0x33
 1983 0a0c 6D736700 		.ascii	"msg\000"
 1984 0a10 01       		.byte	0x1
 1985 0a11 6F01     		.2byte	0x16f
 1986 0a13 EB000000 		.4byte	0xeb
 1987 0a17 E5040000 		.4byte	.LLST35
 1988 0a1b 34       		.uleb128 0x34
 1989 0a1c 28000000 		.4byte	.LBB77
 1990 0a20 18000000 		.4byte	.LBE77-.LBB77
 1991 0a24 6F0A0000 		.4byte	0xa6f
 1992 0a28 33       		.uleb128 0x33
 1993 0a29 63747000 		.ascii	"ctp\000"
 1994 0a2d 01       		.byte	0x1
 1995 0a2e 7F01     		.2byte	0x17f
ARM GAS  /var/folders/bz/nn5481rn5xq59rb0mbj7x0880000gn/T//cch2KHK9.s 			page 36


 1996 0a30 40020000 		.4byte	0x240
 1997 0a34 0F050000 		.4byte	.LLST36
 1998 0a38 29       		.uleb128 0x29
 1999 0a39 3E050000 		.4byte	0x53e
 2000 0a3d 2A000000 		.4byte	.LBB78
 2001 0a41 A8000000 		.4byte	.Ldebug_ranges0+0xa8
 2002 0a45 01       		.byte	0x1
 2003 0a46 8001     		.2byte	0x180
 2004 0a48 5F0A0000 		.4byte	0xa5f
 2005 0a4c 1C       		.uleb128 0x1c
 2006 0a4d 54050000 		.4byte	0x554
 2007 0a51 22050000 		.4byte	.LLST37
 2008 0a55 1C       		.uleb128 0x1c
 2009 0a56 4A050000 		.4byte	0x54a
 2010 0a5a 0F050000 		.4byte	.LLST36
 2011 0a5e 00       		.byte	0
 2012 0a5f 25       		.uleb128 0x25
 2013 0a60 3E000000 		.4byte	.LVL58
 2014 0a64 D60A0000 		.4byte	0xad6
 2015 0a68 21       		.uleb128 0x21
 2016 0a69 01       		.uleb128 0x1
 2017 0a6a 50       		.byte	0x50
 2018 0a6b 01       		.uleb128 0x1
 2019 0a6c 33       		.byte	0x33
 2020 0a6d 00       		.byte	0
 2021 0a6e 00       		.byte	0
 2022 0a6f 31       		.uleb128 0x31
 2023 0a70 A7050000 		.4byte	0x5a7
 2024 0a74 46000000 		.4byte	.LBB82
 2025 0a78 0A000000 		.4byte	.LBE82-.LBB82
 2026 0a7c 01       		.byte	0x1
 2027 0a7d 7D01     		.2byte	0x17d
 2028 0a7f 9C0A0000 		.4byte	0xa9c
 2029 0a83 28       		.uleb128 0x28
 2030 0a84 B7050000 		.4byte	0x5b7
 2031 0a88 1D       		.uleb128 0x1d
 2032 0a89 46000000 		.4byte	.LBB83
 2033 0a8d 0A000000 		.4byte	.LBE83-.LBB83
 2034 0a91 1E       		.uleb128 0x1e
 2035 0a92 C2050000 		.4byte	0x5c2
 2036 0a96 35050000 		.4byte	.LLST39
 2037 0a9a 00       		.byte	0
 2038 0a9b 00       		.byte	0
 2039 0a9c 1F       		.uleb128 0x1f
 2040 0a9d 20000000 		.4byte	.LVL54
 2041 0aa1 CF0A0000 		.4byte	0xacf
 2042 0aa5 1F       		.uleb128 0x1f
 2043 0aa6 54000000 		.4byte	.LVL63
 2044 0aaa BA0A0000 		.4byte	0xaba
 2045 0aae 00       		.byte	0
 2046 0aaf 35       		.uleb128 0x35
 2047 0ab0 AE040000 		.4byte	.LASF90
 2048 0ab4 09       		.byte	0x9
 2049 0ab5 6F       		.byte	0x6f
 2050 0ab6 48040000 		.4byte	0x448
 2051 0aba 36       		.uleb128 0x36
 2052 0abb F5020000 		.4byte	.LASF84
ARM GAS  /var/folders/bz/nn5481rn5xq59rb0mbj7x0880000gn/T//cch2KHK9.s 			page 37


 2053 0abf 09       		.byte	0x9
 2054 0ac0 90       		.byte	0x90
 2055 0ac1 40020000 		.4byte	0x240
 2056 0ac5 CF0A0000 		.4byte	0xacf
 2057 0ac9 37       		.uleb128 0x37
 2058 0aca 40020000 		.4byte	0x240
 2059 0ace 00       		.byte	0
 2060 0acf 38       		.uleb128 0x38
 2061 0ad0 ED000000 		.4byte	.LASF91
 2062 0ad4 09       		.byte	0x9
 2063 0ad5 9C       		.byte	0x9c
 2064 0ad6 39       		.uleb128 0x39
 2065 0ad7 A8020000 		.4byte	.LASF92
 2066 0adb 09       		.byte	0x9
 2067 0adc 93       		.byte	0x93
 2068 0add E70A0000 		.4byte	0xae7
 2069 0ae1 37       		.uleb128 0x37
 2070 0ae2 BF000000 		.4byte	0xbf
 2071 0ae6 00       		.byte	0
 2072 0ae7 36       		.uleb128 0x36
 2073 0ae8 CA040000 		.4byte	.LASF85
 2074 0aec 09       		.byte	0x9
 2075 0aed 96       		.byte	0x96
 2076 0aee EB000000 		.4byte	0xeb
 2077 0af2 010B0000 		.4byte	0xb01
 2078 0af6 37       		.uleb128 0x37
 2079 0af7 BF000000 		.4byte	0xbf
 2080 0afb 37       		.uleb128 0x37
 2081 0afc 01010000 		.4byte	0x101
 2082 0b00 00       		.byte	0
 2083 0b01 3A       		.uleb128 0x3a
 2084 0b02 7A040000 		.4byte	.LASF93
 2085 0b06 09       		.byte	0x9
 2086 0b07 99       		.byte	0x99
 2087 0b08 37       		.uleb128 0x37
 2088 0b09 40020000 		.4byte	0x240
 2089 0b0d 37       		.uleb128 0x37
 2090 0b0e EB000000 		.4byte	0xeb
 2091 0b12 00       		.byte	0
 2092 0b13 00       		.byte	0
 2093              		.section	.debug_abbrev,"",%progbits
 2094              	.Ldebug_abbrev0:
 2095 0000 01       		.uleb128 0x1
 2096 0001 11       		.uleb128 0x11
 2097 0002 01       		.byte	0x1
 2098 0003 25       		.uleb128 0x25
 2099 0004 0E       		.uleb128 0xe
 2100 0005 13       		.uleb128 0x13
 2101 0006 0B       		.uleb128 0xb
 2102 0007 03       		.uleb128 0x3
 2103 0008 0E       		.uleb128 0xe
 2104 0009 1B       		.uleb128 0x1b
 2105 000a 0E       		.uleb128 0xe
 2106 000b 55       		.uleb128 0x55
 2107 000c 17       		.uleb128 0x17
 2108 000d 11       		.uleb128 0x11
 2109 000e 01       		.uleb128 0x1
ARM GAS  /var/folders/bz/nn5481rn5xq59rb0mbj7x0880000gn/T//cch2KHK9.s 			page 38


 2110 000f 10       		.uleb128 0x10
 2111 0010 17       		.uleb128 0x17
 2112 0011 00       		.byte	0
 2113 0012 00       		.byte	0
 2114 0013 02       		.uleb128 0x2
 2115 0014 24       		.uleb128 0x24
 2116 0015 00       		.byte	0
 2117 0016 0B       		.uleb128 0xb
 2118 0017 0B       		.uleb128 0xb
 2119 0018 3E       		.uleb128 0x3e
 2120 0019 0B       		.uleb128 0xb
 2121 001a 03       		.uleb128 0x3
 2122 001b 08       		.uleb128 0x8
 2123 001c 00       		.byte	0
 2124 001d 00       		.byte	0
 2125 001e 03       		.uleb128 0x3
 2126 001f 24       		.uleb128 0x24
 2127 0020 00       		.byte	0
 2128 0021 0B       		.uleb128 0xb
 2129 0022 0B       		.uleb128 0xb
 2130 0023 3E       		.uleb128 0x3e
 2131 0024 0B       		.uleb128 0xb
 2132 0025 03       		.uleb128 0x3
 2133 0026 0E       		.uleb128 0xe
 2134 0027 00       		.byte	0
 2135 0028 00       		.byte	0
 2136 0029 04       		.uleb128 0x4
 2137 002a 16       		.uleb128 0x16
 2138 002b 00       		.byte	0
 2139 002c 03       		.uleb128 0x3
 2140 002d 0E       		.uleb128 0xe
 2141 002e 3A       		.uleb128 0x3a
 2142 002f 0B       		.uleb128 0xb
 2143 0030 3B       		.uleb128 0x3b
 2144 0031 0B       		.uleb128 0xb
 2145 0032 49       		.uleb128 0x49
 2146 0033 13       		.uleb128 0x13
 2147 0034 00       		.byte	0
 2148 0035 00       		.byte	0
 2149 0036 05       		.uleb128 0x5
 2150 0037 13       		.uleb128 0x13
 2151 0038 01       		.byte	0x1
 2152 0039 03       		.uleb128 0x3
 2153 003a 0E       		.uleb128 0xe
 2154 003b 0B       		.uleb128 0xb
 2155 003c 0B       		.uleb128 0xb
 2156 003d 3A       		.uleb128 0x3a
 2157 003e 0B       		.uleb128 0xb
 2158 003f 3B       		.uleb128 0x3b
 2159 0040 0B       		.uleb128 0xb
 2160 0041 01       		.uleb128 0x1
 2161 0042 13       		.uleb128 0x13
 2162 0043 00       		.byte	0
 2163 0044 00       		.byte	0
 2164 0045 06       		.uleb128 0x6
 2165 0046 0D       		.uleb128 0xd
 2166 0047 00       		.byte	0
ARM GAS  /var/folders/bz/nn5481rn5xq59rb0mbj7x0880000gn/T//cch2KHK9.s 			page 39


 2167 0048 03       		.uleb128 0x3
 2168 0049 0E       		.uleb128 0xe
 2169 004a 3A       		.uleb128 0x3a
 2170 004b 0B       		.uleb128 0xb
 2171 004c 3B       		.uleb128 0x3b
 2172 004d 0B       		.uleb128 0xb
 2173 004e 49       		.uleb128 0x49
 2174 004f 13       		.uleb128 0x13
 2175 0050 38       		.uleb128 0x38
 2176 0051 0B       		.uleb128 0xb
 2177 0052 00       		.byte	0
 2178 0053 00       		.byte	0
 2179 0054 07       		.uleb128 0x7
 2180 0055 0D       		.uleb128 0xd
 2181 0056 00       		.byte	0
 2182 0057 03       		.uleb128 0x3
 2183 0058 08       		.uleb128 0x8
 2184 0059 3A       		.uleb128 0x3a
 2185 005a 0B       		.uleb128 0xb
 2186 005b 3B       		.uleb128 0x3b
 2187 005c 0B       		.uleb128 0xb
 2188 005d 49       		.uleb128 0x49
 2189 005e 13       		.uleb128 0x13
 2190 005f 38       		.uleb128 0x38
 2191 0060 0B       		.uleb128 0xb
 2192 0061 00       		.byte	0
 2193 0062 00       		.byte	0
 2194 0063 08       		.uleb128 0x8
 2195 0064 13       		.uleb128 0x13
 2196 0065 01       		.byte	0x1
 2197 0066 0B       		.uleb128 0xb
 2198 0067 0B       		.uleb128 0xb
 2199 0068 3A       		.uleb128 0x3a
 2200 0069 0B       		.uleb128 0xb
 2201 006a 3B       		.uleb128 0x3b
 2202 006b 0B       		.uleb128 0xb
 2203 006c 01       		.uleb128 0x1
 2204 006d 13       		.uleb128 0x13
 2205 006e 00       		.byte	0
 2206 006f 00       		.byte	0
 2207 0070 09       		.uleb128 0x9
 2208 0071 0F       		.uleb128 0xf
 2209 0072 00       		.byte	0
 2210 0073 0B       		.uleb128 0xb
 2211 0074 0B       		.uleb128 0xb
 2212 0075 49       		.uleb128 0x49
 2213 0076 13       		.uleb128 0x13
 2214 0077 00       		.byte	0
 2215 0078 00       		.byte	0
 2216 0079 0A       		.uleb128 0xa
 2217 007a 0F       		.uleb128 0xf
 2218 007b 00       		.byte	0
 2219 007c 0B       		.uleb128 0xb
 2220 007d 0B       		.uleb128 0xb
 2221 007e 00       		.byte	0
 2222 007f 00       		.byte	0
 2223 0080 0B       		.uleb128 0xb
ARM GAS  /var/folders/bz/nn5481rn5xq59rb0mbj7x0880000gn/T//cch2KHK9.s 			page 40


 2224 0081 13       		.uleb128 0x13
 2225 0082 01       		.byte	0x1
 2226 0083 03       		.uleb128 0x3
 2227 0084 0E       		.uleb128 0xe
 2228 0085 0B       		.uleb128 0xb
 2229 0086 0B       		.uleb128 0xb
 2230 0087 3A       		.uleb128 0x3a
 2231 0088 0B       		.uleb128 0xb
 2232 0089 3B       		.uleb128 0x3b
 2233 008a 05       		.uleb128 0x5
 2234 008b 01       		.uleb128 0x1
 2235 008c 13       		.uleb128 0x13
 2236 008d 00       		.byte	0
 2237 008e 00       		.byte	0
 2238 008f 0C       		.uleb128 0xc
 2239 0090 0D       		.uleb128 0xd
 2240 0091 00       		.byte	0
 2241 0092 03       		.uleb128 0x3
 2242 0093 08       		.uleb128 0x8
 2243 0094 3A       		.uleb128 0x3a
 2244 0095 0B       		.uleb128 0xb
 2245 0096 3B       		.uleb128 0x3b
 2246 0097 05       		.uleb128 0x5
 2247 0098 49       		.uleb128 0x49
 2248 0099 13       		.uleb128 0x13
 2249 009a 38       		.uleb128 0x38
 2250 009b 0B       		.uleb128 0xb
 2251 009c 00       		.byte	0
 2252 009d 00       		.byte	0
 2253 009e 0D       		.uleb128 0xd
 2254 009f 35       		.uleb128 0x35
 2255 00a0 00       		.byte	0
 2256 00a1 49       		.uleb128 0x49
 2257 00a2 13       		.uleb128 0x13
 2258 00a3 00       		.byte	0
 2259 00a4 00       		.byte	0
 2260 00a5 0E       		.uleb128 0xe
 2261 00a6 17       		.uleb128 0x17
 2262 00a7 01       		.byte	0x1
 2263 00a8 0B       		.uleb128 0xb
 2264 00a9 0B       		.uleb128 0xb
 2265 00aa 3A       		.uleb128 0x3a
 2266 00ab 0B       		.uleb128 0xb
 2267 00ac 3B       		.uleb128 0x3b
 2268 00ad 0B       		.uleb128 0xb
 2269 00ae 01       		.uleb128 0x1
 2270 00af 13       		.uleb128 0x13
 2271 00b0 00       		.byte	0
 2272 00b1 00       		.byte	0
 2273 00b2 0F       		.uleb128 0xf
 2274 00b3 0D       		.uleb128 0xd
 2275 00b4 00       		.byte	0
 2276 00b5 03       		.uleb128 0x3
 2277 00b6 0E       		.uleb128 0xe
 2278 00b7 3A       		.uleb128 0x3a
 2279 00b8 0B       		.uleb128 0xb
 2280 00b9 3B       		.uleb128 0x3b
ARM GAS  /var/folders/bz/nn5481rn5xq59rb0mbj7x0880000gn/T//cch2KHK9.s 			page 41


 2281 00ba 0B       		.uleb128 0xb
 2282 00bb 49       		.uleb128 0x49
 2283 00bc 13       		.uleb128 0x13
 2284 00bd 00       		.byte	0
 2285 00be 00       		.byte	0
 2286 00bf 10       		.uleb128 0x10
 2287 00c0 26       		.uleb128 0x26
 2288 00c1 00       		.byte	0
 2289 00c2 49       		.uleb128 0x49
 2290 00c3 13       		.uleb128 0x13
 2291 00c4 00       		.byte	0
 2292 00c5 00       		.byte	0
 2293 00c6 11       		.uleb128 0x11
 2294 00c7 2E       		.uleb128 0x2e
 2295 00c8 01       		.byte	0x1
 2296 00c9 03       		.uleb128 0x3
 2297 00ca 0E       		.uleb128 0xe
 2298 00cb 3A       		.uleb128 0x3a
 2299 00cc 0B       		.uleb128 0xb
 2300 00cd 3B       		.uleb128 0x3b
 2301 00ce 0B       		.uleb128 0xb
 2302 00cf 27       		.uleb128 0x27
 2303 00d0 19       		.uleb128 0x19
 2304 00d1 49       		.uleb128 0x49
 2305 00d2 13       		.uleb128 0x13
 2306 00d3 20       		.uleb128 0x20
 2307 00d4 0B       		.uleb128 0xb
 2308 00d5 01       		.uleb128 0x1
 2309 00d6 13       		.uleb128 0x13
 2310 00d7 00       		.byte	0
 2311 00d8 00       		.byte	0
 2312 00d9 12       		.uleb128 0x12
 2313 00da 05       		.uleb128 0x5
 2314 00db 00       		.byte	0
 2315 00dc 03       		.uleb128 0x3
 2316 00dd 08       		.uleb128 0x8
 2317 00de 3A       		.uleb128 0x3a
 2318 00df 0B       		.uleb128 0xb
 2319 00e0 3B       		.uleb128 0x3b
 2320 00e1 0B       		.uleb128 0xb
 2321 00e2 49       		.uleb128 0x49
 2322 00e3 13       		.uleb128 0x13
 2323 00e4 00       		.byte	0
 2324 00e5 00       		.byte	0
 2325 00e6 13       		.uleb128 0x13
 2326 00e7 34       		.uleb128 0x34
 2327 00e8 00       		.byte	0
 2328 00e9 03       		.uleb128 0x3
 2329 00ea 08       		.uleb128 0x8
 2330 00eb 3A       		.uleb128 0x3a
 2331 00ec 0B       		.uleb128 0xb
 2332 00ed 3B       		.uleb128 0x3b
 2333 00ee 0B       		.uleb128 0xb
 2334 00ef 49       		.uleb128 0x49
 2335 00f0 13       		.uleb128 0x13
 2336 00f1 00       		.byte	0
 2337 00f2 00       		.byte	0
ARM GAS  /var/folders/bz/nn5481rn5xq59rb0mbj7x0880000gn/T//cch2KHK9.s 			page 42


 2338 00f3 14       		.uleb128 0x14
 2339 00f4 2E       		.uleb128 0x2e
 2340 00f5 01       		.byte	0x1
 2341 00f6 03       		.uleb128 0x3
 2342 00f7 0E       		.uleb128 0xe
 2343 00f8 3A       		.uleb128 0x3a
 2344 00f9 0B       		.uleb128 0xb
 2345 00fa 3B       		.uleb128 0x3b
 2346 00fb 0B       		.uleb128 0xb
 2347 00fc 27       		.uleb128 0x27
 2348 00fd 19       		.uleb128 0x19
 2349 00fe 20       		.uleb128 0x20
 2350 00ff 0B       		.uleb128 0xb
 2351 0100 01       		.uleb128 0x1
 2352 0101 13       		.uleb128 0x13
 2353 0102 00       		.byte	0
 2354 0103 00       		.byte	0
 2355 0104 15       		.uleb128 0x15
 2356 0105 2E       		.uleb128 0x2e
 2357 0106 01       		.byte	0x1
 2358 0107 3F       		.uleb128 0x3f
 2359 0108 19       		.uleb128 0x19
 2360 0109 03       		.uleb128 0x3
 2361 010a 0E       		.uleb128 0xe
 2362 010b 3A       		.uleb128 0x3a
 2363 010c 0B       		.uleb128 0xb
 2364 010d 3B       		.uleb128 0x3b
 2365 010e 0B       		.uleb128 0xb
 2366 010f 27       		.uleb128 0x27
 2367 0110 19       		.uleb128 0x19
 2368 0111 49       		.uleb128 0x49
 2369 0112 13       		.uleb128 0x13
 2370 0113 20       		.uleb128 0x20
 2371 0114 0B       		.uleb128 0xb
 2372 0115 01       		.uleb128 0x1
 2373 0116 13       		.uleb128 0x13
 2374 0117 00       		.byte	0
 2375 0118 00       		.byte	0
 2376 0119 16       		.uleb128 0x16
 2377 011a 05       		.uleb128 0x5
 2378 011b 00       		.byte	0
 2379 011c 03       		.uleb128 0x3
 2380 011d 0E       		.uleb128 0xe
 2381 011e 3A       		.uleb128 0x3a
 2382 011f 0B       		.uleb128 0xb
 2383 0120 3B       		.uleb128 0x3b
 2384 0121 0B       		.uleb128 0xb
 2385 0122 49       		.uleb128 0x49
 2386 0123 13       		.uleb128 0x13
 2387 0124 00       		.byte	0
 2388 0125 00       		.byte	0
 2389 0126 17       		.uleb128 0x17
 2390 0127 2E       		.uleb128 0x2e
 2391 0128 01       		.byte	0x1
 2392 0129 3F       		.uleb128 0x3f
 2393 012a 19       		.uleb128 0x19
 2394 012b 03       		.uleb128 0x3
ARM GAS  /var/folders/bz/nn5481rn5xq59rb0mbj7x0880000gn/T//cch2KHK9.s 			page 43


 2395 012c 0E       		.uleb128 0xe
 2396 012d 3A       		.uleb128 0x3a
 2397 012e 0B       		.uleb128 0xb
 2398 012f 3B       		.uleb128 0x3b
 2399 0130 0B       		.uleb128 0xb
 2400 0131 27       		.uleb128 0x27
 2401 0132 19       		.uleb128 0x19
 2402 0133 11       		.uleb128 0x11
 2403 0134 01       		.uleb128 0x1
 2404 0135 12       		.uleb128 0x12
 2405 0136 06       		.uleb128 0x6
 2406 0137 40       		.uleb128 0x40
 2407 0138 18       		.uleb128 0x18
 2408 0139 9742     		.uleb128 0x2117
 2409 013b 19       		.uleb128 0x19
 2410 013c 01       		.uleb128 0x1
 2411 013d 13       		.uleb128 0x13
 2412 013e 00       		.byte	0
 2413 013f 00       		.byte	0
 2414 0140 18       		.uleb128 0x18
 2415 0141 05       		.uleb128 0x5
 2416 0142 00       		.byte	0
 2417 0143 03       		.uleb128 0x3
 2418 0144 08       		.uleb128 0x8
 2419 0145 3A       		.uleb128 0x3a
 2420 0146 0B       		.uleb128 0xb
 2421 0147 3B       		.uleb128 0x3b
 2422 0148 0B       		.uleb128 0xb
 2423 0149 49       		.uleb128 0x49
 2424 014a 13       		.uleb128 0x13
 2425 014b 02       		.uleb128 0x2
 2426 014c 18       		.uleb128 0x18
 2427 014d 00       		.byte	0
 2428 014e 00       		.byte	0
 2429 014f 19       		.uleb128 0x19
 2430 0150 05       		.uleb128 0x5
 2431 0151 00       		.byte	0
 2432 0152 03       		.uleb128 0x3
 2433 0153 08       		.uleb128 0x8
 2434 0154 3A       		.uleb128 0x3a
 2435 0155 0B       		.uleb128 0xb
 2436 0156 3B       		.uleb128 0x3b
 2437 0157 0B       		.uleb128 0xb
 2438 0158 49       		.uleb128 0x49
 2439 0159 13       		.uleb128 0x13
 2440 015a 02       		.uleb128 0x2
 2441 015b 17       		.uleb128 0x17
 2442 015c 00       		.byte	0
 2443 015d 00       		.byte	0
 2444 015e 1A       		.uleb128 0x1a
 2445 015f 34       		.uleb128 0x34
 2446 0160 00       		.byte	0
 2447 0161 03       		.uleb128 0x3
 2448 0162 08       		.uleb128 0x8
 2449 0163 3A       		.uleb128 0x3a
 2450 0164 0B       		.uleb128 0xb
 2451 0165 3B       		.uleb128 0x3b
ARM GAS  /var/folders/bz/nn5481rn5xq59rb0mbj7x0880000gn/T//cch2KHK9.s 			page 44


 2452 0166 0B       		.uleb128 0xb
 2453 0167 49       		.uleb128 0x49
 2454 0168 13       		.uleb128 0x13
 2455 0169 02       		.uleb128 0x2
 2456 016a 17       		.uleb128 0x17
 2457 016b 00       		.byte	0
 2458 016c 00       		.byte	0
 2459 016d 1B       		.uleb128 0x1b
 2460 016e 1D       		.uleb128 0x1d
 2461 016f 01       		.byte	0x1
 2462 0170 31       		.uleb128 0x31
 2463 0171 13       		.uleb128 0x13
 2464 0172 11       		.uleb128 0x11
 2465 0173 01       		.uleb128 0x1
 2466 0174 12       		.uleb128 0x12
 2467 0175 06       		.uleb128 0x6
 2468 0176 58       		.uleb128 0x58
 2469 0177 0B       		.uleb128 0xb
 2470 0178 59       		.uleb128 0x59
 2471 0179 0B       		.uleb128 0xb
 2472 017a 01       		.uleb128 0x1
 2473 017b 13       		.uleb128 0x13
 2474 017c 00       		.byte	0
 2475 017d 00       		.byte	0
 2476 017e 1C       		.uleb128 0x1c
 2477 017f 05       		.uleb128 0x5
 2478 0180 00       		.byte	0
 2479 0181 31       		.uleb128 0x31
 2480 0182 13       		.uleb128 0x13
 2481 0183 02       		.uleb128 0x2
 2482 0184 17       		.uleb128 0x17
 2483 0185 00       		.byte	0
 2484 0186 00       		.byte	0
 2485 0187 1D       		.uleb128 0x1d
 2486 0188 0B       		.uleb128 0xb
 2487 0189 01       		.byte	0x1
 2488 018a 11       		.uleb128 0x11
 2489 018b 01       		.uleb128 0x1
 2490 018c 12       		.uleb128 0x12
 2491 018d 06       		.uleb128 0x6
 2492 018e 00       		.byte	0
 2493 018f 00       		.byte	0
 2494 0190 1E       		.uleb128 0x1e
 2495 0191 34       		.uleb128 0x34
 2496 0192 00       		.byte	0
 2497 0193 31       		.uleb128 0x31
 2498 0194 13       		.uleb128 0x13
 2499 0195 02       		.uleb128 0x2
 2500 0196 17       		.uleb128 0x17
 2501 0197 00       		.byte	0
 2502 0198 00       		.byte	0
 2503 0199 1F       		.uleb128 0x1f
 2504 019a 898201   		.uleb128 0x4109
 2505 019d 00       		.byte	0
 2506 019e 11       		.uleb128 0x11
 2507 019f 01       		.uleb128 0x1
 2508 01a0 31       		.uleb128 0x31
ARM GAS  /var/folders/bz/nn5481rn5xq59rb0mbj7x0880000gn/T//cch2KHK9.s 			page 45


 2509 01a1 13       		.uleb128 0x13
 2510 01a2 00       		.byte	0
 2511 01a3 00       		.byte	0
 2512 01a4 20       		.uleb128 0x20
 2513 01a5 898201   		.uleb128 0x4109
 2514 01a8 01       		.byte	0x1
 2515 01a9 11       		.uleb128 0x11
 2516 01aa 01       		.uleb128 0x1
 2517 01ab 31       		.uleb128 0x31
 2518 01ac 13       		.uleb128 0x13
 2519 01ad 01       		.uleb128 0x1
 2520 01ae 13       		.uleb128 0x13
 2521 01af 00       		.byte	0
 2522 01b0 00       		.byte	0
 2523 01b1 21       		.uleb128 0x21
 2524 01b2 8A8201   		.uleb128 0x410a
 2525 01b5 00       		.byte	0
 2526 01b6 02       		.uleb128 0x2
 2527 01b7 18       		.uleb128 0x18
 2528 01b8 9142     		.uleb128 0x2111
 2529 01ba 18       		.uleb128 0x18
 2530 01bb 00       		.byte	0
 2531 01bc 00       		.byte	0
 2532 01bd 22       		.uleb128 0x22
 2533 01be 2E       		.uleb128 0x2e
 2534 01bf 01       		.byte	0x1
 2535 01c0 3F       		.uleb128 0x3f
 2536 01c1 19       		.uleb128 0x19
 2537 01c2 03       		.uleb128 0x3
 2538 01c3 0E       		.uleb128 0xe
 2539 01c4 3A       		.uleb128 0x3a
 2540 01c5 0B       		.uleb128 0xb
 2541 01c6 3B       		.uleb128 0x3b
 2542 01c7 0B       		.uleb128 0xb
 2543 01c8 27       		.uleb128 0x27
 2544 01c9 19       		.uleb128 0x19
 2545 01ca 49       		.uleb128 0x49
 2546 01cb 13       		.uleb128 0x13
 2547 01cc 11       		.uleb128 0x11
 2548 01cd 01       		.uleb128 0x1
 2549 01ce 12       		.uleb128 0x12
 2550 01cf 06       		.uleb128 0x6
 2551 01d0 40       		.uleb128 0x40
 2552 01d1 18       		.uleb128 0x18
 2553 01d2 9742     		.uleb128 0x2117
 2554 01d4 19       		.uleb128 0x19
 2555 01d5 01       		.uleb128 0x1
 2556 01d6 13       		.uleb128 0x13
 2557 01d7 00       		.byte	0
 2558 01d8 00       		.byte	0
 2559 01d9 23       		.uleb128 0x23
 2560 01da 1D       		.uleb128 0x1d
 2561 01db 01       		.byte	0x1
 2562 01dc 31       		.uleb128 0x31
 2563 01dd 13       		.uleb128 0x13
 2564 01de 52       		.uleb128 0x52
 2565 01df 01       		.uleb128 0x1
ARM GAS  /var/folders/bz/nn5481rn5xq59rb0mbj7x0880000gn/T//cch2KHK9.s 			page 46


 2566 01e0 55       		.uleb128 0x55
 2567 01e1 17       		.uleb128 0x17
 2568 01e2 58       		.uleb128 0x58
 2569 01e3 0B       		.uleb128 0xb
 2570 01e4 59       		.uleb128 0x59
 2571 01e5 0B       		.uleb128 0xb
 2572 01e6 00       		.byte	0
 2573 01e7 00       		.byte	0
 2574 01e8 24       		.uleb128 0x24
 2575 01e9 1D       		.uleb128 0x1d
 2576 01ea 01       		.byte	0x1
 2577 01eb 31       		.uleb128 0x31
 2578 01ec 13       		.uleb128 0x13
 2579 01ed 52       		.uleb128 0x52
 2580 01ee 01       		.uleb128 0x1
 2581 01ef 55       		.uleb128 0x55
 2582 01f0 17       		.uleb128 0x17
 2583 01f1 58       		.uleb128 0x58
 2584 01f2 0B       		.uleb128 0xb
 2585 01f3 59       		.uleb128 0x59
 2586 01f4 0B       		.uleb128 0xb
 2587 01f5 01       		.uleb128 0x1
 2588 01f6 13       		.uleb128 0x13
 2589 01f7 00       		.byte	0
 2590 01f8 00       		.byte	0
 2591 01f9 25       		.uleb128 0x25
 2592 01fa 898201   		.uleb128 0x4109
 2593 01fd 01       		.byte	0x1
 2594 01fe 11       		.uleb128 0x11
 2595 01ff 01       		.uleb128 0x1
 2596 0200 31       		.uleb128 0x31
 2597 0201 13       		.uleb128 0x13
 2598 0202 00       		.byte	0
 2599 0203 00       		.byte	0
 2600 0204 26       		.uleb128 0x26
 2601 0205 2E       		.uleb128 0x2e
 2602 0206 01       		.byte	0x1
 2603 0207 31       		.uleb128 0x31
 2604 0208 13       		.uleb128 0x13
 2605 0209 11       		.uleb128 0x11
 2606 020a 01       		.uleb128 0x1
 2607 020b 12       		.uleb128 0x12
 2608 020c 06       		.uleb128 0x6
 2609 020d 40       		.uleb128 0x40
 2610 020e 18       		.uleb128 0x18
 2611 020f 9742     		.uleb128 0x2117
 2612 0211 19       		.uleb128 0x19
 2613 0212 01       		.uleb128 0x1
 2614 0213 13       		.uleb128 0x13
 2615 0214 00       		.byte	0
 2616 0215 00       		.byte	0
 2617 0216 27       		.uleb128 0x27
 2618 0217 0B       		.uleb128 0xb
 2619 0218 01       		.byte	0x1
 2620 0219 55       		.uleb128 0x55
 2621 021a 17       		.uleb128 0x17
 2622 021b 00       		.byte	0
ARM GAS  /var/folders/bz/nn5481rn5xq59rb0mbj7x0880000gn/T//cch2KHK9.s 			page 47


 2623 021c 00       		.byte	0
 2624 021d 28       		.uleb128 0x28
 2625 021e 05       		.uleb128 0x5
 2626 021f 00       		.byte	0
 2627 0220 31       		.uleb128 0x31
 2628 0221 13       		.uleb128 0x13
 2629 0222 00       		.byte	0
 2630 0223 00       		.byte	0
 2631 0224 29       		.uleb128 0x29
 2632 0225 1D       		.uleb128 0x1d
 2633 0226 01       		.byte	0x1
 2634 0227 31       		.uleb128 0x31
 2635 0228 13       		.uleb128 0x13
 2636 0229 52       		.uleb128 0x52
 2637 022a 01       		.uleb128 0x1
 2638 022b 55       		.uleb128 0x55
 2639 022c 17       		.uleb128 0x17
 2640 022d 58       		.uleb128 0x58
 2641 022e 0B       		.uleb128 0xb
 2642 022f 59       		.uleb128 0x59
 2643 0230 05       		.uleb128 0x5
 2644 0231 01       		.uleb128 0x1
 2645 0232 13       		.uleb128 0x13
 2646 0233 00       		.byte	0
 2647 0234 00       		.byte	0
 2648 0235 2A       		.uleb128 0x2a
 2649 0236 898201   		.uleb128 0x4109
 2650 0239 01       		.byte	0x1
 2651 023a 11       		.uleb128 0x11
 2652 023b 01       		.uleb128 0x1
 2653 023c 9542     		.uleb128 0x2115
 2654 023e 19       		.uleb128 0x19
 2655 023f 31       		.uleb128 0x31
 2656 0240 13       		.uleb128 0x13
 2657 0241 00       		.byte	0
 2658 0242 00       		.byte	0
 2659 0243 2B       		.uleb128 0x2b
 2660 0244 05       		.uleb128 0x5
 2661 0245 00       		.byte	0
 2662 0246 03       		.uleb128 0x3
 2663 0247 0E       		.uleb128 0xe
 2664 0248 3A       		.uleb128 0x3a
 2665 0249 0B       		.uleb128 0xb
 2666 024a 3B       		.uleb128 0x3b
 2667 024b 0B       		.uleb128 0xb
 2668 024c 49       		.uleb128 0x49
 2669 024d 13       		.uleb128 0x13
 2670 024e 02       		.uleb128 0x2
 2671 024f 17       		.uleb128 0x17
 2672 0250 00       		.byte	0
 2673 0251 00       		.byte	0
 2674 0252 2C       		.uleb128 0x2c
 2675 0253 34       		.uleb128 0x34
 2676 0254 00       		.byte	0
 2677 0255 03       		.uleb128 0x3
 2678 0256 08       		.uleb128 0x8
 2679 0257 3A       		.uleb128 0x3a
ARM GAS  /var/folders/bz/nn5481rn5xq59rb0mbj7x0880000gn/T//cch2KHK9.s 			page 48


 2680 0258 0B       		.uleb128 0xb
 2681 0259 3B       		.uleb128 0x3b
 2682 025a 0B       		.uleb128 0xb
 2683 025b 49       		.uleb128 0x49
 2684 025c 13       		.uleb128 0x13
 2685 025d 02       		.uleb128 0x2
 2686 025e 18       		.uleb128 0x18
 2687 025f 00       		.byte	0
 2688 0260 00       		.byte	0
 2689 0261 2D       		.uleb128 0x2d
 2690 0262 2E       		.uleb128 0x2e
 2691 0263 01       		.byte	0x1
 2692 0264 3F       		.uleb128 0x3f
 2693 0265 19       		.uleb128 0x19
 2694 0266 03       		.uleb128 0x3
 2695 0267 0E       		.uleb128 0xe
 2696 0268 3A       		.uleb128 0x3a
 2697 0269 0B       		.uleb128 0xb
 2698 026a 3B       		.uleb128 0x3b
 2699 026b 05       		.uleb128 0x5
 2700 026c 27       		.uleb128 0x27
 2701 026d 19       		.uleb128 0x19
 2702 026e 11       		.uleb128 0x11
 2703 026f 01       		.uleb128 0x1
 2704 0270 12       		.uleb128 0x12
 2705 0271 06       		.uleb128 0x6
 2706 0272 40       		.uleb128 0x40
 2707 0273 18       		.uleb128 0x18
 2708 0274 9742     		.uleb128 0x2117
 2709 0276 19       		.uleb128 0x19
 2710 0277 01       		.uleb128 0x1
 2711 0278 13       		.uleb128 0x13
 2712 0279 00       		.byte	0
 2713 027a 00       		.byte	0
 2714 027b 2E       		.uleb128 0x2e
 2715 027c 05       		.uleb128 0x5
 2716 027d 00       		.byte	0
 2717 027e 03       		.uleb128 0x3
 2718 027f 08       		.uleb128 0x8
 2719 0280 3A       		.uleb128 0x3a
 2720 0281 0B       		.uleb128 0xb
 2721 0282 3B       		.uleb128 0x3b
 2722 0283 05       		.uleb128 0x5
 2723 0284 49       		.uleb128 0x49
 2724 0285 13       		.uleb128 0x13
 2725 0286 02       		.uleb128 0x2
 2726 0287 17       		.uleb128 0x17
 2727 0288 00       		.byte	0
 2728 0289 00       		.byte	0
 2729 028a 2F       		.uleb128 0x2f
 2730 028b 34       		.uleb128 0x34
 2731 028c 00       		.byte	0
 2732 028d 03       		.uleb128 0x3
 2733 028e 08       		.uleb128 0x8
 2734 028f 3A       		.uleb128 0x3a
 2735 0290 0B       		.uleb128 0xb
 2736 0291 3B       		.uleb128 0x3b
ARM GAS  /var/folders/bz/nn5481rn5xq59rb0mbj7x0880000gn/T//cch2KHK9.s 			page 49


 2737 0292 05       		.uleb128 0x5
 2738 0293 49       		.uleb128 0x49
 2739 0294 13       		.uleb128 0x13
 2740 0295 02       		.uleb128 0x2
 2741 0296 18       		.uleb128 0x18
 2742 0297 00       		.byte	0
 2743 0298 00       		.byte	0
 2744 0299 30       		.uleb128 0x30
 2745 029a 898201   		.uleb128 0x4109
 2746 029d 00       		.byte	0
 2747 029e 11       		.uleb128 0x11
 2748 029f 01       		.uleb128 0x1
 2749 02a0 9542     		.uleb128 0x2115
 2750 02a2 19       		.uleb128 0x19
 2751 02a3 31       		.uleb128 0x31
 2752 02a4 13       		.uleb128 0x13
 2753 02a5 00       		.byte	0
 2754 02a6 00       		.byte	0
 2755 02a7 31       		.uleb128 0x31
 2756 02a8 1D       		.uleb128 0x1d
 2757 02a9 01       		.byte	0x1
 2758 02aa 31       		.uleb128 0x31
 2759 02ab 13       		.uleb128 0x13
 2760 02ac 11       		.uleb128 0x11
 2761 02ad 01       		.uleb128 0x1
 2762 02ae 12       		.uleb128 0x12
 2763 02af 06       		.uleb128 0x6
 2764 02b0 58       		.uleb128 0x58
 2765 02b1 0B       		.uleb128 0xb
 2766 02b2 59       		.uleb128 0x59
 2767 02b3 05       		.uleb128 0x5
 2768 02b4 01       		.uleb128 0x1
 2769 02b5 13       		.uleb128 0x13
 2770 02b6 00       		.byte	0
 2771 02b7 00       		.byte	0
 2772 02b8 32       		.uleb128 0x32
 2773 02b9 2E       		.uleb128 0x2e
 2774 02ba 01       		.byte	0x1
 2775 02bb 3F       		.uleb128 0x3f
 2776 02bc 19       		.uleb128 0x19
 2777 02bd 03       		.uleb128 0x3
 2778 02be 0E       		.uleb128 0xe
 2779 02bf 3A       		.uleb128 0x3a
 2780 02c0 0B       		.uleb128 0xb
 2781 02c1 3B       		.uleb128 0x3b
 2782 02c2 05       		.uleb128 0x5
 2783 02c3 27       		.uleb128 0x27
 2784 02c4 19       		.uleb128 0x19
 2785 02c5 49       		.uleb128 0x49
 2786 02c6 13       		.uleb128 0x13
 2787 02c7 11       		.uleb128 0x11
 2788 02c8 01       		.uleb128 0x1
 2789 02c9 12       		.uleb128 0x12
 2790 02ca 06       		.uleb128 0x6
 2791 02cb 40       		.uleb128 0x40
 2792 02cc 18       		.uleb128 0x18
 2793 02cd 9742     		.uleb128 0x2117
ARM GAS  /var/folders/bz/nn5481rn5xq59rb0mbj7x0880000gn/T//cch2KHK9.s 			page 50


 2794 02cf 19       		.uleb128 0x19
 2795 02d0 01       		.uleb128 0x1
 2796 02d1 13       		.uleb128 0x13
 2797 02d2 00       		.byte	0
 2798 02d3 00       		.byte	0
 2799 02d4 33       		.uleb128 0x33
 2800 02d5 34       		.uleb128 0x34
 2801 02d6 00       		.byte	0
 2802 02d7 03       		.uleb128 0x3
 2803 02d8 08       		.uleb128 0x8
 2804 02d9 3A       		.uleb128 0x3a
 2805 02da 0B       		.uleb128 0xb
 2806 02db 3B       		.uleb128 0x3b
 2807 02dc 05       		.uleb128 0x5
 2808 02dd 49       		.uleb128 0x49
 2809 02de 13       		.uleb128 0x13
 2810 02df 02       		.uleb128 0x2
 2811 02e0 17       		.uleb128 0x17
 2812 02e1 00       		.byte	0
 2813 02e2 00       		.byte	0
 2814 02e3 34       		.uleb128 0x34
 2815 02e4 0B       		.uleb128 0xb
 2816 02e5 01       		.byte	0x1
 2817 02e6 11       		.uleb128 0x11
 2818 02e7 01       		.uleb128 0x1
 2819 02e8 12       		.uleb128 0x12
 2820 02e9 06       		.uleb128 0x6
 2821 02ea 01       		.uleb128 0x1
 2822 02eb 13       		.uleb128 0x13
 2823 02ec 00       		.byte	0
 2824 02ed 00       		.byte	0
 2825 02ee 35       		.uleb128 0x35
 2826 02ef 34       		.uleb128 0x34
 2827 02f0 00       		.byte	0
 2828 02f1 03       		.uleb128 0x3
 2829 02f2 0E       		.uleb128 0xe
 2830 02f3 3A       		.uleb128 0x3a
 2831 02f4 0B       		.uleb128 0xb
 2832 02f5 3B       		.uleb128 0x3b
 2833 02f6 0B       		.uleb128 0xb
 2834 02f7 49       		.uleb128 0x49
 2835 02f8 13       		.uleb128 0x13
 2836 02f9 3F       		.uleb128 0x3f
 2837 02fa 19       		.uleb128 0x19
 2838 02fb 3C       		.uleb128 0x3c
 2839 02fc 19       		.uleb128 0x19
 2840 02fd 00       		.byte	0
 2841 02fe 00       		.byte	0
 2842 02ff 36       		.uleb128 0x36
 2843 0300 2E       		.uleb128 0x2e
 2844 0301 01       		.byte	0x1
 2845 0302 3F       		.uleb128 0x3f
 2846 0303 19       		.uleb128 0x19
 2847 0304 03       		.uleb128 0x3
 2848 0305 0E       		.uleb128 0xe
 2849 0306 3A       		.uleb128 0x3a
 2850 0307 0B       		.uleb128 0xb
ARM GAS  /var/folders/bz/nn5481rn5xq59rb0mbj7x0880000gn/T//cch2KHK9.s 			page 51


 2851 0308 3B       		.uleb128 0x3b
 2852 0309 0B       		.uleb128 0xb
 2853 030a 27       		.uleb128 0x27
 2854 030b 19       		.uleb128 0x19
 2855 030c 49       		.uleb128 0x49
 2856 030d 13       		.uleb128 0x13
 2857 030e 3C       		.uleb128 0x3c
 2858 030f 19       		.uleb128 0x19
 2859 0310 01       		.uleb128 0x1
 2860 0311 13       		.uleb128 0x13
 2861 0312 00       		.byte	0
 2862 0313 00       		.byte	0
 2863 0314 37       		.uleb128 0x37
 2864 0315 05       		.uleb128 0x5
 2865 0316 00       		.byte	0
 2866 0317 49       		.uleb128 0x49
 2867 0318 13       		.uleb128 0x13
 2868 0319 00       		.byte	0
 2869 031a 00       		.byte	0
 2870 031b 38       		.uleb128 0x38
 2871 031c 2E       		.uleb128 0x2e
 2872 031d 00       		.byte	0
 2873 031e 3F       		.uleb128 0x3f
 2874 031f 19       		.uleb128 0x19
 2875 0320 03       		.uleb128 0x3
 2876 0321 0E       		.uleb128 0xe
 2877 0322 3A       		.uleb128 0x3a
 2878 0323 0B       		.uleb128 0xb
 2879 0324 3B       		.uleb128 0x3b
 2880 0325 0B       		.uleb128 0xb
 2881 0326 27       		.uleb128 0x27
 2882 0327 19       		.uleb128 0x19
 2883 0328 3C       		.uleb128 0x3c
 2884 0329 19       		.uleb128 0x19
 2885 032a 00       		.byte	0
 2886 032b 00       		.byte	0
 2887 032c 39       		.uleb128 0x39
 2888 032d 2E       		.uleb128 0x2e
 2889 032e 01       		.byte	0x1
 2890 032f 3F       		.uleb128 0x3f
 2891 0330 19       		.uleb128 0x19
 2892 0331 03       		.uleb128 0x3
 2893 0332 0E       		.uleb128 0xe
 2894 0333 3A       		.uleb128 0x3a
 2895 0334 0B       		.uleb128 0xb
 2896 0335 3B       		.uleb128 0x3b
 2897 0336 0B       		.uleb128 0xb
 2898 0337 27       		.uleb128 0x27
 2899 0338 19       		.uleb128 0x19
 2900 0339 3C       		.uleb128 0x3c
 2901 033a 19       		.uleb128 0x19
 2902 033b 01       		.uleb128 0x1
 2903 033c 13       		.uleb128 0x13
 2904 033d 00       		.byte	0
 2905 033e 00       		.byte	0
 2906 033f 3A       		.uleb128 0x3a
 2907 0340 2E       		.uleb128 0x2e
ARM GAS  /var/folders/bz/nn5481rn5xq59rb0mbj7x0880000gn/T//cch2KHK9.s 			page 52


 2908 0341 01       		.byte	0x1
 2909 0342 3F       		.uleb128 0x3f
 2910 0343 19       		.uleb128 0x19
 2911 0344 03       		.uleb128 0x3
 2912 0345 0E       		.uleb128 0xe
 2913 0346 3A       		.uleb128 0x3a
 2914 0347 0B       		.uleb128 0xb
 2915 0348 3B       		.uleb128 0x3b
 2916 0349 0B       		.uleb128 0xb
 2917 034a 27       		.uleb128 0x27
 2918 034b 19       		.uleb128 0x19
 2919 034c 3C       		.uleb128 0x3c
 2920 034d 19       		.uleb128 0x19
 2921 034e 00       		.byte	0
 2922 034f 00       		.byte	0
 2923 0350 00       		.byte	0
 2924              		.section	.debug_loc,"",%progbits
 2925              	.Ldebug_loc0:
 2926              	.LLST0:
 2927 0000 00000000 		.4byte	.LVL1
 2928 0004 12000000 		.4byte	.LVL4
 2929 0008 0100     		.2byte	0x1
 2930 000a 50       		.byte	0x50
 2931 000b 12000000 		.4byte	.LVL4
 2932 000f 26000000 		.4byte	.LVL9
 2933 0013 0100     		.2byte	0x1
 2934 0015 54       		.byte	0x54
 2935 0016 26000000 		.4byte	.LVL9
 2936 001a 28000000 		.4byte	.LFE9
 2937 001e 0400     		.2byte	0x4
 2938 0020 F3       		.byte	0xf3
 2939 0021 01       		.uleb128 0x1
 2940 0022 50       		.byte	0x50
 2941 0023 9F       		.byte	0x9f
 2942 0024 00000000 		.4byte	0
 2943 0028 00000000 		.4byte	0
 2944              	.LLST1:
 2945 002c 00000000 		.4byte	.LVL1
 2946 0030 12000000 		.4byte	.LVL4
 2947 0034 0100     		.2byte	0x1
 2948 0036 51       		.byte	0x51
 2949 0037 12000000 		.4byte	.LVL4
 2950 003b 28000000 		.4byte	.LFE9
 2951 003f 0400     		.2byte	0x4
 2952 0041 F3       		.byte	0xf3
 2953 0042 01       		.uleb128 0x1
 2954 0043 51       		.byte	0x51
 2955 0044 9F       		.byte	0x9f
 2956 0045 00000000 		.4byte	0
 2957 0049 00000000 		.4byte	0
 2958              	.LLST2:
 2959 004d 04000000 		.4byte	.LVL2
 2960 0051 20000000 		.4byte	.LVL7
 2961 0055 0100     		.2byte	0x1
 2962 0057 55       		.byte	0x55
 2963 0058 20000000 		.4byte	.LVL7
 2964 005c 24000000 		.4byte	.LVL8
ARM GAS  /var/folders/bz/nn5481rn5xq59rb0mbj7x0880000gn/T//cch2KHK9.s 			page 53


 2965 0060 0300     		.2byte	0x3
 2966 0062 75       		.byte	0x75
 2967 0063 7F       		.sleb128 -1
 2968 0064 9F       		.byte	0x9f
 2969 0065 24000000 		.4byte	.LVL8
 2970 0069 28000000 		.4byte	.LFE9
 2971 006d 0100     		.2byte	0x1
 2972 006f 55       		.byte	0x55
 2973 0070 00000000 		.4byte	0
 2974 0074 00000000 		.4byte	0
 2975              	.LLST3:
 2976 0078 12000000 		.4byte	.LVL4
 2977 007c 26000000 		.4byte	.LVL9
 2978 0080 0100     		.2byte	0x1
 2979 0082 54       		.byte	0x54
 2980 0083 00000000 		.4byte	0
 2981 0087 00000000 		.4byte	0
 2982              	.LLST4:
 2983 008b 14000000 		.4byte	.LVL5
 2984 008f 1D000000 		.4byte	.LVL6-1
 2985 0093 0100     		.2byte	0x1
 2986 0095 50       		.byte	0x50
 2987 0096 00000000 		.4byte	0
 2988 009a 00000000 		.4byte	0
 2989              	.LLST5:
 2990 009e 00000000 		.4byte	.LVL10
 2991 00a2 07000000 		.4byte	.LVL11-1
 2992 00a6 0100     		.2byte	0x1
 2993 00a8 50       		.byte	0x50
 2994 00a9 07000000 		.4byte	.LVL11-1
 2995 00ad 10000000 		.4byte	.LFE8
 2996 00b1 0400     		.2byte	0x4
 2997 00b3 F3       		.byte	0xf3
 2998 00b4 01       		.uleb128 0x1
 2999 00b5 50       		.byte	0x50
 3000 00b6 9F       		.byte	0x9f
 3001 00b7 00000000 		.4byte	0
 3002 00bb 00000000 		.4byte	0
 3003              	.LLST6:
 3004 00bf 00000000 		.4byte	.LVL10
 3005 00c3 07000000 		.4byte	.LVL11-1
 3006 00c7 0100     		.2byte	0x1
 3007 00c9 51       		.byte	0x51
 3008 00ca 07000000 		.4byte	.LVL11-1
 3009 00ce 10000000 		.4byte	.LFE8
 3010 00d2 0400     		.2byte	0x4
 3011 00d4 F3       		.byte	0xf3
 3012 00d5 01       		.uleb128 0x1
 3013 00d6 51       		.byte	0x51
 3014 00d7 9F       		.byte	0x9f
 3015 00d8 00000000 		.4byte	0
 3016 00dc 00000000 		.4byte	0
 3017              	.LLST7:
 3018 00e0 00000000 		.4byte	.LVL13
 3019 00e4 0E000000 		.4byte	.LVL15
 3020 00e8 0100     		.2byte	0x1
 3021 00ea 50       		.byte	0x50
ARM GAS  /var/folders/bz/nn5481rn5xq59rb0mbj7x0880000gn/T//cch2KHK9.s 			page 54


 3022 00eb 0E000000 		.4byte	.LVL15
 3023 00ef 12000000 		.4byte	.LVL16
 3024 00f3 0400     		.2byte	0x4
 3025 00f5 F3       		.byte	0xf3
 3026 00f6 01       		.uleb128 0x1
 3027 00f7 50       		.byte	0x50
 3028 00f8 9F       		.byte	0x9f
 3029 00f9 12000000 		.4byte	.LVL16
 3030 00fd 26000000 		.4byte	.LVL18
 3031 0101 0100     		.2byte	0x1
 3032 0103 50       		.byte	0x50
 3033 0104 26000000 		.4byte	.LVL18
 3034 0108 2B000000 		.4byte	.LVL19-1
 3035 010c 0100     		.2byte	0x1
 3036 010e 53       		.byte	0x53
 3037 010f 2B000000 		.4byte	.LVL19-1
 3038 0113 38000000 		.4byte	.LFE10
 3039 0117 0400     		.2byte	0x4
 3040 0119 F3       		.byte	0xf3
 3041 011a 01       		.uleb128 0x1
 3042 011b 50       		.byte	0x50
 3043 011c 9F       		.byte	0x9f
 3044 011d 00000000 		.4byte	0
 3045 0121 00000000 		.4byte	0
 3046              	.LLST8:
 3047 0125 02000000 		.4byte	.LVL14
 3048 0129 0E000000 		.4byte	.LVL15
 3049 012d 0100     		.2byte	0x1
 3050 012f 50       		.byte	0x50
 3051 0130 0E000000 		.4byte	.LVL15
 3052 0134 12000000 		.4byte	.LVL16
 3053 0138 0400     		.2byte	0x4
 3054 013a F3       		.byte	0xf3
 3055 013b 01       		.uleb128 0x1
 3056 013c 50       		.byte	0x50
 3057 013d 9F       		.byte	0x9f
 3058 013e 12000000 		.4byte	.LVL16
 3059 0142 26000000 		.4byte	.LVL18
 3060 0146 0100     		.2byte	0x1
 3061 0148 50       		.byte	0x50
 3062 0149 26000000 		.4byte	.LVL18
 3063 014d 2B000000 		.4byte	.LVL19-1
 3064 0151 0100     		.2byte	0x1
 3065 0153 53       		.byte	0x53
 3066 0154 2B000000 		.4byte	.LVL19-1
 3067 0158 38000000 		.4byte	.LFE10
 3068 015c 0400     		.2byte	0x4
 3069 015e F3       		.byte	0xf3
 3070 015f 01       		.uleb128 0x1
 3071 0160 50       		.byte	0x50
 3072 0161 9F       		.byte	0x9f
 3073 0162 00000000 		.4byte	0
 3074 0166 00000000 		.4byte	0
 3075              	.LLST9:
 3076 016a 20000000 		.4byte	.LVL17
 3077 016e 2B000000 		.4byte	.LVL19-1
 3078 0172 0100     		.2byte	0x1
ARM GAS  /var/folders/bz/nn5481rn5xq59rb0mbj7x0880000gn/T//cch2KHK9.s 			page 55


 3079 0174 53       		.byte	0x53
 3080 0175 2B000000 		.4byte	.LVL19-1
 3081 0179 38000000 		.4byte	.LFE10
 3082 017d 0400     		.2byte	0x4
 3083 017f F3       		.byte	0xf3
 3084 0180 01       		.uleb128 0x1
 3085 0181 50       		.byte	0x50
 3086 0182 9F       		.byte	0x9f
 3087 0183 00000000 		.4byte	0
 3088 0187 00000000 		.4byte	0
 3089              	.LLST11:
 3090 018b 20000000 		.4byte	.LVL17
 3091 018f 2B000000 		.4byte	.LVL19-1
 3092 0193 0100     		.2byte	0x1
 3093 0195 52       		.byte	0x52
 3094 0196 00000000 		.4byte	0
 3095 019a 00000000 		.4byte	0
 3096              	.LLST12:
 3097 019e 00000000 		.4byte	.LVL20
 3098 01a2 0C000000 		.4byte	.LVL21
 3099 01a6 0100     		.2byte	0x1
 3100 01a8 50       		.byte	0x50
 3101 01a9 0C000000 		.4byte	.LVL21
 3102 01ad 0E000000 		.4byte	.LVL22
 3103 01b1 0400     		.2byte	0x4
 3104 01b3 F3       		.byte	0xf3
 3105 01b4 01       		.uleb128 0x1
 3106 01b5 50       		.byte	0x50
 3107 01b6 9F       		.byte	0x9f
 3108 01b7 0E000000 		.4byte	.LVL22
 3109 01bb 22000000 		.4byte	.LVL24
 3110 01bf 0100     		.2byte	0x1
 3111 01c1 50       		.byte	0x50
 3112 01c2 22000000 		.4byte	.LVL24
 3113 01c6 27000000 		.4byte	.LVL25-1
 3114 01ca 0100     		.2byte	0x1
 3115 01cc 53       		.byte	0x53
 3116 01cd 27000000 		.4byte	.LVL25-1
 3117 01d1 34000000 		.4byte	.LFE11
 3118 01d5 0400     		.2byte	0x4
 3119 01d7 F3       		.byte	0xf3
 3120 01d8 01       		.uleb128 0x1
 3121 01d9 50       		.byte	0x50
 3122 01da 9F       		.byte	0x9f
 3123 01db 00000000 		.4byte	0
 3124 01df 00000000 		.4byte	0
 3125              	.LLST13:
 3126 01e3 1C000000 		.4byte	.LVL23
 3127 01e7 27000000 		.4byte	.LVL25-1
 3128 01eb 0100     		.2byte	0x1
 3129 01ed 53       		.byte	0x53
 3130 01ee 27000000 		.4byte	.LVL25-1
 3131 01f2 34000000 		.4byte	.LFE11
 3132 01f6 0400     		.2byte	0x4
 3133 01f8 F3       		.byte	0xf3
 3134 01f9 01       		.uleb128 0x1
 3135 01fa 50       		.byte	0x50
ARM GAS  /var/folders/bz/nn5481rn5xq59rb0mbj7x0880000gn/T//cch2KHK9.s 			page 56


 3136 01fb 9F       		.byte	0x9f
 3137 01fc 00000000 		.4byte	0
 3138 0200 00000000 		.4byte	0
 3139              	.LLST15:
 3140 0204 1C000000 		.4byte	.LVL23
 3141 0208 27000000 		.4byte	.LVL25-1
 3142 020c 0100     		.2byte	0x1
 3143 020e 52       		.byte	0x52
 3144 020f 00000000 		.4byte	0
 3145 0213 00000000 		.4byte	0
 3146              	.LLST16:
 3147 0217 00000000 		.4byte	.LVL26
 3148 021b 04000000 		.4byte	.LVL27
 3149 021f 0100     		.2byte	0x1
 3150 0221 50       		.byte	0x50
 3151 0222 04000000 		.4byte	.LVL27
 3152 0226 2D000000 		.4byte	.LVL30-1
 3153 022a 0100     		.2byte	0x1
 3154 022c 53       		.byte	0x53
 3155 022d 2D000000 		.4byte	.LVL30-1
 3156 0231 2E000000 		.4byte	.LVL30
 3157 0235 0400     		.2byte	0x4
 3158 0237 F3       		.byte	0xf3
 3159 0238 01       		.uleb128 0x1
 3160 0239 50       		.byte	0x50
 3161 023a 9F       		.byte	0x9f
 3162 023b 2E000000 		.4byte	.LVL30
 3163 023f 40000000 		.4byte	.LFE13
 3164 0243 0100     		.2byte	0x1
 3165 0245 53       		.byte	0x53
 3166 0246 00000000 		.4byte	0
 3167 024a 00000000 		.4byte	0
 3168              	.LLST17:
 3169 024e 00000000 		.4byte	.LVL26
 3170 0252 2D000000 		.4byte	.LVL30-1
 3171 0256 0100     		.2byte	0x1
 3172 0258 51       		.byte	0x51
 3173 0259 2D000000 		.4byte	.LVL30-1
 3174 025d 2E000000 		.4byte	.LVL30
 3175 0261 0400     		.2byte	0x4
 3176 0263 F3       		.byte	0xf3
 3177 0264 01       		.uleb128 0x1
 3178 0265 51       		.byte	0x51
 3179 0266 9F       		.byte	0x9f
 3180 0267 2E000000 		.4byte	.LVL30
 3181 026b 40000000 		.4byte	.LFE13
 3182 026f 0100     		.2byte	0x1
 3183 0271 51       		.byte	0x51
 3184 0272 00000000 		.4byte	0
 3185 0276 00000000 		.4byte	0
 3186              	.LLST18:
 3187 027a 14000000 		.4byte	.LVL28
 3188 027e 2D000000 		.4byte	.LVL30-1
 3189 0282 0100     		.2byte	0x1
 3190 0284 53       		.byte	0x53
 3191 0285 2D000000 		.4byte	.LVL30-1
 3192 0289 2E000000 		.4byte	.LVL30
ARM GAS  /var/folders/bz/nn5481rn5xq59rb0mbj7x0880000gn/T//cch2KHK9.s 			page 57


 3193 028d 0400     		.2byte	0x4
 3194 028f F3       		.byte	0xf3
 3195 0290 01       		.uleb128 0x1
 3196 0291 50       		.byte	0x50
 3197 0292 9F       		.byte	0x9f
 3198 0293 00000000 		.4byte	0
 3199 0297 00000000 		.4byte	0
 3200              	.LLST19:
 3201 029b 1A000000 		.4byte	.LVL29
 3202 029f 2D000000 		.4byte	.LVL30-1
 3203 02a3 0100     		.2byte	0x1
 3204 02a5 53       		.byte	0x53
 3205 02a6 2D000000 		.4byte	.LVL30-1
 3206 02aa 2E000000 		.4byte	.LVL30
 3207 02ae 0400     		.2byte	0x4
 3208 02b0 F3       		.byte	0xf3
 3209 02b1 01       		.uleb128 0x1
 3210 02b2 50       		.byte	0x50
 3211 02b3 9F       		.byte	0x9f
 3212 02b4 00000000 		.4byte	0
 3213 02b8 00000000 		.4byte	0
 3214              	.LLST20:
 3215 02bc 1A000000 		.4byte	.LVL29
 3216 02c0 2D000000 		.4byte	.LVL30-1
 3217 02c4 0100     		.2byte	0x1
 3218 02c6 52       		.byte	0x52
 3219 02c7 00000000 		.4byte	0
 3220 02cb 00000000 		.4byte	0
 3221              	.LLST21:
 3222 02cf 00000000 		.4byte	.LVL31
 3223 02d3 07000000 		.4byte	.LVL32-1
 3224 02d7 0100     		.2byte	0x1
 3225 02d9 50       		.byte	0x50
 3226 02da 07000000 		.4byte	.LVL32-1
 3227 02de 0C000000 		.4byte	.LFE12
 3228 02e2 0400     		.2byte	0x4
 3229 02e4 F3       		.byte	0xf3
 3230 02e5 01       		.uleb128 0x1
 3231 02e6 50       		.byte	0x50
 3232 02e7 9F       		.byte	0x9f
 3233 02e8 00000000 		.4byte	0
 3234 02ec 00000000 		.4byte	0
 3235              	.LLST22:
 3236 02f0 00000000 		.4byte	.LVL31
 3237 02f4 07000000 		.4byte	.LVL32-1
 3238 02f8 0100     		.2byte	0x1
 3239 02fa 51       		.byte	0x51
 3240 02fb 07000000 		.4byte	.LVL32-1
 3241 02ff 0C000000 		.4byte	.LFE12
 3242 0303 0400     		.2byte	0x4
 3243 0305 F3       		.byte	0xf3
 3244 0306 01       		.uleb128 0x1
 3245 0307 51       		.byte	0x51
 3246 0308 9F       		.byte	0x9f
 3247 0309 00000000 		.4byte	0
 3248 030d 00000000 		.4byte	0
 3249              	.LLST23:
ARM GAS  /var/folders/bz/nn5481rn5xq59rb0mbj7x0880000gn/T//cch2KHK9.s 			page 58


 3250 0311 00000000 		.4byte	.LVL33
 3251 0315 16000000 		.4byte	.LVL35
 3252 0319 0100     		.2byte	0x1
 3253 031b 50       		.byte	0x50
 3254 031c 16000000 		.4byte	.LVL35
 3255 0320 21000000 		.4byte	.LVL36-1
 3256 0324 0100     		.2byte	0x1
 3257 0326 53       		.byte	0x53
 3258 0327 21000000 		.4byte	.LVL36-1
 3259 032b 26000000 		.4byte	.LFE14
 3260 032f 0400     		.2byte	0x4
 3261 0331 F3       		.byte	0xf3
 3262 0332 01       		.uleb128 0x1
 3263 0333 50       		.byte	0x50
 3264 0334 9F       		.byte	0x9f
 3265 0335 00000000 		.4byte	0
 3266 0339 00000000 		.4byte	0
 3267              	.LLST24:
 3268 033d 14000000 		.4byte	.LVL34
 3269 0341 21000000 		.4byte	.LVL36-1
 3270 0345 0100     		.2byte	0x1
 3271 0347 53       		.byte	0x53
 3272 0348 21000000 		.4byte	.LVL36-1
 3273 034c 26000000 		.4byte	.LFE14
 3274 0350 0400     		.2byte	0x4
 3275 0352 F3       		.byte	0xf3
 3276 0353 01       		.uleb128 0x1
 3277 0354 50       		.byte	0x50
 3278 0355 9F       		.byte	0x9f
 3279 0356 00000000 		.4byte	0
 3280 035a 00000000 		.4byte	0
 3281              	.LLST25:
 3282 035e 16000000 		.4byte	.LVL35
 3283 0362 21000000 		.4byte	.LVL36-1
 3284 0366 0100     		.2byte	0x1
 3285 0368 50       		.byte	0x50
 3286 0369 00000000 		.4byte	0
 3287 036d 00000000 		.4byte	0
 3288              	.LLST26:
 3289 0371 00000000 		.4byte	.LVL37
 3290 0375 18000000 		.4byte	.LVL40
 3291 0379 0100     		.2byte	0x1
 3292 037b 50       		.byte	0x50
 3293 037c 18000000 		.4byte	.LVL40
 3294 0380 1D000000 		.4byte	.LVL41-1
 3295 0384 0200     		.2byte	0x2
 3296 0386 72       		.byte	0x72
 3297 0387 04       		.sleb128 4
 3298 0388 1D000000 		.4byte	.LVL41-1
 3299 038c 1E000000 		.4byte	.LFE15
 3300 0390 0400     		.2byte	0x4
 3301 0392 F3       		.byte	0xf3
 3302 0393 01       		.uleb128 0x1
 3303 0394 50       		.byte	0x50
 3304 0395 9F       		.byte	0x9f
 3305 0396 00000000 		.4byte	0
 3306 039a 00000000 		.4byte	0
ARM GAS  /var/folders/bz/nn5481rn5xq59rb0mbj7x0880000gn/T//cch2KHK9.s 			page 59


 3307              	.LLST27:
 3308 039e 0C000000 		.4byte	.LVL38
 3309 03a2 18000000 		.4byte	.LVL40
 3310 03a6 0100     		.2byte	0x1
 3311 03a8 50       		.byte	0x50
 3312 03a9 18000000 		.4byte	.LVL40
 3313 03ad 1D000000 		.4byte	.LVL41-1
 3314 03b1 0200     		.2byte	0x2
 3315 03b3 72       		.byte	0x72
 3316 03b4 04       		.sleb128 4
 3317 03b5 1D000000 		.4byte	.LVL41-1
 3318 03b9 1E000000 		.4byte	.LFE15
 3319 03bd 0400     		.2byte	0x4
 3320 03bf F3       		.byte	0xf3
 3321 03c0 01       		.uleb128 0x1
 3322 03c1 50       		.byte	0x50
 3323 03c2 9F       		.byte	0x9f
 3324 03c3 00000000 		.4byte	0
 3325 03c7 00000000 		.4byte	0
 3326              	.LLST28:
 3327 03cb 0E000000 		.4byte	.LVL39
 3328 03cf 1D000000 		.4byte	.LVL41-1
 3329 03d3 0100     		.2byte	0x1
 3330 03d5 53       		.byte	0x53
 3331 03d6 00000000 		.4byte	0
 3332 03da 00000000 		.4byte	0
 3333              	.LLST29:
 3334 03de 00000000 		.4byte	.LVL42
 3335 03e2 0C000000 		.4byte	.LVL43
 3336 03e6 0100     		.2byte	0x1
 3337 03e8 50       		.byte	0x50
 3338 03e9 0C000000 		.4byte	.LVL43
 3339 03ed 2C000000 		.4byte	.LVL51
 3340 03f1 0100     		.2byte	0x1
 3341 03f3 55       		.byte	0x55
 3342 03f4 2C000000 		.4byte	.LVL51
 3343 03f8 2E000000 		.4byte	.LFE16
 3344 03fc 0400     		.2byte	0x4
 3345 03fe F3       		.byte	0xf3
 3346 03ff 01       		.uleb128 0x1
 3347 0400 50       		.byte	0x50
 3348 0401 9F       		.byte	0x9f
 3349 0402 00000000 		.4byte	0
 3350 0406 00000000 		.4byte	0
 3351              	.LLST30:
 3352 040a 00000000 		.4byte	.LVL42
 3353 040e 0C000000 		.4byte	.LVL43
 3354 0412 0100     		.2byte	0x1
 3355 0414 51       		.byte	0x51
 3356 0415 0C000000 		.4byte	.LVL43
 3357 0419 0E000000 		.4byte	.LVL44
 3358 041d 0300     		.2byte	0x3
 3359 041f 74       		.byte	0x74
 3360 0420 7F       		.sleb128 -1
 3361 0421 9F       		.byte	0x9f
 3362 0422 0E000000 		.4byte	.LVL44
 3363 0426 28000000 		.4byte	.LVL49
ARM GAS  /var/folders/bz/nn5481rn5xq59rb0mbj7x0880000gn/T//cch2KHK9.s 			page 60


 3364 042a 0100     		.2byte	0x1
 3365 042c 54       		.byte	0x54
 3366 042d 28000000 		.4byte	.LVL49
 3367 0431 2A000000 		.4byte	.LVL50
 3368 0435 0300     		.2byte	0x3
 3369 0437 74       		.byte	0x74
 3370 0438 01       		.sleb128 1
 3371 0439 9F       		.byte	0x9f
 3372 043a 00000000 		.4byte	0
 3373 043e 00000000 		.4byte	0
 3374              	.LLST31:
 3375 0442 1A000000 		.4byte	.LVL46
 3376 0446 2C000000 		.4byte	.LVL51
 3377 044a 0100     		.2byte	0x1
 3378 044c 55       		.byte	0x55
 3379 044d 00000000 		.4byte	0
 3380 0451 00000000 		.4byte	0
 3381              	.LLST32:
 3382 0455 1C000000 		.4byte	.LVL47
 3383 0459 25000000 		.4byte	.LVL48-1
 3384 045d 0100     		.2byte	0x1
 3385 045f 50       		.byte	0x50
 3386 0460 00000000 		.4byte	0
 3387 0464 00000000 		.4byte	0
 3388              	.LLST33:
 3389 0468 00000000 		.4byte	.LVL52
 3390 046c 12000000 		.4byte	.LVL53
 3391 0470 0100     		.2byte	0x1
 3392 0472 50       		.byte	0x50
 3393 0473 12000000 		.4byte	.LVL53
 3394 0477 46000000 		.4byte	.LVL60
 3395 047b 0400     		.2byte	0x4
 3396 047d F3       		.byte	0xf3
 3397 047e 01       		.uleb128 0x1
 3398 047f 50       		.byte	0x50
 3399 0480 9F       		.byte	0x9f
 3400 0481 46000000 		.4byte	.LVL60
 3401 0485 48000000 		.4byte	.LVL61
 3402 0489 0100     		.2byte	0x1
 3403 048b 50       		.byte	0x50
 3404 048c 48000000 		.4byte	.LVL61
 3405 0490 53000000 		.4byte	.LVL63-1
 3406 0494 0100     		.2byte	0x1
 3407 0496 52       		.byte	0x52
 3408 0497 53000000 		.4byte	.LVL63-1
 3409 049b 60000000 		.4byte	.LFE17
 3410 049f 0400     		.2byte	0x4
 3411 04a1 F3       		.byte	0xf3
 3412 04a2 01       		.uleb128 0x1
 3413 04a3 50       		.byte	0x50
 3414 04a4 9F       		.byte	0x9f
 3415 04a5 00000000 		.4byte	0
 3416 04a9 00000000 		.4byte	0
 3417              	.LLST34:
 3418 04ad 00000000 		.4byte	.LVL52
 3419 04b1 12000000 		.4byte	.LVL53
 3420 04b5 0100     		.2byte	0x1
ARM GAS  /var/folders/bz/nn5481rn5xq59rb0mbj7x0880000gn/T//cch2KHK9.s 			page 61


 3421 04b7 51       		.byte	0x51
 3422 04b8 12000000 		.4byte	.LVL53
 3423 04bc 46000000 		.4byte	.LVL60
 3424 04c0 0400     		.2byte	0x4
 3425 04c2 F3       		.byte	0xf3
 3426 04c3 01       		.uleb128 0x1
 3427 04c4 51       		.byte	0x51
 3428 04c5 9F       		.byte	0x9f
 3429 04c6 46000000 		.4byte	.LVL60
 3430 04ca 53000000 		.4byte	.LVL63-1
 3431 04ce 0100     		.2byte	0x1
 3432 04d0 51       		.byte	0x51
 3433 04d1 53000000 		.4byte	.LVL63-1
 3434 04d5 60000000 		.4byte	.LFE17
 3435 04d9 0200     		.2byte	0x2
 3436 04db 91       		.byte	0x91
 3437 04dc 74       		.sleb128 -12
 3438 04dd 00000000 		.4byte	0
 3439 04e1 00000000 		.4byte	0
 3440              	.LLST35:
 3441 04e5 20000000 		.4byte	.LVL54
 3442 04e9 22000000 		.4byte	.LVL55
 3443 04ed 0200     		.2byte	0x2
 3444 04ef 30       		.byte	0x30
 3445 04f0 9F       		.byte	0x9f
 3446 04f1 22000000 		.4byte	.LVL55
 3447 04f5 28000000 		.4byte	.LVL56
 3448 04f9 0100     		.2byte	0x1
 3449 04fb 50       		.byte	0x50
 3450 04fc 40000000 		.4byte	.LVL59
 3451 0500 46000000 		.4byte	.LVL60
 3452 0504 0100     		.2byte	0x1
 3453 0506 50       		.byte	0x50
 3454 0507 00000000 		.4byte	0
 3455 050b 00000000 		.4byte	0
 3456              	.LLST36:
 3457 050f 2E000000 		.4byte	.LVL57
 3458 0513 46000000 		.4byte	.LVL60
 3459 0517 0100     		.2byte	0x1
 3460 0519 54       		.byte	0x54
 3461 051a 00000000 		.4byte	0
 3462 051e 00000000 		.4byte	0
 3463              	.LLST37:
 3464 0522 2E000000 		.4byte	.LVL57
 3465 0526 3D000000 		.4byte	.LVL58-1
 3466 052a 0100     		.2byte	0x1
 3467 052c 51       		.byte	0x51
 3468 052d 00000000 		.4byte	0
 3469 0531 00000000 		.4byte	0
 3470              	.LLST39:
 3471 0535 4A000000 		.4byte	.LVL62
 3472 0539 53000000 		.4byte	.LVL63-1
 3473 053d 0100     		.2byte	0x1
 3474 053f 50       		.byte	0x50
 3475 0540 00000000 		.4byte	0
 3476 0544 00000000 		.4byte	0
 3477              		.section	.debug_aranges,"",%progbits
ARM GAS  /var/folders/bz/nn5481rn5xq59rb0mbj7x0880000gn/T//cch2KHK9.s 			page 62


 3478 0000 6C000000 		.4byte	0x6c
 3479 0004 0200     		.2byte	0x2
 3480 0006 00000000 		.4byte	.Ldebug_info0
 3481 000a 04       		.byte	0x4
 3482 000b 00       		.byte	0
 3483 000c 0000     		.2byte	0
 3484 000e 0000     		.2byte	0
 3485 0010 00000000 		.4byte	.LFB7
 3486 0014 08000000 		.4byte	.LFE7-.LFB7
 3487 0018 00000000 		.4byte	.LFB9
 3488 001c 28000000 		.4byte	.LFE9-.LFB9
 3489 0020 00000000 		.4byte	.LFB8
 3490 0024 10000000 		.4byte	.LFE8-.LFB8
 3491 0028 00000000 		.4byte	.LFB10
 3492 002c 38000000 		.4byte	.LFE10-.LFB10
 3493 0030 00000000 		.4byte	.LFB11
 3494 0034 34000000 		.4byte	.LFE11-.LFB11
 3495 0038 00000000 		.4byte	.LFB13
 3496 003c 40000000 		.4byte	.LFE13-.LFB13
 3497 0040 00000000 		.4byte	.LFB12
 3498 0044 0C000000 		.4byte	.LFE12-.LFB12
 3499 0048 00000000 		.4byte	.LFB14
 3500 004c 26000000 		.4byte	.LFE14-.LFB14
 3501 0050 00000000 		.4byte	.LFB15
 3502 0054 1E000000 		.4byte	.LFE15-.LFB15
 3503 0058 00000000 		.4byte	.LFB16
 3504 005c 2E000000 		.4byte	.LFE16-.LFB16
 3505 0060 00000000 		.4byte	.LFB17
 3506 0064 60000000 		.4byte	.LFE17-.LFB17
 3507 0068 00000000 		.4byte	0
 3508 006c 00000000 		.4byte	0
 3509              		.section	.debug_ranges,"",%progbits
 3510              	.Ldebug_ranges0:
 3511 0000 02000000 		.4byte	.LBB34
 3512 0004 0E000000 		.4byte	.LBE34
 3513 0008 14000000 		.4byte	.LBB43
 3514 000c 30000000 		.4byte	.LBE43
 3515 0010 00000000 		.4byte	0
 3516 0014 00000000 		.4byte	0
 3517 0018 1A000000 		.4byte	.LBB38
 3518 001c 24000000 		.4byte	.LBE38
 3519 0020 26000000 		.4byte	.LBB41
 3520 0024 28000000 		.4byte	.LBE41
 3521 0028 00000000 		.4byte	0
 3522 002c 00000000 		.4byte	0
 3523 0030 16000000 		.4byte	.LBB50
 3524 0034 20000000 		.4byte	.LBE50
 3525 0038 22000000 		.4byte	.LBB53
 3526 003c 24000000 		.4byte	.LBE53
 3527 0040 00000000 		.4byte	0
 3528 0044 00000000 		.4byte	0
 3529 0048 14000000 		.4byte	.LBB58
 3530 004c 26000000 		.4byte	.LBE58
 3531 0050 2A000000 		.4byte	.LBB65
 3532 0054 2E000000 		.4byte	.LBE65
 3533 0058 00000000 		.4byte	0
 3534 005c 00000000 		.4byte	0
ARM GAS  /var/folders/bz/nn5481rn5xq59rb0mbj7x0880000gn/T//cch2KHK9.s 			page 63


 3535 0060 1A000000 		.4byte	.LBB60
 3536 0064 1C000000 		.4byte	.LBE60
 3537 0068 1E000000 		.4byte	.LBB63
 3538 006c 26000000 		.4byte	.LBE63
 3539 0070 00000000 		.4byte	0
 3540 0074 00000000 		.4byte	0
 3541 0078 14000000 		.4byte	.LBB66
 3542 007c 1A000000 		.4byte	.LBE66
 3543 0080 1C000000 		.4byte	.LBB69
 3544 0084 1E000000 		.4byte	.LBE69
 3545 0088 00000000 		.4byte	0
 3546 008c 00000000 		.4byte	0
 3547 0090 0C000000 		.4byte	.LBB71
 3548 0094 12000000 		.4byte	.LBE71
 3549 0098 14000000 		.4byte	.LBB74
 3550 009c 16000000 		.4byte	.LBE74
 3551 00a0 00000000 		.4byte	0
 3552 00a4 00000000 		.4byte	0
 3553 00a8 2A000000 		.4byte	.LBB78
 3554 00ac 2C000000 		.4byte	.LBE78
 3555 00b0 30000000 		.4byte	.LBB81
 3556 00b4 38000000 		.4byte	.LBE81
 3557 00b8 00000000 		.4byte	0
 3558 00bc 00000000 		.4byte	0
 3559 00c0 00000000 		.4byte	.LFB7
 3560 00c4 08000000 		.4byte	.LFE7
 3561 00c8 00000000 		.4byte	.LFB9
 3562 00cc 28000000 		.4byte	.LFE9
 3563 00d0 00000000 		.4byte	.LFB8
 3564 00d4 10000000 		.4byte	.LFE8
 3565 00d8 00000000 		.4byte	.LFB10
 3566 00dc 38000000 		.4byte	.LFE10
 3567 00e0 00000000 		.4byte	.LFB11
 3568 00e4 34000000 		.4byte	.LFE11
 3569 00e8 00000000 		.4byte	.LFB13
 3570 00ec 40000000 		.4byte	.LFE13
 3571 00f0 00000000 		.4byte	.LFB12
 3572 00f4 0C000000 		.4byte	.LFE12
 3573 00f8 00000000 		.4byte	.LFB14
 3574 00fc 26000000 		.4byte	.LFE14
 3575 0100 00000000 		.4byte	.LFB15
 3576 0104 1E000000 		.4byte	.LFE15
 3577 0108 00000000 		.4byte	.LFB16
 3578 010c 2E000000 		.4byte	.LFE16
 3579 0110 00000000 		.4byte	.LFB17
 3580 0114 60000000 		.4byte	.LFE17
 3581 0118 00000000 		.4byte	0
 3582 011c 00000000 		.4byte	0
 3583              		.section	.debug_line,"",%progbits
 3584              	.Ldebug_line0:
 3585 0000 8B030000 		.section	.debug_str,"MS",%progbits,1
 3585      0200B001 
 3585      00000201 
 3585      FB0E0D00 
 3585      01010101 
 3586              	.LASF40:
 3587 0000 705F6D73 		.ascii	"p_msg\000"
ARM GAS  /var/folders/bz/nn5481rn5xq59rb0mbj7x0880000gn/T//cch2KHK9.s 			page 64


 3587      6700
 3588              	.LASF89:
 3589 0006 71756575 		.ascii	"queue_insert\000"
 3589      655F696E 
 3589      73657274 
 3589      00
 3590              	.LASF81:
 3591 0013 63685365 		.ascii	"chSemSignalI\000"
 3591      6D536967 
 3591      6E616C49 
 3591      00
 3592              	.LASF65:
 3593 0020 7264796D 		.ascii	"rdymsg\000"
 3593      736700
 3594              	.LASF5:
 3595 0027 5F5F7569 		.ascii	"__uint8_t\000"
 3595      6E74385F 
 3595      7400
 3596              	.LASF11:
 3597 0031 6C6F6E67 		.ascii	"long long unsigned int\000"
 3597      206C6F6E 
 3597      6720756E 
 3597      7369676E 
 3597      65642069 
 3598              	.LASF82:
 3599 0048 63685365 		.ascii	"chSemAddCounterI\000"
 3599      6D416464 
 3599      436F756E 
 3599      74657249 
 3599      00
 3600              	.LASF28:
 3601 0059 705F7072 		.ascii	"p_prio\000"
 3601      696F00
 3602              	.LASF10:
 3603 0060 6C6F6E67 		.ascii	"long long int\000"
 3603      206C6F6E 
 3603      6720696E 
 3603      7400
 3604              	.LASF1:
 3605 006e 7369676E 		.ascii	"signed char\000"
 3605      65642063 
 3605      68617200 
 3606              	.LASF83:
 3607 007a 63685365 		.ascii	"chSemSignalWait\000"
 3607      6D536967 
 3607      6E616C57 
 3607      61697400 
 3608              	.LASF44:
 3609 008a 705F6D70 		.ascii	"p_mpool\000"
 3609      6F6F6C00 
 3610              	.LASF62:
 3611 0092 6D5F7175 		.ascii	"m_queue\000"
 3611      65756500 
 3612              	.LASF19:
 3613 009a 74736C69 		.ascii	"tslices_t\000"
 3613      6365735F 
 3613      7400
ARM GAS  /var/folders/bz/nn5481rn5xq59rb0mbj7x0880000gn/T//cch2KHK9.s 			page 65


 3614              	.LASF7:
 3615 00a4 6C6F6E67 		.ascii	"long int\000"
 3615      20696E74 
 3615      00
 3616              	.LASF17:
 3617 00ad 74737461 		.ascii	"tstate_t\000"
 3617      74655F74 
 3617      00
 3618              	.LASF30:
 3619 00b6 705F6E65 		.ascii	"p_newer\000"
 3619      77657200 
 3620              	.LASF59:
 3621 00be 735F7175 		.ascii	"s_queue\000"
 3621      65756500 
 3622              	.LASF88:
 3623 00c6 2F557365 		.ascii	"/Users/imac/oroca_bldc_dev/oroca_bldc/\000"
 3623      72732F69 
 3623      6D61632F 
 3623      6F726F63 
 3623      615F626C 
 3624              	.LASF91:
 3625 00ed 63685363 		.ascii	"chSchRescheduleS\000"
 3625      68526573 
 3625      63686564 
 3625      756C6553 
 3625      00
 3626              	.LASF8:
 3627 00fe 5F5F7569 		.ascii	"__uint32_t\000"
 3627      6E743332 
 3627      5F7400
 3628              	.LASF47:
 3629 0109 72656761 		.ascii	"regarm_t\000"
 3629      726D5F74 
 3629      00
 3630              	.LASF24:
 3631 0112 636E745F 		.ascii	"cnt_t\000"
 3631      7400
 3632              	.LASF0:
 3633 0118 756E7369 		.ascii	"unsigned int\000"
 3633      676E6564 
 3633      20696E74 
 3633      00
 3634              	.LASF79:
 3635 0125 63685365 		.ascii	"chSemWaitTimeout\000"
 3635      6D576169 
 3635      7454696D 
 3635      656F7574 
 3635      00
 3636              	.LASF9:
 3637 0136 6C6F6E67 		.ascii	"long unsigned int\000"
 3637      20756E73 
 3637      69676E65 
 3637      6420696E 
 3637      7400
 3638              	.LASF80:
 3639 0148 63685365 		.ascii	"chSemSignal\000"
 3639      6D536967 
ARM GAS  /var/folders/bz/nn5481rn5xq59rb0mbj7x0880000gn/T//cch2KHK9.s 			page 66


 3639      6E616C00 
 3640              	.LASF60:
 3641 0154 735F636E 		.ascii	"s_cnt\000"
 3641      7400
 3642              	.LASF49:
 3643 015a 636F6E74 		.ascii	"context\000"
 3643      65787400 
 3644              	.LASF4:
 3645 0162 73686F72 		.ascii	"short unsigned int\000"
 3645      7420756E 
 3645      7369676E 
 3645      65642069 
 3645      6E7400
 3646              	.LASF77:
 3647 0175 63685365 		.ascii	"chSemReset\000"
 3647      6D526573 
 3647      657400
 3648              	.LASF21:
 3649 0180 6D73675F 		.ascii	"msg_t\000"
 3649      7400
 3650              	.LASF54:
 3651 0186 725F6E65 		.ascii	"r_newer\000"
 3651      77657200 
 3652              	.LASF66:
 3653 018e 65786974 		.ascii	"exitcode\000"
 3653      636F6465 
 3653      00
 3654              	.LASF16:
 3655 0197 746D6F64 		.ascii	"tmode_t\000"
 3655      655F7400 
 3656              	.LASF46:
 3657 019f 54687265 		.ascii	"ThreadsList\000"
 3657      6164734C 
 3657      69737400 
 3658              	.LASF22:
 3659 01ab 6576656E 		.ascii	"eventmask_t\000"
 3659      746D6173 
 3659      6B5F7400 
 3660              	.LASF61:
 3661 01b7 4D757465 		.ascii	"Mutex\000"
 3661      7800
 3662              	.LASF50:
 3663 01bd 73697A65 		.ascii	"sizetype\000"
 3663      74797065 
 3663      00
 3664              	.LASF31:
 3665 01c6 705F6F6C 		.ascii	"p_older\000"
 3665      64657200 
 3666              	.LASF53:
 3667 01ce 725F6374 		.ascii	"r_ctx\000"
 3667      7800
 3668              	.LASF45:
 3669 01d4 54687265 		.ascii	"ThreadsQueue\000"
 3669      61647351 
 3669      75657565 
 3669      00
 3670              	.LASF72:
ARM GAS  /var/folders/bz/nn5481rn5xq59rb0mbj7x0880000gn/T//cch2KHK9.s 			page 67


 3671 01e1 74696D65 		.ascii	"time\000"
 3671      00
 3672              	.LASF56:
 3673 01e6 725F6375 		.ascii	"r_current\000"
 3673      7272656E 
 3673      7400
 3674              	.LASF55:
 3675 01f0 725F6F6C 		.ascii	"r_older\000"
 3675      64657200 
 3676              	.LASF18:
 3677 01f8 74726566 		.ascii	"trefs_t\000"
 3677      735F7400 
 3678              	.LASF27:
 3679 0200 705F7072 		.ascii	"p_prev\000"
 3679      657600
 3680              	.LASF20:
 3681 0207 74707269 		.ascii	"tprio_t\000"
 3681      6F5F7400 
 3682              	.LASF15:
 3683 020f 5F426F6F 		.ascii	"_Bool\000"
 3683      6C00
 3684              	.LASF13:
 3685 0215 696E7433 		.ascii	"int32_t\000"
 3685      325F7400 
 3686              	.LASF2:
 3687 021d 756E7369 		.ascii	"unsigned char\000"
 3687      676E6564 
 3687      20636861 
 3687      7200
 3688              	.LASF42:
 3689 022b 705F6D74 		.ascii	"p_mtxlist\000"
 3689      786C6973 
 3689      7400
 3690              	.LASF3:
 3691 0235 73686F72 		.ascii	"short int\000"
 3691      7420696E 
 3691      7400
 3692              	.LASF33:
 3693 023f 705F7374 		.ascii	"p_state\000"
 3693      61746500 
 3694              	.LASF36:
 3695 0247 705F7072 		.ascii	"p_preempt\000"
 3695      65656D70 
 3695      7400
 3696              	.LASF52:
 3697 0251 725F7072 		.ascii	"r_prio\000"
 3697      696F00
 3698              	.LASF68:
 3699 0258 65776D61 		.ascii	"ewmask\000"
 3699      736B00
 3700              	.LASF26:
 3701 025f 705F6E65 		.ascii	"p_next\000"
 3701      787400
 3702              	.LASF34:
 3703 0266 705F666C 		.ascii	"p_flags\000"
 3703      61677300 
 3704              	.LASF70:
ARM GAS  /var/folders/bz/nn5481rn5xq59rb0mbj7x0880000gn/T//cch2KHK9.s 			page 68


 3705 026e 63685365 		.ascii	"chSemWaitS\000"
 3705      6D576169 
 3705      745300
 3706              	.LASF87:
 3707 0279 6C69622F 		.ascii	"lib/ChibiOS_2.6.6/os/kernel/src/chsem.c\000"
 3707      43686962 
 3707      694F535F 
 3707      322E362E 
 3707      362F6F73 
 3708              	.LASF25:
 3709 02a1 54687265 		.ascii	"Thread\000"
 3709      616400
 3710              	.LASF92:
 3711 02a8 63685363 		.ascii	"chSchGoSleepS\000"
 3711      68476F53 
 3711      6C656570 
 3711      5300
 3712              	.LASF41:
 3713 02b6 705F6570 		.ascii	"p_epending\000"
 3713      656E6469 
 3713      6E6700
 3714              	.LASF14:
 3715 02c1 75696E74 		.ascii	"uint32_t\000"
 3715      33325F74 
 3715      00
 3716              	.LASF51:
 3717 02ca 725F7175 		.ascii	"r_queue\000"
 3717      65756500 
 3718              	.LASF69:
 3719 02d2 63686172 		.ascii	"char\000"
 3719      00
 3720              	.LASF74:
 3721 02d7 6669666F 		.ascii	"fifo_remove\000"
 3721      5F72656D 
 3721      6F766500 
 3722              	.LASF71:
 3723 02e3 63685365 		.ascii	"chSemWaitTimeoutS\000"
 3723      6D576169 
 3723      7454696D 
 3723      656F7574 
 3723      5300
 3724              	.LASF84:
 3725 02f5 63685363 		.ascii	"chSchReadyI\000"
 3725      68526561 
 3725      64794900 
 3726              	.LASF64:
 3727 0301 6D5F6E65 		.ascii	"m_next\000"
 3727      787400
 3728              	.LASF23:
 3729 0308 73797374 		.ascii	"systime_t\000"
 3729      696D655F 
 3729      7400
 3730              	.LASF43:
 3731 0312 705F7265 		.ascii	"p_realprio\000"
 3731      616C7072 
 3731      696F00
 3732              	.LASF6:
ARM GAS  /var/folders/bz/nn5481rn5xq59rb0mbj7x0880000gn/T//cch2KHK9.s 			page 69


 3733 031d 5F5F696E 		.ascii	"__int32_t\000"
 3733      7433325F 
 3733      7400
 3734              	.LASF78:
 3735 0327 63685365 		.ascii	"chSemWait\000"
 3735      6D576169 
 3735      7400
 3736              	.LASF86:
 3737 0331 474E5520 		.ascii	"GNU C 4.9.3 20150529 (release) [ARM/embedded-4_9-br"
 3737      4320342E 
 3737      392E3320 
 3737      32303135 
 3737      30353239 
 3738 0364 616E6368 		.ascii	"anch revision 224288] -mcpu=cortex-m4 -mfloat-abi=h"
 3738      20726576 
 3738      6973696F 
 3738      6E203232 
 3738      34323838 
 3739 0397 61726420 		.ascii	"ard -mfpu=fpv4-sp-d16 -mno-thumb-interwork -mthumb "
 3739      2D6D6670 
 3739      753D6670 
 3739      76342D73 
 3739      702D6431 
 3740 03ca 2D676764 		.ascii	"-ggdb -O2 -std=gnu99 -fomit-frame-pointer -falign-f"
 3740      62202D4F 
 3740      32202D73 
 3740      74643D67 
 3740      6E753939 
 3741 03fd 756E6374 		.ascii	"unctions=16 -ffunction-sections -fdata-sections -fn"
 3741      696F6E73 
 3741      3D313620 
 3741      2D666675 
 3741      6E637469 
 3742 0430 6F2D636F 		.ascii	"o-common -fsingle-precision-constant\000"
 3742      6D6D6F6E 
 3742      202D6673 
 3742      696E676C 
 3742      652D7072 
 3743              	.LASF37:
 3744 0455 705F7469 		.ascii	"p_time\000"
 3744      6D6500
 3745              	.LASF73:
 3746 045c 6C69666F 		.ascii	"lifo_remove\000"
 3746      5F72656D 
 3746      6F766500 
 3747              	.LASF48:
 3748 0468 696E7463 		.ascii	"intctx\000"
 3748      747800
 3749              	.LASF39:
 3750 046f 705F6D73 		.ascii	"p_msgqueue\000"
 3750      67717565 
 3750      756500
 3751              	.LASF93:
 3752 047a 63685363 		.ascii	"chSchWakeupS\000"
 3752      6857616B 
 3752      65757053 
 3752      00
ARM GAS  /var/folders/bz/nn5481rn5xq59rb0mbj7x0880000gn/T//cch2KHK9.s 			page 70


 3753              	.LASF58:
 3754 0487 53656D61 		.ascii	"Semaphore\000"
 3754      70686F72 
 3754      6500
 3755              	.LASF35:
 3756 0491 705F7265 		.ascii	"p_refs\000"
 3756      667300
 3757              	.LASF57:
 3758 0498 52656164 		.ascii	"ReadyList\000"
 3758      794C6973 
 3758      7400
 3759              	.LASF76:
 3760 04a2 63685365 		.ascii	"chSemResetI\000"
 3760      6D526573 
 3760      65744900 
 3761              	.LASF90:
 3762 04ae 726C6973 		.ascii	"rlist\000"
 3762      7400
 3763              	.LASF12:
 3764 04b4 75696E74 		.ascii	"uint8_t\000"
 3764      385F7400 
 3765              	.LASF67:
 3766 04bc 77746F62 		.ascii	"wtobjp\000"
 3766      6A7000
 3767              	.LASF32:
 3768 04c3 705F6E61 		.ascii	"p_name\000"
 3768      6D6500
 3769              	.LASF85:
 3770 04ca 63685363 		.ascii	"chSchGoSleepTimeoutS\000"
 3770      68476F53 
 3770      6C656570 
 3770      54696D65 
 3770      6F757453 
 3771              	.LASF63:
 3772 04df 6D5F6F77 		.ascii	"m_owner\000"
 3772      6E657200 
 3773              	.LASF29:
 3774 04e7 705F6374 		.ascii	"p_ctx\000"
 3774      7800
 3775              	.LASF38:
 3776 04ed 705F7761 		.ascii	"p_waiting\000"
 3776      6974696E 
 3776      6700
 3777              	.LASF75:
 3778 04f7 63685365 		.ascii	"chSemInit\000"
 3778      6D496E69 
 3778      7400
 3779              		.ident	"GCC: (GNU Tools for ARM Embedded Processors) 4.9.3 20150529 (release) [ARM/embedded-4_9-br
ARM GAS  /var/folders/bz/nn5481rn5xq59rb0mbj7x0880000gn/T//cch2KHK9.s 			page 71


DEFINED SYMBOLS
                            *ABS*:0000000000000000 chsem.c
/var/folders/bz/nn5481rn5xq59rb0mbj7x0880000gn/T//cch2KHK9.s:21     .text.chSemInit:0000000000000000 $t
/var/folders/bz/nn5481rn5xq59rb0mbj7x0880000gn/T//cch2KHK9.s:27     .text.chSemInit:0000000000000000 chSemInit
/var/folders/bz/nn5481rn5xq59rb0mbj7x0880000gn/T//cch2KHK9.s:46     .text.chSemResetI:0000000000000000 $t
/var/folders/bz/nn5481rn5xq59rb0mbj7x0880000gn/T//cch2KHK9.s:52     .text.chSemResetI:0000000000000000 chSemResetI
/var/folders/bz/nn5481rn5xq59rb0mbj7x0880000gn/T//cch2KHK9.s:111    .text.chSemReset:0000000000000000 $t
/var/folders/bz/nn5481rn5xq59rb0mbj7x0880000gn/T//cch2KHK9.s:117    .text.chSemReset:0000000000000000 chSemReset
/var/folders/bz/nn5481rn5xq59rb0mbj7x0880000gn/T//cch2KHK9.s:149    .text.chSemWait:0000000000000000 $t
/var/folders/bz/nn5481rn5xq59rb0mbj7x0880000gn/T//cch2KHK9.s:155    .text.chSemWait:0000000000000000 chSemWait
/var/folders/bz/nn5481rn5xq59rb0mbj7x0880000gn/T//cch2KHK9.s:245    .text.chSemWait:0000000000000034 $d
/var/folders/bz/nn5481rn5xq59rb0mbj7x0880000gn/T//cch2KHK9.s:250    .text.chSemWaitS:0000000000000000 $t
/var/folders/bz/nn5481rn5xq59rb0mbj7x0880000gn/T//cch2KHK9.s:256    .text.chSemWaitS:0000000000000000 chSemWaitS
/var/folders/bz/nn5481rn5xq59rb0mbj7x0880000gn/T//cch2KHK9.s:318    .text.chSemWaitS:0000000000000030 $d
/var/folders/bz/nn5481rn5xq59rb0mbj7x0880000gn/T//cch2KHK9.s:325    .text.chSemWaitTimeoutS:0000000000000000 $t
/var/folders/bz/nn5481rn5xq59rb0mbj7x0880000gn/T//cch2KHK9.s:331    .text.chSemWaitTimeoutS:0000000000000000 chSemWaitTimeoutS
/var/folders/bz/nn5481rn5xq59rb0mbj7x0880000gn/T//cch2KHK9.s:412    .text.chSemWaitTimeoutS:000000000000003c $d
/var/folders/bz/nn5481rn5xq59rb0mbj7x0880000gn/T//cch2KHK9.s:417    .text.chSemWaitTimeout:0000000000000000 $t
/var/folders/bz/nn5481rn5xq59rb0mbj7x0880000gn/T//cch2KHK9.s:423    .text.chSemWaitTimeout:0000000000000000 chSemWaitTimeout
/var/folders/bz/nn5481rn5xq59rb0mbj7x0880000gn/T//cch2KHK9.s:453    .text.chSemSignal:0000000000000000 $t
/var/folders/bz/nn5481rn5xq59rb0mbj7x0880000gn/T//cch2KHK9.s:459    .text.chSemSignal:0000000000000000 chSemSignal
/var/folders/bz/nn5481rn5xq59rb0mbj7x0880000gn/T//cch2KHK9.s:521    .text.chSemSignalI:0000000000000000 $t
/var/folders/bz/nn5481rn5xq59rb0mbj7x0880000gn/T//cch2KHK9.s:527    .text.chSemSignalI:0000000000000000 chSemSignalI
/var/folders/bz/nn5481rn5xq59rb0mbj7x0880000gn/T//cch2KHK9.s:576    .text.chSemAddCounterI:0000000000000000 $t
/var/folders/bz/nn5481rn5xq59rb0mbj7x0880000gn/T//cch2KHK9.s:582    .text.chSemAddCounterI:0000000000000000 chSemAddCounterI
/var/folders/bz/nn5481rn5xq59rb0mbj7x0880000gn/T//cch2KHK9.s:646    .text.chSemSignalWait:0000000000000000 $t
/var/folders/bz/nn5481rn5xq59rb0mbj7x0880000gn/T//cch2KHK9.s:652    .text.chSemSignalWait:0000000000000000 chSemSignalWait
/var/folders/bz/nn5481rn5xq59rb0mbj7x0880000gn/T//cch2KHK9.s:774    .text.chSemSignalWait:000000000000005c $d
                     .debug_frame:0000000000000010 $d

UNDEFINED SYMBOLS
chSchReadyI
chSchRescheduleS
chSchGoSleepS
rlist
chSchGoSleepTimeoutS
chSchWakeupS
