ARM GAS  /var/folders/bz/nn5481rn5xq59rb0mbj7x0880000gn/T//ccr8IYTK.s 			page 1


   1              		.syntax unified
   2              		.cpu cortex-m4
   3              		.eabi_attribute 27, 1
   4              		.eabi_attribute 28, 1
   5              		.fpu fpv4-sp-d16
   6              		.eabi_attribute 20, 1
   7              		.eabi_attribute 21, 1
   8              		.eabi_attribute 23, 3
   9              		.eabi_attribute 24, 1
  10              		.eabi_attribute 25, 1
  11              		.eabi_attribute 26, 1
  12              		.eabi_attribute 30, 2
  13              		.eabi_attribute 34, 1
  14              		.eabi_attribute 18, 4
  15              		.thumb
  16              		.file	"chthreads.c"
  17              		.text
  18              	.Ltext0:
  19              		.cfi_sections	.debug_frame
  20              		.section	.text._thread_init,"ax",%progbits
  21              		.align	2
  22              		.p2align 4,,15
  23              		.global	_thread_init
  24              		.thumb
  25              		.thumb_func
  26              		.type	_thread_init, %function
  27              	_thread_init:
  28              	.LFB7:
  29              		.file 1 "lib/ChibiOS_2.6.6/os/kernel/src/chthreads.c"
  30              		.loc 1 76 0
  31              		.cfi_startproc
  32              		@ args = 0, pretend = 0, frame = 0
  33              		@ frame_needed = 0, uses_anonymous_args = 0
  34              	.LVL0:
  35 0000 2DE9F041 		push	{r4, r5, r6, r7, r8, lr}
  36              		.cfi_def_cfa_offset 24
  37              		.cfi_offset 4, -24
  38              		.cfi_offset 5, -20
  39              		.cfi_offset 6, -16
  40              		.cfi_offset 7, -12
  41              		.cfi_offset 8, -8
  42              		.cfi_offset 14, -4
  43              		.loc 1 99 0
  44 0004 114C     		ldr	r4, .L3
  45              		.loc 1 85 0
  46 0006 0164     		str	r1, [r0, #64]
  47              		.loc 1 99 0
  48 0008 6669     		ldr	r6, [r4, #20]
  49 000a 4661     		str	r6, [r0, #20]
  50              		.loc 1 80 0
  51 000c 0022     		movs	r2, #0
  52              		.loc 1 105 0
  53 000e 00F12C05 		add	r5, r0, #44
  54              		.loc 1 79 0
  55 0012 4FF00208 		mov	r8, #2
  56              		.loc 1 82 0
  57 0016 4FF0040C 		mov	ip, #4
ARM GAS  /var/folders/bz/nn5481rn5xq59rb0mbj7x0880000gn/T//ccr8IYTK.s 			page 2


  58              		.loc 1 95 0
  59 001a 4FF0010E 		mov	lr, #1
  60              		.loc 1 102 0
  61 001e 00F12807 		add	r7, r0, #40
  62              		.loc 1 78 0
  63 0022 8160     		str	r1, [r0, #8]
  64              		.loc 1 99 0
  65 0024 0461     		str	r4, [r0, #16]
  66              		.loc 1 79 0
  67 0026 80F81C80 		strb	r8, [r0, #28]
  68              		.loc 1 99 0
  69 002a 6061     		str	r0, [r4, #20]
  70              		.loc 1 82 0
  71 002c 80F81FC0 		strb	ip, [r0, #31]
  72              		.loc 1 95 0
  73 0030 80F81EE0 		strb	lr, [r0, #30]
  74              		.loc 1 80 0
  75 0034 4277     		strb	r2, [r0, #29]
  76              		.loc 1 86 0
  77 0036 C263     		str	r2, [r0, #60]
  78              		.loc 1 89 0
  79 0038 8263     		str	r2, [r0, #56]
  80              		.loc 1 92 0
  81 003a 0262     		str	r2, [r0, #32]
  82              		.loc 1 98 0
  83 003c 8261     		str	r2, [r0, #24]
  84              		.loc 1 99 0
  85 003e 3061     		str	r0, [r6, #16]
  86              		.loc 1 102 0
  87 0040 8762     		str	r7, [r0, #40]
  88              		.loc 1 105 0
  89 0042 0563     		str	r5, [r0, #48]
  90 0044 C562     		str	r5, [r0, #44]
  91              		.loc 1 114 0
  92 0046 BDE8F081 		pop	{r4, r5, r6, r7, r8, pc}
  93              	.L4:
  94 004a 00BF     		.align	2
  95              	.L3:
  96 004c 00000000 		.word	rlist
  97              		.cfi_endproc
  98              	.LFE7:
  99              		.size	_thread_init, .-_thread_init
 100              		.section	.text.chThdCreateI,"ax",%progbits
 101              		.align	2
 102              		.p2align 4,,15
 103              		.global	chThdCreateI
 104              		.thumb
 105              		.thumb_func
 106              		.type	chThdCreateI, %function
 107              	chThdCreateI:
 108              	.LFB8:
 109              		.loc 1 158 0
 110              		.cfi_startproc
 111              		@ args = 4, pretend = 0, frame = 0
 112              		@ frame_needed = 0, uses_anonymous_args = 0
 113              	.LVL1:
 114 0000 2DE9F04F 		push	{r4, r5, r6, r7, r8, r9, r10, fp, lr}
ARM GAS  /var/folders/bz/nn5481rn5xq59rb0mbj7x0880000gn/T//ccr8IYTK.s 			page 3


 115              		.cfi_def_cfa_offset 36
 116              		.cfi_offset 4, -36
 117              		.cfi_offset 5, -32
 118              		.cfi_offset 6, -28
 119              		.cfi_offset 7, -24
 120              		.cfi_offset 8, -20
 121              		.cfi_offset 9, -16
 122              		.cfi_offset 10, -12
 123              		.cfi_offset 11, -8
 124              		.cfi_offset 14, -4
 125              		.loc 1 167 0
 126 0004 6439     		subs	r1, r1, #100
 127              	.LVL2:
 128              	.LBB12:
 129              	.LBB13:
 130              		.loc 1 99 0
 131 0006 184F     		ldr	r7, .L7
 132              	.LBE13:
 133              	.LBE12:
 134              		.loc 1 167 0
 135 0008 DFF86090 		ldr	r9, .L7+4
 136              	.LBB19:
 137              	.LBB14:
 138              		.loc 1 99 0
 139 000c D7F814E0 		ldr	lr, [r7, #20]
 140              	.LBE14:
 141              	.LBE19:
 142              		.loc 1 167 0
 143 0010 099E     		ldr	r6, [sp, #36]
 144 0012 0144     		add	r1, r1, r0
 145              	.LVL3:
 146              	.LBB20:
 147              	.LBB15:
 148              		.loc 1 80 0
 149 0014 0025     		movs	r5, #0
 150              	.LBE15:
 151              	.LBE20:
 152              		.loc 1 167 0
 153 0016 C160     		str	r1, [r0, #12]
 154              	.LBB21:
 155              	.LBB16:
 156              		.loc 1 79 0
 157 0018 4FF0020B 		mov	fp, #2
 158              	.LBE16:
 159              	.LBE21:
 160              		.loc 1 167 0
 161 001c 0B64     		str	r3, [r1, #64]
 162              	.LBB22:
 163              	.LBB17:
 164              		.loc 1 82 0
 165 001e 4FF0040A 		mov	r10, #4
 166              		.loc 1 105 0
 167 0022 00F12C03 		add	r3, r0, #44
 168              	.LVL4:
 169              		.loc 1 95 0
 170 0026 4FF00108 		mov	r8, #1
 171              		.loc 1 102 0
ARM GAS  /var/folders/bz/nn5481rn5xq59rb0mbj7x0880000gn/T//ccr8IYTK.s 			page 4


 172 002a 00F1280C 		add	ip, r0, #40
 173              	.LBE17:
 174              	.LBE22:
 175              		.loc 1 167 0
 176 002e 4E64     		str	r6, [r1, #68]
 177 0030 C1F86090 		str	r9, [r1, #96]
 178              	.LVL5:
 179              	.LBB23:
 180              	.LBB18:
 181              		.loc 1 78 0
 182 0034 8260     		str	r2, [r0, #8]
 183              		.loc 1 99 0
 184 0036 0761     		str	r7, [r0, #16]
 185 0038 C0F814E0 		str	lr, [r0, #20]
 186              		.loc 1 85 0
 187 003c 0264     		str	r2, [r0, #64]
 188              		.loc 1 79 0
 189 003e 80F81CB0 		strb	fp, [r0, #28]
 190              	.LVL6:
 191              		.loc 1 82 0
 192 0042 80F81FA0 		strb	r10, [r0, #31]
 193              		.loc 1 95 0
 194 0046 80F81E80 		strb	r8, [r0, #30]
 195              		.loc 1 80 0
 196 004a 4577     		strb	r5, [r0, #29]
 197              		.loc 1 99 0
 198 004c 7861     		str	r0, [r7, #20]
 199              		.loc 1 86 0
 200 004e C563     		str	r5, [r0, #60]
 201              		.loc 1 89 0
 202 0050 8563     		str	r5, [r0, #56]
 203              		.loc 1 92 0
 204 0052 0562     		str	r5, [r0, #32]
 205              		.loc 1 98 0
 206 0054 8561     		str	r5, [r0, #24]
 207              		.loc 1 99 0
 208 0056 CEF81000 		str	r0, [lr, #16]
 209              		.loc 1 102 0
 210 005a C0F828C0 		str	ip, [r0, #40]
 211              		.loc 1 105 0
 212 005e 0363     		str	r3, [r0, #48]
 213 0060 C362     		str	r3, [r0, #44]
 214              	.LBE18:
 215              	.LBE23:
 216              		.loc 1 169 0
 217 0062 BDE8F08F 		pop	{r4, r5, r6, r7, r8, r9, r10, fp, pc}
 218              	.LVL7:
 219              	.L8:
 220 0066 00BF     		.align	2
 221              	.L7:
 222 0068 00000000 		.word	rlist
 223 006c 00000000 		.word	_port_thread_start
 224              		.cfi_endproc
 225              	.LFE8:
 226              		.size	chThdCreateI, .-chThdCreateI
 227              		.section	.text.chThdCreateStatic,"ax",%progbits
 228              		.align	2
ARM GAS  /var/folders/bz/nn5481rn5xq59rb0mbj7x0880000gn/T//ccr8IYTK.s 			page 5


 229              		.p2align 4,,15
 230              		.global	chThdCreateStatic
 231              		.thumb
 232              		.thumb_func
 233              		.type	chThdCreateStatic, %function
 234              	chThdCreateStatic:
 235              	.LFB9:
 236              		.loc 1 188 0
 237              		.cfi_startproc
 238              		@ args = 4, pretend = 0, frame = 0
 239              		@ frame_needed = 0, uses_anonymous_args = 0
 240              	.LVL8:
 241 0000 2DE9F84F 		push	{r3, r4, r5, r6, r7, r8, r9, r10, fp, lr}
 242              		.cfi_def_cfa_offset 40
 243              		.cfi_offset 3, -40
 244              		.cfi_offset 4, -36
 245              		.cfi_offset 5, -32
 246              		.cfi_offset 6, -28
 247              		.cfi_offset 7, -24
 248              		.cfi_offset 8, -20
 249              		.cfi_offset 9, -16
 250              		.cfi_offset 10, -12
 251              		.cfi_offset 11, -8
 252              		.cfi_offset 14, -4
 253              		.loc 1 188 0
 254 0004 0446     		mov	r4, r0
 255              		.loc 1 199 0
 256              	@ 199 "lib/ChibiOS_2.6.6/os/kernel/src/chthreads.c" 1
 257 0006 72B6     		cpsid   i
 258              	@ 0 "" 2
 259              	.LVL9:
 260              		.thumb
 261              	.LBB24:
 262              	.LBB25:
 263              	.LBB26:
 264              	.LBB27:
 265              		.loc 1 99 0
 266 0008 1A4E     		ldr	r6, .L11
 267              	.LBE27:
 268              	.LBE26:
 269              		.loc 1 167 0
 270 000a DFF86CA0 		ldr	r10, .L11+4
 271              	.LBB34:
 272              	.LBB28:
 273              		.loc 1 99 0
 274 000e 7769     		ldr	r7, [r6, #20]
 275              	.LBE28:
 276              	.LBE34:
 277              		.loc 1 167 0
 278 0010 6439     		subs	r1, r1, #100
 279              	.LVL10:
 280 0012 0144     		add	r1, r1, r0
 281              	.LVL11:
 282 0014 C160     		str	r1, [r0, #12]
 283              	.LBB35:
 284              	.LBB29:
 285              		.loc 1 80 0
ARM GAS  /var/folders/bz/nn5481rn5xq59rb0mbj7x0880000gn/T//ccr8IYTK.s 			page 6


 286 0016 0025     		movs	r5, #0
 287              	.LBE29:
 288              	.LBE35:
 289              		.loc 1 167 0
 290 0018 0B64     		str	r3, [r1, #64]
 291              	.LBB36:
 292              	.LBB30:
 293              		.loc 1 105 0
 294 001a 00F12C0B 		add	fp, r0, #44
 295              		.loc 1 95 0
 296 001e 4FF0010C 		mov	ip, #1
 297              		.loc 1 102 0
 298 0022 00F1280E 		add	lr, r0, #40
 299              	.LBE30:
 300              	.LBE36:
 301              		.loc 1 167 0
 302 0026 0A9B     		ldr	r3, [sp, #40]
 303              	.LVL12:
 304 0028 4B64     		str	r3, [r1, #68]
 305              	.LBB37:
 306              	.LBB31:
 307              		.loc 1 79 0
 308 002a 4FF00209 		mov	r9, #2
 309              		.loc 1 82 0
 310 002e 4FF00408 		mov	r8, #4
 311              	.LBE31:
 312              	.LBE37:
 313              		.loc 1 167 0
 314 0032 C1F860A0 		str	r10, [r1, #96]
 315              	.LVL13:
 316              	.LBB38:
 317              	.LBB32:
 318              		.loc 1 78 0
 319 0036 8260     		str	r2, [r0, #8]
 320              		.loc 1 99 0
 321 0038 0661     		str	r6, [r0, #16]
 322 003a 4761     		str	r7, [r0, #20]
 323              		.loc 1 85 0
 324 003c 0264     		str	r2, [r0, #64]
 325              		.loc 1 79 0
 326 003e 80F81C90 		strb	r9, [r0, #28]
 327              	.LVL14:
 328              		.loc 1 82 0
 329 0042 80F81F80 		strb	r8, [r0, #31]
 330              		.loc 1 95 0
 331 0046 80F81EC0 		strb	ip, [r0, #30]
 332              		.loc 1 80 0
 333 004a 4577     		strb	r5, [r0, #29]
 334              		.loc 1 99 0
 335 004c 7061     		str	r0, [r6, #20]
 336              		.loc 1 86 0
 337 004e C563     		str	r5, [r0, #60]
 338              		.loc 1 89 0
 339 0050 8563     		str	r5, [r0, #56]
 340              		.loc 1 92 0
 341 0052 0562     		str	r5, [r0, #32]
 342              		.loc 1 98 0
ARM GAS  /var/folders/bz/nn5481rn5xq59rb0mbj7x0880000gn/T//ccr8IYTK.s 			page 7


 343 0054 8561     		str	r5, [r0, #24]
 344              	.LBE32:
 345              	.LBE38:
 346              	.LBE25:
 347              	.LBE24:
 348              		.loc 1 200 0
 349 0056 2946     		mov	r1, r5
 350              	.LBB41:
 351              	.LBB40:
 352              	.LBB39:
 353              	.LBB33:
 354              		.loc 1 99 0
 355 0058 3861     		str	r0, [r7, #16]
 356              		.loc 1 102 0
 357 005a C0F828E0 		str	lr, [r0, #40]
 358              		.loc 1 105 0
 359 005e C0F830B0 		str	fp, [r0, #48]
 360 0062 C0F82CB0 		str	fp, [r0, #44]
 361              	.LBE33:
 362              	.LBE39:
 363              	.LBE40:
 364              	.LBE41:
 365              		.loc 1 200 0
 366 0066 FFF7FEFF 		bl	chSchWakeupS
 367              	.LVL15:
 368              		.loc 1 201 0
 369              	@ 201 "lib/ChibiOS_2.6.6/os/kernel/src/chthreads.c" 1
 370 006a 62B6     		cpsie   i
 371              	@ 0 "" 2
 372              		.loc 1 203 0
 373              		.thumb
 374 006c 2046     		mov	r0, r4
 375 006e BDE8F88F 		pop	{r3, r4, r5, r6, r7, r8, r9, r10, fp, pc}
 376              	.LVL16:
 377              	.L12:
 378 0072 00BF     		.align	2
 379              	.L11:
 380 0074 00000000 		.word	rlist
 381 0078 00000000 		.word	_port_thread_start
 382              		.cfi_endproc
 383              	.LFE9:
 384              		.size	chThdCreateStatic, .-chThdCreateStatic
 385              		.section	.text.chThdSetPriority,"ax",%progbits
 386              		.align	2
 387              		.p2align 4,,15
 388              		.global	chThdSetPriority
 389              		.thumb
 390              		.thumb_func
 391              		.type	chThdSetPriority, %function
 392              	chThdSetPriority:
 393              	.LFB10:
 394              		.loc 1 217 0
 395              		.cfi_startproc
 396              		@ args = 0, pretend = 0, frame = 0
 397              		@ frame_needed = 0, uses_anonymous_args = 0
 398              	.LVL17:
 399 0000 10B5     		push	{r4, lr}
ARM GAS  /var/folders/bz/nn5481rn5xq59rb0mbj7x0880000gn/T//ccr8IYTK.s 			page 8


 400              		.cfi_def_cfa_offset 8
 401              		.cfi_offset 4, -8
 402              		.cfi_offset 14, -4
 403              		.loc 1 222 0
 404              	@ 222 "lib/ChibiOS_2.6.6/os/kernel/src/chthreads.c" 1
 405 0002 72B6     		cpsid   i
 406              	@ 0 "" 2
 407              		.loc 1 224 0
 408              		.thumb
 409 0004 074B     		ldr	r3, .L18
 410 0006 9B69     		ldr	r3, [r3, #24]
 411 0008 1C6C     		ldr	r4, [r3, #64]
 412              	.LVL18:
 413              		.loc 1 225 0
 414 000a 9968     		ldr	r1, [r3, #8]
 415 000c 8C42     		cmp	r4, r1
 416 000e 01D0     		beq	.L14
 417              		.loc 1 225 0 is_stmt 0 discriminator 1
 418 0010 8142     		cmp	r1, r0
 419 0012 00D2     		bcs	.L15
 420              	.L14:
 421              		.loc 1 226 0 is_stmt 1
 422 0014 9860     		str	r0, [r3, #8]
 423              	.L15:
 424              		.loc 1 227 0
 425 0016 1864     		str	r0, [r3, #64]
 426              		.loc 1 232 0
 427 0018 FFF7FEFF 		bl	chSchRescheduleS
 428              	.LVL19:
 429              		.loc 1 233 0
 430              	@ 233 "lib/ChibiOS_2.6.6/os/kernel/src/chthreads.c" 1
 431 001c 62B6     		cpsie   i
 432              	@ 0 "" 2
 433              		.loc 1 235 0
 434              		.thumb
 435 001e 2046     		mov	r0, r4
 436 0020 10BD     		pop	{r4, pc}
 437              	.LVL20:
 438              	.L19:
 439 0022 00BF     		.align	2
 440              	.L18:
 441 0024 00000000 		.word	rlist
 442              		.cfi_endproc
 443              	.LFE10:
 444              		.size	chThdSetPriority, .-chThdSetPriority
 445              		.section	.text.chThdResume,"ax",%progbits
 446              		.align	2
 447              		.p2align 4,,15
 448              		.global	chThdResume
 449              		.thumb
 450              		.thumb_func
 451              		.type	chThdResume, %function
 452              	chThdResume:
 453              	.LFB11:
 454              		.loc 1 250 0
 455              		.cfi_startproc
 456              		@ args = 0, pretend = 0, frame = 0
ARM GAS  /var/folders/bz/nn5481rn5xq59rb0mbj7x0880000gn/T//ccr8IYTK.s 			page 9


 457              		@ frame_needed = 0, uses_anonymous_args = 0
 458              	.LVL21:
 459 0000 10B5     		push	{r4, lr}
 460              		.cfi_def_cfa_offset 8
 461              		.cfi_offset 4, -8
 462              		.cfi_offset 14, -4
 463              		.loc 1 250 0
 464 0002 0446     		mov	r4, r0
 465              		.loc 1 252 0
 466              	@ 252 "lib/ChibiOS_2.6.6/os/kernel/src/chthreads.c" 1
 467 0004 72B6     		cpsid   i
 468              	@ 0 "" 2
 469              		.loc 1 256 0
 470              		.thumb
 471 0006 0021     		movs	r1, #0
 472 0008 FFF7FEFF 		bl	chSchWakeupS
 473              	.LVL22:
 474              		.loc 1 257 0
 475              	@ 257 "lib/ChibiOS_2.6.6/os/kernel/src/chthreads.c" 1
 476 000c 62B6     		cpsie   i
 477              	@ 0 "" 2
 478              		.loc 1 259 0
 479              		.thumb
 480 000e 2046     		mov	r0, r4
 481 0010 10BD     		pop	{r4, pc}
 482              		.cfi_endproc
 483              	.LFE11:
 484              		.size	chThdResume, .-chThdResume
 485 0012 00BF     		.section	.text.chThdTerminate,"ax",%progbits
 486              		.align	2
 487              		.p2align 4,,15
 488              		.global	chThdTerminate
 489              		.thumb
 490              		.thumb_func
 491              		.type	chThdTerminate, %function
 492              	chThdTerminate:
 493              	.LFB12:
 494              		.loc 1 273 0
 495              		.cfi_startproc
 496              		@ args = 0, pretend = 0, frame = 0
 497              		@ frame_needed = 0, uses_anonymous_args = 0
 498              		@ link register save eliminated.
 499              	.LVL23:
 500              		.loc 1 275 0
 501              	@ 275 "lib/ChibiOS_2.6.6/os/kernel/src/chthreads.c" 1
 502 0000 72B6     		cpsid   i
 503              	@ 0 "" 2
 504              		.loc 1 276 0
 505              		.thumb
 506 0002 437F     		ldrb	r3, [r0, #29]	@ zero_extendqisi2
 507 0004 43F00403 		orr	r3, r3, #4
 508 0008 4377     		strb	r3, [r0, #29]
 509              		.loc 1 277 0
 510              	@ 277 "lib/ChibiOS_2.6.6/os/kernel/src/chthreads.c" 1
 511 000a 62B6     		cpsie   i
 512              	@ 0 "" 2
 513              		.thumb
ARM GAS  /var/folders/bz/nn5481rn5xq59rb0mbj7x0880000gn/T//ccr8IYTK.s 			page 10


 514 000c 7047     		bx	lr
 515              		.cfi_endproc
 516              	.LFE12:
 517              		.size	chThdTerminate, .-chThdTerminate
 518 000e 00BF     		.section	.text.chThdSleep,"ax",%progbits
 519              		.align	2
 520              		.p2align 4,,15
 521              		.global	chThdSleep
 522              		.thumb
 523              		.thumb_func
 524              		.type	chThdSleep, %function
 525              	chThdSleep:
 526              	.LFB13:
 527              		.loc 1 292 0
 528              		.cfi_startproc
 529              		@ args = 0, pretend = 0, frame = 0
 530              		@ frame_needed = 0, uses_anonymous_args = 0
 531              	.LVL24:
 532 0000 08B5     		push	{r3, lr}
 533              		.cfi_def_cfa_offset 8
 534              		.cfi_offset 3, -8
 535              		.cfi_offset 14, -4
 536              		.loc 1 292 0
 537 0002 0146     		mov	r1, r0
 538              		.loc 1 296 0
 539              	@ 296 "lib/ChibiOS_2.6.6/os/kernel/src/chthreads.c" 1
 540 0004 72B6     		cpsid   i
 541              	@ 0 "" 2
 542              		.loc 1 297 0
 543              		.thumb
 544 0006 0620     		movs	r0, #6
 545              	.LVL25:
 546 0008 FFF7FEFF 		bl	chSchGoSleepTimeoutS
 547              	.LVL26:
 548              		.loc 1 298 0
 549              	@ 298 "lib/ChibiOS_2.6.6/os/kernel/src/chthreads.c" 1
 550 000c 62B6     		cpsie   i
 551              	@ 0 "" 2
 552              		.thumb
 553 000e 08BD     		pop	{r3, pc}
 554              		.cfi_endproc
 555              	.LFE13:
 556              		.size	chThdSleep, .-chThdSleep
 557              		.section	.text.chThdSleepUntil,"ax",%progbits
 558              		.align	2
 559              		.p2align 4,,15
 560              		.global	chThdSleepUntil
 561              		.thumb
 562              		.thumb_func
 563              		.type	chThdSleepUntil, %function
 564              	chThdSleepUntil:
 565              	.LFB14:
 566              		.loc 1 309 0
 567              		.cfi_startproc
 568              		@ args = 0, pretend = 0, frame = 0
 569              		@ frame_needed = 0, uses_anonymous_args = 0
 570              	.LVL27:
ARM GAS  /var/folders/bz/nn5481rn5xq59rb0mbj7x0880000gn/T//ccr8IYTK.s 			page 11


 571 0000 08B5     		push	{r3, lr}
 572              		.cfi_def_cfa_offset 8
 573              		.cfi_offset 3, -8
 574              		.cfi_offset 14, -4
 575              		.loc 1 311 0
 576              	@ 311 "lib/ChibiOS_2.6.6/os/kernel/src/chthreads.c" 1
 577 0002 72B6     		cpsid   i
 578              	@ 0 "" 2
 579              		.loc 1 312 0
 580              		.thumb
 581 0004 044B     		ldr	r3, .L31
 582 0006 D968     		ldr	r1, [r3, #12]
 583              	.LVL28:
 584 0008 411A     		subs	r1, r0, r1
 585              	.LVL29:
 586 000a 02D0     		beq	.L26
 587              		.loc 1 313 0
 588 000c 0620     		movs	r0, #6
 589 000e FFF7FEFF 		bl	chSchGoSleepTimeoutS
 590              	.LVL30:
 591              	.L26:
 592              		.loc 1 314 0
 593              	@ 314 "lib/ChibiOS_2.6.6/os/kernel/src/chthreads.c" 1
 594 0012 62B6     		cpsie   i
 595              	@ 0 "" 2
 596              		.thumb
 597 0014 08BD     		pop	{r3, pc}
 598              	.L32:
 599 0016 00BF     		.align	2
 600              	.L31:
 601 0018 00000000 		.word	vtlist
 602              		.cfi_endproc
 603              	.LFE14:
 604              		.size	chThdSleepUntil, .-chThdSleepUntil
 605              		.section	.text.chThdYield,"ax",%progbits
 606              		.align	2
 607              		.p2align 4,,15
 608              		.global	chThdYield
 609              		.thumb
 610              		.thumb_func
 611              		.type	chThdYield, %function
 612              	chThdYield:
 613              	.LFB15:
 614              		.loc 1 324 0
 615              		.cfi_startproc
 616              		@ args = 0, pretend = 0, frame = 0
 617              		@ frame_needed = 0, uses_anonymous_args = 0
 618 0000 08B5     		push	{r3, lr}
 619              		.cfi_def_cfa_offset 8
 620              		.cfi_offset 3, -8
 621              		.cfi_offset 14, -4
 622              		.loc 1 326 0
 623              	@ 326 "lib/ChibiOS_2.6.6/os/kernel/src/chthreads.c" 1
 624 0002 72B6     		cpsid   i
 625              	@ 0 "" 2
 626              		.loc 1 327 0
 627              		.thumb
ARM GAS  /var/folders/bz/nn5481rn5xq59rb0mbj7x0880000gn/T//ccr8IYTK.s 			page 12


 628 0004 054B     		ldr	r3, .L36
 629 0006 1A68     		ldr	r2, [r3]
 630 0008 9B69     		ldr	r3, [r3, #24]
 631 000a 9268     		ldr	r2, [r2, #8]
 632 000c 9B68     		ldr	r3, [r3, #8]
 633 000e 9A42     		cmp	r2, r3
 634 0010 01D3     		bcc	.L34
 635              		.loc 1 327 0 is_stmt 0 discriminator 1
 636 0012 FFF7FEFF 		bl	chSchDoRescheduleBehind
 637              	.LVL31:
 638              	.L34:
 639              		.loc 1 328 0 is_stmt 1
 640              	@ 328 "lib/ChibiOS_2.6.6/os/kernel/src/chthreads.c" 1
 641 0016 62B6     		cpsie   i
 642              	@ 0 "" 2
 643              		.thumb
 644 0018 08BD     		pop	{r3, pc}
 645              	.L37:
 646 001a 00BF     		.align	2
 647              	.L36:
 648 001c 00000000 		.word	rlist
 649              		.cfi_endproc
 650              	.LFE15:
 651              		.size	chThdYield, .-chThdYield
 652              		.section	.text.chThdExitS,"ax",%progbits
 653              		.align	2
 654              		.p2align 4,,15
 655              		.global	chThdExitS
 656              		.thumb
 657              		.thumb_func
 658              		.type	chThdExitS, %function
 659              	chThdExitS:
 660              	.LFB17:
 661              		.loc 1 366 0
 662              		.cfi_startproc
 663              		@ args = 0, pretend = 0, frame = 0
 664              		@ frame_needed = 0, uses_anonymous_args = 0
 665              	.LVL32:
 666 0000 38B5     		push	{r3, r4, r5, lr}
 667              		.cfi_def_cfa_offset 16
 668              		.cfi_offset 3, -16
 669              		.cfi_offset 4, -12
 670              		.cfi_offset 5, -8
 671              		.cfi_offset 14, -4
 672              		.loc 1 367 0
 673 0002 0E4B     		ldr	r3, .L46
 674 0004 9C69     		ldr	r4, [r3, #24]
 675              	.LVL33:
 676              		.loc 1 374 0
 677 0006 2546     		mov	r5, r4
 678              		.loc 1 369 0
 679 0008 6062     		str	r0, [r4, #36]
 680              		.loc 1 374 0
 681 000a 55F8280F 		ldr	r0, [r5, #40]!
 682              	.LVL34:
 683 000e A842     		cmp	r0, r5
 684 0010 06D0     		beq	.L43
ARM GAS  /var/folders/bz/nn5481rn5xq59rb0mbj7x0880000gn/T//ccr8IYTK.s 			page 13


 685              	.LVL35:
 686              	.L42:
 687              	.LBB42:
 688              	.LBB43:
 689              		.file 2 "lib/ChibiOS_2.6.6/os/kernel/include/chinline.h"
 690              		.loc 2 89 0
 691 0012 0368     		ldr	r3, [r0]
 692 0014 A362     		str	r3, [r4, #40]
 693              	.LBE43:
 694              	.LBE42:
 695              		.loc 1 375 0
 696 0016 FFF7FEFF 		bl	chSchReadyI
 697              	.LVL36:
 698              		.loc 1 374 0
 699 001a A06A     		ldr	r0, [r4, #40]
 700 001c A842     		cmp	r0, r5
 701 001e F8D1     		bne	.L42
 702              	.LVL37:
 703              	.L43:
 704              		.loc 1 380 0
 705 0020 637F     		ldrb	r3, [r4, #29]	@ zero_extendqisi2
 706 0022 9B07     		lsls	r3, r3, #30
 707 0024 04D1     		bne	.L41
 708              		.loc 1 381 0
 709 0026 6369     		ldr	r3, [r4, #20]
 710 0028 2269     		ldr	r2, [r4, #16]
 711 002a 1A61     		str	r2, [r3, #16]
 712 002c 2269     		ldr	r2, [r4, #16]
 713 002e 5361     		str	r3, [r2, #20]
 714              	.L41:
 715              		.loc 1 383 0
 716 0030 0E20     		movs	r0, #14
 717              		.loc 1 386 0
 718 0032 BDE83840 		pop	{r3, r4, r5, lr}
 719              		.cfi_restore 14
 720              		.cfi_restore 5
 721              		.cfi_restore 4
 722              		.cfi_restore 3
 723              		.cfi_def_cfa_offset 0
 724              	.LVL38:
 725              		.loc 1 383 0
 726 0036 FFF7FEBF 		b	chSchGoSleepS
 727              	.LVL39:
 728              	.L47:
 729 003a 00BF     		.align	2
 730              	.L46:
 731 003c 00000000 		.word	rlist
 732              		.cfi_endproc
 733              	.LFE17:
 734              		.size	chThdExitS, .-chThdExitS
 735              		.section	.text.chThdExit,"ax",%progbits
 736              		.align	2
 737              		.p2align 4,,15
 738              		.global	chThdExit
 739              		.thumb
 740              		.thumb_func
 741              		.type	chThdExit, %function
ARM GAS  /var/folders/bz/nn5481rn5xq59rb0mbj7x0880000gn/T//ccr8IYTK.s 			page 14


 742              	chThdExit:
 743              	.LFB16:
 744              		.loc 1 345 0
 745              		.cfi_startproc
 746              		@ args = 0, pretend = 0, frame = 0
 747              		@ frame_needed = 0, uses_anonymous_args = 0
 748              		@ link register save eliminated.
 749              	.LVL40:
 750              		.loc 1 347 0
 751              	@ 347 "lib/ChibiOS_2.6.6/os/kernel/src/chthreads.c" 1
 752 0000 72B6     		cpsid   i
 753              	@ 0 "" 2
 754              		.loc 1 348 0
 755              		.thumb
 756 0002 FFF7FEBF 		b	chThdExitS
 757              	.LVL41:
 758              		.cfi_endproc
 759              	.LFE16:
 760              		.size	chThdExit, .-chThdExit
 761 0006 00BF     		.section	.text.chThdWait,"ax",%progbits
 762              		.align	2
 763              		.p2align 4,,15
 764              		.global	chThdWait
 765              		.thumb
 766              		.thumb_func
 767              		.type	chThdWait, %function
 768              	chThdWait:
 769              	.LFB18:
 770              		.loc 1 420 0
 771              		.cfi_startproc
 772              		@ args = 0, pretend = 0, frame = 0
 773              		@ frame_needed = 0, uses_anonymous_args = 0
 774              	.LVL42:
 775 0000 38B5     		push	{r3, r4, r5, lr}
 776              		.cfi_def_cfa_offset 16
 777              		.cfi_offset 3, -16
 778              		.cfi_offset 4, -12
 779              		.cfi_offset 5, -8
 780              		.cfi_offset 14, -4
 781              		.loc 1 420 0
 782 0002 0446     		mov	r4, r0
 783              		.loc 1 425 0
 784              	@ 425 "lib/ChibiOS_2.6.6/os/kernel/src/chthreads.c" 1
 785 0004 72B6     		cpsid   i
 786              	@ 0 "" 2
 787              		.loc 1 430 0
 788              		.thumb
 789 0006 037F     		ldrb	r3, [r0, #28]	@ zero_extendqisi2
 790 0008 0E2B     		cmp	r3, #14
 791 000a 07D0     		beq	.L50
 792              		.loc 1 431 0
 793 000c 074B     		ldr	r3, .L55
 794              	.LBB44:
 795              	.LBB45:
 796              		.loc 2 82 0
 797 000e 826A     		ldr	r2, [r0, #40]
 798              	.LBE45:
ARM GAS  /var/folders/bz/nn5481rn5xq59rb0mbj7x0880000gn/T//ccr8IYTK.s 			page 15


 799              	.LBE44:
 800              		.loc 1 431 0
 801 0010 9B69     		ldr	r3, [r3, #24]
 802              	.LVL43:
 803              		.loc 1 432 0
 804 0012 0720     		movs	r0, #7
 805              	.LVL44:
 806              	.LBB47:
 807              	.LBB46:
 808              		.loc 2 82 0
 809 0014 1A60     		str	r2, [r3]
 810              		.loc 2 83 0
 811 0016 A362     		str	r3, [r4, #40]
 812              	.LBE46:
 813              	.LBE47:
 814              		.loc 1 432 0
 815 0018 FFF7FEFF 		bl	chSchGoSleepS
 816              	.LVL45:
 817              	.L50:
 818              		.loc 1 434 0
 819 001c 656A     		ldr	r5, [r4, #36]
 820              	.LVL46:
 821              		.loc 1 435 0
 822              	@ 435 "lib/ChibiOS_2.6.6/os/kernel/src/chthreads.c" 1
 823 001e 62B6     		cpsie   i
 824              	@ 0 "" 2
 825              		.loc 1 437 0
 826              		.thumb
 827 0020 2046     		mov	r0, r4
 828 0022 FFF7FEFF 		bl	chThdRelease
 829              	.LVL47:
 830              		.loc 1 440 0
 831 0026 2846     		mov	r0, r5
 832 0028 38BD     		pop	{r3, r4, r5, pc}
 833              	.LVL48:
 834              	.L56:
 835 002a 00BF     		.align	2
 836              	.L55:
 837 002c 00000000 		.word	rlist
 838              		.cfi_endproc
 839              	.LFE18:
 840              		.size	chThdWait, .-chThdWait
 841              		.text
 842              	.Letext0:
 843              		.file 3 "/Users/imac/Downloads/gcc-arm-none-eabi-4_9-2015q2/lib/gcc/arm-none-eabi/4.9.3/include/st
 844              		.file 4 "/Users/imac/Downloads/gcc-arm-none-eabi-4_9-2015q2/arm-none-eabi/include/machine/_default
 845              		.file 5 "/Users/imac/Downloads/gcc-arm-none-eabi-4_9-2015q2/arm-none-eabi/include/sys/_stdint.h"
 846              		.file 6 "lib/ChibiOS_2.6.6/os/ports/GCC/ARMCMx/chtypes.h"
 847              		.file 7 "lib/ChibiOS_2.6.6/os/kernel/include/chlists.h"
 848              		.file 8 "lib/ChibiOS_2.6.6/os/kernel/include/chthreads.h"
 849              		.file 9 "lib/ChibiOS_2.6.6/os/ports/GCC/ARMCMx/chcore_v7m.h"
 850              		.file 10 "lib/ChibiOS_2.6.6/os/kernel/include/chvt.h"
 851              		.file 11 "lib/ChibiOS_2.6.6/os/kernel/include/chschd.h"
 852              		.file 12 "lib/ChibiOS_2.6.6/os/kernel/include/chmtx.h"
 853              		.file 13 "lib/ChibiOS_2.6.6/os/kernel/include/chdynamic.h"
 854              		.section	.debug_info,"",%progbits
 855              	.Ldebug_info0:
ARM GAS  /var/folders/bz/nn5481rn5xq59rb0mbj7x0880000gn/T//ccr8IYTK.s 			page 16


 856 0000 EF0A0000 		.4byte	0xaef
 857 0004 0400     		.2byte	0x4
 858 0006 00000000 		.4byte	.Ldebug_abbrev0
 859 000a 04       		.byte	0x4
 860 000b 01       		.uleb128 0x1
 861 000c B8030000 		.4byte	.LASF102
 862 0010 01       		.byte	0x1
 863 0011 0A030000 		.4byte	.LASF103
 864 0015 CC000000 		.4byte	.LASF104
 865 0019 A8000000 		.4byte	.Ldebug_ranges0+0xa8
 866 001d 00000000 		.4byte	0
 867 0021 00000000 		.4byte	.Ldebug_line0
 868 0025 02       		.uleb128 0x2
 869 0026 04       		.byte	0x4
 870 0027 05       		.byte	0x5
 871 0028 696E7400 		.ascii	"int\000"
 872 002c 03       		.uleb128 0x3
 873 002d 0E000000 		.4byte	.LASF2
 874 0031 03       		.byte	0x3
 875 0032 D4       		.byte	0xd4
 876 0033 37000000 		.4byte	0x37
 877 0037 04       		.uleb128 0x4
 878 0038 04       		.byte	0x4
 879 0039 07       		.byte	0x7
 880 003a 31010000 		.4byte	.LASF0
 881 003e 04       		.uleb128 0x4
 882 003f 01       		.byte	0x1
 883 0040 06       		.byte	0x6
 884 0041 69000000 		.4byte	.LASF1
 885 0045 03       		.uleb128 0x3
 886 0046 21000000 		.4byte	.LASF3
 887 004a 04       		.byte	0x4
 888 004b 1D       		.byte	0x1d
 889 004c 50000000 		.4byte	0x50
 890 0050 04       		.uleb128 0x4
 891 0051 01       		.byte	0x1
 892 0052 08       		.byte	0x8
 893 0053 B9020000 		.4byte	.LASF4
 894 0057 04       		.uleb128 0x4
 895 0058 02       		.byte	0x2
 896 0059 05       		.byte	0x5
 897 005a D1020000 		.4byte	.LASF5
 898 005e 04       		.uleb128 0x4
 899 005f 02       		.byte	0x2
 900 0060 07       		.byte	0x7
 901 0061 83010000 		.4byte	.LASF6
 902 0065 03       		.uleb128 0x3
 903 0066 AE030000 		.4byte	.LASF7
 904 006a 04       		.byte	0x4
 905 006b 3F       		.byte	0x3f
 906 006c 70000000 		.4byte	0x70
 907 0070 04       		.uleb128 0x4
 908 0071 04       		.byte	0x4
 909 0072 05       		.byte	0x5
 910 0073 A6000000 		.4byte	.LASF8
 911 0077 03       		.uleb128 0x3
 912 0078 04010000 		.4byte	.LASF9
ARM GAS  /var/folders/bz/nn5481rn5xq59rb0mbj7x0880000gn/T//ccr8IYTK.s 			page 17


 913 007c 04       		.byte	0x4
 914 007d 41       		.byte	0x41
 915 007e 82000000 		.4byte	0x82
 916 0082 04       		.uleb128 0x4
 917 0083 04       		.byte	0x4
 918 0084 07       		.byte	0x7
 919 0085 4E010000 		.4byte	.LASF10
 920 0089 04       		.uleb128 0x4
 921 008a 08       		.byte	0x8
 922 008b 05       		.byte	0x5
 923 008c 5B000000 		.4byte	.LASF11
 924 0090 04       		.uleb128 0x4
 925 0091 08       		.byte	0x8
 926 0092 07       		.byte	0x7
 927 0093 3D000000 		.4byte	.LASF12
 928 0097 03       		.uleb128 0x3
 929 0098 28050000 		.4byte	.LASF13
 930 009c 05       		.byte	0x5
 931 009d 14       		.byte	0x14
 932 009e 45000000 		.4byte	0x45
 933 00a2 03       		.uleb128 0x3
 934 00a3 B1020000 		.4byte	.LASF14
 935 00a7 05       		.byte	0x5
 936 00a8 1F       		.byte	0x1f
 937 00a9 65000000 		.4byte	0x65
 938 00ad 03       		.uleb128 0x3
 939 00ae 63030000 		.4byte	.LASF15
 940 00b2 05       		.byte	0x5
 941 00b3 20       		.byte	0x20
 942 00b4 77000000 		.4byte	0x77
 943 00b8 04       		.uleb128 0x4
 944 00b9 01       		.byte	0x1
 945 00ba 02       		.byte	0x2
 946 00bb AB020000 		.4byte	.LASF16
 947 00bf 03       		.uleb128 0x3
 948 00c0 BA010000 		.4byte	.LASF17
 949 00c4 06       		.byte	0x6
 950 00c5 2C       		.byte	0x2c
 951 00c6 97000000 		.4byte	0x97
 952 00ca 03       		.uleb128 0x3
 953 00cb AF000000 		.4byte	.LASF18
 954 00cf 06       		.byte	0x6
 955 00d0 2D       		.byte	0x2d
 956 00d1 97000000 		.4byte	0x97
 957 00d5 03       		.uleb128 0x3
 958 00d6 94020000 		.4byte	.LASF19
 959 00da 06       		.byte	0x6
 960 00db 2E       		.byte	0x2e
 961 00dc 97000000 		.4byte	0x97
 962 00e0 03       		.uleb128 0x3
 963 00e1 8F000000 		.4byte	.LASF20
 964 00e5 06       		.byte	0x6
 965 00e6 2F       		.byte	0x2f
 966 00e7 97000000 		.4byte	0x97
 967 00eb 03       		.uleb128 0x3
 968 00ec A3020000 		.4byte	.LASF21
 969 00f0 06       		.byte	0x6
ARM GAS  /var/folders/bz/nn5481rn5xq59rb0mbj7x0880000gn/T//ccr8IYTK.s 			page 18


 970 00f1 30       		.byte	0x30
 971 00f2 AD000000 		.4byte	0xad
 972 00f6 03       		.uleb128 0x3
 973 00f7 A3010000 		.4byte	.LASF22
 974 00fb 06       		.byte	0x6
 975 00fc 31       		.byte	0x31
 976 00fd A2000000 		.4byte	0xa2
 977 0101 03       		.uleb128 0x3
 978 0102 DD010000 		.4byte	.LASF23
 979 0106 06       		.byte	0x6
 980 0107 33       		.byte	0x33
 981 0108 AD000000 		.4byte	0xad
 982 010c 03       		.uleb128 0x3
 983 010d 99030000 		.4byte	.LASF24
 984 0111 06       		.byte	0x6
 985 0112 35       		.byte	0x35
 986 0113 AD000000 		.4byte	0xad
 987 0117 03       		.uleb128 0x3
 988 0118 43030000 		.4byte	.LASF25
 989 011c 07       		.byte	0x7
 990 011d 2A       		.byte	0x2a
 991 011e 22010000 		.4byte	0x122
 992 0122 05       		.uleb128 0x5
 993 0123 43030000 		.4byte	.LASF25
 994 0127 48       		.byte	0x48
 995 0128 08       		.byte	0x8
 996 0129 5E       		.byte	0x5e
 997 012a 1F020000 		.4byte	0x21f
 998 012e 06       		.uleb128 0x6
 999 012f FB020000 		.4byte	.LASF26
 1000 0133 08       		.byte	0x8
 1001 0134 5F       		.byte	0x5f
 1002 0135 40020000 		.4byte	0x240
 1003 0139 00       		.byte	0
 1004 013a 06       		.uleb128 0x6
 1005 013b 9C020000 		.4byte	.LASF27
 1006 013f 08       		.byte	0x8
 1007 0140 61       		.byte	0x61
 1008 0141 40020000 		.4byte	0x240
 1009 0145 04       		.byte	0x4
 1010 0146 06       		.uleb128 0x6
 1011 0147 54000000 		.4byte	.LASF28
 1012 014b 08       		.byte	0x8
 1013 014c 63       		.byte	0x63
 1014 014d EB000000 		.4byte	0xeb
 1015 0151 08       		.byte	0x8
 1016 0152 06       		.uleb128 0x6
 1017 0153 78050000 		.4byte	.LASF29
 1018 0157 08       		.byte	0x8
 1019 0158 64       		.byte	0x64
 1020 0159 CA030000 		.4byte	0x3ca
 1021 015d 0C       		.byte	0xc
 1022 015e 06       		.uleb128 0x6
 1023 015f B8000000 		.4byte	.LASF30
 1024 0163 08       		.byte	0x8
 1025 0164 66       		.byte	0x66
 1026 0165 40020000 		.4byte	0x240
ARM GAS  /var/folders/bz/nn5481rn5xq59rb0mbj7x0880000gn/T//ccr8IYTK.s 			page 19


 1027 0169 10       		.byte	0x10
 1028 016a 06       		.uleb128 0x6
 1029 016b 46020000 		.4byte	.LASF31
 1030 016f 08       		.byte	0x8
 1031 0170 67       		.byte	0x67
 1032 0171 40020000 		.4byte	0x240
 1033 0175 14       		.byte	0x14
 1034 0176 06       		.uleb128 0x6
 1035 0177 42050000 		.4byte	.LASF32
 1036 017b 08       		.byte	0x8
 1037 017c 6E       		.byte	0x6e
 1038 017d 84050000 		.4byte	0x584
 1039 0181 18       		.byte	0x18
 1040 0182 06       		.uleb128 0x6
 1041 0183 DB020000 		.4byte	.LASF33
 1042 0187 08       		.byte	0x8
 1043 0188 79       		.byte	0x79
 1044 0189 CA000000 		.4byte	0xca
 1045 018d 1C       		.byte	0x1c
 1046 018e 06       		.uleb128 0x6
 1047 018f 02030000 		.4byte	.LASF34
 1048 0193 08       		.byte	0x8
 1049 0194 7D       		.byte	0x7d
 1050 0195 BF000000 		.4byte	0xbf
 1051 0199 1D       		.byte	0x1d
 1052 019a 06       		.uleb128 0x6
 1053 019b 11050000 		.4byte	.LASF35
 1054 019f 08       		.byte	0x8
 1055 01a0 82       		.byte	0x82
 1056 01a1 D5000000 		.4byte	0xd5
 1057 01a5 1E       		.byte	0x1e
 1058 01a6 06       		.uleb128 0x6
 1059 01a7 E3020000 		.4byte	.LASF36
 1060 01ab 08       		.byte	0x8
 1061 01ac 88       		.byte	0x88
 1062 01ad E0000000 		.4byte	0xe0
 1063 01b1 1F       		.byte	0x1f
 1064 01b2 06       		.uleb128 0x6
 1065 01b3 DC040000 		.4byte	.LASF37
 1066 01b7 08       		.byte	0x8
 1067 01b8 8F       		.byte	0x8f
 1068 01b9 A1040000 		.4byte	0x4a1
 1069 01bd 20       		.byte	0x20
 1070 01be 07       		.uleb128 0x7
 1071 01bf 705F7500 		.ascii	"p_u\000"
 1072 01c3 08       		.byte	0x8
 1073 01c4 B4       		.byte	0xb4
 1074 01c5 4F050000 		.4byte	0x54f
 1075 01c9 24       		.byte	0x24
 1076 01ca 06       		.uleb128 0x6
 1077 01cb 7E050000 		.4byte	.LASF38
 1078 01cf 08       		.byte	0x8
 1079 01d0 B9       		.byte	0xb9
 1080 01d1 66020000 		.4byte	0x266
 1081 01d5 28       		.byte	0x28
 1082 01d6 06       		.uleb128 0x6
 1083 01d7 EA040000 		.4byte	.LASF39
ARM GAS  /var/folders/bz/nn5481rn5xq59rb0mbj7x0880000gn/T//ccr8IYTK.s 			page 20


 1084 01db 08       		.byte	0x8
 1085 01dc BF       		.byte	0xbf
 1086 01dd 46020000 		.4byte	0x246
 1087 01e1 2C       		.byte	0x2c
 1088 01e2 06       		.uleb128 0x6
 1089 01e3 08000000 		.4byte	.LASF40
 1090 01e7 08       		.byte	0x8
 1091 01e8 C3       		.byte	0xc3
 1092 01e9 F6000000 		.4byte	0xf6
 1093 01ed 34       		.byte	0x34
 1094 01ee 06       		.uleb128 0x6
 1095 01ef 58030000 		.4byte	.LASF41
 1096 01f3 08       		.byte	0x8
 1097 01f4 C9       		.byte	0xc9
 1098 01f5 01010000 		.4byte	0x101
 1099 01f9 38       		.byte	0x38
 1100 01fa 06       		.uleb128 0x6
 1101 01fb C7020000 		.4byte	.LASF42
 1102 01ff 08       		.byte	0x8
 1103 0200 D0       		.byte	0xd0
 1104 0201 96050000 		.4byte	0x596
 1105 0205 3C       		.byte	0x3c
 1106 0206 06       		.uleb128 0x6
 1107 0207 A3030000 		.4byte	.LASF43
 1108 020b 08       		.byte	0x8
 1109 020c D4       		.byte	0xd4
 1110 020d EB000000 		.4byte	0xeb
 1111 0211 40       		.byte	0x40
 1112 0212 06       		.uleb128 0x6
 1113 0213 7F000000 		.4byte	.LASF44
 1114 0217 08       		.byte	0x8
 1115 0218 DA       		.byte	0xda
 1116 0219 7C020000 		.4byte	0x27c
 1117 021d 44       		.byte	0x44
 1118 021e 00       		.byte	0
 1119 021f 08       		.uleb128 0x8
 1120 0220 08       		.byte	0x8
 1121 0221 07       		.byte	0x7
 1122 0222 61       		.byte	0x61
 1123 0223 40020000 		.4byte	0x240
 1124 0227 06       		.uleb128 0x6
 1125 0228 FB020000 		.4byte	.LASF26
 1126 022c 07       		.byte	0x7
 1127 022d 62       		.byte	0x62
 1128 022e 40020000 		.4byte	0x240
 1129 0232 00       		.byte	0
 1130 0233 06       		.uleb128 0x6
 1131 0234 9C020000 		.4byte	.LASF27
 1132 0238 07       		.byte	0x7
 1133 0239 64       		.byte	0x64
 1134 023a 40020000 		.4byte	0x240
 1135 023e 04       		.byte	0x4
 1136 023f 00       		.byte	0
 1137 0240 09       		.uleb128 0x9
 1138 0241 04       		.byte	0x4
 1139 0242 17010000 		.4byte	0x117
 1140 0246 03       		.uleb128 0x3
ARM GAS  /var/folders/bz/nn5481rn5xq59rb0mbj7x0880000gn/T//ccr8IYTK.s 			page 21


 1141 0247 54020000 		.4byte	.LASF45
 1142 024b 07       		.byte	0x7
 1143 024c 66       		.byte	0x66
 1144 024d 1F020000 		.4byte	0x21f
 1145 0251 08       		.uleb128 0x8
 1146 0252 04       		.byte	0x4
 1147 0253 07       		.byte	0x7
 1148 0254 6B       		.byte	0x6b
 1149 0255 66020000 		.4byte	0x266
 1150 0259 06       		.uleb128 0x6
 1151 025a FB020000 		.4byte	.LASF26
 1152 025e 07       		.byte	0x7
 1153 025f 6D       		.byte	0x6d
 1154 0260 40020000 		.4byte	0x240
 1155 0264 00       		.byte	0
 1156 0265 00       		.byte	0
 1157 0266 03       		.uleb128 0x3
 1158 0267 D1010000 		.4byte	.LASF46
 1159 026b 07       		.byte	0x7
 1160 026c 70       		.byte	0x70
 1161 026d 51020000 		.4byte	0x251
 1162 0271 03       		.uleb128 0x3
 1163 0272 0F010000 		.4byte	.LASF47
 1164 0276 09       		.byte	0x9
 1165 0277 E5       		.byte	0xe5
 1166 0278 7C020000 		.4byte	0x27c
 1167 027c 0A       		.uleb128 0xa
 1168 027d 04       		.byte	0x4
 1169 027e 0B       		.uleb128 0xb
 1170 027f E3040000 		.4byte	.LASF48
 1171 0283 64       		.byte	0x64
 1172 0284 09       		.byte	0x9
 1173 0285 0C01     		.2byte	0x10c
 1174 0287 CA030000 		.4byte	0x3ca
 1175 028b 0C       		.uleb128 0xc
 1176 028c 73313600 		.ascii	"s16\000"
 1177 0290 09       		.byte	0x9
 1178 0291 0E01     		.2byte	0x10e
 1179 0293 71020000 		.4byte	0x271
 1180 0297 00       		.byte	0
 1181 0298 0C       		.uleb128 0xc
 1182 0299 73313700 		.ascii	"s17\000"
 1183 029d 09       		.byte	0x9
 1184 029e 0F01     		.2byte	0x10f
 1185 02a0 71020000 		.4byte	0x271
 1186 02a4 04       		.byte	0x4
 1187 02a5 0C       		.uleb128 0xc
 1188 02a6 73313800 		.ascii	"s18\000"
 1189 02aa 09       		.byte	0x9
 1190 02ab 1001     		.2byte	0x110
 1191 02ad 71020000 		.4byte	0x271
 1192 02b1 08       		.byte	0x8
 1193 02b2 0C       		.uleb128 0xc
 1194 02b3 73313900 		.ascii	"s19\000"
 1195 02b7 09       		.byte	0x9
 1196 02b8 1101     		.2byte	0x111
 1197 02ba 71020000 		.4byte	0x271
ARM GAS  /var/folders/bz/nn5481rn5xq59rb0mbj7x0880000gn/T//ccr8IYTK.s 			page 22


 1198 02be 0C       		.byte	0xc
 1199 02bf 0C       		.uleb128 0xc
 1200 02c0 73323000 		.ascii	"s20\000"
 1201 02c4 09       		.byte	0x9
 1202 02c5 1201     		.2byte	0x112
 1203 02c7 71020000 		.4byte	0x271
 1204 02cb 10       		.byte	0x10
 1205 02cc 0C       		.uleb128 0xc
 1206 02cd 73323100 		.ascii	"s21\000"
 1207 02d1 09       		.byte	0x9
 1208 02d2 1301     		.2byte	0x113
 1209 02d4 71020000 		.4byte	0x271
 1210 02d8 14       		.byte	0x14
 1211 02d9 0C       		.uleb128 0xc
 1212 02da 73323200 		.ascii	"s22\000"
 1213 02de 09       		.byte	0x9
 1214 02df 1401     		.2byte	0x114
 1215 02e1 71020000 		.4byte	0x271
 1216 02e5 18       		.byte	0x18
 1217 02e6 0C       		.uleb128 0xc
 1218 02e7 73323300 		.ascii	"s23\000"
 1219 02eb 09       		.byte	0x9
 1220 02ec 1501     		.2byte	0x115
 1221 02ee 71020000 		.4byte	0x271
 1222 02f2 1C       		.byte	0x1c
 1223 02f3 0C       		.uleb128 0xc
 1224 02f4 73323400 		.ascii	"s24\000"
 1225 02f8 09       		.byte	0x9
 1226 02f9 1601     		.2byte	0x116
 1227 02fb 71020000 		.4byte	0x271
 1228 02ff 20       		.byte	0x20
 1229 0300 0C       		.uleb128 0xc
 1230 0301 73323500 		.ascii	"s25\000"
 1231 0305 09       		.byte	0x9
 1232 0306 1701     		.2byte	0x117
 1233 0308 71020000 		.4byte	0x271
 1234 030c 24       		.byte	0x24
 1235 030d 0C       		.uleb128 0xc
 1236 030e 73323600 		.ascii	"s26\000"
 1237 0312 09       		.byte	0x9
 1238 0313 1801     		.2byte	0x118
 1239 0315 71020000 		.4byte	0x271
 1240 0319 28       		.byte	0x28
 1241 031a 0C       		.uleb128 0xc
 1242 031b 73323700 		.ascii	"s27\000"
 1243 031f 09       		.byte	0x9
 1244 0320 1901     		.2byte	0x119
 1245 0322 71020000 		.4byte	0x271
 1246 0326 2C       		.byte	0x2c
 1247 0327 0C       		.uleb128 0xc
 1248 0328 73323800 		.ascii	"s28\000"
 1249 032c 09       		.byte	0x9
 1250 032d 1A01     		.2byte	0x11a
 1251 032f 71020000 		.4byte	0x271
 1252 0333 30       		.byte	0x30
 1253 0334 0C       		.uleb128 0xc
 1254 0335 73323900 		.ascii	"s29\000"
ARM GAS  /var/folders/bz/nn5481rn5xq59rb0mbj7x0880000gn/T//ccr8IYTK.s 			page 23


 1255 0339 09       		.byte	0x9
 1256 033a 1B01     		.2byte	0x11b
 1257 033c 71020000 		.4byte	0x271
 1258 0340 34       		.byte	0x34
 1259 0341 0C       		.uleb128 0xc
 1260 0342 73333000 		.ascii	"s30\000"
 1261 0346 09       		.byte	0x9
 1262 0347 1C01     		.2byte	0x11c
 1263 0349 71020000 		.4byte	0x271
 1264 034d 38       		.byte	0x38
 1265 034e 0C       		.uleb128 0xc
 1266 034f 73333100 		.ascii	"s31\000"
 1267 0353 09       		.byte	0x9
 1268 0354 1D01     		.2byte	0x11d
 1269 0356 71020000 		.4byte	0x271
 1270 035a 3C       		.byte	0x3c
 1271 035b 0C       		.uleb128 0xc
 1272 035c 723400   		.ascii	"r4\000"
 1273 035f 09       		.byte	0x9
 1274 0360 1F01     		.2byte	0x11f
 1275 0362 71020000 		.4byte	0x271
 1276 0366 40       		.byte	0x40
 1277 0367 0C       		.uleb128 0xc
 1278 0368 723500   		.ascii	"r5\000"
 1279 036b 09       		.byte	0x9
 1280 036c 2001     		.2byte	0x120
 1281 036e 71020000 		.4byte	0x271
 1282 0372 44       		.byte	0x44
 1283 0373 0C       		.uleb128 0xc
 1284 0374 723600   		.ascii	"r6\000"
 1285 0377 09       		.byte	0x9
 1286 0378 2101     		.2byte	0x121
 1287 037a 71020000 		.4byte	0x271
 1288 037e 48       		.byte	0x48
 1289 037f 0C       		.uleb128 0xc
 1290 0380 723700   		.ascii	"r7\000"
 1291 0383 09       		.byte	0x9
 1292 0384 2201     		.2byte	0x122
 1293 0386 71020000 		.4byte	0x271
 1294 038a 4C       		.byte	0x4c
 1295 038b 0C       		.uleb128 0xc
 1296 038c 723800   		.ascii	"r8\000"
 1297 038f 09       		.byte	0x9
 1298 0390 2301     		.2byte	0x123
 1299 0392 71020000 		.4byte	0x271
 1300 0396 50       		.byte	0x50
 1301 0397 0C       		.uleb128 0xc
 1302 0398 723900   		.ascii	"r9\000"
 1303 039b 09       		.byte	0x9
 1304 039c 2401     		.2byte	0x124
 1305 039e 71020000 		.4byte	0x271
 1306 03a2 54       		.byte	0x54
 1307 03a3 0C       		.uleb128 0xc
 1308 03a4 72313000 		.ascii	"r10\000"
 1309 03a8 09       		.byte	0x9
 1310 03a9 2501     		.2byte	0x125
 1311 03ab 71020000 		.4byte	0x271
ARM GAS  /var/folders/bz/nn5481rn5xq59rb0mbj7x0880000gn/T//ccr8IYTK.s 			page 24


 1312 03af 58       		.byte	0x58
 1313 03b0 0C       		.uleb128 0xc
 1314 03b1 72313100 		.ascii	"r11\000"
 1315 03b5 09       		.byte	0x9
 1316 03b6 2601     		.2byte	0x126
 1317 03b8 71020000 		.4byte	0x271
 1318 03bc 5C       		.byte	0x5c
 1319 03bd 0C       		.uleb128 0xc
 1320 03be 6C7200   		.ascii	"lr\000"
 1321 03c1 09       		.byte	0x9
 1322 03c2 2701     		.2byte	0x127
 1323 03c4 71020000 		.4byte	0x271
 1324 03c8 60       		.byte	0x60
 1325 03c9 00       		.byte	0
 1326 03ca 0B       		.uleb128 0xb
 1327 03cb 76010000 		.4byte	.LASF49
 1328 03cf 04       		.byte	0x4
 1329 03d0 09       		.byte	0x9
 1330 03d1 3101     		.2byte	0x131
 1331 03d3 E5030000 		.4byte	0x3e5
 1332 03d7 0C       		.uleb128 0xc
 1333 03d8 72313300 		.ascii	"r13\000"
 1334 03dc 09       		.byte	0x9
 1335 03dd 3201     		.2byte	0x132
 1336 03df E5030000 		.4byte	0x3e5
 1337 03e3 00       		.byte	0
 1338 03e4 00       		.byte	0
 1339 03e5 09       		.uleb128 0x9
 1340 03e6 04       		.byte	0x4
 1341 03e7 7E020000 		.4byte	0x27e
 1342 03eb 04       		.uleb128 0x4
 1343 03ec 04       		.byte	0x4
 1344 03ed 07       		.byte	0x7
 1345 03ee 11020000 		.4byte	.LASF50
 1346 03f2 03       		.uleb128 0x3
 1347 03f3 60010000 		.4byte	.LASF51
 1348 03f7 0A       		.byte	0xa
 1349 03f8 58       		.byte	0x58
 1350 03f9 FD030000 		.4byte	0x3fd
 1351 03fd 09       		.uleb128 0x9
 1352 03fe 04       		.byte	0x4
 1353 03ff 03040000 		.4byte	0x403
 1354 0403 0D       		.uleb128 0xd
 1355 0404 0E040000 		.4byte	0x40e
 1356 0408 0E       		.uleb128 0xe
 1357 0409 7C020000 		.4byte	0x27c
 1358 040d 00       		.byte	0
 1359 040e 03       		.uleb128 0x3
 1360 040f 69010000 		.4byte	.LASF52
 1361 0413 0A       		.byte	0xa
 1362 0414 5D       		.byte	0x5d
 1363 0415 19040000 		.4byte	0x419
 1364 0419 05       		.uleb128 0x5
 1365 041a 69010000 		.4byte	.LASF52
 1366 041e 14       		.byte	0x14
 1367 041f 0A       		.byte	0xa
 1368 0420 64       		.byte	0x64
ARM GAS  /var/folders/bz/nn5481rn5xq59rb0mbj7x0880000gn/T//ccr8IYTK.s 			page 25


 1369 0421 62040000 		.4byte	0x462
 1370 0425 06       		.uleb128 0x6
 1371 0426 3E010000 		.4byte	.LASF53
 1372 042a 0A       		.byte	0xa
 1373 042b 65       		.byte	0x65
 1374 042c 62040000 		.4byte	0x462
 1375 0430 00       		.byte	0
 1376 0431 06       		.uleb128 0x6
 1377 0432 18010000 		.4byte	.LASF54
 1378 0436 0A       		.byte	0xa
 1379 0437 67       		.byte	0x67
 1380 0438 62040000 		.4byte	0x462
 1381 043c 04       		.byte	0x4
 1382 043d 06       		.uleb128 0x6
 1383 043e 09020000 		.4byte	.LASF55
 1384 0442 0A       		.byte	0xa
 1385 0443 69       		.byte	0x69
 1386 0444 0C010000 		.4byte	0x10c
 1387 0448 08       		.byte	0x8
 1388 0449 06       		.uleb128 0x6
 1389 044a 1A020000 		.4byte	.LASF56
 1390 044e 0A       		.byte	0xa
 1391 044f 6A       		.byte	0x6a
 1392 0450 F2030000 		.4byte	0x3f2
 1393 0454 0C       		.byte	0xc
 1394 0455 06       		.uleb128 0x6
 1395 0456 FF040000 		.4byte	.LASF57
 1396 045a 0A       		.byte	0xa
 1397 045b 6C       		.byte	0x6c
 1398 045c 7C020000 		.4byte	0x27c
 1399 0460 10       		.byte	0x10
 1400 0461 00       		.byte	0
 1401 0462 09       		.uleb128 0x9
 1402 0463 04       		.byte	0x4
 1403 0464 0E040000 		.4byte	0x40e
 1404 0468 08       		.uleb128 0x8
 1405 0469 10       		.byte	0x10
 1406 046a 0A       		.byte	0xa
 1407 046b 76       		.byte	0x76
 1408 046c A1040000 		.4byte	0x4a1
 1409 0470 06       		.uleb128 0x6
 1410 0471 3E010000 		.4byte	.LASF53
 1411 0475 0A       		.byte	0xa
 1412 0476 77       		.byte	0x77
 1413 0477 62040000 		.4byte	0x462
 1414 047b 00       		.byte	0
 1415 047c 06       		.uleb128 0x6
 1416 047d 18010000 		.4byte	.LASF54
 1417 0481 0A       		.byte	0xa
 1418 0482 79       		.byte	0x79
 1419 0483 62040000 		.4byte	0x462
 1420 0487 04       		.byte	0x4
 1421 0488 06       		.uleb128 0x6
 1422 0489 09020000 		.4byte	.LASF55
 1423 048d 0A       		.byte	0xa
 1424 048e 7B       		.byte	0x7b
 1425 048f 0C010000 		.4byte	0x10c
ARM GAS  /var/folders/bz/nn5481rn5xq59rb0mbj7x0880000gn/T//ccr8IYTK.s 			page 26


 1426 0493 08       		.byte	0x8
 1427 0494 06       		.uleb128 0x6
 1428 0495 49050000 		.4byte	.LASF58
 1429 0499 0A       		.byte	0xa
 1430 049a 7C       		.byte	0x7c
 1431 049b A1040000 		.4byte	0x4a1
 1432 049f 0C       		.byte	0xc
 1433 04a0 00       		.byte	0
 1434 04a1 0F       		.uleb128 0xf
 1435 04a2 0C010000 		.4byte	0x10c
 1436 04a6 03       		.uleb128 0x3
 1437 04a7 69050000 		.4byte	.LASF59
 1438 04ab 0A       		.byte	0xa
 1439 04ac 7D       		.byte	0x7d
 1440 04ad 68040000 		.4byte	0x468
 1441 04b1 08       		.uleb128 0x8
 1442 04b2 1C       		.byte	0x1c
 1443 04b3 0B       		.byte	0xb
 1444 04b4 5E       		.byte	0x5e
 1445 04b5 02050000 		.4byte	0x502
 1446 04b9 06       		.uleb128 0x6
 1447 04ba 79030000 		.4byte	.LASF60
 1448 04be 0B       		.byte	0xb
 1449 04bf 5F       		.byte	0x5f
 1450 04c0 46020000 		.4byte	0x246
 1451 04c4 00       		.byte	0
 1452 04c5 06       		.uleb128 0x6
 1453 04c6 ED020000 		.4byte	.LASF61
 1454 04ca 0B       		.byte	0xb
 1455 04cb 60       		.byte	0x60
 1456 04cc EB000000 		.4byte	0xeb
 1457 04d0 08       		.byte	0x8
 1458 04d1 06       		.uleb128 0x6
 1459 04d2 4E020000 		.4byte	.LASF62
 1460 04d6 0B       		.byte	0xb
 1461 04d7 62       		.byte	0x62
 1462 04d8 CA030000 		.4byte	0x3ca
 1463 04dc 0C       		.byte	0xc
 1464 04dd 06       		.uleb128 0x6
 1465 04de A9010000 		.4byte	.LASF63
 1466 04e2 0B       		.byte	0xb
 1467 04e3 65       		.byte	0x65
 1468 04e4 40020000 		.4byte	0x240
 1469 04e8 10       		.byte	0x10
 1470 04e9 06       		.uleb128 0x6
 1471 04ea 7C020000 		.4byte	.LASF64
 1472 04ee 0B       		.byte	0xb
 1473 04ef 66       		.byte	0x66
 1474 04f0 40020000 		.4byte	0x240
 1475 04f4 14       		.byte	0x14
 1476 04f5 06       		.uleb128 0x6
 1477 04f6 72020000 		.4byte	.LASF65
 1478 04fa 0B       		.byte	0xb
 1479 04fb 69       		.byte	0x69
 1480 04fc 40020000 		.4byte	0x240
 1481 0500 18       		.byte	0x18
 1482 0501 00       		.byte	0
ARM GAS  /var/folders/bz/nn5481rn5xq59rb0mbj7x0880000gn/T//ccr8IYTK.s 			page 27


 1483 0502 03       		.uleb128 0x3
 1484 0503 18050000 		.4byte	.LASF66
 1485 0507 0B       		.byte	0xb
 1486 0508 6B       		.byte	0x6b
 1487 0509 B1040000 		.4byte	0x4b1
 1488 050d 05       		.uleb128 0x5
 1489 050e E9010000 		.4byte	.LASF67
 1490 0512 10       		.byte	0x10
 1491 0513 0C       		.byte	0xc
 1492 0514 2C       		.byte	0x2c
 1493 0515 3E050000 		.4byte	0x53e
 1494 0519 06       		.uleb128 0x6
 1495 051a 87000000 		.4byte	.LASF68
 1496 051e 0C       		.byte	0xc
 1497 051f 2D       		.byte	0x2d
 1498 0520 46020000 		.4byte	0x246
 1499 0524 00       		.byte	0
 1500 0525 06       		.uleb128 0x6
 1501 0526 70050000 		.4byte	.LASF69
 1502 052a 0C       		.byte	0xc
 1503 052b 2F       		.byte	0x2f
 1504 052c 40020000 		.4byte	0x240
 1505 0530 08       		.byte	0x8
 1506 0531 06       		.uleb128 0x6
 1507 0532 92030000 		.4byte	.LASF70
 1508 0536 0C       		.byte	0xc
 1509 0537 31       		.byte	0x31
 1510 0538 3E050000 		.4byte	0x53e
 1511 053c 0C       		.byte	0xc
 1512 053d 00       		.byte	0
 1513 053e 09       		.uleb128 0x9
 1514 053f 04       		.byte	0x4
 1515 0540 0D050000 		.4byte	0x50d
 1516 0544 03       		.uleb128 0x3
 1517 0545 E9010000 		.4byte	.LASF67
 1518 0549 0C       		.byte	0xc
 1519 054a 33       		.byte	0x33
 1520 054b 0D050000 		.4byte	0x50d
 1521 054f 10       		.uleb128 0x10
 1522 0550 04       		.byte	0x4
 1523 0551 08       		.byte	0x8
 1524 0552 96       		.byte	0x96
 1525 0553 84050000 		.4byte	0x584
 1526 0557 11       		.uleb128 0x11
 1527 0558 1A000000 		.4byte	.LASF71
 1528 055c 08       		.byte	0x8
 1529 055d 9D       		.byte	0x9d
 1530 055e F6000000 		.4byte	0xf6
 1531 0562 11       		.uleb128 0x11
 1532 0563 B1010000 		.4byte	.LASF72
 1533 0567 08       		.byte	0x8
 1534 0568 A4       		.byte	0xa4
 1535 0569 F6000000 		.4byte	0xf6
 1536 056d 11       		.uleb128 0x11
 1537 056e 3B050000 		.4byte	.LASF73
 1538 0572 08       		.byte	0x8
 1539 0573 AB       		.byte	0xab
ARM GAS  /var/folders/bz/nn5481rn5xq59rb0mbj7x0880000gn/T//ccr8IYTK.s 			page 28


 1540 0574 7C020000 		.4byte	0x27c
 1541 0578 11       		.uleb128 0x11
 1542 0579 F4020000 		.4byte	.LASF74
 1543 057d 08       		.byte	0x8
 1544 057e B2       		.byte	0xb2
 1545 057f 01010000 		.4byte	0x101
 1546 0583 00       		.byte	0
 1547 0584 09       		.uleb128 0x9
 1548 0585 04       		.byte	0x4
 1549 0586 8A050000 		.4byte	0x58a
 1550 058a 12       		.uleb128 0x12
 1551 058b 8F050000 		.4byte	0x58f
 1552 058f 04       		.uleb128 0x4
 1553 0590 01       		.byte	0x1
 1554 0591 08       		.byte	0x8
 1555 0592 81030000 		.4byte	.LASF75
 1556 0596 09       		.uleb128 0x9
 1557 0597 04       		.byte	0x4
 1558 0598 44050000 		.4byte	0x544
 1559 059c 03       		.uleb128 0x3
 1560 059d 00000000 		.4byte	.LASF76
 1561 05a1 08       		.byte	0x8
 1562 05a2 E5       		.byte	0xe5
 1563 05a3 A7050000 		.4byte	0x5a7
 1564 05a7 09       		.uleb128 0x9
 1565 05a8 04       		.byte	0x4
 1566 05a9 AD050000 		.4byte	0x5ad
 1567 05ad 13       		.uleb128 0x13
 1568 05ae F6000000 		.4byte	0xf6
 1569 05b2 BC050000 		.4byte	0x5bc
 1570 05b6 0E       		.uleb128 0xe
 1571 05b7 7C020000 		.4byte	0x27c
 1572 05bb 00       		.byte	0
 1573 05bc 14       		.uleb128 0x14
 1574 05bd 6C030000 		.4byte	.LASF78
 1575 05c1 01       		.byte	0x1
 1576 05c2 4C       		.byte	0x4c
 1577 05c3 40020000 		.4byte	0x240
 1578 05c7 01       		.byte	0x1
 1579 05c8 E2050000 		.4byte	0x5e2
 1580 05cc 15       		.uleb128 0x15
 1581 05cd 747000   		.ascii	"tp\000"
 1582 05d0 01       		.byte	0x1
 1583 05d1 4C       		.byte	0x4c
 1584 05d2 40020000 		.4byte	0x240
 1585 05d6 16       		.uleb128 0x16
 1586 05d7 15000000 		.4byte	.LASF77
 1587 05db 01       		.byte	0x1
 1588 05dc 4C       		.byte	0x4c
 1589 05dd EB000000 		.4byte	0xeb
 1590 05e1 00       		.byte	0
 1591 05e2 14       		.uleb128 0x14
 1592 05e3 99000000 		.4byte	.LASF79
 1593 05e7 01       		.byte	0x1
 1594 05e8 9D       		.byte	0x9d
 1595 05e9 40020000 		.4byte	0x240
 1596 05ed 01       		.byte	0x1
ARM GAS  /var/folders/bz/nn5481rn5xq59rb0mbj7x0880000gn/T//ccr8IYTK.s 			page 29


 1597 05ee 33060000 		.4byte	0x633
 1598 05f2 15       		.uleb128 0x15
 1599 05f3 77737000 		.ascii	"wsp\000"
 1600 05f7 01       		.byte	0x1
 1601 05f8 9D       		.byte	0x9d
 1602 05f9 7C020000 		.4byte	0x27c
 1603 05fd 16       		.uleb128 0x16
 1604 05fe 7E010000 		.4byte	.LASF80
 1605 0602 01       		.byte	0x1
 1606 0603 9D       		.byte	0x9d
 1607 0604 2C000000 		.4byte	0x2c
 1608 0608 16       		.uleb128 0x16
 1609 0609 15000000 		.4byte	.LASF77
 1610 060d 01       		.byte	0x1
 1611 060e 9E       		.byte	0x9e
 1612 060f EB000000 		.4byte	0xeb
 1613 0613 15       		.uleb128 0x15
 1614 0614 706600   		.ascii	"pf\000"
 1615 0617 01       		.byte	0x1
 1616 0618 9E       		.byte	0x9e
 1617 0619 9C050000 		.4byte	0x59c
 1618 061d 15       		.uleb128 0x15
 1619 061e 61726700 		.ascii	"arg\000"
 1620 0622 01       		.byte	0x1
 1621 0623 9E       		.byte	0x9e
 1622 0624 7C020000 		.4byte	0x27c
 1623 0628 17       		.uleb128 0x17
 1624 0629 747000   		.ascii	"tp\000"
 1625 062c 01       		.byte	0x1
 1626 062d A0       		.byte	0xa0
 1627 062e 40020000 		.4byte	0x240
 1628 0632 00       		.byte	0
 1629 0633 18       		.uleb128 0x18
 1630 0634 C0000000 		.4byte	.LASF105
 1631 0638 02       		.byte	0x2
 1632 0639 56       		.byte	0x56
 1633 063a 40020000 		.4byte	0x240
 1634 063e 03       		.byte	0x3
 1635 063f 59060000 		.4byte	0x659
 1636 0643 15       		.uleb128 0x15
 1637 0644 746C7000 		.ascii	"tlp\000"
 1638 0648 02       		.byte	0x2
 1639 0649 56       		.byte	0x56
 1640 064a 59060000 		.4byte	0x659
 1641 064e 17       		.uleb128 0x17
 1642 064f 747000   		.ascii	"tp\000"
 1643 0652 02       		.byte	0x2
 1644 0653 58       		.byte	0x58
 1645 0654 40020000 		.4byte	0x240
 1646 0658 00       		.byte	0
 1647 0659 09       		.uleb128 0x9
 1648 065a 04       		.byte	0x4
 1649 065b 66020000 		.4byte	0x266
 1650 065f 19       		.uleb128 0x19
 1651 0660 66020000 		.4byte	.LASF106
 1652 0664 02       		.byte	0x2
 1653 0665 50       		.byte	0x50
ARM GAS  /var/folders/bz/nn5481rn5xq59rb0mbj7x0880000gn/T//ccr8IYTK.s 			page 30


 1654 0666 03       		.byte	0x3
 1655 0667 81060000 		.4byte	0x681
 1656 066b 15       		.uleb128 0x15
 1657 066c 747000   		.ascii	"tp\000"
 1658 066f 02       		.byte	0x2
 1659 0670 50       		.byte	0x50
 1660 0671 40020000 		.4byte	0x240
 1661 0675 15       		.uleb128 0x15
 1662 0676 746C7000 		.ascii	"tlp\000"
 1663 067a 02       		.byte	0x2
 1664 067b 50       		.byte	0x50
 1665 067c 59060000 		.4byte	0x659
 1666 0680 00       		.byte	0
 1667 0681 1A       		.uleb128 0x1a
 1668 0682 BC050000 		.4byte	0x5bc
 1669 0686 00000000 		.4byte	.LFB7
 1670 068a 50000000 		.4byte	.LFE7-.LFB7
 1671 068e 01       		.uleb128 0x1
 1672 068f 9C       		.byte	0x9c
 1673 0690 A3060000 		.4byte	0x6a3
 1674 0694 1B       		.uleb128 0x1b
 1675 0695 CC050000 		.4byte	0x5cc
 1676 0699 01       		.uleb128 0x1
 1677 069a 50       		.byte	0x50
 1678 069b 1B       		.uleb128 0x1b
 1679 069c D6050000 		.4byte	0x5d6
 1680 06a0 01       		.uleb128 0x1
 1681 06a1 51       		.byte	0x51
 1682 06a2 00       		.byte	0
 1683 06a3 1A       		.uleb128 0x1a
 1684 06a4 E2050000 		.4byte	0x5e2
 1685 06a8 00000000 		.4byte	.LFB8
 1686 06ac 70000000 		.4byte	.LFE8-.LFB8
 1687 06b0 01       		.uleb128 0x1
 1688 06b1 9C       		.byte	0x9c
 1689 06b2 05070000 		.4byte	0x705
 1690 06b6 1B       		.uleb128 0x1b
 1691 06b7 F2050000 		.4byte	0x5f2
 1692 06bb 01       		.uleb128 0x1
 1693 06bc 50       		.byte	0x50
 1694 06bd 1C       		.uleb128 0x1c
 1695 06be FD050000 		.4byte	0x5fd
 1696 06c2 00000000 		.4byte	.LLST0
 1697 06c6 1B       		.uleb128 0x1b
 1698 06c7 08060000 		.4byte	0x608
 1699 06cb 01       		.uleb128 0x1
 1700 06cc 52       		.byte	0x52
 1701 06cd 1C       		.uleb128 0x1c
 1702 06ce 13060000 		.4byte	0x613
 1703 06d2 2F000000 		.4byte	.LLST1
 1704 06d6 1C       		.uleb128 0x1c
 1705 06d7 1D060000 		.4byte	0x61d
 1706 06db 5D000000 		.4byte	.LLST2
 1707 06df 1D       		.uleb128 0x1d
 1708 06e0 28060000 		.4byte	0x628
 1709 06e4 01       		.uleb128 0x1
 1710 06e5 50       		.byte	0x50
ARM GAS  /var/folders/bz/nn5481rn5xq59rb0mbj7x0880000gn/T//ccr8IYTK.s 			page 31


 1711 06e6 1E       		.uleb128 0x1e
 1712 06e7 BC050000 		.4byte	0x5bc
 1713 06eb 06000000 		.4byte	.LBB12
 1714 06ef 00000000 		.4byte	.Ldebug_ranges0+0
 1715 06f3 01       		.byte	0x1
 1716 06f4 A8       		.byte	0xa8
 1717 06f5 1B       		.uleb128 0x1b
 1718 06f6 D6050000 		.4byte	0x5d6
 1719 06fa 01       		.uleb128 0x1
 1720 06fb 52       		.byte	0x52
 1721 06fc 1B       		.uleb128 0x1b
 1722 06fd CC050000 		.4byte	0x5cc
 1723 0701 01       		.uleb128 0x1
 1724 0702 50       		.byte	0x50
 1725 0703 00       		.byte	0
 1726 0704 00       		.byte	0
 1727 0705 1F       		.uleb128 0x1f
 1728 0706 F7010000 		.4byte	.LASF81
 1729 070a 01       		.byte	0x1
 1730 070b BB       		.byte	0xbb
 1731 070c 40020000 		.4byte	0x240
 1732 0710 00000000 		.4byte	.LFB9
 1733 0714 7C000000 		.4byte	.LFE9-.LFB9
 1734 0718 01       		.uleb128 0x1
 1735 0719 9C       		.byte	0x9c
 1736 071a FB070000 		.4byte	0x7fb
 1737 071e 20       		.uleb128 0x20
 1738 071f 77737000 		.ascii	"wsp\000"
 1739 0723 01       		.byte	0x1
 1740 0724 BB       		.byte	0xbb
 1741 0725 7C020000 		.4byte	0x27c
 1742 0729 7D000000 		.4byte	.LLST3
 1743 072d 21       		.uleb128 0x21
 1744 072e 7E010000 		.4byte	.LASF80
 1745 0732 01       		.byte	0x1
 1746 0733 BB       		.byte	0xbb
 1747 0734 2C000000 		.4byte	0x2c
 1748 0738 A6000000 		.4byte	.LLST4
 1749 073c 21       		.uleb128 0x21
 1750 073d 15000000 		.4byte	.LASF77
 1751 0741 01       		.byte	0x1
 1752 0742 BC       		.byte	0xbc
 1753 0743 EB000000 		.4byte	0xeb
 1754 0747 D5000000 		.4byte	.LLST5
 1755 074b 20       		.uleb128 0x20
 1756 074c 706600   		.ascii	"pf\000"
 1757 074f 01       		.byte	0x1
 1758 0750 BC       		.byte	0xbc
 1759 0751 9C050000 		.4byte	0x59c
 1760 0755 F6000000 		.4byte	.LLST6
 1761 0759 20       		.uleb128 0x20
 1762 075a 61726700 		.ascii	"arg\000"
 1763 075e 01       		.byte	0x1
 1764 075f BC       		.byte	0xbc
 1765 0760 7C020000 		.4byte	0x27c
 1766 0764 24010000 		.4byte	.LLST7
 1767 0768 17       		.uleb128 0x17
ARM GAS  /var/folders/bz/nn5481rn5xq59rb0mbj7x0880000gn/T//ccr8IYTK.s 			page 32


 1768 0769 747000   		.ascii	"tp\000"
 1769 076c 01       		.byte	0x1
 1770 076d BD       		.byte	0xbd
 1771 076e 40020000 		.4byte	0x240
 1772 0772 22       		.uleb128 0x22
 1773 0773 E2050000 		.4byte	0x5e2
 1774 0777 08000000 		.4byte	.LBB24
 1775 077b 38000000 		.4byte	.Ldebug_ranges0+0x38
 1776 077f 01       		.byte	0x1
 1777 0780 C8       		.byte	0xc8
 1778 0781 E4070000 		.4byte	0x7e4
 1779 0785 1C       		.uleb128 0x1c
 1780 0786 1D060000 		.4byte	0x61d
 1781 078a 44010000 		.4byte	.LLST8
 1782 078e 1C       		.uleb128 0x1c
 1783 078f 13060000 		.4byte	0x613
 1784 0793 64010000 		.4byte	.LLST9
 1785 0797 1C       		.uleb128 0x1c
 1786 0798 08060000 		.4byte	0x608
 1787 079c 92010000 		.4byte	.LLST10
 1788 07a0 1C       		.uleb128 0x1c
 1789 07a1 FD050000 		.4byte	0x5fd
 1790 07a5 B3010000 		.4byte	.LLST11
 1791 07a9 1C       		.uleb128 0x1c
 1792 07aa F2050000 		.4byte	0x5f2
 1793 07ae E2010000 		.4byte	.LLST12
 1794 07b2 23       		.uleb128 0x23
 1795 07b3 38000000 		.4byte	.Ldebug_ranges0+0x38
 1796 07b7 24       		.uleb128 0x24
 1797 07b8 28060000 		.4byte	0x628
 1798 07bc E2010000 		.4byte	.LLST12
 1799 07c0 1E       		.uleb128 0x1e
 1800 07c1 BC050000 		.4byte	0x5bc
 1801 07c5 08000000 		.4byte	.LBB26
 1802 07c9 50000000 		.4byte	.Ldebug_ranges0+0x50
 1803 07cd 01       		.byte	0x1
 1804 07ce A8       		.byte	0xa8
 1805 07cf 1C       		.uleb128 0x1c
 1806 07d0 D6050000 		.4byte	0x5d6
 1807 07d4 0B020000 		.4byte	.LLST14
 1808 07d8 1C       		.uleb128 0x1c
 1809 07d9 CC050000 		.4byte	0x5cc
 1810 07dd 2C020000 		.4byte	.LLST15
 1811 07e1 00       		.byte	0
 1812 07e2 00       		.byte	0
 1813 07e3 00       		.byte	0
 1814 07e4 25       		.uleb128 0x25
 1815 07e5 6A000000 		.4byte	.LVL15
 1816 07e9 810A0000 		.4byte	0xa81
 1817 07ed 26       		.uleb128 0x26
 1818 07ee 01       		.uleb128 0x1
 1819 07ef 51       		.byte	0x51
 1820 07f0 02       		.uleb128 0x2
 1821 07f1 75       		.byte	0x75
 1822 07f2 00       		.sleb128 0
 1823 07f3 26       		.uleb128 0x26
 1824 07f4 01       		.uleb128 0x1
ARM GAS  /var/folders/bz/nn5481rn5xq59rb0mbj7x0880000gn/T//ccr8IYTK.s 			page 33


 1825 07f5 50       		.byte	0x50
 1826 07f6 02       		.uleb128 0x2
 1827 07f7 74       		.byte	0x74
 1828 07f8 00       		.sleb128 0
 1829 07f9 00       		.byte	0
 1830 07fa 00       		.byte	0
 1831 07fb 1F       		.uleb128 0x1f
 1832 07fc 20010000 		.4byte	.LASF82
 1833 0800 01       		.byte	0x1
 1834 0801 D9       		.byte	0xd9
 1835 0802 EB000000 		.4byte	0xeb
 1836 0806 00000000 		.4byte	.LFB10
 1837 080a 28000000 		.4byte	.LFE10-.LFB10
 1838 080e 01       		.uleb128 0x1
 1839 080f 9C       		.byte	0x9c
 1840 0810 3C080000 		.4byte	0x83c
 1841 0814 21       		.uleb128 0x21
 1842 0815 46010000 		.4byte	.LASF83
 1843 0819 01       		.byte	0x1
 1844 081a D9       		.byte	0xd9
 1845 081b EB000000 		.4byte	0xeb
 1846 081f 55020000 		.4byte	.LLST16
 1847 0823 27       		.uleb128 0x27
 1848 0824 EF010000 		.4byte	.LASF91
 1849 0828 01       		.byte	0x1
 1850 0829 DA       		.byte	0xda
 1851 082a EB000000 		.4byte	0xeb
 1852 082e 76020000 		.4byte	.LLST17
 1853 0832 28       		.uleb128 0x28
 1854 0833 1C000000 		.4byte	.LVL19
 1855 0837 970A0000 		.4byte	0xa97
 1856 083b 00       		.byte	0
 1857 083c 1F       		.uleb128 0x1f
 1858 083d 22020000 		.4byte	.LASF84
 1859 0841 01       		.byte	0x1
 1860 0842 FA       		.byte	0xfa
 1861 0843 40020000 		.4byte	0x240
 1862 0847 00000000 		.4byte	.LFB11
 1863 084b 12000000 		.4byte	.LFE11-.LFB11
 1864 084f 01       		.uleb128 0x1
 1865 0850 9C       		.byte	0x9c
 1866 0851 79080000 		.4byte	0x879
 1867 0855 20       		.uleb128 0x20
 1868 0856 747000   		.ascii	"tp\000"
 1869 0859 01       		.byte	0x1
 1870 085a FA       		.byte	0xfa
 1871 085b 40020000 		.4byte	0x240
 1872 085f 94020000 		.4byte	.LLST18
 1873 0863 25       		.uleb128 0x25
 1874 0864 0C000000 		.4byte	.LVL22
 1875 0868 810A0000 		.4byte	0xa81
 1876 086c 26       		.uleb128 0x26
 1877 086d 01       		.uleb128 0x1
 1878 086e 51       		.byte	0x51
 1879 086f 01       		.uleb128 0x1
 1880 0870 30       		.byte	0x30
 1881 0871 26       		.uleb128 0x26
ARM GAS  /var/folders/bz/nn5481rn5xq59rb0mbj7x0880000gn/T//ccr8IYTK.s 			page 34


 1882 0872 01       		.uleb128 0x1
 1883 0873 50       		.byte	0x50
 1884 0874 02       		.uleb128 0x2
 1885 0875 74       		.byte	0x74
 1886 0876 00       		.sleb128 0
 1887 0877 00       		.byte	0
 1888 0878 00       		.byte	0
 1889 0879 29       		.uleb128 0x29
 1890 087a C2010000 		.4byte	.LASF85
 1891 087e 01       		.byte	0x1
 1892 087f 1101     		.2byte	0x111
 1893 0881 00000000 		.4byte	.LFB12
 1894 0885 0E000000 		.4byte	.LFE12-.LFB12
 1895 0889 01       		.uleb128 0x1
 1896 088a 9C       		.byte	0x9c
 1897 088b 9D080000 		.4byte	0x89d
 1898 088f 2A       		.uleb128 0x2a
 1899 0890 747000   		.ascii	"tp\000"
 1900 0893 01       		.byte	0x1
 1901 0894 1101     		.2byte	0x111
 1902 0896 40020000 		.4byte	0x240
 1903 089a 01       		.uleb128 0x1
 1904 089b 50       		.byte	0x50
 1905 089c 00       		.byte	0
 1906 089d 29       		.uleb128 0x29
 1907 089e 06050000 		.4byte	.LASF86
 1908 08a2 01       		.byte	0x1
 1909 08a3 2401     		.2byte	0x124
 1910 08a5 00000000 		.4byte	.LFB13
 1911 08a9 10000000 		.4byte	.LFE13-.LFB13
 1912 08ad 01       		.uleb128 0x1
 1913 08ae 9C       		.byte	0x9c
 1914 08af DA080000 		.4byte	0x8da
 1915 08b3 2B       		.uleb128 0x2b
 1916 08b4 61020000 		.4byte	.LASF87
 1917 08b8 01       		.byte	0x1
 1918 08b9 2401     		.2byte	0x124
 1919 08bb 0C010000 		.4byte	0x10c
 1920 08bf B2020000 		.4byte	.LLST19
 1921 08c3 25       		.uleb128 0x25
 1922 08c4 0C000000 		.4byte	.LVL26
 1923 08c8 9E0A0000 		.4byte	0xa9e
 1924 08cc 26       		.uleb128 0x26
 1925 08cd 01       		.uleb128 0x1
 1926 08ce 51       		.byte	0x51
 1927 08cf 03       		.uleb128 0x3
 1928 08d0 F3       		.byte	0xf3
 1929 08d1 01       		.uleb128 0x1
 1930 08d2 50       		.byte	0x50
 1931 08d3 26       		.uleb128 0x26
 1932 08d4 01       		.uleb128 0x1
 1933 08d5 50       		.byte	0x50
 1934 08d6 01       		.uleb128 0x1
 1935 08d7 36       		.byte	0x36
 1936 08d8 00       		.byte	0
 1937 08d9 00       		.byte	0
 1938 08da 29       		.uleb128 0x29
ARM GAS  /var/folders/bz/nn5481rn5xq59rb0mbj7x0880000gn/T//ccr8IYTK.s 			page 35


 1939 08db 84020000 		.4byte	.LASF88
 1940 08df 01       		.byte	0x1
 1941 08e0 3501     		.2byte	0x135
 1942 08e2 00000000 		.4byte	.LFB14
 1943 08e6 1C000000 		.4byte	.LFE14-.LFB14
 1944 08ea 01       		.uleb128 0x1
 1945 08eb 9C       		.byte	0x9c
 1946 08ec 10090000 		.4byte	0x910
 1947 08f0 2B       		.uleb128 0x2b
 1948 08f1 61020000 		.4byte	.LASF87
 1949 08f5 01       		.byte	0x1
 1950 08f6 3501     		.2byte	0x135
 1951 08f8 0C010000 		.4byte	0x10c
 1952 08fc DE020000 		.4byte	.LLST20
 1953 0900 25       		.uleb128 0x25
 1954 0901 12000000 		.4byte	.LVL30
 1955 0905 9E0A0000 		.4byte	0xa9e
 1956 0909 26       		.uleb128 0x26
 1957 090a 01       		.uleb128 0x1
 1958 090b 50       		.byte	0x50
 1959 090c 01       		.uleb128 0x1
 1960 090d 36       		.byte	0x36
 1961 090e 00       		.byte	0
 1962 090f 00       		.byte	0
 1963 0910 29       		.uleb128 0x29
 1964 0911 30050000 		.4byte	.LASF89
 1965 0915 01       		.byte	0x1
 1966 0916 4401     		.2byte	0x144
 1967 0918 00000000 		.4byte	.LFB15
 1968 091c 20000000 		.4byte	.LFE15-.LFB15
 1969 0920 01       		.uleb128 0x1
 1970 0921 9C       		.byte	0x9c
 1971 0922 30090000 		.4byte	0x930
 1972 0926 28       		.uleb128 0x28
 1973 0927 16000000 		.4byte	.LVL31
 1974 092b B80A0000 		.4byte	0xab8
 1975 092f 00       		.byte	0
 1976 0930 29       		.uleb128 0x29
 1977 0931 32000000 		.4byte	.LASF90
 1978 0935 01       		.byte	0x1
 1979 0936 6E01     		.2byte	0x16e
 1980 0938 00000000 		.4byte	.LFB17
 1981 093c 40000000 		.4byte	.LFE17-.LFB17
 1982 0940 01       		.uleb128 0x1
 1983 0941 9C       		.byte	0x9c
 1984 0942 AF090000 		.4byte	0x9af
 1985 0946 2C       		.uleb128 0x2c
 1986 0947 6D736700 		.ascii	"msg\000"
 1987 094b 01       		.byte	0x1
 1988 094c 6E01     		.2byte	0x16e
 1989 094e F6000000 		.4byte	0xf6
 1990 0952 0C030000 		.4byte	.LLST21
 1991 0956 2D       		.uleb128 0x2d
 1992 0957 747000   		.ascii	"tp\000"
 1993 095a 01       		.byte	0x1
 1994 095b 6F01     		.2byte	0x16f
 1995 095d 40020000 		.4byte	0x240
ARM GAS  /var/folders/bz/nn5481rn5xq59rb0mbj7x0880000gn/T//ccr8IYTK.s 			page 36


 1996 0961 39030000 		.4byte	.LLST22
 1997 0965 2E       		.uleb128 0x2e
 1998 0966 33060000 		.4byte	0x633
 1999 096a 12000000 		.4byte	.LBB42
 2000 096e 04000000 		.4byte	.LBE42-.LBB42
 2001 0972 01       		.byte	0x1
 2002 0973 7701     		.2byte	0x177
 2003 0975 96090000 		.4byte	0x996
 2004 0979 1C       		.uleb128 0x1c
 2005 097a 43060000 		.4byte	0x643
 2006 097e 4C030000 		.4byte	.LLST23
 2007 0982 2F       		.uleb128 0x2f
 2008 0983 12000000 		.4byte	.LBB43
 2009 0987 04000000 		.4byte	.LBE43-.LBB43
 2010 098b 24       		.uleb128 0x24
 2011 098c 4E060000 		.4byte	0x64e
 2012 0990 61030000 		.4byte	.LLST24
 2013 0994 00       		.byte	0
 2014 0995 00       		.byte	0
 2015 0996 28       		.uleb128 0x28
 2016 0997 1A000000 		.4byte	.LVL36
 2017 099b BF0A0000 		.4byte	0xabf
 2018 099f 30       		.uleb128 0x30
 2019 09a0 3A000000 		.4byte	.LVL39
 2020 09a4 D40A0000 		.4byte	0xad4
 2021 09a8 26       		.uleb128 0x26
 2022 09a9 01       		.uleb128 0x1
 2023 09aa 50       		.byte	0x50
 2024 09ab 01       		.uleb128 0x1
 2025 09ac 3E       		.byte	0x3e
 2026 09ad 00       		.byte	0
 2027 09ae 00       		.byte	0
 2028 09af 29       		.uleb128 0x29
 2029 09b0 75000000 		.4byte	.LASF92
 2030 09b4 01       		.byte	0x1
 2031 09b5 5901     		.2byte	0x159
 2032 09b7 00000000 		.4byte	.LFB16
 2033 09bb 06000000 		.4byte	.LFE16-.LFB16
 2034 09bf 01       		.uleb128 0x1
 2035 09c0 9C       		.byte	0x9c
 2036 09c1 E7090000 		.4byte	0x9e7
 2037 09c5 2C       		.uleb128 0x2c
 2038 09c6 6D736700 		.ascii	"msg\000"
 2039 09ca 01       		.byte	0x1
 2040 09cb 5901     		.2byte	0x159
 2041 09cd F6000000 		.4byte	0xf6
 2042 09d1 74030000 		.4byte	.LLST25
 2043 09d5 30       		.uleb128 0x30
 2044 09d6 06000000 		.4byte	.LVL41
 2045 09da 30090000 		.4byte	0x930
 2046 09de 26       		.uleb128 0x26
 2047 09df 01       		.uleb128 0x1
 2048 09e0 50       		.byte	0x50
 2049 09e1 03       		.uleb128 0x3
 2050 09e2 F3       		.byte	0xf3
 2051 09e3 01       		.uleb128 0x1
 2052 09e4 50       		.byte	0x50
ARM GAS  /var/folders/bz/nn5481rn5xq59rb0mbj7x0880000gn/T//ccr8IYTK.s 			page 37


 2053 09e5 00       		.byte	0
 2054 09e6 00       		.byte	0
 2055 09e7 31       		.uleb128 0x31
 2056 09e8 F5040000 		.4byte	.LASF93
 2057 09ec 01       		.byte	0x1
 2058 09ed A401     		.2byte	0x1a4
 2059 09ef F6000000 		.4byte	0xf6
 2060 09f3 00000000 		.4byte	.LFB18
 2061 09f7 30000000 		.4byte	.LFE18-.LFB18
 2062 09fb 01       		.uleb128 0x1
 2063 09fc 9C       		.byte	0x9c
 2064 09fd 6B0A0000 		.4byte	0xa6b
 2065 0a01 2C       		.uleb128 0x2c
 2066 0a02 747000   		.ascii	"tp\000"
 2067 0a05 01       		.byte	0x1
 2068 0a06 A401     		.2byte	0x1a4
 2069 0a08 40020000 		.4byte	0x240
 2070 0a0c 95030000 		.4byte	.LLST26
 2071 0a10 2D       		.uleb128 0x2d
 2072 0a11 6D736700 		.ascii	"msg\000"
 2073 0a15 01       		.byte	0x1
 2074 0a16 A501     		.2byte	0x1a5
 2075 0a18 F6000000 		.4byte	0xf6
 2076 0a1c C1030000 		.4byte	.LLST27
 2077 0a20 32       		.uleb128 0x32
 2078 0a21 5F060000 		.4byte	0x65f
 2079 0a25 0E000000 		.4byte	.LBB44
 2080 0a29 90000000 		.4byte	.Ldebug_ranges0+0x90
 2081 0a2d 01       		.byte	0x1
 2082 0a2e AF01     		.2byte	0x1af
 2083 0a30 470A0000 		.4byte	0xa47
 2084 0a34 1C       		.uleb128 0x1c
 2085 0a35 75060000 		.4byte	0x675
 2086 0a39 DF030000 		.4byte	.LLST28
 2087 0a3d 1C       		.uleb128 0x1c
 2088 0a3e 6B060000 		.4byte	0x66b
 2089 0a42 01040000 		.4byte	.LLST29
 2090 0a46 00       		.byte	0
 2091 0a47 33       		.uleb128 0x33
 2092 0a48 1C000000 		.4byte	.LVL45
 2093 0a4c D40A0000 		.4byte	0xad4
 2094 0a50 5A0A0000 		.4byte	0xa5a
 2095 0a54 26       		.uleb128 0x26
 2096 0a55 01       		.uleb128 0x1
 2097 0a56 50       		.byte	0x50
 2098 0a57 01       		.uleb128 0x1
 2099 0a58 37       		.byte	0x37
 2100 0a59 00       		.byte	0
 2101 0a5a 25       		.uleb128 0x25
 2102 0a5b 26000000 		.4byte	.LVL47
 2103 0a5f E50A0000 		.4byte	0xae5
 2104 0a63 26       		.uleb128 0x26
 2105 0a64 01       		.uleb128 0x1
 2106 0a65 50       		.byte	0x50
 2107 0a66 02       		.uleb128 0x2
 2108 0a67 74       		.byte	0x74
 2109 0a68 00       		.sleb128 0
ARM GAS  /var/folders/bz/nn5481rn5xq59rb0mbj7x0880000gn/T//ccr8IYTK.s 			page 38


 2110 0a69 00       		.byte	0
 2111 0a6a 00       		.byte	0
 2112 0a6b 34       		.uleb128 0x34
 2113 0a6c 2B000000 		.4byte	.LASF94
 2114 0a70 0A       		.byte	0xa
 2115 0a71 F5       		.byte	0xf5
 2116 0a72 A6040000 		.4byte	0x4a6
 2117 0a76 34       		.uleb128 0x34
 2118 0a77 22050000 		.4byte	.LASF95
 2119 0a7b 0B       		.byte	0xb
 2120 0a7c 6F       		.byte	0x6f
 2121 0a7d 02050000 		.4byte	0x502
 2122 0a81 35       		.uleb128 0x35
 2123 0a82 96010000 		.4byte	.LASF100
 2124 0a86 0B       		.byte	0xb
 2125 0a87 99       		.byte	0x99
 2126 0a88 970A0000 		.4byte	0xa97
 2127 0a8c 0E       		.uleb128 0xe
 2128 0a8d 40020000 		.4byte	0x240
 2129 0a91 0E       		.uleb128 0xe
 2130 0a92 F6000000 		.4byte	0xf6
 2131 0a96 00       		.byte	0
 2132 0a97 36       		.uleb128 0x36
 2133 0a98 F3000000 		.4byte	.LASF97
 2134 0a9c 0B       		.byte	0xb
 2135 0a9d 9C       		.byte	0x9c
 2136 0a9e 37       		.uleb128 0x37
 2137 0a9f 54050000 		.4byte	.LASF96
 2138 0aa3 0B       		.byte	0xb
 2139 0aa4 96       		.byte	0x96
 2140 0aa5 F6000000 		.4byte	0xf6
 2141 0aa9 B80A0000 		.4byte	0xab8
 2142 0aad 0E       		.uleb128 0xe
 2143 0aae CA000000 		.4byte	0xca
 2144 0ab2 0E       		.uleb128 0xe
 2145 0ab3 0C010000 		.4byte	0x10c
 2146 0ab7 00       		.byte	0
 2147 0ab8 36       		.uleb128 0x36
 2148 0ab9 2E020000 		.4byte	.LASF98
 2149 0abd 0B       		.byte	0xb
 2150 0abe A2       		.byte	0xa2
 2151 0abf 37       		.uleb128 0x37
 2152 0ac0 86030000 		.4byte	.LASF99
 2153 0ac4 0B       		.byte	0xb
 2154 0ac5 90       		.byte	0x90
 2155 0ac6 40020000 		.4byte	0x240
 2156 0aca D40A0000 		.4byte	0xad4
 2157 0ace 0E       		.uleb128 0xe
 2158 0acf 40020000 		.4byte	0x240
 2159 0ad3 00       		.byte	0
 2160 0ad4 35       		.uleb128 0x35
 2161 0ad5 4A030000 		.4byte	.LASF101
 2162 0ad9 0B       		.byte	0xb
 2163 0ada 93       		.byte	0x93
 2164 0adb E50A0000 		.4byte	0xae5
 2165 0adf 0E       		.uleb128 0xe
 2166 0ae0 CA000000 		.4byte	0xca
ARM GAS  /var/folders/bz/nn5481rn5xq59rb0mbj7x0880000gn/T//ccr8IYTK.s 			page 39


 2167 0ae4 00       		.byte	0
 2168 0ae5 38       		.uleb128 0x38
 2169 0ae6 36030000 		.4byte	.LASF107
 2170 0aea 0D       		.byte	0xd
 2171 0aeb 3A       		.byte	0x3a
 2172 0aec 0E       		.uleb128 0xe
 2173 0aed 40020000 		.4byte	0x240
 2174 0af1 00       		.byte	0
 2175 0af2 00       		.byte	0
 2176              		.section	.debug_abbrev,"",%progbits
 2177              	.Ldebug_abbrev0:
 2178 0000 01       		.uleb128 0x1
 2179 0001 11       		.uleb128 0x11
 2180 0002 01       		.byte	0x1
 2181 0003 25       		.uleb128 0x25
 2182 0004 0E       		.uleb128 0xe
 2183 0005 13       		.uleb128 0x13
 2184 0006 0B       		.uleb128 0xb
 2185 0007 03       		.uleb128 0x3
 2186 0008 0E       		.uleb128 0xe
 2187 0009 1B       		.uleb128 0x1b
 2188 000a 0E       		.uleb128 0xe
 2189 000b 55       		.uleb128 0x55
 2190 000c 17       		.uleb128 0x17
 2191 000d 11       		.uleb128 0x11
 2192 000e 01       		.uleb128 0x1
 2193 000f 10       		.uleb128 0x10
 2194 0010 17       		.uleb128 0x17
 2195 0011 00       		.byte	0
 2196 0012 00       		.byte	0
 2197 0013 02       		.uleb128 0x2
 2198 0014 24       		.uleb128 0x24
 2199 0015 00       		.byte	0
 2200 0016 0B       		.uleb128 0xb
 2201 0017 0B       		.uleb128 0xb
 2202 0018 3E       		.uleb128 0x3e
 2203 0019 0B       		.uleb128 0xb
 2204 001a 03       		.uleb128 0x3
 2205 001b 08       		.uleb128 0x8
 2206 001c 00       		.byte	0
 2207 001d 00       		.byte	0
 2208 001e 03       		.uleb128 0x3
 2209 001f 16       		.uleb128 0x16
 2210 0020 00       		.byte	0
 2211 0021 03       		.uleb128 0x3
 2212 0022 0E       		.uleb128 0xe
 2213 0023 3A       		.uleb128 0x3a
 2214 0024 0B       		.uleb128 0xb
 2215 0025 3B       		.uleb128 0x3b
 2216 0026 0B       		.uleb128 0xb
 2217 0027 49       		.uleb128 0x49
 2218 0028 13       		.uleb128 0x13
 2219 0029 00       		.byte	0
 2220 002a 00       		.byte	0
 2221 002b 04       		.uleb128 0x4
 2222 002c 24       		.uleb128 0x24
 2223 002d 00       		.byte	0
ARM GAS  /var/folders/bz/nn5481rn5xq59rb0mbj7x0880000gn/T//ccr8IYTK.s 			page 40


 2224 002e 0B       		.uleb128 0xb
 2225 002f 0B       		.uleb128 0xb
 2226 0030 3E       		.uleb128 0x3e
 2227 0031 0B       		.uleb128 0xb
 2228 0032 03       		.uleb128 0x3
 2229 0033 0E       		.uleb128 0xe
 2230 0034 00       		.byte	0
 2231 0035 00       		.byte	0
 2232 0036 05       		.uleb128 0x5
 2233 0037 13       		.uleb128 0x13
 2234 0038 01       		.byte	0x1
 2235 0039 03       		.uleb128 0x3
 2236 003a 0E       		.uleb128 0xe
 2237 003b 0B       		.uleb128 0xb
 2238 003c 0B       		.uleb128 0xb
 2239 003d 3A       		.uleb128 0x3a
 2240 003e 0B       		.uleb128 0xb
 2241 003f 3B       		.uleb128 0x3b
 2242 0040 0B       		.uleb128 0xb
 2243 0041 01       		.uleb128 0x1
 2244 0042 13       		.uleb128 0x13
 2245 0043 00       		.byte	0
 2246 0044 00       		.byte	0
 2247 0045 06       		.uleb128 0x6
 2248 0046 0D       		.uleb128 0xd
 2249 0047 00       		.byte	0
 2250 0048 03       		.uleb128 0x3
 2251 0049 0E       		.uleb128 0xe
 2252 004a 3A       		.uleb128 0x3a
 2253 004b 0B       		.uleb128 0xb
 2254 004c 3B       		.uleb128 0x3b
 2255 004d 0B       		.uleb128 0xb
 2256 004e 49       		.uleb128 0x49
 2257 004f 13       		.uleb128 0x13
 2258 0050 38       		.uleb128 0x38
 2259 0051 0B       		.uleb128 0xb
 2260 0052 00       		.byte	0
 2261 0053 00       		.byte	0
 2262 0054 07       		.uleb128 0x7
 2263 0055 0D       		.uleb128 0xd
 2264 0056 00       		.byte	0
 2265 0057 03       		.uleb128 0x3
 2266 0058 08       		.uleb128 0x8
 2267 0059 3A       		.uleb128 0x3a
 2268 005a 0B       		.uleb128 0xb
 2269 005b 3B       		.uleb128 0x3b
 2270 005c 0B       		.uleb128 0xb
 2271 005d 49       		.uleb128 0x49
 2272 005e 13       		.uleb128 0x13
 2273 005f 38       		.uleb128 0x38
 2274 0060 0B       		.uleb128 0xb
 2275 0061 00       		.byte	0
 2276 0062 00       		.byte	0
 2277 0063 08       		.uleb128 0x8
 2278 0064 13       		.uleb128 0x13
 2279 0065 01       		.byte	0x1
 2280 0066 0B       		.uleb128 0xb
ARM GAS  /var/folders/bz/nn5481rn5xq59rb0mbj7x0880000gn/T//ccr8IYTK.s 			page 41


 2281 0067 0B       		.uleb128 0xb
 2282 0068 3A       		.uleb128 0x3a
 2283 0069 0B       		.uleb128 0xb
 2284 006a 3B       		.uleb128 0x3b
 2285 006b 0B       		.uleb128 0xb
 2286 006c 01       		.uleb128 0x1
 2287 006d 13       		.uleb128 0x13
 2288 006e 00       		.byte	0
 2289 006f 00       		.byte	0
 2290 0070 09       		.uleb128 0x9
 2291 0071 0F       		.uleb128 0xf
 2292 0072 00       		.byte	0
 2293 0073 0B       		.uleb128 0xb
 2294 0074 0B       		.uleb128 0xb
 2295 0075 49       		.uleb128 0x49
 2296 0076 13       		.uleb128 0x13
 2297 0077 00       		.byte	0
 2298 0078 00       		.byte	0
 2299 0079 0A       		.uleb128 0xa
 2300 007a 0F       		.uleb128 0xf
 2301 007b 00       		.byte	0
 2302 007c 0B       		.uleb128 0xb
 2303 007d 0B       		.uleb128 0xb
 2304 007e 00       		.byte	0
 2305 007f 00       		.byte	0
 2306 0080 0B       		.uleb128 0xb
 2307 0081 13       		.uleb128 0x13
 2308 0082 01       		.byte	0x1
 2309 0083 03       		.uleb128 0x3
 2310 0084 0E       		.uleb128 0xe
 2311 0085 0B       		.uleb128 0xb
 2312 0086 0B       		.uleb128 0xb
 2313 0087 3A       		.uleb128 0x3a
 2314 0088 0B       		.uleb128 0xb
 2315 0089 3B       		.uleb128 0x3b
 2316 008a 05       		.uleb128 0x5
 2317 008b 01       		.uleb128 0x1
 2318 008c 13       		.uleb128 0x13
 2319 008d 00       		.byte	0
 2320 008e 00       		.byte	0
 2321 008f 0C       		.uleb128 0xc
 2322 0090 0D       		.uleb128 0xd
 2323 0091 00       		.byte	0
 2324 0092 03       		.uleb128 0x3
 2325 0093 08       		.uleb128 0x8
 2326 0094 3A       		.uleb128 0x3a
 2327 0095 0B       		.uleb128 0xb
 2328 0096 3B       		.uleb128 0x3b
 2329 0097 05       		.uleb128 0x5
 2330 0098 49       		.uleb128 0x49
 2331 0099 13       		.uleb128 0x13
 2332 009a 38       		.uleb128 0x38
 2333 009b 0B       		.uleb128 0xb
 2334 009c 00       		.byte	0
 2335 009d 00       		.byte	0
 2336 009e 0D       		.uleb128 0xd
 2337 009f 15       		.uleb128 0x15
ARM GAS  /var/folders/bz/nn5481rn5xq59rb0mbj7x0880000gn/T//ccr8IYTK.s 			page 42


 2338 00a0 01       		.byte	0x1
 2339 00a1 27       		.uleb128 0x27
 2340 00a2 19       		.uleb128 0x19
 2341 00a3 01       		.uleb128 0x1
 2342 00a4 13       		.uleb128 0x13
 2343 00a5 00       		.byte	0
 2344 00a6 00       		.byte	0
 2345 00a7 0E       		.uleb128 0xe
 2346 00a8 05       		.uleb128 0x5
 2347 00a9 00       		.byte	0
 2348 00aa 49       		.uleb128 0x49
 2349 00ab 13       		.uleb128 0x13
 2350 00ac 00       		.byte	0
 2351 00ad 00       		.byte	0
 2352 00ae 0F       		.uleb128 0xf
 2353 00af 35       		.uleb128 0x35
 2354 00b0 00       		.byte	0
 2355 00b1 49       		.uleb128 0x49
 2356 00b2 13       		.uleb128 0x13
 2357 00b3 00       		.byte	0
 2358 00b4 00       		.byte	0
 2359 00b5 10       		.uleb128 0x10
 2360 00b6 17       		.uleb128 0x17
 2361 00b7 01       		.byte	0x1
 2362 00b8 0B       		.uleb128 0xb
 2363 00b9 0B       		.uleb128 0xb
 2364 00ba 3A       		.uleb128 0x3a
 2365 00bb 0B       		.uleb128 0xb
 2366 00bc 3B       		.uleb128 0x3b
 2367 00bd 0B       		.uleb128 0xb
 2368 00be 01       		.uleb128 0x1
 2369 00bf 13       		.uleb128 0x13
 2370 00c0 00       		.byte	0
 2371 00c1 00       		.byte	0
 2372 00c2 11       		.uleb128 0x11
 2373 00c3 0D       		.uleb128 0xd
 2374 00c4 00       		.byte	0
 2375 00c5 03       		.uleb128 0x3
 2376 00c6 0E       		.uleb128 0xe
 2377 00c7 3A       		.uleb128 0x3a
 2378 00c8 0B       		.uleb128 0xb
 2379 00c9 3B       		.uleb128 0x3b
 2380 00ca 0B       		.uleb128 0xb
 2381 00cb 49       		.uleb128 0x49
 2382 00cc 13       		.uleb128 0x13
 2383 00cd 00       		.byte	0
 2384 00ce 00       		.byte	0
 2385 00cf 12       		.uleb128 0x12
 2386 00d0 26       		.uleb128 0x26
 2387 00d1 00       		.byte	0
 2388 00d2 49       		.uleb128 0x49
 2389 00d3 13       		.uleb128 0x13
 2390 00d4 00       		.byte	0
 2391 00d5 00       		.byte	0
 2392 00d6 13       		.uleb128 0x13
 2393 00d7 15       		.uleb128 0x15
 2394 00d8 01       		.byte	0x1
ARM GAS  /var/folders/bz/nn5481rn5xq59rb0mbj7x0880000gn/T//ccr8IYTK.s 			page 43


 2395 00d9 27       		.uleb128 0x27
 2396 00da 19       		.uleb128 0x19
 2397 00db 49       		.uleb128 0x49
 2398 00dc 13       		.uleb128 0x13
 2399 00dd 01       		.uleb128 0x1
 2400 00de 13       		.uleb128 0x13
 2401 00df 00       		.byte	0
 2402 00e0 00       		.byte	0
 2403 00e1 14       		.uleb128 0x14
 2404 00e2 2E       		.uleb128 0x2e
 2405 00e3 01       		.byte	0x1
 2406 00e4 3F       		.uleb128 0x3f
 2407 00e5 19       		.uleb128 0x19
 2408 00e6 03       		.uleb128 0x3
 2409 00e7 0E       		.uleb128 0xe
 2410 00e8 3A       		.uleb128 0x3a
 2411 00e9 0B       		.uleb128 0xb
 2412 00ea 3B       		.uleb128 0x3b
 2413 00eb 0B       		.uleb128 0xb
 2414 00ec 27       		.uleb128 0x27
 2415 00ed 19       		.uleb128 0x19
 2416 00ee 49       		.uleb128 0x49
 2417 00ef 13       		.uleb128 0x13
 2418 00f0 20       		.uleb128 0x20
 2419 00f1 0B       		.uleb128 0xb
 2420 00f2 01       		.uleb128 0x1
 2421 00f3 13       		.uleb128 0x13
 2422 00f4 00       		.byte	0
 2423 00f5 00       		.byte	0
 2424 00f6 15       		.uleb128 0x15
 2425 00f7 05       		.uleb128 0x5
 2426 00f8 00       		.byte	0
 2427 00f9 03       		.uleb128 0x3
 2428 00fa 08       		.uleb128 0x8
 2429 00fb 3A       		.uleb128 0x3a
 2430 00fc 0B       		.uleb128 0xb
 2431 00fd 3B       		.uleb128 0x3b
 2432 00fe 0B       		.uleb128 0xb
 2433 00ff 49       		.uleb128 0x49
 2434 0100 13       		.uleb128 0x13
 2435 0101 00       		.byte	0
 2436 0102 00       		.byte	0
 2437 0103 16       		.uleb128 0x16
 2438 0104 05       		.uleb128 0x5
 2439 0105 00       		.byte	0
 2440 0106 03       		.uleb128 0x3
 2441 0107 0E       		.uleb128 0xe
 2442 0108 3A       		.uleb128 0x3a
 2443 0109 0B       		.uleb128 0xb
 2444 010a 3B       		.uleb128 0x3b
 2445 010b 0B       		.uleb128 0xb
 2446 010c 49       		.uleb128 0x49
 2447 010d 13       		.uleb128 0x13
 2448 010e 00       		.byte	0
 2449 010f 00       		.byte	0
 2450 0110 17       		.uleb128 0x17
 2451 0111 34       		.uleb128 0x34
ARM GAS  /var/folders/bz/nn5481rn5xq59rb0mbj7x0880000gn/T//ccr8IYTK.s 			page 44


 2452 0112 00       		.byte	0
 2453 0113 03       		.uleb128 0x3
 2454 0114 08       		.uleb128 0x8
 2455 0115 3A       		.uleb128 0x3a
 2456 0116 0B       		.uleb128 0xb
 2457 0117 3B       		.uleb128 0x3b
 2458 0118 0B       		.uleb128 0xb
 2459 0119 49       		.uleb128 0x49
 2460 011a 13       		.uleb128 0x13
 2461 011b 00       		.byte	0
 2462 011c 00       		.byte	0
 2463 011d 18       		.uleb128 0x18
 2464 011e 2E       		.uleb128 0x2e
 2465 011f 01       		.byte	0x1
 2466 0120 03       		.uleb128 0x3
 2467 0121 0E       		.uleb128 0xe
 2468 0122 3A       		.uleb128 0x3a
 2469 0123 0B       		.uleb128 0xb
 2470 0124 3B       		.uleb128 0x3b
 2471 0125 0B       		.uleb128 0xb
 2472 0126 27       		.uleb128 0x27
 2473 0127 19       		.uleb128 0x19
 2474 0128 49       		.uleb128 0x49
 2475 0129 13       		.uleb128 0x13
 2476 012a 20       		.uleb128 0x20
 2477 012b 0B       		.uleb128 0xb
 2478 012c 01       		.uleb128 0x1
 2479 012d 13       		.uleb128 0x13
 2480 012e 00       		.byte	0
 2481 012f 00       		.byte	0
 2482 0130 19       		.uleb128 0x19
 2483 0131 2E       		.uleb128 0x2e
 2484 0132 01       		.byte	0x1
 2485 0133 03       		.uleb128 0x3
 2486 0134 0E       		.uleb128 0xe
 2487 0135 3A       		.uleb128 0x3a
 2488 0136 0B       		.uleb128 0xb
 2489 0137 3B       		.uleb128 0x3b
 2490 0138 0B       		.uleb128 0xb
 2491 0139 27       		.uleb128 0x27
 2492 013a 19       		.uleb128 0x19
 2493 013b 20       		.uleb128 0x20
 2494 013c 0B       		.uleb128 0xb
 2495 013d 01       		.uleb128 0x1
 2496 013e 13       		.uleb128 0x13
 2497 013f 00       		.byte	0
 2498 0140 00       		.byte	0
 2499 0141 1A       		.uleb128 0x1a
 2500 0142 2E       		.uleb128 0x2e
 2501 0143 01       		.byte	0x1
 2502 0144 31       		.uleb128 0x31
 2503 0145 13       		.uleb128 0x13
 2504 0146 11       		.uleb128 0x11
 2505 0147 01       		.uleb128 0x1
 2506 0148 12       		.uleb128 0x12
 2507 0149 06       		.uleb128 0x6
 2508 014a 40       		.uleb128 0x40
ARM GAS  /var/folders/bz/nn5481rn5xq59rb0mbj7x0880000gn/T//ccr8IYTK.s 			page 45


 2509 014b 18       		.uleb128 0x18
 2510 014c 9742     		.uleb128 0x2117
 2511 014e 19       		.uleb128 0x19
 2512 014f 01       		.uleb128 0x1
 2513 0150 13       		.uleb128 0x13
 2514 0151 00       		.byte	0
 2515 0152 00       		.byte	0
 2516 0153 1B       		.uleb128 0x1b
 2517 0154 05       		.uleb128 0x5
 2518 0155 00       		.byte	0
 2519 0156 31       		.uleb128 0x31
 2520 0157 13       		.uleb128 0x13
 2521 0158 02       		.uleb128 0x2
 2522 0159 18       		.uleb128 0x18
 2523 015a 00       		.byte	0
 2524 015b 00       		.byte	0
 2525 015c 1C       		.uleb128 0x1c
 2526 015d 05       		.uleb128 0x5
 2527 015e 00       		.byte	0
 2528 015f 31       		.uleb128 0x31
 2529 0160 13       		.uleb128 0x13
 2530 0161 02       		.uleb128 0x2
 2531 0162 17       		.uleb128 0x17
 2532 0163 00       		.byte	0
 2533 0164 00       		.byte	0
 2534 0165 1D       		.uleb128 0x1d
 2535 0166 34       		.uleb128 0x34
 2536 0167 00       		.byte	0
 2537 0168 31       		.uleb128 0x31
 2538 0169 13       		.uleb128 0x13
 2539 016a 02       		.uleb128 0x2
 2540 016b 18       		.uleb128 0x18
 2541 016c 00       		.byte	0
 2542 016d 00       		.byte	0
 2543 016e 1E       		.uleb128 0x1e
 2544 016f 1D       		.uleb128 0x1d
 2545 0170 01       		.byte	0x1
 2546 0171 31       		.uleb128 0x31
 2547 0172 13       		.uleb128 0x13
 2548 0173 52       		.uleb128 0x52
 2549 0174 01       		.uleb128 0x1
 2550 0175 55       		.uleb128 0x55
 2551 0176 17       		.uleb128 0x17
 2552 0177 58       		.uleb128 0x58
 2553 0178 0B       		.uleb128 0xb
 2554 0179 59       		.uleb128 0x59
 2555 017a 0B       		.uleb128 0xb
 2556 017b 00       		.byte	0
 2557 017c 00       		.byte	0
 2558 017d 1F       		.uleb128 0x1f
 2559 017e 2E       		.uleb128 0x2e
 2560 017f 01       		.byte	0x1
 2561 0180 3F       		.uleb128 0x3f
 2562 0181 19       		.uleb128 0x19
 2563 0182 03       		.uleb128 0x3
 2564 0183 0E       		.uleb128 0xe
 2565 0184 3A       		.uleb128 0x3a
ARM GAS  /var/folders/bz/nn5481rn5xq59rb0mbj7x0880000gn/T//ccr8IYTK.s 			page 46


 2566 0185 0B       		.uleb128 0xb
 2567 0186 3B       		.uleb128 0x3b
 2568 0187 0B       		.uleb128 0xb
 2569 0188 27       		.uleb128 0x27
 2570 0189 19       		.uleb128 0x19
 2571 018a 49       		.uleb128 0x49
 2572 018b 13       		.uleb128 0x13
 2573 018c 11       		.uleb128 0x11
 2574 018d 01       		.uleb128 0x1
 2575 018e 12       		.uleb128 0x12
 2576 018f 06       		.uleb128 0x6
 2577 0190 40       		.uleb128 0x40
 2578 0191 18       		.uleb128 0x18
 2579 0192 9742     		.uleb128 0x2117
 2580 0194 19       		.uleb128 0x19
 2581 0195 01       		.uleb128 0x1
 2582 0196 13       		.uleb128 0x13
 2583 0197 00       		.byte	0
 2584 0198 00       		.byte	0
 2585 0199 20       		.uleb128 0x20
 2586 019a 05       		.uleb128 0x5
 2587 019b 00       		.byte	0
 2588 019c 03       		.uleb128 0x3
 2589 019d 08       		.uleb128 0x8
 2590 019e 3A       		.uleb128 0x3a
 2591 019f 0B       		.uleb128 0xb
 2592 01a0 3B       		.uleb128 0x3b
 2593 01a1 0B       		.uleb128 0xb
 2594 01a2 49       		.uleb128 0x49
 2595 01a3 13       		.uleb128 0x13
 2596 01a4 02       		.uleb128 0x2
 2597 01a5 17       		.uleb128 0x17
 2598 01a6 00       		.byte	0
 2599 01a7 00       		.byte	0
 2600 01a8 21       		.uleb128 0x21
 2601 01a9 05       		.uleb128 0x5
 2602 01aa 00       		.byte	0
 2603 01ab 03       		.uleb128 0x3
 2604 01ac 0E       		.uleb128 0xe
 2605 01ad 3A       		.uleb128 0x3a
 2606 01ae 0B       		.uleb128 0xb
 2607 01af 3B       		.uleb128 0x3b
 2608 01b0 0B       		.uleb128 0xb
 2609 01b1 49       		.uleb128 0x49
 2610 01b2 13       		.uleb128 0x13
 2611 01b3 02       		.uleb128 0x2
 2612 01b4 17       		.uleb128 0x17
 2613 01b5 00       		.byte	0
 2614 01b6 00       		.byte	0
 2615 01b7 22       		.uleb128 0x22
 2616 01b8 1D       		.uleb128 0x1d
 2617 01b9 01       		.byte	0x1
 2618 01ba 31       		.uleb128 0x31
 2619 01bb 13       		.uleb128 0x13
 2620 01bc 52       		.uleb128 0x52
 2621 01bd 01       		.uleb128 0x1
 2622 01be 55       		.uleb128 0x55
ARM GAS  /var/folders/bz/nn5481rn5xq59rb0mbj7x0880000gn/T//ccr8IYTK.s 			page 47


 2623 01bf 17       		.uleb128 0x17
 2624 01c0 58       		.uleb128 0x58
 2625 01c1 0B       		.uleb128 0xb
 2626 01c2 59       		.uleb128 0x59
 2627 01c3 0B       		.uleb128 0xb
 2628 01c4 01       		.uleb128 0x1
 2629 01c5 13       		.uleb128 0x13
 2630 01c6 00       		.byte	0
 2631 01c7 00       		.byte	0
 2632 01c8 23       		.uleb128 0x23
 2633 01c9 0B       		.uleb128 0xb
 2634 01ca 01       		.byte	0x1
 2635 01cb 55       		.uleb128 0x55
 2636 01cc 17       		.uleb128 0x17
 2637 01cd 00       		.byte	0
 2638 01ce 00       		.byte	0
 2639 01cf 24       		.uleb128 0x24
 2640 01d0 34       		.uleb128 0x34
 2641 01d1 00       		.byte	0
 2642 01d2 31       		.uleb128 0x31
 2643 01d3 13       		.uleb128 0x13
 2644 01d4 02       		.uleb128 0x2
 2645 01d5 17       		.uleb128 0x17
 2646 01d6 00       		.byte	0
 2647 01d7 00       		.byte	0
 2648 01d8 25       		.uleb128 0x25
 2649 01d9 898201   		.uleb128 0x4109
 2650 01dc 01       		.byte	0x1
 2651 01dd 11       		.uleb128 0x11
 2652 01de 01       		.uleb128 0x1
 2653 01df 31       		.uleb128 0x31
 2654 01e0 13       		.uleb128 0x13
 2655 01e1 00       		.byte	0
 2656 01e2 00       		.byte	0
 2657 01e3 26       		.uleb128 0x26
 2658 01e4 8A8201   		.uleb128 0x410a
 2659 01e7 00       		.byte	0
 2660 01e8 02       		.uleb128 0x2
 2661 01e9 18       		.uleb128 0x18
 2662 01ea 9142     		.uleb128 0x2111
 2663 01ec 18       		.uleb128 0x18
 2664 01ed 00       		.byte	0
 2665 01ee 00       		.byte	0
 2666 01ef 27       		.uleb128 0x27
 2667 01f0 34       		.uleb128 0x34
 2668 01f1 00       		.byte	0
 2669 01f2 03       		.uleb128 0x3
 2670 01f3 0E       		.uleb128 0xe
 2671 01f4 3A       		.uleb128 0x3a
 2672 01f5 0B       		.uleb128 0xb
 2673 01f6 3B       		.uleb128 0x3b
 2674 01f7 0B       		.uleb128 0xb
 2675 01f8 49       		.uleb128 0x49
 2676 01f9 13       		.uleb128 0x13
 2677 01fa 02       		.uleb128 0x2
 2678 01fb 17       		.uleb128 0x17
 2679 01fc 00       		.byte	0
ARM GAS  /var/folders/bz/nn5481rn5xq59rb0mbj7x0880000gn/T//ccr8IYTK.s 			page 48


 2680 01fd 00       		.byte	0
 2681 01fe 28       		.uleb128 0x28
 2682 01ff 898201   		.uleb128 0x4109
 2683 0202 00       		.byte	0
 2684 0203 11       		.uleb128 0x11
 2685 0204 01       		.uleb128 0x1
 2686 0205 31       		.uleb128 0x31
 2687 0206 13       		.uleb128 0x13
 2688 0207 00       		.byte	0
 2689 0208 00       		.byte	0
 2690 0209 29       		.uleb128 0x29
 2691 020a 2E       		.uleb128 0x2e
 2692 020b 01       		.byte	0x1
 2693 020c 3F       		.uleb128 0x3f
 2694 020d 19       		.uleb128 0x19
 2695 020e 03       		.uleb128 0x3
 2696 020f 0E       		.uleb128 0xe
 2697 0210 3A       		.uleb128 0x3a
 2698 0211 0B       		.uleb128 0xb
 2699 0212 3B       		.uleb128 0x3b
 2700 0213 05       		.uleb128 0x5
 2701 0214 27       		.uleb128 0x27
 2702 0215 19       		.uleb128 0x19
 2703 0216 11       		.uleb128 0x11
 2704 0217 01       		.uleb128 0x1
 2705 0218 12       		.uleb128 0x12
 2706 0219 06       		.uleb128 0x6
 2707 021a 40       		.uleb128 0x40
 2708 021b 18       		.uleb128 0x18
 2709 021c 9742     		.uleb128 0x2117
 2710 021e 19       		.uleb128 0x19
 2711 021f 01       		.uleb128 0x1
 2712 0220 13       		.uleb128 0x13
 2713 0221 00       		.byte	0
 2714 0222 00       		.byte	0
 2715 0223 2A       		.uleb128 0x2a
 2716 0224 05       		.uleb128 0x5
 2717 0225 00       		.byte	0
 2718 0226 03       		.uleb128 0x3
 2719 0227 08       		.uleb128 0x8
 2720 0228 3A       		.uleb128 0x3a
 2721 0229 0B       		.uleb128 0xb
 2722 022a 3B       		.uleb128 0x3b
 2723 022b 05       		.uleb128 0x5
 2724 022c 49       		.uleb128 0x49
 2725 022d 13       		.uleb128 0x13
 2726 022e 02       		.uleb128 0x2
 2727 022f 18       		.uleb128 0x18
 2728 0230 00       		.byte	0
 2729 0231 00       		.byte	0
 2730 0232 2B       		.uleb128 0x2b
 2731 0233 05       		.uleb128 0x5
 2732 0234 00       		.byte	0
 2733 0235 03       		.uleb128 0x3
 2734 0236 0E       		.uleb128 0xe
 2735 0237 3A       		.uleb128 0x3a
 2736 0238 0B       		.uleb128 0xb
ARM GAS  /var/folders/bz/nn5481rn5xq59rb0mbj7x0880000gn/T//ccr8IYTK.s 			page 49


 2737 0239 3B       		.uleb128 0x3b
 2738 023a 05       		.uleb128 0x5
 2739 023b 49       		.uleb128 0x49
 2740 023c 13       		.uleb128 0x13
 2741 023d 02       		.uleb128 0x2
 2742 023e 17       		.uleb128 0x17
 2743 023f 00       		.byte	0
 2744 0240 00       		.byte	0
 2745 0241 2C       		.uleb128 0x2c
 2746 0242 05       		.uleb128 0x5
 2747 0243 00       		.byte	0
 2748 0244 03       		.uleb128 0x3
 2749 0245 08       		.uleb128 0x8
 2750 0246 3A       		.uleb128 0x3a
 2751 0247 0B       		.uleb128 0xb
 2752 0248 3B       		.uleb128 0x3b
 2753 0249 05       		.uleb128 0x5
 2754 024a 49       		.uleb128 0x49
 2755 024b 13       		.uleb128 0x13
 2756 024c 02       		.uleb128 0x2
 2757 024d 17       		.uleb128 0x17
 2758 024e 00       		.byte	0
 2759 024f 00       		.byte	0
 2760 0250 2D       		.uleb128 0x2d
 2761 0251 34       		.uleb128 0x34
 2762 0252 00       		.byte	0
 2763 0253 03       		.uleb128 0x3
 2764 0254 08       		.uleb128 0x8
 2765 0255 3A       		.uleb128 0x3a
 2766 0256 0B       		.uleb128 0xb
 2767 0257 3B       		.uleb128 0x3b
 2768 0258 05       		.uleb128 0x5
 2769 0259 49       		.uleb128 0x49
 2770 025a 13       		.uleb128 0x13
 2771 025b 02       		.uleb128 0x2
 2772 025c 17       		.uleb128 0x17
 2773 025d 00       		.byte	0
 2774 025e 00       		.byte	0
 2775 025f 2E       		.uleb128 0x2e
 2776 0260 1D       		.uleb128 0x1d
 2777 0261 01       		.byte	0x1
 2778 0262 31       		.uleb128 0x31
 2779 0263 13       		.uleb128 0x13
 2780 0264 11       		.uleb128 0x11
 2781 0265 01       		.uleb128 0x1
 2782 0266 12       		.uleb128 0x12
 2783 0267 06       		.uleb128 0x6
 2784 0268 58       		.uleb128 0x58
 2785 0269 0B       		.uleb128 0xb
 2786 026a 59       		.uleb128 0x59
 2787 026b 05       		.uleb128 0x5
 2788 026c 01       		.uleb128 0x1
 2789 026d 13       		.uleb128 0x13
 2790 026e 00       		.byte	0
 2791 026f 00       		.byte	0
 2792 0270 2F       		.uleb128 0x2f
 2793 0271 0B       		.uleb128 0xb
ARM GAS  /var/folders/bz/nn5481rn5xq59rb0mbj7x0880000gn/T//ccr8IYTK.s 			page 50


 2794 0272 01       		.byte	0x1
 2795 0273 11       		.uleb128 0x11
 2796 0274 01       		.uleb128 0x1
 2797 0275 12       		.uleb128 0x12
 2798 0276 06       		.uleb128 0x6
 2799 0277 00       		.byte	0
 2800 0278 00       		.byte	0
 2801 0279 30       		.uleb128 0x30
 2802 027a 898201   		.uleb128 0x4109
 2803 027d 01       		.byte	0x1
 2804 027e 11       		.uleb128 0x11
 2805 027f 01       		.uleb128 0x1
 2806 0280 9542     		.uleb128 0x2115
 2807 0282 19       		.uleb128 0x19
 2808 0283 31       		.uleb128 0x31
 2809 0284 13       		.uleb128 0x13
 2810 0285 00       		.byte	0
 2811 0286 00       		.byte	0
 2812 0287 31       		.uleb128 0x31
 2813 0288 2E       		.uleb128 0x2e
 2814 0289 01       		.byte	0x1
 2815 028a 3F       		.uleb128 0x3f
 2816 028b 19       		.uleb128 0x19
 2817 028c 03       		.uleb128 0x3
 2818 028d 0E       		.uleb128 0xe
 2819 028e 3A       		.uleb128 0x3a
 2820 028f 0B       		.uleb128 0xb
 2821 0290 3B       		.uleb128 0x3b
 2822 0291 05       		.uleb128 0x5
 2823 0292 27       		.uleb128 0x27
 2824 0293 19       		.uleb128 0x19
 2825 0294 49       		.uleb128 0x49
 2826 0295 13       		.uleb128 0x13
 2827 0296 11       		.uleb128 0x11
 2828 0297 01       		.uleb128 0x1
 2829 0298 12       		.uleb128 0x12
 2830 0299 06       		.uleb128 0x6
 2831 029a 40       		.uleb128 0x40
 2832 029b 18       		.uleb128 0x18
 2833 029c 9742     		.uleb128 0x2117
 2834 029e 19       		.uleb128 0x19
 2835 029f 01       		.uleb128 0x1
 2836 02a0 13       		.uleb128 0x13
 2837 02a1 00       		.byte	0
 2838 02a2 00       		.byte	0
 2839 02a3 32       		.uleb128 0x32
 2840 02a4 1D       		.uleb128 0x1d
 2841 02a5 01       		.byte	0x1
 2842 02a6 31       		.uleb128 0x31
 2843 02a7 13       		.uleb128 0x13
 2844 02a8 52       		.uleb128 0x52
 2845 02a9 01       		.uleb128 0x1
 2846 02aa 55       		.uleb128 0x55
 2847 02ab 17       		.uleb128 0x17
 2848 02ac 58       		.uleb128 0x58
 2849 02ad 0B       		.uleb128 0xb
 2850 02ae 59       		.uleb128 0x59
ARM GAS  /var/folders/bz/nn5481rn5xq59rb0mbj7x0880000gn/T//ccr8IYTK.s 			page 51


 2851 02af 05       		.uleb128 0x5
 2852 02b0 01       		.uleb128 0x1
 2853 02b1 13       		.uleb128 0x13
 2854 02b2 00       		.byte	0
 2855 02b3 00       		.byte	0
 2856 02b4 33       		.uleb128 0x33
 2857 02b5 898201   		.uleb128 0x4109
 2858 02b8 01       		.byte	0x1
 2859 02b9 11       		.uleb128 0x11
 2860 02ba 01       		.uleb128 0x1
 2861 02bb 31       		.uleb128 0x31
 2862 02bc 13       		.uleb128 0x13
 2863 02bd 01       		.uleb128 0x1
 2864 02be 13       		.uleb128 0x13
 2865 02bf 00       		.byte	0
 2866 02c0 00       		.byte	0
 2867 02c1 34       		.uleb128 0x34
 2868 02c2 34       		.uleb128 0x34
 2869 02c3 00       		.byte	0
 2870 02c4 03       		.uleb128 0x3
 2871 02c5 0E       		.uleb128 0xe
 2872 02c6 3A       		.uleb128 0x3a
 2873 02c7 0B       		.uleb128 0xb
 2874 02c8 3B       		.uleb128 0x3b
 2875 02c9 0B       		.uleb128 0xb
 2876 02ca 49       		.uleb128 0x49
 2877 02cb 13       		.uleb128 0x13
 2878 02cc 3F       		.uleb128 0x3f
 2879 02cd 19       		.uleb128 0x19
 2880 02ce 3C       		.uleb128 0x3c
 2881 02cf 19       		.uleb128 0x19
 2882 02d0 00       		.byte	0
 2883 02d1 00       		.byte	0
 2884 02d2 35       		.uleb128 0x35
 2885 02d3 2E       		.uleb128 0x2e
 2886 02d4 01       		.byte	0x1
 2887 02d5 3F       		.uleb128 0x3f
 2888 02d6 19       		.uleb128 0x19
 2889 02d7 03       		.uleb128 0x3
 2890 02d8 0E       		.uleb128 0xe
 2891 02d9 3A       		.uleb128 0x3a
 2892 02da 0B       		.uleb128 0xb
 2893 02db 3B       		.uleb128 0x3b
 2894 02dc 0B       		.uleb128 0xb
 2895 02dd 27       		.uleb128 0x27
 2896 02de 19       		.uleb128 0x19
 2897 02df 3C       		.uleb128 0x3c
 2898 02e0 19       		.uleb128 0x19
 2899 02e1 01       		.uleb128 0x1
 2900 02e2 13       		.uleb128 0x13
 2901 02e3 00       		.byte	0
 2902 02e4 00       		.byte	0
 2903 02e5 36       		.uleb128 0x36
 2904 02e6 2E       		.uleb128 0x2e
 2905 02e7 00       		.byte	0
 2906 02e8 3F       		.uleb128 0x3f
 2907 02e9 19       		.uleb128 0x19
ARM GAS  /var/folders/bz/nn5481rn5xq59rb0mbj7x0880000gn/T//ccr8IYTK.s 			page 52


 2908 02ea 03       		.uleb128 0x3
 2909 02eb 0E       		.uleb128 0xe
 2910 02ec 3A       		.uleb128 0x3a
 2911 02ed 0B       		.uleb128 0xb
 2912 02ee 3B       		.uleb128 0x3b
 2913 02ef 0B       		.uleb128 0xb
 2914 02f0 27       		.uleb128 0x27
 2915 02f1 19       		.uleb128 0x19
 2916 02f2 3C       		.uleb128 0x3c
 2917 02f3 19       		.uleb128 0x19
 2918 02f4 00       		.byte	0
 2919 02f5 00       		.byte	0
 2920 02f6 37       		.uleb128 0x37
 2921 02f7 2E       		.uleb128 0x2e
 2922 02f8 01       		.byte	0x1
 2923 02f9 3F       		.uleb128 0x3f
 2924 02fa 19       		.uleb128 0x19
 2925 02fb 03       		.uleb128 0x3
 2926 02fc 0E       		.uleb128 0xe
 2927 02fd 3A       		.uleb128 0x3a
 2928 02fe 0B       		.uleb128 0xb
 2929 02ff 3B       		.uleb128 0x3b
 2930 0300 0B       		.uleb128 0xb
 2931 0301 27       		.uleb128 0x27
 2932 0302 19       		.uleb128 0x19
 2933 0303 49       		.uleb128 0x49
 2934 0304 13       		.uleb128 0x13
 2935 0305 3C       		.uleb128 0x3c
 2936 0306 19       		.uleb128 0x19
 2937 0307 01       		.uleb128 0x1
 2938 0308 13       		.uleb128 0x13
 2939 0309 00       		.byte	0
 2940 030a 00       		.byte	0
 2941 030b 38       		.uleb128 0x38
 2942 030c 2E       		.uleb128 0x2e
 2943 030d 01       		.byte	0x1
 2944 030e 3F       		.uleb128 0x3f
 2945 030f 19       		.uleb128 0x19
 2946 0310 03       		.uleb128 0x3
 2947 0311 0E       		.uleb128 0xe
 2948 0312 3A       		.uleb128 0x3a
 2949 0313 0B       		.uleb128 0xb
 2950 0314 3B       		.uleb128 0x3b
 2951 0315 0B       		.uleb128 0xb
 2952 0316 27       		.uleb128 0x27
 2953 0317 19       		.uleb128 0x19
 2954 0318 3C       		.uleb128 0x3c
 2955 0319 19       		.uleb128 0x19
 2956 031a 00       		.byte	0
 2957 031b 00       		.byte	0
 2958 031c 00       		.byte	0
 2959              		.section	.debug_loc,"",%progbits
 2960              	.Ldebug_loc0:
 2961              	.LLST0:
 2962 0000 00000000 		.4byte	.LVL1
 2963 0004 06000000 		.4byte	.LVL2
 2964 0008 0100     		.2byte	0x1
ARM GAS  /var/folders/bz/nn5481rn5xq59rb0mbj7x0880000gn/T//ccr8IYTK.s 			page 53


 2965 000a 51       		.byte	0x51
 2966 000b 06000000 		.4byte	.LVL2
 2967 000f 14000000 		.4byte	.LVL3
 2968 0013 0400     		.2byte	0x4
 2969 0015 71       		.byte	0x71
 2970 0016 E400     		.sleb128 100
 2971 0018 9F       		.byte	0x9f
 2972 0019 14000000 		.4byte	.LVL3
 2973 001d 70000000 		.4byte	.LFE8
 2974 0021 0400     		.2byte	0x4
 2975 0023 F3       		.byte	0xf3
 2976 0024 01       		.uleb128 0x1
 2977 0025 51       		.byte	0x51
 2978 0026 9F       		.byte	0x9f
 2979 0027 00000000 		.4byte	0
 2980 002b 00000000 		.4byte	0
 2981              	.LLST1:
 2982 002f 00000000 		.4byte	.LVL1
 2983 0033 26000000 		.4byte	.LVL4
 2984 0037 0100     		.2byte	0x1
 2985 0039 53       		.byte	0x53
 2986 003a 26000000 		.4byte	.LVL4
 2987 003e 42000000 		.4byte	.LVL6
 2988 0042 0300     		.2byte	0x3
 2989 0044 71       		.byte	0x71
 2990 0045 C000     		.sleb128 64
 2991 0047 42000000 		.4byte	.LVL6
 2992 004b 70000000 		.4byte	.LFE8
 2993 004f 0400     		.2byte	0x4
 2994 0051 F3       		.byte	0xf3
 2995 0052 01       		.uleb128 0x1
 2996 0053 53       		.byte	0x53
 2997 0054 9F       		.byte	0x9f
 2998 0055 00000000 		.4byte	0
 2999 0059 00000000 		.4byte	0
 3000              	.LLST2:
 3001 005d 00000000 		.4byte	.LVL1
 3002 0061 66000000 		.4byte	.LVL7
 3003 0065 0200     		.2byte	0x2
 3004 0067 91       		.byte	0x91
 3005 0068 00       		.sleb128 0
 3006 0069 66000000 		.4byte	.LVL7
 3007 006d 70000000 		.4byte	.LFE8
 3008 0071 0200     		.2byte	0x2
 3009 0073 7D       		.byte	0x7d
 3010 0074 00       		.sleb128 0
 3011 0075 00000000 		.4byte	0
 3012 0079 00000000 		.4byte	0
 3013              	.LLST3:
 3014 007d 00000000 		.4byte	.LVL8
 3015 0081 69000000 		.4byte	.LVL15-1
 3016 0085 0100     		.2byte	0x1
 3017 0087 50       		.byte	0x50
 3018 0088 69000000 		.4byte	.LVL15-1
 3019 008c 72000000 		.4byte	.LVL16
 3020 0090 0100     		.2byte	0x1
 3021 0092 54       		.byte	0x54
ARM GAS  /var/folders/bz/nn5481rn5xq59rb0mbj7x0880000gn/T//ccr8IYTK.s 			page 54


 3022 0093 72000000 		.4byte	.LVL16
 3023 0097 7C000000 		.4byte	.LFE9
 3024 009b 0100     		.2byte	0x1
 3025 009d 50       		.byte	0x50
 3026 009e 00000000 		.4byte	0
 3027 00a2 00000000 		.4byte	0
 3028              	.LLST4:
 3029 00a6 00000000 		.4byte	.LVL8
 3030 00aa 12000000 		.4byte	.LVL10
 3031 00ae 0100     		.2byte	0x1
 3032 00b0 51       		.byte	0x51
 3033 00b1 12000000 		.4byte	.LVL10
 3034 00b5 14000000 		.4byte	.LVL11
 3035 00b9 0400     		.2byte	0x4
 3036 00bb 71       		.byte	0x71
 3037 00bc E400     		.sleb128 100
 3038 00be 9F       		.byte	0x9f
 3039 00bf 14000000 		.4byte	.LVL11
 3040 00c3 7C000000 		.4byte	.LFE9
 3041 00c7 0400     		.2byte	0x4
 3042 00c9 F3       		.byte	0xf3
 3043 00ca 01       		.uleb128 0x1
 3044 00cb 51       		.byte	0x51
 3045 00cc 9F       		.byte	0x9f
 3046 00cd 00000000 		.4byte	0
 3047 00d1 00000000 		.4byte	0
 3048              	.LLST5:
 3049 00d5 00000000 		.4byte	.LVL8
 3050 00d9 69000000 		.4byte	.LVL15-1
 3051 00dd 0100     		.2byte	0x1
 3052 00df 52       		.byte	0x52
 3053 00e0 69000000 		.4byte	.LVL15-1
 3054 00e4 7C000000 		.4byte	.LFE9
 3055 00e8 0400     		.2byte	0x4
 3056 00ea F3       		.byte	0xf3
 3057 00eb 01       		.uleb128 0x1
 3058 00ec 52       		.byte	0x52
 3059 00ed 9F       		.byte	0x9f
 3060 00ee 00000000 		.4byte	0
 3061 00f2 00000000 		.4byte	0
 3062              	.LLST6:
 3063 00f6 00000000 		.4byte	.LVL8
 3064 00fa 28000000 		.4byte	.LVL12
 3065 00fe 0100     		.2byte	0x1
 3066 0100 53       		.byte	0x53
 3067 0101 28000000 		.4byte	.LVL12
 3068 0105 42000000 		.4byte	.LVL14
 3069 0109 0300     		.2byte	0x3
 3070 010b 71       		.byte	0x71
 3071 010c C000     		.sleb128 64
 3072 010e 42000000 		.4byte	.LVL14
 3073 0112 7C000000 		.4byte	.LFE9
 3074 0116 0400     		.2byte	0x4
 3075 0118 F3       		.byte	0xf3
 3076 0119 01       		.uleb128 0x1
 3077 011a 53       		.byte	0x53
 3078 011b 9F       		.byte	0x9f
ARM GAS  /var/folders/bz/nn5481rn5xq59rb0mbj7x0880000gn/T//ccr8IYTK.s 			page 55


 3079 011c 00000000 		.4byte	0
 3080 0120 00000000 		.4byte	0
 3081              	.LLST7:
 3082 0124 00000000 		.4byte	.LVL8
 3083 0128 72000000 		.4byte	.LVL16
 3084 012c 0200     		.2byte	0x2
 3085 012e 91       		.byte	0x91
 3086 012f 00       		.sleb128 0
 3087 0130 72000000 		.4byte	.LVL16
 3088 0134 7C000000 		.4byte	.LFE9
 3089 0138 0200     		.2byte	0x2
 3090 013a 7D       		.byte	0x7d
 3091 013b 00       		.sleb128 0
 3092 013c 00000000 		.4byte	0
 3093 0140 00000000 		.4byte	0
 3094              	.LLST8:
 3095 0144 08000000 		.4byte	.LVL9
 3096 0148 72000000 		.4byte	.LVL16
 3097 014c 0200     		.2byte	0x2
 3098 014e 91       		.byte	0x91
 3099 014f 00       		.sleb128 0
 3100 0150 72000000 		.4byte	.LVL16
 3101 0154 7C000000 		.4byte	.LFE9
 3102 0158 0200     		.2byte	0x2
 3103 015a 7D       		.byte	0x7d
 3104 015b 00       		.sleb128 0
 3105 015c 00000000 		.4byte	0
 3106 0160 00000000 		.4byte	0
 3107              	.LLST9:
 3108 0164 08000000 		.4byte	.LVL9
 3109 0168 28000000 		.4byte	.LVL12
 3110 016c 0100     		.2byte	0x1
 3111 016e 53       		.byte	0x53
 3112 016f 28000000 		.4byte	.LVL12
 3113 0173 42000000 		.4byte	.LVL14
 3114 0177 0300     		.2byte	0x3
 3115 0179 71       		.byte	0x71
 3116 017a C000     		.sleb128 64
 3117 017c 42000000 		.4byte	.LVL14
 3118 0180 7C000000 		.4byte	.LFE9
 3119 0184 0400     		.2byte	0x4
 3120 0186 F3       		.byte	0xf3
 3121 0187 01       		.uleb128 0x1
 3122 0188 53       		.byte	0x53
 3123 0189 9F       		.byte	0x9f
 3124 018a 00000000 		.4byte	0
 3125 018e 00000000 		.4byte	0
 3126              	.LLST10:
 3127 0192 08000000 		.4byte	.LVL9
 3128 0196 69000000 		.4byte	.LVL15-1
 3129 019a 0100     		.2byte	0x1
 3130 019c 52       		.byte	0x52
 3131 019d 69000000 		.4byte	.LVL15-1
 3132 01a1 7C000000 		.4byte	.LFE9
 3133 01a5 0400     		.2byte	0x4
 3134 01a7 F3       		.byte	0xf3
 3135 01a8 01       		.uleb128 0x1
ARM GAS  /var/folders/bz/nn5481rn5xq59rb0mbj7x0880000gn/T//ccr8IYTK.s 			page 56


 3136 01a9 52       		.byte	0x52
 3137 01aa 9F       		.byte	0x9f
 3138 01ab 00000000 		.4byte	0
 3139 01af 00000000 		.4byte	0
 3140              	.LLST11:
 3141 01b3 08000000 		.4byte	.LVL9
 3142 01b7 12000000 		.4byte	.LVL10
 3143 01bb 0100     		.2byte	0x1
 3144 01bd 51       		.byte	0x51
 3145 01be 12000000 		.4byte	.LVL10
 3146 01c2 14000000 		.4byte	.LVL11
 3147 01c6 0400     		.2byte	0x4
 3148 01c8 71       		.byte	0x71
 3149 01c9 E400     		.sleb128 100
 3150 01cb 9F       		.byte	0x9f
 3151 01cc 14000000 		.4byte	.LVL11
 3152 01d0 7C000000 		.4byte	.LFE9
 3153 01d4 0400     		.2byte	0x4
 3154 01d6 F3       		.byte	0xf3
 3155 01d7 01       		.uleb128 0x1
 3156 01d8 51       		.byte	0x51
 3157 01d9 9F       		.byte	0x9f
 3158 01da 00000000 		.4byte	0
 3159 01de 00000000 		.4byte	0
 3160              	.LLST12:
 3161 01e2 08000000 		.4byte	.LVL9
 3162 01e6 69000000 		.4byte	.LVL15-1
 3163 01ea 0100     		.2byte	0x1
 3164 01ec 50       		.byte	0x50
 3165 01ed 69000000 		.4byte	.LVL15-1
 3166 01f1 72000000 		.4byte	.LVL16
 3167 01f5 0100     		.2byte	0x1
 3168 01f7 54       		.byte	0x54
 3169 01f8 72000000 		.4byte	.LVL16
 3170 01fc 7C000000 		.4byte	.LFE9
 3171 0200 0100     		.2byte	0x1
 3172 0202 50       		.byte	0x50
 3173 0203 00000000 		.4byte	0
 3174 0207 00000000 		.4byte	0
 3175              	.LLST14:
 3176 020b 36000000 		.4byte	.LVL13
 3177 020f 69000000 		.4byte	.LVL15-1
 3178 0213 0100     		.2byte	0x1
 3179 0215 52       		.byte	0x52
 3180 0216 69000000 		.4byte	.LVL15-1
 3181 021a 7C000000 		.4byte	.LFE9
 3182 021e 0400     		.2byte	0x4
 3183 0220 F3       		.byte	0xf3
 3184 0221 01       		.uleb128 0x1
 3185 0222 52       		.byte	0x52
 3186 0223 9F       		.byte	0x9f
 3187 0224 00000000 		.4byte	0
 3188 0228 00000000 		.4byte	0
 3189              	.LLST15:
 3190 022c 36000000 		.4byte	.LVL13
 3191 0230 69000000 		.4byte	.LVL15-1
 3192 0234 0100     		.2byte	0x1
ARM GAS  /var/folders/bz/nn5481rn5xq59rb0mbj7x0880000gn/T//ccr8IYTK.s 			page 57


 3193 0236 50       		.byte	0x50
 3194 0237 69000000 		.4byte	.LVL15-1
 3195 023b 72000000 		.4byte	.LVL16
 3196 023f 0100     		.2byte	0x1
 3197 0241 54       		.byte	0x54
 3198 0242 72000000 		.4byte	.LVL16
 3199 0246 7C000000 		.4byte	.LFE9
 3200 024a 0100     		.2byte	0x1
 3201 024c 50       		.byte	0x50
 3202 024d 00000000 		.4byte	0
 3203 0251 00000000 		.4byte	0
 3204              	.LLST16:
 3205 0255 00000000 		.4byte	.LVL17
 3206 0259 1B000000 		.4byte	.LVL19-1
 3207 025d 0100     		.2byte	0x1
 3208 025f 50       		.byte	0x50
 3209 0260 1B000000 		.4byte	.LVL19-1
 3210 0264 28000000 		.4byte	.LFE10
 3211 0268 0400     		.2byte	0x4
 3212 026a F3       		.byte	0xf3
 3213 026b 01       		.uleb128 0x1
 3214 026c 50       		.byte	0x50
 3215 026d 9F       		.byte	0x9f
 3216 026e 00000000 		.4byte	0
 3217 0272 00000000 		.4byte	0
 3218              	.LLST17:
 3219 0276 0A000000 		.4byte	.LVL18
 3220 027a 22000000 		.4byte	.LVL20
 3221 027e 0100     		.2byte	0x1
 3222 0280 54       		.byte	0x54
 3223 0281 22000000 		.4byte	.LVL20
 3224 0285 28000000 		.4byte	.LFE10
 3225 0289 0100     		.2byte	0x1
 3226 028b 50       		.byte	0x50
 3227 028c 00000000 		.4byte	0
 3228 0290 00000000 		.4byte	0
 3229              	.LLST18:
 3230 0294 00000000 		.4byte	.LVL21
 3231 0298 0B000000 		.4byte	.LVL22-1
 3232 029c 0100     		.2byte	0x1
 3233 029e 50       		.byte	0x50
 3234 029f 0B000000 		.4byte	.LVL22-1
 3235 02a3 12000000 		.4byte	.LFE11
 3236 02a7 0100     		.2byte	0x1
 3237 02a9 54       		.byte	0x54
 3238 02aa 00000000 		.4byte	0
 3239 02ae 00000000 		.4byte	0
 3240              	.LLST19:
 3241 02b2 00000000 		.4byte	.LVL24
 3242 02b6 08000000 		.4byte	.LVL25
 3243 02ba 0100     		.2byte	0x1
 3244 02bc 50       		.byte	0x50
 3245 02bd 08000000 		.4byte	.LVL25
 3246 02c1 0B000000 		.4byte	.LVL26-1
 3247 02c5 0100     		.2byte	0x1
 3248 02c7 51       		.byte	0x51
 3249 02c8 0B000000 		.4byte	.LVL26-1
ARM GAS  /var/folders/bz/nn5481rn5xq59rb0mbj7x0880000gn/T//ccr8IYTK.s 			page 58


 3250 02cc 10000000 		.4byte	.LFE13
 3251 02d0 0400     		.2byte	0x4
 3252 02d2 F3       		.byte	0xf3
 3253 02d3 01       		.uleb128 0x1
 3254 02d4 50       		.byte	0x50
 3255 02d5 9F       		.byte	0x9f
 3256 02d6 00000000 		.4byte	0
 3257 02da 00000000 		.4byte	0
 3258              	.LLST20:
 3259 02de 00000000 		.4byte	.LVL27
 3260 02e2 08000000 		.4byte	.LVL28
 3261 02e6 0100     		.2byte	0x1
 3262 02e8 50       		.byte	0x50
 3263 02e9 08000000 		.4byte	.LVL28
 3264 02ed 0A000000 		.4byte	.LVL29
 3265 02f1 0600     		.2byte	0x6
 3266 02f3 70       		.byte	0x70
 3267 02f4 00       		.sleb128 0
 3268 02f5 71       		.byte	0x71
 3269 02f6 00       		.sleb128 0
 3270 02f7 1C       		.byte	0x1c
 3271 02f8 9F       		.byte	0x9f
 3272 02f9 0A000000 		.4byte	.LVL29
 3273 02fd 11000000 		.4byte	.LVL30-1
 3274 0301 0100     		.2byte	0x1
 3275 0303 51       		.byte	0x51
 3276 0304 00000000 		.4byte	0
 3277 0308 00000000 		.4byte	0
 3278              	.LLST21:
 3279 030c 00000000 		.4byte	.LVL32
 3280 0310 0E000000 		.4byte	.LVL34
 3281 0314 0100     		.2byte	0x1
 3282 0316 50       		.byte	0x50
 3283 0317 0E000000 		.4byte	.LVL34
 3284 031b 12000000 		.4byte	.LVL35
 3285 031f 0200     		.2byte	0x2
 3286 0321 74       		.byte	0x74
 3287 0322 24       		.sleb128 36
 3288 0323 12000000 		.4byte	.LVL35
 3289 0327 40000000 		.4byte	.LFE17
 3290 032b 0400     		.2byte	0x4
 3291 032d F3       		.byte	0xf3
 3292 032e 01       		.uleb128 0x1
 3293 032f 50       		.byte	0x50
 3294 0330 9F       		.byte	0x9f
 3295 0331 00000000 		.4byte	0
 3296 0335 00000000 		.4byte	0
 3297              	.LLST22:
 3298 0339 06000000 		.4byte	.LVL33
 3299 033d 36000000 		.4byte	.LVL38
 3300 0341 0100     		.2byte	0x1
 3301 0343 54       		.byte	0x54
 3302 0344 00000000 		.4byte	0
 3303 0348 00000000 		.4byte	0
 3304              	.LLST23:
 3305 034c 12000000 		.4byte	.LVL35
 3306 0350 20000000 		.4byte	.LVL37
ARM GAS  /var/folders/bz/nn5481rn5xq59rb0mbj7x0880000gn/T//ccr8IYTK.s 			page 59


 3307 0354 0300     		.2byte	0x3
 3308 0356 74       		.byte	0x74
 3309 0357 28       		.sleb128 40
 3310 0358 9F       		.byte	0x9f
 3311 0359 00000000 		.4byte	0
 3312 035d 00000000 		.4byte	0
 3313              	.LLST24:
 3314 0361 12000000 		.4byte	.LVL35
 3315 0365 19000000 		.4byte	.LVL36-1
 3316 0369 0100     		.2byte	0x1
 3317 036b 50       		.byte	0x50
 3318 036c 00000000 		.4byte	0
 3319 0370 00000000 		.4byte	0
 3320              	.LLST25:
 3321 0374 00000000 		.4byte	.LVL40
 3322 0378 05000000 		.4byte	.LVL41-1
 3323 037c 0100     		.2byte	0x1
 3324 037e 50       		.byte	0x50
 3325 037f 05000000 		.4byte	.LVL41-1
 3326 0383 06000000 		.4byte	.LFE16
 3327 0387 0400     		.2byte	0x4
 3328 0389 F3       		.byte	0xf3
 3329 038a 01       		.uleb128 0x1
 3330 038b 50       		.byte	0x50
 3331 038c 9F       		.byte	0x9f
 3332 038d 00000000 		.4byte	0
 3333 0391 00000000 		.4byte	0
 3334              	.LLST26:
 3335 0395 00000000 		.4byte	.LVL42
 3336 0399 14000000 		.4byte	.LVL44
 3337 039d 0100     		.2byte	0x1
 3338 039f 50       		.byte	0x50
 3339 03a0 14000000 		.4byte	.LVL44
 3340 03a4 2A000000 		.4byte	.LVL48
 3341 03a8 0100     		.2byte	0x1
 3342 03aa 54       		.byte	0x54
 3343 03ab 2A000000 		.4byte	.LVL48
 3344 03af 30000000 		.4byte	.LFE18
 3345 03b3 0400     		.2byte	0x4
 3346 03b5 F3       		.byte	0xf3
 3347 03b6 01       		.uleb128 0x1
 3348 03b7 50       		.byte	0x50
 3349 03b8 9F       		.byte	0x9f
 3350 03b9 00000000 		.4byte	0
 3351 03bd 00000000 		.4byte	0
 3352              	.LLST27:
 3353 03c1 1E000000 		.4byte	.LVL46
 3354 03c5 2A000000 		.4byte	.LVL48
 3355 03c9 0100     		.2byte	0x1
 3356 03cb 55       		.byte	0x55
 3357 03cc 2A000000 		.4byte	.LVL48
 3358 03d0 30000000 		.4byte	.LFE18
 3359 03d4 0100     		.2byte	0x1
 3360 03d6 50       		.byte	0x50
 3361 03d7 00000000 		.4byte	0
 3362 03db 00000000 		.4byte	0
 3363              	.LLST28:
ARM GAS  /var/folders/bz/nn5481rn5xq59rb0mbj7x0880000gn/T//ccr8IYTK.s 			page 60


 3364 03df 12000000 		.4byte	.LVL43
 3365 03e3 14000000 		.4byte	.LVL44
 3366 03e7 0300     		.2byte	0x3
 3367 03e9 70       		.byte	0x70
 3368 03ea 28       		.sleb128 40
 3369 03eb 9F       		.byte	0x9f
 3370 03ec 14000000 		.4byte	.LVL44
 3371 03f0 1C000000 		.4byte	.LVL45
 3372 03f4 0300     		.2byte	0x3
 3373 03f6 74       		.byte	0x74
 3374 03f7 28       		.sleb128 40
 3375 03f8 9F       		.byte	0x9f
 3376 03f9 00000000 		.4byte	0
 3377 03fd 00000000 		.4byte	0
 3378              	.LLST29:
 3379 0401 12000000 		.4byte	.LVL43
 3380 0405 1B000000 		.4byte	.LVL45-1
 3381 0409 0100     		.2byte	0x1
 3382 040b 53       		.byte	0x53
 3383 040c 00000000 		.4byte	0
 3384 0410 00000000 		.4byte	0
 3385              		.section	.debug_aranges,"",%progbits
 3386 0000 74000000 		.4byte	0x74
 3387 0004 0200     		.2byte	0x2
 3388 0006 00000000 		.4byte	.Ldebug_info0
 3389 000a 04       		.byte	0x4
 3390 000b 00       		.byte	0
 3391 000c 0000     		.2byte	0
 3392 000e 0000     		.2byte	0
 3393 0010 00000000 		.4byte	.LFB7
 3394 0014 50000000 		.4byte	.LFE7-.LFB7
 3395 0018 00000000 		.4byte	.LFB8
 3396 001c 70000000 		.4byte	.LFE8-.LFB8
 3397 0020 00000000 		.4byte	.LFB9
 3398 0024 7C000000 		.4byte	.LFE9-.LFB9
 3399 0028 00000000 		.4byte	.LFB10
 3400 002c 28000000 		.4byte	.LFE10-.LFB10
 3401 0030 00000000 		.4byte	.LFB11
 3402 0034 12000000 		.4byte	.LFE11-.LFB11
 3403 0038 00000000 		.4byte	.LFB12
 3404 003c 0E000000 		.4byte	.LFE12-.LFB12
 3405 0040 00000000 		.4byte	.LFB13
 3406 0044 10000000 		.4byte	.LFE13-.LFB13
 3407 0048 00000000 		.4byte	.LFB14
 3408 004c 1C000000 		.4byte	.LFE14-.LFB14
 3409 0050 00000000 		.4byte	.LFB15
 3410 0054 20000000 		.4byte	.LFE15-.LFB15
 3411 0058 00000000 		.4byte	.LFB17
 3412 005c 40000000 		.4byte	.LFE17-.LFB17
 3413 0060 00000000 		.4byte	.LFB16
 3414 0064 06000000 		.4byte	.LFE16-.LFB16
 3415 0068 00000000 		.4byte	.LFB18
 3416 006c 30000000 		.4byte	.LFE18-.LFB18
 3417 0070 00000000 		.4byte	0
 3418 0074 00000000 		.4byte	0
 3419              		.section	.debug_ranges,"",%progbits
 3420              	.Ldebug_ranges0:
ARM GAS  /var/folders/bz/nn5481rn5xq59rb0mbj7x0880000gn/T//ccr8IYTK.s 			page 61


 3421 0000 06000000 		.4byte	.LBB12
 3422 0004 08000000 		.4byte	.LBE12
 3423 0008 0C000000 		.4byte	.LBB19
 3424 000c 10000000 		.4byte	.LBE19
 3425 0010 14000000 		.4byte	.LBB20
 3426 0014 16000000 		.4byte	.LBE20
 3427 0018 18000000 		.4byte	.LBB21
 3428 001c 1C000000 		.4byte	.LBE21
 3429 0020 1E000000 		.4byte	.LBB22
 3430 0024 2E000000 		.4byte	.LBE22
 3431 0028 34000000 		.4byte	.LBB23
 3432 002c 62000000 		.4byte	.LBE23
 3433 0030 00000000 		.4byte	0
 3434 0034 00000000 		.4byte	0
 3435 0038 08000000 		.4byte	.LBB24
 3436 003c 56000000 		.4byte	.LBE24
 3437 0040 58000000 		.4byte	.LBB41
 3438 0044 66000000 		.4byte	.LBE41
 3439 0048 00000000 		.4byte	0
 3440 004c 00000000 		.4byte	0
 3441 0050 08000000 		.4byte	.LBB26
 3442 0054 0A000000 		.4byte	.LBE26
 3443 0058 0E000000 		.4byte	.LBB34
 3444 005c 10000000 		.4byte	.LBE34
 3445 0060 16000000 		.4byte	.LBB35
 3446 0064 18000000 		.4byte	.LBE35
 3447 0068 1A000000 		.4byte	.LBB36
 3448 006c 26000000 		.4byte	.LBE36
 3449 0070 2A000000 		.4byte	.LBB37
 3450 0074 32000000 		.4byte	.LBE37
 3451 0078 36000000 		.4byte	.LBB38
 3452 007c 56000000 		.4byte	.LBE38
 3453 0080 58000000 		.4byte	.LBB39
 3454 0084 66000000 		.4byte	.LBE39
 3455 0088 00000000 		.4byte	0
 3456 008c 00000000 		.4byte	0
 3457 0090 0E000000 		.4byte	.LBB44
 3458 0094 10000000 		.4byte	.LBE44
 3459 0098 14000000 		.4byte	.LBB47
 3460 009c 18000000 		.4byte	.LBE47
 3461 00a0 00000000 		.4byte	0
 3462 00a4 00000000 		.4byte	0
 3463 00a8 00000000 		.4byte	.LFB7
 3464 00ac 50000000 		.4byte	.LFE7
 3465 00b0 00000000 		.4byte	.LFB8
 3466 00b4 70000000 		.4byte	.LFE8
 3467 00b8 00000000 		.4byte	.LFB9
 3468 00bc 7C000000 		.4byte	.LFE9
 3469 00c0 00000000 		.4byte	.LFB10
 3470 00c4 28000000 		.4byte	.LFE10
 3471 00c8 00000000 		.4byte	.LFB11
 3472 00cc 12000000 		.4byte	.LFE11
 3473 00d0 00000000 		.4byte	.LFB12
 3474 00d4 0E000000 		.4byte	.LFE12
 3475 00d8 00000000 		.4byte	.LFB13
 3476 00dc 10000000 		.4byte	.LFE13
 3477 00e0 00000000 		.4byte	.LFB14
ARM GAS  /var/folders/bz/nn5481rn5xq59rb0mbj7x0880000gn/T//ccr8IYTK.s 			page 62


 3478 00e4 1C000000 		.4byte	.LFE14
 3479 00e8 00000000 		.4byte	.LFB15
 3480 00ec 20000000 		.4byte	.LFE15
 3481 00f0 00000000 		.4byte	.LFB17
 3482 00f4 40000000 		.4byte	.LFE17
 3483 00f8 00000000 		.4byte	.LFB16
 3484 00fc 06000000 		.4byte	.LFE16
 3485 0100 00000000 		.4byte	.LFB18
 3486 0104 30000000 		.4byte	.LFE18
 3487 0108 00000000 		.4byte	0
 3488 010c 00000000 		.4byte	0
 3489              		.section	.debug_line,"",%progbits
 3490              	.Ldebug_line0:
 3491 0000 37040000 		.section	.debug_str,"MS",%progbits,1
 3491      02002502 
 3491      00000201 
 3491      FB0E0D00 
 3491      01010101 
 3492              	.LASF76:
 3493 0000 7466756E 		.ascii	"tfunc_t\000"
 3493      635F7400 
 3494              	.LASF40:
 3495 0008 705F6D73 		.ascii	"p_msg\000"
 3495      6700
 3496              	.LASF2:
 3497 000e 73697A65 		.ascii	"size_t\000"
 3497      5F7400
 3498              	.LASF77:
 3499 0015 7072696F 		.ascii	"prio\000"
 3499      00
 3500              	.LASF71:
 3501 001a 7264796D 		.ascii	"rdymsg\000"
 3501      736700
 3502              	.LASF3:
 3503 0021 5F5F7569 		.ascii	"__uint8_t\000"
 3503      6E74385F 
 3503      7400
 3504              	.LASF94:
 3505 002b 76746C69 		.ascii	"vtlist\000"
 3505      737400
 3506              	.LASF90:
 3507 0032 63685468 		.ascii	"chThdExitS\000"
 3507      64457869 
 3507      745300
 3508              	.LASF12:
 3509 003d 6C6F6E67 		.ascii	"long long unsigned int\000"
 3509      206C6F6E 
 3509      6720756E 
 3509      7369676E 
 3509      65642069 
 3510              	.LASF28:
 3511 0054 705F7072 		.ascii	"p_prio\000"
 3511      696F00
 3512              	.LASF11:
 3513 005b 6C6F6E67 		.ascii	"long long int\000"
 3513      206C6F6E 
 3513      6720696E 
ARM GAS  /var/folders/bz/nn5481rn5xq59rb0mbj7x0880000gn/T//ccr8IYTK.s 			page 63


 3513      7400
 3514              	.LASF1:
 3515 0069 7369676E 		.ascii	"signed char\000"
 3515      65642063 
 3515      68617200 
 3516              	.LASF92:
 3517 0075 63685468 		.ascii	"chThdExit\000"
 3517      64457869 
 3517      7400
 3518              	.LASF44:
 3519 007f 705F6D70 		.ascii	"p_mpool\000"
 3519      6F6F6C00 
 3520              	.LASF68:
 3521 0087 6D5F7175 		.ascii	"m_queue\000"
 3521      65756500 
 3522              	.LASF20:
 3523 008f 74736C69 		.ascii	"tslices_t\000"
 3523      6365735F 
 3523      7400
 3524              	.LASF79:
 3525 0099 63685468 		.ascii	"chThdCreateI\000"
 3525      64437265 
 3525      61746549 
 3525      00
 3526              	.LASF8:
 3527 00a6 6C6F6E67 		.ascii	"long int\000"
 3527      20696E74 
 3527      00
 3528              	.LASF18:
 3529 00af 74737461 		.ascii	"tstate_t\000"
 3529      74655F74 
 3529      00
 3530              	.LASF30:
 3531 00b8 705F6E65 		.ascii	"p_newer\000"
 3531      77657200 
 3532              	.LASF105:
 3533 00c0 6C697374 		.ascii	"list_remove\000"
 3533      5F72656D 
 3533      6F766500 
 3534              	.LASF104:
 3535 00cc 2F557365 		.ascii	"/Users/imac/oroca_bldc_dev/oroca_bldc/\000"
 3535      72732F69 
 3535      6D61632F 
 3535      6F726F63 
 3535      615F626C 
 3536              	.LASF97:
 3537 00f3 63685363 		.ascii	"chSchRescheduleS\000"
 3537      68526573 
 3537      63686564 
 3537      756C6553 
 3537      00
 3538              	.LASF9:
 3539 0104 5F5F7569 		.ascii	"__uint32_t\000"
 3539      6E743332 
 3539      5F7400
 3540              	.LASF47:
 3541 010f 72656761 		.ascii	"regarm_t\000"
ARM GAS  /var/folders/bz/nn5481rn5xq59rb0mbj7x0880000gn/T//ccr8IYTK.s 			page 64


 3541      726D5F74 
 3541      00
 3542              	.LASF54:
 3543 0118 76745F70 		.ascii	"vt_prev\000"
 3543      72657600 
 3544              	.LASF82:
 3545 0120 63685468 		.ascii	"chThdSetPriority\000"
 3545      64536574 
 3545      5072696F 
 3545      72697479 
 3545      00
 3546              	.LASF0:
 3547 0131 756E7369 		.ascii	"unsigned int\000"
 3547      676E6564 
 3547      20696E74 
 3547      00
 3548              	.LASF53:
 3549 013e 76745F6E 		.ascii	"vt_next\000"
 3549      65787400 
 3550              	.LASF83:
 3551 0146 6E657770 		.ascii	"newprio\000"
 3551      72696F00 
 3552              	.LASF10:
 3553 014e 6C6F6E67 		.ascii	"long unsigned int\000"
 3553      20756E73 
 3553      69676E65 
 3553      6420696E 
 3553      7400
 3554              	.LASF51:
 3555 0160 76746675 		.ascii	"vtfunc_t\000"
 3555      6E635F74 
 3555      00
 3556              	.LASF52:
 3557 0169 56697274 		.ascii	"VirtualTimer\000"
 3557      75616C54 
 3557      696D6572 
 3557      00
 3558              	.LASF49:
 3559 0176 636F6E74 		.ascii	"context\000"
 3559      65787400 
 3560              	.LASF80:
 3561 017e 73697A65 		.ascii	"size\000"
 3561      00
 3562              	.LASF6:
 3563 0183 73686F72 		.ascii	"short unsigned int\000"
 3563      7420756E 
 3563      7369676E 
 3563      65642069 
 3563      6E7400
 3564              	.LASF100:
 3565 0196 63685363 		.ascii	"chSchWakeupS\000"
 3565      6857616B 
 3565      65757053 
 3565      00
 3566              	.LASF22:
 3567 01a3 6D73675F 		.ascii	"msg_t\000"
 3567      7400
ARM GAS  /var/folders/bz/nn5481rn5xq59rb0mbj7x0880000gn/T//ccr8IYTK.s 			page 65


 3568              	.LASF63:
 3569 01a9 725F6E65 		.ascii	"r_newer\000"
 3569      77657200 
 3570              	.LASF72:
 3571 01b1 65786974 		.ascii	"exitcode\000"
 3571      636F6465 
 3571      00
 3572              	.LASF17:
 3573 01ba 746D6F64 		.ascii	"tmode_t\000"
 3573      655F7400 
 3574              	.LASF85:
 3575 01c2 63685468 		.ascii	"chThdTerminate\000"
 3575      64546572 
 3575      6D696E61 
 3575      746500
 3576              	.LASF46:
 3577 01d1 54687265 		.ascii	"ThreadsList\000"
 3577      6164734C 
 3577      69737400 
 3578              	.LASF23:
 3579 01dd 6576656E 		.ascii	"eventmask_t\000"
 3579      746D6173 
 3579      6B5F7400 
 3580              	.LASF67:
 3581 01e9 4D757465 		.ascii	"Mutex\000"
 3581      7800
 3582              	.LASF91:
 3583 01ef 6F6C6470 		.ascii	"oldprio\000"
 3583      72696F00 
 3584              	.LASF81:
 3585 01f7 63685468 		.ascii	"chThdCreateStatic\000"
 3585      64437265 
 3585      61746553 
 3585      74617469 
 3585      6300
 3586              	.LASF55:
 3587 0209 76745F74 		.ascii	"vt_time\000"
 3587      696D6500 
 3588              	.LASF50:
 3589 0211 73697A65 		.ascii	"sizetype\000"
 3589      74797065 
 3589      00
 3590              	.LASF56:
 3591 021a 76745F66 		.ascii	"vt_func\000"
 3591      756E6300 
 3592              	.LASF84:
 3593 0222 63685468 		.ascii	"chThdResume\000"
 3593      64526573 
 3593      756D6500 
 3594              	.LASF98:
 3595 022e 63685363 		.ascii	"chSchDoRescheduleBehind\000"
 3595      68446F52 
 3595      65736368 
 3595      6564756C 
 3595      65426568 
 3596              	.LASF31:
 3597 0246 705F6F6C 		.ascii	"p_older\000"
ARM GAS  /var/folders/bz/nn5481rn5xq59rb0mbj7x0880000gn/T//ccr8IYTK.s 			page 66


 3597      64657200 
 3598              	.LASF62:
 3599 024e 725F6374 		.ascii	"r_ctx\000"
 3599      7800
 3600              	.LASF45:
 3601 0254 54687265 		.ascii	"ThreadsQueue\000"
 3601      61647351 
 3601      75657565 
 3601      00
 3602              	.LASF87:
 3603 0261 74696D65 		.ascii	"time\000"
 3603      00
 3604              	.LASF106:
 3605 0266 6C697374 		.ascii	"list_insert\000"
 3605      5F696E73 
 3605      65727400 
 3606              	.LASF65:
 3607 0272 725F6375 		.ascii	"r_current\000"
 3607      7272656E 
 3607      7400
 3608              	.LASF64:
 3609 027c 725F6F6C 		.ascii	"r_older\000"
 3609      64657200 
 3610              	.LASF88:
 3611 0284 63685468 		.ascii	"chThdSleepUntil\000"
 3611      64536C65 
 3611      6570556E 
 3611      74696C00 
 3612              	.LASF19:
 3613 0294 74726566 		.ascii	"trefs_t\000"
 3613      735F7400 
 3614              	.LASF27:
 3615 029c 705F7072 		.ascii	"p_prev\000"
 3615      657600
 3616              	.LASF21:
 3617 02a3 74707269 		.ascii	"tprio_t\000"
 3617      6F5F7400 
 3618              	.LASF16:
 3619 02ab 5F426F6F 		.ascii	"_Bool\000"
 3619      6C00
 3620              	.LASF14:
 3621 02b1 696E7433 		.ascii	"int32_t\000"
 3621      325F7400 
 3622              	.LASF4:
 3623 02b9 756E7369 		.ascii	"unsigned char\000"
 3623      676E6564 
 3623      20636861 
 3623      7200
 3624              	.LASF42:
 3625 02c7 705F6D74 		.ascii	"p_mtxlist\000"
 3625      786C6973 
 3625      7400
 3626              	.LASF5:
 3627 02d1 73686F72 		.ascii	"short int\000"
 3627      7420696E 
 3627      7400
 3628              	.LASF33:
ARM GAS  /var/folders/bz/nn5481rn5xq59rb0mbj7x0880000gn/T//ccr8IYTK.s 			page 67


 3629 02db 705F7374 		.ascii	"p_state\000"
 3629      61746500 
 3630              	.LASF36:
 3631 02e3 705F7072 		.ascii	"p_preempt\000"
 3631      65656D70 
 3631      7400
 3632              	.LASF61:
 3633 02ed 725F7072 		.ascii	"r_prio\000"
 3633      696F00
 3634              	.LASF74:
 3635 02f4 65776D61 		.ascii	"ewmask\000"
 3635      736B00
 3636              	.LASF26:
 3637 02fb 705F6E65 		.ascii	"p_next\000"
 3637      787400
 3638              	.LASF34:
 3639 0302 705F666C 		.ascii	"p_flags\000"
 3639      61677300 
 3640              	.LASF103:
 3641 030a 6C69622F 		.ascii	"lib/ChibiOS_2.6.6/os/kernel/src/chthreads.c\000"
 3641      43686962 
 3641      694F535F 
 3641      322E362E 
 3641      362F6F73 
 3642              	.LASF107:
 3643 0336 63685468 		.ascii	"chThdRelease\000"
 3643      6452656C 
 3643      65617365 
 3643      00
 3644              	.LASF25:
 3645 0343 54687265 		.ascii	"Thread\000"
 3645      616400
 3646              	.LASF101:
 3647 034a 63685363 		.ascii	"chSchGoSleepS\000"
 3647      68476F53 
 3647      6C656570 
 3647      5300
 3648              	.LASF41:
 3649 0358 705F6570 		.ascii	"p_epending\000"
 3649      656E6469 
 3649      6E6700
 3650              	.LASF15:
 3651 0363 75696E74 		.ascii	"uint32_t\000"
 3651      33325F74 
 3651      00
 3652              	.LASF78:
 3653 036c 5F746872 		.ascii	"_thread_init\000"
 3653      6561645F 
 3653      696E6974 
 3653      00
 3654              	.LASF60:
 3655 0379 725F7175 		.ascii	"r_queue\000"
 3655      65756500 
 3656              	.LASF75:
 3657 0381 63686172 		.ascii	"char\000"
 3657      00
 3658              	.LASF99:
ARM GAS  /var/folders/bz/nn5481rn5xq59rb0mbj7x0880000gn/T//ccr8IYTK.s 			page 68


 3659 0386 63685363 		.ascii	"chSchReadyI\000"
 3659      68526561 
 3659      64794900 
 3660              	.LASF70:
 3661 0392 6D5F6E65 		.ascii	"m_next\000"
 3661      787400
 3662              	.LASF24:
 3663 0399 73797374 		.ascii	"systime_t\000"
 3663      696D655F 
 3663      7400
 3664              	.LASF43:
 3665 03a3 705F7265 		.ascii	"p_realprio\000"
 3665      616C7072 
 3665      696F00
 3666              	.LASF7:
 3667 03ae 5F5F696E 		.ascii	"__int32_t\000"
 3667      7433325F 
 3667      7400
 3668              	.LASF102:
 3669 03b8 474E5520 		.ascii	"GNU C 4.9.3 20150529 (release) [ARM/embedded-4_9-br"
 3669      4320342E 
 3669      392E3320 
 3669      32303135 
 3669      30353239 
 3670 03eb 616E6368 		.ascii	"anch revision 224288] -mcpu=cortex-m4 -mfloat-abi=h"
 3670      20726576 
 3670      6973696F 
 3670      6E203232 
 3670      34323838 
 3671 041e 61726420 		.ascii	"ard -mfpu=fpv4-sp-d16 -mno-thumb-interwork -mthumb "
 3671      2D6D6670 
 3671      753D6670 
 3671      76342D73 
 3671      702D6431 
 3672 0451 2D676764 		.ascii	"-ggdb -O2 -std=gnu99 -fomit-frame-pointer -falign-f"
 3672      62202D4F 
 3672      32202D73 
 3672      74643D67 
 3672      6E753939 
 3673 0484 756E6374 		.ascii	"unctions=16 -ffunction-sections -fdata-sections -fn"
 3673      696F6E73 
 3673      3D313620 
 3673      2D666675 
 3673      6E637469 
 3674 04b7 6F2D636F 		.ascii	"o-common -fsingle-precision-constant\000"
 3674      6D6D6F6E 
 3674      202D6673 
 3674      696E676C 
 3674      652D7072 
 3675              	.LASF37:
 3676 04dc 705F7469 		.ascii	"p_time\000"
 3676      6D6500
 3677              	.LASF48:
 3678 04e3 696E7463 		.ascii	"intctx\000"
 3678      747800
 3679              	.LASF39:
 3680 04ea 705F6D73 		.ascii	"p_msgqueue\000"
ARM GAS  /var/folders/bz/nn5481rn5xq59rb0mbj7x0880000gn/T//ccr8IYTK.s 			page 69


 3680      67717565 
 3680      756500
 3681              	.LASF93:
 3682 04f5 63685468 		.ascii	"chThdWait\000"
 3682      64576169 
 3682      7400
 3683              	.LASF57:
 3684 04ff 76745F70 		.ascii	"vt_par\000"
 3684      617200
 3685              	.LASF86:
 3686 0506 63685468 		.ascii	"chThdSleep\000"
 3686      64536C65 
 3686      657000
 3687              	.LASF35:
 3688 0511 705F7265 		.ascii	"p_refs\000"
 3688      667300
 3689              	.LASF66:
 3690 0518 52656164 		.ascii	"ReadyList\000"
 3690      794C6973 
 3690      7400
 3691              	.LASF95:
 3692 0522 726C6973 		.ascii	"rlist\000"
 3692      7400
 3693              	.LASF13:
 3694 0528 75696E74 		.ascii	"uint8_t\000"
 3694      385F7400 
 3695              	.LASF89:
 3696 0530 63685468 		.ascii	"chThdYield\000"
 3696      64596965 
 3696      6C6400
 3697              	.LASF73:
 3698 053b 77746F62 		.ascii	"wtobjp\000"
 3698      6A7000
 3699              	.LASF32:
 3700 0542 705F6E61 		.ascii	"p_name\000"
 3700      6D6500
 3701              	.LASF58:
 3702 0549 76745F73 		.ascii	"vt_systime\000"
 3702      79737469 
 3702      6D6500
 3703              	.LASF96:
 3704 0554 63685363 		.ascii	"chSchGoSleepTimeoutS\000"
 3704      68476F53 
 3704      6C656570 
 3704      54696D65 
 3704      6F757453 
 3705              	.LASF59:
 3706 0569 56544C69 		.ascii	"VTList\000"
 3706      737400
 3707              	.LASF69:
 3708 0570 6D5F6F77 		.ascii	"m_owner\000"
 3708      6E657200 
 3709              	.LASF29:
 3710 0578 705F6374 		.ascii	"p_ctx\000"
 3710      7800
 3711              	.LASF38:
 3712 057e 705F7761 		.ascii	"p_waiting\000"
ARM GAS  /var/folders/bz/nn5481rn5xq59rb0mbj7x0880000gn/T//ccr8IYTK.s 			page 70


 3712      6974696E 
 3712      6700
 3713              		.ident	"GCC: (GNU Tools for ARM Embedded Processors) 4.9.3 20150529 (release) [ARM/embedded-4_9-br
ARM GAS  /var/folders/bz/nn5481rn5xq59rb0mbj7x0880000gn/T//ccr8IYTK.s 			page 71


DEFINED SYMBOLS
                            *ABS*:0000000000000000 chthreads.c
/var/folders/bz/nn5481rn5xq59rb0mbj7x0880000gn/T//ccr8IYTK.s:21     .text._thread_init:0000000000000000 $t
/var/folders/bz/nn5481rn5xq59rb0mbj7x0880000gn/T//ccr8IYTK.s:27     .text._thread_init:0000000000000000 _thread_init
/var/folders/bz/nn5481rn5xq59rb0mbj7x0880000gn/T//ccr8IYTK.s:96     .text._thread_init:000000000000004c $d
/var/folders/bz/nn5481rn5xq59rb0mbj7x0880000gn/T//ccr8IYTK.s:101    .text.chThdCreateI:0000000000000000 $t
/var/folders/bz/nn5481rn5xq59rb0mbj7x0880000gn/T//ccr8IYTK.s:107    .text.chThdCreateI:0000000000000000 chThdCreateI
/var/folders/bz/nn5481rn5xq59rb0mbj7x0880000gn/T//ccr8IYTK.s:222    .text.chThdCreateI:0000000000000068 $d
/var/folders/bz/nn5481rn5xq59rb0mbj7x0880000gn/T//ccr8IYTK.s:228    .text.chThdCreateStatic:0000000000000000 $t
/var/folders/bz/nn5481rn5xq59rb0mbj7x0880000gn/T//ccr8IYTK.s:234    .text.chThdCreateStatic:0000000000000000 chThdCreateStatic
/var/folders/bz/nn5481rn5xq59rb0mbj7x0880000gn/T//ccr8IYTK.s:380    .text.chThdCreateStatic:0000000000000074 $d
/var/folders/bz/nn5481rn5xq59rb0mbj7x0880000gn/T//ccr8IYTK.s:386    .text.chThdSetPriority:0000000000000000 $t
/var/folders/bz/nn5481rn5xq59rb0mbj7x0880000gn/T//ccr8IYTK.s:392    .text.chThdSetPriority:0000000000000000 chThdSetPriority
/var/folders/bz/nn5481rn5xq59rb0mbj7x0880000gn/T//ccr8IYTK.s:441    .text.chThdSetPriority:0000000000000024 $d
/var/folders/bz/nn5481rn5xq59rb0mbj7x0880000gn/T//ccr8IYTK.s:446    .text.chThdResume:0000000000000000 $t
/var/folders/bz/nn5481rn5xq59rb0mbj7x0880000gn/T//ccr8IYTK.s:452    .text.chThdResume:0000000000000000 chThdResume
/var/folders/bz/nn5481rn5xq59rb0mbj7x0880000gn/T//ccr8IYTK.s:486    .text.chThdTerminate:0000000000000000 $t
/var/folders/bz/nn5481rn5xq59rb0mbj7x0880000gn/T//ccr8IYTK.s:492    .text.chThdTerminate:0000000000000000 chThdTerminate
/var/folders/bz/nn5481rn5xq59rb0mbj7x0880000gn/T//ccr8IYTK.s:519    .text.chThdSleep:0000000000000000 $t
/var/folders/bz/nn5481rn5xq59rb0mbj7x0880000gn/T//ccr8IYTK.s:525    .text.chThdSleep:0000000000000000 chThdSleep
/var/folders/bz/nn5481rn5xq59rb0mbj7x0880000gn/T//ccr8IYTK.s:558    .text.chThdSleepUntil:0000000000000000 $t
/var/folders/bz/nn5481rn5xq59rb0mbj7x0880000gn/T//ccr8IYTK.s:564    .text.chThdSleepUntil:0000000000000000 chThdSleepUntil
/var/folders/bz/nn5481rn5xq59rb0mbj7x0880000gn/T//ccr8IYTK.s:601    .text.chThdSleepUntil:0000000000000018 $d
/var/folders/bz/nn5481rn5xq59rb0mbj7x0880000gn/T//ccr8IYTK.s:606    .text.chThdYield:0000000000000000 $t
/var/folders/bz/nn5481rn5xq59rb0mbj7x0880000gn/T//ccr8IYTK.s:612    .text.chThdYield:0000000000000000 chThdYield
/var/folders/bz/nn5481rn5xq59rb0mbj7x0880000gn/T//ccr8IYTK.s:648    .text.chThdYield:000000000000001c $d
/var/folders/bz/nn5481rn5xq59rb0mbj7x0880000gn/T//ccr8IYTK.s:653    .text.chThdExitS:0000000000000000 $t
/var/folders/bz/nn5481rn5xq59rb0mbj7x0880000gn/T//ccr8IYTK.s:659    .text.chThdExitS:0000000000000000 chThdExitS
/var/folders/bz/nn5481rn5xq59rb0mbj7x0880000gn/T//ccr8IYTK.s:731    .text.chThdExitS:000000000000003c $d
/var/folders/bz/nn5481rn5xq59rb0mbj7x0880000gn/T//ccr8IYTK.s:736    .text.chThdExit:0000000000000000 $t
/var/folders/bz/nn5481rn5xq59rb0mbj7x0880000gn/T//ccr8IYTK.s:742    .text.chThdExit:0000000000000000 chThdExit
/var/folders/bz/nn5481rn5xq59rb0mbj7x0880000gn/T//ccr8IYTK.s:762    .text.chThdWait:0000000000000000 $t
/var/folders/bz/nn5481rn5xq59rb0mbj7x0880000gn/T//ccr8IYTK.s:768    .text.chThdWait:0000000000000000 chThdWait
/var/folders/bz/nn5481rn5xq59rb0mbj7x0880000gn/T//ccr8IYTK.s:837    .text.chThdWait:000000000000002c $d
                     .debug_frame:0000000000000010 $d

UNDEFINED SYMBOLS
rlist
_port_thread_start
chSchWakeupS
chSchRescheduleS
chSchGoSleepTimeoutS
vtlist
chSchDoRescheduleBehind
chSchReadyI
chSchGoSleepS
chThdRelease
