ARM GAS  /var/folders/bz/nn5481rn5xq59rb0mbj7x0880000gn/T//ccr8IYTK.s 			page 1


   1              		.syntax unified
   2              		.cpu cortex-m4
   3              		.eabi_attribute 27, 1
   4              		.eabi_attribute 28, 1
   5              		.fpu fpv4-sp-d16
   6              		.eabi_attribute 20, 1
   7              		.eabi_attribute 21, 1
   8              		.eabi_attribute 23, 3
   9              		.eabi_attribute 24, 1
  10              		.eabi_attribute 25, 1
  11              		.eabi_attribute 26, 1
  12              		.eabi_attribute 30, 2
  13              		.eabi_attribute 34, 1
  14              		.eabi_attribute 18, 4
  15              		.thumb
  16              		.file	"chthreads.c"
  17              		.text
  18              	.Ltext0:
  19              		.cfi_sections	.debug_frame
  20              		.section	.text._thread_init,"ax",%progbits
  21              		.align	2
  22              		.p2align 4,,15
  23              		.global	_thread_init
  24              		.thumb
  25              		.thumb_func
  26              		.type	_thread_init, %function
  27              	_thread_init:
  28              	.LFB7:
  29              		.file 1 "lib/ChibiOS_2.6.6/os/kernel/src/chthreads.c"
  30              		.loc 1 76 0
  31              		.cfi_startproc
  32              		@ args = 0, pretend = 0, frame = 0
  33              		@ frame_needed = 0, uses_anonymous_args = 0
  34              	.LVL0:
  35 0000 2DE9F041 		push	{r4, r5, r6, r7, r8, lr}
  36              		.cfi_def_cfa_offset 24
  37              		.cfi_offset 4, -24
  38              		.cfi_offset 5, -20
  39              		.cfi_offset 6, -16
  40              		.cfi_offset 7, -12
  41              		.cfi_offset 8, -8
  42              		.cfi_offset 14, -4
  43              		.loc 1 99 0
  44 0004 114C     		ldr	r4, .L3
  45              		.loc 1 85 0
  46 0006 0164     		str	r1, [r0, #64]
  47              		.loc 1 99 0
  48 0008 6669     		ldr	r6, [r4, #20]
  49 000a 4661     		str	r6, [r0, #20]
  50              		.loc 1 80 0
  51 000c 0022     		movs	r2, #0
  52              		.loc 1 105 0
  53 000e 00F12C05 		add	r5, r0, #44
  54              		.loc 1 79 0
  55 0012 4FF00208 		mov	r8, #2
  56              		.loc 1 82 0
  57 0016 4FF0040C 		mov	ip, #4
ARM GAS  /var/folders/bz/nn5481rn5xq59rb0mbj7x0880000gn/T//ccr8IYTK.s 			page 2


  58              		.loc 1 95 0
  59 001a 4FF0010E 		mov	lr, #1
  60              		.loc 1 102 0
  61 001e 00F12807 		add	r7, r0, #40
  62              		.loc 1 78 0
  63 0022 8160     		str	r1, [r0, #8]
  64              		.loc 1 99 0
  65 0024 0461     		str	r4, [r0, #16]
  66              		.loc 1 79 0
  67 0026 80F81C80 		strb	r8, [r0, #28]
  68              		.loc 1 99 0
  69 002a 6061     		str	r0, [r4, #20]
  70              		.loc 1 82 0
  71 002c 80F81FC0 		strb	ip, [r0, #31]
  72              		.loc 1 95 0
  73 0030 80F81EE0 		strb	lr, [r0, #30]
  74              		.loc 1 80 0
  75 0034 4277     		strb	r2, [r0, #29]
  76              		.loc 1 86 0
  77 0036 C263     		str	r2, [r0, #60]
  78              		.loc 1 89 0
  79 0038 8263     		str	r2, [r0, #56]
  80              		.loc 1 92 0
  81 003a 0262     		str	r2, [r0, #32]
  82              		.loc 1 98 0
  83 003c 8261     		str	r2, [r0, #24]
  84              		.loc 1 99 0
  85 003e 3061     		str	r0, [r6, #16]
  86              		.loc 1 102 0
  87 0040 8762     		str	r7, [r0, #40]
  88              		.loc 1 105 0
  89 0042 0563     		str	r5, [r0, #48]
  90 0044 C562     		str	r5, [r0, #44]
  91              		.loc 1 114 0
  92 0046 BDE8F081 		pop	{r4, r5, r6, r7, r8, pc}
  93              	.L4:
  94 004a 00BF     		.align	2
  95              	.L3:
  96 004c 00000000 		.word	rlist
  97              		.cfi_endproc
  98              	.LFE7:
  99              		.size	_thread_init, .-_thread_init
 100              		.section	.text.chThdCreateI,"ax",%progbits
 101              		.align	2
 102              		.p2align 4,,15
 103              		.global	chThdCreateI
 104              		.thumb
 105              		.thumb_func
 106              		.type	chThdCreateI, %function
 107              	chThdCreateI:
 108              	.LFB8:
 109              		.loc 1 158 0
 110              		.cfi_startproc
 111              		@ args = 4, pretend = 0, frame = 0
 112              		@ frame_needed = 0, uses_anonymous_args = 0
 113              	.LVL1:
 114 0000 2DE9F04F 		push	{r4, r5, r6, r7, r8, r9, r10, fp, lr}
ARM GAS  /var/folders/bz/nn5481rn5xq59rb0mbj7x0880000gn/T//ccr8IYTK.s 			page 3


 115              		.cfi_def_cfa_offset 36
 116              		.cfi_offset 4, -36
 117              		.cfi_offset 5, -32
 118              		.cfi_offset 6, -28
 119              		.cfi_offset 7, -24
 120              		.cfi_offset 8, -20
 121              		.cfi_offset 9, -16
 122              		.cfi_offset 10, -12
 123              		.cfi_offset 11, -8
 124              		.cfi_offset 14, -4
 125              		.loc 1 167 0
 126 0004 6439     		subs	r1, r1, #100
 127              	.LVL2:
 128              	.LBB12:
 129              	.LBB13:
 130              		.loc 1 99 0
 131 0006 184F     		ldr	r7, .L7
 132              	.LBE13:
 133              	.LBE12:
 134              		.loc 1 167 0
 135 0008 DFF86090 		ldr	r9, .L7+4
 136              	.LBB19:
 137              	.LBB14:
 138              		.loc 1 99 0
 139 000c D7F814E0 		ldr	lr, [r7, #20]
 140              	.LBE14:
 141              	.LBE19:
 142              		.loc 1 167 0
 143 0010 099E     		ldr	r6, [sp, #36]
 144 0012 0144     		add	r1, r1, r0
 145              	.LVL3:
 146              	.LBB20:
 147              	.LBB15:
 148              		.loc 1 80 0
 149 0014 0025     		movs	r5, #0
 150              	.LBE15:
 151              	.LBE20:
 152              		.loc 1 167 0
 153 0016 C160     		str	r1, [r0, #12]
 154              	.LBB21:
 155              	.LBB16:
 156              		.loc 1 79 0
 157 0018 4FF0020B 		mov	fp, #2
 158              	.LBE16:
 159              	.LBE21:
 160              		.loc 1 167 0
 161 001c 0B64     		str	r3, [r1, #64]
 162              	.LBB22:
 163              	.LBB17:
 164              		.loc 1 82 0
 165 001e 4FF0040A 		mov	r10, #4
 166              		.loc 1 105 0
 167 0022 00F12C03 		add	r3, r0, #44
 168              	.LVL4:
 169              		.loc 1 95 0
 170 0026 4FF00108 		mov	r8, #1
 171              		.loc 1 102 0
ARM GAS  /var/folders/bz/nn5481rn5xq59rb0mbj7x0880000gn/T//ccr8IYTK.s 			page 4


 172 002a 00F1280C 		add	ip, r0, #40
 173              	.LBE17:
 174              	.LBE22:
 175              		.loc 1 167 0
 176 002e 4E64     		str	r6, [r1, #68]
 177 0030 C1F86090 		str	r9, [r1, #96]
 178              	.LVL5:
 179              	.LBB23:
 180              	.LBB18:
 181              		.loc 1 78 0
 182 0034 8260     		str	r2, [r0, #8]
 183              		.loc 1 99 0
 184 0036 0761     		str	r7, [r0, #16]
 185 0038 C0F814E0 		str	lr, [r0, #20]
 186              		.loc 1 85 0
 187 003c 0264     		str	r2, [r0, #64]
 188              		.loc 1 79 0
 189 003e 80F81CB0 		strb	fp, [r0, #28]
 190              	.LVL6:
 191              		.loc 1 82 0
 192 0042 80F81FA0 		strb	r10, [r0, #31]
 193              		.loc 1 95 0
 194 0046 80F81E80 		strb	r8, [r0, #30]
 195              		.loc 1 80 0
 196 004a 4577     		strb	r5, [r0, #29]
 197              		.loc 1 99 0
 198 004c 7861     		str	r0, [r7, #20]
 199              		.loc 1 86 0
 200 004e C563     		str	r5, [r0, #60]
 201              		.loc 1 89 0
 202 0050 8563     		str	r5, [r0, #56]
 203              		.loc 1 92 0
 204 0052 0562     		str	r5, [r0, #32]
 205              		.loc 1 98 0
 206 0054 8561     		str	r5, [r0, #24]
 207              		.loc 1 99 0
 208 0056 CEF81000 		str	r0, [lr, #16]
 209              		.loc 1 102 0
 210 005a C0F828C0 		str	ip, [r0, #40]
 211              		.loc 1 105 0
 212 005e 0363     		str	r3, [r0, #48]
 213 0060 C362     		str	r3, [r0, #44]
 214              	.LBE18:
 215              	.LBE23:
 216              		.loc 1 169 0
 217 0062 BDE8F08F 		pop	{r4, r5, r6, r7, r8, r9, r10, fp, pc}
 218              	.LVL7:
 219              	.L8:
 220 0066 00BF     		.align	2
 221              	.L7:
 222 0068 00000000 		.word	rlist
 223 006c 00000000 		.word	_port_thread_start
 224              		.cfi_endproc
 225              	.LFE8:
 226              		.size	chThdCreateI, .-chThdCreateI
 227              		.section	.text.chThdCreateStatic,"ax",%progbits
 228              		.align	2
ARM GAS  /var/folders/bz/nn5481rn5xq59rb0mbj7x0880000gn/T//ccr8IYTK.s 			page 5


 229              		.p2align 4,,15
 230              		.global	chThdCreateStatic
 231              		.thumb
 232              		.thumb_func
 233              		.type	chThdCreateStatic, %function
 234              	chThdCreateStatic:
 235              	.LFB9:
 236              		.loc 1 188 0
 237              		.cfi_startproc
 238              		@ args = 4, pretend = 0, frame = 0
 239              		@ frame_needed = 0, uses_anonymous_args = 0
 240              	.LVL8:
 241 0000 2DE9F84F 		push	{r3, r4, r5, r6, r7, r8, r9, r10, fp, lr}
 242              		.cfi_def_cfa_offset 40
 243              		.cfi_offset 3, -40
 244              		.cfi_offset 4, -36
 245              		.cfi_offset 5, -32
 246              		.cfi_offset 6, -28
 247              		.cfi_offset 7, -24
 248              		.cfi_offset 8, -20
 249              		.cfi_offset 9, -16
 250              		.cfi_offset 10, -12
 251              		.cfi_offset 11, -8
 252              		.cfi_offset 14, -4
 253              		.loc 1 188 0
 254 0004 0446     		mov	r4, r0
 255              		.loc 1 199 0
 256              	@ 199 "lib/ChibiOS_2.6.6/os/kernel/src/chthreads.c" 1
 257 0006 72B6     		cpsid   i
 258              	@ 0 "" 2
 259              	.LVL9:
 260              		.thumb
 261              	.LBB24:
 262              	.LBB25:
 263              	.LBB26:
 264              	.LBB27:
 265              		.loc 1 99 0
 266 0008 1A4E     		ldr	r6, .L11
 267              	.LBE27:
 268              	.LBE26:
 269              		.loc 1 167 0
 270 000a DFF86CA0 		ldr	r10, .L11+4
 271              	.LBB34:
 272              	.LBB28:
 273              		.loc 1 99 0
 274 000e 7769     		ldr	r7, [r6, #20]
 275              	.LBE28:
 276              	.LBE34:
 277              		.loc 1 167 0
 278 0010 6439     		subs	r1, r1, #100
 279              	.LVL10:
 280 0012 0144     		add	r1, r1, r0
 281              	.LVL11:
 282 0014 C160     		str	r1, [r0, #12]
 283              	.LBB35:
 284              	.LBB29:
 285              		.loc 1 80 0
ARM GAS  /var/folders/bz/nn5481rn5xq59rb0mbj7x0880000gn/T//ccr8IYTK.s 			page 6


 286 0016 0025     		movs	r5, #0
 287              	.LBE29:
 288              	.LBE35:
 289              		.loc 1 167 0
 290 0018 0B64     		str	r3, [r1, #64]
 291              	.LBB36:
 292              	.LBB30:
 293              		.loc 1 105 0
 294 001a 00F12C0B 		add	fp, r0, #44
 295              		.loc 1 95 0
 296 001e 4FF0010C 		mov	ip, #1
 297              		.loc 1 102 0
 298 0022 00F1280E 		add	lr, r0, #40
 299              	.LBE30:
 300              	.LBE36:
 301              		.loc 1 167 0
 302 0026 0A9B     		ldr	r3, [sp, #40]
 303              	.LVL12:
 304 0028 4B64     		str	r3, [r1, #68]
 305              	.LBB37:
 306              	.LBB31:
 307              		.loc 1 79 0
 308 002a 4FF00209 		mov	r9, #2
 309              		.loc 1 82 0
 310 002e 4FF00408 		mov	r8, #4
 311              	.LBE31:
 312              	.LBE37:
 313              		.loc 1 167 0
 314 0032 C1F860A0 		str	r10, [r1, #96]
 315              	.LVL13:
 316              	.LBB38:
 317              	.LBB32:
 318              		.loc 1 78 0
 319 0036 8260     		str	r2, [r0, #8]
 320              		.loc 1 99 0
 321 0038 0661     		str	r6, [r0, #16]
 322 003a 4761     		str	r7, [r0, #20]
 323              		.loc 1 85 0
 324 003c 0264     		str	r2, [r0, #64]
 325              		.loc 1 79 0
 326 003e 80F81C90 		strb	r9, [r0, #28]
 327              	.LVL14:
 328              		.loc 1 82 0
 329 0042 80F81F80 		strb	r8, [r0, #31]
 330              		.loc 1 95 0
 331 0046 80F81EC0 		strb	ip, [r0, #30]
 332              		.loc 1 80 0
 333 004a 4577     		strb	r5, [r0, #29]
 334              		.loc 1 99 0
 335 004c 7061     		str	r0, [r6, #20]
 336              		.loc 1 86 0
 337 004e C563     		str	r5, [r0, #60]
 338              		.loc 1 89 0
 339 0050 8563     		str	r5, [r0, #56]
 340              		.loc 1 92 0
 341 0052 0562     		str	r5, [r0, #32]
 342              		.loc 1 98 0
ARM GAS  /var/folders/bz/nn5481rn5xq59rb0mbj7x0880000gn/T//ccr8IYTK.s 			page 7


 343 0054 8561     		str	r5, [r0, #24]
 344              	.LBE32:
 345              	.LBE38:
 346              	.LBE25:
 347              	.LBE24:
 348              		.loc 1 200 0
 349 0056 2946     		mov	r1, r5
 350              	.LBB41:
 351              	.LBB40:
 352              	.LBB39:
 353              	.LBB33:
 354              		.loc 1 99 0
 355 0058 3861     		str	r0, [r7, #16]
 356              		.loc 1 102 0
 357 005a C0F828E0 		str	lr, [r0, #40]
 358              		.loc 1 105 0
 359 005e C0F830B0 		str	fp, [r0, #48]
 360 0062 C0F82CB0 		str	fp, [r0, #44]
 361              	.LBE33:
 362              	.LBE39:
 363              	.LBE40:
 364              	.LBE41:
 365              		.loc 1 200 0
 366 0066 FFF7FEFF 		bl	chSchWakeupS
 367              	.LVL15:
 368              		.loc 1 201 0
 369              	@ 201 "lib/ChibiOS_2.6.6/os/kernel/src/chthreads.c" 1
 370 006a 62B6     		cpsie   i
 371              	@ 0 "" 2
 372              		.loc 1 203 0
 373              		.thumb
 374 006c 2046     		mov	r0, r4
 375 006e BDE8F88F 		pop	{r3, r4, r5, r6, r7, r8, r9, r10, fp, pc}
 376              	.LVL16:
 377              	.L12:
 378 0072 00BF     		.align	2
 379              	.L11:
 380 0074 00000000 		.word	rlist
 381 0078 00000000 		.word	_port_thread_start
 382              		.cfi_endproc
 383              	.LFE9:
 384              		.size	chThdCreateStatic, .-chThdCreateStatic
 385              		.section	.text.chThdSetPriority,"ax",%progbits
 386              		.align	2
 387              		.p2align 4,,15
 388              		.global	chThdSetPriority
 389              		.thumb
 390              		.thumb_func
 391              		.type	chThdSetPriority, %function
 392              	chThdSetPriority:
 393              	.LFB10:
 394              		.loc 1 217 0
 395              		.cfi_startproc
 396              		@ args = 0, pretend = 0, frame = 0
 397              		@ frame_needed = 0, uses_anonymous_args = 0
 398              	.LVL17:
 399 0000 10B5     		push	{r4, lr}
ARM GAS  /var/folders/bz/nn5481rn5xq59rb0mbj7x0880000gn/T//ccr8IYTK.s 			page 8


 400              		.cfi_def_cfa_offset 8
 401              		.cfi_offset 4, -8
 402              		.cfi_offset 14, -4
 403              		.loc 1 222 0
 404              	@ 222 "lib/ChibiOS_2.6.6/os/kernel/src/chthreads.c" 1
 405 0002 72B6     		cpsid   i
 406              	@ 0 "" 2
 407              		.loc 1 224 0
 408              		.thumb
 409 0004 074B     		ldr	r3, .L18
 410 0006 9B69     		ldr	r3, [r3, #24]
 411 0008 1C6C     		ldr	r4, [r3, #64]
 412              	.LVL18:
 413              		.loc 1 225 0
 414 000a 9968     		ldr	r1, [r3, #8]
 415 000c 8C42     		cmp	r4, r1
 416 000e 01D0     		beq	.L14
 417              		.loc 1 225 0 is_stmt 0 discriminator 1
 418 0010 8142     		cmp	r1, r0
 419 0012 00D2     		bcs	.L15
 420              	.L14:
 421              		.loc 1 226 0 is_stmt 1
 422 0014 9860     		str	r0, [r3, #8]
 423              	.L15:
 424              		.loc 1 227 0
 425 0016 1864     		str	r0, [r3, #64]
 426              		.loc 1 232 0
 427 0018 FFF7FEFF 		bl	chSchRescheduleS
 428              	.LVL19:
 429              		.loc 1 233 0
 430              	@ 233 "lib/ChibiOS_2.6.6/os/kernel/src/chthreads.c" 1
 431 001c 62B6     		cpsie   i
 432              	@ 0 "" 2
 433              		.loc 1 235 0
 434              		.thumb
 435 001e 2046     		mov	r0, r4
 436 0020 10BD     		pop	{r4, pc}
 437              	.LVL20:
 438              	.L19:
 439 0022 00BF     		.align	2
 440              	.L18:
 441 0024 00000000 		.word	rlist
 442              		.cfi_endproc
 443              	.LFE10:
 444              		.size	chThdSetPriority, .-chThdSetPriority
 445              		.section	.text.chThdResume,"ax",%progbits
 446              		.align	2
 447              		.p2align 4,,15
 448              		.global	chThdResume
 449              		.thumb
 450              		.thumb_func
 451              		.type	chThdResume, %function
 452              	chThdResume:
 453              	.LFB11:
 454              		.loc 1 250 0
 455              		.cfi_startproc
 456              		@ args = 0, pretend = 0, frame = 0
ARM GAS  /var/folders/bz/nn5481rn5xq59rb0mbj7x0880000gn/T//ccr8IYTK.s 			page 9


 457              		@ frame_needed = 0, uses_anonymous_args = 0
 458              	.LVL21:
 459 0000 10B5     		push	{r4, lr}
 460              		.cfi_def_cfa_offset 8
 461              		.cfi_offset 4, -8
 462              		.cfi_offset 14, -4
 463              		.loc 1 250 0
 464 0002 0446     		mov	r4, r0
 465              		.loc 1 252 0
 466              	@ 252 "lib/ChibiOS_2.6.6/os/kernel/src/chthreads.c" 1
 467 0004 72B6     		cpsid   i
 468              	@ 0 "" 2
 469              		.loc 1 256 0
 470              		.thumb
 471 0006 0021     		movs	r1, #0
 472 0008 FFF7FEFF 		bl	chSchWakeupS
 473              	.LVL22:
 474              		.loc 1 257 0
 475              	@ 257 "lib/ChibiOS_2.6.6/os/kernel/src/chthreads.c" 1
 476 000c 62B6     		cpsie   i
 477              	@ 0 "" 2
 478              		.loc 1 259 0
 479              		.thumb
 480 000e 2046     		mov	r0, r4
 481 0010 10BD     		pop	{r4, pc}
 482              		.cfi_endproc
 483              	.LFE11:
 484              		.size	chThdResume, .-chThdResume
 485 0012 00BF     		.section	.text.chThdTerminate,"ax",%progbits
 486              		.align	2
 487              		.p2align 4,,15
 488              		.global	chThdTerminate
 489              		.thumb
 490              		.thumb_func
 491              		.type	chThdTerminate, %function
 492              	chThdTerminate:
 493              	.LFB12:
 494              		.loc 1 273 0
 495              		.cfi_startproc
 496              		@ args = 0, pretend = 0, frame = 0
 497              		@ frame_needed = 0, uses_anonymous_args = 0
 498              		@ link register save eliminated.
 499              	.LVL23:
 500              		.loc 1 275 0
 501              	@ 275 "lib/ChibiOS_2.6.6/os/kernel/src/chthreads.c" 1
 502 0000 72B6     		cpsid   i
 503              	@ 0 "" 2
 504              		.loc 1 276 0
 505              		.thumb
 506 0002 437F     		ldrb	r3, [r0, #29]	@ zero_extendqisi2
 507 0004 43F00403 		orr	r3, r3, #4
 508 0008 4377     		strb	r3, [r0, #29]
 509              		.loc 1 277 0
 510              	@ 277 "lib/ChibiOS_2.6.6/os/kernel/src/chthreads.c" 1
 511 000a 62B6     		cpsie   i
 512              	@ 0 "" 2
 513              		.thumb
ARM GAS  /var/folders/bz/nn5481rn5xq59rb0mbj7x0880000gn/T//ccr8IYTK.s 			page 10


 514 000c 7047     		bx	lr
 515              		.cfi_endproc
 516              	.LFE12:
 517              		.size	chThdTerminate, .-chThdTerminate
 518 000e 00BF     		.section	.text.chThdSleep,"ax",%progbits
 519              		.align	2
 520              		.p2align 4,,15
 521              		.global	chThdSleep
 522              		.thumb
 523              		.thumb_func
 524              		.type	chThdSleep, %function
 525              	chThdSleep:
 526              	.LFB13:
 527              		.loc 1 292 0
 528              		.cfi_startproc
 529              		@ args = 0, pretend = 0, frame = 0
 530              		@ frame_needed = 0, uses_anonymous_args = 0
 531              	.LVL24:
 532 0000 08B5     		push	{r3, lr}
 533              		.cfi_def_cfa_offset 8
 534              		.cfi_offset 3, -8
 535              		.cfi_offset 14, -4
 536              		.loc 1 292 0
 537 0002 0146     		mov	r1, r0
 538              		.loc 1 296 0
 539              	@ 296 "lib/ChibiOS_2.6.6/os/kernel/src/chthreads.c" 1
 540 0004 72B6     		cpsid   i
 541              	@ 0 "" 2
 542              		.loc 1 297 0
 543              		.thumb
 544 0006 0620     		movs	r0, #6
 545              	.LVL25:
 546 0008 FFF7FEFF 		bl	chSchGoSleepTimeoutS
 547              	.LVL26:
 548              		.loc 1 298 0
 549              	@ 298 "lib/ChibiOS_2.6.6/os/kernel/src/chthreads.c" 1
 550 000c 62B6     		cpsie   i
 551              	@ 0 "" 2
 552              		.thumb
 553 000e 08BD     		pop	{r3, pc}
 554              		.cfi_endproc
 555              	.LFE13:
 556              		.size	chThdSleep, .-chThdSleep
 557              		.section	.text.chThdSleepUntil,"ax",%progbits
 558              		.align	2
 559              		.p2align 4,,15
 560              		.global	chThdSleepUntil
 561              		.thumb
 562              		.thumb_func
 563              		.type	chThdSleepUntil, %function
 564              	chThdSleepUntil:
 565              	.LFB14:
 566              		.loc 1 309 0
 567              		.cfi_startproc
 568              		@ args = 0, pretend = 0, frame = 0
 569              		@ frame_needed = 0, uses_anonymous_args = 0
 570              	.LVL27:
ARM GAS  /var/folders/bz/nn5481rn5xq59rb0mbj7x0880000gn/T//ccr8IYTK.s 			page 11


 571 0000 08B5     		push	{r3, lr}
 572              		.cfi_def_cfa_offset 8
 573              		.cfi_offset 3, -8
 574              		.cfi_offset 14, -4
 575              		.loc 1 311 0
 576              	@ 311 "lib/ChibiOS_2.6.6/os/kernel/src/chthreads.c" 1
 577 0002 72B6     		cpsid   i
 578              	@ 0 "" 2
 579              		.loc 1 312 0
 580              		.thumb
 581 0004 044B     		ldr	r3, .L31
 582 0006 D968     		ldr	r1, [r3, #12]
 583              	.LVL28:
 584 0008 411A     		subs	r1, r0, r1
 585              	.LVL29:
 586 000a 02D0     		beq	.L26
 587              		.loc 1 313 0
 588 000c 0620     		movs	r0, #6
 589 000e FFF7FEFF 		bl	chSchGoSleepTimeoutS
 590              	.LVL30:
 591              	.L26:
 592              		.loc 1 314 0
 593              	@ 314 "lib/ChibiOS_2.6.6/os/kernel/src/chthreads.c" 1
 594 0012 62B6     		cpsie   i
 595              	@ 0 "" 2
 596              		.thumb
 597 0014 08BD     		pop	{r3, pc}
 598              	.L32:
 599 0016 00BF     		.align	2
 600              	.L31:
 601 0018 00000000 		.word	vtlist
 602              		.cfi_endproc
 603              	.LFE14:
 604              		.size	chThdSleepUntil, .-chThdSleepUntil
 605              		.section	.text.chThdYield,"ax",%progbits
 606              		.align	2
 607              		.p2align 4,,15
 608              		.global	chThdYield
 609              		.thumb
 610              		.thumb_func
 611              		.type	chThdYield, %function
 612              	chThdYield:
 613              	.LFB15:
 614              		.loc 1 324 0
 615              		.cfi_startproc
 616              		@ args = 0, pretend = 0, frame = 0
 617              		@ frame_needed = 0, uses_anonymous_args = 0
 618 0000 08B5     		push	{r3, lr}
 619              		.cfi_def_cfa_offset 8
 620              		.cfi_offset 3, -8
 621              		.cfi_offset 14, -4
 622              		.loc 1 326 0
 623              	@ 326 "lib/ChibiOS_2.6.6/os/kernel/src/chthreads.c" 1
 624 0002 72B6     		cpsid   i
 625              	@ 0 "" 2
 626              		.loc 1 327 0
 627              		.thumb
ARM GAS  /var/folders/bz/nn5481rn5xq59rb0mbj7x0880000gn/T//ccr8IYTK.s 			page 12


 628 0004 054B     		ldr	r3, .L36
 629 0006 1A68     		ldr	r2, [r3]
 630 0008 9B69     		ldr	r3, [r3, #24]
 631 000a 9268     		ldr	r2, [r2, #8]
 632 000c 9B68     		ldr	r3, [r3, #8]
 633 000e 9A42     		cmp	r2, r3
 634 0010 01D3     		bcc	.L34
 635              		.loc 1 327 0 is_stmt 0 discriminator 1
 636 0012 FFF7FEFF 		bl	chSchDoRescheduleBehind
 637              	.LVL31:
 638              	.L34:
 639              		.loc 1 328 0 is_stmt 1
 640              	@ 328 "lib/ChibiOS_2.6.6/os/kernel/src/chthreads.c" 1
 641 0016 62B6     		cpsie   i
 642              	@ 0 "" 2
 643              		.thumb
 644 0018 08BD     		pop	{r3, pc}
 645              	.L37:
 646 001a 00BF     		.align	2
 647              	.L36:
 648 001c 00000000 		.word	rlist
 649              		.cfi_endproc
 650              	.LFE15:
 651              		.size	chThdYield, .-chThdYield
 652              		.section	.text.chThdExitS,"ax",%progbits
 653              		.align	2
 654              		.p2align 4,,15
 655              		.global	chThdExitS
 656              		.thumb
 657              		.thumb_func
 658              		.type	chThdExitS, %function
 659              	chThdExitS:
 660              	.LFB17:
 661              		.loc 1 366 0
 662              		.cfi_startproc
 663              		@ args = 0, pretend = 0, frame = 0
 664              		@ frame_needed = 0, uses_anonymous_args = 0
 665              	.LVL32:
 666 0000 38B5     		push	{r3, r4, r5, lr}
 667              		.cfi_def_cfa_offset 16
 668              		.cfi_offset 3, -16
 669              		.cfi_offset 4, -12
 670              		.cfi_offset 5, -8
 671              		.cfi_offset 14, -4
 672              		.loc 1 367 0
 673 0002 0E4B     		ldr	r3, .L46
 674 0004 9C69     		ldr	r4, [r3, #24]
 675              	.LVL33:
 676              		.loc 1 374 0
 677 0006 2546     		mov	r5, r4
 678              		.loc 1 369 0
 679 0008 6062     		str	r0, [r4, #36]
 680              		.loc 1 374 0
 681 000a 55F8280F 		ldr	r0, [r5, #40]!
 682              	.LVL34:
 683 000e A842     		cmp	r0, r5
 684 0010 06D0     		beq	.L43
ARM GAS  /var/folders/bz/nn5481rn5xq59rb0mbj7x0880000gn/T//ccr8IYTK.s 			page 13


 685              	.LVL35:
 686              	.L42:
 687              	.LBB42:
 688              	.LBB43:
 689              		.file 2 "lib/ChibiOS_2.6.6/os/kernel/include/chinline.h"
 690              		.loc 2 89 0
 691 0012 0368     		ldr	r3, [r0]
 692 0014 A362     		str	r3, [r4, #40]
 693              	.LBE43:
 694              	.LBE42:
 695              		.loc 1 375 0
 696 0016 FFF7FEFF 		bl	chSchReadyI
 697              	.LVL36:
 698              		.loc 1 374 0
 699 001a A06A     		ldr	r0, [r4, #40]
 700 001c A842     		cmp	r0, r5
 701 001e F8D1     		bne	.L42
 702              	.LVL37:
 703              	.L43:
 704              		.loc 1 380 0
 705 0020 637F     		ldrb	r3, [r4, #29]	@ zero_extendqisi2
 706 0022 9B07     		lsls	r3, r3, #30
 707 0024 04D1     		bne	.L41
 708              		.loc 1 381 0
 709 0026 6369     		ldr	r3, [r4, #20]
 710 0028 2269     		ldr	r2, [r4, #16]
 711 002a 1A61     		str	r2, [r3, #16]
 712 002c 2269     		ldr	r2, [r4, #16]
 713 002e 5361     		str	r3, [r2, #20]
 714              	.L41:
 715              		.loc 1 383 0
 716 0030 0E20     		movs	r0, #14
 717              		.loc 1 386 0
 718 0032 BDE83840 		pop	{r3, r4, r5, lr}
 719              		.cfi_restore 14
 720              		.cfi_restore 5
 721              		.cfi_restore 4
 722              		.cfi_restore 3
 723              		.cfi_def_cfa_offset 0
 724              	.LVL38:
 725              		.loc 1 383 0
 726 0036 FFF7FEBF 		b	chSchGoSleepS
 727              	.LVL39:
 728              	.L47:
 729 003a 00BF     		.align	2
 730              	.L46:
 731 003c 00000000 		.word	rlist
 732              		.cfi_endproc
 733              	.LFE17:
 734              		.size	chThdExitS, .-chThdExitS
 735              		.section	.text.chThdExit,"ax",%progbits
 736              		.align	2
 737              		.p2align 4,,15
 738              		.global	chThdExit
 739              		.thumb
 740              		.thumb_func
 741              		.type	chThdExit, %function
ARM GAS  /var/folders/bz/nn5481rn5xq59rb0mbj7x0880000gn/T//ccr8IYTK.s 			page 14


 742              	chThdExit:
 743              	.LFB16:
 744              		.loc 1 345 0
 745              		.cfi_startproc
 746              		@ args = 0, pretend = 0, frame = 0
 747              		@ frame_needed = 0, uses_anonymous_args = 0
 748              		@ link register save eliminated.
 749              	.LVL40:
 750              		.loc 1 347 0
 751              	@ 347 "lib/ChibiOS_2.6.6/os/kernel/src/chthreads.c" 1
 752 0000 72B6     		cpsid   i
 753              	@ 0 "" 2
 754              		.loc 1 348 0
 755              		.thumb
 756 0002 FFF7FEBF 		b	chThdExitS
 757              	.LVL41:
 758              		.cfi_endproc
 759              	.LFE16:
 760              		.size	chThdExit, .-chThdExit
 761 0006 00BF     		.section	.text.chThdWait,"ax",%progbits
 762              		.align	2
 763              		.p2align 4,,15
 764              		.global	chThdWait
 765              		.thumb
 766              		.thumb_func
 767              		.type	chThdWait, %function
 768              	chThdWait:
 769              	.LFB18:
 770              		.loc 1 420 0
 771              		.cfi_startproc
 772              		@ args = 0, pretend = 0, frame = 0
 773              		@ frame_needed = 0, uses_anonymous_args = 0
 774              	.LVL42:
 775 0000 38B5     		push	{r3, r4, r5, lr}
 776              		.cfi_def_cfa_offset 16
 777              		.cfi_offset 3, -16
 778              		.cfi_offset 4, -12
 779              		.cfi_offset 5, -8
 780              		.cfi_offset 14, -4
 781              		.loc 1 420 0
 782 0002 0446     		mov	r4, r0
 783              		.loc 1 425 0
 784              	@ 425 "lib/ChibiOS_2.6.6/os/kernel/src/chthreads.c" 1
 785 0004 72B6     		cpsid   i
 786              	@ 0 "" 2
 787              		.loc 1 430 0
 788              		.thumb
 789 0006 037F     		ldrb	r3, [r0, #28]	@ zero_extendqisi2
 790 0008 0E2B     		cmp	r3, #14
 791 000a 07D0     		beq	.L50
 792              		.loc 1 431 0
 793 000c 074B     		ldr	r3, .L55
 794              	.LBB44:
 795              	.LBB45:
 796              		.loc 2 82 0
 797 000e 826A     		ldr	r2, [r0, #40]
 798              	.LBE45:
ARM GAS  /var/folders/bz/nn5481rn5xq59rb0mbj7x0880000gn/T//ccr8IYTK.s 			page 15


 799              	.LBE44:
 800              		.loc 1 431 0
 801 0010 9B69     		ldr	r3, [r3, #24]
 802              	.LVL43:
 803              		.loc 1 432 0
 804 0012 0720     		movs	r0, #7
 805              	.LVL44:
 806              	.LBB47:
 807              	.LBB46:
 808              		.loc 2 82 0
 809 0014 1A60     		str	r2, [r3]
 810              		.loc 2 83 0
 811 0016 A362     		str	r3, [r4, #40]
 812              	.LBE46:
 813              	.LBE47:
 814              		.loc 1 432 0
 815 0018 FFF7FEFF 		bl	chSchGoSleepS
 816              	.LVL45:
 817              	.L50:
 818              		.loc 1 434 0
 819 001c 656A     		ldr	r5, [r4, #36]
 820              	.LVL46:
 821              		.loc 1 435 0
 822              	@ 435 "lib/ChibiOS_2.6.6/os/kernel/src/chthreads.c" 1
 823 001e 62B6     		cpsie   i
 824              	@ 0 "" 2
 825              		.loc 1 437 0
 826              		.thumb
 827 0020 2046     		mov	r0, r4
 828 0022 FFF7FEFF 		bl	chThdRelease
 829              	.LVL47:
 830              		.loc 1 440 0
 831 0026 2846     		mov	r0, r5
 832 0028 38BD     		pop	{r3, r4, r5, pc}
 833              	.LVL48:
 834              	.L56:
 835 002a 00BF     		.align	2
 836              	.L55:
 837 002c 00000000 		.word	rlist
 838              		.cfi_endproc
 839              	.LFE18:
 840              		.size	chThdWait, .-chThdWait
 841              		.text
 842              	.Letext0:
 843              		.file 3 "/Users/imac/Downloads/gcc-arm-none-eabi-4_9-2015q2/lib/gcc/arm-none-eabi/4.9.3/include/st
 844              		.file 4 "/Users/imac/Downloads/gcc-arm-none-eabi-4_9-2015q2/arm-none-eabi/include/machine/_default
 845              		.file 5 "/Users/imac/Downloads/gcc-arm-none-eabi-4_9-2015q2/arm-none-eabi/include/sys/_stdint.h"
 846              		.file 6 "lib/ChibiOS_2.6.6/os/ports/GCC/ARMCMx/chtypes.h"
 847              		.file 7 "lib/ChibiOS_2.6.6/os/kernel/include/chlists.h"
 848              		.file 8 "lib/ChibiOS_2.6.6/os/kernel/include/chthreads.h"
 849              		.file 9 "lib/ChibiOS_2.6.6/os/ports/GCC/ARMCMx/chcore_v7m.h"
 850              		.file 10 "lib/ChibiOS_2.6.6/os/kernel/include/chvt.h"
 851              		.file 11 "lib/ChibiOS_2.6.6/os/kernel/include/chschd.h"
 852              		.file 12 "lib/ChibiOS_2.6.6/os/kernel/include/chmtx.h"
 853              		.file 13 "lib/ChibiOS_2.6.6/os/kernel/include/chdynamic.h"