ARM GAS  /var/folders/bz/nn5481rn5xq59rb0mbj7x0880000gn/T//ccWhoaKq.s 			page 1


   1              		.syntax unified
   2              		.cpu cortex-m4
   3              		.eabi_attribute 27, 1
   4              		.eabi_attribute 28, 1
   5              		.fpu fpv4-sp-d16
   6              		.eabi_attribute 20, 1
   7              		.eabi_attribute 21, 1
   8              		.eabi_attribute 23, 3
   9              		.eabi_attribute 24, 1
  10              		.eabi_attribute 25, 1
  11              		.eabi_attribute 26, 1
  12              		.eabi_attribute 30, 2
  13              		.eabi_attribute 34, 1
  14              		.eabi_attribute 18, 4
  15              		.thumb
  16              		.file	"gpt.c"
  17              		.text
  18              	.Ltext0:
  19              		.cfi_sections	.debug_frame
  20              		.section	.text.gptInit,"ax",%progbits
  21              		.align	2
  22              		.p2align 4,,15
  23              		.global	gptInit
  24              		.thumb
  25              		.thumb_func
  26              		.type	gptInit, %function
  27              	gptInit:
  28              	.LFB118:
  29              		.file 1 "lib/ChibiOS_2.6.6/os/hal/src/gpt.c"
  30              		.loc 1 68 0
  31              		.cfi_startproc
  32              		@ args = 0, pretend = 0, frame = 0
  33              		@ frame_needed = 0, uses_anonymous_args = 0
  34              		@ link register save eliminated.
  35              		.loc 1 70 0
  36 0000 FFF7FEBF 		b	gpt_lld_init
  37              	.LVL0:
  38              		.cfi_endproc
  39              	.LFE118:
  40              		.size	gptInit, .-gptInit
  41              		.section	.text.gptObjectInit,"ax",%progbits
  42              		.align	2
  43              		.p2align 4,,15
  44              		.global	gptObjectInit
  45              		.thumb
  46              		.thumb_func
  47              		.type	gptObjectInit, %function
  48              	gptObjectInit:
  49              	.LFB119:
  50              		.loc 1 80 0
  51              		.cfi_startproc
  52              		@ args = 0, pretend = 0, frame = 0
  53              		@ frame_needed = 0, uses_anonymous_args = 0
  54              		@ link register save eliminated.
  55              	.LVL1:
  56              		.loc 1 82 0
  57 0000 0122     		movs	r2, #1
ARM GAS  /var/folders/bz/nn5481rn5xq59rb0mbj7x0880000gn/T//ccWhoaKq.s 			page 2


  58              		.loc 1 83 0
  59 0002 0023     		movs	r3, #0
  60              		.loc 1 82 0
  61 0004 0270     		strb	r2, [r0]
  62              		.loc 1 83 0
  63 0006 4360     		str	r3, [r0, #4]
  64 0008 7047     		bx	lr
  65              		.cfi_endproc
  66              	.LFE119:
  67              		.size	gptObjectInit, .-gptObjectInit
  68 000a 00BF     		.section	.text.gptStart,"ax",%progbits
  69              		.align	2
  70              		.p2align 4,,15
  71              		.global	gptStart
  72              		.thumb
  73              		.thumb_func
  74              		.type	gptStart, %function
  75              	gptStart:
  76              	.LFB120:
  77              		.loc 1 94 0
  78              		.cfi_startproc
  79              		@ args = 0, pretend = 0, frame = 0
  80              		@ frame_needed = 0, uses_anonymous_args = 0
  81              	.LVL2:
  82 0000 10B5     		push	{r4, lr}
  83              		.cfi_def_cfa_offset 8
  84              		.cfi_offset 4, -8
  85              		.cfi_offset 14, -4
  86              		.loc 1 94 0
  87 0002 0446     		mov	r4, r0
  88              		.loc 1 98 0
  89              	@ 98 "lib/ChibiOS_2.6.6/os/hal/src/gpt.c" 1
  90 0004 72B6     		cpsid   i
  91              	@ 0 "" 2
  92              		.loc 1 101 0
  93              		.thumb
  94 0006 4160     		str	r1, [r0, #4]
  95              		.loc 1 102 0
  96 0008 FFF7FEFF 		bl	gpt_lld_start
  97              	.LVL3:
  98              		.loc 1 103 0
  99 000c 0223     		movs	r3, #2
 100 000e 2370     		strb	r3, [r4]
 101              		.loc 1 104 0
 102              	@ 104 "lib/ChibiOS_2.6.6/os/hal/src/gpt.c" 1
 103 0010 62B6     		cpsie   i
 104              	@ 0 "" 2
 105              		.thumb
 106 0012 10BD     		pop	{r4, pc}
 107              		.cfi_endproc
 108              	.LFE120:
 109              		.size	gptStart, .-gptStart
 110              		.section	.text.gptStop,"ax",%progbits
 111              		.align	2
 112              		.p2align 4,,15
 113              		.global	gptStop
 114              		.thumb
ARM GAS  /var/folders/bz/nn5481rn5xq59rb0mbj7x0880000gn/T//ccWhoaKq.s 			page 3


 115              		.thumb_func
 116              		.type	gptStop, %function
 117              	gptStop:
 118              	.LFB121:
 119              		.loc 1 114 0
 120              		.cfi_startproc
 121              		@ args = 0, pretend = 0, frame = 0
 122              		@ frame_needed = 0, uses_anonymous_args = 0
 123              	.LVL4:
 124 0000 10B5     		push	{r4, lr}
 125              		.cfi_def_cfa_offset 8
 126              		.cfi_offset 4, -8
 127              		.cfi_offset 14, -4
 128              		.loc 1 114 0
 129 0002 0446     		mov	r4, r0
 130              		.loc 1 118 0
 131              	@ 118 "lib/ChibiOS_2.6.6/os/hal/src/gpt.c" 1
 132 0004 72B6     		cpsid   i
 133              	@ 0 "" 2
 134              		.loc 1 121 0
 135              		.thumb
 136 0006 FFF7FEFF 		bl	gpt_lld_stop
 137              	.LVL5:
 138              		.loc 1 122 0
 139 000a 0123     		movs	r3, #1
 140 000c 2370     		strb	r3, [r4]
 141              		.loc 1 123 0
 142              	@ 123 "lib/ChibiOS_2.6.6/os/hal/src/gpt.c" 1
 143 000e 62B6     		cpsie   i
 144              	@ 0 "" 2
 145              		.thumb
 146 0010 10BD     		pop	{r4, pc}
 147              		.cfi_endproc
 148              	.LFE121:
 149              		.size	gptStop, .-gptStop
 150 0012 00BF     		.section	.text.gptChangeInterval,"ax",%progbits
 151              		.align	2
 152              		.p2align 4,,15
 153              		.global	gptChangeInterval
 154              		.thumb
 155              		.thumb_func
 156              		.type	gptChangeInterval, %function
 157              	gptChangeInterval:
 158              	.LFB122:
 159              		.loc 1 139 0
 160              		.cfi_startproc
 161              		@ args = 0, pretend = 0, frame = 0
 162              		@ frame_needed = 0, uses_anonymous_args = 0
 163              		@ link register save eliminated.
 164              	.LVL6:
 165              		.loc 1 143 0
 166              	@ 143 "lib/ChibiOS_2.6.6/os/hal/src/gpt.c" 1
 167 0000 72B6     		cpsid   i
 168              	@ 0 "" 2
 169              		.loc 1 146 0
 170              		.thumb
 171 0002 C368     		ldr	r3, [r0, #12]
ARM GAS  /var/folders/bz/nn5481rn5xq59rb0mbj7x0880000gn/T//ccWhoaKq.s 			page 4


 172 0004 0139     		subs	r1, r1, #1
 173              	.LVL7:
 174 0006 D962     		str	r1, [r3, #44]
 175              		.loc 1 147 0
 176              	@ 147 "lib/ChibiOS_2.6.6/os/hal/src/gpt.c" 1
 177 0008 62B6     		cpsie   i
 178              	@ 0 "" 2
 179              		.thumb
 180 000a 7047     		bx	lr
 181              		.cfi_endproc
 182              	.LFE122:
 183              		.size	gptChangeInterval, .-gptChangeInterval
 184              		.section	.text.gptStartContinuous,"ax",%progbits
 185              		.align	2
 186              		.p2align 4,,15
 187              		.global	gptStartContinuous
 188              		.thumb
 189              		.thumb_func
 190              		.type	gptStartContinuous, %function
 191              	gptStartContinuous:
 192              	.LFB123:
 193              		.loc 1 158 0
 194              		.cfi_startproc
 195              		@ args = 0, pretend = 0, frame = 0
 196              		@ frame_needed = 0, uses_anonymous_args = 0
 197              	.LVL8:
 198 0000 08B5     		push	{r3, lr}
 199              		.cfi_def_cfa_offset 8
 200              		.cfi_offset 3, -8
 201              		.cfi_offset 14, -4
 202              		.loc 1 160 0
 203              	@ 160 "lib/ChibiOS_2.6.6/os/hal/src/gpt.c" 1
 204 0002 72B6     		cpsid   i
 205              	@ 0 "" 2
 206              	.LVL9:
 207              		.thumb
 208              	.LBB8:
 209              	.LBB9:
 210              		.loc 1 180 0
 211 0004 0322     		movs	r2, #3
 212 0006 0270     		strb	r2, [r0]
 213              		.loc 1 181 0
 214 0008 FFF7FEFF 		bl	gpt_lld_start_timer
 215              	.LVL10:
 216              	.LBE9:
 217              	.LBE8:
 218              		.loc 1 162 0
 219              	@ 162 "lib/ChibiOS_2.6.6/os/hal/src/gpt.c" 1
 220 000c 62B6     		cpsie   i
 221              	@ 0 "" 2
 222              		.thumb
 223 000e 08BD     		pop	{r3, pc}
 224              		.cfi_endproc
 225              	.LFE123:
 226              		.size	gptStartContinuous, .-gptStartContinuous
 227              		.section	.text.gptStartContinuousI,"ax",%progbits
 228              		.align	2
ARM GAS  /var/folders/bz/nn5481rn5xq59rb0mbj7x0880000gn/T//ccWhoaKq.s 			page 5


 229              		.p2align 4,,15
 230              		.global	gptStartContinuousI
 231              		.thumb
 232              		.thumb_func
 233              		.type	gptStartContinuousI, %function
 234              	gptStartContinuousI:
 235              	.LFB124:
 236              		.loc 1 173 0
 237              		.cfi_startproc
 238              		@ args = 0, pretend = 0, frame = 0
 239              		@ frame_needed = 0, uses_anonymous_args = 0
 240              		@ link register save eliminated.
 241              	.LVL11:
 242              		.loc 1 180 0
 243 0000 0323     		movs	r3, #3
 244 0002 0370     		strb	r3, [r0]
 245              		.loc 1 181 0
 246 0004 FFF7FEBF 		b	gpt_lld_start_timer
 247              	.LVL12:
 248              		.cfi_endproc
 249              	.LFE124:
 250              		.size	gptStartContinuousI, .-gptStartContinuousI
 251              		.section	.text.gptStartOneShot,"ax",%progbits
 252              		.align	2
 253              		.p2align 4,,15
 254              		.global	gptStartOneShot
 255              		.thumb
 256              		.thumb_func
 257              		.type	gptStartOneShot, %function
 258              	gptStartOneShot:
 259              	.LFB125:
 260              		.loc 1 192 0
 261              		.cfi_startproc
 262              		@ args = 0, pretend = 0, frame = 0
 263              		@ frame_needed = 0, uses_anonymous_args = 0
 264              	.LVL13:
 265 0000 08B5     		push	{r3, lr}
 266              		.cfi_def_cfa_offset 8
 267              		.cfi_offset 3, -8
 268              		.cfi_offset 14, -4
 269              		.loc 1 194 0
 270              	@ 194 "lib/ChibiOS_2.6.6/os/hal/src/gpt.c" 1
 271 0002 72B6     		cpsid   i
 272              	@ 0 "" 2
 273              	.LVL14:
 274              		.thumb
 275              	.LBB10:
 276              	.LBB11:
 277              		.loc 1 214 0
 278 0004 0422     		movs	r2, #4
 279 0006 0270     		strb	r2, [r0]
 280              		.loc 1 215 0
 281 0008 FFF7FEFF 		bl	gpt_lld_start_timer
 282              	.LVL15:
 283              	.LBE11:
 284              	.LBE10:
 285              		.loc 1 196 0
ARM GAS  /var/folders/bz/nn5481rn5xq59rb0mbj7x0880000gn/T//ccWhoaKq.s 			page 6


 286              	@ 196 "lib/ChibiOS_2.6.6/os/hal/src/gpt.c" 1
 287 000c 62B6     		cpsie   i
 288              	@ 0 "" 2
 289              		.thumb
 290 000e 08BD     		pop	{r3, pc}
 291              		.cfi_endproc
 292              	.LFE125:
 293              		.size	gptStartOneShot, .-gptStartOneShot
 294              		.section	.text.gptStartOneShotI,"ax",%progbits
 295              		.align	2
 296              		.p2align 4,,15
 297              		.global	gptStartOneShotI
 298              		.thumb
 299              		.thumb_func
 300              		.type	gptStartOneShotI, %function
 301              	gptStartOneShotI:
 302              	.LFB126:
 303              		.loc 1 207 0
 304              		.cfi_startproc
 305              		@ args = 0, pretend = 0, frame = 0
 306              		@ frame_needed = 0, uses_anonymous_args = 0
 307              		@ link register save eliminated.
 308              	.LVL16:
 309              		.loc 1 214 0
 310 0000 0423     		movs	r3, #4
 311 0002 0370     		strb	r3, [r0]
 312              		.loc 1 215 0
 313 0004 FFF7FEBF 		b	gpt_lld_start_timer
 314              	.LVL17:
 315              		.cfi_endproc
 316              	.LFE126:
 317              		.size	gptStartOneShotI, .-gptStartOneShotI
 318              		.section	.text.gptStopTimer,"ax",%progbits
 319              		.align	2
 320              		.p2align 4,,15
 321              		.global	gptStopTimer
 322              		.thumb
 323              		.thumb_func
 324              		.type	gptStopTimer, %function
 325              	gptStopTimer:
 326              	.LFB127:
 327              		.loc 1 225 0
 328              		.cfi_startproc
 329              		@ args = 0, pretend = 0, frame = 0
 330              		@ frame_needed = 0, uses_anonymous_args = 0
 331              	.LVL18:
 332 0000 08B5     		push	{r3, lr}
 333              		.cfi_def_cfa_offset 8
 334              		.cfi_offset 3, -8
 335              		.cfi_offset 14, -4
 336              		.loc 1 227 0
 337              	@ 227 "lib/ChibiOS_2.6.6/os/hal/src/gpt.c" 1
 338 0002 72B6     		cpsid   i
 339              	@ 0 "" 2
 340              	.LVL19:
 341              		.thumb
 342              	.LBB12:
ARM GAS  /var/folders/bz/nn5481rn5xq59rb0mbj7x0880000gn/T//ccWhoaKq.s 			page 7


 343              	.LBB13:
 344              		.loc 1 247 0
 345 0004 0222     		movs	r2, #2
 346 0006 0270     		strb	r2, [r0]
 347              		.loc 1 248 0
 348 0008 FFF7FEFF 		bl	gpt_lld_stop_timer
 349              	.LVL20:
 350              	.LBE13:
 351              	.LBE12:
 352              		.loc 1 229 0
 353              	@ 229 "lib/ChibiOS_2.6.6/os/hal/src/gpt.c" 1
 354 000c 62B6     		cpsie   i
 355              	@ 0 "" 2
 356              		.thumb
 357 000e 08BD     		pop	{r3, pc}
 358              		.cfi_endproc
 359              	.LFE127:
 360              		.size	gptStopTimer, .-gptStopTimer
 361              		.section	.text.gptStopTimerI,"ax",%progbits
 362              		.align	2
 363              		.p2align 4,,15
 364              		.global	gptStopTimerI
 365              		.thumb
 366              		.thumb_func
 367              		.type	gptStopTimerI, %function
 368              	gptStopTimerI:
 369              	.LFB128:
 370              		.loc 1 239 0
 371              		.cfi_startproc
 372              		@ args = 0, pretend = 0, frame = 0
 373              		@ frame_needed = 0, uses_anonymous_args = 0
 374              		@ link register save eliminated.
 375              	.LVL21:
 376              		.loc 1 247 0
 377 0000 0223     		movs	r3, #2
 378 0002 0370     		strb	r3, [r0]
 379              		.loc 1 248 0
 380 0004 FFF7FEBF 		b	gpt_lld_stop_timer
 381              	.LVL22:
 382              		.cfi_endproc
 383              	.LFE128:
 384              		.size	gptStopTimerI, .-gptStopTimerI
 385              		.section	.text.gptPolledDelay,"ax",%progbits
 386              		.align	2
 387              		.p2align 4,,15
 388              		.global	gptPolledDelay
 389              		.thumb
 390              		.thumb_func
 391              		.type	gptPolledDelay, %function
 392              	gptPolledDelay:
 393              	.LFB129:
 394              		.loc 1 263 0
 395              		.cfi_startproc
 396              		@ args = 0, pretend = 0, frame = 0
 397              		@ frame_needed = 0, uses_anonymous_args = 0
 398              	.LVL23:
 399 0000 10B5     		push	{r4, lr}
ARM GAS  /var/folders/bz/nn5481rn5xq59rb0mbj7x0880000gn/T//ccWhoaKq.s 			page 8


 400              		.cfi_def_cfa_offset 8
 401              		.cfi_offset 4, -8
 402              		.cfi_offset 14, -4
 403              		.loc 1 268 0
 404 0002 0423     		movs	r3, #4
 405              		.loc 1 263 0
 406 0004 0446     		mov	r4, r0
 407              		.loc 1 268 0
 408 0006 0370     		strb	r3, [r0]
 409              		.loc 1 269 0
 410 0008 FFF7FEFF 		bl	gpt_lld_polled_delay
 411              	.LVL24:
 412              		.loc 1 270 0
 413 000c 0223     		movs	r3, #2
 414 000e 2370     		strb	r3, [r4]
 415 0010 10BD     		pop	{r4, pc}
 416              		.cfi_endproc
 417              	.LFE129:
 418              		.size	gptPolledDelay, .-gptPolledDelay
 419 0012 00BF     		.text
 420              	.Letext0:
 421              		.file 2 "/Users/imac/Downloads/gcc-arm-none-eabi-4_9-2015q2/arm-none-eabi/include/machine/_default
 422              		.file 3 "/Users/imac/Downloads/gcc-arm-none-eabi-4_9-2015q2/arm-none-eabi/include/sys/_stdint.h"
 423              		.file 4 "lib/ChibiOS_2.6.6/os/hal/include/gpt.h"
 424              		.file 5 "lib/ChibiOS_2.6.6/os/hal/platforms/STM32/TIMv1/gpt_lld.h"
 425              		.file 6 "lib/ChibiOS_2.6.6/os/hal/platforms/STM32/TIMv1/stm32_tim.h"
 426              		.file 7 "lib/ChibiOS_2.6.6/os/ports/common/ARMCMx/CMSIS/include/core_cm4.h"