ARM GAS  /var/folders/bz/nn5481rn5xq59rb0mbj7x0880000gn/T//ccHtnMdr.s 			page 1


   1              		.syntax unified
   2              		.cpu cortex-m4
   3              		.eabi_attribute 27, 1
   4              		.eabi_attribute 28, 1
   5              		.fpu fpv4-sp-d16
   6              		.eabi_attribute 20, 1
   7              		.eabi_attribute 21, 1
   8              		.eabi_attribute 23, 3
   9              		.eabi_attribute 24, 1
  10              		.eabi_attribute 25, 1
  11              		.eabi_attribute 26, 1
  12              		.eabi_attribute 30, 2
  13              		.eabi_attribute 34, 1
  14              		.eabi_attribute 18, 4
  15              		.thumb
  16              		.file	"icu.c"
  17              		.text
  18              	.Ltext0:
  19              		.cfi_sections	.debug_frame
  20              		.section	.text.icuInit,"ax",%progbits
  21              		.align	2
  22              		.p2align 4,,15
  23              		.global	icuInit
  24              		.thumb
  25              		.thumb_func
  26              		.type	icuInit, %function
  27              	icuInit:
  28              	.LFB118:
  29              		.file 1 "lib/ChibiOS_2.6.6/os/hal/src/icu.c"
  30              		.loc 1 68 0
  31              		.cfi_startproc
  32              		@ args = 0, pretend = 0, frame = 0
  33              		@ frame_needed = 0, uses_anonymous_args = 0
  34              		@ link register save eliminated.
  35              		.loc 1 70 0
  36 0000 FFF7FEBF 		b	icu_lld_init
  37              	.LVL0:
  38              		.cfi_endproc
  39              	.LFE118:
  40              		.size	icuInit, .-icuInit
  41              		.section	.text.icuObjectInit,"ax",%progbits
  42              		.align	2
  43              		.p2align 4,,15
  44              		.global	icuObjectInit
  45              		.thumb
  46              		.thumb_func
  47              		.type	icuObjectInit, %function
  48              	icuObjectInit:
  49              	.LFB119:
  50              		.loc 1 80 0
  51              		.cfi_startproc
  52              		@ args = 0, pretend = 0, frame = 0
  53              		@ frame_needed = 0, uses_anonymous_args = 0
  54              		@ link register save eliminated.
  55              	.LVL1:
  56              		.loc 1 82 0
  57 0000 0122     		movs	r2, #1
ARM GAS  /var/folders/bz/nn5481rn5xq59rb0mbj7x0880000gn/T//ccHtnMdr.s 			page 2


  58              		.loc 1 83 0
  59 0002 0023     		movs	r3, #0
  60              		.loc 1 82 0
  61 0004 0270     		strb	r2, [r0]
  62              		.loc 1 83 0
  63 0006 4360     		str	r3, [r0, #4]
  64 0008 7047     		bx	lr
  65              		.cfi_endproc
  66              	.LFE119:
  67              		.size	icuObjectInit, .-icuObjectInit
  68 000a 00BF     		.section	.text.icuStart,"ax",%progbits
  69              		.align	2
  70              		.p2align 4,,15
  71              		.global	icuStart
  72              		.thumb
  73              		.thumb_func
  74              		.type	icuStart, %function
  75              	icuStart:
  76              	.LFB120:
  77              		.loc 1 94 0
  78              		.cfi_startproc
  79              		@ args = 0, pretend = 0, frame = 0
  80              		@ frame_needed = 0, uses_anonymous_args = 0
  81              	.LVL2:
  82 0000 10B5     		push	{r4, lr}
  83              		.cfi_def_cfa_offset 8
  84              		.cfi_offset 4, -8
  85              		.cfi_offset 14, -4
  86              		.loc 1 94 0
  87 0002 0446     		mov	r4, r0
  88              		.loc 1 98 0
  89              	@ 98 "lib/ChibiOS_2.6.6/os/hal/src/icu.c" 1
  90 0004 72B6     		cpsid   i
  91              	@ 0 "" 2
  92              		.loc 1 101 0
  93              		.thumb
  94 0006 4160     		str	r1, [r0, #4]
  95              		.loc 1 102 0
  96 0008 FFF7FEFF 		bl	icu_lld_start
  97              	.LVL3:
  98              		.loc 1 103 0
  99 000c 0223     		movs	r3, #2
 100 000e 2370     		strb	r3, [r4]
 101              		.loc 1 104 0
 102              	@ 104 "lib/ChibiOS_2.6.6/os/hal/src/icu.c" 1
 103 0010 62B6     		cpsie   i
 104              	@ 0 "" 2
 105              		.thumb
 106 0012 10BD     		pop	{r4, pc}
 107              		.cfi_endproc
 108              	.LFE120:
 109              		.size	icuStart, .-icuStart
 110              		.section	.text.icuStop,"ax",%progbits
 111              		.align	2
 112              		.p2align 4,,15
 113              		.global	icuStop
 114              		.thumb
ARM GAS  /var/folders/bz/nn5481rn5xq59rb0mbj7x0880000gn/T//ccHtnMdr.s 			page 3


 115              		.thumb_func
 116              		.type	icuStop, %function
 117              	icuStop:
 118              	.LFB121:
 119              		.loc 1 114 0
 120              		.cfi_startproc
 121              		@ args = 0, pretend = 0, frame = 0
 122              		@ frame_needed = 0, uses_anonymous_args = 0
 123              	.LVL4:
 124 0000 10B5     		push	{r4, lr}
 125              		.cfi_def_cfa_offset 8
 126              		.cfi_offset 4, -8
 127              		.cfi_offset 14, -4
 128              		.loc 1 114 0
 129 0002 0446     		mov	r4, r0
 130              		.loc 1 118 0
 131              	@ 118 "lib/ChibiOS_2.6.6/os/hal/src/icu.c" 1
 132 0004 72B6     		cpsid   i
 133              	@ 0 "" 2
 134              		.loc 1 121 0
 135              		.thumb
 136 0006 FFF7FEFF 		bl	icu_lld_stop
 137              	.LVL5:
 138              		.loc 1 122 0
 139 000a 0123     		movs	r3, #1
 140 000c 2370     		strb	r3, [r4]
 141              		.loc 1 123 0
 142              	@ 123 "lib/ChibiOS_2.6.6/os/hal/src/icu.c" 1
 143 000e 62B6     		cpsie   i
 144              	@ 0 "" 2
 145              		.thumb
 146 0010 10BD     		pop	{r4, pc}
 147              		.cfi_endproc
 148              	.LFE121:
 149              		.size	icuStop, .-icuStop
 150 0012 00BF     		.section	.text.icuEnable,"ax",%progbits
 151              		.align	2
 152              		.p2align 4,,15
 153              		.global	icuEnable
 154              		.thumb
 155              		.thumb_func
 156              		.type	icuEnable, %function
 157              	icuEnable:
 158              	.LFB122:
 159              		.loc 1 133 0
 160              		.cfi_startproc
 161              		@ args = 0, pretend = 0, frame = 0
 162              		@ frame_needed = 0, uses_anonymous_args = 0
 163              	.LVL6:
 164 0000 10B5     		push	{r4, lr}
 165              		.cfi_def_cfa_offset 8
 166              		.cfi_offset 4, -8
 167              		.cfi_offset 14, -4
 168              		.loc 1 133 0
 169 0002 0446     		mov	r4, r0
 170              		.loc 1 137 0
 171              	@ 137 "lib/ChibiOS_2.6.6/os/hal/src/icu.c" 1
ARM GAS  /var/folders/bz/nn5481rn5xq59rb0mbj7x0880000gn/T//ccHtnMdr.s 			page 4


 172 0004 72B6     		cpsid   i
 173              	@ 0 "" 2
 174              		.loc 1 139 0
 175              		.thumb
 176 0006 FFF7FEFF 		bl	icu_lld_enable
 177              	.LVL7:
 178              		.loc 1 140 0
 179 000a 0323     		movs	r3, #3
 180 000c 2370     		strb	r3, [r4]
 181              		.loc 1 141 0
 182              	@ 141 "lib/ChibiOS_2.6.6/os/hal/src/icu.c" 1
 183 000e 62B6     		cpsie   i
 184              	@ 0 "" 2
 185              		.thumb
 186 0010 10BD     		pop	{r4, pc}
 187              		.cfi_endproc
 188              	.LFE122:
 189              		.size	icuEnable, .-icuEnable
 190 0012 00BF     		.section	.text.icuDisable,"ax",%progbits
 191              		.align	2
 192              		.p2align 4,,15
 193              		.global	icuDisable
 194              		.thumb
 195              		.thumb_func
 196              		.type	icuDisable, %function
 197              	icuDisable:
 198              	.LFB123:
 199              		.loc 1 151 0
 200              		.cfi_startproc
 201              		@ args = 0, pretend = 0, frame = 0
 202              		@ frame_needed = 0, uses_anonymous_args = 0
 203              	.LVL8:
 204 0000 10B5     		push	{r4, lr}
 205              		.cfi_def_cfa_offset 8
 206              		.cfi_offset 4, -8
 207              		.cfi_offset 14, -4
 208              		.loc 1 151 0
 209 0002 0446     		mov	r4, r0
 210              		.loc 1 155 0
 211              	@ 155 "lib/ChibiOS_2.6.6/os/hal/src/icu.c" 1
 212 0004 72B6     		cpsid   i
 213              	@ 0 "" 2
 214              		.loc 1 159 0
 215              		.thumb
 216 0006 FFF7FEFF 		bl	icu_lld_disable
 217              	.LVL9:
 218              		.loc 1 160 0
 219 000a 0223     		movs	r3, #2
 220 000c 2370     		strb	r3, [r4]
 221              		.loc 1 161 0
 222              	@ 161 "lib/ChibiOS_2.6.6/os/hal/src/icu.c" 1
 223 000e 62B6     		cpsie   i
 224              	@ 0 "" 2
 225              		.thumb
 226 0010 10BD     		pop	{r4, pc}
 227              		.cfi_endproc
 228              	.LFE123:
ARM GAS  /var/folders/bz/nn5481rn5xq59rb0mbj7x0880000gn/T//ccHtnMdr.s 			page 5


 229              		.size	icuDisable, .-icuDisable
 230 0012 00BF     		.text
 231              	.Letext0:
 232              		.file 2 "/Users/imac/Downloads/gcc-arm-none-eabi-4_9-2015q2/arm-none-eabi/include/machine/_default
 233              		.file 3 "/Users/imac/Downloads/gcc-arm-none-eabi-4_9-2015q2/arm-none-eabi/include/sys/_stdint.h"
 234              		.file 4 "lib/ChibiOS_2.6.6/os/hal/platforms/STM32/TIMv1/stm32_tim.h"
 235              		.file 5 "lib/ChibiOS_2.6.6/os/hal/include/icu.h"
 236              		.file 6 "lib/ChibiOS_2.6.6/os/hal/platforms/STM32/TIMv1/icu_lld.h"
 237              		.file 7 "lib/ChibiOS_2.6.6/os/ports/common/ARMCMx/CMSIS/include/core_cm4.h"
 238              		.section	.debug_info,"",%progbits
 239              	.Ldebug_info0:
 240 0000 FE040000 		.4byte	0x4fe
 241 0004 0400     		.2byte	0x4
 242 0006 00000000 		.4byte	.Ldebug_abbrev0
 243 000a 04       		.byte	0x4
 244 000b 01       		.uleb128 0x1
 245 000c 60010000 		.4byte	.LASF66
 246 0010 01       		.byte	0x1
 247 0011 A9000000 		.4byte	.LASF67
 248 0015 9D030000 		.4byte	.LASF68
 249 0019 00000000 		.4byte	.Ldebug_ranges0+0
 250 001d 00000000 		.4byte	0
 251 0021 00000000 		.4byte	.Ldebug_line0
 252 0025 02       		.uleb128 0x2
 253 0026 04       		.byte	0x4
 254 0027 05       		.byte	0x5
 255 0028 696E7400 		.ascii	"int\000"
 256 002c 03       		.uleb128 0x3
 257 002d 04       		.byte	0x4
 258 002e 07       		.byte	0x7
 259 002f D1020000 		.4byte	.LASF0
 260 0033 03       		.uleb128 0x3
 261 0034 01       		.byte	0x1
 262 0035 06       		.byte	0x6
 263 0036 AF020000 		.4byte	.LASF1
 264 003a 03       		.uleb128 0x3
 265 003b 01       		.byte	0x1
 266 003c 08       		.byte	0x8
 267 003d 84020000 		.4byte	.LASF2
 268 0041 03       		.uleb128 0x3
 269 0042 02       		.byte	0x2
 270 0043 05       		.byte	0x5
 271 0044 5B000000 		.4byte	.LASF3
 272 0048 03       		.uleb128 0x3
 273 0049 02       		.byte	0x2
 274 004a 07       		.byte	0x7
 275 004b ED020000 		.4byte	.LASF4
 276 004f 04       		.uleb128 0x4
 277 0050 D0030000 		.4byte	.LASF6
 278 0054 02       		.byte	0x2
 279 0055 3F       		.byte	0x3f
 280 0056 5A000000 		.4byte	0x5a
 281 005a 03       		.uleb128 0x3
 282 005b 04       		.byte	0x4
 283 005c 05       		.byte	0x5
 284 005d 38010000 		.4byte	.LASF5
 285 0061 04       		.uleb128 0x4
ARM GAS  /var/folders/bz/nn5481rn5xq59rb0mbj7x0880000gn/T//ccHtnMdr.s 			page 6


 286 0062 82000000 		.4byte	.LASF7
 287 0066 02       		.byte	0x2
 288 0067 41       		.byte	0x41
 289 0068 6C000000 		.4byte	0x6c
 290 006c 03       		.uleb128 0x3
 291 006d 04       		.byte	0x4
 292 006e 07       		.byte	0x7
 293 006f 85030000 		.4byte	.LASF8
 294 0073 03       		.uleb128 0x3
 295 0074 08       		.byte	0x8
 296 0075 05       		.byte	0x5
 297 0076 04010000 		.4byte	.LASF9
 298 007a 03       		.uleb128 0x3
 299 007b 08       		.byte	0x8
 300 007c 07       		.byte	0x7
 301 007d 12010000 		.4byte	.LASF10
 302 0081 04       		.uleb128 0x4
 303 0082 3E030000 		.4byte	.LASF11
 304 0086 03       		.byte	0x3
 305 0087 1F       		.byte	0x1f
 306 0088 4F000000 		.4byte	0x4f
 307 008c 04       		.uleb128 0x4
 308 008d C8020000 		.4byte	.LASF12
 309 0091 03       		.byte	0x3
 310 0092 20       		.byte	0x20
 311 0093 61000000 		.4byte	0x61
 312 0097 03       		.uleb128 0x3
 313 0098 01       		.byte	0x1
 314 0099 02       		.byte	0x2
 315 009a 46030000 		.4byte	.LASF13
 316 009e 05       		.uleb128 0x5
 317 009f 8C000000 		.4byte	0x8c
 318 00a3 03       		.uleb128 0x3
 319 00a4 04       		.byte	0x4
 320 00a5 07       		.byte	0x7
 321 00a6 6A000000 		.4byte	.LASF14
 322 00aa 03       		.uleb128 0x3
 323 00ab 01       		.byte	0x1
 324 00ac 08       		.byte	0x8
 325 00ad 33010000 		.4byte	.LASF15
 326 00b1 06       		.uleb128 0x6
 327 00b2 8C000000 		.4byte	0x8c
 328 00b6 C1000000 		.4byte	0xc1
 329 00ba 07       		.uleb128 0x7
 330 00bb A3000000 		.4byte	0xa3
 331 00bf 03       		.byte	0x3
 332 00c0 00       		.byte	0
 333 00c1 05       		.uleb128 0x5
 334 00c2 81000000 		.4byte	0x81
 335 00c6 08       		.uleb128 0x8
 336 00c7 04       		.byte	0x4
 337 00c8 9E000000 		.4byte	0x9e
 338 00cc 09       		.uleb128 0x9
 339 00cd 60       		.byte	0x60
 340 00ce 04       		.byte	0x4
 341 00cf 9E01     		.2byte	0x19e
 342 00d1 E5010000 		.4byte	0x1e5
ARM GAS  /var/folders/bz/nn5481rn5xq59rb0mbj7x0880000gn/T//ccHtnMdr.s 			page 7


 343 00d5 0A       		.uleb128 0xa
 344 00d6 43523100 		.ascii	"CR1\000"
 345 00da 04       		.byte	0x4
 346 00db 9F01     		.2byte	0x19f
 347 00dd 9E000000 		.4byte	0x9e
 348 00e1 00       		.byte	0
 349 00e2 0A       		.uleb128 0xa
 350 00e3 43523200 		.ascii	"CR2\000"
 351 00e7 04       		.byte	0x4
 352 00e8 A001     		.2byte	0x1a0
 353 00ea 9E000000 		.4byte	0x9e
 354 00ee 04       		.byte	0x4
 355 00ef 0B       		.uleb128 0xb
 356 00f0 6A030000 		.4byte	.LASF16
 357 00f4 04       		.byte	0x4
 358 00f5 A101     		.2byte	0x1a1
 359 00f7 9E000000 		.4byte	0x9e
 360 00fb 08       		.byte	0x8
 361 00fc 0B       		.uleb128 0xb
 362 00fd DE020000 		.4byte	.LASF17
 363 0101 04       		.byte	0x4
 364 0102 A201     		.2byte	0x1a2
 365 0104 9E000000 		.4byte	0x9e
 366 0108 0C       		.byte	0xc
 367 0109 0A       		.uleb128 0xa
 368 010a 535200   		.ascii	"SR\000"
 369 010d 04       		.byte	0x4
 370 010e A301     		.2byte	0x1a3
 371 0110 9E000000 		.4byte	0x9e
 372 0114 10       		.byte	0x10
 373 0115 0A       		.uleb128 0xa
 374 0116 45475200 		.ascii	"EGR\000"
 375 011a 04       		.byte	0x4
 376 011b A401     		.2byte	0x1a4
 377 011d 9E000000 		.4byte	0x9e
 378 0121 14       		.byte	0x14
 379 0122 0B       		.uleb128 0xb
 380 0123 51010000 		.4byte	.LASF18
 381 0127 04       		.byte	0x4
 382 0128 A501     		.2byte	0x1a5
 383 012a 9E000000 		.4byte	0x9e
 384 012e 18       		.byte	0x18
 385 012f 0B       		.uleb128 0xb
 386 0130 4F000000 		.4byte	.LASF19
 387 0134 04       		.byte	0x4
 388 0135 A601     		.2byte	0x1a6
 389 0137 9E000000 		.4byte	0x9e
 390 013b 1C       		.byte	0x1c
 391 013c 0B       		.uleb128 0xb
 392 013d 15000000 		.4byte	.LASF20
 393 0141 04       		.byte	0x4
 394 0142 A701     		.2byte	0x1a7
 395 0144 9E000000 		.4byte	0x9e
 396 0148 20       		.byte	0x20
 397 0149 0A       		.uleb128 0xa
 398 014a 434E5400 		.ascii	"CNT\000"
 399 014e 04       		.byte	0x4
ARM GAS  /var/folders/bz/nn5481rn5xq59rb0mbj7x0880000gn/T//ccHtnMdr.s 			page 8


 400 014f A801     		.2byte	0x1a8
 401 0151 9E000000 		.4byte	0x9e
 402 0155 24       		.byte	0x24
 403 0156 0A       		.uleb128 0xa
 404 0157 50534300 		.ascii	"PSC\000"
 405 015b 04       		.byte	0x4
 406 015c A901     		.2byte	0x1a9
 407 015e 9E000000 		.4byte	0x9e
 408 0162 28       		.byte	0x28
 409 0163 0A       		.uleb128 0xa
 410 0164 41525200 		.ascii	"ARR\000"
 411 0168 04       		.byte	0x4
 412 0169 AA01     		.2byte	0x1aa
 413 016b 9E000000 		.4byte	0x9e
 414 016f 2C       		.byte	0x2c
 415 0170 0A       		.uleb128 0xa
 416 0171 52435200 		.ascii	"RCR\000"
 417 0175 04       		.byte	0x4
 418 0176 AB01     		.2byte	0x1ab
 419 0178 9E000000 		.4byte	0x9e
 420 017c 30       		.byte	0x30
 421 017d 0A       		.uleb128 0xa
 422 017e 43435200 		.ascii	"CCR\000"
 423 0182 04       		.byte	0x4
 424 0183 AC01     		.2byte	0x1ac
 425 0185 E5010000 		.4byte	0x1e5
 426 0189 34       		.byte	0x34
 427 018a 0B       		.uleb128 0xb
 428 018b 39030000 		.4byte	.LASF21
 429 018f 04       		.byte	0x4
 430 0190 AD01     		.2byte	0x1ad
 431 0192 9E000000 		.4byte	0x9e
 432 0196 44       		.byte	0x44
 433 0197 0A       		.uleb128 0xa
 434 0198 44435200 		.ascii	"DCR\000"
 435 019c 04       		.byte	0x4
 436 019d AE01     		.2byte	0x1ae
 437 019f 9E000000 		.4byte	0x9e
 438 01a3 48       		.byte	0x48
 439 01a4 0B       		.uleb128 0xb
 440 01a5 44000000 		.4byte	.LASF22
 441 01a9 04       		.byte	0x4
 442 01aa AF01     		.2byte	0x1af
 443 01ac 9E000000 		.4byte	0x9e
 444 01b0 4C       		.byte	0x4c
 445 01b1 0A       		.uleb128 0xa
 446 01b2 4F5200   		.ascii	"OR\000"
 447 01b5 04       		.byte	0x4
 448 01b6 B001     		.2byte	0x1b0
 449 01b8 9E000000 		.4byte	0x9e
 450 01bc 50       		.byte	0x50
 451 01bd 0B       		.uleb128 0xb
 452 01be 55000000 		.4byte	.LASF23
 453 01c2 04       		.byte	0x4
 454 01c3 B101     		.2byte	0x1b1
 455 01c5 9E000000 		.4byte	0x9e
 456 01c9 54       		.byte	0x54
ARM GAS  /var/folders/bz/nn5481rn5xq59rb0mbj7x0880000gn/T//ccHtnMdr.s 			page 9


 457 01ca 0B       		.uleb128 0xb
 458 01cb 41010000 		.4byte	.LASF24
 459 01cf 04       		.byte	0x4
 460 01d0 B201     		.2byte	0x1b2
 461 01d2 9E000000 		.4byte	0x9e
 462 01d6 58       		.byte	0x58
 463 01d7 0B       		.uleb128 0xb
 464 01d8 46010000 		.4byte	.LASF25
 465 01dc 04       		.byte	0x4
 466 01dd B301     		.2byte	0x1b3
 467 01df 9E000000 		.4byte	0x9e
 468 01e3 5C       		.byte	0x5c
 469 01e4 00       		.byte	0
 470 01e5 05       		.uleb128 0x5
 471 01e6 B1000000 		.4byte	0xb1
 472 01ea 0C       		.uleb128 0xc
 473 01eb 23030000 		.4byte	.LASF26
 474 01ef 04       		.byte	0x4
 475 01f0 B401     		.2byte	0x1b4
 476 01f2 CC000000 		.4byte	0xcc
 477 01f6 08       		.uleb128 0x8
 478 01f7 04       		.byte	0x4
 479 01f8 EA010000 		.4byte	0x1ea
 480 01fc 0D       		.uleb128 0xd
 481 01fd 01       		.byte	0x1
 482 01fe 05       		.byte	0x5
 483 01ff 3C       		.byte	0x3c
 484 0200 29020000 		.4byte	0x229
 485 0204 0E       		.uleb128 0xe
 486 0205 5F030000 		.4byte	.LASF27
 487 0209 00       		.sleb128 0
 488 020a 0E       		.uleb128 0xe
 489 020b 20000000 		.4byte	.LASF28
 490 020f 01       		.sleb128 1
 491 0210 0E       		.uleb128 0xe
 492 0211 F3030000 		.4byte	.LASF29
 493 0215 02       		.sleb128 2
 494 0216 0E       		.uleb128 0xe
 495 0217 23040000 		.4byte	.LASF30
 496 021b 03       		.sleb128 3
 497 021c 0E       		.uleb128 0xe
 498 021d F9000000 		.4byte	.LASF31
 499 0221 04       		.sleb128 4
 500 0222 0E       		.uleb128 0xe
 501 0223 57010000 		.4byte	.LASF32
 502 0227 05       		.sleb128 5
 503 0228 00       		.byte	0
 504 0229 04       		.uleb128 0x4
 505 022a 18040000 		.4byte	.LASF33
 506 022e 05       		.byte	0x5
 507 022f 43       		.byte	0x43
 508 0230 FC010000 		.4byte	0x1fc
 509 0234 04       		.uleb128 0x4
 510 0235 DF030000 		.4byte	.LASF34
 511 0239 05       		.byte	0x5
 512 023a 48       		.byte	0x48
 513 023b 3F020000 		.4byte	0x23f
ARM GAS  /var/folders/bz/nn5481rn5xq59rb0mbj7x0880000gn/T//ccHtnMdr.s 			page 10


 514 023f 0F       		.uleb128 0xf
 515 0240 DF030000 		.4byte	.LASF34
 516 0244 18       		.byte	0x18
 517 0245 06       		.byte	0x6
 518 0246 3101     		.2byte	0x131
 519 0248 9B020000 		.4byte	0x29b
 520 024c 0B       		.uleb128 0xb
 521 024d 49000000 		.4byte	.LASF35
 522 0251 06       		.byte	0x6
 523 0252 3501     		.2byte	0x135
 524 0254 29020000 		.4byte	0x229
 525 0258 00       		.byte	0
 526 0259 0B       		.uleb128 0xb
 527 025a A2000000 		.4byte	.LASF36
 528 025e 06       		.byte	0x6
 529 025f 3901     		.2byte	0x139
 530 0261 79030000 		.4byte	0x379
 531 0265 04       		.byte	0x4
 532 0266 0B       		.uleb128 0xb
 533 0267 97030000 		.4byte	.LASF37
 534 026b 06       		.byte	0x6
 535 026c 4101     		.2byte	0x141
 536 026e 8C000000 		.4byte	0x8c
 537 0272 08       		.byte	0x8
 538 0273 0A       		.uleb128 0xa
 539 0274 74696D00 		.ascii	"tim\000"
 540 0278 06       		.byte	0x6
 541 0279 4501     		.2byte	0x145
 542 027b F6010000 		.4byte	0x1f6
 543 027f 0C       		.byte	0xc
 544 0280 0B       		.uleb128 0xb
 545 0281 1A000000 		.4byte	.LASF38
 546 0285 06       		.byte	0x6
 547 0286 4901     		.2byte	0x149
 548 0288 C6000000 		.4byte	0xc6
 549 028c 10       		.byte	0x10
 550 028d 0B       		.uleb128 0xb
 551 028e 4B010000 		.4byte	.LASF39
 552 0292 06       		.byte	0x6
 553 0293 4D01     		.2byte	0x14d
 554 0295 C6000000 		.4byte	0xc6
 555 0299 14       		.byte	0x14
 556 029a 00       		.byte	0
 557 029b 04       		.uleb128 0x4
 558 029c 15030000 		.4byte	.LASF40
 559 02a0 05       		.byte	0x5
 560 02a1 4F       		.byte	0x4f
 561 02a2 A6020000 		.4byte	0x2a6
 562 02a6 08       		.uleb128 0x8
 563 02a7 04       		.byte	0x4
 564 02a8 AC020000 		.4byte	0x2ac
 565 02ac 10       		.uleb128 0x10
 566 02ad B7020000 		.4byte	0x2b7
 567 02b1 11       		.uleb128 0x11
 568 02b2 B7020000 		.4byte	0x2b7
 569 02b6 00       		.byte	0
 570 02b7 08       		.uleb128 0x8
ARM GAS  /var/folders/bz/nn5481rn5xq59rb0mbj7x0880000gn/T//ccHtnMdr.s 			page 11


 571 02b8 04       		.byte	0x4
 572 02b9 34020000 		.4byte	0x234
 573 02bd 0D       		.uleb128 0xd
 574 02be 01       		.byte	0x1
 575 02bf 06       		.byte	0x6
 576 02c0 EE       		.byte	0xee
 577 02c1 D2020000 		.4byte	0x2d2
 578 02c5 0E       		.uleb128 0xe
 579 02c6 6F030000 		.4byte	.LASF41
 580 02ca 00       		.sleb128 0
 581 02cb 0E       		.uleb128 0xe
 582 02cc 00030000 		.4byte	.LASF42
 583 02d0 01       		.sleb128 1
 584 02d1 00       		.byte	0
 585 02d2 04       		.uleb128 0x4
 586 02d3 29010000 		.4byte	.LASF43
 587 02d7 06       		.byte	0x6
 588 02d8 F1       		.byte	0xf1
 589 02d9 BD020000 		.4byte	0x2bd
 590 02dd 04       		.uleb128 0x4
 591 02de E3020000 		.4byte	.LASF44
 592 02e2 06       		.byte	0x6
 593 02e3 F6       		.byte	0xf6
 594 02e4 8C000000 		.4byte	0x8c
 595 02e8 0D       		.uleb128 0xd
 596 02e9 01       		.byte	0x1
 597 02ea 06       		.byte	0x6
 598 02eb FB       		.byte	0xfb
 599 02ec FD020000 		.4byte	0x2fd
 600 02f0 0E       		.uleb128 0xe
 601 02f1 CC000000 		.4byte	.LASF45
 602 02f5 00       		.sleb128 0
 603 02f6 0E       		.uleb128 0xe
 604 02f7 DA000000 		.4byte	.LASF46
 605 02fb 01       		.sleb128 1
 606 02fc 00       		.byte	0
 607 02fd 04       		.uleb128 0x4
 608 02fe 29000000 		.4byte	.LASF47
 609 0302 06       		.byte	0x6
 610 0303 FE       		.byte	0xfe
 611 0304 E8020000 		.4byte	0x2e8
 612 0308 09       		.uleb128 0x9
 613 0309 1C       		.byte	0x1c
 614 030a 06       		.byte	0x6
 615 030b 0901     		.2byte	0x109
 616 030d 6D030000 		.4byte	0x36d
 617 0311 0B       		.uleb128 0xb
 618 0312 8D000000 		.4byte	.LASF48
 619 0316 06       		.byte	0x6
 620 0317 0D01     		.2byte	0x10d
 621 0319 D2020000 		.4byte	0x2d2
 622 031d 00       		.byte	0
 623 031e 0B       		.uleb128 0xb
 624 031f E9030000 		.4byte	.LASF49
 625 0323 06       		.byte	0x6
 626 0324 1301     		.2byte	0x113
 627 0326 DD020000 		.4byte	0x2dd
ARM GAS  /var/folders/bz/nn5481rn5xq59rb0mbj7x0880000gn/T//ccHtnMdr.s 			page 12


 628 032a 04       		.byte	0x4
 629 032b 0B       		.uleb128 0xb
 630 032c F0000000 		.4byte	.LASF50
 631 0330 06       		.byte	0x6
 632 0331 1701     		.2byte	0x117
 633 0333 9B020000 		.4byte	0x29b
 634 0337 08       		.byte	0x8
 635 0338 0B       		.uleb128 0xb
 636 0339 2F030000 		.4byte	.LASF51
 637 033d 06       		.byte	0x6
 638 033e 1B01     		.2byte	0x11b
 639 0340 9B020000 		.4byte	0x29b
 640 0344 0C       		.byte	0xc
 641 0345 0B       		.uleb128 0xb
 642 0346 C4030000 		.4byte	.LASF52
 643 034a 06       		.byte	0x6
 644 034b 1F01     		.2byte	0x11f
 645 034d 9B020000 		.4byte	0x29b
 646 0351 10       		.byte	0x10
 647 0352 0B       		.uleb128 0xb
 648 0353 4C030000 		.4byte	.LASF53
 649 0357 06       		.byte	0x6
 650 0358 2501     		.2byte	0x125
 651 035a FD020000 		.4byte	0x2fd
 652 035e 14       		.byte	0x14
 653 035f 0B       		.uleb128 0xb
 654 0360 DA030000 		.4byte	.LASF54
 655 0364 06       		.byte	0x6
 656 0365 2B01     		.2byte	0x12b
 657 0367 8C000000 		.4byte	0x8c
 658 036b 18       		.byte	0x18
 659 036c 00       		.byte	0
 660 036d 0C       		.uleb128 0xc
 661 036e 92020000 		.4byte	.LASF55
 662 0372 06       		.byte	0x6
 663 0373 2C01     		.2byte	0x12c
 664 0375 08030000 		.4byte	0x308
 665 0379 08       		.uleb128 0x8
 666 037a 04       		.byte	0x4
 667 037b 7F030000 		.4byte	0x37f
 668 037f 12       		.uleb128 0x12
 669 0380 6D030000 		.4byte	0x36d
 670 0384 13       		.uleb128 0x13
 671 0385 E8000000 		.4byte	.LASF56
 672 0389 01       		.byte	0x1
 673 038a 44       		.byte	0x44
 674 038b 00000000 		.4byte	.LFB118
 675 038f 04000000 		.4byte	.LFE118-.LFB118
 676 0393 01       		.uleb128 0x1
 677 0394 9C       		.byte	0x9c
 678 0395 A3030000 		.4byte	0x3a3
 679 0399 14       		.uleb128 0x14
 680 039a 04000000 		.4byte	.LVL0
 681 039e B5040000 		.4byte	0x4b5
 682 03a2 00       		.byte	0
 683 03a3 13       		.uleb128 0x13
 684 03a4 FD030000 		.4byte	.LASF57
ARM GAS  /var/folders/bz/nn5481rn5xq59rb0mbj7x0880000gn/T//ccHtnMdr.s 			page 13


 685 03a8 01       		.byte	0x1
 686 03a9 50       		.byte	0x50
 687 03aa 00000000 		.4byte	.LFB119
 688 03ae 0A000000 		.4byte	.LFE119-.LFB119
 689 03b2 01       		.uleb128 0x1
 690 03b3 9C       		.byte	0x9c
 691 03b4 C6030000 		.4byte	0x3c6
 692 03b8 15       		.uleb128 0x15
 693 03b9 65000000 		.4byte	.LASF59
 694 03bd 01       		.byte	0x1
 695 03be 50       		.byte	0x50
 696 03bf B7020000 		.4byte	0x2b7
 697 03c3 01       		.uleb128 0x1
 698 03c4 50       		.byte	0x50
 699 03c5 00       		.byte	0
 700 03c6 13       		.uleb128 0x13
 701 03c7 9C020000 		.4byte	.LASF58
 702 03cb 01       		.byte	0x1
 703 03cc 5E       		.byte	0x5e
 704 03cd 00000000 		.4byte	.LFB120
 705 03d1 14000000 		.4byte	.LFE120-.LFB120
 706 03d5 01       		.uleb128 0x1
 707 03d6 9C       		.byte	0x9c
 708 03d7 0A040000 		.4byte	0x40a
 709 03db 16       		.uleb128 0x16
 710 03dc 65000000 		.4byte	.LASF59
 711 03e0 01       		.byte	0x1
 712 03e1 5E       		.byte	0x5e
 713 03e2 B7020000 		.4byte	0x2b7
 714 03e6 00000000 		.4byte	.LLST0
 715 03ea 16       		.uleb128 0x16
 716 03eb A2000000 		.4byte	.LASF36
 717 03ef 01       		.byte	0x1
 718 03f0 5E       		.byte	0x5e
 719 03f1 79030000 		.4byte	0x379
 720 03f5 1E000000 		.4byte	.LLST1
 721 03f9 17       		.uleb128 0x17
 722 03fa 0C000000 		.4byte	.LVL3
 723 03fe BD040000 		.4byte	0x4bd
 724 0402 18       		.uleb128 0x18
 725 0403 01       		.uleb128 0x1
 726 0404 50       		.byte	0x50
 727 0405 02       		.uleb128 0x2
 728 0406 74       		.byte	0x74
 729 0407 00       		.sleb128 0
 730 0408 00       		.byte	0
 731 0409 00       		.byte	0
 732 040a 13       		.uleb128 0x13
 733 040b 00000000 		.4byte	.LASF60
 734 040f 01       		.byte	0x1
 735 0410 72       		.byte	0x72
 736 0411 00000000 		.4byte	.LFB121
 737 0415 12000000 		.4byte	.LFE121-.LFB121
 738 0419 01       		.uleb128 0x1
 739 041a 9C       		.byte	0x9c
 740 041b 3F040000 		.4byte	0x43f
 741 041f 16       		.uleb128 0x16
ARM GAS  /var/folders/bz/nn5481rn5xq59rb0mbj7x0880000gn/T//ccHtnMdr.s 			page 14


 742 0420 65000000 		.4byte	.LASF59
 743 0424 01       		.byte	0x1
 744 0425 72       		.byte	0x72
 745 0426 B7020000 		.4byte	0x2b7
 746 042a 3F000000 		.4byte	.LLST2
 747 042e 17       		.uleb128 0x17
 748 042f 0A000000 		.4byte	.LVL5
 749 0433 CF040000 		.4byte	0x4cf
 750 0437 18       		.uleb128 0x18
 751 0438 01       		.uleb128 0x1
 752 0439 50       		.byte	0x50
 753 043a 02       		.uleb128 0x2
 754 043b 74       		.byte	0x74
 755 043c 00       		.sleb128 0
 756 043d 00       		.byte	0
 757 043e 00       		.byte	0
 758 043f 13       		.uleb128 0x13
 759 0440 A5020000 		.4byte	.LASF61
 760 0444 01       		.byte	0x1
 761 0445 85       		.byte	0x85
 762 0446 00000000 		.4byte	.LFB122
 763 044a 12000000 		.4byte	.LFE122-.LFB122
 764 044e 01       		.uleb128 0x1
 765 044f 9C       		.byte	0x9c
 766 0450 74040000 		.4byte	0x474
 767 0454 16       		.uleb128 0x16
 768 0455 65000000 		.4byte	.LASF59
 769 0459 01       		.byte	0x1
 770 045a 85       		.byte	0x85
 771 045b B7020000 		.4byte	0x2b7
 772 045f 5D000000 		.4byte	.LLST3
 773 0463 17       		.uleb128 0x17
 774 0464 0A000000 		.4byte	.LVL7
 775 0468 E1040000 		.4byte	0x4e1
 776 046c 18       		.uleb128 0x18
 777 046d 01       		.uleb128 0x1
 778 046e 50       		.byte	0x50
 779 046f 02       		.uleb128 0x2
 780 0470 74       		.byte	0x74
 781 0471 00       		.sleb128 0
 782 0472 00       		.byte	0
 783 0473 00       		.byte	0
 784 0474 13       		.uleb128 0x13
 785 0475 54030000 		.4byte	.LASF62
 786 0479 01       		.byte	0x1
 787 047a 97       		.byte	0x97
 788 047b 00000000 		.4byte	.LFB123
 789 047f 12000000 		.4byte	.LFE123-.LFB123
 790 0483 01       		.uleb128 0x1
 791 0484 9C       		.byte	0x9c
 792 0485 A9040000 		.4byte	0x4a9
 793 0489 16       		.uleb128 0x16
 794 048a 65000000 		.4byte	.LASF59
 795 048e 01       		.byte	0x1
 796 048f 97       		.byte	0x97
 797 0490 B7020000 		.4byte	0x2b7
 798 0494 7B000000 		.4byte	.LLST4
ARM GAS  /var/folders/bz/nn5481rn5xq59rb0mbj7x0880000gn/T//ccHtnMdr.s 			page 15


 799 0498 17       		.uleb128 0x17
 800 0499 0A000000 		.4byte	.LVL9
 801 049d F3040000 		.4byte	0x4f3
 802 04a1 18       		.uleb128 0x18
 803 04a2 01       		.uleb128 0x1
 804 04a3 50       		.byte	0x50
 805 04a4 02       		.uleb128 0x2
 806 04a5 74       		.byte	0x74
 807 04a6 00       		.sleb128 0
 808 04a7 00       		.byte	0
 809 04a8 00       		.byte	0
 810 04a9 19       		.uleb128 0x19
 811 04aa 0B040000 		.4byte	.LASF69
 812 04ae 07       		.byte	0x7
 813 04af 9806     		.2byte	0x698
 814 04b1 C1000000 		.4byte	0xc1
 815 04b5 1A       		.uleb128 0x1a
 816 04b6 BB020000 		.4byte	.LASF70
 817 04ba 06       		.byte	0x6
 818 04bb 8F01     		.2byte	0x18f
 819 04bd 1B       		.uleb128 0x1b
 820 04be 36000000 		.4byte	.LASF63
 821 04c2 06       		.byte	0x6
 822 04c3 9001     		.2byte	0x190
 823 04c5 CF040000 		.4byte	0x4cf
 824 04c9 11       		.uleb128 0x11
 825 04ca B7020000 		.4byte	0x2b7
 826 04ce 00       		.byte	0
 827 04cf 1B       		.uleb128 0x1b
 828 04d0 08000000 		.4byte	.LASF64
 829 04d4 06       		.byte	0x6
 830 04d5 9101     		.2byte	0x191
 831 04d7 E1040000 		.4byte	0x4e1
 832 04db 11       		.uleb128 0x11
 833 04dc B7020000 		.4byte	0x2b7
 834 04e0 00       		.byte	0
 835 04e1 1B       		.uleb128 0x1b
 836 04e2 73000000 		.4byte	.LASF65
 837 04e6 06       		.byte	0x6
 838 04e7 9201     		.2byte	0x192
 839 04e9 F3040000 		.4byte	0x4f3
 840 04ed 11       		.uleb128 0x11
 841 04ee B7020000 		.4byte	0x2b7
 842 04f2 00       		.byte	0
 843 04f3 1C       		.uleb128 0x1c
 844 04f4 92000000 		.4byte	.LASF71
 845 04f8 06       		.byte	0x6
 846 04f9 9301     		.2byte	0x193
 847 04fb 11       		.uleb128 0x11
 848 04fc B7020000 		.4byte	0x2b7
 849 0500 00       		.byte	0
 850 0501 00       		.byte	0
 851              		.section	.debug_abbrev,"",%progbits
 852              	.Ldebug_abbrev0:
 853 0000 01       		.uleb128 0x1
 854 0001 11       		.uleb128 0x11
 855 0002 01       		.byte	0x1
ARM GAS  /var/folders/bz/nn5481rn5xq59rb0mbj7x0880000gn/T//ccHtnMdr.s 			page 16


 856 0003 25       		.uleb128 0x25
 857 0004 0E       		.uleb128 0xe
 858 0005 13       		.uleb128 0x13
 859 0006 0B       		.uleb128 0xb
 860 0007 03       		.uleb128 0x3
 861 0008 0E       		.uleb128 0xe
 862 0009 1B       		.uleb128 0x1b
 863 000a 0E       		.uleb128 0xe
 864 000b 55       		.uleb128 0x55
 865 000c 17       		.uleb128 0x17
 866 000d 11       		.uleb128 0x11
 867 000e 01       		.uleb128 0x1
 868 000f 10       		.uleb128 0x10
 869 0010 17       		.uleb128 0x17
 870 0011 00       		.byte	0
 871 0012 00       		.byte	0
 872 0013 02       		.uleb128 0x2
 873 0014 24       		.uleb128 0x24
 874 0015 00       		.byte	0
 875 0016 0B       		.uleb128 0xb
 876 0017 0B       		.uleb128 0xb
 877 0018 3E       		.uleb128 0x3e
 878 0019 0B       		.uleb128 0xb
 879 001a 03       		.uleb128 0x3
 880 001b 08       		.uleb128 0x8
 881 001c 00       		.byte	0
 882 001d 00       		.byte	0
 883 001e 03       		.uleb128 0x3
 884 001f 24       		.uleb128 0x24
 885 0020 00       		.byte	0
 886 0021 0B       		.uleb128 0xb
 887 0022 0B       		.uleb128 0xb
 888 0023 3E       		.uleb128 0x3e
 889 0024 0B       		.uleb128 0xb
 890 0025 03       		.uleb128 0x3
 891 0026 0E       		.uleb128 0xe
 892 0027 00       		.byte	0
 893 0028 00       		.byte	0
 894 0029 04       		.uleb128 0x4
 895 002a 16       		.uleb128 0x16
 896 002b 00       		.byte	0
 897 002c 03       		.uleb128 0x3
 898 002d 0E       		.uleb128 0xe
 899 002e 3A       		.uleb128 0x3a
 900 002f 0B       		.uleb128 0xb
 901 0030 3B       		.uleb128 0x3b
 902 0031 0B       		.uleb128 0xb
 903 0032 49       		.uleb128 0x49
 904 0033 13       		.uleb128 0x13
 905 0034 00       		.byte	0
 906 0035 00       		.byte	0
 907 0036 05       		.uleb128 0x5
 908 0037 35       		.uleb128 0x35
 909 0038 00       		.byte	0
 910 0039 49       		.uleb128 0x49
 911 003a 13       		.uleb128 0x13
 912 003b 00       		.byte	0
ARM GAS  /var/folders/bz/nn5481rn5xq59rb0mbj7x0880000gn/T//ccHtnMdr.s 			page 17


 913 003c 00       		.byte	0
 914 003d 06       		.uleb128 0x6
 915 003e 01       		.uleb128 0x1
 916 003f 01       		.byte	0x1
 917 0040 49       		.uleb128 0x49
 918 0041 13       		.uleb128 0x13
 919 0042 01       		.uleb128 0x1
 920 0043 13       		.uleb128 0x13
 921 0044 00       		.byte	0
 922 0045 00       		.byte	0
 923 0046 07       		.uleb128 0x7
 924 0047 21       		.uleb128 0x21
 925 0048 00       		.byte	0
 926 0049 49       		.uleb128 0x49
 927 004a 13       		.uleb128 0x13
 928 004b 2F       		.uleb128 0x2f
 929 004c 0B       		.uleb128 0xb
 930 004d 00       		.byte	0
 931 004e 00       		.byte	0
 932 004f 08       		.uleb128 0x8
 933 0050 0F       		.uleb128 0xf
 934 0051 00       		.byte	0
 935 0052 0B       		.uleb128 0xb
 936 0053 0B       		.uleb128 0xb
 937 0054 49       		.uleb128 0x49
 938 0055 13       		.uleb128 0x13
 939 0056 00       		.byte	0
 940 0057 00       		.byte	0
 941 0058 09       		.uleb128 0x9
 942 0059 13       		.uleb128 0x13
 943 005a 01       		.byte	0x1
 944 005b 0B       		.uleb128 0xb
 945 005c 0B       		.uleb128 0xb
 946 005d 3A       		.uleb128 0x3a
 947 005e 0B       		.uleb128 0xb
 948 005f 3B       		.uleb128 0x3b
 949 0060 05       		.uleb128 0x5
 950 0061 01       		.uleb128 0x1
 951 0062 13       		.uleb128 0x13
 952 0063 00       		.byte	0
 953 0064 00       		.byte	0
 954 0065 0A       		.uleb128 0xa
 955 0066 0D       		.uleb128 0xd
 956 0067 00       		.byte	0
 957 0068 03       		.uleb128 0x3
 958 0069 08       		.uleb128 0x8
 959 006a 3A       		.uleb128 0x3a
 960 006b 0B       		.uleb128 0xb
 961 006c 3B       		.uleb128 0x3b
 962 006d 05       		.uleb128 0x5
 963 006e 49       		.uleb128 0x49
 964 006f 13       		.uleb128 0x13
 965 0070 38       		.uleb128 0x38
 966 0071 0B       		.uleb128 0xb
 967 0072 00       		.byte	0
 968 0073 00       		.byte	0
 969 0074 0B       		.uleb128 0xb
ARM GAS  /var/folders/bz/nn5481rn5xq59rb0mbj7x0880000gn/T//ccHtnMdr.s 			page 18


 970 0075 0D       		.uleb128 0xd
 971 0076 00       		.byte	0
 972 0077 03       		.uleb128 0x3
 973 0078 0E       		.uleb128 0xe
 974 0079 3A       		.uleb128 0x3a
 975 007a 0B       		.uleb128 0xb
 976 007b 3B       		.uleb128 0x3b
 977 007c 05       		.uleb128 0x5
 978 007d 49       		.uleb128 0x49
 979 007e 13       		.uleb128 0x13
 980 007f 38       		.uleb128 0x38
 981 0080 0B       		.uleb128 0xb
 982 0081 00       		.byte	0
 983 0082 00       		.byte	0
 984 0083 0C       		.uleb128 0xc
 985 0084 16       		.uleb128 0x16
 986 0085 00       		.byte	0
 987 0086 03       		.uleb128 0x3
 988 0087 0E       		.uleb128 0xe
 989 0088 3A       		.uleb128 0x3a
 990 0089 0B       		.uleb128 0xb
 991 008a 3B       		.uleb128 0x3b
 992 008b 05       		.uleb128 0x5
 993 008c 49       		.uleb128 0x49
 994 008d 13       		.uleb128 0x13
 995 008e 00       		.byte	0
 996 008f 00       		.byte	0
 997 0090 0D       		.uleb128 0xd
 998 0091 04       		.uleb128 0x4
 999 0092 01       		.byte	0x1
 1000 0093 0B       		.uleb128 0xb
 1001 0094 0B       		.uleb128 0xb
 1002 0095 3A       		.uleb128 0x3a
 1003 0096 0B       		.uleb128 0xb
 1004 0097 3B       		.uleb128 0x3b
 1005 0098 0B       		.uleb128 0xb
 1006 0099 01       		.uleb128 0x1
 1007 009a 13       		.uleb128 0x13
 1008 009b 00       		.byte	0
 1009 009c 00       		.byte	0
 1010 009d 0E       		.uleb128 0xe
 1011 009e 28       		.uleb128 0x28
 1012 009f 00       		.byte	0
 1013 00a0 03       		.uleb128 0x3
 1014 00a1 0E       		.uleb128 0xe
 1015 00a2 1C       		.uleb128 0x1c
 1016 00a3 0D       		.uleb128 0xd
 1017 00a4 00       		.byte	0
 1018 00a5 00       		.byte	0
 1019 00a6 0F       		.uleb128 0xf
 1020 00a7 13       		.uleb128 0x13
 1021 00a8 01       		.byte	0x1
 1022 00a9 03       		.uleb128 0x3
 1023 00aa 0E       		.uleb128 0xe
 1024 00ab 0B       		.uleb128 0xb
 1025 00ac 0B       		.uleb128 0xb
 1026 00ad 3A       		.uleb128 0x3a
ARM GAS  /var/folders/bz/nn5481rn5xq59rb0mbj7x0880000gn/T//ccHtnMdr.s 			page 19


 1027 00ae 0B       		.uleb128 0xb
 1028 00af 3B       		.uleb128 0x3b
 1029 00b0 05       		.uleb128 0x5
 1030 00b1 01       		.uleb128 0x1
 1031 00b2 13       		.uleb128 0x13
 1032 00b3 00       		.byte	0
 1033 00b4 00       		.byte	0
 1034 00b5 10       		.uleb128 0x10
 1035 00b6 15       		.uleb128 0x15
 1036 00b7 01       		.byte	0x1
 1037 00b8 27       		.uleb128 0x27
 1038 00b9 19       		.uleb128 0x19
 1039 00ba 01       		.uleb128 0x1
 1040 00bb 13       		.uleb128 0x13
 1041 00bc 00       		.byte	0
 1042 00bd 00       		.byte	0
 1043 00be 11       		.uleb128 0x11
 1044 00bf 05       		.uleb128 0x5
 1045 00c0 00       		.byte	0
 1046 00c1 49       		.uleb128 0x49
 1047 00c2 13       		.uleb128 0x13
 1048 00c3 00       		.byte	0
 1049 00c4 00       		.byte	0
 1050 00c5 12       		.uleb128 0x12
 1051 00c6 26       		.uleb128 0x26
 1052 00c7 00       		.byte	0
 1053 00c8 49       		.uleb128 0x49
 1054 00c9 13       		.uleb128 0x13
 1055 00ca 00       		.byte	0
 1056 00cb 00       		.byte	0
 1057 00cc 13       		.uleb128 0x13
 1058 00cd 2E       		.uleb128 0x2e
 1059 00ce 01       		.byte	0x1
 1060 00cf 3F       		.uleb128 0x3f
 1061 00d0 19       		.uleb128 0x19
 1062 00d1 03       		.uleb128 0x3
 1063 00d2 0E       		.uleb128 0xe
 1064 00d3 3A       		.uleb128 0x3a
 1065 00d4 0B       		.uleb128 0xb
 1066 00d5 3B       		.uleb128 0x3b
 1067 00d6 0B       		.uleb128 0xb
 1068 00d7 27       		.uleb128 0x27
 1069 00d8 19       		.uleb128 0x19
 1070 00d9 11       		.uleb128 0x11
 1071 00da 01       		.uleb128 0x1
 1072 00db 12       		.uleb128 0x12
 1073 00dc 06       		.uleb128 0x6
 1074 00dd 40       		.uleb128 0x40
 1075 00de 18       		.uleb128 0x18
 1076 00df 9742     		.uleb128 0x2117
 1077 00e1 19       		.uleb128 0x19
 1078 00e2 01       		.uleb128 0x1
 1079 00e3 13       		.uleb128 0x13
 1080 00e4 00       		.byte	0
 1081 00e5 00       		.byte	0
 1082 00e6 14       		.uleb128 0x14
 1083 00e7 898201   		.uleb128 0x4109
ARM GAS  /var/folders/bz/nn5481rn5xq59rb0mbj7x0880000gn/T//ccHtnMdr.s 			page 20


 1084 00ea 00       		.byte	0
 1085 00eb 11       		.uleb128 0x11
 1086 00ec 01       		.uleb128 0x1
 1087 00ed 9542     		.uleb128 0x2115
 1088 00ef 19       		.uleb128 0x19
 1089 00f0 31       		.uleb128 0x31
 1090 00f1 13       		.uleb128 0x13
 1091 00f2 00       		.byte	0
 1092 00f3 00       		.byte	0
 1093 00f4 15       		.uleb128 0x15
 1094 00f5 05       		.uleb128 0x5
 1095 00f6 00       		.byte	0
 1096 00f7 03       		.uleb128 0x3
 1097 00f8 0E       		.uleb128 0xe
 1098 00f9 3A       		.uleb128 0x3a
 1099 00fa 0B       		.uleb128 0xb
 1100 00fb 3B       		.uleb128 0x3b
 1101 00fc 0B       		.uleb128 0xb
 1102 00fd 49       		.uleb128 0x49
 1103 00fe 13       		.uleb128 0x13
 1104 00ff 02       		.uleb128 0x2
 1105 0100 18       		.uleb128 0x18
 1106 0101 00       		.byte	0
 1107 0102 00       		.byte	0
 1108 0103 16       		.uleb128 0x16
 1109 0104 05       		.uleb128 0x5
 1110 0105 00       		.byte	0
 1111 0106 03       		.uleb128 0x3
 1112 0107 0E       		.uleb128 0xe
 1113 0108 3A       		.uleb128 0x3a
 1114 0109 0B       		.uleb128 0xb
 1115 010a 3B       		.uleb128 0x3b
 1116 010b 0B       		.uleb128 0xb
 1117 010c 49       		.uleb128 0x49
 1118 010d 13       		.uleb128 0x13
 1119 010e 02       		.uleb128 0x2
 1120 010f 17       		.uleb128 0x17
 1121 0110 00       		.byte	0
 1122 0111 00       		.byte	0
 1123 0112 17       		.uleb128 0x17
 1124 0113 898201   		.uleb128 0x4109
 1125 0116 01       		.byte	0x1
 1126 0117 11       		.uleb128 0x11
 1127 0118 01       		.uleb128 0x1
 1128 0119 31       		.uleb128 0x31
 1129 011a 13       		.uleb128 0x13
 1130 011b 00       		.byte	0
 1131 011c 00       		.byte	0
 1132 011d 18       		.uleb128 0x18
 1133 011e 8A8201   		.uleb128 0x410a
 1134 0121 00       		.byte	0
 1135 0122 02       		.uleb128 0x2
 1136 0123 18       		.uleb128 0x18
 1137 0124 9142     		.uleb128 0x2111
 1138 0126 18       		.uleb128 0x18
 1139 0127 00       		.byte	0
 1140 0128 00       		.byte	0
ARM GAS  /var/folders/bz/nn5481rn5xq59rb0mbj7x0880000gn/T//ccHtnMdr.s 			page 21


 1141 0129 19       		.uleb128 0x19
 1142 012a 34       		.uleb128 0x34
 1143 012b 00       		.byte	0
 1144 012c 03       		.uleb128 0x3
 1145 012d 0E       		.uleb128 0xe
 1146 012e 3A       		.uleb128 0x3a
 1147 012f 0B       		.uleb128 0xb
 1148 0130 3B       		.uleb128 0x3b
 1149 0131 05       		.uleb128 0x5
 1150 0132 49       		.uleb128 0x49
 1151 0133 13       		.uleb128 0x13
 1152 0134 3F       		.uleb128 0x3f
 1153 0135 19       		.uleb128 0x19
 1154 0136 3C       		.uleb128 0x3c
 1155 0137 19       		.uleb128 0x19
 1156 0138 00       		.byte	0
 1157 0139 00       		.byte	0
 1158 013a 1A       		.uleb128 0x1a
 1159 013b 2E       		.uleb128 0x2e
 1160 013c 00       		.byte	0
 1161 013d 3F       		.uleb128 0x3f
 1162 013e 19       		.uleb128 0x19
 1163 013f 03       		.uleb128 0x3
 1164 0140 0E       		.uleb128 0xe
 1165 0141 3A       		.uleb128 0x3a
 1166 0142 0B       		.uleb128 0xb
 1167 0143 3B       		.uleb128 0x3b
 1168 0144 05       		.uleb128 0x5
 1169 0145 27       		.uleb128 0x27
 1170 0146 19       		.uleb128 0x19
 1171 0147 3C       		.uleb128 0x3c
 1172 0148 19       		.uleb128 0x19
 1173 0149 00       		.byte	0
 1174 014a 00       		.byte	0
 1175 014b 1B       		.uleb128 0x1b
 1176 014c 2E       		.uleb128 0x2e
 1177 014d 01       		.byte	0x1
 1178 014e 3F       		.uleb128 0x3f
 1179 014f 19       		.uleb128 0x19
 1180 0150 03       		.uleb128 0x3
 1181 0151 0E       		.uleb128 0xe
 1182 0152 3A       		.uleb128 0x3a
 1183 0153 0B       		.uleb128 0xb
 1184 0154 3B       		.uleb128 0x3b
 1185 0155 05       		.uleb128 0x5
 1186 0156 27       		.uleb128 0x27
 1187 0157 19       		.uleb128 0x19
 1188 0158 3C       		.uleb128 0x3c
 1189 0159 19       		.uleb128 0x19
 1190 015a 01       		.uleb128 0x1
 1191 015b 13       		.uleb128 0x13
 1192 015c 00       		.byte	0
 1193 015d 00       		.byte	0
 1194 015e 1C       		.uleb128 0x1c
 1195 015f 2E       		.uleb128 0x2e
 1196 0160 01       		.byte	0x1
 1197 0161 3F       		.uleb128 0x3f
ARM GAS  /var/folders/bz/nn5481rn5xq59rb0mbj7x0880000gn/T//ccHtnMdr.s 			page 22


 1198 0162 19       		.uleb128 0x19
 1199 0163 03       		.uleb128 0x3
 1200 0164 0E       		.uleb128 0xe
 1201 0165 3A       		.uleb128 0x3a
 1202 0166 0B       		.uleb128 0xb
 1203 0167 3B       		.uleb128 0x3b
 1204 0168 05       		.uleb128 0x5
 1205 0169 27       		.uleb128 0x27
 1206 016a 19       		.uleb128 0x19
 1207 016b 3C       		.uleb128 0x3c
 1208 016c 19       		.uleb128 0x19
 1209 016d 00       		.byte	0
 1210 016e 00       		.byte	0
 1211 016f 00       		.byte	0
 1212              		.section	.debug_loc,"",%progbits
 1213              	.Ldebug_loc0:
 1214              	.LLST0:
 1215 0000 00000000 		.4byte	.LVL2
 1216 0004 0B000000 		.4byte	.LVL3-1
 1217 0008 0100     		.2byte	0x1
 1218 000a 50       		.byte	0x50
 1219 000b 0B000000 		.4byte	.LVL3-1
 1220 000f 14000000 		.4byte	.LFE120
 1221 0013 0100     		.2byte	0x1
 1222 0015 54       		.byte	0x54
 1223 0016 00000000 		.4byte	0
 1224 001a 00000000 		.4byte	0
 1225              	.LLST1:
 1226 001e 00000000 		.4byte	.LVL2
 1227 0022 0B000000 		.4byte	.LVL3-1
 1228 0026 0100     		.2byte	0x1
 1229 0028 51       		.byte	0x51
 1230 0029 0B000000 		.4byte	.LVL3-1
 1231 002d 14000000 		.4byte	.LFE120
 1232 0031 0400     		.2byte	0x4
 1233 0033 F3       		.byte	0xf3
 1234 0034 01       		.uleb128 0x1
 1235 0035 51       		.byte	0x51
 1236 0036 9F       		.byte	0x9f
 1237 0037 00000000 		.4byte	0
 1238 003b 00000000 		.4byte	0
 1239              	.LLST2:
 1240 003f 00000000 		.4byte	.LVL4
 1241 0043 09000000 		.4byte	.LVL5-1
 1242 0047 0100     		.2byte	0x1
 1243 0049 50       		.byte	0x50
 1244 004a 09000000 		.4byte	.LVL5-1
 1245 004e 12000000 		.4byte	.LFE121
 1246 0052 0100     		.2byte	0x1
 1247 0054 54       		.byte	0x54
 1248 0055 00000000 		.4byte	0
 1249 0059 00000000 		.4byte	0
 1250              	.LLST3:
 1251 005d 00000000 		.4byte	.LVL6
 1252 0061 09000000 		.4byte	.LVL7-1
 1253 0065 0100     		.2byte	0x1
 1254 0067 50       		.byte	0x50
ARM GAS  /var/folders/bz/nn5481rn5xq59rb0mbj7x0880000gn/T//ccHtnMdr.s 			page 23


 1255 0068 09000000 		.4byte	.LVL7-1
 1256 006c 12000000 		.4byte	.LFE122
 1257 0070 0100     		.2byte	0x1
 1258 0072 54       		.byte	0x54
 1259 0073 00000000 		.4byte	0
 1260 0077 00000000 		.4byte	0
 1261              	.LLST4:
 1262 007b 00000000 		.4byte	.LVL8
 1263 007f 09000000 		.4byte	.LVL9-1
 1264 0083 0100     		.2byte	0x1
 1265 0085 50       		.byte	0x50
 1266 0086 09000000 		.4byte	.LVL9-1
 1267 008a 12000000 		.4byte	.LFE123
 1268 008e 0100     		.2byte	0x1
 1269 0090 54       		.byte	0x54
 1270 0091 00000000 		.4byte	0
 1271 0095 00000000 		.4byte	0
 1272              		.section	.debug_aranges,"",%progbits
 1273 0000 44000000 		.4byte	0x44
 1274 0004 0200     		.2byte	0x2
 1275 0006 00000000 		.4byte	.Ldebug_info0
 1276 000a 04       		.byte	0x4
 1277 000b 00       		.byte	0
 1278 000c 0000     		.2byte	0
 1279 000e 0000     		.2byte	0
 1280 0010 00000000 		.4byte	.LFB118
 1281 0014 04000000 		.4byte	.LFE118-.LFB118
 1282 0018 00000000 		.4byte	.LFB119
 1283 001c 0A000000 		.4byte	.LFE119-.LFB119
 1284 0020 00000000 		.4byte	.LFB120
 1285 0024 14000000 		.4byte	.LFE120-.LFB120
 1286 0028 00000000 		.4byte	.LFB121
 1287 002c 12000000 		.4byte	.LFE121-.LFB121
 1288 0030 00000000 		.4byte	.LFB122
 1289 0034 12000000 		.4byte	.LFE122-.LFB122
 1290 0038 00000000 		.4byte	.LFB123
 1291 003c 12000000 		.4byte	.LFE123-.LFB123
 1292 0040 00000000 		.4byte	0
 1293 0044 00000000 		.4byte	0
 1294              		.section	.debug_ranges,"",%progbits
 1295              	.Ldebug_ranges0:
 1296 0000 00000000 		.4byte	.LFB118
 1297 0004 04000000 		.4byte	.LFE118
 1298 0008 00000000 		.4byte	.LFB119
 1299 000c 0A000000 		.4byte	.LFE119
 1300 0010 00000000 		.4byte	.LFB120
 1301 0014 14000000 		.4byte	.LFE120
 1302 0018 00000000 		.4byte	.LFB121
 1303 001c 12000000 		.4byte	.LFE121
 1304 0020 00000000 		.4byte	.LFB122
 1305 0024 12000000 		.4byte	.LFE122
 1306 0028 00000000 		.4byte	.LFB123
 1307 002c 12000000 		.4byte	.LFE123
 1308 0030 00000000 		.4byte	0
 1309 0034 00000000 		.4byte	0
 1310              		.section	.debug_line,"",%progbits
 1311              	.Ldebug_line0:
ARM GAS  /var/folders/bz/nn5481rn5xq59rb0mbj7x0880000gn/T//ccHtnMdr.s 			page 24


 1312 0000 32020000 		.section	.debug_str,"MS",%progbits,1
 1312      0200B201 
 1312      00000201 
 1312      FB0E0D00 
 1312      01010101 
 1313              	.LASF60:
 1314 0000 69637553 		.ascii	"icuStop\000"
 1314      746F7000 
 1315              	.LASF64:
 1316 0008 6963755F 		.ascii	"icu_lld_stop\000"
 1316      6C6C645F 
 1316      73746F70 
 1316      00
 1317              	.LASF20:
 1318 0015 43434552 		.ascii	"CCER\000"
 1318      00
 1319              	.LASF38:
 1320 001a 77636372 		.ascii	"wccrp\000"
 1320      7000
 1321              	.LASF28:
 1322 0020 4943555F 		.ascii	"ICU_STOP\000"
 1322      53544F50 
 1322      00
 1323              	.LASF47:
 1324 0029 69637563 		.ascii	"icuchannel_t\000"
 1324      68616E6E 
 1324      656C5F74 
 1324      00
 1325              	.LASF63:
 1326 0036 6963755F 		.ascii	"icu_lld_start\000"
 1326      6C6C645F 
 1326      73746172 
 1326      7400
 1327              	.LASF22:
 1328 0044 444D4152 		.ascii	"DMAR\000"
 1328      00
 1329              	.LASF35:
 1330 0049 73746174 		.ascii	"state\000"
 1330      6500
 1331              	.LASF19:
 1332 004f 43434D52 		.ascii	"CCMR2\000"
 1332      3200
 1333              	.LASF23:
 1334 0055 43434D52 		.ascii	"CCMR3\000"
 1334      3300
 1335              	.LASF3:
 1336 005b 73686F72 		.ascii	"short int\000"
 1336      7420696E 
 1336      7400
 1337              	.LASF59:
 1338 0065 69637570 		.ascii	"icup\000"
 1338      00
 1339              	.LASF14:
 1340 006a 73697A65 		.ascii	"sizetype\000"
 1340      74797065 
 1340      00
 1341              	.LASF65:
ARM GAS  /var/folders/bz/nn5481rn5xq59rb0mbj7x0880000gn/T//ccHtnMdr.s 			page 25


 1342 0073 6963755F 		.ascii	"icu_lld_enable\000"
 1342      6C6C645F 
 1342      656E6162 
 1342      6C6500
 1343              	.LASF7:
 1344 0082 5F5F7569 		.ascii	"__uint32_t\000"
 1344      6E743332 
 1344      5F7400
 1345              	.LASF48:
 1346 008d 6D6F6465 		.ascii	"mode\000"
 1346      00
 1347              	.LASF71:
 1348 0092 6963755F 		.ascii	"icu_lld_disable\000"
 1348      6C6C645F 
 1348      64697361 
 1348      626C6500 
 1349              	.LASF36:
 1350 00a2 636F6E66 		.ascii	"config\000"
 1350      696700
 1351              	.LASF67:
 1352 00a9 6C69622F 		.ascii	"lib/ChibiOS_2.6.6/os/hal/src/icu.c\000"
 1352      43686962 
 1352      694F535F 
 1352      322E362E 
 1352      362F6F73 
 1353              	.LASF45:
 1354 00cc 4943555F 		.ascii	"ICU_CHANNEL_1\000"
 1354      4348414E 
 1354      4E454C5F 
 1354      3100
 1355              	.LASF46:
 1356 00da 4943555F 		.ascii	"ICU_CHANNEL_2\000"
 1356      4348414E 
 1356      4E454C5F 
 1356      3200
 1357              	.LASF56:
 1358 00e8 69637549 		.ascii	"icuInit\000"
 1358      6E697400 
 1359              	.LASF50:
 1360 00f0 77696474 		.ascii	"width_cb\000"
 1360      685F6362 
 1360      00
 1361              	.LASF31:
 1362 00f9 4943555F 		.ascii	"ICU_ACTIVE\000"
 1362      41435449 
 1362      564500
 1363              	.LASF9:
 1364 0104 6C6F6E67 		.ascii	"long long int\000"
 1364      206C6F6E 
 1364      6720696E 
 1364      7400
 1365              	.LASF10:
 1366 0112 6C6F6E67 		.ascii	"long long unsigned int\000"
 1366      206C6F6E 
 1366      6720756E 
 1366      7369676E 
 1366      65642069 
ARM GAS  /var/folders/bz/nn5481rn5xq59rb0mbj7x0880000gn/T//ccHtnMdr.s 			page 26


 1367              	.LASF43:
 1368 0129 6963756D 		.ascii	"icumode_t\000"
 1368      6F64655F 
 1368      7400
 1369              	.LASF15:
 1370 0133 63686172 		.ascii	"char\000"
 1370      00
 1371              	.LASF5:
 1372 0138 6C6F6E67 		.ascii	"long int\000"
 1372      20696E74 
 1372      00
 1373              	.LASF24:
 1374 0141 43435235 		.ascii	"CCR5\000"
 1374      00
 1375              	.LASF25:
 1376 0146 43435236 		.ascii	"CCR6\000"
 1376      00
 1377              	.LASF39:
 1378 014b 70636372 		.ascii	"pccrp\000"
 1378      7000
 1379              	.LASF18:
 1380 0151 43434D52 		.ascii	"CCMR1\000"
 1380      3100
 1381              	.LASF32:
 1382 0157 4943555F 		.ascii	"ICU_IDLE\000"
 1382      49444C45 
 1382      00
 1383              	.LASF66:
 1384 0160 474E5520 		.ascii	"GNU C 4.9.3 20150529 (release) [ARM/embedded-4_9-br"
 1384      4320342E 
 1384      392E3320 
 1384      32303135 
 1384      30353239 
 1385 0193 616E6368 		.ascii	"anch revision 224288] -mcpu=cortex-m4 -mfloat-abi=h"
 1385      20726576 
 1385      6973696F 
 1385      6E203232 
 1385      34323838 
 1386 01c6 61726420 		.ascii	"ard -mfpu=fpv4-sp-d16 -mno-thumb-interwork -mthumb "
 1386      2D6D6670 
 1386      753D6670 
 1386      76342D73 
 1386      702D6431 
 1387 01f9 2D676764 		.ascii	"-ggdb -O2 -std=gnu99 -fomit-frame-pointer -falign-f"
 1387      62202D4F 
 1387      32202D73 
 1387      74643D67 
 1387      6E753939 
 1388 022c 756E6374 		.ascii	"unctions=16 -ffunction-sections -fdata-sections -fn"
 1388      696F6E73 
 1388      3D313620 
 1388      2D666675 
 1388      6E637469 
 1389 025f 6F2D636F 		.ascii	"o-common -fsingle-precision-constant\000"
 1389      6D6D6F6E 
 1389      202D6673 
 1389      696E676C 
ARM GAS  /var/folders/bz/nn5481rn5xq59rb0mbj7x0880000gn/T//ccHtnMdr.s 			page 27


 1389      652D7072 
 1390              	.LASF2:
 1391 0284 756E7369 		.ascii	"unsigned char\000"
 1391      676E6564 
 1391      20636861 
 1391      7200
 1392              	.LASF55:
 1393 0292 49435543 		.ascii	"ICUConfig\000"
 1393      6F6E6669 
 1393      6700
 1394              	.LASF58:
 1395 029c 69637553 		.ascii	"icuStart\000"
 1395      74617274 
 1395      00
 1396              	.LASF61:
 1397 02a5 69637545 		.ascii	"icuEnable\000"
 1397      6E61626C 
 1397      6500
 1398              	.LASF1:
 1399 02af 7369676E 		.ascii	"signed char\000"
 1399      65642063 
 1399      68617200 
 1400              	.LASF70:
 1401 02bb 6963755F 		.ascii	"icu_lld_init\000"
 1401      6C6C645F 
 1401      696E6974 
 1401      00
 1402              	.LASF12:
 1403 02c8 75696E74 		.ascii	"uint32_t\000"
 1403      33325F74 
 1403      00
 1404              	.LASF0:
 1405 02d1 756E7369 		.ascii	"unsigned int\000"
 1405      676E6564 
 1405      20696E74 
 1405      00
 1406              	.LASF17:
 1407 02de 44494552 		.ascii	"DIER\000"
 1407      00
 1408              	.LASF44:
 1409 02e3 69637566 		.ascii	"icufreq_t\000"
 1409      7265715F 
 1409      7400
 1410              	.LASF4:
 1411 02ed 73686F72 		.ascii	"short unsigned int\000"
 1411      7420756E 
 1411      7369676E 
 1411      65642069 
 1411      6E7400
 1412              	.LASF42:
 1413 0300 4943555F 		.ascii	"ICU_INPUT_ACTIVE_LOW\000"
 1413      494E5055 
 1413      545F4143 
 1413      54495645 
 1413      5F4C4F57 
 1414              	.LASF40:
 1415 0315 69637563 		.ascii	"icucallback_t\000"
ARM GAS  /var/folders/bz/nn5481rn5xq59rb0mbj7x0880000gn/T//ccHtnMdr.s 			page 28


 1415      616C6C62 
 1415      61636B5F 
 1415      7400
 1416              	.LASF26:
 1417 0323 73746D33 		.ascii	"stm32_tim_t\000"
 1417      325F7469 
 1417      6D5F7400 
 1418              	.LASF51:
 1419 032f 70657269 		.ascii	"period_cb\000"
 1419      6F645F63 
 1419      6200
 1420              	.LASF21:
 1421 0339 42445452 		.ascii	"BDTR\000"
 1421      00
 1422              	.LASF11:
 1423 033e 696E7433 		.ascii	"int32_t\000"
 1423      325F7400 
 1424              	.LASF13:
 1425 0346 5F426F6F 		.ascii	"_Bool\000"
 1425      6C00
 1426              	.LASF53:
 1427 034c 6368616E 		.ascii	"channel\000"
 1427      6E656C00 
 1428              	.LASF62:
 1429 0354 69637544 		.ascii	"icuDisable\000"
 1429      69736162 
 1429      6C6500
 1430              	.LASF27:
 1431 035f 4943555F 		.ascii	"ICU_UNINIT\000"
 1431      554E494E 
 1431      495400
 1432              	.LASF16:
 1433 036a 534D4352 		.ascii	"SMCR\000"
 1433      00
 1434              	.LASF41:
 1435 036f 4943555F 		.ascii	"ICU_INPUT_ACTIVE_HIGH\000"
 1435      494E5055 
 1435      545F4143 
 1435      54495645 
 1435      5F484947 
 1436              	.LASF8:
 1437 0385 6C6F6E67 		.ascii	"long unsigned int\000"
 1437      20756E73 
 1437      69676E65 
 1437      6420696E 
 1437      7400
 1438              	.LASF37:
 1439 0397 636C6F63 		.ascii	"clock\000"
 1439      6B00
 1440              	.LASF68:
 1441 039d 2F557365 		.ascii	"/Users/imac/oroca_bldc_dev/oroca_bldc/\000"
 1441      72732F69 
 1441      6D61632F 
 1441      6F726F63 
 1441      615F626C 
 1442              	.LASF52:
 1443 03c4 6F766572 		.ascii	"overflow_cb\000"
ARM GAS  /var/folders/bz/nn5481rn5xq59rb0mbj7x0880000gn/T//ccHtnMdr.s 			page 29


 1443      666C6F77 
 1443      5F636200 
 1444              	.LASF6:
 1445 03d0 5F5F696E 		.ascii	"__int32_t\000"
 1445      7433325F 
 1445      7400
 1446              	.LASF54:
 1447 03da 64696572 		.ascii	"dier\000"
 1447      00
 1448              	.LASF34:
 1449 03df 49435544 		.ascii	"ICUDriver\000"
 1449      72697665 
 1449      7200
 1450              	.LASF49:
 1451 03e9 66726571 		.ascii	"frequency\000"
 1451      75656E63 
 1451      7900
 1452              	.LASF29:
 1453 03f3 4943555F 		.ascii	"ICU_READY\000"
 1453      52454144 
 1453      5900
 1454              	.LASF57:
 1455 03fd 6963754F 		.ascii	"icuObjectInit\000"
 1455      626A6563 
 1455      74496E69 
 1455      7400
 1456              	.LASF69:
 1457 040b 49544D5F 		.ascii	"ITM_RxBuffer\000"
 1457      52784275 
 1457      66666572 
 1457      00
 1458              	.LASF33:
 1459 0418 69637573 		.ascii	"icustate_t\000"
 1459      74617465 
 1459      5F7400
 1460              	.LASF30:
 1461 0423 4943555F 		.ascii	"ICU_WAITING\000"
 1461      57414954 
 1461      494E4700 
 1462              		.ident	"GCC: (GNU Tools for ARM Embedded Processors) 4.9.3 20150529 (release) [ARM/embedded-4_9-br
ARM GAS  /var/folders/bz/nn5481rn5xq59rb0mbj7x0880000gn/T//ccHtnMdr.s 			page 30


DEFINED SYMBOLS
                            *ABS*:0000000000000000 icu.c
/var/folders/bz/nn5481rn5xq59rb0mbj7x0880000gn/T//ccHtnMdr.s:21     .text.icuInit:0000000000000000 $t
/var/folders/bz/nn5481rn5xq59rb0mbj7x0880000gn/T//ccHtnMdr.s:27     .text.icuInit:0000000000000000 icuInit
/var/folders/bz/nn5481rn5xq59rb0mbj7x0880000gn/T//ccHtnMdr.s:42     .text.icuObjectInit:0000000000000000 $t
/var/folders/bz/nn5481rn5xq59rb0mbj7x0880000gn/T//ccHtnMdr.s:48     .text.icuObjectInit:0000000000000000 icuObjectInit
/var/folders/bz/nn5481rn5xq59rb0mbj7x0880000gn/T//ccHtnMdr.s:69     .text.icuStart:0000000000000000 $t
/var/folders/bz/nn5481rn5xq59rb0mbj7x0880000gn/T//ccHtnMdr.s:75     .text.icuStart:0000000000000000 icuStart
/var/folders/bz/nn5481rn5xq59rb0mbj7x0880000gn/T//ccHtnMdr.s:111    .text.icuStop:0000000000000000 $t
/var/folders/bz/nn5481rn5xq59rb0mbj7x0880000gn/T//ccHtnMdr.s:117    .text.icuStop:0000000000000000 icuStop
/var/folders/bz/nn5481rn5xq59rb0mbj7x0880000gn/T//ccHtnMdr.s:151    .text.icuEnable:0000000000000000 $t
/var/folders/bz/nn5481rn5xq59rb0mbj7x0880000gn/T//ccHtnMdr.s:157    .text.icuEnable:0000000000000000 icuEnable
/var/folders/bz/nn5481rn5xq59rb0mbj7x0880000gn/T//ccHtnMdr.s:191    .text.icuDisable:0000000000000000 $t
/var/folders/bz/nn5481rn5xq59rb0mbj7x0880000gn/T//ccHtnMdr.s:197    .text.icuDisable:0000000000000000 icuDisable
                     .debug_frame:0000000000000010 $d

UNDEFINED SYMBOLS
icu_lld_init
icu_lld_start
icu_lld_stop
icu_lld_enable
icu_lld_disable
