ARM GAS  /var/folders/bz/nn5481rn5xq59rb0mbj7x0880000gn/T//ccHtnMdr.s 			page 1


   1              		.syntax unified
   2              		.cpu cortex-m4
   3              		.eabi_attribute 27, 1
   4              		.eabi_attribute 28, 1
   5              		.fpu fpv4-sp-d16
   6              		.eabi_attribute 20, 1
   7              		.eabi_attribute 21, 1
   8              		.eabi_attribute 23, 3
   9              		.eabi_attribute 24, 1
  10              		.eabi_attribute 25, 1
  11              		.eabi_attribute 26, 1
  12              		.eabi_attribute 30, 2
  13              		.eabi_attribute 34, 1
  14              		.eabi_attribute 18, 4
  15              		.thumb
  16              		.file	"icu.c"
  17              		.text
  18              	.Ltext0:
  19              		.cfi_sections	.debug_frame
  20              		.section	.text.icuInit,"ax",%progbits
  21              		.align	2
  22              		.p2align 4,,15
  23              		.global	icuInit
  24              		.thumb
  25              		.thumb_func
  26              		.type	icuInit, %function
  27              	icuInit:
  28              	.LFB118:
  29              		.file 1 "lib/ChibiOS_2.6.6/os/hal/src/icu.c"
  30              		.loc 1 68 0
  31              		.cfi_startproc
  32              		@ args = 0, pretend = 0, frame = 0
  33              		@ frame_needed = 0, uses_anonymous_args = 0
  34              		@ link register save eliminated.
  35              		.loc 1 70 0
  36 0000 FFF7FEBF 		b	icu_lld_init
  37              	.LVL0:
  38              		.cfi_endproc
  39              	.LFE118:
  40              		.size	icuInit, .-icuInit
  41              		.section	.text.icuObjectInit,"ax",%progbits
  42              		.align	2
  43              		.p2align 4,,15
  44              		.global	icuObjectInit
  45              		.thumb
  46              		.thumb_func
  47              		.type	icuObjectInit, %function
  48              	icuObjectInit:
  49              	.LFB119:
  50              		.loc 1 80 0
  51              		.cfi_startproc
  52              		@ args = 0, pretend = 0, frame = 0
  53              		@ frame_needed = 0, uses_anonymous_args = 0
  54              		@ link register save eliminated.
  55              	.LVL1:
  56              		.loc 1 82 0
  57 0000 0122     		movs	r2, #1
ARM GAS  /var/folders/bz/nn5481rn5xq59rb0mbj7x0880000gn/T//ccHtnMdr.s 			page 2


  58              		.loc 1 83 0
  59 0002 0023     		movs	r3, #0
  60              		.loc 1 82 0
  61 0004 0270     		strb	r2, [r0]
  62              		.loc 1 83 0
  63 0006 4360     		str	r3, [r0, #4]
  64 0008 7047     		bx	lr
  65              		.cfi_endproc
  66              	.LFE119:
  67              		.size	icuObjectInit, .-icuObjectInit
  68 000a 00BF     		.section	.text.icuStart,"ax",%progbits
  69              		.align	2
  70              		.p2align 4,,15
  71              		.global	icuStart
  72              		.thumb
  73              		.thumb_func
  74              		.type	icuStart, %function
  75              	icuStart:
  76              	.LFB120:
  77              		.loc 1 94 0
  78              		.cfi_startproc
  79              		@ args = 0, pretend = 0, frame = 0
  80              		@ frame_needed = 0, uses_anonymous_args = 0
  81              	.LVL2:
  82 0000 10B5     		push	{r4, lr}
  83              		.cfi_def_cfa_offset 8
  84              		.cfi_offset 4, -8
  85              		.cfi_offset 14, -4
  86              		.loc 1 94 0
  87 0002 0446     		mov	r4, r0
  88              		.loc 1 98 0
  89              	@ 98 "lib/ChibiOS_2.6.6/os/hal/src/icu.c" 1
  90 0004 72B6     		cpsid   i
  91              	@ 0 "" 2
  92              		.loc 1 101 0
  93              		.thumb
  94 0006 4160     		str	r1, [r0, #4]
  95              		.loc 1 102 0
  96 0008 FFF7FEFF 		bl	icu_lld_start
  97              	.LVL3:
  98              		.loc 1 103 0
  99 000c 0223     		movs	r3, #2
 100 000e 2370     		strb	r3, [r4]
 101              		.loc 1 104 0
 102              	@ 104 "lib/ChibiOS_2.6.6/os/hal/src/icu.c" 1
 103 0010 62B6     		cpsie   i
 104              	@ 0 "" 2
 105              		.thumb
 106 0012 10BD     		pop	{r4, pc}
 107              		.cfi_endproc
 108              	.LFE120:
 109              		.size	icuStart, .-icuStart
 110              		.section	.text.icuStop,"ax",%progbits
 111              		.align	2
 112              		.p2align 4,,15
 113              		.global	icuStop
 114              		.thumb
ARM GAS  /var/folders/bz/nn5481rn5xq59rb0mbj7x0880000gn/T//ccHtnMdr.s 			page 3


 115              		.thumb_func
 116              		.type	icuStop, %function
 117              	icuStop:
 118              	.LFB121:
 119              		.loc 1 114 0
 120              		.cfi_startproc
 121              		@ args = 0, pretend = 0, frame = 0
 122              		@ frame_needed = 0, uses_anonymous_args = 0
 123              	.LVL4:
 124 0000 10B5     		push	{r4, lr}
 125              		.cfi_def_cfa_offset 8
 126              		.cfi_offset 4, -8
 127              		.cfi_offset 14, -4
 128              		.loc 1 114 0
 129 0002 0446     		mov	r4, r0
 130              		.loc 1 118 0
 131              	@ 118 "lib/ChibiOS_2.6.6/os/hal/src/icu.c" 1
 132 0004 72B6     		cpsid   i
 133              	@ 0 "" 2
 134              		.loc 1 121 0
 135              		.thumb
 136 0006 FFF7FEFF 		bl	icu_lld_stop
 137              	.LVL5:
 138              		.loc 1 122 0
 139 000a 0123     		movs	r3, #1
 140 000c 2370     		strb	r3, [r4]
 141              		.loc 1 123 0
 142              	@ 123 "lib/ChibiOS_2.6.6/os/hal/src/icu.c" 1
 143 000e 62B6     		cpsie   i
 144              	@ 0 "" 2
 145              		.thumb
 146 0010 10BD     		pop	{r4, pc}
 147              		.cfi_endproc
 148              	.LFE121:
 149              		.size	icuStop, .-icuStop
 150 0012 00BF     		.section	.text.icuEnable,"ax",%progbits
 151              		.align	2
 152              		.p2align 4,,15
 153              		.global	icuEnable
 154              		.thumb
 155              		.thumb_func
 156              		.type	icuEnable, %function
 157              	icuEnable:
 158              	.LFB122:
 159              		.loc 1 133 0
 160              		.cfi_startproc
 161              		@ args = 0, pretend = 0, frame = 0
 162              		@ frame_needed = 0, uses_anonymous_args = 0
 163              	.LVL6:
 164 0000 10B5     		push	{r4, lr}
 165              		.cfi_def_cfa_offset 8
 166              		.cfi_offset 4, -8
 167              		.cfi_offset 14, -4
 168              		.loc 1 133 0
 169 0002 0446     		mov	r4, r0
 170              		.loc 1 137 0
 171              	@ 137 "lib/ChibiOS_2.6.6/os/hal/src/icu.c" 1
ARM GAS  /var/folders/bz/nn5481rn5xq59rb0mbj7x0880000gn/T//ccHtnMdr.s 			page 4


 172 0004 72B6     		cpsid   i
 173              	@ 0 "" 2
 174              		.loc 1 139 0
 175              		.thumb
 176 0006 FFF7FEFF 		bl	icu_lld_enable
 177              	.LVL7:
 178              		.loc 1 140 0
 179 000a 0323     		movs	r3, #3
 180 000c 2370     		strb	r3, [r4]
 181              		.loc 1 141 0
 182              	@ 141 "lib/ChibiOS_2.6.6/os/hal/src/icu.c" 1
 183 000e 62B6     		cpsie   i
 184              	@ 0 "" 2
 185              		.thumb
 186 0010 10BD     		pop	{r4, pc}
 187              		.cfi_endproc
 188              	.LFE122:
 189              		.size	icuEnable, .-icuEnable
 190 0012 00BF     		.section	.text.icuDisable,"ax",%progbits
 191              		.align	2
 192              		.p2align 4,,15
 193              		.global	icuDisable
 194              		.thumb
 195              		.thumb_func
 196              		.type	icuDisable, %function
 197              	icuDisable:
 198              	.LFB123:
 199              		.loc 1 151 0
 200              		.cfi_startproc
 201              		@ args = 0, pretend = 0, frame = 0
 202              		@ frame_needed = 0, uses_anonymous_args = 0
 203              	.LVL8:
 204 0000 10B5     		push	{r4, lr}
 205              		.cfi_def_cfa_offset 8
 206              		.cfi_offset 4, -8
 207              		.cfi_offset 14, -4
 208              		.loc 1 151 0
 209 0002 0446     		mov	r4, r0
 210              		.loc 1 155 0
 211              	@ 155 "lib/ChibiOS_2.6.6/os/hal/src/icu.c" 1
 212 0004 72B6     		cpsid   i
 213              	@ 0 "" 2
 214              		.loc 1 159 0
 215              		.thumb
 216 0006 FFF7FEFF 		bl	icu_lld_disable
 217              	.LVL9:
 218              		.loc 1 160 0
 219 000a 0223     		movs	r3, #2
 220 000c 2370     		strb	r3, [r4]
 221              		.loc 1 161 0
 222              	@ 161 "lib/ChibiOS_2.6.6/os/hal/src/icu.c" 1
 223 000e 62B6     		cpsie   i
 224              	@ 0 "" 2
 225              		.thumb
 226 0010 10BD     		pop	{r4, pc}
 227              		.cfi_endproc
 228              	.LFE123:
ARM GAS  /var/folders/bz/nn5481rn5xq59rb0mbj7x0880000gn/T//ccHtnMdr.s 			page 5


 229              		.size	icuDisable, .-icuDisable
 230 0012 00BF     		.text
 231              	.Letext0:
 232              		.file 2 "/Users/imac/Downloads/gcc-arm-none-eabi-4_9-2015q2/arm-none-eabi/include/machine/_default
 233              		.file 3 "/Users/imac/Downloads/gcc-arm-none-eabi-4_9-2015q2/arm-none-eabi/include/sys/_stdint.h"
 234              		.file 4 "lib/ChibiOS_2.6.6/os/hal/platforms/STM32/TIMv1/stm32_tim.h"
 235              		.file 5 "lib/ChibiOS_2.6.6/os/hal/include/icu.h"
 236              		.file 6 "lib/ChibiOS_2.6.6/os/hal/platforms/STM32/TIMv1/icu_lld.h"
 237              		.file 7 "lib/ChibiOS_2.6.6/os/ports/common/ARMCMx/CMSIS/include/core_cm4.h"