ARM GAS  /var/folders/bz/nn5481rn5xq59rb0mbj7x0880000gn/T//ccVwe4HQ.s 			page 1


   1              		.syntax unified
   2              		.cpu cortex-m4
   3              		.eabi_attribute 27, 1
   4              		.eabi_attribute 28, 1
   5              		.fpu fpv4-sp-d16
   6              		.eabi_attribute 20, 1
   7              		.eabi_attribute 21, 1
   8              		.eabi_attribute 23, 3
   9              		.eabi_attribute 24, 1
  10              		.eabi_attribute 25, 1
  11              		.eabi_attribute 26, 1
  12              		.eabi_attribute 30, 2
  13              		.eabi_attribute 34, 1
  14              		.eabi_attribute 18, 4
  15              		.thumb
  16              		.file	"icu_lld.c"
  17              		.text
  18              	.Ltext0:
  19              		.cfi_sections	.debug_frame
  20              		.section	.text.VectorB4,"ax",%progbits
  21              		.align	2
  22              		.p2align 4,,15
  23              		.global	VectorB4
  24              		.thumb
  25              		.thumb_func
  26              		.type	VectorB4, %function
  27              	VectorB4:
  28              	.LFB119:
  29              		.file 1 "lib/ChibiOS_2.6.6/os/hal/platforms/STM32/TIMv1/icu_lld.c"
  30              		.loc 1 212 0
  31              		.cfi_startproc
  32              		@ args = 0, pretend = 0, frame = 0
  33              		@ frame_needed = 0, uses_anonymous_args = 0
  34              	.LVL0:
  35 0000 38B5     		push	{r3, r4, r5, lr}
  36              		.cfi_def_cfa_offset 16
  37              		.cfi_offset 3, -16
  38              		.cfi_offset 4, -12
  39              		.cfi_offset 5, -8
  40              		.cfi_offset 14, -4
  41              	.LBB8:
  42              	.LBB9:
  43              		.loc 1 114 0
  44 0002 224D     		ldr	r5, .L35
  45 0004 EB68     		ldr	r3, [r5, #12]
  46              		.loc 1 117 0
  47 0006 6968     		ldr	r1, [r5, #4]
  48              		.loc 1 114 0
  49 0008 1C69     		ldr	r4, [r3, #16]
  50              	.LVL1:
  51              		.loc 1 115 0
  52 000a DA68     		ldr	r2, [r3, #12]
  53              		.loc 1 117 0
  54 000c 087D     		ldrb	r0, [r1, #20]	@ zero_extendqisi2
  55              		.loc 1 115 0
  56 000e D2B2     		uxtb	r2, r2
  57 0010 1440     		ands	r4, r4, r2
ARM GAS  /var/folders/bz/nn5481rn5xq59rb0mbj7x0880000gn/T//ccVwe4HQ.s 			page 2


  58              	.LVL2:
  59              		.loc 1 116 0
  60 0012 E243     		mvns	r2, r4
  61 0014 1A61     		str	r2, [r3, #16]
  62              		.loc 1 117 0
  63 0016 A8B9     		cbnz	r0, .L2
  64              		.loc 1 118 0
  65 0018 A207     		lsls	r2, r4, #30
  66 001a 07D5     		bpl	.L3
  67              	.LBB10:
  68              		.loc 1 119 0
  69 001c 2B78     		ldrb	r3, [r5]	@ zero_extendqisi2
  70              	.LVL3:
  71 001e 0422     		movs	r2, #4
  72 0020 032B     		cmp	r3, #3
  73 0022 2A70     		strb	r2, [r5]
  74 0024 2FD0     		beq	.L4
  75 0026 CB68     		ldr	r3, [r1, #12]
  76              	.LVL4:
  77 0028 2846     		mov	r0, r5
  78 002a 9847     		blx	r3
  79              	.LVL5:
  80              	.L3:
  81              	.LBE10:
  82              		.loc 1 120 0
  83 002c 6307     		lsls	r3, r4, #29
  84 002e 1FD4     		bmi	.L34
  85              	.L6:
  86              		.loc 1 128 0
  87 0030 E207     		lsls	r2, r4, #31
  88 0032 03D5     		bpl	.L9
  89              		.loc 1 129 0
  90 0034 6B68     		ldr	r3, [r5, #4]
  91 0036 1548     		ldr	r0, .L35
  92 0038 1B69     		ldr	r3, [r3, #16]
  93 003a 9847     		blx	r3
  94              	.LVL6:
  95              	.L9:
  96              	.LBE9:
  97              	.LBE8:
  98              		.loc 1 219 0
  99 003c BDE83840 		pop	{r3, r4, r5, lr}
 100              		.cfi_remember_state
 101              		.cfi_restore 14
 102              		.cfi_restore 5
 103              		.cfi_restore 4
 104              		.cfi_restore 3
 105              		.cfi_def_cfa_offset 0
 106              	.LVL7:
 107              		.loc 1 218 0
 108 0040 FFF7FEBF 		b	_port_irq_epilogue
 109              	.LVL8:
 110              	.L2:
 111              		.cfi_restore_state
 112              	.LBB13:
 113              	.LBB12:
 114              		.loc 1 123 0
ARM GAS  /var/folders/bz/nn5481rn5xq59rb0mbj7x0880000gn/T//ccVwe4HQ.s 			page 3


 115 0044 A007     		lsls	r0, r4, #30
 116 0046 07D5     		bpl	.L8
 117              		.loc 1 124 0
 118 0048 2B78     		ldrb	r3, [r5]	@ zero_extendqisi2
 119 004a 032B     		cmp	r3, #3
 120 004c 04D0     		beq	.L8
 121 004e 0522     		movs	r2, #5
 122 0050 8B68     		ldr	r3, [r1, #8]
 123 0052 2A70     		strb	r2, [r5]
 124 0054 2846     		mov	r0, r5
 125 0056 9847     		blx	r3
 126              	.LVL9:
 127              	.L8:
 128              		.loc 1 125 0
 129 0058 6107     		lsls	r1, r4, #29
 130 005a E9D5     		bpl	.L6
 131              	.LBB11:
 132              		.loc 1 126 0
 133 005c 2B78     		ldrb	r3, [r5]	@ zero_extendqisi2
 134              	.LVL10:
 135 005e 0B48     		ldr	r0, .L35
 136 0060 0422     		movs	r2, #4
 137 0062 032B     		cmp	r3, #3
 138 0064 2A70     		strb	r2, [r5]
 139 0066 E3D0     		beq	.L6
 140 0068 4368     		ldr	r3, [r0, #4]
 141              	.LVL11:
 142 006a DB68     		ldr	r3, [r3, #12]
 143 006c 9847     		blx	r3
 144              	.LVL12:
 145 006e DFE7     		b	.L6
 146              	.L34:
 147              	.LBE11:
 148              		.loc 1 121 0
 149 0070 2B78     		ldrb	r3, [r5]	@ zero_extendqisi2
 150 0072 064A     		ldr	r2, .L35
 151 0074 032B     		cmp	r3, #3
 152 0076 DBD0     		beq	.L6
 153 0078 5168     		ldr	r1, [r2, #4]
 154              	.L10:
 155 007a 8B68     		ldr	r3, [r1, #8]
 156 007c 0348     		ldr	r0, .L35
 157 007e 0522     		movs	r2, #5
 158 0080 2A70     		strb	r2, [r5]
 159 0082 9847     		blx	r3
 160              	.LVL13:
 161 0084 D4E7     		b	.L6
 162              	.LVL14:
 163              	.L4:
 164              		.loc 1 120 0
 165 0086 6307     		lsls	r3, r4, #29
 166              	.LVL15:
 167 0088 F7D4     		bmi	.L10
 168 008a D1E7     		b	.L6
 169              	.L36:
 170              		.align	2
 171              	.L35:
ARM GAS  /var/folders/bz/nn5481rn5xq59rb0mbj7x0880000gn/T//ccVwe4HQ.s 			page 4


 172 008c 00000000 		.word	.LANCHOR0
 173              	.LBE12:
 174              	.LBE13:
 175              		.cfi_endproc
 176              	.LFE119:
 177              		.size	VectorB4, .-VectorB4
 178              		.section	.text.icu_lld_init,"ax",%progbits
 179              		.align	2
 180              		.p2align 4,,15
 181              		.global	icu_lld_init
 182              		.thumb
 183              		.thumb_func
 184              		.type	icu_lld_init, %function
 185              	icu_lld_init:
 186              	.LFB120:
 187              		.loc 1 339 0
 188              		.cfi_startproc
 189              		@ args = 0, pretend = 0, frame = 0
 190              		@ frame_needed = 0, uses_anonymous_args = 0
 191 0000 10B5     		push	{r4, lr}
 192              		.cfi_def_cfa_offset 8
 193              		.cfi_offset 4, -8
 194              		.cfi_offset 14, -4
 195              		.loc 1 355 0
 196 0002 034C     		ldr	r4, .L39
 197 0004 2046     		mov	r0, r4
 198 0006 FFF7FEFF 		bl	icuObjectInit
 199              	.LVL16:
 200              		.loc 1 356 0
 201 000a 024B     		ldr	r3, .L39+4
 202 000c E360     		str	r3, [r4, #12]
 203 000e 10BD     		pop	{r4, pc}
 204              	.L40:
 205              		.align	2
 206              	.L39:
 207 0010 00000000 		.word	.LANCHOR0
 208 0014 00040040 		.word	1073742848
 209              		.cfi_endproc
 210              	.LFE120:
 211              		.size	icu_lld_init, .-icu_lld_init
 212              		.section	.text.icu_lld_start,"ax",%progbits
 213              		.align	2
 214              		.p2align 4,,15
 215              		.global	icu_lld_start
 216              		.thumb
 217              		.thumb_func
 218              		.type	icu_lld_start, %function
 219              	icu_lld_start:
 220              	.LFB121:
 221              		.loc 1 391 0
 222              		.cfi_startproc
 223              		@ args = 0, pretend = 0, frame = 0
 224              		@ frame_needed = 0, uses_anonymous_args = 0
 225              	.LVL17:
 226 0000 F8B5     		push	{r3, r4, r5, r6, r7, lr}
 227              		.cfi_def_cfa_offset 24
 228              		.cfi_offset 3, -24
ARM GAS  /var/folders/bz/nn5481rn5xq59rb0mbj7x0880000gn/T//ccVwe4HQ.s 			page 5


 229              		.cfi_offset 4, -20
 230              		.cfi_offset 5, -16
 231              		.cfi_offset 6, -12
 232              		.cfi_offset 7, -8
 233              		.cfi_offset 14, -4
 234              		.loc 1 398 0
 235 0002 0378     		ldrb	r3, [r0]	@ zero_extendqisi2
 236 0004 012B     		cmp	r3, #1
 237              		.loc 1 391 0
 238 0006 0446     		mov	r4, r0
 239              		.loc 1 398 0
 240 0008 3BD0     		beq	.L53
 241              		.loc 1 478 0
 242 000a C368     		ldr	r3, [r0, #12]
 243 000c 0022     		movs	r2, #0
 244 000e 1A60     		str	r2, [r3]
 245              		.loc 1 479 0
 246 0010 5A63     		str	r2, [r3, #52]
 247              		.loc 1 480 0
 248 0012 9A63     		str	r2, [r3, #56]
 249              		.loc 1 481 0
 250 0014 5A62     		str	r2, [r3, #36]
 251              	.LVL18:
 252              	.L44:
 253              		.loc 1 486 0
 254 0016 6168     		ldr	r1, [r4, #4]
 255              		.loc 1 488 0
 256 0018 A268     		ldr	r2, [r4, #8]
 257              		.loc 1 486 0
 258 001a 8869     		ldr	r0, [r1, #24]
 259              		.loc 1 488 0
 260 001c 4E68     		ldr	r6, [r1, #4]
 261              		.loc 1 495 0
 262 001e 0D7D     		ldrb	r5, [r1, #20]	@ zero_extendqisi2
 263              		.loc 1 488 0
 264 0020 B2FBF6F2 		udiv	r2, r2, r6
 265 0024 013A     		subs	r2, r2, #1
 266              		.loc 1 492 0
 267 0026 92B2     		uxth	r2, r2
 268              		.loc 1 486 0
 269 0028 20F0FF00 		bic	r0, r0, #255
 270              		.loc 1 485 0
 271 002c 0027     		movs	r7, #0
 272              		.loc 1 493 0
 273 002e 4FF6FF76 		movw	r6, #65535
 274              		.loc 1 485 0
 275 0032 1F61     		str	r7, [r3, #16]
 276              		.loc 1 486 0
 277 0034 D860     		str	r0, [r3, #12]
 278              	.LVL19:
 279              		.loc 1 492 0
 280 0036 9A62     		str	r2, [r3, #40]
 281              	.LVL20:
 282              		.loc 1 493 0
 283 0038 DE62     		str	r6, [r3, #44]
 284              		.loc 1 508 0
 285 003a 0A78     		ldrb	r2, [r1]	@ zero_extendqisi2
ARM GAS  /var/folders/bz/nn5481rn5xq59rb0mbj7x0880000gn/T//ccVwe4HQ.s 			page 6


 286              		.loc 1 495 0
 287 003c 6DB9     		cbnz	r5, .L45
 288              		.loc 1 499 0
 289 003e 40F20120 		movw	r0, #513
 290              		.loc 1 503 0
 291 0042 5421     		movs	r1, #84
 292              		.loc 1 499 0
 293 0044 9861     		str	r0, [r3, #24]
 294              		.loc 1 503 0
 295 0046 9960     		str	r1, [r3, #8]
 296              		.loc 1 508 0
 297 0048 C2B1     		cbz	r2, .L54
 298              		.loc 1 512 0
 299 004a 1322     		movs	r2, #19
 300 004c 1A62     		str	r2, [r3, #32]
 301              	.L47:
 302              		.loc 1 517 0
 303 004e 03F13802 		add	r2, r3, #56
 304              		.loc 1 518 0
 305 0052 3433     		adds	r3, r3, #52
 306              		.loc 1 517 0
 307 0054 2261     		str	r2, [r4, #16]
 308              		.loc 1 518 0
 309 0056 6361     		str	r3, [r4, #20]
 310 0058 F8BD     		pop	{r3, r4, r5, r6, r7, pc}
 311              	.LVL21:
 312              	.L45:
 313              		.loc 1 523 0
 314 005a 4FF48170 		mov	r0, #258
 315              		.loc 1 527 0
 316 005e 6421     		movs	r1, #100
 317              		.loc 1 523 0
 318 0060 9861     		str	r0, [r3, #24]
 319              		.loc 1 527 0
 320 0062 9960     		str	r1, [r3, #8]
 321              		.loc 1 532 0
 322 0064 3AB1     		cbz	r2, .L55
 323              		.loc 1 536 0
 324 0066 3122     		movs	r2, #49
 325 0068 1A62     		str	r2, [r3, #32]
 326              	.L50:
 327              		.loc 1 541 0
 328 006a 03F13402 		add	r2, r3, #52
 329              		.loc 1 542 0
 330 006e 3833     		adds	r3, r3, #56
 331              		.loc 1 541 0
 332 0070 2261     		str	r2, [r4, #16]
 333              		.loc 1 542 0
 334 0072 6361     		str	r3, [r4, #20]
 335 0074 F8BD     		pop	{r3, r4, r5, r6, r7, pc}
 336              	.LVL22:
 337              	.L55:
 338              		.loc 1 533 0
 339 0076 1322     		movs	r2, #19
 340 0078 1A62     		str	r2, [r3, #32]
 341 007a F6E7     		b	.L50
 342              	.L54:
ARM GAS  /var/folders/bz/nn5481rn5xq59rb0mbj7x0880000gn/T//ccVwe4HQ.s 			page 7


 343              		.loc 1 509 0
 344 007c 3122     		movs	r2, #49
 345 007e 1A62     		str	r2, [r3, #32]
 346 0080 E5E7     		b	.L47
 347              	.LVL23:
 348              	.L53:
 349              		.loc 1 425 0
 350 0082 0B4B     		ldr	r3, .L57
 351 0084 9842     		cmp	r0, r3
 352 0086 01D0     		beq	.L56
 353              	.LVL24:
 354              	.L52:
 355 0088 E368     		ldr	r3, [r4, #12]
 356 008a C4E7     		b	.L44
 357              	.LVL25:
 358              	.L56:
 359              		.loc 1 426 0
 360 008c 094B     		ldr	r3, .L57+4
 361 008e 1A6C     		ldr	r2, [r3, #64]
 362 0090 42F00202 		orr	r2, r2, #2
 363 0094 1A64     		str	r2, [r3, #64]
 364              		.loc 1 427 0
 365 0096 1A6A     		ldr	r2, [r3, #32]
 366 0098 0021     		movs	r1, #0
 367 009a 42F00202 		orr	r2, r2, #2
 368 009e 1A62     		str	r2, [r3, #32]
 369              		.loc 1 428 0
 370 00a0 1D20     		movs	r0, #29
 371              	.LVL26:
 372              		.loc 1 427 0
 373 00a2 1962     		str	r1, [r3, #32]
 374              		.loc 1 428 0
 375 00a4 7021     		movs	r1, #112
 376 00a6 FFF7FEFF 		bl	nvicEnableVector
 377              	.LVL27:
 378              		.loc 1 430 0
 379 00aa 034B     		ldr	r3, .L57+8
 380 00ac A360     		str	r3, [r4, #8]
 381 00ae EBE7     		b	.L52
 382              	.L58:
 383              		.align	2
 384              	.L57:
 385 00b0 00000000 		.word	.LANCHOR0
 386 00b4 00380240 		.word	1073887232
 387 00b8 00BD0105 		.word	84000000
 388              		.cfi_endproc
 389              	.LFE121:
 390              		.size	icu_lld_start, .-icu_lld_start
 391              		.section	.text.icu_lld_stop,"ax",%progbits
 392              		.align	2
 393              		.p2align 4,,15
 394              		.global	icu_lld_stop
 395              		.thumb
 396              		.thumb_func
 397              		.type	icu_lld_stop, %function
 398              	icu_lld_stop:
 399              	.LFB122:
ARM GAS  /var/folders/bz/nn5481rn5xq59rb0mbj7x0880000gn/T//ccVwe4HQ.s 			page 8


 400              		.loc 1 553 0
 401              		.cfi_startproc
 402              		@ args = 0, pretend = 0, frame = 0
 403              		@ frame_needed = 0, uses_anonymous_args = 0
 404              	.LVL28:
 405 0000 08B5     		push	{r3, lr}
 406              		.cfi_def_cfa_offset 8
 407              		.cfi_offset 3, -8
 408              		.cfi_offset 14, -4
 409              		.loc 1 555 0
 410 0002 0378     		ldrb	r3, [r0]	@ zero_extendqisi2
 411 0004 022B     		cmp	r3, #2
 412 0006 00D0     		beq	.L64
 413              	.LVL29:
 414              	.L59:
 415 0008 08BD     		pop	{r3, pc}
 416              	.LVL30:
 417              	.L64:
 418              		.loc 1 575 0
 419 000a 0849     		ldr	r1, .L65
 420              		.loc 1 557 0
 421 000c C368     		ldr	r3, [r0, #12]
 422 000e 0022     		movs	r2, #0
 423              		.loc 1 575 0
 424 0010 8842     		cmp	r0, r1
 425              		.loc 1 557 0
 426 0012 1A60     		str	r2, [r3]
 427              		.loc 1 558 0
 428 0014 DA60     		str	r2, [r3, #12]
 429              		.loc 1 559 0
 430 0016 1A61     		str	r2, [r3, #16]
 431              		.loc 1 575 0
 432 0018 F6D1     		bne	.L59
 433              		.loc 1 576 0
 434 001a 1D20     		movs	r0, #29
 435              	.LVL31:
 436 001c FFF7FEFF 		bl	nvicDisableVector
 437              	.LVL32:
 438              		.loc 1 577 0
 439 0020 034A     		ldr	r2, .L65+4
 440 0022 136C     		ldr	r3, [r2, #64]
 441 0024 23F00203 		bic	r3, r3, #2
 442 0028 1364     		str	r3, [r2, #64]
 443 002a EDE7     		b	.L59
 444              	.L66:
 445              		.align	2
 446              	.L65:
 447 002c 00000000 		.word	.LANCHOR0
 448 0030 00380240 		.word	1073887232
 449              		.cfi_endproc
 450              	.LFE122:
 451              		.size	icu_lld_stop, .-icu_lld_stop
 452              		.section	.text.icu_lld_enable,"ax",%progbits
 453              		.align	2
 454              		.p2align 4,,15
 455              		.global	icu_lld_enable
 456              		.thumb
ARM GAS  /var/folders/bz/nn5481rn5xq59rb0mbj7x0880000gn/T//ccVwe4HQ.s 			page 9


 457              		.thumb_func
 458              		.type	icu_lld_enable, %function
 459              	icu_lld_enable:
 460              	.LFB123:
 461              		.loc 1 615 0
 462              		.cfi_startproc
 463              		@ args = 0, pretend = 0, frame = 0
 464              		@ frame_needed = 0, uses_anonymous_args = 0
 465              		@ link register save eliminated.
 466              	.LVL33:
 467              		.loc 1 617 0
 468 0000 C368     		ldr	r3, [r0, #12]
 469              		.loc 1 619 0
 470 0002 4268     		ldr	r2, [r0, #4]
 471              		.loc 1 617 0
 472 0004 5969     		ldr	r1, [r3, #20]
 473              		.loc 1 619 0
 474 0006 107D     		ldrb	r0, [r2, #20]	@ zero_extendqisi2
 475              	.LVL34:
 476              		.loc 1 615 0
 477 0008 10B4     		push	{r4}
 478              		.cfi_def_cfa_offset 4
 479              		.cfi_offset 4, -4
 480              		.loc 1 617 0
 481 000a 41F00101 		orr	r1, r1, #1
 482              		.loc 1 618 0
 483 000e 0024     		movs	r4, #0
 484              		.loc 1 617 0
 485 0010 5961     		str	r1, [r3, #20]
 486              		.loc 1 618 0
 487 0012 1C61     		str	r4, [r3, #16]
 488              		.loc 1 619 0
 489 0014 B0B9     		cbnz	r0, .L68
 490              		.loc 1 620 0
 491 0016 D168     		ldr	r1, [r2, #12]
 492 0018 19B1     		cbz	r1, .L69
 493              		.loc 1 621 0
 494 001a D968     		ldr	r1, [r3, #12]
 495 001c 41F00201 		orr	r1, r1, #2
 496 0020 D960     		str	r1, [r3, #12]
 497              	.L69:
 498              		.loc 1 622 0
 499 0022 9168     		ldr	r1, [r2, #8]
 500 0024 19B1     		cbz	r1, .L71
 501              	.L88:
 502              		.loc 1 628 0
 503 0026 D968     		ldr	r1, [r3, #12]
 504 0028 41F00401 		orr	r1, r1, #4
 505 002c D960     		str	r1, [r3, #12]
 506              	.L71:
 507              		.loc 1 630 0
 508 002e 1269     		ldr	r2, [r2, #16]
 509 0030 1AB1     		cbz	r2, .L74
 510              		.loc 1 631 0
 511 0032 DA68     		ldr	r2, [r3, #12]
 512 0034 42F00102 		orr	r2, r2, #1
 513 0038 DA60     		str	r2, [r3, #12]
ARM GAS  /var/folders/bz/nn5481rn5xq59rb0mbj7x0880000gn/T//ccVwe4HQ.s 			page 10


 514              	.L74:
 515              		.loc 1 632 0
 516 003a 0522     		movs	r2, #5
 517 003c 1A60     		str	r2, [r3]
 518              		.loc 1 633 0
 519 003e 5DF8044B 		ldr	r4, [sp], #4
 520              		.cfi_remember_state
 521              		.cfi_restore 4
 522              		.cfi_def_cfa_offset 0
 523 0042 7047     		bx	lr
 524              	.L68:
 525              		.cfi_restore_state
 526              		.loc 1 625 0
 527 0044 9168     		ldr	r1, [r2, #8]
 528 0046 19B1     		cbz	r1, .L72
 529              		.loc 1 626 0
 530 0048 D968     		ldr	r1, [r3, #12]
 531 004a 41F00201 		orr	r1, r1, #2
 532 004e D960     		str	r1, [r3, #12]
 533              	.L72:
 534              		.loc 1 627 0
 535 0050 D168     		ldr	r1, [r2, #12]
 536 0052 0029     		cmp	r1, #0
 537 0054 E7D1     		bne	.L88
 538 0056 EAE7     		b	.L71
 539              		.cfi_endproc
 540              	.LFE123:
 541              		.size	icu_lld_enable, .-icu_lld_enable
 542              		.section	.text.icu_lld_disable,"ax",%progbits
 543              		.align	2
 544              		.p2align 4,,15
 545              		.global	icu_lld_disable
 546              		.thumb
 547              		.thumb_func
 548              		.type	icu_lld_disable, %function
 549              	icu_lld_disable:
 550              	.LFB124:
 551              		.loc 1 642 0
 552              		.cfi_startproc
 553              		@ args = 0, pretend = 0, frame = 0
 554              		@ frame_needed = 0, uses_anonymous_args = 0
 555              		@ link register save eliminated.
 556              	.LVL35:
 557              		.loc 1 644 0
 558 0000 C368     		ldr	r3, [r0, #12]
 559 0002 0022     		movs	r2, #0
 560 0004 1A60     		str	r2, [r3]
 561              		.loc 1 645 0
 562 0006 1A61     		str	r2, [r3, #16]
 563              		.loc 1 648 0
 564 0008 DA68     		ldr	r2, [r3, #12]
 565 000a 22F0FF02 		bic	r2, r2, #255
 566 000e DA60     		str	r2, [r3, #12]
 567 0010 7047     		bx	lr
 568              		.cfi_endproc
 569              	.LFE124:
 570              		.size	icu_lld_disable, .-icu_lld_disable
ARM GAS  /var/folders/bz/nn5481rn5xq59rb0mbj7x0880000gn/T//ccVwe4HQ.s 			page 11


 571              		.global	ICUD3
 572 0012 00BF     		.section	.bss.ICUD3,"aw",%nobits
 573              		.align	2
 574              		.set	.LANCHOR0,. + 0
 575              		.type	ICUD3, %object
 576              		.size	ICUD3, 24
 577              	ICUD3:
 578 0000 00000000 		.space	24
 578      00000000 
 578      00000000 
 578      00000000 
 578      00000000 
 579              		.text
 580              	.Letext0:
 581              		.file 2 "/Users/imac/Downloads/gcc-arm-none-eabi-4_9-2015q2/arm-none-eabi/include/machine/_default
 582              		.file 3 "/Users/imac/Downloads/gcc-arm-none-eabi-4_9-2015q2/arm-none-eabi/include/sys/_stdint.h"
 583              		.file 4 "lib/ChibiOS_2.6.6/os/hal/platforms/STM32F4xx/stm32f4xx.h"
 584              		.file 5 "lib/ChibiOS_2.6.6/os/hal/platforms/STM32/TIMv1/stm32_tim.h"
 585              		.file 6 "lib/ChibiOS_2.6.6/os/hal/include/icu.h"
 586              		.file 7 "lib/ChibiOS_2.6.6/os/hal/platforms/STM32/TIMv1/icu_lld.h"
 587              		.file 8 "lib/ChibiOS_2.6.6/os/ports/common/ARMCMx/CMSIS/include/core_cm4.h"
 588              		.file 9 "lib/ChibiOS_2.6.6/os/ports/common/ARMCMx/nvic.h"
 589              		.file 10 "lib/ChibiOS_2.6.6/os/ports/GCC/ARMCMx/chcore_v7m.h"
 590              		.section	.debug_info,"",%progbits
 591              	.Ldebug_info0:
 592 0000 AC070000 		.4byte	0x7ac
 593 0004 0400     		.2byte	0x4
 594 0006 00000000 		.4byte	.Ldebug_abbrev0
 595 000a 04       		.byte	0x4
 596 000b 01       		.uleb128 0x1
 597 000c 26020000 		.4byte	.LASF100
 598 0010 01       		.byte	0x1
 599 0011 E5000000 		.4byte	.LASF101
 600 0015 D5040000 		.4byte	.LASF102
 601 0019 18000000 		.4byte	.Ldebug_ranges0+0x18
 602 001d 00000000 		.4byte	0
 603 0021 00000000 		.4byte	.Ldebug_line0
 604 0025 02       		.uleb128 0x2
 605 0026 04       		.byte	0x4
 606 0027 07       		.byte	0x7
 607 0028 A4030000 		.4byte	.LASF0
 608 002c 03       		.uleb128 0x3
 609 002d 04       		.byte	0x4
 610 002e 05       		.byte	0x5
 611 002f 696E7400 		.ascii	"int\000"
 612 0033 02       		.uleb128 0x2
 613 0034 01       		.byte	0x1
 614 0035 06       		.byte	0x6
 615 0036 82030000 		.4byte	.LASF1
 616 003a 02       		.uleb128 0x2
 617 003b 01       		.byte	0x1
 618 003c 08       		.byte	0x8
 619 003d 5D030000 		.4byte	.LASF2
 620 0041 02       		.uleb128 0x2
 621 0042 02       		.byte	0x2
 622 0043 05       		.byte	0x5
 623 0044 6D000000 		.4byte	.LASF3
ARM GAS  /var/folders/bz/nn5481rn5xq59rb0mbj7x0880000gn/T//ccVwe4HQ.s 			page 12


 624 0048 04       		.uleb128 0x4
 625 0049 D4000000 		.4byte	.LASF5
 626 004d 02       		.byte	0x2
 627 004e 2B       		.byte	0x2b
 628 004f 53000000 		.4byte	0x53
 629 0053 02       		.uleb128 0x2
 630 0054 02       		.byte	0x2
 631 0055 07       		.byte	0x7
 632 0056 DA030000 		.4byte	.LASF4
 633 005a 04       		.uleb128 0x4
 634 005b 11050000 		.4byte	.LASF6
 635 005f 02       		.byte	0x2
 636 0060 3F       		.byte	0x3f
 637 0061 65000000 		.4byte	0x65
 638 0065 02       		.uleb128 0x2
 639 0066 04       		.byte	0x4
 640 0067 05       		.byte	0x5
 641 0068 CE010000 		.4byte	.LASF7
 642 006c 04       		.uleb128 0x4
 643 006d BC000000 		.4byte	.LASF8
 644 0071 02       		.byte	0x2
 645 0072 41       		.byte	0x41
 646 0073 77000000 		.4byte	0x77
 647 0077 02       		.uleb128 0x2
 648 0078 04       		.byte	0x4
 649 0079 07       		.byte	0x7
 650 007a B0040000 		.4byte	.LASF9
 651 007e 02       		.uleb128 0x2
 652 007f 08       		.byte	0x8
 653 0080 05       		.byte	0x5
 654 0081 90010000 		.4byte	.LASF10
 655 0085 02       		.uleb128 0x2
 656 0086 08       		.byte	0x8
 657 0087 07       		.byte	0x7
 658 0088 9E010000 		.4byte	.LASF11
 659 008c 04       		.uleb128 0x4
 660 008d BA030000 		.4byte	.LASF12
 661 0091 03       		.byte	0x3
 662 0092 1A       		.byte	0x1a
 663 0093 48000000 		.4byte	0x48
 664 0097 04       		.uleb128 0x4
 665 0098 38040000 		.4byte	.LASF13
 666 009c 03       		.byte	0x3
 667 009d 1F       		.byte	0x1f
 668 009e 5A000000 		.4byte	0x5a
 669 00a2 04       		.uleb128 0x4
 670 00a3 6C010000 		.4byte	.LASF14
 671 00a7 03       		.byte	0x3
 672 00a8 20       		.byte	0x20
 673 00a9 6C000000 		.4byte	0x6c
 674 00ad 02       		.uleb128 0x2
 675 00ae 01       		.byte	0x1
 676 00af 02       		.byte	0x2
 677 00b0 40040000 		.4byte	.LASF15
 678 00b4 05       		.uleb128 0x5
 679 00b5 A2000000 		.4byte	0xa2
 680 00b9 02       		.uleb128 0x2
ARM GAS  /var/folders/bz/nn5481rn5xq59rb0mbj7x0880000gn/T//ccVwe4HQ.s 			page 13


 681 00ba 04       		.byte	0x4
 682 00bb 07       		.byte	0x7
 683 00bc 7C000000 		.4byte	.LASF16
 684 00c0 02       		.uleb128 0x2
 685 00c1 01       		.byte	0x1
 686 00c2 08       		.byte	0x8
 687 00c3 BF010000 		.4byte	.LASF17
 688 00c7 06       		.uleb128 0x6
 689 00c8 A2000000 		.4byte	0xa2
 690 00cc D7000000 		.4byte	0xd7
 691 00d0 07       		.uleb128 0x7
 692 00d1 B9000000 		.4byte	0xb9
 693 00d5 01       		.byte	0x1
 694 00d6 00       		.byte	0
 695 00d7 06       		.uleb128 0x6
 696 00d8 A2000000 		.4byte	0xa2
 697 00dc E7000000 		.4byte	0xe7
 698 00e0 07       		.uleb128 0x7
 699 00e1 B9000000 		.4byte	0xb9
 700 00e5 03       		.byte	0x3
 701 00e6 00       		.byte	0
 702 00e7 05       		.uleb128 0x5
 703 00e8 97000000 		.4byte	0x97
 704 00ec 08       		.uleb128 0x8
 705 00ed 90       		.byte	0x90
 706 00ee 04       		.byte	0x4
 707 00ef 5804     		.2byte	0x458
 708 00f1 95020000 		.4byte	0x295
 709 00f5 09       		.uleb128 0x9
 710 00f6 435200   		.ascii	"CR\000"
 711 00f9 04       		.byte	0x4
 712 00fa 5A04     		.2byte	0x45a
 713 00fc B4000000 		.4byte	0xb4
 714 0100 00       		.byte	0
 715 0101 0A       		.uleb128 0xa
 716 0102 D2030000 		.4byte	.LASF18
 717 0106 04       		.byte	0x4
 718 0107 5B04     		.2byte	0x45b
 719 0109 B4000000 		.4byte	0xb4
 720 010d 04       		.byte	0x4
 721 010e 0A       		.uleb128 0xa
 722 010f 2F010000 		.4byte	.LASF19
 723 0113 04       		.byte	0x4
 724 0114 5C04     		.2byte	0x45c
 725 0116 B4000000 		.4byte	0xb4
 726 011a 08       		.byte	0x8
 727 011b 09       		.uleb128 0x9
 728 011c 43495200 		.ascii	"CIR\000"
 729 0120 04       		.byte	0x4
 730 0121 5D04     		.2byte	0x45d
 731 0123 B4000000 		.4byte	0xb4
 732 0127 0C       		.byte	0xc
 733 0128 0A       		.uleb128 0xa
 734 0129 3E050000 		.4byte	.LASF20
 735 012d 04       		.byte	0x4
 736 012e 5E04     		.2byte	0x45e
 737 0130 B4000000 		.4byte	0xb4
ARM GAS  /var/folders/bz/nn5481rn5xq59rb0mbj7x0880000gn/T//ccVwe4HQ.s 			page 14


 738 0134 10       		.byte	0x10
 739 0135 0A       		.uleb128 0xa
 740 0136 B1030000 		.4byte	.LASF21
 741 013a 04       		.byte	0x4
 742 013b 5F04     		.2byte	0x45f
 743 013d B4000000 		.4byte	0xb4
 744 0141 14       		.byte	0x14
 745 0142 0A       		.uleb128 0xa
 746 0143 56050000 		.4byte	.LASF22
 747 0147 04       		.byte	0x4
 748 0148 6004     		.2byte	0x460
 749 014a B4000000 		.4byte	0xb4
 750 014e 18       		.byte	0x18
 751 014f 0A       		.uleb128 0xa
 752 0150 68040000 		.4byte	.LASF23
 753 0154 04       		.byte	0x4
 754 0155 6104     		.2byte	0x461
 755 0157 A2000000 		.4byte	0xa2
 756 015b 1C       		.byte	0x1c
 757 015c 0A       		.uleb128 0xa
 758 015d 2B000000 		.4byte	.LASF24
 759 0161 04       		.byte	0x4
 760 0162 6204     		.2byte	0x462
 761 0164 B4000000 		.4byte	0xb4
 762 0168 20       		.byte	0x20
 763 0169 0A       		.uleb128 0xa
 764 016a F9010000 		.4byte	.LASF25
 765 016e 04       		.byte	0x4
 766 016f 6304     		.2byte	0x463
 767 0171 B4000000 		.4byte	0xb4
 768 0175 24       		.byte	0x24
 769 0176 0A       		.uleb128 0xa
 770 0177 34010000 		.4byte	.LASF26
 771 017b 04       		.byte	0x4
 772 017c 6404     		.2byte	0x464
 773 017e C7000000 		.4byte	0xc7
 774 0182 28       		.byte	0x28
 775 0183 0A       		.uleb128 0xa
 776 0184 C7000000 		.4byte	.LASF27
 777 0188 04       		.byte	0x4
 778 0189 6504     		.2byte	0x465
 779 018b B4000000 		.4byte	0xb4
 780 018f 30       		.byte	0x30
 781 0190 0A       		.uleb128 0xa
 782 0191 42000000 		.4byte	.LASF28
 783 0195 04       		.byte	0x4
 784 0196 6604     		.2byte	0x466
 785 0198 B4000000 		.4byte	0xb4
 786 019c 34       		.byte	0x34
 787 019d 0A       		.uleb128 0xa
 788 019e 7D010000 		.4byte	.LASF29
 789 01a2 04       		.byte	0x4
 790 01a3 6704     		.2byte	0x467
 791 01a5 B4000000 		.4byte	0xb4
 792 01a9 38       		.byte	0x38
 793 01aa 0A       		.uleb128 0xa
 794 01ab 88040000 		.4byte	.LASF30
ARM GAS  /var/folders/bz/nn5481rn5xq59rb0mbj7x0880000gn/T//ccVwe4HQ.s 			page 15


 795 01af 04       		.byte	0x4
 796 01b0 6804     		.2byte	0x468
 797 01b2 A2000000 		.4byte	0xa2
 798 01b6 3C       		.byte	0x3c
 799 01b7 0A       		.uleb128 0xa
 800 01b8 3E010000 		.4byte	.LASF31
 801 01bc 04       		.byte	0x4
 802 01bd 6904     		.2byte	0x469
 803 01bf B4000000 		.4byte	0xb4
 804 01c3 40       		.byte	0x40
 805 01c4 0A       		.uleb128 0xa
 806 01c5 75030000 		.4byte	.LASF32
 807 01c9 04       		.byte	0x4
 808 01ca 6A04     		.2byte	0x46a
 809 01cc B4000000 		.4byte	0xb4
 810 01d0 44       		.byte	0x44
 811 01d1 0A       		.uleb128 0xa
 812 01d2 92040000 		.4byte	.LASF33
 813 01d6 04       		.byte	0x4
 814 01d7 6B04     		.2byte	0x46b
 815 01d9 C7000000 		.4byte	0xc7
 816 01dd 48       		.byte	0x48
 817 01de 0A       		.uleb128 0xa
 818 01df 00000000 		.4byte	.LASF34
 819 01e3 04       		.byte	0x4
 820 01e4 6C04     		.2byte	0x46c
 821 01e6 B4000000 		.4byte	0xb4
 822 01ea 50       		.byte	0x50
 823 01eb 0A       		.uleb128 0xa
 824 01ec 59040000 		.4byte	.LASF35
 825 01f0 04       		.byte	0x4
 826 01f1 6D04     		.2byte	0x46d
 827 01f3 B4000000 		.4byte	0xb4
 828 01f7 54       		.byte	0x54
 829 01f8 0A       		.uleb128 0xa
 830 01f9 1E010000 		.4byte	.LASF36
 831 01fd 04       		.byte	0x4
 832 01fe 6E04     		.2byte	0x46e
 833 0200 B4000000 		.4byte	0xb4
 834 0204 58       		.byte	0x58
 835 0205 0A       		.uleb128 0xa
 836 0206 9C040000 		.4byte	.LASF37
 837 020a 04       		.byte	0x4
 838 020b 6F04     		.2byte	0x46f
 839 020d A2000000 		.4byte	0xa2
 840 0211 5C       		.byte	0x5c
 841 0212 0A       		.uleb128 0xa
 842 0213 85050000 		.4byte	.LASF38
 843 0217 04       		.byte	0x4
 844 0218 7004     		.2byte	0x470
 845 021a B4000000 		.4byte	0xb4
 846 021e 60       		.byte	0x60
 847 021f 0A       		.uleb128 0xa
 848 0220 C4010000 		.4byte	.LASF39
 849 0224 04       		.byte	0x4
 850 0225 7104     		.2byte	0x471
 851 0227 B4000000 		.4byte	0xb4
ARM GAS  /var/folders/bz/nn5481rn5xq59rb0mbj7x0880000gn/T//ccVwe4HQ.s 			page 16


 852 022b 64       		.byte	0x64
 853 022c 0A       		.uleb128 0xa
 854 022d A6040000 		.4byte	.LASF40
 855 0231 04       		.byte	0x4
 856 0232 7204     		.2byte	0x472
 857 0234 C7000000 		.4byte	0xc7
 858 0238 68       		.byte	0x68
 859 0239 0A       		.uleb128 0xa
 860 023a 85000000 		.4byte	.LASF41
 861 023e 04       		.byte	0x4
 862 023f 7304     		.2byte	0x473
 863 0241 B4000000 		.4byte	0xb4
 864 0245 70       		.byte	0x70
 865 0246 09       		.uleb128 0x9
 866 0247 43535200 		.ascii	"CSR\000"
 867 024b 04       		.byte	0x4
 868 024c 7404     		.2byte	0x474
 869 024e B4000000 		.4byte	0xb4
 870 0252 74       		.byte	0x74
 871 0253 0A       		.uleb128 0xa
 872 0254 46010000 		.4byte	.LASF42
 873 0258 04       		.byte	0x4
 874 0259 7504     		.2byte	0x475
 875 025b C7000000 		.4byte	0xc7
 876 025f 78       		.byte	0x78
 877 0260 0A       		.uleb128 0xa
 878 0261 DF000000 		.4byte	.LASF43
 879 0265 04       		.byte	0x4
 880 0266 7604     		.2byte	0x476
 881 0268 B4000000 		.4byte	0xb4
 882 026c 80       		.byte	0x80
 883 026d 0A       		.uleb128 0xa
 884 026e D7010000 		.4byte	.LASF44
 885 0272 04       		.byte	0x4
 886 0273 7704     		.2byte	0x477
 887 0275 B4000000 		.4byte	0xb4
 888 0279 84       		.byte	0x84
 889 027a 0A       		.uleb128 0xa
 890 027b 7A050000 		.4byte	.LASF45
 891 027f 04       		.byte	0x4
 892 0280 7804     		.2byte	0x478
 893 0282 B4000000 		.4byte	0xb4
 894 0286 88       		.byte	0x88
 895 0287 0A       		.uleb128 0xa
 896 0288 75010000 		.4byte	.LASF46
 897 028c 04       		.byte	0x4
 898 028d 7904     		.2byte	0x479
 899 028f B4000000 		.4byte	0xb4
 900 0293 8C       		.byte	0x8c
 901 0294 00       		.byte	0
 902 0295 0B       		.uleb128 0xb
 903 0296 E7010000 		.4byte	.LASF47
 904 029a 04       		.byte	0x4
 905 029b 7B04     		.2byte	0x47b
 906 029d EC000000 		.4byte	0xec
 907 02a1 0C       		.uleb128 0xc
 908 02a2 04       		.byte	0x4
ARM GAS  /var/folders/bz/nn5481rn5xq59rb0mbj7x0880000gn/T//ccVwe4HQ.s 			page 17


 909 02a3 B4000000 		.4byte	0xb4
 910 02a7 08       		.uleb128 0x8
 911 02a8 60       		.byte	0x60
 912 02a9 05       		.byte	0x5
 913 02aa 9E01     		.2byte	0x19e
 914 02ac C0030000 		.4byte	0x3c0
 915 02b0 09       		.uleb128 0x9
 916 02b1 43523100 		.ascii	"CR1\000"
 917 02b5 05       		.byte	0x5
 918 02b6 9F01     		.2byte	0x19f
 919 02b8 B4000000 		.4byte	0xb4
 920 02bc 00       		.byte	0
 921 02bd 09       		.uleb128 0x9
 922 02be 43523200 		.ascii	"CR2\000"
 923 02c2 05       		.byte	0x5
 924 02c3 A001     		.2byte	0x1a0
 925 02c5 B4000000 		.4byte	0xb4
 926 02c9 04       		.byte	0x4
 927 02ca 0A       		.uleb128 0xa
 928 02cb 63040000 		.4byte	.LASF48
 929 02cf 05       		.byte	0x5
 930 02d0 A101     		.2byte	0x1a1
 931 02d2 B4000000 		.4byte	0xb4
 932 02d6 08       		.byte	0x8
 933 02d7 0A       		.uleb128 0xa
 934 02d8 C3030000 		.4byte	.LASF49
 935 02dc 05       		.byte	0x5
 936 02dd A201     		.2byte	0x1a2
 937 02df B4000000 		.4byte	0xb4
 938 02e3 0C       		.byte	0xc
 939 02e4 09       		.uleb128 0x9
 940 02e5 535200   		.ascii	"SR\000"
 941 02e8 05       		.byte	0x5
 942 02e9 A301     		.2byte	0x1a3
 943 02eb B4000000 		.4byte	0xb4
 944 02ef 10       		.byte	0x10
 945 02f0 09       		.uleb128 0x9
 946 02f1 45475200 		.ascii	"EGR\000"
 947 02f5 05       		.byte	0x5
 948 02f6 A401     		.2byte	0x1a4
 949 02f8 B4000000 		.4byte	0xb4
 950 02fc 14       		.byte	0x14
 951 02fd 0A       		.uleb128 0xa
 952 02fe 02020000 		.4byte	.LASF50
 953 0302 05       		.byte	0x5
 954 0303 A501     		.2byte	0x1a5
 955 0305 B4000000 		.4byte	0xb4
 956 0309 18       		.byte	0x18
 957 030a 0A       		.uleb128 0xa
 958 030b 17020000 		.4byte	.LASF51
 959 030f 05       		.byte	0x5
 960 0310 A601     		.2byte	0x1a6
 961 0312 B4000000 		.4byte	0xb4
 962 0316 1C       		.byte	0x1c
 963 0317 0A       		.uleb128 0xa
 964 0318 17000000 		.4byte	.LASF52
 965 031c 05       		.byte	0x5
ARM GAS  /var/folders/bz/nn5481rn5xq59rb0mbj7x0880000gn/T//ccVwe4HQ.s 			page 18


 966 031d A701     		.2byte	0x1a7
 967 031f B4000000 		.4byte	0xb4
 968 0323 20       		.byte	0x20
 969 0324 09       		.uleb128 0x9
 970 0325 434E5400 		.ascii	"CNT\000"
 971 0329 05       		.byte	0x5
 972 032a A801     		.2byte	0x1a8
 973 032c B4000000 		.4byte	0xb4
 974 0330 24       		.byte	0x24
 975 0331 09       		.uleb128 0x9
 976 0332 50534300 		.ascii	"PSC\000"
 977 0336 05       		.byte	0x5
 978 0337 A901     		.2byte	0x1a9
 979 0339 B4000000 		.4byte	0xb4
 980 033d 28       		.byte	0x28
 981 033e 09       		.uleb128 0x9
 982 033f 41525200 		.ascii	"ARR\000"
 983 0343 05       		.byte	0x5
 984 0344 AA01     		.2byte	0x1aa
 985 0346 B4000000 		.4byte	0xb4
 986 034a 2C       		.byte	0x2c
 987 034b 09       		.uleb128 0x9
 988 034c 52435200 		.ascii	"RCR\000"
 989 0350 05       		.byte	0x5
 990 0351 AB01     		.2byte	0x1ab
 991 0353 B4000000 		.4byte	0xb4
 992 0357 30       		.byte	0x30
 993 0358 09       		.uleb128 0x9
 994 0359 43435200 		.ascii	"CCR\000"
 995 035d 05       		.byte	0x5
 996 035e AC01     		.2byte	0x1ac
 997 0360 C0030000 		.4byte	0x3c0
 998 0364 34       		.byte	0x34
 999 0365 0A       		.uleb128 0xa
 1000 0366 33040000 		.4byte	.LASF53
 1001 036a 05       		.byte	0x5
 1002 036b AD01     		.2byte	0x1ad
 1003 036d B4000000 		.4byte	0xb4
 1004 0371 44       		.byte	0x44
 1005 0372 09       		.uleb128 0x9
 1006 0373 44435200 		.ascii	"DCR\000"
 1007 0377 05       		.byte	0x5
 1008 0378 AE01     		.2byte	0x1ae
 1009 037a B4000000 		.4byte	0xb4
 1010 037e 48       		.byte	0x48
 1011 037f 0A       		.uleb128 0xa
 1012 0380 4A000000 		.4byte	.LASF54
 1013 0384 05       		.byte	0x5
 1014 0385 AF01     		.2byte	0x1af
 1015 0387 B4000000 		.4byte	0xb4
 1016 038b 4C       		.byte	0x4c
 1017 038c 09       		.uleb128 0x9
 1018 038d 4F5200   		.ascii	"OR\000"
 1019 0390 05       		.byte	0x5
 1020 0391 B001     		.2byte	0x1b0
 1021 0393 B4000000 		.4byte	0xb4
 1022 0397 50       		.byte	0x50
ARM GAS  /var/folders/bz/nn5481rn5xq59rb0mbj7x0880000gn/T//ccVwe4HQ.s 			page 19


 1023 0398 0A       		.uleb128 0xa
 1024 0399 11020000 		.4byte	.LASF55
 1025 039d 05       		.byte	0x5
 1026 039e B101     		.2byte	0x1b1
 1027 03a0 B4000000 		.4byte	0xb4
 1028 03a4 54       		.byte	0x54
 1029 03a5 0A       		.uleb128 0xa
 1030 03a6 E2010000 		.4byte	.LASF56
 1031 03aa 05       		.byte	0x5
 1032 03ab B201     		.2byte	0x1b2
 1033 03ad B4000000 		.4byte	0xb4
 1034 03b1 58       		.byte	0x58
 1035 03b2 0A       		.uleb128 0xa
 1036 03b3 7D030000 		.4byte	.LASF57
 1037 03b7 05       		.byte	0x5
 1038 03b8 B301     		.2byte	0x1b3
 1039 03ba B4000000 		.4byte	0xb4
 1040 03be 5C       		.byte	0x5c
 1041 03bf 00       		.byte	0
 1042 03c0 05       		.uleb128 0x5
 1043 03c1 D7000000 		.4byte	0xd7
 1044 03c5 0B       		.uleb128 0xb
 1045 03c6 1D040000 		.4byte	.LASF58
 1046 03ca 05       		.byte	0x5
 1047 03cb B401     		.2byte	0x1b4
 1048 03cd A7020000 		.4byte	0x2a7
 1049 03d1 0C       		.uleb128 0xc
 1050 03d2 04       		.byte	0x4
 1051 03d3 C5030000 		.4byte	0x3c5
 1052 03d7 0D       		.uleb128 0xd
 1053 03d8 01       		.byte	0x1
 1054 03d9 06       		.byte	0x6
 1055 03da 3C       		.byte	0x3c
 1056 03db 04040000 		.4byte	0x404
 1057 03df 0E       		.uleb128 0xe
 1058 03e0 4E040000 		.4byte	.LASF59
 1059 03e4 00       		.sleb128 0
 1060 03e5 0E       		.uleb128 0xe
 1061 03e6 22000000 		.4byte	.LASF60
 1062 03ea 01       		.sleb128 1
 1063 03eb 0E       		.uleb128 0xe
 1064 03ec 34050000 		.4byte	.LASF61
 1065 03f0 02       		.sleb128 2
 1066 03f1 0E       		.uleb128 0xe
 1067 03f2 9A050000 		.4byte	.LASF62
 1068 03f6 03       		.sleb128 3
 1069 03f7 0E       		.uleb128 0xe
 1070 03f8 85010000 		.4byte	.LASF63
 1071 03fc 04       		.sleb128 4
 1072 03fd 0E       		.uleb128 0xe
 1073 03fe 1D020000 		.4byte	.LASF64
 1074 0402 05       		.sleb128 5
 1075 0403 00       		.byte	0
 1076 0404 04       		.uleb128 0x4
 1077 0405 8F050000 		.4byte	.LASF65
 1078 0409 06       		.byte	0x6
 1079 040a 43       		.byte	0x43
ARM GAS  /var/folders/bz/nn5481rn5xq59rb0mbj7x0880000gn/T//ccVwe4HQ.s 			page 20


 1080 040b D7030000 		.4byte	0x3d7
 1081 040f 04       		.uleb128 0x4
 1082 0410 20050000 		.4byte	.LASF66
 1083 0414 06       		.byte	0x6
 1084 0415 48       		.byte	0x48
 1085 0416 1A040000 		.4byte	0x41a
 1086 041a 0F       		.uleb128 0xf
 1087 041b 20050000 		.4byte	.LASF66
 1088 041f 18       		.byte	0x18
 1089 0420 07       		.byte	0x7
 1090 0421 3101     		.2byte	0x131
 1091 0423 76040000 		.4byte	0x476
 1092 0427 0A       		.uleb128 0xa
 1093 0428 67000000 		.4byte	.LASF67
 1094 042c 07       		.byte	0x7
 1095 042d 3501     		.2byte	0x135
 1096 042f 04040000 		.4byte	0x404
 1097 0433 00       		.byte	0
 1098 0434 0A       		.uleb128 0xa
 1099 0435 28010000 		.4byte	.LASF68
 1100 0439 07       		.byte	0x7
 1101 043a 3901     		.2byte	0x139
 1102 043c 54050000 		.4byte	0x554
 1103 0440 04       		.byte	0x4
 1104 0441 0A       		.uleb128 0xa
 1105 0442 C2040000 		.4byte	.LASF69
 1106 0446 07       		.byte	0x7
 1107 0447 4101     		.2byte	0x141
 1108 0449 A2000000 		.4byte	0xa2
 1109 044d 08       		.byte	0x8
 1110 044e 09       		.uleb128 0x9
 1111 044f 74696D00 		.ascii	"tim\000"
 1112 0453 07       		.byte	0x7
 1113 0454 4501     		.2byte	0x145
 1114 0456 D1030000 		.4byte	0x3d1
 1115 045a 0C       		.byte	0xc
 1116 045b 0A       		.uleb128 0xa
 1117 045c 1C000000 		.4byte	.LASF70
 1118 0460 07       		.byte	0x7
 1119 0461 4901     		.2byte	0x149
 1120 0463 A1020000 		.4byte	0x2a1
 1121 0467 10       		.byte	0x10
 1122 0468 0A       		.uleb128 0xa
 1123 0469 F3010000 		.4byte	.LASF71
 1124 046d 07       		.byte	0x7
 1125 046e 4D01     		.2byte	0x14d
 1126 0470 A1020000 		.4byte	0x2a1
 1127 0474 14       		.byte	0x14
 1128 0475 00       		.byte	0
 1129 0476 04       		.uleb128 0x4
 1130 0477 0F040000 		.4byte	.LASF72
 1131 047b 06       		.byte	0x6
 1132 047c 4F       		.byte	0x4f
 1133 047d 81040000 		.4byte	0x481
 1134 0481 0C       		.uleb128 0xc
 1135 0482 04       		.byte	0x4
 1136 0483 87040000 		.4byte	0x487
ARM GAS  /var/folders/bz/nn5481rn5xq59rb0mbj7x0880000gn/T//ccVwe4HQ.s 			page 21


 1137 0487 10       		.uleb128 0x10
 1138 0488 92040000 		.4byte	0x492
 1139 048c 11       		.uleb128 0x11
 1140 048d 92040000 		.4byte	0x492
 1141 0491 00       		.byte	0
 1142 0492 0C       		.uleb128 0xc
 1143 0493 04       		.byte	0x4
 1144 0494 0F040000 		.4byte	0x40f
 1145 0498 0D       		.uleb128 0xd
 1146 0499 01       		.byte	0x1
 1147 049a 07       		.byte	0x7
 1148 049b EE       		.byte	0xee
 1149 049c AD040000 		.4byte	0x4ad
 1150 04a0 0E       		.uleb128 0xe
 1151 04a1 72040000 		.4byte	.LASF73
 1152 04a5 00       		.sleb128 0
 1153 04a6 0E       		.uleb128 0xe
 1154 04a7 ED030000 		.4byte	.LASF74
 1155 04ab 01       		.sleb128 1
 1156 04ac 00       		.byte	0
 1157 04ad 04       		.uleb128 0x4
 1158 04ae B5010000 		.4byte	.LASF75
 1159 04b2 07       		.byte	0x7
 1160 04b3 F1       		.byte	0xf1
 1161 04b4 98040000 		.4byte	0x498
 1162 04b8 04       		.uleb128 0x4
 1163 04b9 C8030000 		.4byte	.LASF76
 1164 04bd 07       		.byte	0x7
 1165 04be F6       		.byte	0xf6
 1166 04bf A2000000 		.4byte	0xa2
 1167 04c3 0D       		.uleb128 0xd
 1168 04c4 01       		.byte	0x1
 1169 04c5 07       		.byte	0x7
 1170 04c6 FB       		.byte	0xfb
 1171 04c7 D8040000 		.4byte	0x4d8
 1172 04cb 0E       		.uleb128 0xe
 1173 04cc 50010000 		.4byte	.LASF77
 1174 04d0 00       		.sleb128 0
 1175 04d1 0E       		.uleb128 0xe
 1176 04d2 5E010000 		.4byte	.LASF78
 1177 04d6 01       		.sleb128 1
 1178 04d7 00       		.byte	0
 1179 04d8 04       		.uleb128 0x4
 1180 04d9 02040000 		.4byte	.LASF79
 1181 04dd 07       		.byte	0x7
 1182 04de FE       		.byte	0xfe
 1183 04df C3040000 		.4byte	0x4c3
 1184 04e3 08       		.uleb128 0x8
 1185 04e4 1C       		.byte	0x1c
 1186 04e5 07       		.byte	0x7
 1187 04e6 0901     		.2byte	0x109
 1188 04e8 48050000 		.4byte	0x548
 1189 04ec 0A       		.uleb128 0xa
 1190 04ed CF000000 		.4byte	.LASF80
 1191 04f1 07       		.byte	0x7
 1192 04f2 0D01     		.2byte	0x10d
 1193 04f4 AD040000 		.4byte	0x4ad
ARM GAS  /var/folders/bz/nn5481rn5xq59rb0mbj7x0880000gn/T//ccVwe4HQ.s 			page 22


 1194 04f8 00       		.byte	0
 1195 04f9 0A       		.uleb128 0xa
 1196 04fa 2A050000 		.4byte	.LASF81
 1197 04fe 07       		.byte	0x7
 1198 04ff 1301     		.2byte	0x113
 1199 0501 B8040000 		.4byte	0x4b8
 1200 0505 04       		.byte	0x4
 1201 0506 0A       		.uleb128 0xa
 1202 0507 08050000 		.4byte	.LASF82
 1203 050b 07       		.byte	0x7
 1204 050c 1701     		.2byte	0x117
 1205 050e 76040000 		.4byte	0x476
 1206 0512 08       		.byte	0x8
 1207 0513 0A       		.uleb128 0xa
 1208 0514 29040000 		.4byte	.LASF83
 1209 0518 07       		.byte	0x7
 1210 0519 1B01     		.2byte	0x11b
 1211 051b 76040000 		.4byte	0x476
 1212 051f 0C       		.byte	0xc
 1213 0520 0A       		.uleb128 0xa
 1214 0521 FC040000 		.4byte	.LASF84
 1215 0525 07       		.byte	0x7
 1216 0526 1F01     		.2byte	0x11f
 1217 0528 76040000 		.4byte	0x476
 1218 052c 10       		.byte	0x10
 1219 052d 0A       		.uleb128 0xa
 1220 052e 46040000 		.4byte	.LASF85
 1221 0532 07       		.byte	0x7
 1222 0533 2501     		.2byte	0x125
 1223 0535 D8040000 		.4byte	0x4d8
 1224 0539 14       		.byte	0x14
 1225 053a 0A       		.uleb128 0xa
 1226 053b 1B050000 		.4byte	.LASF86
 1227 053f 07       		.byte	0x7
 1228 0540 2B01     		.2byte	0x12b
 1229 0542 A2000000 		.4byte	0xa2
 1230 0546 18       		.byte	0x18
 1231 0547 00       		.byte	0
 1232 0548 0B       		.uleb128 0xb
 1233 0549 6B030000 		.4byte	.LASF87
 1234 054d 07       		.byte	0x7
 1235 054e 2C01     		.2byte	0x12c
 1236 0550 E3040000 		.4byte	0x4e3
 1237 0554 0C       		.uleb128 0xc
 1238 0555 04       		.byte	0x4
 1239 0556 5A050000 		.4byte	0x55a
 1240 055a 12       		.uleb128 0x12
 1241 055b 48050000 		.4byte	0x548
 1242 055f 13       		.uleb128 0x13
 1243 0560 4F000000 		.4byte	.LASF103
 1244 0564 01       		.byte	0x1
 1245 0565 6F       		.byte	0x6f
 1246 0566 01       		.byte	0x1
 1247 0567 9F050000 		.4byte	0x59f
 1248 056b 14       		.uleb128 0x14
 1249 056c 77000000 		.4byte	.LASF93
 1250 0570 01       		.byte	0x1
ARM GAS  /var/folders/bz/nn5481rn5xq59rb0mbj7x0880000gn/T//ccVwe4HQ.s 			page 23


 1251 0571 6F       		.byte	0x6f
 1252 0572 92040000 		.4byte	0x492
 1253 0576 15       		.uleb128 0x15
 1254 0577 737200   		.ascii	"sr\000"
 1255 057a 01       		.byte	0x1
 1256 057b 70       		.byte	0x70
 1257 057c 8C000000 		.4byte	0x8c
 1258 0580 16       		.uleb128 0x16
 1259 0581 91050000 		.4byte	0x591
 1260 0585 17       		.uleb128 0x17
 1261 0586 47050000 		.4byte	.LASF88
 1262 058a 01       		.byte	0x1
 1263 058b 77       		.byte	0x77
 1264 058c 04040000 		.4byte	0x404
 1265 0590 00       		.byte	0
 1266 0591 18       		.uleb128 0x18
 1267 0592 17       		.uleb128 0x17
 1268 0593 47050000 		.4byte	.LASF88
 1269 0597 01       		.byte	0x1
 1270 0598 7E       		.byte	0x7e
 1271 0599 04040000 		.4byte	0x404
 1272 059d 00       		.byte	0
 1273 059e 00       		.byte	0
 1274 059f 19       		.uleb128 0x19
 1275 05a0 08020000 		.4byte	.LASF89
 1276 05a4 01       		.byte	0x1
 1277 05a5 D4       		.byte	0xd4
 1278 05a6 00000000 		.4byte	.LFB119
 1279 05aa 90000000 		.4byte	.LFE119-.LFB119
 1280 05ae 01       		.uleb128 0x1
 1281 05af 9C       		.byte	0x9c
 1282 05b0 5F060000 		.4byte	0x65f
 1283 05b4 1A       		.uleb128 0x1a
 1284 05b5 5F050000 		.4byte	0x55f
 1285 05b9 02000000 		.4byte	.LBB8
 1286 05bd 00000000 		.4byte	.Ldebug_ranges0+0
 1287 05c1 01       		.byte	0x1
 1288 05c2 D8       		.byte	0xd8
 1289 05c3 55060000 		.4byte	0x655
 1290 05c7 1B       		.uleb128 0x1b
 1291 05c8 6B050000 		.4byte	0x56b
 1292 05cc 06       		.uleb128 0x6
 1293 05cd 03       		.byte	0x3
 1294 05ce 00000000 		.4byte	ICUD3
 1295 05d2 9F       		.byte	0x9f
 1296 05d3 1C       		.uleb128 0x1c
 1297 05d4 00000000 		.4byte	.Ldebug_ranges0+0
 1298 05d8 1D       		.uleb128 0x1d
 1299 05d9 76050000 		.4byte	0x576
 1300 05dd 00000000 		.4byte	.LLST0
 1301 05e1 1E       		.uleb128 0x1e
 1302 05e2 1C000000 		.4byte	.LBB10
 1303 05e6 10000000 		.4byte	.LBE10-.LBB10
 1304 05ea 04060000 		.4byte	0x604
 1305 05ee 1D       		.uleb128 0x1d
 1306 05ef 85050000 		.4byte	0x585
 1307 05f3 1E000000 		.4byte	.LLST1
ARM GAS  /var/folders/bz/nn5481rn5xq59rb0mbj7x0880000gn/T//ccVwe4HQ.s 			page 24


 1308 05f7 1F       		.uleb128 0x1f
 1309 05f8 2C000000 		.4byte	.LVL5
 1310 05fc 20       		.uleb128 0x20
 1311 05fd 01       		.uleb128 0x1
 1312 05fe 50       		.byte	0x50
 1313 05ff 02       		.uleb128 0x2
 1314 0600 75       		.byte	0x75
 1315 0601 00       		.sleb128 0
 1316 0602 00       		.byte	0
 1317 0603 00       		.byte	0
 1318 0604 1E       		.uleb128 0x1e
 1319 0605 5C000000 		.4byte	.LBB11
 1320 0609 14000000 		.4byte	.LBE11-.LBB11
 1321 060d 27060000 		.4byte	0x627
 1322 0611 1D       		.uleb128 0x1d
 1323 0612 92050000 		.4byte	0x592
 1324 0616 5A000000 		.4byte	.LLST2
 1325 061a 1F       		.uleb128 0x1f
 1326 061b 6E000000 		.4byte	.LVL12
 1327 061f 20       		.uleb128 0x20
 1328 0620 01       		.uleb128 0x1
 1329 0621 50       		.byte	0x50
 1330 0622 02       		.uleb128 0x2
 1331 0623 75       		.byte	0x75
 1332 0624 00       		.sleb128 0
 1333 0625 00       		.byte	0
 1334 0626 00       		.byte	0
 1335 0627 21       		.uleb128 0x21
 1336 0628 3C000000 		.4byte	.LVL6
 1337 062c 37060000 		.4byte	0x637
 1338 0630 20       		.uleb128 0x20
 1339 0631 01       		.uleb128 0x1
 1340 0632 50       		.byte	0x50
 1341 0633 02       		.uleb128 0x2
 1342 0634 75       		.byte	0x75
 1343 0635 00       		.sleb128 0
 1344 0636 00       		.byte	0
 1345 0637 21       		.uleb128 0x21
 1346 0638 58000000 		.4byte	.LVL9
 1347 063c 47060000 		.4byte	0x647
 1348 0640 20       		.uleb128 0x20
 1349 0641 01       		.uleb128 0x1
 1350 0642 50       		.byte	0x50
 1351 0643 02       		.uleb128 0x2
 1352 0644 75       		.byte	0x75
 1353 0645 00       		.sleb128 0
 1354 0646 00       		.byte	0
 1355 0647 1F       		.uleb128 0x1f
 1356 0648 84000000 		.4byte	.LVL13
 1357 064c 20       		.uleb128 0x20
 1358 064d 01       		.uleb128 0x1
 1359 064e 50       		.byte	0x50
 1360 064f 02       		.uleb128 0x2
 1361 0650 75       		.byte	0x75
 1362 0651 00       		.sleb128 0
 1363 0652 00       		.byte	0
 1364 0653 00       		.byte	0
ARM GAS  /var/folders/bz/nn5481rn5xq59rb0mbj7x0880000gn/T//ccVwe4HQ.s 			page 25


 1365 0654 00       		.byte	0
 1366 0655 22       		.uleb128 0x22
 1367 0656 44000000 		.4byte	.LVL8
 1368 065a 71070000 		.4byte	0x771
 1369 065e 00       		.byte	0
 1370 065f 23       		.uleb128 0x23
 1371 0660 C8040000 		.4byte	.LASF90
 1372 0664 01       		.byte	0x1
 1373 0665 5301     		.2byte	0x153
 1374 0667 00000000 		.4byte	.LFB120
 1375 066b 18000000 		.4byte	.LFE120-.LFB120
 1376 066f 01       		.uleb128 0x1
 1377 0670 9C       		.byte	0x9c
 1378 0671 86060000 		.4byte	0x686
 1379 0675 24       		.uleb128 0x24
 1380 0676 0A000000 		.4byte	.LVL16
 1381 067a 79070000 		.4byte	0x779
 1382 067e 20       		.uleb128 0x20
 1383 067f 01       		.uleb128 0x1
 1384 0680 50       		.byte	0x50
 1385 0681 02       		.uleb128 0x2
 1386 0682 74       		.byte	0x74
 1387 0683 00       		.sleb128 0
 1388 0684 00       		.byte	0
 1389 0685 00       		.byte	0
 1390 0686 23       		.uleb128 0x23
 1391 0687 34000000 		.4byte	.LASF91
 1392 068b 01       		.byte	0x1
 1393 068c 8701     		.2byte	0x187
 1394 068e 00000000 		.4byte	.LFB121
 1395 0692 BC000000 		.4byte	.LFE121-.LFB121
 1396 0696 01       		.uleb128 0x1
 1397 0697 9C       		.byte	0x9c
 1398 0698 D2060000 		.4byte	0x6d2
 1399 069c 25       		.uleb128 0x25
 1400 069d 77000000 		.4byte	.LASF93
 1401 06a1 01       		.byte	0x1
 1402 06a2 8701     		.2byte	0x187
 1403 06a4 92040000 		.4byte	0x492
 1404 06a8 7C000000 		.4byte	.LLST3
 1405 06ac 26       		.uleb128 0x26
 1406 06ad 70736300 		.ascii	"psc\000"
 1407 06b1 01       		.byte	0x1
 1408 06b2 8801     		.2byte	0x188
 1409 06b4 A2000000 		.4byte	0xa2
 1410 06b8 C6000000 		.4byte	.LLST4
 1411 06bc 24       		.uleb128 0x24
 1412 06bd AA000000 		.4byte	.LVL27
 1413 06c1 8A070000 		.4byte	0x78a
 1414 06c5 20       		.uleb128 0x20
 1415 06c6 01       		.uleb128 0x1
 1416 06c7 51       		.byte	0x51
 1417 06c8 02       		.uleb128 0x2
 1418 06c9 08       		.byte	0x8
 1419 06ca 70       		.byte	0x70
 1420 06cb 20       		.uleb128 0x20
 1421 06cc 01       		.uleb128 0x1
ARM GAS  /var/folders/bz/nn5481rn5xq59rb0mbj7x0880000gn/T//ccVwe4HQ.s 			page 26


 1422 06cd 50       		.byte	0x50
 1423 06ce 01       		.uleb128 0x1
 1424 06cf 4D       		.byte	0x4d
 1425 06d0 00       		.byte	0
 1426 06d1 00       		.byte	0
 1427 06d2 23       		.uleb128 0x23
 1428 06d3 0A000000 		.4byte	.LASF92
 1429 06d7 01       		.byte	0x1
 1430 06d8 2902     		.2byte	0x229
 1431 06da 00000000 		.4byte	.LFB122
 1432 06de 34000000 		.4byte	.LFE122-.LFB122
 1433 06e2 01       		.uleb128 0x1
 1434 06e3 9C       		.byte	0x9c
 1435 06e4 08070000 		.4byte	0x708
 1436 06e8 25       		.uleb128 0x25
 1437 06e9 77000000 		.4byte	.LASF93
 1438 06ed 01       		.byte	0x1
 1439 06ee 2902     		.2byte	0x229
 1440 06f0 92040000 		.4byte	0x492
 1441 06f4 E8000000 		.4byte	.LLST5
 1442 06f8 24       		.uleb128 0x24
 1443 06f9 20000000 		.4byte	.LVL32
 1444 06fd A1070000 		.4byte	0x7a1
 1445 0701 20       		.uleb128 0x20
 1446 0702 01       		.uleb128 0x1
 1447 0703 50       		.byte	0x50
 1448 0704 01       		.uleb128 0x1
 1449 0705 4D       		.byte	0x4d
 1450 0706 00       		.byte	0
 1451 0707 00       		.byte	0
 1452 0708 23       		.uleb128 0x23
 1453 0709 8A000000 		.4byte	.LASF94
 1454 070d 01       		.byte	0x1
 1455 070e 6702     		.2byte	0x267
 1456 0710 00000000 		.4byte	.LFB123
 1457 0714 58000000 		.4byte	.LFE123-.LFB123
 1458 0718 01       		.uleb128 0x1
 1459 0719 9C       		.byte	0x9c
 1460 071a 2F070000 		.4byte	0x72f
 1461 071e 25       		.uleb128 0x25
 1462 071f 77000000 		.4byte	.LASF93
 1463 0723 01       		.byte	0x1
 1464 0724 6702     		.2byte	0x267
 1465 0726 92040000 		.4byte	0x492
 1466 072a 22010000 		.4byte	.LLST6
 1467 072e 00       		.byte	0
 1468 072f 23       		.uleb128 0x23
 1469 0730 94030000 		.4byte	.LASF95
 1470 0734 01       		.byte	0x1
 1471 0735 8202     		.2byte	0x282
 1472 0737 00000000 		.4byte	.LFB124
 1473 073b 12000000 		.4byte	.LFE124-.LFB124
 1474 073f 01       		.uleb128 0x1
 1475 0740 9C       		.byte	0x9c
 1476 0741 54070000 		.4byte	0x754
 1477 0745 27       		.uleb128 0x27
 1478 0746 77000000 		.4byte	.LASF93
ARM GAS  /var/folders/bz/nn5481rn5xq59rb0mbj7x0880000gn/T//ccVwe4HQ.s 			page 27


 1479 074a 01       		.byte	0x1
 1480 074b 8202     		.2byte	0x282
 1481 074d 92040000 		.4byte	0x492
 1482 0751 01       		.uleb128 0x1
 1483 0752 50       		.byte	0x50
 1484 0753 00       		.byte	0
 1485 0754 28       		.uleb128 0x28
 1486 0755 6D050000 		.4byte	.LASF96
 1487 0759 08       		.byte	0x8
 1488 075a 9806     		.2byte	0x698
 1489 075c E7000000 		.4byte	0xe7
 1490 0760 29       		.uleb128 0x29
 1491 0761 8E030000 		.4byte	.LASF97
 1492 0765 01       		.byte	0x1
 1493 0766 3F       		.byte	0x3f
 1494 0767 0F040000 		.4byte	0x40f
 1495 076b 05       		.uleb128 0x5
 1496 076c 03       		.byte	0x3
 1497 076d 00000000 		.4byte	ICUD3
 1498 0771 2A       		.uleb128 0x2a
 1499 0772 4A030000 		.4byte	.LASF104
 1500 0776 0A       		.byte	0xa
 1501 0777 0302     		.2byte	0x203
 1502 0779 2B       		.uleb128 0x2b
 1503 077a 5F050000 		.4byte	.LASF98
 1504 077e 06       		.byte	0x6
 1505 077f BE       		.byte	0xbe
 1506 0780 8A070000 		.4byte	0x78a
 1507 0784 11       		.uleb128 0x11
 1508 0785 92040000 		.4byte	0x492
 1509 0789 00       		.byte	0
 1510 078a 2C       		.uleb128 0x2c
 1511 078b 99000000 		.4byte	.LASF99
 1512 078f 09       		.byte	0x9
 1513 0790 2301     		.2byte	0x123
 1514 0792 A1070000 		.4byte	0x7a1
 1515 0796 11       		.uleb128 0x11
 1516 0797 A2000000 		.4byte	0xa2
 1517 079b 11       		.uleb128 0x11
 1518 079c A2000000 		.4byte	0xa2
 1519 07a0 00       		.byte	0
 1520 07a1 2D       		.uleb128 0x2d
 1521 07a2 AA000000 		.4byte	.LASF105
 1522 07a6 09       		.byte	0x9
 1523 07a7 2401     		.2byte	0x124
 1524 07a9 11       		.uleb128 0x11
 1525 07aa A2000000 		.4byte	0xa2
 1526 07ae 00       		.byte	0
 1527 07af 00       		.byte	0
 1528              		.section	.debug_abbrev,"",%progbits
 1529              	.Ldebug_abbrev0:
 1530 0000 01       		.uleb128 0x1
 1531 0001 11       		.uleb128 0x11
 1532 0002 01       		.byte	0x1
 1533 0003 25       		.uleb128 0x25
 1534 0004 0E       		.uleb128 0xe
 1535 0005 13       		.uleb128 0x13
ARM GAS  /var/folders/bz/nn5481rn5xq59rb0mbj7x0880000gn/T//ccVwe4HQ.s 			page 28


 1536 0006 0B       		.uleb128 0xb
 1537 0007 03       		.uleb128 0x3
 1538 0008 0E       		.uleb128 0xe
 1539 0009 1B       		.uleb128 0x1b
 1540 000a 0E       		.uleb128 0xe
 1541 000b 55       		.uleb128 0x55
 1542 000c 17       		.uleb128 0x17
 1543 000d 11       		.uleb128 0x11
 1544 000e 01       		.uleb128 0x1
 1545 000f 10       		.uleb128 0x10
 1546 0010 17       		.uleb128 0x17
 1547 0011 00       		.byte	0
 1548 0012 00       		.byte	0
 1549 0013 02       		.uleb128 0x2
 1550 0014 24       		.uleb128 0x24
 1551 0015 00       		.byte	0
 1552 0016 0B       		.uleb128 0xb
 1553 0017 0B       		.uleb128 0xb
 1554 0018 3E       		.uleb128 0x3e
 1555 0019 0B       		.uleb128 0xb
 1556 001a 03       		.uleb128 0x3
 1557 001b 0E       		.uleb128 0xe
 1558 001c 00       		.byte	0
 1559 001d 00       		.byte	0
 1560 001e 03       		.uleb128 0x3
 1561 001f 24       		.uleb128 0x24
 1562 0020 00       		.byte	0
 1563 0021 0B       		.uleb128 0xb
 1564 0022 0B       		.uleb128 0xb
 1565 0023 3E       		.uleb128 0x3e
 1566 0024 0B       		.uleb128 0xb
 1567 0025 03       		.uleb128 0x3
 1568 0026 08       		.uleb128 0x8
 1569 0027 00       		.byte	0
 1570 0028 00       		.byte	0
 1571 0029 04       		.uleb128 0x4
 1572 002a 16       		.uleb128 0x16
 1573 002b 00       		.byte	0
 1574 002c 03       		.uleb128 0x3
 1575 002d 0E       		.uleb128 0xe
 1576 002e 3A       		.uleb128 0x3a
 1577 002f 0B       		.uleb128 0xb
 1578 0030 3B       		.uleb128 0x3b
 1579 0031 0B       		.uleb128 0xb
 1580 0032 49       		.uleb128 0x49
 1581 0033 13       		.uleb128 0x13
 1582 0034 00       		.byte	0
 1583 0035 00       		.byte	0
 1584 0036 05       		.uleb128 0x5
 1585 0037 35       		.uleb128 0x35
 1586 0038 00       		.byte	0
 1587 0039 49       		.uleb128 0x49
 1588 003a 13       		.uleb128 0x13
 1589 003b 00       		.byte	0
 1590 003c 00       		.byte	0
 1591 003d 06       		.uleb128 0x6
 1592 003e 01       		.uleb128 0x1
ARM GAS  /var/folders/bz/nn5481rn5xq59rb0mbj7x0880000gn/T//ccVwe4HQ.s 			page 29


 1593 003f 01       		.byte	0x1
 1594 0040 49       		.uleb128 0x49
 1595 0041 13       		.uleb128 0x13
 1596 0042 01       		.uleb128 0x1
 1597 0043 13       		.uleb128 0x13
 1598 0044 00       		.byte	0
 1599 0045 00       		.byte	0
 1600 0046 07       		.uleb128 0x7
 1601 0047 21       		.uleb128 0x21
 1602 0048 00       		.byte	0
 1603 0049 49       		.uleb128 0x49
 1604 004a 13       		.uleb128 0x13
 1605 004b 2F       		.uleb128 0x2f
 1606 004c 0B       		.uleb128 0xb
 1607 004d 00       		.byte	0
 1608 004e 00       		.byte	0
 1609 004f 08       		.uleb128 0x8
 1610 0050 13       		.uleb128 0x13
 1611 0051 01       		.byte	0x1
 1612 0052 0B       		.uleb128 0xb
 1613 0053 0B       		.uleb128 0xb
 1614 0054 3A       		.uleb128 0x3a
 1615 0055 0B       		.uleb128 0xb
 1616 0056 3B       		.uleb128 0x3b
 1617 0057 05       		.uleb128 0x5
 1618 0058 01       		.uleb128 0x1
 1619 0059 13       		.uleb128 0x13
 1620 005a 00       		.byte	0
 1621 005b 00       		.byte	0
 1622 005c 09       		.uleb128 0x9
 1623 005d 0D       		.uleb128 0xd
 1624 005e 00       		.byte	0
 1625 005f 03       		.uleb128 0x3
 1626 0060 08       		.uleb128 0x8
 1627 0061 3A       		.uleb128 0x3a
 1628 0062 0B       		.uleb128 0xb
 1629 0063 3B       		.uleb128 0x3b
 1630 0064 05       		.uleb128 0x5
 1631 0065 49       		.uleb128 0x49
 1632 0066 13       		.uleb128 0x13
 1633 0067 38       		.uleb128 0x38
 1634 0068 0B       		.uleb128 0xb
 1635 0069 00       		.byte	0
 1636 006a 00       		.byte	0
 1637 006b 0A       		.uleb128 0xa
 1638 006c 0D       		.uleb128 0xd
 1639 006d 00       		.byte	0
 1640 006e 03       		.uleb128 0x3
 1641 006f 0E       		.uleb128 0xe
 1642 0070 3A       		.uleb128 0x3a
 1643 0071 0B       		.uleb128 0xb
 1644 0072 3B       		.uleb128 0x3b
 1645 0073 05       		.uleb128 0x5
 1646 0074 49       		.uleb128 0x49
 1647 0075 13       		.uleb128 0x13
 1648 0076 38       		.uleb128 0x38
 1649 0077 0B       		.uleb128 0xb
ARM GAS  /var/folders/bz/nn5481rn5xq59rb0mbj7x0880000gn/T//ccVwe4HQ.s 			page 30


 1650 0078 00       		.byte	0
 1651 0079 00       		.byte	0
 1652 007a 0B       		.uleb128 0xb
 1653 007b 16       		.uleb128 0x16
 1654 007c 00       		.byte	0
 1655 007d 03       		.uleb128 0x3
 1656 007e 0E       		.uleb128 0xe
 1657 007f 3A       		.uleb128 0x3a
 1658 0080 0B       		.uleb128 0xb
 1659 0081 3B       		.uleb128 0x3b
 1660 0082 05       		.uleb128 0x5
 1661 0083 49       		.uleb128 0x49
 1662 0084 13       		.uleb128 0x13
 1663 0085 00       		.byte	0
 1664 0086 00       		.byte	0
 1665 0087 0C       		.uleb128 0xc
 1666 0088 0F       		.uleb128 0xf
 1667 0089 00       		.byte	0
 1668 008a 0B       		.uleb128 0xb
 1669 008b 0B       		.uleb128 0xb
 1670 008c 49       		.uleb128 0x49
 1671 008d 13       		.uleb128 0x13
 1672 008e 00       		.byte	0
 1673 008f 00       		.byte	0
 1674 0090 0D       		.uleb128 0xd
 1675 0091 04       		.uleb128 0x4
 1676 0092 01       		.byte	0x1
 1677 0093 0B       		.uleb128 0xb
 1678 0094 0B       		.uleb128 0xb
 1679 0095 3A       		.uleb128 0x3a
 1680 0096 0B       		.uleb128 0xb
 1681 0097 3B       		.uleb128 0x3b
 1682 0098 0B       		.uleb128 0xb
 1683 0099 01       		.uleb128 0x1
 1684 009a 13       		.uleb128 0x13
 1685 009b 00       		.byte	0
 1686 009c 00       		.byte	0
 1687 009d 0E       		.uleb128 0xe
 1688 009e 28       		.uleb128 0x28
 1689 009f 00       		.byte	0
 1690 00a0 03       		.uleb128 0x3
 1691 00a1 0E       		.uleb128 0xe
 1692 00a2 1C       		.uleb128 0x1c
 1693 00a3 0D       		.uleb128 0xd
 1694 00a4 00       		.byte	0
 1695 00a5 00       		.byte	0
 1696 00a6 0F       		.uleb128 0xf
 1697 00a7 13       		.uleb128 0x13
 1698 00a8 01       		.byte	0x1
 1699 00a9 03       		.uleb128 0x3
 1700 00aa 0E       		.uleb128 0xe
 1701 00ab 0B       		.uleb128 0xb
 1702 00ac 0B       		.uleb128 0xb
 1703 00ad 3A       		.uleb128 0x3a
 1704 00ae 0B       		.uleb128 0xb
 1705 00af 3B       		.uleb128 0x3b
 1706 00b0 05       		.uleb128 0x5
ARM GAS  /var/folders/bz/nn5481rn5xq59rb0mbj7x0880000gn/T//ccVwe4HQ.s 			page 31


 1707 00b1 01       		.uleb128 0x1
 1708 00b2 13       		.uleb128 0x13
 1709 00b3 00       		.byte	0
 1710 00b4 00       		.byte	0
 1711 00b5 10       		.uleb128 0x10
 1712 00b6 15       		.uleb128 0x15
 1713 00b7 01       		.byte	0x1
 1714 00b8 27       		.uleb128 0x27
 1715 00b9 19       		.uleb128 0x19
 1716 00ba 01       		.uleb128 0x1
 1717 00bb 13       		.uleb128 0x13
 1718 00bc 00       		.byte	0
 1719 00bd 00       		.byte	0
 1720 00be 11       		.uleb128 0x11
 1721 00bf 05       		.uleb128 0x5
 1722 00c0 00       		.byte	0
 1723 00c1 49       		.uleb128 0x49
 1724 00c2 13       		.uleb128 0x13
 1725 00c3 00       		.byte	0
 1726 00c4 00       		.byte	0
 1727 00c5 12       		.uleb128 0x12
 1728 00c6 26       		.uleb128 0x26
 1729 00c7 00       		.byte	0
 1730 00c8 49       		.uleb128 0x49
 1731 00c9 13       		.uleb128 0x13
 1732 00ca 00       		.byte	0
 1733 00cb 00       		.byte	0
 1734 00cc 13       		.uleb128 0x13
 1735 00cd 2E       		.uleb128 0x2e
 1736 00ce 01       		.byte	0x1
 1737 00cf 03       		.uleb128 0x3
 1738 00d0 0E       		.uleb128 0xe
 1739 00d1 3A       		.uleb128 0x3a
 1740 00d2 0B       		.uleb128 0xb
 1741 00d3 3B       		.uleb128 0x3b
 1742 00d4 0B       		.uleb128 0xb
 1743 00d5 27       		.uleb128 0x27
 1744 00d6 19       		.uleb128 0x19
 1745 00d7 20       		.uleb128 0x20
 1746 00d8 0B       		.uleb128 0xb
 1747 00d9 01       		.uleb128 0x1
 1748 00da 13       		.uleb128 0x13
 1749 00db 00       		.byte	0
 1750 00dc 00       		.byte	0
 1751 00dd 14       		.uleb128 0x14
 1752 00de 05       		.uleb128 0x5
 1753 00df 00       		.byte	0
 1754 00e0 03       		.uleb128 0x3
 1755 00e1 0E       		.uleb128 0xe
 1756 00e2 3A       		.uleb128 0x3a
 1757 00e3 0B       		.uleb128 0xb
 1758 00e4 3B       		.uleb128 0x3b
 1759 00e5 0B       		.uleb128 0xb
 1760 00e6 49       		.uleb128 0x49
 1761 00e7 13       		.uleb128 0x13
 1762 00e8 00       		.byte	0
 1763 00e9 00       		.byte	0
ARM GAS  /var/folders/bz/nn5481rn5xq59rb0mbj7x0880000gn/T//ccVwe4HQ.s 			page 32


 1764 00ea 15       		.uleb128 0x15
 1765 00eb 34       		.uleb128 0x34
 1766 00ec 00       		.byte	0
 1767 00ed 03       		.uleb128 0x3
 1768 00ee 08       		.uleb128 0x8
 1769 00ef 3A       		.uleb128 0x3a
 1770 00f0 0B       		.uleb128 0xb
 1771 00f1 3B       		.uleb128 0x3b
 1772 00f2 0B       		.uleb128 0xb
 1773 00f3 49       		.uleb128 0x49
 1774 00f4 13       		.uleb128 0x13
 1775 00f5 00       		.byte	0
 1776 00f6 00       		.byte	0
 1777 00f7 16       		.uleb128 0x16
 1778 00f8 0B       		.uleb128 0xb
 1779 00f9 01       		.byte	0x1
 1780 00fa 01       		.uleb128 0x1
 1781 00fb 13       		.uleb128 0x13
 1782 00fc 00       		.byte	0
 1783 00fd 00       		.byte	0
 1784 00fe 17       		.uleb128 0x17
 1785 00ff 34       		.uleb128 0x34
 1786 0100 00       		.byte	0
 1787 0101 03       		.uleb128 0x3
 1788 0102 0E       		.uleb128 0xe
 1789 0103 3A       		.uleb128 0x3a
 1790 0104 0B       		.uleb128 0xb
 1791 0105 3B       		.uleb128 0x3b
 1792 0106 0B       		.uleb128 0xb
 1793 0107 49       		.uleb128 0x49
 1794 0108 13       		.uleb128 0x13
 1795 0109 00       		.byte	0
 1796 010a 00       		.byte	0
 1797 010b 18       		.uleb128 0x18
 1798 010c 0B       		.uleb128 0xb
 1799 010d 01       		.byte	0x1
 1800 010e 00       		.byte	0
 1801 010f 00       		.byte	0
 1802 0110 19       		.uleb128 0x19
 1803 0111 2E       		.uleb128 0x2e
 1804 0112 01       		.byte	0x1
 1805 0113 3F       		.uleb128 0x3f
 1806 0114 19       		.uleb128 0x19
 1807 0115 03       		.uleb128 0x3
 1808 0116 0E       		.uleb128 0xe
 1809 0117 3A       		.uleb128 0x3a
 1810 0118 0B       		.uleb128 0xb
 1811 0119 3B       		.uleb128 0x3b
 1812 011a 0B       		.uleb128 0xb
 1813 011b 27       		.uleb128 0x27
 1814 011c 19       		.uleb128 0x19
 1815 011d 11       		.uleb128 0x11
 1816 011e 01       		.uleb128 0x1
 1817 011f 12       		.uleb128 0x12
 1818 0120 06       		.uleb128 0x6
 1819 0121 40       		.uleb128 0x40
 1820 0122 18       		.uleb128 0x18
ARM GAS  /var/folders/bz/nn5481rn5xq59rb0mbj7x0880000gn/T//ccVwe4HQ.s 			page 33


 1821 0123 9742     		.uleb128 0x2117
 1822 0125 19       		.uleb128 0x19
 1823 0126 01       		.uleb128 0x1
 1824 0127 13       		.uleb128 0x13
 1825 0128 00       		.byte	0
 1826 0129 00       		.byte	0
 1827 012a 1A       		.uleb128 0x1a
 1828 012b 1D       		.uleb128 0x1d
 1829 012c 01       		.byte	0x1
 1830 012d 31       		.uleb128 0x31
 1831 012e 13       		.uleb128 0x13
 1832 012f 52       		.uleb128 0x52
 1833 0130 01       		.uleb128 0x1
 1834 0131 55       		.uleb128 0x55
 1835 0132 17       		.uleb128 0x17
 1836 0133 58       		.uleb128 0x58
 1837 0134 0B       		.uleb128 0xb
 1838 0135 59       		.uleb128 0x59
 1839 0136 0B       		.uleb128 0xb
 1840 0137 01       		.uleb128 0x1
 1841 0138 13       		.uleb128 0x13
 1842 0139 00       		.byte	0
 1843 013a 00       		.byte	0
 1844 013b 1B       		.uleb128 0x1b
 1845 013c 05       		.uleb128 0x5
 1846 013d 00       		.byte	0
 1847 013e 31       		.uleb128 0x31
 1848 013f 13       		.uleb128 0x13
 1849 0140 02       		.uleb128 0x2
 1850 0141 18       		.uleb128 0x18
 1851 0142 00       		.byte	0
 1852 0143 00       		.byte	0
 1853 0144 1C       		.uleb128 0x1c
 1854 0145 0B       		.uleb128 0xb
 1855 0146 01       		.byte	0x1
 1856 0147 55       		.uleb128 0x55
 1857 0148 17       		.uleb128 0x17
 1858 0149 00       		.byte	0
 1859 014a 00       		.byte	0
 1860 014b 1D       		.uleb128 0x1d
 1861 014c 34       		.uleb128 0x34
 1862 014d 00       		.byte	0
 1863 014e 31       		.uleb128 0x31
 1864 014f 13       		.uleb128 0x13
 1865 0150 02       		.uleb128 0x2
 1866 0151 17       		.uleb128 0x17
 1867 0152 00       		.byte	0
 1868 0153 00       		.byte	0
 1869 0154 1E       		.uleb128 0x1e
 1870 0155 0B       		.uleb128 0xb
 1871 0156 01       		.byte	0x1
 1872 0157 11       		.uleb128 0x11
 1873 0158 01       		.uleb128 0x1
 1874 0159 12       		.uleb128 0x12
 1875 015a 06       		.uleb128 0x6
 1876 015b 01       		.uleb128 0x1
 1877 015c 13       		.uleb128 0x13
ARM GAS  /var/folders/bz/nn5481rn5xq59rb0mbj7x0880000gn/T//ccVwe4HQ.s 			page 34


 1878 015d 00       		.byte	0
 1879 015e 00       		.byte	0
 1880 015f 1F       		.uleb128 0x1f
 1881 0160 898201   		.uleb128 0x4109
 1882 0163 01       		.byte	0x1
 1883 0164 11       		.uleb128 0x11
 1884 0165 01       		.uleb128 0x1
 1885 0166 00       		.byte	0
 1886 0167 00       		.byte	0
 1887 0168 20       		.uleb128 0x20
 1888 0169 8A8201   		.uleb128 0x410a
 1889 016c 00       		.byte	0
 1890 016d 02       		.uleb128 0x2
 1891 016e 18       		.uleb128 0x18
 1892 016f 9142     		.uleb128 0x2111
 1893 0171 18       		.uleb128 0x18
 1894 0172 00       		.byte	0
 1895 0173 00       		.byte	0
 1896 0174 21       		.uleb128 0x21
 1897 0175 898201   		.uleb128 0x4109
 1898 0178 01       		.byte	0x1
 1899 0179 11       		.uleb128 0x11
 1900 017a 01       		.uleb128 0x1
 1901 017b 01       		.uleb128 0x1
 1902 017c 13       		.uleb128 0x13
 1903 017d 00       		.byte	0
 1904 017e 00       		.byte	0
 1905 017f 22       		.uleb128 0x22
 1906 0180 898201   		.uleb128 0x4109
 1907 0183 00       		.byte	0
 1908 0184 11       		.uleb128 0x11
 1909 0185 01       		.uleb128 0x1
 1910 0186 9542     		.uleb128 0x2115
 1911 0188 19       		.uleb128 0x19
 1912 0189 31       		.uleb128 0x31
 1913 018a 13       		.uleb128 0x13
 1914 018b 00       		.byte	0
 1915 018c 00       		.byte	0
 1916 018d 23       		.uleb128 0x23
 1917 018e 2E       		.uleb128 0x2e
 1918 018f 01       		.byte	0x1
 1919 0190 3F       		.uleb128 0x3f
 1920 0191 19       		.uleb128 0x19
 1921 0192 03       		.uleb128 0x3
 1922 0193 0E       		.uleb128 0xe
 1923 0194 3A       		.uleb128 0x3a
 1924 0195 0B       		.uleb128 0xb
 1925 0196 3B       		.uleb128 0x3b
 1926 0197 05       		.uleb128 0x5
 1927 0198 27       		.uleb128 0x27
 1928 0199 19       		.uleb128 0x19
 1929 019a 11       		.uleb128 0x11
 1930 019b 01       		.uleb128 0x1
 1931 019c 12       		.uleb128 0x12
 1932 019d 06       		.uleb128 0x6
 1933 019e 40       		.uleb128 0x40
 1934 019f 18       		.uleb128 0x18
ARM GAS  /var/folders/bz/nn5481rn5xq59rb0mbj7x0880000gn/T//ccVwe4HQ.s 			page 35


 1935 01a0 9742     		.uleb128 0x2117
 1936 01a2 19       		.uleb128 0x19
 1937 01a3 01       		.uleb128 0x1
 1938 01a4 13       		.uleb128 0x13
 1939 01a5 00       		.byte	0
 1940 01a6 00       		.byte	0
 1941 01a7 24       		.uleb128 0x24
 1942 01a8 898201   		.uleb128 0x4109
 1943 01ab 01       		.byte	0x1
 1944 01ac 11       		.uleb128 0x11
 1945 01ad 01       		.uleb128 0x1
 1946 01ae 31       		.uleb128 0x31
 1947 01af 13       		.uleb128 0x13
 1948 01b0 00       		.byte	0
 1949 01b1 00       		.byte	0
 1950 01b2 25       		.uleb128 0x25
 1951 01b3 05       		.uleb128 0x5
 1952 01b4 00       		.byte	0
 1953 01b5 03       		.uleb128 0x3
 1954 01b6 0E       		.uleb128 0xe
 1955 01b7 3A       		.uleb128 0x3a
 1956 01b8 0B       		.uleb128 0xb
 1957 01b9 3B       		.uleb128 0x3b
 1958 01ba 05       		.uleb128 0x5
 1959 01bb 49       		.uleb128 0x49
 1960 01bc 13       		.uleb128 0x13
 1961 01bd 02       		.uleb128 0x2
 1962 01be 17       		.uleb128 0x17
 1963 01bf 00       		.byte	0
 1964 01c0 00       		.byte	0
 1965 01c1 26       		.uleb128 0x26
 1966 01c2 34       		.uleb128 0x34
 1967 01c3 00       		.byte	0
 1968 01c4 03       		.uleb128 0x3
 1969 01c5 08       		.uleb128 0x8
 1970 01c6 3A       		.uleb128 0x3a
 1971 01c7 0B       		.uleb128 0xb
 1972 01c8 3B       		.uleb128 0x3b
 1973 01c9 05       		.uleb128 0x5
 1974 01ca 49       		.uleb128 0x49
 1975 01cb 13       		.uleb128 0x13
 1976 01cc 02       		.uleb128 0x2
 1977 01cd 17       		.uleb128 0x17
 1978 01ce 00       		.byte	0
 1979 01cf 00       		.byte	0
 1980 01d0 27       		.uleb128 0x27
 1981 01d1 05       		.uleb128 0x5
 1982 01d2 00       		.byte	0
 1983 01d3 03       		.uleb128 0x3
 1984 01d4 0E       		.uleb128 0xe
 1985 01d5 3A       		.uleb128 0x3a
 1986 01d6 0B       		.uleb128 0xb
 1987 01d7 3B       		.uleb128 0x3b
 1988 01d8 05       		.uleb128 0x5
 1989 01d9 49       		.uleb128 0x49
 1990 01da 13       		.uleb128 0x13
 1991 01db 02       		.uleb128 0x2
ARM GAS  /var/folders/bz/nn5481rn5xq59rb0mbj7x0880000gn/T//ccVwe4HQ.s 			page 36


 1992 01dc 18       		.uleb128 0x18
 1993 01dd 00       		.byte	0
 1994 01de 00       		.byte	0
 1995 01df 28       		.uleb128 0x28
 1996 01e0 34       		.uleb128 0x34
 1997 01e1 00       		.byte	0
 1998 01e2 03       		.uleb128 0x3
 1999 01e3 0E       		.uleb128 0xe
 2000 01e4 3A       		.uleb128 0x3a
 2001 01e5 0B       		.uleb128 0xb
 2002 01e6 3B       		.uleb128 0x3b
 2003 01e7 05       		.uleb128 0x5
 2004 01e8 49       		.uleb128 0x49
 2005 01e9 13       		.uleb128 0x13
 2006 01ea 3F       		.uleb128 0x3f
 2007 01eb 19       		.uleb128 0x19
 2008 01ec 3C       		.uleb128 0x3c
 2009 01ed 19       		.uleb128 0x19
 2010 01ee 00       		.byte	0
 2011 01ef 00       		.byte	0
 2012 01f0 29       		.uleb128 0x29
 2013 01f1 34       		.uleb128 0x34
 2014 01f2 00       		.byte	0
 2015 01f3 03       		.uleb128 0x3
 2016 01f4 0E       		.uleb128 0xe
 2017 01f5 3A       		.uleb128 0x3a
 2018 01f6 0B       		.uleb128 0xb
 2019 01f7 3B       		.uleb128 0x3b
 2020 01f8 0B       		.uleb128 0xb
 2021 01f9 49       		.uleb128 0x49
 2022 01fa 13       		.uleb128 0x13
 2023 01fb 3F       		.uleb128 0x3f
 2024 01fc 19       		.uleb128 0x19
 2025 01fd 02       		.uleb128 0x2
 2026 01fe 18       		.uleb128 0x18
 2027 01ff 00       		.byte	0
 2028 0200 00       		.byte	0
 2029 0201 2A       		.uleb128 0x2a
 2030 0202 2E       		.uleb128 0x2e
 2031 0203 00       		.byte	0
 2032 0204 3F       		.uleb128 0x3f
 2033 0205 19       		.uleb128 0x19
 2034 0206 03       		.uleb128 0x3
 2035 0207 0E       		.uleb128 0xe
 2036 0208 3A       		.uleb128 0x3a
 2037 0209 0B       		.uleb128 0xb
 2038 020a 3B       		.uleb128 0x3b
 2039 020b 05       		.uleb128 0x5
 2040 020c 27       		.uleb128 0x27
 2041 020d 19       		.uleb128 0x19
 2042 020e 3C       		.uleb128 0x3c
 2043 020f 19       		.uleb128 0x19
 2044 0210 00       		.byte	0
 2045 0211 00       		.byte	0
 2046 0212 2B       		.uleb128 0x2b
 2047 0213 2E       		.uleb128 0x2e
 2048 0214 01       		.byte	0x1
ARM GAS  /var/folders/bz/nn5481rn5xq59rb0mbj7x0880000gn/T//ccVwe4HQ.s 			page 37


 2049 0215 3F       		.uleb128 0x3f
 2050 0216 19       		.uleb128 0x19
 2051 0217 03       		.uleb128 0x3
 2052 0218 0E       		.uleb128 0xe
 2053 0219 3A       		.uleb128 0x3a
 2054 021a 0B       		.uleb128 0xb
 2055 021b 3B       		.uleb128 0x3b
 2056 021c 0B       		.uleb128 0xb
 2057 021d 27       		.uleb128 0x27
 2058 021e 19       		.uleb128 0x19
 2059 021f 3C       		.uleb128 0x3c
 2060 0220 19       		.uleb128 0x19
 2061 0221 01       		.uleb128 0x1
 2062 0222 13       		.uleb128 0x13
 2063 0223 00       		.byte	0
 2064 0224 00       		.byte	0
 2065 0225 2C       		.uleb128 0x2c
 2066 0226 2E       		.uleb128 0x2e
 2067 0227 01       		.byte	0x1
 2068 0228 3F       		.uleb128 0x3f
 2069 0229 19       		.uleb128 0x19
 2070 022a 03       		.uleb128 0x3
 2071 022b 0E       		.uleb128 0xe
 2072 022c 3A       		.uleb128 0x3a
 2073 022d 0B       		.uleb128 0xb
 2074 022e 3B       		.uleb128 0x3b
 2075 022f 05       		.uleb128 0x5
 2076 0230 27       		.uleb128 0x27
 2077 0231 19       		.uleb128 0x19
 2078 0232 3C       		.uleb128 0x3c
 2079 0233 19       		.uleb128 0x19
 2080 0234 01       		.uleb128 0x1
 2081 0235 13       		.uleb128 0x13
 2082 0236 00       		.byte	0
 2083 0237 00       		.byte	0
 2084 0238 2D       		.uleb128 0x2d
 2085 0239 2E       		.uleb128 0x2e
 2086 023a 01       		.byte	0x1
 2087 023b 3F       		.uleb128 0x3f
 2088 023c 19       		.uleb128 0x19
 2089 023d 03       		.uleb128 0x3
 2090 023e 0E       		.uleb128 0xe
 2091 023f 3A       		.uleb128 0x3a
 2092 0240 0B       		.uleb128 0xb
 2093 0241 3B       		.uleb128 0x3b
 2094 0242 05       		.uleb128 0x5
 2095 0243 27       		.uleb128 0x27
 2096 0244 19       		.uleb128 0x19
 2097 0245 3C       		.uleb128 0x3c
 2098 0246 19       		.uleb128 0x19
 2099 0247 00       		.byte	0
 2100 0248 00       		.byte	0
 2101 0249 00       		.byte	0
 2102              		.section	.debug_loc,"",%progbits
 2103              	.Ldebug_loc0:
 2104              	.LLST0:
 2105 0000 0A000000 		.4byte	.LVL1
ARM GAS  /var/folders/bz/nn5481rn5xq59rb0mbj7x0880000gn/T//ccVwe4HQ.s 			page 38


 2106 0004 40000000 		.4byte	.LVL7
 2107 0008 0100     		.2byte	0x1
 2108 000a 54       		.byte	0x54
 2109 000b 44000000 		.4byte	.LVL8
 2110 000f 90000000 		.4byte	.LFE119
 2111 0013 0100     		.2byte	0x1
 2112 0015 54       		.byte	0x54
 2113 0016 00000000 		.4byte	0
 2114 001a 00000000 		.4byte	0
 2115              	.LLST1:
 2116 001e 1E000000 		.4byte	.LVL3
 2117 0022 28000000 		.4byte	.LVL4
 2118 0026 0100     		.2byte	0x1
 2119 0028 53       		.byte	0x53
 2120 0029 28000000 		.4byte	.LVL4
 2121 002d 2B000000 		.4byte	.LVL5-1
 2122 0031 0500     		.2byte	0x5
 2123 0033 03       		.byte	0x3
 2124 0034 00000000 		.4byte	ICUD3
 2125 0038 86000000 		.4byte	.LVL14
 2126 003c 88000000 		.4byte	.LVL15
 2127 0040 0100     		.2byte	0x1
 2128 0042 53       		.byte	0x53
 2129 0043 88000000 		.4byte	.LVL15
 2130 0047 90000000 		.4byte	.LFE119
 2131 004b 0500     		.2byte	0x5
 2132 004d 03       		.byte	0x3
 2133 004e 00000000 		.4byte	ICUD3
 2134 0052 00000000 		.4byte	0
 2135 0056 00000000 		.4byte	0
 2136              	.LLST2:
 2137 005a 5E000000 		.4byte	.LVL10
 2138 005e 6A000000 		.4byte	.LVL11
 2139 0062 0100     		.2byte	0x1
 2140 0064 53       		.byte	0x53
 2141 0065 6A000000 		.4byte	.LVL11
 2142 0069 6D000000 		.4byte	.LVL12-1
 2143 006d 0500     		.2byte	0x5
 2144 006f 03       		.byte	0x3
 2145 0070 00000000 		.4byte	ICUD3
 2146 0074 00000000 		.4byte	0
 2147 0078 00000000 		.4byte	0
 2148              	.LLST3:
 2149 007c 00000000 		.4byte	.LVL17
 2150 0080 16000000 		.4byte	.LVL18
 2151 0084 0100     		.2byte	0x1
 2152 0086 50       		.byte	0x50
 2153 0087 16000000 		.4byte	.LVL18
 2154 008b 82000000 		.4byte	.LVL23
 2155 008f 0100     		.2byte	0x1
 2156 0091 54       		.byte	0x54
 2157 0092 82000000 		.4byte	.LVL23
 2158 0096 88000000 		.4byte	.LVL24
 2159 009a 0100     		.2byte	0x1
 2160 009c 50       		.byte	0x50
 2161 009d 88000000 		.4byte	.LVL24
 2162 00a1 8C000000 		.4byte	.LVL25
ARM GAS  /var/folders/bz/nn5481rn5xq59rb0mbj7x0880000gn/T//ccVwe4HQ.s 			page 39


 2163 00a5 0100     		.2byte	0x1
 2164 00a7 54       		.byte	0x54
 2165 00a8 8C000000 		.4byte	.LVL25
 2166 00ac A2000000 		.4byte	.LVL26
 2167 00b0 0100     		.2byte	0x1
 2168 00b2 50       		.byte	0x50
 2169 00b3 A2000000 		.4byte	.LVL26
 2170 00b7 BC000000 		.4byte	.LFE121
 2171 00bb 0100     		.2byte	0x1
 2172 00bd 54       		.byte	0x54
 2173 00be 00000000 		.4byte	0
 2174 00c2 00000000 		.4byte	0
 2175              	.LLST4:
 2176 00c6 36000000 		.4byte	.LVL19
 2177 00ca 38000000 		.4byte	.LVL20
 2178 00ce 1000     		.2byte	0x10
 2179 00d0 74       		.byte	0x74
 2180 00d1 08       		.sleb128 8
 2181 00d2 06       		.byte	0x6
 2182 00d3 F7       		.byte	0xf7
 2183 00d4 25       		.uleb128 0x25
 2184 00d5 71       		.byte	0x71
 2185 00d6 04       		.sleb128 4
 2186 00d7 06       		.byte	0x6
 2187 00d8 F7       		.byte	0xf7
 2188 00d9 25       		.uleb128 0x25
 2189 00da 1B       		.byte	0x1b
 2190 00db F7       		.byte	0xf7
 2191 00dc 00       		.uleb128 0
 2192 00dd 31       		.byte	0x31
 2193 00de 1C       		.byte	0x1c
 2194 00df 9F       		.byte	0x9f
 2195 00e0 00000000 		.4byte	0
 2196 00e4 00000000 		.4byte	0
 2197              	.LLST5:
 2198 00e8 00000000 		.4byte	.LVL28
 2199 00ec 08000000 		.4byte	.LVL29
 2200 00f0 0100     		.2byte	0x1
 2201 00f2 50       		.byte	0x50
 2202 00f3 08000000 		.4byte	.LVL29
 2203 00f7 0A000000 		.4byte	.LVL30
 2204 00fb 0400     		.2byte	0x4
 2205 00fd F3       		.byte	0xf3
 2206 00fe 01       		.uleb128 0x1
 2207 00ff 50       		.byte	0x50
 2208 0100 9F       		.byte	0x9f
 2209 0101 0A000000 		.4byte	.LVL30
 2210 0105 1C000000 		.4byte	.LVL31
 2211 0109 0100     		.2byte	0x1
 2212 010b 50       		.byte	0x50
 2213 010c 1C000000 		.4byte	.LVL31
 2214 0110 34000000 		.4byte	.LFE122
 2215 0114 0400     		.2byte	0x4
 2216 0116 F3       		.byte	0xf3
 2217 0117 01       		.uleb128 0x1
 2218 0118 50       		.byte	0x50
 2219 0119 9F       		.byte	0x9f
ARM GAS  /var/folders/bz/nn5481rn5xq59rb0mbj7x0880000gn/T//ccVwe4HQ.s 			page 40


 2220 011a 00000000 		.4byte	0
 2221 011e 00000000 		.4byte	0
 2222              	.LLST6:
 2223 0122 00000000 		.4byte	.LVL33
 2224 0126 08000000 		.4byte	.LVL34
 2225 012a 0100     		.2byte	0x1
 2226 012c 50       		.byte	0x50
 2227 012d 08000000 		.4byte	.LVL34
 2228 0131 58000000 		.4byte	.LFE123
 2229 0135 0400     		.2byte	0x4
 2230 0137 F3       		.byte	0xf3
 2231 0138 01       		.uleb128 0x1
 2232 0139 50       		.byte	0x50
 2233 013a 9F       		.byte	0x9f
 2234 013b 00000000 		.4byte	0
 2235 013f 00000000 		.4byte	0
 2236              		.section	.debug_aranges,"",%progbits
 2237 0000 44000000 		.4byte	0x44
 2238 0004 0200     		.2byte	0x2
 2239 0006 00000000 		.4byte	.Ldebug_info0
 2240 000a 04       		.byte	0x4
 2241 000b 00       		.byte	0
 2242 000c 0000     		.2byte	0
 2243 000e 0000     		.2byte	0
 2244 0010 00000000 		.4byte	.LFB119
 2245 0014 90000000 		.4byte	.LFE119-.LFB119
 2246 0018 00000000 		.4byte	.LFB120
 2247 001c 18000000 		.4byte	.LFE120-.LFB120
 2248 0020 00000000 		.4byte	.LFB121
 2249 0024 BC000000 		.4byte	.LFE121-.LFB121
 2250 0028 00000000 		.4byte	.LFB122
 2251 002c 34000000 		.4byte	.LFE122-.LFB122
 2252 0030 00000000 		.4byte	.LFB123
 2253 0034 58000000 		.4byte	.LFE123-.LFB123
 2254 0038 00000000 		.4byte	.LFB124
 2255 003c 12000000 		.4byte	.LFE124-.LFB124
 2256 0040 00000000 		.4byte	0
 2257 0044 00000000 		.4byte	0
 2258              		.section	.debug_ranges,"",%progbits
 2259              	.Ldebug_ranges0:
 2260 0000 02000000 		.4byte	.LBB8
 2261 0004 3C000000 		.4byte	.LBE8
 2262 0008 44000000 		.4byte	.LBB13
 2263 000c 90000000 		.4byte	.LBE13
 2264 0010 00000000 		.4byte	0
 2265 0014 00000000 		.4byte	0
 2266 0018 00000000 		.4byte	.LFB119
 2267 001c 90000000 		.4byte	.LFE119
 2268 0020 00000000 		.4byte	.LFB120
 2269 0024 18000000 		.4byte	.LFE120
 2270 0028 00000000 		.4byte	.LFB121
 2271 002c BC000000 		.4byte	.LFE121
 2272 0030 00000000 		.4byte	.LFB122
 2273 0034 34000000 		.4byte	.LFE122
 2274 0038 00000000 		.4byte	.LFB123
 2275 003c 58000000 		.4byte	.LFE123
 2276 0040 00000000 		.4byte	.LFB124
ARM GAS  /var/folders/bz/nn5481rn5xq59rb0mbj7x0880000gn/T//ccVwe4HQ.s 			page 41


 2277 0044 12000000 		.4byte	.LFE124
 2278 0048 00000000 		.4byte	0
 2279 004c 00000000 		.4byte	0
 2280              		.section	.debug_line,"",%progbits
 2281              	.Ldebug_line0:
 2282 0000 3E030000 		.section	.debug_str,"MS",%progbits,1
 2282      02003E02 
 2282      00000201 
 2282      FB0E0D00 
 2282      01010101 
 2283              	.LASF34:
 2284 0000 41484231 		.ascii	"AHB1LPENR\000"
 2284      4C50454E 
 2284      5200
 2285              	.LASF92:
 2286 000a 6963755F 		.ascii	"icu_lld_stop\000"
 2286      6C6C645F 
 2286      73746F70 
 2286      00
 2287              	.LASF52:
 2288 0017 43434552 		.ascii	"CCER\000"
 2288      00
 2289              	.LASF70:
 2290 001c 77636372 		.ascii	"wccrp\000"
 2290      7000
 2291              	.LASF60:
 2292 0022 4943555F 		.ascii	"ICU_STOP\000"
 2292      53544F50 
 2292      00
 2293              	.LASF24:
 2294 002b 41504231 		.ascii	"APB1RSTR\000"
 2294      52535452 
 2294      00
 2295              	.LASF91:
 2296 0034 6963755F 		.ascii	"icu_lld_start\000"
 2296      6C6C645F 
 2296      73746172 
 2296      7400
 2297              	.LASF28:
 2298 0042 41484232 		.ascii	"AHB2ENR\000"
 2298      454E5200 
 2299              	.LASF54:
 2300 004a 444D4152 		.ascii	"DMAR\000"
 2300      00
 2301              	.LASF103:
 2302 004f 6963755F 		.ascii	"icu_lld_serve_interrupt\000"
 2302      6C6C645F 
 2302      73657276 
 2302      655F696E 
 2302      74657272 
 2303              	.LASF67:
 2304 0067 73746174 		.ascii	"state\000"
 2304      6500
 2305              	.LASF3:
 2306 006d 73686F72 		.ascii	"short int\000"
 2306      7420696E 
 2306      7400
ARM GAS  /var/folders/bz/nn5481rn5xq59rb0mbj7x0880000gn/T//ccVwe4HQ.s 			page 42


 2307              	.LASF93:
 2308 0077 69637570 		.ascii	"icup\000"
 2308      00
 2309              	.LASF16:
 2310 007c 73697A65 		.ascii	"sizetype\000"
 2310      74797065 
 2310      00
 2311              	.LASF41:
 2312 0085 42444352 		.ascii	"BDCR\000"
 2312      00
 2313              	.LASF94:
 2314 008a 6963755F 		.ascii	"icu_lld_enable\000"
 2314      6C6C645F 
 2314      656E6162 
 2314      6C6500
 2315              	.LASF99:
 2316 0099 6E766963 		.ascii	"nvicEnableVector\000"
 2316      456E6162 
 2316      6C655665 
 2316      63746F72 
 2316      00
 2317              	.LASF105:
 2318 00aa 6E766963 		.ascii	"nvicDisableVector\000"
 2318      44697361 
 2318      626C6556 
 2318      6563746F 
 2318      7200
 2319              	.LASF8:
 2320 00bc 5F5F7569 		.ascii	"__uint32_t\000"
 2320      6E743332 
 2320      5F7400
 2321              	.LASF27:
 2322 00c7 41484231 		.ascii	"AHB1ENR\000"
 2322      454E5200 
 2323              	.LASF80:
 2324 00cf 6D6F6465 		.ascii	"mode\000"
 2324      00
 2325              	.LASF5:
 2326 00d4 5F5F7569 		.ascii	"__uint16_t\000"
 2326      6E743136 
 2326      5F7400
 2327              	.LASF43:
 2328 00df 53534347 		.ascii	"SSCGR\000"
 2328      5200
 2329              	.LASF101:
 2330 00e5 6C69622F 		.ascii	"lib/ChibiOS_2.6.6/os/hal/platforms/STM32/TIMv1/icu_"
 2330      43686962 
 2330      694F535F 
 2330      322E362E 
 2330      362F6F73 
 2331 0118 6C6C642E 		.ascii	"lld.c\000"
 2331      6300
 2332              	.LASF36:
 2333 011e 41484233 		.ascii	"AHB3LPENR\000"
 2333      4C50454E 
 2333      5200
 2334              	.LASF68:
ARM GAS  /var/folders/bz/nn5481rn5xq59rb0mbj7x0880000gn/T//ccVwe4HQ.s 			page 43


 2335 0128 636F6E66 		.ascii	"config\000"
 2335      696700
 2336              	.LASF19:
 2337 012f 43464752 		.ascii	"CFGR\000"
 2337      00
 2338              	.LASF26:
 2339 0134 52455345 		.ascii	"RESERVED1\000"
 2339      52564544 
 2339      3100
 2340              	.LASF31:
 2341 013e 41504231 		.ascii	"APB1ENR\000"
 2341      454E5200 
 2342              	.LASF42:
 2343 0146 52455345 		.ascii	"RESERVED6\000"
 2343      52564544 
 2343      3600
 2344              	.LASF77:
 2345 0150 4943555F 		.ascii	"ICU_CHANNEL_1\000"
 2345      4348414E 
 2345      4E454C5F 
 2345      3100
 2346              	.LASF78:
 2347 015e 4943555F 		.ascii	"ICU_CHANNEL_2\000"
 2347      4348414E 
 2347      4E454C5F 
 2347      3200
 2348              	.LASF14:
 2349 016c 75696E74 		.ascii	"uint32_t\000"
 2349      33325F74 
 2349      00
 2350              	.LASF46:
 2351 0175 44434B43 		.ascii	"DCKCFGR\000"
 2351      46475200 
 2352              	.LASF29:
 2353 017d 41484233 		.ascii	"AHB3ENR\000"
 2353      454E5200 
 2354              	.LASF63:
 2355 0185 4943555F 		.ascii	"ICU_ACTIVE\000"
 2355      41435449 
 2355      564500
 2356              	.LASF10:
 2357 0190 6C6F6E67 		.ascii	"long long int\000"
 2357      206C6F6E 
 2357      6720696E 
 2357      7400
 2358              	.LASF11:
 2359 019e 6C6F6E67 		.ascii	"long long unsigned int\000"
 2359      206C6F6E 
 2359      6720756E 
 2359      7369676E 
 2359      65642069 
 2360              	.LASF75:
 2361 01b5 6963756D 		.ascii	"icumode_t\000"
 2361      6F64655F 
 2361      7400
 2362              	.LASF17:
 2363 01bf 63686172 		.ascii	"char\000"
ARM GAS  /var/folders/bz/nn5481rn5xq59rb0mbj7x0880000gn/T//ccVwe4HQ.s 			page 44


 2363      00
 2364              	.LASF39:
 2365 01c4 41504232 		.ascii	"APB2LPENR\000"
 2365      4C50454E 
 2365      5200
 2366              	.LASF7:
 2367 01ce 6C6F6E67 		.ascii	"long int\000"
 2367      20696E74 
 2367      00
 2368              	.LASF44:
 2369 01d7 504C4C49 		.ascii	"PLLI2SCFGR\000"
 2369      32534346 
 2369      475200
 2370              	.LASF56:
 2371 01e2 43435235 		.ascii	"CCR5\000"
 2371      00
 2372              	.LASF47:
 2373 01e7 5243435F 		.ascii	"RCC_TypeDef\000"
 2373      54797065 
 2373      44656600 
 2374              	.LASF71:
 2375 01f3 70636372 		.ascii	"pccrp\000"
 2375      7000
 2376              	.LASF25:
 2377 01f9 41504232 		.ascii	"APB2RSTR\000"
 2377      52535452 
 2377      00
 2378              	.LASF50:
 2379 0202 43434D52 		.ascii	"CCMR1\000"
 2379      3100
 2380              	.LASF89:
 2381 0208 56656374 		.ascii	"VectorB4\000"
 2381      6F724234 
 2381      00
 2382              	.LASF55:
 2383 0211 43434D52 		.ascii	"CCMR3\000"
 2383      3300
 2384              	.LASF51:
 2385 0217 43434D52 		.ascii	"CCMR2\000"
 2385      3200
 2386              	.LASF64:
 2387 021d 4943555F 		.ascii	"ICU_IDLE\000"
 2387      49444C45 
 2387      00
 2388              	.LASF100:
 2389 0226 474E5520 		.ascii	"GNU C 4.9.3 20150529 (release) [ARM/embedded-4_9-br"
 2389      4320342E 
 2389      392E3320 
 2389      32303135 
 2389      30353239 
 2390 0259 616E6368 		.ascii	"anch revision 224288] -mcpu=cortex-m4 -mfloat-abi=h"
 2390      20726576 
 2390      6973696F 
 2390      6E203232 
 2390      34323838 
 2391 028c 61726420 		.ascii	"ard -mfpu=fpv4-sp-d16 -mno-thumb-interwork -mthumb "
 2391      2D6D6670 
ARM GAS  /var/folders/bz/nn5481rn5xq59rb0mbj7x0880000gn/T//ccVwe4HQ.s 			page 45


 2391      753D6670 
 2391      76342D73 
 2391      702D6431 
 2392 02bf 2D676764 		.ascii	"-ggdb -O2 -std=gnu99 -fomit-frame-pointer -falign-f"
 2392      62202D4F 
 2392      32202D73 
 2392      74643D67 
 2392      6E753939 
 2393 02f2 756E6374 		.ascii	"unctions=16 -ffunction-sections -fdata-sections -fn"
 2393      696F6E73 
 2393      3D313620 
 2393      2D666675 
 2393      6E637469 
 2394 0325 6F2D636F 		.ascii	"o-common -fsingle-precision-constant\000"
 2394      6D6D6F6E 
 2394      202D6673 
 2394      696E676C 
 2394      652D7072 
 2395              	.LASF104:
 2396 034a 5F706F72 		.ascii	"_port_irq_epilogue\000"
 2396      745F6972 
 2396      715F6570 
 2396      696C6F67 
 2396      756500
 2397              	.LASF2:
 2398 035d 756E7369 		.ascii	"unsigned char\000"
 2398      676E6564 
 2398      20636861 
 2398      7200
 2399              	.LASF87:
 2400 036b 49435543 		.ascii	"ICUConfig\000"
 2400      6F6E6669 
 2400      6700
 2401              	.LASF32:
 2402 0375 41504232 		.ascii	"APB2ENR\000"
 2402      454E5200 
 2403              	.LASF57:
 2404 037d 43435236 		.ascii	"CCR6\000"
 2404      00
 2405              	.LASF1:
 2406 0382 7369676E 		.ascii	"signed char\000"
 2406      65642063 
 2406      68617200 
 2407              	.LASF97:
 2408 038e 49435544 		.ascii	"ICUD3\000"
 2408      3300
 2409              	.LASF95:
 2410 0394 6963755F 		.ascii	"icu_lld_disable\000"
 2410      6C6C645F 
 2410      64697361 
 2410      626C6500 
 2411              	.LASF0:
 2412 03a4 756E7369 		.ascii	"unsigned int\000"
 2412      676E6564 
 2412      20696E74 
 2412      00
 2413              	.LASF21:
ARM GAS  /var/folders/bz/nn5481rn5xq59rb0mbj7x0880000gn/T//ccVwe4HQ.s 			page 46


 2414 03b1 41484232 		.ascii	"AHB2RSTR\000"
 2414      52535452 
 2414      00
 2415              	.LASF12:
 2416 03ba 75696E74 		.ascii	"uint16_t\000"
 2416      31365F74 
 2416      00
 2417              	.LASF49:
 2418 03c3 44494552 		.ascii	"DIER\000"
 2418      00
 2419              	.LASF76:
 2420 03c8 69637566 		.ascii	"icufreq_t\000"
 2420      7265715F 
 2420      7400
 2421              	.LASF18:
 2422 03d2 504C4C43 		.ascii	"PLLCFGR\000"
 2422      46475200 
 2423              	.LASF4:
 2424 03da 73686F72 		.ascii	"short unsigned int\000"
 2424      7420756E 
 2424      7369676E 
 2424      65642069 
 2424      6E7400
 2425              	.LASF74:
 2426 03ed 4943555F 		.ascii	"ICU_INPUT_ACTIVE_LOW\000"
 2426      494E5055 
 2426      545F4143 
 2426      54495645 
 2426      5F4C4F57 
 2427              	.LASF79:
 2428 0402 69637563 		.ascii	"icuchannel_t\000"
 2428      68616E6E 
 2428      656C5F74 
 2428      00
 2429              	.LASF72:
 2430 040f 69637563 		.ascii	"icucallback_t\000"
 2430      616C6C62 
 2430      61636B5F 
 2430      7400
 2431              	.LASF58:
 2432 041d 73746D33 		.ascii	"stm32_tim_t\000"
 2432      325F7469 
 2432      6D5F7400 
 2433              	.LASF83:
 2434 0429 70657269 		.ascii	"period_cb\000"
 2434      6F645F63 
 2434      6200
 2435              	.LASF53:
 2436 0433 42445452 		.ascii	"BDTR\000"
 2436      00
 2437              	.LASF13:
 2438 0438 696E7433 		.ascii	"int32_t\000"
 2438      325F7400 
 2439              	.LASF15:
 2440 0440 5F426F6F 		.ascii	"_Bool\000"
 2440      6C00
 2441              	.LASF85:
ARM GAS  /var/folders/bz/nn5481rn5xq59rb0mbj7x0880000gn/T//ccVwe4HQ.s 			page 47


 2442 0446 6368616E 		.ascii	"channel\000"
 2442      6E656C00 
 2443              	.LASF59:
 2444 044e 4943555F 		.ascii	"ICU_UNINIT\000"
 2444      554E494E 
 2444      495400
 2445              	.LASF35:
 2446 0459 41484232 		.ascii	"AHB2LPENR\000"
 2446      4C50454E 
 2446      5200
 2447              	.LASF48:
 2448 0463 534D4352 		.ascii	"SMCR\000"
 2448      00
 2449              	.LASF23:
 2450 0468 52455345 		.ascii	"RESERVED0\000"
 2450      52564544 
 2450      3000
 2451              	.LASF73:
 2452 0472 4943555F 		.ascii	"ICU_INPUT_ACTIVE_HIGH\000"
 2452      494E5055 
 2452      545F4143 
 2452      54495645 
 2452      5F484947 
 2453              	.LASF30:
 2454 0488 52455345 		.ascii	"RESERVED2\000"
 2454      52564544 
 2454      3200
 2455              	.LASF33:
 2456 0492 52455345 		.ascii	"RESERVED3\000"
 2456      52564544 
 2456      3300
 2457              	.LASF37:
 2458 049c 52455345 		.ascii	"RESERVED4\000"
 2458      52564544 
 2458      3400
 2459              	.LASF40:
 2460 04a6 52455345 		.ascii	"RESERVED5\000"
 2460      52564544 
 2460      3500
 2461              	.LASF9:
 2462 04b0 6C6F6E67 		.ascii	"long unsigned int\000"
 2462      20756E73 
 2462      69676E65 
 2462      6420696E 
 2462      7400
 2463              	.LASF69:
 2464 04c2 636C6F63 		.ascii	"clock\000"
 2464      6B00
 2465              	.LASF90:
 2466 04c8 6963755F 		.ascii	"icu_lld_init\000"
 2466      6C6C645F 
 2466      696E6974 
 2466      00
 2467              	.LASF102:
 2468 04d5 2F557365 		.ascii	"/Users/imac/oroca_bldc_dev/oroca_bldc/\000"
 2468      72732F69 
 2468      6D61632F 
ARM GAS  /var/folders/bz/nn5481rn5xq59rb0mbj7x0880000gn/T//ccVwe4HQ.s 			page 48


 2468      6F726F63 
 2468      615F626C 
 2469              	.LASF84:
 2470 04fc 6F766572 		.ascii	"overflow_cb\000"
 2470      666C6F77 
 2470      5F636200 
 2471              	.LASF82:
 2472 0508 77696474 		.ascii	"width_cb\000"
 2472      685F6362 
 2472      00
 2473              	.LASF6:
 2474 0511 5F5F696E 		.ascii	"__int32_t\000"
 2474      7433325F 
 2474      7400
 2475              	.LASF86:
 2476 051b 64696572 		.ascii	"dier\000"
 2476      00
 2477              	.LASF66:
 2478 0520 49435544 		.ascii	"ICUDriver\000"
 2478      72697665 
 2478      7200
 2479              	.LASF81:
 2480 052a 66726571 		.ascii	"frequency\000"
 2480      75656E63 
 2480      7900
 2481              	.LASF61:
 2482 0534 4943555F 		.ascii	"ICU_READY\000"
 2482      52454144 
 2482      5900
 2483              	.LASF20:
 2484 053e 41484231 		.ascii	"AHB1RSTR\000"
 2484      52535452 
 2484      00
 2485              	.LASF88:
 2486 0547 70726576 		.ascii	"previous_state\000"
 2486      696F7573 
 2486      5F737461 
 2486      746500
 2487              	.LASF22:
 2488 0556 41484233 		.ascii	"AHB3RSTR\000"
 2488      52535452 
 2488      00
 2489              	.LASF98:
 2490 055f 6963754F 		.ascii	"icuObjectInit\000"
 2490      626A6563 
 2490      74496E69 
 2490      7400
 2491              	.LASF96:
 2492 056d 49544D5F 		.ascii	"ITM_RxBuffer\000"
 2492      52784275 
 2492      66666572 
 2492      00
 2493              	.LASF45:
 2494 057a 504C4C53 		.ascii	"PLLSAICFGR\000"
 2494      41494346 
 2494      475200
 2495              	.LASF38:
ARM GAS  /var/folders/bz/nn5481rn5xq59rb0mbj7x0880000gn/T//ccVwe4HQ.s 			page 49


 2496 0585 41504231 		.ascii	"APB1LPENR\000"
 2496      4C50454E 
 2496      5200
 2497              	.LASF65:
 2498 058f 69637573 		.ascii	"icustate_t\000"
 2498      74617465 
 2498      5F7400
 2499              	.LASF62:
 2500 059a 4943555F 		.ascii	"ICU_WAITING\000"
 2500      57414954 
 2500      494E4700 
 2501              		.ident	"GCC: (GNU Tools for ARM Embedded Processors) 4.9.3 20150529 (release) [ARM/embedded-4_9-br
ARM GAS  /var/folders/bz/nn5481rn5xq59rb0mbj7x0880000gn/T//ccVwe4HQ.s 			page 50


DEFINED SYMBOLS
                            *ABS*:0000000000000000 icu_lld.c
/var/folders/bz/nn5481rn5xq59rb0mbj7x0880000gn/T//ccVwe4HQ.s:21     .text.VectorB4:0000000000000000 $t
/var/folders/bz/nn5481rn5xq59rb0mbj7x0880000gn/T//ccVwe4HQ.s:27     .text.VectorB4:0000000000000000 VectorB4
/var/folders/bz/nn5481rn5xq59rb0mbj7x0880000gn/T//ccVwe4HQ.s:172    .text.VectorB4:000000000000008c $d
/var/folders/bz/nn5481rn5xq59rb0mbj7x0880000gn/T//ccVwe4HQ.s:179    .text.icu_lld_init:0000000000000000 $t
/var/folders/bz/nn5481rn5xq59rb0mbj7x0880000gn/T//ccVwe4HQ.s:185    .text.icu_lld_init:0000000000000000 icu_lld_init
/var/folders/bz/nn5481rn5xq59rb0mbj7x0880000gn/T//ccVwe4HQ.s:207    .text.icu_lld_init:0000000000000010 $d
/var/folders/bz/nn5481rn5xq59rb0mbj7x0880000gn/T//ccVwe4HQ.s:213    .text.icu_lld_start:0000000000000000 $t
/var/folders/bz/nn5481rn5xq59rb0mbj7x0880000gn/T//ccVwe4HQ.s:219    .text.icu_lld_start:0000000000000000 icu_lld_start
/var/folders/bz/nn5481rn5xq59rb0mbj7x0880000gn/T//ccVwe4HQ.s:385    .text.icu_lld_start:00000000000000b0 $d
/var/folders/bz/nn5481rn5xq59rb0mbj7x0880000gn/T//ccVwe4HQ.s:392    .text.icu_lld_stop:0000000000000000 $t
/var/folders/bz/nn5481rn5xq59rb0mbj7x0880000gn/T//ccVwe4HQ.s:398    .text.icu_lld_stop:0000000000000000 icu_lld_stop
/var/folders/bz/nn5481rn5xq59rb0mbj7x0880000gn/T//ccVwe4HQ.s:447    .text.icu_lld_stop:000000000000002c $d
/var/folders/bz/nn5481rn5xq59rb0mbj7x0880000gn/T//ccVwe4HQ.s:453    .text.icu_lld_enable:0000000000000000 $t
/var/folders/bz/nn5481rn5xq59rb0mbj7x0880000gn/T//ccVwe4HQ.s:459    .text.icu_lld_enable:0000000000000000 icu_lld_enable
/var/folders/bz/nn5481rn5xq59rb0mbj7x0880000gn/T//ccVwe4HQ.s:543    .text.icu_lld_disable:0000000000000000 $t
/var/folders/bz/nn5481rn5xq59rb0mbj7x0880000gn/T//ccVwe4HQ.s:549    .text.icu_lld_disable:0000000000000000 icu_lld_disable
/var/folders/bz/nn5481rn5xq59rb0mbj7x0880000gn/T//ccVwe4HQ.s:577    .bss.ICUD3:0000000000000000 ICUD3
/var/folders/bz/nn5481rn5xq59rb0mbj7x0880000gn/T//ccVwe4HQ.s:573    .bss.ICUD3:0000000000000000 $d
                     .debug_frame:0000000000000010 $d

UNDEFINED SYMBOLS
_port_irq_epilogue
icuObjectInit
nvicEnableVector
nvicDisableVector
