ARM GAS  /var/folders/bz/nn5481rn5xq59rb0mbj7x0880000gn/T//ccVwe4HQ.s 			page 1


   1              		.syntax unified
   2              		.cpu cortex-m4
   3              		.eabi_attribute 27, 1
   4              		.eabi_attribute 28, 1
   5              		.fpu fpv4-sp-d16
   6              		.eabi_attribute 20, 1
   7              		.eabi_attribute 21, 1
   8              		.eabi_attribute 23, 3
   9              		.eabi_attribute 24, 1
  10              		.eabi_attribute 25, 1
  11              		.eabi_attribute 26, 1
  12              		.eabi_attribute 30, 2
  13              		.eabi_attribute 34, 1
  14              		.eabi_attribute 18, 4
  15              		.thumb
  16              		.file	"icu_lld.c"
  17              		.text
  18              	.Ltext0:
  19              		.cfi_sections	.debug_frame
  20              		.section	.text.VectorB4,"ax",%progbits
  21              		.align	2
  22              		.p2align 4,,15
  23              		.global	VectorB4
  24              		.thumb
  25              		.thumb_func
  26              		.type	VectorB4, %function
  27              	VectorB4:
  28              	.LFB119:
  29              		.file 1 "lib/ChibiOS_2.6.6/os/hal/platforms/STM32/TIMv1/icu_lld.c"
  30              		.loc 1 212 0
  31              		.cfi_startproc
  32              		@ args = 0, pretend = 0, frame = 0
  33              		@ frame_needed = 0, uses_anonymous_args = 0
  34              	.LVL0:
  35 0000 38B5     		push	{r3, r4, r5, lr}
  36              		.cfi_def_cfa_offset 16
  37              		.cfi_offset 3, -16
  38              		.cfi_offset 4, -12
  39              		.cfi_offset 5, -8
  40              		.cfi_offset 14, -4
  41              	.LBB8:
  42              	.LBB9:
  43              		.loc 1 114 0
  44 0002 224D     		ldr	r5, .L35
  45 0004 EB68     		ldr	r3, [r5, #12]
  46              		.loc 1 117 0
  47 0006 6968     		ldr	r1, [r5, #4]
  48              		.loc 1 114 0
  49 0008 1C69     		ldr	r4, [r3, #16]
  50              	.LVL1:
  51              		.loc 1 115 0
  52 000a DA68     		ldr	r2, [r3, #12]
  53              		.loc 1 117 0
  54 000c 087D     		ldrb	r0, [r1, #20]	@ zero_extendqisi2
  55              		.loc 1 115 0
  56 000e D2B2     		uxtb	r2, r2
  57 0010 1440     		ands	r4, r4, r2
ARM GAS  /var/folders/bz/nn5481rn5xq59rb0mbj7x0880000gn/T//ccVwe4HQ.s 			page 2


  58              	.LVL2:
  59              		.loc 1 116 0
  60 0012 E243     		mvns	r2, r4
  61 0014 1A61     		str	r2, [r3, #16]
  62              		.loc 1 117 0
  63 0016 A8B9     		cbnz	r0, .L2
  64              		.loc 1 118 0
  65 0018 A207     		lsls	r2, r4, #30
  66 001a 07D5     		bpl	.L3
  67              	.LBB10:
  68              		.loc 1 119 0
  69 001c 2B78     		ldrb	r3, [r5]	@ zero_extendqisi2
  70              	.LVL3:
  71 001e 0422     		movs	r2, #4
  72 0020 032B     		cmp	r3, #3
  73 0022 2A70     		strb	r2, [r5]
  74 0024 2FD0     		beq	.L4
  75 0026 CB68     		ldr	r3, [r1, #12]
  76              	.LVL4:
  77 0028 2846     		mov	r0, r5
  78 002a 9847     		blx	r3
  79              	.LVL5:
  80              	.L3:
  81              	.LBE10:
  82              		.loc 1 120 0
  83 002c 6307     		lsls	r3, r4, #29
  84 002e 1FD4     		bmi	.L34
  85              	.L6:
  86              		.loc 1 128 0
  87 0030 E207     		lsls	r2, r4, #31
  88 0032 03D5     		bpl	.L9
  89              		.loc 1 129 0
  90 0034 6B68     		ldr	r3, [r5, #4]
  91 0036 1548     		ldr	r0, .L35
  92 0038 1B69     		ldr	r3, [r3, #16]
  93 003a 9847     		blx	r3
  94              	.LVL6:
  95              	.L9:
  96              	.LBE9:
  97              	.LBE8:
  98              		.loc 1 219 0
  99 003c BDE83840 		pop	{r3, r4, r5, lr}
 100              		.cfi_remember_state
 101              		.cfi_restore 14
 102              		.cfi_restore 5
 103              		.cfi_restore 4
 104              		.cfi_restore 3
 105              		.cfi_def_cfa_offset 0
 106              	.LVL7:
 107              		.loc 1 218 0
 108 0040 FFF7FEBF 		b	_port_irq_epilogue
 109              	.LVL8:
 110              	.L2:
 111              		.cfi_restore_state
 112              	.LBB13:
 113              	.LBB12:
 114              		.loc 1 123 0
ARM GAS  /var/folders/bz/nn5481rn5xq59rb0mbj7x0880000gn/T//ccVwe4HQ.s 			page 3


 115 0044 A007     		lsls	r0, r4, #30
 116 0046 07D5     		bpl	.L8
 117              		.loc 1 124 0
 118 0048 2B78     		ldrb	r3, [r5]	@ zero_extendqisi2
 119 004a 032B     		cmp	r3, #3
 120 004c 04D0     		beq	.L8
 121 004e 0522     		movs	r2, #5
 122 0050 8B68     		ldr	r3, [r1, #8]
 123 0052 2A70     		strb	r2, [r5]
 124 0054 2846     		mov	r0, r5
 125 0056 9847     		blx	r3
 126              	.LVL9:
 127              	.L8:
 128              		.loc 1 125 0
 129 0058 6107     		lsls	r1, r4, #29
 130 005a E9D5     		bpl	.L6
 131              	.LBB11:
 132              		.loc 1 126 0
 133 005c 2B78     		ldrb	r3, [r5]	@ zero_extendqisi2
 134              	.LVL10:
 135 005e 0B48     		ldr	r0, .L35
 136 0060 0422     		movs	r2, #4
 137 0062 032B     		cmp	r3, #3
 138 0064 2A70     		strb	r2, [r5]
 139 0066 E3D0     		beq	.L6
 140 0068 4368     		ldr	r3, [r0, #4]
 141              	.LVL11:
 142 006a DB68     		ldr	r3, [r3, #12]
 143 006c 9847     		blx	r3
 144              	.LVL12:
 145 006e DFE7     		b	.L6
 146              	.L34:
 147              	.LBE11:
 148              		.loc 1 121 0
 149 0070 2B78     		ldrb	r3, [r5]	@ zero_extendqisi2
 150 0072 064A     		ldr	r2, .L35
 151 0074 032B     		cmp	r3, #3
 152 0076 DBD0     		beq	.L6
 153 0078 5168     		ldr	r1, [r2, #4]
 154              	.L10:
 155 007a 8B68     		ldr	r3, [r1, #8]
 156 007c 0348     		ldr	r0, .L35
 157 007e 0522     		movs	r2, #5
 158 0080 2A70     		strb	r2, [r5]
 159 0082 9847     		blx	r3
 160              	.LVL13:
 161 0084 D4E7     		b	.L6
 162              	.LVL14:
 163              	.L4:
 164              		.loc 1 120 0
 165 0086 6307     		lsls	r3, r4, #29
 166              	.LVL15:
 167 0088 F7D4     		bmi	.L10
 168 008a D1E7     		b	.L6
 169              	.L36:
 170              		.align	2
 171              	.L35:
ARM GAS  /var/folders/bz/nn5481rn5xq59rb0mbj7x0880000gn/T//ccVwe4HQ.s 			page 4


 172 008c 00000000 		.word	.LANCHOR0
 173              	.LBE12:
 174              	.LBE13:
 175              		.cfi_endproc
 176              	.LFE119:
 177              		.size	VectorB4, .-VectorB4
 178              		.section	.text.icu_lld_init,"ax",%progbits
 179              		.align	2
 180              		.p2align 4,,15
 181              		.global	icu_lld_init
 182              		.thumb
 183              		.thumb_func
 184              		.type	icu_lld_init, %function
 185              	icu_lld_init:
 186              	.LFB120:
 187              		.loc 1 339 0
 188              		.cfi_startproc
 189              		@ args = 0, pretend = 0, frame = 0
 190              		@ frame_needed = 0, uses_anonymous_args = 0
 191 0000 10B5     		push	{r4, lr}
 192              		.cfi_def_cfa_offset 8
 193              		.cfi_offset 4, -8
 194              		.cfi_offset 14, -4
 195              		.loc 1 355 0
 196 0002 034C     		ldr	r4, .L39
 197 0004 2046     		mov	r0, r4
 198 0006 FFF7FEFF 		bl	icuObjectInit
 199              	.LVL16:
 200              		.loc 1 356 0
 201 000a 024B     		ldr	r3, .L39+4
 202 000c E360     		str	r3, [r4, #12]
 203 000e 10BD     		pop	{r4, pc}
 204              	.L40:
 205              		.align	2
 206              	.L39:
 207 0010 00000000 		.word	.LANCHOR0
 208 0014 00040040 		.word	1073742848
 209              		.cfi_endproc
 210              	.LFE120:
 211              		.size	icu_lld_init, .-icu_lld_init
 212              		.section	.text.icu_lld_start,"ax",%progbits
 213              		.align	2
 214              		.p2align 4,,15
 215              		.global	icu_lld_start
 216              		.thumb
 217              		.thumb_func
 218              		.type	icu_lld_start, %function
 219              	icu_lld_start:
 220              	.LFB121:
 221              		.loc 1 391 0
 222              		.cfi_startproc
 223              		@ args = 0, pretend = 0, frame = 0
 224              		@ frame_needed = 0, uses_anonymous_args = 0
 225              	.LVL17:
 226 0000 F8B5     		push	{r3, r4, r5, r6, r7, lr}
 227              		.cfi_def_cfa_offset 24
 228              		.cfi_offset 3, -24
ARM GAS  /var/folders/bz/nn5481rn5xq59rb0mbj7x0880000gn/T//ccVwe4HQ.s 			page 5


 229              		.cfi_offset 4, -20
 230              		.cfi_offset 5, -16
 231              		.cfi_offset 6, -12
 232              		.cfi_offset 7, -8
 233              		.cfi_offset 14, -4
 234              		.loc 1 398 0
 235 0002 0378     		ldrb	r3, [r0]	@ zero_extendqisi2
 236 0004 012B     		cmp	r3, #1
 237              		.loc 1 391 0
 238 0006 0446     		mov	r4, r0
 239              		.loc 1 398 0
 240 0008 3BD0     		beq	.L53
 241              		.loc 1 478 0
 242 000a C368     		ldr	r3, [r0, #12]
 243 000c 0022     		movs	r2, #0
 244 000e 1A60     		str	r2, [r3]
 245              		.loc 1 479 0
 246 0010 5A63     		str	r2, [r3, #52]
 247              		.loc 1 480 0
 248 0012 9A63     		str	r2, [r3, #56]
 249              		.loc 1 481 0
 250 0014 5A62     		str	r2, [r3, #36]
 251              	.LVL18:
 252              	.L44:
 253              		.loc 1 486 0
 254 0016 6168     		ldr	r1, [r4, #4]
 255              		.loc 1 488 0
 256 0018 A268     		ldr	r2, [r4, #8]
 257              		.loc 1 486 0
 258 001a 8869     		ldr	r0, [r1, #24]
 259              		.loc 1 488 0
 260 001c 4E68     		ldr	r6, [r1, #4]
 261              		.loc 1 495 0
 262 001e 0D7D     		ldrb	r5, [r1, #20]	@ zero_extendqisi2
 263              		.loc 1 488 0
 264 0020 B2FBF6F2 		udiv	r2, r2, r6
 265 0024 013A     		subs	r2, r2, #1
 266              		.loc 1 492 0
 267 0026 92B2     		uxth	r2, r2
 268              		.loc 1 486 0
 269 0028 20F0FF00 		bic	r0, r0, #255
 270              		.loc 1 485 0
 271 002c 0027     		movs	r7, #0
 272              		.loc 1 493 0
 273 002e 4FF6FF76 		movw	r6, #65535
 274              		.loc 1 485 0
 275 0032 1F61     		str	r7, [r3, #16]
 276              		.loc 1 486 0
 277 0034 D860     		str	r0, [r3, #12]
 278              	.LVL19:
 279              		.loc 1 492 0
 280 0036 9A62     		str	r2, [r3, #40]
 281              	.LVL20:
 282              		.loc 1 493 0
 283 0038 DE62     		str	r6, [r3, #44]
 284              		.loc 1 508 0
 285 003a 0A78     		ldrb	r2, [r1]	@ zero_extendqisi2
ARM GAS  /var/folders/bz/nn5481rn5xq59rb0mbj7x0880000gn/T//ccVwe4HQ.s 			page 6


 286              		.loc 1 495 0
 287 003c 6DB9     		cbnz	r5, .L45
 288              		.loc 1 499 0
 289 003e 40F20120 		movw	r0, #513
 290              		.loc 1 503 0
 291 0042 5421     		movs	r1, #84
 292              		.loc 1 499 0
 293 0044 9861     		str	r0, [r3, #24]
 294              		.loc 1 503 0
 295 0046 9960     		str	r1, [r3, #8]
 296              		.loc 1 508 0
 297 0048 C2B1     		cbz	r2, .L54
 298              		.loc 1 512 0
 299 004a 1322     		movs	r2, #19
 300 004c 1A62     		str	r2, [r3, #32]
 301              	.L47:
 302              		.loc 1 517 0
 303 004e 03F13802 		add	r2, r3, #56
 304              		.loc 1 518 0
 305 0052 3433     		adds	r3, r3, #52
 306              		.loc 1 517 0
 307 0054 2261     		str	r2, [r4, #16]
 308              		.loc 1 518 0
 309 0056 6361     		str	r3, [r4, #20]
 310 0058 F8BD     		pop	{r3, r4, r5, r6, r7, pc}
 311              	.LVL21:
 312              	.L45:
 313              		.loc 1 523 0
 314 005a 4FF48170 		mov	r0, #258
 315              		.loc 1 527 0
 316 005e 6421     		movs	r1, #100
 317              		.loc 1 523 0
 318 0060 9861     		str	r0, [r3, #24]
 319              		.loc 1 527 0
 320 0062 9960     		str	r1, [r3, #8]
 321              		.loc 1 532 0
 322 0064 3AB1     		cbz	r2, .L55
 323              		.loc 1 536 0
 324 0066 3122     		movs	r2, #49
 325 0068 1A62     		str	r2, [r3, #32]
 326              	.L50:
 327              		.loc 1 541 0
 328 006a 03F13402 		add	r2, r3, #52
 329              		.loc 1 542 0
 330 006e 3833     		adds	r3, r3, #56
 331              		.loc 1 541 0
 332 0070 2261     		str	r2, [r4, #16]
 333              		.loc 1 542 0
 334 0072 6361     		str	r3, [r4, #20]
 335 0074 F8BD     		pop	{r3, r4, r5, r6, r7, pc}
 336              	.LVL22:
 337              	.L55:
 338              		.loc 1 533 0
 339 0076 1322     		movs	r2, #19
 340 0078 1A62     		str	r2, [r3, #32]
 341 007a F6E7     		b	.L50
 342              	.L54:
ARM GAS  /var/folders/bz/nn5481rn5xq59rb0mbj7x0880000gn/T//ccVwe4HQ.s 			page 7


 343              		.loc 1 509 0
 344 007c 3122     		movs	r2, #49
 345 007e 1A62     		str	r2, [r3, #32]
 346 0080 E5E7     		b	.L47
 347              	.LVL23:
 348              	.L53:
 349              		.loc 1 425 0
 350 0082 0B4B     		ldr	r3, .L57
 351 0084 9842     		cmp	r0, r3
 352 0086 01D0     		beq	.L56
 353              	.LVL24:
 354              	.L52:
 355 0088 E368     		ldr	r3, [r4, #12]
 356 008a C4E7     		b	.L44
 357              	.LVL25:
 358              	.L56:
 359              		.loc 1 426 0
 360 008c 094B     		ldr	r3, .L57+4
 361 008e 1A6C     		ldr	r2, [r3, #64]
 362 0090 42F00202 		orr	r2, r2, #2
 363 0094 1A64     		str	r2, [r3, #64]
 364              		.loc 1 427 0
 365 0096 1A6A     		ldr	r2, [r3, #32]
 366 0098 0021     		movs	r1, #0
 367 009a 42F00202 		orr	r2, r2, #2
 368 009e 1A62     		str	r2, [r3, #32]
 369              		.loc 1 428 0
 370 00a0 1D20     		movs	r0, #29
 371              	.LVL26:
 372              		.loc 1 427 0
 373 00a2 1962     		str	r1, [r3, #32]
 374              		.loc 1 428 0
 375 00a4 7021     		movs	r1, #112
 376 00a6 FFF7FEFF 		bl	nvicEnableVector
 377              	.LVL27:
 378              		.loc 1 430 0
 379 00aa 034B     		ldr	r3, .L57+8
 380 00ac A360     		str	r3, [r4, #8]
 381 00ae EBE7     		b	.L52
 382              	.L58:
 383              		.align	2
 384              	.L57:
 385 00b0 00000000 		.word	.LANCHOR0
 386 00b4 00380240 		.word	1073887232
 387 00b8 00BD0105 		.word	84000000
 388              		.cfi_endproc
 389              	.LFE121:
 390              		.size	icu_lld_start, .-icu_lld_start
 391              		.section	.text.icu_lld_stop,"ax",%progbits
 392              		.align	2
 393              		.p2align 4,,15
 394              		.global	icu_lld_stop
 395              		.thumb
 396              		.thumb_func
 397              		.type	icu_lld_stop, %function
 398              	icu_lld_stop:
 399              	.LFB122:
ARM GAS  /var/folders/bz/nn5481rn5xq59rb0mbj7x0880000gn/T//ccVwe4HQ.s 			page 8


 400              		.loc 1 553 0
 401              		.cfi_startproc
 402              		@ args = 0, pretend = 0, frame = 0
 403              		@ frame_needed = 0, uses_anonymous_args = 0
 404              	.LVL28:
 405 0000 08B5     		push	{r3, lr}
 406              		.cfi_def_cfa_offset 8
 407              		.cfi_offset 3, -8
 408              		.cfi_offset 14, -4
 409              		.loc 1 555 0
 410 0002 0378     		ldrb	r3, [r0]	@ zero_extendqisi2
 411 0004 022B     		cmp	r3, #2
 412 0006 00D0     		beq	.L64
 413              	.LVL29:
 414              	.L59:
 415 0008 08BD     		pop	{r3, pc}
 416              	.LVL30:
 417              	.L64:
 418              		.loc 1 575 0
 419 000a 0849     		ldr	r1, .L65
 420              		.loc 1 557 0
 421 000c C368     		ldr	r3, [r0, #12]
 422 000e 0022     		movs	r2, #0
 423              		.loc 1 575 0
 424 0010 8842     		cmp	r0, r1
 425              		.loc 1 557 0
 426 0012 1A60     		str	r2, [r3]
 427              		.loc 1 558 0
 428 0014 DA60     		str	r2, [r3, #12]
 429              		.loc 1 559 0
 430 0016 1A61     		str	r2, [r3, #16]
 431              		.loc 1 575 0
 432 0018 F6D1     		bne	.L59
 433              		.loc 1 576 0
 434 001a 1D20     		movs	r0, #29
 435              	.LVL31:
 436 001c FFF7FEFF 		bl	nvicDisableVector
 437              	.LVL32:
 438              		.loc 1 577 0
 439 0020 034A     		ldr	r2, .L65+4
 440 0022 136C     		ldr	r3, [r2, #64]
 441 0024 23F00203 		bic	r3, r3, #2
 442 0028 1364     		str	r3, [r2, #64]
 443 002a EDE7     		b	.L59
 444              	.L66:
 445              		.align	2
 446              	.L65:
 447 002c 00000000 		.word	.LANCHOR0
 448 0030 00380240 		.word	1073887232
 449              		.cfi_endproc
 450              	.LFE122:
 451              		.size	icu_lld_stop, .-icu_lld_stop
 452              		.section	.text.icu_lld_enable,"ax",%progbits
 453              		.align	2
 454              		.p2align 4,,15
 455              		.global	icu_lld_enable
 456              		.thumb
ARM GAS  /var/folders/bz/nn5481rn5xq59rb0mbj7x0880000gn/T//ccVwe4HQ.s 			page 9


 457              		.thumb_func
 458              		.type	icu_lld_enable, %function
 459              	icu_lld_enable:
 460              	.LFB123:
 461              		.loc 1 615 0
 462              		.cfi_startproc
 463              		@ args = 0, pretend = 0, frame = 0
 464              		@ frame_needed = 0, uses_anonymous_args = 0
 465              		@ link register save eliminated.
 466              	.LVL33:
 467              		.loc 1 617 0
 468 0000 C368     		ldr	r3, [r0, #12]
 469              		.loc 1 619 0
 470 0002 4268     		ldr	r2, [r0, #4]
 471              		.loc 1 617 0
 472 0004 5969     		ldr	r1, [r3, #20]
 473              		.loc 1 619 0
 474 0006 107D     		ldrb	r0, [r2, #20]	@ zero_extendqisi2
 475              	.LVL34:
 476              		.loc 1 615 0
 477 0008 10B4     		push	{r4}
 478              		.cfi_def_cfa_offset 4
 479              		.cfi_offset 4, -4
 480              		.loc 1 617 0
 481 000a 41F00101 		orr	r1, r1, #1
 482              		.loc 1 618 0
 483 000e 0024     		movs	r4, #0
 484              		.loc 1 617 0
 485 0010 5961     		str	r1, [r3, #20]
 486              		.loc 1 618 0
 487 0012 1C61     		str	r4, [r3, #16]
 488              		.loc 1 619 0
 489 0014 B0B9     		cbnz	r0, .L68
 490              		.loc 1 620 0
 491 0016 D168     		ldr	r1, [r2, #12]
 492 0018 19B1     		cbz	r1, .L69
 493              		.loc 1 621 0
 494 001a D968     		ldr	r1, [r3, #12]
 495 001c 41F00201 		orr	r1, r1, #2
 496 0020 D960     		str	r1, [r3, #12]
 497              	.L69:
 498              		.loc 1 622 0
 499 0022 9168     		ldr	r1, [r2, #8]
 500 0024 19B1     		cbz	r1, .L71
 501              	.L88:
 502              		.loc 1 628 0
 503 0026 D968     		ldr	r1, [r3, #12]
 504 0028 41F00401 		orr	r1, r1, #4
 505 002c D960     		str	r1, [r3, #12]
 506              	.L71:
 507              		.loc 1 630 0
 508 002e 1269     		ldr	r2, [r2, #16]
 509 0030 1AB1     		cbz	r2, .L74
 510              		.loc 1 631 0
 511 0032 DA68     		ldr	r2, [r3, #12]
 512 0034 42F00102 		orr	r2, r2, #1
 513 0038 DA60     		str	r2, [r3, #12]
ARM GAS  /var/folders/bz/nn5481rn5xq59rb0mbj7x0880000gn/T//ccVwe4HQ.s 			page 10


 514              	.L74:
 515              		.loc 1 632 0
 516 003a 0522     		movs	r2, #5
 517 003c 1A60     		str	r2, [r3]
 518              		.loc 1 633 0
 519 003e 5DF8044B 		ldr	r4, [sp], #4
 520              		.cfi_remember_state
 521              		.cfi_restore 4
 522              		.cfi_def_cfa_offset 0
 523 0042 7047     		bx	lr
 524              	.L68:
 525              		.cfi_restore_state
 526              		.loc 1 625 0
 527 0044 9168     		ldr	r1, [r2, #8]
 528 0046 19B1     		cbz	r1, .L72
 529              		.loc 1 626 0
 530 0048 D968     		ldr	r1, [r3, #12]
 531 004a 41F00201 		orr	r1, r1, #2
 532 004e D960     		str	r1, [r3, #12]
 533              	.L72:
 534              		.loc 1 627 0
 535 0050 D168     		ldr	r1, [r2, #12]
 536 0052 0029     		cmp	r1, #0
 537 0054 E7D1     		bne	.L88
 538 0056 EAE7     		b	.L71
 539              		.cfi_endproc
 540              	.LFE123:
 541              		.size	icu_lld_enable, .-icu_lld_enable
 542              		.section	.text.icu_lld_disable,"ax",%progbits
 543              		.align	2
 544              		.p2align 4,,15
 545              		.global	icu_lld_disable
 546              		.thumb
 547              		.thumb_func
 548              		.type	icu_lld_disable, %function
 549              	icu_lld_disable:
 550              	.LFB124:
 551              		.loc 1 642 0
 552              		.cfi_startproc
 553              		@ args = 0, pretend = 0, frame = 0
 554              		@ frame_needed = 0, uses_anonymous_args = 0
 555              		@ link register save eliminated.
 556              	.LVL35:
 557              		.loc 1 644 0
 558 0000 C368     		ldr	r3, [r0, #12]
 559 0002 0022     		movs	r2, #0
 560 0004 1A60     		str	r2, [r3]
 561              		.loc 1 645 0
 562 0006 1A61     		str	r2, [r3, #16]
 563              		.loc 1 648 0
 564 0008 DA68     		ldr	r2, [r3, #12]
 565 000a 22F0FF02 		bic	r2, r2, #255
 566 000e DA60     		str	r2, [r3, #12]
 567 0010 7047     		bx	lr
 568              		.cfi_endproc
 569              	.LFE124:
 570              		.size	icu_lld_disable, .-icu_lld_disable
ARM GAS  /var/folders/bz/nn5481rn5xq59rb0mbj7x0880000gn/T//ccVwe4HQ.s 			page 11


 571              		.global	ICUD3
 572 0012 00BF     		.section	.bss.ICUD3,"aw",%nobits
 573              		.align	2
 574              		.set	.LANCHOR0,. + 0
 575              		.type	ICUD3, %object
 576              		.size	ICUD3, 24
 577              	ICUD3:
 578 0000 00000000 		.space	24
 578      00000000 
 578      00000000 
 578      00000000 
 578      00000000 
 579              		.text
 580              	.Letext0:
 581              		.file 2 "/Users/imac/Downloads/gcc-arm-none-eabi-4_9-2015q2/arm-none-eabi/include/machine/_default
 582              		.file 3 "/Users/imac/Downloads/gcc-arm-none-eabi-4_9-2015q2/arm-none-eabi/include/sys/_stdint.h"
 583              		.file 4 "lib/ChibiOS_2.6.6/os/hal/platforms/STM32F4xx/stm32f4xx.h"
 584              		.file 5 "lib/ChibiOS_2.6.6/os/hal/platforms/STM32/TIMv1/stm32_tim.h"
 585              		.file 6 "lib/ChibiOS_2.6.6/os/hal/include/icu.h"
 586              		.file 7 "lib/ChibiOS_2.6.6/os/hal/platforms/STM32/TIMv1/icu_lld.h"
 587              		.file 8 "lib/ChibiOS_2.6.6/os/ports/common/ARMCMx/CMSIS/include/core_cm4.h"
 588              		.file 9 "lib/ChibiOS_2.6.6/os/ports/common/ARMCMx/nvic.h"
 589              		.file 10 "lib/ChibiOS_2.6.6/os/ports/GCC/ARMCMx/chcore_v7m.h"