ARM GAS  /var/folders/7z/kps_xzfj7sn5l5gkyq8s9db00000gn/T//ccfEGhva.s 			page 1


   1              		.syntax unified
   2              		.cpu cortex-m4
   3              		.eabi_attribute 27, 1
   4              		.eabi_attribute 28, 1
   5              		.fpu fpv4-sp-d16
   6              		.eabi_attribute 20, 1
   7              		.eabi_attribute 21, 1
   8              		.eabi_attribute 23, 3
   9              		.eabi_attribute 24, 1
  10              		.eabi_attribute 25, 1
  11              		.eabi_attribute 26, 1
  12              		.eabi_attribute 30, 2
  13              		.eabi_attribute 34, 1
  14              		.eabi_attribute 18, 4
  15              		.thumb
  16              		.file	"irq_handlers.c"
  17              		.text
  18              	.Ltext0:
  19              		.cfi_sections	.debug_frame
  20              		.section	.text.Vector11C,"ax",%progbits
  21              		.align	2
  22              		.p2align 4,,15
  23              		.global	Vector11C
  24              		.thumb
  25              		.thumb_func
  26              		.type	Vector11C, %function
  27              	Vector11C:
  28              	.LFB119:
  29              		.file 1 "src/core/irq_handlers.c"
  30              		.loc 1 27 0
  31              		.cfi_startproc
  32              		@ args = 0, pretend = 0, frame = 0
  33              		@ frame_needed = 0, uses_anonymous_args = 0
  34 0000 08B5     		push	{r3, lr}
  35              		.cfi_def_cfa_offset 8
  36              		.cfi_offset 3, -8
  37              		.cfi_offset 14, -4
  38              		.loc 1 29 0
  39 0002 0548     		ldr	r0, .L3
  40 0004 0121     		movs	r1, #1
  41 0006 FFF7FEFF 		bl	TIM_ClearITPendingBit
  42              	.LVL0:
  43              		.loc 1 30 0
  44 000a FFF7FEFF 		bl	servo_irq
  45              	.LVL1:
  46              		.loc 1 32 0
  47 000e BDE80840 		pop	{r3, lr}
  48              		.cfi_restore 14
  49              		.cfi_restore 3
  50              		.cfi_def_cfa_offset 0
  51              		.loc 1 31 0
  52 0012 FFF7FEBF 		b	_port_irq_epilogue
  53              	.LVL2:
  54              	.L4:
  55 0016 00BF     		.align	2
  56              	.L3:
  57 0018 00140040 		.word	1073746944
ARM GAS  /var/folders/7z/kps_xzfj7sn5l5gkyq8s9db00000gn/T//ccfEGhva.s 			page 2


  58              		.cfi_endproc
  59              	.LFE119:
  60              		.size	Vector11C, .-Vector11C
  61 001c AFF30080 		.section	.text.Vector88,"ax",%progbits
  62              		.align	2
  63              		.p2align 4,,15
  64              		.global	Vector88
  65              		.thumb
  66              		.thumb_func
  67              		.type	Vector88, %function
  68              	Vector88:
  69              	.LFB120:
  70              		.loc 1 34 0
  71              		.cfi_startproc
  72              		@ args = 0, pretend = 0, frame = 0
  73              		@ frame_needed = 0, uses_anonymous_args = 0
  74 0000 08B5     		push	{r3, lr}
  75              		.cfi_def_cfa_offset 8
  76              		.cfi_offset 3, -8
  77              		.cfi_offset 14, -4
  78              		.loc 1 36 0
  79 0002 0548     		ldr	r0, .L7
  80 0004 40F20741 		movw	r1, #1031
  81 0008 FFF7FEFF 		bl	ADC_ClearITPendingBit
  82              	.LVL3:
  83              		.loc 1 37 0
  84 000c FFF7FEFF 		bl	mcpwm_adc_inj_int_handler
  85              	.LVL4:
  86              		.loc 1 39 0
  87 0010 BDE80840 		pop	{r3, lr}
  88              		.cfi_restore 14
  89              		.cfi_restore 3
  90              		.cfi_def_cfa_offset 0
  91              		.loc 1 38 0
  92 0014 FFF7FEBF 		b	_port_irq_epilogue
  93              	.LVL5:
  94              	.L8:
  95              		.align	2
  96              	.L7:
  97 0018 00200140 		.word	1073815552
  98              		.cfi_endproc
  99              	.LFE120:
 100              		.size	Vector88, .-Vector88
 101 001c AFF30080 		.section	.text.VectorE0,"ax",%progbits
 102              		.align	2
 103              		.p2align 4,,15
 104              		.global	VectorE0
 105              		.thumb
 106              		.thumb_func
 107              		.type	VectorE0, %function
 108              	VectorE0:
 109              	.LFB121:
 110              		.loc 1 41 0
 111              		.cfi_startproc
 112              		@ args = 0, pretend = 0, frame = 0
 113              		@ frame_needed = 0, uses_anonymous_args = 0
 114 0000 08B5     		push	{r3, lr}
ARM GAS  /var/folders/7z/kps_xzfj7sn5l5gkyq8s9db00000gn/T//ccfEGhva.s 			page 3


 115              		.cfi_def_cfa_offset 8
 116              		.cfi_offset 3, -8
 117              		.cfi_offset 14, -4
 118              		.loc 1 42 0
 119 0002 4FF40060 		mov	r0, #2048
 120 0006 FFF7FEFF 		bl	EXTI_GetITStatus
 121              	.LVL6:
 122 000a 00B9     		cbnz	r0, .L13
 123 000c 08BD     		pop	{r3, pc}
 124              	.L13:
 125              		.loc 1 44 0
 126 000e 044B     		ldr	r3, .L14
 127 0010 0022     		movs	r2, #0
 128 0012 5A62     		str	r2, [r3, #36]
 129              		.loc 1 47 0
 130 0014 4FF40060 		mov	r0, #2048
 131              		.loc 1 49 0
 132 0018 BDE80840 		pop	{r3, lr}
 133              		.cfi_restore 14
 134              		.cfi_restore 3
 135              		.cfi_def_cfa_offset 0
 136              		.loc 1 47 0
 137 001c FFF7FEBF 		b	EXTI_ClearITPendingBit
 138              	.LVL7:
 139              	.L15:
 140              		.align	2
 141              	.L14:
 142 0020 00080040 		.word	1073743872
 143              		.cfi_endproc
 144              	.LFE121:
 145              		.size	VectorE0, .-VectorE0
 146 0024 AFF30080 		.text
 146      AFF30080 
 146      AFF30080 
 147              	.Letext0:
 148              		.file 2 "/Users/Baram/gcc-arm-none-eabi/arm-none-eabi/include/machine/_default_types.h"
 149              		.file 3 "/Users/Baram/gcc-arm-none-eabi/arm-none-eabi/include/stdint.h"
 150              		.file 4 "lib/ChibiOS_2.6.6/os/hal/platforms/STM32F4xx/stm32f4xx.h"
 151              		.file 5 "src/core/servo.h"
 152              		.file 6 "lib/ChibiOS_2.6.6/os/ports/GCC/ARMCMx/chcore_v7m.h"
 153              		.file 7 "lib/ChibiOS_2.6.6/ext/stdperiph_stm32f4/inc/stm32f4xx_tim.h"
 154              		.file 8 "lib/ChibiOS_2.6.6/ext/stdperiph_stm32f4/inc/stm32f4xx_adc.h"
 155              		.file 9 "src/bldc/mcpwm.h"
 156              		.file 10 "lib/ChibiOS_2.6.6/os/ports/common/ARMCMx/CMSIS/include/core_cm4.h"
 157              		.file 11 "lib/ChibiOS_2.6.6/ext/stdperiph_stm32f4/inc/stm32f4xx_exti.h"