ARM GAS  /var/folders/7z/kps_xzfj7sn5l5gkyq8s9db00000gn/T//ccfEGhva.s 			page 1


   1              		.syntax unified
   2              		.cpu cortex-m4
   3              		.eabi_attribute 27, 1
   4              		.eabi_attribute 28, 1
   5              		.fpu fpv4-sp-d16
   6              		.eabi_attribute 20, 1
   7              		.eabi_attribute 21, 1
   8              		.eabi_attribute 23, 3
   9              		.eabi_attribute 24, 1
  10              		.eabi_attribute 25, 1
  11              		.eabi_attribute 26, 1
  12              		.eabi_attribute 30, 2
  13              		.eabi_attribute 34, 1
  14              		.eabi_attribute 18, 4
  15              		.thumb
  16              		.file	"irq_handlers.c"
  17              		.text
  18              	.Ltext0:
  19              		.cfi_sections	.debug_frame
  20              		.section	.text.Vector11C,"ax",%progbits
  21              		.align	2
  22              		.p2align 4,,15
  23              		.global	Vector11C
  24              		.thumb
  25              		.thumb_func
  26              		.type	Vector11C, %function
  27              	Vector11C:
  28              	.LFB119:
  29              		.file 1 "src/core/irq_handlers.c"
  30              		.loc 1 27 0
  31              		.cfi_startproc
  32              		@ args = 0, pretend = 0, frame = 0
  33              		@ frame_needed = 0, uses_anonymous_args = 0
  34 0000 08B5     		push	{r3, lr}
  35              		.cfi_def_cfa_offset 8
  36              		.cfi_offset 3, -8
  37              		.cfi_offset 14, -4
  38              		.loc 1 29 0
  39 0002 0548     		ldr	r0, .L3
  40 0004 0121     		movs	r1, #1
  41 0006 FFF7FEFF 		bl	TIM_ClearITPendingBit
  42              	.LVL0:
  43              		.loc 1 30 0
  44 000a FFF7FEFF 		bl	servo_irq
  45              	.LVL1:
  46              		.loc 1 32 0
  47 000e BDE80840 		pop	{r3, lr}
  48              		.cfi_restore 14
  49              		.cfi_restore 3
  50              		.cfi_def_cfa_offset 0
  51              		.loc 1 31 0
  52 0012 FFF7FEBF 		b	_port_irq_epilogue
  53              	.LVL2:
  54              	.L4:
  55 0016 00BF     		.align	2
  56              	.L3:
  57 0018 00140040 		.word	1073746944
ARM GAS  /var/folders/7z/kps_xzfj7sn5l5gkyq8s9db00000gn/T//ccfEGhva.s 			page 2


  58              		.cfi_endproc
  59              	.LFE119:
  60              		.size	Vector11C, .-Vector11C
  61 001c AFF30080 		.section	.text.Vector88,"ax",%progbits
  62              		.align	2
  63              		.p2align 4,,15
  64              		.global	Vector88
  65              		.thumb
  66              		.thumb_func
  67              		.type	Vector88, %function
  68              	Vector88:
  69              	.LFB120:
  70              		.loc 1 34 0
  71              		.cfi_startproc
  72              		@ args = 0, pretend = 0, frame = 0
  73              		@ frame_needed = 0, uses_anonymous_args = 0
  74 0000 08B5     		push	{r3, lr}
  75              		.cfi_def_cfa_offset 8
  76              		.cfi_offset 3, -8
  77              		.cfi_offset 14, -4
  78              		.loc 1 36 0
  79 0002 0548     		ldr	r0, .L7
  80 0004 40F20741 		movw	r1, #1031
  81 0008 FFF7FEFF 		bl	ADC_ClearITPendingBit
  82              	.LVL3:
  83              		.loc 1 37 0
  84 000c FFF7FEFF 		bl	mcpwm_adc_inj_int_handler
  85              	.LVL4:
  86              		.loc 1 39 0
  87 0010 BDE80840 		pop	{r3, lr}
  88              		.cfi_restore 14
  89              		.cfi_restore 3
  90              		.cfi_def_cfa_offset 0
  91              		.loc 1 38 0
  92 0014 FFF7FEBF 		b	_port_irq_epilogue
  93              	.LVL5:
  94              	.L8:
  95              		.align	2
  96              	.L7:
  97 0018 00200140 		.word	1073815552
  98              		.cfi_endproc
  99              	.LFE120:
 100              		.size	Vector88, .-Vector88
 101 001c AFF30080 		.section	.text.VectorE0,"ax",%progbits
 102              		.align	2
 103              		.p2align 4,,15
 104              		.global	VectorE0
 105              		.thumb
 106              		.thumb_func
 107              		.type	VectorE0, %function
 108              	VectorE0:
 109              	.LFB121:
 110              		.loc 1 41 0
 111              		.cfi_startproc
 112              		@ args = 0, pretend = 0, frame = 0
 113              		@ frame_needed = 0, uses_anonymous_args = 0
 114 0000 08B5     		push	{r3, lr}
ARM GAS  /var/folders/7z/kps_xzfj7sn5l5gkyq8s9db00000gn/T//ccfEGhva.s 			page 3


 115              		.cfi_def_cfa_offset 8
 116              		.cfi_offset 3, -8
 117              		.cfi_offset 14, -4
 118              		.loc 1 42 0
 119 0002 4FF40060 		mov	r0, #2048
 120 0006 FFF7FEFF 		bl	EXTI_GetITStatus
 121              	.LVL6:
 122 000a 00B9     		cbnz	r0, .L13
 123 000c 08BD     		pop	{r3, pc}
 124              	.L13:
 125              		.loc 1 44 0
 126 000e 044B     		ldr	r3, .L14
 127 0010 0022     		movs	r2, #0
 128 0012 5A62     		str	r2, [r3, #36]
 129              		.loc 1 47 0
 130 0014 4FF40060 		mov	r0, #2048
 131              		.loc 1 49 0
 132 0018 BDE80840 		pop	{r3, lr}
 133              		.cfi_restore 14
 134              		.cfi_restore 3
 135              		.cfi_def_cfa_offset 0
 136              		.loc 1 47 0
 137 001c FFF7FEBF 		b	EXTI_ClearITPendingBit
 138              	.LVL7:
 139              	.L15:
 140              		.align	2
 141              	.L14:
 142 0020 00080040 		.word	1073743872
 143              		.cfi_endproc
 144              	.LFE121:
 145              		.size	VectorE0, .-VectorE0
 146 0024 AFF30080 		.text
 146      AFF30080 
 146      AFF30080 
 147              	.Letext0:
 148              		.file 2 "/Users/Baram/gcc-arm-none-eabi/arm-none-eabi/include/machine/_default_types.h"
 149              		.file 3 "/Users/Baram/gcc-arm-none-eabi/arm-none-eabi/include/stdint.h"
 150              		.file 4 "lib/ChibiOS_2.6.6/os/hal/platforms/STM32F4xx/stm32f4xx.h"
 151              		.file 5 "src/core/servo.h"
 152              		.file 6 "lib/ChibiOS_2.6.6/os/ports/GCC/ARMCMx/chcore_v7m.h"
 153              		.file 7 "lib/ChibiOS_2.6.6/ext/stdperiph_stm32f4/inc/stm32f4xx_tim.h"
 154              		.file 8 "lib/ChibiOS_2.6.6/ext/stdperiph_stm32f4/inc/stm32f4xx_adc.h"
 155              		.file 9 "src/bldc/mcpwm.h"
 156              		.file 10 "lib/ChibiOS_2.6.6/os/ports/common/ARMCMx/CMSIS/include/core_cm4.h"
 157              		.file 11 "lib/ChibiOS_2.6.6/ext/stdperiph_stm32f4/inc/stm32f4xx_exti.h"
 158              		.section	.debug_info,"",%progbits
 159              	.Ldebug_info0:
 160 0000 4A050000 		.4byte	0x54a
 161 0004 0400     		.2byte	0x4
 162 0006 00000000 		.4byte	.Ldebug_abbrev0
 163 000a 04       		.byte	0x4
 164 000b 01       		.uleb128 0x1
 165 000c 0E000000 		.4byte	.LASF73
 166 0010 01       		.byte	0x1
 167 0011 0B040000 		.4byte	.LASF74
 168 0015 D3030000 		.4byte	.LASF75
 169 0019 00000000 		.4byte	.Ldebug_ranges0+0
ARM GAS  /var/folders/7z/kps_xzfj7sn5l5gkyq8s9db00000gn/T//ccfEGhva.s 			page 4


 170 001d 00000000 		.4byte	0
 171 0021 00000000 		.4byte	.Ldebug_line0
 172 0025 02       		.uleb128 0x2
 173 0026 04       		.byte	0x4
 174 0027 05       		.byte	0x5
 175 0028 696E7400 		.ascii	"int\000"
 176 002c 03       		.uleb128 0x3
 177 002d 04       		.byte	0x4
 178 002e 07       		.byte	0x7
 179 002f F6020000 		.4byte	.LASF0
 180 0033 03       		.uleb128 0x3
 181 0034 01       		.byte	0x1
 182 0035 06       		.byte	0x6
 183 0036 B3020000 		.4byte	.LASF1
 184 003a 03       		.uleb128 0x3
 185 003b 01       		.byte	0x1
 186 003c 08       		.byte	0x8
 187 003d 6E020000 		.4byte	.LASF2
 188 0041 03       		.uleb128 0x3
 189 0042 02       		.byte	0x2
 190 0043 05       		.byte	0x5
 191 0044 AC010000 		.4byte	.LASF3
 192 0048 04       		.uleb128 0x4
 193 0049 9C010000 		.4byte	.LASF5
 194 004d 02       		.byte	0x2
 195 004e 2B       		.byte	0x2b
 196 004f 53000000 		.4byte	0x53
 197 0053 03       		.uleb128 0x3
 198 0054 02       		.byte	0x2
 199 0055 07       		.byte	0x7
 200 0056 11030000 		.4byte	.LASF4
 201 005a 04       		.uleb128 0x4
 202 005b FB030000 		.4byte	.LASF6
 203 005f 02       		.byte	0x2
 204 0060 3F       		.byte	0x3f
 205 0061 65000000 		.4byte	0x65
 206 0065 03       		.uleb128 0x3
 207 0066 04       		.byte	0x4
 208 0067 05       		.byte	0x5
 209 0068 24030000 		.4byte	.LASF7
 210 006c 04       		.uleb128 0x4
 211 006d 91010000 		.4byte	.LASF8
 212 0071 02       		.byte	0x2
 213 0072 41       		.byte	0x41
 214 0073 77000000 		.4byte	0x77
 215 0077 03       		.uleb128 0x3
 216 0078 04       		.byte	0x4
 217 0079 07       		.byte	0x7
 218 007a 7C030000 		.4byte	.LASF9
 219 007e 03       		.uleb128 0x3
 220 007f 08       		.byte	0x8
 221 0080 05       		.byte	0x5
 222 0081 F6010000 		.4byte	.LASF10
 223 0085 03       		.uleb128 0x3
 224 0086 08       		.byte	0x8
 225 0087 07       		.byte	0x7
 226 0088 D6020000 		.4byte	.LASF11
ARM GAS  /var/folders/7z/kps_xzfj7sn5l5gkyq8s9db00000gn/T//ccfEGhva.s 			page 5


 227 008c 04       		.uleb128 0x4
 228 008d 03030000 		.4byte	.LASF12
 229 0091 03       		.byte	0x3
 230 0092 21       		.byte	0x21
 231 0093 48000000 		.4byte	0x48
 232 0097 04       		.uleb128 0x4
 233 0098 32030000 		.4byte	.LASF13
 234 009c 03       		.byte	0x3
 235 009d 2C       		.byte	0x2c
 236 009e 5A000000 		.4byte	0x5a
 237 00a2 04       		.uleb128 0x4
 238 00a3 ED020000 		.4byte	.LASF14
 239 00a7 03       		.byte	0x3
 240 00a8 2D       		.byte	0x2d
 241 00a9 6C000000 		.4byte	0x6c
 242 00ad 03       		.uleb128 0x3
 243 00ae 01       		.byte	0x1
 244 00af 02       		.byte	0x2
 245 00b0 3A030000 		.4byte	.LASF15
 246 00b4 05       		.uleb128 0x5
 247 00b5 A2000000 		.4byte	0xa2
 248 00b9 03       		.uleb128 0x3
 249 00ba 04       		.byte	0x4
 250 00bb 07       		.byte	0x7
 251 00bc 66010000 		.4byte	.LASF16
 252 00c0 03       		.uleb128 0x3
 253 00c1 01       		.byte	0x1
 254 00c2 08       		.byte	0x8
 255 00c3 04020000 		.4byte	.LASF17
 256 00c7 05       		.uleb128 0x5
 257 00c8 8C000000 		.4byte	0x8c
 258 00cc 05       		.uleb128 0x5
 259 00cd 97000000 		.4byte	0x97
 260 00d1 06       		.uleb128 0x6
 261 00d2 01       		.byte	0x1
 262 00d3 04       		.byte	0x4
 263 00d4 F701     		.2byte	0x1f7
 264 00d6 E7000000 		.4byte	0xe7
 265 00da 07       		.uleb128 0x7
 266 00db 05040000 		.4byte	.LASF18
 267 00df 00       		.sleb128 0
 268 00e0 08       		.uleb128 0x8
 269 00e1 53455400 		.ascii	"SET\000"
 270 00e5 01       		.sleb128 1
 271 00e6 00       		.byte	0
 272 00e7 09       		.uleb128 0x9
 273 00e8 05000000 		.4byte	.LASF19
 274 00ec 04       		.byte	0x4
 275 00ed F701     		.2byte	0x1f7
 276 00ef D1000000 		.4byte	0xd1
 277 00f3 0A       		.uleb128 0xa
 278 00f4 50       		.byte	0x50
 279 00f5 04       		.byte	0x4
 280 00f6 0A02     		.2byte	0x20a
 281 00f8 FF010000 		.4byte	0x1ff
 282 00fc 0B       		.uleb128 0xb
 283 00fd 535200   		.ascii	"SR\000"
ARM GAS  /var/folders/7z/kps_xzfj7sn5l5gkyq8s9db00000gn/T//ccfEGhva.s 			page 6


 284 0100 04       		.byte	0x4
 285 0101 0C02     		.2byte	0x20c
 286 0103 B4000000 		.4byte	0xb4
 287 0107 00       		.byte	0
 288 0108 0B       		.uleb128 0xb
 289 0109 43523100 		.ascii	"CR1\000"
 290 010d 04       		.byte	0x4
 291 010e 0D02     		.2byte	0x20d
 292 0110 B4000000 		.4byte	0xb4
 293 0114 04       		.byte	0x4
 294 0115 0B       		.uleb128 0xb
 295 0116 43523200 		.ascii	"CR2\000"
 296 011a 04       		.byte	0x4
 297 011b 0E02     		.2byte	0x20e
 298 011d B4000000 		.4byte	0xb4
 299 0121 08       		.byte	0x8
 300 0122 0C       		.uleb128 0xc
 301 0123 3E040000 		.4byte	.LASF20
 302 0127 04       		.byte	0x4
 303 0128 0F02     		.2byte	0x20f
 304 012a B4000000 		.4byte	0xb4
 305 012e 0C       		.byte	0xc
 306 012f 0C       		.uleb128 0xc
 307 0130 44040000 		.4byte	.LASF21
 308 0134 04       		.byte	0x4
 309 0135 1002     		.2byte	0x210
 310 0137 B4000000 		.4byte	0xb4
 311 013b 10       		.byte	0x10
 312 013c 0C       		.uleb128 0xc
 313 013d 23020000 		.4byte	.LASF22
 314 0141 04       		.byte	0x4
 315 0142 1102     		.2byte	0x211
 316 0144 B4000000 		.4byte	0xb4
 317 0148 14       		.byte	0x14
 318 0149 0C       		.uleb128 0xc
 319 014a 29020000 		.4byte	.LASF23
 320 014e 04       		.byte	0x4
 321 014f 1202     		.2byte	0x212
 322 0151 B4000000 		.4byte	0xb4
 323 0155 18       		.byte	0x18
 324 0156 0C       		.uleb128 0xc
 325 0157 2F020000 		.4byte	.LASF24
 326 015b 04       		.byte	0x4
 327 015c 1302     		.2byte	0x213
 328 015e B4000000 		.4byte	0xb4
 329 0162 1C       		.byte	0x1c
 330 0163 0C       		.uleb128 0xc
 331 0164 35020000 		.4byte	.LASF25
 332 0168 04       		.byte	0x4
 333 0169 1402     		.2byte	0x214
 334 016b B4000000 		.4byte	0xb4
 335 016f 20       		.byte	0x20
 336 0170 0B       		.uleb128 0xb
 337 0171 48545200 		.ascii	"HTR\000"
 338 0175 04       		.byte	0x4
 339 0176 1502     		.2byte	0x215
 340 0178 B4000000 		.4byte	0xb4
ARM GAS  /var/folders/7z/kps_xzfj7sn5l5gkyq8s9db00000gn/T//ccfEGhva.s 			page 7


 341 017c 24       		.byte	0x24
 342 017d 0B       		.uleb128 0xb
 343 017e 4C545200 		.ascii	"LTR\000"
 344 0182 04       		.byte	0x4
 345 0183 1602     		.2byte	0x216
 346 0185 B4000000 		.4byte	0xb4
 347 0189 28       		.byte	0x28
 348 018a 0C       		.uleb128 0xc
 349 018b 23040000 		.4byte	.LASF26
 350 018f 04       		.byte	0x4
 351 0190 1702     		.2byte	0x217
 352 0192 B4000000 		.4byte	0xb4
 353 0196 2C       		.byte	0x2c
 354 0197 0C       		.uleb128 0xc
 355 0198 28040000 		.4byte	.LASF27
 356 019c 04       		.byte	0x4
 357 019d 1802     		.2byte	0x218
 358 019f B4000000 		.4byte	0xb4
 359 01a3 30       		.byte	0x30
 360 01a4 0C       		.uleb128 0xc
 361 01a5 2D040000 		.4byte	.LASF28
 362 01a9 04       		.byte	0x4
 363 01aa 1902     		.2byte	0x219
 364 01ac B4000000 		.4byte	0xb4
 365 01b0 34       		.byte	0x34
 366 01b1 0C       		.uleb128 0xc
 367 01b2 A7010000 		.4byte	.LASF29
 368 01b6 04       		.byte	0x4
 369 01b7 1A02     		.2byte	0x21a
 370 01b9 B4000000 		.4byte	0xb4
 371 01bd 38       		.byte	0x38
 372 01be 0C       		.uleb128 0xc
 373 01bf 18020000 		.4byte	.LASF30
 374 01c3 04       		.byte	0x4
 375 01c4 1B02     		.2byte	0x21b
 376 01c6 B4000000 		.4byte	0xb4
 377 01ca 3C       		.byte	0x3c
 378 01cb 0C       		.uleb128 0xc
 379 01cc 37010000 		.4byte	.LASF31
 380 01d0 04       		.byte	0x4
 381 01d1 1C02     		.2byte	0x21c
 382 01d3 B4000000 		.4byte	0xb4
 383 01d7 40       		.byte	0x40
 384 01d8 0C       		.uleb128 0xc
 385 01d9 3C010000 		.4byte	.LASF32
 386 01dd 04       		.byte	0x4
 387 01de 1D02     		.2byte	0x21d
 388 01e0 B4000000 		.4byte	0xb4
 389 01e4 44       		.byte	0x44
 390 01e5 0C       		.uleb128 0xc
 391 01e6 41010000 		.4byte	.LASF33
 392 01ea 04       		.byte	0x4
 393 01eb 1E02     		.2byte	0x21e
 394 01ed B4000000 		.4byte	0xb4
 395 01f1 48       		.byte	0x48
 396 01f2 0B       		.uleb128 0xb
 397 01f3 445200   		.ascii	"DR\000"
ARM GAS  /var/folders/7z/kps_xzfj7sn5l5gkyq8s9db00000gn/T//ccfEGhva.s 			page 8


 398 01f6 04       		.byte	0x4
 399 01f7 1F02     		.2byte	0x21f
 400 01f9 B4000000 		.4byte	0xb4
 401 01fd 4C       		.byte	0x4c
 402 01fe 00       		.byte	0
 403 01ff 09       		.uleb128 0x9
 404 0200 32040000 		.4byte	.LASF34
 405 0204 04       		.byte	0x4
 406 0205 2002     		.2byte	0x220
 407 0207 F3000000 		.4byte	0xf3
 408 020b 0A       		.uleb128 0xa
 409 020c 54       		.byte	0x54
 410 020d 04       		.byte	0x4
 411 020e FD04     		.2byte	0x4fd
 412 0210 E7030000 		.4byte	0x3e7
 413 0214 0B       		.uleb128 0xb
 414 0215 43523100 		.ascii	"CR1\000"
 415 0219 04       		.byte	0x4
 416 021a FF04     		.2byte	0x4ff
 417 021c C7000000 		.4byte	0xc7
 418 0220 00       		.byte	0
 419 0221 0C       		.uleb128 0xc
 420 0222 40030000 		.4byte	.LASF35
 421 0226 04       		.byte	0x4
 422 0227 0005     		.2byte	0x500
 423 0229 8C000000 		.4byte	0x8c
 424 022d 02       		.byte	0x2
 425 022e 0B       		.uleb128 0xb
 426 022f 43523200 		.ascii	"CR2\000"
 427 0233 04       		.byte	0x4
 428 0234 0105     		.2byte	0x501
 429 0236 C7000000 		.4byte	0xc7
 430 023a 04       		.byte	0x4
 431 023b 0C       		.uleb128 0xc
 432 023c 4A030000 		.4byte	.LASF36
 433 0240 04       		.byte	0x4
 434 0241 0205     		.2byte	0x502
 435 0243 8C000000 		.4byte	0x8c
 436 0247 06       		.byte	0x6
 437 0248 0C       		.uleb128 0xc
 438 0249 56020000 		.4byte	.LASF37
 439 024d 04       		.byte	0x4
 440 024e 0305     		.2byte	0x503
 441 0250 C7000000 		.4byte	0xc7
 442 0254 08       		.byte	0x8
 443 0255 0C       		.uleb128 0xc
 444 0256 54030000 		.4byte	.LASF38
 445 025a 04       		.byte	0x4
 446 025b 0405     		.2byte	0x504
 447 025d 8C000000 		.4byte	0x8c
 448 0261 0A       		.byte	0xa
 449 0262 0C       		.uleb128 0xc
 450 0263 0C030000 		.4byte	.LASF39
 451 0267 04       		.byte	0x4
 452 0268 0505     		.2byte	0x505
 453 026a C7000000 		.4byte	0xc7
 454 026e 0C       		.byte	0xc
ARM GAS  /var/folders/7z/kps_xzfj7sn5l5gkyq8s9db00000gn/T//ccfEGhva.s 			page 9


 455 026f 0C       		.uleb128 0xc
 456 0270 5E030000 		.4byte	.LASF40
 457 0274 04       		.byte	0x4
 458 0275 0605     		.2byte	0x506
 459 0277 8C000000 		.4byte	0x8c
 460 027b 0E       		.byte	0xe
 461 027c 0B       		.uleb128 0xb
 462 027d 535200   		.ascii	"SR\000"
 463 0280 04       		.byte	0x4
 464 0281 0705     		.2byte	0x507
 465 0283 C7000000 		.4byte	0xc7
 466 0287 10       		.byte	0x10
 467 0288 0C       		.uleb128 0xc
 468 0289 68030000 		.4byte	.LASF41
 469 028d 04       		.byte	0x4
 470 028e 0805     		.2byte	0x508
 471 0290 8C000000 		.4byte	0x8c
 472 0294 12       		.byte	0x12
 473 0295 0B       		.uleb128 0xb
 474 0296 45475200 		.ascii	"EGR\000"
 475 029a 04       		.byte	0x4
 476 029b 0905     		.2byte	0x509
 477 029d C7000000 		.4byte	0xc7
 478 02a1 14       		.byte	0x14
 479 02a2 0C       		.uleb128 0xc
 480 02a3 72030000 		.4byte	.LASF42
 481 02a7 04       		.byte	0x4
 482 02a8 0A05     		.2byte	0x50a
 483 02aa 8C000000 		.4byte	0x8c
 484 02ae 16       		.byte	0x16
 485 02af 0C       		.uleb128 0xc
 486 02b0 46010000 		.4byte	.LASF43
 487 02b4 04       		.byte	0x4
 488 02b5 0B05     		.2byte	0x50b
 489 02b7 C7000000 		.4byte	0xc7
 490 02bb 18       		.byte	0x18
 491 02bc 0C       		.uleb128 0xc
 492 02bd D5010000 		.4byte	.LASF44
 493 02c1 04       		.byte	0x4
 494 02c2 0C05     		.2byte	0x50c
 495 02c4 8C000000 		.4byte	0x8c
 496 02c8 1A       		.byte	0x1a
 497 02c9 0C       		.uleb128 0xc
 498 02ca 1D020000 		.4byte	.LASF45
 499 02ce 04       		.byte	0x4
 500 02cf 0D05     		.2byte	0x50d
 501 02d1 C7000000 		.4byte	0xc7
 502 02d5 1C       		.byte	0x1c
 503 02d6 0C       		.uleb128 0xc
 504 02d7 8E030000 		.4byte	.LASF46
 505 02db 04       		.byte	0x4
 506 02dc 0E05     		.2byte	0x50e
 507 02de 8C000000 		.4byte	0x8c
 508 02e2 1E       		.byte	0x1e
 509 02e3 0C       		.uleb128 0xc
 510 02e4 00000000 		.4byte	.LASF47
 511 02e8 04       		.byte	0x4
ARM GAS  /var/folders/7z/kps_xzfj7sn5l5gkyq8s9db00000gn/T//ccfEGhva.s 			page 10


 512 02e9 0F05     		.2byte	0x50f
 513 02eb C7000000 		.4byte	0xc7
 514 02ef 20       		.byte	0x20
 515 02f0 0C       		.uleb128 0xc
 516 02f1 98030000 		.4byte	.LASF48
 517 02f5 04       		.byte	0x4
 518 02f6 1005     		.2byte	0x510
 519 02f8 8C000000 		.4byte	0x8c
 520 02fc 22       		.byte	0x22
 521 02fd 0B       		.uleb128 0xb
 522 02fe 434E5400 		.ascii	"CNT\000"
 523 0302 04       		.byte	0x4
 524 0303 1105     		.2byte	0x511
 525 0305 B4000000 		.4byte	0xb4
 526 0309 24       		.byte	0x24
 527 030a 0B       		.uleb128 0xb
 528 030b 50534300 		.ascii	"PSC\000"
 529 030f 04       		.byte	0x4
 530 0310 1205     		.2byte	0x512
 531 0312 C7000000 		.4byte	0xc7
 532 0316 28       		.byte	0x28
 533 0317 0C       		.uleb128 0xc
 534 0318 C9030000 		.4byte	.LASF49
 535 031c 04       		.byte	0x4
 536 031d 1305     		.2byte	0x513
 537 031f 8C000000 		.4byte	0x8c
 538 0323 2A       		.byte	0x2a
 539 0324 0B       		.uleb128 0xb
 540 0325 41525200 		.ascii	"ARR\000"
 541 0329 04       		.byte	0x4
 542 032a 1405     		.2byte	0x514
 543 032c B4000000 		.4byte	0xb4
 544 0330 2C       		.byte	0x2c
 545 0331 0B       		.uleb128 0xb
 546 0332 52435200 		.ascii	"RCR\000"
 547 0336 04       		.byte	0x4
 548 0337 1505     		.2byte	0x515
 549 0339 C7000000 		.4byte	0xc7
 550 033d 30       		.byte	0x30
 551 033e 0C       		.uleb128 0xc
 552 033f 7C020000 		.4byte	.LASF50
 553 0343 04       		.byte	0x4
 554 0344 1605     		.2byte	0x516
 555 0346 8C000000 		.4byte	0x8c
 556 034a 32       		.byte	0x32
 557 034b 0C       		.uleb128 0xc
 558 034c 51020000 		.4byte	.LASF51
 559 0350 04       		.byte	0x4
 560 0351 1705     		.2byte	0x517
 561 0353 B4000000 		.4byte	0xb4
 562 0357 34       		.byte	0x34
 563 0358 0C       		.uleb128 0xc
 564 0359 09020000 		.4byte	.LASF52
 565 035d 04       		.byte	0x4
 566 035e 1805     		.2byte	0x518
 567 0360 B4000000 		.4byte	0xb4
 568 0364 38       		.byte	0x38
ARM GAS  /var/folders/7z/kps_xzfj7sn5l5gkyq8s9db00000gn/T//ccfEGhva.s 			page 11


 569 0365 0C       		.uleb128 0xc
 570 0366 0E020000 		.4byte	.LASF53
 571 036a 04       		.byte	0x4
 572 036b 1905     		.2byte	0x519
 573 036d B4000000 		.4byte	0xb4
 574 0371 3C       		.byte	0x3c
 575 0372 0C       		.uleb128 0xc
 576 0373 13020000 		.4byte	.LASF54
 577 0377 04       		.byte	0x4
 578 0378 1A05     		.2byte	0x51a
 579 037a B4000000 		.4byte	0xb4
 580 037e 40       		.byte	0x40
 581 037f 0C       		.uleb128 0xc
 582 0380 2D030000 		.4byte	.LASF55
 583 0384 04       		.byte	0x4
 584 0385 1B05     		.2byte	0x51b
 585 0387 C7000000 		.4byte	0xc7
 586 038b 44       		.byte	0x44
 587 038c 0C       		.uleb128 0xc
 588 038d 87020000 		.4byte	.LASF56
 589 0391 04       		.byte	0x4
 590 0392 1C05     		.2byte	0x51c
 591 0394 8C000000 		.4byte	0x8c
 592 0398 46       		.byte	0x46
 593 0399 0B       		.uleb128 0xb
 594 039a 44435200 		.ascii	"DCR\000"
 595 039e 04       		.byte	0x4
 596 039f 1D05     		.2byte	0x51d
 597 03a1 C7000000 		.4byte	0xc7
 598 03a5 48       		.byte	0x48
 599 03a6 0C       		.uleb128 0xc
 600 03a7 92020000 		.4byte	.LASF57
 601 03ab 04       		.byte	0x4
 602 03ac 1E05     		.2byte	0x51e
 603 03ae 8C000000 		.4byte	0x8c
 604 03b2 4A       		.byte	0x4a
 605 03b3 0C       		.uleb128 0xc
 606 03b4 32010000 		.4byte	.LASF58
 607 03b8 04       		.byte	0x4
 608 03b9 1F05     		.2byte	0x51f
 609 03bb C7000000 		.4byte	0xc7
 610 03bf 4C       		.byte	0x4c
 611 03c0 0C       		.uleb128 0xc
 612 03c1 9D020000 		.4byte	.LASF59
 613 03c5 04       		.byte	0x4
 614 03c6 2005     		.2byte	0x520
 615 03c8 8C000000 		.4byte	0x8c
 616 03cc 4E       		.byte	0x4e
 617 03cd 0B       		.uleb128 0xb
 618 03ce 4F5200   		.ascii	"OR\000"
 619 03d1 04       		.byte	0x4
 620 03d2 2105     		.2byte	0x521
 621 03d4 C7000000 		.4byte	0xc7
 622 03d8 50       		.byte	0x50
 623 03d9 0C       		.uleb128 0xc
 624 03da A8020000 		.4byte	.LASF60
 625 03de 04       		.byte	0x4
ARM GAS  /var/folders/7z/kps_xzfj7sn5l5gkyq8s9db00000gn/T//ccfEGhva.s 			page 12


 626 03df 2205     		.2byte	0x522
 627 03e1 8C000000 		.4byte	0x8c
 628 03e5 52       		.byte	0x52
 629 03e6 00       		.byte	0
 630 03e7 09       		.uleb128 0x9
 631 03e8 3B020000 		.4byte	.LASF61
 632 03ec 04       		.byte	0x4
 633 03ed 2305     		.2byte	0x523
 634 03ef 0B020000 		.4byte	0x20b
 635 03f3 03       		.uleb128 0x3
 636 03f4 08       		.byte	0x8
 637 03f5 04       		.byte	0x4
 638 03f6 A2030000 		.4byte	.LASF62
 639 03fa 03       		.uleb128 0x3
 640 03fb 04       		.byte	0x4
 641 03fc 04       		.byte	0x4
 642 03fd F0010000 		.4byte	.LASF63
 643 0401 03       		.uleb128 0x3
 644 0402 08       		.byte	0x8
 645 0403 04       		.byte	0x4
 646 0404 85010000 		.4byte	.LASF64
 647 0408 0D       		.uleb128 0xd
 648 0409 47020000 		.4byte	.LASF65
 649 040d 01       		.byte	0x1
 650 040e 1B       		.byte	0x1b
 651 040f 00000000 		.4byte	.LFB119
 652 0413 1C000000 		.4byte	.LFE119-.LFB119
 653 0417 01       		.uleb128 0x1
 654 0418 9C       		.byte	0x9c
 655 0419 4C040000 		.4byte	0x44c
 656 041d 0E       		.uleb128 0xe
 657 041e 0A000000 		.4byte	.LVL0
 658 0422 DA040000 		.4byte	0x4da
 659 0426 39040000 		.4byte	0x439
 660 042a 0F       		.uleb128 0xf
 661 042b 01       		.uleb128 0x1
 662 042c 51       		.byte	0x51
 663 042d 01       		.uleb128 0x1
 664 042e 31       		.byte	0x31
 665 042f 0F       		.uleb128 0xf
 666 0430 01       		.uleb128 0x1
 667 0431 50       		.byte	0x50
 668 0432 05       		.uleb128 0x5
 669 0433 0C       		.byte	0xc
 670 0434 00140040 		.4byte	0x40001400
 671 0438 00       		.byte	0
 672 0439 10       		.uleb128 0x10
 673 043a 0E000000 		.4byte	.LVL1
 674 043e F7040000 		.4byte	0x4f7
 675 0442 11       		.uleb128 0x11
 676 0443 16000000 		.4byte	.LVL2
 677 0447 FE040000 		.4byte	0x4fe
 678 044b 00       		.byte	0
 679 044c 0D       		.uleb128 0xd
 680 044d A9030000 		.4byte	.LASF66
 681 0451 01       		.byte	0x1
 682 0452 22       		.byte	0x22
ARM GAS  /var/folders/7z/kps_xzfj7sn5l5gkyq8s9db00000gn/T//ccfEGhva.s 			page 13


 683 0453 00000000 		.4byte	.LFB120
 684 0457 1C000000 		.4byte	.LFE120-.LFB120
 685 045b 01       		.uleb128 0x1
 686 045c 9C       		.byte	0x9c
 687 045d 92040000 		.4byte	0x492
 688 0461 0E       		.uleb128 0xe
 689 0462 0C000000 		.4byte	.LVL3
 690 0466 06050000 		.4byte	0x506
 691 046a 7F040000 		.4byte	0x47f
 692 046e 0F       		.uleb128 0xf
 693 046f 01       		.uleb128 0x1
 694 0470 51       		.byte	0x51
 695 0471 03       		.uleb128 0x3
 696 0472 0A       		.byte	0xa
 697 0473 0704     		.2byte	0x407
 698 0475 0F       		.uleb128 0xf
 699 0476 01       		.uleb128 0x1
 700 0477 50       		.byte	0x50
 701 0478 05       		.uleb128 0x5
 702 0479 0C       		.byte	0xc
 703 047a 00200140 		.4byte	0x40012000
 704 047e 00       		.byte	0
 705 047f 10       		.uleb128 0x10
 706 0480 10000000 		.4byte	.LVL4
 707 0484 23050000 		.4byte	0x523
 708 0488 11       		.uleb128 0x11
 709 0489 18000000 		.4byte	.LVL5
 710 048d FE040000 		.4byte	0x4fe
 711 0491 00       		.byte	0
 712 0492 0D       		.uleb128 0xd
 713 0493 B6010000 		.4byte	.LASF67
 714 0497 01       		.byte	0x1
 715 0498 29       		.byte	0x29
 716 0499 00000000 		.4byte	.LFB121
 717 049d 24000000 		.4byte	.LFE121-.LFB121
 718 04a1 01       		.uleb128 0x1
 719 04a2 9C       		.byte	0x9c
 720 04a3 CE040000 		.4byte	0x4ce
 721 04a7 0E       		.uleb128 0xe
 722 04a8 0A000000 		.4byte	.LVL6
 723 04ac 2B050000 		.4byte	0x52b
 724 04b0 BC040000 		.4byte	0x4bc
 725 04b4 0F       		.uleb128 0xf
 726 04b5 01       		.uleb128 0x1
 727 04b6 50       		.byte	0x50
 728 04b7 03       		.uleb128 0x3
 729 04b8 0A       		.byte	0xa
 730 04b9 0008     		.2byte	0x800
 731 04bb 00       		.byte	0
 732 04bc 12       		.uleb128 0x12
 733 04bd 20000000 		.4byte	.LVL7
 734 04c1 40050000 		.4byte	0x540
 735 04c5 0F       		.uleb128 0xf
 736 04c6 01       		.uleb128 0x1
 737 04c7 50       		.byte	0x50
 738 04c8 03       		.uleb128 0x3
 739 04c9 0A       		.byte	0xa
ARM GAS  /var/folders/7z/kps_xzfj7sn5l5gkyq8s9db00000gn/T//ccfEGhva.s 			page 14


 740 04ca 0008     		.2byte	0x800
 741 04cc 00       		.byte	0
 742 04cd 00       		.byte	0
 743 04ce 13       		.uleb128 0x13
 744 04cf BC030000 		.4byte	.LASF76
 745 04d3 0A       		.byte	0xa
 746 04d4 9806     		.2byte	0x698
 747 04d6 CC000000 		.4byte	0xcc
 748 04da 14       		.uleb128 0x14
 749 04db 6F010000 		.4byte	.LASF70
 750 04df 07       		.byte	0x7
 751 04e0 5104     		.2byte	0x451
 752 04e2 F1040000 		.4byte	0x4f1
 753 04e6 15       		.uleb128 0x15
 754 04e7 F1040000 		.4byte	0x4f1
 755 04eb 15       		.uleb128 0x15
 756 04ec 8C000000 		.4byte	0x8c
 757 04f0 00       		.byte	0
 758 04f1 16       		.uleb128 0x16
 759 04f2 04       		.byte	0x4
 760 04f3 E7030000 		.4byte	0x3e7
 761 04f7 17       		.uleb128 0x17
 762 04f8 B2030000 		.4byte	.LASF68
 763 04fc 05       		.byte	0x5
 764 04fd FD       		.byte	0xfd
 765 04fe 18       		.uleb128 0x18
 766 04ff 5B020000 		.4byte	.LASF69
 767 0503 06       		.byte	0x6
 768 0504 0302     		.2byte	0x203
 769 0506 14       		.uleb128 0x14
 770 0507 BF010000 		.4byte	.LASF71
 771 050b 08       		.byte	0x8
 772 050c 7902     		.2byte	0x279
 773 050e 1D050000 		.4byte	0x51d
 774 0512 15       		.uleb128 0x15
 775 0513 1D050000 		.4byte	0x51d
 776 0517 15       		.uleb128 0x15
 777 0518 8C000000 		.4byte	0x8c
 778 051c 00       		.byte	0
 779 051d 16       		.uleb128 0x16
 780 051e 04       		.byte	0x4
 781 051f FF010000 		.4byte	0x1ff
 782 0523 18       		.uleb128 0x18
 783 0524 4C010000 		.4byte	.LASF72
 784 0528 09       		.byte	0x9
 785 0529 5101     		.2byte	0x151
 786 052b 19       		.uleb128 0x19
 787 052c DF010000 		.4byte	.LASF77
 788 0530 0B       		.byte	0xb
 789 0531 A6       		.byte	0xa6
 790 0532 E7000000 		.4byte	0xe7
 791 0536 40050000 		.4byte	0x540
 792 053a 15       		.uleb128 0x15
 793 053b A2000000 		.4byte	0xa2
 794 053f 00       		.byte	0
 795 0540 1A       		.uleb128 0x1a
 796 0541 BF020000 		.4byte	.LASF78
ARM GAS  /var/folders/7z/kps_xzfj7sn5l5gkyq8s9db00000gn/T//ccfEGhva.s 			page 15


 797 0545 0B       		.byte	0xb
 798 0546 A7       		.byte	0xa7
 799 0547 15       		.uleb128 0x15
 800 0548 A2000000 		.4byte	0xa2
 801 054c 00       		.byte	0
 802 054d 00       		.byte	0
 803              		.section	.debug_abbrev,"",%progbits
 804              	.Ldebug_abbrev0:
 805 0000 01       		.uleb128 0x1
 806 0001 11       		.uleb128 0x11
 807 0002 01       		.byte	0x1
 808 0003 25       		.uleb128 0x25
 809 0004 0E       		.uleb128 0xe
 810 0005 13       		.uleb128 0x13
 811 0006 0B       		.uleb128 0xb
 812 0007 03       		.uleb128 0x3
 813 0008 0E       		.uleb128 0xe
 814 0009 1B       		.uleb128 0x1b
 815 000a 0E       		.uleb128 0xe
 816 000b 55       		.uleb128 0x55
 817 000c 17       		.uleb128 0x17
 818 000d 11       		.uleb128 0x11
 819 000e 01       		.uleb128 0x1
 820 000f 10       		.uleb128 0x10
 821 0010 17       		.uleb128 0x17
 822 0011 00       		.byte	0
 823 0012 00       		.byte	0
 824 0013 02       		.uleb128 0x2
 825 0014 24       		.uleb128 0x24
 826 0015 00       		.byte	0
 827 0016 0B       		.uleb128 0xb
 828 0017 0B       		.uleb128 0xb
 829 0018 3E       		.uleb128 0x3e
 830 0019 0B       		.uleb128 0xb
 831 001a 03       		.uleb128 0x3
 832 001b 08       		.uleb128 0x8
 833 001c 00       		.byte	0
 834 001d 00       		.byte	0
 835 001e 03       		.uleb128 0x3
 836 001f 24       		.uleb128 0x24
 837 0020 00       		.byte	0
 838 0021 0B       		.uleb128 0xb
 839 0022 0B       		.uleb128 0xb
 840 0023 3E       		.uleb128 0x3e
 841 0024 0B       		.uleb128 0xb
 842 0025 03       		.uleb128 0x3
 843 0026 0E       		.uleb128 0xe
 844 0027 00       		.byte	0
 845 0028 00       		.byte	0
 846 0029 04       		.uleb128 0x4
 847 002a 16       		.uleb128 0x16
 848 002b 00       		.byte	0
 849 002c 03       		.uleb128 0x3
 850 002d 0E       		.uleb128 0xe
 851 002e 3A       		.uleb128 0x3a
 852 002f 0B       		.uleb128 0xb
 853 0030 3B       		.uleb128 0x3b
ARM GAS  /var/folders/7z/kps_xzfj7sn5l5gkyq8s9db00000gn/T//ccfEGhva.s 			page 16


 854 0031 0B       		.uleb128 0xb
 855 0032 49       		.uleb128 0x49
 856 0033 13       		.uleb128 0x13
 857 0034 00       		.byte	0
 858 0035 00       		.byte	0
 859 0036 05       		.uleb128 0x5
 860 0037 35       		.uleb128 0x35
 861 0038 00       		.byte	0
 862 0039 49       		.uleb128 0x49
 863 003a 13       		.uleb128 0x13
 864 003b 00       		.byte	0
 865 003c 00       		.byte	0
 866 003d 06       		.uleb128 0x6
 867 003e 04       		.uleb128 0x4
 868 003f 01       		.byte	0x1
 869 0040 0B       		.uleb128 0xb
 870 0041 0B       		.uleb128 0xb
 871 0042 3A       		.uleb128 0x3a
 872 0043 0B       		.uleb128 0xb
 873 0044 3B       		.uleb128 0x3b
 874 0045 05       		.uleb128 0x5
 875 0046 01       		.uleb128 0x1
 876 0047 13       		.uleb128 0x13
 877 0048 00       		.byte	0
 878 0049 00       		.byte	0
 879 004a 07       		.uleb128 0x7
 880 004b 28       		.uleb128 0x28
 881 004c 00       		.byte	0
 882 004d 03       		.uleb128 0x3
 883 004e 0E       		.uleb128 0xe
 884 004f 1C       		.uleb128 0x1c
 885 0050 0D       		.uleb128 0xd
 886 0051 00       		.byte	0
 887 0052 00       		.byte	0
 888 0053 08       		.uleb128 0x8
 889 0054 28       		.uleb128 0x28
 890 0055 00       		.byte	0
 891 0056 03       		.uleb128 0x3
 892 0057 08       		.uleb128 0x8
 893 0058 1C       		.uleb128 0x1c
 894 0059 0D       		.uleb128 0xd
 895 005a 00       		.byte	0
 896 005b 00       		.byte	0
 897 005c 09       		.uleb128 0x9
 898 005d 16       		.uleb128 0x16
 899 005e 00       		.byte	0
 900 005f 03       		.uleb128 0x3
 901 0060 0E       		.uleb128 0xe
 902 0061 3A       		.uleb128 0x3a
 903 0062 0B       		.uleb128 0xb
 904 0063 3B       		.uleb128 0x3b
 905 0064 05       		.uleb128 0x5
 906 0065 49       		.uleb128 0x49
 907 0066 13       		.uleb128 0x13
 908 0067 00       		.byte	0
 909 0068 00       		.byte	0
 910 0069 0A       		.uleb128 0xa
ARM GAS  /var/folders/7z/kps_xzfj7sn5l5gkyq8s9db00000gn/T//ccfEGhva.s 			page 17


 911 006a 13       		.uleb128 0x13
 912 006b 01       		.byte	0x1
 913 006c 0B       		.uleb128 0xb
 914 006d 0B       		.uleb128 0xb
 915 006e 3A       		.uleb128 0x3a
 916 006f 0B       		.uleb128 0xb
 917 0070 3B       		.uleb128 0x3b
 918 0071 05       		.uleb128 0x5
 919 0072 01       		.uleb128 0x1
 920 0073 13       		.uleb128 0x13
 921 0074 00       		.byte	0
 922 0075 00       		.byte	0
 923 0076 0B       		.uleb128 0xb
 924 0077 0D       		.uleb128 0xd
 925 0078 00       		.byte	0
 926 0079 03       		.uleb128 0x3
 927 007a 08       		.uleb128 0x8
 928 007b 3A       		.uleb128 0x3a
 929 007c 0B       		.uleb128 0xb
 930 007d 3B       		.uleb128 0x3b
 931 007e 05       		.uleb128 0x5
 932 007f 49       		.uleb128 0x49
 933 0080 13       		.uleb128 0x13
 934 0081 38       		.uleb128 0x38
 935 0082 0B       		.uleb128 0xb
 936 0083 00       		.byte	0
 937 0084 00       		.byte	0
 938 0085 0C       		.uleb128 0xc
 939 0086 0D       		.uleb128 0xd
 940 0087 00       		.byte	0
 941 0088 03       		.uleb128 0x3
 942 0089 0E       		.uleb128 0xe
 943 008a 3A       		.uleb128 0x3a
 944 008b 0B       		.uleb128 0xb
 945 008c 3B       		.uleb128 0x3b
 946 008d 05       		.uleb128 0x5
 947 008e 49       		.uleb128 0x49
 948 008f 13       		.uleb128 0x13
 949 0090 38       		.uleb128 0x38
 950 0091 0B       		.uleb128 0xb
 951 0092 00       		.byte	0
 952 0093 00       		.byte	0
 953 0094 0D       		.uleb128 0xd
 954 0095 2E       		.uleb128 0x2e
 955 0096 01       		.byte	0x1
 956 0097 3F       		.uleb128 0x3f
 957 0098 19       		.uleb128 0x19
 958 0099 03       		.uleb128 0x3
 959 009a 0E       		.uleb128 0xe
 960 009b 3A       		.uleb128 0x3a
 961 009c 0B       		.uleb128 0xb
 962 009d 3B       		.uleb128 0x3b
 963 009e 0B       		.uleb128 0xb
 964 009f 27       		.uleb128 0x27
 965 00a0 19       		.uleb128 0x19
 966 00a1 11       		.uleb128 0x11
 967 00a2 01       		.uleb128 0x1
ARM GAS  /var/folders/7z/kps_xzfj7sn5l5gkyq8s9db00000gn/T//ccfEGhva.s 			page 18


 968 00a3 12       		.uleb128 0x12
 969 00a4 06       		.uleb128 0x6
 970 00a5 40       		.uleb128 0x40
 971 00a6 18       		.uleb128 0x18
 972 00a7 9742     		.uleb128 0x2117
 973 00a9 19       		.uleb128 0x19
 974 00aa 01       		.uleb128 0x1
 975 00ab 13       		.uleb128 0x13
 976 00ac 00       		.byte	0
 977 00ad 00       		.byte	0
 978 00ae 0E       		.uleb128 0xe
 979 00af 898201   		.uleb128 0x4109
 980 00b2 01       		.byte	0x1
 981 00b3 11       		.uleb128 0x11
 982 00b4 01       		.uleb128 0x1
 983 00b5 31       		.uleb128 0x31
 984 00b6 13       		.uleb128 0x13
 985 00b7 01       		.uleb128 0x1
 986 00b8 13       		.uleb128 0x13
 987 00b9 00       		.byte	0
 988 00ba 00       		.byte	0
 989 00bb 0F       		.uleb128 0xf
 990 00bc 8A8201   		.uleb128 0x410a
 991 00bf 00       		.byte	0
 992 00c0 02       		.uleb128 0x2
 993 00c1 18       		.uleb128 0x18
 994 00c2 9142     		.uleb128 0x2111
 995 00c4 18       		.uleb128 0x18
 996 00c5 00       		.byte	0
 997 00c6 00       		.byte	0
 998 00c7 10       		.uleb128 0x10
 999 00c8 898201   		.uleb128 0x4109
 1000 00cb 00       		.byte	0
 1001 00cc 11       		.uleb128 0x11
 1002 00cd 01       		.uleb128 0x1
 1003 00ce 31       		.uleb128 0x31
 1004 00cf 13       		.uleb128 0x13
 1005 00d0 00       		.byte	0
 1006 00d1 00       		.byte	0
 1007 00d2 11       		.uleb128 0x11
 1008 00d3 898201   		.uleb128 0x4109
 1009 00d6 00       		.byte	0
 1010 00d7 11       		.uleb128 0x11
 1011 00d8 01       		.uleb128 0x1
 1012 00d9 9542     		.uleb128 0x2115
 1013 00db 19       		.uleb128 0x19
 1014 00dc 31       		.uleb128 0x31
 1015 00dd 13       		.uleb128 0x13
 1016 00de 00       		.byte	0
 1017 00df 00       		.byte	0
 1018 00e0 12       		.uleb128 0x12
 1019 00e1 898201   		.uleb128 0x4109
 1020 00e4 01       		.byte	0x1
 1021 00e5 11       		.uleb128 0x11
 1022 00e6 01       		.uleb128 0x1
 1023 00e7 9542     		.uleb128 0x2115
 1024 00e9 19       		.uleb128 0x19
ARM GAS  /var/folders/7z/kps_xzfj7sn5l5gkyq8s9db00000gn/T//ccfEGhva.s 			page 19


 1025 00ea 31       		.uleb128 0x31
 1026 00eb 13       		.uleb128 0x13
 1027 00ec 00       		.byte	0
 1028 00ed 00       		.byte	0
 1029 00ee 13       		.uleb128 0x13
 1030 00ef 34       		.uleb128 0x34
 1031 00f0 00       		.byte	0
 1032 00f1 03       		.uleb128 0x3
 1033 00f2 0E       		.uleb128 0xe
 1034 00f3 3A       		.uleb128 0x3a
 1035 00f4 0B       		.uleb128 0xb
 1036 00f5 3B       		.uleb128 0x3b
 1037 00f6 05       		.uleb128 0x5
 1038 00f7 49       		.uleb128 0x49
 1039 00f8 13       		.uleb128 0x13
 1040 00f9 3F       		.uleb128 0x3f
 1041 00fa 19       		.uleb128 0x19
 1042 00fb 3C       		.uleb128 0x3c
 1043 00fc 19       		.uleb128 0x19
 1044 00fd 00       		.byte	0
 1045 00fe 00       		.byte	0
 1046 00ff 14       		.uleb128 0x14
 1047 0100 2E       		.uleb128 0x2e
 1048 0101 01       		.byte	0x1
 1049 0102 3F       		.uleb128 0x3f
 1050 0103 19       		.uleb128 0x19
 1051 0104 03       		.uleb128 0x3
 1052 0105 0E       		.uleb128 0xe
 1053 0106 3A       		.uleb128 0x3a
 1054 0107 0B       		.uleb128 0xb
 1055 0108 3B       		.uleb128 0x3b
 1056 0109 05       		.uleb128 0x5
 1057 010a 27       		.uleb128 0x27
 1058 010b 19       		.uleb128 0x19
 1059 010c 3C       		.uleb128 0x3c
 1060 010d 19       		.uleb128 0x19
 1061 010e 01       		.uleb128 0x1
 1062 010f 13       		.uleb128 0x13
 1063 0110 00       		.byte	0
 1064 0111 00       		.byte	0
 1065 0112 15       		.uleb128 0x15
 1066 0113 05       		.uleb128 0x5
 1067 0114 00       		.byte	0
 1068 0115 49       		.uleb128 0x49
 1069 0116 13       		.uleb128 0x13
 1070 0117 00       		.byte	0
 1071 0118 00       		.byte	0
 1072 0119 16       		.uleb128 0x16
 1073 011a 0F       		.uleb128 0xf
 1074 011b 00       		.byte	0
 1075 011c 0B       		.uleb128 0xb
 1076 011d 0B       		.uleb128 0xb
 1077 011e 49       		.uleb128 0x49
 1078 011f 13       		.uleb128 0x13
 1079 0120 00       		.byte	0
 1080 0121 00       		.byte	0
 1081 0122 17       		.uleb128 0x17
ARM GAS  /var/folders/7z/kps_xzfj7sn5l5gkyq8s9db00000gn/T//ccfEGhva.s 			page 20


 1082 0123 2E       		.uleb128 0x2e
 1083 0124 00       		.byte	0
 1084 0125 3F       		.uleb128 0x3f
 1085 0126 19       		.uleb128 0x19
 1086 0127 03       		.uleb128 0x3
 1087 0128 0E       		.uleb128 0xe
 1088 0129 3A       		.uleb128 0x3a
 1089 012a 0B       		.uleb128 0xb
 1090 012b 3B       		.uleb128 0x3b
 1091 012c 0B       		.uleb128 0xb
 1092 012d 27       		.uleb128 0x27
 1093 012e 19       		.uleb128 0x19
 1094 012f 3C       		.uleb128 0x3c
 1095 0130 19       		.uleb128 0x19
 1096 0131 00       		.byte	0
 1097 0132 00       		.byte	0
 1098 0133 18       		.uleb128 0x18
 1099 0134 2E       		.uleb128 0x2e
 1100 0135 00       		.byte	0
 1101 0136 3F       		.uleb128 0x3f
 1102 0137 19       		.uleb128 0x19
 1103 0138 03       		.uleb128 0x3
 1104 0139 0E       		.uleb128 0xe
 1105 013a 3A       		.uleb128 0x3a
 1106 013b 0B       		.uleb128 0xb
 1107 013c 3B       		.uleb128 0x3b
 1108 013d 05       		.uleb128 0x5
 1109 013e 27       		.uleb128 0x27
 1110 013f 19       		.uleb128 0x19
 1111 0140 3C       		.uleb128 0x3c
 1112 0141 19       		.uleb128 0x19
 1113 0142 00       		.byte	0
 1114 0143 00       		.byte	0
 1115 0144 19       		.uleb128 0x19
 1116 0145 2E       		.uleb128 0x2e
 1117 0146 01       		.byte	0x1
 1118 0147 3F       		.uleb128 0x3f
 1119 0148 19       		.uleb128 0x19
 1120 0149 03       		.uleb128 0x3
 1121 014a 0E       		.uleb128 0xe
 1122 014b 3A       		.uleb128 0x3a
 1123 014c 0B       		.uleb128 0xb
 1124 014d 3B       		.uleb128 0x3b
 1125 014e 0B       		.uleb128 0xb
 1126 014f 27       		.uleb128 0x27
 1127 0150 19       		.uleb128 0x19
 1128 0151 49       		.uleb128 0x49
 1129 0152 13       		.uleb128 0x13
 1130 0153 3C       		.uleb128 0x3c
 1131 0154 19       		.uleb128 0x19
 1132 0155 01       		.uleb128 0x1
 1133 0156 13       		.uleb128 0x13
 1134 0157 00       		.byte	0
 1135 0158 00       		.byte	0
 1136 0159 1A       		.uleb128 0x1a
 1137 015a 2E       		.uleb128 0x2e
 1138 015b 01       		.byte	0x1
ARM GAS  /var/folders/7z/kps_xzfj7sn5l5gkyq8s9db00000gn/T//ccfEGhva.s 			page 21


 1139 015c 3F       		.uleb128 0x3f
 1140 015d 19       		.uleb128 0x19
 1141 015e 03       		.uleb128 0x3
 1142 015f 0E       		.uleb128 0xe
 1143 0160 3A       		.uleb128 0x3a
 1144 0161 0B       		.uleb128 0xb
 1145 0162 3B       		.uleb128 0x3b
 1146 0163 0B       		.uleb128 0xb
 1147 0164 27       		.uleb128 0x27
 1148 0165 19       		.uleb128 0x19
 1149 0166 3C       		.uleb128 0x3c
 1150 0167 19       		.uleb128 0x19
 1151 0168 00       		.byte	0
 1152 0169 00       		.byte	0
 1153 016a 00       		.byte	0
 1154              		.section	.debug_aranges,"",%progbits
 1155 0000 2C000000 		.4byte	0x2c
 1156 0004 0200     		.2byte	0x2
 1157 0006 00000000 		.4byte	.Ldebug_info0
 1158 000a 04       		.byte	0x4
 1159 000b 00       		.byte	0
 1160 000c 0000     		.2byte	0
 1161 000e 0000     		.2byte	0
 1162 0010 00000000 		.4byte	.LFB119
 1163 0014 1C000000 		.4byte	.LFE119-.LFB119
 1164 0018 00000000 		.4byte	.LFB120
 1165 001c 1C000000 		.4byte	.LFE120-.LFB120
 1166 0020 00000000 		.4byte	.LFB121
 1167 0024 24000000 		.4byte	.LFE121-.LFB121
 1168 0028 00000000 		.4byte	0
 1169 002c 00000000 		.4byte	0
 1170              		.section	.debug_ranges,"",%progbits
 1171              	.Ldebug_ranges0:
 1172 0000 00000000 		.4byte	.LFB119
 1173 0004 1C000000 		.4byte	.LFE119
 1174 0008 00000000 		.4byte	.LFB120
 1175 000c 1C000000 		.4byte	.LFE120
 1176 0010 00000000 		.4byte	.LFB121
 1177 0014 24000000 		.4byte	.LFE121
 1178 0018 00000000 		.4byte	0
 1179 001c 00000000 		.4byte	0
 1180              		.section	.debug_line,"",%progbits
 1181              	.Ldebug_line0:
 1182 0000 3C020000 		.section	.debug_str,"MS",%progbits,1
 1182      0200FC01 
 1182      00000201 
 1182      FB0E0D00 
 1182      01010101 
 1183              	.LASF47:
 1184 0000 43434552 		.ascii	"CCER\000"
 1184      00
 1185              	.LASF19:
 1186 0005 49545374 		.ascii	"ITStatus\000"
 1186      61747573 
 1186      00
 1187              	.LASF73:
 1188 000e 474E5520 		.ascii	"GNU C 4.9.3 20150303 (release) [ARM/embedded-4_9-br"
ARM GAS  /var/folders/7z/kps_xzfj7sn5l5gkyq8s9db00000gn/T//ccfEGhva.s 			page 22


 1188      4320342E 
 1188      392E3320 
 1188      32303135 
 1188      30333033 
 1189 0041 616E6368 		.ascii	"anch revision 221220] -mcpu=cortex-m4 -mfloat-abi=h"
 1189      20726576 
 1189      6973696F 
 1189      6E203232 
 1189      31323230 
 1190 0074 61726420 		.ascii	"ard -mfpu=fpv4-sp-d16 -mno-thumb-interwork -mthumb "
 1190      2D6D6670 
 1190      753D6670 
 1190      76342D73 
 1190      702D6431 
 1191 00a7 2D676764 		.ascii	"-ggdb -O2 -std=gnu99 -fomit-frame-pointer -falign-f"
 1191      62202D4F 
 1191      32202D73 
 1191      74643D67 
 1191      6E753939 
 1192 00da 756E6374 		.ascii	"unctions=16 -ffunction-sections -fdata-sections -fn"
 1192      696F6E73 
 1192      3D313620 
 1192      2D666675 
 1192      6E637469 
 1193 010d 6F2D636F 		.ascii	"o-common -fsingle-precision-constant\000"
 1193      6D6D6F6E 
 1193      202D6673 
 1193      696E676C 
 1193      652D7072 
 1194              	.LASF58:
 1195 0132 444D4152 		.ascii	"DMAR\000"
 1195      00
 1196              	.LASF31:
 1197 0137 4A445232 		.ascii	"JDR2\000"
 1197      00
 1198              	.LASF32:
 1199 013c 4A445233 		.ascii	"JDR3\000"
 1199      00
 1200              	.LASF33:
 1201 0141 4A445234 		.ascii	"JDR4\000"
 1201      00
 1202              	.LASF43:
 1203 0146 43434D52 		.ascii	"CCMR1\000"
 1203      3100
 1204              	.LASF72:
 1205 014c 6D637077 		.ascii	"mcpwm_adc_inj_int_handler\000"
 1205      6D5F6164 
 1205      635F696E 
 1205      6A5F696E 
 1205      745F6861 
 1206              	.LASF16:
 1207 0166 73697A65 		.ascii	"sizetype\000"
 1207      74797065 
 1207      00
 1208              	.LASF70:
 1209 016f 54494D5F 		.ascii	"TIM_ClearITPendingBit\000"
 1209      436C6561 
ARM GAS  /var/folders/7z/kps_xzfj7sn5l5gkyq8s9db00000gn/T//ccfEGhva.s 			page 23


 1209      72495450 
 1209      656E6469 
 1209      6E674269 
 1210              	.LASF64:
 1211 0185 6C6F6E67 		.ascii	"long double\000"
 1211      20646F75 
 1211      626C6500 
 1212              	.LASF8:
 1213 0191 5F5F7569 		.ascii	"__uint32_t\000"
 1213      6E743332 
 1213      5F7400
 1214              	.LASF5:
 1215 019c 5F5F7569 		.ascii	"__uint16_t\000"
 1215      6E743136 
 1215      5F7400
 1216              	.LASF29:
 1217 01a7 4A535152 		.ascii	"JSQR\000"
 1217      00
 1218              	.LASF3:
 1219 01ac 73686F72 		.ascii	"short int\000"
 1219      7420696E 
 1219      7400
 1220              	.LASF67:
 1221 01b6 56656374 		.ascii	"VectorE0\000"
 1221      6F724530 
 1221      00
 1222              	.LASF71:
 1223 01bf 4144435F 		.ascii	"ADC_ClearITPendingBit\000"
 1223      436C6561 
 1223      72495450 
 1223      656E6469 
 1223      6E674269 
 1224              	.LASF44:
 1225 01d5 52455345 		.ascii	"RESERVED6\000"
 1225      52564544 
 1225      3600
 1226              	.LASF77:
 1227 01df 45585449 		.ascii	"EXTI_GetITStatus\000"
 1227      5F476574 
 1227      49545374 
 1227      61747573 
 1227      00
 1228              	.LASF63:
 1229 01f0 666C6F61 		.ascii	"float\000"
 1229      7400
 1230              	.LASF10:
 1231 01f6 6C6F6E67 		.ascii	"long long int\000"
 1231      206C6F6E 
 1231      6720696E 
 1231      7400
 1232              	.LASF17:
 1233 0204 63686172 		.ascii	"char\000"
 1233      00
 1234              	.LASF52:
 1235 0209 43435232 		.ascii	"CCR2\000"
 1235      00
 1236              	.LASF53:
ARM GAS  /var/folders/7z/kps_xzfj7sn5l5gkyq8s9db00000gn/T//ccfEGhva.s 			page 24


 1237 020e 43435233 		.ascii	"CCR3\000"
 1237      00
 1238              	.LASF54:
 1239 0213 43435234 		.ascii	"CCR4\000"
 1239      00
 1240              	.LASF30:
 1241 0218 4A445231 		.ascii	"JDR1\000"
 1241      00
 1242              	.LASF45:
 1243 021d 43434D52 		.ascii	"CCMR2\000"
 1243      3200
 1244              	.LASF22:
 1245 0223 4A4F4652 		.ascii	"JOFR1\000"
 1245      3100
 1246              	.LASF23:
 1247 0229 4A4F4652 		.ascii	"JOFR2\000"
 1247      3200
 1248              	.LASF24:
 1249 022f 4A4F4652 		.ascii	"JOFR3\000"
 1249      3300
 1250              	.LASF25:
 1251 0235 4A4F4652 		.ascii	"JOFR4\000"
 1251      3400
 1252              	.LASF61:
 1253 023b 54494D5F 		.ascii	"TIM_TypeDef\000"
 1253      54797065 
 1253      44656600 
 1254              	.LASF65:
 1255 0247 56656374 		.ascii	"Vector11C\000"
 1255      6F723131 
 1255      4300
 1256              	.LASF51:
 1257 0251 43435231 		.ascii	"CCR1\000"
 1257      00
 1258              	.LASF37:
 1259 0256 534D4352 		.ascii	"SMCR\000"
 1259      00
 1260              	.LASF69:
 1261 025b 5F706F72 		.ascii	"_port_irq_epilogue\000"
 1261      745F6972 
 1261      715F6570 
 1261      696C6F67 
 1261      756500
 1262              	.LASF2:
 1263 026e 756E7369 		.ascii	"unsigned char\000"
 1263      676E6564 
 1263      20636861 
 1263      7200
 1264              	.LASF50:
 1265 027c 52455345 		.ascii	"RESERVED10\000"
 1265      52564544 
 1265      313000
 1266              	.LASF56:
 1267 0287 52455345 		.ascii	"RESERVED11\000"
 1267      52564544 
 1267      313100
 1268              	.LASF57:
ARM GAS  /var/folders/7z/kps_xzfj7sn5l5gkyq8s9db00000gn/T//ccfEGhva.s 			page 25


 1269 0292 52455345 		.ascii	"RESERVED12\000"
 1269      52564544 
 1269      313200
 1270              	.LASF59:
 1271 029d 52455345 		.ascii	"RESERVED13\000"
 1271      52564544 
 1271      313300
 1272              	.LASF60:
 1273 02a8 52455345 		.ascii	"RESERVED14\000"
 1273      52564544 
 1273      313400
 1274              	.LASF1:
 1275 02b3 7369676E 		.ascii	"signed char\000"
 1275      65642063 
 1275      68617200 
 1276              	.LASF78:
 1277 02bf 45585449 		.ascii	"EXTI_ClearITPendingBit\000"
 1277      5F436C65 
 1277      61724954 
 1277      50656E64 
 1277      696E6742 
 1278              	.LASF11:
 1279 02d6 6C6F6E67 		.ascii	"long long unsigned int\000"
 1279      206C6F6E 
 1279      6720756E 
 1279      7369676E 
 1279      65642069 
 1280              	.LASF14:
 1281 02ed 75696E74 		.ascii	"uint32_t\000"
 1281      33325F74 
 1281      00
 1282              	.LASF0:
 1283 02f6 756E7369 		.ascii	"unsigned int\000"
 1283      676E6564 
 1283      20696E74 
 1283      00
 1284              	.LASF12:
 1285 0303 75696E74 		.ascii	"uint16_t\000"
 1285      31365F74 
 1285      00
 1286              	.LASF39:
 1287 030c 44494552 		.ascii	"DIER\000"
 1287      00
 1288              	.LASF4:
 1289 0311 73686F72 		.ascii	"short unsigned int\000"
 1289      7420756E 
 1289      7369676E 
 1289      65642069 
 1289      6E7400
 1290              	.LASF7:
 1291 0324 6C6F6E67 		.ascii	"long int\000"
 1291      20696E74 
 1291      00
 1292              	.LASF55:
 1293 032d 42445452 		.ascii	"BDTR\000"
 1293      00
 1294              	.LASF13:
ARM GAS  /var/folders/7z/kps_xzfj7sn5l5gkyq8s9db00000gn/T//ccfEGhva.s 			page 26


 1295 0332 696E7433 		.ascii	"int32_t\000"
 1295      325F7400 
 1296              	.LASF15:
 1297 033a 5F426F6F 		.ascii	"_Bool\000"
 1297      6C00
 1298              	.LASF35:
 1299 0340 52455345 		.ascii	"RESERVED0\000"
 1299      52564544 
 1299      3000
 1300              	.LASF36:
 1301 034a 52455345 		.ascii	"RESERVED1\000"
 1301      52564544 
 1301      3100
 1302              	.LASF38:
 1303 0354 52455345 		.ascii	"RESERVED2\000"
 1303      52564544 
 1303      3200
 1304              	.LASF40:
 1305 035e 52455345 		.ascii	"RESERVED3\000"
 1305      52564544 
 1305      3300
 1306              	.LASF41:
 1307 0368 52455345 		.ascii	"RESERVED4\000"
 1307      52564544 
 1307      3400
 1308              	.LASF42:
 1309 0372 52455345 		.ascii	"RESERVED5\000"
 1309      52564544 
 1309      3500
 1310              	.LASF9:
 1311 037c 6C6F6E67 		.ascii	"long unsigned int\000"
 1311      20756E73 
 1311      69676E65 
 1311      6420696E 
 1311      7400
 1312              	.LASF46:
 1313 038e 52455345 		.ascii	"RESERVED7\000"
 1313      52564544 
 1313      3700
 1314              	.LASF48:
 1315 0398 52455345 		.ascii	"RESERVED8\000"
 1315      52564544 
 1315      3800
 1316              	.LASF62:
 1317 03a2 646F7562 		.ascii	"double\000"
 1317      6C6500
 1318              	.LASF66:
 1319 03a9 56656374 		.ascii	"Vector88\000"
 1319      6F723838 
 1319      00
 1320              	.LASF68:
 1321 03b2 73657276 		.ascii	"servo_irq\000"
 1321      6F5F6972 
 1321      7100
 1322              	.LASF76:
 1323 03bc 49544D5F 		.ascii	"ITM_RxBuffer\000"
 1323      52784275 
ARM GAS  /var/folders/7z/kps_xzfj7sn5l5gkyq8s9db00000gn/T//ccfEGhva.s 			page 27


 1323      66666572 
 1323      00
 1324              	.LASF49:
 1325 03c9 52455345 		.ascii	"RESERVED9\000"
 1325      52564544 
 1325      3900
 1326              	.LASF75:
 1327 03d3 2F557365 		.ascii	"/Users/Baram/oroca_bldc_dev/oroca_bldc/\000"
 1327      72732F42 
 1327      6172616D 
 1327      2F6F726F 
 1327      63615F62 
 1328              	.LASF6:
 1329 03fb 5F5F696E 		.ascii	"__int32_t\000"
 1329      7433325F 
 1329      7400
 1330              	.LASF18:
 1331 0405 52455345 		.ascii	"RESET\000"
 1331      5400
 1332              	.LASF74:
 1333 040b 7372632F 		.ascii	"src/core/irq_handlers.c\000"
 1333      636F7265 
 1333      2F697271 
 1333      5F68616E 
 1333      646C6572 
 1334              	.LASF26:
 1335 0423 53515231 		.ascii	"SQR1\000"
 1335      00
 1336              	.LASF27:
 1337 0428 53515232 		.ascii	"SQR2\000"
 1337      00
 1338              	.LASF28:
 1339 042d 53515233 		.ascii	"SQR3\000"
 1339      00
 1340              	.LASF34:
 1341 0432 4144435F 		.ascii	"ADC_TypeDef\000"
 1341      54797065 
 1341      44656600 
 1342              	.LASF20:
 1343 043e 534D5052 		.ascii	"SMPR1\000"
 1343      3100
 1344              	.LASF21:
 1345 0444 534D5052 		.ascii	"SMPR2\000"
 1345      3200
 1346              		.ident	"GCC: (GNU Tools for ARM Embedded Processors) 4.9.3 20150303 (release) [ARM/embedded-4_9-br
ARM GAS  /var/folders/7z/kps_xzfj7sn5l5gkyq8s9db00000gn/T//ccfEGhva.s 			page 28


DEFINED SYMBOLS
                            *ABS*:0000000000000000 irq_handlers.c
/var/folders/7z/kps_xzfj7sn5l5gkyq8s9db00000gn/T//ccfEGhva.s:21     .text.Vector11C:0000000000000000 $t
/var/folders/7z/kps_xzfj7sn5l5gkyq8s9db00000gn/T//ccfEGhva.s:27     .text.Vector11C:0000000000000000 Vector11C
/var/folders/7z/kps_xzfj7sn5l5gkyq8s9db00000gn/T//ccfEGhva.s:57     .text.Vector11C:0000000000000018 $d
/var/folders/7z/kps_xzfj7sn5l5gkyq8s9db00000gn/T//ccfEGhva.s:62     .text.Vector88:0000000000000000 $t
/var/folders/7z/kps_xzfj7sn5l5gkyq8s9db00000gn/T//ccfEGhva.s:68     .text.Vector88:0000000000000000 Vector88
/var/folders/7z/kps_xzfj7sn5l5gkyq8s9db00000gn/T//ccfEGhva.s:97     .text.Vector88:0000000000000018 $d
/var/folders/7z/kps_xzfj7sn5l5gkyq8s9db00000gn/T//ccfEGhva.s:102    .text.VectorE0:0000000000000000 $t
/var/folders/7z/kps_xzfj7sn5l5gkyq8s9db00000gn/T//ccfEGhva.s:108    .text.VectorE0:0000000000000000 VectorE0
/var/folders/7z/kps_xzfj7sn5l5gkyq8s9db00000gn/T//ccfEGhva.s:142    .text.VectorE0:0000000000000020 $d
                     .debug_frame:0000000000000010 $d
/var/folders/7z/kps_xzfj7sn5l5gkyq8s9db00000gn/T//ccfEGhva.s:61     .text.Vector11C:000000000000001c $t
/var/folders/7z/kps_xzfj7sn5l5gkyq8s9db00000gn/T//ccfEGhva.s:101    .text.Vector88:000000000000001c $t
/var/folders/7z/kps_xzfj7sn5l5gkyq8s9db00000gn/T//ccfEGhva.s:146    .text.VectorE0:0000000000000024 $t

UNDEFINED SYMBOLS
TIM_ClearITPendingBit
servo_irq
_port_irq_epilogue
ADC_ClearITPendingBit
mcpwm_adc_inj_int_handler
EXTI_GetITStatus
EXTI_ClearITPendingBit
