ARM GAS  /var/folders/7z/kps_xzfj7sn5l5gkyq8s9db00000gn/T//ccvBF34a.s 			page 1


   1              		.syntax unified
   2              		.cpu cortex-m4
   3              		.eabi_attribute 27, 1
   4              		.eabi_attribute 28, 1
   5              		.fpu fpv4-sp-d16
   6              		.eabi_attribute 20, 1
   7              		.eabi_attribute 21, 1
   8              		.eabi_attribute 23, 3
   9              		.eabi_attribute 24, 1
  10              		.eabi_attribute 25, 1
  11              		.eabi_attribute 26, 1
  12              		.eabi_attribute 30, 2
  13              		.eabi_attribute 34, 1
  14              		.eabi_attribute 18, 4
  15              		.thumb
  16              		.file	"mcpwm.c"
  17              		.text
  18              	.Ltext0:
  19              		.cfi_sections	.debug_frame
  20              		.section	.text.SEQUENCE_thread,"ax",%progbits
  21              		.align	2
  22              		.p2align 4,,15
  23              		.thumb
  24              		.thumb_func
  25              		.type	SEQUENCE_thread, %function
  26              	SEQUENCE_thread:
  27              	.LFB124:
  28              		.file 1 "src/bldc/mcpwm.c"
  29              		.loc 1 780 0
  30              		.cfi_startproc
  31              		@ args = 0, pretend = 0, frame = 0
  32              		@ frame_needed = 0, uses_anonymous_args = 0
  33              	.LVL0:
  34 0000 08B5     		push	{r3, lr}
  35              		.cfi_def_cfa_offset 8
  36              		.cfi_offset 3, -8
  37              		.cfi_offset 14, -4
  38              		.loc 1 783 0
  39 0002 044B     		ldr	r3, .L3
  40 0004 044A     		ldr	r2, .L3+4
  41 0006 9B69     		ldr	r3, [r3, #24]
  42              		.loc 1 923 0
  43 0008 0A20     		movs	r0, #10
  44              	.LVL1:
  45              		.loc 1 783 0
  46 000a 9A61     		str	r2, [r3, #24]
  47              		.loc 1 923 0
  48 000c FFF7FEFF 		bl	chThdSleep
  49              	.LVL2:
  50              		.loc 1 926 0
  51 0010 0020     		movs	r0, #0
  52 0012 08BD     		pop	{r3, pc}
  53              	.L4:
  54              		.align	2
  55              	.L3:
  56 0014 00000000 		.word	rlist
  57 0018 00000000 		.word	.LC0
ARM GAS  /var/folders/7z/kps_xzfj7sn5l5gkyq8s9db00000gn/T//ccvBF34a.s 			page 2


  58              		.cfi_endproc
  59              	.LFE124:
  60              		.size	SEQUENCE_thread, .-SEQUENCE_thread
  61 001c AFF30080 		.section	.text.mcpwm_adc_int_handler,"ax",%progbits
  62              		.align	2
  63              		.p2align 4,,15
  64              		.global	mcpwm_adc_int_handler
  65              		.thumb
  66              		.thumb_func
  67              		.type	mcpwm_adc_int_handler, %function
  68              	mcpwm_adc_int_handler:
  69              	.LFB123:
  70              		.loc 1 715 0
  71              		.cfi_startproc
  72              		@ args = 0, pretend = 0, frame = 0
  73              		@ frame_needed = 0, uses_anonymous_args = 0
  74              		@ link register save eliminated.
  75              	.LVL3:
  76              		.loc 1 720 0
  77 0000 044B     		ldr	r3, .L6
  78              		.loc 1 719 0
  79 0002 0549     		ldr	r1, .L6+4
  80              	.LVL4:
  81 0004 0020     		movs	r0, #0
  82              	.LVL5:
  83              		.loc 1 720 0
  84 0006 4022     		movs	r2, #64
  85              		.loc 1 719 0
  86 0008 4862     		str	r0, [r1, #36]
  87              		.loc 1 720 0
  88 000a 1A83     		strh	r2, [r3, #24]	@ movhi
  89              		.loc 1 725 0
  90 000c 6420     		movs	r0, #100
  91              		.loc 1 721 0
  92 000e 5A83     		strh	r2, [r3, #26]	@ movhi
  93              		.loc 1 725 0
  94 0010 FFF7FEBF 		b	WWDG_SetCounter
  95              	.LVL6:
  96              	.L7:
  97              		.align	2
  98              	.L6:
  99 0014 00040240 		.word	1073873920
 100 0018 00180040 		.word	1073747968
 101              		.cfi_endproc
 102              	.LFE123:
 103              		.size	mcpwm_adc_int_handler, .-mcpwm_adc_int_handler
 104 001c AFF30080 		.section	.text.fputc,"ax",%progbits
 105              		.align	2
 106              		.p2align 4,,15
 107              		.global	fputc
 108              		.thumb
 109              		.thumb_func
 110              		.type	fputc, %function
 111              	fputc:
 112              	.LFB121:
 113              		.loc 1 598 0
 114              		.cfi_startproc
ARM GAS  /var/folders/7z/kps_xzfj7sn5l5gkyq8s9db00000gn/T//ccvBF34a.s 			page 3


 115              		@ args = 0, pretend = 0, frame = 0
 116              		@ frame_needed = 0, uses_anonymous_args = 0
 117              		@ link register save eliminated.
 118              	.LVL7:
 119              	.LBB22:
 120              	.LBB23:
 121              		.file 2 "lib/ChibiOS_2.6.6/os/ports/common/ARMCMx/CMSIS/include/core_cm4.h"
 122              		.loc 2 1704 0
 123 0000 4FF06042 		mov	r2, #-536870912
 124              	.LVL8:
 125 0004 D2F8803E 		ldr	r3, [r2, #3712]
 126 0008 D907     		lsls	r1, r3, #31
 127              	.LVL9:
 128 000a 0AD5     		bpl	.L9
 129              		.loc 2 1705 0
 130 000c D2F8003E 		ldr	r3, [r2, #3584]
 131              		.loc 2 1704 0
 132 0010 DB07     		lsls	r3, r3, #31
 133 0012 06D5     		bpl	.L9
 134              	.L16:
 135              		.loc 2 1707 0
 136 0014 1368     		ldr	r3, [r2]
 137 0016 4FF06041 		mov	r1, #-536870912
 138 001a 002B     		cmp	r3, #0
 139 001c FAD0     		beq	.L16
 140              		.loc 2 1708 0
 141 001e C3B2     		uxtb	r3, r0
 142 0020 0B70     		strb	r3, [r1]
 143              	.L9:
 144              	.LBE23:
 145              	.LBE22:
 146              		.loc 1 600 0
 147 0022 7047     		bx	lr
 148              		.cfi_endproc
 149              	.LFE121:
 150              		.size	fputc, .-fputc
 151 0024 AFF30080 		.section	.text.SetupParm,"ax",%progbits
 151      AFF30080 
 151      AFF30080 
 152              		.align	2
 153              		.p2align 4,,15
 154              		.global	SetupParm
 155              		.thumb
 156              		.thumb_func
 157              		.type	SetupParm, %function
 158              	SetupParm:
 159              	.LFB125:
 160              		.loc 1 932 0
 161              		.cfi_startproc
 162              		@ args = 0, pretend = 0, frame = 0
 163              		@ frame_needed = 0, uses_anonymous_args = 0
 164              		@ link register save eliminated.
 165              		.loc 1 953 0
 166 0000 154A     		ldr	r2, .L23
 167              		.loc 1 946 0
 168 0002 164B     		ldr	r3, .L23+4
 169              		.loc 1 953 0
ARM GAS  /var/folders/7z/kps_xzfj7sn5l5gkyq8s9db00000gn/T//ccvBF34a.s 			page 4


 170 0004 128A     		ldrh	r2, [r2, #16]
 171              		.loc 1 946 0
 172 0006 9FED167A 		flds	s14, .L23+8
 173              		.loc 1 950 0
 174 000a 1649     		ldr	r1, .L23+12
 175              		.loc 1 941 0
 176 000c 1648     		ldr	r0, .L23+16
 177              		.loc 1 953 0
 178 000e 07EE902A 		fmsr	s15, r2	@ int
 179 0012 F8EE677A 		fuitos	s15, s15
 180              		.loc 1 950 0
 181 0016 154A     		ldr	r2, .L23+20
 182              		.loc 1 932 0
 183 0018 F0B4     		push	{r4, r5, r6, r7}
 184              		.cfi_def_cfa_offset 16
 185              		.cfi_offset 4, -16
 186              		.cfi_offset 5, -12
 187              		.cfi_offset 6, -8
 188              		.cfi_offset 7, -4
 189              		.loc 1 953 0
 190 001a 67EE877A 		fmuls	s15, s15, s14
 191              		.loc 1 946 0
 192 001e 83ED007A 		fsts	s14, [r3]
 193              		.loc 1 947 0
 194 0022 83ED027A 		fsts	s14, [r3, #8]
 195              		.loc 1 953 0
 196 0026 9FED127A 		flds	s14, .L23+24
 197              		.loc 1 950 0
 198 002a 0968     		ldr	r1, [r1]
 199 002c 1268     		ldr	r2, [r2]
 200              		.loc 1 953 0
 201 002e 114E     		ldr	r6, .L23+28
 202              		.loc 1 957 0
 203 0030 114D     		ldr	r5, .L23+32
 204              		.loc 1 941 0
 205 0032 124F     		ldr	r7, .L23+36
 206 0034 4760     		str	r7, [r0, #4]
 207              		.loc 1 953 0
 208 0036 67EE877A 		fmuls	s15, s15, s14
 209              		.loc 1 950 0
 210 003a 89B2     		uxth	r1, r1
 211 003c 92B2     		uxth	r2, r2
 212              	.LVL10:
 213              	.LBB24:
 214              	.LBB25:
 215              		.loc 1 1378 0
 216 003e 9980     		strh	r1, [r3, #4]	@ movhi
 217              	.LBE25:
 218              	.LBE24:
 219              		.loc 1 957 0
 220 0040 0F4C     		ldr	r4, .L23+40
 221              	.LBB27:
 222              	.LBB26:
 223              		.loc 1 1379 0
 224 0042 9A81     		strh	r2, [r3, #12]	@ movhi
 225              	.LBE26:
 226              	.LBE27:
ARM GAS  /var/folders/7z/kps_xzfj7sn5l5gkyq8s9db00000gn/T//ccvBF34a.s 			page 5


 227              		.loc 1 953 0
 228 0044 C6ED007A 		fsts	s15, [r6]
 229              		.loc 1 942 0
 230 0048 40F69F77 		movw	r7, #3999
 231              		.loc 1 957 0
 232 004c EB6A     		ldr	r3, [r5, #44]
 233              		.loc 1 942 0
 234 004e 0760     		str	r7, [r0]
 235              		.loc 1 957 0
 236 0050 2360     		str	r3, [r4]
 237              		.loc 1 961 0
 238 0052 0020     		movs	r0, #0
 239 0054 F0BC     		pop	{r4, r5, r6, r7}
 240              		.cfi_restore 7
 241              		.cfi_restore 6
 242              		.cfi_restore 5
 243              		.cfi_restore 4
 244              		.cfi_def_cfa_offset 0
 245 0056 7047     		bx	lr
 246              	.L24:
 247              		.align	2
 248              	.L23:
 249 0058 00000000 		.word	.LANCHOR4
 250 005c 00000000 		.word	.LANCHOR1
 251 0060 6740533A 		.word	978534503
 252 0064 00000000 		.word	.LANCHOR2
 253 0068 00000000 		.word	.LANCHOR0
 254 006c 00000000 		.word	.LANCHOR3
 255 0070 74D19541 		.word	1100337524
 256 0074 00000000 		.word	.LANCHOR5
 257 0078 00000140 		.word	1073807360
 258 007c 26310800 		.word	536870
 259 0080 00000000 		.word	.LANCHOR6
 260              		.cfi_endproc
 261              	.LFE125:
 262              		.size	SetupParm, .-SetupParm
 263 0084 AFF30080 		.section	.text.ClarkePark,"ax",%progbits
 263      AFF30080 
 263      AFF30080 
 264              		.align	2
 265              		.p2align 4,,15
 266              		.global	ClarkePark
 267              		.thumb
 268              		.thumb_func
 269              		.type	ClarkePark, %function
 270              	ClarkePark:
 271              	.LFB127:
 272              		.loc 1 1015 0
 273              		.cfi_startproc
 274              		@ args = 0, pretend = 0, frame = 0
 275              		@ frame_needed = 0, uses_anonymous_args = 0
 276 0000 10B5     		push	{r4, lr}
 277              		.cfi_def_cfa_offset 8
 278              		.cfi_offset 4, -8
 279              		.cfi_offset 14, -4
 280              		.loc 1 1016 0
 281 0002 174C     		ldr	r4, .L27
ARM GAS  /var/folders/7z/kps_xzfj7sn5l5gkyq8s9db00000gn/T//ccvBF34a.s 			page 6


 282              		.loc 1 1017 0
 283 0004 DFED177A 		flds	s15, .L27+4
 284              		.loc 1 1015 0
 285 0008 2DED048B 		fstmfdd	sp!, {d8, d9}
 286              		.cfi_def_cfa_offset 24
 287              		.cfi_offset 80, -24
 288              		.cfi_offset 81, -20
 289              		.cfi_offset 82, -16
 290              		.cfi_offset 83, -12
 291              		.loc 1 1017 0
 292 000c 94ED048A 		flds	s16, [r4, #16]
 293              		.loc 1 1016 0
 294 0010 D4ED038A 		flds	s17, [r4, #12]
 295              		.loc 1 1021 0
 296 0014 D4ED009A 		flds	s19, [r4]
 297              		.loc 1 1016 0
 298 0018 C4ED058A 		fsts	s17, [r4, #20]
 299              		.loc 1 1017 0
 300 001c 38EE088A 		fadds	s16, s16, s16
 301              		.loc 1 1021 0
 302 0020 B0EE690A 		fcpys	s0, s19
 303              		.loc 1 1017 0
 304 0024 28EE278A 		fmuls	s16, s16, s15
 305 0028 A8EEA78A 		vfma.f32	s16, s17, s15
 306 002c 84ED068A 		fsts	s16, [r4, #24]
 307              		.loc 1 1021 0
 308 0030 FFF7FEFF 		bl	cosf
 309              	.LVL11:
 310 0034 B0EE409A 		fcpys	s18, s0
 311 0038 B0EE690A 		fcpys	s0, s19
 312 003c FFF7FEFF 		bl	sinf
 313              	.LVL12:
 314              		.loc 1 1022 0
 315 0040 68EE097A 		fmuls	s15, s16, s18
 316              		.loc 1 1021 0
 317 0044 28EE008A 		fmuls	s16, s16, s0
 318              		.loc 1 1022 0
 319 0048 E8EEC07A 		vfms.f32	s15, s17, s0
 320              		.loc 1 1021 0
 321 004c A8EE898A 		vfma.f32	s16, s17, s18
 322              		.loc 1 1022 0
 323 0050 C4ED087A 		fsts	s15, [r4, #32]
 324              		.loc 1 1021 0
 325 0054 84ED078A 		fsts	s16, [r4, #28]
 326              		.loc 1 1025 0
 327 0058 BDEC048B 		fldmfdd	sp!, {d8-d9}
 328              		.cfi_restore 82
 329              		.cfi_restore 83
 330              		.cfi_restore 80
 331              		.cfi_restore 81
 332              		.cfi_def_cfa_offset 8
 333 005c 10BD     		pop	{r4, pc}
 334              	.L28:
 335 005e 00BF     		.align	2
 336              	.L27:
 337 0060 00000000 		.word	.LANCHOR7
 338 0064 3ACD133F 		.word	1058262330
ARM GAS  /var/folders/7z/kps_xzfj7sn5l5gkyq8s9db00000gn/T//ccvBF34a.s 			page 7


 339              		.cfi_endproc
 340              	.LFE127:
 341              		.size	ClarkePark, .-ClarkePark
 342 0068 AFF30080 		.section	.text.InitPI,"ax",%progbits
 342      AFF30080 
 343              		.align	2
 344              		.p2align 4,,15
 345              		.global	InitPI
 346              		.thumb
 347              		.thumb_func
 348              		.type	InitPI, %function
 349              	InitPI:
 350              	.LFB129:
 351              		.loc 1 1253 0
 352              		.cfi_startproc
 353              		@ args = 0, pretend = 0, frame = 0
 354              		@ frame_needed = 0, uses_anonymous_args = 0
 355              		@ link register save eliminated.
 356              	.LVL13:
 357              		.loc 1 1254 0
 358 0000 0023     		movs	r3, #0
 359 0002 0360     		str	r3, [r0]	@ float
 360              		.loc 1 1255 0
 361 0004 0362     		str	r3, [r0, #32]	@ float
 362 0006 7047     		bx	lr
 363              		.cfi_endproc
 364              	.LFE129:
 365              		.size	InitPI, .-InitPI
 366 0008 AFF30080 		.section	.text.CalcPI,"ax",%progbits
 366      AFF30080 
 367              		.align	2
 368              		.p2align 4,,15
 369              		.global	CalcPI
 370              		.thumb
 371              		.thumb_func
 372              		.type	CalcPI, %function
 373              	CalcPI:
 374              	.LFB130:
 375              		.loc 1 1259 0
 376              		.cfi_startproc
 377              		@ args = 0, pretend = 0, frame = 0
 378              		@ frame_needed = 0, uses_anonymous_args = 0
 379              		@ link register save eliminated.
 380              	.LVL14:
 381              		.loc 1 1261 0
 382 0000 90ED067A 		flds	s14, [r0, #24]
 383 0004 90ED076A 		flds	s12, [r0, #28]
 384              		.loc 1 1263 0
 385 0008 D0ED007A 		flds	s15, [r0]
 386 000c D0ED015A 		flds	s11, [r0, #4]
 387              		.loc 1 1265 0
 388 0010 D0ED046A 		flds	s13, [r0, #16]
 389              		.loc 1 1261 0
 390 0014 37EE466A 		fsubs	s12, s14, s12
 391              	.LVL15:
 392              		.loc 1 1263 0
 393 0018 B0EE677A 		fcpys	s14, s15
ARM GAS  /var/folders/7z/kps_xzfj7sn5l5gkyq8s9db00000gn/T//ccvBF34a.s 			page 8


 394 001c A5EE867A 		vfma.f32	s14, s11, s12
 395              	.LVL16:
 396              		.loc 1 1265 0
 397 0020 B4EEE67A 		fcmpes	s14, s13
 398 0024 F1EE10FA 		fmstat
 399 0028 0BDC     		bgt	.L40
 400              		.loc 1 1266 0
 401 002a D0ED056A 		flds	s13, [r0, #20]
 402 002e B4EEE67A 		fcmpes	s14, s13
 403 0032 F1EE10FA 		fmstat
 404 0036 04D4     		bmi	.L40
 405              		.loc 1 1267 0
 406 0038 F0EE476A 		fcpys	s13, s14
 407 003c 80ED087A 		fsts	s14, [r0, #32]
 408 0040 01E0     		b	.L33
 409              	.L40:
 410              		.loc 1 1266 0 discriminator 1
 411 0042 C0ED086A 		fsts	s13, [r0, #32]
 412              	.L33:
 413              	.LVL17:
 414              		.loc 1 1271 0
 415 0046 90ED025A 		flds	s10, [r0, #8]
 416 004a D0ED035A 		flds	s11, [r0, #12]
 417 004e E5EE067A 		vfma.f32	s15, s10, s12
 418              		.loc 1 1269 0
 419 0052 37EE667A 		fsubs	s14, s14, s13
 420              	.LVL18:
 421              		.loc 1 1271 0
 422 0056 E5EEC77A 		vfms.f32	s15, s11, s14
 423 005a C0ED007A 		fsts	s15, [r0]
 424              	.LVL19:
 425 005e 7047     		bx	lr
 426              		.cfi_endproc
 427              	.LFE130:
 428              		.size	CalcPI, .-CalcPI
 429              		.section	.text.SetupControlParameters,"ax",%progbits
 430              		.align	2
 431              		.p2align 4,,15
 432              		.global	SetupControlParameters
 433              		.thumb
 434              		.thumb_func
 435              		.type	SetupControlParameters, %function
 436              	SetupControlParameters:
 437              	.LFB131:
 438              		.loc 1 1276 0
 439              		.cfi_startproc
 440              		@ args = 0, pretend = 0, frame = 0
 441              		@ frame_needed = 0, uses_anonymous_args = 0
 442 0000 2DE9F043 		push	{r4, r5, r6, r7, r8, r9, lr}
 443              		.cfi_def_cfa_offset 28
 444              		.cfi_offset 4, -28
 445              		.cfi_offset 5, -24
 446              		.cfi_offset 6, -20
 447              		.cfi_offset 7, -16
 448              		.cfi_offset 8, -12
 449              		.cfi_offset 9, -8
 450              		.cfi_offset 14, -4
ARM GAS  /var/folders/7z/kps_xzfj7sn5l5gkyq8s9db00000gn/T//ccvBF34a.s 			page 9


 451              		.loc 1 1288 0
 452 0004 1A48     		ldr	r0, .L43
 453              		.loc 1 1279 0
 454 0006 1B4C     		ldr	r4, .L43+4
 455              		.loc 1 1297 0
 456 0008 1B49     		ldr	r1, .L43+8
 457              		.loc 1 1306 0
 458 000a 1C4A     		ldr	r2, .L43+12
 459              		.loc 1 1281 0
 460 000c 1C4D     		ldr	r5, .L43+16
 461              		.loc 1 1280 0
 462 000e 1D4E     		ldr	r6, .L43+20
 463              		.loc 1 1279 0
 464 0010 DFF87890 		ldr	r9, .L43+28
 465              		.loc 1 1283 0
 466 0014 DFF87880 		ldr	r8, .L43+32
 467              		.loc 1 1300 0
 468 0018 DFF878E0 		ldr	lr, .L43+36
 469              		.loc 1 1301 0
 470 001c 1A4F     		ldr	r7, .L43+24
 471              		.loc 1 1279 0
 472 001e C4F80490 		str	r9, [r4, #4]	@ float
 473              	.LBB28:
 474              	.LBB29:
 475              		.loc 1 1254 0
 476 0022 0023     		movs	r3, #0
 477              	.LBE29:
 478              	.LBE28:
 479              		.loc 1 1297 0
 480 0024 4FF0804C 		mov	ip, #1073741824
 481              		.loc 1 1288 0
 482 0028 C0F80490 		str	r9, [r0, #4]	@ float
 483              		.loc 1 1280 0
 484 002c A660     		str	r6, [r4, #8]	@ float
 485              		.loc 1 1289 0
 486 002e 8660     		str	r6, [r0, #8]	@ float
 487              		.loc 1 1281 0
 488 0030 E560     		str	r5, [r4, #12]	@ float
 489              		.loc 1 1282 0
 490 0032 2561     		str	r5, [r4, #16]	@ float
 491              		.loc 1 1290 0
 492 0034 C560     		str	r5, [r0, #12]	@ float
 493              		.loc 1 1291 0
 494 0036 0561     		str	r5, [r0, #16]	@ float
 495              		.loc 1 1283 0
 496 0038 C4F81480 		str	r8, [r4, #20]	@ float
 497              	.LVL20:
 498              		.loc 1 1292 0
 499 003c C0F81480 		str	r8, [r0, #20]	@ float
 500              	.LVL21:
 501              	.LBB31:
 502              	.LBB30:
 503              		.loc 1 1254 0
 504 0040 2360     		str	r3, [r4]	@ float
 505              		.loc 1 1255 0
 506 0042 2362     		str	r3, [r4, #32]	@ float
 507              	.LBE30:
ARM GAS  /var/folders/7z/kps_xzfj7sn5l5gkyq8s9db00000gn/T//ccvBF34a.s 			page 10


 508              	.LBE31:
 509              	.LBB32:
 510              	.LBB33:
 511              		.loc 1 1254 0
 512 0044 0360     		str	r3, [r0]	@ float
 513              		.loc 1 1255 0
 514 0046 0362     		str	r3, [r0, #32]	@ float
 515              	.LBE33:
 516              	.LBE32:
 517              		.loc 1 1298 0
 518 0048 8E60     		str	r6, [r1, #8]	@ float
 519              		.loc 1 1299 0
 520 004a CD60     		str	r5, [r1, #12]	@ float
 521              	.LBB34:
 522              	.LBB35:
 523              		.loc 1 1254 0
 524 004c 0B60     		str	r3, [r1]	@ float
 525              		.loc 1 1255 0
 526 004e 0B62     		str	r3, [r1, #32]	@ float
 527              	.LBE35:
 528              	.LBE34:
 529              		.loc 1 1307 0
 530 0050 9660     		str	r6, [r2, #8]	@ float
 531              		.loc 1 1308 0
 532 0052 D560     		str	r5, [r2, #12]	@ float
 533              	.LBB36:
 534              	.LBB37:
 535              		.loc 1 1254 0
 536 0054 1360     		str	r3, [r2]	@ float
 537              		.loc 1 1255 0
 538 0056 1362     		str	r3, [r2, #32]	@ float
 539              	.LBE37:
 540              	.LBE36:
 541              		.loc 1 1297 0
 542 0058 C1F804C0 		str	ip, [r1, #4]	@ float
 543              		.loc 1 1306 0
 544 005c C2F804C0 		str	ip, [r2, #4]	@ float
 545              		.loc 1 1300 0
 546 0060 C1F810E0 		str	lr, [r1, #16]	@ float
 547              		.loc 1 1309 0
 548 0064 C2F810E0 		str	lr, [r2, #16]	@ float
 549              		.loc 1 1301 0
 550 0068 4F61     		str	r7, [r1, #20]	@ float
 551              	.LVL22:
 552              		.loc 1 1310 0
 553 006a 5761     		str	r7, [r2, #20]	@ float
 554              	.LVL23:
 555 006c BDE8F083 		pop	{r4, r5, r6, r7, r8, r9, pc}
 556              	.L44:
 557              		.align	2
 558              	.L43:
 559 0070 00000000 		.word	.LANCHOR9
 560 0074 00000000 		.word	.LANCHOR8
 561 0078 00000000 		.word	.LANCHOR10
 562 007c 00000000 		.word	.LANCHOR11
 563 0080 58FF7F3F 		.word	1065353048
 564 0084 0AD7233C 		.word	1008981770
ARM GAS  /var/folders/7z/kps_xzfj7sn5l5gkyq8s9db00000gn/T//ccvBF34a.s 			page 11


 565 0088 333373BF 		.word	-1082969293
 566 008c CDCC4C3D 		.word	1028443341
 567 0090 58FF7FBF 		.word	-1082130600
 568 0094 3333733F 		.word	1064514355
 569              		.cfi_endproc
 570              	.LFE131:
 571              		.size	SetupControlParameters, .-SetupControlParameters
 572 0098 AFF30080 		.section	.text.DebounceDelay,"ax",%progbits
 572      AFF30080 
 573              		.align	2
 574              		.p2align 4,,15
 575              		.global	DebounceDelay
 576              		.thumb
 577              		.thumb_func
 578              		.type	DebounceDelay, %function
 579              	DebounceDelay:
 580              	.LFB132:
 581              		.loc 1 1318 0
 582              		.cfi_startproc
 583              		@ args = 0, pretend = 0, frame = 0
 584              		@ frame_needed = 0, uses_anonymous_args = 0
 585              		@ link register save eliminated.
 586              	.LVL24:
 587 0000 7047     		bx	lr
 588              		.cfi_endproc
 589              	.LFE132:
 590              		.size	DebounceDelay, .-DebounceDelay
 591 0002 00BFAFF3 		.section	.text.VoltRippleComp,"ax",%progbits
 591      0080AFF3 
 591      0080AFF3 
 591      0080
 592              		.align	2
 593              		.p2align 4,,15
 594              		.global	VoltRippleComp
 595              		.thumb
 596              		.thumb_func
 597              		.type	VoltRippleComp, %function
 598              	VoltRippleComp:
 599              	.LFB133:
 600              		.loc 1 1333 0
 601              		.cfi_startproc
 602              		@ args = 0, pretend = 0, frame = 0
 603              		@ frame_needed = 0, uses_anonymous_args = 0
 604              		@ link register save eliminated.
 605              	.LVL25:
 606              		.loc 1 1354 0
 607 0000 144A     		ldr	r2, .L55
 608 0002 154B     		ldr	r3, .L55+4
 609 0004 92ED007A 		flds	s14, [r2]
 610 0008 D3ED007A 		flds	s15, [r3]
 611 000c B4EEE77A 		fcmpes	s14, s15
 612 0010 F1EE10FA 		fmstat
 613 0014 11DC     		bgt	.L54
 614              		.loc 1 1356 0
 615 0016 93ED007A 		flds	s14, [r3]
 616 001a D2ED007A 		flds	s15, [r2]
 617 001e B4EEE77A 		fcmpes	s14, s15
ARM GAS  /var/folders/7z/kps_xzfj7sn5l5gkyq8s9db00000gn/T//ccvBF34a.s 			page 12


 618 0022 F1EE10FA 		fmstat
 619 0026 07DD     		ble	.L49
 620              	.LVL26:
 621              	.LBB40:
 622              	.LBB41:
 623              		.loc 1 1357 0
 624 0028 D2ED007A 		flds	s15, [r2]
 625 002c 93ED007A 		flds	s14, [r3]
 626 0030 C7EE877A 		fdivs	s15, s15, s14
 627 0034 20EE270A 		fmuls	s0, s0, s15
 628              	.LVL27:
 629              	.L49:
 630              	.LBE41:
 631              	.LBE40:
 632              		.loc 1 1362 0
 633 0038 7047     		bx	lr
 634              	.LVL28:
 635              	.L54:
 636              		.loc 1 1355 0
 637 003a 92ED007A 		flds	s14, [r2]
 638 003e D3ED007A 		flds	s15, [r3]
 639 0042 D3ED006A 		flds	s13, [r3]
 640 0046 77EE677A 		fsubs	s15, s14, s15
 641 004a C7EEA67A 		fdivs	s15, s15, s13
 642 004e A7EE800A 		vfma.f32	s0, s15, s0
 643              	.LVL29:
 644 0052 7047     		bx	lr
 645              	.L56:
 646              		.align	2
 647              	.L55:
 648 0054 00000000 		.word	.LANCHOR5
 649 0058 00000000 		.word	.LANCHOR12
 650              		.cfi_endproc
 651              	.LFE133:
 652              		.size	VoltRippleComp, .-VoltRippleComp
 653 005c AFF30080 		.section	.text.DoControl,"ax",%progbits
 654              		.align	2
 655              		.p2align 4,,15
 656              		.global	DoControl
 657              		.thumb
 658              		.thumb_func
 659              		.type	DoControl, %function
 660              	DoControl:
 661              	.LFB128:
 662              		.loc 1 1030 0
 663              		.cfi_startproc
 664              		@ args = 0, pretend = 0, frame = 0
 665              		@ frame_needed = 0, uses_anonymous_args = 0
 666 0000 2DE9F041 		push	{r4, r5, r6, r7, r8, lr}
 667              		.cfi_def_cfa_offset 24
 668              		.cfi_offset 4, -24
 669              		.cfi_offset 5, -20
 670              		.cfi_offset 6, -16
 671              		.cfi_offset 7, -12
 672              		.cfi_offset 8, -8
 673              		.cfi_offset 14, -4
 674              		.loc 1 1032 0
ARM GAS  /var/folders/7z/kps_xzfj7sn5l5gkyq8s9db00000gn/T//ccvBF34a.s 			page 13


 675 0004 7F4E     		ldr	r6, .L92
 676 0006 3378     		ldrb	r3, [r6]	@ zero_extendqisi2
 677 0008 13F00102 		ands	r2, r3, #1
 678 000c 3ED0     		beq	.L58
 679              		.loc 1 1040 0
 680 000e 9C06     		lsls	r4, r3, #26
 681 0010 00F1B580 		bmi	.L59
 682 0014 7C4C     		ldr	r4, .L92+4
 683 0016 6068     		ldr	r0, [r4, #4]	@ float
 684              	.L60:
 685              		.loc 1 1094 0
 686 0018 7C4B     		ldr	r3, .L92+8
 687              		.loc 1 1092 0
 688 001a 7D4A     		ldr	r2, .L92+12
 689              		.loc 1 1094 0
 690 001c 1B88     		ldrh	r3, [r3]
 691              		.loc 1 1092 0
 692 001e A260     		str	r2, [r4, #8]	@ float
 693              		.loc 1 1094 0
 694 0020 1BB9     		cbnz	r3, .L61
 695              		.loc 1 1096 0
 696 0022 7C4A     		ldr	r2, .L92+16
 697 0024 7C4B     		ldr	r3, .L92+20
 698 0026 D26D     		ldr	r2, [r2, #92]	@ float
 699 0028 DA61     		str	r2, [r3, #28]	@ float
 700              	.L61:
 701              		.loc 1 1100 0
 702 002a 7C4E     		ldr	r6, .L92+24
 703 002c 7C4D     		ldr	r5, .L92+28
 704              		.loc 1 1101 0
 705 002e B061     		str	r0, [r6, #24]	@ float
 706              		.loc 1 1100 0
 707 0030 EB69     		ldr	r3, [r5, #28]	@ float
 708 0032 F361     		str	r3, [r6, #28]	@ float
 709              		.loc 1 1102 0
 710 0034 3046     		mov	r0, r6
 711 0036 FFF7FEFF 		bl	CalcPI
 712              	.LVL30:
 713              		.loc 1 1103 0
 714 003a D6ED087A 		flds	s15, [r6, #32]
 715              		.loc 1 1112 0
 716 003e 794B     		ldr	r3, .L92+32
 717              		.loc 1 1103 0
 718 0040 C5ED097A 		fsts	s15, [r5, #36]
 719              		.loc 1 1112 0
 720 0044 67EEA77A 		fmuls	s15, s15, s15
 721              		.loc 1 1113 0
 722 0048 9FED777A 		flds	s14, .L92+36
 723              		.loc 1 1112 0
 724 004c C3ED007A 		fsts	s15, [r3]
 725              		.loc 1 1113 0
 726 0050 93ED000A 		flds	s0, [r3]
 727 0054 37EE400A 		fsubs	s0, s14, s0
 728 0058 F1EEC07A 		fsqrts	s15, s0
 729 005c F4EE677A 		fcmps	s15, s15
 730 0060 F1EE10FA 		fmstat
 731 0064 40F0C480 		bne	.L86
ARM GAS  /var/folders/7z/kps_xzfj7sn5l5gkyq8s9db00000gn/T//ccvBF34a.s 			page 14


 732              	.L62:
 733 0068 704E     		ldr	r6, .L92+40
 734              		.loc 1 1117 0
 735 006a 2B6A     		ldr	r3, [r5, #32]	@ float
 736              		.loc 1 1118 0
 737 006c A268     		ldr	r2, [r4, #8]	@ float
 738              		.loc 1 1117 0
 739 006e F361     		str	r3, [r6, #28]	@ float
 740              		.loc 1 1114 0
 741 0070 B1EE677A 		fnegs	s14, s15
 742              		.loc 1 1119 0
 743 0074 3046     		mov	r0, r6
 744              		.loc 1 1118 0
 745 0076 B261     		str	r2, [r6, #24]	@ float
 746              		.loc 1 1113 0
 747 0078 C6ED047A 		fsts	s15, [r6, #16]
 748              		.loc 1 1114 0
 749 007c 86ED057A 		fsts	s14, [r6, #20]
 750              		.loc 1 1119 0
 751 0080 FFF7FEFF 		bl	CalcPI
 752              	.LVL31:
 753              		.loc 1 1120 0
 754 0084 336A     		ldr	r3, [r6, #32]	@ float
 755 0086 AB62     		str	r3, [r5, #40]	@ float
 756 0088 BDE8F081 		pop	{r4, r5, r6, r7, r8, pc}
 757              	.L58:
 758              		.loc 1 1148 0
 759 008c 9806     		lsls	r0, r3, #26
 760              		.loc 1 1162 0
 761 008e 5E4C     		ldr	r4, .L92+4
 762              		.loc 1 1148 0
 763 0090 0DD5     		bpl	.L64
 764              		.loc 1 1162 0
 765 0092 614D     		ldr	r5, .L92+20
 766              		.loc 1 1163 0
 767 0094 6648     		ldr	r0, .L92+44
 768              		.loc 1 1164 0
 769 0096 6749     		ldr	r1, .L92+48
 770              		.loc 1 1166 0
 771 0098 DFF8A4E1 		ldr	lr, .L92+60
 772              		.loc 1 1162 0
 773 009c A768     		ldr	r7, [r4, #8]	@ float
 774              		.loc 1 1166 0
 775 009e C4F800E0 		str	lr, [r4]	@ float
 776              		.loc 1 1151 0
 777 00a2 62F34513 		bfi	r3, r2, #5, #1
 778 00a6 3370     		strb	r3, [r6]
 779              		.loc 1 1162 0
 780 00a8 2F60     		str	r7, [r5]	@ float
 781              		.loc 1 1163 0
 782 00aa 0260     		str	r2, [r0]
 783              		.loc 1 1164 0
 784 00ac 0A60     		str	r2, [r1]
 785              	.L64:
 786              		.loc 1 1176 0
 787 00ae 574B     		ldr	r3, .L92+8
 788              		.loc 1 1179 0
ARM GAS  /var/folders/7z/kps_xzfj7sn5l5gkyq8s9db00000gn/T//ccvBF34a.s 			page 15


 789 00b0 DFF86081 		ldr	r8, .L92+16
 790              		.loc 1 1176 0
 791 00b4 1B88     		ldrh	r3, [r3]
 792 00b6 002B     		cmp	r3, #0
 793 00b8 00F08280 		beq	.L87
 794              	.L65:
 795              		.loc 1 1193 0
 796 00bc 3378     		ldrb	r3, [r6]	@ zero_extendqisi2
 797              		.loc 1 1194 0
 798 00be D4ED007A 		flds	s15, [r4]
 799              		.loc 1 1193 0
 800 00c2 5907     		lsls	r1, r3, #29
 801              	.LBB42:
 802              	.LBB43:
 803              		.loc 1 1888 0
 804 00c4 5C4B     		ldr	r3, .L92+52
 805              	.LBE43:
 806              	.LBE42:
 807              		.loc 1 1194 0
 808 00c6 48BF     		it	mi
 809 00c8 C4ED027A 		fstsmi	s15, [r4, #8]
 810              	.LBB47:
 811              	.LBB44:
 812              		.loc 1 1888 0
 813 00cc 93ED027A 		flds	s14, [r3, #8]
 814              	.LBE44:
 815              	.LBE47:
 816              		.loc 1 1200 0
 817 00d0 F0EEE77A 		fabss	s15, s15
 818              	.LVL32:
 819              	.LBB48:
 820              	.LBB45:
 821              		.loc 1 1888 0
 822 00d4 F4EEC77A 		fcmpes	s15, s14
 823 00d8 F1EE10FA 		fmstat
 824 00dc 4CD9     		bls	.L88
 825              		.loc 1 1899 0
 826 00de 77EEC77A 		fsubs	s15, s15, s14
 827              	.LVL33:
 828 00e2 5A68     		ldr	r2, [r3, #4]	@ float
 829 00e4 C3ED057A 		fsts	s15, [r3, #20]
 830              		.loc 1 1900 0
 831 00e8 FDEEE77A 		ftosizs	s15, s15
 832 00ec C3ED047A 		fsts	s15, [r3, #16]	@ int
 833              	.L70:
 834              	.LBE45:
 835              	.LBE48:
 836              		.loc 1 1203 0
 837 00f0 4A4F     		ldr	r7, .L92+24
 838 00f2 4B4D     		ldr	r5, .L92+28
 839              		.loc 1 1200 0
 840 00f4 6260     		str	r2, [r4, #4]	@ float
 841              		.loc 1 1204 0
 842 00f6 0023     		movs	r3, #0
 843              		.loc 1 1203 0
 844 00f8 E969     		ldr	r1, [r5, #28]	@ float
 845              		.loc 1 1204 0
ARM GAS  /var/folders/7z/kps_xzfj7sn5l5gkyq8s9db00000gn/T//ccvBF34a.s 			page 16


 846 00fa BB61     		str	r3, [r7, #24]	@ float
 847              		.loc 1 1205 0
 848 00fc 3846     		mov	r0, r7
 849              		.loc 1 1203 0
 850 00fe F961     		str	r1, [r7, #28]	@ float
 851              		.loc 1 1205 0
 852 0100 FFF7FEFF 		bl	CalcPI
 853              	.LVL34:
 854              		.loc 1 1219 0
 855 0104 3378     		ldrb	r3, [r6]	@ zero_extendqisi2
 856              		.loc 1 1220 0
 857 0106 97ED080A 		flds	s0, [r7, #32]
 858              		.loc 1 1219 0
 859 010a 1A07     		lsls	r2, r3, #28
 860 010c 6BD4     		bmi	.L89
 861              		.loc 1 1222 0
 862 010e 85ED090A 		fsts	s0, [r5, #36]
 863              	.L72:
 864              		.loc 1 1229 0
 865 0112 20EE000A 		fmuls	s0, s0, s0
 866 0116 434B     		ldr	r3, .L92+32
 867              		.loc 1 1230 0
 868 0118 DFED437A 		flds	s15, .L92+36
 869              		.loc 1 1229 0
 870 011c 83ED000A 		fsts	s0, [r3]
 871              		.loc 1 1230 0
 872 0120 93ED000A 		flds	s0, [r3]
 873 0124 37EEC00A 		fsubs	s0, s15, s0
 874 0128 F1EEC07A 		fsqrts	s15, s0
 875 012c F4EE677A 		fcmps	s15, s15
 876 0130 F1EE10FA 		fmstat
 877 0134 61D1     		bne	.L90
 878              	.L73:
 879 0136 3D4F     		ldr	r7, .L92+40
 880              		.loc 1 1235 0
 881 0138 A368     		ldr	r3, [r4, #8]	@ float
 882              		.loc 1 1234 0
 883 013a 2A6A     		ldr	r2, [r5, #32]	@ float
 884              		.loc 1 1235 0
 885 013c BB61     		str	r3, [r7, #24]	@ float
 886              		.loc 1 1231 0
 887 013e B1EE677A 		fnegs	s14, s15
 888              		.loc 1 1236 0
 889 0142 3846     		mov	r0, r7
 890              		.loc 1 1234 0
 891 0144 FA61     		str	r2, [r7, #28]	@ float
 892              		.loc 1 1230 0
 893 0146 C7ED047A 		fsts	s15, [r7, #16]
 894              		.loc 1 1231 0
 895 014a 87ED057A 		fsts	s14, [r7, #20]
 896              		.loc 1 1236 0
 897 014e FFF7FEFF 		bl	CalcPI
 898              	.LVL35:
 899              		.loc 1 1240 0
 900 0152 3378     		ldrb	r3, [r6]	@ zero_extendqisi2
 901              		.loc 1 1234 0
 902 0154 324C     		ldr	r4, .L92+28
ARM GAS  /var/folders/7z/kps_xzfj7sn5l5gkyq8s9db00000gn/T//ccvBF34a.s 			page 17


 903              		.loc 1 1240 0
 904 0156 1B07     		lsls	r3, r3, #28
 905 0158 3ED4     		bmi	.L91
 906              		.loc 1 1243 0
 907 015a 3B6A     		ldr	r3, [r7, #32]	@ float
 908 015c A362     		str	r3, [r4, #40]	@ float
 909              	.L75:
 910              		.loc 1 1246 0
 911 015e D8ED187A 		flds	s15, [r8, #96]
 912 0162 F5EEC07A 		fcmpezs	s15
 913 0166 F1EE10FA 		fmstat
 914 016a 03D5     		bpl	.L57
 915              		.loc 1 1248 0
 916 016c 3378     		ldrb	r3, [r6]	@ zero_extendqisi2
 917 016e 6FF34103 		bfc	r3, #1, #1
 918 0172 3370     		strb	r3, [r6]
 919              	.L57:
 920 0174 BDE8F081 		pop	{r4, r5, r6, r7, r8, pc}
 921              	.LVL36:
 922              	.L88:
 923              	.LBB49:
 924              	.LBB46:
 925              		.loc 1 1891 0
 926 0178 DA69     		ldr	r2, [r3, #28]	@ float
 927 017a 5A60     		str	r2, [r3, #4]	@ float
 928 017c B8E7     		b	.L70
 929              	.LVL37:
 930              	.L59:
 931              	.LBE46:
 932              	.LBE49:
 933              		.loc 1 1053 0
 934 017e 2549     		ldr	r1, .L92+16
 935              		.loc 1 1048 0
 936 0180 214C     		ldr	r4, .L92+4
 937              		.loc 1 1050 0
 938 0182 DFF8ACE0 		ldr	lr, .L92+44
 939              		.loc 1 1051 0
 940 0186 2B4F     		ldr	r7, .L92+48
 941              		.loc 1 1048 0
 942 0188 0022     		movs	r2, #0
 943              		.loc 1 1050 0
 944 018a 0025     		movs	r5, #0
 945              		.loc 1 1043 0
 946 018c 6FF34513 		bfc	r3, #5, #1
 947              		.loc 1 1048 0
 948 0190 6260     		str	r2, [r4, #4]	@ float
 949              		.loc 1 1068 0
 950 0192 1046     		mov	r0, r2	@ float
 951              		.loc 1 1043 0
 952 0194 3370     		strb	r3, [r6]
 953              		.loc 1 1049 0
 954 0196 2260     		str	r2, [r4]	@ float
 955              		.loc 1 1053 0
 956 0198 0A60     		str	r2, [r1]	@ float
 957              		.loc 1 1054 0
 958 019a 4A60     		str	r2, [r1, #4]	@ float
 959              		.loc 1 1055 0
ARM GAS  /var/folders/7z/kps_xzfj7sn5l5gkyq8s9db00000gn/T//ccvBF34a.s 			page 18


 960 019c 8A60     		str	r2, [r1, #8]	@ float
 961              		.loc 1 1056 0
 962 019e CA60     		str	r2, [r1, #12]	@ float
 963              		.loc 1 1057 0
 964 01a0 4A61     		str	r2, [r1, #20]	@ float
 965              		.loc 1 1058 0
 966 01a2 CA61     		str	r2, [r1, #28]	@ float
 967              		.loc 1 1059 0
 968 01a4 0A62     		str	r2, [r1, #32]	@ float
 969              		.loc 1 1060 0
 970 01a6 4A62     		str	r2, [r1, #36]	@ float
 971              		.loc 1 1061 0
 972 01a8 8A62     		str	r2, [r1, #40]	@ float
 973              		.loc 1 1062 0
 974 01aa CA62     		str	r2, [r1, #44]	@ float
 975              		.loc 1 1063 0
 976 01ac 0A63     		str	r2, [r1, #48]	@ float
 977              		.loc 1 1064 0
 978 01ae 4A63     		str	r2, [r1, #52]	@ float
 979              		.loc 1 1065 0
 980 01b0 0A64     		str	r2, [r1, #64]	@ float
 981              		.loc 1 1066 0
 982 01b2 4A64     		str	r2, [r1, #68]	@ float
 983              		.loc 1 1067 0
 984 01b4 8A65     		str	r2, [r1, #88]	@ float
 985              		.loc 1 1068 0
 986 01b6 CA65     		str	r2, [r1, #92]	@ float
 987              		.loc 1 1050 0
 988 01b8 CEF80050 		str	r5, [lr]
 989              		.loc 1 1051 0
 990 01bc 3D60     		str	r5, [r7]
 991 01be 2BE7     		b	.L60
 992              	.L87:
 993              		.loc 1 1179 0
 994 01c0 154D     		ldr	r5, .L92+20
 995              		.loc 1 1180 0
 996 01c2 1E4B     		ldr	r3, .L92+56
 997              		.loc 1 1179 0
 998 01c4 D8F85C20 		ldr	r2, [r8, #92]	@ float
 999              		.loc 1 1180 0
 1000 01c8 AB61     		str	r3, [r5, #24]	@ float
 1001              		.loc 1 1181 0
 1002 01ca 2846     		mov	r0, r5
 1003              		.loc 1 1179 0
 1004 01cc EA61     		str	r2, [r5, #28]	@ float
 1005              		.loc 1 1181 0
 1006 01ce FFF7FEFF 		bl	CalcPI
 1007              	.LVL38:
 1008              		.loc 1 1182 0
 1009 01d2 2B6A     		ldr	r3, [r5, #32]	@ float
 1010 01d4 A360     		str	r3, [r4, #8]	@ float
 1011 01d6 71E7     		b	.L65
 1012              	.L91:
 1013              		.loc 1 1241 0
 1014 01d8 97ED080A 		flds	s0, [r7, #32]
 1015 01dc FFF7FEFF 		bl	VoltRippleComp
 1016              	.LVL39:
ARM GAS  /var/folders/7z/kps_xzfj7sn5l5gkyq8s9db00000gn/T//ccvBF34a.s 			page 19


 1017 01e0 84ED0A0A 		fsts	s0, [r4, #40]
 1018 01e4 BBE7     		b	.L75
 1019              	.L89:
 1020              		.loc 1 1220 0
 1021 01e6 FFF7FEFF 		bl	VoltRippleComp
 1022              	.LVL40:
 1023 01ea 85ED090A 		fsts	s0, [r5, #36]
 1024 01ee 90E7     		b	.L72
 1025              	.L86:
 1026              		.loc 1 1113 0
 1027 01f0 FFF7FEFF 		bl	sqrtf
 1028              	.LVL41:
 1029 01f4 F0EE407A 		fcpys	s15, s0
 1030 01f8 36E7     		b	.L62
 1031              	.L90:
 1032              		.loc 1 1230 0
 1033 01fa FFF7FEFF 		bl	sqrtf
 1034              	.LVL42:
 1035 01fe F0EE407A 		fcpys	s15, s0
 1036 0202 98E7     		b	.L73
 1037              	.L93:
 1038              		.align	2
 1039              	.L92:
 1040 0204 00000000 		.word	.LANCHOR13
 1041 0208 00000000 		.word	.LANCHOR14
 1042 020c 00000000 		.word	.LANCHOR18
 1043 0210 49E1A336 		.word	916709705
 1044 0214 00000000 		.word	.LANCHOR17
 1045 0218 00000000 		.word	.LANCHOR10
 1046 021c 00000000 		.word	.LANCHOR8
 1047 0220 00000000 		.word	.LANCHOR7
 1048 0224 00000000 		.word	.LANCHOR19
 1049 0228 3D0A673F 		.word	1063717437
 1050 022c 00000000 		.word	.LANCHOR9
 1051 0230 00000000 		.word	.LANCHOR15
 1052 0234 00000000 		.word	.LANCHOR16
 1053 0238 00000000 		.word	.LANCHOR20
 1054 023c 0AD7233C 		.word	1008981770
 1055 0240 6F12833B 		.word	998445679
 1056              		.cfi_endproc
 1057              	.LFE128:
 1058              		.size	DoControl, .-DoControl
 1059 0244 AFF30080 		.section	.text.MeasCompCurr,"ax",%progbits
 1059      AFF30080 
 1059      AFF30080 
 1060              		.align	2
 1061              		.p2align 4,,15
 1062              		.global	MeasCompCurr
 1063              		.thumb
 1064              		.thumb_func
 1065              		.type	MeasCompCurr, %function
 1066              	MeasCompCurr:
 1067              	.LFB134:
 1068              		.loc 1 1364 0
 1069              		.cfi_startproc
 1070              		@ args = 0, pretend = 0, frame = 0
 1071              		@ frame_needed = 0, uses_anonymous_args = 0
ARM GAS  /var/folders/7z/kps_xzfj7sn5l5gkyq8s9db00000gn/T//ccvBF34a.s 			page 20


 1072              		@ link register save eliminated.
 1073              	.LVL43:
 1074 0000 30B4     		push	{r4, r5}
 1075              		.cfi_def_cfa_offset 8
 1076              		.cfi_offset 4, -8
 1077              		.cfi_offset 5, -4
 1078              		.loc 1 1367 0
 1079 0002 0F4C     		ldr	r4, .L96
 1080              		.loc 1 1371 0
 1081 0004 0F4D     		ldr	r5, .L96+4
 1082              		.loc 1 1367 0
 1083 0006 A288     		ldrh	r2, [r4, #4]
 1084              	.LVL44:
 1085              		.loc 1 1368 0
 1086 0008 A389     		ldrh	r3, [r4, #12]
 1087              	.LVL45:
 1088              		.loc 1 1371 0
 1089 000a 94ED006A 		flds	s12, [r4]
 1090              		.loc 1 1372 0
 1091 000e D4ED026A 		flds	s13, [r4, #8]
 1092              		.loc 1 1367 0
 1093 0012 12B2     		sxth	r2, r2
 1094 0014 801A     		subs	r0, r0, r2
 1095              	.LVL46:
 1096              		.loc 1 1371 0
 1097 0016 07EE900A 		fmsr	s15, r0	@ int
 1098              		.loc 1 1368 0
 1099 001a 1BB2     		sxth	r3, r3
 1100 001c C91A     		subs	r1, r1, r3
 1101              	.LVL47:
 1102              		.loc 1 1371 0
 1103 001e B8EEE77A 		fsitos	s14, s15
 1104              		.loc 1 1372 0
 1105 0022 07EE901A 		fmsr	s15, r1	@ int
 1106 0026 F8EEE77A 		fsitos	s15, s15
 1107              		.loc 1 1371 0
 1108 002a 26EE077A 		fmuls	s14, s12, s14
 1109              		.loc 1 1372 0
 1110 002e 66EEA77A 		fmuls	s15, s13, s15
 1111              		.loc 1 1371 0
 1112 0032 85ED037A 		fsts	s14, [r5, #12]
 1113              		.loc 1 1372 0
 1114 0036 C5ED047A 		fsts	s15, [r5, #16]
 1115              		.loc 1 1375 0
 1116 003a 30BC     		pop	{r4, r5}
 1117              		.cfi_restore 5
 1118              		.cfi_restore 4
 1119              		.cfi_def_cfa_offset 0
 1120 003c 7047     		bx	lr
 1121              	.L97:
 1122 003e 00BF     		.align	2
 1123              	.L96:
 1124 0040 00000000 		.word	.LANCHOR1
 1125 0044 00000000 		.word	.LANCHOR7
 1126              		.cfi_endproc
 1127              	.LFE134:
 1128              		.size	MeasCompCurr, .-MeasCompCurr
ARM GAS  /var/folders/7z/kps_xzfj7sn5l5gkyq8s9db00000gn/T//ccvBF34a.s 			page 21


 1129 0048 AFF30080 		.section	.text.InitMeasCompCurr,"ax",%progbits
 1129      AFF30080 
 1130              		.align	2
 1131              		.p2align 4,,15
 1132              		.global	InitMeasCompCurr
 1133              		.thumb
 1134              		.thumb_func
 1135              		.type	InitMeasCompCurr, %function
 1136              	InitMeasCompCurr:
 1137              	.LFB135:
 1138              		.loc 1 1377 0
 1139              		.cfi_startproc
 1140              		@ args = 0, pretend = 0, frame = 0
 1141              		@ frame_needed = 0, uses_anonymous_args = 0
 1142              		@ link register save eliminated.
 1143              	.LVL48:
 1144              		.loc 1 1378 0
 1145 0000 014B     		ldr	r3, .L99
 1146 0002 9880     		strh	r0, [r3, #4]	@ movhi
 1147              		.loc 1 1379 0
 1148 0004 9981     		strh	r1, [r3, #12]	@ movhi
 1149 0006 7047     		bx	lr
 1150              	.L100:
 1151              		.align	2
 1152              	.L99:
 1153 0008 00000000 		.word	.LANCHOR1
 1154              		.cfi_endproc
 1155              	.LFE135:
 1156              		.size	InitMeasCompCurr, .-InitMeasCompCurr
 1157 000c AFF30080 		.section	.text.InvPark,"ax",%progbits
 1158              		.align	2
 1159              		.p2align 4,,15
 1160              		.global	InvPark
 1161              		.thumb
 1162              		.thumb_func
 1163              		.type	InvPark, %function
 1164              	InvPark:
 1165              	.LFB136:
 1166              		.loc 1 1383 0
 1167              		.cfi_startproc
 1168              		@ args = 0, pretend = 0, frame = 0
 1169              		@ frame_needed = 0, uses_anonymous_args = 0
 1170 0000 10B5     		push	{r4, lr}
 1171              		.cfi_def_cfa_offset 8
 1172              		.cfi_offset 4, -8
 1173              		.cfi_offset 14, -4
 1174              		.loc 1 1384 0
 1175 0002 114C     		ldr	r4, .L103
 1176              		.loc 1 1383 0
 1177 0004 2DED048B 		fstmfdd	sp!, {d8, d9}
 1178              		.cfi_def_cfa_offset 24
 1179              		.cfi_offset 80, -24
 1180              		.cfi_offset 81, -20
 1181              		.cfi_offset 82, -16
 1182              		.cfi_offset 83, -12
 1183              		.loc 1 1384 0
 1184 0008 94ED009A 		flds	s18, [r4]
ARM GAS  /var/folders/7z/kps_xzfj7sn5l5gkyq8s9db00000gn/T//ccvBF34a.s 			page 22


 1185 000c 94ED098A 		flds	s16, [r4, #36]
 1186 0010 B0EE490A 		fcpys	s0, s18
 1187 0014 FFF7FEFF 		bl	cosf
 1188              	.LVL49:
 1189 0018 F0EE408A 		fcpys	s17, s0
 1190 001c B0EE490A 		fcpys	s0, s18
 1191 0020 FFF7FEFF 		bl	sinf
 1192              	.LVL50:
 1193 0024 D4ED0A7A 		flds	s15, [r4, #40]
 1194 0028 20EE677A 		fnmuls	s14, s0, s15
 1195              		.loc 1 1385 0
 1196 002c 68EEA77A 		fmuls	s15, s17, s15
 1197              		.loc 1 1384 0
 1198 0030 A8EE287A 		vfma.f32	s14, s16, s17
 1199              		.loc 1 1385 0
 1200 0034 E8EE007A 		vfma.f32	s15, s16, s0
 1201              		.loc 1 1387 0
 1202 0038 BDEC048B 		fldmfdd	sp!, {d8-d9}
 1203              		.cfi_restore 82
 1204              		.cfi_restore 83
 1205              		.cfi_restore 80
 1206              		.cfi_restore 81
 1207              		.cfi_def_cfa_offset 8
 1208              		.loc 1 1384 0
 1209 003c 84ED0B7A 		fsts	s14, [r4, #44]
 1210              		.loc 1 1385 0
 1211 0040 C4ED0C7A 		fsts	s15, [r4, #48]
 1212              		.loc 1 1387 0
 1213 0044 10BD     		pop	{r4, pc}
 1214              	.L104:
 1215 0046 00BF     		.align	2
 1216              	.L103:
 1217 0048 00000000 		.word	.LANCHOR7
 1218              		.cfi_endproc
 1219              	.LFE136:
 1220              		.size	InvPark, .-InvPark
 1221 004c AFF30080 		.section	.text.CalcRefVec,"ax",%progbits
 1222              		.align	2
 1223              		.p2align 4,,15
 1224              		.global	CalcRefVec
 1225              		.thumb
 1226              		.thumb_func
 1227              		.type	CalcRefVec, %function
 1228              	CalcRefVec:
 1229              	.LFB137:
 1230              		.loc 1 1389 0
 1231              		.cfi_startproc
 1232              		@ args = 0, pretend = 0, frame = 0
 1233              		@ frame_needed = 0, uses_anonymous_args = 0
 1234              		@ link register save eliminated.
 1235              		.loc 1 1394 0
 1236 0000 0E4B     		ldr	r3, .L106
 1237              		.loc 1 1395 0
 1238 0002 9FED0F6A 		flds	s12, .L106+4
 1239              		.loc 1 1394 0
 1240 0006 D3ED0C6A 		flds	s13, [r3, #48]
 1241              		.loc 1 1395 0
ARM GAS  /var/folders/7z/kps_xzfj7sn5l5gkyq8s9db00000gn/T//ccvBF34a.s 			page 23


 1242 000a D3ED0B5A 		flds	s11, [r3, #44]
 1243              		.loc 1 1394 0
 1244 000e 0D4B     		ldr	r3, .L106+8
 1245 0010 F1EE667A 		fnegs	s15, s13
 1246              		.loc 1 1395 0
 1247 0014 B0EE677A 		fcpys	s14, s15
 1248 0018 A5EE867A 		vfma.f32	s14, s11, s12
 1249              		.loc 1 1396 0
 1250 001c E5EEC67A 		vfms.f32	s15, s11, s12
 1251              		.loc 1 1395 0
 1252 0020 B6EE006A 		fconsts	s12, #96
 1253 0024 27EE067A 		fmuls	s14, s14, s12
 1254              		.loc 1 1396 0
 1255 0028 67EE867A 		fmuls	s15, s15, s12
 1256              		.loc 1 1394 0
 1257 002c C3ED016A 		fsts	s13, [r3, #4]
 1258              		.loc 1 1395 0
 1259 0030 83ED027A 		fsts	s14, [r3, #8]
 1260              		.loc 1 1396 0
 1261 0034 C3ED037A 		fsts	s15, [r3, #12]
 1262 0038 7047     		bx	lr
 1263              	.L107:
 1264 003a 00BF     		.align	2
 1265              	.L106:
 1266 003c 00000000 		.word	.LANCHOR7
 1267 0040 D7B3DD3F 		.word	1071494103
 1268 0044 00000000 		.word	.LANCHOR6
 1269              		.cfi_endproc
 1270              	.LFE137:
 1271              		.size	CalcRefVec, .-CalcRefVec
 1272 0048 AFF30080 		.section	.text.CalcTimes,"ax",%progbits
 1272      AFF30080 
 1273              		.align	2
 1274              		.p2align 4,,15
 1275              		.global	CalcTimes
 1276              		.thumb
 1277              		.thumb_func
 1278              		.type	CalcTimes, %function
 1279              	CalcTimes:
 1280              	.LFB138:
 1281              		.loc 1 1401 0
 1282              		.cfi_startproc
 1283              		@ args = 0, pretend = 0, frame = 0
 1284              		@ frame_needed = 0, uses_anonymous_args = 0
 1285              		@ link register save eliminated.
 1286              		.loc 1 1402 0
 1287 0000 184B     		ldr	r3, .L109
 1288 0002 194A     		ldr	r2, .L109+4
 1289 0004 DB6A     		ldr	r3, [r3, #44]
 1290              		.loc 1 1404 0
 1291 0006 92ED047A 		flds	s14, [r2, #16]
 1292              		.loc 1 1405 0
 1293 000a D2ED056A 		flds	s13, [r2, #20]
 1294              		.loc 1 1402 0
 1295 000e 1360     		str	r3, [r2]
 1296              		.loc 1 1404 0
 1297 0010 07EE903A 		fmsr	s15, r3	@ int
ARM GAS  /var/folders/7z/kps_xzfj7sn5l5gkyq8s9db00000gn/T//ccvBF34a.s 			page 24


 1298 0014 F8EE677A 		fuitos	s15, s15
 1299              		.loc 1 1406 0
 1300 0018 B6EE006A 		fconsts	s12, #96
 1301              		.loc 1 1404 0
 1302 001c 27EE877A 		fmuls	s14, s15, s14
 1303              		.loc 1 1405 0
 1304 0020 67EEA66A 		fmuls	s13, s15, s13
 1305              		.loc 1 1406 0
 1306 0024 77EEC77A 		fsubs	s15, s15, s14
 1307              		.loc 1 1404 0
 1308 0028 82ED047A 		fsts	s14, [r2, #16]
 1309              		.loc 1 1406 0
 1310 002c 77EEE67A 		fsubs	s15, s15, s13
 1311              		.loc 1 1405 0
 1312 0030 C2ED056A 		fsts	s13, [r2, #20]
 1313              		.loc 1 1406 0
 1314 0034 67EE867A 		fmuls	s15, s15, s12
 1315 0038 FCEEE77A 		ftouizs	s15, s15
 1316              		.loc 1 1407 0
 1317 003c B8EE676A 		fuitos	s12, s15
 1318              		.loc 1 1406 0
 1319 0040 C2ED087A 		fsts	s15, [r2, #32]	@ int
 1320              		.loc 1 1407 0
 1321 0044 37EE067A 		fadds	s14, s14, s12
 1322 0048 BCEEC77A 		ftouizs	s14, s14
 1323              		.loc 1 1408 0
 1324 004c F8EE477A 		fuitos	s15, s14
 1325              		.loc 1 1407 0
 1326 0050 82ED077A 		fsts	s14, [r2, #28]	@ int
 1327              		.loc 1 1408 0
 1328 0054 76EEA76A 		fadds	s13, s13, s15
 1329 0058 FCEEE66A 		ftouizs	s13, s13
 1330 005c C2ED066A 		fsts	s13, [r2, #24]	@ int
 1331 0060 7047     		bx	lr
 1332              	.L110:
 1333 0062 00BF     		.align	2
 1334              	.L109:
 1335 0064 00000140 		.word	1073807360
 1336 0068 00000000 		.word	.LANCHOR6
 1337              		.cfi_endproc
 1338              	.LFE138:
 1339              		.size	CalcTimes, .-CalcTimes
 1340 006c AFF30080 		.section	.text.update_timer_Duty,"ax",%progbits
 1341              		.align	2
 1342              		.p2align 4,,15
 1343              		.global	update_timer_Duty
 1344              		.thumb
 1345              		.thumb_func
 1346              		.type	update_timer_Duty, %function
 1347              	update_timer_Duty:
 1348              	.LFB139:
 1349              		.loc 1 1413 0
 1350              		.cfi_startproc
 1351              		@ args = 0, pretend = 0, frame = 0
 1352              		@ frame_needed = 0, uses_anonymous_args = 0
 1353              	.LVL51:
 1354 0000 2DE9F041 		push	{r4, r5, r6, r7, r8, lr}
ARM GAS  /var/folders/7z/kps_xzfj7sn5l5gkyq8s9db00000gn/T//ccvBF34a.s 			page 25


 1355              		.cfi_def_cfa_offset 24
 1356              		.cfi_offset 4, -24
 1357              		.cfi_offset 5, -20
 1358              		.cfi_offset 6, -16
 1359              		.cfi_offset 7, -12
 1360              		.cfi_offset 8, -8
 1361              		.cfi_offset 14, -4
 1362              		.loc 1 1413 0
 1363 0004 1646     		mov	r6, r2
 1364 0006 0746     		mov	r7, r0
 1365 0008 8846     		mov	r8, r1
 1366              		.loc 1 1414 0
 1367 000a FFF7FEFF 		bl	utils_sys_lock_cnt
 1368              	.LVL52:
 1369              		.loc 1 1417 0
 1370 000e 104B     		ldr	r3, .L113
 1371              		.loc 1 1418 0
 1372 0010 104D     		ldr	r5, .L113+4
 1373              		.loc 1 1417 0
 1374 0012 1C88     		ldrh	r4, [r3]
 1375 0014 A4B2     		uxth	r4, r4
 1376 0016 44F00204 		orr	r4, r4, #2
 1377 001a 1C80     		strh	r4, [r3]	@ movhi
 1378              		.loc 1 1418 0
 1379 001c 2C88     		ldrh	r4, [r5]
 1380 001e A4B2     		uxth	r4, r4
 1381 0020 44F00204 		orr	r4, r4, #2
 1382 0024 2C80     		strh	r4, [r5]	@ movhi
 1383              		.loc 1 1420 0
 1384 0026 5F63     		str	r7, [r3, #52]
 1385              		.loc 1 1421 0
 1386 0028 C3F83880 		str	r8, [r3, #56]
 1387              		.loc 1 1422 0
 1388 002c DE63     		str	r6, [r3, #60]
 1389              		.loc 1 1432 0
 1390 002e 1A88     		ldrh	r2, [r3]
 1391 0030 22F00202 		bic	r2, r2, #2
 1392 0034 1204     		lsls	r2, r2, #16
 1393 0036 120C     		lsrs	r2, r2, #16
 1394 0038 1A80     		strh	r2, [r3]	@ movhi
 1395              		.loc 1 1433 0
 1396 003a 2B88     		ldrh	r3, [r5]
 1397 003c 23F00203 		bic	r3, r3, #2
 1398 0040 1B04     		lsls	r3, r3, #16
 1399 0042 1B0C     		lsrs	r3, r3, #16
 1400 0044 2B80     		strh	r3, [r5]	@ movhi
 1401              		.loc 1 1436 0
 1402 0046 BDE8F041 		pop	{r4, r5, r6, r7, r8, lr}
 1403              		.cfi_restore 14
 1404              		.cfi_restore 8
 1405              		.cfi_restore 7
 1406              		.cfi_restore 6
 1407              		.cfi_restore 5
 1408              		.cfi_restore 4
 1409              		.cfi_def_cfa_offset 0
 1410              	.LVL53:
 1411              		.loc 1 1435 0
ARM GAS  /var/folders/7z/kps_xzfj7sn5l5gkyq8s9db00000gn/T//ccvBF34a.s 			page 26


 1412 004a FFF7FEBF 		b	utils_sys_unlock_cnt
 1413              	.LVL54:
 1414              	.L114:
 1415 004e 00BF     		.align	2
 1416              	.L113:
 1417 0050 00000140 		.word	1073807360
 1418 0054 00040140 		.word	1073808384
 1419              		.cfi_endproc
 1420              	.LFE139:
 1421              		.size	update_timer_Duty, .-update_timer_Duty
 1422 0058 AFF30080 		.section	.text.CalcSVGen,"ax",%progbits
 1422      AFF30080 
 1423              		.align	2
 1424              		.p2align 4,,15
 1425              		.global	CalcSVGen
 1426              		.thumb
 1427              		.thumb_func
 1428              		.type	CalcSVGen, %function
 1429              	CalcSVGen:
 1430              	.LFB140:
 1431              		.loc 1 1438 0
 1432              		.cfi_startproc
 1433              		@ args = 0, pretend = 0, frame = 0
 1434              		@ frame_needed = 0, uses_anonymous_args = 0
 1435 0000 10B5     		push	{r4, lr}
 1436              		.cfi_def_cfa_offset 8
 1437              		.cfi_offset 4, -8
 1438              		.cfi_offset 14, -4
 1439              		.loc 1 1439 0
 1440 0002 3F4C     		ldr	r4, .L138
 1441 0004 D4ED017A 		flds	s15, [r4, #4]
 1442 0008 F5EEC07A 		fcmpezs	s15
 1443 000c F1EE10FA 		fmstat
 1444 0010 27DB     		blt	.L131
 1445              		.loc 1 1442 0
 1446 0012 94ED027A 		flds	s14, [r4, #8]
 1447 0016 B5EEC07A 		fcmpezs	s14
 1448 001a F1EE10FA 		fmstat
 1449 001e 13DA     		bge	.L137
 1450              		.loc 1 1455 0
 1451 0020 D4ED036A 		flds	s13, [r4, #12]
 1452 0024 F5EEC06A 		fcmpezs	s13
 1453 0028 F1EE10FA 		fmstat
 1454 002c 45DB     		blt	.L133
 1455              		.loc 1 1458 0
 1456 002e C4ED057A 		fsts	s15, [r4, #20]
 1457              		.loc 1 1459 0
 1458 0032 C4ED046A 		fsts	s13, [r4, #16]
 1459              		.loc 1 1460 0
 1460 0036 FFF7FEFF 		bl	CalcTimes
 1461              	.LVL55:
 1462              		.loc 1 1461 0
 1463 003a 206A     		ldr	r0, [r4, #32]
 1464 003c A169     		ldr	r1, [r4, #24]
 1465 003e E269     		ldr	r2, [r4, #28]
 1466              		.loc 1 1509 0
 1467 0040 BDE81040 		pop	{r4, lr}
ARM GAS  /var/folders/7z/kps_xzfj7sn5l5gkyq8s9db00000gn/T//ccvBF34a.s 			page 27


 1468              		.cfi_remember_state
 1469              		.cfi_restore 14
 1470              		.cfi_restore 4
 1471              		.cfi_def_cfa_offset 0
 1472              		.loc 1 1461 0
 1473 0044 FFF7FEBF 		b	update_timer_Duty
 1474              	.LVL56:
 1475              	.L137:
 1476              		.cfi_restore_state
 1477              		.loc 1 1447 0
 1478 0048 84ED057A 		fsts	s14, [r4, #20]
 1479              		.loc 1 1448 0
 1480 004c C4ED047A 		fsts	s15, [r4, #16]
 1481              		.loc 1 1449 0
 1482 0050 FFF7FEFF 		bl	CalcTimes
 1483              	.LVL57:
 1484              		.loc 1 1450 0
 1485 0054 04F11800 		add	r0, r4, #24
 1486 0058 07C8     		ldmia	r0, {r0, r1, r2}
 1487              		.loc 1 1509 0
 1488 005a BDE81040 		pop	{r4, lr}
 1489              		.cfi_remember_state
 1490              		.cfi_restore 14
 1491              		.cfi_restore 4
 1492              		.cfi_def_cfa_offset 0
 1493              		.loc 1 1450 0
 1494 005e FFF7FEBF 		b	update_timer_Duty
 1495              	.LVL58:
 1496              	.L131:
 1497              		.cfi_restore_state
 1498              		.loc 1 1477 0
 1499 0062 D4ED026A 		flds	s13, [r4, #8]
 1500 0066 F5EEC06A 		fcmpezs	s13
 1501 006a F1EE10FA 		fmstat
 1502 006e 35DB     		blt	.L134
 1503              		.loc 1 1480 0
 1504 0070 94ED037A 		flds	s14, [r4, #12]
 1505 0074 B5EEC07A 		fcmpezs	s14
 1506 0078 F1EE10FA 		fmstat
 1507 007c 0CDB     		blt	.L135
 1508              		.loc 1 1483 0
 1509 007e 84ED057A 		fsts	s14, [r4, #20]
 1510              		.loc 1 1484 0
 1511 0082 C4ED046A 		fsts	s13, [r4, #16]
 1512              		.loc 1 1485 0
 1513 0086 FFF7FEFF 		bl	CalcTimes
 1514              	.LVL59:
 1515              		.loc 1 1486 0
 1516 008a E069     		ldr	r0, [r4, #28]
 1517 008c 216A     		ldr	r1, [r4, #32]
 1518 008e A269     		ldr	r2, [r4, #24]
 1519              		.loc 1 1509 0
 1520 0090 BDE81040 		pop	{r4, lr}
 1521              		.cfi_remember_state
 1522              		.cfi_restore 14
 1523              		.cfi_restore 4
 1524              		.cfi_def_cfa_offset 0
ARM GAS  /var/folders/7z/kps_xzfj7sn5l5gkyq8s9db00000gn/T//ccvBF34a.s 			page 28


 1525              		.loc 1 1486 0
 1526 0094 FFF7FEBF 		b	update_timer_Duty
 1527              	.LVL60:
 1528              	.L135:
 1529              		.cfi_restore_state
 1530              		.loc 1 1491 0
 1531 0098 B1EE477A 		fnegs	s14, s14
 1532              		.loc 1 1492 0
 1533 009c F1EE677A 		fnegs	s15, s15
 1534              		.loc 1 1491 0
 1535 00a0 84ED057A 		fsts	s14, [r4, #20]
 1536              		.loc 1 1492 0
 1537 00a4 C4ED047A 		fsts	s15, [r4, #16]
 1538              		.loc 1 1493 0
 1539 00a8 FFF7FEFF 		bl	CalcTimes
 1540              	.LVL61:
 1541              		.loc 1 1494 0
 1542 00ac A069     		ldr	r0, [r4, #24]
 1543 00ae 216A     		ldr	r1, [r4, #32]
 1544 00b0 E269     		ldr	r2, [r4, #28]
 1545              		.loc 1 1509 0
 1546 00b2 BDE81040 		pop	{r4, lr}
 1547              		.cfi_remember_state
 1548              		.cfi_restore 14
 1549              		.cfi_restore 4
 1550              		.cfi_def_cfa_offset 0
 1551              		.loc 1 1494 0
 1552 00b6 FFF7FEBF 		b	update_timer_Duty
 1553              	.LVL62:
 1554              	.L133:
 1555              		.cfi_restore_state
 1556              		.loc 1 1467 0
 1557 00ba B1EE477A 		fnegs	s14, s14
 1558              		.loc 1 1468 0
 1559 00be F1EE666A 		fnegs	s13, s13
 1560              		.loc 1 1467 0
 1561 00c2 84ED057A 		fsts	s14, [r4, #20]
 1562              		.loc 1 1468 0
 1563 00c6 C4ED046A 		fsts	s13, [r4, #16]
 1564              		.loc 1 1469 0
 1565 00ca FFF7FEFF 		bl	CalcTimes
 1566              	.LVL63:
 1567              		.loc 1 1470 0
 1568 00ce E069     		ldr	r0, [r4, #28]
 1569 00d0 A169     		ldr	r1, [r4, #24]
 1570 00d2 226A     		ldr	r2, [r4, #32]
 1571              		.loc 1 1509 0
 1572 00d4 BDE81040 		pop	{r4, lr}
 1573              		.cfi_remember_state
 1574              		.cfi_restore 14
 1575              		.cfi_restore 4
 1576              		.cfi_def_cfa_offset 0
 1577              		.loc 1 1470 0
 1578 00d8 FFF7FEBF 		b	update_timer_Duty
 1579              	.LVL64:
 1580              	.L134:
 1581              		.cfi_restore_state
ARM GAS  /var/folders/7z/kps_xzfj7sn5l5gkyq8s9db00000gn/T//ccvBF34a.s 			page 29


 1582              		.loc 1 1502 0
 1583 00dc F1EE677A 		fnegs	s15, s15
 1584              		.loc 1 1503 0
 1585 00e0 F1EE666A 		fnegs	s13, s13
 1586              		.loc 1 1502 0
 1587 00e4 C4ED057A 		fsts	s15, [r4, #20]
 1588              		.loc 1 1503 0
 1589 00e8 C4ED046A 		fsts	s13, [r4, #16]
 1590              		.loc 1 1504 0
 1591 00ec FFF7FEFF 		bl	CalcTimes
 1592              	.LVL65:
 1593              		.loc 1 1505 0
 1594 00f0 206A     		ldr	r0, [r4, #32]
 1595 00f2 E169     		ldr	r1, [r4, #28]
 1596 00f4 A269     		ldr	r2, [r4, #24]
 1597              		.loc 1 1509 0
 1598 00f6 BDE81040 		pop	{r4, lr}
 1599              		.cfi_restore 14
 1600              		.cfi_restore 4
 1601              		.cfi_def_cfa_offset 0
 1602              		.loc 1 1505 0
 1603 00fa FFF7FEBF 		b	update_timer_Duty
 1604              	.LVL66:
 1605              	.L139:
 1606 00fe 00BF     		.align	2
 1607              	.L138:
 1608 0100 00000000 		.word	.LANCHOR6
 1609              		.cfi_endproc
 1610              	.LFE140:
 1611              		.size	CalcSVGen, .-CalcSVGen
 1612 0104 AFF30080 		.section	.text.SMCInit,"ax",%progbits
 1612      AFF30080 
 1612      AFF30080 
 1613              		.align	2
 1614              		.p2align 4,,15
 1615              		.global	SMCInit
 1616              		.thumb
 1617              		.thumb_func
 1618              		.type	SMCInit, %function
 1619              	SMCInit:
 1620              	.LFB141:
 1621              		.loc 1 1512 0
 1622              		.cfi_startproc
 1623              		@ args = 0, pretend = 0, frame = 0
 1624              		@ frame_needed = 0, uses_anonymous_args = 0
 1625              		@ link register save eliminated.
 1626              	.LVL67:
 1627 0000 30B4     		push	{r4, r5}
 1628              		.cfi_def_cfa_offset 8
 1629              		.cfi_offset 4, -8
 1630              		.cfi_offset 5, -4
 1631              		.loc 1 1539 0
 1632 0002 0649     		ldr	r1, .L142
 1633              		.loc 1 1532 0
 1634 0004 064D     		ldr	r5, .L142+4
 1635              		.loc 1 1537 0
 1636 0006 074C     		ldr	r4, .L142+8
ARM GAS  /var/folders/7z/kps_xzfj7sn5l5gkyq8s9db00000gn/T//ccvBF34a.s 			page 30


 1637              		.loc 1 1540 0
 1638 0008 074A     		ldr	r2, .L142+12
 1639              		.loc 1 1541 0
 1640 000a 084B     		ldr	r3, .L142+16
 1641              		.loc 1 1532 0
 1642 000c 8561     		str	r5, [r0, #24]	@ float
 1643              		.loc 1 1537 0
 1644 000e 0461     		str	r4, [r0, #16]	@ float
 1645              		.loc 1 1539 0
 1646 0010 8163     		str	r1, [r0, #56]	@ float
 1647              		.loc 1 1540 0
 1648 0012 C263     		str	r2, [r0, #60]	@ float
 1649              		.loc 1 1541 0
 1650 0014 0365     		str	r3, [r0, #80]	@ float
 1651              		.loc 1 1544 0
 1652 0016 30BC     		pop	{r4, r5}
 1653              		.cfi_restore 5
 1654              		.cfi_restore 4
 1655              		.cfi_def_cfa_offset 0
 1656 0018 7047     		bx	lr
 1657              	.L143:
 1658 001a 00BF     		.align	2
 1659              	.L142:
 1660 001c 9A99593F 		.word	1062836634
 1661 0020 00007C3F 		.word	1065091072
 1662 0024 5555D53D 		.word	1037391189
 1663 0028 0AD7A33B 		.word	1000593162
 1664 002c 2FE34D3A 		.word	978182959
 1665              		.cfi_endproc
 1666              	.LFE141:
 1667              		.size	SMCInit, .-SMCInit
 1668              		.section	.text.SMC_HallSensor_Estimation,"ax",%progbits
 1669              		.align	2
 1670              		.p2align 4,,15
 1671              		.global	SMC_HallSensor_Estimation
 1672              		.thumb
 1673              		.thumb_func
 1674              		.type	SMC_HallSensor_Estimation, %function
 1675              	SMC_HallSensor_Estimation:
 1676              	.LFB142:
 1677              		.loc 1 1623 0
 1678              		.cfi_startproc
 1679              		@ args = 0, pretend = 0, frame = 0
 1680              		@ frame_needed = 0, uses_anonymous_args = 0
 1681              	.LVL68:
 1682 0000 38B5     		push	{r3, r4, r5, lr}
 1683              		.cfi_def_cfa_offset 16
 1684              		.cfi_offset 3, -16
 1685              		.cfi_offset 4, -12
 1686              		.cfi_offset 5, -8
 1687              		.cfi_offset 14, -4
 1688              		.loc 1 1626 0
 1689 0002 564B     		ldr	r3, .L164
 1690 0004 9FED567A 		flds	s14, .L164+4
 1691 0008 9A88     		ldrh	r2, [r3, #4]
 1692              		.loc 1 1627 0
 1693 000a 5B88     		ldrh	r3, [r3, #2]
ARM GAS  /var/folders/7z/kps_xzfj7sn5l5gkyq8s9db00000gn/T//ccvBF34a.s 			page 31


 1694              		.loc 1 1638 0
 1695 000c 554C     		ldr	r4, .L164+8
 1696              		.loc 1 1644 0
 1697 000e 564D     		ldr	r5, .L164+12
 1698              		.loc 1 1638 0
 1699 0010 94ED000A 		flds	s0, [r4]
 1700              		.loc 1 1623 0
 1701 0014 2DED048B 		fstmfdd	sp!, {d8, d9}
 1702              		.cfi_def_cfa_offset 32
 1703              		.cfi_offset 80, -32
 1704              		.cfi_offset 81, -28
 1705              		.cfi_offset 82, -24
 1706              		.cfi_offset 83, -20
 1707              		.loc 1 1627 0
 1708 0018 07EE903A 		fmsr	s15, r3	@ int
 1709              		.loc 1 1626 0
 1710 001c 08EE102A 		fmsr	s16, r2	@ int
 1711 0020 DFED528A 		flds	s17, .L164+16
 1712 0024 524A     		ldr	r2, .L164+20
 1713              		.loc 1 1627 0
 1714 0026 534B     		ldr	r3, .L164+24
 1715              		.loc 1 1626 0
 1716 0028 B8EE488A 		fuitos	s16, s16
 1717              		.loc 1 1627 0
 1718 002c F8EE677A 		fuitos	s15, s15
 1719              		.loc 1 1626 0
 1720 0030 38EE688A 		fsubs	s16, s16, s17
 1721              		.loc 1 1627 0
 1722 0034 77EEE87A 		fsubs	s15, s15, s17
 1723              		.loc 1 1626 0
 1724 0038 88EE078A 		fdivs	s16, s16, s14
 1725              		.loc 1 1627 0
 1726 003c C7EE878A 		fdivs	s17, s15, s14
 1727              		.loc 1 1626 0
 1728 0040 82ED008A 		fsts	s16, [r2]
 1729              		.loc 1 1627 0
 1730 0044 C3ED008A 		fsts	s17, [r3]
 1731              		.loc 1 1638 0
 1732 0048 FFF7FEFF 		bl	cosf
 1733              	.LVL69:
 1734 004c 4A4B     		ldr	r3, .L164+28
 1735 004e B0EE409A 		fcpys	s18, s0
 1736              		.loc 1 1639 0
 1737 0052 94ED000A 		flds	s0, [r4]
 1738              		.loc 1 1638 0
 1739 0056 83ED009A 		fsts	s18, [r3]
 1740              		.loc 1 1639 0
 1741 005a FFF7FEFF 		bl	sinf
 1742              	.LVL70:
 1743              		.loc 1 1644 0
 1744 005e 28EE098A 		fmuls	s16, s16, s18
 1745              		.loc 1 1645 0
 1746 0062 68EE808A 		fmuls	s17, s17, s0
 1747              		.loc 1 1653 0
 1748 0066 454A     		ldr	r2, .L164+32
 1749 0068 9FED456A 		flds	s12, .L164+36
 1750 006c D2ED007A 		flds	s15, [r2]
ARM GAS  /var/folders/7z/kps_xzfj7sn5l5gkyq8s9db00000gn/T//ccvBF34a.s 			page 32


 1751              		.loc 1 1644 0
 1752 0070 85ED008A 		fsts	s16, [r5]
 1753              		.loc 1 1652 0
 1754 0074 38EE688A 		fsubs	s16, s16, s17
 1755              		.loc 1 1653 0
 1756 0078 424B     		ldr	r3, .L164+40
 1757              		.loc 1 1645 0
 1758 007a 4348     		ldr	r0, .L164+44
 1759              		.loc 1 1653 0
 1760 007c D3ED006A 		flds	s13, [r3]
 1761              		.loc 1 1639 0
 1762 0080 4249     		ldr	r1, .L164+48
 1763              		.loc 1 1645 0
 1764 0082 C0ED008A 		fsts	s17, [r0]
 1765              	.LVL71:
 1766              		.loc 1 1653 0
 1767 0086 D8EE067A 		vfnms.f32	s15, s16, s12
 1768              		.loc 1 1654 0
 1769 008a B2EE047A 		fconsts	s14, #36
 1770              		.loc 1 1653 0
 1771 008e 77EEA67A 		fadds	s15, s15, s13
 1772              		.loc 1 1639 0
 1773 0092 81ED000A 		fsts	s0, [r1]
 1774              		.loc 1 1653 0
 1775 0096 C3ED007A 		fsts	s15, [r3]
 1776              		.loc 1 1654 0
 1777 009a D3ED007A 		flds	s15, [r3]
 1778 009e F4EEC77A 		fcmpes	s15, s14
 1779 00a2 F1EE10FA 		fmstat
 1780 00a6 0ADC     		bgt	.L145
 1781              		.loc 1 1654 0 is_stmt 0 discriminator 2
 1782 00a8 D3ED007A 		flds	s15, [r3]
 1783 00ac BAEE047A 		fconsts	s14, #164
 1784 00b0 F4EEC77A 		fcmpes	s15, s14
 1785 00b4 F1EE10FA 		fmstat
 1786 00b8 58BF     		it	pl
 1787 00ba 93ED007A 		fldspl	s14, [r3]
 1788              	.L145:
 1789              		.loc 1 1654 0 discriminator 8
 1790 00be 83ED007A 		fsts	s14, [r3]
 1791              		.loc 1 1655 0 is_stmt 1 discriminator 8
 1792 00c2 82ED008A 		fsts	s16, [r2]
 1793              		.loc 1 1657 0 discriminator 8
 1794 00c6 D3ED007A 		flds	s15, [r3]
 1795 00ca D4ED006A 		flds	s13, [r4]
 1796              		.loc 1 1659 0 discriminator 8
 1797 00ce 9FED307A 		flds	s14, .L164+52
 1798              		.loc 1 1657 0 discriminator 8
 1799 00d2 244A     		ldr	r2, .L164+8
 1800 00d4 77EEA67A 		fadds	s15, s15, s13
 1801 00d8 C4ED007A 		fsts	s15, [r4]
 1802              		.loc 1 1658 0 discriminator 8
 1803 00dc 2168     		ldr	r1, [r4]	@ float
 1804              		.loc 1 1659 0 discriminator 8
 1805 00de D4ED007A 		flds	s15, [r4]
 1806 00e2 F4EEC77A 		fcmpes	s15, s14
 1807 00e6 F1EE10FA 		fmstat
ARM GAS  /var/folders/7z/kps_xzfj7sn5l5gkyq8s9db00000gn/T//ccvBF34a.s 			page 33


 1808 00ea D2ED007A 		flds	s15, [r2]
 1809 00ee 1FDD     		ble	.L159
 1810              		.loc 1 1659 0 is_stmt 0 discriminator 1
 1811 00f0 37EEC77A 		fsubs	s14, s15, s14
 1812 00f4 82ED007A 		fsts	s14, [r2]
 1813              	.L148:
 1814              		.loc 1 1662 0 is_stmt 1
 1815 00f8 94ED007A 		flds	s14, [r4]
 1816 00fc DFED257A 		flds	s15, .L164+56
 1817              		.loc 1 1664 0
 1818 0100 DFED236A 		flds	s13, .L164+52
 1819              		.loc 1 1662 0
 1820 0104 77EE277A 		fadds	s15, s14, s15
 1821              		.loc 1 1664 0
 1822 0108 F4EEE67A 		fcmpes	s15, s13
 1823 010c F1EE10FA 		fmstat
 1824 0110 1ADC     		bgt	.L163
 1825              		.loc 1 1729 0
 1826 0112 BDEC048B 		fldmfdd	sp!, {d8-d9}
 1827              		.cfi_remember_state
 1828              		.cfi_restore 82
 1829              		.cfi_restore 83
 1830              		.cfi_restore 80
 1831              		.cfi_restore 81
 1832              		.cfi_def_cfa_offset 16
 1833              	.LVL72:
 1834              		.loc 1 1665 0
 1835 0116 F5EEC07A 		fcmpezs	s15
 1836 011a F1EE10FA 		fmstat
 1837 011e 1E4A     		ldr	r2, .L164+60
 1838              		.loc 1 1667 0
 1839 0120 1B68     		ldr	r3, [r3]	@ float
 1840 0122 D365     		str	r3, [r2, #92]	@ float
 1841              		.loc 1 1665 0
 1842 0124 48BF     		it	mi
 1843 0126 77EEA67A 		faddsmi	s15, s15, s13
 1844 012a C2ED167A 		fsts	s15, [r2, #88]
 1845              		.loc 1 1729 0
 1846 012e 38BD     		pop	{r3, r4, r5, pc}
 1847              	.LVL73:
 1848              	.L159:
 1849              		.cfi_restore_state
 1850              		.loc 1 1660 0
 1851 0130 F5EEC07A 		fcmpezs	s15
 1852 0134 F1EE10FA 		fmstat
 1853 0138 DED5     		bpl	.L148
 1854              		.loc 1 1660 0 is_stmt 0 discriminator 1
 1855 013a D2ED007A 		flds	s15, [r2]
 1856 013e 37EE877A 		fadds	s14, s15, s14
 1857 0142 82ED007A 		fsts	s14, [r2]
 1858 0146 D7E7     		b	.L148
 1859              	.L163:
 1860              		.loc 1 1729 0 is_stmt 1 discriminator 1
 1861 0148 BDEC048B 		fldmfdd	sp!, {d8-d9}
 1862              		.cfi_restore 80
 1863              		.cfi_restore 81
 1864              		.cfi_restore 82
ARM GAS  /var/folders/7z/kps_xzfj7sn5l5gkyq8s9db00000gn/T//ccvBF34a.s 			page 34


 1865              		.cfi_restore 83
 1866              		.cfi_def_cfa_offset 16
 1867              	.LVL74:
 1868              		.loc 1 1664 0 discriminator 1
 1869 014c 124A     		ldr	r2, .L164+60
 1870              		.loc 1 1667 0 discriminator 1
 1871 014e 1B68     		ldr	r3, [r3]	@ float
 1872 0150 D365     		str	r3, [r2, #92]	@ float
 1873              		.loc 1 1664 0 discriminator 1
 1874 0152 77EEE67A 		fsubs	s15, s15, s13
 1875 0156 C2ED167A 		fsts	s15, [r2, #88]
 1876              		.loc 1 1729 0 discriminator 1
 1877 015a 38BD     		pop	{r3, r4, r5, pc}
 1878              	.LVL75:
 1879              	.L165:
 1880              		.align	2
 1881              	.L164:
 1882 015c 00000000 		.word	.LANCHOR4
 1883 0160 00F07F45 		.word	1166012416
 1884 0164 00000000 		.word	.LANCHOR23
 1885 0168 00000000 		.word	.LANCHOR26
 1886 016c 00209B44 		.word	1151016960
 1887 0170 00000000 		.word	.LANCHOR21
 1888 0174 00000000 		.word	.LANCHOR22
 1889 0178 00000000 		.word	.LANCHOR24
 1890 017c 00000000 		.word	.LANCHOR28
 1891 0180 0C02803F 		.word	1065353740
 1892 0184 00000000 		.word	.LANCHOR29
 1893 0188 00000000 		.word	.LANCHOR27
 1894 018c 00000000 		.word	.LANCHOR25
 1895 0190 DB0FC940 		.word	1086918619
 1896 0194 6666A63F 		.word	1067869798
 1897 0198 00000000 		.word	.LANCHOR17
 1898              		.cfi_endproc
 1899              	.LFE142:
 1900              		.size	SMC_HallSensor_Estimation, .-SMC_HallSensor_Estimation
 1901 019c AFF30080 		.section	.text.mcpwm_adc_inj_int_handler,"ax",%progbits
 1902              		.align	2
 1903              		.p2align 4,,15
 1904              		.global	mcpwm_adc_inj_int_handler
 1905              		.thumb
 1906              		.thumb_func
 1907              		.type	mcpwm_adc_inj_int_handler, %function
 1908              	mcpwm_adc_inj_int_handler:
 1909              	.LFB122:
 1910              		.loc 1 603 0
 1911              		.cfi_startproc
 1912              		@ args = 0, pretend = 0, frame = 0
 1913              		@ frame_needed = 0, uses_anonymous_args = 0
 1914              		.loc 1 604 0
 1915 0000 3F4B     		ldr	r3, .L174
 1916              		.loc 1 606 0
 1917 0002 4048     		ldr	r0, .L174+4
 1918              		.loc 1 603 0
 1919 0004 2DE9F041 		push	{r4, r5, r6, r7, r8, lr}
 1920              		.cfi_def_cfa_offset 24
 1921              		.cfi_offset 4, -24
ARM GAS  /var/folders/7z/kps_xzfj7sn5l5gkyq8s9db00000gn/T//ccvBF34a.s 			page 35


 1922              		.cfi_offset 5, -20
 1923              		.cfi_offset 6, -16
 1924              		.cfi_offset 7, -12
 1925              		.cfi_offset 8, -8
 1926              		.cfi_offset 14, -4
 1927              		.loc 1 604 0
 1928 0008 0026     		movs	r6, #0
 1929 000a 5E62     		str	r6, [r3, #36]
 1930              		.loc 1 606 0
 1931 000c 1421     		movs	r1, #20
 1932 000e FFF7FEFF 		bl	ADC_GetInjectedConversionValue
 1933              	.LVL76:
 1934              		.loc 1 607 0
 1935 0012 1421     		movs	r1, #20
 1936              		.loc 1 606 0
 1937 0014 0546     		mov	r5, r0
 1938              	.LVL77:
 1939              		.loc 1 607 0
 1940 0016 3C48     		ldr	r0, .L174+8
 1941              	.LVL78:
 1942              		.loc 1 640 0
 1943 0018 3C4F     		ldr	r7, .L174+12
 1944              		.loc 1 607 0
 1945 001a FFF7FEFF 		bl	ADC_GetInjectedConversionValue
 1946              	.LVL79:
 1947 001e 0446     		mov	r4, r0
 1948              	.LVL80:
 1949              		.loc 1 609 0
 1950 0020 3B48     		ldr	r0, .L174+16
 1951              	.LVL81:
 1952              		.loc 1 610 0
 1953 0022 3C49     		ldr	r1, .L174+20
 1954              		.loc 1 609 0
 1955 0024 0368     		ldr	r3, [r0]
 1956              		.loc 1 611 0
 1957 0026 3C4A     		ldr	r2, .L174+24
 1958              		.loc 1 609 0
 1959 0028 2B44     		add	r3, r3, r5
 1960 002a 0360     		str	r3, [r0]
 1961              		.loc 1 610 0
 1962 002c 0B68     		ldr	r3, [r1]
 1963 002e 2344     		add	r3, r3, r4
 1964 0030 0B60     		str	r3, [r1]
 1965              		.loc 1 611 0
 1966 0032 1368     		ldr	r3, [r2]
 1967              		.loc 1 640 0
 1968 0034 3846     		mov	r0, r7
 1969              		.loc 1 611 0
 1970 0036 0133     		adds	r3, r3, #1
 1971 0038 1360     		str	r3, [r2]
 1972              		.loc 1 640 0
 1973 003a FFF7FEFF 		bl	SMC_HallSensor_Estimation
 1974              	.LVL82:
 1975              		.loc 1 646 0
 1976 003e 374B     		ldr	r3, .L174+28
 1977 0040 1B78     		ldrb	r3, [r3]	@ zero_extendqisi2
 1978 0042 9B07     		lsls	r3, r3, #30
ARM GAS  /var/folders/7z/kps_xzfj7sn5l5gkyq8s9db00000gn/T//ccvBF34a.s 			page 36


 1979 0044 5AD5     		bpl	.L166
 1980              		.loc 1 648 0
 1981 0046 DFF8F0E0 		ldr	lr, .L174+56
 1982              		.loc 1 649 0
 1983 004a 354B     		ldr	r3, .L174+32
 1984              	.LBB50:
 1985              	.LBB51:
 1986              		.loc 1 1367 0
 1987 004c 354A     		ldr	r2, .L174+36
 1988              	.LBE51:
 1989              	.LBE50:
 1990              		.loc 1 660 0
 1991 004e D7F858C0 		ldr	ip, [r7, #88]	@ float
 1992              		.loc 1 665 0
 1993 0052 3548     		ldr	r0, .L174+40
 1994              	.LBB57:
 1995              	.LBB52:
 1996              		.loc 1 1371 0
 1997 0054 354F     		ldr	r7, .L174+44
 1998              	.LBE52:
 1999              	.LBE57:
 2000              		.loc 1 649 0
 2001 0056 8021     		movs	r1, #128
 2002              		.loc 1 648 0
 2003 0058 4FF04008 		mov	r8, #64
 2004 005c AEF81880 		strh	r8, [lr, #24]	@ movhi
 2005              		.loc 1 649 0
 2006 0060 1983     		strh	r1, [r3, #24]	@ movhi
 2007              	.LVL83:
 2008              	.LBB58:
 2009              	.LBB53:
 2010              		.loc 1 1367 0
 2011 0062 B2F804E0 		ldrh	lr, [r2, #4]
 2012              	.LVL84:
 2013              		.loc 1 1368 0
 2014 0066 9189     		ldrh	r1, [r2, #12]
 2015              	.LVL85:
 2016              		.loc 1 1371 0
 2017 0068 92ED006A 		flds	s12, [r2]
 2018              		.loc 1 1372 0
 2019 006c D2ED026A 		flds	s13, [r2, #8]
 2020              	.LBE53:
 2021              	.LBE58:
 2022              		.loc 1 665 0
 2023 0070 0388     		ldrh	r3, [r0]
 2024              		.loc 1 660 0
 2025 0072 C7F800C0 		str	ip, [r7]	@ float
 2026              	.LBB59:
 2027              	.LBB54:
 2028              		.loc 1 1367 0
 2029 0076 0FFA8EFE 		sxth	lr, lr
 2030 007a CEEB0505 		rsb	r5, lr, r5
 2031              	.LVL86:
 2032              		.loc 1 1368 0
 2033 007e 0AB2     		sxth	r2, r1
 2034              		.loc 1 1371 0
 2035 0080 07EE905A 		fmsr	s15, r5	@ int
ARM GAS  /var/folders/7z/kps_xzfj7sn5l5gkyq8s9db00000gn/T//ccvBF34a.s 			page 37


 2036              		.loc 1 1368 0
 2037 0084 A41A     		subs	r4, r4, r2
 2038              	.LVL87:
 2039              		.loc 1 1371 0
 2040 0086 B8EEE77A 		fsitos	s14, s15
 2041              		.loc 1 1372 0
 2042 008a 07EE904A 		fmsr	s15, r4	@ int
 2043 008e F8EEE77A 		fsitos	s15, s15
 2044              	.LBE54:
 2045              	.LBE59:
 2046              		.loc 1 665 0
 2047 0092 0133     		adds	r3, r3, #1
 2048              	.LBB60:
 2049              	.LBB55:
 2050              		.loc 1 1371 0
 2051 0094 26EE077A 		fmuls	s14, s12, s14
 2052              		.loc 1 1372 0
 2053 0098 66EEA77A 		fmuls	s15, s13, s15
 2054              	.LBE55:
 2055              	.LBE60:
 2056              		.loc 1 665 0
 2057 009c 9BB2     		uxth	r3, r3
 2058              		.loc 1 666 0
 2059 009e 102B     		cmp	r3, #16
 2060              		.loc 1 665 0
 2061 00a0 18BF     		it	ne
 2062 00a2 0380     		strhne	r3, [r0]	@ movhi
 2063              	.LBB61:
 2064              	.LBB56:
 2065              		.loc 1 1371 0
 2066 00a4 87ED037A 		fsts	s14, [r7, #12]
 2067              		.loc 1 1372 0
 2068 00a8 C7ED047A 		fsts	s15, [r7, #16]
 2069              	.LBE56:
 2070              	.LBE61:
 2071              		.loc 1 668 0
 2072 00ac 08BF     		it	eq
 2073 00ae 0680     		strheq	r6, [r0]	@ movhi
 2074              		.loc 1 673 0
 2075 00b0 FFF7FEFF 		bl	ClarkePark
 2076              	.LVL88:
 2077              		.loc 1 676 0
 2078 00b4 FFF7FEFF 		bl	DoControl
 2079              	.LVL89:
 2080              		.loc 1 692 0
 2081 00b8 FFF7FEFF 		bl	InvPark
 2082              	.LVL90:
 2083              	.LBB62:
 2084              	.LBB63:
 2085              		.loc 1 1394 0
 2086 00bc D7ED0C6A 		flds	s13, [r7, #48]
 2087              		.loc 1 1395 0
 2088 00c0 D7ED0B5A 		flds	s11, [r7, #44]
 2089 00c4 9FED1A6A 		flds	s12, .L174+48
 2090              		.loc 1 1394 0
 2091 00c8 1A4B     		ldr	r3, .L174+52
 2092 00ca F1EE667A 		fnegs	s15, s13
ARM GAS  /var/folders/7z/kps_xzfj7sn5l5gkyq8s9db00000gn/T//ccvBF34a.s 			page 38


 2093              		.loc 1 1395 0
 2094 00ce B0EE677A 		fcpys	s14, s15
 2095 00d2 A5EE867A 		vfma.f32	s14, s11, s12
 2096              		.loc 1 1396 0
 2097 00d6 E5EEC67A 		vfms.f32	s15, s11, s12
 2098              		.loc 1 1395 0
 2099 00da B6EE006A 		fconsts	s12, #96
 2100 00de 27EE067A 		fmuls	s14, s14, s12
 2101              		.loc 1 1396 0
 2102 00e2 67EE867A 		fmuls	s15, s15, s12
 2103              		.loc 1 1394 0
 2104 00e6 C3ED016A 		fsts	s13, [r3, #4]
 2105              		.loc 1 1395 0
 2106 00ea 83ED027A 		fsts	s14, [r3, #8]
 2107              		.loc 1 1396 0
 2108 00ee C3ED037A 		fsts	s15, [r3, #12]
 2109              	.LBE63:
 2110              	.LBE62:
 2111              		.loc 1 698 0
 2112 00f2 FFF7FEFF 		bl	CalcSVGen
 2113              	.LVL91:
 2114              		.loc 1 700 0
 2115 00f6 0A4B     		ldr	r3, .L174+32
 2116 00f8 8022     		movs	r2, #128
 2117 00fa 5A83     		strh	r2, [r3, #26]	@ movhi
 2118              	.LVL92:
 2119              	.L166:
 2120 00fc BDE8F081 		pop	{r4, r5, r6, r7, r8, pc}
 2121              	.L175:
 2122              		.align	2
 2123              	.L174:
 2124 0100 00180040 		.word	1073747968
 2125 0104 00200140 		.word	1073815552
 2126 0108 00210140 		.word	1073815808
 2127 010c 00000000 		.word	.LANCHOR17
 2128 0110 00000000 		.word	.LANCHOR30
 2129 0114 00000000 		.word	.LANCHOR31
 2130 0118 00000000 		.word	.LANCHOR32
 2131 011c 00000000 		.word	.LANCHOR13
 2132 0120 00040240 		.word	1073873920
 2133 0124 00000000 		.word	.LANCHOR1
 2134 0128 00000000 		.word	.LANCHOR18
 2135 012c 00000000 		.word	.LANCHOR7
 2136 0130 D7B3DD3F 		.word	1071494103
 2137 0134 00000000 		.word	.LANCHOR6
 2138 0138 00080240 		.word	1073874944
 2139              		.cfi_endproc
 2140              	.LFE122:
 2141              		.size	mcpwm_adc_inj_int_handler, .-mcpwm_adc_inj_int_handler
 2142 013c AFF30080 		.section	.text.SMC_Position_Estimation,"ax",%progbits
 2143              		.align	2
 2144              		.p2align 4,,15
 2145              		.global	SMC_Position_Estimation
 2146              		.thumb
 2147              		.thumb_func
 2148              		.type	SMC_Position_Estimation, %function
 2149              	SMC_Position_Estimation:
ARM GAS  /var/folders/7z/kps_xzfj7sn5l5gkyq8s9db00000gn/T//ccvBF34a.s 			page 39


 2150              	.LFB143:
 2151              		.loc 1 1732 0
 2152              		.cfi_startproc
 2153              		@ args = 0, pretend = 0, frame = 0
 2154              		@ frame_needed = 0, uses_anonymous_args = 0
 2155              	.LVL93:
 2156              		.loc 1 1735 0
 2157 0000 90ED046A 		flds	s12, [r0, #16]
 2158 0004 D0ED014A 		flds	s9, [r0, #4]
 2159              		.loc 1 1736 0
 2160 0008 90ED085A 		flds	s10, [r0, #32]
 2161              		.loc 1 1735 0
 2162 000c D0ED000A 		flds	s1, [r0]
 2163              		.loc 1 1736 0
 2164 0010 90ED071A 		flds	s2, [r0, #28]
 2165              		.loc 1 1735 0
 2166 0014 D0ED031A 		flds	s3, [r0, #12]
 2167              		.loc 1 1736 0
 2168 0018 90ED0A2A 		flds	s4, [r0, #40]
 2169              		.loc 1 1735 0
 2170 001c D0ED063A 		flds	s7, [r0, #24]
 2171 0020 D0ED052A 		flds	s5, [r0, #20]
 2172              		.loc 1 1736 0
 2173 0024 90ED0B3A 		flds	s6, [r0, #44]
 2174              		.loc 1 1738 0
 2175 0028 D0ED0C7A 		flds	s15, [r0, #48]
 2176              		.loc 1 1739 0
 2177 002c D0ED105A 		flds	s11, [r0, #64]
 2178              		.loc 1 1743 0
 2179 0030 90ED0F4A 		flds	s8, [r0, #60]
 2180 0034 64EEC66A 		fnmuls	s13, s9, s12
 2181 0038 25EE467A 		fnmuls	s14, s10, s12
 2182              		.loc 1 1735 0
 2183 003c E6EE206A 		vfma.f32	s13, s12, s1
 2184              		.loc 1 1732 0
 2185 0040 10B5     		push	{r4, lr}
 2186              		.cfi_def_cfa_offset 8
 2187              		.cfi_offset 4, -8
 2188              		.cfi_offset 14, -4
 2189              		.loc 1 1736 0
 2190 0042 A6EE017A 		vfma.f32	s14, s12, s2
 2191              		.loc 1 1732 0
 2192 0046 0446     		mov	r4, r0
 2193 0048 B1EE466A 		fnegs	s12, s12
 2194              		.loc 1 1735 0
 2195 004c E6EE216A 		vfma.f32	s13, s12, s3
 2196              		.loc 1 1736 0
 2197 0050 A6EE027A 		vfma.f32	s14, s12, s4
 2198              		.loc 1 1735 0
 2199 0054 E3EEA26A 		vfma.f32	s13, s7, s5
 2200              		.loc 1 1736 0
 2201 0058 A3EE837A 		vfma.f32	s14, s7, s6
 2202              		.loc 1 1738 0
 2203 005c 76EEE77A 		fsubs	s15, s13, s15
 2204              		.loc 1 1739 0
 2205 0060 37EE656A 		fsubs	s12, s14, s11
 2206              		.loc 1 1743 0
ARM GAS  /var/folders/7z/kps_xzfj7sn5l5gkyq8s9db00000gn/T//ccvBF34a.s 			page 40


 2207 0064 F0EEE75A 		fabss	s11, s15
 2208 0068 F4EEC45A 		fcmpes	s11, s8
 2209 006c F1EE10FA 		fmstat
 2210              		.loc 1 1735 0
 2211 0070 C0ED056A 		fsts	s13, [r0, #20]
 2212              		.loc 1 1738 0
 2213 0074 C0ED0D7A 		fsts	s15, [r0, #52]
 2214              		.loc 1 1736 0
 2215 0078 80ED0B7A 		fsts	s14, [r0, #44]
 2216              		.loc 1 1739 0
 2217 007c 80ED116A 		fsts	s12, [r0, #68]
 2218              		.loc 1 1743 0
 2219 0080 40F18780 		bpl	.L195
 2220              		.loc 1 1749 0
 2221 0084 90ED0E7A 		flds	s14, [r0, #56]
 2222 0088 67EE877A 		fmuls	s15, s15, s14
 2223              		.loc 1 1756 0
 2224 008c F0EEC66A 		fabss	s13, s12
 2225              		.loc 1 1749 0
 2226 0090 C7EE847A 		fdivs	s15, s15, s8
 2227              		.loc 1 1756 0
 2228 0094 B4EEE64A 		fcmpes	s8, s13
 2229 0098 F1EE10FA 		fmstat
 2230              		.loc 1 1749 0
 2231 009c C0ED037A 		fsts	s15, [r0, #12]
 2232              		.loc 1 1756 0
 2233 00a0 40F38F80 		ble	.L197
 2234              	.L201:
 2235              		.loc 1 1762 0
 2236 00a4 26EE077A 		fmuls	s14, s12, s14
 2237 00a8 87EE047A 		fdivs	s14, s14, s8
 2238 00ac 84ED0A7A 		fsts	s14, [r4, #40]
 2239              	.L184:
 2240              		.loc 1 1771 0
 2241 00b0 D4ED125A 		flds	s11, [r4, #72]
 2242              		.loc 1 1773 0
 2243 00b4 D4ED023A 		flds	s7, [r4, #8]
 2244              		.loc 1 1774 0
 2245 00b8 94ED094A 		flds	s8, [r4, #36]
 2246              		.loc 1 1773 0
 2247 00bc 94ED136A 		flds	s12, [r4, #76]
 2248              		.loc 1 1771 0
 2249 00c0 F0EE646A 		fcpys	s13, s9
 2250 00c4 E5EEA76A 		vfma.f32	s13, s11, s15
 2251              		.loc 1 1772 0
 2252 00c8 F0EE457A 		fcpys	s15, s10
 2253 00cc E5EE877A 		vfma.f32	s15, s11, s14
 2254              		.loc 1 1771 0
 2255 00d0 B0EE667A 		fcpys	s14, s13
 2256 00d4 A4EEE57A 		vfms.f32	s14, s9, s11
 2257              		.loc 1 1772 0
 2258 00d8 E5EE657A 		vfms.f32	s15, s10, s11
 2259              		.loc 1 1773 0
 2260 00dc B0EE630A 		fcpys	s0, s7
 2261              		.loc 1 1774 0
 2262 00e0 F0EE440A 		fcpys	s1, s8
 2263              		.loc 1 1773 0
ARM GAS  /var/folders/7z/kps_xzfj7sn5l5gkyq8s9db00000gn/T//ccvBF34a.s 			page 41


 2264 00e4 A7EE060A 		vfma.f32	s0, s14, s12
 2265              		.loc 1 1774 0
 2266 00e8 E7EE860A 		vfma.f32	s1, s15, s12
 2267              		.loc 1 1773 0
 2268 00ec A3EEC60A 		vfms.f32	s0, s7, s12
 2269              		.loc 1 1774 0
 2270 00f0 E6EE440A 		vfms.f32	s1, s12, s8
 2271              		.loc 1 1771 0
 2272 00f4 84ED017A 		fsts	s14, [r4, #4]
 2273              		.loc 1 1772 0
 2274 00f8 C4ED087A 		fsts	s15, [r4, #32]
 2275              		.loc 1 1773 0
 2276 00fc 84ED020A 		fsts	s0, [r4, #8]
 2277              		.loc 1 1774 0
 2278 0100 C4ED090A 		fsts	s1, [r4, #36]
 2279              		.loc 1 1779 0
 2280 0104 B1EE400A 		fnegs	s0, s0
 2281 0108 FFF7FEFF 		bl	atan2f
 2282              	.LVL94:
 2283              		.loc 1 1781 0
 2284 010c 3548     		ldr	r0, .L202
 2285              		.loc 1 1784 0
 2286 010e 364A     		ldr	r2, .L202+4
 2287              		.loc 1 1781 0
 2288 0110 3649     		ldr	r1, .L202+8
 2289 0112 D0ED007A 		flds	s15, [r0]
 2290              		.loc 1 1784 0
 2291 0116 1388     		ldrh	r3, [r2]
 2292              		.loc 1 1781 0
 2293 0118 91ED007A 		flds	s14, [r1]
 2294              		.loc 1 1779 0
 2295 011c 84ED160A 		fsts	s0, [r4, #88]
 2296              		.loc 1 1781 0
 2297 0120 70EE677A 		fsubs	s15, s0, s15
 2298              		.loc 1 1784 0
 2299 0124 0133     		adds	r3, r3, #1
 2300 0126 9BB2     		uxth	r3, r3
 2301              		.loc 1 1781 0
 2302 0128 77EE877A 		fadds	s15, s15, s14
 2303              		.loc 1 1785 0
 2304 012c 102B     		cmp	r3, #16
 2305              		.loc 1 1782 0
 2306 012e 80ED000A 		fsts	s0, [r0]
 2307              		.loc 1 1781 0
 2308 0132 C1ED007A 		fsts	s15, [r1]
 2309              		.loc 1 1784 0
 2310 0136 1380     		strh	r3, [r2]	@ movhi
 2311              		.loc 1 1785 0
 2312 0138 4DD0     		beq	.L187
 2313 013a D4ED177A 		flds	s15, [r4, #92]
 2314              	.L188:
 2315              		.loc 1 1803 0
 2316 013e 94ED185A 		flds	s10, [r4, #96]
 2317 0142 D4ED145A 		flds	s11, [r4, #80]
 2318              		.loc 1 1847 0
 2319 0146 9FED2A7A 		flds	s14, .L202+12
 2320              		.loc 1 1852 0
ARM GAS  /var/folders/7z/kps_xzfj7sn5l5gkyq8s9db00000gn/T//ccvBF34a.s 			page 42


 2321 014a 9FED2A6A 		flds	s12, .L202+16
 2322              		.loc 1 1803 0
 2323 014e F0EE456A 		fcpys	s13, s10
 2324 0152 E5EEA76A 		vfma.f32	s13, s11, s15
 2325 0156 E5EE656A 		vfms.f32	s13, s10, s11
 2326              		.loc 1 1847 0
 2327 015a 66EE877A 		fmuls	s15, s13, s14
 2328              		.loc 1 1803 0
 2329 015e C4ED186A 		fsts	s13, [r4, #96]
 2330              		.loc 1 1852 0
 2331 0162 F4EEC67A 		fcmpes	s15, s12
 2332 0166 F1EE10FA 		fmstat
 2333              		.loc 1 1847 0
 2334 016a C4ED137A 		fsts	s15, [r4, #76]
 2335 016e 58BF     		it	pl
 2336 0170 C4ED127A 		fstspl	s15, [r4, #72]
 2337              		.loc 1 1857 0
 2338 0174 DFED207A 		flds	s15, .L202+20
 2339              		.loc 1 1854 0
 2340 0178 48BF     		it	mi
 2341 017a 84ED126A 		fstsmi	s12, [r4, #72]
 2342              		.loc 1 1858 0
 2343 017e 30EE270A 		fadds	s0, s0, s15
 2344              		.loc 1 1855 0
 2345 0182 48BF     		it	mi
 2346 0184 84ED136A 		fstsmi	s12, [r4, #76]
 2347              		.loc 1 1857 0
 2348 0188 C4ED157A 		fsts	s15, [r4, #84]
 2349              		.loc 1 1858 0
 2350 018c 84ED160A 		fsts	s0, [r4, #88]
 2351 0190 10BD     		pop	{r4, pc}
 2352              	.LVL95:
 2353              	.L195:
 2354              		.loc 1 1751 0
 2355 0192 F5EEC07A 		fcmpezs	s15
 2356              		.loc 1 1752 0
 2357 0196 90ED0E7A 		flds	s14, [r0, #56]
 2358              		.loc 1 1751 0
 2359 019a F1EE10FA 		fmstat
 2360              		.loc 1 1756 0
 2361 019e F0EEC66A 		fabss	s13, s12
 2362              		.loc 1 1754 0
 2363 01a2 D8BF     		it	le
 2364 01a4 F1EE477A 		fnegsle	s15, s14
 2365              		.loc 1 1756 0
 2366 01a8 B4EEE64A 		fcmpes	s8, s13
 2367              		.loc 1 1752 0
 2368 01ac C6BF     		itte	gt
 2369 01ae 80ED037A 		fstsgt	s14, [r0, #12]
 2370 01b2 F0EE477A 		fcpysgt	s15, s14
 2371              		.loc 1 1754 0
 2372 01b6 C0ED037A 		fstsle	s15, [r0, #12]
 2373              		.loc 1 1756 0
 2374 01ba F1EE10FA 		fmstat
 2375 01be 3FF771AF 		bgt	.L201
 2376              	.L197:
 2377              		.loc 1 1764 0
ARM GAS  /var/folders/7z/kps_xzfj7sn5l5gkyq8s9db00000gn/T//ccvBF34a.s 			page 43


 2378 01c2 B5EEC06A 		fcmpezs	s12
 2379 01c6 F1EE10FA 		fmstat
 2380              		.loc 1 1767 0
 2381 01ca D8BF     		it	le
 2382 01cc B1EE477A 		fnegsle	s14, s14
 2383 01d0 84ED0A7A 		fsts	s14, [r4, #40]
 2384 01d4 6CE7     		b	.L184
 2385              	.LVL96:
 2386              	.L187:
 2387              		.loc 1 1789 0
 2388 01d6 0020     		movs	r0, #0
 2389              		.loc 1 1788 0
 2390 01d8 0023     		movs	r3, #0
 2391              		.loc 1 1787 0
 2392 01da C4ED177A 		fsts	s15, [r4, #92]
 2393              		.loc 1 1789 0
 2394 01de 0860     		str	r0, [r1]	@ float
 2395              		.loc 1 1788 0
 2396 01e0 1380     		strh	r3, [r2]	@ movhi
 2397 01e2 ACE7     		b	.L188
 2398              	.L203:
 2399              		.align	2
 2400              	.L202:
 2401 01e4 00000000 		.word	.LANCHOR33
 2402 01e8 00000000 		.word	.LANCHOR18
 2403 01ec 00000000 		.word	.LANCHOR34
 2404 01f0 DB0F493E 		.word	1044975579
 2405 01f4 2FE34D3A 		.word	978182959
 2406 01f8 0020FD3E 		.word	1056776192
 2407              		.cfi_endproc
 2408              	.LFE143:
 2409              		.size	SMC_Position_Estimation, .-SMC_Position_Estimation
 2410 01fc AFF30080 		.section	.text.CalculateParkAngle,"ax",%progbits
 2411              		.align	2
 2412              		.p2align 4,,15
 2413              		.global	CalculateParkAngle
 2414              		.thumb
 2415              		.thumb_func
 2416              		.type	CalculateParkAngle, %function
 2417              	CalculateParkAngle:
 2418              	.LFB126:
 2419              		.loc 1 963 0
 2420              		.cfi_startproc
 2421              		@ args = 0, pretend = 0, frame = 0
 2422              		@ frame_needed = 0, uses_anonymous_args = 0
 2423 0000 F8B5     		push	{r3, r4, r5, r6, r7, lr}
 2424              		.cfi_def_cfa_offset 24
 2425              		.cfi_offset 3, -24
 2426              		.cfi_offset 4, -20
 2427              		.cfi_offset 5, -16
 2428              		.cfi_offset 6, -12
 2429              		.cfi_offset 7, -8
 2430              		.cfi_offset 14, -4
 2431              		.loc 1 964 0
 2432 0002 344D     		ldr	r5, .L218
 2433 0004 344C     		ldr	r4, .L218+4
 2434 0006 6869     		ldr	r0, [r5, #20]	@ float
ARM GAS  /var/folders/7z/kps_xzfj7sn5l5gkyq8s9db00000gn/T//ccvBF34a.s 			page 44


 2435              		.loc 1 965 0
 2436 0008 A969     		ldr	r1, [r5, #24]	@ float
 2437              		.loc 1 966 0
 2438 000a EA6A     		ldr	r2, [r5, #44]	@ float
 2439              		.loc 1 967 0
 2440 000c 2B6B     		ldr	r3, [r5, #48]	@ float
 2441              		.loc 1 964 0
 2442 000e 2063     		str	r0, [r4, #48]	@ float
 2443              		.loc 1 969 0
 2444 0010 2046     		mov	r0, r4
 2445              		.loc 1 965 0
 2446 0012 2164     		str	r1, [r4, #64]	@ float
 2447              		.loc 1 966 0
 2448 0014 2260     		str	r2, [r4]	@ float
 2449              		.loc 1 967 0
 2450 0016 E361     		str	r3, [r4, #28]	@ float
 2451              		.loc 1 969 0
 2452 0018 FFF7FEFF 		bl	SMC_Position_Estimation
 2453              	.LVL97:
 2454              		.loc 1 971 0
 2455 001c 2F49     		ldr	r1, .L218+8
 2456 001e 0A78     		ldrb	r2, [r1]	@ zero_extendqisi2
 2457 0020 D307     		lsls	r3, r2, #31
 2458 0022 15D5     		bpl	.L205
 2459              		.loc 1 973 0
 2460 0024 2E4E     		ldr	r6, .L218+12
 2461 0026 2F4B     		ldr	r3, .L218+16
 2462 0028 3068     		ldr	r0, [r6]
 2463 002a 1F68     		ldr	r7, [r3]
 2464 002c 8742     		cmp	r7, r0
 2465 002e 33D9     		bls	.L206
 2466 0030 2D4B     		ldr	r3, .L218+20
 2467 0032 95ED007A 		flds	s14, [r5]
 2468 0036 1B68     		ldr	r3, [r3]
 2469              		.loc 1 974 0
 2470 0038 0130     		adds	r0, r0, #1
 2471 003a 3060     		str	r0, [r6]
 2472              	.L207:
 2473              		.loc 1 990 0
 2474 003c 1B0C     		lsrs	r3, r3, #16
 2475 003e 07EE903A 		fmsr	s15, r3	@ int
 2476 0042 F8EEE77A 		fsitos	s15, s15
 2477 0046 77EE877A 		fadds	s15, s15, s14
 2478 004a C5ED007A 		fsts	s15, [r5]
 2479 004e F8BD     		pop	{r3, r4, r5, r6, r7, pc}
 2480              	.L205:
 2481              		.loc 1 1003 0
 2482 0050 264B     		ldr	r3, .L218+24
 2483 0052 94ED167A 		flds	s14, [r4, #88]
 2484 0056 93ED006A 		flds	s12, [r3]
 2485              		.loc 1 1004 0
 2486 005a D3ED007A 		flds	s15, [r3]
 2487 005e DFED246A 		flds	s13, .L218+28
 2488 0062 F0EEE77A 		fabss	s15, s15
 2489              		.loc 1 1003 0
 2490 0066 37EE067A 		fadds	s14, s14, s12
 2491              		.loc 1 1004 0
ARM GAS  /var/folders/7z/kps_xzfj7sn5l5gkyq8s9db00000gn/T//ccvBF34a.s 			page 45


 2492 006a F4EEE67A 		fcmpes	s15, s13
 2493 006e F1EE10FA 		fmstat
 2494              		.loc 1 1003 0
 2495 0072 85ED007A 		fsts	s14, [r5]
 2496              		.loc 1 1004 0
 2497 0076 0EDD     		ble	.L204
 2498              		.loc 1 1006 0
 2499 0078 D3ED007A 		flds	s15, [r3]
 2500              		.loc 1 1007 0
 2501 007c 9FED1D7A 		flds	s14, .L218+32
 2502              		.loc 1 1006 0
 2503 0080 F5EEC07A 		fcmpezs	s15
 2504 0084 F1EE10FA 		fmstat
 2505              		.loc 1 1007 0
 2506 0088 D3ED007A 		flds	s15, [r3]
 2507              		.loc 1 1006 0
 2508 008c 1DD4     		bmi	.L217
 2509              		.loc 1 1009 0
 2510 008e 77EEC77A 		fsubs	s15, s15, s14
 2511 0092 C3ED007A 		fsts	s15, [r3]
 2512              	.L204:
 2513 0096 F8BD     		pop	{r3, r4, r5, r6, r7, pc}
 2514              	.L206:
 2515              		.loc 1 977 0
 2516 0098 1348     		ldr	r0, .L218+20
 2517 009a 5E68     		ldr	r6, [r3, #4]
 2518 009c 0368     		ldr	r3, [r0]
 2519 009e 9E42     		cmp	r6, r3
 2520 00a0 04D9     		bls	.L208
 2521              		.loc 1 980 0
 2522 00a2 0633     		adds	r3, r3, #6
 2523 00a4 0360     		str	r3, [r0]
 2524 00a6 95ED007A 		flds	s14, [r5]
 2525 00aa C7E7     		b	.L207
 2526              	.L208:
 2527              		.loc 1 988 0
 2528 00ac 95ED007A 		flds	s14, [r5]
 2529 00b0 D4ED167A 		flds	s15, [r4, #88]
 2530 00b4 0D48     		ldr	r0, .L218+24
 2531              		.loc 1 985 0
 2532 00b6 42F02002 		orr	r2, r2, #32
 2533              		.loc 1 988 0
 2534 00ba 77EE677A 		fsubs	s15, s14, s15
 2535              		.loc 1 985 0
 2536 00be 6FF30002 		bfc	r2, #0, #1
 2537 00c2 0A70     		strb	r2, [r1]
 2538              		.loc 1 988 0
 2539 00c4 C0ED007A 		fsts	s15, [r0]
 2540 00c8 B8E7     		b	.L207
 2541              	.L217:
 2542              		.loc 1 1007 0
 2543 00ca 77EE877A 		fadds	s15, s15, s14
 2544 00ce C3ED007A 		fsts	s15, [r3]
 2545 00d2 F8BD     		pop	{r3, r4, r5, r6, r7, pc}
 2546              	.L219:
 2547              		.align	2
 2548              	.L218:
ARM GAS  /var/folders/7z/kps_xzfj7sn5l5gkyq8s9db00000gn/T//ccvBF34a.s 			page 46


 2549 00d4 00000000 		.word	.LANCHOR7
 2550 00d8 00000000 		.word	.LANCHOR17
 2551 00dc 00000000 		.word	.LANCHOR13
 2552 00e0 00000000 		.word	.LANCHOR15
 2553 00e4 00000000 		.word	.LANCHOR0
 2554 00e8 00000000 		.word	.LANCHOR16
 2555 00ec 00000000 		.word	.LANCHOR35
 2556 00f0 43989139 		.word	965843011
 2557 00f4 A9A19139 		.word	965845417
 2558              		.cfi_endproc
 2559              	.LFE126:
 2560              		.size	CalculateParkAngle, .-CalculateParkAngle
 2561 00f8 AFF30080 		.section	.text.FWInit,"ax",%progbits
 2561      AFF30080 
 2562              		.align	2
 2563              		.p2align 4,,15
 2564              		.global	FWInit
 2565              		.thumb
 2566              		.thumb_func
 2567              		.type	FWInit, %function
 2568              	FWInit:
 2569              	.LFB144:
 2570              		.loc 1 1864 0
 2571              		.cfi_startproc
 2572              		@ args = 0, pretend = 0, frame = 0
 2573              		@ frame_needed = 0, uses_anonymous_args = 0
 2574 0000 2DE9F04F 		push	{r4, r5, r6, r7, r8, r9, r10, fp, lr}
 2575              		.cfi_def_cfa_offset 36
 2576              		.cfi_offset 4, -36
 2577              		.cfi_offset 5, -32
 2578              		.cfi_offset 6, -28
 2579              		.cfi_offset 7, -24
 2580              		.cfi_offset 8, -20
 2581              		.cfi_offset 9, -16
 2582              		.cfi_offset 10, -12
 2583              		.cfi_offset 11, -8
 2584              		.cfi_offset 14, -4
 2585              		.loc 1 1866 0
 2586 0004 184B     		ldr	r3, .L222
 2587 0006 194C     		ldr	r4, .L222+4
 2588              		.loc 1 1868 0
 2589 0008 1949     		ldr	r1, .L222+8
 2590              		.loc 1 1869 0
 2591 000a 1A4A     		ldr	r2, .L222+12
 2592              		.loc 1 1870 0
 2593 000c DFF884B0 		ldr	fp, .L222+44
 2594              		.loc 1 1871 0
 2595 0010 DFF884A0 		ldr	r10, .L222+48
 2596              		.loc 1 1872 0
 2597 0014 DFF88490 		ldr	r9, .L222+52
 2598              		.loc 1 1873 0
 2599 0018 DFF88480 		ldr	r8, .L222+56
 2600              		.loc 1 1874 0
 2601 001c DFF884C0 		ldr	ip, .L222+60
 2602              		.loc 1 1875 0
 2603 0020 DFF884E0 		ldr	lr, .L222+64
 2604              		.loc 1 1876 0
ARM GAS  /var/folders/7z/kps_xzfj7sn5l5gkyq8s9db00000gn/T//ccvBF34a.s 			page 47


 2605 0024 144F     		ldr	r7, .L222+16
 2606              		.loc 1 1877 0
 2607 0026 154E     		ldr	r6, .L222+20
 2608              		.loc 1 1878 0
 2609 0028 154D     		ldr	r5, .L222+24
 2610              		.loc 1 1866 0
 2611 002a 9C60     		str	r4, [r3, #8]	@ float
 2612              		.loc 1 1867 0
 2613 002c 0020     		movs	r0, #0
 2614              		.loc 1 1879 0
 2615 002e 154C     		ldr	r4, .L222+28
 2616              		.loc 1 1867 0
 2617 0030 D861     		str	r0, [r3, #28]	@ float
 2618              		.loc 1 1868 0
 2619 0032 1962     		str	r1, [r3, #32]	@ float
 2620              		.loc 1 1880 0
 2621 0034 1448     		ldr	r0, .L222+32
 2622              		.loc 1 1881 0
 2623 0036 1549     		ldr	r1, .L222+36
 2624              		.loc 1 1869 0
 2625 0038 5A62     		str	r2, [r3, #36]	@ float
 2626              		.loc 1 1882 0
 2627 003a 154A     		ldr	r2, .L222+40
 2628              		.loc 1 1870 0
 2629 003c C3F828B0 		str	fp, [r3, #40]	@ float
 2630              		.loc 1 1871 0
 2631 0040 C3F82CA0 		str	r10, [r3, #44]	@ float
 2632              		.loc 1 1872 0
 2633 0044 C3F83090 		str	r9, [r3, #48]	@ float
 2634              		.loc 1 1873 0
 2635 0048 C3F83480 		str	r8, [r3, #52]	@ float
 2636              		.loc 1 1874 0
 2637 004c C3F838C0 		str	ip, [r3, #56]	@ float
 2638              		.loc 1 1875 0
 2639 0050 C3F83CE0 		str	lr, [r3, #60]	@ float
 2640              		.loc 1 1876 0
 2641 0054 1F64     		str	r7, [r3, #64]	@ float
 2642              		.loc 1 1877 0
 2643 0056 5E64     		str	r6, [r3, #68]	@ float
 2644              		.loc 1 1878 0
 2645 0058 9D64     		str	r5, [r3, #72]	@ float
 2646              		.loc 1 1879 0
 2647 005a DC64     		str	r4, [r3, #76]	@ float
 2648              		.loc 1 1880 0
 2649 005c 1865     		str	r0, [r3, #80]	@ float
 2650              		.loc 1 1881 0
 2651 005e 5965     		str	r1, [r3, #84]	@ float
 2652              		.loc 1 1882 0
 2653 0060 9A65     		str	r2, [r3, #88]	@ float
 2654 0062 BDE8F08F 		pop	{r4, r5, r6, r7, r8, r9, r10, fp, pc}
 2655              	.L223:
 2656 0066 00BF     		.align	2
 2657              	.L222:
 2658 0068 00000000 		.word	.LANCHOR20
 2659 006c CDCCCC3E 		.word	1053609165
 2660 0070 33C4D1B5 		.word	-1244543949
 2661 0074 460BD5B5 		.word	-1244329146
ARM GAS  /var/folders/7z/kps_xzfj7sn5l5gkyq8s9db00000gn/T//ccvBF34a.s 			page 48


 2662 0078 BCFCEBB5 		.word	-1242825540
 2663 007c CD43EFB5 		.word	-1242610739
 2664 0080 DD8AF2B5 		.word	-1242395939
 2665 0084 EDD1F5B5 		.word	-1242181139
 2666 0088 FE18F9B5 		.word	-1241966338
 2667 008c 0E60FCB5 		.word	-1241751538
 2668 0090 1EA7FFB5 		.word	-1241536738
 2669 0094 5752D8B5 		.word	-1244114345
 2670 0098 6799DBB5 		.word	-1243899545
 2671 009c 78E0DEB5 		.word	-1243684744
 2672 00a0 8827E2B5 		.word	-1243469944
 2673 00a4 986EE5B5 		.word	-1243255144
 2674 00a8 AAB5E8B5 		.word	-1243040342
 2675              		.cfi_endproc
 2676              	.LFE144:
 2677              		.size	FWInit, .-FWInit
 2678 00ac AFF30080 		.section	.text.mcpwm_init,"ax",%progbits
 2679              		.align	2
 2680              		.p2align 4,,15
 2681              		.global	mcpwm_init
 2682              		.thumb
 2683              		.thumb_func
 2684              		.type	mcpwm_init, %function
 2685              	mcpwm_init:
 2686              	.LFB119:
 2687              		.loc 1 286 0
 2688              		.cfi_startproc
 2689              		@ args = 0, pretend = 0, frame = 152
 2690              		@ frame_needed = 0, uses_anonymous_args = 0
 2691              	.LVL98:
 2692 0000 2DE9F04F 		push	{r4, r5, r6, r7, r8, r9, r10, fp, lr}
 2693              		.cfi_def_cfa_offset 36
 2694              		.cfi_offset 4, -36
 2695              		.cfi_offset 5, -32
 2696              		.cfi_offset 6, -28
 2697              		.cfi_offset 7, -24
 2698              		.cfi_offset 8, -20
 2699              		.cfi_offset 9, -16
 2700              		.cfi_offset 10, -12
 2701              		.cfi_offset 11, -8
 2702              		.cfi_offset 14, -4
 2703 0004 A9B0     		sub	sp, sp, #164
 2704              		.cfi_def_cfa_offset 200
 2705              		.loc 1 287 0
 2706 0006 FFF7FEFF 		bl	utils_sys_lock_cnt
 2707              	.LVL99:
 2708              		.loc 1 295 0
 2709 000a D94B     		ldr	r3, .L231
 2710              		.loc 1 298 0
 2711 000c D94E     		ldr	r6, .L231+4
 2712              		.loc 1 299 0
 2713 000e DA4F     		ldr	r7, .L231+8
 2714              		.loc 1 309 0
 2715 0010 DFF890B3 		ldr	fp, .L231+52
 2716              		.loc 1 295 0
 2717 0014 0024     		movs	r4, #0
 2718 0016 1C70     		strb	r4, [r3]
ARM GAS  /var/folders/7z/kps_xzfj7sn5l5gkyq8s9db00000gn/T//ccvBF34a.s 			page 49


 2719              		.loc 1 296 0
 2720 0018 D84B     		ldr	r3, .L231+12
 2721              		.loc 1 298 0
 2722 001a 3046     		mov	r0, r6
 2723              		.loc 1 296 0
 2724 001c 1C70     		strb	r4, [r3]
 2725              		.loc 1 298 0
 2726 001e FFF7FEFF 		bl	TIM_DeInit
 2727              	.LVL100:
 2728              		.loc 1 299 0
 2729 0022 3846     		mov	r0, r7
 2730 0024 FFF7FEFF 		bl	TIM_DeInit
 2731              	.LVL101:
 2732              		.loc 1 304 0
 2733 0028 0120     		movs	r0, #1
 2734 002a 0146     		mov	r1, r0
 2735              		.loc 1 300 0
 2736 002c 7462     		str	r4, [r6, #36]
 2737              		.loc 1 301 0
 2738 002e 7C62     		str	r4, [r7, #36]
 2739              		.loc 1 311 0
 2740 0030 0125     		movs	r5, #1
 2741              		.loc 1 304 0
 2742 0032 FFF7FEFF 		bl	RCC_APB2PeriphClockCmd
 2743              	.LVL102:
 2744              		.loc 1 308 0
 2745 0036 4FF0200E 		mov	lr, #32
 2746              		.loc 1 313 0
 2747 003a 3046     		mov	r0, r6
 2748 003c 03A9     		add	r1, sp, #12
 2749              		.loc 1 309 0
 2750 003e DBF80020 		ldr	r2, [fp]
 2751              		.loc 1 308 0
 2752 0042 ADF80EE0 		strh	lr, [sp, #14]	@ movhi
 2753              		.loc 1 307 0
 2754 0046 ADF80C40 		strh	r4, [sp, #12]	@ movhi
 2755              		.loc 1 310 0
 2756 004a ADF81440 		strh	r4, [sp, #20]	@ movhi
 2757              		.loc 1 309 0
 2758 004e CC4B     		ldr	r3, .L231+16
 2759              		.loc 1 311 0
 2760 0050 8DF81650 		strb	r5, [sp, #22]
 2761              		.loc 1 309 0
 2762 0054 93FBF2F3 		sdiv	r3, r3, r2
 2763 0058 0493     		str	r3, [sp, #16]
 2764              		.loc 1 313 0
 2765 005a FFF7FEFF 		bl	TIM_TimeBaseInit
 2766              	.LVL103:
 2767              		.loc 1 319 0
 2768 005e F36A     		ldr	r3, [r6, #44]
 2769              		.loc 1 317 0
 2770 0060 ADF83A50 		strh	r5, [sp, #58]	@ movhi
 2771              		.loc 1 319 0
 2772 0064 EB40     		lsrs	r3, r3, r5
 2773 0066 1093     		str	r3, [sp, #64]
 2774              		.loc 1 316 0
 2775 0068 6023     		movs	r3, #96
ARM GAS  /var/folders/7z/kps_xzfj7sn5l5gkyq8s9db00000gn/T//ccvBF34a.s 			page 50


 2776              		.loc 1 322 0
 2777 006a 4FF48078 		mov	r8, #256
 2778              		.loc 1 318 0
 2779 006e 4FF00409 		mov	r9, #4
 2780              		.loc 1 325 0
 2781 0072 3046     		mov	r0, r6
 2782 0074 0EA9     		add	r1, sp, #56
 2783              		.loc 1 316 0
 2784 0076 ADF83830 		strh	r3, [sp, #56]	@ movhi
 2785              		.loc 1 323 0
 2786 007a 4FF40073 		mov	r3, #512
 2787 007e ADF84A30 		strh	r3, [sp, #74]	@ movhi
 2788              		.loc 1 320 0
 2789 0082 ADF84440 		strh	r4, [sp, #68]	@ movhi
 2790              		.loc 1 321 0
 2791 0086 ADF84640 		strh	r4, [sp, #70]	@ movhi
 2792              		.loc 1 318 0
 2793 008a ADF83C90 		strh	r9, [sp, #60]	@ movhi
 2794              		.loc 1 322 0
 2795 008e ADF84880 		strh	r8, [sp, #72]	@ movhi
 2796              		.loc 1 325 0
 2797 0092 FFF7FEFF 		bl	TIM_OC1Init
 2798              	.LVL104:
 2799              		.loc 1 326 0
 2800 0096 3046     		mov	r0, r6
 2801 0098 0EA9     		add	r1, sp, #56
 2802 009a FFF7FEFF 		bl	TIM_OC2Init
 2803              	.LVL105:
 2804              		.loc 1 327 0
 2805 009e 3046     		mov	r0, r6
 2806 00a0 0EA9     		add	r1, sp, #56
 2807 00a2 FFF7FEFF 		bl	TIM_OC3Init
 2808              	.LVL106:
 2809              		.loc 1 328 0
 2810 00a6 3046     		mov	r0, r6
 2811 00a8 0EA9     		add	r1, sp, #56
 2812 00aa FFF7FEFF 		bl	TIM_OC4Init
 2813              	.LVL107:
 2814              		.loc 1 330 0
 2815 00ae 3046     		mov	r0, r6
 2816 00b0 0821     		movs	r1, #8
 2817 00b2 FFF7FEFF 		bl	TIM_OC1PreloadConfig
 2818              	.LVL108:
 2819              		.loc 1 331 0
 2820 00b6 3046     		mov	r0, r6
 2821 00b8 0821     		movs	r1, #8
 2822 00ba FFF7FEFF 		bl	TIM_OC2PreloadConfig
 2823              	.LVL109:
 2824              		.loc 1 332 0
 2825 00be 3046     		mov	r0, r6
 2826 00c0 0821     		movs	r1, #8
 2827 00c2 FFF7FEFF 		bl	TIM_OC3PreloadConfig
 2828              	.LVL110:
 2829              		.loc 1 333 0
 2830 00c6 3046     		mov	r0, r6
 2831 00c8 0821     		movs	r1, #8
 2832 00ca FFF7FEFF 		bl	TIM_OC4PreloadConfig
ARM GAS  /var/folders/7z/kps_xzfj7sn5l5gkyq8s9db00000gn/T//ccvBF34a.s 			page 51


 2833              	.LVL111:
 2834              		.loc 1 339 0
 2835 00ce 5023     		movs	r3, #80
 2836              		.loc 1 336 0
 2837 00d0 4FF4006A 		mov	r10, #2048
 2838              		.loc 1 344 0
 2839 00d4 3046     		mov	r0, r6
 2840 00d6 06A9     		add	r1, sp, #24
 2841              		.loc 1 339 0
 2842 00d8 ADF81E30 		strh	r3, [sp, #30]	@ movhi
 2843              		.loc 1 341 0
 2844 00dc 4FF40053 		mov	r3, #8192
 2845 00e0 ADF82230 		strh	r3, [sp, #34]	@ movhi
 2846              		.loc 1 336 0
 2847 00e4 ADF818A0 		strh	r10, [sp, #24]	@ movhi
 2848              		.loc 1 337 0
 2849 00e8 ADF81AA0 		strh	r10, [sp, #26]	@ movhi
 2850              		.loc 1 338 0
 2851 00ec ADF81C40 		strh	r4, [sp, #28]	@ movhi
 2852              		.loc 1 340 0
 2853 00f0 ADF82040 		strh	r4, [sp, #32]	@ movhi
 2854              		.loc 1 342 0
 2855 00f4 ADF82440 		strh	r4, [sp, #36]	@ movhi
 2856              		.loc 1 344 0
 2857 00f8 FFF7FEFF 		bl	TIM_BDTRConfig
 2858              	.LVL112:
 2859              		.loc 1 345 0
 2860 00fc 3046     		mov	r0, r6
 2861 00fe 2946     		mov	r1, r5
 2862 0100 FFF7FEFF 		bl	TIM_CCPreloadControl
 2863              	.LVL113:
 2864              		.loc 1 346 0
 2865 0104 3046     		mov	r0, r6
 2866 0106 2946     		mov	r1, r5
 2867 0108 FFF7FEFF 		bl	TIM_ARRPreloadConfig
 2868              	.LVL114:
 2869              		.loc 1 356 0
 2870 010c 2946     		mov	r1, r5
 2871 010e 9D48     		ldr	r0, .L231+20
 2872 0110 FFF7FEFF 		bl	RCC_AHB1PeriphClockCmd
 2873              	.LVL115:
 2874              		.loc 1 357 0
 2875 0114 2946     		mov	r1, r5
 2876 0116 4FF4E060 		mov	r0, #1792
 2877 011a FFF7FEFF 		bl	RCC_APB2PeriphClockCmd
 2878              	.LVL116:
 2879              		.loc 1 359 0
 2880 011e 2346     		mov	r3, r4
 2881 0120 994A     		ldr	r2, .L231+24
 2882 0122 9A48     		ldr	r0, .L231+28
 2883 0124 0321     		movs	r1, #3
 2884 0126 FFF7FEFF 		bl	dmaStreamAllocate
 2885              	.LVL117:
 2886              		.loc 1 370 0
 2887 012a 4FF40051 		mov	r1, #8192
 2888              		.loc 1 363 0
 2889 012e DFF878C2 		ldr	ip, .L231+56
ARM GAS  /var/folders/7z/kps_xzfj7sn5l5gkyq8s9db00000gn/T//ccvBF34a.s 			page 52


 2890              		.loc 1 364 0
 2891 0132 DFF878E2 		ldr	lr, .L231+60
 2892              		.loc 1 377 0
 2893 0136 9648     		ldr	r0, .L231+32
 2894              		.loc 1 369 0
 2895 0138 CDF880A0 		str	r10, [sp, #128]
 2896              		.loc 1 372 0
 2897 013c 4FF40033 		mov	r3, #131072
 2898              		.loc 1 368 0
 2899 0140 4FF48062 		mov	r2, #1024
 2900              		.loc 1 366 0
 2901 0144 4FF00C0A 		mov	r10, #12
 2902              		.loc 1 370 0
 2903 0148 2191     		str	r1, [sp, #132]
 2904              		.loc 1 377 0
 2905 014a 19A9     		add	r1, sp, #100
 2906              		.loc 1 363 0
 2907 014c CDF86CC0 		str	ip, [sp, #108]
 2908              		.loc 1 364 0
 2909 0150 CDF868E0 		str	lr, [sp, #104]
 2910              		.loc 1 372 0
 2911 0154 2393     		str	r3, [sp, #140]
 2912              		.loc 1 368 0
 2913 0156 1F92     		str	r2, [sp, #124]
 2914              		.loc 1 362 0
 2915 0158 1994     		str	r4, [sp, #100]
 2916              		.loc 1 365 0
 2917 015a 1C94     		str	r4, [sp, #112]
 2918              		.loc 1 367 0
 2919 015c 1E94     		str	r4, [sp, #120]
 2920              		.loc 1 371 0
 2921 015e CDF88880 		str	r8, [sp, #136]
 2922              		.loc 1 373 0
 2923 0162 2494     		str	r4, [sp, #144]
 2924              		.loc 1 374 0
 2925 0164 2594     		str	r4, [sp, #148]
 2926              		.loc 1 375 0
 2927 0166 2694     		str	r4, [sp, #152]
 2928              		.loc 1 376 0
 2929 0168 2794     		str	r4, [sp, #156]
 2930              		.loc 1 366 0
 2931 016a CDF874A0 		str	r10, [sp, #116]
 2932              		.loc 1 377 0
 2933 016e FFF7FEFF 		bl	DMA_Init
 2934              	.LVL118:
 2935              		.loc 1 380 0
 2936 0172 2946     		mov	r1, r5
 2937 0174 8648     		ldr	r0, .L231+32
 2938 0176 FFF7FEFF 		bl	DMA_Cmd
 2939              	.LVL119:
 2940              		.loc 1 383 0
 2941 017a 1021     		movs	r1, #16
 2942 017c 2A46     		mov	r2, r5
 2943 017e 8448     		ldr	r0, .L231+32
 2944 0180 FFF7FEFF 		bl	DMA_ITConfig
 2945              	.LVL120:
 2946              		.loc 1 388 0
ARM GAS  /var/folders/7z/kps_xzfj7sn5l5gkyq8s9db00000gn/T//ccvBF34a.s 			page 53


 2947 0184 1622     		movs	r2, #22
 2948              		.loc 1 390 0
 2949 0186 4FF48043 		mov	r3, #16384
 2950              		.loc 1 392 0
 2951 018a 0AA8     		add	r0, sp, #40
 2952              		.loc 1 388 0
 2953 018c 0A92     		str	r2, [sp, #40]
 2954              		.loc 1 390 0
 2955 018e 0C93     		str	r3, [sp, #48]
 2956              		.loc 1 389 0
 2957 0190 0B94     		str	r4, [sp, #44]
 2958              		.loc 1 391 0
 2959 0192 0D94     		str	r4, [sp, #52]
 2960              		.loc 1 392 0
 2961 0194 FFF7FEFF 		bl	ADC_CommonInit
 2962              	.LVL121:
 2963              		.loc 1 399 0
 2964 0198 4FF05063 		mov	r3, #218103808
 2965              		.loc 1 398 0
 2966 019c 4FF00052 		mov	r2, #536870912
 2967              		.loc 1 403 0
 2968 01a0 13A9     		add	r1, sp, #76
 2969 01a2 7C48     		ldr	r0, .L231+36
 2970              		.loc 1 399 0
 2971 01a4 1693     		str	r3, [sp, #88]
 2972              		.loc 1 398 0
 2973 01a6 1592     		str	r2, [sp, #84]
 2974              		.loc 1 395 0
 2975 01a8 1394     		str	r4, [sp, #76]
 2976              		.loc 1 396 0
 2977 01aa 8DF85050 		strb	r5, [sp, #80]
 2978              		.loc 1 397 0
 2979 01ae 8DF85140 		strb	r4, [sp, #81]
 2980              		.loc 1 400 0
 2981 01b2 1794     		str	r4, [sp, #92]
 2982              		.loc 1 401 0
 2983 01b4 8DF86090 		strb	r9, [sp, #96]
 2984              		.loc 1 403 0
 2985 01b8 FFF7FEFF 		bl	ADC_Init
 2986              	.LVL122:
 2987              		.loc 1 406 0
 2988 01bc 13A9     		add	r1, sp, #76
 2989 01be 7648     		ldr	r0, .L231+40
 2990              		.loc 1 404 0
 2991 01c0 1594     		str	r4, [sp, #84]
 2992              		.loc 1 405 0
 2993 01c2 1694     		str	r4, [sp, #88]
 2994              		.loc 1 406 0
 2995 01c4 FFF7FEFF 		bl	ADC_Init
 2996              	.LVL123:
 2997              		.loc 1 407 0
 2998 01c8 13A9     		add	r1, sp, #76
 2999 01ca 7448     		ldr	r0, .L231+44
 3000 01cc FFF7FEFF 		bl	ADC_Init
 3001              	.LVL124:
 3002              		.loc 1 409 0
 3003 01d0 FFF7FEFF 		bl	hw_setup_adc_channels
ARM GAS  /var/folders/7z/kps_xzfj7sn5l5gkyq8s9db00000gn/T//ccvBF34a.s 			page 54


 3004              	.LVL125:
 3005              		.loc 1 412 0
 3006 01d4 2846     		mov	r0, r5
 3007 01d6 FFF7FEFF 		bl	ADC_MultiModeDMARequestAfterLastTransferCmd
 3008              	.LVL126:
 3009              		.loc 1 415 0
 3010 01da 6E48     		ldr	r0, .L231+36
 3011 01dc 4FF44021 		mov	r1, #786432
 3012 01e0 FFF7FEFF 		bl	ADC_ExternalTrigInjectedConvConfig
 3013              	.LVL127:
 3014              		.loc 1 416 0
 3015 01e4 6C48     		ldr	r0, .L231+40
 3016 01e6 4FF45021 		mov	r1, #851968
 3017 01ea FFF7FEFF 		bl	ADC_ExternalTrigInjectedConvConfig
 3018              	.LVL128:
 3019              		.loc 1 417 0
 3020 01ee 6948     		ldr	r0, .L231+36
 3021 01f0 4FF40011 		mov	r1, #2097152
 3022 01f4 FFF7FEFF 		bl	ADC_ExternalTrigInjectedConvEdgeConfig
 3023              	.LVL129:
 3024              		.loc 1 418 0
 3025 01f8 6748     		ldr	r0, .L231+40
 3026 01fa 4FF40011 		mov	r1, #2097152
 3027 01fe FFF7FEFF 		bl	ADC_ExternalTrigInjectedConvEdgeConfig
 3028              	.LVL130:
 3029              		.loc 1 419 0
 3030 0202 2946     		mov	r1, r5
 3031 0204 6348     		ldr	r0, .L231+36
 3032 0206 FFF7FEFF 		bl	ADC_InjectedSequencerLengthConfig
 3033              	.LVL131:
 3034              		.loc 1 420 0
 3035 020a 2946     		mov	r1, r5
 3036 020c 6248     		ldr	r0, .L231+40
 3037 020e FFF7FEFF 		bl	ADC_InjectedSequencerLengthConfig
 3038              	.LVL132:
 3039              		.loc 1 423 0
 3040 0212 40F20741 		movw	r1, #1031
 3041 0216 2A46     		mov	r2, r5
 3042 0218 5E48     		ldr	r0, .L231+36
 3043 021a FFF7FEFF 		bl	ADC_ITConfig
 3044              	.LVL133:
 3045              		.loc 1 425 0
 3046 021e 0323     		movs	r3, #3
 3047              		.loc 1 424 0
 3048 0220 1222     		movs	r2, #18
 3049              		.loc 1 428 0
 3050 0222 02A8     		add	r0, sp, #8
 3051              		.loc 1 424 0
 3052 0224 8DF80820 		strb	r2, [sp, #8]
 3053              		.loc 1 425 0
 3054 0228 8DF80930 		strb	r3, [sp, #9]
 3055              		.loc 1 426 0
 3056 022c 8DF80A30 		strb	r3, [sp, #10]
 3057              		.loc 1 427 0
 3058 0230 8DF80B50 		strb	r5, [sp, #11]
 3059              		.loc 1 428 0
 3060 0234 FFF7FEFF 		bl	NVIC_Init
ARM GAS  /var/folders/7z/kps_xzfj7sn5l5gkyq8s9db00000gn/T//ccvBF34a.s 			page 55


 3061              	.LVL134:
 3062              		.loc 1 431 0
 3063 0238 2946     		mov	r1, r5
 3064 023a 5648     		ldr	r0, .L231+36
 3065 023c FFF7FEFF 		bl	ADC_Cmd
 3066              	.LVL135:
 3067              		.loc 1 434 0
 3068 0240 2946     		mov	r1, r5
 3069 0242 5548     		ldr	r0, .L231+40
 3070 0244 FFF7FEFF 		bl	ADC_Cmd
 3071              	.LVL136:
 3072              		.loc 1 437 0
 3073 0248 2946     		mov	r1, r5
 3074 024a 5448     		ldr	r0, .L231+44
 3075 024c FFF7FEFF 		bl	ADC_Cmd
 3076              	.LVL137:
 3077              		.loc 1 441 0
 3078 0250 2946     		mov	r1, r5
 3079 0252 0220     		movs	r0, #2
 3080 0254 FFF7FEFF 		bl	RCC_APB2PeriphClockCmd
 3081              	.LVL138:
 3082              		.loc 1 449 0
 3083 0258 3846     		mov	r0, r7
 3084 025a 0DEB0A01 		add	r1, sp, r10
 3085              		.loc 1 445 0
 3086 025e DBF80020 		ldr	r2, [fp]
 3087              		.loc 1 443 0
 3088 0262 ADF80C40 		strh	r4, [sp, #12]	@ movhi
 3089              		.loc 1 444 0
 3090 0266 ADF80E40 		strh	r4, [sp, #14]	@ movhi
 3091              		.loc 1 446 0
 3092 026a ADF81440 		strh	r4, [sp, #20]	@ movhi
 3093              		.loc 1 447 0
 3094 026e 8DF81640 		strb	r4, [sp, #22]
 3095              		.loc 1 445 0
 3096 0272 4B4B     		ldr	r3, .L231+48
 3097 0274 93FBF2F3 		sdiv	r3, r3, r2
 3098 0278 0493     		str	r3, [sp, #16]
 3099              		.loc 1 449 0
 3100 027a FFF7FEFF 		bl	TIM_TimeBaseInit
 3101              	.LVL139:
 3102              		.loc 1 451 0
 3103 027e 6022     		movs	r2, #96
 3104              		.loc 1 453 0
 3105 0280 F36A     		ldr	r3, [r6, #44]
 3106              		.loc 1 451 0
 3107 0282 ADF83820 		strh	r2, [sp, #56]	@ movhi
 3108              		.loc 1 458 0
 3109 0286 3846     		mov	r0, r7
 3110              		.loc 1 457 0
 3111 0288 4FF40072 		mov	r2, #512
 3112              		.loc 1 458 0
 3113 028c 0EA9     		add	r1, sp, #56
 3114              		.loc 1 457 0
 3115 028e ADF84A20 		strh	r2, [sp, #74]	@ movhi
 3116              		.loc 1 453 0
 3117 0292 1093     		str	r3, [sp, #64]
ARM GAS  /var/folders/7z/kps_xzfj7sn5l5gkyq8s9db00000gn/T//ccvBF34a.s 			page 56


 3118              		.loc 1 452 0
 3119 0294 ADF83A50 		strh	r5, [sp, #58]	@ movhi
 3120              		.loc 1 454 0
 3121 0298 ADF84440 		strh	r4, [sp, #68]	@ movhi
 3122              		.loc 1 455 0
 3123 029c ADF84640 		strh	r4, [sp, #70]	@ movhi
 3124              		.loc 1 456 0
 3125 02a0 ADF84880 		strh	r8, [sp, #72]	@ movhi
 3126              		.loc 1 458 0
 3127 02a4 FFF7FEFF 		bl	TIM_OC1Init
 3128              	.LVL140:
 3129 02a8 3846     		mov	r0, r7
 3130 02aa 0821     		movs	r1, #8
 3131 02ac FFF7FEFF 		bl	TIM_OC1PreloadConfig
 3132              	.LVL141:
 3133              		.loc 1 459 0
 3134 02b0 3846     		mov	r0, r7
 3135 02b2 0EA9     		add	r1, sp, #56
 3136 02b4 FFF7FEFF 		bl	TIM_OC2Init
 3137              	.LVL142:
 3138 02b8 3846     		mov	r0, r7
 3139 02ba 0821     		movs	r1, #8
 3140 02bc FFF7FEFF 		bl	TIM_OC2PreloadConfig
 3141              	.LVL143:
 3142              		.loc 1 460 0
 3143 02c0 3846     		mov	r0, r7
 3144 02c2 0EA9     		add	r1, sp, #56
 3145 02c4 FFF7FEFF 		bl	TIM_OC3Init
 3146              	.LVL144:
 3147 02c8 3846     		mov	r0, r7
 3148 02ca 0821     		movs	r1, #8
 3149 02cc FFF7FEFF 		bl	TIM_OC3PreloadConfig
 3150              	.LVL145:
 3151              		.loc 1 462 0
 3152 02d0 3846     		mov	r0, r7
 3153 02d2 2946     		mov	r1, r5
 3154 02d4 FFF7FEFF 		bl	TIM_ARRPreloadConfig
 3155              	.LVL146:
 3156              		.loc 1 463 0
 3157 02d8 3846     		mov	r0, r7
 3158 02da 2946     		mov	r1, r5
 3159 02dc FFF7FEFF 		bl	TIM_CCPreloadControl
 3160              	.LVL147:
 3161              		.loc 1 466 0
 3162 02e0 3846     		mov	r0, r7
 3163 02e2 2946     		mov	r1, r5
 3164 02e4 FFF7FEFF 		bl	TIM_CtrlPWMOutputs
 3165              	.LVL148:
 3166              		.loc 1 469 0
 3167 02e8 3046     		mov	r0, r6
 3168 02ea 2021     		movs	r1, #32
 3169 02ec FFF7FEFF 		bl	TIM_SelectOutputTrigger
 3170              	.LVL149:
 3171              		.loc 1 470 0
 3172 02f0 3046     		mov	r0, r6
 3173 02f2 8021     		movs	r1, #128
 3174 02f4 FFF7FEFF 		bl	TIM_SelectMasterSlaveMode
ARM GAS  /var/folders/7z/kps_xzfj7sn5l5gkyq8s9db00000gn/T//ccvBF34a.s 			page 57


 3175              	.LVL150:
 3176              		.loc 1 471 0
 3177 02f8 3846     		mov	r0, r7
 3178 02fa 2146     		mov	r1, r4
 3179 02fc FFF7FEFF 		bl	TIM_SelectInputTrigger
 3180              	.LVL151:
 3181              		.loc 1 472 0
 3182 0300 3846     		mov	r0, r7
 3183 0302 4946     		mov	r1, r9
 3184 0304 FFF7FEFF 		bl	TIM_SelectSlaveMode
 3185              	.LVL152:
 3186              		.loc 1 475 0
 3187 0308 3846     		mov	r0, r7
 3188 030a 2946     		mov	r1, r5
 3189 030c FFF7FEFF 		bl	TIM_Cmd
 3190              	.LVL153:
 3191              		.loc 1 478 0
 3192 0310 3046     		mov	r0, r6
 3193 0312 2946     		mov	r1, r5
 3194 0314 FFF7FEFF 		bl	TIM_Cmd
 3195              	.LVL154:
 3196              		.loc 1 481 0
 3197 0318 3046     		mov	r0, r6
 3198 031a 2946     		mov	r1, r5
 3199 031c FFF7FEFF 		bl	TIM_CtrlPWMOutputs
 3200              	.LVL155:
 3201              		.loc 1 484 0
 3202 0320 2846     		mov	r0, r5
 3203 0322 2946     		mov	r1, r5
 3204 0324 FFF7FEFF 		bl	RCC_APB1PeriphClockCmd
 3205              	.LVL156:
 3206              		.loc 1 488 0
 3207 0328 4FF0FF32 		mov	r2, #-1
 3208              		.loc 1 489 0
 3209 032c 5323     		movs	r3, #83
 3210              		.loc 1 492 0
 3211 032e 0DEB0A01 		add	r1, sp, r10
 3212 0332 4FF08040 		mov	r0, #1073741824
 3213              		.loc 1 488 0
 3214 0336 0492     		str	r2, [sp, #16]
 3215              		.loc 1 489 0
 3216 0338 ADF80C30 		strh	r3, [sp, #12]	@ movhi
 3217              		.loc 1 490 0
 3218 033c ADF81440 		strh	r4, [sp, #20]	@ movhi
 3219              		.loc 1 491 0
 3220 0340 ADF80E40 		strh	r4, [sp, #14]	@ movhi
 3221              		.loc 1 492 0
 3222 0344 FFF7FEFF 		bl	TIM_TimeBaseInit
 3223              	.LVL157:
 3224              		.loc 1 495 0
 3225 0348 2946     		mov	r1, r5
 3226 034a 4FF08040 		mov	r0, #1073741824
 3227 034e FFF7FEFF 		bl	TIM_Cmd
 3228              	.LVL158:
 3229              		.loc 1 500 0
 3230 0352 FFF7FEFF 		bl	utils_sys_lock_cnt
 3231              	.LVL159:
ARM GAS  /var/folders/7z/kps_xzfj7sn5l5gkyq8s9db00000gn/T//ccvBF34a.s 			page 58


 3232              		.loc 1 503 0
 3233 0356 3388     		ldrh	r3, [r6]
 3234 0358 9BB2     		uxth	r3, r3
 3235 035a 43F00203 		orr	r3, r3, #2
 3236 035e 3380     		strh	r3, [r6]	@ movhi
 3237              		.loc 1 504 0
 3238 0360 3B88     		ldrh	r3, [r7]
 3239 0362 9BB2     		uxth	r3, r3
 3240              		.loc 1 506 0
 3241 0364 4FF4FA72 		mov	r2, #500
 3242              		.loc 1 504 0
 3243 0368 43F00203 		orr	r3, r3, #2
 3244 036c 20E0     		b	.L232
 3245              	.L233:
 3246 036e 00BF     		.align	2
 3247              	.L231:
 3248 0370 00000000 		.word	.LANCHOR36
 3249 0374 00000140 		.word	1073807360
 3250 0378 00040140 		.word	1073808384
 3251 037c 00000000 		.word	.LANCHOR37
 3252 0380 00BD0105 		.word	84000000
 3253 0384 05004000 		.word	4194309
 3254 0388 00000000 		.word	mcpwm_adc_int_handler
 3255 038c 90000000 		.word	_stm32_dma_streams+144
 3256 0390 70640240 		.word	1073898608
 3257 0394 00200140 		.word	1073815552
 3258 0398 00210140 		.word	1073815808
 3259 039c 00220140 		.word	1073816064
 3260 03a0 007A030A 		.word	168000000
 3261 03a4 00000000 		.word	.LANCHOR38
 3262 03a8 00000000 		.word	.LANCHOR4
 3263 03ac 08230140 		.word	1073816328
 3264              	.L232:
 3265 03b0 3B80     		strh	r3, [r7]	@ movhi
 3266              		.loc 1 506 0
 3267 03b2 7A63     		str	r2, [r7, #52]
 3268              		.loc 1 507 0
 3269 03b4 F36A     		ldr	r3, [r6, #44]
 3270 03b6 BB63     		str	r3, [r7, #56]
 3271              		.loc 1 508 0
 3272 03b8 F36A     		ldr	r3, [r6, #44]
 3273 03ba FB63     		str	r3, [r7, #60]
 3274              		.loc 1 511 0
 3275 03bc 3388     		ldrh	r3, [r6]
 3276 03be 23F00203 		bic	r3, r3, #2
 3277 03c2 1B04     		lsls	r3, r3, #16
 3278 03c4 1B0C     		lsrs	r3, r3, #16
 3279 03c6 3380     		strh	r3, [r6]	@ movhi
 3280              		.loc 1 512 0
 3281 03c8 3B88     		ldrh	r3, [r7]
 3282 03ca 23F00203 		bic	r3, r3, #2
 3283 03ce 1B04     		lsls	r3, r3, #16
 3284 03d0 1B0C     		lsrs	r3, r3, #16
 3285 03d2 3B80     		strh	r3, [r7]	@ movhi
 3286              		.loc 1 514 0
 3287 03d4 FFF7FEFF 		bl	utils_sys_unlock_cnt
 3288              	.LVL160:
ARM GAS  /var/folders/7z/kps_xzfj7sn5l5gkyq8s9db00000gn/T//ccvBF34a.s 			page 59


 3289              		.loc 1 518 0
 3290 03d8 384B     		ldr	r3, .L234
 3291              	.LBB68:
 3292              	.LBB69:
 3293              		.loc 1 584 0
 3294 03da 394A     		ldr	r2, .L234+4
 3295              	.LBE69:
 3296              	.LBE68:
 3297              		.loc 1 519 0
 3298 03dc 8021     		movs	r1, #128
 3299              		.loc 1 518 0
 3300 03de 4020     		movs	r0, #64
 3301 03e0 1883     		strh	r0, [r3, #24]	@ movhi
 3302              		.loc 1 519 0
 3303 03e2 5983     		strh	r1, [r3, #26]	@ movhi
 3304              		.loc 1 520 0
 3305 03e4 A3F81A80 		strh	r8, [r3, #26]	@ movhi
 3306              	.LBB72:
 3307              	.LBB70:
 3308              		.loc 1 583 0
 3309 03e8 1983     		strh	r1, [r3, #24]	@ movhi
 3310              	.L225:
 3311              		.loc 1 584 0
 3312 03ea 1369     		ldr	r3, [r2, #16]
 3313 03ec DB04     		lsls	r3, r3, #19
 3314 03ee FCD5     		bpl	.L225
 3315              		.loc 1 585 0
 3316 03f0 42F21070 		movw	r0, #10000
 3317 03f4 FFF7FEFF 		bl	chThdSleep
 3318              	.LVL161:
 3319              		.loc 1 586 0
 3320 03f8 324C     		ldr	r4, .L234+8
 3321              		.loc 1 587 0
 3322 03fa 3348     		ldr	r0, .L234+12
 3323              		.loc 1 588 0
 3324 03fc 3349     		ldr	r1, .L234+16
 3325              		.loc 1 586 0
 3326 03fe 0023     		movs	r3, #0
 3327 0400 2360     		str	r3, [r4]
 3328              		.loc 1 587 0
 3329 0402 0360     		str	r3, [r0]
 3330              		.loc 1 588 0
 3331 0404 0B60     		str	r3, [r1]
 3332              	.L226:
 3333              		.loc 1 589 0
 3334 0406 0B68     		ldr	r3, [r1]
 3335 0408 304A     		ldr	r2, .L234+16
 3336 040a B3F57A6F 		cmp	r3, #4000
 3337 040e FADB     		blt	.L226
 3338              		.loc 1 590 0
 3339 0410 2F49     		ldr	r1, .L234+20
 3340              		.loc 1 591 0
 3341 0412 304F     		ldr	r7, .L234+24
 3342              		.loc 1 590 0
 3343 0414 2368     		ldr	r3, [r4]
 3344              		.loc 1 592 0
 3345 0416 294E     		ldr	r6, .L234
ARM GAS  /var/folders/7z/kps_xzfj7sn5l5gkyq8s9db00000gn/T//ccvBF34a.s 			page 60


 3346              		.loc 1 590 0
 3347 0418 1468     		ldr	r4, [r2]
 3348 041a 93FBF4F3 		sdiv	r3, r3, r4
 3349 041e 0B60     		str	r3, [r1]
 3350              		.loc 1 591 0
 3351 0420 0368     		ldr	r3, [r0]
 3352 0422 1268     		ldr	r2, [r2]
 3353 0424 93FBF2F3 		sdiv	r3, r3, r2
 3354              		.loc 1 593 0
 3355 0428 0125     		movs	r5, #1
 3356              		.loc 1 591 0
 3357 042a 3B60     		str	r3, [r7]
 3358              		.loc 1 592 0
 3359 042c 8024     		movs	r4, #128
 3360              		.loc 1 593 0
 3361 042e 2A4B     		ldr	r3, .L234+28
 3362              		.loc 1 592 0
 3363 0430 7483     		strh	r4, [r6, #26]	@ movhi
 3364              	.LBE70:
 3365              	.LBE72:
 3366              		.loc 1 525 0
 3367 0432 2946     		mov	r1, r5
 3368 0434 4020     		movs	r0, #64
 3369              		.loc 1 531 0
 3370 0436 0024     		movs	r4, #0
 3371              	.LBB73:
 3372              	.LBB71:
 3373              		.loc 1 593 0
 3374 0438 1D70     		strb	r5, [r3]
 3375              	.LBE71:
 3376              	.LBE73:
 3377              		.loc 1 525 0
 3378 043a FFF7FEFF 		bl	RCC_APB1PeriphClockCmd
 3379              	.LVL162:
 3380              		.loc 1 529 0
 3381 043e 4FF0FF32 		mov	r2, #-1
 3382              		.loc 1 530 0
 3383 0442 0723     		movs	r3, #7
 3384              		.loc 1 533 0
 3385 0444 03A9     		add	r1, sp, #12
 3386 0446 2548     		ldr	r0, .L234+32
 3387              		.loc 1 529 0
 3388 0448 0492     		str	r2, [sp, #16]
 3389              		.loc 1 530 0
 3390 044a ADF80C30 		strh	r3, [sp, #12]	@ movhi
 3391              		.loc 1 531 0
 3392 044e ADF81440 		strh	r4, [sp, #20]	@ movhi
 3393              		.loc 1 532 0
 3394 0452 ADF80E40 		strh	r4, [sp, #14]	@ movhi
 3395              		.loc 1 533 0
 3396 0456 FFF7FEFF 		bl	TIM_TimeBaseInit
 3397              	.LVL163:
 3398              		.loc 1 536 0
 3399 045a 2946     		mov	r1, r5
 3400 045c 1F48     		ldr	r0, .L234+32
 3401              	.LBB74:
 3402              	.LBB75:
ARM GAS  /var/folders/7z/kps_xzfj7sn5l5gkyq8s9db00000gn/T//ccvBF34a.s 			page 61


 3403              		.loc 1 1532 0
 3404 045e 204E     		ldr	r6, .L234+36
 3405              	.LBE75:
 3406              	.LBE74:
 3407              		.loc 1 536 0
 3408 0460 FFF7FEFF 		bl	TIM_Cmd
 3409              	.LVL164:
 3410              		.loc 1 539 0
 3411 0464 1F4B     		ldr	r3, .L234+40
 3412 0466 0094     		str	r4, [sp]
 3413 0468 4022     		movs	r2, #64
 3414 046a 40F69811 		movw	r1, #2456
 3415 046e 1E48     		ldr	r0, .L234+44
 3416 0470 FFF7FEFF 		bl	chThdCreateStatic
 3417              	.LVL165:
 3418              		.loc 1 543 0
 3419 0474 2946     		mov	r1, r5
 3420 0476 4FF40060 		mov	r0, #2048
 3421 047a FFF7FEFF 		bl	RCC_APB1PeriphClockCmd
 3422              	.LVL166:
 3423              		.loc 1 544 0
 3424 047e 2046     		mov	r0, r4
 3425 0480 FFF7FEFF 		bl	WWDG_SetPrescaler
 3426              	.LVL167:
 3427              		.loc 1 545 0
 3428 0484 FF20     		movs	r0, #255
 3429 0486 FFF7FEFF 		bl	WWDG_SetWindowValue
 3430              	.LVL168:
 3431              		.loc 1 546 0
 3432 048a 6420     		movs	r0, #100
 3433 048c FFF7FEFF 		bl	WWDG_Enable
 3434              	.LVL169:
 3435              	.LBB77:
 3436              	.LBB76:
 3437              		.loc 1 1532 0
 3438 0490 164B     		ldr	r3, .L234+48
 3439              		.loc 1 1539 0
 3440 0492 1748     		ldr	r0, .L234+52
 3441              		.loc 1 1540 0
 3442 0494 1749     		ldr	r1, .L234+56
 3443              		.loc 1 1541 0
 3444 0496 184A     		ldr	r2, .L234+60
 3445              		.loc 1 1537 0
 3446 0498 184D     		ldr	r5, .L234+64
 3447              		.loc 1 1532 0
 3448 049a 9E61     		str	r6, [r3, #24]	@ float
 3449              		.loc 1 1537 0
 3450 049c 1D61     		str	r5, [r3, #16]	@ float
 3451              		.loc 1 1539 0
 3452 049e 9863     		str	r0, [r3, #56]	@ float
 3453              		.loc 1 1540 0
 3454 04a0 D963     		str	r1, [r3, #60]	@ float
 3455              		.loc 1 1541 0
 3456 04a2 1A65     		str	r2, [r3, #80]	@ float
 3457              	.LBE76:
 3458              	.LBE77:
 3459              		.loc 1 552 0
ARM GAS  /var/folders/7z/kps_xzfj7sn5l5gkyq8s9db00000gn/T//ccvBF34a.s 			page 62


 3460 04a4 FFF7FEFF 		bl	SetupControlParameters
 3461              	.LVL170:
 3462              		.loc 1 553 0
 3463 04a8 FFF7FEFF 		bl	FWInit
 3464              	.LVL171:
 3465              		.loc 1 564 0
 3466 04ac 144B     		ldr	r3, .L234+68
 3467              		.loc 1 573 0
 3468 04ae 0222     		movs	r2, #2
 3469              		.loc 1 564 0
 3470 04b0 1C80     		strh	r4, [r3]	@ movhi
 3471              		.loc 1 573 0
 3472 04b2 1A70     		strb	r2, [r3]
 3473              		.loc 1 575 0
 3474 04b4 29B0     		add	sp, sp, #164
 3475              		.cfi_def_cfa_offset 36
 3476              		@ sp needed
 3477 04b6 BDE8F08F 		pop	{r4, r5, r6, r7, r8, r9, r10, fp, pc}
 3478              	.L235:
 3479 04ba 00BF     		.align	2
 3480              	.L234:
 3481 04bc 00080240 		.word	1073874944
 3482 04c0 00040240 		.word	1073873920
 3483 04c4 00000000 		.word	.LANCHOR30
 3484 04c8 00000000 		.word	.LANCHOR31
 3485 04cc 00000000 		.word	.LANCHOR32
 3486 04d0 00000000 		.word	.LANCHOR2
 3487 04d4 00000000 		.word	.LANCHOR3
 3488 04d8 00000000 		.word	.LANCHOR37
 3489 04dc 00180040 		.word	1073747968
 3490 04e0 00007C3F 		.word	1065091072
 3491 04e4 00000000 		.word	SEQUENCE_thread
 3492 04e8 00000000 		.word	.LANCHOR39
 3493 04ec 00000000 		.word	.LANCHOR17
 3494 04f0 9A99593F 		.word	1062836634
 3495 04f4 0AD7A33B 		.word	1000593162
 3496 04f8 2FE34D3A 		.word	978182959
 3497 04fc 5555D53D 		.word	1037391189
 3498 0500 00000000 		.word	.LANCHOR13
 3499              		.cfi_endproc
 3500              	.LFE119:
 3501              		.size	mcpwm_init, .-mcpwm_init
 3502 0504 AFF30080 		.section	.text.FieldWeakening,"ax",%progbits
 3502      AFF30080 
 3502      AFF30080 
 3503              		.align	2
 3504              		.p2align 4,,15
 3505              		.global	FieldWeakening
 3506              		.thumb
 3507              		.thumb_func
 3508              		.type	FieldWeakening, %function
 3509              	FieldWeakening:
 3510              	.LFB145:
 3511              		.loc 1 1886 0
 3512              		.cfi_startproc
 3513              		@ args = 0, pretend = 0, frame = 0
 3514              		@ frame_needed = 0, uses_anonymous_args = 0
ARM GAS  /var/folders/7z/kps_xzfj7sn5l5gkyq8s9db00000gn/T//ccvBF34a.s 			page 63


 3515              		@ link register save eliminated.
 3516              	.LVL172:
 3517              		.loc 1 1888 0
 3518 0000 0B4B     		ldr	r3, .L243
 3519 0002 D3ED027A 		flds	s15, [r3, #8]
 3520 0006 F4EEC07A 		fcmpes	s15, s0
 3521 000a F1EE10FA 		fmstat
 3522 000e 0ADA     		bge	.L242
 3523              		.loc 1 1899 0
 3524 0010 70EE677A 		fsubs	s15, s0, s15
 3525 0014 93ED010A 		flds	s0, [r3, #4]
 3526              	.LVL173:
 3527 0018 C3ED057A 		fsts	s15, [r3, #20]
 3528              		.loc 1 1900 0
 3529 001c FDEEE77A 		ftosizs	s15, s15
 3530 0020 C3ED047A 		fsts	s15, [r3, #16]	@ int
 3531              		.loc 1 1911 0
 3532 0024 7047     		bx	lr
 3533              	.LVL174:
 3534              	.L242:
 3535              		.loc 1 1891 0
 3536 0026 93ED070A 		flds	s0, [r3, #28]
 3537              	.LVL175:
 3538 002a 83ED010A 		fsts	s0, [r3, #4]
 3539 002e 7047     		bx	lr
 3540              	.L244:
 3541              		.align	2
 3542              	.L243:
 3543 0030 00000000 		.word	.LANCHOR20
 3544              		.cfi_endproc
 3545              	.LFE145:
 3546              		.size	FieldWeakening, .-FieldWeakening
 3547 0034 AFF30080 		.section	.text.stop_pwm_hw,"ax",%progbits
 3547      AFF30080 
 3547      AFF30080 
 3548              		.align	2
 3549              		.p2align 4,,15
 3550              		.global	stop_pwm_hw
 3551              		.thumb
 3552              		.thumb_func
 3553              		.type	stop_pwm_hw, %function
 3554              	stop_pwm_hw:
 3555              	.LFB147:
 3556              		.loc 1 1944 0
 3557              		.cfi_startproc
 3558              		@ args = 0, pretend = 0, frame = 0
 3559              		@ frame_needed = 0, uses_anonymous_args = 0
 3560 0000 10B5     		push	{r4, lr}
 3561              		.cfi_def_cfa_offset 8
 3562              		.cfi_offset 4, -8
 3563              		.cfi_offset 14, -4
 3564              		.loc 1 1945 0
 3565 0002 1A4C     		ldr	r4, .L247
 3566 0004 0021     		movs	r1, #0
 3567 0006 2046     		mov	r0, r4
 3568 0008 4022     		movs	r2, #64
 3569 000a FFF7FEFF 		bl	TIM_SelectOCxM
ARM GAS  /var/folders/7z/kps_xzfj7sn5l5gkyq8s9db00000gn/T//ccvBF34a.s 			page 64


 3570              	.LVL176:
 3571              		.loc 1 1946 0
 3572 000e 2046     		mov	r0, r4
 3573 0010 0021     		movs	r1, #0
 3574 0012 0122     		movs	r2, #1
 3575 0014 FFF7FEFF 		bl	TIM_CCxCmd
 3576              	.LVL177:
 3577              		.loc 1 1947 0
 3578 0018 0021     		movs	r1, #0
 3579 001a 2046     		mov	r0, r4
 3580 001c 0A46     		mov	r2, r1
 3581 001e FFF7FEFF 		bl	TIM_CCxNCmd
 3582              	.LVL178:
 3583              		.loc 1 1949 0
 3584 0022 2046     		mov	r0, r4
 3585 0024 0421     		movs	r1, #4
 3586 0026 4022     		movs	r2, #64
 3587 0028 FFF7FEFF 		bl	TIM_SelectOCxM
 3588              	.LVL179:
 3589              		.loc 1 1950 0
 3590 002c 2046     		mov	r0, r4
 3591 002e 0421     		movs	r1, #4
 3592 0030 0122     		movs	r2, #1
 3593 0032 FFF7FEFF 		bl	TIM_CCxCmd
 3594              	.LVL180:
 3595              		.loc 1 1951 0
 3596 0036 2046     		mov	r0, r4
 3597 0038 0421     		movs	r1, #4
 3598 003a 0022     		movs	r2, #0
 3599 003c FFF7FEFF 		bl	TIM_CCxNCmd
 3600              	.LVL181:
 3601              		.loc 1 1953 0
 3602 0040 2046     		mov	r0, r4
 3603 0042 0821     		movs	r1, #8
 3604 0044 4022     		movs	r2, #64
 3605 0046 FFF7FEFF 		bl	TIM_SelectOCxM
 3606              	.LVL182:
 3607              		.loc 1 1954 0
 3608 004a 2046     		mov	r0, r4
 3609 004c 0821     		movs	r1, #8
 3610 004e 0122     		movs	r2, #1
 3611 0050 FFF7FEFF 		bl	TIM_CCxCmd
 3612              	.LVL183:
 3613              		.loc 1 1955 0
 3614 0054 2046     		mov	r0, r4
 3615 0056 0821     		movs	r1, #8
 3616 0058 0022     		movs	r2, #0
 3617 005a FFF7FEFF 		bl	TIM_CCxNCmd
 3618              	.LVL184:
 3619              		.loc 1 1957 0
 3620 005e 2046     		mov	r0, r4
 3621 0060 2021     		movs	r1, #32
 3622              		.loc 1 1958 0
 3623 0062 BDE81040 		pop	{r4, lr}
 3624              		.cfi_restore 14
 3625              		.cfi_restore 4
 3626              		.cfi_def_cfa_offset 0
ARM GAS  /var/folders/7z/kps_xzfj7sn5l5gkyq8s9db00000gn/T//ccvBF34a.s 			page 65


 3627              		.loc 1 1957 0
 3628 0066 FFF7FEBF 		b	TIM_GenerateEvent
 3629              	.LVL185:
 3630              	.L248:
 3631 006a 00BF     		.align	2
 3632              	.L247:
 3633 006c 00000140 		.word	1073807360
 3634              		.cfi_endproc
 3635              	.LFE147:
 3636              		.size	stop_pwm_hw, .-stop_pwm_hw
 3637              		.section	.text.mcpwm_get_tot_current,"ax",%progbits
 3638              		.align	2
 3639              		.p2align 4,,15
 3640              		.global	mcpwm_get_tot_current
 3641              		.thumb
 3642              		.thumb_func
 3643              		.type	mcpwm_get_tot_current, %function
 3644              	mcpwm_get_tot_current:
 3645              	.LFB148:
 3646              		.loc 1 1970 0
 3647              		.cfi_startproc
 3648              		@ args = 0, pretend = 0, frame = 0
 3649              		@ frame_needed = 0, uses_anonymous_args = 0
 3650              		@ link register save eliminated.
 3651              		.loc 1 1971 0
 3652 0000 054B     		ldr	r3, .L250
 3653 0002 9FED067A 		flds	s14, .L250+4
 3654 0006 D3ED007A 		flds	s15, [r3]
 3655 000a 9FED050A 		flds	s0, .L250+8
 3656 000e 67EE877A 		fmuls	s15, s15, s14
 3657              		.loc 1 1972 0
 3658 0012 87EE800A 		fdivs	s0, s15, s0
 3659 0016 7047     		bx	lr
 3660              	.L251:
 3661              		.align	2
 3662              	.L250:
 3663 0018 00000000 		.word	.LANCHOR40
 3664 001c 6740533A 		.word	978534503
 3665 0020 0BD7233C 		.word	1008981771
 3666              		.cfi_endproc
 3667              	.LFE148:
 3668              		.size	mcpwm_get_tot_current, .-mcpwm_get_tot_current
 3669 0024 AFF30080 		.section	.text.mcpwm_get_rpm,"ax",%progbits
 3669      AFF30080 
 3669      AFF30080 
 3670              		.align	2
 3671              		.p2align 4,,15
 3672              		.global	mcpwm_get_rpm
 3673              		.thumb
 3674              		.thumb_func
 3675              		.type	mcpwm_get_rpm, %function
 3676              	mcpwm_get_rpm:
 3677              	.LFB150:
 3678              		.loc 1 1998 0
 3679              		.cfi_startproc
 3680              		@ args = 0, pretend = 0, frame = 0
 3681              		@ frame_needed = 0, uses_anonymous_args = 0
ARM GAS  /var/folders/7z/kps_xzfj7sn5l5gkyq8s9db00000gn/T//ccvBF34a.s 			page 66


 3682              		@ link register save eliminated.
 3683              		.loc 1 1999 0
 3684 0000 064B     		ldr	r3, .L256
 3685 0002 1B68     		ldr	r3, [r3]
 3686 0004 1BB1     		cbz	r3, .L255
 3687              		.loc 1 1999 0 is_stmt 0 discriminator 2
 3688 0006 064B     		ldr	r3, .L256+4
 3689 0008 93ED000A 		flds	s0, [r3]
 3690              		.loc 1 2000 0 is_stmt 1 discriminator 2
 3691 000c 7047     		bx	lr
 3692              	.L255:
 3693              		.loc 1 1999 0 discriminator 1
 3694 000e 044B     		ldr	r3, .L256+4
 3695 0010 93ED000A 		flds	s0, [r3]
 3696 0014 B1EE400A 		fnegs	s0, s0
 3697 0018 7047     		bx	lr
 3698              	.L257:
 3699 001a 00BF     		.align	2
 3700              	.L256:
 3701 001c 00000000 		.word	.LANCHOR41
 3702 0020 00000000 		.word	.LANCHOR42
 3703              		.cfi_endproc
 3704              	.LFE150:
 3705              		.size	mcpwm_get_rpm, .-mcpwm_get_rpm
 3706 0024 AFF30080 		.section	.text.mcpwm_get_state,"ax",%progbits
 3706      AFF30080 
 3706      AFF30080 
 3707              		.align	2
 3708              		.p2align 4,,15
 3709              		.global	mcpwm_get_state
 3710              		.thumb
 3711              		.thumb_func
 3712              		.type	mcpwm_get_state, %function
 3713              	mcpwm_get_state:
 3714              	.LFB151:
 3715              		.loc 1 2002 0
 3716              		.cfi_startproc
 3717              		@ args = 0, pretend = 0, frame = 0
 3718              		@ frame_needed = 0, uses_anonymous_args = 0
 3719              		@ link register save eliminated.
 3720              		.loc 1 2004 0
 3721 0000 0020     		movs	r0, #0
 3722 0002 7047     		bx	lr
 3723              		.cfi_endproc
 3724              	.LFE151:
 3725              		.size	mcpwm_get_state, .-mcpwm_get_state
 3726 0004 AFF30080 		.section	.text.mcpwm_get_fault,"ax",%progbits
 3726      AFF30080 
 3726      AFF30080 
 3727              		.align	2
 3728              		.p2align 4,,15
 3729              		.global	mcpwm_get_fault
 3730              		.thumb
 3731              		.thumb_func
 3732              		.type	mcpwm_get_fault, %function
 3733              	mcpwm_get_fault:
 3734              	.LFB152:
ARM GAS  /var/folders/7z/kps_xzfj7sn5l5gkyq8s9db00000gn/T//ccvBF34a.s 			page 67


 3735              		.loc 1 2006 0
 3736              		.cfi_startproc
 3737              		@ args = 0, pretend = 0, frame = 0
 3738              		@ frame_needed = 0, uses_anonymous_args = 0
 3739              		@ link register save eliminated.
 3740              		.loc 1 2007 0
 3741 0000 014B     		ldr	r3, .L260
 3742 0002 1878     		ldrb	r0, [r3]	@ zero_extendqisi2
 3743              		.loc 1 2008 0
 3744 0004 7047     		bx	lr
 3745              	.L261:
 3746 0006 00BF     		.align	2
 3747              	.L260:
 3748 0008 00000000 		.word	.LANCHOR36
 3749              		.cfi_endproc
 3750              	.LFE152:
 3751              		.size	mcpwm_get_fault, .-mcpwm_get_fault
 3752 000c AFF30080 		.section	.text.mcpwm_fault_to_string,"ax",%progbits
 3753              		.align	2
 3754              		.p2align 4,,15
 3755              		.global	mcpwm_fault_to_string
 3756              		.thumb
 3757              		.thumb_func
 3758              		.type	mcpwm_fault_to_string, %function
 3759              	mcpwm_fault_to_string:
 3760              	.LFB153:
 3761              		.loc 1 2010 0
 3762              		.cfi_startproc
 3763              		@ args = 0, pretend = 0, frame = 0
 3764              		@ frame_needed = 0, uses_anonymous_args = 0
 3765              		@ link register save eliminated.
 3766              	.LVL186:
 3767 0000 0628     		cmp	r0, #6
 3768 0002 9ABF     		itte	ls
 3769 0004 024B     		ldrls	r3, .L265
 3770 0006 53F82000 		ldrls	r0, [r3, r0, lsl #2]
 3771              	.LVL187:
 3772              		.loc 1 2010 0
 3773 000a 0248     		ldrhi	r0, .L265+4
 3774              		.loc 1 2021 0
 3775 000c 7047     		bx	lr
 3776              	.L266:
 3777 000e 00BF     		.align	2
 3778              	.L265:
 3779 0010 00000000 		.word	.LANCHOR43
 3780 0014 0C000000 		.word	.LC1
 3781              		.cfi_endproc
 3782              	.LFE153:
 3783              		.size	mcpwm_fault_to_string, .-mcpwm_fault_to_string
 3784 0018 AFF30080 		.section	.text.mcpwm_get_rpm_dep,"ax",%progbits
 3784      AFF30080 
 3785              		.align	2
 3786              		.p2align 4,,15
 3787              		.global	mcpwm_get_rpm_dep
 3788              		.thumb
 3789              		.thumb_func
 3790              		.type	mcpwm_get_rpm_dep, %function
ARM GAS  /var/folders/7z/kps_xzfj7sn5l5gkyq8s9db00000gn/T//ccvBF34a.s 			page 68


 3791              	mcpwm_get_rpm_dep:
 3792              	.LFB154:
 3793              		.loc 1 2022 0
 3794              		.cfi_startproc
 3795              		@ args = 0, pretend = 0, frame = 0
 3796              		@ frame_needed = 0, uses_anonymous_args = 0
 3797              		@ link register save eliminated.
 3798              	.LVL188:
 3799              		.loc 1 2026 0
 3800 0000 7047     		bx	lr
 3801              		.cfi_endproc
 3802              	.LFE154:
 3803              		.size	mcpwm_get_rpm_dep, .-mcpwm_get_rpm_dep
 3804 0002 00BFAFF3 		.section	.text.mcpwm_get_configuration,"ax",%progbits
 3804      0080AFF3 
 3804      0080AFF3 
 3804      0080
 3805              		.align	2
 3806              		.p2align 4,,15
 3807              		.global	mcpwm_get_configuration
 3808              		.thumb
 3809              		.thumb_func
 3810              		.type	mcpwm_get_configuration, %function
 3811              	mcpwm_get_configuration:
 3812              	.LFB155:
 3813              		.loc 1 2029 0
 3814              		.cfi_startproc
 3815              		@ args = 0, pretend = 0, frame = 0
 3816              		@ frame_needed = 0, uses_anonymous_args = 0
 3817              		@ link register save eliminated.
 3818              		.loc 1 2031 0
 3819 0000 0048     		ldr	r0, .L269
 3820 0002 7047     		bx	lr
 3821              	.L270:
 3822              		.align	2
 3823              	.L269:
 3824 0004 00000000 		.word	.LANCHOR44
 3825              		.cfi_endproc
 3826              	.LFE155:
 3827              		.size	mcpwm_get_configuration, .-mcpwm_get_configuration
 3828 0008 AFF30080 		.section	.text.mcpwm_set_configuration,"ax",%progbits
 3828      AFF30080 
 3829              		.align	2
 3830              		.p2align 4,,15
 3831              		.global	mcpwm_set_configuration
 3832              		.thumb
 3833              		.thumb_func
 3834              		.type	mcpwm_set_configuration, %function
 3835              	mcpwm_set_configuration:
 3836              	.LFB156:
 3837              		.loc 1 2032 0
 3838              		.cfi_startproc
 3839              		@ args = 0, pretend = 0, frame = 0
 3840              		@ frame_needed = 0, uses_anonymous_args = 0
 3841              		@ link register save eliminated.
 3842              	.LVL189:
 3843 0000 7047     		bx	lr
ARM GAS  /var/folders/7z/kps_xzfj7sn5l5gkyq8s9db00000gn/T//ccvBF34a.s 			page 69


 3844              		.cfi_endproc
 3845              	.LFE156:
 3846              		.size	mcpwm_set_configuration, .-mcpwm_set_configuration
 3847              		.global	sinth
 3848              		.global	costh
 3849              		.global	Hall_CosSin
 3850              		.global	Hall_SinCos
 3851              		.global	HallPLLB_filtered
 3852              		.global	HallPLLA_filtered
 3853              		.global	HallPLLB_old
 3854              		.global	HallPLLA_old
 3855              		.global	HallPLLB
 3856              		.global	HallPLLA1
 3857              		.global	HallPLLA
 3858              		.global	Ipll
 3859              		.global	Kpll
 3860              		.global	Wplli
 3861              		.global	Wpllp
 3862              		.global	Wpll1
 3863              		.global	Wpll
 3864              		.global	HallPLLdef1
 3865              		.global	HallPLLdef
 3866              		.global	HallPLLde1
 3867              		.global	HallPLLde
 3868              		.global	HallPLLqe
 3869              		.global	HallPLLlead2
 3870              		.global	HallPLLlead1
 3871              		.global	HallPLLlead
 3872              		.global	State_Index
 3873              		.global	Drive_Status
 3874              		.global	Init_Charge_Time
 3875              		.global	Init_Charge_cnt
 3876              		.global	Init_Charge_cnt_EN
 3877              		.global	Fault_seq
 3878              		.global	Seq
 3879              		.global	AccumThetaCnt
 3880              		.global	AccumTheta
 3881              		.global	PrevTheta
 3882              		.global	iADCisrCnt
 3883              		.global	switching_frequency_now
 3884              		.global	SpeedReference
 3885              		.global	FdWeakParm
 3886              		.global	SVGenParm
 3887              		.global	CtrlParm
 3888              		.global	PIParmPLL
 3889              		.global	PIParmW
 3890              		.global	PIParmQ
 3891              		.global	PIParmD
 3892              		.global	ParkParm
 3893              		.global	ADC_Value
 3894              		.global	smc1
 3895              		.global	Startup_Lock
 3896              		.global	Startup_Ramp
 3897              		.global	VelReq
 3898              		.global	count
 3899              		.global	MotorParm
 3900              		.global	uGF
ARM GAS  /var/folders/7z/kps_xzfj7sn5l5gkyq8s9db00000gn/T//ccvBF34a.s 			page 70


 3901 0002 00BFAFF3 		.section	.bss.curr0_offset,"aw",%nobits
 3901      0080AFF3 
 3901      0080AFF3 
 3901      0080
 3902              		.align	2
 3903              		.set	.LANCHOR2,. + 0
 3904              		.type	curr0_offset, %object
 3905              		.size	curr0_offset, 4
 3906              	curr0_offset:
 3907 0000 00000000 		.space	4
 3908              		.section	.bss.ADC_Value,"aw",%nobits
 3909              		.align	2
 3910              		.set	.LANCHOR4,. + 0
 3911              		.type	ADC_Value, %object
 3912              		.size	ADC_Value, 24
 3913              	ADC_Value:
 3914 0000 00000000 		.space	24
 3914      00000000 
 3914      00000000 
 3914      00000000 
 3914      00000000 
 3915              		.section	.bss.Startup_Ramp,"aw",%nobits
 3916              		.align	2
 3917              		.set	.LANCHOR16,. + 0
 3918              		.type	Startup_Ramp, %object
 3919              		.size	Startup_Ramp, 4
 3920              	Startup_Ramp:
 3921 0000 00000000 		.space	4
 3922              		.section	.bss.rpm_now,"aw",%nobits
 3923              		.align	2
 3924              		.set	.LANCHOR42,. + 0
 3925              		.type	rpm_now, %object
 3926              		.size	rpm_now, 4
 3927              	rpm_now:
 3928 0000 00000000 		.space	4
 3929              		.section	.bss.PIParmD,"aw",%nobits
 3930              		.align	2
 3931              		.set	.LANCHOR8,. + 0
 3932              		.type	PIParmD, %object
 3933              		.size	PIParmD, 36
 3934              	PIParmD:
 3935 0000 00000000 		.space	36
 3935      00000000 
 3935      00000000 
 3935      00000000 
 3935      00000000 
 3936              		.section	.bss.HallPLLA1,"aw",%nobits
 3937              		.align	2
 3938              		.type	HallPLLA1, %object
 3939              		.size	HallPLLA1, 4
 3940              	HallPLLA1:
 3941 0000 00000000 		.space	4
 3942              		.section	.bss.HallPLLB_filtered,"aw",%nobits
 3943              		.align	2
 3944              		.type	HallPLLB_filtered, %object
 3945              		.size	HallPLLB_filtered, 4
 3946              	HallPLLB_filtered:
ARM GAS  /var/folders/7z/kps_xzfj7sn5l5gkyq8s9db00000gn/T//ccvBF34a.s 			page 71


 3947 0000 00000000 		.space	4
 3948              		.section	.bss.curr1_sum,"aw",%nobits
 3949              		.align	2
 3950              		.set	.LANCHOR31,. + 0
 3951              		.type	curr1_sum, %object
 3952              		.size	curr1_sum, 4
 3953              	curr1_sum:
 3954 0000 00000000 		.space	4
 3955              		.section	.bss.Wpll1,"aw",%nobits
 3956              		.align	2
 3957              		.type	Wpll1, %object
 3958              		.size	Wpll1, 4
 3959              	Wpll1:
 3960 0000 00000000 		.space	4
 3961              		.section	.bss.CtrlParm,"aw",%nobits
 3962              		.align	2
 3963              		.set	.LANCHOR14,. + 0
 3964              		.type	CtrlParm, %object
 3965              		.size	CtrlParm, 12
 3966              	CtrlParm:
 3967 0000 00000000 		.space	12
 3967      00000000 
 3967      00000000 
 3968              		.section	.bss.SEQUENCE_thread_wa,"aw",%nobits
 3969              		.align	3
 3970              		.set	.LANCHOR39,. + 0
 3971              		.type	SEQUENCE_thread_wa, %object
 3972              		.size	SEQUENCE_thread_wa, 2456
 3973              	SEQUENCE_thread_wa:
 3974 0000 00000000 		.space	2456
 3974      00000000 
 3974      00000000 
 3974      00000000 
 3974      00000000 
 3975              		.section	.bss.PIParmQ,"aw",%nobits
 3976              		.align	2
 3977              		.set	.LANCHOR9,. + 0
 3978              		.type	PIParmQ, %object
 3979              		.size	PIParmQ, 36
 3980              	PIParmQ:
 3981 0000 00000000 		.space	36
 3981      00000000 
 3981      00000000 
 3981      00000000 
 3981      00000000 
 3982              		.section	.data.Kpll,"aw",%progbits
 3983              		.align	2
 3984              		.type	Kpll, %object
 3985              		.size	Kpll, 4
 3986              	Kpll:
 3987 0000 D122DB3E 		.word	1054548689
 3988              		.section	.bss.HallPLLdef1,"aw",%nobits
 3989              		.align	2
 3990              		.type	HallPLLdef1, %object
 3991              		.size	HallPLLdef1, 4
 3992              	HallPLLdef1:
 3993 0000 00000000 		.space	4
ARM GAS  /var/folders/7z/kps_xzfj7sn5l5gkyq8s9db00000gn/T//ccvBF34a.s 			page 72


 3994              		.section	.bss.uGF,"aw",%nobits
 3995              		.align	2
 3996              		.set	.LANCHOR13,. + 0
 3997              		.type	uGF, %object
 3998              		.size	uGF, 4
 3999              	uGF:
 4000 0000 00000000 		.space	4
 4001              		.section	.bss.Hall_SinCos,"aw",%nobits
 4002              		.align	2
 4003              		.set	.LANCHOR26,. + 0
 4004              		.type	Hall_SinCos, %object
 4005              		.size	Hall_SinCos, 4
 4006              	Hall_SinCos:
 4007 0000 00000000 		.space	4
 4008              		.section	.bss.PIParmW,"aw",%nobits
 4009              		.align	2
 4010              		.set	.LANCHOR10,. + 0
 4011              		.type	PIParmW, %object
 4012              		.size	PIParmW, 36
 4013              	PIParmW:
 4014 0000 00000000 		.space	36
 4014      00000000 
 4014      00000000 
 4014      00000000 
 4014      00000000 
 4015              		.section	.bss.curr_start_samples,"aw",%nobits
 4016              		.align	2
 4017              		.set	.LANCHOR32,. + 0
 4018              		.type	curr_start_samples, %object
 4019              		.size	curr_start_samples, 4
 4020              	curr_start_samples:
 4021 0000 00000000 		.space	4
 4022              		.section	.bss.Hall_CosSin,"aw",%nobits
 4023              		.align	2
 4024              		.set	.LANCHOR27,. + 0
 4025              		.type	Hall_CosSin, %object
 4026              		.size	Hall_CosSin, 4
 4027              	Hall_CosSin:
 4028 0000 00000000 		.space	4
 4029              		.section	.bss.conf,"aw",%nobits
 4030              		.align	2
 4031              		.set	.LANCHOR44,. + 0
 4032              		.type	conf, %object
 4033              		.size	conf, 176
 4034              	conf:
 4035 0000 00000000 		.space	176
 4035      00000000 
 4035      00000000 
 4035      00000000 
 4035      00000000 
 4036              		.section	.bss.dccal_done,"aw",%nobits
 4037              		.set	.LANCHOR37,. + 0
 4038              		.type	dccal_done, %object
 4039              		.size	dccal_done, 1
 4040              	dccal_done:
 4041 0000 00       		.space	1
 4042              		.section	.bss.Hall_Err0,"aw",%nobits
ARM GAS  /var/folders/7z/kps_xzfj7sn5l5gkyq8s9db00000gn/T//ccvBF34a.s 			page 73


 4043              		.align	2
 4044              		.set	.LANCHOR28,. + 0
 4045              		.type	Hall_Err0, %object
 4046              		.size	Hall_Err0, 4
 4047              	Hall_Err0:
 4048 0000 00000000 		.space	4
 4049              		.section	.bss.HallPLLqe,"aw",%nobits
 4050              		.align	2
 4051              		.type	HallPLLqe, %object
 4052              		.size	HallPLLqe, 4
 4053              	HallPLLqe:
 4054 0000 00000000 		.space	4
 4055              		.section	.bss.Init_Charge_cnt,"aw",%nobits
 4056              		.align	2
 4057              		.type	Init_Charge_cnt, %object
 4058              		.size	Init_Charge_cnt, 4
 4059              	Init_Charge_cnt:
 4060 0000 00000000 		.space	4
 4061              		.section	.bss.AccumTheta,"aw",%nobits
 4062              		.align	2
 4063              		.set	.LANCHOR34,. + 0
 4064              		.type	AccumTheta, %object
 4065              		.size	AccumTheta, 4
 4066              	AccumTheta:
 4067 0000 00000000 		.space	4
 4068              		.section	.bss.Startup_Lock,"aw",%nobits
 4069              		.align	2
 4070              		.set	.LANCHOR15,. + 0
 4071              		.type	Startup_Lock, %object
 4072              		.size	Startup_Lock, 4
 4073              	Startup_Lock:
 4074 0000 00000000 		.space	4
 4075              		.section	.bss.Drive_Status,"aw",%nobits
 4076              		.align	2
 4077              		.type	Drive_Status, %object
 4078              		.size	Drive_Status, 4
 4079              	Drive_Status:
 4080 0000 00000000 		.space	4
 4081              		.section	.bss.Futi,"aw",%nobits
 4082              		.align	2
 4083              		.type	Futi, %object
 4084              		.size	Futi, 4
 4085              	Futi:
 4086 0000 00000000 		.space	4
 4087              		.section	.bss.PrevTheta,"aw",%nobits
 4088              		.align	2
 4089              		.set	.LANCHOR33,. + 0
 4090              		.type	PrevTheta, %object
 4091              		.size	PrevTheta, 4
 4092              	PrevTheta:
 4093 0000 00000000 		.space	4
 4094              		.section	.bss.count,"aw",%nobits
 4095              		.align	2
 4096              		.type	count, %object
 4097              		.size	count, 4
 4098              	count:
 4099 0000 00000000 		.space	4
ARM GAS  /var/folders/7z/kps_xzfj7sn5l5gkyq8s9db00000gn/T//ccvBF34a.s 			page 74


 4100              		.section	.bss.HallPLLdef,"aw",%nobits
 4101              		.align	2
 4102              		.type	HallPLLdef, %object
 4103              		.size	HallPLLdef, 4
 4104              	HallPLLdef:
 4105 0000 00000000 		.space	4
 4106              		.section	.bss.last_current_sample_filtered,"aw",%nobits
 4107              		.align	2
 4108              		.type	last_current_sample_filtered, %object
 4109              		.size	last_current_sample_filtered, 4
 4110              	last_current_sample_filtered:
 4111 0000 00000000 		.space	4
 4112              		.section	.bss.Wplli,"aw",%nobits
 4113              		.align	2
 4114              		.type	Wplli, %object
 4115              		.size	Wplli, 4
 4116              	Wplli:
 4117 0000 00000000 		.space	4
 4118              		.section	.bss.AccumThetaCnt,"aw",%nobits
 4119              		.align	1
 4120              		.set	.LANCHOR18,. + 0
 4121              		.type	AccumThetaCnt, %object
 4122              		.size	AccumThetaCnt, 2
 4123              	AccumThetaCnt:
 4124 0000 0000     		.space	2
 4125              		.section	.bss.Init_Charge_cnt_EN,"aw",%nobits
 4126              		.align	2
 4127              		.type	Init_Charge_cnt_EN, %object
 4128              		.size	Init_Charge_cnt_EN, 4
 4129              	Init_Charge_cnt_EN:
 4130 0000 00000000 		.space	4
 4131              		.section	.bss.State_Index,"aw",%nobits
 4132              		.align	2
 4133              		.type	State_Index, %object
 4134              		.size	State_Index, 4
 4135              	State_Index:
 4136 0000 00000000 		.space	4
 4137              		.section	.bss.HallPLLde,"aw",%nobits
 4138              		.align	2
 4139              		.type	HallPLLde, %object
 4140              		.size	HallPLLde, 4
 4141              	HallPLLde:
 4142 0000 00000000 		.space	4
 4143              		.section	.bss.Wpllp,"aw",%nobits
 4144              		.align	2
 4145              		.type	Wpllp, %object
 4146              		.size	Wpllp, 4
 4147              	Wpllp:
 4148 0000 00000000 		.space	4
 4149              		.section	.bss.SpeedReference,"aw",%nobits
 4150              		.align	2
 4151              		.type	SpeedReference, %object
 4152              		.size	SpeedReference, 4
 4153              	SpeedReference:
 4154 0000 00000000 		.space	4
 4155              		.section	.bss.PIParmPLL,"aw",%nobits
 4156              		.align	2
ARM GAS  /var/folders/7z/kps_xzfj7sn5l5gkyq8s9db00000gn/T//ccvBF34a.s 			page 75


 4157              		.set	.LANCHOR11,. + 0
 4158              		.type	PIParmPLL, %object
 4159              		.size	PIParmPLL, 36
 4160              	PIParmPLL:
 4161 0000 00000000 		.space	36
 4161      00000000 
 4161      00000000 
 4161      00000000 
 4161      00000000 
 4162              		.section	.bss.sinth,"aw",%nobits
 4163              		.align	2
 4164              		.set	.LANCHOR25,. + 0
 4165              		.type	sinth, %object
 4166              		.size	sinth, 4
 4167              	sinth:
 4168 0000 00000000 		.space	4
 4169              		.section	.bss.qVdSquared,"aw",%nobits
 4170              		.align	2
 4171              		.set	.LANCHOR19,. + 0
 4172              		.type	qVdSquared, %object
 4173              		.size	qVdSquared, 4
 4174              	qVdSquared:
 4175 0000 00000000 		.space	4
 4176              		.section	.bss.DCbus,"aw",%nobits
 4177              		.align	2
 4178              		.set	.LANCHOR12,. + 0
 4179              		.type	DCbus, %object
 4180              		.size	DCbus, 4
 4181              	DCbus:
 4182 0000 00000000 		.space	4
 4183              		.section	.bss.Hall_KA,"aw",%nobits
 4184              		.align	2
 4185              		.type	Hall_KA, %object
 4186              		.size	Hall_KA, 4
 4187              	Hall_KA:
 4188 0000 00000000 		.space	4
 4189              		.section	.bss.last_current_sample,"aw",%nobits
 4190              		.align	2
 4191              		.set	.LANCHOR40,. + 0
 4192              		.type	last_current_sample, %object
 4193              		.size	last_current_sample, 4
 4194              	last_current_sample:
 4195 0000 00000000 		.space	4
 4196              		.section	.bss.Seq,"aw",%nobits
 4197              		.align	2
 4198              		.type	Seq, %object
 4199              		.size	Seq, 4
 4200              	Seq:
 4201 0000 00000000 		.space	4
 4202              		.section	.bss.TargetDCbus,"aw",%nobits
 4203              		.align	2
 4204              		.set	.LANCHOR5,. + 0
 4205              		.type	TargetDCbus, %object
 4206              		.size	TargetDCbus, 4
 4207              	TargetDCbus:
 4208 0000 00000000 		.space	4
 4209              		.section	.bss.HallPLLlead1,"aw",%nobits
ARM GAS  /var/folders/7z/kps_xzfj7sn5l5gkyq8s9db00000gn/T//ccvBF34a.s 			page 76


 4210              		.align	2
 4211              		.type	HallPLLlead1, %object
 4212              		.size	HallPLLlead1, 4
 4213              	HallPLLlead1:
 4214 0000 00000000 		.space	4
 4215              		.section	.bss.iADCisrCnt,"aw",%nobits
 4216              		.align	1
 4217              		.type	iADCisrCnt, %object
 4218              		.size	iADCisrCnt, 2
 4219              	iADCisrCnt:
 4220 0000 0000     		.space	2
 4221              		.section	.bss.Theta_error,"aw",%nobits
 4222              		.align	2
 4223              		.set	.LANCHOR35,. + 0
 4224              		.type	Theta_error, %object
 4225              		.size	Theta_error, 4
 4226              	Theta_error:
 4227 0000 00000000 		.space	4
 4228              		.section	.bss.direction,"aw",%nobits
 4229              		.align	2
 4230              		.set	.LANCHOR41,. + 0
 4231              		.type	direction, %object
 4232              		.size	direction, 4
 4233              	direction:
 4234 0000 00000000 		.space	4
 4235              		.section	.bss.HallPLLlead,"aw",%nobits
 4236              		.align	2
 4237              		.type	HallPLLlead, %object
 4238              		.size	HallPLLlead, 4
 4239              	HallPLLlead:
 4240 0000 00000000 		.space	4
 4241              		.section	.bss.ThetaCal,"aw",%nobits
 4242              		.align	2
 4243              		.type	ThetaCal, %object
 4244              		.size	ThetaCal, 4
 4245              	ThetaCal:
 4246 0000 00000000 		.space	4
 4247              		.section	.bss.Theta,"aw",%nobits
 4248              		.align	2
 4249              		.set	.LANCHOR23,. + 0
 4250              		.type	Theta, %object
 4251              		.size	Theta, 4
 4252              	Theta:
 4253 0000 00000000 		.space	4
 4254              		.section	.rodata.CSWTCH.127,"a",%progbits
 4255              		.align	2
 4256              		.set	.LANCHOR43,. + 0
 4257              		.type	CSWTCH.127, %object
 4258              		.size	CSWTCH.127, 28
 4259              	CSWTCH.127:
 4260 0000 1C000000 		.word	.LC2
 4261 0004 2C000000 		.word	.LC3
 4262 0008 44000000 		.word	.LC4
 4263 000c 60000000 		.word	.LC5
 4264 0010 74000000 		.word	.LC6
 4265 0014 90000000 		.word	.LC7
 4266 0018 AC000000 		.word	.LC8
ARM GAS  /var/folders/7z/kps_xzfj7sn5l5gkyq8s9db00000gn/T//ccvBF34a.s 			page 77


 4267              		.section	.bss.VelReq,"aw",%nobits
 4268              		.align	2
 4269              		.type	VelReq, %object
 4270              		.size	VelReq, 4
 4271              	VelReq:
 4272 0000 00000000 		.space	4
 4273              		.section	.bss.smc1,"aw",%nobits
 4274              		.align	2
 4275              		.set	.LANCHOR17,. + 0
 4276              		.type	smc1, %object
 4277              		.size	smc1, 100
 4278              	smc1:
 4279 0000 00000000 		.space	100
 4279      00000000 
 4279      00000000 
 4279      00000000 
 4279      00000000 
 4280              		.section	.bss.ParkParm,"aw",%nobits
 4281              		.align	2
 4282              		.set	.LANCHOR7,. + 0
 4283              		.type	ParkParm, %object
 4284              		.size	ParkParm, 64
 4285              	ParkParm:
 4286 0000 00000000 		.space	64
 4286      00000000 
 4286      00000000 
 4286      00000000 
 4286      00000000 
 4287              		.section	.bss.costh,"aw",%nobits
 4288              		.align	2
 4289              		.set	.LANCHOR24,. + 0
 4290              		.type	costh, %object
 4291              		.size	costh, 4
 4292              	costh:
 4293 0000 00000000 		.space	4
 4294              		.section	.bss.HallPLLA_old,"aw",%nobits
 4295              		.align	2
 4296              		.type	HallPLLA_old, %object
 4297              		.size	HallPLLA_old, 4
 4298              	HallPLLA_old:
 4299 0000 00000000 		.space	4
 4300              		.section	.bss.MotorParm,"aw",%nobits
 4301              		.align	2
 4302              		.set	.LANCHOR0,. + 0
 4303              		.type	MotorParm, %object
 4304              		.size	MotorParm, 8
 4305              	MotorParm:
 4306 0000 00000000 		.space	8
 4306      00000000 
 4307              		.section	.bss.SVGenParm,"aw",%nobits
 4308              		.align	2
 4309              		.set	.LANCHOR6,. + 0
 4310              		.type	SVGenParm, %object
 4311              		.size	SVGenParm, 36
 4312              	SVGenParm:
 4313 0000 00000000 		.space	36
 4313      00000000 
ARM GAS  /var/folders/7z/kps_xzfj7sn5l5gkyq8s9db00000gn/T//ccvBF34a.s 			page 78


 4313      00000000 
 4313      00000000 
 4313      00000000 
 4314              		.section	.data.Ipll,"aw",%progbits
 4315              		.align	2
 4316              		.type	Ipll, %object
 4317              		.size	Ipll, 4
 4318              	Ipll:
 4319 0000 D7A3E641 		.word	1105634263
 4320              		.section	.bss.HallPLLB_old,"aw",%nobits
 4321              		.align	2
 4322              		.type	HallPLLB_old, %object
 4323              		.size	HallPLLB_old, 4
 4324              	HallPLLB_old:
 4325 0000 00000000 		.space	4
 4326              		.section	.bss.HallPLLA_filtered,"aw",%nobits
 4327              		.align	2
 4328              		.type	HallPLLA_filtered, %object
 4329              		.size	HallPLLA_filtered, 4
 4330              	HallPLLA_filtered:
 4331 0000 00000000 		.space	4
 4332              		.section	.bss.curr1_offset,"aw",%nobits
 4333              		.align	2
 4334              		.set	.LANCHOR3,. + 0
 4335              		.type	curr1_offset, %object
 4336              		.size	curr1_offset, 4
 4337              	curr1_offset:
 4338 0000 00000000 		.space	4
 4339              		.section	.bss.curr0_sum,"aw",%nobits
 4340              		.align	2
 4341              		.set	.LANCHOR30,. + 0
 4342              		.type	curr0_sum, %object
 4343              		.size	curr0_sum, 4
 4344              	curr0_sum:
 4345 0000 00000000 		.space	4
 4346              		.section	.bss.FdWeakParm,"aw",%nobits
 4347              		.align	2
 4348              		.set	.LANCHOR20,. + 0
 4349              		.type	FdWeakParm, %object
 4350              		.size	FdWeakParm, 92
 4351              	FdWeakParm:
 4352 0000 00000000 		.space	92
 4352      00000000 
 4352      00000000 
 4352      00000000 
 4352      00000000 
 4353              		.section	.data.switching_frequency_now,"aw",%progbits
 4354              		.align	2
 4355              		.set	.LANCHOR38,. + 0
 4356              		.type	switching_frequency_now, %object
 4357              		.size	switching_frequency_now, 4
 4358              	switching_frequency_now:
 4359 0000 803E0000 		.word	16000
 4360              		.section	.bss.Hall_PIout,"aw",%nobits
 4361              		.align	2
 4362              		.set	.LANCHOR29,. + 0
 4363              		.type	Hall_PIout, %object
ARM GAS  /var/folders/7z/kps_xzfj7sn5l5gkyq8s9db00000gn/T//ccvBF34a.s 			page 79


 4364              		.size	Hall_PIout, 4
 4365              	Hall_PIout:
 4366 0000 00000000 		.space	4
 4367              		.section	.bss.fault_now,"aw",%nobits
 4368              		.set	.LANCHOR36,. + 0
 4369              		.type	fault_now, %object
 4370              		.size	fault_now, 1
 4371              	fault_now:
 4372 0000 00       		.space	1
 4373              		.section	.bss.HallPLLlead2,"aw",%nobits
 4374              		.align	2
 4375              		.type	HallPLLlead2, %object
 4376              		.size	HallPLLlead2, 4
 4377              	HallPLLlead2:
 4378 0000 00000000 		.space	4
 4379              		.section	.bss.HallPLLA,"aw",%nobits
 4380              		.align	2
 4381              		.set	.LANCHOR21,. + 0
 4382              		.type	HallPLLA, %object
 4383              		.size	HallPLLA, 4
 4384              	HallPLLA:
 4385 0000 00000000 		.space	4
 4386              		.section	.bss.HallPLLB,"aw",%nobits
 4387              		.align	2
 4388              		.set	.LANCHOR22,. + 0
 4389              		.type	HallPLLB, %object
 4390              		.size	HallPLLB, 4
 4391              	HallPLLB:
 4392 0000 00000000 		.space	4
 4393              		.section	.data.Init_Charge_Time,"aw",%progbits
 4394              		.align	2
 4395              		.type	Init_Charge_Time, %object
 4396              		.size	Init_Charge_Time, 4
 4397              	Init_Charge_Time:
 4398 0000 B80B0000 		.word	3000
 4399              		.section	.bss.MeasCurrParm,"aw",%nobits
 4400              		.align	2
 4401              		.set	.LANCHOR1,. + 0
 4402              		.type	MeasCurrParm, %object
 4403              		.size	MeasCurrParm, 16
 4404              	MeasCurrParm:
 4405 0000 00000000 		.space	16
 4405      00000000 
 4405      00000000 
 4405      00000000 
 4406              		.section	.bss.HallPLLde1,"aw",%nobits
 4407              		.align	2
 4408              		.type	HallPLLde1, %object
 4409              		.size	HallPLLde1, 4
 4410              	HallPLLde1:
 4411 0000 00000000 		.space	4
 4412              		.section	.bss.Fault_seq,"aw",%nobits
 4413              		.align	2
 4414              		.type	Fault_seq, %object
 4415              		.size	Fault_seq, 4
 4416              	Fault_seq:
 4417 0000 00000000 		.space	4
ARM GAS  /var/folders/7z/kps_xzfj7sn5l5gkyq8s9db00000gn/T//ccvBF34a.s 			page 80


 4418              		.section	.rodata.str1.4,"aMS",%progbits,1
 4419              		.align	2
 4420              	.LC0:
 4421 0000 6D637077 		.ascii	"mcpwm timer\000"
 4421      6D207469 
 4421      6D657200 
 4422              	.LC1:
 4423 000c 4641554C 		.ascii	"FAULT_UNKNOWN\000"
 4423      545F554E 
 4423      4B4E4F57 
 4423      4E00
 4424 001a 0000     		.space	2
 4425              	.LC2:
 4426 001c 4641554C 		.ascii	"FAULT_CODE_NONE\000"
 4426      545F434F 
 4426      44455F4E 
 4426      4F4E4500 
 4427              	.LC3:
 4428 002c 4641554C 		.ascii	"FAULT_CODE_OVER_VOLTAGE\000"
 4428      545F434F 
 4428      44455F4F 
 4428      5645525F 
 4428      564F4C54 
 4429              	.LC4:
 4430 0044 4641554C 		.ascii	"FAULT_CODE_UNDER_VOLTAGE\000"
 4430      545F434F 
 4430      44455F55 
 4430      4E444552 
 4430      5F564F4C 
 4431 005d 000000   		.space	3
 4432              	.LC5:
 4433 0060 4641554C 		.ascii	"FAULT_CODE_DRV8302\000"
 4433      545F434F 
 4433      44455F44 
 4433      52563833 
 4433      303200
 4434 0073 00       		.space	1
 4435              	.LC6:
 4436 0074 4641554C 		.ascii	"FAULT_CODE_ABS_OVER_CURRENT\000"
 4436      545F434F 
 4436      44455F41 
 4436      42535F4F 
 4436      5645525F 
 4437              	.LC7:
 4438 0090 4641554C 		.ascii	"FAULT_CODE_OVER_TEMP_FET\000"
 4438      545F434F 
 4438      44455F4F 
 4438      5645525F 
 4438      54454D50 
 4439 00a9 000000   		.space	3
 4440              	.LC8:
 4441 00ac 4641554C 		.ascii	"FAULT_CODE_OVER_TEMP_MOTOR\000"
 4441      545F434F 
 4441      44455F4F 
 4441      5645525F 
 4441      54454D50 
 4442 00c7 00       		.section	.bss.Hall_KB,"aw",%nobits
ARM GAS  /var/folders/7z/kps_xzfj7sn5l5gkyq8s9db00000gn/T//ccvBF34a.s 			page 81


 4443              		.align	2
 4444              		.type	Hall_KB, %object
 4445              		.size	Hall_KB, 4
 4446              	Hall_KB:
 4447 0000 00000000 		.space	4
 4448              		.section	.bss.Wpll,"aw",%nobits
 4449              		.align	2
 4450              		.type	Wpll, %object
 4451              		.size	Wpll, 4
 4452              	Wpll:
 4453 0000 00000000 		.space	4
 4454              		.text
 4455              	.Letext0:
 4456              		.file 3 "/Users/Baram/gcc-arm-none-eabi/lib/gcc/arm-none-eabi/4.9.3/include/stddef.h"
 4457              		.file 4 "/Users/Baram/gcc-arm-none-eabi/arm-none-eabi/include/machine/_default_types.h"
 4458              		.file 5 "/Users/Baram/gcc-arm-none-eabi/arm-none-eabi/include/stdint.h"
 4459              		.file 6 "lib/ChibiOS_2.6.6/os/ports/GCC/ARMCMx/chtypes.h"
 4460              		.file 7 "lib/ChibiOS_2.6.6/os/kernel/include/chlists.h"
 4461              		.file 8 "lib/ChibiOS_2.6.6/os/kernel/include/chthreads.h"
 4462              		.file 9 "lib/ChibiOS_2.6.6/os/ports/GCC/ARMCMx/chcore_v7m.h"
 4463              		.file 10 "lib/ChibiOS_2.6.6/os/kernel/include/chschd.h"
 4464              		.file 11 "lib/ChibiOS_2.6.6/os/kernel/include/chmtx.h"
 4465              		.file 12 "lib/ChibiOS_2.6.6/os/hal/platforms/STM32F4xx/stm32f4xx.h"
 4466              		.file 13 "lib/ChibiOS_2.6.6/ext/stdperiph_stm32f4/inc/stm32f4xx_adc.h"
 4467              		.file 14 "lib/ChibiOS_2.6.6/ext/stdperiph_stm32f4/inc/stm32f4xx_dma.h"
 4468              		.file 15 "lib/ChibiOS_2.6.6/ext/stdperiph_stm32f4/inc/stm32f4xx_tim.h"
 4469              		.file 16 "lib/ChibiOS_2.6.6/ext/stdperiph_stm32f4/inc/misc.h"
 4470              		.file 17 "lib/ChibiOS_2.6.6/os/hal/platforms/STM32F4xx/stm32_dma.h"
 4471              		.file 18 "lib/ChibiOS_2.6.6/os/hal/platforms/STM32/GPIOv2/pal_lld.h"
 4472              		.file 19 "/Users/Baram/gcc-arm-none-eabi/arm-none-eabi/include/sys/lock.h"
 4473              		.file 20 "/Users/Baram/gcc-arm-none-eabi/arm-none-eabi/include/sys/_types.h"
 4474              		.file 21 "/Users/Baram/gcc-arm-none-eabi/arm-none-eabi/include/sys/reent.h"
 4475              		.file 22 "/Users/Baram/gcc-arm-none-eabi/arm-none-eabi/include/stdio.h"
 4476              		.file 23 "src/core/datatypes.h"
 4477              		.file 24 "src/bldc/mcpwm.h"
 4478              		.file 25 "lib/ChibiOS_2.6.6/ext/stdperiph_stm32f4/inc/stm32f4xx_wwdg.h"
 4479              		.file 26 "/Users/Baram/gcc-arm-none-eabi/arm-none-eabi/include/math.h"
 4480              		.file 27 "src/core/utils.h"
 4481              		.file 28 "lib/ChibiOS_2.6.6/ext/stdperiph_stm32f4/inc/stm32f4xx_rcc.h"
 4482              		.file 29 "lib/hwconf/hw.h"
 4483              		.section	.debug_info,"",%progbits
 4484              	.Ldebug_info0:
 4485 0000 973F0000 		.4byte	0x3f97
 4486 0004 0400     		.2byte	0x4
 4487 0006 00000000 		.4byte	.Ldebug_abbrev0
 4488 000a 04       		.byte	0x4
 4489 000b 01       		.uleb128 0x1
 4490 000c E6060000 		.4byte	.LASF762
 4491 0010 01       		.byte	0x1
 4492 0011 6D1D0000 		.4byte	.LASF763
 4493 0015 BE240000 		.4byte	.LASF764
 4494 0019 C8000000 		.4byte	.Ldebug_ranges0+0xc8
 4495 001d 00000000 		.4byte	0
 4496 0021 00000000 		.4byte	.Ldebug_line0
 4497 0025 02       		.uleb128 0x2
 4498 0026 04       		.byte	0x4
 4499 0027 04       		.byte	0x4
ARM GAS  /var/folders/7z/kps_xzfj7sn5l5gkyq8s9db00000gn/T//ccvBF34a.s 			page 82


 4500 0028 140A0000 		.4byte	.LASF0
 4501 002c 03       		.uleb128 0x3
 4502 002d 04       		.byte	0x4
 4503 002e 05       		.byte	0x5
 4504 002f 696E7400 		.ascii	"int\000"
 4505 0033 04       		.uleb128 0x4
 4506 0034 2B0D0000 		.4byte	.LASF2
 4507 0038 03       		.byte	0x3
 4508 0039 D4       		.byte	0xd4
 4509 003a 3E000000 		.4byte	0x3e
 4510 003e 02       		.uleb128 0x2
 4511 003f 04       		.byte	0x4
 4512 0040 07       		.byte	0x7
 4513 0041 44240000 		.4byte	.LASF1
 4514 0045 04       		.uleb128 0x4
 4515 0046 7D230000 		.4byte	.LASF3
 4516 004a 04       		.byte	0x4
 4517 004b 1B       		.byte	0x1b
 4518 004c 50000000 		.4byte	0x50
 4519 0050 02       		.uleb128 0x2
 4520 0051 01       		.byte	0x1
 4521 0052 06       		.byte	0x6
 4522 0053 40140000 		.4byte	.LASF4
 4523 0057 04       		.uleb128 0x4
 4524 0058 D1000000 		.4byte	.LASF5
 4525 005c 04       		.byte	0x4
 4526 005d 1D       		.byte	0x1d
 4527 005e 62000000 		.4byte	0x62
 4528 0062 02       		.uleb128 0x2
 4529 0063 01       		.byte	0x1
 4530 0064 08       		.byte	0x8
 4531 0065 BF090000 		.4byte	.LASF6
 4532 0069 02       		.uleb128 0x2
 4533 006a 02       		.byte	0x2
 4534 006b 05       		.byte	0x5
 4535 006c 9E240000 		.4byte	.LASF7
 4536 0070 04       		.uleb128 0x4
 4537 0071 4E080000 		.4byte	.LASF8
 4538 0075 04       		.byte	0x4
 4539 0076 2B       		.byte	0x2b
 4540 0077 7B000000 		.4byte	0x7b
 4541 007b 02       		.uleb128 0x2
 4542 007c 02       		.byte	0x2
 4543 007d 07       		.byte	0x7
 4544 007e 20140000 		.4byte	.LASF9
 4545 0082 04       		.uleb128 0x4
 4546 0083 581D0000 		.4byte	.LASF10
 4547 0087 04       		.byte	0x4
 4548 0088 3F       		.byte	0x3f
 4549 0089 8D000000 		.4byte	0x8d
 4550 008d 02       		.uleb128 0x2
 4551 008e 04       		.byte	0x4
 4552 008f 05       		.byte	0x5
 4553 0090 20170000 		.4byte	.LASF11
 4554 0094 04       		.uleb128 0x4
 4555 0095 621D0000 		.4byte	.LASF12
 4556 0099 04       		.byte	0x4
ARM GAS  /var/folders/7z/kps_xzfj7sn5l5gkyq8s9db00000gn/T//ccvBF34a.s 			page 83


 4557 009a 41       		.byte	0x41
 4558 009b 9F000000 		.4byte	0x9f
 4559 009f 02       		.uleb128 0x2
 4560 00a0 04       		.byte	0x4
 4561 00a1 07       		.byte	0x7
 4562 00a2 13190000 		.4byte	.LASF13
 4563 00a6 02       		.uleb128 0x2
 4564 00a7 08       		.byte	0x8
 4565 00a8 05       		.byte	0x5
 4566 00a9 A6210000 		.4byte	.LASF14
 4567 00ad 04       		.uleb128 0x4
 4568 00ae 910F0000 		.4byte	.LASF15
 4569 00b2 04       		.byte	0x4
 4570 00b3 5B       		.byte	0x5b
 4571 00b4 B8000000 		.4byte	0xb8
 4572 00b8 02       		.uleb128 0x2
 4573 00b9 08       		.byte	0x8
 4574 00ba 07       		.byte	0x7
 4575 00bb B31F0000 		.4byte	.LASF16
 4576 00bf 04       		.uleb128 0x4
 4577 00c0 DD120000 		.4byte	.LASF17
 4578 00c4 05       		.byte	0x5
 4579 00c5 14       		.byte	0x14
 4580 00c6 45000000 		.4byte	0x45
 4581 00ca 04       		.uleb128 0x4
 4582 00cb 560D0000 		.4byte	.LASF18
 4583 00cf 05       		.byte	0x5
 4584 00d0 15       		.byte	0x15
 4585 00d1 57000000 		.4byte	0x57
 4586 00d5 04       		.uleb128 0x4
 4587 00d6 EE010000 		.4byte	.LASF19
 4588 00da 05       		.byte	0x5
 4589 00db 21       		.byte	0x21
 4590 00dc 70000000 		.4byte	0x70
 4591 00e0 04       		.uleb128 0x4
 4592 00e1 1E040000 		.4byte	.LASF20
 4593 00e5 05       		.byte	0x5
 4594 00e6 2C       		.byte	0x2c
 4595 00e7 82000000 		.4byte	0x82
 4596 00eb 04       		.uleb128 0x4
 4597 00ec 6C180000 		.4byte	.LASF21
 4598 00f0 05       		.byte	0x5
 4599 00f1 2D       		.byte	0x2d
 4600 00f2 94000000 		.4byte	0x94
 4601 00f6 04       		.uleb128 0x4
 4602 00f7 800B0000 		.4byte	.LASF22
 4603 00fb 05       		.byte	0x5
 4604 00fc 39       		.byte	0x39
 4605 00fd AD000000 		.4byte	0xad
 4606 0101 04       		.uleb128 0x4
 4607 0102 41190000 		.4byte	.LASF23
 4608 0106 06       		.byte	0x6
 4609 0107 2B       		.byte	0x2b
 4610 0108 0C010000 		.4byte	0x10c
 4611 010c 02       		.uleb128 0x2
 4612 010d 01       		.byte	0x1
 4613 010e 02       		.byte	0x2
ARM GAS  /var/folders/7z/kps_xzfj7sn5l5gkyq8s9db00000gn/T//ccvBF34a.s 			page 84


 4614 010f 01010000 		.4byte	.LASF24
 4615 0113 04       		.uleb128 0x4
 4616 0114 89110000 		.4byte	.LASF25
 4617 0118 06       		.byte	0x6
 4618 0119 2C       		.byte	0x2c
 4619 011a CA000000 		.4byte	0xca
 4620 011e 04       		.uleb128 0x4
 4621 011f 6F200000 		.4byte	.LASF26
 4622 0123 06       		.byte	0x6
 4623 0124 2D       		.byte	0x2d
 4624 0125 CA000000 		.4byte	0xca
 4625 0129 04       		.uleb128 0x4
 4626 012a 03110000 		.4byte	.LASF27
 4627 012e 06       		.byte	0x6
 4628 012f 2E       		.byte	0x2e
 4629 0130 CA000000 		.4byte	0xca
 4630 0134 04       		.uleb128 0x4
 4631 0135 79130000 		.4byte	.LASF28
 4632 0139 06       		.byte	0x6
 4633 013a 2F       		.byte	0x2f
 4634 013b CA000000 		.4byte	0xca
 4635 013f 04       		.uleb128 0x4
 4636 0140 72060000 		.4byte	.LASF29
 4637 0144 06       		.byte	0x6
 4638 0145 30       		.byte	0x30
 4639 0146 EB000000 		.4byte	0xeb
 4640 014a 04       		.uleb128 0x4
 4641 014b 5C000000 		.4byte	.LASF30
 4642 014f 06       		.byte	0x6
 4643 0150 31       		.byte	0x31
 4644 0151 E0000000 		.4byte	0xe0
 4645 0155 04       		.uleb128 0x4
 4646 0156 D5180000 		.4byte	.LASF31
 4647 015a 06       		.byte	0x6
 4648 015b 33       		.byte	0x33
 4649 015c EB000000 		.4byte	0xeb
 4650 0160 04       		.uleb128 0x4
 4651 0161 34040000 		.4byte	.LASF32
 4652 0165 06       		.byte	0x6
 4653 0166 35       		.byte	0x35
 4654 0167 EB000000 		.4byte	0xeb
 4655 016b 04       		.uleb128 0x4
 4656 016c 890B0000 		.4byte	.LASF33
 4657 0170 07       		.byte	0x7
 4658 0171 2A       		.byte	0x2a
 4659 0172 76010000 		.4byte	0x176
 4660 0176 05       		.uleb128 0x5
 4661 0177 890B0000 		.4byte	.LASF33
 4662 017b 48       		.byte	0x48
 4663 017c 08       		.byte	0x8
 4664 017d 5E       		.byte	0x5e
 4665 017e 73020000 		.4byte	0x273
 4666 0182 06       		.uleb128 0x6
 4667 0183 7C100000 		.4byte	.LASF34
 4668 0187 08       		.byte	0x8
 4669 0188 5F       		.byte	0x5f
 4670 0189 94020000 		.4byte	0x294
ARM GAS  /var/folders/7z/kps_xzfj7sn5l5gkyq8s9db00000gn/T//ccvBF34a.s 			page 85


 4671 018d 00       		.byte	0
 4672 018e 06       		.uleb128 0x6
 4673 018f 6C0D0000 		.4byte	.LASF35
 4674 0193 08       		.byte	0x8
 4675 0194 61       		.byte	0x61
 4676 0195 94020000 		.4byte	0x294
 4677 0199 04       		.byte	0x4
 4678 019a 06       		.uleb128 0x6
 4679 019b 8A0F0000 		.4byte	.LASF36
 4680 019f 08       		.byte	0x8
 4681 01a0 63       		.byte	0x63
 4682 01a1 3F010000 		.4byte	0x13f
 4683 01a5 08       		.byte	0x8
 4684 01a6 06       		.uleb128 0x6
 4685 01a7 C00A0000 		.4byte	.LASF37
 4686 01ab 08       		.byte	0x8
 4687 01ac 64       		.byte	0x64
 4688 01ad 29040000 		.4byte	0x429
 4689 01b1 0C       		.byte	0xc
 4690 01b2 06       		.uleb128 0x6
 4691 01b3 03030000 		.4byte	.LASF38
 4692 01b7 08       		.byte	0x8
 4693 01b8 66       		.byte	0x66
 4694 01b9 94020000 		.4byte	0x294
 4695 01bd 10       		.byte	0x10
 4696 01be 06       		.uleb128 0x6
 4697 01bf D2220000 		.4byte	.LASF39
 4698 01c3 08       		.byte	0x8
 4699 01c4 67       		.byte	0x67
 4700 01c5 94020000 		.4byte	0x294
 4701 01c9 14       		.byte	0x14
 4702 01ca 06       		.uleb128 0x6
 4703 01cb 9E200000 		.4byte	.LASF40
 4704 01cf 08       		.byte	0x8
 4705 01d0 6E       		.byte	0x6e
 4706 01d1 33050000 		.4byte	0x533
 4707 01d5 18       		.byte	0x18
 4708 01d6 06       		.uleb128 0x6
 4709 01d7 32250000 		.4byte	.LASF41
 4710 01db 08       		.byte	0x8
 4711 01dc 79       		.byte	0x79
 4712 01dd 1E010000 		.4byte	0x11e
 4713 01e1 1C       		.byte	0x1c
 4714 01e2 06       		.uleb128 0x6
 4715 01e3 F91F0000 		.4byte	.LASF42
 4716 01e7 08       		.byte	0x8
 4717 01e8 7D       		.byte	0x7d
 4718 01e9 13010000 		.4byte	0x113
 4719 01ed 1D       		.byte	0x1d
 4720 01ee 06       		.uleb128 0x6
 4721 01ef 02170000 		.4byte	.LASF43
 4722 01f3 08       		.byte	0x8
 4723 01f4 82       		.byte	0x82
 4724 01f5 29010000 		.4byte	0x129
 4725 01f9 1E       		.byte	0x1e
 4726 01fa 06       		.uleb128 0x6
 4727 01fb 80140000 		.4byte	.LASF44
ARM GAS  /var/folders/7z/kps_xzfj7sn5l5gkyq8s9db00000gn/T//ccvBF34a.s 			page 86


 4728 01ff 08       		.byte	0x8
 4729 0200 88       		.byte	0x88
 4730 0201 34010000 		.4byte	0x134
 4731 0205 1F       		.byte	0x1f
 4732 0206 06       		.uleb128 0x6
 4733 0207 AC140000 		.4byte	.LASF45
 4734 020b 08       		.byte	0x8
 4735 020c 8F       		.byte	0x8f
 4736 020d 5B040000 		.4byte	0x45b
 4737 0211 20       		.byte	0x20
 4738 0212 07       		.uleb128 0x7
 4739 0213 705F7500 		.ascii	"p_u\000"
 4740 0217 08       		.byte	0x8
 4741 0218 B4       		.byte	0xb4
 4742 0219 FE040000 		.4byte	0x4fe
 4743 021d 24       		.byte	0x24
 4744 021e 06       		.uleb128 0x6
 4745 021f 74050000 		.4byte	.LASF46
 4746 0223 08       		.byte	0x8
 4747 0224 B9       		.byte	0xb9
 4748 0225 BA020000 		.4byte	0x2ba
 4749 0229 28       		.byte	0x28
 4750 022a 06       		.uleb128 0x6
 4751 022b 8D0C0000 		.4byte	.LASF47
 4752 022f 08       		.byte	0x8
 4753 0230 BF       		.byte	0xbf
 4754 0231 9A020000 		.4byte	0x29a
 4755 0235 2C       		.byte	0x2c
 4756 0236 06       		.uleb128 0x6
 4757 0237 7A080000 		.4byte	.LASF48
 4758 023b 08       		.byte	0x8
 4759 023c C3       		.byte	0xc3
 4760 023d 4A010000 		.4byte	0x14a
 4761 0241 34       		.byte	0x34
 4762 0242 06       		.uleb128 0x6
 4763 0243 5F1E0000 		.4byte	.LASF49
 4764 0247 08       		.byte	0x8
 4765 0248 C9       		.byte	0xc9
 4766 0249 55010000 		.4byte	0x155
 4767 024d 38       		.byte	0x38
 4768 024e 06       		.uleb128 0x6
 4769 024f 2B200000 		.4byte	.LASF50
 4770 0253 08       		.byte	0x8
 4771 0254 D0       		.byte	0xd0
 4772 0255 45050000 		.4byte	0x545
 4773 0259 3C       		.byte	0x3c
 4774 025a 06       		.uleb128 0x6
 4775 025b 641C0000 		.4byte	.LASF51
 4776 025f 08       		.byte	0x8
 4777 0260 D4       		.byte	0xd4
 4778 0261 3F010000 		.4byte	0x13f
 4779 0265 40       		.byte	0x40
 4780 0266 06       		.uleb128 0x6
 4781 0267 18110000 		.4byte	.LASF52
 4782 026b 08       		.byte	0x8
 4783 026c DA       		.byte	0xda
 4784 026d D0020000 		.4byte	0x2d0
ARM GAS  /var/folders/7z/kps_xzfj7sn5l5gkyq8s9db00000gn/T//ccvBF34a.s 			page 87


 4785 0271 44       		.byte	0x44
 4786 0272 00       		.byte	0
 4787 0273 08       		.uleb128 0x8
 4788 0274 08       		.byte	0x8
 4789 0275 07       		.byte	0x7
 4790 0276 61       		.byte	0x61
 4791 0277 94020000 		.4byte	0x294
 4792 027b 06       		.uleb128 0x6
 4793 027c 7C100000 		.4byte	.LASF34
 4794 0280 07       		.byte	0x7
 4795 0281 62       		.byte	0x62
 4796 0282 94020000 		.4byte	0x294
 4797 0286 00       		.byte	0
 4798 0287 06       		.uleb128 0x6
 4799 0288 6C0D0000 		.4byte	.LASF35
 4800 028c 07       		.byte	0x7
 4801 028d 64       		.byte	0x64
 4802 028e 94020000 		.4byte	0x294
 4803 0292 04       		.byte	0x4
 4804 0293 00       		.byte	0
 4805 0294 09       		.uleb128 0x9
 4806 0295 04       		.byte	0x4
 4807 0296 6B010000 		.4byte	0x16b
 4808 029a 04       		.uleb128 0x4
 4809 029b 490D0000 		.4byte	.LASF53
 4810 029f 07       		.byte	0x7
 4811 02a0 66       		.byte	0x66
 4812 02a1 73020000 		.4byte	0x273
 4813 02a5 08       		.uleb128 0x8
 4814 02a6 04       		.byte	0x4
 4815 02a7 07       		.byte	0x7
 4816 02a8 6B       		.byte	0x6b
 4817 02a9 BA020000 		.4byte	0x2ba
 4818 02ad 06       		.uleb128 0x6
 4819 02ae 7C100000 		.4byte	.LASF34
 4820 02b2 07       		.byte	0x7
 4821 02b3 6D       		.byte	0x6d
 4822 02b4 94020000 		.4byte	0x294
 4823 02b8 00       		.byte	0
 4824 02b9 00       		.byte	0
 4825 02ba 04       		.uleb128 0x4
 4826 02bb 7D150000 		.4byte	.LASF54
 4827 02bf 07       		.byte	0x7
 4828 02c0 70       		.byte	0x70
 4829 02c1 A5020000 		.4byte	0x2a5
 4830 02c5 04       		.uleb128 0x4
 4831 02c6 CC180000 		.4byte	.LASF55
 4832 02ca 09       		.byte	0x9
 4833 02cb E5       		.byte	0xe5
 4834 02cc D0020000 		.4byte	0x2d0
 4835 02d0 0A       		.uleb128 0xa
 4836 02d1 04       		.byte	0x4
 4837 02d2 04       		.uleb128 0x4
 4838 02d3 86090000 		.4byte	.LASF56
 4839 02d7 09       		.byte	0x9
 4840 02d8 EB       		.byte	0xeb
 4841 02d9 F6000000 		.4byte	0xf6
ARM GAS  /var/folders/7z/kps_xzfj7sn5l5gkyq8s9db00000gn/T//ccvBF34a.s 			page 88


 4842 02dd 0B       		.uleb128 0xb
 4843 02de 3A000000 		.4byte	.LASF57
 4844 02e2 64       		.byte	0x64
 4845 02e3 09       		.byte	0x9
 4846 02e4 0C01     		.2byte	0x10c
 4847 02e6 29040000 		.4byte	0x429
 4848 02ea 0C       		.uleb128 0xc
 4849 02eb 73313600 		.ascii	"s16\000"
 4850 02ef 09       		.byte	0x9
 4851 02f0 0E01     		.2byte	0x10e
 4852 02f2 C5020000 		.4byte	0x2c5
 4853 02f6 00       		.byte	0
 4854 02f7 0C       		.uleb128 0xc
 4855 02f8 73313700 		.ascii	"s17\000"
 4856 02fc 09       		.byte	0x9
 4857 02fd 0F01     		.2byte	0x10f
 4858 02ff C5020000 		.4byte	0x2c5
 4859 0303 04       		.byte	0x4
 4860 0304 0C       		.uleb128 0xc
 4861 0305 73313800 		.ascii	"s18\000"
 4862 0309 09       		.byte	0x9
 4863 030a 1001     		.2byte	0x110
 4864 030c C5020000 		.4byte	0x2c5
 4865 0310 08       		.byte	0x8
 4866 0311 0C       		.uleb128 0xc
 4867 0312 73313900 		.ascii	"s19\000"
 4868 0316 09       		.byte	0x9
 4869 0317 1101     		.2byte	0x111
 4870 0319 C5020000 		.4byte	0x2c5
 4871 031d 0C       		.byte	0xc
 4872 031e 0C       		.uleb128 0xc
 4873 031f 73323000 		.ascii	"s20\000"
 4874 0323 09       		.byte	0x9
 4875 0324 1201     		.2byte	0x112
 4876 0326 C5020000 		.4byte	0x2c5
 4877 032a 10       		.byte	0x10
 4878 032b 0C       		.uleb128 0xc
 4879 032c 73323100 		.ascii	"s21\000"
 4880 0330 09       		.byte	0x9
 4881 0331 1301     		.2byte	0x113
 4882 0333 C5020000 		.4byte	0x2c5
 4883 0337 14       		.byte	0x14
 4884 0338 0C       		.uleb128 0xc
 4885 0339 73323200 		.ascii	"s22\000"
 4886 033d 09       		.byte	0x9
 4887 033e 1401     		.2byte	0x114
 4888 0340 C5020000 		.4byte	0x2c5
 4889 0344 18       		.byte	0x18
 4890 0345 0C       		.uleb128 0xc
 4891 0346 73323300 		.ascii	"s23\000"
 4892 034a 09       		.byte	0x9
 4893 034b 1501     		.2byte	0x115
 4894 034d C5020000 		.4byte	0x2c5
 4895 0351 1C       		.byte	0x1c
 4896 0352 0C       		.uleb128 0xc
 4897 0353 73323400 		.ascii	"s24\000"
 4898 0357 09       		.byte	0x9
ARM GAS  /var/folders/7z/kps_xzfj7sn5l5gkyq8s9db00000gn/T//ccvBF34a.s 			page 89


 4899 0358 1601     		.2byte	0x116
 4900 035a C5020000 		.4byte	0x2c5
 4901 035e 20       		.byte	0x20
 4902 035f 0C       		.uleb128 0xc
 4903 0360 73323500 		.ascii	"s25\000"
 4904 0364 09       		.byte	0x9
 4905 0365 1701     		.2byte	0x117
 4906 0367 C5020000 		.4byte	0x2c5
 4907 036b 24       		.byte	0x24
 4908 036c 0C       		.uleb128 0xc
 4909 036d 73323600 		.ascii	"s26\000"
 4910 0371 09       		.byte	0x9
 4911 0372 1801     		.2byte	0x118
 4912 0374 C5020000 		.4byte	0x2c5
 4913 0378 28       		.byte	0x28
 4914 0379 0C       		.uleb128 0xc
 4915 037a 73323700 		.ascii	"s27\000"
 4916 037e 09       		.byte	0x9
 4917 037f 1901     		.2byte	0x119
 4918 0381 C5020000 		.4byte	0x2c5
 4919 0385 2C       		.byte	0x2c
 4920 0386 0C       		.uleb128 0xc
 4921 0387 73323800 		.ascii	"s28\000"
 4922 038b 09       		.byte	0x9
 4923 038c 1A01     		.2byte	0x11a
 4924 038e C5020000 		.4byte	0x2c5
 4925 0392 30       		.byte	0x30
 4926 0393 0C       		.uleb128 0xc
 4927 0394 73323900 		.ascii	"s29\000"
 4928 0398 09       		.byte	0x9
 4929 0399 1B01     		.2byte	0x11b
 4930 039b C5020000 		.4byte	0x2c5
 4931 039f 34       		.byte	0x34
 4932 03a0 0C       		.uleb128 0xc
 4933 03a1 73333000 		.ascii	"s30\000"
 4934 03a5 09       		.byte	0x9
 4935 03a6 1C01     		.2byte	0x11c
 4936 03a8 C5020000 		.4byte	0x2c5
 4937 03ac 38       		.byte	0x38
 4938 03ad 0C       		.uleb128 0xc
 4939 03ae 73333100 		.ascii	"s31\000"
 4940 03b2 09       		.byte	0x9
 4941 03b3 1D01     		.2byte	0x11d
 4942 03b5 C5020000 		.4byte	0x2c5
 4943 03b9 3C       		.byte	0x3c
 4944 03ba 0C       		.uleb128 0xc
 4945 03bb 723400   		.ascii	"r4\000"
 4946 03be 09       		.byte	0x9
 4947 03bf 1F01     		.2byte	0x11f
 4948 03c1 C5020000 		.4byte	0x2c5
 4949 03c5 40       		.byte	0x40
 4950 03c6 0C       		.uleb128 0xc
 4951 03c7 723500   		.ascii	"r5\000"
 4952 03ca 09       		.byte	0x9
 4953 03cb 2001     		.2byte	0x120
 4954 03cd C5020000 		.4byte	0x2c5
 4955 03d1 44       		.byte	0x44
ARM GAS  /var/folders/7z/kps_xzfj7sn5l5gkyq8s9db00000gn/T//ccvBF34a.s 			page 90


 4956 03d2 0C       		.uleb128 0xc
 4957 03d3 723600   		.ascii	"r6\000"
 4958 03d6 09       		.byte	0x9
 4959 03d7 2101     		.2byte	0x121
 4960 03d9 C5020000 		.4byte	0x2c5
 4961 03dd 48       		.byte	0x48
 4962 03de 0C       		.uleb128 0xc
 4963 03df 723700   		.ascii	"r7\000"
 4964 03e2 09       		.byte	0x9
 4965 03e3 2201     		.2byte	0x122
 4966 03e5 C5020000 		.4byte	0x2c5
 4967 03e9 4C       		.byte	0x4c
 4968 03ea 0C       		.uleb128 0xc
 4969 03eb 723800   		.ascii	"r8\000"
 4970 03ee 09       		.byte	0x9
 4971 03ef 2301     		.2byte	0x123
 4972 03f1 C5020000 		.4byte	0x2c5
 4973 03f5 50       		.byte	0x50
 4974 03f6 0C       		.uleb128 0xc
 4975 03f7 723900   		.ascii	"r9\000"
 4976 03fa 09       		.byte	0x9
 4977 03fb 2401     		.2byte	0x124
 4978 03fd C5020000 		.4byte	0x2c5
 4979 0401 54       		.byte	0x54
 4980 0402 0C       		.uleb128 0xc
 4981 0403 72313000 		.ascii	"r10\000"
 4982 0407 09       		.byte	0x9
 4983 0408 2501     		.2byte	0x125
 4984 040a C5020000 		.4byte	0x2c5
 4985 040e 58       		.byte	0x58
 4986 040f 0C       		.uleb128 0xc
 4987 0410 72313100 		.ascii	"r11\000"
 4988 0414 09       		.byte	0x9
 4989 0415 2601     		.2byte	0x126
 4990 0417 C5020000 		.4byte	0x2c5
 4991 041b 5C       		.byte	0x5c
 4992 041c 0C       		.uleb128 0xc
 4993 041d 6C7200   		.ascii	"lr\000"
 4994 0420 09       		.byte	0x9
 4995 0421 2701     		.2byte	0x127
 4996 0423 C5020000 		.4byte	0x2c5
 4997 0427 60       		.byte	0x60
 4998 0428 00       		.byte	0
 4999 0429 0B       		.uleb128 0xb
 5000 042a 3B180000 		.4byte	.LASF58
 5001 042e 04       		.byte	0x4
 5002 042f 09       		.byte	0x9
 5003 0430 3101     		.2byte	0x131
 5004 0432 44040000 		.4byte	0x444
 5005 0436 0C       		.uleb128 0xc
 5006 0437 72313300 		.ascii	"r13\000"
 5007 043b 09       		.byte	0x9
 5008 043c 3201     		.2byte	0x132
 5009 043e 44040000 		.4byte	0x444
 5010 0442 00       		.byte	0
 5011 0443 00       		.byte	0
 5012 0444 09       		.uleb128 0x9
ARM GAS  /var/folders/7z/kps_xzfj7sn5l5gkyq8s9db00000gn/T//ccvBF34a.s 			page 91


 5013 0445 04       		.byte	0x4
 5014 0446 DD020000 		.4byte	0x2dd
 5015 044a 0D       		.uleb128 0xd
 5016 044b CA000000 		.4byte	0xca
 5017 044f 0D       		.uleb128 0xd
 5018 0450 EB000000 		.4byte	0xeb
 5019 0454 02       		.uleb128 0x2
 5020 0455 04       		.byte	0x4
 5021 0456 07       		.byte	0x7
 5022 0457 B0130000 		.4byte	.LASF59
 5023 045b 0D       		.uleb128 0xd
 5024 045c 60010000 		.4byte	0x160
 5025 0460 08       		.uleb128 0x8
 5026 0461 1C       		.byte	0x1c
 5027 0462 0A       		.byte	0xa
 5028 0463 5E       		.byte	0x5e
 5029 0464 B1040000 		.4byte	0x4b1
 5030 0468 06       		.uleb128 0x6
 5031 0469 9D190000 		.4byte	.LASF60
 5032 046d 0A       		.byte	0xa
 5033 046e 5F       		.byte	0x5f
 5034 046f 9A020000 		.4byte	0x29a
 5035 0473 00       		.byte	0
 5036 0474 06       		.uleb128 0x6
 5037 0475 851F0000 		.4byte	.LASF61
 5038 0479 0A       		.byte	0xa
 5039 047a 60       		.byte	0x60
 5040 047b 3F010000 		.4byte	0x13f
 5041 047f 08       		.byte	0x8
 5042 0480 06       		.uleb128 0x6
 5043 0481 4B0C0000 		.4byte	.LASF62
 5044 0485 0A       		.byte	0xa
 5045 0486 62       		.byte	0x62
 5046 0487 29040000 		.4byte	0x429
 5047 048b 0C       		.byte	0xc
 5048 048c 06       		.uleb128 0x6
 5049 048d 08130000 		.4byte	.LASF63
 5050 0491 0A       		.byte	0xa
 5051 0492 65       		.byte	0x65
 5052 0493 94020000 		.4byte	0x294
 5053 0497 10       		.byte	0x10
 5054 0498 06       		.uleb128 0x6
 5055 0499 640D0000 		.4byte	.LASF64
 5056 049d 0A       		.byte	0xa
 5057 049e 66       		.byte	0x66
 5058 049f 94020000 		.4byte	0x294
 5059 04a3 14       		.byte	0x14
 5060 04a4 06       		.uleb128 0x6
 5061 04a5 F80A0000 		.4byte	.LASF65
 5062 04a9 0A       		.byte	0xa
 5063 04aa 69       		.byte	0x69
 5064 04ab 94020000 		.4byte	0x294
 5065 04af 18       		.byte	0x18
 5066 04b0 00       		.byte	0
 5067 04b1 04       		.uleb128 0x4
 5068 04b2 A00B0000 		.4byte	.LASF66
 5069 04b6 0A       		.byte	0xa
ARM GAS  /var/folders/7z/kps_xzfj7sn5l5gkyq8s9db00000gn/T//ccvBF34a.s 			page 92


 5070 04b7 6B       		.byte	0x6b
 5071 04b8 60040000 		.4byte	0x460
 5072 04bc 05       		.uleb128 0x5
 5073 04bd 070C0000 		.4byte	.LASF67
 5074 04c1 10       		.byte	0x10
 5075 04c2 0B       		.byte	0xb
 5076 04c3 2C       		.byte	0x2c
 5077 04c4 ED040000 		.4byte	0x4ed
 5078 04c8 06       		.uleb128 0x6
 5079 04c9 7F170000 		.4byte	.LASF68
 5080 04cd 0B       		.byte	0xb
 5081 04ce 2D       		.byte	0x2d
 5082 04cf 9A020000 		.4byte	0x29a
 5083 04d3 00       		.byte	0
 5084 04d4 06       		.uleb128 0x6
 5085 04d5 75150000 		.4byte	.LASF69
 5086 04d9 0B       		.byte	0xb
 5087 04da 2F       		.byte	0x2f
 5088 04db 94020000 		.4byte	0x294
 5089 04df 08       		.byte	0x8
 5090 04e0 06       		.uleb128 0x6
 5091 04e1 8C010000 		.4byte	.LASF70
 5092 04e5 0B       		.byte	0xb
 5093 04e6 31       		.byte	0x31
 5094 04e7 ED040000 		.4byte	0x4ed
 5095 04eb 0C       		.byte	0xc
 5096 04ec 00       		.byte	0
 5097 04ed 09       		.uleb128 0x9
 5098 04ee 04       		.byte	0x4
 5099 04ef BC040000 		.4byte	0x4bc
 5100 04f3 04       		.uleb128 0x4
 5101 04f4 070C0000 		.4byte	.LASF67
 5102 04f8 0B       		.byte	0xb
 5103 04f9 33       		.byte	0x33
 5104 04fa BC040000 		.4byte	0x4bc
 5105 04fe 0E       		.uleb128 0xe
 5106 04ff 04       		.byte	0x4
 5107 0500 08       		.byte	0x8
 5108 0501 96       		.byte	0x96
 5109 0502 33050000 		.4byte	0x533
 5110 0506 0F       		.uleb128 0xf
 5111 0507 510F0000 		.4byte	.LASF71
 5112 050b 08       		.byte	0x8
 5113 050c 9D       		.byte	0x9d
 5114 050d 4A010000 		.4byte	0x14a
 5115 0511 0F       		.uleb128 0xf
 5116 0512 C40D0000 		.4byte	.LASF72
 5117 0516 08       		.byte	0x8
 5118 0517 A4       		.byte	0xa4
 5119 0518 4A010000 		.4byte	0x14a
 5120 051c 0F       		.uleb128 0xf
 5121 051d 491C0000 		.4byte	.LASF73
 5122 0521 08       		.byte	0x8
 5123 0522 AB       		.byte	0xab
 5124 0523 D0020000 		.4byte	0x2d0
 5125 0527 0F       		.uleb128 0xf
 5126 0528 01200000 		.4byte	.LASF74
ARM GAS  /var/folders/7z/kps_xzfj7sn5l5gkyq8s9db00000gn/T//ccvBF34a.s 			page 93


 5127 052c 08       		.byte	0x8
 5128 052d B2       		.byte	0xb2
 5129 052e 55010000 		.4byte	0x155
 5130 0532 00       		.byte	0
 5131 0533 09       		.uleb128 0x9
 5132 0534 04       		.byte	0x4
 5133 0535 39050000 		.4byte	0x539
 5134 0539 10       		.uleb128 0x10
 5135 053a 3E050000 		.4byte	0x53e
 5136 053e 02       		.uleb128 0x2
 5137 053f 01       		.byte	0x1
 5138 0540 08       		.byte	0x8
 5139 0541 8C190000 		.4byte	.LASF75
 5140 0545 09       		.uleb128 0x9
 5141 0546 04       		.byte	0x4
 5142 0547 F3040000 		.4byte	0x4f3
 5143 054b 04       		.uleb128 0x4
 5144 054c 2C080000 		.4byte	.LASF76
 5145 0550 08       		.byte	0x8
 5146 0551 E5       		.byte	0xe5
 5147 0552 56050000 		.4byte	0x556
 5148 0556 09       		.uleb128 0x9
 5149 0557 04       		.byte	0x4
 5150 0558 5C050000 		.4byte	0x55c
 5151 055c 11       		.uleb128 0x11
 5152 055d 4A010000 		.4byte	0x14a
 5153 0561 6B050000 		.4byte	0x56b
 5154 0565 12       		.uleb128 0x12
 5155 0566 D0020000 		.4byte	0x2d0
 5156 056a 00       		.byte	0
 5157 056b 13       		.uleb128 0x13
 5158 056c 091C0000 		.4byte	.LASF765
 5159 0570 01       		.byte	0x1
 5160 0571 0C       		.byte	0xc
 5161 0572 AA       		.byte	0xaa
 5162 0573 A6070000 		.4byte	0x7a6
 5163 0577 14       		.uleb128 0x14
 5164 0578 911E0000 		.4byte	.LASF77
 5165 057c 72       		.sleb128 -14
 5166 057d 14       		.uleb128 0x14
 5167 057e C4130000 		.4byte	.LASF78
 5168 0582 74       		.sleb128 -12
 5169 0583 14       		.uleb128 0x14
 5170 0584 3A250000 		.4byte	.LASF79
 5171 0588 75       		.sleb128 -11
 5172 0589 14       		.uleb128 0x14
 5173 058a 79110000 		.4byte	.LASF80
 5174 058e 76       		.sleb128 -10
 5175 058f 14       		.uleb128 0x14
 5176 0590 42050000 		.4byte	.LASF81
 5177 0594 7B       		.sleb128 -5
 5178 0595 14       		.uleb128 0x14
 5179 0596 E0000000 		.4byte	.LASF82
 5180 059a 7C       		.sleb128 -4
 5181 059b 14       		.uleb128 0x14
 5182 059c 49210000 		.4byte	.LASF83
 5183 05a0 7E       		.sleb128 -2
ARM GAS  /var/folders/7z/kps_xzfj7sn5l5gkyq8s9db00000gn/T//ccvBF34a.s 			page 94


 5184 05a1 14       		.uleb128 0x14
 5185 05a2 A11D0000 		.4byte	.LASF84
 5186 05a6 7F       		.sleb128 -1
 5187 05a7 14       		.uleb128 0x14
 5188 05a8 07060000 		.4byte	.LASF85
 5189 05ac 00       		.sleb128 0
 5190 05ad 14       		.uleb128 0x14
 5191 05ae FE230000 		.4byte	.LASF86
 5192 05b2 01       		.sleb128 1
 5193 05b3 14       		.uleb128 0x14
 5194 05b4 4F0B0000 		.4byte	.LASF87
 5195 05b8 02       		.sleb128 2
 5196 05b9 14       		.uleb128 0x14
 5197 05ba 090E0000 		.4byte	.LASF88
 5198 05be 03       		.sleb128 3
 5199 05bf 14       		.uleb128 0x14
 5200 05c0 940E0000 		.4byte	.LASF89
 5201 05c4 04       		.sleb128 4
 5202 05c5 14       		.uleb128 0x14
 5203 05c6 9B030000 		.4byte	.LASF90
 5204 05ca 05       		.sleb128 5
 5205 05cb 14       		.uleb128 0x14
 5206 05cc D80A0000 		.4byte	.LASF91
 5207 05d0 06       		.sleb128 6
 5208 05d1 14       		.uleb128 0x14
 5209 05d2 1A0A0000 		.4byte	.LASF92
 5210 05d6 07       		.sleb128 7
 5211 05d7 14       		.uleb128 0x14
 5212 05d8 91090000 		.4byte	.LASF93
 5213 05dc 08       		.sleb128 8
 5214 05dd 14       		.uleb128 0x14
 5215 05de 25190000 		.4byte	.LASF94
 5216 05e2 09       		.sleb128 9
 5217 05e3 14       		.uleb128 0x14
 5218 05e4 B0180000 		.4byte	.LASF95
 5219 05e8 0A       		.sleb128 10
 5220 05e9 14       		.uleb128 0x14
 5221 05ea 5B120000 		.4byte	.LASF96
 5222 05ee 0B       		.sleb128 11
 5223 05ef 14       		.uleb128 0x14
 5224 05f0 2F1D0000 		.4byte	.LASF97
 5225 05f4 0C       		.sleb128 12
 5226 05f5 14       		.uleb128 0x14
 5227 05f6 9A1C0000 		.4byte	.LASF98
 5228 05fa 0D       		.sleb128 13
 5229 05fb 14       		.uleb128 0x14
 5230 05fc 231C0000 		.4byte	.LASF99
 5231 0600 0E       		.sleb128 14
 5232 0601 14       		.uleb128 0x14
 5233 0602 33060000 		.4byte	.LASF100
 5234 0606 0F       		.sleb128 15
 5235 0607 14       		.uleb128 0x14
 5236 0608 8A050000 		.4byte	.LASF101
 5237 060c 10       		.sleb128 16
 5238 060d 14       		.uleb128 0x14
 5239 060e 30050000 		.4byte	.LASF102
 5240 0612 11       		.sleb128 17
ARM GAS  /var/folders/7z/kps_xzfj7sn5l5gkyq8s9db00000gn/T//ccvBF34a.s 			page 95


 5241 0613 14       		.uleb128 0x14
 5242 0614 93010000 		.4byte	.LASF103
 5243 0618 12       		.sleb128 18
 5244 0619 14       		.uleb128 0x14
 5245 061a A5100000 		.4byte	.LASF104
 5246 061e 13       		.sleb128 19
 5247 061f 14       		.uleb128 0x14
 5248 0620 220E0000 		.4byte	.LASF105
 5249 0624 14       		.sleb128 20
 5250 0625 14       		.uleb128 0x14
 5251 0626 990D0000 		.4byte	.LASF106
 5252 062a 15       		.sleb128 21
 5253 062b 14       		.uleb128 0x14
 5254 062c 761E0000 		.4byte	.LASF107
 5255 0630 16       		.sleb128 22
 5256 0631 14       		.uleb128 0x14
 5257 0632 AA0B0000 		.4byte	.LASF108
 5258 0636 17       		.sleb128 23
 5259 0637 14       		.uleb128 0x14
 5260 0638 25130000 		.4byte	.LASF109
 5261 063c 18       		.sleb128 24
 5262 063d 14       		.uleb128 0x14
 5263 063e 3A1F0000 		.4byte	.LASF110
 5264 0642 19       		.sleb128 25
 5265 0643 14       		.uleb128 0x14
 5266 0644 31210000 		.4byte	.LASF111
 5267 0648 1A       		.sleb128 26
 5268 0649 14       		.uleb128 0x14
 5269 064a 9C050000 		.4byte	.LASF112
 5270 064e 1B       		.sleb128 27
 5271 064f 14       		.uleb128 0x14
 5272 0650 24000000 		.4byte	.LASF113
 5273 0654 1C       		.sleb128 28
 5274 0655 14       		.uleb128 0x14
 5275 0656 22250000 		.4byte	.LASF114
 5276 065a 1D       		.sleb128 29
 5277 065b 14       		.uleb128 0x14
 5278 065c A8240000 		.4byte	.LASF115
 5279 0660 1E       		.sleb128 30
 5280 0661 14       		.uleb128 0x14
 5281 0662 651A0000 		.4byte	.LASF116
 5282 0666 1F       		.sleb128 31
 5283 0667 14       		.uleb128 0x14
 5284 0668 07210000 		.4byte	.LASF117
 5285 066c 20       		.sleb128 32
 5286 066d 14       		.uleb128 0x14
 5287 066e 861A0000 		.4byte	.LASF118
 5288 0672 21       		.sleb128 33
 5289 0673 14       		.uleb128 0x14
 5290 0674 55210000 		.4byte	.LASF119
 5291 0678 22       		.sleb128 34
 5292 0679 14       		.uleb128 0x14
 5293 067a 360C0000 		.4byte	.LASF120
 5294 067e 23       		.sleb128 35
 5295 067f 14       		.uleb128 0x14
 5296 0680 FD0B0000 		.4byte	.LASF121
 5297 0684 24       		.sleb128 36
ARM GAS  /var/folders/7z/kps_xzfj7sn5l5gkyq8s9db00000gn/T//ccvBF34a.s 			page 96


 5298 0685 14       		.uleb128 0x14
 5299 0686 931A0000 		.4byte	.LASF122
 5300 068a 25       		.sleb128 37
 5301 068b 14       		.uleb128 0x14
 5302 068c 191A0000 		.4byte	.LASF123
 5303 0690 26       		.sleb128 38
 5304 0691 14       		.uleb128 0x14
 5305 0692 91190000 		.4byte	.LASF124
 5306 0696 27       		.sleb128 39
 5307 0697 14       		.uleb128 0x14
 5308 0698 E6150000 		.4byte	.LASF125
 5309 069c 28       		.sleb128 40
 5310 069d 14       		.uleb128 0x14
 5311 069e 87040000 		.4byte	.LASF126
 5312 06a2 29       		.sleb128 41
 5313 06a3 14       		.uleb128 0x14
 5314 06a4 6D120000 		.4byte	.LASF127
 5315 06a8 2A       		.sleb128 42
 5316 06a9 14       		.uleb128 0x14
 5317 06aa AE000000 		.4byte	.LASF128
 5318 06ae 2B       		.sleb128 43
 5319 06af 14       		.uleb128 0x14
 5320 06b0 DA220000 		.4byte	.LASF129
 5321 06b4 2C       		.sleb128 44
 5322 06b5 14       		.uleb128 0x14
 5323 06b6 B5160000 		.4byte	.LASF130
 5324 06ba 2D       		.sleb128 45
 5325 06bb 14       		.uleb128 0x14
 5326 06bc 53060000 		.4byte	.LASF131
 5327 06c0 2E       		.sleb128 46
 5328 06c1 14       		.uleb128 0x14
 5329 06c2 BC150000 		.4byte	.LASF132
 5330 06c6 2F       		.sleb128 47
 5331 06c7 14       		.uleb128 0x14
 5332 06c8 CE150000 		.4byte	.LASF133
 5333 06cc 30       		.sleb128 48
 5334 06cd 14       		.uleb128 0x14
 5335 06ce 43040000 		.4byte	.LASF134
 5336 06d2 31       		.sleb128 49
 5337 06d3 14       		.uleb128 0x14
 5338 06d4 D40E0000 		.4byte	.LASF135
 5339 06d8 32       		.sleb128 50
 5340 06d9 14       		.uleb128 0x14
 5341 06da 951B0000 		.4byte	.LASF136
 5342 06de 33       		.sleb128 51
 5343 06df 14       		.uleb128 0x14
 5344 06e0 400C0000 		.4byte	.LASF137
 5345 06e4 34       		.sleb128 52
 5346 06e5 14       		.uleb128 0x14
 5347 06e6 0E1C0000 		.4byte	.LASF138
 5348 06ea 35       		.sleb128 53
 5349 06eb 14       		.uleb128 0x14
 5350 06ec 67150000 		.4byte	.LASF139
 5351 06f0 36       		.sleb128 54
 5352 06f1 14       		.uleb128 0x14
 5353 06f2 F10D0000 		.4byte	.LASF140
 5354 06f6 37       		.sleb128 55
ARM GAS  /var/folders/7z/kps_xzfj7sn5l5gkyq8s9db00000gn/T//ccvBF34a.s 			page 97


 5355 06f7 14       		.uleb128 0x14
 5356 06f8 F2180000 		.4byte	.LASF141
 5357 06fc 38       		.sleb128 56
 5358 06fd 14       		.uleb128 0x14
 5359 06fe 75180000 		.4byte	.LASF142
 5360 0702 39       		.sleb128 57
 5361 0703 14       		.uleb128 0x14
 5362 0704 F7010000 		.4byte	.LASF143
 5363 0708 3A       		.sleb128 58
 5364 0709 14       		.uleb128 0x14
 5365 070a 71010000 		.4byte	.LASF144
 5366 070e 3B       		.sleb128 59
 5367 070f 14       		.uleb128 0x14
 5368 0710 20010000 		.4byte	.LASF145
 5369 0714 3C       		.sleb128 60
 5370 0715 14       		.uleb128 0x14
 5371 0716 981D0000 		.4byte	.LASF146
 5372 071a 3D       		.sleb128 61
 5373 071b 14       		.uleb128 0x14
 5374 071c 82000000 		.4byte	.LASF147
 5375 0720 3E       		.sleb128 62
 5376 0721 14       		.uleb128 0x14
 5377 0722 CE100000 		.4byte	.LASF148
 5378 0726 3F       		.sleb128 63
 5379 0727 14       		.uleb128 0x14
 5380 0728 E9140000 		.4byte	.LASF149
 5381 072c C000     		.sleb128 64
 5382 072e 14       		.uleb128 0x14
 5383 072f 4C140000 		.4byte	.LASF150
 5384 0733 C100     		.sleb128 65
 5385 0735 14       		.uleb128 0x14
 5386 0736 FE240000 		.4byte	.LASF151
 5387 073a C200     		.sleb128 66
 5388 073c 14       		.uleb128 0x14
 5389 073d 2E000000 		.4byte	.LASF152
 5390 0741 C300     		.sleb128 67
 5391 0743 14       		.uleb128 0x14
 5392 0744 E3100000 		.4byte	.LASF153
 5393 0748 C400     		.sleb128 68
 5394 074a 14       		.uleb128 0x14
 5395 074b 5F100000 		.4byte	.LASF154
 5396 074f C500     		.sleb128 69
 5397 0751 14       		.uleb128 0x14
 5398 0752 AA0F0000 		.4byte	.LASF155
 5399 0756 C600     		.sleb128 70
 5400 0758 14       		.uleb128 0x14
 5401 0759 4D020000 		.4byte	.LASF156
 5402 075d C700     		.sleb128 71
 5403 075f 14       		.uleb128 0x14
 5404 0760 BF1A0000 		.4byte	.LASF157
 5405 0764 C800     		.sleb128 72
 5406 0766 14       		.uleb128 0x14
 5407 0767 62210000 		.4byte	.LASF158
 5408 076b C900     		.sleb128 73
 5409 076d 14       		.uleb128 0x14
 5410 076e 531B0000 		.4byte	.LASF159
 5411 0772 CA00     		.sleb128 74
ARM GAS  /var/folders/7z/kps_xzfj7sn5l5gkyq8s9db00000gn/T//ccvBF34a.s 			page 98


 5412 0774 14       		.uleb128 0x14
 5413 0775 EB090000 		.4byte	.LASF160
 5414 0779 CB00     		.sleb128 75
 5415 077b 14       		.uleb128 0x14
 5416 077c 32010000 		.4byte	.LASF161
 5417 0780 CC00     		.sleb128 76
 5418 0782 14       		.uleb128 0x14
 5419 0783 ED0F0000 		.4byte	.LASF162
 5420 0787 CD00     		.sleb128 77
 5421 0789 14       		.uleb128 0x14
 5422 078a 52040000 		.4byte	.LASF163
 5423 078e CE00     		.sleb128 78
 5424 0790 14       		.uleb128 0x14
 5425 0791 91030000 		.4byte	.LASF164
 5426 0795 CF00     		.sleb128 79
 5427 0797 14       		.uleb128 0x14
 5428 0798 461A0000 		.4byte	.LASF165
 5429 079c D000     		.sleb128 80
 5430 079e 14       		.uleb128 0x14
 5431 079f 90130000 		.4byte	.LASF166
 5432 07a3 D100     		.sleb128 81
 5433 07a5 00       		.byte	0
 5434 07a6 10       		.uleb128 0x10
 5435 07a7 4F040000 		.4byte	0x44f
 5436 07ab 15       		.uleb128 0x15
 5437 07ac 04       		.byte	0x4
 5438 07ad 02       		.byte	0x2
 5439 07ae 9402     		.2byte	0x294
 5440 07b0 D8070000 		.4byte	0x7d8
 5441 07b4 16       		.uleb128 0x16
 5442 07b5 753800   		.ascii	"u8\000"
 5443 07b8 02       		.byte	0x2
 5444 07b9 9602     		.2byte	0x296
 5445 07bb 4A040000 		.4byte	0x44a
 5446 07bf 16       		.uleb128 0x16
 5447 07c0 75313600 		.ascii	"u16\000"
 5448 07c4 02       		.byte	0x2
 5449 07c5 9702     		.2byte	0x297
 5450 07c7 D8070000 		.4byte	0x7d8
 5451 07cb 16       		.uleb128 0x16
 5452 07cc 75333200 		.ascii	"u32\000"
 5453 07d0 02       		.byte	0x2
 5454 07d1 9802     		.2byte	0x298
 5455 07d3 4F040000 		.4byte	0x44f
 5456 07d7 00       		.byte	0
 5457 07d8 0D       		.uleb128 0xd
 5458 07d9 D5000000 		.4byte	0xd5
 5459 07dd 17       		.uleb128 0x17
 5460 07de 0010     		.2byte	0x1000
 5461 07e0 02       		.byte	0x2
 5462 07e1 9202     		.2byte	0x292
 5463 07e3 60090000 		.4byte	0x960
 5464 07e7 18       		.uleb128 0x18
 5465 07e8 CF1F0000 		.4byte	.LASF167
 5466 07ec 02       		.byte	0x2
 5467 07ed 9902     		.2byte	0x299
 5468 07ef 70090000 		.4byte	0x970
ARM GAS  /var/folders/7z/kps_xzfj7sn5l5gkyq8s9db00000gn/T//ccvBF34a.s 			page 99


 5469 07f3 00       		.byte	0
 5470 07f4 18       		.uleb128 0x18
 5471 07f5 C21E0000 		.4byte	.LASF168
 5472 07f9 02       		.byte	0x2
 5473 07fa 9A02     		.2byte	0x29a
 5474 07fc 75090000 		.4byte	0x975
 5475 0800 80       		.byte	0x80
 5476 0801 19       		.uleb128 0x19
 5477 0802 54455200 		.ascii	"TER\000"
 5478 0806 02       		.byte	0x2
 5479 0807 9B02     		.2byte	0x29b
 5480 0809 4F040000 		.4byte	0x44f
 5481 080d 000E     		.2byte	0xe00
 5482 080f 1A       		.uleb128 0x1a
 5483 0810 CC1E0000 		.4byte	.LASF169
 5484 0814 02       		.byte	0x2
 5485 0815 9C02     		.2byte	0x29c
 5486 0817 86090000 		.4byte	0x986
 5487 081b 040E     		.2byte	0xe04
 5488 081d 19       		.uleb128 0x19
 5489 081e 54505200 		.ascii	"TPR\000"
 5490 0822 02       		.byte	0x2
 5491 0823 9D02     		.2byte	0x29d
 5492 0825 4F040000 		.4byte	0x44f
 5493 0829 400E     		.2byte	0xe40
 5494 082b 1A       		.uleb128 0x1a
 5495 082c D61E0000 		.4byte	.LASF170
 5496 0830 02       		.byte	0x2
 5497 0831 9E02     		.2byte	0x29e
 5498 0833 86090000 		.4byte	0x986
 5499 0837 440E     		.2byte	0xe44
 5500 0839 19       		.uleb128 0x19
 5501 083a 54435200 		.ascii	"TCR\000"
 5502 083e 02       		.byte	0x2
 5503 083f 9F02     		.2byte	0x29f
 5504 0841 4F040000 		.4byte	0x44f
 5505 0845 800E     		.2byte	0xe80
 5506 0847 1A       		.uleb128 0x1a
 5507 0848 E01E0000 		.4byte	.LASF171
 5508 084c 02       		.byte	0x2
 5509 084d A002     		.2byte	0x2a0
 5510 084f 96090000 		.4byte	0x996
 5511 0853 840E     		.2byte	0xe84
 5512 0855 19       		.uleb128 0x19
 5513 0856 49575200 		.ascii	"IWR\000"
 5514 085a 02       		.byte	0x2
 5515 085b A102     		.2byte	0x2a1
 5516 085d 4F040000 		.4byte	0x44f
 5517 0861 F80E     		.2byte	0xef8
 5518 0863 19       		.uleb128 0x19
 5519 0864 49525200 		.ascii	"IRR\000"
 5520 0868 02       		.byte	0x2
 5521 0869 A202     		.2byte	0x2a2
 5522 086b A6070000 		.4byte	0x7a6
 5523 086f FC0E     		.2byte	0xefc
 5524 0871 1A       		.uleb128 0x1a
 5525 0872 DB000000 		.4byte	.LASF172
ARM GAS  /var/folders/7z/kps_xzfj7sn5l5gkyq8s9db00000gn/T//ccvBF34a.s 			page 100


 5526 0876 02       		.byte	0x2
 5527 0877 A302     		.2byte	0x2a3
 5528 0879 4F040000 		.4byte	0x44f
 5529 087d 000F     		.2byte	0xf00
 5530 087f 1A       		.uleb128 0x1a
 5531 0880 EA1E0000 		.4byte	.LASF173
 5532 0884 02       		.byte	0x2
 5533 0885 A402     		.2byte	0x2a4
 5534 0887 A6090000 		.4byte	0x9a6
 5535 088b 040F     		.2byte	0xf04
 5536 088d 19       		.uleb128 0x19
 5537 088e 4C415200 		.ascii	"LAR\000"
 5538 0892 02       		.byte	0x2
 5539 0893 A502     		.2byte	0x2a5
 5540 0895 4F040000 		.4byte	0x44f
 5541 0899 B00F     		.2byte	0xfb0
 5542 089b 19       		.uleb128 0x19
 5543 089c 4C535200 		.ascii	"LSR\000"
 5544 08a0 02       		.byte	0x2
 5545 08a1 A602     		.2byte	0x2a6
 5546 08a3 A6070000 		.4byte	0x7a6
 5547 08a7 B40F     		.2byte	0xfb4
 5548 08a9 1A       		.uleb128 0x1a
 5549 08aa F41E0000 		.4byte	.LASF174
 5550 08ae 02       		.byte	0x2
 5551 08af A702     		.2byte	0x2a7
 5552 08b1 B6090000 		.4byte	0x9b6
 5553 08b5 B80F     		.2byte	0xfb8
 5554 08b7 1A       		.uleb128 0x1a
 5555 08b8 A4000000 		.4byte	.LASF175
 5556 08bc 02       		.byte	0x2
 5557 08bd A802     		.2byte	0x2a8
 5558 08bf A6070000 		.4byte	0x7a6
 5559 08c3 D00F     		.2byte	0xfd0
 5560 08c5 1A       		.uleb128 0x1a
 5561 08c6 A9000000 		.4byte	.LASF176
 5562 08ca 02       		.byte	0x2
 5563 08cb A902     		.2byte	0x2a9
 5564 08cd A6070000 		.4byte	0x7a6
 5565 08d1 D40F     		.2byte	0xfd4
 5566 08d3 1A       		.uleb128 0x1a
 5567 08d4 E01F0000 		.4byte	.LASF177
 5568 08d8 02       		.byte	0x2
 5569 08d9 AA02     		.2byte	0x2aa
 5570 08db A6070000 		.4byte	0x7a6
 5571 08df D80F     		.2byte	0xfd8
 5572 08e1 1A       		.uleb128 0x1a
 5573 08e2 C2000000 		.4byte	.LASF178
 5574 08e6 02       		.byte	0x2
 5575 08e7 AB02     		.2byte	0x2ab
 5576 08e9 A6070000 		.4byte	0x7a6
 5577 08ed DC0F     		.2byte	0xfdc
 5578 08ef 1A       		.uleb128 0x1a
 5579 08f0 90000000 		.4byte	.LASF179
 5580 08f4 02       		.byte	0x2
 5581 08f5 AC02     		.2byte	0x2ac
 5582 08f7 A6070000 		.4byte	0x7a6
ARM GAS  /var/folders/7z/kps_xzfj7sn5l5gkyq8s9db00000gn/T//ccvBF34a.s 			page 101


 5583 08fb E00F     		.2byte	0xfe0
 5584 08fd 1A       		.uleb128 0x1a
 5585 08fe 95000000 		.4byte	.LASF180
 5586 0902 02       		.byte	0x2
 5587 0903 AD02     		.2byte	0x2ad
 5588 0905 A6070000 		.4byte	0x7a6
 5589 0909 E40F     		.2byte	0xfe4
 5590 090b 1A       		.uleb128 0x1a
 5591 090c 9A000000 		.4byte	.LASF181
 5592 0910 02       		.byte	0x2
 5593 0911 AE02     		.2byte	0x2ae
 5594 0913 A6070000 		.4byte	0x7a6
 5595 0917 E80F     		.2byte	0xfe8
 5596 0919 1A       		.uleb128 0x1a
 5597 091a 9F000000 		.4byte	.LASF182
 5598 091e 02       		.byte	0x2
 5599 091f AF02     		.2byte	0x2af
 5600 0921 A6070000 		.4byte	0x7a6
 5601 0925 EC0F     		.2byte	0xfec
 5602 0927 1A       		.uleb128 0x1a
 5603 0928 351C0000 		.4byte	.LASF183
 5604 092c 02       		.byte	0x2
 5605 092d B002     		.2byte	0x2b0
 5606 092f A6070000 		.4byte	0x7a6
 5607 0933 F00F     		.2byte	0xff0
 5608 0935 1A       		.uleb128 0x1a
 5609 0936 3A1C0000 		.4byte	.LASF184
 5610 093a 02       		.byte	0x2
 5611 093b B102     		.2byte	0x2b1
 5612 093d A6070000 		.4byte	0x7a6
 5613 0941 F40F     		.2byte	0xff4
 5614 0943 1A       		.uleb128 0x1a
 5615 0944 3F1C0000 		.4byte	.LASF185
 5616 0948 02       		.byte	0x2
 5617 0949 B202     		.2byte	0x2b2
 5618 094b A6070000 		.4byte	0x7a6
 5619 094f F80F     		.2byte	0xff8
 5620 0951 1A       		.uleb128 0x1a
 5621 0952 441C0000 		.4byte	.LASF186
 5622 0956 02       		.byte	0x2
 5623 0957 B302     		.2byte	0x2b3
 5624 0959 A6070000 		.4byte	0x7a6
 5625 095d FC0F     		.2byte	0xffc
 5626 095f 00       		.byte	0
 5627 0960 1B       		.uleb128 0x1b
 5628 0961 AB070000 		.4byte	0x7ab
 5629 0965 70090000 		.4byte	0x970
 5630 0969 1C       		.uleb128 0x1c
 5631 096a 54040000 		.4byte	0x454
 5632 096e 1F       		.byte	0x1f
 5633 096f 00       		.byte	0
 5634 0970 0D       		.uleb128 0xd
 5635 0971 60090000 		.4byte	0x960
 5636 0975 1B       		.uleb128 0x1b
 5637 0976 EB000000 		.4byte	0xeb
 5638 097a 86090000 		.4byte	0x986
 5639 097e 1D       		.uleb128 0x1d
ARM GAS  /var/folders/7z/kps_xzfj7sn5l5gkyq8s9db00000gn/T//ccvBF34a.s 			page 102


 5640 097f 54040000 		.4byte	0x454
 5641 0983 5F03     		.2byte	0x35f
 5642 0985 00       		.byte	0
 5643 0986 1B       		.uleb128 0x1b
 5644 0987 EB000000 		.4byte	0xeb
 5645 098b 96090000 		.4byte	0x996
 5646 098f 1C       		.uleb128 0x1c
 5647 0990 54040000 		.4byte	0x454
 5648 0994 0E       		.byte	0xe
 5649 0995 00       		.byte	0
 5650 0996 1B       		.uleb128 0x1b
 5651 0997 EB000000 		.4byte	0xeb
 5652 099b A6090000 		.4byte	0x9a6
 5653 099f 1C       		.uleb128 0x1c
 5654 09a0 54040000 		.4byte	0x454
 5655 09a4 1C       		.byte	0x1c
 5656 09a5 00       		.byte	0
 5657 09a6 1B       		.uleb128 0x1b
 5658 09a7 EB000000 		.4byte	0xeb
 5659 09ab B6090000 		.4byte	0x9b6
 5660 09af 1C       		.uleb128 0x1c
 5661 09b0 54040000 		.4byte	0x454
 5662 09b4 2A       		.byte	0x2a
 5663 09b5 00       		.byte	0
 5664 09b6 1B       		.uleb128 0x1b
 5665 09b7 EB000000 		.4byte	0xeb
 5666 09bb C6090000 		.4byte	0x9c6
 5667 09bf 1C       		.uleb128 0x1c
 5668 09c0 54040000 		.4byte	0x454
 5669 09c4 05       		.byte	0x5
 5670 09c5 00       		.byte	0
 5671 09c6 1E       		.uleb128 0x1e
 5672 09c7 5C1A0000 		.4byte	.LASF187
 5673 09cb 02       		.byte	0x2
 5674 09cc B402     		.2byte	0x2b4
 5675 09ce DD070000 		.4byte	0x7dd
 5676 09d2 0D       		.uleb128 0xd
 5677 09d3 E0000000 		.4byte	0xe0
 5678 09d7 1F       		.uleb128 0x1f
 5679 09d8 01       		.byte	0x1
 5680 09d9 0C       		.byte	0xc
 5681 09da F901     		.2byte	0x1f9
 5682 09dc ED090000 		.4byte	0x9ed
 5683 09e0 14       		.uleb128 0x14
 5684 09e1 980B0000 		.4byte	.LASF188
 5685 09e5 00       		.sleb128 0
 5686 09e6 14       		.uleb128 0x14
 5687 09e7 9C090000 		.4byte	.LASF189
 5688 09eb 01       		.sleb128 1
 5689 09ec 00       		.byte	0
 5690 09ed 1E       		.uleb128 0x1e
 5691 09ee 881D0000 		.4byte	.LASF190
 5692 09f2 0C       		.byte	0xc
 5693 09f3 F901     		.2byte	0x1f9
 5694 09f5 D7090000 		.4byte	0x9d7
 5695 09f9 20       		.uleb128 0x20
 5696 09fa 50       		.byte	0x50
ARM GAS  /var/folders/7z/kps_xzfj7sn5l5gkyq8s9db00000gn/T//ccvBF34a.s 			page 103


 5697 09fb 0C       		.byte	0xc
 5698 09fc 0A02     		.2byte	0x20a
 5699 09fe 050B0000 		.4byte	0xb05
 5700 0a02 0C       		.uleb128 0xc
 5701 0a03 535200   		.ascii	"SR\000"
 5702 0a06 0C       		.byte	0xc
 5703 0a07 0C02     		.2byte	0x20c
 5704 0a09 4F040000 		.4byte	0x44f
 5705 0a0d 00       		.byte	0
 5706 0a0e 0C       		.uleb128 0xc
 5707 0a0f 43523100 		.ascii	"CR1\000"
 5708 0a13 0C       		.byte	0xc
 5709 0a14 0D02     		.2byte	0x20d
 5710 0a16 4F040000 		.4byte	0x44f
 5711 0a1a 04       		.byte	0x4
 5712 0a1b 0C       		.uleb128 0xc
 5713 0a1c 43523200 		.ascii	"CR2\000"
 5714 0a20 0C       		.byte	0xc
 5715 0a21 0E02     		.2byte	0x20e
 5716 0a23 4F040000 		.4byte	0x44f
 5717 0a27 08       		.byte	0x8
 5718 0a28 18       		.uleb128 0x18
 5719 0a29 27030000 		.4byte	.LASF191
 5720 0a2d 0C       		.byte	0xc
 5721 0a2e 0F02     		.2byte	0x20f
 5722 0a30 4F040000 		.4byte	0x44f
 5723 0a34 0C       		.byte	0xc
 5724 0a35 18       		.uleb128 0x18
 5725 0a36 2D030000 		.4byte	.LASF192
 5726 0a3a 0C       		.byte	0xc
 5727 0a3b 1002     		.2byte	0x210
 5728 0a3d 4F040000 		.4byte	0x44f
 5729 0a41 10       		.byte	0x10
 5730 0a42 18       		.uleb128 0x18
 5731 0a43 C60A0000 		.4byte	.LASF193
 5732 0a47 0C       		.byte	0xc
 5733 0a48 1102     		.2byte	0x211
 5734 0a4a 4F040000 		.4byte	0x44f
 5735 0a4e 14       		.byte	0x14
 5736 0a4f 18       		.uleb128 0x18
 5737 0a50 CC0A0000 		.4byte	.LASF194
 5738 0a54 0C       		.byte	0xc
 5739 0a55 1202     		.2byte	0x212
 5740 0a57 4F040000 		.4byte	0x44f
 5741 0a5b 18       		.byte	0x18
 5742 0a5c 18       		.uleb128 0x18
 5743 0a5d D20A0000 		.4byte	.LASF195
 5744 0a61 0C       		.byte	0xc
 5745 0a62 1302     		.2byte	0x213
 5746 0a64 4F040000 		.4byte	0x44f
 5747 0a68 1C       		.byte	0x1c
 5748 0a69 18       		.uleb128 0x18
 5749 0a6a 840F0000 		.4byte	.LASF196
 5750 0a6e 0C       		.byte	0xc
 5751 0a6f 1402     		.2byte	0x214
 5752 0a71 4F040000 		.4byte	0x44f
 5753 0a75 20       		.byte	0x20
ARM GAS  /var/folders/7z/kps_xzfj7sn5l5gkyq8s9db00000gn/T//ccvBF34a.s 			page 104


 5754 0a76 0C       		.uleb128 0xc
 5755 0a77 48545200 		.ascii	"HTR\000"
 5756 0a7b 0C       		.byte	0xc
 5757 0a7c 1502     		.2byte	0x215
 5758 0a7e 4F040000 		.4byte	0x44f
 5759 0a82 24       		.byte	0x24
 5760 0a83 0C       		.uleb128 0xc
 5761 0a84 4C545200 		.ascii	"LTR\000"
 5762 0a88 0C       		.byte	0xc
 5763 0a89 1602     		.2byte	0x216
 5764 0a8b 4F040000 		.4byte	0x44f
 5765 0a8f 28       		.byte	0x28
 5766 0a90 18       		.uleb128 0x18
 5767 0a91 B5110000 		.4byte	.LASF197
 5768 0a95 0C       		.byte	0xc
 5769 0a96 1702     		.2byte	0x217
 5770 0a98 4F040000 		.4byte	0x44f
 5771 0a9c 2C       		.byte	0x2c
 5772 0a9d 18       		.uleb128 0x18
 5773 0a9e BA110000 		.4byte	.LASF198
 5774 0aa2 0C       		.byte	0xc
 5775 0aa3 1802     		.2byte	0x218
 5776 0aa5 4F040000 		.4byte	0x44f
 5777 0aa9 30       		.byte	0x30
 5778 0aaa 18       		.uleb128 0x18
 5779 0aab BF110000 		.4byte	.LASF199
 5780 0aaf 0C       		.byte	0xc
 5781 0ab0 1902     		.2byte	0x219
 5782 0ab2 4F040000 		.4byte	0x44f
 5783 0ab6 34       		.byte	0x34
 5784 0ab7 18       		.uleb128 0x18
 5785 0ab8 180C0000 		.4byte	.LASF200
 5786 0abc 0C       		.byte	0xc
 5787 0abd 1A02     		.2byte	0x21a
 5788 0abf 4F040000 		.4byte	0x44f
 5789 0ac3 38       		.byte	0x38
 5790 0ac4 18       		.uleb128 0x18
 5791 0ac5 B0200000 		.4byte	.LASF201
 5792 0ac9 0C       		.byte	0xc
 5793 0aca 1B02     		.2byte	0x21b
 5794 0acc 4F040000 		.4byte	0x44f
 5795 0ad0 3C       		.byte	0x3c
 5796 0ad1 18       		.uleb128 0x18
 5797 0ad2 B5200000 		.4byte	.LASF202
 5798 0ad6 0C       		.byte	0xc
 5799 0ad7 1C02     		.2byte	0x21c
 5800 0ad9 4F040000 		.4byte	0x44f
 5801 0add 40       		.byte	0x40
 5802 0ade 18       		.uleb128 0x18
 5803 0adf BA200000 		.4byte	.LASF203
 5804 0ae3 0C       		.byte	0xc
 5805 0ae4 1D02     		.2byte	0x21d
 5806 0ae6 4F040000 		.4byte	0x44f
 5807 0aea 44       		.byte	0x44
 5808 0aeb 18       		.uleb128 0x18
 5809 0aec BF200000 		.4byte	.LASF204
 5810 0af0 0C       		.byte	0xc
ARM GAS  /var/folders/7z/kps_xzfj7sn5l5gkyq8s9db00000gn/T//ccvBF34a.s 			page 105


 5811 0af1 1E02     		.2byte	0x21e
 5812 0af3 4F040000 		.4byte	0x44f
 5813 0af7 48       		.byte	0x48
 5814 0af8 0C       		.uleb128 0xc
 5815 0af9 445200   		.ascii	"DR\000"
 5816 0afc 0C       		.byte	0xc
 5817 0afd 1F02     		.2byte	0x21f
 5818 0aff 4F040000 		.4byte	0x44f
 5819 0b03 4C       		.byte	0x4c
 5820 0b04 00       		.byte	0
 5821 0b05 1E       		.uleb128 0x1e
 5822 0b06 14140000 		.4byte	.LASF205
 5823 0b0a 0C       		.byte	0xc
 5824 0b0b 2002     		.2byte	0x220
 5825 0b0d F9090000 		.4byte	0x9f9
 5826 0b11 20       		.uleb128 0x20
 5827 0b12 0C       		.byte	0xc
 5828 0b13 0C       		.byte	0xc
 5829 0b14 2202     		.2byte	0x222
 5830 0b16 420B0000 		.4byte	0xb42
 5831 0b1a 0C       		.uleb128 0xc
 5832 0b1b 43535200 		.ascii	"CSR\000"
 5833 0b1f 0C       		.byte	0xc
 5834 0b20 2402     		.2byte	0x224
 5835 0b22 4F040000 		.4byte	0x44f
 5836 0b26 00       		.byte	0
 5837 0b27 0C       		.uleb128 0xc
 5838 0b28 43435200 		.ascii	"CCR\000"
 5839 0b2c 0C       		.byte	0xc
 5840 0b2d 2502     		.2byte	0x225
 5841 0b2f 4F040000 		.4byte	0x44f
 5842 0b33 04       		.byte	0x4
 5843 0b34 0C       		.uleb128 0xc
 5844 0b35 43445200 		.ascii	"CDR\000"
 5845 0b39 0C       		.byte	0xc
 5846 0b3a 2602     		.2byte	0x226
 5847 0b3c 4F040000 		.4byte	0x44f
 5848 0b40 08       		.byte	0x8
 5849 0b41 00       		.byte	0
 5850 0b42 1E       		.uleb128 0x1e
 5851 0b43 3A170000 		.4byte	.LASF206
 5852 0b47 0C       		.byte	0xc
 5853 0b48 2802     		.2byte	0x228
 5854 0b4a 110B0000 		.4byte	0xb11
 5855 0b4e 20       		.uleb128 0x20
 5856 0b4f 18       		.byte	0x18
 5857 0b50 0C       		.byte	0xc
 5858 0b51 B102     		.2byte	0x2b1
 5859 0b53 A50B0000 		.4byte	0xba5
 5860 0b57 0C       		.uleb128 0xc
 5861 0b58 435200   		.ascii	"CR\000"
 5862 0b5b 0C       		.byte	0xc
 5863 0b5c B302     		.2byte	0x2b3
 5864 0b5e 4F040000 		.4byte	0x44f
 5865 0b62 00       		.byte	0
 5866 0b63 18       		.uleb128 0x18
 5867 0b64 4C0F0000 		.4byte	.LASF207
ARM GAS  /var/folders/7z/kps_xzfj7sn5l5gkyq8s9db00000gn/T//ccvBF34a.s 			page 106


 5868 0b68 0C       		.byte	0xc
 5869 0b69 B402     		.2byte	0x2b4
 5870 0b6b 4F040000 		.4byte	0x44f
 5871 0b6f 04       		.byte	0x4
 5872 0b70 0C       		.uleb128 0xc
 5873 0b71 50415200 		.ascii	"PAR\000"
 5874 0b75 0C       		.byte	0xc
 5875 0b76 B502     		.2byte	0x2b5
 5876 0b78 4F040000 		.4byte	0x44f
 5877 0b7c 08       		.byte	0x8
 5878 0b7d 18       		.uleb128 0x18
 5879 0b7e 4D040000 		.4byte	.LASF208
 5880 0b82 0C       		.byte	0xc
 5881 0b83 B602     		.2byte	0x2b6
 5882 0b85 4F040000 		.4byte	0x44f
 5883 0b89 0C       		.byte	0xc
 5884 0b8a 18       		.uleb128 0x18
 5885 0b8b D5080000 		.4byte	.LASF209
 5886 0b8f 0C       		.byte	0xc
 5887 0b90 B702     		.2byte	0x2b7
 5888 0b92 4F040000 		.4byte	0x44f
 5889 0b96 10       		.byte	0x10
 5890 0b97 0C       		.uleb128 0xc
 5891 0b98 46435200 		.ascii	"FCR\000"
 5892 0b9c 0C       		.byte	0xc
 5893 0b9d B802     		.2byte	0x2b8
 5894 0b9f 4F040000 		.4byte	0x44f
 5895 0ba3 14       		.byte	0x14
 5896 0ba4 00       		.byte	0
 5897 0ba5 1E       		.uleb128 0x1e
 5898 0ba6 DF080000 		.4byte	.LASF210
 5899 0baa 0C       		.byte	0xc
 5900 0bab B902     		.2byte	0x2b9
 5901 0bad 4E0B0000 		.4byte	0xb4e
 5902 0bb1 20       		.uleb128 0x20
 5903 0bb2 54       		.byte	0x54
 5904 0bb3 0C       		.byte	0xc
 5905 0bb4 FD04     		.2byte	0x4fd
 5906 0bb6 8D0D0000 		.4byte	0xd8d
 5907 0bba 0C       		.uleb128 0xc
 5908 0bbb 43523100 		.ascii	"CR1\000"
 5909 0bbf 0C       		.byte	0xc
 5910 0bc0 FF04     		.2byte	0x4ff
 5911 0bc2 D8070000 		.4byte	0x7d8
 5912 0bc6 00       		.byte	0
 5913 0bc7 18       		.uleb128 0x18
 5914 0bc8 C21E0000 		.4byte	.LASF168
 5915 0bcc 0C       		.byte	0xc
 5916 0bcd 0005     		.2byte	0x500
 5917 0bcf D5000000 		.4byte	0xd5
 5918 0bd3 02       		.byte	0x2
 5919 0bd4 0C       		.uleb128 0xc
 5920 0bd5 43523200 		.ascii	"CR2\000"
 5921 0bd9 0C       		.byte	0xc
 5922 0bda 0105     		.2byte	0x501
 5923 0bdc D8070000 		.4byte	0x7d8
 5924 0be0 04       		.byte	0x4
ARM GAS  /var/folders/7z/kps_xzfj7sn5l5gkyq8s9db00000gn/T//ccvBF34a.s 			page 107


 5925 0be1 18       		.uleb128 0x18
 5926 0be2 CC1E0000 		.4byte	.LASF169
 5927 0be6 0C       		.byte	0xc
 5928 0be7 0205     		.2byte	0x502
 5929 0be9 D5000000 		.4byte	0xd5
 5930 0bed 06       		.byte	0x6
 5931 0bee 18       		.uleb128 0x18
 5932 0bef F41F0000 		.4byte	.LASF211
 5933 0bf3 0C       		.byte	0xc
 5934 0bf4 0305     		.2byte	0x503
 5935 0bf6 D8070000 		.4byte	0x7d8
 5936 0bfa 08       		.byte	0x8
 5937 0bfb 18       		.uleb128 0x18
 5938 0bfc D61E0000 		.4byte	.LASF170
 5939 0c00 0C       		.byte	0xc
 5940 0c01 0405     		.2byte	0x504
 5941 0c03 D5000000 		.4byte	0xd5
 5942 0c07 0A       		.byte	0xa
 5943 0c08 18       		.uleb128 0x18
 5944 0c09 BB0A0000 		.4byte	.LASF212
 5945 0c0d 0C       		.byte	0xc
 5946 0c0e 0505     		.2byte	0x505
 5947 0c10 D8070000 		.4byte	0x7d8
 5948 0c14 0C       		.byte	0xc
 5949 0c15 18       		.uleb128 0x18
 5950 0c16 E01E0000 		.4byte	.LASF171
 5951 0c1a 0C       		.byte	0xc
 5952 0c1b 0605     		.2byte	0x506
 5953 0c1d D5000000 		.4byte	0xd5
 5954 0c21 0E       		.byte	0xe
 5955 0c22 0C       		.uleb128 0xc
 5956 0c23 535200   		.ascii	"SR\000"
 5957 0c26 0C       		.byte	0xc
 5958 0c27 0705     		.2byte	0x507
 5959 0c29 D8070000 		.4byte	0x7d8
 5960 0c2d 10       		.byte	0x10
 5961 0c2e 18       		.uleb128 0x18
 5962 0c2f EA1E0000 		.4byte	.LASF173
 5963 0c33 0C       		.byte	0xc
 5964 0c34 0805     		.2byte	0x508
 5965 0c36 D5000000 		.4byte	0xd5
 5966 0c3a 12       		.byte	0x12
 5967 0c3b 0C       		.uleb128 0xc
 5968 0c3c 45475200 		.ascii	"EGR\000"
 5969 0c40 0C       		.byte	0xc
 5970 0c41 0905     		.2byte	0x509
 5971 0c43 D8070000 		.4byte	0x7d8
 5972 0c47 14       		.byte	0x14
 5973 0c48 18       		.uleb128 0x18
 5974 0c49 F41E0000 		.4byte	.LASF174
 5975 0c4d 0C       		.byte	0xc
 5976 0c4e 0A05     		.2byte	0x50a
 5977 0c50 D5000000 		.4byte	0xd5
 5978 0c54 16       		.byte	0x16
 5979 0c55 18       		.uleb128 0x18
 5980 0c56 21240000 		.4byte	.LASF213
 5981 0c5a 0C       		.byte	0xc
ARM GAS  /var/folders/7z/kps_xzfj7sn5l5gkyq8s9db00000gn/T//ccvBF34a.s 			page 108


 5982 0c5b 0B05     		.2byte	0x50b
 5983 0c5d D8070000 		.4byte	0x7d8
 5984 0c61 18       		.byte	0x18
 5985 0c62 18       		.uleb128 0x18
 5986 0c63 FE1E0000 		.4byte	.LASF214
 5987 0c67 0C       		.byte	0xc
 5988 0c68 0C05     		.2byte	0x50c
 5989 0c6a D5000000 		.4byte	0xd5
 5990 0c6e 1A       		.byte	0x1a
 5991 0c6f 18       		.uleb128 0x18
 5992 0c70 27240000 		.4byte	.LASF215
 5993 0c74 0C       		.byte	0xc
 5994 0c75 0D05     		.2byte	0x50d
 5995 0c77 D8070000 		.4byte	0x7d8
 5996 0c7b 1C       		.byte	0x1c
 5997 0c7c 18       		.uleb128 0x18
 5998 0c7d 081F0000 		.4byte	.LASF216
 5999 0c81 0C       		.byte	0xc
 6000 0c82 0E05     		.2byte	0x50e
 6001 0c84 D5000000 		.4byte	0xd5
 6002 0c88 1E       		.byte	0x1e
 6003 0c89 18       		.uleb128 0x18
 6004 0c8a 0A080000 		.4byte	.LASF217
 6005 0c8e 0C       		.byte	0xc
 6006 0c8f 0F05     		.2byte	0x50f
 6007 0c91 D8070000 		.4byte	0x7d8
 6008 0c95 20       		.byte	0x20
 6009 0c96 18       		.uleb128 0x18
 6010 0c97 121F0000 		.4byte	.LASF218
 6011 0c9b 0C       		.byte	0xc
 6012 0c9c 1005     		.2byte	0x510
 6013 0c9e D5000000 		.4byte	0xd5
 6014 0ca2 22       		.byte	0x22
 6015 0ca3 0C       		.uleb128 0xc
 6016 0ca4 434E5400 		.ascii	"CNT\000"
 6017 0ca8 0C       		.byte	0xc
 6018 0ca9 1105     		.2byte	0x511
 6019 0cab 4F040000 		.4byte	0x44f
 6020 0caf 24       		.byte	0x24
 6021 0cb0 0C       		.uleb128 0xc
 6022 0cb1 50534300 		.ascii	"PSC\000"
 6023 0cb5 0C       		.byte	0xc
 6024 0cb6 1205     		.2byte	0x512
 6025 0cb8 D8070000 		.4byte	0x7d8
 6026 0cbc 28       		.byte	0x28
 6027 0cbd 18       		.uleb128 0x18
 6028 0cbe 1C1F0000 		.4byte	.LASF219
 6029 0cc2 0C       		.byte	0xc
 6030 0cc3 1305     		.2byte	0x513
 6031 0cc5 D5000000 		.4byte	0xd5
 6032 0cc9 2A       		.byte	0x2a
 6033 0cca 0C       		.uleb128 0xc
 6034 0ccb 41525200 		.ascii	"ARR\000"
 6035 0ccf 0C       		.byte	0xc
 6036 0cd0 1405     		.2byte	0x514
 6037 0cd2 4F040000 		.4byte	0x44f
 6038 0cd6 2C       		.byte	0x2c
ARM GAS  /var/folders/7z/kps_xzfj7sn5l5gkyq8s9db00000gn/T//ccvBF34a.s 			page 109


 6039 0cd7 0C       		.uleb128 0xc
 6040 0cd8 52435200 		.ascii	"RCR\000"
 6041 0cdc 0C       		.byte	0xc
 6042 0cdd 1505     		.2byte	0x515
 6043 0cdf D8070000 		.4byte	0x7d8
 6044 0ce3 30       		.byte	0x30
 6045 0ce4 18       		.uleb128 0x18
 6046 0ce5 2F120000 		.4byte	.LASF220
 6047 0ce9 0C       		.byte	0xc
 6048 0cea 1605     		.2byte	0x516
 6049 0cec D5000000 		.4byte	0xd5
 6050 0cf0 32       		.byte	0x32
 6051 0cf1 18       		.uleb128 0x18
 6052 0cf2 F80E0000 		.4byte	.LASF221
 6053 0cf6 0C       		.byte	0xc
 6054 0cf7 1705     		.2byte	0x517
 6055 0cf9 4F040000 		.4byte	0x44f
 6056 0cfd 34       		.byte	0x34
 6057 0cfe 18       		.uleb128 0x18
 6058 0cff FD0E0000 		.4byte	.LASF222
 6059 0d03 0C       		.byte	0xc
 6060 0d04 1805     		.2byte	0x518
 6061 0d06 4F040000 		.4byte	0x44f
 6062 0d0a 38       		.byte	0x38
 6063 0d0b 18       		.uleb128 0x18
 6064 0d0c 020F0000 		.4byte	.LASF223
 6065 0d10 0C       		.byte	0xc
 6066 0d11 1905     		.2byte	0x519
 6067 0d13 4F040000 		.4byte	0x44f
 6068 0d17 3C       		.byte	0x3c
 6069 0d18 18       		.uleb128 0x18
 6070 0d19 070F0000 		.4byte	.LASF224
 6071 0d1d 0C       		.byte	0xc
 6072 0d1e 1A05     		.2byte	0x51a
 6073 0d20 4F040000 		.4byte	0x44f
 6074 0d24 40       		.byte	0x40
 6075 0d25 18       		.uleb128 0x18
 6076 0d26 CF010000 		.4byte	.LASF225
 6077 0d2a 0C       		.byte	0xc
 6078 0d2b 1B05     		.2byte	0x51b
 6079 0d2d D8070000 		.4byte	0x7d8
 6080 0d31 44       		.byte	0x44
 6081 0d32 18       		.uleb128 0x18
 6082 0d33 27090000 		.4byte	.LASF226
 6083 0d37 0C       		.byte	0xc
 6084 0d38 1C05     		.2byte	0x51c
 6085 0d3a D5000000 		.4byte	0xd5
 6086 0d3e 46       		.byte	0x46
 6087 0d3f 0C       		.uleb128 0xc
 6088 0d40 44435200 		.ascii	"DCR\000"
 6089 0d44 0C       		.byte	0xc
 6090 0d45 1D05     		.2byte	0x51d
 6091 0d47 D8070000 		.4byte	0x7d8
 6092 0d4b 48       		.byte	0x48
 6093 0d4c 18       		.uleb128 0x18
 6094 0d4d 3A120000 		.4byte	.LASF227
 6095 0d51 0C       		.byte	0xc
ARM GAS  /var/folders/7z/kps_xzfj7sn5l5gkyq8s9db00000gn/T//ccvBF34a.s 			page 110


 6096 0d52 1E05     		.2byte	0x51e
 6097 0d54 D5000000 		.4byte	0xd5
 6098 0d58 4A       		.byte	0x4a
 6099 0d59 18       		.uleb128 0x18
 6100 0d5a 32160000 		.4byte	.LASF228
 6101 0d5e 0C       		.byte	0xc
 6102 0d5f 1F05     		.2byte	0x51f
 6103 0d61 D8070000 		.4byte	0x7d8
 6104 0d65 4C       		.byte	0x4c
 6105 0d66 18       		.uleb128 0x18
 6106 0d67 45120000 		.4byte	.LASF229
 6107 0d6b 0C       		.byte	0xc
 6108 0d6c 2005     		.2byte	0x520
 6109 0d6e D5000000 		.4byte	0xd5
 6110 0d72 4E       		.byte	0x4e
 6111 0d73 0C       		.uleb128 0xc
 6112 0d74 4F5200   		.ascii	"OR\000"
 6113 0d77 0C       		.byte	0xc
 6114 0d78 2105     		.2byte	0x521
 6115 0d7a D8070000 		.4byte	0x7d8
 6116 0d7e 50       		.byte	0x50
 6117 0d7f 18       		.uleb128 0x18
 6118 0d80 50120000 		.4byte	.LASF230
 6119 0d84 0C       		.byte	0xc
 6120 0d85 2205     		.2byte	0x522
 6121 0d87 D5000000 		.4byte	0xd5
 6122 0d8b 52       		.byte	0x52
 6123 0d8c 00       		.byte	0
 6124 0d8d 1E       		.uleb128 0x1e
 6125 0d8e 0B120000 		.4byte	.LASF231
 6126 0d92 0C       		.byte	0xc
 6127 0d93 2305     		.2byte	0x523
 6128 0d95 B10B0000 		.4byte	0xbb1
 6129 0d99 08       		.uleb128 0x8
 6130 0d9a 18       		.byte	0x18
 6131 0d9b 0D       		.byte	0xd
 6132 0d9c 35       		.byte	0x35
 6133 0d9d F60D0000 		.4byte	0xdf6
 6134 0da1 06       		.uleb128 0x6
 6135 0da2 CB1B0000 		.4byte	.LASF232
 6136 0da6 0D       		.byte	0xd
 6137 0da7 37       		.byte	0x37
 6138 0da8 EB000000 		.4byte	0xeb
 6139 0dac 00       		.byte	0
 6140 0dad 06       		.uleb128 0x6
 6141 0dae 0C160000 		.4byte	.LASF233
 6142 0db2 0D       		.byte	0xd
 6143 0db3 39       		.byte	0x39
 6144 0db4 ED090000 		.4byte	0x9ed
 6145 0db8 04       		.byte	0x4
 6146 0db9 06       		.uleb128 0x6
 6147 0dba 481E0000 		.4byte	.LASF234
 6148 0dbe 0D       		.byte	0xd
 6149 0dbf 3D       		.byte	0x3d
 6150 0dc0 ED090000 		.4byte	0x9ed
 6151 0dc4 05       		.byte	0x5
 6152 0dc5 06       		.uleb128 0x6
ARM GAS  /var/folders/7z/kps_xzfj7sn5l5gkyq8s9db00000gn/T//ccvBF34a.s 			page 111


 6153 0dc6 93060000 		.4byte	.LASF235
 6154 0dca 0D       		.byte	0xd
 6155 0dcb 40       		.byte	0x40
 6156 0dcc EB000000 		.4byte	0xeb
 6157 0dd0 08       		.byte	0x8
 6158 0dd1 06       		.uleb128 0x6
 6159 0dd2 E4120000 		.4byte	.LASF236
 6160 0dd6 0D       		.byte	0xd
 6161 0dd7 44       		.byte	0x44
 6162 0dd8 EB000000 		.4byte	0xeb
 6163 0ddc 0C       		.byte	0xc
 6164 0ddd 06       		.uleb128 0x6
 6165 0dde 38130000 		.4byte	.LASF237
 6166 0de2 0D       		.byte	0xd
 6167 0de3 48       		.byte	0x48
 6168 0de4 EB000000 		.4byte	0xeb
 6169 0de8 10       		.byte	0x10
 6170 0de9 06       		.uleb128 0x6
 6171 0dea 13030000 		.4byte	.LASF238
 6172 0dee 0D       		.byte	0xd
 6173 0def 4B       		.byte	0x4b
 6174 0df0 CA000000 		.4byte	0xca
 6175 0df4 14       		.byte	0x14
 6176 0df5 00       		.byte	0
 6177 0df6 04       		.uleb128 0x4
 6178 0df7 B4210000 		.4byte	.LASF239
 6179 0dfb 0D       		.byte	0xd
 6180 0dfc 4F       		.byte	0x4f
 6181 0dfd 990D0000 		.4byte	0xd99
 6182 0e01 08       		.uleb128 0x8
 6183 0e02 10       		.byte	0x10
 6184 0e03 0D       		.byte	0xd
 6185 0e04 54       		.byte	0x54
 6186 0e05 3A0E0000 		.4byte	0xe3a
 6187 0e09 06       		.uleb128 0x6
 6188 0e0a A4030000 		.4byte	.LASF240
 6189 0e0e 0D       		.byte	0xd
 6190 0e0f 56       		.byte	0x56
 6191 0e10 EB000000 		.4byte	0xeb
 6192 0e14 00       		.byte	0
 6193 0e15 06       		.uleb128 0x6
 6194 0e16 D8150000 		.4byte	.LASF241
 6195 0e1a 0D       		.byte	0xd
 6196 0e1b 59       		.byte	0x59
 6197 0e1c EB000000 		.4byte	0xeb
 6198 0e20 04       		.byte	0x4
 6199 0e21 06       		.uleb128 0x6
 6200 0e22 60060000 		.4byte	.LASF242
 6201 0e26 0D       		.byte	0xd
 6202 0e27 5C       		.byte	0x5c
 6203 0e28 EB000000 		.4byte	0xeb
 6204 0e2c 08       		.byte	0x8
 6205 0e2d 06       		.uleb128 0x6
 6206 0e2e 041A0000 		.4byte	.LASF243
 6207 0e32 0D       		.byte	0xd
 6208 0e33 60       		.byte	0x60
 6209 0e34 EB000000 		.4byte	0xeb
ARM GAS  /var/folders/7z/kps_xzfj7sn5l5gkyq8s9db00000gn/T//ccvBF34a.s 			page 112


 6210 0e38 0C       		.byte	0xc
 6211 0e39 00       		.byte	0
 6212 0e3a 04       		.uleb128 0x4
 6213 0e3b 4D1F0000 		.4byte	.LASF244
 6214 0e3f 0D       		.byte	0xd
 6215 0e40 64       		.byte	0x64
 6216 0e41 010E0000 		.4byte	0xe01
 6217 0e45 08       		.uleb128 0x8
 6218 0e46 3C       		.byte	0x3c
 6219 0e47 0E       		.byte	0xe
 6220 0e48 36       		.byte	0x36
 6221 0e49 020F0000 		.4byte	0xf02
 6222 0e4d 06       		.uleb128 0x6
 6223 0e4e 87060000 		.4byte	.LASF245
 6224 0e52 0E       		.byte	0xe
 6225 0e53 38       		.byte	0x38
 6226 0e54 EB000000 		.4byte	0xeb
 6227 0e58 00       		.byte	0
 6228 0e59 06       		.uleb128 0x6
 6229 0e5a 8A140000 		.4byte	.LASF246
 6230 0e5e 0E       		.byte	0xe
 6231 0e5f 3B       		.byte	0x3b
 6232 0e60 EB000000 		.4byte	0xeb
 6233 0e64 04       		.byte	0x4
 6234 0e65 06       		.uleb128 0x6
 6235 0e66 F8130000 		.4byte	.LASF247
 6236 0e6a 0E       		.byte	0xe
 6237 0e6b 3D       		.byte	0x3d
 6238 0e6c EB000000 		.4byte	0xeb
 6239 0e70 08       		.byte	0x8
 6240 0e71 06       		.uleb128 0x6
 6241 0e72 91180000 		.4byte	.LASF248
 6242 0e76 0E       		.byte	0xe
 6243 0e77 41       		.byte	0x41
 6244 0e78 EB000000 		.4byte	0xeb
 6245 0e7c 0C       		.byte	0xc
 6246 0e7d 06       		.uleb128 0x6
 6247 0e7e F7140000 		.4byte	.LASF249
 6248 0e82 0E       		.byte	0xe
 6249 0e83 45       		.byte	0x45
 6250 0e84 EB000000 		.4byte	0xeb
 6251 0e88 10       		.byte	0x10
 6252 0e89 06       		.uleb128 0x6
 6253 0e8a FC170000 		.4byte	.LASF250
 6254 0e8e 0E       		.byte	0xe
 6255 0e8f 49       		.byte	0x49
 6256 0e90 EB000000 		.4byte	0xeb
 6257 0e94 14       		.byte	0x14
 6258 0e95 06       		.uleb128 0x6
 6259 0e96 510C0000 		.4byte	.LASF251
 6260 0e9a 0E       		.byte	0xe
 6261 0e9b 4C       		.byte	0x4c
 6262 0e9c EB000000 		.4byte	0xeb
 6263 0ea0 18       		.byte	0x18
 6264 0ea1 06       		.uleb128 0x6
 6265 0ea2 690B0000 		.4byte	.LASF252
 6266 0ea6 0E       		.byte	0xe
ARM GAS  /var/folders/7z/kps_xzfj7sn5l5gkyq8s9db00000gn/T//ccvBF34a.s 			page 113


 6267 0ea7 4F       		.byte	0x4f
 6268 0ea8 EB000000 		.4byte	0xeb
 6269 0eac 1C       		.byte	0x1c
 6270 0ead 06       		.uleb128 0x6
 6271 0eae BA0E0000 		.4byte	.LASF253
 6272 0eb2 0E       		.byte	0xe
 6273 0eb3 52       		.byte	0x52
 6274 0eb4 EB000000 		.4byte	0xeb
 6275 0eb8 20       		.byte	0x20
 6276 0eb9 06       		.uleb128 0x6
 6277 0eba B9140000 		.4byte	.LASF254
 6278 0ebe 0E       		.byte	0xe
 6279 0ebf 55       		.byte	0x55
 6280 0ec0 EB000000 		.4byte	0xeb
 6281 0ec4 24       		.byte	0x24
 6282 0ec5 06       		.uleb128 0x6
 6283 0ec6 9F020000 		.4byte	.LASF255
 6284 0eca 0E       		.byte	0xe
 6285 0ecb 5A       		.byte	0x5a
 6286 0ecc EB000000 		.4byte	0xeb
 6287 0ed0 28       		.byte	0x28
 6288 0ed1 06       		.uleb128 0x6
 6289 0ed2 46130000 		.4byte	.LASF256
 6290 0ed6 0E       		.byte	0xe
 6291 0ed7 5D       		.byte	0x5d
 6292 0ed8 EB000000 		.4byte	0xeb
 6293 0edc 2C       		.byte	0x2c
 6294 0edd 06       		.uleb128 0x6
 6295 0ede 54220000 		.4byte	.LASF257
 6296 0ee2 0E       		.byte	0xe
 6297 0ee3 62       		.byte	0x62
 6298 0ee4 EB000000 		.4byte	0xeb
 6299 0ee8 30       		.byte	0x30
 6300 0ee9 06       		.uleb128 0x6
 6301 0eea 72000000 		.4byte	.LASF258
 6302 0eee 0E       		.byte	0xe
 6303 0eef 65       		.byte	0x65
 6304 0ef0 EB000000 		.4byte	0xeb
 6305 0ef4 34       		.byte	0x34
 6306 0ef5 06       		.uleb128 0x6
 6307 0ef6 850D0000 		.4byte	.LASF259
 6308 0efa 0E       		.byte	0xe
 6309 0efb 6A       		.byte	0x6a
 6310 0efc EB000000 		.4byte	0xeb
 6311 0f00 38       		.byte	0x38
 6312 0f01 00       		.byte	0
 6313 0f02 04       		.uleb128 0x4
 6314 0f03 7E020000 		.4byte	.LASF260
 6315 0f07 0E       		.byte	0xe
 6316 0f08 6E       		.byte	0x6e
 6317 0f09 450E0000 		.4byte	0xe45
 6318 0f0d 08       		.uleb128 0x8
 6319 0f0e 0C       		.byte	0xc
 6320 0f0f 0F       		.byte	0xf
 6321 0f10 37       		.byte	0x37
 6322 0f11 520F0000 		.4byte	0xf52
 6323 0f15 06       		.uleb128 0x6
ARM GAS  /var/folders/7z/kps_xzfj7sn5l5gkyq8s9db00000gn/T//ccvBF34a.s 			page 114


 6324 0f16 7A0C0000 		.4byte	.LASF261
 6325 0f1a 0F       		.byte	0xf
 6326 0f1b 39       		.byte	0x39
 6327 0f1c D5000000 		.4byte	0xd5
 6328 0f20 00       		.byte	0
 6329 0f21 06       		.uleb128 0x6
 6330 0f22 90170000 		.4byte	.LASF262
 6331 0f26 0F       		.byte	0xf
 6332 0f27 3C       		.byte	0x3c
 6333 0f28 D5000000 		.4byte	0xd5
 6334 0f2c 02       		.byte	0x2
 6335 0f2d 06       		.uleb128 0x6
 6336 0f2e C10B0000 		.4byte	.LASF263
 6337 0f32 0F       		.byte	0xf
 6338 0f33 3F       		.byte	0x3f
 6339 0f34 EB000000 		.4byte	0xeb
 6340 0f38 04       		.byte	0x4
 6341 0f39 06       		.uleb128 0x6
 6342 0f3a 47030000 		.4byte	.LASF264
 6343 0f3e 0F       		.byte	0xf
 6344 0f3f 43       		.byte	0x43
 6345 0f40 D5000000 		.4byte	0xd5
 6346 0f44 08       		.byte	0x8
 6347 0f45 06       		.uleb128 0x6
 6348 0f46 940A0000 		.4byte	.LASF265
 6349 0f4a 0F       		.byte	0xf
 6350 0f4b 46       		.byte	0x46
 6351 0f4c CA000000 		.4byte	0xca
 6352 0f50 0A       		.byte	0xa
 6353 0f51 00       		.byte	0
 6354 0f52 04       		.uleb128 0x4
 6355 0f53 A0170000 		.4byte	.LASF266
 6356 0f57 0F       		.byte	0xf
 6357 0f58 4E       		.byte	0x4e
 6358 0f59 0D0F0000 		.4byte	0xf0d
 6359 0f5d 08       		.uleb128 0x8
 6360 0f5e 14       		.byte	0x14
 6361 0f5f 0F       		.byte	0xf
 6362 0f60 54       		.byte	0x54
 6363 0f61 C60F0000 		.4byte	0xfc6
 6364 0f65 06       		.uleb128 0x6
 6365 0f66 F2080000 		.4byte	.LASF267
 6366 0f6a 0F       		.byte	0xf
 6367 0f6b 56       		.byte	0x56
 6368 0f6c D5000000 		.4byte	0xd5
 6369 0f70 00       		.byte	0
 6370 0f71 06       		.uleb128 0x6
 6371 0f72 5A140000 		.4byte	.LASF268
 6372 0f76 0F       		.byte	0xf
 6373 0f77 59       		.byte	0x59
 6374 0f78 D5000000 		.4byte	0xd5
 6375 0f7c 02       		.byte	0x2
 6376 0f7d 06       		.uleb128 0x6
 6377 0f7e 4E180000 		.4byte	.LASF269
 6378 0f82 0F       		.byte	0xf
 6379 0f83 5C       		.byte	0x5c
 6380 0f84 D5000000 		.4byte	0xd5
ARM GAS  /var/folders/7z/kps_xzfj7sn5l5gkyq8s9db00000gn/T//ccvBF34a.s 			page 115


 6381 0f88 04       		.byte	0x4
 6382 0f89 06       		.uleb128 0x6
 6383 0f8a 43020000 		.4byte	.LASF270
 6384 0f8e 0F       		.byte	0xf
 6385 0f8f 60       		.byte	0x60
 6386 0f90 EB000000 		.4byte	0xeb
 6387 0f94 08       		.byte	0x8
 6388 0f95 06       		.uleb128 0x6
 6389 0f96 F2000000 		.4byte	.LASF271
 6390 0f9a 0F       		.byte	0xf
 6391 0f9b 63       		.byte	0x63
 6392 0f9c D5000000 		.4byte	0xd5
 6393 0fa0 0C       		.byte	0xc
 6394 0fa1 06       		.uleb128 0x6
 6395 0fa2 4F100000 		.4byte	.LASF272
 6396 0fa6 0F       		.byte	0xf
 6397 0fa7 66       		.byte	0x66
 6398 0fa8 D5000000 		.4byte	0xd5
 6399 0fac 0E       		.byte	0xe
 6400 0fad 06       		.uleb128 0x6
 6401 0fae 05050000 		.4byte	.LASF273
 6402 0fb2 0F       		.byte	0xf
 6403 0fb3 6A       		.byte	0x6a
 6404 0fb4 D5000000 		.4byte	0xd5
 6405 0fb8 10       		.byte	0x10
 6406 0fb9 06       		.uleb128 0x6
 6407 0fba C7040000 		.4byte	.LASF274
 6408 0fbe 0F       		.byte	0xf
 6409 0fbf 6E       		.byte	0x6e
 6410 0fc0 D5000000 		.4byte	0xd5
 6411 0fc4 12       		.byte	0x12
 6412 0fc5 00       		.byte	0
 6413 0fc6 04       		.uleb128 0x4
 6414 0fc7 670F0000 		.4byte	.LASF275
 6415 0fcb 0F       		.byte	0xf
 6416 0fcc 71       		.byte	0x71
 6417 0fcd 5D0F0000 		.4byte	0xf5d
 6418 0fd1 08       		.uleb128 0x8
 6419 0fd2 0E       		.byte	0xe
 6420 0fd3 0F       		.byte	0xf
 6421 0fd4 8F       		.byte	0x8f
 6422 0fd5 2E100000 		.4byte	0x102e
 6423 0fd9 06       		.uleb128 0x6
 6424 0fda 12170000 		.4byte	.LASF276
 6425 0fde 0F       		.byte	0xf
 6426 0fdf 92       		.byte	0x92
 6427 0fe0 D5000000 		.4byte	0xd5
 6428 0fe4 00       		.byte	0
 6429 0fe5 06       		.uleb128 0x6
 6430 0fe6 61200000 		.4byte	.LASF277
 6431 0fea 0F       		.byte	0xf
 6432 0feb 95       		.byte	0x95
 6433 0fec D5000000 		.4byte	0xd5
 6434 0ff0 02       		.byte	0x2
 6435 0ff1 06       		.uleb128 0x6
 6436 0ff2 360A0000 		.4byte	.LASF278
 6437 0ff6 0F       		.byte	0xf
ARM GAS  /var/folders/7z/kps_xzfj7sn5l5gkyq8s9db00000gn/T//ccvBF34a.s 			page 116


 6438 0ff7 98       		.byte	0x98
 6439 0ff8 D5000000 		.4byte	0xd5
 6440 0ffc 04       		.byte	0x4
 6441 0ffd 06       		.uleb128 0x6
 6442 0ffe 33140000 		.4byte	.LASF279
 6443 1002 0F       		.byte	0xf
 6444 1003 9B       		.byte	0x9b
 6445 1004 D5000000 		.4byte	0xd5
 6446 1008 06       		.byte	0x6
 6447 1009 06       		.uleb128 0x6
 6448 100a E30A0000 		.4byte	.LASF280
 6449 100e 0F       		.byte	0xf
 6450 100f 9F       		.byte	0x9f
 6451 1010 D5000000 		.4byte	0xd5
 6452 1014 08       		.byte	0x8
 6453 1015 06       		.uleb128 0x6
 6454 1016 E20C0000 		.4byte	.LASF281
 6455 101a 0F       		.byte	0xf
 6456 101b A2       		.byte	0xa2
 6457 101c D5000000 		.4byte	0xd5
 6458 1020 0A       		.byte	0xa
 6459 1021 06       		.uleb128 0x6
 6460 1022 F2030000 		.4byte	.LASF282
 6461 1026 0F       		.byte	0xf
 6462 1027 A5       		.byte	0xa5
 6463 1028 D5000000 		.4byte	0xd5
 6464 102c 0C       		.byte	0xc
 6465 102d 00       		.byte	0
 6466 102e 04       		.uleb128 0x4
 6467 102f 261F0000 		.4byte	.LASF283
 6468 1033 0F       		.byte	0xf
 6469 1034 A7       		.byte	0xa7
 6470 1035 D10F0000 		.4byte	0xfd1
 6471 1039 08       		.uleb128 0x8
 6472 103a 04       		.byte	0x4
 6473 103b 10       		.byte	0x10
 6474 103c 36       		.byte	0x36
 6475 103d 72100000 		.4byte	0x1072
 6476 1041 06       		.uleb128 0x6
 6477 1042 26180000 		.4byte	.LASF284
 6478 1046 10       		.byte	0x10
 6479 1047 38       		.byte	0x38
 6480 1048 CA000000 		.4byte	0xca
 6481 104c 00       		.byte	0
 6482 104d 06       		.uleb128 0x6
 6483 104e 980C0000 		.4byte	.LASF285
 6484 1052 10       		.byte	0x10
 6485 1053 3D       		.byte	0x3d
 6486 1054 CA000000 		.4byte	0xca
 6487 1058 01       		.byte	0x1
 6488 1059 06       		.uleb128 0x6
 6489 105a 52230000 		.4byte	.LASF286
 6490 105e 10       		.byte	0x10
 6491 105f 42       		.byte	0x42
 6492 1060 CA000000 		.4byte	0xca
 6493 1064 02       		.byte	0x2
 6494 1065 06       		.uleb128 0x6
ARM GAS  /var/folders/7z/kps_xzfj7sn5l5gkyq8s9db00000gn/T//ccvBF34a.s 			page 117


 6495 1066 3B080000 		.4byte	.LASF287
 6496 106a 10       		.byte	0x10
 6497 106b 47       		.byte	0x47
 6498 106c ED090000 		.4byte	0x9ed
 6499 1070 03       		.byte	0x3
 6500 1071 00       		.byte	0
 6501 1072 04       		.uleb128 0x4
 6502 1073 0D040000 		.4byte	.LASF288
 6503 1077 10       		.byte	0x10
 6504 1078 4A       		.byte	0x4a
 6505 1079 39100000 		.4byte	0x1039
 6506 107d 08       		.uleb128 0x8
 6507 107e 0C       		.byte	0xc
 6508 107f 11       		.byte	0x11
 6509 1080 DA       		.byte	0xda
 6510 1081 C2100000 		.4byte	0x10c2
 6511 1085 06       		.uleb128 0x6
 6512 1086 60240000 		.4byte	.LASF289
 6513 108a 11       		.byte	0x11
 6514 108b DB       		.byte	0xdb
 6515 108c C2100000 		.4byte	0x10c2
 6516 1090 00       		.byte	0
 6517 1091 06       		.uleb128 0x6
 6518 1092 400F0000 		.4byte	.LASF290
 6519 1096 11       		.byte	0x11
 6520 1097 DC       		.byte	0xdc
 6521 1098 C8100000 		.4byte	0x10c8
 6522 109c 04       		.byte	0x4
 6523 109d 06       		.uleb128 0x6
 6524 109e EB040000 		.4byte	.LASF291
 6525 10a2 11       		.byte	0x11
 6526 10a3 DD       		.byte	0xdd
 6527 10a4 CA000000 		.4byte	0xca
 6528 10a8 08       		.byte	0x8
 6529 10a9 06       		.uleb128 0x6
 6530 10aa 2B1E0000 		.4byte	.LASF292
 6531 10ae 11       		.byte	0x11
 6532 10af DF       		.byte	0xdf
 6533 10b0 CA000000 		.4byte	0xca
 6534 10b4 09       		.byte	0x9
 6535 10b5 06       		.uleb128 0x6
 6536 10b6 06040000 		.4byte	.LASF293
 6537 10ba 11       		.byte	0x11
 6538 10bb E0       		.byte	0xe0
 6539 10bc CA000000 		.4byte	0xca
 6540 10c0 0A       		.byte	0xa
 6541 10c1 00       		.byte	0
 6542 10c2 09       		.uleb128 0x9
 6543 10c3 04       		.byte	0x4
 6544 10c4 A50B0000 		.4byte	0xba5
 6545 10c8 09       		.uleb128 0x9
 6546 10c9 04       		.byte	0x4
 6547 10ca 4F040000 		.4byte	0x44f
 6548 10ce 04       		.uleb128 0x4
 6549 10cf 1D050000 		.4byte	.LASF294
 6550 10d3 11       		.byte	0x11
 6551 10d4 E1       		.byte	0xe1
ARM GAS  /var/folders/7z/kps_xzfj7sn5l5gkyq8s9db00000gn/T//ccvBF34a.s 			page 118


 6552 10d5 7D100000 		.4byte	0x107d
 6553 10d9 04       		.uleb128 0x4
 6554 10da E3190000 		.4byte	.LASF295
 6555 10de 11       		.byte	0x11
 6556 10df EA       		.byte	0xea
 6557 10e0 E4100000 		.4byte	0x10e4
 6558 10e4 09       		.uleb128 0x9
 6559 10e5 04       		.byte	0x4
 6560 10e6 EA100000 		.4byte	0x10ea
 6561 10ea 21       		.uleb128 0x21
 6562 10eb FA100000 		.4byte	0x10fa
 6563 10ef 12       		.uleb128 0x12
 6564 10f0 D0020000 		.4byte	0x2d0
 6565 10f4 12       		.uleb128 0x12
 6566 10f5 EB000000 		.4byte	0xeb
 6567 10f9 00       		.byte	0
 6568 10fa 08       		.uleb128 0x8
 6569 10fb 04       		.byte	0x4
 6570 10fc 12       		.byte	0x12
 6571 10fd 96       		.byte	0x96
 6572 10fe 1B110000 		.4byte	0x111b
 6573 1102 07       		.uleb128 0x7
 6574 1103 73657400 		.ascii	"set\000"
 6575 1107 12       		.byte	0x12
 6576 1108 97       		.byte	0x97
 6577 1109 D5000000 		.4byte	0xd5
 6578 110d 00       		.byte	0
 6579 110e 06       		.uleb128 0x6
 6580 110f F40C0000 		.4byte	.LASF296
 6581 1113 12       		.byte	0x12
 6582 1114 98       		.byte	0x98
 6583 1115 D5000000 		.4byte	0xd5
 6584 1119 02       		.byte	0x2
 6585 111a 00       		.byte	0
 6586 111b 0E       		.uleb128 0xe
 6587 111c 04       		.byte	0x4
 6588 111d 12       		.byte	0x12
 6589 111e 94       		.byte	0x94
 6590 111f 36110000 		.4byte	0x1136
 6591 1123 22       		.uleb128 0x22
 6592 1124 5700     		.ascii	"W\000"
 6593 1126 12       		.byte	0x12
 6594 1127 95       		.byte	0x95
 6595 1128 EB000000 		.4byte	0xeb
 6596 112c 22       		.uleb128 0x22
 6597 112d 4800     		.ascii	"H\000"
 6598 112f 12       		.byte	0x12
 6599 1130 99       		.byte	0x99
 6600 1131 FA100000 		.4byte	0x10fa
 6601 1135 00       		.byte	0
 6602 1136 08       		.uleb128 0x8
 6603 1137 28       		.byte	0x28
 6604 1138 12       		.byte	0x12
 6605 1139 8C       		.byte	0x8c
 6606 113a B7110000 		.4byte	0x11b7
 6607 113e 06       		.uleb128 0x6
 6608 113f 8B1E0000 		.4byte	.LASF297
ARM GAS  /var/folders/7z/kps_xzfj7sn5l5gkyq8s9db00000gn/T//ccvBF34a.s 			page 119


 6609 1143 12       		.byte	0x12
 6610 1144 8E       		.byte	0x8e
 6611 1145 4F040000 		.4byte	0x44f
 6612 1149 00       		.byte	0
 6613 114a 06       		.uleb128 0x6
 6614 114b CE030000 		.4byte	.LASF298
 6615 114f 12       		.byte	0x12
 6616 1150 8F       		.byte	0x8f
 6617 1151 4F040000 		.4byte	0x44f
 6618 1155 04       		.byte	0x4
 6619 1156 06       		.uleb128 0x6
 6620 1157 460E0000 		.4byte	.LASF299
 6621 115b 12       		.byte	0x12
 6622 115c 90       		.byte	0x90
 6623 115d 4F040000 		.4byte	0x44f
 6624 1161 08       		.byte	0x8
 6625 1162 06       		.uleb128 0x6
 6626 1163 521D0000 		.4byte	.LASF300
 6627 1167 12       		.byte	0x12
 6628 1168 91       		.byte	0x91
 6629 1169 4F040000 		.4byte	0x44f
 6630 116d 0C       		.byte	0xc
 6631 116e 07       		.uleb128 0x7
 6632 116f 49445200 		.ascii	"IDR\000"
 6633 1173 12       		.byte	0x12
 6634 1174 92       		.byte	0x92
 6635 1175 4F040000 		.4byte	0x44f
 6636 1179 10       		.byte	0x10
 6637 117a 07       		.uleb128 0x7
 6638 117b 4F445200 		.ascii	"ODR\000"
 6639 117f 12       		.byte	0x12
 6640 1180 93       		.byte	0x93
 6641 1181 4F040000 		.4byte	0x44f
 6642 1185 14       		.byte	0x14
 6643 1186 06       		.uleb128 0x6
 6644 1187 F4110000 		.4byte	.LASF301
 6645 118b 12       		.byte	0x12
 6646 118c 9A       		.byte	0x9a
 6647 118d B7110000 		.4byte	0x11b7
 6648 1191 18       		.byte	0x18
 6649 1192 06       		.uleb128 0x6
 6650 1193 5F180000 		.4byte	.LASF302
 6651 1197 12       		.byte	0x12
 6652 1198 9B       		.byte	0x9b
 6653 1199 4F040000 		.4byte	0x44f
 6654 119d 1C       		.byte	0x1c
 6655 119e 06       		.uleb128 0x6
 6656 119f B61B0000 		.4byte	.LASF303
 6657 11a3 12       		.byte	0x12
 6658 11a4 9C       		.byte	0x9c
 6659 11a5 4F040000 		.4byte	0x44f
 6660 11a9 20       		.byte	0x20
 6661 11aa 06       		.uleb128 0x6
 6662 11ab B11B0000 		.4byte	.LASF304
 6663 11af 12       		.byte	0x12
 6664 11b0 9D       		.byte	0x9d
 6665 11b1 4F040000 		.4byte	0x44f
ARM GAS  /var/folders/7z/kps_xzfj7sn5l5gkyq8s9db00000gn/T//ccvBF34a.s 			page 120


 6666 11b5 24       		.byte	0x24
 6667 11b6 00       		.byte	0
 6668 11b7 0D       		.uleb128 0xd
 6669 11b8 1B110000 		.4byte	0x111b
 6670 11bc 04       		.uleb128 0x4
 6671 11bd A7150000 		.4byte	.LASF305
 6672 11c1 12       		.byte	0x12
 6673 11c2 9E       		.byte	0x9e
 6674 11c3 36110000 		.4byte	0x1136
 6675 11c7 04       		.uleb128 0x4
 6676 11c8 EB130000 		.4byte	.LASF306
 6677 11cc 12       		.byte	0x12
 6678 11cd F0       		.byte	0xf0
 6679 11ce EB000000 		.4byte	0xeb
 6680 11d2 09       		.uleb128 0x9
 6681 11d3 04       		.byte	0x4
 6682 11d4 D8110000 		.4byte	0x11d8
 6683 11d8 10       		.uleb128 0x10
 6684 11d9 CE100000 		.4byte	0x10ce
 6685 11dd 04       		.uleb128 0x4
 6686 11de DA160000 		.4byte	.LASF307
 6687 11e2 13       		.byte	0x13
 6688 11e3 07       		.byte	0x7
 6689 11e4 2C000000 		.4byte	0x2c
 6690 11e8 04       		.uleb128 0x4
 6691 11e9 240D0000 		.4byte	.LASF308
 6692 11ed 14       		.byte	0x14
 6693 11ee 10       		.byte	0x10
 6694 11ef 8D000000 		.4byte	0x8d
 6695 11f3 04       		.uleb128 0x4
 6696 11f4 501C0000 		.4byte	.LASF309
 6697 11f8 14       		.byte	0x14
 6698 11f9 27       		.byte	0x27
 6699 11fa 8D000000 		.4byte	0x8d
 6700 11fe 1E       		.uleb128 0x1e
 6701 11ff 8D0E0000 		.4byte	.LASF310
 6702 1203 03       		.byte	0x3
 6703 1204 6101     		.2byte	0x161
 6704 1206 3E000000 		.4byte	0x3e
 6705 120a 0E       		.uleb128 0xe
 6706 120b 04       		.byte	0x4
 6707 120c 14       		.byte	0x14
 6708 120d 4A       		.byte	0x4a
 6709 120e 29120000 		.4byte	0x1229
 6710 1212 0F       		.uleb128 0xf
 6711 1213 84160000 		.4byte	.LASF311
 6712 1217 14       		.byte	0x14
 6713 1218 4C       		.byte	0x4c
 6714 1219 FE110000 		.4byte	0x11fe
 6715 121d 0F       		.uleb128 0xf
 6716 121e 4E0E0000 		.4byte	.LASF312
 6717 1222 14       		.byte	0x14
 6718 1223 4D       		.byte	0x4d
 6719 1224 29120000 		.4byte	0x1229
 6720 1228 00       		.byte	0
 6721 1229 1B       		.uleb128 0x1b
 6722 122a 62000000 		.4byte	0x62
ARM GAS  /var/folders/7z/kps_xzfj7sn5l5gkyq8s9db00000gn/T//ccvBF34a.s 			page 121


 6723 122e 39120000 		.4byte	0x1239
 6724 1232 1C       		.uleb128 0x1c
 6725 1233 54040000 		.4byte	0x454
 6726 1237 03       		.byte	0x3
 6727 1238 00       		.byte	0
 6728 1239 08       		.uleb128 0x8
 6729 123a 08       		.byte	0x8
 6730 123b 14       		.byte	0x14
 6731 123c 47       		.byte	0x47
 6732 123d 5A120000 		.4byte	0x125a
 6733 1241 06       		.uleb128 0x6
 6734 1242 410D0000 		.4byte	.LASF313
 6735 1246 14       		.byte	0x14
 6736 1247 49       		.byte	0x49
 6737 1248 2C000000 		.4byte	0x2c
 6738 124c 00       		.byte	0
 6739 124d 06       		.uleb128 0x6
 6740 124e AE1D0000 		.4byte	.LASF314
 6741 1252 14       		.byte	0x14
 6742 1253 4E       		.byte	0x4e
 6743 1254 0A120000 		.4byte	0x120a
 6744 1258 04       		.byte	0x4
 6745 1259 00       		.byte	0
 6746 125a 04       		.uleb128 0x4
 6747 125b EB1C0000 		.4byte	.LASF315
 6748 125f 14       		.byte	0x14
 6749 1260 4F       		.byte	0x4f
 6750 1261 39120000 		.4byte	0x1239
 6751 1265 04       		.uleb128 0x4
 6752 1266 EA200000 		.4byte	.LASF316
 6753 126a 14       		.byte	0x14
 6754 126b 53       		.byte	0x53
 6755 126c DD110000 		.4byte	0x11dd
 6756 1270 04       		.uleb128 0x4
 6757 1271 F9120000 		.4byte	.LASF317
 6758 1275 15       		.byte	0x15
 6759 1276 16       		.byte	0x16
 6760 1277 9F000000 		.4byte	0x9f
 6761 127b 05       		.uleb128 0x5
 6762 127c 351A0000 		.4byte	.LASF318
 6763 1280 18       		.byte	0x18
 6764 1281 15       		.byte	0x15
 6765 1282 2D       		.byte	0x2d
 6766 1283 CE120000 		.4byte	0x12ce
 6767 1287 06       		.uleb128 0x6
 6768 1288 DA0F0000 		.4byte	.LASF319
 6769 128c 15       		.byte	0x15
 6770 128d 2F       		.byte	0x2f
 6771 128e CE120000 		.4byte	0x12ce
 6772 1292 00       		.byte	0
 6773 1293 07       		.uleb128 0x7
 6774 1294 5F6B00   		.ascii	"_k\000"
 6775 1297 15       		.byte	0x15
 6776 1298 30       		.byte	0x30
 6777 1299 2C000000 		.4byte	0x2c
 6778 129d 04       		.byte	0x4
 6779 129e 06       		.uleb128 0x6
ARM GAS  /var/folders/7z/kps_xzfj7sn5l5gkyq8s9db00000gn/T//ccvBF34a.s 			page 122


 6780 129f 99180000 		.4byte	.LASF320
 6781 12a3 15       		.byte	0x15
 6782 12a4 30       		.byte	0x30
 6783 12a5 2C000000 		.4byte	0x2c
 6784 12a9 08       		.byte	0x8
 6785 12aa 06       		.uleb128 0x6
 6786 12ab 6D230000 		.4byte	.LASF321
 6787 12af 15       		.byte	0x15
 6788 12b0 30       		.byte	0x30
 6789 12b1 2C000000 		.4byte	0x2c
 6790 12b5 0C       		.byte	0xc
 6791 12b6 06       		.uleb128 0x6
 6792 12b7 0F0A0000 		.4byte	.LASF322
 6793 12bb 15       		.byte	0x15
 6794 12bc 30       		.byte	0x30
 6795 12bd 2C000000 		.4byte	0x2c
 6796 12c1 10       		.byte	0x10
 6797 12c2 07       		.uleb128 0x7
 6798 12c3 5F7800   		.ascii	"_x\000"
 6799 12c6 15       		.byte	0x15
 6800 12c7 31       		.byte	0x31
 6801 12c8 D4120000 		.4byte	0x12d4
 6802 12cc 14       		.byte	0x14
 6803 12cd 00       		.byte	0
 6804 12ce 09       		.uleb128 0x9
 6805 12cf 04       		.byte	0x4
 6806 12d0 7B120000 		.4byte	0x127b
 6807 12d4 1B       		.uleb128 0x1b
 6808 12d5 70120000 		.4byte	0x1270
 6809 12d9 E4120000 		.4byte	0x12e4
 6810 12dd 1C       		.uleb128 0x1c
 6811 12de 54040000 		.4byte	0x454
 6812 12e2 00       		.byte	0
 6813 12e3 00       		.byte	0
 6814 12e4 05       		.uleb128 0x5
 6815 12e5 AC060000 		.4byte	.LASF323
 6816 12e9 24       		.byte	0x24
 6817 12ea 15       		.byte	0x15
 6818 12eb 35       		.byte	0x35
 6819 12ec 5D130000 		.4byte	0x135d
 6820 12f0 06       		.uleb128 0x6
 6821 12f1 34110000 		.4byte	.LASF324
 6822 12f5 15       		.byte	0x15
 6823 12f6 37       		.byte	0x37
 6824 12f7 2C000000 		.4byte	0x2c
 6825 12fb 00       		.byte	0
 6826 12fc 06       		.uleb128 0x6
 6827 12fd AB230000 		.4byte	.LASF325
 6828 1301 15       		.byte	0x15
 6829 1302 38       		.byte	0x38
 6830 1303 2C000000 		.4byte	0x2c
 6831 1307 04       		.byte	0x4
 6832 1308 06       		.uleb128 0x6
 6833 1309 6B0E0000 		.4byte	.LASF326
 6834 130d 15       		.byte	0x15
 6835 130e 39       		.byte	0x39
 6836 130f 2C000000 		.4byte	0x2c
ARM GAS  /var/folders/7z/kps_xzfj7sn5l5gkyq8s9db00000gn/T//ccvBF34a.s 			page 123


 6837 1313 08       		.byte	0x8
 6838 1314 06       		.uleb128 0x6
 6839 1315 360F0000 		.4byte	.LASF327
 6840 1319 15       		.byte	0x15
 6841 131a 3A       		.byte	0x3a
 6842 131b 2C000000 		.4byte	0x2c
 6843 131f 0C       		.byte	0xc
 6844 1320 06       		.uleb128 0x6
 6845 1321 26120000 		.4byte	.LASF328
 6846 1325 15       		.byte	0x15
 6847 1326 3B       		.byte	0x3b
 6848 1327 2C000000 		.4byte	0x2c
 6849 132b 10       		.byte	0x10
 6850 132c 06       		.uleb128 0x6
 6851 132d B70B0000 		.4byte	.LASF329
 6852 1331 15       		.byte	0x15
 6853 1332 3C       		.byte	0x3c
 6854 1333 2C000000 		.4byte	0x2c
 6855 1337 14       		.byte	0x14
 6856 1338 06       		.uleb128 0x6
 6857 1339 71090000 		.4byte	.LASF330
 6858 133d 15       		.byte	0x15
 6859 133e 3D       		.byte	0x3d
 6860 133f 2C000000 		.4byte	0x2c
 6861 1343 18       		.byte	0x18
 6862 1344 06       		.uleb128 0x6
 6863 1345 D4060000 		.4byte	.LASF331
 6864 1349 15       		.byte	0x15
 6865 134a 3E       		.byte	0x3e
 6866 134b 2C000000 		.4byte	0x2c
 6867 134f 1C       		.byte	0x1c
 6868 1350 06       		.uleb128 0x6
 6869 1351 7B090000 		.4byte	.LASF332
 6870 1355 15       		.byte	0x15
 6871 1356 3F       		.byte	0x3f
 6872 1357 2C000000 		.4byte	0x2c
 6873 135b 20       		.byte	0x20
 6874 135c 00       		.byte	0
 6875 135d 23       		.uleb128 0x23
 6876 135e 61110000 		.4byte	.LASF333
 6877 1362 0801     		.2byte	0x108
 6878 1364 15       		.byte	0x15
 6879 1365 48       		.byte	0x48
 6880 1366 9D130000 		.4byte	0x139d
 6881 136a 06       		.uleb128 0x6
 6882 136b 580F0000 		.4byte	.LASF334
 6883 136f 15       		.byte	0x15
 6884 1370 49       		.byte	0x49
 6885 1371 9D130000 		.4byte	0x139d
 6886 1375 00       		.byte	0
 6887 1376 06       		.uleb128 0x6
 6888 1377 5D090000 		.4byte	.LASF335
 6889 137b 15       		.byte	0x15
 6890 137c 4A       		.byte	0x4a
 6891 137d 9D130000 		.4byte	0x139d
 6892 1381 80       		.byte	0x80
 6893 1382 24       		.uleb128 0x24
ARM GAS  /var/folders/7z/kps_xzfj7sn5l5gkyq8s9db00000gn/T//ccvBF34a.s 			page 124


 6894 1383 83010000 		.4byte	.LASF336
 6895 1387 15       		.byte	0x15
 6896 1388 4C       		.byte	0x4c
 6897 1389 70120000 		.4byte	0x1270
 6898 138d 0001     		.2byte	0x100
 6899 138f 24       		.uleb128 0x24
 6900 1390 C51D0000 		.4byte	.LASF337
 6901 1394 15       		.byte	0x15
 6902 1395 4F       		.byte	0x4f
 6903 1396 70120000 		.4byte	0x1270
 6904 139a 0401     		.2byte	0x104
 6905 139c 00       		.byte	0
 6906 139d 1B       		.uleb128 0x1b
 6907 139e D0020000 		.4byte	0x2d0
 6908 13a2 AD130000 		.4byte	0x13ad
 6909 13a6 1C       		.uleb128 0x1c
 6910 13a7 54040000 		.4byte	0x454
 6911 13ab 1F       		.byte	0x1f
 6912 13ac 00       		.byte	0
 6913 13ad 23       		.uleb128 0x23
 6914 13ae ED220000 		.4byte	.LASF338
 6915 13b2 9001     		.2byte	0x190
 6916 13b4 15       		.byte	0x15
 6917 13b5 5B       		.byte	0x5b
 6918 13b6 EB130000 		.4byte	0x13eb
 6919 13ba 06       		.uleb128 0x6
 6920 13bb DA0F0000 		.4byte	.LASF319
 6921 13bf 15       		.byte	0x15
 6922 13c0 5C       		.byte	0x5c
 6923 13c1 EB130000 		.4byte	0x13eb
 6924 13c5 00       		.byte	0
 6925 13c6 06       		.uleb128 0x6
 6926 13c7 B4010000 		.4byte	.LASF339
 6927 13cb 15       		.byte	0x15
 6928 13cc 5D       		.byte	0x5d
 6929 13cd 2C000000 		.4byte	0x2c
 6930 13d1 04       		.byte	0x4
 6931 13d2 06       		.uleb128 0x6
 6932 13d3 C31C0000 		.4byte	.LASF340
 6933 13d7 15       		.byte	0x15
 6934 13d8 5F       		.byte	0x5f
 6935 13d9 F1130000 		.4byte	0x13f1
 6936 13dd 08       		.byte	0x8
 6937 13de 06       		.uleb128 0x6
 6938 13df 61110000 		.4byte	.LASF333
 6939 13e3 15       		.byte	0x15
 6940 13e4 60       		.byte	0x60
 6941 13e5 5D130000 		.4byte	0x135d
 6942 13e9 88       		.byte	0x88
 6943 13ea 00       		.byte	0
 6944 13eb 09       		.uleb128 0x9
 6945 13ec 04       		.byte	0x4
 6946 13ed AD130000 		.4byte	0x13ad
 6947 13f1 1B       		.uleb128 0x1b
 6948 13f2 01140000 		.4byte	0x1401
 6949 13f6 01140000 		.4byte	0x1401
 6950 13fa 1C       		.uleb128 0x1c
ARM GAS  /var/folders/7z/kps_xzfj7sn5l5gkyq8s9db00000gn/T//ccvBF34a.s 			page 125


 6951 13fb 54040000 		.4byte	0x454
 6952 13ff 1F       		.byte	0x1f
 6953 1400 00       		.byte	0
 6954 1401 09       		.uleb128 0x9
 6955 1402 04       		.byte	0x4
 6956 1403 07140000 		.4byte	0x1407
 6957 1407 25       		.uleb128 0x25
 6958 1408 05       		.uleb128 0x5
 6959 1409 281D0000 		.4byte	.LASF341
 6960 140d 08       		.byte	0x8
 6961 140e 15       		.byte	0x15
 6962 140f 73       		.byte	0x73
 6963 1410 2D140000 		.4byte	0x142d
 6964 1414 06       		.uleb128 0x6
 6965 1415 AF110000 		.4byte	.LASF342
 6966 1419 15       		.byte	0x15
 6967 141a 74       		.byte	0x74
 6968 141b 2D140000 		.4byte	0x142d
 6969 141f 00       		.byte	0
 6970 1420 06       		.uleb128 0x6
 6971 1421 820A0000 		.4byte	.LASF343
 6972 1425 15       		.byte	0x15
 6973 1426 75       		.byte	0x75
 6974 1427 2C000000 		.4byte	0x2c
 6975 142b 04       		.byte	0x4
 6976 142c 00       		.byte	0
 6977 142d 09       		.uleb128 0x9
 6978 142e 04       		.byte	0x4
 6979 142f 62000000 		.4byte	0x62
 6980 1433 05       		.uleb128 0x5
 6981 1434 AC1C0000 		.4byte	.LASF344
 6982 1438 68       		.byte	0x68
 6983 1439 15       		.byte	0x15
 6984 143a B3       		.byte	0xb3
 6985 143b 5D150000 		.4byte	0x155d
 6986 143f 07       		.uleb128 0x7
 6987 1440 5F7000   		.ascii	"_p\000"
 6988 1443 15       		.byte	0x15
 6989 1444 B4       		.byte	0xb4
 6990 1445 2D140000 		.4byte	0x142d
 6991 1449 00       		.byte	0
 6992 144a 07       		.uleb128 0x7
 6993 144b 5F7200   		.ascii	"_r\000"
 6994 144e 15       		.byte	0x15
 6995 144f B5       		.byte	0xb5
 6996 1450 2C000000 		.4byte	0x2c
 6997 1454 04       		.byte	0x4
 6998 1455 07       		.uleb128 0x7
 6999 1456 5F7700   		.ascii	"_w\000"
 7000 1459 15       		.byte	0x15
 7001 145a B6       		.byte	0xb6
 7002 145b 2C000000 		.4byte	0x2c
 7003 145f 08       		.byte	0x8
 7004 1460 06       		.uleb128 0x6
 7005 1461 32020000 		.4byte	.LASF345
 7006 1465 15       		.byte	0x15
 7007 1466 B7       		.byte	0xb7
ARM GAS  /var/folders/7z/kps_xzfj7sn5l5gkyq8s9db00000gn/T//ccvBF34a.s 			page 126


 7008 1467 69000000 		.4byte	0x69
 7009 146b 0C       		.byte	0xc
 7010 146c 06       		.uleb128 0x6
 7011 146d 581C0000 		.4byte	.LASF346
 7012 1471 15       		.byte	0x15
 7013 1472 B8       		.byte	0xb8
 7014 1473 69000000 		.4byte	0x69
 7015 1477 0E       		.byte	0xe
 7016 1478 07       		.uleb128 0x7
 7017 1479 5F626600 		.ascii	"_bf\000"
 7018 147d 15       		.byte	0x15
 7019 147e B9       		.byte	0xb9
 7020 147f 08140000 		.4byte	0x1408
 7021 1483 10       		.byte	0x10
 7022 1484 06       		.uleb128 0x6
 7023 1485 FC040000 		.4byte	.LASF347
 7024 1489 15       		.byte	0x15
 7025 148a BA       		.byte	0xba
 7026 148b 2C000000 		.4byte	0x2c
 7027 148f 18       		.byte	0x18
 7028 1490 06       		.uleb128 0x6
 7029 1491 34100000 		.4byte	.LASF348
 7030 1495 15       		.byte	0x15
 7031 1496 C1       		.byte	0xc1
 7032 1497 D0020000 		.4byte	0x2d0
 7033 149b 1C       		.byte	0x1c
 7034 149c 06       		.uleb128 0x6
 7035 149d B2240000 		.4byte	.LASF349
 7036 14a1 15       		.byte	0x15
 7037 14a2 C3       		.byte	0xc3
 7038 14a3 B9160000 		.4byte	0x16b9
 7039 14a7 20       		.byte	0x20
 7040 14a8 06       		.uleb128 0x6
 7041 14a9 020B0000 		.4byte	.LASF350
 7042 14ad 15       		.byte	0x15
 7043 14ae C5       		.byte	0xc5
 7044 14af DD160000 		.4byte	0x16dd
 7045 14b3 24       		.byte	0x24
 7046 14b4 06       		.uleb128 0x6
 7047 14b5 E5130000 		.4byte	.LASF351
 7048 14b9 15       		.byte	0x15
 7049 14ba C8       		.byte	0xc8
 7050 14bb 01170000 		.4byte	0x1701
 7051 14bf 28       		.byte	0x28
 7052 14c0 06       		.uleb128 0x6
 7053 14c1 85190000 		.4byte	.LASF352
 7054 14c5 15       		.byte	0x15
 7055 14c6 C9       		.byte	0xc9
 7056 14c7 1B170000 		.4byte	0x171b
 7057 14cb 2C       		.byte	0x2c
 7058 14cc 07       		.uleb128 0x7
 7059 14cd 5F756200 		.ascii	"_ub\000"
 7060 14d1 15       		.byte	0x15
 7061 14d2 CC       		.byte	0xcc
 7062 14d3 08140000 		.4byte	0x1408
 7063 14d7 30       		.byte	0x30
 7064 14d8 07       		.uleb128 0x7
ARM GAS  /var/folders/7z/kps_xzfj7sn5l5gkyq8s9db00000gn/T//ccvBF34a.s 			page 127


 7065 14d9 5F757000 		.ascii	"_up\000"
 7066 14dd 15       		.byte	0x15
 7067 14de CD       		.byte	0xcd
 7068 14df 2D140000 		.4byte	0x142d
 7069 14e3 38       		.byte	0x38
 7070 14e4 07       		.uleb128 0x7
 7071 14e5 5F757200 		.ascii	"_ur\000"
 7072 14e9 15       		.byte	0x15
 7073 14ea CE       		.byte	0xce
 7074 14eb 2C000000 		.4byte	0x2c
 7075 14ef 3C       		.byte	0x3c
 7076 14f0 06       		.uleb128 0x6
 7077 14f1 EE1B0000 		.4byte	.LASF353
 7078 14f5 15       		.byte	0x15
 7079 14f6 D1       		.byte	0xd1
 7080 14f7 21170000 		.4byte	0x1721
 7081 14fb 40       		.byte	0x40
 7082 14fc 06       		.uleb128 0x6
 7083 14fd 39030000 		.4byte	.LASF354
 7084 1501 15       		.byte	0x15
 7085 1502 D2       		.byte	0xd2
 7086 1503 31170000 		.4byte	0x1731
 7087 1507 43       		.byte	0x43
 7088 1508 07       		.uleb128 0x7
 7089 1509 5F6C6200 		.ascii	"_lb\000"
 7090 150d 15       		.byte	0x15
 7091 150e D5       		.byte	0xd5
 7092 150f 08140000 		.4byte	0x1408
 7093 1513 44       		.byte	0x44
 7094 1514 06       		.uleb128 0x6
 7095 1515 C21B0000 		.4byte	.LASF355
 7096 1519 15       		.byte	0x15
 7097 151a D8       		.byte	0xd8
 7098 151b 2C000000 		.4byte	0x2c
 7099 151f 4C       		.byte	0x4c
 7100 1520 06       		.uleb128 0x6
 7101 1521 B4150000 		.4byte	.LASF356
 7102 1525 15       		.byte	0x15
 7103 1526 D9       		.byte	0xd9
 7104 1527 E8110000 		.4byte	0x11e8
 7105 152b 50       		.byte	0x50
 7106 152c 06       		.uleb128 0x6
 7107 152d 4E050000 		.4byte	.LASF357
 7108 1531 15       		.byte	0x15
 7109 1532 DC       		.byte	0xdc
 7110 1533 7B150000 		.4byte	0x157b
 7111 1537 54       		.byte	0x54
 7112 1538 06       		.uleb128 0x6
 7113 1539 33030000 		.4byte	.LASF358
 7114 153d 15       		.byte	0x15
 7115 153e E0       		.byte	0xe0
 7116 153f 65120000 		.4byte	0x1265
 7117 1543 58       		.byte	0x58
 7118 1544 06       		.uleb128 0x6
 7119 1545 17010000 		.4byte	.LASF359
 7120 1549 15       		.byte	0x15
 7121 154a E2       		.byte	0xe2
ARM GAS  /var/folders/7z/kps_xzfj7sn5l5gkyq8s9db00000gn/T//ccvBF34a.s 			page 128


 7122 154b 5A120000 		.4byte	0x125a
 7123 154f 5C       		.byte	0x5c
 7124 1550 06       		.uleb128 0x6
 7125 1551 C4210000 		.4byte	.LASF360
 7126 1555 15       		.byte	0x15
 7127 1556 E3       		.byte	0xe3
 7128 1557 2C000000 		.4byte	0x2c
 7129 155b 64       		.byte	0x64
 7130 155c 00       		.byte	0
 7131 155d 11       		.uleb128 0x11
 7132 155e 2C000000 		.4byte	0x2c
 7133 1562 7B150000 		.4byte	0x157b
 7134 1566 12       		.uleb128 0x12
 7135 1567 7B150000 		.4byte	0x157b
 7136 156b 12       		.uleb128 0x12
 7137 156c D0020000 		.4byte	0x2d0
 7138 1570 12       		.uleb128 0x12
 7139 1571 B3160000 		.4byte	0x16b3
 7140 1575 12       		.uleb128 0x12
 7141 1576 2C000000 		.4byte	0x2c
 7142 157a 00       		.byte	0
 7143 157b 09       		.uleb128 0x9
 7144 157c 04       		.byte	0x4
 7145 157d 81150000 		.4byte	0x1581
 7146 1581 26       		.uleb128 0x26
 7147 1582 CC050000 		.4byte	.LASF361
 7148 1586 2804     		.2byte	0x428
 7149 1588 15       		.byte	0x15
 7150 1589 3902     		.2byte	0x239
 7151 158b B3160000 		.4byte	0x16b3
 7152 158f 18       		.uleb128 0x18
 7153 1590 170F0000 		.4byte	.LASF362
 7154 1594 15       		.byte	0x15
 7155 1595 3B02     		.2byte	0x23b
 7156 1597 2C000000 		.4byte	0x2c
 7157 159b 00       		.byte	0
 7158 159c 18       		.uleb128 0x18
 7159 159d 1D0C0000 		.4byte	.LASF363
 7160 15a1 15       		.byte	0x15
 7161 15a2 4002     		.2byte	0x240
 7162 15a4 88170000 		.4byte	0x1788
 7163 15a8 04       		.byte	0x4
 7164 15a9 18       		.uleb128 0x18
 7165 15aa CD090000 		.4byte	.LASF364
 7166 15ae 15       		.byte	0x15
 7167 15af 4002     		.2byte	0x240
 7168 15b1 88170000 		.4byte	0x1788
 7169 15b5 08       		.byte	0x8
 7170 15b6 18       		.uleb128 0x18
 7171 15b7 43090000 		.4byte	.LASF365
 7172 15bb 15       		.byte	0x15
 7173 15bc 4002     		.2byte	0x240
 7174 15be 88170000 		.4byte	0x1788
 7175 15c2 0C       		.byte	0xc
 7176 15c3 18       		.uleb128 0x18
 7177 15c4 AF010000 		.4byte	.LASF366
 7178 15c8 15       		.byte	0x15
ARM GAS  /var/folders/7z/kps_xzfj7sn5l5gkyq8s9db00000gn/T//ccvBF34a.s 			page 129


 7179 15c9 4202     		.2byte	0x242
 7180 15cb 2C000000 		.4byte	0x2c
 7181 15cf 10       		.byte	0x10
 7182 15d0 18       		.uleb128 0x18
 7183 15d1 BF120000 		.4byte	.LASF367
 7184 15d5 15       		.byte	0x15
 7185 15d6 4302     		.2byte	0x243
 7186 15d8 6A190000 		.4byte	0x196a
 7187 15dc 14       		.byte	0x14
 7188 15dd 18       		.uleb128 0x18
 7189 15de 67130000 		.4byte	.LASF368
 7190 15e2 15       		.byte	0x15
 7191 15e3 4502     		.2byte	0x245
 7192 15e5 2C000000 		.4byte	0x2c
 7193 15e9 30       		.byte	0x30
 7194 15ea 18       		.uleb128 0x18
 7195 15eb D5030000 		.4byte	.LASF369
 7196 15ef 15       		.byte	0x15
 7197 15f0 4602     		.2byte	0x246
 7198 15f2 33050000 		.4byte	0x533
 7199 15f6 34       		.byte	0x34
 7200 15f7 18       		.uleb128 0x18
 7201 15f8 A5200000 		.4byte	.LASF370
 7202 15fc 15       		.byte	0x15
 7203 15fd 4802     		.2byte	0x248
 7204 15ff 2C000000 		.4byte	0x2c
 7205 1603 38       		.byte	0x38
 7206 1604 18       		.uleb128 0x18
 7207 1605 191C0000 		.4byte	.LASF371
 7208 1609 15       		.byte	0x15
 7209 160a 4A02     		.2byte	0x24a
 7210 160c 85190000 		.4byte	0x1985
 7211 1610 3C       		.byte	0x3c
 7212 1611 18       		.uleb128 0x18
 7213 1612 4B090000 		.4byte	.LASF372
 7214 1616 15       		.byte	0x15
 7215 1617 4D02     		.2byte	0x24d
 7216 1619 CE120000 		.4byte	0x12ce
 7217 161d 40       		.byte	0x40
 7218 161e 18       		.uleb128 0x18
 7219 161f 39090000 		.4byte	.LASF373
 7220 1623 15       		.byte	0x15
 7221 1624 4E02     		.2byte	0x24e
 7222 1626 2C000000 		.4byte	0x2c
 7223 162a 44       		.byte	0x44
 7224 162b 18       		.uleb128 0x18
 7225 162c 431E0000 		.4byte	.LASF374
 7226 1630 15       		.byte	0x15
 7227 1631 4F02     		.2byte	0x24f
 7228 1633 CE120000 		.4byte	0x12ce
 7229 1637 48       		.byte	0x48
 7230 1638 18       		.uleb128 0x18
 7231 1639 19150000 		.4byte	.LASF375
 7232 163d 15       		.byte	0x15
 7233 163e 5002     		.2byte	0x250
 7234 1640 8B190000 		.4byte	0x198b
 7235 1644 4C       		.byte	0x4c
ARM GAS  /var/folders/7z/kps_xzfj7sn5l5gkyq8s9db00000gn/T//ccvBF34a.s 			page 130


 7236 1645 18       		.uleb128 0x18
 7237 1646 8E020000 		.4byte	.LASF376
 7238 164a 15       		.byte	0x15
 7239 164b 5302     		.2byte	0x253
 7240 164d 2C000000 		.4byte	0x2c
 7241 1651 50       		.byte	0x50
 7242 1652 18       		.uleb128 0x18
 7243 1653 DD0D0000 		.4byte	.LASF377
 7244 1657 15       		.byte	0x15
 7245 1658 5402     		.2byte	0x254
 7246 165a B3160000 		.4byte	0x16b3
 7247 165e 54       		.byte	0x54
 7248 165f 18       		.uleb128 0x18
 7249 1660 9F0E0000 		.4byte	.LASF378
 7250 1664 15       		.byte	0x15
 7251 1665 7702     		.2byte	0x277
 7252 1667 48190000 		.4byte	0x1948
 7253 166b 58       		.byte	0x58
 7254 166c 1A       		.uleb128 0x1a
 7255 166d ED220000 		.4byte	.LASF338
 7256 1671 15       		.byte	0x15
 7257 1672 7B02     		.2byte	0x27b
 7258 1674 EB130000 		.4byte	0x13eb
 7259 1678 4801     		.2byte	0x148
 7260 167a 1A       		.uleb128 0x1a
 7261 167b 9F1A0000 		.4byte	.LASF379
 7262 167f 15       		.byte	0x15
 7263 1680 7C02     		.2byte	0x27c
 7264 1682 AD130000 		.4byte	0x13ad
 7265 1686 4C01     		.2byte	0x14c
 7266 1688 1A       		.uleb128 0x1a
 7267 1689 CF020000 		.4byte	.LASF380
 7268 168d 15       		.byte	0x15
 7269 168e 8002     		.2byte	0x280
 7270 1690 9C190000 		.4byte	0x199c
 7271 1694 DC02     		.2byte	0x2dc
 7272 1696 1A       		.uleb128 0x1a
 7273 1697 011C0000 		.4byte	.LASF381
 7274 169b 15       		.byte	0x15
 7275 169c 8502     		.2byte	0x285
 7276 169e 4D170000 		.4byte	0x174d
 7277 16a2 E002     		.2byte	0x2e0
 7278 16a4 1A       		.uleb128 0x1a
 7279 16a5 2E060000 		.4byte	.LASF382
 7280 16a9 15       		.byte	0x15
 7281 16aa 8602     		.2byte	0x286
 7282 16ac A8190000 		.4byte	0x19a8
 7283 16b0 EC02     		.2byte	0x2ec
 7284 16b2 00       		.byte	0
 7285 16b3 09       		.uleb128 0x9
 7286 16b4 04       		.byte	0x4
 7287 16b5 3E050000 		.4byte	0x53e
 7288 16b9 09       		.uleb128 0x9
 7289 16ba 04       		.byte	0x4
 7290 16bb 5D150000 		.4byte	0x155d
 7291 16bf 11       		.uleb128 0x11
 7292 16c0 2C000000 		.4byte	0x2c
ARM GAS  /var/folders/7z/kps_xzfj7sn5l5gkyq8s9db00000gn/T//ccvBF34a.s 			page 131


 7293 16c4 DD160000 		.4byte	0x16dd
 7294 16c8 12       		.uleb128 0x12
 7295 16c9 7B150000 		.4byte	0x157b
 7296 16cd 12       		.uleb128 0x12
 7297 16ce D0020000 		.4byte	0x2d0
 7298 16d2 12       		.uleb128 0x12
 7299 16d3 33050000 		.4byte	0x533
 7300 16d7 12       		.uleb128 0x12
 7301 16d8 2C000000 		.4byte	0x2c
 7302 16dc 00       		.byte	0
 7303 16dd 09       		.uleb128 0x9
 7304 16de 04       		.byte	0x4
 7305 16df BF160000 		.4byte	0x16bf
 7306 16e3 11       		.uleb128 0x11
 7307 16e4 F3110000 		.4byte	0x11f3
 7308 16e8 01170000 		.4byte	0x1701
 7309 16ec 12       		.uleb128 0x12
 7310 16ed 7B150000 		.4byte	0x157b
 7311 16f1 12       		.uleb128 0x12
 7312 16f2 D0020000 		.4byte	0x2d0
 7313 16f6 12       		.uleb128 0x12
 7314 16f7 F3110000 		.4byte	0x11f3
 7315 16fb 12       		.uleb128 0x12
 7316 16fc 2C000000 		.4byte	0x2c
 7317 1700 00       		.byte	0
 7318 1701 09       		.uleb128 0x9
 7319 1702 04       		.byte	0x4
 7320 1703 E3160000 		.4byte	0x16e3
 7321 1707 11       		.uleb128 0x11
 7322 1708 2C000000 		.4byte	0x2c
 7323 170c 1B170000 		.4byte	0x171b
 7324 1710 12       		.uleb128 0x12
 7325 1711 7B150000 		.4byte	0x157b
 7326 1715 12       		.uleb128 0x12
 7327 1716 D0020000 		.4byte	0x2d0
 7328 171a 00       		.byte	0
 7329 171b 09       		.uleb128 0x9
 7330 171c 04       		.byte	0x4
 7331 171d 07170000 		.4byte	0x1707
 7332 1721 1B       		.uleb128 0x1b
 7333 1722 62000000 		.4byte	0x62
 7334 1726 31170000 		.4byte	0x1731
 7335 172a 1C       		.uleb128 0x1c
 7336 172b 54040000 		.4byte	0x454
 7337 172f 02       		.byte	0x2
 7338 1730 00       		.byte	0
 7339 1731 1B       		.uleb128 0x1b
 7340 1732 62000000 		.4byte	0x62
 7341 1736 41170000 		.4byte	0x1741
 7342 173a 1C       		.uleb128 0x1c
 7343 173b 54040000 		.4byte	0x454
 7344 173f 00       		.byte	0
 7345 1740 00       		.byte	0
 7346 1741 1E       		.uleb128 0x1e
 7347 1742 31230000 		.4byte	.LASF383
 7348 1746 15       		.byte	0x15
 7349 1747 1D01     		.2byte	0x11d
ARM GAS  /var/folders/7z/kps_xzfj7sn5l5gkyq8s9db00000gn/T//ccvBF34a.s 			page 132


 7350 1749 33140000 		.4byte	0x1433
 7351 174d 0B       		.uleb128 0xb
 7352 174e A5190000 		.4byte	.LASF384
 7353 1752 0C       		.byte	0xc
 7354 1753 15       		.byte	0x15
 7355 1754 2101     		.2byte	0x121
 7356 1756 82170000 		.4byte	0x1782
 7357 175a 18       		.uleb128 0x18
 7358 175b DA0F0000 		.4byte	.LASF319
 7359 175f 15       		.byte	0x15
 7360 1760 2301     		.2byte	0x123
 7361 1762 82170000 		.4byte	0x1782
 7362 1766 00       		.byte	0
 7363 1767 18       		.uleb128 0x18
 7364 1768 CD0E0000 		.4byte	.LASF385
 7365 176c 15       		.byte	0x15
 7366 176d 2401     		.2byte	0x124
 7367 176f 2C000000 		.4byte	0x2c
 7368 1773 04       		.byte	0x4
 7369 1774 18       		.uleb128 0x18
 7370 1775 20180000 		.4byte	.LASF386
 7371 1779 15       		.byte	0x15
 7372 177a 2501     		.2byte	0x125
 7373 177c 88170000 		.4byte	0x1788
 7374 1780 08       		.byte	0x8
 7375 1781 00       		.byte	0
 7376 1782 09       		.uleb128 0x9
 7377 1783 04       		.byte	0x4
 7378 1784 4D170000 		.4byte	0x174d
 7379 1788 09       		.uleb128 0x9
 7380 1789 04       		.byte	0x4
 7381 178a 41170000 		.4byte	0x1741
 7382 178e 0B       		.uleb128 0xb
 7383 178f F6240000 		.4byte	.LASF387
 7384 1793 0E       		.byte	0xe
 7385 1794 15       		.byte	0x15
 7386 1795 3D01     		.2byte	0x13d
 7387 1797 C3170000 		.4byte	0x17c3
 7388 179b 18       		.uleb128 0x18
 7389 179c BE130000 		.4byte	.LASF388
 7390 17a0 15       		.byte	0x15
 7391 17a1 3E01     		.2byte	0x13e
 7392 17a3 C3170000 		.4byte	0x17c3
 7393 17a7 00       		.byte	0
 7394 17a8 18       		.uleb128 0x18
 7395 17a9 E00B0000 		.4byte	.LASF389
 7396 17ad 15       		.byte	0x15
 7397 17ae 3F01     		.2byte	0x13f
 7398 17b0 C3170000 		.4byte	0x17c3
 7399 17b4 06       		.byte	0x6
 7400 17b5 18       		.uleb128 0x18
 7401 17b6 3E040000 		.4byte	.LASF390
 7402 17ba 15       		.byte	0x15
 7403 17bb 4001     		.2byte	0x140
 7404 17bd 7B000000 		.4byte	0x7b
 7405 17c1 0C       		.byte	0xc
 7406 17c2 00       		.byte	0
ARM GAS  /var/folders/7z/kps_xzfj7sn5l5gkyq8s9db00000gn/T//ccvBF34a.s 			page 133


 7407 17c3 1B       		.uleb128 0x1b
 7408 17c4 7B000000 		.4byte	0x7b
 7409 17c8 D3170000 		.4byte	0x17d3
 7410 17cc 1C       		.uleb128 0x1c
 7411 17cd 54040000 		.4byte	0x454
 7412 17d1 02       		.byte	0x2
 7413 17d2 00       		.byte	0
 7414 17d3 20       		.uleb128 0x20
 7415 17d4 D0       		.byte	0xd0
 7416 17d5 15       		.byte	0x15
 7417 17d6 5802     		.2byte	0x258
 7418 17d8 D4180000 		.4byte	0x18d4
 7419 17dc 18       		.uleb128 0x18
 7420 17dd 80080000 		.4byte	.LASF391
 7421 17e1 15       		.byte	0x15
 7422 17e2 5A02     		.2byte	0x25a
 7423 17e4 3E000000 		.4byte	0x3e
 7424 17e8 00       		.byte	0
 7425 17e9 18       		.uleb128 0x18
 7426 17ea 83130000 		.4byte	.LASF392
 7427 17ee 15       		.byte	0x15
 7428 17ef 5B02     		.2byte	0x25b
 7429 17f1 B3160000 		.4byte	0x16b3
 7430 17f5 04       		.byte	0x4
 7431 17f6 18       		.uleb128 0x18
 7432 17f7 4F160000 		.4byte	.LASF393
 7433 17fb 15       		.byte	0x15
 7434 17fc 5C02     		.2byte	0x25c
 7435 17fe D4180000 		.4byte	0x18d4
 7436 1802 08       		.byte	0x8
 7437 1803 18       		.uleb128 0x18
 7438 1804 320D0000 		.4byte	.LASF394
 7439 1808 15       		.byte	0x15
 7440 1809 5D02     		.2byte	0x25d
 7441 180b E4120000 		.4byte	0x12e4
 7442 180f 24       		.byte	0x24
 7443 1810 18       		.uleb128 0x18
 7444 1811 E51F0000 		.4byte	.LASF395
 7445 1815 15       		.byte	0x15
 7446 1816 5E02     		.2byte	0x25e
 7447 1818 2C000000 		.4byte	0x2c
 7448 181c 48       		.byte	0x48
 7449 181d 18       		.uleb128 0x18
 7450 181e 43180000 		.4byte	.LASF396
 7451 1822 15       		.byte	0x15
 7452 1823 5F02     		.2byte	0x25f
 7453 1825 B8000000 		.4byte	0xb8
 7454 1829 50       		.byte	0x50
 7455 182a 18       		.uleb128 0x18
 7456 182b 51240000 		.4byte	.LASF397
 7457 182f 15       		.byte	0x15
 7458 1830 6002     		.2byte	0x260
 7459 1832 8E170000 		.4byte	0x178e
 7460 1836 58       		.byte	0x58
 7461 1837 18       		.uleb128 0x18
 7462 1838 F41B0000 		.4byte	.LASF398
 7463 183c 15       		.byte	0x15
ARM GAS  /var/folders/7z/kps_xzfj7sn5l5gkyq8s9db00000gn/T//ccvBF34a.s 			page 134


 7464 183d 6102     		.2byte	0x261
 7465 183f 5A120000 		.4byte	0x125a
 7466 1843 68       		.byte	0x68
 7467 1844 18       		.uleb128 0x18
 7468 1845 45060000 		.4byte	.LASF399
 7469 1849 15       		.byte	0x15
 7470 184a 6202     		.2byte	0x262
 7471 184c 5A120000 		.4byte	0x125a
 7472 1850 70       		.byte	0x70
 7473 1851 18       		.uleb128 0x18
 7474 1852 26040000 		.4byte	.LASF400
 7475 1856 15       		.byte	0x15
 7476 1857 6302     		.2byte	0x263
 7477 1859 5A120000 		.4byte	0x125a
 7478 185d 78       		.byte	0x78
 7479 185e 18       		.uleb128 0x18
 7480 185f 02160000 		.4byte	.LASF401
 7481 1863 15       		.byte	0x15
 7482 1864 6402     		.2byte	0x264
 7483 1866 E4180000 		.4byte	0x18e4
 7484 186a 80       		.byte	0x80
 7485 186b 18       		.uleb128 0x18
 7486 186c 10100000 		.4byte	.LASF402
 7487 1870 15       		.byte	0x15
 7488 1871 6502     		.2byte	0x265
 7489 1873 F4180000 		.4byte	0x18f4
 7490 1877 88       		.byte	0x88
 7491 1878 18       		.uleb128 0x18
 7492 1879 151B0000 		.4byte	.LASF403
 7493 187d 15       		.byte	0x15
 7494 187e 6602     		.2byte	0x266
 7495 1880 2C000000 		.4byte	0x2c
 7496 1884 A0       		.byte	0xa0
 7497 1885 18       		.uleb128 0x18
 7498 1886 EF0B0000 		.4byte	.LASF404
 7499 188a 15       		.byte	0x15
 7500 188b 6702     		.2byte	0x267
 7501 188d 5A120000 		.4byte	0x125a
 7502 1891 A4       		.byte	0xa4
 7503 1892 18       		.uleb128 0x18
 7504 1893 550E0000 		.4byte	.LASF405
 7505 1897 15       		.byte	0x15
 7506 1898 6802     		.2byte	0x268
 7507 189a 5A120000 		.4byte	0x125a
 7508 189e AC       		.byte	0xac
 7509 189f 18       		.uleb128 0x18
 7510 18a0 FE090000 		.4byte	.LASF406
 7511 18a4 15       		.byte	0x15
 7512 18a5 6902     		.2byte	0x269
 7513 18a7 5A120000 		.4byte	0x125a
 7514 18ab B4       		.byte	0xb4
 7515 18ac 18       		.uleb128 0x18
 7516 18ad 17120000 		.4byte	.LASF407
 7517 18b1 15       		.byte	0x15
 7518 18b2 6A02     		.2byte	0x26a
 7519 18b4 5A120000 		.4byte	0x125a
 7520 18b8 BC       		.byte	0xbc
ARM GAS  /var/folders/7z/kps_xzfj7sn5l5gkyq8s9db00000gn/T//ccvBF34a.s 			page 135


 7521 18b9 18       		.uleb128 0x18
 7522 18ba A4160000 		.4byte	.LASF408
 7523 18be 15       		.byte	0x15
 7524 18bf 6B02     		.2byte	0x26b
 7525 18c1 5A120000 		.4byte	0x125a
 7526 18c5 C4       		.byte	0xc4
 7527 18c6 18       		.uleb128 0x18
 7528 18c7 F61C0000 		.4byte	.LASF409
 7529 18cb 15       		.byte	0x15
 7530 18cc 6C02     		.2byte	0x26c
 7531 18ce 2C000000 		.4byte	0x2c
 7532 18d2 CC       		.byte	0xcc
 7533 18d3 00       		.byte	0
 7534 18d4 1B       		.uleb128 0x1b
 7535 18d5 3E050000 		.4byte	0x53e
 7536 18d9 E4180000 		.4byte	0x18e4
 7537 18dd 1C       		.uleb128 0x1c
 7538 18de 54040000 		.4byte	0x454
 7539 18e2 19       		.byte	0x19
 7540 18e3 00       		.byte	0
 7541 18e4 1B       		.uleb128 0x1b
 7542 18e5 3E050000 		.4byte	0x53e
 7543 18e9 F4180000 		.4byte	0x18f4
 7544 18ed 1C       		.uleb128 0x1c
 7545 18ee 54040000 		.4byte	0x454
 7546 18f2 07       		.byte	0x7
 7547 18f3 00       		.byte	0
 7548 18f4 1B       		.uleb128 0x1b
 7549 18f5 3E050000 		.4byte	0x53e
 7550 18f9 04190000 		.4byte	0x1904
 7551 18fd 1C       		.uleb128 0x1c
 7552 18fe 54040000 		.4byte	0x454
 7553 1902 17       		.byte	0x17
 7554 1903 00       		.byte	0
 7555 1904 20       		.uleb128 0x20
 7556 1905 F0       		.byte	0xf0
 7557 1906 15       		.byte	0x15
 7558 1907 7102     		.2byte	0x271
 7559 1909 28190000 		.4byte	0x1928
 7560 190d 18       		.uleb128 0x18
 7561 190e CC210000 		.4byte	.LASF410
 7562 1912 15       		.byte	0x15
 7563 1913 7402     		.2byte	0x274
 7564 1915 28190000 		.4byte	0x1928
 7565 1919 00       		.byte	0
 7566 191a 18       		.uleb128 0x18
 7567 191b 2D0C0000 		.4byte	.LASF411
 7568 191f 15       		.byte	0x15
 7569 1920 7502     		.2byte	0x275
 7570 1922 38190000 		.4byte	0x1938
 7571 1926 78       		.byte	0x78
 7572 1927 00       		.byte	0
 7573 1928 1B       		.uleb128 0x1b
 7574 1929 2D140000 		.4byte	0x142d
 7575 192d 38190000 		.4byte	0x1938
 7576 1931 1C       		.uleb128 0x1c
 7577 1932 54040000 		.4byte	0x454
ARM GAS  /var/folders/7z/kps_xzfj7sn5l5gkyq8s9db00000gn/T//ccvBF34a.s 			page 136


 7578 1936 1D       		.byte	0x1d
 7579 1937 00       		.byte	0
 7580 1938 1B       		.uleb128 0x1b
 7581 1939 3E000000 		.4byte	0x3e
 7582 193d 48190000 		.4byte	0x1948
 7583 1941 1C       		.uleb128 0x1c
 7584 1942 54040000 		.4byte	0x454
 7585 1946 1D       		.byte	0x1d
 7586 1947 00       		.byte	0
 7587 1948 15       		.uleb128 0x15
 7588 1949 F0       		.byte	0xf0
 7589 194a 15       		.byte	0x15
 7590 194b 5602     		.2byte	0x256
 7591 194d 6A190000 		.4byte	0x196a
 7592 1951 27       		.uleb128 0x27
 7593 1952 CC050000 		.4byte	.LASF361
 7594 1956 15       		.byte	0x15
 7595 1957 6D02     		.2byte	0x26d
 7596 1959 D3170000 		.4byte	0x17d3
 7597 195d 27       		.uleb128 0x27
 7598 195e 3F030000 		.4byte	.LASF412
 7599 1962 15       		.byte	0x15
 7600 1963 7602     		.2byte	0x276
 7601 1965 04190000 		.4byte	0x1904
 7602 1969 00       		.byte	0
 7603 196a 1B       		.uleb128 0x1b
 7604 196b 3E050000 		.4byte	0x53e
 7605 196f 7A190000 		.4byte	0x197a
 7606 1973 1C       		.uleb128 0x1c
 7607 1974 54040000 		.4byte	0x454
 7608 1978 18       		.byte	0x18
 7609 1979 00       		.byte	0
 7610 197a 21       		.uleb128 0x21
 7611 197b 85190000 		.4byte	0x1985
 7612 197f 12       		.uleb128 0x12
 7613 1980 7B150000 		.4byte	0x157b
 7614 1984 00       		.byte	0
 7615 1985 09       		.uleb128 0x9
 7616 1986 04       		.byte	0x4
 7617 1987 7A190000 		.4byte	0x197a
 7618 198b 09       		.uleb128 0x9
 7619 198c 04       		.byte	0x4
 7620 198d CE120000 		.4byte	0x12ce
 7621 1991 21       		.uleb128 0x21
 7622 1992 9C190000 		.4byte	0x199c
 7623 1996 12       		.uleb128 0x12
 7624 1997 2C000000 		.4byte	0x2c
 7625 199b 00       		.byte	0
 7626 199c 09       		.uleb128 0x9
 7627 199d 04       		.byte	0x4
 7628 199e A2190000 		.4byte	0x19a2
 7629 19a2 09       		.uleb128 0x9
 7630 19a3 04       		.byte	0x4
 7631 19a4 91190000 		.4byte	0x1991
 7632 19a8 1B       		.uleb128 0x1b
 7633 19a9 41170000 		.4byte	0x1741
 7634 19ad B8190000 		.4byte	0x19b8
ARM GAS  /var/folders/7z/kps_xzfj7sn5l5gkyq8s9db00000gn/T//ccvBF34a.s 			page 137


 7635 19b1 1C       		.uleb128 0x1c
 7636 19b2 54040000 		.4byte	0x454
 7637 19b6 02       		.byte	0x2
 7638 19b7 00       		.byte	0
 7639 19b8 02       		.uleb128 0x2
 7640 19b9 08       		.byte	0x8
 7641 19ba 04       		.byte	0x4
 7642 19bb BC1C0000 		.4byte	.LASF413
 7643 19bf 02       		.uleb128 0x2
 7644 19c0 08       		.byte	0x8
 7645 19c1 04       		.byte	0x4
 7646 19c2 C0180000 		.4byte	.LASF414
 7647 19c6 04       		.uleb128 0x4
 7648 19c7 C90C0000 		.4byte	.LASF415
 7649 19cb 16       		.byte	0x16
 7650 19cc 34       		.byte	0x34
 7651 19cd 41170000 		.4byte	0x1741
 7652 19d1 28       		.uleb128 0x28
 7653 19d2 01       		.byte	0x1
 7654 19d3 17       		.byte	0x17
 7655 19d4 23       		.byte	0x23
 7656 19d5 F2190000 		.4byte	0x19f2
 7657 19d9 14       		.uleb128 0x14
 7658 19da 7A220000 		.4byte	.LASF416
 7659 19de 00       		.sleb128 0
 7660 19df 14       		.uleb128 0x14
 7661 19e0 C4200000 		.4byte	.LASF417
 7662 19e4 01       		.sleb128 1
 7663 19e5 14       		.uleb128 0x14
 7664 19e6 9B120000 		.4byte	.LASF418
 7665 19ea 02       		.sleb128 2
 7666 19eb 14       		.uleb128 0x14
 7667 19ec A2040000 		.4byte	.LASF419
 7668 19f0 03       		.sleb128 3
 7669 19f1 00       		.byte	0
 7670 19f2 04       		.uleb128 0x4
 7671 19f3 3D1A0000 		.4byte	.LASF420
 7672 19f7 17       		.byte	0x17
 7673 19f8 28       		.byte	0x28
 7674 19f9 D1190000 		.4byte	0x19d1
 7675 19fd 28       		.uleb128 0x28
 7676 19fe 01       		.byte	0x1
 7677 19ff 17       		.byte	0x17
 7678 1a00 2A       		.byte	0x2a
 7679 1a01 181A0000 		.4byte	0x1a18
 7680 1a05 14       		.uleb128 0x14
 7681 1a06 14210000 		.4byte	.LASF421
 7682 1a0a 00       		.sleb128 0
 7683 1a0b 14       		.uleb128 0x14
 7684 1a0c 70190000 		.4byte	.LASF422
 7685 1a10 01       		.sleb128 1
 7686 1a11 14       		.uleb128 0x14
 7687 1a12 B6040000 		.4byte	.LASF423
 7688 1a16 02       		.sleb128 2
 7689 1a17 00       		.byte	0
 7690 1a18 04       		.uleb128 0x4
 7691 1a19 D8040000 		.4byte	.LASF424
ARM GAS  /var/folders/7z/kps_xzfj7sn5l5gkyq8s9db00000gn/T//ccvBF34a.s 			page 138


 7692 1a1d 17       		.byte	0x17
 7693 1a1e 2E       		.byte	0x2e
 7694 1a1f FD190000 		.4byte	0x19fd
 7695 1a23 28       		.uleb128 0x28
 7696 1a24 01       		.byte	0x1
 7697 1a25 17       		.byte	0x17
 7698 1a26 30       		.byte	0x30
 7699 1a27 381A0000 		.4byte	0x1a38
 7700 1a2b 14       		.uleb128 0x14
 7701 1a2c CB170000 		.4byte	.LASF425
 7702 1a30 00       		.sleb128 0
 7703 1a31 14       		.uleb128 0x14
 7704 1a32 CC1A0000 		.4byte	.LASF426
 7705 1a36 01       		.sleb128 1
 7706 1a37 00       		.byte	0
 7707 1a38 04       		.uleb128 0x4
 7708 1a39 91200000 		.4byte	.LASF427
 7709 1a3d 17       		.byte	0x17
 7710 1a3e 33       		.byte	0x33
 7711 1a3f 231A0000 		.4byte	0x1a23
 7712 1a43 28       		.uleb128 0x28
 7713 1a44 01       		.byte	0x1
 7714 1a45 17       		.byte	0x17
 7715 1a46 35       		.byte	0x35
 7716 1a47 581A0000 		.4byte	0x1a58
 7717 1a4b 14       		.uleb128 0x14
 7718 1a4c E6240000 		.4byte	.LASF428
 7719 1a50 00       		.sleb128 0
 7720 1a51 14       		.uleb128 0x14
 7721 1a52 8D120000 		.4byte	.LASF429
 7722 1a56 01       		.sleb128 1
 7723 1a57 00       		.byte	0
 7724 1a58 04       		.uleb128 0x4
 7725 1a59 9C0F0000 		.4byte	.LASF430
 7726 1a5d 17       		.byte	0x17
 7727 1a5e 38       		.byte	0x38
 7728 1a5f 431A0000 		.4byte	0x1a43
 7729 1a63 28       		.uleb128 0x28
 7730 1a64 01       		.byte	0x1
 7731 1a65 17       		.byte	0x17
 7732 1a66 3A       		.byte	0x3a
 7733 1a67 961A0000 		.4byte	0x1a96
 7734 1a6b 14       		.uleb128 0x14
 7735 1a6c 23150000 		.4byte	.LASF431
 7736 1a70 00       		.sleb128 0
 7737 1a71 14       		.uleb128 0x14
 7738 1a72 1E0F0000 		.4byte	.LASF432
 7739 1a76 01       		.sleb128 1
 7740 1a77 14       		.uleb128 0x14
 7741 1a78 221B0000 		.4byte	.LASF433
 7742 1a7c 02       		.sleb128 2
 7743 1a7d 14       		.uleb128 0x14
 7744 1a7e A01F0000 		.4byte	.LASF434
 7745 1a82 03       		.sleb128 3
 7746 1a83 14       		.uleb128 0x14
 7747 1a84 330B0000 		.4byte	.LASF435
 7748 1a88 04       		.sleb128 4
ARM GAS  /var/folders/7z/kps_xzfj7sn5l5gkyq8s9db00000gn/T//ccvBF34a.s 			page 139


 7749 1a89 14       		.uleb128 0x14
 7750 1a8a 6E040000 		.4byte	.LASF436
 7751 1a8e 05       		.sleb128 5
 7752 1a8f 14       		.uleb128 0x14
 7753 1a90 33150000 		.4byte	.LASF437
 7754 1a94 06       		.sleb128 6
 7755 1a95 00       		.byte	0
 7756 1a96 04       		.uleb128 0x4
 7757 1a97 81210000 		.4byte	.LASF438
 7758 1a9b 17       		.byte	0x17
 7759 1a9c 42       		.byte	0x42
 7760 1a9d 631A0000 		.4byte	0x1a63
 7761 1aa1 08       		.uleb128 0x8
 7762 1aa2 1C       		.byte	0x1c
 7763 1aa3 17       		.byte	0x17
 7764 1aa4 4D       		.byte	0x4d
 7765 1aa5 FE1A0000 		.4byte	0x1afe
 7766 1aa9 06       		.uleb128 0x6
 7767 1aaa CD0D0000 		.4byte	.LASF439
 7768 1aae 17       		.byte	0x17
 7769 1aaf 4E       		.byte	0x4e
 7770 1ab0 25000000 		.4byte	0x25
 7771 1ab4 00       		.byte	0
 7772 1ab5 06       		.uleb128 0x6
 7773 1ab6 070D0000 		.4byte	.LASF440
 7774 1aba 17       		.byte	0x17
 7775 1abb 4F       		.byte	0x4f
 7776 1abc 25000000 		.4byte	0x25
 7777 1ac0 04       		.byte	0x4
 7778 1ac1 06       		.uleb128 0x6
 7779 1ac2 53130000 		.4byte	.LASF441
 7780 1ac6 17       		.byte	0x17
 7781 1ac7 50       		.byte	0x50
 7782 1ac8 25000000 		.4byte	0x25
 7783 1acc 08       		.byte	0x8
 7784 1acd 06       		.uleb128 0x6
 7785 1ace D4010000 		.4byte	.LASF442
 7786 1ad2 17       		.byte	0x17
 7787 1ad3 51       		.byte	0x51
 7788 1ad4 25000000 		.4byte	0x25
 7789 1ad8 0C       		.byte	0xc
 7790 1ad9 06       		.uleb128 0x6
 7791 1ada A40E0000 		.4byte	.LASF443
 7792 1ade 17       		.byte	0x17
 7793 1adf 52       		.byte	0x52
 7794 1ae0 25000000 		.4byte	0x25
 7795 1ae4 10       		.byte	0x10
 7796 1ae5 06       		.uleb128 0x6
 7797 1ae6 5E1C0000 		.4byte	.LASF444
 7798 1aea 17       		.byte	0x17
 7799 1aeb 53       		.byte	0x53
 7800 1aec E0000000 		.4byte	0xe0
 7801 1af0 14       		.byte	0x14
 7802 1af1 06       		.uleb128 0x6
 7803 1af2 DA210000 		.4byte	.LASF445
 7804 1af6 17       		.byte	0x17
 7805 1af7 54       		.byte	0x54
ARM GAS  /var/folders/7z/kps_xzfj7sn5l5gkyq8s9db00000gn/T//ccvBF34a.s 			page 140


 7806 1af8 EB000000 		.4byte	0xeb
 7807 1afc 18       		.byte	0x18
 7808 1afd 00       		.byte	0
 7809 1afe 04       		.uleb128 0x4
 7810 1aff 58170000 		.4byte	.LASF446
 7811 1b03 17       		.byte	0x17
 7812 1b04 55       		.byte	0x55
 7813 1b05 A11A0000 		.4byte	0x1aa1
 7814 1b09 08       		.uleb128 0x8
 7815 1b0a B0       		.byte	0xb0
 7816 1b0b 17       		.byte	0x17
 7817 1b0c 57       		.byte	0x57
 7818 1b0d 5E1D0000 		.4byte	0x1d5e
 7819 1b11 06       		.uleb128 0x6
 7820 1b12 20110000 		.4byte	.LASF447
 7821 1b16 17       		.byte	0x17
 7822 1b17 59       		.byte	0x59
 7823 1b18 181A0000 		.4byte	0x1a18
 7824 1b1c 00       		.byte	0
 7825 1b1d 06       		.uleb128 0x6
 7826 1b1e 140B0000 		.4byte	.LASF448
 7827 1b22 17       		.byte	0x17
 7828 1b23 5A       		.byte	0x5a
 7829 1b24 381A0000 		.4byte	0x1a38
 7830 1b28 01       		.byte	0x1
 7831 1b29 06       		.uleb128 0x6
 7832 1b2a 29110000 		.4byte	.LASF449
 7833 1b2e 17       		.byte	0x17
 7834 1b2f 5B       		.byte	0x5b
 7835 1b30 581A0000 		.4byte	0x1a58
 7836 1b34 02       		.byte	0x2
 7837 1b35 06       		.uleb128 0x6
 7838 1b36 41160000 		.4byte	.LASF450
 7839 1b3a 17       		.byte	0x17
 7840 1b3b 5D       		.byte	0x5d
 7841 1b3c 25000000 		.4byte	0x25
 7842 1b40 04       		.byte	0x4
 7843 1b41 06       		.uleb128 0x6
 7844 1b42 DC1A0000 		.4byte	.LASF451
 7845 1b46 17       		.byte	0x17
 7846 1b47 5E       		.byte	0x5e
 7847 1b48 25000000 		.4byte	0x25
 7848 1b4c 08       		.byte	0x8
 7849 1b4d 06       		.uleb128 0x6
 7850 1b4e 9F220000 		.4byte	.LASF452
 7851 1b52 17       		.byte	0x17
 7852 1b53 5F       		.byte	0x5f
 7853 1b54 25000000 		.4byte	0x25
 7854 1b58 0C       		.byte	0xc
 7855 1b59 06       		.uleb128 0x6
 7856 1b5a BE010000 		.4byte	.LASF453
 7857 1b5e 17       		.byte	0x17
 7858 1b5f 60       		.byte	0x60
 7859 1b60 25000000 		.4byte	0x25
 7860 1b64 10       		.byte	0x10
 7861 1b65 06       		.uleb128 0x6
 7862 1b66 12000000 		.4byte	.LASF454
ARM GAS  /var/folders/7z/kps_xzfj7sn5l5gkyq8s9db00000gn/T//ccvBF34a.s 			page 141


 7863 1b6a 17       		.byte	0x17
 7864 1b6b 61       		.byte	0x61
 7865 1b6c 25000000 		.4byte	0x25
 7866 1b70 14       		.byte	0x14
 7867 1b71 06       		.uleb128 0x6
 7868 1b72 F8020000 		.4byte	.LASF455
 7869 1b76 17       		.byte	0x17
 7870 1b77 62       		.byte	0x62
 7871 1b78 25000000 		.4byte	0x25
 7872 1b7c 18       		.byte	0x18
 7873 1b7d 06       		.uleb128 0x6
 7874 1b7e A1140000 		.4byte	.LASF456
 7875 1b82 17       		.byte	0x17
 7876 1b83 63       		.byte	0x63
 7877 1b84 25000000 		.4byte	0x25
 7878 1b88 1C       		.byte	0x1c
 7879 1b89 06       		.uleb128 0x6
 7880 1b8a 00000000 		.4byte	.LASF457
 7881 1b8e 17       		.byte	0x17
 7882 1b8f 64       		.byte	0x64
 7883 1b90 25000000 		.4byte	0x25
 7884 1b94 20       		.byte	0x20
 7885 1b95 06       		.uleb128 0x6
 7886 1b96 06220000 		.4byte	.LASF458
 7887 1b9a 17       		.byte	0x17
 7888 1b9b 65       		.byte	0x65
 7889 1b9c 25000000 		.4byte	0x25
 7890 1ba0 24       		.byte	0x24
 7891 1ba1 06       		.uleb128 0x6
 7892 1ba2 750E0000 		.4byte	.LASF459
 7893 1ba6 17       		.byte	0x17
 7894 1ba7 66       		.byte	0x66
 7895 1ba8 25000000 		.4byte	0x25
 7896 1bac 28       		.byte	0x28
 7897 1bad 06       		.uleb128 0x6
 7898 1bae B20D0000 		.4byte	.LASF460
 7899 1bb2 17       		.byte	0x17
 7900 1bb3 67       		.byte	0x67
 7901 1bb4 25000000 		.4byte	0x25
 7902 1bb8 2C       		.byte	0x2c
 7903 1bb9 06       		.uleb128 0x6
 7904 1bba 9C010000 		.4byte	.LASF461
 7905 1bbe 17       		.byte	0x17
 7906 1bbf 68       		.byte	0x68
 7907 1bc0 0C010000 		.4byte	0x10c
 7908 1bc4 30       		.byte	0x30
 7909 1bc5 06       		.uleb128 0x6
 7910 1bc6 1E0B0000 		.4byte	.LASF462
 7911 1bca 17       		.byte	0x17
 7912 1bcb 69       		.byte	0x69
 7913 1bcc 0C010000 		.4byte	0x10c
 7914 1bd0 31       		.byte	0x31
 7915 1bd1 06       		.uleb128 0x6
 7916 1bd2 AA0A0000 		.4byte	.LASF463
 7917 1bd6 17       		.byte	0x17
 7918 1bd7 6A       		.byte	0x6a
 7919 1bd8 25000000 		.4byte	0x25
ARM GAS  /var/folders/7z/kps_xzfj7sn5l5gkyq8s9db00000gn/T//ccvBF34a.s 			page 142


 7920 1bdc 34       		.byte	0x34
 7921 1bdd 06       		.uleb128 0x6
 7922 1bde BF030000 		.4byte	.LASF464
 7923 1be2 17       		.byte	0x17
 7924 1be3 6B       		.byte	0x6b
 7925 1be4 25000000 		.4byte	0x25
 7926 1be8 38       		.byte	0x38
 7927 1be9 06       		.uleb128 0x6
 7928 1bea 3C100000 		.4byte	.LASF465
 7929 1bee 17       		.byte	0x17
 7930 1bef 6C       		.byte	0x6c
 7931 1bf0 25000000 		.4byte	0x25
 7932 1bf4 3C       		.byte	0x3c
 7933 1bf5 06       		.uleb128 0x6
 7934 1bf6 DA1C0000 		.4byte	.LASF466
 7935 1bfa 17       		.byte	0x17
 7936 1bfb 6D       		.byte	0x6d
 7937 1bfc 25000000 		.4byte	0x25
 7938 1c00 40       		.byte	0x40
 7939 1c01 06       		.uleb128 0x6
 7940 1c02 DF230000 		.4byte	.LASF467
 7941 1c06 17       		.byte	0x17
 7942 1c07 6E       		.byte	0x6e
 7943 1c08 25000000 		.4byte	0x25
 7944 1c0c 44       		.byte	0x44
 7945 1c0d 06       		.uleb128 0x6
 7946 1c0e 790F0000 		.4byte	.LASF468
 7947 1c12 17       		.byte	0x17
 7948 1c13 6F       		.byte	0x6f
 7949 1c14 25000000 		.4byte	0x25
 7950 1c18 48       		.byte	0x48
 7951 1c19 06       		.uleb128 0x6
 7952 1c1a BA0C0000 		.4byte	.LASF469
 7953 1c1e 17       		.byte	0x17
 7954 1c1f 71       		.byte	0x71
 7955 1c20 25000000 		.4byte	0x25
 7956 1c24 4C       		.byte	0x4c
 7957 1c25 06       		.uleb128 0x6
 7958 1c26 671B0000 		.4byte	.LASF470
 7959 1c2a 17       		.byte	0x17
 7960 1c2b 72       		.byte	0x72
 7961 1c2c 25000000 		.4byte	0x25
 7962 1c30 50       		.byte	0x50
 7963 1c31 06       		.uleb128 0x6
 7964 1c32 631F0000 		.4byte	.LASF471
 7965 1c36 17       		.byte	0x17
 7966 1c37 73       		.byte	0x73
 7967 1c38 25000000 		.4byte	0x25
 7968 1c3c 54       		.byte	0x54
 7969 1c3d 06       		.uleb128 0x6
 7970 1c3e 86230000 		.4byte	.LASF472
 7971 1c42 17       		.byte	0x17
 7972 1c43 74       		.byte	0x74
 7973 1c44 25000000 		.4byte	0x25
 7974 1c48 58       		.byte	0x58
 7975 1c49 06       		.uleb128 0x6
 7976 1c4a 250A0000 		.4byte	.LASF473
ARM GAS  /var/folders/7z/kps_xzfj7sn5l5gkyq8s9db00000gn/T//ccvBF34a.s 			page 143


 7977 1c4e 17       		.byte	0x17
 7978 1c4f 76       		.byte	0x76
 7979 1c50 0C010000 		.4byte	0x10c
 7980 1c54 5C       		.byte	0x5c
 7981 1c55 06       		.uleb128 0x6
 7982 1c56 13230000 		.4byte	.LASF474
 7983 1c5a 17       		.byte	0x17
 7984 1c5b 77       		.byte	0x77
 7985 1c5c 25000000 		.4byte	0x25
 7986 1c60 60       		.byte	0x60
 7987 1c61 06       		.uleb128 0x6
 7988 1c62 A9050000 		.4byte	.LASF475
 7989 1c66 17       		.byte	0x17
 7990 1c67 78       		.byte	0x78
 7991 1c68 25000000 		.4byte	0x25
 7992 1c6c 64       		.byte	0x64
 7993 1c6d 06       		.uleb128 0x6
 7994 1c6e 3D110000 		.4byte	.LASF476
 7995 1c72 17       		.byte	0x17
 7996 1c73 79       		.byte	0x79
 7997 1c74 25000000 		.4byte	0x25
 7998 1c78 68       		.byte	0x68
 7999 1c79 06       		.uleb128 0x6
 8000 1c7a CA120000 		.4byte	.LASF477
 8001 1c7e 17       		.byte	0x17
 8002 1c7f 7A       		.byte	0x7a
 8003 1c80 25000000 		.4byte	0x25
 8004 1c84 6C       		.byte	0x6c
 8005 1c85 06       		.uleb128 0x6
 8006 1c86 90150000 		.4byte	.LASF478
 8007 1c8a 17       		.byte	0x17
 8008 1c8b 7B       		.byte	0x7b
 8009 1c8c 25000000 		.4byte	0x25
 8010 1c90 70       		.byte	0x70
 8011 1c91 06       		.uleb128 0x6
 8012 1c92 35200000 		.4byte	.LASF479
 8013 1c96 17       		.byte	0x17
 8014 1c97 7C       		.byte	0x7c
 8015 1c98 25000000 		.4byte	0x25
 8016 1c9c 74       		.byte	0x74
 8017 1c9d 06       		.uleb128 0x6
 8018 1c9e AB190000 		.4byte	.LASF480
 8019 1ca2 17       		.byte	0x17
 8020 1ca3 7D       		.byte	0x7d
 8021 1ca4 25000000 		.4byte	0x25
 8022 1ca8 78       		.byte	0x78
 8023 1ca9 06       		.uleb128 0x6
 8024 1caa 96020000 		.4byte	.LASF481
 8025 1cae 17       		.byte	0x17
 8026 1caf 7F       		.byte	0x7f
 8027 1cb0 BF000000 		.4byte	0xbf
 8028 1cb4 7C       		.byte	0x7c
 8029 1cb5 06       		.uleb128 0x6
 8030 1cb6 63190000 		.4byte	.LASF482
 8031 1cba 17       		.byte	0x17
 8032 1cbb 80       		.byte	0x80
 8033 1cbc BF000000 		.4byte	0xbf
ARM GAS  /var/folders/7z/kps_xzfj7sn5l5gkyq8s9db00000gn/T//ccvBF34a.s 			page 144


 8034 1cc0 7D       		.byte	0x7d
 8035 1cc1 06       		.uleb128 0x6
 8036 1cc2 BC080000 		.4byte	.LASF483
 8037 1cc6 17       		.byte	0x17
 8038 1cc7 81       		.byte	0x81
 8039 1cc8 BF000000 		.4byte	0xbf
 8040 1ccc 7E       		.byte	0x7e
 8041 1ccd 06       		.uleb128 0x6
 8042 1cce A81B0000 		.4byte	.LASF484
 8043 1cd2 17       		.byte	0x17
 8044 1cd3 83       		.byte	0x83
 8045 1cd4 25000000 		.4byte	0x25
 8046 1cd8 80       		.byte	0x80
 8047 1cd9 06       		.uleb128 0x6
 8048 1cda 9F1B0000 		.4byte	.LASF485
 8049 1cde 17       		.byte	0x17
 8050 1cdf 84       		.byte	0x84
 8051 1ce0 25000000 		.4byte	0x25
 8052 1ce4 84       		.byte	0x84
 8053 1ce5 06       		.uleb128 0x6
 8054 1ce6 0E090000 		.4byte	.LASF486
 8055 1cea 17       		.byte	0x17
 8056 1ceb 85       		.byte	0x85
 8057 1cec 25000000 		.4byte	0x25
 8058 1cf0 88       		.byte	0x88
 8059 1cf1 06       		.uleb128 0x6
 8060 1cf2 8A160000 		.4byte	.LASF487
 8061 1cf6 17       		.byte	0x17
 8062 1cf7 86       		.byte	0x86
 8063 1cf8 25000000 		.4byte	0x25
 8064 1cfc 8C       		.byte	0x8c
 8065 1cfd 06       		.uleb128 0x6
 8066 1cfe 5A190000 		.4byte	.LASF488
 8067 1d02 17       		.byte	0x17
 8068 1d03 88       		.byte	0x88
 8069 1d04 25000000 		.4byte	0x25
 8070 1d08 90       		.byte	0x90
 8071 1d09 06       		.uleb128 0x6
 8072 1d0a 51190000 		.4byte	.LASF489
 8073 1d0e 17       		.byte	0x17
 8074 1d0f 89       		.byte	0x89
 8075 1d10 25000000 		.4byte	0x25
 8076 1d14 94       		.byte	0x94
 8077 1d15 06       		.uleb128 0x6
 8078 1d16 48190000 		.4byte	.LASF490
 8079 1d1a 17       		.byte	0x17
 8080 1d1b 8A       		.byte	0x8a
 8081 1d1c 25000000 		.4byte	0x25
 8082 1d20 98       		.byte	0x98
 8083 1d21 06       		.uleb128 0x6
 8084 1d22 59020000 		.4byte	.LASF491
 8085 1d26 17       		.byte	0x17
 8086 1d27 8C       		.byte	0x8c
 8087 1d28 25000000 		.4byte	0x25
 8088 1d2c 9C       		.byte	0x9c
 8089 1d2d 06       		.uleb128 0x6
 8090 1d2e CE0C0000 		.4byte	.LASF492
ARM GAS  /var/folders/7z/kps_xzfj7sn5l5gkyq8s9db00000gn/T//ccvBF34a.s 			page 145


 8091 1d32 17       		.byte	0x17
 8092 1d33 8D       		.byte	0x8d
 8093 1d34 25000000 		.4byte	0x25
 8094 1d38 A0       		.byte	0xa0
 8095 1d39 06       		.uleb128 0x6
 8096 1d3a DB100000 		.4byte	.LASF493
 8097 1d3e 17       		.byte	0x17
 8098 1d3f 8E       		.byte	0x8e
 8099 1d40 25000000 		.4byte	0x25
 8100 1d44 A4       		.byte	0xa4
 8101 1d45 06       		.uleb128 0x6
 8102 1d46 30190000 		.4byte	.LASF494
 8103 1d4a 17       		.byte	0x17
 8104 1d4b 8F       		.byte	0x8f
 8105 1d4c 25000000 		.4byte	0x25
 8106 1d50 A8       		.byte	0xa8
 8107 1d51 06       		.uleb128 0x6
 8108 1d52 A7080000 		.4byte	.LASF495
 8109 1d56 17       		.byte	0x17
 8110 1d57 91       		.byte	0x91
 8111 1d58 E0000000 		.4byte	0xe0
 8112 1d5c AC       		.byte	0xac
 8113 1d5d 00       		.byte	0
 8114 1d5e 04       		.uleb128 0x4
 8115 1d5f 95210000 		.4byte	.LASF496
 8116 1d63 17       		.byte	0x17
 8117 1d64 92       		.byte	0x92
 8118 1d65 091B0000 		.4byte	0x1b09
 8119 1d69 04       		.uleb128 0x4
 8120 1d6a DA080000 		.4byte	.LASF497
 8121 1d6e 18       		.byte	0x18
 8122 1d6f 21       		.byte	0x21
 8123 1d70 7B000000 		.4byte	0x7b
 8124 1d74 08       		.uleb128 0x8
 8125 1d75 04       		.byte	0x4
 8126 1d76 01       		.byte	0x1
 8127 1d77 34       		.byte	0x34
 8128 1d78 E61D0000 		.4byte	0x1de6
 8129 1d7c 29       		.uleb128 0x29
 8130 1d7d F2190000 		.4byte	.LASF498
 8131 1d81 01       		.byte	0x1
 8132 1d82 35       		.byte	0x35
 8133 1d83 3E000000 		.4byte	0x3e
 8134 1d87 04       		.byte	0x4
 8135 1d88 01       		.byte	0x1
 8136 1d89 1F       		.byte	0x1f
 8137 1d8a 00       		.byte	0
 8138 1d8b 29       		.uleb128 0x29
 8139 1d8c 07010000 		.4byte	.LASF499
 8140 1d90 01       		.byte	0x1
 8141 1d91 36       		.byte	0x36
 8142 1d92 3E000000 		.4byte	0x3e
 8143 1d96 04       		.byte	0x4
 8144 1d97 01       		.byte	0x1
 8145 1d98 1E       		.byte	0x1e
 8146 1d99 00       		.byte	0
 8147 1d9a 29       		.uleb128 0x29
ARM GAS  /var/folders/7z/kps_xzfj7sn5l5gkyq8s9db00000gn/T//ccvBF34a.s 			page 146


 8148 1d9b 07230000 		.4byte	.LASF500
 8149 1d9f 01       		.byte	0x1
 8150 1da0 37       		.byte	0x37
 8151 1da1 3E000000 		.4byte	0x3e
 8152 1da5 04       		.byte	0x4
 8153 1da6 01       		.byte	0x1
 8154 1da7 1D       		.byte	0x1d
 8155 1da8 00       		.byte	0
 8156 1da9 29       		.uleb128 0x29
 8157 1daa 880A0000 		.4byte	.LASF501
 8158 1dae 01       		.byte	0x1
 8159 1daf 38       		.byte	0x38
 8160 1db0 3E000000 		.4byte	0x3e
 8161 1db4 04       		.byte	0x4
 8162 1db5 01       		.byte	0x1
 8163 1db6 1C       		.byte	0x1c
 8164 1db7 00       		.byte	0
 8165 1db8 29       		.uleb128 0x29
 8166 1db9 4E150000 		.4byte	.LASF502
 8167 1dbd 01       		.byte	0x1
 8168 1dbe 39       		.byte	0x39
 8169 1dbf 3E000000 		.4byte	0x3e
 8170 1dc3 04       		.byte	0x4
 8171 1dc4 01       		.byte	0x1
 8172 1dc5 1B       		.byte	0x1b
 8173 1dc6 00       		.byte	0
 8174 1dc7 29       		.uleb128 0x29
 8175 1dc8 F90F0000 		.4byte	.LASF503
 8176 1dcc 01       		.byte	0x1
 8177 1dcd 3A       		.byte	0x3a
 8178 1dce 3E000000 		.4byte	0x3e
 8179 1dd2 04       		.byte	0x4
 8180 1dd3 01       		.byte	0x1
 8181 1dd4 1A       		.byte	0x1a
 8182 1dd5 00       		.byte	0
 8183 1dd6 29       		.uleb128 0x29
 8184 1dd7 83100000 		.4byte	.LASF504
 8185 1ddb 01       		.byte	0x1
 8186 1ddc 3E       		.byte	0x3e
 8187 1ddd 3E000000 		.4byte	0x3e
 8188 1de1 04       		.byte	0x4
 8189 1de2 01       		.byte	0x1
 8190 1de3 19       		.byte	0x19
 8191 1de4 00       		.byte	0
 8192 1de5 00       		.byte	0
 8193 1de6 0E       		.uleb128 0xe
 8194 1de7 04       		.byte	0x4
 8195 1de8 01       		.byte	0x1
 8196 1de9 33       		.byte	0x33
 8197 1dea 051E0000 		.4byte	0x1e05
 8198 1dee 22       		.uleb128 0x22
 8199 1def 62697400 		.ascii	"bit\000"
 8200 1df3 01       		.byte	0x1
 8201 1df4 41       		.byte	0x41
 8202 1df5 741D0000 		.4byte	0x1d74
 8203 1df9 0F       		.uleb128 0xf
 8204 1dfa CA1F0000 		.4byte	.LASF505
ARM GAS  /var/folders/7z/kps_xzfj7sn5l5gkyq8s9db00000gn/T//ccvBF34a.s 			page 147


 8205 1dfe 01       		.byte	0x1
 8206 1dff 42       		.byte	0x42
 8207 1e00 691D0000 		.4byte	0x1d69
 8208 1e04 00       		.byte	0
 8209 1e05 08       		.uleb128 0x8
 8210 1e06 08       		.byte	0x8
 8211 1e07 01       		.byte	0x1
 8212 1e08 45       		.byte	0x45
 8213 1e09 261E0000 		.4byte	0x1e26
 8214 1e0d 06       		.uleb128 0x6
 8215 1e0e E60B0000 		.4byte	.LASF506
 8216 1e12 01       		.byte	0x1
 8217 1e13 47       		.byte	0x47
 8218 1e14 3E000000 		.4byte	0x3e
 8219 1e18 00       		.byte	0
 8220 1e19 06       		.uleb128 0x6
 8221 1e1a E1200000 		.4byte	.LASF507
 8222 1e1e 01       		.byte	0x1
 8223 1e1f 49       		.byte	0x49
 8224 1e20 9F000000 		.4byte	0x9f
 8225 1e24 04       		.byte	0x4
 8226 1e25 00       		.byte	0
 8227 1e26 08       		.uleb128 0x8
 8228 1e27 10       		.byte	0x10
 8229 1e28 01       		.byte	0x1
 8230 1e29 4D       		.byte	0x4d
 8231 1e2a 5F1E0000 		.4byte	0x1e5f
 8232 1e2e 07       		.uleb128 0x7
 8233 1e2f 714B6100 		.ascii	"qKa\000"
 8234 1e33 01       		.byte	0x1
 8235 1e34 4E       		.byte	0x4e
 8236 1e35 25000000 		.4byte	0x25
 8237 1e39 00       		.byte	0
 8238 1e3a 06       		.uleb128 0x6
 8239 1e3b 251A0000 		.4byte	.LASF508
 8240 1e3f 01       		.byte	0x1
 8241 1e40 4F       		.byte	0x4f
 8242 1e41 69000000 		.4byte	0x69
 8243 1e45 04       		.byte	0x4
 8244 1e46 07       		.uleb128 0x7
 8245 1e47 714B6200 		.ascii	"qKb\000"
 8246 1e4b 01       		.byte	0x1
 8247 1e4c 51       		.byte	0x51
 8248 1e4d 25000000 		.4byte	0x25
 8249 1e51 08       		.byte	0x8
 8250 1e52 06       		.uleb128 0x6
 8251 1e53 2D1A0000 		.4byte	.LASF509
 8252 1e57 01       		.byte	0x1
 8253 1e58 52       		.byte	0x52
 8254 1e59 69000000 		.4byte	0x69
 8255 1e5d 0C       		.byte	0xc
 8256 1e5e 00       		.byte	0
 8257 1e5f 04       		.uleb128 0x4
 8258 1e60 EA0E0000 		.4byte	.LASF510
 8259 1e64 01       		.byte	0x1
 8260 1e65 53       		.byte	0x53
 8261 1e66 261E0000 		.4byte	0x1e26
ARM GAS  /var/folders/7z/kps_xzfj7sn5l5gkyq8s9db00000gn/T//ccvBF34a.s 			page 148


 8262 1e6a 08       		.uleb128 0x8
 8263 1e6b 64       		.byte	0x64
 8264 1e6c 01       		.byte	0x1
 8265 1e6d 55       		.byte	0x55
 8266 1e6e 9F1F0000 		.4byte	0x1f9f
 8267 1e72 06       		.uleb128 0x6
 8268 1e73 4B1D0000 		.4byte	.LASF511
 8269 1e77 01       		.byte	0x1
 8270 1e78 56       		.byte	0x56
 8271 1e79 25000000 		.4byte	0x25
 8272 1e7d 00       		.byte	0
 8273 1e7e 06       		.uleb128 0x6
 8274 1e7f D91F0000 		.4byte	.LASF512
 8275 1e83 01       		.byte	0x1
 8276 1e84 57       		.byte	0x57
 8277 1e85 25000000 		.4byte	0x25
 8278 1e89 04       		.byte	0x4
 8279 1e8a 06       		.uleb128 0x6
 8280 1e8b FF1C0000 		.4byte	.LASF513
 8281 1e8f 01       		.byte	0x1
 8282 1e90 58       		.byte	0x58
 8283 1e91 25000000 		.4byte	0x25
 8284 1e95 08       		.byte	0x8
 8285 1e96 06       		.uleb128 0x6
 8286 1e97 C5050000 		.4byte	.LASF514
 8287 1e9b 01       		.byte	0x1
 8288 1e9c 59       		.byte	0x59
 8289 1e9d 25000000 		.4byte	0x25
 8290 1ea1 0C       		.byte	0xc
 8291 1ea2 06       		.uleb128 0x6
 8292 1ea3 3B1E0000 		.4byte	.LASF515
 8293 1ea7 01       		.byte	0x1
 8294 1ea8 5A       		.byte	0x5a
 8295 1ea9 25000000 		.4byte	0x25
 8296 1ead 10       		.byte	0x10
 8297 1eae 06       		.uleb128 0x6
 8298 1eaf 7E1D0000 		.4byte	.LASF516
 8299 1eb3 01       		.byte	0x1
 8300 1eb4 5B       		.byte	0x5b
 8301 1eb5 25000000 		.4byte	0x25
 8302 1eb9 14       		.byte	0x14
 8303 1eba 06       		.uleb128 0x6
 8304 1ebb 78200000 		.4byte	.LASF517
 8305 1ebf 01       		.byte	0x1
 8306 1ec0 5C       		.byte	0x5c
 8307 1ec1 25000000 		.4byte	0x25
 8308 1ec5 18       		.byte	0x18
 8309 1ec6 06       		.uleb128 0x6
 8310 1ec7 B8240000 		.4byte	.LASF518
 8311 1ecb 01       		.byte	0x1
 8312 1ecc 5D       		.byte	0x5d
 8313 1ecd 25000000 		.4byte	0x25
 8314 1ed1 1C       		.byte	0x1c
 8315 1ed2 06       		.uleb128 0x6
 8316 1ed3 D40F0000 		.4byte	.LASF519
 8317 1ed7 01       		.byte	0x1
 8318 1ed8 5E       		.byte	0x5e
ARM GAS  /var/folders/7z/kps_xzfj7sn5l5gkyq8s9db00000gn/T//ccvBF34a.s 			page 149


 8319 1ed9 25000000 		.4byte	0x25
 8320 1edd 20       		.byte	0x20
 8321 1ede 06       		.uleb128 0x6
 8322 1edf 71100000 		.4byte	.LASF520
 8323 1ee3 01       		.byte	0x1
 8324 1ee4 5F       		.byte	0x5f
 8325 1ee5 25000000 		.4byte	0x25
 8326 1ee9 24       		.byte	0x24
 8327 1eea 06       		.uleb128 0x6
 8328 1eeb 41000000 		.4byte	.LASF521
 8329 1eef 01       		.byte	0x1
 8330 1ef0 60       		.byte	0x60
 8331 1ef1 25000000 		.4byte	0x25
 8332 1ef5 28       		.byte	0x28
 8333 1ef6 06       		.uleb128 0x6
 8334 1ef7 5F0C0000 		.4byte	.LASF522
 8335 1efb 01       		.byte	0x1
 8336 1efc 61       		.byte	0x61
 8337 1efd 25000000 		.4byte	0x25
 8338 1f01 2C       		.byte	0x2c
 8339 1f02 06       		.uleb128 0x6
 8340 1f03 32090000 		.4byte	.LASF523
 8341 1f07 01       		.byte	0x1
 8342 1f08 62       		.byte	0x62
 8343 1f09 25000000 		.4byte	0x25
 8344 1f0d 30       		.byte	0x30
 8345 1f0e 06       		.uleb128 0x6
 8346 1f0f E2010000 		.4byte	.LASF524
 8347 1f13 01       		.byte	0x1
 8348 1f14 63       		.byte	0x63
 8349 1f15 25000000 		.4byte	0x25
 8350 1f19 34       		.byte	0x34
 8351 1f1a 06       		.uleb128 0x6
 8352 1f1b BB1B0000 		.4byte	.LASF525
 8353 1f1f 01       		.byte	0x1
 8354 1f20 64       		.byte	0x64
 8355 1f21 25000000 		.4byte	0x25
 8356 1f25 38       		.byte	0x38
 8357 1f26 06       		.uleb128 0x6
 8358 1f27 CE1C0000 		.4byte	.LASF526
 8359 1f2b 01       		.byte	0x1
 8360 1f2c 65       		.byte	0x65
 8361 1f2d 25000000 		.4byte	0x25
 8362 1f31 3C       		.byte	0x3c
 8363 1f32 06       		.uleb128 0x6
 8364 1f33 D1190000 		.4byte	.LASF527
 8365 1f37 01       		.byte	0x1
 8366 1f38 66       		.byte	0x66
 8367 1f39 25000000 		.4byte	0x25
 8368 1f3d 40       		.byte	0x40
 8369 1f3e 06       		.uleb128 0x6
 8370 1f3f 170E0000 		.4byte	.LASF528
 8371 1f43 01       		.byte	0x1
 8372 1f44 67       		.byte	0x67
 8373 1f45 25000000 		.4byte	0x25
 8374 1f49 44       		.byte	0x44
 8375 1f4a 06       		.uleb128 0x6
ARM GAS  /var/folders/7z/kps_xzfj7sn5l5gkyq8s9db00000gn/T//ccvBF34a.s 			page 150


 8376 1f4b 1F0D0000 		.4byte	.LASF529
 8377 1f4f 01       		.byte	0x1
 8378 1f50 68       		.byte	0x68
 8379 1f51 25000000 		.4byte	0x25
 8380 1f55 48       		.byte	0x48
 8381 1f56 06       		.uleb128 0x6
 8382 1f57 87180000 		.4byte	.LASF530
 8383 1f5b 01       		.byte	0x1
 8384 1f5c 69       		.byte	0x69
 8385 1f5d 25000000 		.4byte	0x25
 8386 1f61 4C       		.byte	0x4c
 8387 1f62 06       		.uleb128 0x6
 8388 1f63 6F220000 		.4byte	.LASF531
 8389 1f67 01       		.byte	0x1
 8390 1f68 6A       		.byte	0x6a
 8391 1f69 25000000 		.4byte	0x25
 8392 1f6d 50       		.byte	0x50
 8393 1f6e 06       		.uleb128 0x6
 8394 1f6f B1060000 		.4byte	.LASF532
 8395 1f73 01       		.byte	0x1
 8396 1f74 6B       		.byte	0x6b
 8397 1f75 25000000 		.4byte	0x25
 8398 1f79 54       		.byte	0x54
 8399 1f7a 06       		.uleb128 0x6
 8400 1f7b 6C000000 		.4byte	.LASF533
 8401 1f7f 01       		.byte	0x1
 8402 1f80 6C       		.byte	0x6c
 8403 1f81 25000000 		.4byte	0x25
 8404 1f85 58       		.byte	0x58
 8405 1f86 06       		.uleb128 0x6
 8406 1f87 EC180000 		.4byte	.LASF534
 8407 1f8b 01       		.byte	0x1
 8408 1f8c 6D       		.byte	0x6d
 8409 1f8d 25000000 		.4byte	0x25
 8410 1f91 5C       		.byte	0x5c
 8411 1f92 06       		.uleb128 0x6
 8412 1f93 5F050000 		.4byte	.LASF535
 8413 1f97 01       		.byte	0x1
 8414 1f98 6E       		.byte	0x6e
 8415 1f99 25000000 		.4byte	0x25
 8416 1f9d 60       		.byte	0x60
 8417 1f9e 00       		.byte	0
 8418 1f9f 2A       		.uleb128 0x2a
 8419 1fa0 534D4300 		.ascii	"SMC\000"
 8420 1fa4 01       		.byte	0x1
 8421 1fa5 6F       		.byte	0x6f
 8422 1fa6 6A1E0000 		.4byte	0x1e6a
 8423 1faa 09       		.uleb128 0x9
 8424 1fab 04       		.byte	0x4
 8425 1fac 9F1F0000 		.4byte	0x1f9f
 8426 1fb0 08       		.uleb128 0x8
 8427 1fb1 24       		.byte	0x24
 8428 1fb2 01       		.byte	0x1
 8429 1fb3 72       		.byte	0x72
 8430 1fb4 25200000 		.4byte	0x2025
 8431 1fb8 06       		.uleb128 0x6
 8432 1fb9 C8100000 		.4byte	.LASF536
ARM GAS  /var/folders/7z/kps_xzfj7sn5l5gkyq8s9db00000gn/T//ccvBF34a.s 			page 151


 8433 1fbd 01       		.byte	0x1
 8434 1fbe 73       		.byte	0x73
 8435 1fbf 25000000 		.4byte	0x25
 8436 1fc3 00       		.byte	0
 8437 1fc4 07       		.uleb128 0x7
 8438 1fc5 714B7000 		.ascii	"qKp\000"
 8439 1fc9 01       		.byte	0x1
 8440 1fca 74       		.byte	0x74
 8441 1fcb 25000000 		.4byte	0x25
 8442 1fcf 04       		.byte	0x4
 8443 1fd0 07       		.uleb128 0x7
 8444 1fd1 714B6900 		.ascii	"qKi\000"
 8445 1fd5 01       		.byte	0x1
 8446 1fd6 75       		.byte	0x75
 8447 1fd7 25000000 		.4byte	0x25
 8448 1fdb 08       		.byte	0x8
 8449 1fdc 07       		.uleb128 0x7
 8450 1fdd 714B6300 		.ascii	"qKc\000"
 8451 1fe1 01       		.byte	0x1
 8452 1fe2 76       		.byte	0x76
 8453 1fe3 25000000 		.4byte	0x25
 8454 1fe7 0C       		.byte	0xc
 8455 1fe8 06       		.uleb128 0x6
 8456 1fe9 64180000 		.4byte	.LASF537
 8457 1fed 01       		.byte	0x1
 8458 1fee 77       		.byte	0x77
 8459 1fef 25000000 		.4byte	0x25
 8460 1ff3 10       		.byte	0x10
 8461 1ff4 06       		.uleb128 0x6
 8462 1ff5 B41C0000 		.4byte	.LASF538
 8463 1ff9 01       		.byte	0x1
 8464 1ffa 78       		.byte	0x78
 8465 1ffb 25000000 		.4byte	0x25
 8466 1fff 14       		.byte	0x14
 8467 2000 06       		.uleb128 0x6
 8468 2001 640E0000 		.4byte	.LASF539
 8469 2005 01       		.byte	0x1
 8470 2006 79       		.byte	0x79
 8471 2007 25000000 		.4byte	0x25
 8472 200b 18       		.byte	0x18
 8473 200c 06       		.uleb128 0x6
 8474 200d 26060000 		.4byte	.LASF540
 8475 2011 01       		.byte	0x1
 8476 2012 7A       		.byte	0x7a
 8477 2013 25000000 		.4byte	0x25
 8478 2017 1C       		.byte	0x1c
 8479 2018 06       		.uleb128 0x6
 8480 2019 DD0C0000 		.4byte	.LASF541
 8481 201d 01       		.byte	0x1
 8482 201e 7B       		.byte	0x7b
 8483 201f 25000000 		.4byte	0x25
 8484 2023 20       		.byte	0x20
 8485 2024 00       		.byte	0
 8486 2025 04       		.uleb128 0x4
 8487 2026 680C0000 		.4byte	.LASF542
 8488 202a 01       		.byte	0x1
 8489 202b 7C       		.byte	0x7c
ARM GAS  /var/folders/7z/kps_xzfj7sn5l5gkyq8s9db00000gn/T//ccvBF34a.s 			page 152


 8490 202c B01F0000 		.4byte	0x1fb0
 8491 2030 08       		.uleb128 0x8
 8492 2031 40       		.byte	0x40
 8493 2032 01       		.byte	0x1
 8494 2033 7E       		.byte	0x7e
 8495 2034 F9200000 		.4byte	0x20f9
 8496 2038 06       		.uleb128 0x6
 8497 2039 600F0000 		.4byte	.LASF543
 8498 203d 01       		.byte	0x1
 8499 203e 7F       		.byte	0x7f
 8500 203f 25000000 		.4byte	0x25
 8501 2043 00       		.byte	0
 8502 2044 06       		.uleb128 0x6
 8503 2045 B9130000 		.4byte	.LASF544
 8504 2049 01       		.byte	0x1
 8505 204a 80       		.byte	0x80
 8506 204b 25000000 		.4byte	0x25
 8507 204f 04       		.byte	0x4
 8508 2050 06       		.uleb128 0x6
 8509 2051 F2040000 		.4byte	.LASF545
 8510 2055 01       		.byte	0x1
 8511 2056 81       		.byte	0x81
 8512 2057 25000000 		.4byte	0x25
 8513 205b 08       		.byte	0x8
 8514 205c 07       		.uleb128 0x7
 8515 205d 71496100 		.ascii	"qIa\000"
 8516 2061 01       		.byte	0x1
 8517 2062 82       		.byte	0x82
 8518 2063 25000000 		.4byte	0x25
 8519 2067 0C       		.byte	0xc
 8520 2068 07       		.uleb128 0x7
 8521 2069 71496200 		.ascii	"qIb\000"
 8522 206d 01       		.byte	0x1
 8523 206e 83       		.byte	0x83
 8524 206f 25000000 		.4byte	0x25
 8525 2073 10       		.byte	0x10
 8526 2074 06       		.uleb128 0x6
 8527 2075 900B0000 		.4byte	.LASF546
 8528 2079 01       		.byte	0x1
 8529 207a 84       		.byte	0x84
 8530 207b 25000000 		.4byte	0x25
 8531 207f 14       		.byte	0x14
 8532 2080 06       		.uleb128 0x6
 8533 2081 450F0000 		.4byte	.LASF547
 8534 2085 01       		.byte	0x1
 8535 2086 85       		.byte	0x85
 8536 2087 25000000 		.4byte	0x25
 8537 208b 18       		.byte	0x18
 8538 208c 07       		.uleb128 0x7
 8539 208d 71496400 		.ascii	"qId\000"
 8540 2091 01       		.byte	0x1
 8541 2092 86       		.byte	0x86
 8542 2093 25000000 		.4byte	0x25
 8543 2097 1C       		.byte	0x1c
 8544 2098 07       		.uleb128 0x7
 8545 2099 71497100 		.ascii	"qIq\000"
 8546 209d 01       		.byte	0x1
ARM GAS  /var/folders/7z/kps_xzfj7sn5l5gkyq8s9db00000gn/T//ccvBF34a.s 			page 153


 8547 209e 87       		.byte	0x87
 8548 209f 25000000 		.4byte	0x25
 8549 20a3 20       		.byte	0x20
 8550 20a4 07       		.uleb128 0x7
 8551 20a5 71566400 		.ascii	"qVd\000"
 8552 20a9 01       		.byte	0x1
 8553 20aa 88       		.byte	0x88
 8554 20ab 25000000 		.4byte	0x25
 8555 20af 24       		.byte	0x24
 8556 20b0 07       		.uleb128 0x7
 8557 20b1 71567100 		.ascii	"qVq\000"
 8558 20b5 01       		.byte	0x1
 8559 20b6 89       		.byte	0x89
 8560 20b7 25000000 		.4byte	0x25
 8561 20bb 28       		.byte	0x28
 8562 20bc 06       		.uleb128 0x6
 8563 20bd A51E0000 		.4byte	.LASF548
 8564 20c1 01       		.byte	0x1
 8565 20c2 8A       		.byte	0x8a
 8566 20c3 25000000 		.4byte	0x25
 8567 20c7 2C       		.byte	0x2c
 8568 20c8 06       		.uleb128 0x6
 8569 20c9 34080000 		.4byte	.LASF549
 8570 20cd 01       		.byte	0x1
 8571 20ce 8B       		.byte	0x8b
 8572 20cf 25000000 		.4byte	0x25
 8573 20d3 30       		.byte	0x30
 8574 20d4 07       		.uleb128 0x7
 8575 20d5 71563100 		.ascii	"qV1\000"
 8576 20d9 01       		.byte	0x1
 8577 20da 8C       		.byte	0x8c
 8578 20db 25000000 		.4byte	0x25
 8579 20df 34       		.byte	0x34
 8580 20e0 07       		.uleb128 0x7
 8581 20e1 71563200 		.ascii	"qV2\000"
 8582 20e5 01       		.byte	0x1
 8583 20e6 8D       		.byte	0x8d
 8584 20e7 25000000 		.4byte	0x25
 8585 20eb 38       		.byte	0x38
 8586 20ec 07       		.uleb128 0x7
 8587 20ed 71563300 		.ascii	"qV3\000"
 8588 20f1 01       		.byte	0x1
 8589 20f2 8E       		.byte	0x8e
 8590 20f3 25000000 		.4byte	0x25
 8591 20f7 3C       		.byte	0x3c
 8592 20f8 00       		.byte	0
 8593 20f9 04       		.uleb128 0x4
 8594 20fa 700C0000 		.4byte	.LASF550
 8595 20fe 01       		.byte	0x1
 8596 20ff 8F       		.byte	0x8f
 8597 2100 30200000 		.4byte	0x2030
 8598 2104 08       		.uleb128 0x8
 8599 2105 0C       		.byte	0xc
 8600 2106 01       		.byte	0x1
 8601 2107 91       		.byte	0x91
 8602 2108 31210000 		.4byte	0x2131
 8603 210c 06       		.uleb128 0x6
ARM GAS  /var/folders/7z/kps_xzfj7sn5l5gkyq8s9db00000gn/T//ccvBF34a.s 			page 154


 8604 210d 0B030000 		.4byte	.LASF551
 8605 2111 01       		.byte	0x1
 8606 2112 92       		.byte	0x92
 8607 2113 25000000 		.4byte	0x25
 8608 2117 00       		.byte	0
 8609 2118 06       		.uleb128 0x6
 8610 2119 841E0000 		.4byte	.LASF552
 8611 211d 01       		.byte	0x1
 8612 211e 93       		.byte	0x93
 8613 211f 25000000 		.4byte	0x25
 8614 2123 04       		.byte	0x4
 8615 2124 06       		.uleb128 0x6
 8616 2125 D3210000 		.4byte	.LASF553
 8617 2129 01       		.byte	0x1
 8618 212a 94       		.byte	0x94
 8619 212b 25000000 		.4byte	0x25
 8620 212f 08       		.byte	0x8
 8621 2130 00       		.byte	0
 8622 2131 04       		.uleb128 0x4
 8623 2132 17240000 		.4byte	.LASF554
 8624 2136 01       		.byte	0x1
 8625 2137 95       		.byte	0x95
 8626 2138 04210000 		.4byte	0x2104
 8627 213c 08       		.uleb128 0x8
 8628 213d 5C       		.byte	0x5c
 8629 213e 01       		.byte	0x1
 8630 213f 99       		.byte	0x99
 8631 2140 A5210000 		.4byte	0x21a5
 8632 2144 07       		.uleb128 0x7
 8633 2145 714B3100 		.ascii	"qK1\000"
 8634 2149 01       		.byte	0x1
 8635 214a 9A       		.byte	0x9a
 8636 214b 25000000 		.4byte	0x25
 8637 214f 00       		.byte	0
 8638 2150 06       		.uleb128 0x6
 8639 2151 89150000 		.4byte	.LASF555
 8640 2155 01       		.byte	0x1
 8641 2156 9B       		.byte	0x9b
 8642 2157 25000000 		.4byte	0x25
 8643 215b 04       		.byte	0x4
 8644 215c 06       		.uleb128 0x6
 8645 215d ED0A0000 		.4byte	.LASF556
 8646 2161 01       		.byte	0x1
 8647 2162 9C       		.byte	0x9c
 8648 2163 25000000 		.4byte	0x25
 8649 2167 08       		.byte	0x8
 8650 2168 06       		.uleb128 0x6
 8651 2169 FB190000 		.4byte	.LASF557
 8652 216d 01       		.byte	0x1
 8653 216e 9D       		.byte	0x9d
 8654 216f 25000000 		.4byte	0x25
 8655 2173 0C       		.byte	0xc
 8656 2174 06       		.uleb128 0x6
 8657 2175 E4040000 		.4byte	.LASF558
 8658 2179 01       		.byte	0x1
 8659 217a 9E       		.byte	0x9e
 8660 217b 2C000000 		.4byte	0x2c
ARM GAS  /var/folders/7z/kps_xzfj7sn5l5gkyq8s9db00000gn/T//ccvBF34a.s 			page 155


 8661 217f 10       		.byte	0x10
 8662 2180 06       		.uleb128 0x6
 8663 2181 F5100000 		.4byte	.LASF559
 8664 2185 01       		.byte	0x1
 8665 2186 9F       		.byte	0x9f
 8666 2187 25000000 		.4byte	0x25
 8667 218b 14       		.byte	0x14
 8668 218c 06       		.uleb128 0x6
 8669 218d 80200000 		.4byte	.LASF560
 8670 2191 01       		.byte	0x1
 8671 2192 A0       		.byte	0xa0
 8672 2193 25000000 		.4byte	0x25
 8673 2197 18       		.byte	0x18
 8674 2198 06       		.uleb128 0x6
 8675 2199 53000000 		.4byte	.LASF561
 8676 219d 01       		.byte	0x1
 8677 219e A1       		.byte	0xa1
 8678 219f A5210000 		.4byte	0x21a5
 8679 21a3 1C       		.byte	0x1c
 8680 21a4 00       		.byte	0
 8681 21a5 1B       		.uleb128 0x1b
 8682 21a6 25000000 		.4byte	0x25
 8683 21aa B5210000 		.4byte	0x21b5
 8684 21ae 1C       		.uleb128 0x1c
 8685 21af 54040000 		.4byte	0x454
 8686 21b3 0F       		.byte	0xf
 8687 21b4 00       		.byte	0
 8688 21b5 04       		.uleb128 0x4
 8689 21b6 96040000 		.4byte	.LASF562
 8690 21ba 01       		.byte	0x1
 8691 21bb A2       		.byte	0xa2
 8692 21bc 3C210000 		.4byte	0x213c
 8693 21c0 08       		.uleb128 0x8
 8694 21c1 24       		.byte	0x24
 8695 21c2 01       		.byte	0x1
 8696 21c3 A6       		.byte	0xa6
 8697 21c4 30220000 		.4byte	0x2230
 8698 21c8 06       		.uleb128 0x6
 8699 21c9 4D170000 		.4byte	.LASF563
 8700 21cd 01       		.byte	0x1
 8701 21ce A7       		.byte	0xa7
 8702 21cf 3E000000 		.4byte	0x3e
 8703 21d3 00       		.byte	0
 8704 21d4 06       		.uleb128 0x6
 8705 21d5 73230000 		.4byte	.LASF564
 8706 21d9 01       		.byte	0x1
 8707 21da A9       		.byte	0xa9
 8708 21db 25000000 		.4byte	0x25
 8709 21df 04       		.byte	0x4
 8710 21e0 06       		.uleb128 0x6
 8711 21e1 78230000 		.4byte	.LASF565
 8712 21e5 01       		.byte	0x1
 8713 21e6 AA       		.byte	0xaa
 8714 21e7 25000000 		.4byte	0x25
 8715 21eb 08       		.byte	0x8
 8716 21ec 06       		.uleb128 0x6
 8717 21ed 801F0000 		.4byte	.LASF566
ARM GAS  /var/folders/7z/kps_xzfj7sn5l5gkyq8s9db00000gn/T//ccvBF34a.s 			page 156


 8718 21f1 01       		.byte	0x1
 8719 21f2 AB       		.byte	0xab
 8720 21f3 25000000 		.4byte	0x25
 8721 21f7 0C       		.byte	0xc
 8722 21f8 07       		.uleb128 0x7
 8723 21f9 543100   		.ascii	"T1\000"
 8724 21fc 01       		.byte	0x1
 8725 21fd AD       		.byte	0xad
 8726 21fe 25000000 		.4byte	0x25
 8727 2202 10       		.byte	0x10
 8728 2203 07       		.uleb128 0x7
 8729 2204 543200   		.ascii	"T2\000"
 8730 2207 01       		.byte	0x1
 8731 2208 AE       		.byte	0xae
 8732 2209 25000000 		.4byte	0x25
 8733 220d 14       		.byte	0x14
 8734 220e 07       		.uleb128 0x7
 8735 220f 546100   		.ascii	"Ta\000"
 8736 2212 01       		.byte	0x1
 8737 2213 B0       		.byte	0xb0
 8738 2214 3E000000 		.4byte	0x3e
 8739 2218 18       		.byte	0x18
 8740 2219 07       		.uleb128 0x7
 8741 221a 546200   		.ascii	"Tb\000"
 8742 221d 01       		.byte	0x1
 8743 221e B1       		.byte	0xb1
 8744 221f 3E000000 		.4byte	0x3e
 8745 2223 1C       		.byte	0x1c
 8746 2224 07       		.uleb128 0x7
 8747 2225 546300   		.ascii	"Tc\000"
 8748 2228 01       		.byte	0x1
 8749 2229 B2       		.byte	0xb2
 8750 222a 3E000000 		.4byte	0x3e
 8751 222e 20       		.byte	0x20
 8752 222f 00       		.byte	0
 8753 2230 04       		.uleb128 0x4
 8754 2231 0D0C0000 		.4byte	.LASF567
 8755 2235 01       		.byte	0x1
 8756 2236 B4       		.byte	0xb4
 8757 2237 C0210000 		.4byte	0x21c0
 8758 223b 2B       		.uleb128 0x2b
 8759 223c FA0C0000 		.4byte	.LASF766
 8760 2240 02       		.byte	0x2
 8761 2241 A606     		.2byte	0x6a6
 8762 2243 EB000000 		.4byte	0xeb
 8763 2247 03       		.byte	0x3
 8764 2248 58220000 		.4byte	0x2258
 8765 224c 2C       		.uleb128 0x2c
 8766 224d 636800   		.ascii	"ch\000"
 8767 2250 02       		.byte	0x2
 8768 2251 A606     		.2byte	0x6a6
 8769 2253 EB000000 		.4byte	0xeb
 8770 2257 00       		.byte	0
 8771 2258 2D       		.uleb128 0x2d
 8772 2259 991F0000 		.4byte	.LASF569
 8773 225d 01       		.byte	0x1
 8774 225e E404     		.2byte	0x4e4
ARM GAS  /var/folders/7z/kps_xzfj7sn5l5gkyq8s9db00000gn/T//ccvBF34a.s 			page 157


 8775 2260 01       		.byte	0x1
 8776 2261 72220000 		.4byte	0x2272
 8777 2265 2E       		.uleb128 0x2e
 8778 2266 351E0000 		.4byte	.LASF568
 8779 226a 01       		.byte	0x1
 8780 226b E404     		.2byte	0x4e4
 8781 226d 72220000 		.4byte	0x2272
 8782 2271 00       		.byte	0
 8783 2272 09       		.uleb128 0x9
 8784 2273 04       		.byte	0x4
 8785 2274 25200000 		.4byte	0x2025
 8786 2278 2F       		.uleb128 0x2f
 8787 2279 3C220000 		.4byte	.LASF574
 8788 227d 01       		.byte	0x1
 8789 227e 3405     		.2byte	0x534
 8790 2280 25000000 		.4byte	0x25
 8791 2284 01       		.byte	0x1
 8792 2285 A2220000 		.4byte	0x22a2
 8793 2289 2C       		.uleb128 0x2c
 8794 228a 56647100 		.ascii	"Vdq\000"
 8795 228e 01       		.byte	0x1
 8796 228f 3405     		.2byte	0x534
 8797 2291 25000000 		.4byte	0x25
 8798 2295 30       		.uleb128 0x30
 8799 2296 34220000 		.4byte	.LASF580
 8800 229a 01       		.byte	0x1
 8801 229b 3605     		.2byte	0x536
 8802 229d 25000000 		.4byte	0x25
 8803 22a1 00       		.byte	0
 8804 22a2 2D       		.uleb128 0x2d
 8805 22a3 9F130000 		.4byte	.LASF570
 8806 22a7 01       		.byte	0x1
 8807 22a8 6005     		.2byte	0x560
 8808 22aa 01       		.byte	0x1
 8809 22ab C8220000 		.4byte	0x22c8
 8810 22af 2E       		.uleb128 0x2e
 8811 22b0 40230000 		.4byte	.LASF571
 8812 22b4 01       		.byte	0x1
 8813 22b5 6005     		.2byte	0x560
 8814 22b7 69000000 		.4byte	0x69
 8815 22bb 2E       		.uleb128 0x2e
 8816 22bc 49230000 		.4byte	.LASF572
 8817 22c0 01       		.byte	0x1
 8818 22c1 6005     		.2byte	0x560
 8819 22c3 69000000 		.4byte	0x69
 8820 22c7 00       		.byte	0
 8821 22c8 2D       		.uleb128 0x2d
 8822 22c9 FF200000 		.4byte	.LASF573
 8823 22cd 01       		.byte	0x1
 8824 22ce E705     		.2byte	0x5e7
 8825 22d0 01       		.byte	0x1
 8826 22d1 E0220000 		.4byte	0x22e0
 8827 22d5 2C       		.uleb128 0x2c
 8828 22d6 7300     		.ascii	"s\000"
 8829 22d8 01       		.byte	0x1
 8830 22d9 E705     		.2byte	0x5e7
 8831 22db AA1F0000 		.4byte	0x1faa
ARM GAS  /var/folders/7z/kps_xzfj7sn5l5gkyq8s9db00000gn/T//ccvBF34a.s 			page 158


 8832 22df 00       		.byte	0
 8833 22e0 2F       		.uleb128 0x2f
 8834 22e1 04190000 		.4byte	.LASF575
 8835 22e5 01       		.byte	0x1
 8836 22e6 5D07     		.2byte	0x75d
 8837 22e8 25000000 		.4byte	0x25
 8838 22ec 01       		.byte	0x1
 8839 22ed FE220000 		.4byte	0x22fe
 8840 22f1 2E       		.uleb128 0x2e
 8841 22f2 6E080000 		.4byte	.LASF576
 8842 22f6 01       		.byte	0x1
 8843 22f7 5D07     		.2byte	0x75d
 8844 22f9 25000000 		.4byte	0x25
 8845 22fd 00       		.byte	0
 8846 22fe 2D       		.uleb128 0x2d
 8847 22ff 5A150000 		.4byte	.LASF577
 8848 2303 01       		.byte	0x1
 8849 2304 5305     		.2byte	0x553
 8850 2306 01       		.byte	0x1
 8851 2307 3C230000 		.4byte	0x233c
 8852 230b 2E       		.uleb128 0x2e
 8853 230c 20080000 		.4byte	.LASF578
 8854 2310 01       		.byte	0x1
 8855 2311 5305     		.2byte	0x553
 8856 2313 2C000000 		.4byte	0x2c
 8857 2317 2E       		.uleb128 0x2e
 8858 2318 26080000 		.4byte	.LASF579
 8859 231c 01       		.byte	0x1
 8860 231d 5305     		.2byte	0x553
 8861 231f 2C000000 		.4byte	0x2c
 8862 2323 30       		.uleb128 0x30
 8863 2324 1F230000 		.4byte	.LASF581
 8864 2328 01       		.byte	0x1
 8865 2329 5505     		.2byte	0x555
 8866 232b 2C000000 		.4byte	0x2c
 8867 232f 30       		.uleb128 0x30
 8868 2330 28230000 		.4byte	.LASF582
 8869 2334 01       		.byte	0x1
 8870 2335 5505     		.2byte	0x555
 8871 2337 2C000000 		.4byte	0x2c
 8872 233b 00       		.byte	0
 8873 233c 31       		.uleb128 0x31
 8874 233d E1180000 		.4byte	.LASF714
 8875 2341 01       		.byte	0x1
 8876 2342 6C05     		.2byte	0x56c
 8877 2344 01       		.byte	0x1
 8878 2345 32       		.uleb128 0x32
 8879 2346 B8100000 		.4byte	.LASF767
 8880 234a 01       		.byte	0x1
 8881 234b 0B03     		.2byte	0x30b
 8882 234d 4A010000 		.4byte	0x14a
 8883 2351 00000000 		.4byte	.LFB124
 8884 2355 1C000000 		.4byte	.LFE124-.LFB124
 8885 2359 01       		.uleb128 0x1
 8886 235a 9C       		.byte	0x9c
 8887 235b 7F230000 		.4byte	0x237f
 8888 235f 33       		.uleb128 0x33
ARM GAS  /var/folders/7z/kps_xzfj7sn5l5gkyq8s9db00000gn/T//ccvBF34a.s 			page 159


 8889 2360 61726700 		.ascii	"arg\000"
 8890 2364 01       		.byte	0x1
 8891 2365 0B03     		.2byte	0x30b
 8892 2367 D0020000 		.4byte	0x2d0
 8893 236b 00000000 		.4byte	.LLST0
 8894 236f 34       		.uleb128 0x34
 8895 2370 10000000 		.4byte	.LVL2
 8896 2374 C83A0000 		.4byte	0x3ac8
 8897 2378 35       		.uleb128 0x35
 8898 2379 01       		.uleb128 0x1
 8899 237a 50       		.byte	0x50
 8900 237b 01       		.uleb128 0x1
 8901 237c 3A       		.byte	0x3a
 8902 237d 00       		.byte	0
 8903 237e 00       		.byte	0
 8904 237f 36       		.uleb128 0x36
 8905 2380 D5090000 		.4byte	.LASF587
 8906 2384 01       		.byte	0x1
 8907 2385 CB02     		.2byte	0x2cb
 8908 2387 00000000 		.4byte	.LFB123
 8909 238b 1C000000 		.4byte	.LFE123-.LFB123
 8910 238f 01       		.uleb128 0x1
 8911 2390 9C       		.byte	0x9c
 8912 2391 E1230000 		.4byte	0x23e1
 8913 2395 33       		.uleb128 0x33
 8914 2396 7000     		.ascii	"p\000"
 8915 2398 01       		.byte	0x1
 8916 2399 CB02     		.2byte	0x2cb
 8917 239b D0020000 		.4byte	0x2d0
 8918 239f 21000000 		.4byte	.LLST1
 8919 23a3 37       		.uleb128 0x37
 8920 23a4 2C250000 		.4byte	.LASF583
 8921 23a8 01       		.byte	0x1
 8922 23a9 CB02     		.2byte	0x2cb
 8923 23ab EB000000 		.4byte	0xeb
 8924 23af 42000000 		.4byte	.LLST2
 8925 23b3 30       		.uleb128 0x30
 8926 23b4 C7230000 		.4byte	.LASF584
 8927 23b8 01       		.byte	0x1
 8928 23b9 D902     		.2byte	0x2d9
 8929 23bb E1230000 		.4byte	0x23e1
 8930 23bf 38       		.uleb128 0x38
 8931 23c0 78030000 		.4byte	.LASF590
 8932 23c4 01       		.byte	0x1
 8933 23c5 DA02     		.2byte	0x2da
 8934 23c7 25000000 		.4byte	0x25
 8935 23cb 04       		.byte	0x4
 8936 23cc 00000000 		.4byte	0
 8937 23d0 39       		.uleb128 0x39
 8938 23d1 14000000 		.4byte	.LVL6
 8939 23d5 DA3A0000 		.4byte	0x3ada
 8940 23d9 35       		.uleb128 0x35
 8941 23da 01       		.uleb128 0x1
 8942 23db 50       		.byte	0x50
 8943 23dc 02       		.uleb128 0x2
 8944 23dd 08       		.byte	0x8
 8945 23de 64       		.byte	0x64
ARM GAS  /var/folders/7z/kps_xzfj7sn5l5gkyq8s9db00000gn/T//ccvBF34a.s 			page 160


 8946 23df 00       		.byte	0
 8947 23e0 00       		.byte	0
 8948 23e1 10       		.uleb128 0x10
 8949 23e2 25000000 		.4byte	0x25
 8950 23e6 3A       		.uleb128 0x3a
 8951 23e7 21020000 		.4byte	.LASF585
 8952 23eb 16       		.byte	0x16
 8953 23ec C0       		.byte	0xc0
 8954 23ed 2C000000 		.4byte	0x2c
 8955 23f1 00000000 		.4byte	.LFB121
 8956 23f5 24000000 		.4byte	.LFE121-.LFB121
 8957 23f9 01       		.uleb128 0x1
 8958 23fa 9C       		.byte	0x9c
 8959 23fb 33240000 		.4byte	0x2433
 8960 23ff 3B       		.uleb128 0x3b
 8961 2400 636800   		.ascii	"ch\000"
 8962 2403 01       		.byte	0x1
 8963 2404 5502     		.2byte	0x255
 8964 2406 2C000000 		.4byte	0x2c
 8965 240a 01       		.uleb128 0x1
 8966 240b 50       		.byte	0x50
 8967 240c 33       		.uleb128 0x33
 8968 240d 6600     		.ascii	"f\000"
 8969 240f 01       		.byte	0x1
 8970 2410 5502     		.2byte	0x255
 8971 2412 33240000 		.4byte	0x2433
 8972 2416 63000000 		.4byte	.LLST3
 8973 241a 3C       		.uleb128 0x3c
 8974 241b 3B220000 		.4byte	0x223b
 8975 241f 00000000 		.4byte	.LBB22
 8976 2423 22000000 		.4byte	.LBE22-.LBB22
 8977 2427 01       		.byte	0x1
 8978 2428 5702     		.2byte	0x257
 8979 242a 3D       		.uleb128 0x3d
 8980 242b 4C220000 		.4byte	0x224c
 8981 242f 01       		.uleb128 0x1
 8982 2430 50       		.byte	0x50
 8983 2431 00       		.byte	0
 8984 2432 00       		.byte	0
 8985 2433 09       		.uleb128 0x9
 8986 2434 04       		.byte	0x4
 8987 2435 C6190000 		.4byte	0x19c6
 8988 2439 3E       		.uleb128 0x3e
 8989 243a 37160000 		.4byte	.LASF586
 8990 243e 01       		.byte	0x1
 8991 243f A303     		.2byte	0x3a3
 8992 2441 0C010000 		.4byte	0x10c
 8993 2445 00000000 		.4byte	.LFB125
 8994 2449 84000000 		.4byte	.LFE125-.LFB125
 8995 244d 01       		.uleb128 0x1
 8996 244e 9C       		.byte	0x9c
 8997 244f 73240000 		.4byte	0x2473
 8998 2453 3F       		.uleb128 0x3f
 8999 2454 A2220000 		.4byte	0x22a2
 9000 2458 3E000000 		.4byte	.LBB24
 9001 245c 00000000 		.4byte	.Ldebug_ranges0+0
 9002 2460 01       		.byte	0x1
ARM GAS  /var/folders/7z/kps_xzfj7sn5l5gkyq8s9db00000gn/T//ccvBF34a.s 			page 161


 9003 2461 B603     		.2byte	0x3b6
 9004 2463 3D       		.uleb128 0x3d
 9005 2464 BB220000 		.4byte	0x22bb
 9006 2468 01       		.uleb128 0x1
 9007 2469 52       		.byte	0x52
 9008 246a 3D       		.uleb128 0x3d
 9009 246b AF220000 		.4byte	0x22af
 9010 246f 01       		.uleb128 0x1
 9011 2470 51       		.byte	0x51
 9012 2471 00       		.byte	0
 9013 2472 00       		.byte	0
 9014 2473 36       		.uleb128 0x36
 9015 2474 56010000 		.4byte	.LASF588
 9016 2478 01       		.byte	0x1
 9017 2479 F603     		.2byte	0x3f6
 9018 247b 00000000 		.4byte	.LFB127
 9019 247f 68000000 		.4byte	.LFE127-.LFB127
 9020 2483 01       		.uleb128 0x1
 9021 2484 9C       		.byte	0x9c
 9022 2485 B2240000 		.4byte	0x24b2
 9023 2489 40       		.uleb128 0x40
 9024 248a 34000000 		.4byte	.LVL11
 9025 248e EB3A0000 		.4byte	0x3aeb
 9026 2492 9F240000 		.4byte	0x249f
 9027 2496 35       		.uleb128 0x35
 9028 2497 02       		.uleb128 0x2
 9029 2498 90       		.byte	0x90
 9030 2499 40       		.uleb128 0x40
 9031 249a 03       		.uleb128 0x3
 9032 249b F5       		.byte	0xf5
 9033 249c 53       		.uleb128 0x53
 9034 249d 25       		.uleb128 0x25
 9035 249e 00       		.byte	0
 9036 249f 34       		.uleb128 0x34
 9037 24a0 40000000 		.4byte	.LVL12
 9038 24a4 013B0000 		.4byte	0x3b01
 9039 24a8 35       		.uleb128 0x35
 9040 24a9 02       		.uleb128 0x2
 9041 24aa 90       		.byte	0x90
 9042 24ab 40       		.uleb128 0x40
 9043 24ac 03       		.uleb128 0x3
 9044 24ad F5       		.byte	0xf5
 9045 24ae 53       		.uleb128 0x53
 9046 24af 25       		.uleb128 0x25
 9047 24b0 00       		.byte	0
 9048 24b1 00       		.byte	0
 9049 24b2 41       		.uleb128 0x41
 9050 24b3 58220000 		.4byte	0x2258
 9051 24b7 00000000 		.4byte	.LFB129
 9052 24bb 08000000 		.4byte	.LFE129-.LFB129
 9053 24bf 01       		.uleb128 0x1
 9054 24c0 9C       		.byte	0x9c
 9055 24c1 CD240000 		.4byte	0x24cd
 9056 24c5 3D       		.uleb128 0x3d
 9057 24c6 65220000 		.4byte	0x2265
 9058 24ca 01       		.uleb128 0x1
 9059 24cb 50       		.byte	0x50
ARM GAS  /var/folders/7z/kps_xzfj7sn5l5gkyq8s9db00000gn/T//ccvBF34a.s 			page 162


 9060 24cc 00       		.byte	0
 9061 24cd 36       		.uleb128 0x36
 9062 24ce 211D0000 		.4byte	.LASF589
 9063 24d2 01       		.byte	0x1
 9064 24d3 EA04     		.2byte	0x4ea
 9065 24d5 00000000 		.4byte	.LFB130
 9066 24d9 60000000 		.4byte	.LFE130-.LFB130
 9067 24dd 01       		.uleb128 0x1
 9068 24de 9C       		.byte	0x9c
 9069 24df 1F250000 		.4byte	0x251f
 9070 24e3 42       		.uleb128 0x42
 9071 24e4 351E0000 		.4byte	.LASF568
 9072 24e8 01       		.byte	0x1
 9073 24e9 EA04     		.2byte	0x4ea
 9074 24eb 72220000 		.4byte	0x2272
 9075 24ef 01       		.uleb128 0x1
 9076 24f0 50       		.byte	0x50
 9077 24f1 43       		.uleb128 0x43
 9078 24f2 5500     		.ascii	"U\000"
 9079 24f4 01       		.byte	0x1
 9080 24f5 EC04     		.2byte	0x4ec
 9081 24f7 25000000 		.4byte	0x25
 9082 24fb 84000000 		.4byte	.LLST4
 9083 24ff 43       		.uleb128 0x43
 9084 2500 45786300 		.ascii	"Exc\000"
 9085 2504 01       		.byte	0x1
 9086 2505 EC04     		.2byte	0x4ec
 9087 2507 25000000 		.4byte	0x25
 9088 250b 98000000 		.4byte	.LLST5
 9089 250f 44       		.uleb128 0x44
 9090 2510 45727200 		.ascii	"Err\000"
 9091 2514 01       		.byte	0x1
 9092 2515 EC04     		.2byte	0x4ec
 9093 2517 25000000 		.4byte	0x25
 9094 251b 02       		.uleb128 0x2
 9095 251c 90       		.byte	0x90
 9096 251d 4C       		.uleb128 0x4c
 9097 251e 00       		.byte	0
 9098 251f 36       		.uleb128 0x36
 9099 2520 A81A0000 		.4byte	.LASF591
 9100 2524 01       		.byte	0x1
 9101 2525 FB04     		.2byte	0x4fb
 9102 2527 00000000 		.4byte	.LFB131
 9103 252b 98000000 		.4byte	.LFE131-.LFB131
 9104 252f 01       		.uleb128 0x1
 9105 2530 9C       		.byte	0x9c
 9106 2531 B6250000 		.4byte	0x25b6
 9107 2535 45       		.uleb128 0x45
 9108 2536 58220000 		.4byte	0x2258
 9109 253a 22000000 		.4byte	.LBB28
 9110 253e 18000000 		.4byte	.Ldebug_ranges0+0x18
 9111 2542 01       		.byte	0x1
 9112 2543 0505     		.2byte	0x505
 9113 2545 56250000 		.4byte	0x2556
 9114 2549 3D       		.uleb128 0x3d
 9115 254a 65220000 		.4byte	0x2265
 9116 254e 06       		.uleb128 0x6
ARM GAS  /var/folders/7z/kps_xzfj7sn5l5gkyq8s9db00000gn/T//ccvBF34a.s 			page 163


 9117 254f 03       		.byte	0x3
 9118 2550 00000000 		.4byte	PIParmD
 9119 2554 9F       		.byte	0x9f
 9120 2555 00       		.byte	0
 9121 2556 46       		.uleb128 0x46
 9122 2557 58220000 		.4byte	0x2258
 9123 255b 44000000 		.4byte	.LBB32
 9124 255f 04000000 		.4byte	.LBE32-.LBB32
 9125 2563 01       		.byte	0x1
 9126 2564 0E05     		.2byte	0x50e
 9127 2566 77250000 		.4byte	0x2577
 9128 256a 3D       		.uleb128 0x3d
 9129 256b 65220000 		.4byte	0x2265
 9130 256f 06       		.uleb128 0x6
 9131 2570 03       		.byte	0x3
 9132 2571 00000000 		.4byte	PIParmQ
 9133 2575 9F       		.byte	0x9f
 9134 2576 00       		.byte	0
 9135 2577 46       		.uleb128 0x46
 9136 2578 58220000 		.4byte	0x2258
 9137 257c 4C000000 		.4byte	.LBB34
 9138 2580 04000000 		.4byte	.LBE34-.LBB34
 9139 2584 01       		.byte	0x1
 9140 2585 1705     		.2byte	0x517
 9141 2587 98250000 		.4byte	0x2598
 9142 258b 3D       		.uleb128 0x3d
 9143 258c 65220000 		.4byte	0x2265
 9144 2590 06       		.uleb128 0x6
 9145 2591 03       		.byte	0x3
 9146 2592 00000000 		.4byte	PIParmW
 9147 2596 9F       		.byte	0x9f
 9148 2597 00       		.byte	0
 9149 2598 3C       		.uleb128 0x3c
 9150 2599 58220000 		.4byte	0x2258
 9151 259d 54000000 		.4byte	.LBB36
 9152 25a1 04000000 		.4byte	.LBE36-.LBB36
 9153 25a5 01       		.byte	0x1
 9154 25a6 2005     		.2byte	0x520
 9155 25a8 3D       		.uleb128 0x3d
 9156 25a9 65220000 		.4byte	0x2265
 9157 25ad 06       		.uleb128 0x6
 9158 25ae 03       		.byte	0x3
 9159 25af 00000000 		.4byte	PIParmPLL
 9160 25b3 9F       		.byte	0x9f
 9161 25b4 00       		.byte	0
 9162 25b5 00       		.byte	0
 9163 25b6 36       		.uleb128 0x36
 9164 25b7 3B1B0000 		.4byte	.LASF592
 9165 25bb 01       		.byte	0x1
 9166 25bc 2505     		.2byte	0x525
 9167 25be 00000000 		.4byte	.LFB132
 9168 25c2 02000000 		.4byte	.LFE132-.LFB132
 9169 25c6 01       		.uleb128 0x1
 9170 25c7 9C       		.byte	0x9c
 9171 25c8 D8250000 		.4byte	0x25d8
 9172 25cc 47       		.uleb128 0x47
 9173 25cd 6900     		.ascii	"i\000"
ARM GAS  /var/folders/7z/kps_xzfj7sn5l5gkyq8s9db00000gn/T//ccvBF34a.s 			page 164


 9174 25cf 01       		.byte	0x1
 9175 25d0 2705     		.2byte	0x527
 9176 25d2 8D000000 		.4byte	0x8d
 9177 25d6 00       		.byte	0
 9178 25d7 00       		.byte	0
 9179 25d8 41       		.uleb128 0x41
 9180 25d9 78220000 		.4byte	0x2278
 9181 25dd 00000000 		.4byte	.LFB133
 9182 25e1 5C000000 		.4byte	.LFE133-.LFB133
 9183 25e5 01       		.uleb128 0x1
 9184 25e6 9C       		.byte	0x9c
 9185 25e7 20260000 		.4byte	0x2620
 9186 25eb 48       		.uleb128 0x48
 9187 25ec 89220000 		.4byte	0x2289
 9188 25f0 BE000000 		.4byte	.LLST6
 9189 25f4 49       		.uleb128 0x49
 9190 25f5 95220000 		.4byte	0x2295
 9191 25f9 FE000000 		.4byte	.LLST7
 9192 25fd 4A       		.uleb128 0x4a
 9193 25fe 28000000 		.4byte	.LBB40
 9194 2602 10000000 		.4byte	.LBE40-.LBB40
 9195 2606 48       		.uleb128 0x48
 9196 2607 89220000 		.4byte	0x2289
 9197 260b 1E010000 		.4byte	.LLST8
 9198 260f 4A       		.uleb128 0x4a
 9199 2610 28000000 		.4byte	.LBB41
 9200 2614 10000000 		.4byte	.LBE41-.LBB41
 9201 2618 4B       		.uleb128 0x4b
 9202 2619 95220000 		.4byte	0x2295
 9203 261d 00       		.byte	0
 9204 261e 00       		.byte	0
 9205 261f 00       		.byte	0
 9206 2620 36       		.uleb128 0x36
 9207 2621 D7200000 		.4byte	.LASF593
 9208 2625 01       		.byte	0x1
 9209 2626 0504     		.2byte	0x405
 9210 2628 00000000 		.4byte	.LFB128
 9211 262c 44020000 		.4byte	.LFE128-.LFB128
 9212 2630 01       		.uleb128 0x1
 9213 2631 9C       		.byte	0x9c
 9214 2632 DD260000 		.4byte	0x26dd
 9215 2636 45       		.uleb128 0x45
 9216 2637 E0220000 		.4byte	0x22e0
 9217 263b C4000000 		.4byte	.LBB42
 9218 263f 30000000 		.4byte	.Ldebug_ranges0+0x30
 9219 2643 01       		.byte	0x1
 9220 2644 B004     		.2byte	0x4b0
 9221 2646 54260000 		.4byte	0x2654
 9222 264a 48       		.uleb128 0x48
 9223 264b F1220000 		.4byte	0x22f1
 9224 264f 32010000 		.4byte	.LLST9
 9225 2653 00       		.byte	0
 9226 2654 40       		.uleb128 0x40
 9227 2655 3A000000 		.4byte	.LVL30
 9228 2659 CD240000 		.4byte	0x24cd
 9229 265d 68260000 		.4byte	0x2668
 9230 2661 35       		.uleb128 0x35
ARM GAS  /var/folders/7z/kps_xzfj7sn5l5gkyq8s9db00000gn/T//ccvBF34a.s 			page 165


 9231 2662 01       		.uleb128 0x1
 9232 2663 50       		.byte	0x50
 9233 2664 02       		.uleb128 0x2
 9234 2665 76       		.byte	0x76
 9235 2666 00       		.sleb128 0
 9236 2667 00       		.byte	0
 9237 2668 40       		.uleb128 0x40
 9238 2669 84000000 		.4byte	.LVL31
 9239 266d CD240000 		.4byte	0x24cd
 9240 2671 7C260000 		.4byte	0x267c
 9241 2675 35       		.uleb128 0x35
 9242 2676 01       		.uleb128 0x1
 9243 2677 50       		.byte	0x50
 9244 2678 02       		.uleb128 0x2
 9245 2679 76       		.byte	0x76
 9246 267a 00       		.sleb128 0
 9247 267b 00       		.byte	0
 9248 267c 40       		.uleb128 0x40
 9249 267d 04010000 		.4byte	.LVL34
 9250 2681 CD240000 		.4byte	0x24cd
 9251 2685 90260000 		.4byte	0x2690
 9252 2689 35       		.uleb128 0x35
 9253 268a 01       		.uleb128 0x1
 9254 268b 50       		.byte	0x50
 9255 268c 02       		.uleb128 0x2
 9256 268d 77       		.byte	0x77
 9257 268e 00       		.sleb128 0
 9258 268f 00       		.byte	0
 9259 2690 40       		.uleb128 0x40
 9260 2691 52010000 		.4byte	.LVL35
 9261 2695 CD240000 		.4byte	0x24cd
 9262 2699 A4260000 		.4byte	0x26a4
 9263 269d 35       		.uleb128 0x35
 9264 269e 01       		.uleb128 0x1
 9265 269f 50       		.byte	0x50
 9266 26a0 02       		.uleb128 0x2
 9267 26a1 77       		.byte	0x77
 9268 26a2 00       		.sleb128 0
 9269 26a3 00       		.byte	0
 9270 26a4 40       		.uleb128 0x40
 9271 26a5 D2010000 		.4byte	.LVL38
 9272 26a9 CD240000 		.4byte	0x24cd
 9273 26ad B8260000 		.4byte	0x26b8
 9274 26b1 35       		.uleb128 0x35
 9275 26b2 01       		.uleb128 0x1
 9276 26b3 50       		.byte	0x50
 9277 26b4 02       		.uleb128 0x2
 9278 26b5 75       		.byte	0x75
 9279 26b6 00       		.sleb128 0
 9280 26b7 00       		.byte	0
 9281 26b8 4C       		.uleb128 0x4c
 9282 26b9 E0010000 		.4byte	.LVL39
 9283 26bd 78220000 		.4byte	0x2278
 9284 26c1 4C       		.uleb128 0x4c
 9285 26c2 EA010000 		.4byte	.LVL40
 9286 26c6 78220000 		.4byte	0x2278
 9287 26ca 4C       		.uleb128 0x4c
ARM GAS  /var/folders/7z/kps_xzfj7sn5l5gkyq8s9db00000gn/T//ccvBF34a.s 			page 166


 9288 26cb F4010000 		.4byte	.LVL41
 9289 26cf 173B0000 		.4byte	0x3b17
 9290 26d3 4C       		.uleb128 0x4c
 9291 26d4 FE010000 		.4byte	.LVL42
 9292 26d8 173B0000 		.4byte	0x3b17
 9293 26dc 00       		.byte	0
 9294 26dd 41       		.uleb128 0x41
 9295 26de FE220000 		.4byte	0x22fe
 9296 26e2 00000000 		.4byte	.LFB134
 9297 26e6 48000000 		.4byte	.LFE134-.LFB134
 9298 26ea 01       		.uleb128 0x1
 9299 26eb 9C       		.byte	0x9c
 9300 26ec 15270000 		.4byte	0x2715
 9301 26f0 48       		.uleb128 0x48
 9302 26f1 0B230000 		.4byte	0x230b
 9303 26f5 66010000 		.4byte	.LLST10
 9304 26f9 48       		.uleb128 0x48
 9305 26fa 17230000 		.4byte	0x2317
 9306 26fe 87010000 		.4byte	.LLST11
 9307 2702 49       		.uleb128 0x49
 9308 2703 23230000 		.4byte	0x2323
 9309 2707 A8010000 		.4byte	.LLST12
 9310 270b 49       		.uleb128 0x49
 9311 270c 2F230000 		.4byte	0x232f
 9312 2710 CF010000 		.4byte	.LLST13
 9313 2714 00       		.byte	0
 9314 2715 41       		.uleb128 0x41
 9315 2716 A2220000 		.4byte	0x22a2
 9316 271a 00000000 		.4byte	.LFB135
 9317 271e 0C000000 		.4byte	.LFE135-.LFB135
 9318 2722 01       		.uleb128 0x1
 9319 2723 9C       		.byte	0x9c
 9320 2724 37270000 		.4byte	0x2737
 9321 2728 3D       		.uleb128 0x3d
 9322 2729 AF220000 		.4byte	0x22af
 9323 272d 01       		.uleb128 0x1
 9324 272e 50       		.byte	0x50
 9325 272f 3D       		.uleb128 0x3d
 9326 2730 BB220000 		.4byte	0x22bb
 9327 2734 01       		.uleb128 0x1
 9328 2735 51       		.byte	0x51
 9329 2736 00       		.byte	0
 9330 2737 36       		.uleb128 0x36
 9331 2738 DE060000 		.4byte	.LASF594
 9332 273c 01       		.byte	0x1
 9333 273d 6605     		.2byte	0x566
 9334 273f 00000000 		.4byte	.LFB136
 9335 2743 4C000000 		.4byte	.LFE136-.LFB136
 9336 2747 01       		.uleb128 0x1
 9337 2748 9C       		.byte	0x9c
 9338 2749 76270000 		.4byte	0x2776
 9339 274d 40       		.uleb128 0x40
 9340 274e 18000000 		.4byte	.LVL49
 9341 2752 EB3A0000 		.4byte	0x3aeb
 9342 2756 63270000 		.4byte	0x2763
 9343 275a 35       		.uleb128 0x35
 9344 275b 02       		.uleb128 0x2
ARM GAS  /var/folders/7z/kps_xzfj7sn5l5gkyq8s9db00000gn/T//ccvBF34a.s 			page 167


 9345 275c 90       		.byte	0x90
 9346 275d 40       		.uleb128 0x40
 9347 275e 03       		.uleb128 0x3
 9348 275f F5       		.byte	0xf5
 9349 2760 52       		.uleb128 0x52
 9350 2761 25       		.uleb128 0x25
 9351 2762 00       		.byte	0
 9352 2763 34       		.uleb128 0x34
 9353 2764 24000000 		.4byte	.LVL50
 9354 2768 013B0000 		.4byte	0x3b01
 9355 276c 35       		.uleb128 0x35
 9356 276d 02       		.uleb128 0x2
 9357 276e 90       		.byte	0x90
 9358 276f 40       		.uleb128 0x40
 9359 2770 03       		.uleb128 0x3
 9360 2771 F5       		.byte	0xf5
 9361 2772 52       		.uleb128 0x52
 9362 2773 25       		.uleb128 0x25
 9363 2774 00       		.byte	0
 9364 2775 00       		.byte	0
 9365 2776 4D       		.uleb128 0x4d
 9366 2777 3C230000 		.4byte	0x233c
 9367 277b 00000000 		.4byte	.LFB137
 9368 277f 48000000 		.4byte	.LFE137-.LFB137
 9369 2783 01       		.uleb128 0x1
 9370 2784 9C       		.byte	0x9c
 9371 2785 4E       		.uleb128 0x4e
 9372 2786 39020000 		.4byte	.LASF607
 9373 278a 01       		.byte	0x1
 9374 278b 7805     		.2byte	0x578
 9375 278d 00000000 		.4byte	.LFB138
 9376 2791 6C000000 		.4byte	.LFE138-.LFB138
 9377 2795 01       		.uleb128 0x1
 9378 2796 9C       		.byte	0x9c
 9379 2797 36       		.uleb128 0x36
 9380 2798 AD030000 		.4byte	.LASF595
 9381 279c 01       		.byte	0x1
 9382 279d 8405     		.2byte	0x584
 9383 279f 00000000 		.4byte	.LFB139
 9384 27a3 58000000 		.4byte	.LFE139-.LFB139
 9385 27a7 01       		.uleb128 0x1
 9386 27a8 9C       		.byte	0x9c
 9387 27a9 F0270000 		.4byte	0x27f0
 9388 27ad 37       		.uleb128 0x37
 9389 27ae 11060000 		.4byte	.LASF596
 9390 27b2 01       		.byte	0x1
 9391 27b3 8405     		.2byte	0x584
 9392 27b5 3E000000 		.4byte	0x3e
 9393 27b9 F6010000 		.4byte	.LLST14
 9394 27bd 37       		.uleb128 0x37
 9395 27be 18060000 		.4byte	.LASF597
 9396 27c2 01       		.byte	0x1
 9397 27c3 8405     		.2byte	0x584
 9398 27c5 3E000000 		.4byte	0x3e
 9399 27c9 22020000 		.4byte	.LLST15
 9400 27cd 37       		.uleb128 0x37
 9401 27ce 1F060000 		.4byte	.LASF598
ARM GAS  /var/folders/7z/kps_xzfj7sn5l5gkyq8s9db00000gn/T//ccvBF34a.s 			page 168


 9402 27d2 01       		.byte	0x1
 9403 27d3 8405     		.2byte	0x584
 9404 27d5 3E000000 		.4byte	0x3e
 9405 27d9 4E020000 		.4byte	.LLST16
 9406 27dd 4C       		.uleb128 0x4c
 9407 27de 0E000000 		.4byte	.LVL52
 9408 27e2 2D3B0000 		.4byte	0x3b2d
 9409 27e6 4F       		.uleb128 0x4f
 9410 27e7 4E000000 		.4byte	.LVL54
 9411 27eb 343B0000 		.4byte	0x3b34
 9412 27ef 00       		.byte	0
 9413 27f0 36       		.uleb128 0x36
 9414 27f1 1B220000 		.4byte	.LASF599
 9415 27f5 01       		.byte	0x1
 9416 27f6 9D05     		.2byte	0x59d
 9417 27f8 00000000 		.4byte	.LFB140
 9418 27fc 04010000 		.4byte	.LFE140-.LFB140
 9419 2800 01       		.uleb128 0x1
 9420 2801 9C       		.byte	0x9c
 9421 2802 73280000 		.4byte	0x2873
 9422 2806 4C       		.uleb128 0x4c
 9423 2807 3A000000 		.4byte	.LVL55
 9424 280b 85270000 		.4byte	0x2785
 9425 280f 4F       		.uleb128 0x4f
 9426 2810 48000000 		.4byte	.LVL56
 9427 2814 97270000 		.4byte	0x2797
 9428 2818 4C       		.uleb128 0x4c
 9429 2819 54000000 		.4byte	.LVL57
 9430 281d 85270000 		.4byte	0x2785
 9431 2821 4F       		.uleb128 0x4f
 9432 2822 62000000 		.4byte	.LVL58
 9433 2826 97270000 		.4byte	0x2797
 9434 282a 4C       		.uleb128 0x4c
 9435 282b 8A000000 		.4byte	.LVL59
 9436 282f 85270000 		.4byte	0x2785
 9437 2833 4F       		.uleb128 0x4f
 9438 2834 98000000 		.4byte	.LVL60
 9439 2838 97270000 		.4byte	0x2797
 9440 283c 4C       		.uleb128 0x4c
 9441 283d AC000000 		.4byte	.LVL61
 9442 2841 85270000 		.4byte	0x2785
 9443 2845 4F       		.uleb128 0x4f
 9444 2846 BA000000 		.4byte	.LVL62
 9445 284a 97270000 		.4byte	0x2797
 9446 284e 4C       		.uleb128 0x4c
 9447 284f CE000000 		.4byte	.LVL63
 9448 2853 85270000 		.4byte	0x2785
 9449 2857 4F       		.uleb128 0x4f
 9450 2858 DC000000 		.4byte	.LVL64
 9451 285c 97270000 		.4byte	0x2797
 9452 2860 4C       		.uleb128 0x4c
 9453 2861 F0000000 		.4byte	.LVL65
 9454 2865 85270000 		.4byte	0x2785
 9455 2869 4F       		.uleb128 0x4f
 9456 286a FE000000 		.4byte	.LVL66
 9457 286e 97270000 		.4byte	0x2797
 9458 2872 00       		.byte	0
ARM GAS  /var/folders/7z/kps_xzfj7sn5l5gkyq8s9db00000gn/T//ccvBF34a.s 			page 169


 9459 2873 41       		.uleb128 0x41
 9460 2874 C8220000 		.4byte	0x22c8
 9461 2878 00000000 		.4byte	.LFB141
 9462 287c 30000000 		.4byte	.LFE141-.LFB141
 9463 2880 01       		.uleb128 0x1
 9464 2881 9C       		.byte	0x9c
 9465 2882 8E280000 		.4byte	0x288e
 9466 2886 3D       		.uleb128 0x3d
 9467 2887 D5220000 		.4byte	0x22d5
 9468 288b 01       		.uleb128 0x1
 9469 288c 50       		.byte	0x50
 9470 288d 00       		.byte	0
 9471 288e 36       		.uleb128 0x36
 9472 288f 8D080000 		.4byte	.LASF600
 9473 2893 01       		.byte	0x1
 9474 2894 5606     		.2byte	0x656
 9475 2896 00000000 		.4byte	.LFB142
 9476 289a 9C010000 		.4byte	.LFE142-.LFB142
 9477 289e 01       		.uleb128 0x1
 9478 289f 9C       		.byte	0x9c
 9479 28a0 F7280000 		.4byte	0x28f7
 9480 28a4 33       		.uleb128 0x33
 9481 28a5 7300     		.ascii	"s\000"
 9482 28a7 01       		.byte	0x1
 9483 28a8 5606     		.2byte	0x656
 9484 28aa AA1F0000 		.4byte	0x1faa
 9485 28ae 7A020000 		.4byte	.LLST17
 9486 28b2 43       		.uleb128 0x43
 9487 28b3 65727200 		.ascii	"err\000"
 9488 28b7 01       		.byte	0x1
 9489 28b8 7106     		.2byte	0x671
 9490 28ba 25000000 		.4byte	0x25
 9491 28be 9B020000 		.4byte	.LLST18
 9492 28c2 38       		.uleb128 0x38
 9493 28c3 3F0E0000 		.4byte	.LASF601
 9494 28c7 01       		.byte	0x1
 9495 28c8 7106     		.2byte	0x671
 9496 28ca 25000000 		.4byte	0x25
 9497 28ce 04       		.byte	0x4
 9498 28cf 0000803F 		.4byte	0x3f800000
 9499 28d3 38       		.uleb128 0x38
 9500 28d4 69090000 		.4byte	.LASF602
 9501 28d8 01       		.byte	0x1
 9502 28d9 7106     		.2byte	0x671
 9503 28db 25000000 		.4byte	0x25
 9504 28df 04       		.byte	0x4
 9505 28e0 0C02803F 		.4byte	0x3f80020c
 9506 28e4 4C       		.uleb128 0x4c
 9507 28e5 4C000000 		.4byte	.LVL69
 9508 28e9 EB3A0000 		.4byte	0x3aeb
 9509 28ed 4C       		.uleb128 0x4c
 9510 28ee 5E000000 		.4byte	.LVL70
 9511 28f2 013B0000 		.4byte	0x3b01
 9512 28f6 00       		.byte	0
 9513 28f7 36       		.uleb128 0x36
 9514 28f8 CD1D0000 		.4byte	.LASF603
 9515 28fc 01       		.byte	0x1
ARM GAS  /var/folders/7z/kps_xzfj7sn5l5gkyq8s9db00000gn/T//ccvBF34a.s 			page 170


 9516 28fd 5A02     		.2byte	0x25a
 9517 28ff 00000000 		.4byte	.LFB122
 9518 2903 3C010000 		.4byte	.LFE122-.LFB122
 9519 2907 01       		.uleb128 0x1
 9520 2908 9C       		.byte	0x9c
 9521 2909 ED290000 		.4byte	0x29ed
 9522 290d 50       		.uleb128 0x50
 9523 290e 1A080000 		.4byte	.LASF604
 9524 2912 01       		.byte	0x1
 9525 2913 5E02     		.2byte	0x25e
 9526 2915 2C000000 		.4byte	0x2c
 9527 2919 00030000 		.4byte	.LLST19
 9528 291d 50       		.uleb128 0x50
 9529 291e 20080000 		.4byte	.LASF578
 9530 2922 01       		.byte	0x1
 9531 2923 5F02     		.2byte	0x25f
 9532 2925 2C000000 		.4byte	0x2c
 9533 2929 1E030000 		.4byte	.LLST20
 9534 292d 45       		.uleb128 0x45
 9535 292e FE220000 		.4byte	0x22fe
 9536 2932 4C000000 		.4byte	.LBB50
 9537 2936 58000000 		.4byte	.Ldebug_ranges0+0x58
 9538 293a 01       		.byte	0x1
 9539 293b 8C02     		.2byte	0x28c
 9540 293d 6C290000 		.4byte	0x296c
 9541 2941 48       		.uleb128 0x48
 9542 2942 17230000 		.4byte	0x2317
 9543 2946 3C030000 		.4byte	.LLST21
 9544 294a 48       		.uleb128 0x48
 9545 294b 0B230000 		.4byte	0x230b
 9546 294f 4F030000 		.4byte	.LLST22
 9547 2953 51       		.uleb128 0x51
 9548 2954 58000000 		.4byte	.Ldebug_ranges0+0x58
 9549 2958 49       		.uleb128 0x49
 9550 2959 23230000 		.4byte	0x2323
 9551 295d 62030000 		.4byte	.LLST23
 9552 2961 49       		.uleb128 0x49
 9553 2962 2F230000 		.4byte	0x232f
 9554 2966 89030000 		.4byte	.LLST24
 9555 296a 00       		.byte	0
 9556 296b 00       		.byte	0
 9557 296c 52       		.uleb128 0x52
 9558 296d 3C230000 		.4byte	0x233c
 9559 2971 BC000000 		.4byte	.LBB62
 9560 2975 36000000 		.4byte	.LBE62-.LBB62
 9561 2979 01       		.byte	0x1
 9562 297a B702     		.2byte	0x2b7
 9563 297c 40       		.uleb128 0x40
 9564 297d 12000000 		.4byte	.LVL76
 9565 2981 3B3B0000 		.4byte	0x3b3b
 9566 2985 98290000 		.4byte	0x2998
 9567 2989 35       		.uleb128 0x35
 9568 298a 01       		.uleb128 0x1
 9569 298b 51       		.byte	0x51
 9570 298c 01       		.uleb128 0x1
 9571 298d 44       		.byte	0x44
 9572 298e 35       		.uleb128 0x35
ARM GAS  /var/folders/7z/kps_xzfj7sn5l5gkyq8s9db00000gn/T//ccvBF34a.s 			page 171


 9573 298f 01       		.uleb128 0x1
 9574 2990 50       		.byte	0x50
 9575 2991 05       		.uleb128 0x5
 9576 2992 0C       		.byte	0xc
 9577 2993 00200140 		.4byte	0x40012000
 9578 2997 00       		.byte	0
 9579 2998 40       		.uleb128 0x40
 9580 2999 1E000000 		.4byte	.LVL79
 9581 299d 3B3B0000 		.4byte	0x3b3b
 9582 29a1 B4290000 		.4byte	0x29b4
 9583 29a5 35       		.uleb128 0x35
 9584 29a6 01       		.uleb128 0x1
 9585 29a7 51       		.byte	0x51
 9586 29a8 01       		.uleb128 0x1
 9587 29a9 44       		.byte	0x44
 9588 29aa 35       		.uleb128 0x35
 9589 29ab 01       		.uleb128 0x1
 9590 29ac 50       		.byte	0x50
 9591 29ad 05       		.uleb128 0x5
 9592 29ae 0C       		.byte	0xc
 9593 29af 00210140 		.4byte	0x40012100
 9594 29b3 00       		.byte	0
 9595 29b4 40       		.uleb128 0x40
 9596 29b5 3E000000 		.4byte	.LVL82
 9597 29b9 8E280000 		.4byte	0x288e
 9598 29bd C8290000 		.4byte	0x29c8
 9599 29c1 35       		.uleb128 0x35
 9600 29c2 01       		.uleb128 0x1
 9601 29c3 50       		.byte	0x50
 9602 29c4 02       		.uleb128 0x2
 9603 29c5 77       		.byte	0x77
 9604 29c6 00       		.sleb128 0
 9605 29c7 00       		.byte	0
 9606 29c8 4C       		.uleb128 0x4c
 9607 29c9 B4000000 		.4byte	.LVL88
 9608 29cd 73240000 		.4byte	0x2473
 9609 29d1 4C       		.uleb128 0x4c
 9610 29d2 B8000000 		.4byte	.LVL89
 9611 29d6 20260000 		.4byte	0x2620
 9612 29da 4C       		.uleb128 0x4c
 9613 29db BC000000 		.4byte	.LVL90
 9614 29df 37270000 		.4byte	0x2737
 9615 29e3 4C       		.uleb128 0x4c
 9616 29e4 F6000000 		.4byte	.LVL91
 9617 29e8 F0270000 		.4byte	0x27f0
 9618 29ec 00       		.byte	0
 9619 29ed 36       		.uleb128 0x36
 9620 29ee FD1A0000 		.4byte	.LASF605
 9621 29f2 01       		.byte	0x1
 9622 29f3 C306     		.2byte	0x6c3
 9623 29f5 00000000 		.4byte	.LFB143
 9624 29f9 FC010000 		.4byte	.LFE143-.LFB143
 9625 29fd 01       		.uleb128 0x1
 9626 29fe 9C       		.byte	0x9c
 9627 29ff 1B2A0000 		.4byte	0x2a1b
 9628 2a03 33       		.uleb128 0x33
 9629 2a04 7300     		.ascii	"s\000"
ARM GAS  /var/folders/7z/kps_xzfj7sn5l5gkyq8s9db00000gn/T//ccvBF34a.s 			page 172


 9630 2a06 01       		.byte	0x1
 9631 2a07 C306     		.2byte	0x6c3
 9632 2a09 AA1F0000 		.4byte	0x1faa
 9633 2a0d B0030000 		.4byte	.LLST25
 9634 2a11 4C       		.uleb128 0x4c
 9635 2a12 0C010000 		.4byte	.LVL94
 9636 2a16 5C3B0000 		.4byte	0x3b5c
 9637 2a1a 00       		.byte	0
 9638 2a1b 36       		.uleb128 0x36
 9639 2a1c AC120000 		.4byte	.LASF606
 9640 2a20 01       		.byte	0x1
 9641 2a21 C203     		.2byte	0x3c2
 9642 2a23 00000000 		.4byte	.LFB126
 9643 2a27 F8000000 		.4byte	.LFE126-.LFB126
 9644 2a2b 01       		.uleb128 0x1
 9645 2a2c 9C       		.byte	0x9c
 9646 2a2d 422A0000 		.4byte	0x2a42
 9647 2a31 34       		.uleb128 0x34
 9648 2a32 1C000000 		.4byte	.LVL97
 9649 2a36 ED290000 		.4byte	0x29ed
 9650 2a3a 35       		.uleb128 0x35
 9651 2a3b 01       		.uleb128 0x1
 9652 2a3c 50       		.byte	0x50
 9653 2a3d 02       		.uleb128 0x2
 9654 2a3e 74       		.byte	0x74
 9655 2a3f 00       		.sleb128 0
 9656 2a40 00       		.byte	0
 9657 2a41 00       		.byte	0
 9658 2a42 4E       		.uleb128 0x4e
 9659 2a43 A1180000 		.4byte	.LASF608
 9660 2a47 01       		.byte	0x1
 9661 2a48 4707     		.2byte	0x747
 9662 2a4a 00000000 		.4byte	.LFB144
 9663 2a4e AC000000 		.4byte	.LFE144-.LFB144
 9664 2a52 01       		.uleb128 0x1
 9665 2a53 9C       		.byte	0x9c
 9666 2a54 53       		.uleb128 0x53
 9667 2a55 56240000 		.4byte	.LASF768
 9668 2a59 01       		.byte	0x1
 9669 2a5a 4602     		.2byte	0x246
 9670 2a5c 01       		.byte	0x1
 9671 2a5d 36       		.uleb128 0x36
 9672 2a5e 0F080000 		.4byte	.LASF609
 9673 2a62 01       		.byte	0x1
 9674 2a63 1E01     		.2byte	0x11e
 9675 2a65 00000000 		.4byte	.LFB119
 9676 2a69 04050000 		.4byte	.LFE119-.LFB119
 9677 2a6d 01       		.uleb128 0x1
 9678 2a6e 9C       		.byte	0x9c
 9679 2a6f 88320000 		.4byte	0x3288
 9680 2a73 37       		.uleb128 0x37
 9681 2a74 781A0000 		.4byte	.LASF610
 9682 2a78 01       		.byte	0x1
 9683 2a79 1E01     		.2byte	0x11e
 9684 2a7b 88320000 		.4byte	0x3288
 9685 2a7f E4030000 		.4byte	.LLST26
 9686 2a83 54       		.uleb128 0x54
ARM GAS  /var/folders/7z/kps_xzfj7sn5l5gkyq8s9db00000gn/T//ccvBF34a.s 			page 173


 9687 2a84 EC160000 		.4byte	.LASF611
 9688 2a88 01       		.byte	0x1
 9689 2a89 2101     		.2byte	0x121
 9690 2a8b 520F0000 		.4byte	0xf52
 9691 2a8f 03       		.uleb128 0x3
 9692 2a90 91       		.byte	0x91
 9693 2a91 C47E     		.sleb128 -188
 9694 2a93 54       		.uleb128 0x54
 9695 2a94 DA1B0000 		.4byte	.LASF612
 9696 2a98 01       		.byte	0x1
 9697 2a99 2201     		.2byte	0x122
 9698 2a9b C60F0000 		.4byte	0xfc6
 9699 2a9f 03       		.uleb128 0x3
 9700 2aa0 91       		.byte	0x91
 9701 2aa1 F07E     		.sleb128 -144
 9702 2aa3 54       		.uleb128 0x54
 9703 2aa4 8F100000 		.4byte	.LASF613
 9704 2aa8 01       		.byte	0x1
 9705 2aa9 2301     		.2byte	0x123
 9706 2aab 2E100000 		.4byte	0x102e
 9707 2aaf 03       		.uleb128 0x3
 9708 2ab0 91       		.byte	0x91
 9709 2ab1 D07E     		.sleb128 -176
 9710 2ab3 54       		.uleb128 0x54
 9711 2ab4 9C110000 		.4byte	.LASF614
 9712 2ab8 01       		.byte	0x1
 9713 2ab9 2401     		.2byte	0x124
 9714 2abb 72100000 		.4byte	0x1072
 9715 2abf 03       		.uleb128 0x3
 9716 2ac0 91       		.byte	0x91
 9717 2ac1 C07E     		.sleb128 -192
 9718 2ac3 54       		.uleb128 0x54
 9719 2ac4 6C160000 		.4byte	.LASF615
 9720 2ac8 01       		.byte	0x1
 9721 2ac9 5F01     		.2byte	0x15f
 9722 2acb 3A0E0000 		.4byte	0xe3a
 9723 2acf 03       		.uleb128 0x3
 9724 2ad0 91       		.byte	0x91
 9725 2ad1 E07E     		.sleb128 -160
 9726 2ad3 54       		.uleb128 0x54
 9727 2ad4 0E180000 		.4byte	.LASF616
 9728 2ad8 01       		.byte	0x1
 9729 2ad9 6001     		.2byte	0x160
 9730 2adb 020F0000 		.4byte	0xf02
 9731 2adf 03       		.uleb128 0x3
 9732 2ae0 91       		.byte	0x91
 9733 2ae1 9C7F     		.sleb128 -100
 9734 2ae3 54       		.uleb128 0x54
 9735 2ae4 831B0000 		.4byte	.LASF617
 9736 2ae8 01       		.byte	0x1
 9737 2ae9 6101     		.2byte	0x161
 9738 2aeb F60D0000 		.4byte	0xdf6
 9739 2aef 03       		.uleb128 0x3
 9740 2af0 91       		.byte	0x91
 9741 2af1 847F     		.sleb128 -124
 9742 2af3 50       		.uleb128 0x50
 9743 2af4 6F020000 		.4byte	.LASF618
ARM GAS  /var/folders/7z/kps_xzfj7sn5l5gkyq8s9db00000gn/T//ccvBF34a.s 			page 174


 9744 2af8 01       		.byte	0x1
 9745 2af9 E501     		.2byte	0x1e5
 9746 2afb D5000000 		.4byte	0xd5
 9747 2aff 05040000 		.4byte	.LLST27
 9748 2b03 45       		.uleb128 0x45
 9749 2b04 542A0000 		.4byte	0x2a54
 9750 2b08 DA030000 		.4byte	.LBB68
 9751 2b0c 90000000 		.4byte	.Ldebug_ranges0+0x90
 9752 2b10 01       		.byte	0x1
 9753 2b11 0902     		.2byte	0x209
 9754 2b13 292B0000 		.4byte	0x2b29
 9755 2b17 34       		.uleb128 0x34
 9756 2b18 F8030000 		.4byte	.LVL161
 9757 2b1c C83A0000 		.4byte	0x3ac8
 9758 2b20 35       		.uleb128 0x35
 9759 2b21 01       		.uleb128 0x1
 9760 2b22 50       		.byte	0x50
 9761 2b23 03       		.uleb128 0x3
 9762 2b24 0A       		.byte	0xa
 9763 2b25 1027     		.2byte	0x2710
 9764 2b27 00       		.byte	0
 9765 2b28 00       		.byte	0
 9766 2b29 45       		.uleb128 0x45
 9767 2b2a C8220000 		.4byte	0x22c8
 9768 2b2e 5E040000 		.4byte	.LBB74
 9769 2b32 B0000000 		.4byte	.Ldebug_ranges0+0xb0
 9770 2b36 01       		.byte	0x1
 9771 2b37 2702     		.2byte	0x227
 9772 2b39 4A2B0000 		.4byte	0x2b4a
 9773 2b3d 3D       		.uleb128 0x3d
 9774 2b3e D5220000 		.4byte	0x22d5
 9775 2b42 06       		.uleb128 0x6
 9776 2b43 03       		.byte	0x3
 9777 2b44 00000000 		.4byte	smc1
 9778 2b48 9F       		.byte	0x9f
 9779 2b49 00       		.byte	0
 9780 2b4a 4C       		.uleb128 0x4c
 9781 2b4b 0A000000 		.4byte	.LVL99
 9782 2b4f 2D3B0000 		.4byte	0x3b2d
 9783 2b53 40       		.uleb128 0x40
 9784 2b54 22000000 		.4byte	.LVL100
 9785 2b58 773B0000 		.4byte	0x3b77
 9786 2b5c 672B0000 		.4byte	0x2b67
 9787 2b60 35       		.uleb128 0x35
 9788 2b61 01       		.uleb128 0x1
 9789 2b62 50       		.byte	0x50
 9790 2b63 02       		.uleb128 0x2
 9791 2b64 76       		.byte	0x76
 9792 2b65 00       		.sleb128 0
 9793 2b66 00       		.byte	0
 9794 2b67 40       		.uleb128 0x40
 9795 2b68 28000000 		.4byte	.LVL101
 9796 2b6c 773B0000 		.4byte	0x3b77
 9797 2b70 7B2B0000 		.4byte	0x2b7b
 9798 2b74 35       		.uleb128 0x35
 9799 2b75 01       		.uleb128 0x1
 9800 2b76 50       		.byte	0x50
ARM GAS  /var/folders/7z/kps_xzfj7sn5l5gkyq8s9db00000gn/T//ccvBF34a.s 			page 175


 9801 2b77 02       		.uleb128 0x2
 9802 2b78 77       		.byte	0x77
 9803 2b79 00       		.sleb128 0
 9804 2b7a 00       		.byte	0
 9805 2b7b 40       		.uleb128 0x40
 9806 2b7c 36000000 		.4byte	.LVL102
 9807 2b80 8F3B0000 		.4byte	0x3b8f
 9808 2b84 952B0000 		.4byte	0x2b95
 9809 2b88 35       		.uleb128 0x35
 9810 2b89 01       		.uleb128 0x1
 9811 2b8a 51       		.byte	0x51
 9812 2b8b 02       		.uleb128 0x2
 9813 2b8c 75       		.byte	0x75
 9814 2b8d 00       		.sleb128 0
 9815 2b8e 35       		.uleb128 0x35
 9816 2b8f 01       		.uleb128 0x1
 9817 2b90 50       		.byte	0x50
 9818 2b91 02       		.uleb128 0x2
 9819 2b92 75       		.byte	0x75
 9820 2b93 00       		.sleb128 0
 9821 2b94 00       		.byte	0
 9822 2b95 40       		.uleb128 0x40
 9823 2b96 5E000000 		.4byte	.LVL103
 9824 2b9a A63B0000 		.4byte	0x3ba6
 9825 2b9e B02B0000 		.4byte	0x2bb0
 9826 2ba2 35       		.uleb128 0x35
 9827 2ba3 01       		.uleb128 0x1
 9828 2ba4 51       		.byte	0x51
 9829 2ba5 03       		.uleb128 0x3
 9830 2ba6 91       		.byte	0x91
 9831 2ba7 C47E     		.sleb128 -188
 9832 2ba9 35       		.uleb128 0x35
 9833 2baa 01       		.uleb128 0x1
 9834 2bab 50       		.byte	0x50
 9835 2bac 02       		.uleb128 0x2
 9836 2bad 76       		.byte	0x76
 9837 2bae 00       		.sleb128 0
 9838 2baf 00       		.byte	0
 9839 2bb0 40       		.uleb128 0x40
 9840 2bb1 96000000 		.4byte	.LVL104
 9841 2bb5 C33B0000 		.4byte	0x3bc3
 9842 2bb9 CB2B0000 		.4byte	0x2bcb
 9843 2bbd 35       		.uleb128 0x35
 9844 2bbe 01       		.uleb128 0x1
 9845 2bbf 51       		.byte	0x51
 9846 2bc0 03       		.uleb128 0x3
 9847 2bc1 91       		.byte	0x91
 9848 2bc2 F07E     		.sleb128 -144
 9849 2bc4 35       		.uleb128 0x35
 9850 2bc5 01       		.uleb128 0x1
 9851 2bc6 50       		.byte	0x50
 9852 2bc7 02       		.uleb128 0x2
 9853 2bc8 76       		.byte	0x76
 9854 2bc9 00       		.sleb128 0
 9855 2bca 00       		.byte	0
 9856 2bcb 40       		.uleb128 0x40
 9857 2bcc 9E000000 		.4byte	.LVL105
ARM GAS  /var/folders/7z/kps_xzfj7sn5l5gkyq8s9db00000gn/T//ccvBF34a.s 			page 176


 9858 2bd0 E03B0000 		.4byte	0x3be0
 9859 2bd4 E62B0000 		.4byte	0x2be6
 9860 2bd8 35       		.uleb128 0x35
 9861 2bd9 01       		.uleb128 0x1
 9862 2bda 51       		.byte	0x51
 9863 2bdb 03       		.uleb128 0x3
 9864 2bdc 91       		.byte	0x91
 9865 2bdd F07E     		.sleb128 -144
 9866 2bdf 35       		.uleb128 0x35
 9867 2be0 01       		.uleb128 0x1
 9868 2be1 50       		.byte	0x50
 9869 2be2 02       		.uleb128 0x2
 9870 2be3 76       		.byte	0x76
 9871 2be4 00       		.sleb128 0
 9872 2be5 00       		.byte	0
 9873 2be6 40       		.uleb128 0x40
 9874 2be7 A6000000 		.4byte	.LVL106
 9875 2beb F73B0000 		.4byte	0x3bf7
 9876 2bef 012C0000 		.4byte	0x2c01
 9877 2bf3 35       		.uleb128 0x35
 9878 2bf4 01       		.uleb128 0x1
 9879 2bf5 51       		.byte	0x51
 9880 2bf6 03       		.uleb128 0x3
 9881 2bf7 91       		.byte	0x91
 9882 2bf8 F07E     		.sleb128 -144
 9883 2bfa 35       		.uleb128 0x35
 9884 2bfb 01       		.uleb128 0x1
 9885 2bfc 50       		.byte	0x50
 9886 2bfd 02       		.uleb128 0x2
 9887 2bfe 76       		.byte	0x76
 9888 2bff 00       		.sleb128 0
 9889 2c00 00       		.byte	0
 9890 2c01 40       		.uleb128 0x40
 9891 2c02 AE000000 		.4byte	.LVL107
 9892 2c06 0E3C0000 		.4byte	0x3c0e
 9893 2c0a 1C2C0000 		.4byte	0x2c1c
 9894 2c0e 35       		.uleb128 0x35
 9895 2c0f 01       		.uleb128 0x1
 9896 2c10 51       		.byte	0x51
 9897 2c11 03       		.uleb128 0x3
 9898 2c12 91       		.byte	0x91
 9899 2c13 F07E     		.sleb128 -144
 9900 2c15 35       		.uleb128 0x35
 9901 2c16 01       		.uleb128 0x1
 9902 2c17 50       		.byte	0x50
 9903 2c18 02       		.uleb128 0x2
 9904 2c19 76       		.byte	0x76
 9905 2c1a 00       		.sleb128 0
 9906 2c1b 00       		.byte	0
 9907 2c1c 40       		.uleb128 0x40
 9908 2c1d B6000000 		.4byte	.LVL108
 9909 2c21 253C0000 		.4byte	0x3c25
 9910 2c25 352C0000 		.4byte	0x2c35
 9911 2c29 35       		.uleb128 0x35
 9912 2c2a 01       		.uleb128 0x1
 9913 2c2b 51       		.byte	0x51
 9914 2c2c 01       		.uleb128 0x1
ARM GAS  /var/folders/7z/kps_xzfj7sn5l5gkyq8s9db00000gn/T//ccvBF34a.s 			page 177


 9915 2c2d 38       		.byte	0x38
 9916 2c2e 35       		.uleb128 0x35
 9917 2c2f 01       		.uleb128 0x1
 9918 2c30 50       		.byte	0x50
 9919 2c31 02       		.uleb128 0x2
 9920 2c32 76       		.byte	0x76
 9921 2c33 00       		.sleb128 0
 9922 2c34 00       		.byte	0
 9923 2c35 40       		.uleb128 0x40
 9924 2c36 BE000000 		.4byte	.LVL109
 9925 2c3a 3C3C0000 		.4byte	0x3c3c
 9926 2c3e 4E2C0000 		.4byte	0x2c4e
 9927 2c42 35       		.uleb128 0x35
 9928 2c43 01       		.uleb128 0x1
 9929 2c44 51       		.byte	0x51
 9930 2c45 01       		.uleb128 0x1
 9931 2c46 38       		.byte	0x38
 9932 2c47 35       		.uleb128 0x35
 9933 2c48 01       		.uleb128 0x1
 9934 2c49 50       		.byte	0x50
 9935 2c4a 02       		.uleb128 0x2
 9936 2c4b 76       		.byte	0x76
 9937 2c4c 00       		.sleb128 0
 9938 2c4d 00       		.byte	0
 9939 2c4e 40       		.uleb128 0x40
 9940 2c4f C6000000 		.4byte	.LVL110
 9941 2c53 533C0000 		.4byte	0x3c53
 9942 2c57 672C0000 		.4byte	0x2c67
 9943 2c5b 35       		.uleb128 0x35
 9944 2c5c 01       		.uleb128 0x1
 9945 2c5d 51       		.byte	0x51
 9946 2c5e 01       		.uleb128 0x1
 9947 2c5f 38       		.byte	0x38
 9948 2c60 35       		.uleb128 0x35
 9949 2c61 01       		.uleb128 0x1
 9950 2c62 50       		.byte	0x50
 9951 2c63 02       		.uleb128 0x2
 9952 2c64 76       		.byte	0x76
 9953 2c65 00       		.sleb128 0
 9954 2c66 00       		.byte	0
 9955 2c67 40       		.uleb128 0x40
 9956 2c68 CE000000 		.4byte	.LVL111
 9957 2c6c 6A3C0000 		.4byte	0x3c6a
 9958 2c70 802C0000 		.4byte	0x2c80
 9959 2c74 35       		.uleb128 0x35
 9960 2c75 01       		.uleb128 0x1
 9961 2c76 51       		.byte	0x51
 9962 2c77 01       		.uleb128 0x1
 9963 2c78 38       		.byte	0x38
 9964 2c79 35       		.uleb128 0x35
 9965 2c7a 01       		.uleb128 0x1
 9966 2c7b 50       		.byte	0x50
 9967 2c7c 02       		.uleb128 0x2
 9968 2c7d 76       		.byte	0x76
 9969 2c7e 00       		.sleb128 0
 9970 2c7f 00       		.byte	0
 9971 2c80 40       		.uleb128 0x40
ARM GAS  /var/folders/7z/kps_xzfj7sn5l5gkyq8s9db00000gn/T//ccvBF34a.s 			page 178


 9972 2c81 FC000000 		.4byte	.LVL112
 9973 2c85 813C0000 		.4byte	0x3c81
 9974 2c89 9B2C0000 		.4byte	0x2c9b
 9975 2c8d 35       		.uleb128 0x35
 9976 2c8e 01       		.uleb128 0x1
 9977 2c8f 51       		.byte	0x51
 9978 2c90 03       		.uleb128 0x3
 9979 2c91 91       		.byte	0x91
 9980 2c92 D07E     		.sleb128 -176
 9981 2c94 35       		.uleb128 0x35
 9982 2c95 01       		.uleb128 0x1
 9983 2c96 50       		.byte	0x50
 9984 2c97 02       		.uleb128 0x2
 9985 2c98 76       		.byte	0x76
 9986 2c99 00       		.sleb128 0
 9987 2c9a 00       		.byte	0
 9988 2c9b 40       		.uleb128 0x40
 9989 2c9c 04010000 		.4byte	.LVL113
 9990 2ca0 9E3C0000 		.4byte	0x3c9e
 9991 2ca4 B52C0000 		.4byte	0x2cb5
 9992 2ca8 35       		.uleb128 0x35
 9993 2ca9 01       		.uleb128 0x1
 9994 2caa 51       		.byte	0x51
 9995 2cab 02       		.uleb128 0x2
 9996 2cac 75       		.byte	0x75
 9997 2cad 00       		.sleb128 0
 9998 2cae 35       		.uleb128 0x35
 9999 2caf 01       		.uleb128 0x1
 10000 2cb0 50       		.byte	0x50
 10001 2cb1 02       		.uleb128 0x2
 10002 2cb2 76       		.byte	0x76
 10003 2cb3 00       		.sleb128 0
 10004 2cb4 00       		.byte	0
 10005 2cb5 40       		.uleb128 0x40
 10006 2cb6 0C010000 		.4byte	.LVL114
 10007 2cba B53C0000 		.4byte	0x3cb5
 10008 2cbe CF2C0000 		.4byte	0x2ccf
 10009 2cc2 35       		.uleb128 0x35
 10010 2cc3 01       		.uleb128 0x1
 10011 2cc4 51       		.byte	0x51
 10012 2cc5 02       		.uleb128 0x2
 10013 2cc6 75       		.byte	0x75
 10014 2cc7 00       		.sleb128 0
 10015 2cc8 35       		.uleb128 0x35
 10016 2cc9 01       		.uleb128 0x1
 10017 2cca 50       		.byte	0x50
 10018 2ccb 02       		.uleb128 0x2
 10019 2ccc 76       		.byte	0x76
 10020 2ccd 00       		.sleb128 0
 10021 2cce 00       		.byte	0
 10022 2ccf 40       		.uleb128 0x40
 10023 2cd0 14010000 		.4byte	.LVL115
 10024 2cd4 CC3C0000 		.4byte	0x3ccc
 10025 2cd8 EC2C0000 		.4byte	0x2cec
 10026 2cdc 35       		.uleb128 0x35
 10027 2cdd 01       		.uleb128 0x1
 10028 2cde 51       		.byte	0x51
ARM GAS  /var/folders/7z/kps_xzfj7sn5l5gkyq8s9db00000gn/T//ccvBF34a.s 			page 179


 10029 2cdf 02       		.uleb128 0x2
 10030 2ce0 75       		.byte	0x75
 10031 2ce1 00       		.sleb128 0
 10032 2ce2 35       		.uleb128 0x35
 10033 2ce3 01       		.uleb128 0x1
 10034 2ce4 50       		.byte	0x50
 10035 2ce5 05       		.uleb128 0x5
 10036 2ce6 0C       		.byte	0xc
 10037 2ce7 05004000 		.4byte	0x400005
 10038 2ceb 00       		.byte	0
 10039 2cec 40       		.uleb128 0x40
 10040 2ced 1E010000 		.4byte	.LVL116
 10041 2cf1 8F3B0000 		.4byte	0x3b8f
 10042 2cf5 072D0000 		.4byte	0x2d07
 10043 2cf9 35       		.uleb128 0x35
 10044 2cfa 01       		.uleb128 0x1
 10045 2cfb 51       		.byte	0x51
 10046 2cfc 02       		.uleb128 0x2
 10047 2cfd 75       		.byte	0x75
 10048 2cfe 00       		.sleb128 0
 10049 2cff 35       		.uleb128 0x35
 10050 2d00 01       		.uleb128 0x1
 10051 2d01 50       		.byte	0x50
 10052 2d02 03       		.uleb128 0x3
 10053 2d03 0A       		.byte	0xa
 10054 2d04 0007     		.2byte	0x700
 10055 2d06 00       		.byte	0
 10056 2d07 40       		.uleb128 0x40
 10057 2d08 2A010000 		.4byte	.LVL117
 10058 2d0c E33C0000 		.4byte	0x3ce3
 10059 2d10 292D0000 		.4byte	0x2d29
 10060 2d14 35       		.uleb128 0x35
 10061 2d15 01       		.uleb128 0x1
 10062 2d16 53       		.byte	0x53
 10063 2d17 02       		.uleb128 0x2
 10064 2d18 74       		.byte	0x74
 10065 2d19 00       		.sleb128 0
 10066 2d1a 35       		.uleb128 0x35
 10067 2d1b 01       		.uleb128 0x1
 10068 2d1c 52       		.byte	0x52
 10069 2d1d 05       		.uleb128 0x5
 10070 2d1e 03       		.byte	0x3
 10071 2d1f 00000000 		.4byte	mcpwm_adc_int_handler
 10072 2d23 35       		.uleb128 0x35
 10073 2d24 01       		.uleb128 0x1
 10074 2d25 51       		.byte	0x51
 10075 2d26 01       		.uleb128 0x1
 10076 2d27 33       		.byte	0x33
 10077 2d28 00       		.byte	0
 10078 2d29 40       		.uleb128 0x40
 10079 2d2a 72010000 		.4byte	.LVL118
 10080 2d2e 083D0000 		.4byte	0x3d08
 10081 2d32 472D0000 		.4byte	0x2d47
 10082 2d36 35       		.uleb128 0x35
 10083 2d37 01       		.uleb128 0x1
 10084 2d38 51       		.byte	0x51
 10085 2d39 03       		.uleb128 0x3
ARM GAS  /var/folders/7z/kps_xzfj7sn5l5gkyq8s9db00000gn/T//ccvBF34a.s 			page 180


 10086 2d3a 91       		.byte	0x91
 10087 2d3b 9C7F     		.sleb128 -100
 10088 2d3d 35       		.uleb128 0x35
 10089 2d3e 01       		.uleb128 0x1
 10090 2d3f 50       		.byte	0x50
 10091 2d40 05       		.uleb128 0x5
 10092 2d41 0C       		.byte	0xc
 10093 2d42 70640240 		.4byte	0x40026470
 10094 2d46 00       		.byte	0
 10095 2d47 40       		.uleb128 0x40
 10096 2d48 7A010000 		.4byte	.LVL119
 10097 2d4c 253D0000 		.4byte	0x3d25
 10098 2d50 642D0000 		.4byte	0x2d64
 10099 2d54 35       		.uleb128 0x35
 10100 2d55 01       		.uleb128 0x1
 10101 2d56 51       		.byte	0x51
 10102 2d57 02       		.uleb128 0x2
 10103 2d58 75       		.byte	0x75
 10104 2d59 00       		.sleb128 0
 10105 2d5a 35       		.uleb128 0x35
 10106 2d5b 01       		.uleb128 0x1
 10107 2d5c 50       		.byte	0x50
 10108 2d5d 05       		.uleb128 0x5
 10109 2d5e 0C       		.byte	0xc
 10110 2d5f 70640240 		.4byte	0x40026470
 10111 2d63 00       		.byte	0
 10112 2d64 40       		.uleb128 0x40
 10113 2d65 84010000 		.4byte	.LVL120
 10114 2d69 3C3D0000 		.4byte	0x3d3c
 10115 2d6d 862D0000 		.4byte	0x2d86
 10116 2d71 35       		.uleb128 0x35
 10117 2d72 01       		.uleb128 0x1
 10118 2d73 52       		.byte	0x52
 10119 2d74 02       		.uleb128 0x2
 10120 2d75 75       		.byte	0x75
 10121 2d76 00       		.sleb128 0
 10122 2d77 35       		.uleb128 0x35
 10123 2d78 01       		.uleb128 0x1
 10124 2d79 51       		.byte	0x51
 10125 2d7a 01       		.uleb128 0x1
 10126 2d7b 40       		.byte	0x40
 10127 2d7c 35       		.uleb128 0x35
 10128 2d7d 01       		.uleb128 0x1
 10129 2d7e 50       		.byte	0x50
 10130 2d7f 05       		.uleb128 0x5
 10131 2d80 0C       		.byte	0xc
 10132 2d81 70640240 		.4byte	0x40026470
 10133 2d85 00       		.byte	0
 10134 2d86 40       		.uleb128 0x40
 10135 2d87 98010000 		.4byte	.LVL121
 10136 2d8b 583D0000 		.4byte	0x3d58
 10137 2d8f 9B2D0000 		.4byte	0x2d9b
 10138 2d93 35       		.uleb128 0x35
 10139 2d94 01       		.uleb128 0x1
 10140 2d95 50       		.byte	0x50
 10141 2d96 03       		.uleb128 0x3
 10142 2d97 91       		.byte	0x91
ARM GAS  /var/folders/7z/kps_xzfj7sn5l5gkyq8s9db00000gn/T//ccvBF34a.s 			page 181


 10143 2d98 E07E     		.sleb128 -160
 10144 2d9a 00       		.byte	0
 10145 2d9b 40       		.uleb128 0x40
 10146 2d9c BC010000 		.4byte	.LVL122
 10147 2da0 703D0000 		.4byte	0x3d70
 10148 2da4 B92D0000 		.4byte	0x2db9
 10149 2da8 35       		.uleb128 0x35
 10150 2da9 01       		.uleb128 0x1
 10151 2daa 51       		.byte	0x51
 10152 2dab 03       		.uleb128 0x3
 10153 2dac 91       		.byte	0x91
 10154 2dad 847F     		.sleb128 -124
 10155 2daf 35       		.uleb128 0x35
 10156 2db0 01       		.uleb128 0x1
 10157 2db1 50       		.byte	0x50
 10158 2db2 05       		.uleb128 0x5
 10159 2db3 0C       		.byte	0xc
 10160 2db4 00200140 		.4byte	0x40012000
 10161 2db8 00       		.byte	0
 10162 2db9 40       		.uleb128 0x40
 10163 2dba C8010000 		.4byte	.LVL123
 10164 2dbe 703D0000 		.4byte	0x3d70
 10165 2dc2 D72D0000 		.4byte	0x2dd7
 10166 2dc6 35       		.uleb128 0x35
 10167 2dc7 01       		.uleb128 0x1
 10168 2dc8 51       		.byte	0x51
 10169 2dc9 03       		.uleb128 0x3
 10170 2dca 91       		.byte	0x91
 10171 2dcb 847F     		.sleb128 -124
 10172 2dcd 35       		.uleb128 0x35
 10173 2dce 01       		.uleb128 0x1
 10174 2dcf 50       		.byte	0x50
 10175 2dd0 05       		.uleb128 0x5
 10176 2dd1 0C       		.byte	0xc
 10177 2dd2 00210140 		.4byte	0x40012100
 10178 2dd6 00       		.byte	0
 10179 2dd7 40       		.uleb128 0x40
 10180 2dd8 D0010000 		.4byte	.LVL124
 10181 2ddc 703D0000 		.4byte	0x3d70
 10182 2de0 F52D0000 		.4byte	0x2df5
 10183 2de4 35       		.uleb128 0x35
 10184 2de5 01       		.uleb128 0x1
 10185 2de6 51       		.byte	0x51
 10186 2de7 03       		.uleb128 0x3
 10187 2de8 91       		.byte	0x91
 10188 2de9 847F     		.sleb128 -124
 10189 2deb 35       		.uleb128 0x35
 10190 2dec 01       		.uleb128 0x1
 10191 2ded 50       		.byte	0x50
 10192 2dee 05       		.uleb128 0x5
 10193 2def 0C       		.byte	0xc
 10194 2df0 00220140 		.4byte	0x40012200
 10195 2df4 00       		.byte	0
 10196 2df5 4C       		.uleb128 0x4c
 10197 2df6 D4010000 		.4byte	.LVL125
 10198 2dfa 8D3D0000 		.4byte	0x3d8d
 10199 2dfe 40       		.uleb128 0x40
ARM GAS  /var/folders/7z/kps_xzfj7sn5l5gkyq8s9db00000gn/T//ccvBF34a.s 			page 182


 10200 2dff DA010000 		.4byte	.LVL126
 10201 2e03 943D0000 		.4byte	0x3d94
 10202 2e07 122E0000 		.4byte	0x2e12
 10203 2e0b 35       		.uleb128 0x35
 10204 2e0c 01       		.uleb128 0x1
 10205 2e0d 50       		.byte	0x50
 10206 2e0e 02       		.uleb128 0x2
 10207 2e0f 75       		.byte	0x75
 10208 2e10 00       		.sleb128 0
 10209 2e11 00       		.byte	0
 10210 2e12 40       		.uleb128 0x40
 10211 2e13 E4010000 		.4byte	.LVL127
 10212 2e17 A63D0000 		.4byte	0x3da6
 10213 2e1b 302E0000 		.4byte	0x2e30
 10214 2e1f 35       		.uleb128 0x35
 10215 2e20 01       		.uleb128 0x1
 10216 2e21 51       		.byte	0x51
 10217 2e22 03       		.uleb128 0x3
 10218 2e23 48       		.byte	0x48
 10219 2e24 3F       		.byte	0x3f
 10220 2e25 24       		.byte	0x24
 10221 2e26 35       		.uleb128 0x35
 10222 2e27 01       		.uleb128 0x1
 10223 2e28 50       		.byte	0x50
 10224 2e29 05       		.uleb128 0x5
 10225 2e2a 0C       		.byte	0xc
 10226 2e2b 00200140 		.4byte	0x40012000
 10227 2e2f 00       		.byte	0
 10228 2e30 40       		.uleb128 0x40
 10229 2e31 EE010000 		.4byte	.LVL128
 10230 2e35 A63D0000 		.4byte	0x3da6
 10231 2e39 4E2E0000 		.4byte	0x2e4e
 10232 2e3d 35       		.uleb128 0x35
 10233 2e3e 01       		.uleb128 0x1
 10234 2e3f 51       		.byte	0x51
 10235 2e40 03       		.uleb128 0x3
 10236 2e41 4A       		.byte	0x4a
 10237 2e42 3F       		.byte	0x3f
 10238 2e43 24       		.byte	0x24
 10239 2e44 35       		.uleb128 0x35
 10240 2e45 01       		.uleb128 0x1
 10241 2e46 50       		.byte	0x50
 10242 2e47 05       		.uleb128 0x5
 10243 2e48 0C       		.byte	0xc
 10244 2e49 00210140 		.4byte	0x40012100
 10245 2e4d 00       		.byte	0
 10246 2e4e 40       		.uleb128 0x40
 10247 2e4f F8010000 		.4byte	.LVL129
 10248 2e53 BD3D0000 		.4byte	0x3dbd
 10249 2e57 6C2E0000 		.4byte	0x2e6c
 10250 2e5b 35       		.uleb128 0x35
 10251 2e5c 01       		.uleb128 0x1
 10252 2e5d 51       		.byte	0x51
 10253 2e5e 03       		.uleb128 0x3
 10254 2e5f 40       		.byte	0x40
 10255 2e60 41       		.byte	0x41
 10256 2e61 24       		.byte	0x24
ARM GAS  /var/folders/7z/kps_xzfj7sn5l5gkyq8s9db00000gn/T//ccvBF34a.s 			page 183


 10257 2e62 35       		.uleb128 0x35
 10258 2e63 01       		.uleb128 0x1
 10259 2e64 50       		.byte	0x50
 10260 2e65 05       		.uleb128 0x5
 10261 2e66 0C       		.byte	0xc
 10262 2e67 00200140 		.4byte	0x40012000
 10263 2e6b 00       		.byte	0
 10264 2e6c 40       		.uleb128 0x40
 10265 2e6d 02020000 		.4byte	.LVL130
 10266 2e71 BD3D0000 		.4byte	0x3dbd
 10267 2e75 8A2E0000 		.4byte	0x2e8a
 10268 2e79 35       		.uleb128 0x35
 10269 2e7a 01       		.uleb128 0x1
 10270 2e7b 51       		.byte	0x51
 10271 2e7c 03       		.uleb128 0x3
 10272 2e7d 40       		.byte	0x40
 10273 2e7e 41       		.byte	0x41
 10274 2e7f 24       		.byte	0x24
 10275 2e80 35       		.uleb128 0x35
 10276 2e81 01       		.uleb128 0x1
 10277 2e82 50       		.byte	0x50
 10278 2e83 05       		.uleb128 0x5
 10279 2e84 0C       		.byte	0xc
 10280 2e85 00210140 		.4byte	0x40012100
 10281 2e89 00       		.byte	0
 10282 2e8a 40       		.uleb128 0x40
 10283 2e8b 0A020000 		.4byte	.LVL131
 10284 2e8f D43D0000 		.4byte	0x3dd4
 10285 2e93 A72E0000 		.4byte	0x2ea7
 10286 2e97 35       		.uleb128 0x35
 10287 2e98 01       		.uleb128 0x1
 10288 2e99 51       		.byte	0x51
 10289 2e9a 02       		.uleb128 0x2
 10290 2e9b 75       		.byte	0x75
 10291 2e9c 00       		.sleb128 0
 10292 2e9d 35       		.uleb128 0x35
 10293 2e9e 01       		.uleb128 0x1
 10294 2e9f 50       		.byte	0x50
 10295 2ea0 05       		.uleb128 0x5
 10296 2ea1 0C       		.byte	0xc
 10297 2ea2 00200140 		.4byte	0x40012000
 10298 2ea6 00       		.byte	0
 10299 2ea7 40       		.uleb128 0x40
 10300 2ea8 12020000 		.4byte	.LVL132
 10301 2eac D43D0000 		.4byte	0x3dd4
 10302 2eb0 C42E0000 		.4byte	0x2ec4
 10303 2eb4 35       		.uleb128 0x35
 10304 2eb5 01       		.uleb128 0x1
 10305 2eb6 51       		.byte	0x51
 10306 2eb7 02       		.uleb128 0x2
 10307 2eb8 75       		.byte	0x75
 10308 2eb9 00       		.sleb128 0
 10309 2eba 35       		.uleb128 0x35
 10310 2ebb 01       		.uleb128 0x1
 10311 2ebc 50       		.byte	0x50
 10312 2ebd 05       		.uleb128 0x5
 10313 2ebe 0C       		.byte	0xc
ARM GAS  /var/folders/7z/kps_xzfj7sn5l5gkyq8s9db00000gn/T//ccvBF34a.s 			page 184


 10314 2ebf 00210140 		.4byte	0x40012100
 10315 2ec3 00       		.byte	0
 10316 2ec4 40       		.uleb128 0x40
 10317 2ec5 1E020000 		.4byte	.LVL133
 10318 2ec9 EB3D0000 		.4byte	0x3deb
 10319 2ecd E82E0000 		.4byte	0x2ee8
 10320 2ed1 35       		.uleb128 0x35
 10321 2ed2 01       		.uleb128 0x1
 10322 2ed3 52       		.byte	0x52
 10323 2ed4 02       		.uleb128 0x2
 10324 2ed5 75       		.byte	0x75
 10325 2ed6 00       		.sleb128 0
 10326 2ed7 35       		.uleb128 0x35
 10327 2ed8 01       		.uleb128 0x1
 10328 2ed9 51       		.byte	0x51
 10329 2eda 03       		.uleb128 0x3
 10330 2edb 0A       		.byte	0xa
 10331 2edc 0704     		.2byte	0x407
 10332 2ede 35       		.uleb128 0x35
 10333 2edf 01       		.uleb128 0x1
 10334 2ee0 50       		.byte	0x50
 10335 2ee1 05       		.uleb128 0x5
 10336 2ee2 0C       		.byte	0xc
 10337 2ee3 00200140 		.4byte	0x40012000
 10338 2ee7 00       		.byte	0
 10339 2ee8 40       		.uleb128 0x40
 10340 2ee9 38020000 		.4byte	.LVL134
 10341 2eed 073E0000 		.4byte	0x3e07
 10342 2ef1 FD2E0000 		.4byte	0x2efd
 10343 2ef5 35       		.uleb128 0x35
 10344 2ef6 01       		.uleb128 0x1
 10345 2ef7 50       		.byte	0x50
 10346 2ef8 03       		.uleb128 0x3
 10347 2ef9 91       		.byte	0x91
 10348 2efa C07E     		.sleb128 -192
 10349 2efc 00       		.byte	0
 10350 2efd 40       		.uleb128 0x40
 10351 2efe 40020000 		.4byte	.LVL135
 10352 2f02 1E3E0000 		.4byte	0x3e1e
 10353 2f06 1A2F0000 		.4byte	0x2f1a
 10354 2f0a 35       		.uleb128 0x35
 10355 2f0b 01       		.uleb128 0x1
 10356 2f0c 51       		.byte	0x51
 10357 2f0d 02       		.uleb128 0x2
 10358 2f0e 75       		.byte	0x75
 10359 2f0f 00       		.sleb128 0
 10360 2f10 35       		.uleb128 0x35
 10361 2f11 01       		.uleb128 0x1
 10362 2f12 50       		.byte	0x50
 10363 2f13 05       		.uleb128 0x5
 10364 2f14 0C       		.byte	0xc
 10365 2f15 00200140 		.4byte	0x40012000
 10366 2f19 00       		.byte	0
 10367 2f1a 40       		.uleb128 0x40
 10368 2f1b 48020000 		.4byte	.LVL136
 10369 2f1f 1E3E0000 		.4byte	0x3e1e
 10370 2f23 372F0000 		.4byte	0x2f37
ARM GAS  /var/folders/7z/kps_xzfj7sn5l5gkyq8s9db00000gn/T//ccvBF34a.s 			page 185


 10371 2f27 35       		.uleb128 0x35
 10372 2f28 01       		.uleb128 0x1
 10373 2f29 51       		.byte	0x51
 10374 2f2a 02       		.uleb128 0x2
 10375 2f2b 75       		.byte	0x75
 10376 2f2c 00       		.sleb128 0
 10377 2f2d 35       		.uleb128 0x35
 10378 2f2e 01       		.uleb128 0x1
 10379 2f2f 50       		.byte	0x50
 10380 2f30 05       		.uleb128 0x5
 10381 2f31 0C       		.byte	0xc
 10382 2f32 00210140 		.4byte	0x40012100
 10383 2f36 00       		.byte	0
 10384 2f37 40       		.uleb128 0x40
 10385 2f38 50020000 		.4byte	.LVL137
 10386 2f3c 1E3E0000 		.4byte	0x3e1e
 10387 2f40 542F0000 		.4byte	0x2f54
 10388 2f44 35       		.uleb128 0x35
 10389 2f45 01       		.uleb128 0x1
 10390 2f46 51       		.byte	0x51
 10391 2f47 02       		.uleb128 0x2
 10392 2f48 75       		.byte	0x75
 10393 2f49 00       		.sleb128 0
 10394 2f4a 35       		.uleb128 0x35
 10395 2f4b 01       		.uleb128 0x1
 10396 2f4c 50       		.byte	0x50
 10397 2f4d 05       		.uleb128 0x5
 10398 2f4e 0C       		.byte	0xc
 10399 2f4f 00220140 		.4byte	0x40012200
 10400 2f53 00       		.byte	0
 10401 2f54 40       		.uleb128 0x40
 10402 2f55 58020000 		.4byte	.LVL138
 10403 2f59 8F3B0000 		.4byte	0x3b8f
 10404 2f5d 6D2F0000 		.4byte	0x2f6d
 10405 2f61 35       		.uleb128 0x35
 10406 2f62 01       		.uleb128 0x1
 10407 2f63 51       		.byte	0x51
 10408 2f64 02       		.uleb128 0x2
 10409 2f65 75       		.byte	0x75
 10410 2f66 00       		.sleb128 0
 10411 2f67 35       		.uleb128 0x35
 10412 2f68 01       		.uleb128 0x1
 10413 2f69 50       		.byte	0x50
 10414 2f6a 01       		.uleb128 0x1
 10415 2f6b 32       		.byte	0x32
 10416 2f6c 00       		.byte	0
 10417 2f6d 40       		.uleb128 0x40
 10418 2f6e 7E020000 		.4byte	.LVL139
 10419 2f72 A63B0000 		.4byte	0x3ba6
 10420 2f76 8D2F0000 		.4byte	0x2f8d
 10421 2f7a 35       		.uleb128 0x35
 10422 2f7b 01       		.uleb128 0x1
 10423 2f7c 51       		.byte	0x51
 10424 2f7d 08       		.uleb128 0x8
 10425 2f7e 91       		.byte	0x91
 10426 2f7f 00       		.sleb128 0
 10427 2f80 7A       		.byte	0x7a
ARM GAS  /var/folders/7z/kps_xzfj7sn5l5gkyq8s9db00000gn/T//ccvBF34a.s 			page 186


 10428 2f81 00       		.sleb128 0
 10429 2f82 22       		.byte	0x22
 10430 2f83 08       		.byte	0x8
 10431 2f84 C8       		.byte	0xc8
 10432 2f85 1C       		.byte	0x1c
 10433 2f86 35       		.uleb128 0x35
 10434 2f87 01       		.uleb128 0x1
 10435 2f88 50       		.byte	0x50
 10436 2f89 02       		.uleb128 0x2
 10437 2f8a 77       		.byte	0x77
 10438 2f8b 00       		.sleb128 0
 10439 2f8c 00       		.byte	0
 10440 2f8d 40       		.uleb128 0x40
 10441 2f8e A8020000 		.4byte	.LVL140
 10442 2f92 C33B0000 		.4byte	0x3bc3
 10443 2f96 A82F0000 		.4byte	0x2fa8
 10444 2f9a 35       		.uleb128 0x35
 10445 2f9b 01       		.uleb128 0x1
 10446 2f9c 51       		.byte	0x51
 10447 2f9d 03       		.uleb128 0x3
 10448 2f9e 91       		.byte	0x91
 10449 2f9f F07E     		.sleb128 -144
 10450 2fa1 35       		.uleb128 0x35
 10451 2fa2 01       		.uleb128 0x1
 10452 2fa3 50       		.byte	0x50
 10453 2fa4 02       		.uleb128 0x2
 10454 2fa5 77       		.byte	0x77
 10455 2fa6 00       		.sleb128 0
 10456 2fa7 00       		.byte	0
 10457 2fa8 40       		.uleb128 0x40
 10458 2fa9 B0020000 		.4byte	.LVL141
 10459 2fad 253C0000 		.4byte	0x3c25
 10460 2fb1 C12F0000 		.4byte	0x2fc1
 10461 2fb5 35       		.uleb128 0x35
 10462 2fb6 01       		.uleb128 0x1
 10463 2fb7 51       		.byte	0x51
 10464 2fb8 01       		.uleb128 0x1
 10465 2fb9 38       		.byte	0x38
 10466 2fba 35       		.uleb128 0x35
 10467 2fbb 01       		.uleb128 0x1
 10468 2fbc 50       		.byte	0x50
 10469 2fbd 02       		.uleb128 0x2
 10470 2fbe 77       		.byte	0x77
 10471 2fbf 00       		.sleb128 0
 10472 2fc0 00       		.byte	0
 10473 2fc1 40       		.uleb128 0x40
 10474 2fc2 B8020000 		.4byte	.LVL142
 10475 2fc6 E03B0000 		.4byte	0x3be0
 10476 2fca DC2F0000 		.4byte	0x2fdc
 10477 2fce 35       		.uleb128 0x35
 10478 2fcf 01       		.uleb128 0x1
 10479 2fd0 51       		.byte	0x51
 10480 2fd1 03       		.uleb128 0x3
 10481 2fd2 91       		.byte	0x91
 10482 2fd3 F07E     		.sleb128 -144
 10483 2fd5 35       		.uleb128 0x35
 10484 2fd6 01       		.uleb128 0x1
ARM GAS  /var/folders/7z/kps_xzfj7sn5l5gkyq8s9db00000gn/T//ccvBF34a.s 			page 187


 10485 2fd7 50       		.byte	0x50
 10486 2fd8 02       		.uleb128 0x2
 10487 2fd9 77       		.byte	0x77
 10488 2fda 00       		.sleb128 0
 10489 2fdb 00       		.byte	0
 10490 2fdc 40       		.uleb128 0x40
 10491 2fdd C0020000 		.4byte	.LVL143
 10492 2fe1 3C3C0000 		.4byte	0x3c3c
 10493 2fe5 F52F0000 		.4byte	0x2ff5
 10494 2fe9 35       		.uleb128 0x35
 10495 2fea 01       		.uleb128 0x1
 10496 2feb 51       		.byte	0x51
 10497 2fec 01       		.uleb128 0x1
 10498 2fed 38       		.byte	0x38
 10499 2fee 35       		.uleb128 0x35
 10500 2fef 01       		.uleb128 0x1
 10501 2ff0 50       		.byte	0x50
 10502 2ff1 02       		.uleb128 0x2
 10503 2ff2 77       		.byte	0x77
 10504 2ff3 00       		.sleb128 0
 10505 2ff4 00       		.byte	0
 10506 2ff5 40       		.uleb128 0x40
 10507 2ff6 C8020000 		.4byte	.LVL144
 10508 2ffa F73B0000 		.4byte	0x3bf7
 10509 2ffe 10300000 		.4byte	0x3010
 10510 3002 35       		.uleb128 0x35
 10511 3003 01       		.uleb128 0x1
 10512 3004 51       		.byte	0x51
 10513 3005 03       		.uleb128 0x3
 10514 3006 91       		.byte	0x91
 10515 3007 F07E     		.sleb128 -144
 10516 3009 35       		.uleb128 0x35
 10517 300a 01       		.uleb128 0x1
 10518 300b 50       		.byte	0x50
 10519 300c 02       		.uleb128 0x2
 10520 300d 77       		.byte	0x77
 10521 300e 00       		.sleb128 0
 10522 300f 00       		.byte	0
 10523 3010 40       		.uleb128 0x40
 10524 3011 D0020000 		.4byte	.LVL145
 10525 3015 533C0000 		.4byte	0x3c53
 10526 3019 29300000 		.4byte	0x3029
 10527 301d 35       		.uleb128 0x35
 10528 301e 01       		.uleb128 0x1
 10529 301f 51       		.byte	0x51
 10530 3020 01       		.uleb128 0x1
 10531 3021 38       		.byte	0x38
 10532 3022 35       		.uleb128 0x35
 10533 3023 01       		.uleb128 0x1
 10534 3024 50       		.byte	0x50
 10535 3025 02       		.uleb128 0x2
 10536 3026 77       		.byte	0x77
 10537 3027 00       		.sleb128 0
 10538 3028 00       		.byte	0
 10539 3029 40       		.uleb128 0x40
 10540 302a D8020000 		.4byte	.LVL146
 10541 302e B53C0000 		.4byte	0x3cb5
ARM GAS  /var/folders/7z/kps_xzfj7sn5l5gkyq8s9db00000gn/T//ccvBF34a.s 			page 188


 10542 3032 43300000 		.4byte	0x3043
 10543 3036 35       		.uleb128 0x35
 10544 3037 01       		.uleb128 0x1
 10545 3038 51       		.byte	0x51
 10546 3039 02       		.uleb128 0x2
 10547 303a 75       		.byte	0x75
 10548 303b 00       		.sleb128 0
 10549 303c 35       		.uleb128 0x35
 10550 303d 01       		.uleb128 0x1
 10551 303e 50       		.byte	0x50
 10552 303f 02       		.uleb128 0x2
 10553 3040 77       		.byte	0x77
 10554 3041 00       		.sleb128 0
 10555 3042 00       		.byte	0
 10556 3043 40       		.uleb128 0x40
 10557 3044 E0020000 		.4byte	.LVL147
 10558 3048 9E3C0000 		.4byte	0x3c9e
 10559 304c 5D300000 		.4byte	0x305d
 10560 3050 35       		.uleb128 0x35
 10561 3051 01       		.uleb128 0x1
 10562 3052 51       		.byte	0x51
 10563 3053 02       		.uleb128 0x2
 10564 3054 75       		.byte	0x75
 10565 3055 00       		.sleb128 0
 10566 3056 35       		.uleb128 0x35
 10567 3057 01       		.uleb128 0x1
 10568 3058 50       		.byte	0x50
 10569 3059 02       		.uleb128 0x2
 10570 305a 77       		.byte	0x77
 10571 305b 00       		.sleb128 0
 10572 305c 00       		.byte	0
 10573 305d 40       		.uleb128 0x40
 10574 305e E8020000 		.4byte	.LVL148
 10575 3062 353E0000 		.4byte	0x3e35
 10576 3066 77300000 		.4byte	0x3077
 10577 306a 35       		.uleb128 0x35
 10578 306b 01       		.uleb128 0x1
 10579 306c 51       		.byte	0x51
 10580 306d 02       		.uleb128 0x2
 10581 306e 75       		.byte	0x75
 10582 306f 00       		.sleb128 0
 10583 3070 35       		.uleb128 0x35
 10584 3071 01       		.uleb128 0x1
 10585 3072 50       		.byte	0x50
 10586 3073 02       		.uleb128 0x2
 10587 3074 77       		.byte	0x77
 10588 3075 00       		.sleb128 0
 10589 3076 00       		.byte	0
 10590 3077 40       		.uleb128 0x40
 10591 3078 F0020000 		.4byte	.LVL149
 10592 307c 4C3E0000 		.4byte	0x3e4c
 10593 3080 91300000 		.4byte	0x3091
 10594 3084 35       		.uleb128 0x35
 10595 3085 01       		.uleb128 0x1
 10596 3086 51       		.byte	0x51
 10597 3087 02       		.uleb128 0x2
 10598 3088 08       		.byte	0x8
ARM GAS  /var/folders/7z/kps_xzfj7sn5l5gkyq8s9db00000gn/T//ccvBF34a.s 			page 189


 10599 3089 20       		.byte	0x20
 10600 308a 35       		.uleb128 0x35
 10601 308b 01       		.uleb128 0x1
 10602 308c 50       		.byte	0x50
 10603 308d 02       		.uleb128 0x2
 10604 308e 76       		.byte	0x76
 10605 308f 00       		.sleb128 0
 10606 3090 00       		.byte	0
 10607 3091 40       		.uleb128 0x40
 10608 3092 F8020000 		.4byte	.LVL150
 10609 3096 633E0000 		.4byte	0x3e63
 10610 309a AB300000 		.4byte	0x30ab
 10611 309e 35       		.uleb128 0x35
 10612 309f 01       		.uleb128 0x1
 10613 30a0 51       		.byte	0x51
 10614 30a1 02       		.uleb128 0x2
 10615 30a2 08       		.byte	0x8
 10616 30a3 80       		.byte	0x80
 10617 30a4 35       		.uleb128 0x35
 10618 30a5 01       		.uleb128 0x1
 10619 30a6 50       		.byte	0x50
 10620 30a7 02       		.uleb128 0x2
 10621 30a8 76       		.byte	0x76
 10622 30a9 00       		.sleb128 0
 10623 30aa 00       		.byte	0
 10624 30ab 40       		.uleb128 0x40
 10625 30ac 00030000 		.4byte	.LVL151
 10626 30b0 7A3E0000 		.4byte	0x3e7a
 10627 30b4 C5300000 		.4byte	0x30c5
 10628 30b8 35       		.uleb128 0x35
 10629 30b9 01       		.uleb128 0x1
 10630 30ba 51       		.byte	0x51
 10631 30bb 02       		.uleb128 0x2
 10632 30bc 74       		.byte	0x74
 10633 30bd 00       		.sleb128 0
 10634 30be 35       		.uleb128 0x35
 10635 30bf 01       		.uleb128 0x1
 10636 30c0 50       		.byte	0x50
 10637 30c1 02       		.uleb128 0x2
 10638 30c2 77       		.byte	0x77
 10639 30c3 00       		.sleb128 0
 10640 30c4 00       		.byte	0
 10641 30c5 40       		.uleb128 0x40
 10642 30c6 08030000 		.4byte	.LVL152
 10643 30ca 913E0000 		.4byte	0x3e91
 10644 30ce DF300000 		.4byte	0x30df
 10645 30d2 35       		.uleb128 0x35
 10646 30d3 01       		.uleb128 0x1
 10647 30d4 51       		.byte	0x51
 10648 30d5 02       		.uleb128 0x2
 10649 30d6 79       		.byte	0x79
 10650 30d7 00       		.sleb128 0
 10651 30d8 35       		.uleb128 0x35
 10652 30d9 01       		.uleb128 0x1
 10653 30da 50       		.byte	0x50
 10654 30db 02       		.uleb128 0x2
 10655 30dc 77       		.byte	0x77
ARM GAS  /var/folders/7z/kps_xzfj7sn5l5gkyq8s9db00000gn/T//ccvBF34a.s 			page 190


 10656 30dd 00       		.sleb128 0
 10657 30de 00       		.byte	0
 10658 30df 40       		.uleb128 0x40
 10659 30e0 10030000 		.4byte	.LVL153
 10660 30e4 A83E0000 		.4byte	0x3ea8
 10661 30e8 F9300000 		.4byte	0x30f9
 10662 30ec 35       		.uleb128 0x35
 10663 30ed 01       		.uleb128 0x1
 10664 30ee 51       		.byte	0x51
 10665 30ef 02       		.uleb128 0x2
 10666 30f0 75       		.byte	0x75
 10667 30f1 00       		.sleb128 0
 10668 30f2 35       		.uleb128 0x35
 10669 30f3 01       		.uleb128 0x1
 10670 30f4 50       		.byte	0x50
 10671 30f5 02       		.uleb128 0x2
 10672 30f6 77       		.byte	0x77
 10673 30f7 00       		.sleb128 0
 10674 30f8 00       		.byte	0
 10675 30f9 40       		.uleb128 0x40
 10676 30fa 18030000 		.4byte	.LVL154
 10677 30fe A83E0000 		.4byte	0x3ea8
 10678 3102 13310000 		.4byte	0x3113
 10679 3106 35       		.uleb128 0x35
 10680 3107 01       		.uleb128 0x1
 10681 3108 51       		.byte	0x51
 10682 3109 02       		.uleb128 0x2
 10683 310a 75       		.byte	0x75
 10684 310b 00       		.sleb128 0
 10685 310c 35       		.uleb128 0x35
 10686 310d 01       		.uleb128 0x1
 10687 310e 50       		.byte	0x50
 10688 310f 02       		.uleb128 0x2
 10689 3110 76       		.byte	0x76
 10690 3111 00       		.sleb128 0
 10691 3112 00       		.byte	0
 10692 3113 40       		.uleb128 0x40
 10693 3114 20030000 		.4byte	.LVL155
 10694 3118 353E0000 		.4byte	0x3e35
 10695 311c 2D310000 		.4byte	0x312d
 10696 3120 35       		.uleb128 0x35
 10697 3121 01       		.uleb128 0x1
 10698 3122 51       		.byte	0x51
 10699 3123 02       		.uleb128 0x2
 10700 3124 75       		.byte	0x75
 10701 3125 00       		.sleb128 0
 10702 3126 35       		.uleb128 0x35
 10703 3127 01       		.uleb128 0x1
 10704 3128 50       		.byte	0x50
 10705 3129 02       		.uleb128 0x2
 10706 312a 76       		.byte	0x76
 10707 312b 00       		.sleb128 0
 10708 312c 00       		.byte	0
 10709 312d 40       		.uleb128 0x40
 10710 312e 28030000 		.4byte	.LVL156
 10711 3132 BF3E0000 		.4byte	0x3ebf
 10712 3136 47310000 		.4byte	0x3147
ARM GAS  /var/folders/7z/kps_xzfj7sn5l5gkyq8s9db00000gn/T//ccvBF34a.s 			page 191


 10713 313a 35       		.uleb128 0x35
 10714 313b 01       		.uleb128 0x1
 10715 313c 51       		.byte	0x51
 10716 313d 02       		.uleb128 0x2
 10717 313e 75       		.byte	0x75
 10718 313f 00       		.sleb128 0
 10719 3140 35       		.uleb128 0x35
 10720 3141 01       		.uleb128 0x1
 10721 3142 50       		.byte	0x50
 10722 3143 02       		.uleb128 0x2
 10723 3144 75       		.byte	0x75
 10724 3145 00       		.sleb128 0
 10725 3146 00       		.byte	0
 10726 3147 40       		.uleb128 0x40
 10727 3148 48030000 		.4byte	.LVL157
 10728 314c A63B0000 		.4byte	0x3ba6
 10729 3150 68310000 		.4byte	0x3168
 10730 3154 35       		.uleb128 0x35
 10731 3155 01       		.uleb128 0x1
 10732 3156 51       		.byte	0x51
 10733 3157 08       		.uleb128 0x8
 10734 3158 91       		.byte	0x91
 10735 3159 00       		.sleb128 0
 10736 315a 7A       		.byte	0x7a
 10737 315b 00       		.sleb128 0
 10738 315c 22       		.byte	0x22
 10739 315d 08       		.byte	0x8
 10740 315e C8       		.byte	0xc8
 10741 315f 1C       		.byte	0x1c
 10742 3160 35       		.uleb128 0x35
 10743 3161 01       		.uleb128 0x1
 10744 3162 50       		.byte	0x50
 10745 3163 03       		.uleb128 0x3
 10746 3164 40       		.byte	0x40
 10747 3165 4A       		.byte	0x4a
 10748 3166 24       		.byte	0x24
 10749 3167 00       		.byte	0
 10750 3168 40       		.uleb128 0x40
 10751 3169 52030000 		.4byte	.LVL158
 10752 316d A83E0000 		.4byte	0x3ea8
 10753 3171 83310000 		.4byte	0x3183
 10754 3175 35       		.uleb128 0x35
 10755 3176 01       		.uleb128 0x1
 10756 3177 51       		.byte	0x51
 10757 3178 02       		.uleb128 0x2
 10758 3179 75       		.byte	0x75
 10759 317a 00       		.sleb128 0
 10760 317b 35       		.uleb128 0x35
 10761 317c 01       		.uleb128 0x1
 10762 317d 50       		.byte	0x50
 10763 317e 03       		.uleb128 0x3
 10764 317f 40       		.byte	0x40
 10765 3180 4A       		.byte	0x4a
 10766 3181 24       		.byte	0x24
 10767 3182 00       		.byte	0
 10768 3183 4C       		.uleb128 0x4c
 10769 3184 56030000 		.4byte	.LVL159
ARM GAS  /var/folders/7z/kps_xzfj7sn5l5gkyq8s9db00000gn/T//ccvBF34a.s 			page 192


 10770 3188 2D3B0000 		.4byte	0x3b2d
 10771 318c 4C       		.uleb128 0x4c
 10772 318d D8030000 		.4byte	.LVL160
 10773 3191 343B0000 		.4byte	0x3b34
 10774 3195 40       		.uleb128 0x40
 10775 3196 3E040000 		.4byte	.LVL162
 10776 319a BF3E0000 		.4byte	0x3ebf
 10777 319e AF310000 		.4byte	0x31af
 10778 31a2 35       		.uleb128 0x35
 10779 31a3 01       		.uleb128 0x1
 10780 31a4 51       		.byte	0x51
 10781 31a5 02       		.uleb128 0x2
 10782 31a6 75       		.byte	0x75
 10783 31a7 00       		.sleb128 0
 10784 31a8 35       		.uleb128 0x35
 10785 31a9 01       		.uleb128 0x1
 10786 31aa 50       		.byte	0x50
 10787 31ab 02       		.uleb128 0x2
 10788 31ac 08       		.byte	0x8
 10789 31ad 40       		.byte	0x40
 10790 31ae 00       		.byte	0
 10791 31af 40       		.uleb128 0x40
 10792 31b0 5A040000 		.4byte	.LVL163
 10793 31b4 A63B0000 		.4byte	0x3ba6
 10794 31b8 CD310000 		.4byte	0x31cd
 10795 31bc 35       		.uleb128 0x35
 10796 31bd 01       		.uleb128 0x1
 10797 31be 51       		.byte	0x51
 10798 31bf 03       		.uleb128 0x3
 10799 31c0 91       		.byte	0x91
 10800 31c1 C47E     		.sleb128 -188
 10801 31c3 35       		.uleb128 0x35
 10802 31c4 01       		.uleb128 0x1
 10803 31c5 50       		.byte	0x50
 10804 31c6 05       		.uleb128 0x5
 10805 31c7 0C       		.byte	0xc
 10806 31c8 00180040 		.4byte	0x40001800
 10807 31cc 00       		.byte	0
 10808 31cd 40       		.uleb128 0x40
 10809 31ce 64040000 		.4byte	.LVL164
 10810 31d2 A83E0000 		.4byte	0x3ea8
 10811 31d6 EA310000 		.4byte	0x31ea
 10812 31da 35       		.uleb128 0x35
 10813 31db 01       		.uleb128 0x1
 10814 31dc 51       		.byte	0x51
 10815 31dd 02       		.uleb128 0x2
 10816 31de 75       		.byte	0x75
 10817 31df 00       		.sleb128 0
 10818 31e0 35       		.uleb128 0x35
 10819 31e1 01       		.uleb128 0x1
 10820 31e2 50       		.byte	0x50
 10821 31e3 05       		.uleb128 0x5
 10822 31e4 0C       		.byte	0xc
 10823 31e5 00180040 		.4byte	0x40001800
 10824 31e9 00       		.byte	0
 10825 31ea 40       		.uleb128 0x40
 10826 31eb 74040000 		.4byte	.LVL165
ARM GAS  /var/folders/7z/kps_xzfj7sn5l5gkyq8s9db00000gn/T//ccvBF34a.s 			page 193


 10827 31ef D63E0000 		.4byte	0x3ed6
 10828 31f3 1E320000 		.4byte	0x321e
 10829 31f7 35       		.uleb128 0x35
 10830 31f8 01       		.uleb128 0x1
 10831 31f9 53       		.byte	0x53
 10832 31fa 05       		.uleb128 0x5
 10833 31fb 03       		.byte	0x3
 10834 31fc 00000000 		.4byte	SEQUENCE_thread
 10835 3200 35       		.uleb128 0x35
 10836 3201 01       		.uleb128 0x1
 10837 3202 52       		.byte	0x52
 10838 3203 02       		.uleb128 0x2
 10839 3204 08       		.byte	0x8
 10840 3205 40       		.byte	0x40
 10841 3206 35       		.uleb128 0x35
 10842 3207 01       		.uleb128 0x1
 10843 3208 51       		.byte	0x51
 10844 3209 03       		.uleb128 0x3
 10845 320a 0A       		.byte	0xa
 10846 320b 9809     		.2byte	0x998
 10847 320d 35       		.uleb128 0x35
 10848 320e 01       		.uleb128 0x1
 10849 320f 50       		.byte	0x50
 10850 3210 05       		.uleb128 0x5
 10851 3211 03       		.byte	0x3
 10852 3212 00000000 		.4byte	.LANCHOR39
 10853 3216 35       		.uleb128 0x35
 10854 3217 02       		.uleb128 0x2
 10855 3218 7D       		.byte	0x7d
 10856 3219 00       		.sleb128 0
 10857 321a 02       		.uleb128 0x2
 10858 321b 74       		.byte	0x74
 10859 321c 00       		.sleb128 0
 10860 321d 00       		.byte	0
 10861 321e 40       		.uleb128 0x40
 10862 321f 7E040000 		.4byte	.LVL166
 10863 3223 BF3E0000 		.4byte	0x3ebf
 10864 3227 39320000 		.4byte	0x3239
 10865 322b 35       		.uleb128 0x35
 10866 322c 01       		.uleb128 0x1
 10867 322d 51       		.byte	0x51
 10868 322e 02       		.uleb128 0x2
 10869 322f 75       		.byte	0x75
 10870 3230 00       		.sleb128 0
 10871 3231 35       		.uleb128 0x35
 10872 3232 01       		.uleb128 0x1
 10873 3233 50       		.byte	0x50
 10874 3234 03       		.uleb128 0x3
 10875 3235 0A       		.byte	0xa
 10876 3236 0008     		.2byte	0x800
 10877 3238 00       		.byte	0
 10878 3239 40       		.uleb128 0x40
 10879 323a 84040000 		.4byte	.LVL167
 10880 323e 003F0000 		.4byte	0x3f00
 10881 3242 4D320000 		.4byte	0x324d
 10882 3246 35       		.uleb128 0x35
 10883 3247 01       		.uleb128 0x1
ARM GAS  /var/folders/7z/kps_xzfj7sn5l5gkyq8s9db00000gn/T//ccvBF34a.s 			page 194


 10884 3248 50       		.byte	0x50
 10885 3249 02       		.uleb128 0x2
 10886 324a 74       		.byte	0x74
 10887 324b 00       		.sleb128 0
 10888 324c 00       		.byte	0
 10889 324d 40       		.uleb128 0x40
 10890 324e 8A040000 		.4byte	.LVL168
 10891 3252 113F0000 		.4byte	0x3f11
 10892 3256 61320000 		.4byte	0x3261
 10893 325a 35       		.uleb128 0x35
 10894 325b 01       		.uleb128 0x1
 10895 325c 50       		.byte	0x50
 10896 325d 02       		.uleb128 0x2
 10897 325e 09       		.byte	0x9
 10898 325f FF       		.byte	0xff
 10899 3260 00       		.byte	0
 10900 3261 40       		.uleb128 0x40
 10901 3262 90040000 		.4byte	.LVL169
 10902 3266 223F0000 		.4byte	0x3f22
 10903 326a 75320000 		.4byte	0x3275
 10904 326e 35       		.uleb128 0x35
 10905 326f 01       		.uleb128 0x1
 10906 3270 50       		.byte	0x50
 10907 3271 02       		.uleb128 0x2
 10908 3272 08       		.byte	0x8
 10909 3273 64       		.byte	0x64
 10910 3274 00       		.byte	0
 10911 3275 4C       		.uleb128 0x4c
 10912 3276 A8040000 		.4byte	.LVL170
 10913 327a 1F250000 		.4byte	0x251f
 10914 327e 4C       		.uleb128 0x4c
 10915 327f AC040000 		.4byte	.LVL171
 10916 3283 422A0000 		.4byte	0x2a42
 10917 3287 00       		.byte	0
 10918 3288 09       		.uleb128 0x9
 10919 3289 04       		.byte	0x4
 10920 328a 5E1D0000 		.4byte	0x1d5e
 10921 328e 41       		.uleb128 0x41
 10922 328f E0220000 		.4byte	0x22e0
 10923 3293 00000000 		.4byte	.LFB145
 10924 3297 34000000 		.4byte	.LFE145-.LFB145
 10925 329b 01       		.uleb128 0x1
 10926 329c 9C       		.byte	0x9c
 10927 329d AB320000 		.4byte	0x32ab
 10928 32a1 48       		.uleb128 0x48
 10929 32a2 F1220000 		.4byte	0x22f1
 10930 32a6 26040000 		.4byte	.LLST28
 10931 32aa 00       		.byte	0
 10932 32ab 36       		.uleb128 0x36
 10933 32ac 6F1C0000 		.4byte	.LASF619
 10934 32b0 01       		.byte	0x1
 10935 32b1 9807     		.2byte	0x798
 10936 32b3 00000000 		.4byte	.LFB147
 10937 32b7 70000000 		.4byte	.LFE147-.LFB147
 10938 32bb 01       		.uleb128 0x1
 10939 32bc 9C       		.byte	0x9c
 10940 32bd EC330000 		.4byte	0x33ec
ARM GAS  /var/folders/7z/kps_xzfj7sn5l5gkyq8s9db00000gn/T//ccvBF34a.s 			page 195


 10941 32c1 40       		.uleb128 0x40
 10942 32c2 0E000000 		.4byte	.LVL176
 10943 32c6 333F0000 		.4byte	0x3f33
 10944 32ca E0320000 		.4byte	0x32e0
 10945 32ce 35       		.uleb128 0x35
 10946 32cf 01       		.uleb128 0x1
 10947 32d0 52       		.byte	0x52
 10948 32d1 02       		.uleb128 0x2
 10949 32d2 08       		.byte	0x8
 10950 32d3 40       		.byte	0x40
 10951 32d4 35       		.uleb128 0x35
 10952 32d5 01       		.uleb128 0x1
 10953 32d6 51       		.byte	0x51
 10954 32d7 01       		.uleb128 0x1
 10955 32d8 30       		.byte	0x30
 10956 32d9 35       		.uleb128 0x35
 10957 32da 01       		.uleb128 0x1
 10958 32db 50       		.byte	0x50
 10959 32dc 02       		.uleb128 0x2
 10960 32dd 74       		.byte	0x74
 10961 32de 00       		.sleb128 0
 10962 32df 00       		.byte	0
 10963 32e0 40       		.uleb128 0x40
 10964 32e1 18000000 		.4byte	.LVL177
 10965 32e5 4F3F0000 		.4byte	0x3f4f
 10966 32e9 FE320000 		.4byte	0x32fe
 10967 32ed 35       		.uleb128 0x35
 10968 32ee 01       		.uleb128 0x1
 10969 32ef 52       		.byte	0x52
 10970 32f0 01       		.uleb128 0x1
 10971 32f1 31       		.byte	0x31
 10972 32f2 35       		.uleb128 0x35
 10973 32f3 01       		.uleb128 0x1
 10974 32f4 51       		.byte	0x51
 10975 32f5 01       		.uleb128 0x1
 10976 32f6 30       		.byte	0x30
 10977 32f7 35       		.uleb128 0x35
 10978 32f8 01       		.uleb128 0x1
 10979 32f9 50       		.byte	0x50
 10980 32fa 02       		.uleb128 0x2
 10981 32fb 74       		.byte	0x74
 10982 32fc 00       		.sleb128 0
 10983 32fd 00       		.byte	0
 10984 32fe 40       		.uleb128 0x40
 10985 32ff 22000000 		.4byte	.LVL178
 10986 3303 6B3F0000 		.4byte	0x3f6b
 10987 3307 1C330000 		.4byte	0x331c
 10988 330b 35       		.uleb128 0x35
 10989 330c 01       		.uleb128 0x1
 10990 330d 52       		.byte	0x52
 10991 330e 01       		.uleb128 0x1
 10992 330f 30       		.byte	0x30
 10993 3310 35       		.uleb128 0x35
 10994 3311 01       		.uleb128 0x1
 10995 3312 51       		.byte	0x51
 10996 3313 01       		.uleb128 0x1
 10997 3314 30       		.byte	0x30
ARM GAS  /var/folders/7z/kps_xzfj7sn5l5gkyq8s9db00000gn/T//ccvBF34a.s 			page 196


 10998 3315 35       		.uleb128 0x35
 10999 3316 01       		.uleb128 0x1
 11000 3317 50       		.byte	0x50
 11001 3318 02       		.uleb128 0x2
 11002 3319 74       		.byte	0x74
 11003 331a 00       		.sleb128 0
 11004 331b 00       		.byte	0
 11005 331c 40       		.uleb128 0x40
 11006 331d 2C000000 		.4byte	.LVL179
 11007 3321 333F0000 		.4byte	0x3f33
 11008 3325 3B330000 		.4byte	0x333b
 11009 3329 35       		.uleb128 0x35
 11010 332a 01       		.uleb128 0x1
 11011 332b 52       		.byte	0x52
 11012 332c 02       		.uleb128 0x2
 11013 332d 08       		.byte	0x8
 11014 332e 40       		.byte	0x40
 11015 332f 35       		.uleb128 0x35
 11016 3330 01       		.uleb128 0x1
 11017 3331 51       		.byte	0x51
 11018 3332 01       		.uleb128 0x1
 11019 3333 34       		.byte	0x34
 11020 3334 35       		.uleb128 0x35
 11021 3335 01       		.uleb128 0x1
 11022 3336 50       		.byte	0x50
 11023 3337 02       		.uleb128 0x2
 11024 3338 74       		.byte	0x74
 11025 3339 00       		.sleb128 0
 11026 333a 00       		.byte	0
 11027 333b 40       		.uleb128 0x40
 11028 333c 36000000 		.4byte	.LVL180
 11029 3340 4F3F0000 		.4byte	0x3f4f
 11030 3344 59330000 		.4byte	0x3359
 11031 3348 35       		.uleb128 0x35
 11032 3349 01       		.uleb128 0x1
 11033 334a 52       		.byte	0x52
 11034 334b 01       		.uleb128 0x1
 11035 334c 31       		.byte	0x31
 11036 334d 35       		.uleb128 0x35
 11037 334e 01       		.uleb128 0x1
 11038 334f 51       		.byte	0x51
 11039 3350 01       		.uleb128 0x1
 11040 3351 34       		.byte	0x34
 11041 3352 35       		.uleb128 0x35
 11042 3353 01       		.uleb128 0x1
 11043 3354 50       		.byte	0x50
 11044 3355 02       		.uleb128 0x2
 11045 3356 74       		.byte	0x74
 11046 3357 00       		.sleb128 0
 11047 3358 00       		.byte	0
 11048 3359 40       		.uleb128 0x40
 11049 335a 40000000 		.4byte	.LVL181
 11050 335e 6B3F0000 		.4byte	0x3f6b
 11051 3362 77330000 		.4byte	0x3377
 11052 3366 35       		.uleb128 0x35
 11053 3367 01       		.uleb128 0x1
 11054 3368 52       		.byte	0x52
ARM GAS  /var/folders/7z/kps_xzfj7sn5l5gkyq8s9db00000gn/T//ccvBF34a.s 			page 197


 11055 3369 01       		.uleb128 0x1
 11056 336a 30       		.byte	0x30
 11057 336b 35       		.uleb128 0x35
 11058 336c 01       		.uleb128 0x1
 11059 336d 51       		.byte	0x51
 11060 336e 01       		.uleb128 0x1
 11061 336f 34       		.byte	0x34
 11062 3370 35       		.uleb128 0x35
 11063 3371 01       		.uleb128 0x1
 11064 3372 50       		.byte	0x50
 11065 3373 02       		.uleb128 0x2
 11066 3374 74       		.byte	0x74
 11067 3375 00       		.sleb128 0
 11068 3376 00       		.byte	0
 11069 3377 40       		.uleb128 0x40
 11070 3378 4A000000 		.4byte	.LVL182
 11071 337c 333F0000 		.4byte	0x3f33
 11072 3380 96330000 		.4byte	0x3396
 11073 3384 35       		.uleb128 0x35
 11074 3385 01       		.uleb128 0x1
 11075 3386 52       		.byte	0x52
 11076 3387 02       		.uleb128 0x2
 11077 3388 08       		.byte	0x8
 11078 3389 40       		.byte	0x40
 11079 338a 35       		.uleb128 0x35
 11080 338b 01       		.uleb128 0x1
 11081 338c 51       		.byte	0x51
 11082 338d 01       		.uleb128 0x1
 11083 338e 38       		.byte	0x38
 11084 338f 35       		.uleb128 0x35
 11085 3390 01       		.uleb128 0x1
 11086 3391 50       		.byte	0x50
 11087 3392 02       		.uleb128 0x2
 11088 3393 74       		.byte	0x74
 11089 3394 00       		.sleb128 0
 11090 3395 00       		.byte	0
 11091 3396 40       		.uleb128 0x40
 11092 3397 54000000 		.4byte	.LVL183
 11093 339b 4F3F0000 		.4byte	0x3f4f
 11094 339f B4330000 		.4byte	0x33b4
 11095 33a3 35       		.uleb128 0x35
 11096 33a4 01       		.uleb128 0x1
 11097 33a5 52       		.byte	0x52
 11098 33a6 01       		.uleb128 0x1
 11099 33a7 31       		.byte	0x31
 11100 33a8 35       		.uleb128 0x35
 11101 33a9 01       		.uleb128 0x1
 11102 33aa 51       		.byte	0x51
 11103 33ab 01       		.uleb128 0x1
 11104 33ac 38       		.byte	0x38
 11105 33ad 35       		.uleb128 0x35
 11106 33ae 01       		.uleb128 0x1
 11107 33af 50       		.byte	0x50
 11108 33b0 02       		.uleb128 0x2
 11109 33b1 74       		.byte	0x74
 11110 33b2 00       		.sleb128 0
 11111 33b3 00       		.byte	0
ARM GAS  /var/folders/7z/kps_xzfj7sn5l5gkyq8s9db00000gn/T//ccvBF34a.s 			page 198


 11112 33b4 40       		.uleb128 0x40
 11113 33b5 5E000000 		.4byte	.LVL184
 11114 33b9 6B3F0000 		.4byte	0x3f6b
 11115 33bd D2330000 		.4byte	0x33d2
 11116 33c1 35       		.uleb128 0x35
 11117 33c2 01       		.uleb128 0x1
 11118 33c3 52       		.byte	0x52
 11119 33c4 01       		.uleb128 0x1
 11120 33c5 30       		.byte	0x30
 11121 33c6 35       		.uleb128 0x35
 11122 33c7 01       		.uleb128 0x1
 11123 33c8 51       		.byte	0x51
 11124 33c9 01       		.uleb128 0x1
 11125 33ca 38       		.byte	0x38
 11126 33cb 35       		.uleb128 0x35
 11127 33cc 01       		.uleb128 0x1
 11128 33cd 50       		.byte	0x50
 11129 33ce 02       		.uleb128 0x2
 11130 33cf 74       		.byte	0x74
 11131 33d0 00       		.sleb128 0
 11132 33d1 00       		.byte	0
 11133 33d2 39       		.uleb128 0x39
 11134 33d3 6A000000 		.4byte	.LVL185
 11135 33d7 873F0000 		.4byte	0x3f87
 11136 33db 35       		.uleb128 0x35
 11137 33dc 01       		.uleb128 0x1
 11138 33dd 51       		.byte	0x51
 11139 33de 02       		.uleb128 0x2
 11140 33df 08       		.byte	0x8
 11141 33e0 20       		.byte	0x20
 11142 33e1 35       		.uleb128 0x35
 11143 33e2 01       		.uleb128 0x1
 11144 33e3 50       		.byte	0x50
 11145 33e4 05       		.uleb128 0x5
 11146 33e5 0C       		.byte	0xc
 11147 33e6 00000140 		.4byte	0x40010000
 11148 33ea 00       		.byte	0
 11149 33eb 00       		.byte	0
 11150 33ec 55       		.uleb128 0x55
 11151 33ed 6A140000 		.4byte	.LASF620
 11152 33f1 01       		.byte	0x1
 11153 33f2 B207     		.2byte	0x7b2
 11154 33f4 25000000 		.4byte	0x25
 11155 33f8 00000000 		.4byte	.LFB148
 11156 33fc 24000000 		.4byte	.LFE148-.LFB148
 11157 3400 01       		.uleb128 0x1
 11158 3401 9C       		.byte	0x9c
 11159 3402 55       		.uleb128 0x55
 11160 3403 7F0E0000 		.4byte	.LASF621
 11161 3407 01       		.byte	0x1
 11162 3408 CE07     		.2byte	0x7ce
 11163 340a 25000000 		.4byte	0x25
 11164 340e 00000000 		.4byte	.LFB150
 11165 3412 24000000 		.4byte	.LFE150-.LFB150
 11166 3416 01       		.uleb128 0x1
 11167 3417 9C       		.byte	0x9c
 11168 3418 55       		.uleb128 0x55
ARM GAS  /var/folders/7z/kps_xzfj7sn5l5gkyq8s9db00000gn/T//ccvBF34a.s 			page 199


 11169 3419 17090000 		.4byte	.LASF622
 11170 341d 01       		.byte	0x1
 11171 341e D207     		.2byte	0x7d2
 11172 3420 F2190000 		.4byte	0x19f2
 11173 3424 00000000 		.4byte	.LFB151
 11174 3428 04000000 		.4byte	.LFE151-.LFB151
 11175 342c 01       		.uleb128 0x1
 11176 342d 9C       		.byte	0x9c
 11177 342e 55       		.uleb128 0x55
 11178 342f 5C160000 		.4byte	.LASF623
 11179 3433 01       		.byte	0x1
 11180 3434 D607     		.2byte	0x7d6
 11181 3436 961A0000 		.4byte	0x1a96
 11182 343a 00000000 		.4byte	.LFB152
 11183 343e 0C000000 		.4byte	.LFE152-.LFB152
 11184 3442 01       		.uleb128 0x1
 11185 3443 9C       		.byte	0x9c
 11186 3444 3E       		.uleb128 0x3e
 11187 3445 DE110000 		.4byte	.LASF624
 11188 3449 01       		.byte	0x1
 11189 344a DA07     		.2byte	0x7da
 11190 344c 33050000 		.4byte	0x533
 11191 3450 00000000 		.4byte	.LFB153
 11192 3454 18000000 		.4byte	.LFE153-.LFB153
 11193 3458 01       		.uleb128 0x1
 11194 3459 9C       		.byte	0x9c
 11195 345a 6F340000 		.4byte	0x346f
 11196 345e 37       		.uleb128 0x37
 11197 345f 721A0000 		.4byte	.LASF625
 11198 3463 01       		.byte	0x1
 11199 3464 DA07     		.2byte	0x7da
 11200 3466 961A0000 		.4byte	0x1a96
 11201 346a 66040000 		.4byte	.LLST29
 11202 346e 00       		.byte	0
 11203 346f 3E       		.uleb128 0x3e
 11204 3470 730D0000 		.4byte	.LASF626
 11205 3474 01       		.byte	0x1
 11206 3475 E607     		.2byte	0x7e6
 11207 3477 FE1A0000 		.4byte	0x1afe
 11208 347b 00000000 		.4byte	.LFB154
 11209 347f 02000000 		.4byte	.LFE154-.LFB154
 11210 3483 01       		.uleb128 0x1
 11211 3484 9C       		.byte	0x9c
 11212 3485 99340000 		.4byte	0x3499
 11213 3489 54       		.uleb128 0x54
 11214 348a FD080000 		.4byte	.LASF627
 11215 348e 01       		.byte	0x1
 11216 348f E707     		.2byte	0x7e7
 11217 3491 FE1A0000 		.4byte	0x1afe
 11218 3495 02       		.uleb128 0x2
 11219 3496 70       		.byte	0x70
 11220 3497 00       		.sleb128 0
 11221 3498 00       		.byte	0
 11222 3499 55       		.uleb128 0x55
 11223 349a 1C100000 		.4byte	.LASF628
 11224 349e 01       		.byte	0x1
 11225 349f ED07     		.2byte	0x7ed
ARM GAS  /var/folders/7z/kps_xzfj7sn5l5gkyq8s9db00000gn/T//ccvBF34a.s 			page 200


 11226 34a1 AF340000 		.4byte	0x34af
 11227 34a5 00000000 		.4byte	.LFB155
 11228 34a9 08000000 		.4byte	.LFE155-.LFB155
 11229 34ad 01       		.uleb128 0x1
 11230 34ae 9C       		.byte	0x9c
 11231 34af 09       		.uleb128 0x9
 11232 34b0 04       		.byte	0x4
 11233 34b1 B5340000 		.4byte	0x34b5
 11234 34b5 10       		.uleb128 0x10
 11235 34b6 BA340000 		.4byte	0x34ba
 11236 34ba 0D       		.uleb128 0xd
 11237 34bb 5E1D0000 		.4byte	0x1d5e
 11238 34bf 36       		.uleb128 0x36
 11239 34c0 09020000 		.4byte	.LASF629
 11240 34c4 01       		.byte	0x1
 11241 34c5 F007     		.2byte	0x7f0
 11242 34c7 00000000 		.4byte	.LFB156
 11243 34cb 02000000 		.4byte	.LFE156-.LFB156
 11244 34cf 01       		.uleb128 0x1
 11245 34d0 9C       		.byte	0x9c
 11246 34d1 E4340000 		.4byte	0x34e4
 11247 34d5 42       		.uleb128 0x42
 11248 34d6 781A0000 		.4byte	.LASF610
 11249 34da 01       		.byte	0x1
 11250 34db F007     		.2byte	0x7f0
 11251 34dd 88320000 		.4byte	0x3288
 11252 34e1 01       		.uleb128 0x1
 11253 34e2 50       		.byte	0x50
 11254 34e3 00       		.byte	0
 11255 34e4 56       		.uleb128 0x56
 11256 34e5 491B0000 		.4byte	.LASF630
 11257 34e9 01       		.byte	0x1
 11258 34ea B9       		.byte	0xb9
 11259 34eb F5340000 		.4byte	0x34f5
 11260 34ef 05       		.uleb128 0x5
 11261 34f0 03       		.byte	0x3
 11262 34f1 00000000 		.4byte	fault_now
 11263 34f5 0D       		.uleb128 0xd
 11264 34f6 961A0000 		.4byte	0x1a96
 11265 34fa 56       		.uleb128 0x56
 11266 34fb 27020000 		.4byte	.LASF631
 11267 34ff 01       		.byte	0x1
 11268 3500 BA       		.byte	0xba
 11269 3501 0B350000 		.4byte	0x350b
 11270 3505 05       		.uleb128 0x5
 11271 3506 03       		.byte	0x3
 11272 3507 00000000 		.4byte	dccal_done
 11273 350b 0D       		.uleb128 0xd
 11274 350c 0C010000 		.4byte	0x10c
 11275 3510 56       		.uleb128 0x56
 11276 3511 CD160000 		.4byte	.LASF632
 11277 3515 01       		.byte	0x1
 11278 3516 CF       		.byte	0xcf
 11279 3517 21350000 		.4byte	0x3521
 11280 351b 05       		.uleb128 0x5
 11281 351c 03       		.byte	0x3
 11282 351d 00000000 		.4byte	MeasCurrParm
ARM GAS  /var/folders/7z/kps_xzfj7sn5l5gkyq8s9db00000gn/T//ccvBF34a.s 			page 201


 11283 3521 0D       		.uleb128 0xd
 11284 3522 5F1E0000 		.4byte	0x1e5f
 11285 3526 56       		.uleb128 0x56
 11286 3527 94220000 		.4byte	.LASF633
 11287 352b 01       		.byte	0x1
 11288 352c F4       		.byte	0xf4
 11289 352d 37350000 		.4byte	0x3537
 11290 3531 05       		.uleb128 0x5
 11291 3532 03       		.byte	0x3
 11292 3533 00000000 		.4byte	qVdSquared
 11293 3537 0D       		.uleb128 0xd
 11294 3538 25000000 		.4byte	0x25
 11295 353c 56       		.uleb128 0x56
 11296 353d 8F210000 		.4byte	.LASF634
 11297 3541 01       		.byte	0x1
 11298 3542 F8       		.byte	0xf8
 11299 3543 37350000 		.4byte	0x3537
 11300 3547 05       		.uleb128 0x5
 11301 3548 03       		.byte	0x3
 11302 3549 00000000 		.4byte	DCbus
 11303 354d 56       		.uleb128 0x56
 11304 354e F3200000 		.4byte	.LASF635
 11305 3552 01       		.byte	0x1
 11306 3553 FD       		.byte	0xfd
 11307 3554 37350000 		.4byte	0x3537
 11308 3558 05       		.uleb128 0x5
 11309 3559 03       		.byte	0x3
 11310 355a 00000000 		.4byte	TargetDCbus
 11311 355e 54       		.uleb128 0x54
 11312 355f D7190000 		.4byte	.LASF636
 11313 3563 01       		.byte	0x1
 11314 3564 0101     		.2byte	0x101
 11315 3566 37350000 		.4byte	0x3537
 11316 356a 05       		.uleb128 0x5
 11317 356b 03       		.byte	0x3
 11318 356c 00000000 		.4byte	Theta_error
 11319 3570 1B       		.uleb128 0x1b
 11320 3571 D2020000 		.4byte	0x2d2
 11321 3575 81350000 		.4byte	0x3581
 11322 3579 1D       		.uleb128 0x1d
 11323 357a 54040000 		.4byte	0x454
 11324 357e 3201     		.2byte	0x132
 11325 3580 00       		.byte	0
 11326 3581 54       		.uleb128 0x54
 11327 3582 06150000 		.4byte	.LASF637
 11328 3586 01       		.byte	0x1
 11329 3587 1901     		.2byte	0x119
 11330 3589 70350000 		.4byte	0x3570
 11331 358d 05       		.uleb128 0x5
 11332 358e 03       		.byte	0x3
 11333 358f 00000000 		.4byte	SEQUENCE_thread_wa
 11334 3593 54       		.uleb128 0x54
 11335 3594 6F110000 		.4byte	.LASF638
 11336 3598 01       		.byte	0x1
 11337 3599 4102     		.2byte	0x241
 11338 359b A5350000 		.4byte	0x35a5
 11339 359f 05       		.uleb128 0x5
ARM GAS  /var/folders/7z/kps_xzfj7sn5l5gkyq8s9db00000gn/T//ccvBF34a.s 			page 202


 11340 35a0 03       		.byte	0x3
 11341 35a1 00000000 		.4byte	curr0_sum
 11342 35a5 0D       		.uleb128 0xd
 11343 35a6 2C000000 		.4byte	0x2c
 11344 35aa 54       		.uleb128 0x54
 11345 35ab 411D0000 		.4byte	.LASF639
 11346 35af 01       		.byte	0x1
 11347 35b0 4202     		.2byte	0x242
 11348 35b2 A5350000 		.4byte	0x35a5
 11349 35b6 05       		.uleb128 0x5
 11350 35b7 03       		.byte	0x3
 11351 35b8 00000000 		.4byte	curr1_sum
 11352 35bc 54       		.uleb128 0x54
 11353 35bd BE190000 		.4byte	.LASF640
 11354 35c1 01       		.byte	0x1
 11355 35c2 4302     		.2byte	0x243
 11356 35c4 A5350000 		.4byte	0x35a5
 11357 35c8 05       		.uleb128 0x5
 11358 35c9 03       		.byte	0x3
 11359 35ca 00000000 		.4byte	curr_start_samples
 11360 35ce 54       		.uleb128 0x54
 11361 35cf 0B110000 		.4byte	.LASF641
 11362 35d3 01       		.byte	0x1
 11363 35d4 4402     		.2byte	0x244
 11364 35d6 A5350000 		.4byte	0x35a5
 11365 35da 05       		.uleb128 0x5
 11366 35db 03       		.byte	0x3
 11367 35dc 00000000 		.4byte	curr0_offset
 11368 35e0 54       		.uleb128 0x54
 11369 35e1 F5150000 		.4byte	.LASF642
 11370 35e5 01       		.byte	0x1
 11371 35e6 4502     		.2byte	0x245
 11372 35e8 A5350000 		.4byte	0x35a5
 11373 35ec 05       		.uleb128 0x5
 11374 35ed 03       		.byte	0x3
 11375 35ee 00000000 		.4byte	curr1_offset
 11376 35f2 54       		.uleb128 0x54
 11377 35f3 6C000000 		.4byte	.LASF533
 11378 35f7 01       		.byte	0x1
 11379 35f8 1B06     		.2byte	0x61b
 11380 35fa 37350000 		.4byte	0x3537
 11381 35fe 05       		.uleb128 0x5
 11382 35ff 03       		.byte	0x3
 11383 3600 00000000 		.4byte	Theta
 11384 3604 54       		.uleb128 0x54
 11385 3605 87170000 		.4byte	.LASF643
 11386 3609 01       		.byte	0x1
 11387 360a 1C06     		.2byte	0x61c
 11388 360c 37350000 		.4byte	0x3537
 11389 3610 05       		.uleb128 0x5
 11390 3611 03       		.byte	0x3
 11391 3612 00000000 		.4byte	ThetaCal
 11392 3616 54       		.uleb128 0x54
 11393 3617 7D0A0000 		.4byte	.LASF644
 11394 361b 01       		.byte	0x1
 11395 361c 1E06     		.2byte	0x61e
 11396 361e 37350000 		.4byte	0x3537
ARM GAS  /var/folders/7z/kps_xzfj7sn5l5gkyq8s9db00000gn/T//ccvBF34a.s 			page 203


 11397 3622 05       		.uleb128 0x5
 11398 3623 03       		.byte	0x3
 11399 3624 00000000 		.4byte	Futi
 11400 3628 54       		.uleb128 0x54
 11401 3629 A8180000 		.4byte	.LASF645
 11402 362d 01       		.byte	0x1
 11403 362e 2806     		.2byte	0x628
 11404 3630 37350000 		.4byte	0x3537
 11405 3634 05       		.uleb128 0x5
 11406 3635 03       		.byte	0x3
 11407 3636 00000000 		.4byte	Hall_KA
 11408 363a 54       		.uleb128 0x54
 11409 363b 541A0000 		.4byte	.LASF646
 11410 363f 01       		.byte	0x1
 11411 3640 2906     		.2byte	0x629
 11412 3642 37350000 		.4byte	0x3537
 11413 3646 05       		.uleb128 0x5
 11414 3647 03       		.byte	0x3
 11415 3648 00000000 		.4byte	Hall_KB
 11416 364c 54       		.uleb128 0x54
 11417 364d 54050000 		.4byte	.LASF647
 11418 3651 01       		.byte	0x1
 11419 3652 2B06     		.2byte	0x62b
 11420 3654 37350000 		.4byte	0x3537
 11421 3658 05       		.uleb128 0x5
 11422 3659 03       		.byte	0x3
 11423 365a 00000000 		.4byte	Hall_PIout
 11424 365e 54       		.uleb128 0x54
 11425 365f C7000000 		.4byte	.LASF648
 11426 3663 01       		.byte	0x1
 11427 3664 2C06     		.2byte	0x62c
 11428 3666 37350000 		.4byte	0x3537
 11429 366a 05       		.uleb128 0x5
 11430 366b 03       		.byte	0x3
 11431 366c 00000000 		.4byte	Hall_Err0
 11432 3670 54       		.uleb128 0x54
 11433 3671 CC0B0000 		.4byte	.LASF649
 11434 3675 01       		.byte	0x1
 11435 3676 B107     		.2byte	0x7b1
 11436 3678 37350000 		.4byte	0x3537
 11437 367c 05       		.uleb128 0x5
 11438 367d 03       		.byte	0x3
 11439 367e 00000000 		.4byte	last_current_sample
 11440 3682 54       		.uleb128 0x54
 11441 3683 DF170000 		.4byte	.LASF650
 11442 3687 01       		.byte	0x1
 11443 3688 BE07     		.2byte	0x7be
 11444 368a 37350000 		.4byte	0x3537
 11445 368e 05       		.uleb128 0x5
 11446 368f 03       		.byte	0x3
 11447 3690 00000000 		.4byte	last_current_sample_filtered
 11448 3694 54       		.uleb128 0x54
 11449 3695 0C140000 		.4byte	.LASF651
 11450 3699 01       		.byte	0x1
 11451 369a CC07     		.2byte	0x7cc
 11452 369c 37350000 		.4byte	0x3537
 11453 36a0 05       		.uleb128 0x5
ARM GAS  /var/folders/7z/kps_xzfj7sn5l5gkyq8s9db00000gn/T//ccvBF34a.s 			page 204


 11454 36a1 03       		.byte	0x3
 11455 36a2 00000000 		.4byte	rpm_now
 11456 36a6 54       		.uleb128 0x54
 11457 36a7 A3090000 		.4byte	.LASF652
 11458 36ab 01       		.byte	0x1
 11459 36ac CD07     		.2byte	0x7cd
 11460 36ae A5350000 		.4byte	0x35a5
 11461 36b2 05       		.uleb128 0x5
 11462 36b3 03       		.byte	0x3
 11463 36b4 00000000 		.4byte	direction
 11464 36b8 54       		.uleb128 0x54
 11465 36b9 36180000 		.4byte	.LASF653
 11466 36bd 01       		.byte	0x1
 11467 36be EC07     		.2byte	0x7ec
 11468 36c0 BA340000 		.4byte	0x34ba
 11469 36c4 05       		.uleb128 0x5
 11470 36c5 03       		.byte	0x3
 11471 36c6 00000000 		.4byte	conf
 11472 36ca 57       		.uleb128 0x57
 11473 36cb B3140000 		.4byte	.LASF654
 11474 36cf 0A       		.byte	0xa
 11475 36d0 6F       		.byte	0x6f
 11476 36d1 B1040000 		.4byte	0x4b1
 11477 36d5 58       		.uleb128 0x58
 11478 36d6 8C1F0000 		.4byte	.LASF655
 11479 36da 02       		.byte	0x2
 11480 36db 9806     		.2byte	0x698
 11481 36dd D2090000 		.4byte	0x9d2
 11482 36e1 1B       		.uleb128 0x1b
 11483 36e2 CE100000 		.4byte	0x10ce
 11484 36e6 F1360000 		.4byte	0x36f1
 11485 36ea 1C       		.uleb128 0x1c
 11486 36eb 54040000 		.4byte	0x454
 11487 36ef 0F       		.byte	0xf
 11488 36f0 00       		.byte	0
 11489 36f1 58       		.uleb128 0x58
 11490 36f2 EA1A0000 		.4byte	.LASF656
 11491 36f6 11       		.byte	0x11
 11492 36f7 BB01     		.2byte	0x1bb
 11493 36f9 FD360000 		.4byte	0x36fd
 11494 36fd 10       		.uleb128 0x10
 11495 36fe E1360000 		.4byte	0x36e1
 11496 3702 1B       		.uleb128 0x1b
 11497 3703 D5000000 		.4byte	0xd5
 11498 3707 12370000 		.4byte	0x3712
 11499 370b 1C       		.uleb128 0x1c
 11500 370c 54040000 		.4byte	0x454
 11501 3710 0B       		.byte	0xb
 11502 3711 00       		.byte	0
 11503 3712 59       		.uleb128 0x59
 11504 3713 5F0B0000 		.4byte	.LASF657
 11505 3717 01       		.byte	0x1
 11506 3718 D3       		.byte	0xd3
 11507 3719 02370000 		.4byte	0x3702
 11508 371d 05       		.uleb128 0x5
 11509 371e 03       		.byte	0x3
 11510 371f 00000000 		.4byte	ADC_Value
ARM GAS  /var/folders/7z/kps_xzfj7sn5l5gkyq8s9db00000gn/T//ccvBF34a.s 			page 205


 11511 3723 59       		.uleb128 0x59
 11512 3724 300E0000 		.4byte	.LASF658
 11513 3728 01       		.byte	0x1
 11514 3729 E0       		.byte	0xe0
 11515 372a 2C000000 		.4byte	0x2c
 11516 372e 05       		.uleb128 0x5
 11517 372f 03       		.byte	0x3
 11518 3730 00000000 		.4byte	SpeedReference
 11519 3734 5A       		.uleb128 0x5a
 11520 3735 75474600 		.ascii	"uGF\000"
 11521 3739 01       		.byte	0x1
 11522 373a 43       		.byte	0x43
 11523 373b E61D0000 		.4byte	0x1de6
 11524 373f 05       		.uleb128 0x5
 11525 3740 03       		.byte	0x3
 11526 3741 00000000 		.4byte	uGF
 11527 3745 59       		.uleb128 0x59
 11528 3746 BD230000 		.4byte	.LASF659
 11529 374a 01       		.byte	0x1
 11530 374b 4B       		.byte	0x4b
 11531 374c 051E0000 		.4byte	0x1e05
 11532 3750 05       		.uleb128 0x5
 11533 3751 03       		.byte	0x3
 11534 3752 00000000 		.4byte	MotorParm
 11535 3756 59       		.uleb128 0x59
 11536 3757 D6140000 		.4byte	.LASF660
 11537 375b 01       		.byte	0x1
 11538 375c BE       		.byte	0xbe
 11539 375d 2C000000 		.4byte	0x2c
 11540 3761 05       		.uleb128 0x5
 11541 3762 03       		.byte	0x3
 11542 3763 00000000 		.4byte	count
 11543 3767 59       		.uleb128 0x59
 11544 3768 10010000 		.4byte	.LASF661
 11545 376c 01       		.byte	0x1
 11546 376d BF       		.byte	0xbf
 11547 376e 2C000000 		.4byte	0x2c
 11548 3772 05       		.uleb128 0x5
 11549 3773 03       		.byte	0x3
 11550 3774 00000000 		.4byte	VelReq
 11551 3778 59       		.uleb128 0x59
 11552 3779 E00F0000 		.4byte	.LASF662
 11553 377d 01       		.byte	0x1
 11554 377e C1       		.byte	0xc1
 11555 377f 9F000000 		.4byte	0x9f
 11556 3783 05       		.uleb128 0x5
 11557 3784 03       		.byte	0x3
 11558 3785 00000000 		.4byte	Startup_Ramp
 11559 3789 59       		.uleb128 0x59
 11560 378a 761B0000 		.4byte	.LASF663
 11561 378e 01       		.byte	0x1
 11562 378f C7       		.byte	0xc7
 11563 3790 3E000000 		.4byte	0x3e
 11564 3794 05       		.uleb128 0x5
 11565 3795 03       		.byte	0x3
 11566 3796 00000000 		.4byte	Startup_Lock
 11567 379a 59       		.uleb128 0x59
ARM GAS  /var/folders/7z/kps_xzfj7sn5l5gkyq8s9db00000gn/T//ccvBF34a.s 			page 206


 11568 379b 880C0000 		.4byte	.LASF664
 11569 379f 01       		.byte	0x1
 11570 37a0 D0       		.byte	0xd0
 11571 37a1 9F1F0000 		.4byte	0x1f9f
 11572 37a5 05       		.uleb128 0x5
 11573 37a6 03       		.byte	0x3
 11574 37a7 00000000 		.4byte	smc1
 11575 37ab 59       		.uleb128 0x59
 11576 37ac 240C0000 		.4byte	.LASF665
 11577 37b0 01       		.byte	0x1
 11578 37b1 D5       		.byte	0xd5
 11579 37b2 F9200000 		.4byte	0x20f9
 11580 37b6 05       		.uleb128 0x5
 11581 37b7 03       		.byte	0x3
 11582 37b8 00000000 		.4byte	ParkParm
 11583 37bc 59       		.uleb128 0x59
 11584 37bd EA230000 		.4byte	.LASF666
 11585 37c1 01       		.byte	0x1
 11586 37c2 D7       		.byte	0xd7
 11587 37c3 25200000 		.4byte	0x2025
 11588 37c7 05       		.uleb128 0x5
 11589 37c8 03       		.byte	0x3
 11590 37c9 00000000 		.4byte	PIParmD
 11591 37cd 59       		.uleb128 0x59
 11592 37ce 07240000 		.4byte	.LASF667
 11593 37d2 01       		.byte	0x1
 11594 37d3 D8       		.byte	0xd8
 11595 37d4 25200000 		.4byte	0x2025
 11596 37d8 05       		.uleb128 0x5
 11597 37d9 03       		.byte	0x3
 11598 37da 00000000 		.4byte	PIParmQ
 11599 37de 59       		.uleb128 0x59
 11600 37df 0F240000 		.4byte	.LASF668
 11601 37e3 01       		.byte	0x1
 11602 37e4 D9       		.byte	0xd9
 11603 37e5 25200000 		.4byte	0x2025
 11604 37e9 05       		.uleb128 0x5
 11605 37ea 03       		.byte	0x3
 11606 37eb 00000000 		.4byte	PIParmW
 11607 37ef 59       		.uleb128 0x59
 11608 37f0 0C250000 		.4byte	.LASF669
 11609 37f4 01       		.byte	0x1
 11610 37f5 DA       		.byte	0xda
 11611 37f6 25200000 		.4byte	0x2025
 11612 37fa 05       		.uleb128 0x5
 11613 37fb 03       		.byte	0x3
 11614 37fc 00000000 		.4byte	PIParmPLL
 11615 3800 59       		.uleb128 0x59
 11616 3801 B4230000 		.4byte	.LASF670
 11617 3805 01       		.byte	0x1
 11618 3806 DC       		.byte	0xdc
 11619 3807 31210000 		.4byte	0x2131
 11620 380b 05       		.uleb128 0x5
 11621 380c 03       		.byte	0x3
 11622 380d 00000000 		.4byte	CtrlParm
 11623 3811 59       		.uleb128 0x59
 11624 3812 171D0000 		.4byte	.LASF671
ARM GAS  /var/folders/7z/kps_xzfj7sn5l5gkyq8s9db00000gn/T//ccvBF34a.s 			page 207


 11625 3816 01       		.byte	0x1
 11626 3817 DD       		.byte	0xdd
 11627 3818 30220000 		.4byte	0x2230
 11628 381c 05       		.uleb128 0x5
 11629 381d 03       		.byte	0x3
 11630 381e 00000000 		.4byte	SVGenParm
 11631 3822 59       		.uleb128 0x59
 11632 3823 A70D0000 		.4byte	.LASF672
 11633 3827 01       		.byte	0x1
 11634 3828 DE       		.byte	0xde
 11635 3829 B5210000 		.4byte	0x21b5
 11636 382d 05       		.uleb128 0x5
 11637 382e 03       		.byte	0x3
 11638 382f 00000000 		.4byte	FdWeakParm
 11639 3833 59       		.uleb128 0x59
 11640 3834 BC0F0000 		.4byte	.LASF673
 11641 3838 01       		.byte	0x1
 11642 3839 E1       		.byte	0xe1
 11643 383a 3E000000 		.4byte	0x3e
 11644 383e 05       		.uleb128 0x5
 11645 383f 03       		.byte	0x3
 11646 3840 00000000 		.4byte	switching_frequency_now
 11647 3844 59       		.uleb128 0x59
 11648 3845 67240000 		.4byte	.LASF674
 11649 3849 01       		.byte	0x1
 11650 384a E5       		.byte	0xe5
 11651 384b 691D0000 		.4byte	0x1d69
 11652 384f 05       		.uleb128 0x5
 11653 3850 03       		.byte	0x3
 11654 3851 00000000 		.4byte	iADCisrCnt
 11655 3855 59       		.uleb128 0x59
 11656 3856 901C0000 		.4byte	.LASF675
 11657 385a 01       		.byte	0x1
 11658 385b E8       		.byte	0xe8
 11659 385c 25000000 		.4byte	0x25
 11660 3860 05       		.uleb128 0x5
 11661 3861 03       		.byte	0x3
 11662 3862 00000000 		.4byte	PrevTheta
 11663 3866 59       		.uleb128 0x59
 11664 3867 AD1E0000 		.4byte	.LASF676
 11665 386b 01       		.byte	0x1
 11666 386c EB       		.byte	0xeb
 11667 386d 25000000 		.4byte	0x25
 11668 3871 05       		.uleb128 0x5
 11669 3872 03       		.byte	0x3
 11670 3873 00000000 		.4byte	AccumTheta
 11671 3877 59       		.uleb128 0x59
 11672 3878 FB0D0000 		.4byte	.LASF677
 11673 387c 01       		.byte	0x1
 11674 387d EC       		.byte	0xec
 11675 387e 691D0000 		.4byte	0x1d69
 11676 3882 05       		.uleb128 0x5
 11677 3883 03       		.byte	0x3
 11678 3884 00000000 		.4byte	AccumThetaCnt
 11679 3888 5B       		.uleb128 0x5b
 11680 3889 53657100 		.ascii	"Seq\000"
 11681 388d 01       		.byte	0x1
ARM GAS  /var/folders/7z/kps_xzfj7sn5l5gkyq8s9db00000gn/T//ccvBF34a.s 			page 208


 11682 388e FC02     		.2byte	0x2fc
 11683 3890 2C000000 		.4byte	0x2c
 11684 3894 05       		.uleb128 0x5
 11685 3895 03       		.byte	0x3
 11686 3896 00000000 		.4byte	Seq
 11687 389a 5C       		.uleb128 0x5c
 11688 389b D5230000 		.4byte	.LASF678
 11689 389f 01       		.byte	0x1
 11690 38a0 FD02     		.2byte	0x2fd
 11691 38a2 2C000000 		.4byte	0x2c
 11692 38a6 05       		.uleb128 0x5
 11693 38a7 03       		.byte	0x3
 11694 38a8 00000000 		.4byte	Fault_seq
 11695 38ac 5C       		.uleb128 0x5c
 11696 38ad 43010000 		.4byte	.LASF679
 11697 38b1 01       		.byte	0x1
 11698 38b2 FE02     		.2byte	0x2fe
 11699 38b4 2C000000 		.4byte	0x2c
 11700 38b8 05       		.uleb128 0x5
 11701 38b9 03       		.byte	0x3
 11702 38ba 00000000 		.4byte	Init_Charge_cnt_EN
 11703 38be 5C       		.uleb128 0x5c
 11704 38bf 440A0000 		.4byte	.LASF680
 11705 38c3 01       		.byte	0x1
 11706 38c4 FF02     		.2byte	0x2ff
 11707 38c6 8D000000 		.4byte	0x8d
 11708 38ca 05       		.uleb128 0x5
 11709 38cb 03       		.byte	0x3
 11710 38cc 00000000 		.4byte	Init_Charge_cnt
 11711 38d0 5C       		.uleb128 0x5c
 11712 38d1 BE020000 		.4byte	.LASF681
 11713 38d5 01       		.byte	0x1
 11714 38d6 0003     		.2byte	0x300
 11715 38d8 3E000000 		.4byte	0x3e
 11716 38dc 05       		.uleb128 0x5
 11717 38dd 03       		.byte	0x3
 11718 38de 00000000 		.4byte	Init_Charge_Time
 11719 38e2 5C       		.uleb128 0x5c
 11720 38e3 7A060000 		.4byte	.LASF682
 11721 38e7 01       		.byte	0x1
 11722 38e8 0703     		.2byte	0x307
 11723 38ea 3E000000 		.4byte	0x3e
 11724 38ee 05       		.uleb128 0x5
 11725 38ef 03       		.byte	0x3
 11726 38f0 00000000 		.4byte	Drive_Status
 11727 38f4 5C       		.uleb128 0x5c
 11728 38f5 98160000 		.4byte	.LASF683
 11729 38f9 01       		.byte	0x1
 11730 38fa 0803     		.2byte	0x308
 11731 38fc 3E000000 		.4byte	0x3e
 11732 3900 05       		.uleb128 0x5
 11733 3901 03       		.byte	0x3
 11734 3902 00000000 		.4byte	State_Index
 11735 3906 5C       		.uleb128 0x5c
 11736 3907 F2230000 		.4byte	.LASF684
 11737 390b 01       		.byte	0x1
 11738 390c 0F06     		.2byte	0x60f
ARM GAS  /var/folders/7z/kps_xzfj7sn5l5gkyq8s9db00000gn/T//ccvBF34a.s 			page 209


 11739 390e 25000000 		.4byte	0x25
 11740 3912 05       		.uleb128 0x5
 11741 3913 03       		.byte	0x3
 11742 3914 00000000 		.4byte	HallPLLlead
 11743 3918 5C       		.uleb128 0x5c
 11744 3919 C4110000 		.4byte	.LASF685
 11745 391d 01       		.byte	0x1
 11746 391e 1006     		.2byte	0x610
 11747 3920 25000000 		.4byte	0x25
 11748 3924 05       		.uleb128 0x5
 11749 3925 03       		.byte	0x3
 11750 3926 00000000 		.4byte	HallPLLlead1
 11751 392a 5C       		.uleb128 0x5c
 11752 392b D1110000 		.4byte	.LASF686
 11753 392f 01       		.byte	0x1
 11754 3930 1106     		.2byte	0x611
 11755 3932 25000000 		.4byte	0x25
 11756 3936 05       		.uleb128 0x5
 11757 3937 03       		.byte	0x3
 11758 3938 00000000 		.4byte	HallPLLlead2
 11759 393c 5C       		.uleb128 0x5c
 11760 393d 62000000 		.4byte	.LASF687
 11761 3941 01       		.byte	0x1
 11762 3942 1206     		.2byte	0x612
 11763 3944 25000000 		.4byte	0x25
 11764 3948 05       		.uleb128 0x5
 11765 3949 03       		.byte	0x3
 11766 394a 00000000 		.4byte	HallPLLqe
 11767 394e 5C       		.uleb128 0x5c
 11768 394f B81E0000 		.4byte	.LASF688
 11769 3953 01       		.byte	0x1
 11770 3954 1306     		.2byte	0x613
 11771 3956 25000000 		.4byte	0x25
 11772 395a 05       		.uleb128 0x5
 11773 395b 03       		.byte	0x3
 11774 395c 00000000 		.4byte	HallPLLde
 11775 3960 5C       		.uleb128 0x5c
 11776 3961 91110000 		.4byte	.LASF689
 11777 3965 01       		.byte	0x1
 11778 3966 1406     		.2byte	0x614
 11779 3968 25000000 		.4byte	0x25
 11780 396c 05       		.uleb128 0x5
 11781 396d 03       		.byte	0x3
 11782 396e 00000000 		.4byte	HallPLLde1
 11783 3972 5C       		.uleb128 0x5c
 11784 3973 DA130000 		.4byte	.LASF690
 11785 3977 01       		.byte	0x1
 11786 3978 1506     		.2byte	0x615
 11787 397a 25000000 		.4byte	0x25
 11788 397e 05       		.uleb128 0x5
 11789 397f 03       		.byte	0x3
 11790 3980 00000000 		.4byte	HallPLLdef
 11791 3984 5C       		.uleb128 0x5c
 11792 3985 6A1E0000 		.4byte	.LASF691
 11793 3989 01       		.byte	0x1
 11794 398a 1606     		.2byte	0x616
 11795 398c 25000000 		.4byte	0x25
ARM GAS  /var/folders/7z/kps_xzfj7sn5l5gkyq8s9db00000gn/T//ccvBF34a.s 			page 210


 11796 3990 05       		.uleb128 0x5
 11797 3991 03       		.byte	0x3
 11798 3992 00000000 		.4byte	HallPLLdef1
 11799 3996 5C       		.uleb128 0x5c
 11800 3997 D41F0000 		.4byte	.LASF692
 11801 399b 01       		.byte	0x1
 11802 399c 1F06     		.2byte	0x61f
 11803 399e 25000000 		.4byte	0x25
 11804 39a2 05       		.uleb128 0x5
 11805 39a3 03       		.byte	0x3
 11806 39a4 00000000 		.4byte	Wpll
 11807 39a8 5C       		.uleb128 0x5c
 11808 39a9 5E0D0000 		.4byte	.LASF693
 11809 39ad 01       		.byte	0x1
 11810 39ae 2006     		.2byte	0x620
 11811 39b0 25000000 		.4byte	0x25
 11812 39b4 05       		.uleb128 0x5
 11813 39b5 03       		.byte	0x3
 11814 39b6 00000000 		.4byte	Wpll1
 11815 39ba 5C       		.uleb128 0x5c
 11816 39bb EB0D0000 		.4byte	.LASF694
 11817 39bf 01       		.byte	0x1
 11818 39c0 2106     		.2byte	0x621
 11819 39c2 25000000 		.4byte	0x25
 11820 39c6 05       		.uleb128 0x5
 11821 39c7 03       		.byte	0x3
 11822 39c8 00000000 		.4byte	Wpllp
 11823 39cc 5C       		.uleb128 0x5c
 11824 39cd E50D0000 		.4byte	.LASF695
 11825 39d1 01       		.byte	0x1
 11826 39d2 2206     		.2byte	0x622
 11827 39d4 25000000 		.4byte	0x25
 11828 39d8 05       		.uleb128 0x5
 11829 39d9 03       		.byte	0x3
 11830 39da 00000000 		.4byte	Wplli
 11831 39de 5C       		.uleb128 0x5c
 11832 39df B9010000 		.4byte	.LASF696
 11833 39e3 01       		.byte	0x1
 11834 39e4 2406     		.2byte	0x624
 11835 39e6 25000000 		.4byte	0x25
 11836 39ea 05       		.uleb128 0x5
 11837 39eb 03       		.byte	0x3
 11838 39ec 00000000 		.4byte	Kpll
 11839 39f0 5C       		.uleb128 0x5c
 11840 39f1 59030000 		.4byte	.LASF697
 11841 39f5 01       		.byte	0x1
 11842 39f6 2506     		.2byte	0x625
 11843 39f8 25000000 		.4byte	0x25
 11844 39fc 05       		.uleb128 0x5
 11845 39fd 03       		.byte	0x3
 11846 39fe 00000000 		.4byte	Ipll
 11847 3a02 5C       		.uleb128 0x5c
 11848 3a03 4B220000 		.4byte	.LASF698
 11849 3a07 01       		.byte	0x1
 11850 3a08 4406     		.2byte	0x644
 11851 3a0a 25000000 		.4byte	0x25
 11852 3a0e 05       		.uleb128 0x5
ARM GAS  /var/folders/7z/kps_xzfj7sn5l5gkyq8s9db00000gn/T//ccvBF34a.s 			page 211


 11853 3a0f 03       		.byte	0x3
 11854 3a10 00000000 		.4byte	HallPLLA
 11855 3a14 5C       		.uleb128 0x5c
 11856 3a15 53090000 		.4byte	.LASF699
 11857 3a19 01       		.byte	0x1
 11858 3a1a 4506     		.2byte	0x645
 11859 3a1c 25000000 		.4byte	0x25
 11860 3a20 05       		.uleb128 0x5
 11861 3a21 03       		.byte	0x3
 11862 3a22 00000000 		.4byte	HallPLLA1
 11863 3a26 5C       		.uleb128 0x5c
 11864 3a27 66220000 		.4byte	.LASF700
 11865 3a2b 01       		.byte	0x1
 11866 3a2c 4606     		.2byte	0x646
 11867 3a2e 25000000 		.4byte	0x25
 11868 3a32 05       		.uleb128 0x5
 11869 3a33 03       		.byte	0x3
 11870 3a34 00000000 		.4byte	HallPLLB
 11871 3a38 5C       		.uleb128 0x5c
 11872 3a39 E5030000 		.4byte	.LASF701
 11873 3a3d 01       		.byte	0x1
 11874 3a3e 4806     		.2byte	0x648
 11875 3a40 25000000 		.4byte	0x25
 11876 3a44 05       		.uleb128 0x5
 11877 3a45 03       		.byte	0x3
 11878 3a46 00000000 		.4byte	HallPLLA_old
 11879 3a4a 5C       		.uleb128 0x5c
 11880 3a4b 87220000 		.4byte	.LASF702
 11881 3a4f 01       		.byte	0x1
 11882 3a50 4906     		.2byte	0x649
 11883 3a52 25000000 		.4byte	0x25
 11884 3a56 05       		.uleb128 0x5
 11885 3a57 03       		.byte	0x3
 11886 3a58 00000000 		.4byte	HallPLLB_old
 11887 3a5c 5C       		.uleb128 0x5c
 11888 3a5d F5220000 		.4byte	.LASF703
 11889 3a61 01       		.byte	0x1
 11890 3a62 4B06     		.2byte	0x64b
 11891 3a64 25000000 		.4byte	0x25
 11892 3a68 05       		.uleb128 0x5
 11893 3a69 03       		.byte	0x3
 11894 3a6a 00000000 		.4byte	HallPLLA_filtered
 11895 3a6e 5C       		.uleb128 0x5c
 11896 3a6f 5C040000 		.4byte	.LASF704
 11897 3a73 01       		.byte	0x1
 11898 3a74 4C06     		.2byte	0x64c
 11899 3a76 25000000 		.4byte	0x25
 11900 3a7a 05       		.uleb128 0x5
 11901 3a7b 03       		.byte	0x3
 11902 3a7c 00000000 		.4byte	HallPLLB_filtered
 11903 3a80 5C       		.uleb128 0x5c
 11904 3a81 16250000 		.4byte	.LASF705
 11905 3a85 01       		.byte	0x1
 11906 3a86 4E06     		.2byte	0x64e
 11907 3a88 25000000 		.4byte	0x25
 11908 3a8c 05       		.uleb128 0x5
 11909 3a8d 03       		.byte	0x3
ARM GAS  /var/folders/7z/kps_xzfj7sn5l5gkyq8s9db00000gn/T//ccvBF34a.s 			page 212


 11910 3a8e 00000000 		.4byte	Hall_SinCos
 11911 3a92 5C       		.uleb128 0x5c
 11912 3a93 0B1D0000 		.4byte	.LASF706
 11913 3a97 01       		.byte	0x1
 11914 3a98 4F06     		.2byte	0x64f
 11915 3a9a 25000000 		.4byte	0x25
 11916 3a9e 05       		.uleb128 0x5
 11917 3a9f 03       		.byte	0x3
 11918 3aa0 00000000 		.4byte	Hall_CosSin
 11919 3aa4 5C       		.uleb128 0x5c
 11920 3aa5 B2100000 		.4byte	.LASF707
 11921 3aa9 01       		.byte	0x1
 11922 3aaa 5106     		.2byte	0x651
 11923 3aac 25000000 		.4byte	0x25
 11924 3ab0 05       		.uleb128 0x5
 11925 3ab1 03       		.byte	0x3
 11926 3ab2 00000000 		.4byte	costh
 11927 3ab6 5C       		.uleb128 0x5c
 11928 3ab7 99130000 		.4byte	.LASF708
 11929 3abb 01       		.byte	0x1
 11930 3abc 5206     		.2byte	0x652
 11931 3abe 25000000 		.4byte	0x25
 11932 3ac2 05       		.uleb128 0x5
 11933 3ac3 03       		.byte	0x3
 11934 3ac4 00000000 		.4byte	sinth
 11935 3ac8 5D       		.uleb128 0x5d
 11936 3ac9 751F0000 		.4byte	.LASF709
 11937 3acd 08       		.byte	0x8
 11938 3ace 7501     		.2byte	0x175
 11939 3ad0 DA3A0000 		.4byte	0x3ada
 11940 3ad4 12       		.uleb128 0x12
 11941 3ad5 60010000 		.4byte	0x160
 11942 3ad9 00       		.byte	0
 11943 3ada 5E       		.uleb128 0x5e
 11944 3adb 61010000 		.4byte	.LASF710
 11945 3adf 19       		.byte	0x19
 11946 3ae0 58       		.byte	0x58
 11947 3ae1 EB3A0000 		.4byte	0x3aeb
 11948 3ae5 12       		.uleb128 0x12
 11949 3ae6 CA000000 		.4byte	0xca
 11950 3aea 00       		.byte	0
 11951 3aeb 5F       		.uleb128 0x5f
 11952 3aec BB180000 		.4byte	.LASF711
 11953 3af0 1A       		.byte	0x1a
 11954 3af1 3F01     		.2byte	0x13f
 11955 3af3 25000000 		.4byte	0x25
 11956 3af7 013B0000 		.4byte	0x3b01
 11957 3afb 12       		.uleb128 0x12
 11958 3afc 25000000 		.4byte	0x25
 11959 3b00 00       		.byte	0
 11960 3b01 5F       		.uleb128 0x5f
 11961 3b02 F7040000 		.4byte	.LASF712
 11962 3b06 1A       		.byte	0x1a
 11963 3b07 4001     		.2byte	0x140
 11964 3b09 25000000 		.4byte	0x25
 11965 3b0d 173B0000 		.4byte	0x3b17
 11966 3b11 12       		.uleb128 0x12
ARM GAS  /var/folders/7z/kps_xzfj7sn5l5gkyq8s9db00000gn/T//ccvBF34a.s 			page 213


 11967 3b12 25000000 		.4byte	0x25
 11968 3b16 00       		.byte	0
 11969 3b17 5F       		.uleb128 0x5f
 11970 3b18 C81C0000 		.4byte	.LASF713
 11971 3b1c 1A       		.byte	0x1a
 11972 3b1d 5401     		.2byte	0x154
 11973 3b1f 25000000 		.4byte	0x25
 11974 3b23 2D3B0000 		.4byte	0x3b2d
 11975 3b27 12       		.uleb128 0x12
 11976 3b28 25000000 		.4byte	0x25
 11977 3b2c 00       		.byte	0
 11978 3b2d 60       		.uleb128 0x60
 11979 3b2e B8170000 		.4byte	.LASF715
 11980 3b32 1B       		.byte	0x1b
 11981 3b33 23       		.byte	0x23
 11982 3b34 60       		.uleb128 0x60
 11983 3b35 1D160000 		.4byte	.LASF716
 11984 3b39 1B       		.byte	0x1b
 11985 3b3a 24       		.byte	0x24
 11986 3b3b 5F       		.uleb128 0x5f
 11987 3b3c D9020000 		.4byte	.LASF717
 11988 3b40 0D       		.byte	0xd
 11989 3b41 7202     		.2byte	0x272
 11990 3b43 D5000000 		.4byte	0xd5
 11991 3b47 563B0000 		.4byte	0x3b56
 11992 3b4b 12       		.uleb128 0x12
 11993 3b4c 563B0000 		.4byte	0x3b56
 11994 3b50 12       		.uleb128 0x12
 11995 3b51 CA000000 		.4byte	0xca
 11996 3b55 00       		.byte	0
 11997 3b56 09       		.uleb128 0x9
 11998 3b57 04       		.byte	0x4
 11999 3b58 050B0000 		.4byte	0xb05
 12000 3b5c 5F       		.uleb128 0x5f
 12001 3b5d 01130000 		.4byte	.LASF718
 12002 3b61 1A       		.byte	0x1a
 12003 3b62 4C01     		.2byte	0x14c
 12004 3b64 25000000 		.4byte	0x25
 12005 3b68 773B0000 		.4byte	0x3b77
 12006 3b6c 12       		.uleb128 0x12
 12007 3b6d 25000000 		.4byte	0x25
 12008 3b71 12       		.uleb128 0x12
 12009 3b72 25000000 		.4byte	0x25
 12010 3b76 00       		.byte	0
 12011 3b77 5D       		.uleb128 0x5d
 12012 3b78 0C0F0000 		.4byte	.LASF719
 12013 3b7c 0F       		.byte	0xf
 12014 3b7d 0204     		.2byte	0x402
 12015 3b7f 893B0000 		.4byte	0x3b89
 12016 3b83 12       		.uleb128 0x12
 12017 3b84 893B0000 		.4byte	0x3b89
 12018 3b88 00       		.byte	0
 12019 3b89 09       		.uleb128 0x9
 12020 3b8a 04       		.byte	0x4
 12021 3b8b 8D0D0000 		.4byte	0xd8d
 12022 3b8f 5D       		.uleb128 0x5d
 12023 3b90 141E0000 		.4byte	.LASF720
ARM GAS  /var/folders/7z/kps_xzfj7sn5l5gkyq8s9db00000gn/T//ccvBF34a.s 			page 214


 12024 3b94 1C       		.byte	0x1c
 12025 3b95 E101     		.2byte	0x1e1
 12026 3b97 A63B0000 		.4byte	0x3ba6
 12027 3b9b 12       		.uleb128 0x12
 12028 3b9c EB000000 		.4byte	0xeb
 12029 3ba0 12       		.uleb128 0x12
 12030 3ba1 ED090000 		.4byte	0x9ed
 12031 3ba5 00       		.byte	0
 12032 3ba6 5D       		.uleb128 0x5d
 12033 3ba7 29170000 		.4byte	.LASF721
 12034 3bab 0F       		.byte	0xf
 12035 3bac 0304     		.2byte	0x403
 12036 3bae BD3B0000 		.4byte	0x3bbd
 12037 3bb2 12       		.uleb128 0x12
 12038 3bb3 893B0000 		.4byte	0x3b89
 12039 3bb7 12       		.uleb128 0x12
 12040 3bb8 BD3B0000 		.4byte	0x3bbd
 12041 3bbc 00       		.byte	0
 12042 3bbd 09       		.uleb128 0x9
 12043 3bbe 04       		.byte	0x4
 12044 3bbf 520F0000 		.4byte	0xf52
 12045 3bc3 5D       		.uleb128 0x5d
 12046 3bc4 02090000 		.4byte	.LASF722
 12047 3bc8 0F       		.byte	0xf
 12048 3bc9 1304     		.2byte	0x413
 12049 3bcb DA3B0000 		.4byte	0x3bda
 12050 3bcf 12       		.uleb128 0x12
 12051 3bd0 893B0000 		.4byte	0x3b89
 12052 3bd4 12       		.uleb128 0x12
 12053 3bd5 DA3B0000 		.4byte	0x3bda
 12054 3bd9 00       		.byte	0
 12055 3bda 09       		.uleb128 0x9
 12056 3bdb 04       		.byte	0x4
 12057 3bdc C60F0000 		.4byte	0xfc6
 12058 3be0 5D       		.uleb128 0x5d
 12059 3be1 DE0E0000 		.4byte	.LASF723
 12060 3be5 0F       		.byte	0xf
 12061 3be6 1404     		.2byte	0x414
 12062 3be8 F73B0000 		.4byte	0x3bf7
 12063 3bec 12       		.uleb128 0x12
 12064 3bed 893B0000 		.4byte	0x3b89
 12065 3bf1 12       		.uleb128 0x12
 12066 3bf2 DA3B0000 		.4byte	0x3bda
 12067 3bf6 00       		.byte	0
 12068 3bf7 5D       		.uleb128 0x5d
 12069 3bf8 04100000 		.4byte	.LASF724
 12070 3bfc 0F       		.byte	0xf
 12071 3bfd 1504     		.2byte	0x415
 12072 3bff 0E3C0000 		.4byte	0x3c0e
 12073 3c03 12       		.uleb128 0x12
 12074 3c04 893B0000 		.4byte	0x3b89
 12075 3c08 12       		.uleb128 0x12
 12076 3c09 DA3B0000 		.4byte	0x3bda
 12077 3c0d 00       		.byte	0
 12078 3c0e 5D       		.uleb128 0x5d
 12079 3c0f 7E050000 		.4byte	.LASF725
 12080 3c13 0F       		.byte	0xf
ARM GAS  /var/folders/7z/kps_xzfj7sn5l5gkyq8s9db00000gn/T//ccvBF34a.s 			page 215


 12081 3c14 1604     		.2byte	0x416
 12082 3c16 253C0000 		.4byte	0x3c25
 12083 3c1a 12       		.uleb128 0x12
 12084 3c1b 893B0000 		.4byte	0x3b89
 12085 3c1f 12       		.uleb128 0x12
 12086 3c20 DA3B0000 		.4byte	0x3bda
 12087 3c24 00       		.byte	0
 12088 3c25 5D       		.uleb128 0x5d
 12089 3c26 6A170000 		.4byte	.LASF726
 12090 3c2a 0F       		.byte	0xf
 12091 3c2b 2104     		.2byte	0x421
 12092 3c2d 3C3C0000 		.4byte	0x3c3c
 12093 3c31 12       		.uleb128 0x12
 12094 3c32 893B0000 		.4byte	0x3b89
 12095 3c36 12       		.uleb128 0x12
 12096 3c37 D5000000 		.4byte	0xd5
 12097 3c3b 00       		.byte	0
 12098 3c3c 5D       		.uleb128 0x5d
 12099 3c3d F1210000 		.4byte	.LASF727
 12100 3c41 0F       		.byte	0xf
 12101 3c42 2204     		.2byte	0x422
 12102 3c44 533C0000 		.4byte	0x3c53
 12103 3c48 12       		.uleb128 0x12
 12104 3c49 893B0000 		.4byte	0x3b89
 12105 3c4d 12       		.uleb128 0x12
 12106 3c4e D5000000 		.4byte	0xd5
 12107 3c52 00       		.byte	0
 12108 3c53 5D       		.uleb128 0x5d
 12109 3c54 59080000 		.4byte	.LASF728
 12110 3c58 0F       		.byte	0xf
 12111 3c59 2304     		.2byte	0x423
 12112 3c5b 6A3C0000 		.4byte	0x3c6a
 12113 3c5f 12       		.uleb128 0x12
 12114 3c60 893B0000 		.4byte	0x3b89
 12115 3c64 12       		.uleb128 0x12
 12116 3c65 D5000000 		.4byte	0xd5
 12117 3c69 00       		.byte	0
 12118 3c6a 5D       		.uleb128 0x5d
 12119 3c6b 10130000 		.4byte	.LASF729
 12120 3c6f 0F       		.byte	0xf
 12121 3c70 2404     		.2byte	0x424
 12122 3c72 813C0000 		.4byte	0x3c81
 12123 3c76 12       		.uleb128 0x12
 12124 3c77 893B0000 		.4byte	0x3b89
 12125 3c7b 12       		.uleb128 0x12
 12126 3c7c D5000000 		.4byte	0xd5
 12127 3c80 00       		.byte	0
 12128 3c81 5D       		.uleb128 0x5d
 12129 3c82 7E120000 		.4byte	.LASF730
 12130 3c86 0F       		.byte	0xf
 12131 3c87 4504     		.2byte	0x445
 12132 3c89 983C0000 		.4byte	0x3c98
 12133 3c8d 12       		.uleb128 0x12
 12134 3c8e 893B0000 		.4byte	0x3b89
 12135 3c92 12       		.uleb128 0x12
 12136 3c93 983C0000 		.4byte	0x3c98
 12137 3c97 00       		.byte	0
ARM GAS  /var/folders/7z/kps_xzfj7sn5l5gkyq8s9db00000gn/T//ccvBF34a.s 			page 216


 12138 3c98 09       		.uleb128 0x9
 12139 3c99 04       		.byte	0x4
 12140 3c9a 2E100000 		.4byte	0x102e
 12141 3c9e 5D       		.uleb128 0x5d
 12142 3c9f 540A0000 		.4byte	.LASF731
 12143 3ca3 0F       		.byte	0xf
 12144 3ca4 4904     		.2byte	0x449
 12145 3ca6 B53C0000 		.4byte	0x3cb5
 12146 3caa 12       		.uleb128 0x12
 12147 3cab 893B0000 		.4byte	0x3b89
 12148 3caf 12       		.uleb128 0x12
 12149 3cb0 ED090000 		.4byte	0x9ed
 12150 3cb4 00       		.byte	0
 12151 3cb5 5D       		.uleb128 0x5d
 12152 3cb6 7B1C0000 		.4byte	.LASF732
 12153 3cba 0F       		.byte	0xf
 12154 3cbb 0D04     		.2byte	0x40d
 12155 3cbd CC3C0000 		.4byte	0x3ccc
 12156 3cc1 12       		.uleb128 0x12
 12157 3cc2 893B0000 		.4byte	0x3b89
 12158 3cc6 12       		.uleb128 0x12
 12159 3cc7 ED090000 		.4byte	0x9ed
 12160 3ccb 00       		.byte	0
 12161 3ccc 5D       		.uleb128 0x5d
 12162 3ccd FD1D0000 		.4byte	.LASF733
 12163 3cd1 1C       		.byte	0x1c
 12164 3cd2 DD01     		.2byte	0x1dd
 12165 3cd4 E33C0000 		.4byte	0x3ce3
 12166 3cd8 12       		.uleb128 0x12
 12167 3cd9 EB000000 		.4byte	0xeb
 12168 3cdd 12       		.uleb128 0x12
 12169 3cde ED090000 		.4byte	0x9ed
 12170 3ce2 00       		.byte	0
 12171 3ce3 5F       		.uleb128 0x5f
 12172 3ce4 F9110000 		.4byte	.LASF734
 12173 3ce8 11       		.byte	0x11
 12174 3ce9 C201     		.2byte	0x1c2
 12175 3ceb 01010000 		.4byte	0x101
 12176 3cef 083D0000 		.4byte	0x3d08
 12177 3cf3 12       		.uleb128 0x12
 12178 3cf4 D2110000 		.4byte	0x11d2
 12179 3cf8 12       		.uleb128 0x12
 12180 3cf9 EB000000 		.4byte	0xeb
 12181 3cfd 12       		.uleb128 0x12
 12182 3cfe D9100000 		.4byte	0x10d9
 12183 3d02 12       		.uleb128 0x12
 12184 3d03 D0020000 		.4byte	0x2d0
 12185 3d07 00       		.byte	0
 12186 3d08 5D       		.uleb128 0x5d
 12187 3d09 09170000 		.4byte	.LASF735
 12188 3d0d 0E       		.byte	0xe
 12189 3d0e 3502     		.2byte	0x235
 12190 3d10 1F3D0000 		.4byte	0x3d1f
 12191 3d14 12       		.uleb128 0x12
 12192 3d15 C2100000 		.4byte	0x10c2
 12193 3d19 12       		.uleb128 0x12
 12194 3d1a 1F3D0000 		.4byte	0x3d1f
ARM GAS  /var/folders/7z/kps_xzfj7sn5l5gkyq8s9db00000gn/T//ccvBF34a.s 			page 217


 12195 3d1e 00       		.byte	0
 12196 3d1f 09       		.uleb128 0x9
 12197 3d20 04       		.byte	0x4
 12198 3d21 020F0000 		.4byte	0xf02
 12199 3d25 5D       		.uleb128 0x5d
 12200 3d26 15050000 		.4byte	.LASF736
 12201 3d2a 0E       		.byte	0xe
 12202 3d2b 3702     		.2byte	0x237
 12203 3d2d 3C3D0000 		.4byte	0x3d3c
 12204 3d31 12       		.uleb128 0x12
 12205 3d32 C2100000 		.4byte	0x10c2
 12206 3d36 12       		.uleb128 0x12
 12207 3d37 ED090000 		.4byte	0x9ed
 12208 3d3b 00       		.byte	0
 12209 3d3c 5D       		.uleb128 0x5d
 12210 3d3d DC140000 		.4byte	.LASF737
 12211 3d41 0E       		.byte	0xe
 12212 3d42 4E02     		.2byte	0x24e
 12213 3d44 583D0000 		.4byte	0x3d58
 12214 3d48 12       		.uleb128 0x12
 12215 3d49 C2100000 		.4byte	0x10c2
 12216 3d4d 12       		.uleb128 0x12
 12217 3d4e EB000000 		.4byte	0xeb
 12218 3d52 12       		.uleb128 0x12
 12219 3d53 ED090000 		.4byte	0x9ed
 12220 3d57 00       		.byte	0
 12221 3d58 5D       		.uleb128 0x5d
 12222 3d59 B61D0000 		.4byte	.LASF738
 12223 3d5d 0D       		.byte	0xd
 12224 3d5e 4B02     		.2byte	0x24b
 12225 3d60 6A3D0000 		.4byte	0x3d6a
 12226 3d64 12       		.uleb128 0x12
 12227 3d65 6A3D0000 		.4byte	0x3d6a
 12228 3d69 00       		.byte	0
 12229 3d6a 09       		.uleb128 0x9
 12230 3d6b 04       		.byte	0x4
 12231 3d6c 3A0E0000 		.4byte	0xe3a
 12232 3d70 5D       		.uleb128 0x5d
 12233 3d71 6B050000 		.4byte	.LASF739
 12234 3d75 0D       		.byte	0xd
 12235 3d76 4902     		.2byte	0x249
 12236 3d78 873D0000 		.4byte	0x3d87
 12237 3d7c 12       		.uleb128 0x12
 12238 3d7d 563B0000 		.4byte	0x3b56
 12239 3d81 12       		.uleb128 0x12
 12240 3d82 873D0000 		.4byte	0x3d87
 12241 3d86 00       		.byte	0
 12242 3d87 09       		.uleb128 0x9
 12243 3d88 04       		.byte	0x4
 12244 3d89 F60D0000 		.4byte	0xdf6
 12245 3d8d 60       		.uleb128 0x60
 12246 3d8e E71D0000 		.4byte	.LASF740
 12247 3d92 1D       		.byte	0x1d
 12248 3d93 32       		.byte	0x32
 12249 3d94 5D       		.uleb128 0x5d
 12250 3d95 72240000 		.4byte	.LASF741
 12251 3d99 0D       		.byte	0xd
ARM GAS  /var/folders/7z/kps_xzfj7sn5l5gkyq8s9db00000gn/T//ccvBF34a.s 			page 218


 12252 3d9a 6602     		.2byte	0x266
 12253 3d9c A63D0000 		.4byte	0x3da6
 12254 3da0 12       		.uleb128 0x12
 12255 3da1 ED090000 		.4byte	0x9ed
 12256 3da5 00       		.byte	0
 12257 3da6 5D       		.uleb128 0x5d
 12258 3da7 08200000 		.4byte	.LASF742
 12259 3dab 0D       		.byte	0xd
 12260 3dac 6C02     		.2byte	0x26c
 12261 3dae BD3D0000 		.4byte	0x3dbd
 12262 3db2 12       		.uleb128 0x12
 12263 3db3 563B0000 		.4byte	0x3b56
 12264 3db7 12       		.uleb128 0x12
 12265 3db8 EB000000 		.4byte	0xeb
 12266 3dbc 00       		.byte	0
 12267 3dbd 5D       		.uleb128 0x5d
 12268 3dbe D3050000 		.4byte	.LASF743
 12269 3dc2 0D       		.byte	0xd
 12270 3dc3 6D02     		.2byte	0x26d
 12271 3dc5 D43D0000 		.4byte	0x3dd4
 12272 3dc9 12       		.uleb128 0x12
 12273 3dca 563B0000 		.4byte	0x3b56
 12274 3dce 12       		.uleb128 0x12
 12275 3dcf EB000000 		.4byte	0xeb
 12276 3dd3 00       		.byte	0
 12277 3dd4 5D       		.uleb128 0x5d
 12278 3dd5 B0220000 		.4byte	.LASF744
 12279 3dd9 0D       		.byte	0xd
 12280 3dda 6A02     		.2byte	0x26a
 12281 3ddc EB3D0000 		.4byte	0x3deb
 12282 3de0 12       		.uleb128 0x12
 12283 3de1 563B0000 		.4byte	0x3b56
 12284 3de5 12       		.uleb128 0x12
 12285 3de6 CA000000 		.4byte	0xca
 12286 3dea 00       		.byte	0
 12287 3deb 5D       		.uleb128 0x5d
 12288 3dec FA050000 		.4byte	.LASF745
 12289 3df0 0D       		.byte	0xd
 12290 3df1 7502     		.2byte	0x275
 12291 3df3 073E0000 		.4byte	0x3e07
 12292 3df7 12       		.uleb128 0x12
 12293 3df8 563B0000 		.4byte	0x3b56
 12294 3dfc 12       		.uleb128 0x12
 12295 3dfd D5000000 		.4byte	0xd5
 12296 3e01 12       		.uleb128 0x12
 12297 3e02 ED090000 		.4byte	0x9ed
 12298 3e06 00       		.byte	0
 12299 3e07 5E       		.uleb128 0x5e
 12300 3e08 E7210000 		.4byte	.LASF746
 12301 3e0c 10       		.byte	0x10
 12302 3e0d 9F       		.byte	0x9f
 12303 3e0e 183E0000 		.4byte	0x3e18
 12304 3e12 12       		.uleb128 0x12
 12305 3e13 183E0000 		.4byte	0x3e18
 12306 3e17 00       		.byte	0
 12307 3e18 09       		.uleb128 0x9
 12308 3e19 04       		.byte	0x4
ARM GAS  /var/folders/7z/kps_xzfj7sn5l5gkyq8s9db00000gn/T//ccvBF34a.s 			page 219


 12309 3e1a 72100000 		.4byte	0x1072
 12310 3e1e 5D       		.uleb128 0x5d
 12311 3e1f 38230000 		.4byte	.LASF747
 12312 3e23 0D       		.byte	0xd
 12313 3e24 4D02     		.2byte	0x24d
 12314 3e26 353E0000 		.4byte	0x3e35
 12315 3e2a 12       		.uleb128 0x12
 12316 3e2b 563B0000 		.4byte	0x3b56
 12317 3e2f 12       		.uleb128 0x12
 12318 3e30 ED090000 		.4byte	0x9ed
 12319 3e34 00       		.byte	0
 12320 3e35 5D       		.uleb128 0x5d
 12321 3e36 98230000 		.4byte	.LASF748
 12322 3e3a 0F       		.byte	0xf
 12323 3e3b 4704     		.2byte	0x447
 12324 3e3d 4C3E0000 		.4byte	0x3e4c
 12325 3e41 12       		.uleb128 0x12
 12326 3e42 893B0000 		.4byte	0x3b89
 12327 3e46 12       		.uleb128 0x12
 12328 3e47 ED090000 		.4byte	0x9ed
 12329 3e4b 00       		.byte	0
 12330 3e4c 5D       		.uleb128 0x5d
 12331 3e4d 49200000 		.4byte	.LASF749
 12332 3e51 0F       		.byte	0xf
 12333 3e52 6204     		.2byte	0x462
 12334 3e54 633E0000 		.4byte	0x3e63
 12335 3e58 12       		.uleb128 0x12
 12336 3e59 893B0000 		.4byte	0x3b89
 12337 3e5d 12       		.uleb128 0x12
 12338 3e5e D5000000 		.4byte	0xd5
 12339 3e62 00       		.byte	0
 12340 3e63 5D       		.uleb128 0x5d
 12341 3e64 5E030000 		.4byte	.LASF750
 12342 3e68 0F       		.byte	0xf
 12343 3e69 6404     		.2byte	0x464
 12344 3e6b 7A3E0000 		.4byte	0x3e7a
 12345 3e6f 12       		.uleb128 0x12
 12346 3e70 893B0000 		.4byte	0x3b89
 12347 3e74 12       		.uleb128 0x12
 12348 3e75 D5000000 		.4byte	0xd5
 12349 3e79 00       		.byte	0
 12350 3e7a 5D       		.uleb128 0x5d
 12351 3e7b BD060000 		.4byte	.LASF751
 12352 3e7f 0F       		.byte	0xf
 12353 3e80 6104     		.2byte	0x461
 12354 3e82 913E0000 		.4byte	0x3e91
 12355 3e86 12       		.uleb128 0x12
 12356 3e87 893B0000 		.4byte	0x3b89
 12357 3e8b 12       		.uleb128 0x12
 12358 3e8c D5000000 		.4byte	0xd5
 12359 3e90 00       		.byte	0
 12360 3e91 5D       		.uleb128 0x5d
 12361 3e92 C2140000 		.4byte	.LASF752
 12362 3e96 0F       		.byte	0xf
 12363 3e97 6304     		.2byte	0x463
 12364 3e99 A83E0000 		.4byte	0x3ea8
 12365 3e9d 12       		.uleb128 0x12
ARM GAS  /var/folders/7z/kps_xzfj7sn5l5gkyq8s9db00000gn/T//ccvBF34a.s 			page 220


 12366 3e9e 893B0000 		.4byte	0x3b89
 12367 3ea2 12       		.uleb128 0x12
 12368 3ea3 D5000000 		.4byte	0xd5
 12369 3ea7 00       		.byte	0
 12370 3ea8 5D       		.uleb128 0x5d
 12371 3ea9 BC0D0000 		.4byte	.LASF753
 12372 3ead 0F       		.byte	0xf
 12373 3eae 1004     		.2byte	0x410
 12374 3eb0 BF3E0000 		.4byte	0x3ebf
 12375 3eb4 12       		.uleb128 0x12
 12376 3eb5 893B0000 		.4byte	0x3b89
 12377 3eb9 12       		.uleb128 0x12
 12378 3eba ED090000 		.4byte	0x9ed
 12379 3ebe 00       		.byte	0
 12380 3ebf 5D       		.uleb128 0x5d
 12381 3ec0 2D240000 		.4byte	.LASF754
 12382 3ec4 1C       		.byte	0x1c
 12383 3ec5 E001     		.2byte	0x1e0
 12384 3ec7 D63E0000 		.4byte	0x3ed6
 12385 3ecb 12       		.uleb128 0x12
 12386 3ecc EB000000 		.4byte	0xeb
 12387 3ed0 12       		.uleb128 0x12
 12388 3ed1 ED090000 		.4byte	0x9ed
 12389 3ed5 00       		.byte	0
 12390 3ed6 5F       		.uleb128 0x5f
 12391 3ed7 AD090000 		.4byte	.LASF755
 12392 3edb 08       		.byte	0x8
 12393 3edc 7001     		.2byte	0x170
 12394 3ede 94020000 		.4byte	0x294
 12395 3ee2 003F0000 		.4byte	0x3f00
 12396 3ee6 12       		.uleb128 0x12
 12397 3ee7 D0020000 		.4byte	0x2d0
 12398 3eeb 12       		.uleb128 0x12
 12399 3eec 33000000 		.4byte	0x33
 12400 3ef0 12       		.uleb128 0x12
 12401 3ef1 3F010000 		.4byte	0x13f
 12402 3ef5 12       		.uleb128 0x12
 12403 3ef6 4B050000 		.4byte	0x54b
 12404 3efa 12       		.uleb128 0x12
 12405 3efb D0020000 		.4byte	0x2d0
 12406 3eff 00       		.byte	0
 12407 3f00 5E       		.uleb128 0x5e
 12408 3f01 AC020000 		.4byte	.LASF756
 12409 3f05 19       		.byte	0x19
 12410 3f06 55       		.byte	0x55
 12411 3f07 113F0000 		.4byte	0x3f11
 12412 3f0b 12       		.uleb128 0x12
 12413 3f0c EB000000 		.4byte	0xeb
 12414 3f10 00       		.byte	0
 12415 3f11 5E       		.uleb128 0x5e
 12416 3f12 690A0000 		.4byte	.LASF757
 12417 3f16 19       		.byte	0x19
 12418 3f17 56       		.byte	0x56
 12419 3f18 223F0000 		.4byte	0x3f22
 12420 3f1c 12       		.uleb128 0x12
 12421 3f1d CA000000 		.4byte	0xca
 12422 3f21 00       		.byte	0
ARM GAS  /var/folders/7z/kps_xzfj7sn5l5gkyq8s9db00000gn/T//ccvBF34a.s 			page 221


 12423 3f22 5E       		.uleb128 0x5e
 12424 3f23 47000000 		.4byte	.LASF758
 12425 3f27 19       		.byte	0x19
 12426 3f28 5B       		.byte	0x5b
 12427 3f29 333F0000 		.4byte	0x3f33
 12428 3f2d 12       		.uleb128 0x12
 12429 3f2e CA000000 		.4byte	0xca
 12430 3f32 00       		.byte	0
 12431 3f33 5D       		.uleb128 0x5d
 12432 3f34 25220000 		.4byte	.LASF759
 12433 3f38 0F       		.byte	0xf
 12434 3f39 1804     		.2byte	0x418
 12435 3f3b 4F3F0000 		.4byte	0x3f4f
 12436 3f3f 12       		.uleb128 0x12
 12437 3f40 893B0000 		.4byte	0x3b89
 12438 3f44 12       		.uleb128 0x12
 12439 3f45 D5000000 		.4byte	0xd5
 12440 3f49 12       		.uleb128 0x12
 12441 3f4a D5000000 		.4byte	0xd5
 12442 3f4e 00       		.byte	0
 12443 3f4f 5D       		.uleb128 0x5d
 12444 3f50 090B0000 		.4byte	.LASF760
 12445 3f54 0F       		.byte	0xf
 12446 3f55 3404     		.2byte	0x434
 12447 3f57 6B3F0000 		.4byte	0x3f6b
 12448 3f5b 12       		.uleb128 0x12
 12449 3f5c 893B0000 		.4byte	0x3b89
 12450 3f60 12       		.uleb128 0x12
 12451 3f61 D5000000 		.4byte	0xd5
 12452 3f65 12       		.uleb128 0x12
 12453 3f66 D5000000 		.4byte	0xd5
 12454 3f6a 00       		.byte	0
 12455 3f6b 5D       		.uleb128 0x5d
 12456 3f6c C9080000 		.4byte	.LASF761
 12457 3f70 0F       		.byte	0xf
 12458 3f71 3504     		.2byte	0x435
 12459 3f73 873F0000 		.4byte	0x3f87
 12460 3f77 12       		.uleb128 0x12
 12461 3f78 893B0000 		.4byte	0x3b89
 12462 3f7c 12       		.uleb128 0x12
 12463 3f7d D5000000 		.4byte	0xd5
 12464 3f81 12       		.uleb128 0x12
 12465 3f82 D5000000 		.4byte	0xd5
 12466 3f86 00       		.byte	0
 12467 3f87 61       		.uleb128 0x61
 12468 3f88 6F210000 		.4byte	.LASF769
 12469 3f8c 0F       		.byte	0xf
 12470 3f8d 4D04     		.2byte	0x44d
 12471 3f8f 12       		.uleb128 0x12
 12472 3f90 893B0000 		.4byte	0x3b89
 12473 3f94 12       		.uleb128 0x12
 12474 3f95 D5000000 		.4byte	0xd5
 12475 3f99 00       		.byte	0
 12476 3f9a 00       		.byte	0
 12477              		.section	.debug_abbrev,"",%progbits
 12478              	.Ldebug_abbrev0:
 12479 0000 01       		.uleb128 0x1
ARM GAS  /var/folders/7z/kps_xzfj7sn5l5gkyq8s9db00000gn/T//ccvBF34a.s 			page 222


 12480 0001 11       		.uleb128 0x11
 12481 0002 01       		.byte	0x1
 12482 0003 25       		.uleb128 0x25
 12483 0004 0E       		.uleb128 0xe
 12484 0005 13       		.uleb128 0x13
 12485 0006 0B       		.uleb128 0xb
 12486 0007 03       		.uleb128 0x3
 12487 0008 0E       		.uleb128 0xe
 12488 0009 1B       		.uleb128 0x1b
 12489 000a 0E       		.uleb128 0xe
 12490 000b 55       		.uleb128 0x55
 12491 000c 17       		.uleb128 0x17
 12492 000d 11       		.uleb128 0x11
 12493 000e 01       		.uleb128 0x1
 12494 000f 10       		.uleb128 0x10
 12495 0010 17       		.uleb128 0x17
 12496 0011 00       		.byte	0
 12497 0012 00       		.byte	0
 12498 0013 02       		.uleb128 0x2
 12499 0014 24       		.uleb128 0x24
 12500 0015 00       		.byte	0
 12501 0016 0B       		.uleb128 0xb
 12502 0017 0B       		.uleb128 0xb
 12503 0018 3E       		.uleb128 0x3e
 12504 0019 0B       		.uleb128 0xb
 12505 001a 03       		.uleb128 0x3
 12506 001b 0E       		.uleb128 0xe
 12507 001c 00       		.byte	0
 12508 001d 00       		.byte	0
 12509 001e 03       		.uleb128 0x3
 12510 001f 24       		.uleb128 0x24
 12511 0020 00       		.byte	0
 12512 0021 0B       		.uleb128 0xb
 12513 0022 0B       		.uleb128 0xb
 12514 0023 3E       		.uleb128 0x3e
 12515 0024 0B       		.uleb128 0xb
 12516 0025 03       		.uleb128 0x3
 12517 0026 08       		.uleb128 0x8
 12518 0027 00       		.byte	0
 12519 0028 00       		.byte	0
 12520 0029 04       		.uleb128 0x4
 12521 002a 16       		.uleb128 0x16
 12522 002b 00       		.byte	0
 12523 002c 03       		.uleb128 0x3
 12524 002d 0E       		.uleb128 0xe
 12525 002e 3A       		.uleb128 0x3a
 12526 002f 0B       		.uleb128 0xb
 12527 0030 3B       		.uleb128 0x3b
 12528 0031 0B       		.uleb128 0xb
 12529 0032 49       		.uleb128 0x49
 12530 0033 13       		.uleb128 0x13
 12531 0034 00       		.byte	0
 12532 0035 00       		.byte	0
 12533 0036 05       		.uleb128 0x5
 12534 0037 13       		.uleb128 0x13
 12535 0038 01       		.byte	0x1
 12536 0039 03       		.uleb128 0x3
ARM GAS  /var/folders/7z/kps_xzfj7sn5l5gkyq8s9db00000gn/T//ccvBF34a.s 			page 223


 12537 003a 0E       		.uleb128 0xe
 12538 003b 0B       		.uleb128 0xb
 12539 003c 0B       		.uleb128 0xb
 12540 003d 3A       		.uleb128 0x3a
 12541 003e 0B       		.uleb128 0xb
 12542 003f 3B       		.uleb128 0x3b
 12543 0040 0B       		.uleb128 0xb
 12544 0041 01       		.uleb128 0x1
 12545 0042 13       		.uleb128 0x13
 12546 0043 00       		.byte	0
 12547 0044 00       		.byte	0
 12548 0045 06       		.uleb128 0x6
 12549 0046 0D       		.uleb128 0xd
 12550 0047 00       		.byte	0
 12551 0048 03       		.uleb128 0x3
 12552 0049 0E       		.uleb128 0xe
 12553 004a 3A       		.uleb128 0x3a
 12554 004b 0B       		.uleb128 0xb
 12555 004c 3B       		.uleb128 0x3b
 12556 004d 0B       		.uleb128 0xb
 12557 004e 49       		.uleb128 0x49
 12558 004f 13       		.uleb128 0x13
 12559 0050 38       		.uleb128 0x38
 12560 0051 0B       		.uleb128 0xb
 12561 0052 00       		.byte	0
 12562 0053 00       		.byte	0
 12563 0054 07       		.uleb128 0x7
 12564 0055 0D       		.uleb128 0xd
 12565 0056 00       		.byte	0
 12566 0057 03       		.uleb128 0x3
 12567 0058 08       		.uleb128 0x8
 12568 0059 3A       		.uleb128 0x3a
 12569 005a 0B       		.uleb128 0xb
 12570 005b 3B       		.uleb128 0x3b
 12571 005c 0B       		.uleb128 0xb
 12572 005d 49       		.uleb128 0x49
 12573 005e 13       		.uleb128 0x13
 12574 005f 38       		.uleb128 0x38
 12575 0060 0B       		.uleb128 0xb
 12576 0061 00       		.byte	0
 12577 0062 00       		.byte	0
 12578 0063 08       		.uleb128 0x8
 12579 0064 13       		.uleb128 0x13
 12580 0065 01       		.byte	0x1
 12581 0066 0B       		.uleb128 0xb
 12582 0067 0B       		.uleb128 0xb
 12583 0068 3A       		.uleb128 0x3a
 12584 0069 0B       		.uleb128 0xb
 12585 006a 3B       		.uleb128 0x3b
 12586 006b 0B       		.uleb128 0xb
 12587 006c 01       		.uleb128 0x1
 12588 006d 13       		.uleb128 0x13
 12589 006e 00       		.byte	0
 12590 006f 00       		.byte	0
 12591 0070 09       		.uleb128 0x9
 12592 0071 0F       		.uleb128 0xf
 12593 0072 00       		.byte	0
ARM GAS  /var/folders/7z/kps_xzfj7sn5l5gkyq8s9db00000gn/T//ccvBF34a.s 			page 224


 12594 0073 0B       		.uleb128 0xb
 12595 0074 0B       		.uleb128 0xb
 12596 0075 49       		.uleb128 0x49
 12597 0076 13       		.uleb128 0x13
 12598 0077 00       		.byte	0
 12599 0078 00       		.byte	0
 12600 0079 0A       		.uleb128 0xa
 12601 007a 0F       		.uleb128 0xf
 12602 007b 00       		.byte	0
 12603 007c 0B       		.uleb128 0xb
 12604 007d 0B       		.uleb128 0xb
 12605 007e 00       		.byte	0
 12606 007f 00       		.byte	0
 12607 0080 0B       		.uleb128 0xb
 12608 0081 13       		.uleb128 0x13
 12609 0082 01       		.byte	0x1
 12610 0083 03       		.uleb128 0x3
 12611 0084 0E       		.uleb128 0xe
 12612 0085 0B       		.uleb128 0xb
 12613 0086 0B       		.uleb128 0xb
 12614 0087 3A       		.uleb128 0x3a
 12615 0088 0B       		.uleb128 0xb
 12616 0089 3B       		.uleb128 0x3b
 12617 008a 05       		.uleb128 0x5
 12618 008b 01       		.uleb128 0x1
 12619 008c 13       		.uleb128 0x13
 12620 008d 00       		.byte	0
 12621 008e 00       		.byte	0
 12622 008f 0C       		.uleb128 0xc
 12623 0090 0D       		.uleb128 0xd
 12624 0091 00       		.byte	0
 12625 0092 03       		.uleb128 0x3
 12626 0093 08       		.uleb128 0x8
 12627 0094 3A       		.uleb128 0x3a
 12628 0095 0B       		.uleb128 0xb
 12629 0096 3B       		.uleb128 0x3b
 12630 0097 05       		.uleb128 0x5
 12631 0098 49       		.uleb128 0x49
 12632 0099 13       		.uleb128 0x13
 12633 009a 38       		.uleb128 0x38
 12634 009b 0B       		.uleb128 0xb
 12635 009c 00       		.byte	0
 12636 009d 00       		.byte	0
 12637 009e 0D       		.uleb128 0xd
 12638 009f 35       		.uleb128 0x35
 12639 00a0 00       		.byte	0
 12640 00a1 49       		.uleb128 0x49
 12641 00a2 13       		.uleb128 0x13
 12642 00a3 00       		.byte	0
 12643 00a4 00       		.byte	0
 12644 00a5 0E       		.uleb128 0xe
 12645 00a6 17       		.uleb128 0x17
 12646 00a7 01       		.byte	0x1
 12647 00a8 0B       		.uleb128 0xb
 12648 00a9 0B       		.uleb128 0xb
 12649 00aa 3A       		.uleb128 0x3a
 12650 00ab 0B       		.uleb128 0xb
ARM GAS  /var/folders/7z/kps_xzfj7sn5l5gkyq8s9db00000gn/T//ccvBF34a.s 			page 225


 12651 00ac 3B       		.uleb128 0x3b
 12652 00ad 0B       		.uleb128 0xb
 12653 00ae 01       		.uleb128 0x1
 12654 00af 13       		.uleb128 0x13
 12655 00b0 00       		.byte	0
 12656 00b1 00       		.byte	0
 12657 00b2 0F       		.uleb128 0xf
 12658 00b3 0D       		.uleb128 0xd
 12659 00b4 00       		.byte	0
 12660 00b5 03       		.uleb128 0x3
 12661 00b6 0E       		.uleb128 0xe
 12662 00b7 3A       		.uleb128 0x3a
 12663 00b8 0B       		.uleb128 0xb
 12664 00b9 3B       		.uleb128 0x3b
 12665 00ba 0B       		.uleb128 0xb
 12666 00bb 49       		.uleb128 0x49
 12667 00bc 13       		.uleb128 0x13
 12668 00bd 00       		.byte	0
 12669 00be 00       		.byte	0
 12670 00bf 10       		.uleb128 0x10
 12671 00c0 26       		.uleb128 0x26
 12672 00c1 00       		.byte	0
 12673 00c2 49       		.uleb128 0x49
 12674 00c3 13       		.uleb128 0x13
 12675 00c4 00       		.byte	0
 12676 00c5 00       		.byte	0
 12677 00c6 11       		.uleb128 0x11
 12678 00c7 15       		.uleb128 0x15
 12679 00c8 01       		.byte	0x1
 12680 00c9 27       		.uleb128 0x27
 12681 00ca 19       		.uleb128 0x19
 12682 00cb 49       		.uleb128 0x49
 12683 00cc 13       		.uleb128 0x13
 12684 00cd 01       		.uleb128 0x1
 12685 00ce 13       		.uleb128 0x13
 12686 00cf 00       		.byte	0
 12687 00d0 00       		.byte	0
 12688 00d1 12       		.uleb128 0x12
 12689 00d2 05       		.uleb128 0x5
 12690 00d3 00       		.byte	0
 12691 00d4 49       		.uleb128 0x49
 12692 00d5 13       		.uleb128 0x13
 12693 00d6 00       		.byte	0
 12694 00d7 00       		.byte	0
 12695 00d8 13       		.uleb128 0x13
 12696 00d9 04       		.uleb128 0x4
 12697 00da 01       		.byte	0x1
 12698 00db 03       		.uleb128 0x3
 12699 00dc 0E       		.uleb128 0xe
 12700 00dd 0B       		.uleb128 0xb
 12701 00de 0B       		.uleb128 0xb
 12702 00df 3A       		.uleb128 0x3a
 12703 00e0 0B       		.uleb128 0xb
 12704 00e1 3B       		.uleb128 0x3b
 12705 00e2 0B       		.uleb128 0xb
 12706 00e3 01       		.uleb128 0x1
 12707 00e4 13       		.uleb128 0x13
ARM GAS  /var/folders/7z/kps_xzfj7sn5l5gkyq8s9db00000gn/T//ccvBF34a.s 			page 226


 12708 00e5 00       		.byte	0
 12709 00e6 00       		.byte	0
 12710 00e7 14       		.uleb128 0x14
 12711 00e8 28       		.uleb128 0x28
 12712 00e9 00       		.byte	0
 12713 00ea 03       		.uleb128 0x3
 12714 00eb 0E       		.uleb128 0xe
 12715 00ec 1C       		.uleb128 0x1c
 12716 00ed 0D       		.uleb128 0xd
 12717 00ee 00       		.byte	0
 12718 00ef 00       		.byte	0
 12719 00f0 15       		.uleb128 0x15
 12720 00f1 17       		.uleb128 0x17
 12721 00f2 01       		.byte	0x1
 12722 00f3 0B       		.uleb128 0xb
 12723 00f4 0B       		.uleb128 0xb
 12724 00f5 3A       		.uleb128 0x3a
 12725 00f6 0B       		.uleb128 0xb
 12726 00f7 3B       		.uleb128 0x3b
 12727 00f8 05       		.uleb128 0x5
 12728 00f9 01       		.uleb128 0x1
 12729 00fa 13       		.uleb128 0x13
 12730 00fb 00       		.byte	0
 12731 00fc 00       		.byte	0
 12732 00fd 16       		.uleb128 0x16
 12733 00fe 0D       		.uleb128 0xd
 12734 00ff 00       		.byte	0
 12735 0100 03       		.uleb128 0x3
 12736 0101 08       		.uleb128 0x8
 12737 0102 3A       		.uleb128 0x3a
 12738 0103 0B       		.uleb128 0xb
 12739 0104 3B       		.uleb128 0x3b
 12740 0105 05       		.uleb128 0x5
 12741 0106 49       		.uleb128 0x49
 12742 0107 13       		.uleb128 0x13
 12743 0108 00       		.byte	0
 12744 0109 00       		.byte	0
 12745 010a 17       		.uleb128 0x17
 12746 010b 13       		.uleb128 0x13
 12747 010c 01       		.byte	0x1
 12748 010d 0B       		.uleb128 0xb
 12749 010e 05       		.uleb128 0x5
 12750 010f 3A       		.uleb128 0x3a
 12751 0110 0B       		.uleb128 0xb
 12752 0111 3B       		.uleb128 0x3b
 12753 0112 05       		.uleb128 0x5
 12754 0113 01       		.uleb128 0x1
 12755 0114 13       		.uleb128 0x13
 12756 0115 00       		.byte	0
 12757 0116 00       		.byte	0
 12758 0117 18       		.uleb128 0x18
 12759 0118 0D       		.uleb128 0xd
 12760 0119 00       		.byte	0
 12761 011a 03       		.uleb128 0x3
 12762 011b 0E       		.uleb128 0xe
 12763 011c 3A       		.uleb128 0x3a
 12764 011d 0B       		.uleb128 0xb
ARM GAS  /var/folders/7z/kps_xzfj7sn5l5gkyq8s9db00000gn/T//ccvBF34a.s 			page 227


 12765 011e 3B       		.uleb128 0x3b
 12766 011f 05       		.uleb128 0x5
 12767 0120 49       		.uleb128 0x49
 12768 0121 13       		.uleb128 0x13
 12769 0122 38       		.uleb128 0x38
 12770 0123 0B       		.uleb128 0xb
 12771 0124 00       		.byte	0
 12772 0125 00       		.byte	0
 12773 0126 19       		.uleb128 0x19
 12774 0127 0D       		.uleb128 0xd
 12775 0128 00       		.byte	0
 12776 0129 03       		.uleb128 0x3
 12777 012a 08       		.uleb128 0x8
 12778 012b 3A       		.uleb128 0x3a
 12779 012c 0B       		.uleb128 0xb
 12780 012d 3B       		.uleb128 0x3b
 12781 012e 05       		.uleb128 0x5
 12782 012f 49       		.uleb128 0x49
 12783 0130 13       		.uleb128 0x13
 12784 0131 38       		.uleb128 0x38
 12785 0132 05       		.uleb128 0x5
 12786 0133 00       		.byte	0
 12787 0134 00       		.byte	0
 12788 0135 1A       		.uleb128 0x1a
 12789 0136 0D       		.uleb128 0xd
 12790 0137 00       		.byte	0
 12791 0138 03       		.uleb128 0x3
 12792 0139 0E       		.uleb128 0xe
 12793 013a 3A       		.uleb128 0x3a
 12794 013b 0B       		.uleb128 0xb
 12795 013c 3B       		.uleb128 0x3b
 12796 013d 05       		.uleb128 0x5
 12797 013e 49       		.uleb128 0x49
 12798 013f 13       		.uleb128 0x13
 12799 0140 38       		.uleb128 0x38
 12800 0141 05       		.uleb128 0x5
 12801 0142 00       		.byte	0
 12802 0143 00       		.byte	0
 12803 0144 1B       		.uleb128 0x1b
 12804 0145 01       		.uleb128 0x1
 12805 0146 01       		.byte	0x1
 12806 0147 49       		.uleb128 0x49
 12807 0148 13       		.uleb128 0x13
 12808 0149 01       		.uleb128 0x1
 12809 014a 13       		.uleb128 0x13
 12810 014b 00       		.byte	0
 12811 014c 00       		.byte	0
 12812 014d 1C       		.uleb128 0x1c
 12813 014e 21       		.uleb128 0x21
 12814 014f 00       		.byte	0
 12815 0150 49       		.uleb128 0x49
 12816 0151 13       		.uleb128 0x13
 12817 0152 2F       		.uleb128 0x2f
 12818 0153 0B       		.uleb128 0xb
 12819 0154 00       		.byte	0
 12820 0155 00       		.byte	0
 12821 0156 1D       		.uleb128 0x1d
ARM GAS  /var/folders/7z/kps_xzfj7sn5l5gkyq8s9db00000gn/T//ccvBF34a.s 			page 228


 12822 0157 21       		.uleb128 0x21
 12823 0158 00       		.byte	0
 12824 0159 49       		.uleb128 0x49
 12825 015a 13       		.uleb128 0x13
 12826 015b 2F       		.uleb128 0x2f
 12827 015c 05       		.uleb128 0x5
 12828 015d 00       		.byte	0
 12829 015e 00       		.byte	0
 12830 015f 1E       		.uleb128 0x1e
 12831 0160 16       		.uleb128 0x16
 12832 0161 00       		.byte	0
 12833 0162 03       		.uleb128 0x3
 12834 0163 0E       		.uleb128 0xe
 12835 0164 3A       		.uleb128 0x3a
 12836 0165 0B       		.uleb128 0xb
 12837 0166 3B       		.uleb128 0x3b
 12838 0167 05       		.uleb128 0x5
 12839 0168 49       		.uleb128 0x49
 12840 0169 13       		.uleb128 0x13
 12841 016a 00       		.byte	0
 12842 016b 00       		.byte	0
 12843 016c 1F       		.uleb128 0x1f
 12844 016d 04       		.uleb128 0x4
 12845 016e 01       		.byte	0x1
 12846 016f 0B       		.uleb128 0xb
 12847 0170 0B       		.uleb128 0xb
 12848 0171 3A       		.uleb128 0x3a
 12849 0172 0B       		.uleb128 0xb
 12850 0173 3B       		.uleb128 0x3b
 12851 0174 05       		.uleb128 0x5
 12852 0175 01       		.uleb128 0x1
 12853 0176 13       		.uleb128 0x13
 12854 0177 00       		.byte	0
 12855 0178 00       		.byte	0
 12856 0179 20       		.uleb128 0x20
 12857 017a 13       		.uleb128 0x13
 12858 017b 01       		.byte	0x1
 12859 017c 0B       		.uleb128 0xb
 12860 017d 0B       		.uleb128 0xb
 12861 017e 3A       		.uleb128 0x3a
 12862 017f 0B       		.uleb128 0xb
 12863 0180 3B       		.uleb128 0x3b
 12864 0181 05       		.uleb128 0x5
 12865 0182 01       		.uleb128 0x1
 12866 0183 13       		.uleb128 0x13
 12867 0184 00       		.byte	0
 12868 0185 00       		.byte	0
 12869 0186 21       		.uleb128 0x21
 12870 0187 15       		.uleb128 0x15
 12871 0188 01       		.byte	0x1
 12872 0189 27       		.uleb128 0x27
 12873 018a 19       		.uleb128 0x19
 12874 018b 01       		.uleb128 0x1
 12875 018c 13       		.uleb128 0x13
 12876 018d 00       		.byte	0
 12877 018e 00       		.byte	0
 12878 018f 22       		.uleb128 0x22
ARM GAS  /var/folders/7z/kps_xzfj7sn5l5gkyq8s9db00000gn/T//ccvBF34a.s 			page 229


 12879 0190 0D       		.uleb128 0xd
 12880 0191 00       		.byte	0
 12881 0192 03       		.uleb128 0x3
 12882 0193 08       		.uleb128 0x8
 12883 0194 3A       		.uleb128 0x3a
 12884 0195 0B       		.uleb128 0xb
 12885 0196 3B       		.uleb128 0x3b
 12886 0197 0B       		.uleb128 0xb
 12887 0198 49       		.uleb128 0x49
 12888 0199 13       		.uleb128 0x13
 12889 019a 00       		.byte	0
 12890 019b 00       		.byte	0
 12891 019c 23       		.uleb128 0x23
 12892 019d 13       		.uleb128 0x13
 12893 019e 01       		.byte	0x1
 12894 019f 03       		.uleb128 0x3
 12895 01a0 0E       		.uleb128 0xe
 12896 01a1 0B       		.uleb128 0xb
 12897 01a2 05       		.uleb128 0x5
 12898 01a3 3A       		.uleb128 0x3a
 12899 01a4 0B       		.uleb128 0xb
 12900 01a5 3B       		.uleb128 0x3b
 12901 01a6 0B       		.uleb128 0xb
 12902 01a7 01       		.uleb128 0x1
 12903 01a8 13       		.uleb128 0x13
 12904 01a9 00       		.byte	0
 12905 01aa 00       		.byte	0
 12906 01ab 24       		.uleb128 0x24
 12907 01ac 0D       		.uleb128 0xd
 12908 01ad 00       		.byte	0
 12909 01ae 03       		.uleb128 0x3
 12910 01af 0E       		.uleb128 0xe
 12911 01b0 3A       		.uleb128 0x3a
 12912 01b1 0B       		.uleb128 0xb
 12913 01b2 3B       		.uleb128 0x3b
 12914 01b3 0B       		.uleb128 0xb
 12915 01b4 49       		.uleb128 0x49
 12916 01b5 13       		.uleb128 0x13
 12917 01b6 38       		.uleb128 0x38
 12918 01b7 05       		.uleb128 0x5
 12919 01b8 00       		.byte	0
 12920 01b9 00       		.byte	0
 12921 01ba 25       		.uleb128 0x25
 12922 01bb 15       		.uleb128 0x15
 12923 01bc 00       		.byte	0
 12924 01bd 27       		.uleb128 0x27
 12925 01be 19       		.uleb128 0x19
 12926 01bf 00       		.byte	0
 12927 01c0 00       		.byte	0
 12928 01c1 26       		.uleb128 0x26
 12929 01c2 13       		.uleb128 0x13
 12930 01c3 01       		.byte	0x1
 12931 01c4 03       		.uleb128 0x3
 12932 01c5 0E       		.uleb128 0xe
 12933 01c6 0B       		.uleb128 0xb
 12934 01c7 05       		.uleb128 0x5
 12935 01c8 3A       		.uleb128 0x3a
ARM GAS  /var/folders/7z/kps_xzfj7sn5l5gkyq8s9db00000gn/T//ccvBF34a.s 			page 230


 12936 01c9 0B       		.uleb128 0xb
 12937 01ca 3B       		.uleb128 0x3b
 12938 01cb 05       		.uleb128 0x5
 12939 01cc 01       		.uleb128 0x1
 12940 01cd 13       		.uleb128 0x13
 12941 01ce 00       		.byte	0
 12942 01cf 00       		.byte	0
 12943 01d0 27       		.uleb128 0x27
 12944 01d1 0D       		.uleb128 0xd
 12945 01d2 00       		.byte	0
 12946 01d3 03       		.uleb128 0x3
 12947 01d4 0E       		.uleb128 0xe
 12948 01d5 3A       		.uleb128 0x3a
 12949 01d6 0B       		.uleb128 0xb
 12950 01d7 3B       		.uleb128 0x3b
 12951 01d8 05       		.uleb128 0x5
 12952 01d9 49       		.uleb128 0x49
 12953 01da 13       		.uleb128 0x13
 12954 01db 00       		.byte	0
 12955 01dc 00       		.byte	0
 12956 01dd 28       		.uleb128 0x28
 12957 01de 04       		.uleb128 0x4
 12958 01df 01       		.byte	0x1
 12959 01e0 0B       		.uleb128 0xb
 12960 01e1 0B       		.uleb128 0xb
 12961 01e2 3A       		.uleb128 0x3a
 12962 01e3 0B       		.uleb128 0xb
 12963 01e4 3B       		.uleb128 0x3b
 12964 01e5 0B       		.uleb128 0xb
 12965 01e6 01       		.uleb128 0x1
 12966 01e7 13       		.uleb128 0x13
 12967 01e8 00       		.byte	0
 12968 01e9 00       		.byte	0
 12969 01ea 29       		.uleb128 0x29
 12970 01eb 0D       		.uleb128 0xd
 12971 01ec 00       		.byte	0
 12972 01ed 03       		.uleb128 0x3
 12973 01ee 0E       		.uleb128 0xe
 12974 01ef 3A       		.uleb128 0x3a
 12975 01f0 0B       		.uleb128 0xb
 12976 01f1 3B       		.uleb128 0x3b
 12977 01f2 0B       		.uleb128 0xb
 12978 01f3 49       		.uleb128 0x49
 12979 01f4 13       		.uleb128 0x13
 12980 01f5 0B       		.uleb128 0xb
 12981 01f6 0B       		.uleb128 0xb
 12982 01f7 0D       		.uleb128 0xd
 12983 01f8 0B       		.uleb128 0xb
 12984 01f9 0C       		.uleb128 0xc
 12985 01fa 0B       		.uleb128 0xb
 12986 01fb 38       		.uleb128 0x38
 12987 01fc 0B       		.uleb128 0xb
 12988 01fd 00       		.byte	0
 12989 01fe 00       		.byte	0
 12990 01ff 2A       		.uleb128 0x2a
 12991 0200 16       		.uleb128 0x16
 12992 0201 00       		.byte	0
ARM GAS  /var/folders/7z/kps_xzfj7sn5l5gkyq8s9db00000gn/T//ccvBF34a.s 			page 231


 12993 0202 03       		.uleb128 0x3
 12994 0203 08       		.uleb128 0x8
 12995 0204 3A       		.uleb128 0x3a
 12996 0205 0B       		.uleb128 0xb
 12997 0206 3B       		.uleb128 0x3b
 12998 0207 0B       		.uleb128 0xb
 12999 0208 49       		.uleb128 0x49
 13000 0209 13       		.uleb128 0x13
 13001 020a 00       		.byte	0
 13002 020b 00       		.byte	0
 13003 020c 2B       		.uleb128 0x2b
 13004 020d 2E       		.uleb128 0x2e
 13005 020e 01       		.byte	0x1
 13006 020f 03       		.uleb128 0x3
 13007 0210 0E       		.uleb128 0xe
 13008 0211 3A       		.uleb128 0x3a
 13009 0212 0B       		.uleb128 0xb
 13010 0213 3B       		.uleb128 0x3b
 13011 0214 05       		.uleb128 0x5
 13012 0215 27       		.uleb128 0x27
 13013 0216 19       		.uleb128 0x19
 13014 0217 49       		.uleb128 0x49
 13015 0218 13       		.uleb128 0x13
 13016 0219 20       		.uleb128 0x20
 13017 021a 0B       		.uleb128 0xb
 13018 021b 01       		.uleb128 0x1
 13019 021c 13       		.uleb128 0x13
 13020 021d 00       		.byte	0
 13021 021e 00       		.byte	0
 13022 021f 2C       		.uleb128 0x2c
 13023 0220 05       		.uleb128 0x5
 13024 0221 00       		.byte	0
 13025 0222 03       		.uleb128 0x3
 13026 0223 08       		.uleb128 0x8
 13027 0224 3A       		.uleb128 0x3a
 13028 0225 0B       		.uleb128 0xb
 13029 0226 3B       		.uleb128 0x3b
 13030 0227 05       		.uleb128 0x5
 13031 0228 49       		.uleb128 0x49
 13032 0229 13       		.uleb128 0x13
 13033 022a 00       		.byte	0
 13034 022b 00       		.byte	0
 13035 022c 2D       		.uleb128 0x2d
 13036 022d 2E       		.uleb128 0x2e
 13037 022e 01       		.byte	0x1
 13038 022f 3F       		.uleb128 0x3f
 13039 0230 19       		.uleb128 0x19
 13040 0231 03       		.uleb128 0x3
 13041 0232 0E       		.uleb128 0xe
 13042 0233 3A       		.uleb128 0x3a
 13043 0234 0B       		.uleb128 0xb
 13044 0235 3B       		.uleb128 0x3b
 13045 0236 05       		.uleb128 0x5
 13046 0237 27       		.uleb128 0x27
 13047 0238 19       		.uleb128 0x19
 13048 0239 20       		.uleb128 0x20
 13049 023a 0B       		.uleb128 0xb
ARM GAS  /var/folders/7z/kps_xzfj7sn5l5gkyq8s9db00000gn/T//ccvBF34a.s 			page 232


 13050 023b 01       		.uleb128 0x1
 13051 023c 13       		.uleb128 0x13
 13052 023d 00       		.byte	0
 13053 023e 00       		.byte	0
 13054 023f 2E       		.uleb128 0x2e
 13055 0240 05       		.uleb128 0x5
 13056 0241 00       		.byte	0
 13057 0242 03       		.uleb128 0x3
 13058 0243 0E       		.uleb128 0xe
 13059 0244 3A       		.uleb128 0x3a
 13060 0245 0B       		.uleb128 0xb
 13061 0246 3B       		.uleb128 0x3b
 13062 0247 05       		.uleb128 0x5
 13063 0248 49       		.uleb128 0x49
 13064 0249 13       		.uleb128 0x13
 13065 024a 00       		.byte	0
 13066 024b 00       		.byte	0
 13067 024c 2F       		.uleb128 0x2f
 13068 024d 2E       		.uleb128 0x2e
 13069 024e 01       		.byte	0x1
 13070 024f 3F       		.uleb128 0x3f
 13071 0250 19       		.uleb128 0x19
 13072 0251 03       		.uleb128 0x3
 13073 0252 0E       		.uleb128 0xe
 13074 0253 3A       		.uleb128 0x3a
 13075 0254 0B       		.uleb128 0xb
 13076 0255 3B       		.uleb128 0x3b
 13077 0256 05       		.uleb128 0x5
 13078 0257 27       		.uleb128 0x27
 13079 0258 19       		.uleb128 0x19
 13080 0259 49       		.uleb128 0x49
 13081 025a 13       		.uleb128 0x13
 13082 025b 20       		.uleb128 0x20
 13083 025c 0B       		.uleb128 0xb
 13084 025d 01       		.uleb128 0x1
 13085 025e 13       		.uleb128 0x13
 13086 025f 00       		.byte	0
 13087 0260 00       		.byte	0
 13088 0261 30       		.uleb128 0x30
 13089 0262 34       		.uleb128 0x34
 13090 0263 00       		.byte	0
 13091 0264 03       		.uleb128 0x3
 13092 0265 0E       		.uleb128 0xe
 13093 0266 3A       		.uleb128 0x3a
 13094 0267 0B       		.uleb128 0xb
 13095 0268 3B       		.uleb128 0x3b
 13096 0269 05       		.uleb128 0x5
 13097 026a 49       		.uleb128 0x49
 13098 026b 13       		.uleb128 0x13
 13099 026c 00       		.byte	0
 13100 026d 00       		.byte	0
 13101 026e 31       		.uleb128 0x31
 13102 026f 2E       		.uleb128 0x2e
 13103 0270 00       		.byte	0
 13104 0271 3F       		.uleb128 0x3f
 13105 0272 19       		.uleb128 0x19
 13106 0273 03       		.uleb128 0x3
ARM GAS  /var/folders/7z/kps_xzfj7sn5l5gkyq8s9db00000gn/T//ccvBF34a.s 			page 233


 13107 0274 0E       		.uleb128 0xe
 13108 0275 3A       		.uleb128 0x3a
 13109 0276 0B       		.uleb128 0xb
 13110 0277 3B       		.uleb128 0x3b
 13111 0278 05       		.uleb128 0x5
 13112 0279 27       		.uleb128 0x27
 13113 027a 19       		.uleb128 0x19
 13114 027b 20       		.uleb128 0x20
 13115 027c 0B       		.uleb128 0xb
 13116 027d 00       		.byte	0
 13117 027e 00       		.byte	0
 13118 027f 32       		.uleb128 0x32
 13119 0280 2E       		.uleb128 0x2e
 13120 0281 01       		.byte	0x1
 13121 0282 03       		.uleb128 0x3
 13122 0283 0E       		.uleb128 0xe
 13123 0284 3A       		.uleb128 0x3a
 13124 0285 0B       		.uleb128 0xb
 13125 0286 3B       		.uleb128 0x3b
 13126 0287 05       		.uleb128 0x5
 13127 0288 27       		.uleb128 0x27
 13128 0289 19       		.uleb128 0x19
 13129 028a 49       		.uleb128 0x49
 13130 028b 13       		.uleb128 0x13
 13131 028c 11       		.uleb128 0x11
 13132 028d 01       		.uleb128 0x1
 13133 028e 12       		.uleb128 0x12
 13134 028f 06       		.uleb128 0x6
 13135 0290 40       		.uleb128 0x40
 13136 0291 18       		.uleb128 0x18
 13137 0292 9742     		.uleb128 0x2117
 13138 0294 19       		.uleb128 0x19
 13139 0295 01       		.uleb128 0x1
 13140 0296 13       		.uleb128 0x13
 13141 0297 00       		.byte	0
 13142 0298 00       		.byte	0
 13143 0299 33       		.uleb128 0x33
 13144 029a 05       		.uleb128 0x5
 13145 029b 00       		.byte	0
 13146 029c 03       		.uleb128 0x3
 13147 029d 08       		.uleb128 0x8
 13148 029e 3A       		.uleb128 0x3a
 13149 029f 0B       		.uleb128 0xb
 13150 02a0 3B       		.uleb128 0x3b
 13151 02a1 05       		.uleb128 0x5
 13152 02a2 49       		.uleb128 0x49
 13153 02a3 13       		.uleb128 0x13
 13154 02a4 02       		.uleb128 0x2
 13155 02a5 17       		.uleb128 0x17
 13156 02a6 00       		.byte	0
 13157 02a7 00       		.byte	0
 13158 02a8 34       		.uleb128 0x34
 13159 02a9 898201   		.uleb128 0x4109
 13160 02ac 01       		.byte	0x1
 13161 02ad 11       		.uleb128 0x11
 13162 02ae 01       		.uleb128 0x1
 13163 02af 31       		.uleb128 0x31
ARM GAS  /var/folders/7z/kps_xzfj7sn5l5gkyq8s9db00000gn/T//ccvBF34a.s 			page 234


 13164 02b0 13       		.uleb128 0x13
 13165 02b1 00       		.byte	0
 13166 02b2 00       		.byte	0
 13167 02b3 35       		.uleb128 0x35
 13168 02b4 8A8201   		.uleb128 0x410a
 13169 02b7 00       		.byte	0
 13170 02b8 02       		.uleb128 0x2
 13171 02b9 18       		.uleb128 0x18
 13172 02ba 9142     		.uleb128 0x2111
 13173 02bc 18       		.uleb128 0x18
 13174 02bd 00       		.byte	0
 13175 02be 00       		.byte	0
 13176 02bf 36       		.uleb128 0x36
 13177 02c0 2E       		.uleb128 0x2e
 13178 02c1 01       		.byte	0x1
 13179 02c2 3F       		.uleb128 0x3f
 13180 02c3 19       		.uleb128 0x19
 13181 02c4 03       		.uleb128 0x3
 13182 02c5 0E       		.uleb128 0xe
 13183 02c6 3A       		.uleb128 0x3a
 13184 02c7 0B       		.uleb128 0xb
 13185 02c8 3B       		.uleb128 0x3b
 13186 02c9 05       		.uleb128 0x5
 13187 02ca 27       		.uleb128 0x27
 13188 02cb 19       		.uleb128 0x19
 13189 02cc 11       		.uleb128 0x11
 13190 02cd 01       		.uleb128 0x1
 13191 02ce 12       		.uleb128 0x12
 13192 02cf 06       		.uleb128 0x6
 13193 02d0 40       		.uleb128 0x40
 13194 02d1 18       		.uleb128 0x18
 13195 02d2 9742     		.uleb128 0x2117
 13196 02d4 19       		.uleb128 0x19
 13197 02d5 01       		.uleb128 0x1
 13198 02d6 13       		.uleb128 0x13
 13199 02d7 00       		.byte	0
 13200 02d8 00       		.byte	0
 13201 02d9 37       		.uleb128 0x37
 13202 02da 05       		.uleb128 0x5
 13203 02db 00       		.byte	0
 13204 02dc 03       		.uleb128 0x3
 13205 02dd 0E       		.uleb128 0xe
 13206 02de 3A       		.uleb128 0x3a
 13207 02df 0B       		.uleb128 0xb
 13208 02e0 3B       		.uleb128 0x3b
 13209 02e1 05       		.uleb128 0x5
 13210 02e2 49       		.uleb128 0x49
 13211 02e3 13       		.uleb128 0x13
 13212 02e4 02       		.uleb128 0x2
 13213 02e5 17       		.uleb128 0x17
 13214 02e6 00       		.byte	0
 13215 02e7 00       		.byte	0
 13216 02e8 38       		.uleb128 0x38
 13217 02e9 34       		.uleb128 0x34
 13218 02ea 00       		.byte	0
 13219 02eb 03       		.uleb128 0x3
 13220 02ec 0E       		.uleb128 0xe
ARM GAS  /var/folders/7z/kps_xzfj7sn5l5gkyq8s9db00000gn/T//ccvBF34a.s 			page 235


 13221 02ed 3A       		.uleb128 0x3a
 13222 02ee 0B       		.uleb128 0xb
 13223 02ef 3B       		.uleb128 0x3b
 13224 02f0 05       		.uleb128 0x5
 13225 02f1 49       		.uleb128 0x49
 13226 02f2 13       		.uleb128 0x13
 13227 02f3 1C       		.uleb128 0x1c
 13228 02f4 0A       		.uleb128 0xa
 13229 02f5 00       		.byte	0
 13230 02f6 00       		.byte	0
 13231 02f7 39       		.uleb128 0x39
 13232 02f8 898201   		.uleb128 0x4109
 13233 02fb 01       		.byte	0x1
 13234 02fc 11       		.uleb128 0x11
 13235 02fd 01       		.uleb128 0x1
 13236 02fe 9542     		.uleb128 0x2115
 13237 0300 19       		.uleb128 0x19
 13238 0301 31       		.uleb128 0x31
 13239 0302 13       		.uleb128 0x13
 13240 0303 00       		.byte	0
 13241 0304 00       		.byte	0
 13242 0305 3A       		.uleb128 0x3a
 13243 0306 2E       		.uleb128 0x2e
 13244 0307 01       		.byte	0x1
 13245 0308 3F       		.uleb128 0x3f
 13246 0309 19       		.uleb128 0x19
 13247 030a 03       		.uleb128 0x3
 13248 030b 0E       		.uleb128 0xe
 13249 030c 3A       		.uleb128 0x3a
 13250 030d 0B       		.uleb128 0xb
 13251 030e 3B       		.uleb128 0x3b
 13252 030f 0B       		.uleb128 0xb
 13253 0310 27       		.uleb128 0x27
 13254 0311 19       		.uleb128 0x19
 13255 0312 49       		.uleb128 0x49
 13256 0313 13       		.uleb128 0x13
 13257 0314 11       		.uleb128 0x11
 13258 0315 01       		.uleb128 0x1
 13259 0316 12       		.uleb128 0x12
 13260 0317 06       		.uleb128 0x6
 13261 0318 40       		.uleb128 0x40
 13262 0319 18       		.uleb128 0x18
 13263 031a 9742     		.uleb128 0x2117
 13264 031c 19       		.uleb128 0x19
 13265 031d 01       		.uleb128 0x1
 13266 031e 13       		.uleb128 0x13
 13267 031f 00       		.byte	0
 13268 0320 00       		.byte	0
 13269 0321 3B       		.uleb128 0x3b
 13270 0322 05       		.uleb128 0x5
 13271 0323 00       		.byte	0
 13272 0324 03       		.uleb128 0x3
 13273 0325 08       		.uleb128 0x8
 13274 0326 3A       		.uleb128 0x3a
 13275 0327 0B       		.uleb128 0xb
 13276 0328 3B       		.uleb128 0x3b
 13277 0329 05       		.uleb128 0x5
ARM GAS  /var/folders/7z/kps_xzfj7sn5l5gkyq8s9db00000gn/T//ccvBF34a.s 			page 236


 13278 032a 49       		.uleb128 0x49
 13279 032b 13       		.uleb128 0x13
 13280 032c 02       		.uleb128 0x2
 13281 032d 18       		.uleb128 0x18
 13282 032e 00       		.byte	0
 13283 032f 00       		.byte	0
 13284 0330 3C       		.uleb128 0x3c
 13285 0331 1D       		.uleb128 0x1d
 13286 0332 01       		.byte	0x1
 13287 0333 31       		.uleb128 0x31
 13288 0334 13       		.uleb128 0x13
 13289 0335 11       		.uleb128 0x11
 13290 0336 01       		.uleb128 0x1
 13291 0337 12       		.uleb128 0x12
 13292 0338 06       		.uleb128 0x6
 13293 0339 58       		.uleb128 0x58
 13294 033a 0B       		.uleb128 0xb
 13295 033b 59       		.uleb128 0x59
 13296 033c 05       		.uleb128 0x5
 13297 033d 00       		.byte	0
 13298 033e 00       		.byte	0
 13299 033f 3D       		.uleb128 0x3d
 13300 0340 05       		.uleb128 0x5
 13301 0341 00       		.byte	0
 13302 0342 31       		.uleb128 0x31
 13303 0343 13       		.uleb128 0x13
 13304 0344 02       		.uleb128 0x2
 13305 0345 18       		.uleb128 0x18
 13306 0346 00       		.byte	0
 13307 0347 00       		.byte	0
 13308 0348 3E       		.uleb128 0x3e
 13309 0349 2E       		.uleb128 0x2e
 13310 034a 01       		.byte	0x1
 13311 034b 3F       		.uleb128 0x3f
 13312 034c 19       		.uleb128 0x19
 13313 034d 03       		.uleb128 0x3
 13314 034e 0E       		.uleb128 0xe
 13315 034f 3A       		.uleb128 0x3a
 13316 0350 0B       		.uleb128 0xb
 13317 0351 3B       		.uleb128 0x3b
 13318 0352 05       		.uleb128 0x5
 13319 0353 27       		.uleb128 0x27
 13320 0354 19       		.uleb128 0x19
 13321 0355 49       		.uleb128 0x49
 13322 0356 13       		.uleb128 0x13
 13323 0357 11       		.uleb128 0x11
 13324 0358 01       		.uleb128 0x1
 13325 0359 12       		.uleb128 0x12
 13326 035a 06       		.uleb128 0x6
 13327 035b 40       		.uleb128 0x40
 13328 035c 18       		.uleb128 0x18
 13329 035d 9742     		.uleb128 0x2117
 13330 035f 19       		.uleb128 0x19
 13331 0360 01       		.uleb128 0x1
 13332 0361 13       		.uleb128 0x13
 13333 0362 00       		.byte	0
 13334 0363 00       		.byte	0
ARM GAS  /var/folders/7z/kps_xzfj7sn5l5gkyq8s9db00000gn/T//ccvBF34a.s 			page 237


 13335 0364 3F       		.uleb128 0x3f
 13336 0365 1D       		.uleb128 0x1d
 13337 0366 01       		.byte	0x1
 13338 0367 31       		.uleb128 0x31
 13339 0368 13       		.uleb128 0x13
 13340 0369 52       		.uleb128 0x52
 13341 036a 01       		.uleb128 0x1
 13342 036b 55       		.uleb128 0x55
 13343 036c 17       		.uleb128 0x17
 13344 036d 58       		.uleb128 0x58
 13345 036e 0B       		.uleb128 0xb
 13346 036f 59       		.uleb128 0x59
 13347 0370 05       		.uleb128 0x5
 13348 0371 00       		.byte	0
 13349 0372 00       		.byte	0
 13350 0373 40       		.uleb128 0x40
 13351 0374 898201   		.uleb128 0x4109
 13352 0377 01       		.byte	0x1
 13353 0378 11       		.uleb128 0x11
 13354 0379 01       		.uleb128 0x1
 13355 037a 31       		.uleb128 0x31
 13356 037b 13       		.uleb128 0x13
 13357 037c 01       		.uleb128 0x1
 13358 037d 13       		.uleb128 0x13
 13359 037e 00       		.byte	0
 13360 037f 00       		.byte	0
 13361 0380 41       		.uleb128 0x41
 13362 0381 2E       		.uleb128 0x2e
 13363 0382 01       		.byte	0x1
 13364 0383 31       		.uleb128 0x31
 13365 0384 13       		.uleb128 0x13
 13366 0385 11       		.uleb128 0x11
 13367 0386 01       		.uleb128 0x1
 13368 0387 12       		.uleb128 0x12
 13369 0388 06       		.uleb128 0x6
 13370 0389 40       		.uleb128 0x40
 13371 038a 18       		.uleb128 0x18
 13372 038b 9742     		.uleb128 0x2117
 13373 038d 19       		.uleb128 0x19
 13374 038e 01       		.uleb128 0x1
 13375 038f 13       		.uleb128 0x13
 13376 0390 00       		.byte	0
 13377 0391 00       		.byte	0
 13378 0392 42       		.uleb128 0x42
 13379 0393 05       		.uleb128 0x5
 13380 0394 00       		.byte	0
 13381 0395 03       		.uleb128 0x3
 13382 0396 0E       		.uleb128 0xe
 13383 0397 3A       		.uleb128 0x3a
 13384 0398 0B       		.uleb128 0xb
 13385 0399 3B       		.uleb128 0x3b
 13386 039a 05       		.uleb128 0x5
 13387 039b 49       		.uleb128 0x49
 13388 039c 13       		.uleb128 0x13
 13389 039d 02       		.uleb128 0x2
 13390 039e 18       		.uleb128 0x18
 13391 039f 00       		.byte	0
ARM GAS  /var/folders/7z/kps_xzfj7sn5l5gkyq8s9db00000gn/T//ccvBF34a.s 			page 238


 13392 03a0 00       		.byte	0
 13393 03a1 43       		.uleb128 0x43
 13394 03a2 34       		.uleb128 0x34
 13395 03a3 00       		.byte	0
 13396 03a4 03       		.uleb128 0x3
 13397 03a5 08       		.uleb128 0x8
 13398 03a6 3A       		.uleb128 0x3a
 13399 03a7 0B       		.uleb128 0xb
 13400 03a8 3B       		.uleb128 0x3b
 13401 03a9 05       		.uleb128 0x5
 13402 03aa 49       		.uleb128 0x49
 13403 03ab 13       		.uleb128 0x13
 13404 03ac 02       		.uleb128 0x2
 13405 03ad 17       		.uleb128 0x17
 13406 03ae 00       		.byte	0
 13407 03af 00       		.byte	0
 13408 03b0 44       		.uleb128 0x44
 13409 03b1 34       		.uleb128 0x34
 13410 03b2 00       		.byte	0
 13411 03b3 03       		.uleb128 0x3
 13412 03b4 08       		.uleb128 0x8
 13413 03b5 3A       		.uleb128 0x3a
 13414 03b6 0B       		.uleb128 0xb
 13415 03b7 3B       		.uleb128 0x3b
 13416 03b8 05       		.uleb128 0x5
 13417 03b9 49       		.uleb128 0x49
 13418 03ba 13       		.uleb128 0x13
 13419 03bb 02       		.uleb128 0x2
 13420 03bc 18       		.uleb128 0x18
 13421 03bd 00       		.byte	0
 13422 03be 00       		.byte	0
 13423 03bf 45       		.uleb128 0x45
 13424 03c0 1D       		.uleb128 0x1d
 13425 03c1 01       		.byte	0x1
 13426 03c2 31       		.uleb128 0x31
 13427 03c3 13       		.uleb128 0x13
 13428 03c4 52       		.uleb128 0x52
 13429 03c5 01       		.uleb128 0x1
 13430 03c6 55       		.uleb128 0x55
 13431 03c7 17       		.uleb128 0x17
 13432 03c8 58       		.uleb128 0x58
 13433 03c9 0B       		.uleb128 0xb
 13434 03ca 59       		.uleb128 0x59
 13435 03cb 05       		.uleb128 0x5
 13436 03cc 01       		.uleb128 0x1
 13437 03cd 13       		.uleb128 0x13
 13438 03ce 00       		.byte	0
 13439 03cf 00       		.byte	0
 13440 03d0 46       		.uleb128 0x46
 13441 03d1 1D       		.uleb128 0x1d
 13442 03d2 01       		.byte	0x1
 13443 03d3 31       		.uleb128 0x31
 13444 03d4 13       		.uleb128 0x13
 13445 03d5 11       		.uleb128 0x11
 13446 03d6 01       		.uleb128 0x1
 13447 03d7 12       		.uleb128 0x12
 13448 03d8 06       		.uleb128 0x6
ARM GAS  /var/folders/7z/kps_xzfj7sn5l5gkyq8s9db00000gn/T//ccvBF34a.s 			page 239


 13449 03d9 58       		.uleb128 0x58
 13450 03da 0B       		.uleb128 0xb
 13451 03db 59       		.uleb128 0x59
 13452 03dc 05       		.uleb128 0x5
 13453 03dd 01       		.uleb128 0x1
 13454 03de 13       		.uleb128 0x13
 13455 03df 00       		.byte	0
 13456 03e0 00       		.byte	0
 13457 03e1 47       		.uleb128 0x47
 13458 03e2 34       		.uleb128 0x34
 13459 03e3 00       		.byte	0
 13460 03e4 03       		.uleb128 0x3
 13461 03e5 08       		.uleb128 0x8
 13462 03e6 3A       		.uleb128 0x3a
 13463 03e7 0B       		.uleb128 0xb
 13464 03e8 3B       		.uleb128 0x3b
 13465 03e9 05       		.uleb128 0x5
 13466 03ea 49       		.uleb128 0x49
 13467 03eb 13       		.uleb128 0x13
 13468 03ec 1C       		.uleb128 0x1c
 13469 03ed 0B       		.uleb128 0xb
 13470 03ee 00       		.byte	0
 13471 03ef 00       		.byte	0
 13472 03f0 48       		.uleb128 0x48
 13473 03f1 05       		.uleb128 0x5
 13474 03f2 00       		.byte	0
 13475 03f3 31       		.uleb128 0x31
 13476 03f4 13       		.uleb128 0x13
 13477 03f5 02       		.uleb128 0x2
 13478 03f6 17       		.uleb128 0x17
 13479 03f7 00       		.byte	0
 13480 03f8 00       		.byte	0
 13481 03f9 49       		.uleb128 0x49
 13482 03fa 34       		.uleb128 0x34
 13483 03fb 00       		.byte	0
 13484 03fc 31       		.uleb128 0x31
 13485 03fd 13       		.uleb128 0x13
 13486 03fe 02       		.uleb128 0x2
 13487 03ff 17       		.uleb128 0x17
 13488 0400 00       		.byte	0
 13489 0401 00       		.byte	0
 13490 0402 4A       		.uleb128 0x4a
 13491 0403 0B       		.uleb128 0xb
 13492 0404 01       		.byte	0x1
 13493 0405 11       		.uleb128 0x11
 13494 0406 01       		.uleb128 0x1
 13495 0407 12       		.uleb128 0x12
 13496 0408 06       		.uleb128 0x6
 13497 0409 00       		.byte	0
 13498 040a 00       		.byte	0
 13499 040b 4B       		.uleb128 0x4b
 13500 040c 34       		.uleb128 0x34
 13501 040d 00       		.byte	0
 13502 040e 31       		.uleb128 0x31
 13503 040f 13       		.uleb128 0x13
 13504 0410 00       		.byte	0
 13505 0411 00       		.byte	0
ARM GAS  /var/folders/7z/kps_xzfj7sn5l5gkyq8s9db00000gn/T//ccvBF34a.s 			page 240


 13506 0412 4C       		.uleb128 0x4c
 13507 0413 898201   		.uleb128 0x4109
 13508 0416 00       		.byte	0
 13509 0417 11       		.uleb128 0x11
 13510 0418 01       		.uleb128 0x1
 13511 0419 31       		.uleb128 0x31
 13512 041a 13       		.uleb128 0x13
 13513 041b 00       		.byte	0
 13514 041c 00       		.byte	0
 13515 041d 4D       		.uleb128 0x4d
 13516 041e 2E       		.uleb128 0x2e
 13517 041f 00       		.byte	0
 13518 0420 31       		.uleb128 0x31
 13519 0421 13       		.uleb128 0x13
 13520 0422 11       		.uleb128 0x11
 13521 0423 01       		.uleb128 0x1
 13522 0424 12       		.uleb128 0x12
 13523 0425 06       		.uleb128 0x6
 13524 0426 40       		.uleb128 0x40
 13525 0427 18       		.uleb128 0x18
 13526 0428 9742     		.uleb128 0x2117
 13527 042a 19       		.uleb128 0x19
 13528 042b 00       		.byte	0
 13529 042c 00       		.byte	0
 13530 042d 4E       		.uleb128 0x4e
 13531 042e 2E       		.uleb128 0x2e
 13532 042f 00       		.byte	0
 13533 0430 3F       		.uleb128 0x3f
 13534 0431 19       		.uleb128 0x19
 13535 0432 03       		.uleb128 0x3
 13536 0433 0E       		.uleb128 0xe
 13537 0434 3A       		.uleb128 0x3a
 13538 0435 0B       		.uleb128 0xb
 13539 0436 3B       		.uleb128 0x3b
 13540 0437 05       		.uleb128 0x5
 13541 0438 27       		.uleb128 0x27
 13542 0439 19       		.uleb128 0x19
 13543 043a 11       		.uleb128 0x11
 13544 043b 01       		.uleb128 0x1
 13545 043c 12       		.uleb128 0x12
 13546 043d 06       		.uleb128 0x6
 13547 043e 40       		.uleb128 0x40
 13548 043f 18       		.uleb128 0x18
 13549 0440 9742     		.uleb128 0x2117
 13550 0442 19       		.uleb128 0x19
 13551 0443 00       		.byte	0
 13552 0444 00       		.byte	0
 13553 0445 4F       		.uleb128 0x4f
 13554 0446 898201   		.uleb128 0x4109
 13555 0449 00       		.byte	0
 13556 044a 11       		.uleb128 0x11
 13557 044b 01       		.uleb128 0x1
 13558 044c 9542     		.uleb128 0x2115
 13559 044e 19       		.uleb128 0x19
 13560 044f 31       		.uleb128 0x31
 13561 0450 13       		.uleb128 0x13
 13562 0451 00       		.byte	0
ARM GAS  /var/folders/7z/kps_xzfj7sn5l5gkyq8s9db00000gn/T//ccvBF34a.s 			page 241


 13563 0452 00       		.byte	0
 13564 0453 50       		.uleb128 0x50
 13565 0454 34       		.uleb128 0x34
 13566 0455 00       		.byte	0
 13567 0456 03       		.uleb128 0x3
 13568 0457 0E       		.uleb128 0xe
 13569 0458 3A       		.uleb128 0x3a
 13570 0459 0B       		.uleb128 0xb
 13571 045a 3B       		.uleb128 0x3b
 13572 045b 05       		.uleb128 0x5
 13573 045c 49       		.uleb128 0x49
 13574 045d 13       		.uleb128 0x13
 13575 045e 02       		.uleb128 0x2
 13576 045f 17       		.uleb128 0x17
 13577 0460 00       		.byte	0
 13578 0461 00       		.byte	0
 13579 0462 51       		.uleb128 0x51
 13580 0463 0B       		.uleb128 0xb
 13581 0464 01       		.byte	0x1
 13582 0465 55       		.uleb128 0x55
 13583 0466 17       		.uleb128 0x17
 13584 0467 00       		.byte	0
 13585 0468 00       		.byte	0
 13586 0469 52       		.uleb128 0x52
 13587 046a 1D       		.uleb128 0x1d
 13588 046b 00       		.byte	0
 13589 046c 31       		.uleb128 0x31
 13590 046d 13       		.uleb128 0x13
 13591 046e 11       		.uleb128 0x11
 13592 046f 01       		.uleb128 0x1
 13593 0470 12       		.uleb128 0x12
 13594 0471 06       		.uleb128 0x6
 13595 0472 58       		.uleb128 0x58
 13596 0473 0B       		.uleb128 0xb
 13597 0474 59       		.uleb128 0x59
 13598 0475 05       		.uleb128 0x5
 13599 0476 00       		.byte	0
 13600 0477 00       		.byte	0
 13601 0478 53       		.uleb128 0x53
 13602 0479 2E       		.uleb128 0x2e
 13603 047a 00       		.byte	0
 13604 047b 03       		.uleb128 0x3
 13605 047c 0E       		.uleb128 0xe
 13606 047d 3A       		.uleb128 0x3a
 13607 047e 0B       		.uleb128 0xb
 13608 047f 3B       		.uleb128 0x3b
 13609 0480 05       		.uleb128 0x5
 13610 0481 27       		.uleb128 0x27
 13611 0482 19       		.uleb128 0x19
 13612 0483 20       		.uleb128 0x20
 13613 0484 0B       		.uleb128 0xb
 13614 0485 00       		.byte	0
 13615 0486 00       		.byte	0
 13616 0487 54       		.uleb128 0x54
 13617 0488 34       		.uleb128 0x34
 13618 0489 00       		.byte	0
 13619 048a 03       		.uleb128 0x3
ARM GAS  /var/folders/7z/kps_xzfj7sn5l5gkyq8s9db00000gn/T//ccvBF34a.s 			page 242


 13620 048b 0E       		.uleb128 0xe
 13621 048c 3A       		.uleb128 0x3a
 13622 048d 0B       		.uleb128 0xb
 13623 048e 3B       		.uleb128 0x3b
 13624 048f 05       		.uleb128 0x5
 13625 0490 49       		.uleb128 0x49
 13626 0491 13       		.uleb128 0x13
 13627 0492 02       		.uleb128 0x2
 13628 0493 18       		.uleb128 0x18
 13629 0494 00       		.byte	0
 13630 0495 00       		.byte	0
 13631 0496 55       		.uleb128 0x55
 13632 0497 2E       		.uleb128 0x2e
 13633 0498 00       		.byte	0
 13634 0499 3F       		.uleb128 0x3f
 13635 049a 19       		.uleb128 0x19
 13636 049b 03       		.uleb128 0x3
 13637 049c 0E       		.uleb128 0xe
 13638 049d 3A       		.uleb128 0x3a
 13639 049e 0B       		.uleb128 0xb
 13640 049f 3B       		.uleb128 0x3b
 13641 04a0 05       		.uleb128 0x5
 13642 04a1 27       		.uleb128 0x27
 13643 04a2 19       		.uleb128 0x19
 13644 04a3 49       		.uleb128 0x49
 13645 04a4 13       		.uleb128 0x13
 13646 04a5 11       		.uleb128 0x11
 13647 04a6 01       		.uleb128 0x1
 13648 04a7 12       		.uleb128 0x12
 13649 04a8 06       		.uleb128 0x6
 13650 04a9 40       		.uleb128 0x40
 13651 04aa 18       		.uleb128 0x18
 13652 04ab 9742     		.uleb128 0x2117
 13653 04ad 19       		.uleb128 0x19
 13654 04ae 00       		.byte	0
 13655 04af 00       		.byte	0
 13656 04b0 56       		.uleb128 0x56
 13657 04b1 34       		.uleb128 0x34
 13658 04b2 00       		.byte	0
 13659 04b3 03       		.uleb128 0x3
 13660 04b4 0E       		.uleb128 0xe
 13661 04b5 3A       		.uleb128 0x3a
 13662 04b6 0B       		.uleb128 0xb
 13663 04b7 3B       		.uleb128 0x3b
 13664 04b8 0B       		.uleb128 0xb
 13665 04b9 49       		.uleb128 0x49
 13666 04ba 13       		.uleb128 0x13
 13667 04bb 02       		.uleb128 0x2
 13668 04bc 18       		.uleb128 0x18
 13669 04bd 00       		.byte	0
 13670 04be 00       		.byte	0
 13671 04bf 57       		.uleb128 0x57
 13672 04c0 34       		.uleb128 0x34
 13673 04c1 00       		.byte	0
 13674 04c2 03       		.uleb128 0x3
 13675 04c3 0E       		.uleb128 0xe
 13676 04c4 3A       		.uleb128 0x3a
ARM GAS  /var/folders/7z/kps_xzfj7sn5l5gkyq8s9db00000gn/T//ccvBF34a.s 			page 243


 13677 04c5 0B       		.uleb128 0xb
 13678 04c6 3B       		.uleb128 0x3b
 13679 04c7 0B       		.uleb128 0xb
 13680 04c8 49       		.uleb128 0x49
 13681 04c9 13       		.uleb128 0x13
 13682 04ca 3F       		.uleb128 0x3f
 13683 04cb 19       		.uleb128 0x19
 13684 04cc 3C       		.uleb128 0x3c
 13685 04cd 19       		.uleb128 0x19
 13686 04ce 00       		.byte	0
 13687 04cf 00       		.byte	0
 13688 04d0 58       		.uleb128 0x58
 13689 04d1 34       		.uleb128 0x34
 13690 04d2 00       		.byte	0
 13691 04d3 03       		.uleb128 0x3
 13692 04d4 0E       		.uleb128 0xe
 13693 04d5 3A       		.uleb128 0x3a
 13694 04d6 0B       		.uleb128 0xb
 13695 04d7 3B       		.uleb128 0x3b
 13696 04d8 05       		.uleb128 0x5
 13697 04d9 49       		.uleb128 0x49
 13698 04da 13       		.uleb128 0x13
 13699 04db 3F       		.uleb128 0x3f
 13700 04dc 19       		.uleb128 0x19
 13701 04dd 3C       		.uleb128 0x3c
 13702 04de 19       		.uleb128 0x19
 13703 04df 00       		.byte	0
 13704 04e0 00       		.byte	0
 13705 04e1 59       		.uleb128 0x59
 13706 04e2 34       		.uleb128 0x34
 13707 04e3 00       		.byte	0
 13708 04e4 03       		.uleb128 0x3
 13709 04e5 0E       		.uleb128 0xe
 13710 04e6 3A       		.uleb128 0x3a
 13711 04e7 0B       		.uleb128 0xb
 13712 04e8 3B       		.uleb128 0x3b
 13713 04e9 0B       		.uleb128 0xb
 13714 04ea 49       		.uleb128 0x49
 13715 04eb 13       		.uleb128 0x13
 13716 04ec 3F       		.uleb128 0x3f
 13717 04ed 19       		.uleb128 0x19
 13718 04ee 02       		.uleb128 0x2
 13719 04ef 18       		.uleb128 0x18
 13720 04f0 00       		.byte	0
 13721 04f1 00       		.byte	0
 13722 04f2 5A       		.uleb128 0x5a
 13723 04f3 34       		.uleb128 0x34
 13724 04f4 00       		.byte	0
 13725 04f5 03       		.uleb128 0x3
 13726 04f6 08       		.uleb128 0x8
 13727 04f7 3A       		.uleb128 0x3a
 13728 04f8 0B       		.uleb128 0xb
 13729 04f9 3B       		.uleb128 0x3b
 13730 04fa 0B       		.uleb128 0xb
 13731 04fb 49       		.uleb128 0x49
 13732 04fc 13       		.uleb128 0x13
 13733 04fd 3F       		.uleb128 0x3f
ARM GAS  /var/folders/7z/kps_xzfj7sn5l5gkyq8s9db00000gn/T//ccvBF34a.s 			page 244


 13734 04fe 19       		.uleb128 0x19
 13735 04ff 02       		.uleb128 0x2
 13736 0500 18       		.uleb128 0x18
 13737 0501 00       		.byte	0
 13738 0502 00       		.byte	0
 13739 0503 5B       		.uleb128 0x5b
 13740 0504 34       		.uleb128 0x34
 13741 0505 00       		.byte	0
 13742 0506 03       		.uleb128 0x3
 13743 0507 08       		.uleb128 0x8
 13744 0508 3A       		.uleb128 0x3a
 13745 0509 0B       		.uleb128 0xb
 13746 050a 3B       		.uleb128 0x3b
 13747 050b 05       		.uleb128 0x5
 13748 050c 49       		.uleb128 0x49
 13749 050d 13       		.uleb128 0x13
 13750 050e 3F       		.uleb128 0x3f
 13751 050f 19       		.uleb128 0x19
 13752 0510 02       		.uleb128 0x2
 13753 0511 18       		.uleb128 0x18
 13754 0512 00       		.byte	0
 13755 0513 00       		.byte	0
 13756 0514 5C       		.uleb128 0x5c
 13757 0515 34       		.uleb128 0x34
 13758 0516 00       		.byte	0
 13759 0517 03       		.uleb128 0x3
 13760 0518 0E       		.uleb128 0xe
 13761 0519 3A       		.uleb128 0x3a
 13762 051a 0B       		.uleb128 0xb
 13763 051b 3B       		.uleb128 0x3b
 13764 051c 05       		.uleb128 0x5
 13765 051d 49       		.uleb128 0x49
 13766 051e 13       		.uleb128 0x13
 13767 051f 3F       		.uleb128 0x3f
 13768 0520 19       		.uleb128 0x19
 13769 0521 02       		.uleb128 0x2
 13770 0522 18       		.uleb128 0x18
 13771 0523 00       		.byte	0
 13772 0524 00       		.byte	0
 13773 0525 5D       		.uleb128 0x5d
 13774 0526 2E       		.uleb128 0x2e
 13775 0527 01       		.byte	0x1
 13776 0528 3F       		.uleb128 0x3f
 13777 0529 19       		.uleb128 0x19
 13778 052a 03       		.uleb128 0x3
 13779 052b 0E       		.uleb128 0xe
 13780 052c 3A       		.uleb128 0x3a
 13781 052d 0B       		.uleb128 0xb
 13782 052e 3B       		.uleb128 0x3b
 13783 052f 05       		.uleb128 0x5
 13784 0530 27       		.uleb128 0x27
 13785 0531 19       		.uleb128 0x19
 13786 0532 3C       		.uleb128 0x3c
 13787 0533 19       		.uleb128 0x19
 13788 0534 01       		.uleb128 0x1
 13789 0535 13       		.uleb128 0x13
 13790 0536 00       		.byte	0
ARM GAS  /var/folders/7z/kps_xzfj7sn5l5gkyq8s9db00000gn/T//ccvBF34a.s 			page 245


 13791 0537 00       		.byte	0
 13792 0538 5E       		.uleb128 0x5e
 13793 0539 2E       		.uleb128 0x2e
 13794 053a 01       		.byte	0x1
 13795 053b 3F       		.uleb128 0x3f
 13796 053c 19       		.uleb128 0x19
 13797 053d 03       		.uleb128 0x3
 13798 053e 0E       		.uleb128 0xe
 13799 053f 3A       		.uleb128 0x3a
 13800 0540 0B       		.uleb128 0xb
 13801 0541 3B       		.uleb128 0x3b
 13802 0542 0B       		.uleb128 0xb
 13803 0543 27       		.uleb128 0x27
 13804 0544 19       		.uleb128 0x19
 13805 0545 3C       		.uleb128 0x3c
 13806 0546 19       		.uleb128 0x19
 13807 0547 01       		.uleb128 0x1
 13808 0548 13       		.uleb128 0x13
 13809 0549 00       		.byte	0
 13810 054a 00       		.byte	0
 13811 054b 5F       		.uleb128 0x5f
 13812 054c 2E       		.uleb128 0x2e
 13813 054d 01       		.byte	0x1
 13814 054e 3F       		.uleb128 0x3f
 13815 054f 19       		.uleb128 0x19
 13816 0550 03       		.uleb128 0x3
 13817 0551 0E       		.uleb128 0xe
 13818 0552 3A       		.uleb128 0x3a
 13819 0553 0B       		.uleb128 0xb
 13820 0554 3B       		.uleb128 0x3b
 13821 0555 05       		.uleb128 0x5
 13822 0556 27       		.uleb128 0x27
 13823 0557 19       		.uleb128 0x19
 13824 0558 49       		.uleb128 0x49
 13825 0559 13       		.uleb128 0x13
 13826 055a 3C       		.uleb128 0x3c
 13827 055b 19       		.uleb128 0x19
 13828 055c 01       		.uleb128 0x1
 13829 055d 13       		.uleb128 0x13
 13830 055e 00       		.byte	0
 13831 055f 00       		.byte	0
 13832 0560 60       		.uleb128 0x60
 13833 0561 2E       		.uleb128 0x2e
 13834 0562 00       		.byte	0
 13835 0563 3F       		.uleb128 0x3f
 13836 0564 19       		.uleb128 0x19
 13837 0565 03       		.uleb128 0x3
 13838 0566 0E       		.uleb128 0xe
 13839 0567 3A       		.uleb128 0x3a
 13840 0568 0B       		.uleb128 0xb
 13841 0569 3B       		.uleb128 0x3b
 13842 056a 0B       		.uleb128 0xb
 13843 056b 27       		.uleb128 0x27
 13844 056c 19       		.uleb128 0x19
 13845 056d 3C       		.uleb128 0x3c
 13846 056e 19       		.uleb128 0x19
 13847 056f 00       		.byte	0
ARM GAS  /var/folders/7z/kps_xzfj7sn5l5gkyq8s9db00000gn/T//ccvBF34a.s 			page 246


 13848 0570 00       		.byte	0
 13849 0571 61       		.uleb128 0x61
 13850 0572 2E       		.uleb128 0x2e
 13851 0573 01       		.byte	0x1
 13852 0574 3F       		.uleb128 0x3f
 13853 0575 19       		.uleb128 0x19
 13854 0576 03       		.uleb128 0x3
 13855 0577 0E       		.uleb128 0xe
 13856 0578 3A       		.uleb128 0x3a
 13857 0579 0B       		.uleb128 0xb
 13858 057a 3B       		.uleb128 0x3b
 13859 057b 05       		.uleb128 0x5
 13860 057c 27       		.uleb128 0x27
 13861 057d 19       		.uleb128 0x19
 13862 057e 3C       		.uleb128 0x3c
 13863 057f 19       		.uleb128 0x19
 13864 0580 00       		.byte	0
 13865 0581 00       		.byte	0
 13866 0582 00       		.byte	0
 13867              		.section	.debug_loc,"",%progbits
 13868              	.Ldebug_loc0:
 13869              	.LLST0:
 13870 0000 00000000 		.4byte	.LVL0
 13871 0004 0A000000 		.4byte	.LVL1
 13872 0008 0100     		.2byte	0x1
 13873 000a 50       		.byte	0x50
 13874 000b 0A000000 		.4byte	.LVL1
 13875 000f 1C000000 		.4byte	.LFE124
 13876 0013 0400     		.2byte	0x4
 13877 0015 F3       		.byte	0xf3
 13878 0016 01       		.uleb128 0x1
 13879 0017 50       		.byte	0x50
 13880 0018 9F       		.byte	0x9f
 13881 0019 00000000 		.4byte	0
 13882 001d 00000000 		.4byte	0
 13883              	.LLST1:
 13884 0021 00000000 		.4byte	.LVL3
 13885 0025 06000000 		.4byte	.LVL5
 13886 0029 0100     		.2byte	0x1
 13887 002b 50       		.byte	0x50
 13888 002c 06000000 		.4byte	.LVL5
 13889 0030 1C000000 		.4byte	.LFE123
 13890 0034 0400     		.2byte	0x4
 13891 0036 F3       		.byte	0xf3
 13892 0037 01       		.uleb128 0x1
 13893 0038 50       		.byte	0x50
 13894 0039 9F       		.byte	0x9f
 13895 003a 00000000 		.4byte	0
 13896 003e 00000000 		.4byte	0
 13897              	.LLST2:
 13898 0042 00000000 		.4byte	.LVL3
 13899 0046 04000000 		.4byte	.LVL4
 13900 004a 0100     		.2byte	0x1
 13901 004c 51       		.byte	0x51
 13902 004d 04000000 		.4byte	.LVL4
 13903 0051 1C000000 		.4byte	.LFE123
 13904 0055 0400     		.2byte	0x4
ARM GAS  /var/folders/7z/kps_xzfj7sn5l5gkyq8s9db00000gn/T//ccvBF34a.s 			page 247


 13905 0057 F3       		.byte	0xf3
 13906 0058 01       		.uleb128 0x1
 13907 0059 51       		.byte	0x51
 13908 005a 9F       		.byte	0x9f
 13909 005b 00000000 		.4byte	0
 13910 005f 00000000 		.4byte	0
 13911              	.LLST3:
 13912 0063 00000000 		.4byte	.LVL7
 13913 0067 0A000000 		.4byte	.LVL9
 13914 006b 0100     		.2byte	0x1
 13915 006d 51       		.byte	0x51
 13916 006e 0A000000 		.4byte	.LVL9
 13917 0072 24000000 		.4byte	.LFE121
 13918 0076 0400     		.2byte	0x4
 13919 0078 F3       		.byte	0xf3
 13920 0079 01       		.uleb128 0x1
 13921 007a 51       		.byte	0x51
 13922 007b 9F       		.byte	0x9f
 13923 007c 00000000 		.4byte	0
 13924 0080 00000000 		.4byte	0
 13925              	.LLST4:
 13926 0084 20000000 		.4byte	.LVL16
 13927 0088 56000000 		.4byte	.LVL18
 13928 008c 0200     		.2byte	0x2
 13929 008e 90       		.byte	0x90
 13930 008f 4E       		.uleb128 0x4e
 13931 0090 00000000 		.4byte	0
 13932 0094 00000000 		.4byte	0
 13933              	.LLST5:
 13934 0098 46000000 		.4byte	.LVL17
 13935 009c 56000000 		.4byte	.LVL18
 13936 00a0 0800     		.2byte	0x8
 13937 00a2 F5       		.byte	0xf5
 13938 00a3 4E       		.uleb128 0x4e
 13939 00a4 25       		.uleb128 0x25
 13940 00a5 F5       		.byte	0xf5
 13941 00a6 4D       		.uleb128 0x4d
 13942 00a7 25       		.uleb128 0x25
 13943 00a8 1C       		.byte	0x1c
 13944 00a9 9F       		.byte	0x9f
 13945 00aa 56000000 		.4byte	.LVL18
 13946 00ae 60000000 		.4byte	.LFE130
 13947 00b2 0200     		.2byte	0x2
 13948 00b4 90       		.byte	0x90
 13949 00b5 4E       		.uleb128 0x4e
 13950 00b6 00000000 		.4byte	0
 13951 00ba 00000000 		.4byte	0
 13952              	.LLST6:
 13953 00be 00000000 		.4byte	.LVL25
 13954 00c2 38000000 		.4byte	.LVL27
 13955 00c6 0200     		.2byte	0x2
 13956 00c8 90       		.byte	0x90
 13957 00c9 40       		.uleb128 0x40
 13958 00ca 38000000 		.4byte	.LVL27
 13959 00ce 3A000000 		.4byte	.LVL28
 13960 00d2 0600     		.2byte	0x6
 13961 00d4 F3       		.byte	0xf3
ARM GAS  /var/folders/7z/kps_xzfj7sn5l5gkyq8s9db00000gn/T//ccvBF34a.s 			page 248


 13962 00d5 03       		.uleb128 0x3
 13963 00d6 F5       		.byte	0xf5
 13964 00d7 40       		.uleb128 0x40
 13965 00d8 25       		.uleb128 0x25
 13966 00d9 9F       		.byte	0x9f
 13967 00da 3A000000 		.4byte	.LVL28
 13968 00de 52000000 		.4byte	.LVL29
 13969 00e2 0200     		.2byte	0x2
 13970 00e4 90       		.byte	0x90
 13971 00e5 40       		.uleb128 0x40
 13972 00e6 52000000 		.4byte	.LVL29
 13973 00ea 5C000000 		.4byte	.LFE133
 13974 00ee 0600     		.2byte	0x6
 13975 00f0 F3       		.byte	0xf3
 13976 00f1 03       		.uleb128 0x3
 13977 00f2 F5       		.byte	0xf5
 13978 00f3 40       		.uleb128 0x40
 13979 00f4 25       		.uleb128 0x25
 13980 00f5 9F       		.byte	0x9f
 13981 00f6 00000000 		.4byte	0
 13982 00fa 00000000 		.4byte	0
 13983              	.LLST7:
 13984 00fe 38000000 		.4byte	.LVL27
 13985 0102 3A000000 		.4byte	.LVL28
 13986 0106 0200     		.2byte	0x2
 13987 0108 90       		.byte	0x90
 13988 0109 40       		.uleb128 0x40
 13989 010a 52000000 		.4byte	.LVL29
 13990 010e 5C000000 		.4byte	.LFE133
 13991 0112 0200     		.2byte	0x2
 13992 0114 90       		.byte	0x90
 13993 0115 40       		.uleb128 0x40
 13994 0116 00000000 		.4byte	0
 13995 011a 00000000 		.4byte	0
 13996              	.LLST8:
 13997 011e 28000000 		.4byte	.LVL26
 13998 0122 38000000 		.4byte	.LVL27
 13999 0126 0200     		.2byte	0x2
 14000 0128 90       		.byte	0x90
 14001 0129 40       		.uleb128 0x40
 14002 012a 00000000 		.4byte	0
 14003 012e 00000000 		.4byte	0
 14004              	.LLST9:
 14005 0132 D4000000 		.4byte	.LVL32
 14006 0136 E2000000 		.4byte	.LVL33
 14007 013a 0200     		.2byte	0x2
 14008 013c 90       		.byte	0x90
 14009 013d 4F       		.uleb128 0x4f
 14010 013e E2000000 		.4byte	.LVL33
 14011 0142 03010000 		.4byte	.LVL34-1
 14012 0146 0A00     		.2byte	0xa
 14013 0148 03       		.byte	0x3
 14014 0149 00000000 		.4byte	CtrlParm
 14015 014d F6       		.byte	0xf6
 14016 014e 04       		.byte	0x4
 14017 014f 25       		.uleb128 0x25
 14018 0150 19       		.byte	0x19
ARM GAS  /var/folders/7z/kps_xzfj7sn5l5gkyq8s9db00000gn/T//ccvBF34a.s 			page 249


 14019 0151 9F       		.byte	0x9f
 14020 0152 78010000 		.4byte	.LVL36
 14021 0156 7E010000 		.4byte	.LVL37
 14022 015a 0200     		.2byte	0x2
 14023 015c 90       		.byte	0x90
 14024 015d 4F       		.uleb128 0x4f
 14025 015e 00000000 		.4byte	0
 14026 0162 00000000 		.4byte	0
 14027              	.LLST10:
 14028 0166 00000000 		.4byte	.LVL43
 14029 016a 16000000 		.4byte	.LVL46
 14030 016e 0100     		.2byte	0x1
 14031 0170 50       		.byte	0x50
 14032 0171 16000000 		.4byte	.LVL46
 14033 0175 48000000 		.4byte	.LFE134
 14034 0179 0400     		.2byte	0x4
 14035 017b F3       		.byte	0xf3
 14036 017c 01       		.uleb128 0x1
 14037 017d 50       		.byte	0x50
 14038 017e 9F       		.byte	0x9f
 14039 017f 00000000 		.4byte	0
 14040 0183 00000000 		.4byte	0
 14041              	.LLST11:
 14042 0187 00000000 		.4byte	.LVL43
 14043 018b 1E000000 		.4byte	.LVL47
 14044 018f 0100     		.2byte	0x1
 14045 0191 51       		.byte	0x51
 14046 0192 1E000000 		.4byte	.LVL47
 14047 0196 48000000 		.4byte	.LFE134
 14048 019a 0400     		.2byte	0x4
 14049 019c F3       		.byte	0xf3
 14050 019d 01       		.uleb128 0x1
 14051 019e 51       		.byte	0x51
 14052 019f 9F       		.byte	0x9f
 14053 01a0 00000000 		.4byte	0
 14054 01a4 00000000 		.4byte	0
 14055              	.LLST12:
 14056 01a8 08000000 		.4byte	.LVL44
 14057 01ac 16000000 		.4byte	.LVL46
 14058 01b0 0A00     		.2byte	0xa
 14059 01b2 70       		.byte	0x70
 14060 01b3 00       		.sleb128 0
 14061 01b4 72       		.byte	0x72
 14062 01b5 00       		.sleb128 0
 14063 01b6 40       		.byte	0x40
 14064 01b7 24       		.byte	0x24
 14065 01b8 40       		.byte	0x40
 14066 01b9 26       		.byte	0x26
 14067 01ba 1C       		.byte	0x1c
 14068 01bb 9F       		.byte	0x9f
 14069 01bc 16000000 		.4byte	.LVL46
 14070 01c0 48000000 		.4byte	.LFE134
 14071 01c4 0100     		.2byte	0x1
 14072 01c6 50       		.byte	0x50
 14073 01c7 00000000 		.4byte	0
 14074 01cb 00000000 		.4byte	0
 14075              	.LLST13:
ARM GAS  /var/folders/7z/kps_xzfj7sn5l5gkyq8s9db00000gn/T//ccvBF34a.s 			page 250


 14076 01cf 0A000000 		.4byte	.LVL45
 14077 01d3 1E000000 		.4byte	.LVL47
 14078 01d7 0A00     		.2byte	0xa
 14079 01d9 71       		.byte	0x71
 14080 01da 00       		.sleb128 0
 14081 01db 73       		.byte	0x73
 14082 01dc 00       		.sleb128 0
 14083 01dd 40       		.byte	0x40
 14084 01de 24       		.byte	0x24
 14085 01df 40       		.byte	0x40
 14086 01e0 26       		.byte	0x26
 14087 01e1 1C       		.byte	0x1c
 14088 01e2 9F       		.byte	0x9f
 14089 01e3 1E000000 		.4byte	.LVL47
 14090 01e7 48000000 		.4byte	.LFE134
 14091 01eb 0100     		.2byte	0x1
 14092 01ed 51       		.byte	0x51
 14093 01ee 00000000 		.4byte	0
 14094 01f2 00000000 		.4byte	0
 14095              	.LLST14:
 14096 01f6 00000000 		.4byte	.LVL51
 14097 01fa 0D000000 		.4byte	.LVL52-1
 14098 01fe 0100     		.2byte	0x1
 14099 0200 50       		.byte	0x50
 14100 0201 0D000000 		.4byte	.LVL52-1
 14101 0205 4A000000 		.4byte	.LVL53
 14102 0209 0100     		.2byte	0x1
 14103 020b 57       		.byte	0x57
 14104 020c 4A000000 		.4byte	.LVL53
 14105 0210 58000000 		.4byte	.LFE139
 14106 0214 0400     		.2byte	0x4
 14107 0216 F3       		.byte	0xf3
 14108 0217 01       		.uleb128 0x1
 14109 0218 50       		.byte	0x50
 14110 0219 9F       		.byte	0x9f
 14111 021a 00000000 		.4byte	0
 14112 021e 00000000 		.4byte	0
 14113              	.LLST15:
 14114 0222 00000000 		.4byte	.LVL51
 14115 0226 0D000000 		.4byte	.LVL52-1
 14116 022a 0100     		.2byte	0x1
 14117 022c 51       		.byte	0x51
 14118 022d 0D000000 		.4byte	.LVL52-1
 14119 0231 4A000000 		.4byte	.LVL53
 14120 0235 0100     		.2byte	0x1
 14121 0237 58       		.byte	0x58
 14122 0238 4A000000 		.4byte	.LVL53
 14123 023c 58000000 		.4byte	.LFE139
 14124 0240 0400     		.2byte	0x4
 14125 0242 F3       		.byte	0xf3
 14126 0243 01       		.uleb128 0x1
 14127 0244 51       		.byte	0x51
 14128 0245 9F       		.byte	0x9f
 14129 0246 00000000 		.4byte	0
 14130 024a 00000000 		.4byte	0
 14131              	.LLST16:
 14132 024e 00000000 		.4byte	.LVL51
ARM GAS  /var/folders/7z/kps_xzfj7sn5l5gkyq8s9db00000gn/T//ccvBF34a.s 			page 251


 14133 0252 0D000000 		.4byte	.LVL52-1
 14134 0256 0100     		.2byte	0x1
 14135 0258 52       		.byte	0x52
 14136 0259 0D000000 		.4byte	.LVL52-1
 14137 025d 4A000000 		.4byte	.LVL53
 14138 0261 0100     		.2byte	0x1
 14139 0263 56       		.byte	0x56
 14140 0264 4A000000 		.4byte	.LVL53
 14141 0268 58000000 		.4byte	.LFE139
 14142 026c 0400     		.2byte	0x4
 14143 026e F3       		.byte	0xf3
 14144 026f 01       		.uleb128 0x1
 14145 0270 52       		.byte	0x52
 14146 0271 9F       		.byte	0x9f
 14147 0272 00000000 		.4byte	0
 14148 0276 00000000 		.4byte	0
 14149              	.LLST17:
 14150 027a 00000000 		.4byte	.LVL68
 14151 027e 4B000000 		.4byte	.LVL69-1
 14152 0282 0100     		.2byte	0x1
 14153 0284 50       		.byte	0x50
 14154 0285 4B000000 		.4byte	.LVL69-1
 14155 0289 9C010000 		.4byte	.LFE142
 14156 028d 0400     		.2byte	0x4
 14157 028f F3       		.byte	0xf3
 14158 0290 01       		.uleb128 0x1
 14159 0291 50       		.byte	0x50
 14160 0292 9F       		.byte	0x9f
 14161 0293 00000000 		.4byte	0
 14162 0297 00000000 		.4byte	0
 14163              	.LLST18:
 14164 029b 86000000 		.4byte	.LVL71
 14165 029f 16010000 		.4byte	.LVL72
 14166 02a3 0200     		.2byte	0x2
 14167 02a5 90       		.byte	0x90
 14168 02a6 50       		.uleb128 0x50
 14169 02a7 16010000 		.4byte	.LVL72
 14170 02ab 30010000 		.4byte	.LVL73
 14171 02af 0D00     		.2byte	0xd
 14172 02b1 03       		.byte	0x3
 14173 02b2 00000000 		.4byte	Hall_SinCos
 14174 02b6 F6       		.byte	0xf6
 14175 02b7 04       		.byte	0x4
 14176 02b8 25       		.uleb128 0x25
 14177 02b9 F5       		.byte	0xf5
 14178 02ba 51       		.uleb128 0x51
 14179 02bb 25       		.uleb128 0x25
 14180 02bc 1C       		.byte	0x1c
 14181 02bd 9F       		.byte	0x9f
 14182 02be 30010000 		.4byte	.LVL73
 14183 02c2 4C010000 		.4byte	.LVL74
 14184 02c6 0200     		.2byte	0x2
 14185 02c8 90       		.byte	0x90
 14186 02c9 50       		.uleb128 0x50
 14187 02ca 4C010000 		.4byte	.LVL74
 14188 02ce 5C010000 		.4byte	.LVL75
 14189 02d2 0D00     		.2byte	0xd
ARM GAS  /var/folders/7z/kps_xzfj7sn5l5gkyq8s9db00000gn/T//ccvBF34a.s 			page 252


 14190 02d4 03       		.byte	0x3
 14191 02d5 00000000 		.4byte	Hall_SinCos
 14192 02d9 F6       		.byte	0xf6
 14193 02da 04       		.byte	0x4
 14194 02db 25       		.uleb128 0x25
 14195 02dc F5       		.byte	0xf5
 14196 02dd 51       		.uleb128 0x51
 14197 02de 25       		.uleb128 0x25
 14198 02df 1C       		.byte	0x1c
 14199 02e0 9F       		.byte	0x9f
 14200 02e1 5C010000 		.4byte	.LVL75
 14201 02e5 9C010000 		.4byte	.LFE142
 14202 02e9 0D00     		.2byte	0xd
 14203 02eb 03       		.byte	0x3
 14204 02ec 00000000 		.4byte	Hall_SinCos
 14205 02f0 F6       		.byte	0xf6
 14206 02f1 04       		.byte	0x4
 14207 02f2 25       		.uleb128 0x25
 14208 02f3 F5       		.byte	0xf5
 14209 02f4 51       		.uleb128 0x51
 14210 02f5 25       		.uleb128 0x25
 14211 02f6 1C       		.byte	0x1c
 14212 02f7 9F       		.byte	0x9f
 14213 02f8 00000000 		.4byte	0
 14214 02fc 00000000 		.4byte	0
 14215              	.LLST19:
 14216 0300 16000000 		.4byte	.LVL77
 14217 0304 18000000 		.4byte	.LVL78
 14218 0308 0100     		.2byte	0x1
 14219 030a 50       		.byte	0x50
 14220 030b 18000000 		.4byte	.LVL78
 14221 030f 7E000000 		.4byte	.LVL86
 14222 0313 0100     		.2byte	0x1
 14223 0315 55       		.byte	0x55
 14224 0316 00000000 		.4byte	0
 14225 031a 00000000 		.4byte	0
 14226              	.LLST20:
 14227 031e 20000000 		.4byte	.LVL80
 14228 0322 22000000 		.4byte	.LVL81
 14229 0326 0100     		.2byte	0x1
 14230 0328 50       		.byte	0x50
 14231 0329 22000000 		.4byte	.LVL81
 14232 032d 86000000 		.4byte	.LVL87
 14233 0331 0100     		.2byte	0x1
 14234 0333 54       		.byte	0x54
 14235 0334 00000000 		.4byte	0
 14236 0338 00000000 		.4byte	0
 14237              	.LLST21:
 14238 033c 62000000 		.4byte	.LVL83
 14239 0340 86000000 		.4byte	.LVL87
 14240 0344 0100     		.2byte	0x1
 14241 0346 54       		.byte	0x54
 14242 0347 00000000 		.4byte	0
 14243 034b 00000000 		.4byte	0
 14244              	.LLST22:
 14245 034f 62000000 		.4byte	.LVL83
 14246 0353 7E000000 		.4byte	.LVL86
ARM GAS  /var/folders/7z/kps_xzfj7sn5l5gkyq8s9db00000gn/T//ccvBF34a.s 			page 253


 14247 0357 0100     		.2byte	0x1
 14248 0359 55       		.byte	0x55
 14249 035a 00000000 		.4byte	0
 14250 035e 00000000 		.4byte	0
 14251              	.LLST23:
 14252 0362 66000000 		.4byte	.LVL84
 14253 0366 7E000000 		.4byte	.LVL86
 14254 036a 0A00     		.2byte	0xa
 14255 036c 75       		.byte	0x75
 14256 036d 00       		.sleb128 0
 14257 036e 7E       		.byte	0x7e
 14258 036f 00       		.sleb128 0
 14259 0370 40       		.byte	0x40
 14260 0371 24       		.byte	0x24
 14261 0372 40       		.byte	0x40
 14262 0373 26       		.byte	0x26
 14263 0374 1C       		.byte	0x1c
 14264 0375 9F       		.byte	0x9f
 14265 0376 7E000000 		.4byte	.LVL86
 14266 037a FC000000 		.4byte	.LVL92
 14267 037e 0100     		.2byte	0x1
 14268 0380 55       		.byte	0x55
 14269 0381 00000000 		.4byte	0
 14270 0385 00000000 		.4byte	0
 14271              	.LLST24:
 14272 0389 68000000 		.4byte	.LVL85
 14273 038d 86000000 		.4byte	.LVL87
 14274 0391 0A00     		.2byte	0xa
 14275 0393 74       		.byte	0x74
 14276 0394 00       		.sleb128 0
 14277 0395 71       		.byte	0x71
 14278 0396 00       		.sleb128 0
 14279 0397 40       		.byte	0x40
 14280 0398 24       		.byte	0x24
 14281 0399 40       		.byte	0x40
 14282 039a 26       		.byte	0x26
 14283 039b 1C       		.byte	0x1c
 14284 039c 9F       		.byte	0x9f
 14285 039d 86000000 		.4byte	.LVL87
 14286 03a1 FC000000 		.4byte	.LVL92
 14287 03a5 0100     		.2byte	0x1
 14288 03a7 54       		.byte	0x54
 14289 03a8 00000000 		.4byte	0
 14290 03ac 00000000 		.4byte	0
 14291              	.LLST25:
 14292 03b0 00000000 		.4byte	.LVL93
 14293 03b4 0B010000 		.4byte	.LVL94-1
 14294 03b8 0100     		.2byte	0x1
 14295 03ba 50       		.byte	0x50
 14296 03bb 0B010000 		.4byte	.LVL94-1
 14297 03bf 92010000 		.4byte	.LVL95
 14298 03c3 0100     		.2byte	0x1
 14299 03c5 54       		.byte	0x54
 14300 03c6 92010000 		.4byte	.LVL95
 14301 03ca D6010000 		.4byte	.LVL96
 14302 03ce 0100     		.2byte	0x1
 14303 03d0 50       		.byte	0x50
ARM GAS  /var/folders/7z/kps_xzfj7sn5l5gkyq8s9db00000gn/T//ccvBF34a.s 			page 254


 14304 03d1 D6010000 		.4byte	.LVL96
 14305 03d5 FC010000 		.4byte	.LFE143
 14306 03d9 0100     		.2byte	0x1
 14307 03db 54       		.byte	0x54
 14308 03dc 00000000 		.4byte	0
 14309 03e0 00000000 		.4byte	0
 14310              	.LLST26:
 14311 03e4 00000000 		.4byte	.LVL98
 14312 03e8 09000000 		.4byte	.LVL99-1
 14313 03ec 0100     		.2byte	0x1
 14314 03ee 50       		.byte	0x50
 14315 03ef 09000000 		.4byte	.LVL99-1
 14316 03f3 04050000 		.4byte	.LFE119
 14317 03f7 0400     		.2byte	0x4
 14318 03f9 F3       		.byte	0xf3
 14319 03fa 01       		.uleb128 0x1
 14320 03fb 50       		.byte	0x50
 14321 03fc 9F       		.byte	0x9f
 14322 03fd 00000000 		.4byte	0
 14323 0401 00000000 		.4byte	0
 14324              	.LLST27:
 14325 0405 28030000 		.4byte	.LVL156
 14326 0409 3E040000 		.4byte	.LVL162
 14327 040d 0300     		.2byte	0x3
 14328 040f 08       		.byte	0x8
 14329 0410 53       		.byte	0x53
 14330 0411 9F       		.byte	0x9f
 14331 0412 3E040000 		.4byte	.LVL162
 14332 0416 04050000 		.4byte	.LFE119
 14333 041a 0200     		.2byte	0x2
 14334 041c 37       		.byte	0x37
 14335 041d 9F       		.byte	0x9f
 14336 041e 00000000 		.4byte	0
 14337 0422 00000000 		.4byte	0
 14338              	.LLST28:
 14339 0426 00000000 		.4byte	.LVL172
 14340 042a 18000000 		.4byte	.LVL173
 14341 042e 0200     		.2byte	0x2
 14342 0430 90       		.byte	0x90
 14343 0431 40       		.uleb128 0x40
 14344 0432 18000000 		.4byte	.LVL173
 14345 0436 26000000 		.4byte	.LVL174
 14346 043a 0600     		.2byte	0x6
 14347 043c F3       		.byte	0xf3
 14348 043d 03       		.uleb128 0x3
 14349 043e F5       		.byte	0xf5
 14350 043f 40       		.uleb128 0x40
 14351 0440 25       		.uleb128 0x25
 14352 0441 9F       		.byte	0x9f
 14353 0442 26000000 		.4byte	.LVL174
 14354 0446 2A000000 		.4byte	.LVL175
 14355 044a 0200     		.2byte	0x2
 14356 044c 90       		.byte	0x90
 14357 044d 40       		.uleb128 0x40
 14358 044e 2A000000 		.4byte	.LVL175
 14359 0452 34000000 		.4byte	.LFE145
 14360 0456 0600     		.2byte	0x6
ARM GAS  /var/folders/7z/kps_xzfj7sn5l5gkyq8s9db00000gn/T//ccvBF34a.s 			page 255


 14361 0458 F3       		.byte	0xf3
 14362 0459 03       		.uleb128 0x3
 14363 045a F5       		.byte	0xf5
 14364 045b 40       		.uleb128 0x40
 14365 045c 25       		.uleb128 0x25
 14366 045d 9F       		.byte	0x9f
 14367 045e 00000000 		.4byte	0
 14368 0462 00000000 		.4byte	0
 14369              	.LLST29:
 14370 0466 00000000 		.4byte	.LVL186
 14371 046a 0A000000 		.4byte	.LVL187
 14372 046e 0100     		.2byte	0x1
 14373 0470 50       		.byte	0x50
 14374 0471 0A000000 		.4byte	.LVL187
 14375 0475 18000000 		.4byte	.LFE153
 14376 0479 0400     		.2byte	0x4
 14377 047b F3       		.byte	0xf3
 14378 047c 01       		.uleb128 0x1
 14379 047d 50       		.byte	0x50
 14380 047e 9F       		.byte	0x9f
 14381 047f 00000000 		.4byte	0
 14382 0483 00000000 		.4byte	0
 14383              		.section	.debug_aranges,"",%progbits
 14384 0000 2C010000 		.4byte	0x12c
 14385 0004 0200     		.2byte	0x2
 14386 0006 00000000 		.4byte	.Ldebug_info0
 14387 000a 04       		.byte	0x4
 14388 000b 00       		.byte	0
 14389 000c 0000     		.2byte	0
 14390 000e 0000     		.2byte	0
 14391 0010 00000000 		.4byte	.LFB124
 14392 0014 1C000000 		.4byte	.LFE124-.LFB124
 14393 0018 00000000 		.4byte	.LFB123
 14394 001c 1C000000 		.4byte	.LFE123-.LFB123
 14395 0020 00000000 		.4byte	.LFB121
 14396 0024 24000000 		.4byte	.LFE121-.LFB121
 14397 0028 00000000 		.4byte	.LFB125
 14398 002c 84000000 		.4byte	.LFE125-.LFB125
 14399 0030 00000000 		.4byte	.LFB127
 14400 0034 68000000 		.4byte	.LFE127-.LFB127
 14401 0038 00000000 		.4byte	.LFB129
 14402 003c 08000000 		.4byte	.LFE129-.LFB129
 14403 0040 00000000 		.4byte	.LFB130
 14404 0044 60000000 		.4byte	.LFE130-.LFB130
 14405 0048 00000000 		.4byte	.LFB131
 14406 004c 98000000 		.4byte	.LFE131-.LFB131
 14407 0050 00000000 		.4byte	.LFB132
 14408 0054 02000000 		.4byte	.LFE132-.LFB132
 14409 0058 00000000 		.4byte	.LFB133
 14410 005c 5C000000 		.4byte	.LFE133-.LFB133
 14411 0060 00000000 		.4byte	.LFB128
 14412 0064 44020000 		.4byte	.LFE128-.LFB128
 14413 0068 00000000 		.4byte	.LFB134
 14414 006c 48000000 		.4byte	.LFE134-.LFB134
 14415 0070 00000000 		.4byte	.LFB135
 14416 0074 0C000000 		.4byte	.LFE135-.LFB135
 14417 0078 00000000 		.4byte	.LFB136
ARM GAS  /var/folders/7z/kps_xzfj7sn5l5gkyq8s9db00000gn/T//ccvBF34a.s 			page 256


 14418 007c 4C000000 		.4byte	.LFE136-.LFB136
 14419 0080 00000000 		.4byte	.LFB137
 14420 0084 48000000 		.4byte	.LFE137-.LFB137
 14421 0088 00000000 		.4byte	.LFB138
 14422 008c 6C000000 		.4byte	.LFE138-.LFB138
 14423 0090 00000000 		.4byte	.LFB139
 14424 0094 58000000 		.4byte	.LFE139-.LFB139
 14425 0098 00000000 		.4byte	.LFB140
 14426 009c 04010000 		.4byte	.LFE140-.LFB140
 14427 00a0 00000000 		.4byte	.LFB141
 14428 00a4 30000000 		.4byte	.LFE141-.LFB141
 14429 00a8 00000000 		.4byte	.LFB142
 14430 00ac 9C010000 		.4byte	.LFE142-.LFB142
 14431 00b0 00000000 		.4byte	.LFB122
 14432 00b4 3C010000 		.4byte	.LFE122-.LFB122
 14433 00b8 00000000 		.4byte	.LFB143
 14434 00bc FC010000 		.4byte	.LFE143-.LFB143
 14435 00c0 00000000 		.4byte	.LFB126
 14436 00c4 F8000000 		.4byte	.LFE126-.LFB126
 14437 00c8 00000000 		.4byte	.LFB144
 14438 00cc AC000000 		.4byte	.LFE144-.LFB144
 14439 00d0 00000000 		.4byte	.LFB119
 14440 00d4 04050000 		.4byte	.LFE119-.LFB119
 14441 00d8 00000000 		.4byte	.LFB145
 14442 00dc 34000000 		.4byte	.LFE145-.LFB145
 14443 00e0 00000000 		.4byte	.LFB147
 14444 00e4 70000000 		.4byte	.LFE147-.LFB147
 14445 00e8 00000000 		.4byte	.LFB148
 14446 00ec 24000000 		.4byte	.LFE148-.LFB148
 14447 00f0 00000000 		.4byte	.LFB150
 14448 00f4 24000000 		.4byte	.LFE150-.LFB150
 14449 00f8 00000000 		.4byte	.LFB151
 14450 00fc 04000000 		.4byte	.LFE151-.LFB151
 14451 0100 00000000 		.4byte	.LFB152
 14452 0104 0C000000 		.4byte	.LFE152-.LFB152
 14453 0108 00000000 		.4byte	.LFB153
 14454 010c 18000000 		.4byte	.LFE153-.LFB153
 14455 0110 00000000 		.4byte	.LFB154
 14456 0114 02000000 		.4byte	.LFE154-.LFB154
 14457 0118 00000000 		.4byte	.LFB155
 14458 011c 08000000 		.4byte	.LFE155-.LFB155
 14459 0120 00000000 		.4byte	.LFB156
 14460 0124 02000000 		.4byte	.LFE156-.LFB156
 14461 0128 00000000 		.4byte	0
 14462 012c 00000000 		.4byte	0
 14463              		.section	.debug_ranges,"",%progbits
 14464              	.Ldebug_ranges0:
 14465 0000 3E000000 		.4byte	.LBB24
 14466 0004 40000000 		.4byte	.LBE24
 14467 0008 42000000 		.4byte	.LBB27
 14468 000c 44000000 		.4byte	.LBE27
 14469 0010 00000000 		.4byte	0
 14470 0014 00000000 		.4byte	0
 14471 0018 22000000 		.4byte	.LBB28
 14472 001c 24000000 		.4byte	.LBE28
 14473 0020 40000000 		.4byte	.LBB31
 14474 0024 44000000 		.4byte	.LBE31
ARM GAS  /var/folders/7z/kps_xzfj7sn5l5gkyq8s9db00000gn/T//ccvBF34a.s 			page 257


 14475 0028 00000000 		.4byte	0
 14476 002c 00000000 		.4byte	0
 14477 0030 C4000000 		.4byte	.LBB42
 14478 0034 C6000000 		.4byte	.LBE42
 14479 0038 CC000000 		.4byte	.LBB47
 14480 003c D0000000 		.4byte	.LBE47
 14481 0040 D4000000 		.4byte	.LBB48
 14482 0044 F0000000 		.4byte	.LBE48
 14483 0048 78010000 		.4byte	.LBB49
 14484 004c 7E010000 		.4byte	.LBE49
 14485 0050 00000000 		.4byte	0
 14486 0054 00000000 		.4byte	0
 14487 0058 4C000000 		.4byte	.LBB50
 14488 005c 4E000000 		.4byte	.LBE50
 14489 0060 54000000 		.4byte	.LBB57
 14490 0064 56000000 		.4byte	.LBE57
 14491 0068 62000000 		.4byte	.LBB58
 14492 006c 70000000 		.4byte	.LBE58
 14493 0070 76000000 		.4byte	.LBB59
 14494 0074 92000000 		.4byte	.LBE59
 14495 0078 94000000 		.4byte	.LBB60
 14496 007c 9C000000 		.4byte	.LBE60
 14497 0080 A4000000 		.4byte	.LBB61
 14498 0084 AC000000 		.4byte	.LBE61
 14499 0088 00000000 		.4byte	0
 14500 008c 00000000 		.4byte	0
 14501 0090 DA030000 		.4byte	.LBB68
 14502 0094 DC030000 		.4byte	.LBE68
 14503 0098 E8030000 		.4byte	.LBB72
 14504 009c 32040000 		.4byte	.LBE72
 14505 00a0 38040000 		.4byte	.LBB73
 14506 00a4 3A040000 		.4byte	.LBE73
 14507 00a8 00000000 		.4byte	0
 14508 00ac 00000000 		.4byte	0
 14509 00b0 5E040000 		.4byte	.LBB74
 14510 00b4 60040000 		.4byte	.LBE74
 14511 00b8 90040000 		.4byte	.LBB77
 14512 00bc A4040000 		.4byte	.LBE77
 14513 00c0 00000000 		.4byte	0
 14514 00c4 00000000 		.4byte	0
 14515 00c8 00000000 		.4byte	.LFB124
 14516 00cc 1C000000 		.4byte	.LFE124
 14517 00d0 00000000 		.4byte	.LFB123
 14518 00d4 1C000000 		.4byte	.LFE123
 14519 00d8 00000000 		.4byte	.LFB121
 14520 00dc 24000000 		.4byte	.LFE121
 14521 00e0 00000000 		.4byte	.LFB125
 14522 00e4 84000000 		.4byte	.LFE125
 14523 00e8 00000000 		.4byte	.LFB127
 14524 00ec 68000000 		.4byte	.LFE127
 14525 00f0 00000000 		.4byte	.LFB129
 14526 00f4 08000000 		.4byte	.LFE129
 14527 00f8 00000000 		.4byte	.LFB130
 14528 00fc 60000000 		.4byte	.LFE130
 14529 0100 00000000 		.4byte	.LFB131
 14530 0104 98000000 		.4byte	.LFE131
 14531 0108 00000000 		.4byte	.LFB132
ARM GAS  /var/folders/7z/kps_xzfj7sn5l5gkyq8s9db00000gn/T//ccvBF34a.s 			page 258


 14532 010c 02000000 		.4byte	.LFE132
 14533 0110 00000000 		.4byte	.LFB133
 14534 0114 5C000000 		.4byte	.LFE133
 14535 0118 00000000 		.4byte	.LFB128
 14536 011c 44020000 		.4byte	.LFE128
 14537 0120 00000000 		.4byte	.LFB134
 14538 0124 48000000 		.4byte	.LFE134
 14539 0128 00000000 		.4byte	.LFB135
 14540 012c 0C000000 		.4byte	.LFE135
 14541 0130 00000000 		.4byte	.LFB136
 14542 0134 4C000000 		.4byte	.LFE136
 14543 0138 00000000 		.4byte	.LFB137
 14544 013c 48000000 		.4byte	.LFE137
 14545 0140 00000000 		.4byte	.LFB138
 14546 0144 6C000000 		.4byte	.LFE138
 14547 0148 00000000 		.4byte	.LFB139
 14548 014c 58000000 		.4byte	.LFE139
 14549 0150 00000000 		.4byte	.LFB140
 14550 0154 04010000 		.4byte	.LFE140
 14551 0158 00000000 		.4byte	.LFB141
 14552 015c 30000000 		.4byte	.LFE141
 14553 0160 00000000 		.4byte	.LFB142
 14554 0164 9C010000 		.4byte	.LFE142
 14555 0168 00000000 		.4byte	.LFB122
 14556 016c 3C010000 		.4byte	.LFE122
 14557 0170 00000000 		.4byte	.LFB143
 14558 0174 FC010000 		.4byte	.LFE143
 14559 0178 00000000 		.4byte	.LFB126
 14560 017c F8000000 		.4byte	.LFE126
 14561 0180 00000000 		.4byte	.LFB144
 14562 0184 AC000000 		.4byte	.LFE144
 14563 0188 00000000 		.4byte	.LFB119
 14564 018c 04050000 		.4byte	.LFE119
 14565 0190 00000000 		.4byte	.LFB145
 14566 0194 34000000 		.4byte	.LFE145
 14567 0198 00000000 		.4byte	.LFB147
 14568 019c 70000000 		.4byte	.LFE147
 14569 01a0 00000000 		.4byte	.LFB148
 14570 01a4 24000000 		.4byte	.LFE148
 14571 01a8 00000000 		.4byte	.LFB150
 14572 01ac 24000000 		.4byte	.LFE150
 14573 01b0 00000000 		.4byte	.LFB151
 14574 01b4 04000000 		.4byte	.LFE151
 14575 01b8 00000000 		.4byte	.LFB152
 14576 01bc 0C000000 		.4byte	.LFE152
 14577 01c0 00000000 		.4byte	.LFB153
 14578 01c4 18000000 		.4byte	.LFE153
 14579 01c8 00000000 		.4byte	.LFB154
 14580 01cc 02000000 		.4byte	.LFE154
 14581 01d0 00000000 		.4byte	.LFB155
 14582 01d4 08000000 		.4byte	.LFE155
 14583 01d8 00000000 		.4byte	.LFB156
 14584 01dc 02000000 		.4byte	.LFE156
 14585 01e0 00000000 		.4byte	0
 14586 01e4 00000000 		.4byte	0
 14587              		.section	.debug_line,"",%progbits
 14588              	.Ldebug_line0:
ARM GAS  /var/folders/7z/kps_xzfj7sn5l5gkyq8s9db00000gn/T//ccvBF34a.s 			page 259


 14589 0000 B90B0000 		.section	.debug_str,"MS",%progbits,1
 14589      0200B503 
 14589      00000201 
 14589      FB0E0D00 
 14589      01010101 
 14590              	.LASF457:
 14591 0000 6C5F6D61 		.ascii	"l_max_erpm_fbrake\000"
 14591      785F6572 
 14591      706D5F66 
 14591      6272616B 
 14591      6500
 14592              	.LASF454:
 14593 0012 6C5F6162 		.ascii	"l_abs_current_max\000"
 14593      735F6375 
 14593      7272656E 
 14593      745F6D61 
 14593      7800
 14594              	.LASF113:
 14595 0024 54494D32 		.ascii	"TIM2_IRQn\000"
 14595      5F495251 
 14595      6E00
 14596              	.LASF152:
 14597 002e 4F54475F 		.ascii	"OTG_FS_IRQn\000"
 14597      46535F49 
 14597      52516E00 
 14598              	.LASF57:
 14599 003a 696E7463 		.ascii	"intctx\000"
 14599      747800
 14600              	.LASF521:
 14601 0041 5A626574 		.ascii	"Zbeta\000"
 14601      6100
 14602              	.LASF758:
 14603 0047 57574447 		.ascii	"WWDG_Enable\000"
 14603      5F456E61 
 14603      626C6500 
 14604              	.LASF561:
 14605 0053 71467743 		.ascii	"qFwCurve\000"
 14605      75727665 
 14605      00
 14606              	.LASF30:
 14607 005c 6D73675F 		.ascii	"msg_t\000"
 14607      7400
 14608              	.LASF687:
 14609 0062 48616C6C 		.ascii	"HallPLLqe\000"
 14609      504C4C71 
 14609      6500
 14610              	.LASF533:
 14611 006c 54686574 		.ascii	"Theta\000"
 14611      6100
 14612              	.LASF258:
 14613 0072 444D415F 		.ascii	"DMA_MemoryBurst\000"
 14613      4D656D6F 
 14613      72794275 
 14613      72737400 
 14614              	.LASF147:
 14615 0082 4554485F 		.ascii	"ETH_WKUP_IRQn\000"
 14615      574B5550 
ARM GAS  /var/folders/7z/kps_xzfj7sn5l5gkyq8s9db00000gn/T//ccvBF34a.s 			page 260


 14615      5F495251 
 14615      6E00
 14616              	.LASF179:
 14617 0090 50494430 		.ascii	"PID0\000"
 14617      00
 14618              	.LASF180:
 14619 0095 50494431 		.ascii	"PID1\000"
 14619      00
 14620              	.LASF181:
 14621 009a 50494432 		.ascii	"PID2\000"
 14621      00
 14622              	.LASF182:
 14623 009f 50494433 		.ascii	"PID3\000"
 14623      00
 14624              	.LASF175:
 14625 00a4 50494434 		.ascii	"PID4\000"
 14625      00
 14626              	.LASF176:
 14627 00a9 50494435 		.ascii	"PID5\000"
 14627      00
 14628              	.LASF128:
 14629 00ae 54494D38 		.ascii	"TIM8_BRK_TIM12_IRQn\000"
 14629      5F42524B 
 14629      5F54494D 
 14629      31325F49 
 14629      52516E00 
 14630              	.LASF178:
 14631 00c2 50494437 		.ascii	"PID7\000"
 14631      00
 14632              	.LASF648:
 14633 00c7 48616C6C 		.ascii	"Hall_Err0\000"
 14633      5F457272 
 14633      3000
 14634              	.LASF5:
 14635 00d1 5F5F7569 		.ascii	"__uint8_t\000"
 14635      6E74385F 
 14635      7400
 14636              	.LASF172:
 14637 00db 494D4352 		.ascii	"IMCR\000"
 14637      00
 14638              	.LASF82:
 14639 00e0 44656275 		.ascii	"DebugMonitor_IRQn\000"
 14639      674D6F6E 
 14639      69746F72 
 14639      5F495251 
 14639      6E00
 14640              	.LASF271:
 14641 00f2 54494D5F 		.ascii	"TIM_OCPolarity\000"
 14641      4F43506F 
 14641      6C617269 
 14641      747900
 14642              	.LASF24:
 14643 0101 5F426F6F 		.ascii	"_Bool\000"
 14643      6C00
 14644              	.LASF499:
 14645 0107 52756E4D 		.ascii	"RunMotor\000"
 14645      6F746F72 
ARM GAS  /var/folders/7z/kps_xzfj7sn5l5gkyq8s9db00000gn/T//ccvBF34a.s 			page 261


 14645      00
 14646              	.LASF661:
 14647 0110 56656C52 		.ascii	"VelReq\000"
 14647      657100
 14648              	.LASF359:
 14649 0117 5F6D6273 		.ascii	"_mbstate\000"
 14649      74617465 
 14649      00
 14650              	.LASF145:
 14651 0120 444D4132 		.ascii	"DMA2_Stream4_IRQn\000"
 14651      5F537472 
 14651      65616D34 
 14651      5F495251 
 14651      6E00
 14652              	.LASF161:
 14653 0132 4F54475F 		.ascii	"OTG_HS_WKUP_IRQn\000"
 14653      48535F57 
 14653      4B55505F 
 14653      4952516E 
 14653      00
 14654              	.LASF679:
 14655 0143 496E6974 		.ascii	"Init_Charge_cnt_EN\000"
 14655      5F436861 
 14655      7267655F 
 14655      636E745F 
 14655      454E00
 14656              	.LASF588:
 14657 0156 436C6172 		.ascii	"ClarkePark\000"
 14657      6B655061 
 14657      726B00
 14658              	.LASF710:
 14659 0161 57574447 		.ascii	"WWDG_SetCounter\000"
 14659      5F536574 
 14659      436F756E 
 14659      74657200 
 14660              	.LASF144:
 14661 0171 444D4132 		.ascii	"DMA2_Stream3_IRQn\000"
 14661      5F537472 
 14661      65616D33 
 14661      5F495251 
 14661      6E00
 14662              	.LASF336:
 14663 0183 5F666E74 		.ascii	"_fntypes\000"
 14663      79706573 
 14663      00
 14664              	.LASF70:
 14665 018c 6D5F6E65 		.ascii	"m_next\000"
 14665      787400
 14666              	.LASF103:
 14667 0193 4144435F 		.ascii	"ADC_IRQn\000"
 14667      4952516E 
 14667      00
 14668              	.LASF461:
 14669 019c 6C5F736C 		.ascii	"l_slow_abs_current\000"
 14669      6F775F61 
 14669      62735F63 
 14669      75727265 
ARM GAS  /var/folders/7z/kps_xzfj7sn5l5gkyq8s9db00000gn/T//ccvBF34a.s 			page 262


 14669      6E7400
 14670              	.LASF366:
 14671 01af 5F696E63 		.ascii	"_inc\000"
 14671      00
 14672              	.LASF339:
 14673 01b4 5F696E64 		.ascii	"_ind\000"
 14673      00
 14674              	.LASF696:
 14675 01b9 4B706C6C 		.ascii	"Kpll\000"
 14675      00
 14676              	.LASF453:
 14677 01be 6C5F696E 		.ascii	"l_in_current_min\000"
 14677      5F637572 
 14677      72656E74 
 14677      5F6D696E 
 14677      00
 14678              	.LASF225:
 14679 01cf 42445452 		.ascii	"BDTR\000"
 14679      00
 14680              	.LASF442:
 14681 01d4 636F6D6D 		.ascii	"comm_time_sum\000"
 14681      5F74696D 
 14681      655F7375 
 14681      6D00
 14682              	.LASF524:
 14683 01e2 49616C70 		.ascii	"IalphaError\000"
 14683      68614572 
 14683      726F7200 
 14684              	.LASF19:
 14685 01ee 75696E74 		.ascii	"uint16_t\000"
 14685      31365F74 
 14685      00
 14686              	.LASF143:
 14687 01f7 444D4132 		.ascii	"DMA2_Stream2_IRQn\000"
 14687      5F537472 
 14687      65616D32 
 14687      5F495251 
 14687      6E00
 14688              	.LASF629:
 14689 0209 6D637077 		.ascii	"mcpwm_set_configuration\000"
 14689      6D5F7365 
 14689      745F636F 
 14689      6E666967 
 14689      75726174 
 14690              	.LASF585:
 14691 0221 66707574 		.ascii	"fputc\000"
 14691      6300
 14692              	.LASF631:
 14693 0227 64636361 		.ascii	"dccal_done\000"
 14693      6C5F646F 
 14693      6E6500
 14694              	.LASF345:
 14695 0232 5F666C61 		.ascii	"_flags\000"
 14695      677300
 14696              	.LASF607:
 14697 0239 43616C63 		.ascii	"CalcTimes\000"
 14697      54696D65 
ARM GAS  /var/folders/7z/kps_xzfj7sn5l5gkyq8s9db00000gn/T//ccvBF34a.s 			page 263


 14697      7300
 14698              	.LASF270:
 14699 0243 54494D5F 		.ascii	"TIM_Pulse\000"
 14699      50756C73 
 14699      6500
 14700              	.LASF156:
 14701 024d 55534152 		.ascii	"USART6_IRQn\000"
 14701      54365F49 
 14701      52516E00 
 14702              	.LASF491:
 14703 0259 63635F73 		.ascii	"cc_startup_boost_duty\000"
 14703      74617274 
 14703      75705F62 
 14703      6F6F7374 
 14703      5F647574 
 14704              	.LASF618:
 14705 026f 50726573 		.ascii	"PrescalerValue\000"
 14705      63616C65 
 14705      7256616C 
 14705      756500
 14706              	.LASF260:
 14707 027e 444D415F 		.ascii	"DMA_InitTypeDef\000"
 14707      496E6974 
 14707      54797065 
 14707      44656600 
 14708              	.LASF376:
 14709 028e 5F637674 		.ascii	"_cvtlen\000"
 14709      6C656E00 
 14710              	.LASF481:
 14711 0296 68616C6C 		.ascii	"hall_dir\000"
 14711      5F646972 
 14711      00
 14712              	.LASF255:
 14713 029f 444D415F 		.ascii	"DMA_Priority\000"
 14713      5072696F 
 14713      72697479 
 14713      00
 14714              	.LASF756:
 14715 02ac 57574447 		.ascii	"WWDG_SetPrescaler\000"
 14715      5F536574 
 14715      50726573 
 14715      63616C65 
 14715      7200
 14716              	.LASF681:
 14717 02be 496E6974 		.ascii	"Init_Charge_Time\000"
 14717      5F436861 
 14717      7267655F 
 14717      54696D65 
 14717      00
 14718              	.LASF380:
 14719 02cf 5F736967 		.ascii	"_sig_func\000"
 14719      5F66756E 
 14719      6300
 14720              	.LASF717:
 14721 02d9 4144435F 		.ascii	"ADC_GetInjectedConversionValue\000"
 14721      47657449 
 14721      6E6A6563 
ARM GAS  /var/folders/7z/kps_xzfj7sn5l5gkyq8s9db00000gn/T//ccvBF34a.s 			page 264


 14721      74656443 
 14721      6F6E7665 
 14722              	.LASF455:
 14723 02f8 6C5F6D69 		.ascii	"l_min_erpm\000"
 14723      6E5F6572 
 14723      706D00
 14724              	.LASF38:
 14725 0303 705F6E65 		.ascii	"p_newer\000"
 14725      77657200 
 14726              	.LASF551:
 14727 030b 7156656C 		.ascii	"qVelRef\000"
 14727      52656600 
 14728              	.LASF238:
 14729 0313 4144435F 		.ascii	"ADC_NbrOfConversion\000"
 14729      4E62724F 
 14729      66436F6E 
 14729      76657273 
 14729      696F6E00 
 14730              	.LASF191:
 14731 0327 534D5052 		.ascii	"SMPR1\000"
 14731      3100
 14732              	.LASF192:
 14733 032d 534D5052 		.ascii	"SMPR2\000"
 14733      3200
 14734              	.LASF358:
 14735 0333 5F6C6F63 		.ascii	"_lock\000"
 14735      6B00
 14736              	.LASF354:
 14737 0339 5F6E6275 		.ascii	"_nbuf\000"
 14737      6600
 14738              	.LASF412:
 14739 033f 5F756E75 		.ascii	"_unused\000"
 14739      73656400 
 14740              	.LASF264:
 14741 0347 54494D5F 		.ascii	"TIM_ClockDivision\000"
 14741      436C6F63 
 14741      6B446976 
 14741      6973696F 
 14741      6E00
 14742              	.LASF697:
 14743 0359 49706C6C 		.ascii	"Ipll\000"
 14743      00
 14744              	.LASF750:
 14745 035e 54494D5F 		.ascii	"TIM_SelectMasterSlaveMode\000"
 14745      53656C65 
 14745      63744D61 
 14745      73746572 
 14745      536C6176 
 14746              	.LASF590:
 14747 0378 77726F6E 		.ascii	"wrong_voltage_iterations\000"
 14747      675F766F 
 14747      6C746167 
 14747      655F6974 
 14747      65726174 
 14748              	.LASF164:
 14749 0391 43525950 		.ascii	"CRYP_IRQn\000"
 14749      5F495251 
ARM GAS  /var/folders/7z/kps_xzfj7sn5l5gkyq8s9db00000gn/T//ccvBF34a.s 			page 265


 14749      6E00
 14750              	.LASF90:
 14751 039b 5243435F 		.ascii	"RCC_IRQn\000"
 14751      4952516E 
 14751      00
 14752              	.LASF240:
 14753 03a4 4144435F 		.ascii	"ADC_Mode\000"
 14753      4D6F6465 
 14753      00
 14754              	.LASF595:
 14755 03ad 75706461 		.ascii	"update_timer_Duty\000"
 14755      74655F74 
 14755      696D6572 
 14755      5F447574 
 14755      7900
 14756              	.LASF464:
 14757 03bf 6C5F7465 		.ascii	"l_temp_fet_end\000"
 14757      6D705F66 
 14757      65745F65 
 14757      6E6400
 14758              	.LASF298:
 14759 03ce 4F545950 		.ascii	"OTYPER\000"
 14759      455200
 14760              	.LASF369:
 14761 03d5 5F637572 		.ascii	"_current_locale\000"
 14761      72656E74 
 14761      5F6C6F63 
 14761      616C6500 
 14762              	.LASF701:
 14763 03e5 48616C6C 		.ascii	"HallPLLA_old\000"
 14763      504C4C41 
 14763      5F6F6C64 
 14763      00
 14764              	.LASF282:
 14765 03f2 54494D5F 		.ascii	"TIM_AutomaticOutput\000"
 14765      4175746F 
 14765      6D617469 
 14765      634F7574 
 14765      70757400 
 14766              	.LASF293:
 14767 0406 76656374 		.ascii	"vector\000"
 14767      6F7200
 14768              	.LASF288:
 14769 040d 4E564943 		.ascii	"NVIC_InitTypeDef\000"
 14769      5F496E69 
 14769      74547970 
 14769      65446566 
 14769      00
 14770              	.LASF20:
 14771 041e 696E7433 		.ascii	"int32_t\000"
 14771      325F7400 
 14772              	.LASF400:
 14773 0426 5F776374 		.ascii	"_wctomb_state\000"
 14773      6F6D625F 
 14773      73746174 
 14773      6500
 14774              	.LASF32:
ARM GAS  /var/folders/7z/kps_xzfj7sn5l5gkyq8s9db00000gn/T//ccvBF34a.s 			page 266


 14775 0434 73797374 		.ascii	"systime_t\000"
 14775      696D655F 
 14775      7400
 14776              	.LASF390:
 14777 043e 5F616464 		.ascii	"_add\000"
 14777      00
 14778              	.LASF134:
 14779 0443 5344494F 		.ascii	"SDIO_IRQn\000"
 14779      5F495251 
 14779      6E00
 14780              	.LASF208:
 14781 044d 4D304152 		.ascii	"M0AR\000"
 14781      00
 14782              	.LASF163:
 14783 0452 44434D49 		.ascii	"DCMI_IRQn\000"
 14783      5F495251 
 14783      6E00
 14784              	.LASF704:
 14785 045c 48616C6C 		.ascii	"HallPLLB_filtered\000"
 14785      504C4C42 
 14785      5F66696C 
 14785      74657265 
 14785      6400
 14786              	.LASF436:
 14787 046e 4641554C 		.ascii	"FAULT_CODE_OVER_TEMP_FET\000"
 14787      545F434F 
 14787      44455F4F 
 14787      5645525F 
 14787      54454D50 
 14788              	.LASF126:
 14789 0487 5254435F 		.ascii	"RTC_Alarm_IRQn\000"
 14789      416C6172 
 14789      6D5F4952 
 14789      516E00
 14790              	.LASF562:
 14791 0496 74466457 		.ascii	"tFdWeakParm\000"
 14791      65616B50 
 14791      61726D00 
 14792              	.LASF419:
 14793 04a2 4D435F53 		.ascii	"MC_STATE_FULL_BRAKE\000"
 14793      54415445 
 14793      5F46554C 
 14793      4C5F4252 
 14793      414B4500 
 14794              	.LASF423:
 14795 04b6 50574D5F 		.ascii	"PWM_MODE_BIPOLAR\000"
 14795      4D4F4445 
 14795      5F424950 
 14795      4F4C4152 
 14795      00
 14796              	.LASF274:
 14797 04c7 54494D5F 		.ascii	"TIM_OCNIdleState\000"
 14797      4F434E49 
 14797      646C6553 
 14797      74617465 
 14797      00
 14798              	.LASF424:
ARM GAS  /var/folders/7z/kps_xzfj7sn5l5gkyq8s9db00000gn/T//ccvBF34a.s 			page 267


 14799 04d8 6D635F70 		.ascii	"mc_pwm_mode\000"
 14799      776D5F6D 
 14799      6F646500 
 14800              	.LASF558:
 14801 04e4 71496E64 		.ascii	"qIndex\000"
 14801      657800
 14802              	.LASF291:
 14803 04eb 69736869 		.ascii	"ishift\000"
 14803      667400
 14804              	.LASF545:
 14805 04f2 71436F73 		.ascii	"qCos\000"
 14805      00
 14806              	.LASF712:
 14807 04f7 73696E66 		.ascii	"sinf\000"
 14807      00
 14808              	.LASF347:
 14809 04fc 5F6C6266 		.ascii	"_lbfsize\000"
 14809      73697A65 
 14809      00
 14810              	.LASF273:
 14811 0505 54494D5F 		.ascii	"TIM_OCIdleState\000"
 14811      4F434964 
 14811      6C655374 
 14811      61746500 
 14812              	.LASF736:
 14813 0515 444D415F 		.ascii	"DMA_Cmd\000"
 14813      436D6400 
 14814              	.LASF294:
 14815 051d 73746D33 		.ascii	"stm32_dma_stream_t\000"
 14815      325F646D 
 14815      615F7374 
 14815      7265616D 
 14815      5F7400
 14816              	.LASF102:
 14817 0530 444D4131 		.ascii	"DMA1_Stream6_IRQn\000"
 14817      5F537472 
 14817      65616D36 
 14817      5F495251 
 14817      6E00
 14818              	.LASF81:
 14819 0542 53564361 		.ascii	"SVCall_IRQn\000"
 14819      6C6C5F49 
 14819      52516E00 
 14820              	.LASF357:
 14821 054e 5F646174 		.ascii	"_data\000"
 14821      6100
 14822              	.LASF647:
 14823 0554 48616C6C 		.ascii	"Hall_PIout\000"
 14823      5F50496F 
 14823      757400
 14824              	.LASF535:
 14825 055f 4F6D6567 		.ascii	"OmegaFltred\000"
 14825      61466C74 
 14825      72656400 
 14826              	.LASF739:
 14827 056b 4144435F 		.ascii	"ADC_Init\000"
 14827      496E6974 
ARM GAS  /var/folders/7z/kps_xzfj7sn5l5gkyq8s9db00000gn/T//ccvBF34a.s 			page 268


 14827      00
 14828              	.LASF46:
 14829 0574 705F7761 		.ascii	"p_waiting\000"
 14829      6974696E 
 14829      6700
 14830              	.LASF725:
 14831 057e 54494D5F 		.ascii	"TIM_OC4Init\000"
 14831      4F433449 
 14831      6E697400 
 14832              	.LASF101:
 14833 058a 444D4131 		.ascii	"DMA1_Stream5_IRQn\000"
 14833      5F537472 
 14833      65616D35 
 14833      5F495251 
 14833      6E00
 14834              	.LASF112:
 14835 059c 54494D31 		.ascii	"TIM1_CC_IRQn\000"
 14835      5F43435F 
 14835      4952516E 
 14835      00
 14836              	.LASF475:
 14837 05a9 736C5F6D 		.ascii	"sl_min_erpm_cycle_int_limit\000"
 14837      696E5F65 
 14837      72706D5F 
 14837      6379636C 
 14837      655F696E 
 14838              	.LASF514:
 14839 05c5 5A616C70 		.ascii	"Zalpha\000"
 14839      686100
 14840              	.LASF361:
 14841 05cc 5F726565 		.ascii	"_reent\000"
 14841      6E7400
 14842              	.LASF743:
 14843 05d3 4144435F 		.ascii	"ADC_ExternalTrigInjectedConvEdgeConfig\000"
 14843      45787465 
 14843      726E616C 
 14843      54726967 
 14843      496E6A65 
 14844              	.LASF745:
 14845 05fa 4144435F 		.ascii	"ADC_ITConfig\000"
 14845      4954436F 
 14845      6E666967 
 14845      00
 14846              	.LASF85:
 14847 0607 57574447 		.ascii	"WWDG_IRQn\000"
 14847      5F495251 
 14847      6E00
 14848              	.LASF596:
 14849 0611 64757479 		.ascii	"duty_A\000"
 14849      5F4100
 14850              	.LASF597:
 14851 0618 64757479 		.ascii	"duty_B\000"
 14851      5F4200
 14852              	.LASF598:
 14853 061f 64757479 		.ascii	"duty_C\000"
 14853      5F4300
 14854              	.LASF540:
ARM GAS  /var/folders/7z/kps_xzfj7sn5l5gkyq8s9db00000gn/T//ccvBF34a.s 			page 269


 14855 0626 71496E4D 		.ascii	"qInMeas\000"
 14855      65617300 
 14856              	.LASF382:
 14857 062e 5F5F7366 		.ascii	"__sf\000"
 14857      00
 14858              	.LASF100:
 14859 0633 444D4131 		.ascii	"DMA1_Stream4_IRQn\000"
 14859      5F537472 
 14859      65616D34 
 14859      5F495251 
 14859      6E00
 14860              	.LASF399:
 14861 0645 5F6D6274 		.ascii	"_mbtowc_state\000"
 14861      6F77635F 
 14861      73746174 
 14861      6500
 14862              	.LASF131:
 14863 0653 54494D38 		.ascii	"TIM8_CC_IRQn\000"
 14863      5F43435F 
 14863      4952516E 
 14863      00
 14864              	.LASF242:
 14865 0660 4144435F 		.ascii	"ADC_DMAAccessMode\000"
 14865      444D4141 
 14865      63636573 
 14865      734D6F64 
 14865      6500
 14866              	.LASF29:
 14867 0672 74707269 		.ascii	"tprio_t\000"
 14867      6F5F7400 
 14868              	.LASF682:
 14869 067a 44726976 		.ascii	"Drive_Status\000"
 14869      655F5374 
 14869      61747573 
 14869      00
 14870              	.LASF245:
 14871 0687 444D415F 		.ascii	"DMA_Channel\000"
 14871      4368616E 
 14871      6E656C00 
 14872              	.LASF235:
 14873 0693 4144435F 		.ascii	"ADC_ExternalTrigConvEdge\000"
 14873      45787465 
 14873      726E616C 
 14873      54726967 
 14873      436F6E76 
 14874              	.LASF323:
 14875 06ac 5F5F746D 		.ascii	"__tm\000"
 14875      00
 14876              	.LASF532:
 14877 06b1 54686574 		.ascii	"ThetaOffset\000"
 14877      614F6666 
 14877      73657400 
 14878              	.LASF751:
 14879 06bd 54494D5F 		.ascii	"TIM_SelectInputTrigger\000"
 14879      53656C65 
 14879      6374496E 
 14879      70757454 
ARM GAS  /var/folders/7z/kps_xzfj7sn5l5gkyq8s9db00000gn/T//ccvBF34a.s 			page 270


 14879      72696767 
 14880              	.LASF331:
 14881 06d4 5F5F746D 		.ascii	"__tm_yday\000"
 14881      5F796461 
 14881      7900
 14882              	.LASF594:
 14883 06de 496E7650 		.ascii	"InvPark\000"
 14883      61726B00 
 14884              	.LASF762:
 14885 06e6 474E5520 		.ascii	"GNU C 4.9.3 20150303 (release) [ARM/embedded-4_9-br"
 14885      4320342E 
 14885      392E3320 
 14885      32303135 
 14885      30333033 
 14886 0719 616E6368 		.ascii	"anch revision 221220] -mcpu=cortex-m4 -mfloat-abi=h"
 14886      20726576 
 14886      6973696F 
 14886      6E203232 
 14886      31323230 
 14887 074c 61726420 		.ascii	"ard -mfpu=fpv4-sp-d16 -mno-thumb-interwork -mthumb "
 14887      2D6D6670 
 14887      753D6670 
 14887      76342D73 
 14887      702D6431 
 14888 077f 2D676764 		.ascii	"-ggdb -O2 -std=gnu99 -fomit-frame-pointer -falign-f"
 14888      62202D4F 
 14888      32202D73 
 14888      74643D67 
 14888      6E753939 
 14889 07b2 756E6374 		.ascii	"unctions=16 -ffunction-sections -fdata-sections -fn"
 14889      696F6E73 
 14889      3D313620 
 14889      2D666675 
 14889      6E637469 
 14890 07e5 6F2D636F 		.ascii	"o-common -fsingle-precision-constant\000"
 14890      6D6D6F6E 
 14890      202D6673 
 14890      696E676C 
 14890      652D7072 
 14891              	.LASF217:
 14892 080a 43434552 		.ascii	"CCER\000"
 14892      00
 14893              	.LASF609:
 14894 080f 6D637077 		.ascii	"mcpwm_init\000"
 14894      6D5F696E 
 14894      697400
 14895              	.LASF604:
 14896 081a 63757272 		.ascii	"curr0\000"
 14896      3000
 14897              	.LASF578:
 14898 0820 63757272 		.ascii	"curr1\000"
 14898      3100
 14899              	.LASF579:
 14900 0826 63757272 		.ascii	"curr2\000"
 14900      3200
 14901              	.LASF76:
 14902 082c 7466756E 		.ascii	"tfunc_t\000"
ARM GAS  /var/folders/7z/kps_xzfj7sn5l5gkyq8s9db00000gn/T//ccvBF34a.s 			page 271


 14902      635F7400 
 14903              	.LASF549:
 14904 0834 71566265 		.ascii	"qVbeta\000"
 14904      746100
 14905              	.LASF287:
 14906 083b 4E564943 		.ascii	"NVIC_IRQChannelCmd\000"
 14906      5F495251 
 14906      4368616E 
 14906      6E656C43 
 14906      6D6400
 14907              	.LASF8:
 14908 084e 5F5F7569 		.ascii	"__uint16_t\000"
 14908      6E743136 
 14908      5F7400
 14909              	.LASF728:
 14910 0859 54494D5F 		.ascii	"TIM_OC3PreloadConfig\000"
 14910      4F433350 
 14910      72656C6F 
 14910      6164436F 
 14910      6E666967 
 14911              	.LASF576:
 14912 086e 714D6F74 		.ascii	"qMotorSpeed\000"
 14912      6F725370 
 14912      65656400 
 14913              	.LASF48:
 14914 087a 705F6D73 		.ascii	"p_msg\000"
 14914      6700
 14915              	.LASF391:
 14916 0880 5F756E75 		.ascii	"_unused_rand\000"
 14916      7365645F 
 14916      72616E64 
 14916      00
 14917              	.LASF600:
 14918 088d 534D435F 		.ascii	"SMC_HallSensor_Estimation\000"
 14918      48616C6C 
 14918      53656E73 
 14918      6F725F45 
 14918      7374696D 
 14919              	.LASF495:
 14920 08a7 6D5F6661 		.ascii	"m_fault_stop_time_ms\000"
 14920      756C745F 
 14920      73746F70 
 14920      5F74696D 
 14920      655F6D73 
 14921              	.LASF483:
 14922 08bc 68616C6C 		.ascii	"hall_rev_add\000"
 14922      5F726576 
 14922      5F616464 
 14922      00
 14923              	.LASF761:
 14924 08c9 54494D5F 		.ascii	"TIM_CCxNCmd\000"
 14924      4343784E 
 14924      436D6400 
 14925              	.LASF209:
 14926 08d5 4D314152 		.ascii	"M1AR\000"
 14926      00
 14927              	.LASF497:
ARM GAS  /var/folders/7z/kps_xzfj7sn5l5gkyq8s9db00000gn/T//ccvBF34a.s 			page 272


 14928 08da 574F5244 		.ascii	"WORD\000"
 14928      00
 14929              	.LASF210:
 14930 08df 444D415F 		.ascii	"DMA_Stream_TypeDef\000"
 14930      53747265 
 14930      616D5F54 
 14930      79706544 
 14930      656600
 14931              	.LASF267:
 14932 08f2 54494D5F 		.ascii	"TIM_OCMode\000"
 14932      4F434D6F 
 14932      646500
 14933              	.LASF627:
 14934 08fd 74656D70 		.ascii	"temp\000"
 14934      00
 14935              	.LASF722:
 14936 0902 54494D5F 		.ascii	"TIM_OC1Init\000"
 14936      4F433149 
 14936      6E697400 
 14937              	.LASF486:
 14938 090e 735F7069 		.ascii	"s_pid_kd\000"
 14938      645F6B64 
 14938      00
 14939              	.LASF622:
 14940 0917 6D637077 		.ascii	"mcpwm_get_state\000"
 14940      6D5F6765 
 14940      745F7374 
 14940      61746500 
 14941              	.LASF226:
 14942 0927 52455345 		.ascii	"RESERVED11\000"
 14942      52564544 
 14942      313100
 14943              	.LASF523:
 14944 0932 49616C70 		.ascii	"Ialpha\000"
 14944      686100
 14945              	.LASF373:
 14946 0939 5F726573 		.ascii	"_result_k\000"
 14946      756C745F 
 14946      6B00
 14947              	.LASF365:
 14948 0943 5F737464 		.ascii	"_stderr\000"
 14948      65727200 
 14949              	.LASF372:
 14950 094b 5F726573 		.ascii	"_result\000"
 14950      756C7400 
 14951              	.LASF699:
 14952 0953 48616C6C 		.ascii	"HallPLLA1\000"
 14952      504C4C41 
 14952      3100
 14953              	.LASF335:
 14954 095d 5F64736F 		.ascii	"_dso_handle\000"
 14954      5F68616E 
 14954      646C6500 
 14955              	.LASF602:
 14956 0969 746D705F 		.ascii	"tmp_kpi\000"
 14956      6B706900 
 14957              	.LASF330:
ARM GAS  /var/folders/7z/kps_xzfj7sn5l5gkyq8s9db00000gn/T//ccvBF34a.s 			page 273


 14958 0971 5F5F746D 		.ascii	"__tm_wday\000"
 14958      5F776461 
 14958      7900
 14959              	.LASF332:
 14960 097b 5F5F746D 		.ascii	"__tm_isdst\000"
 14960      5F697364 
 14960      737400
 14961              	.LASF56:
 14962 0986 73746B61 		.ascii	"stkalign_t\000"
 14962      6C69676E 
 14962      5F7400
 14963              	.LASF93:
 14964 0991 45585449 		.ascii	"EXTI2_IRQn\000"
 14964      325F4952 
 14964      516E00
 14965              	.LASF189:
 14966 099c 454E4142 		.ascii	"ENABLE\000"
 14966      4C4500
 14967              	.LASF652:
 14968 09a3 64697265 		.ascii	"direction\000"
 14968      6374696F 
 14968      6E00
 14969              	.LASF755:
 14970 09ad 63685468 		.ascii	"chThdCreateStatic\000"
 14970      64437265 
 14970      61746553 
 14970      74617469 
 14970      6300
 14971              	.LASF6:
 14972 09bf 756E7369 		.ascii	"unsigned char\000"
 14972      676E6564 
 14972      20636861 
 14972      7200
 14973              	.LASF364:
 14974 09cd 5F737464 		.ascii	"_stdout\000"
 14974      6F757400 
 14975              	.LASF587:
 14976 09d5 6D637077 		.ascii	"mcpwm_adc_int_handler\000"
 14976      6D5F6164 
 14976      635F696E 
 14976      745F6861 
 14976      6E646C65 
 14977              	.LASF160:
 14978 09eb 4F54475F 		.ascii	"OTG_HS_EP1_IN_IRQn\000"
 14978      48535F45 
 14978      50315F49 
 14978      4E5F4952 
 14978      516E00
 14979              	.LASF406:
 14980 09fe 5F6D6273 		.ascii	"_mbsrtowcs_state\000"
 14980      72746F77 
 14980      63735F73 
 14980      74617465 
 14980      00
 14981              	.LASF322:
 14982 0a0f 5F776473 		.ascii	"_wds\000"
 14982      00
ARM GAS  /var/folders/7z/kps_xzfj7sn5l5gkyq8s9db00000gn/T//ccvBF34a.s 			page 274


 14983              	.LASF0:
 14984 0a14 666C6F61 		.ascii	"float\000"
 14984      7400
 14985              	.LASF92:
 14986 0a1a 45585449 		.ascii	"EXTI1_IRQn\000"
 14986      315F4952 
 14986      516E00
 14987              	.LASF473:
 14988 0a25 736C5F69 		.ascii	"sl_is_sensorless\000"
 14988      735F7365 
 14988      6E736F72 
 14988      6C657373 
 14988      00
 14989              	.LASF278:
 14990 0a36 54494D5F 		.ascii	"TIM_LOCKLevel\000"
 14990      4C4F434B 
 14990      4C657665 
 14990      6C00
 14991              	.LASF680:
 14992 0a44 496E6974 		.ascii	"Init_Charge_cnt\000"
 14992      5F436861 
 14992      7267655F 
 14992      636E7400 
 14993              	.LASF731:
 14994 0a54 54494D5F 		.ascii	"TIM_CCPreloadControl\000"
 14994      43435072 
 14994      656C6F61 
 14994      64436F6E 
 14994      74726F6C 
 14995              	.LASF757:
 14996 0a69 57574447 		.ascii	"WWDG_SetWindowValue\000"
 14996      5F536574 
 14996      57696E64 
 14996      6F775661 
 14996      6C756500 
 14997              	.LASF644:
 14998 0a7d 46757469 		.ascii	"Futi\000"
 14998      00
 14999              	.LASF343:
 15000 0a82 5F73697A 		.ascii	"_size\000"
 15000      6500
 15001              	.LASF501:
 15002 0a88 456E566F 		.ascii	"EnVoltRipCo\000"
 15002      6C745269 
 15002      70436F00 
 15003              	.LASF265:
 15004 0a94 54494D5F 		.ascii	"TIM_RepetitionCounter\000"
 15004      52657065 
 15004      74697469 
 15004      6F6E436F 
 15004      756E7465 
 15005              	.LASF463:
 15006 0aaa 6C5F7465 		.ascii	"l_temp_fet_start\000"
 15006      6D705F66 
 15006      65745F73 
 15006      74617274 
 15006      00
ARM GAS  /var/folders/7z/kps_xzfj7sn5l5gkyq8s9db00000gn/T//ccvBF34a.s 			page 275


 15007              	.LASF212:
 15008 0abb 44494552 		.ascii	"DIER\000"
 15008      00
 15009              	.LASF37:
 15010 0ac0 705F6374 		.ascii	"p_ctx\000"
 15010      7800
 15011              	.LASF193:
 15012 0ac6 4A4F4652 		.ascii	"JOFR1\000"
 15012      3100
 15013              	.LASF194:
 15014 0acc 4A4F4652 		.ascii	"JOFR2\000"
 15014      3200
 15015              	.LASF195:
 15016 0ad2 4A4F4652 		.ascii	"JOFR3\000"
 15016      3300
 15017              	.LASF91:
 15018 0ad8 45585449 		.ascii	"EXTI0_IRQn\000"
 15018      305F4952 
 15018      516E00
 15019              	.LASF280:
 15020 0ae3 54494D5F 		.ascii	"TIM_Break\000"
 15020      42726561 
 15020      6B00
 15021              	.LASF556:
 15022 0aed 7146774F 		.ascii	"qFwOnSpeed\000"
 15022      6E537065 
 15022      656400
 15023              	.LASF65:
 15024 0af8 725F6375 		.ascii	"r_current\000"
 15024      7272656E 
 15024      7400
 15025              	.LASF350:
 15026 0b02 5F777269 		.ascii	"_write\000"
 15026      746500
 15027              	.LASF760:
 15028 0b09 54494D5F 		.ascii	"TIM_CCxCmd\000"
 15028      43437843 
 15028      6D6400
 15029              	.LASF448:
 15030 0b14 636F6D6D 		.ascii	"comm_mode\000"
 15030      5F6D6F64 
 15030      6500
 15031              	.LASF462:
 15032 0b1e 6C5F7270 		.ascii	"l_rpm_lim_neg_torque\000"
 15032      6D5F6C69 
 15032      6D5F6E65 
 15032      675F746F 
 15032      72717565 
 15033              	.LASF435:
 15034 0b33 4641554C 		.ascii	"FAULT_CODE_ABS_OVER_CURRENT\000"
 15034      545F434F 
 15034      44455F41 
 15034      42535F4F 
 15034      5645525F 
 15035              	.LASF87:
 15036 0b4f 54414D50 		.ascii	"TAMP_STAMP_IRQn\000"
 15036      5F535441 
ARM GAS  /var/folders/7z/kps_xzfj7sn5l5gkyq8s9db00000gn/T//ccvBF34a.s 			page 276


 15036      4D505F49 
 15036      52516E00 
 15037              	.LASF657:
 15038 0b5f 4144435F 		.ascii	"ADC_Value\000"
 15038      56616C75 
 15038      6500
 15039              	.LASF252:
 15040 0b69 444D415F 		.ascii	"DMA_PeripheralDataSize\000"
 15040      50657269 
 15040      70686572 
 15040      616C4461 
 15040      74615369 
 15041              	.LASF22:
 15042 0b80 75696E74 		.ascii	"uint64_t\000"
 15042      36345F74 
 15042      00
 15043              	.LASF33:
 15044 0b89 54687265 		.ascii	"Thread\000"
 15044      616400
 15045              	.LASF546:
 15046 0b90 7149616C 		.ascii	"qIalpha\000"
 15046      70686100 
 15047              	.LASF188:
 15048 0b98 44495341 		.ascii	"DISABLE\000"
 15048      424C4500 
 15049              	.LASF66:
 15050 0ba0 52656164 		.ascii	"ReadyList\000"
 15050      794C6973 
 15050      7400
 15051              	.LASF108:
 15052 0baa 45585449 		.ascii	"EXTI9_5_IRQn\000"
 15052      395F355F 
 15052      4952516E 
 15052      00
 15053              	.LASF329:
 15054 0bb7 5F5F746D 		.ascii	"__tm_year\000"
 15054      5F796561 
 15054      7200
 15055              	.LASF263:
 15056 0bc1 54494D5F 		.ascii	"TIM_Period\000"
 15056      50657269 
 15056      6F6400
 15057              	.LASF649:
 15058 0bcc 6C617374 		.ascii	"last_current_sample\000"
 15058      5F637572 
 15058      72656E74 
 15058      5F73616D 
 15058      706C6500 
 15059              	.LASF389:
 15060 0be0 5F6D756C 		.ascii	"_mult\000"
 15060      7400
 15061              	.LASF506:
 15062 0be6 4C6F636B 		.ascii	"LockTime\000"
 15062      54696D65 
 15062      00
 15063              	.LASF404:
 15064 0bef 5F6D6272 		.ascii	"_mbrlen_state\000"
ARM GAS  /var/folders/7z/kps_xzfj7sn5l5gkyq8s9db00000gn/T//ccvBF34a.s 			page 277


 15064      6C656E5F 
 15064      73746174 
 15064      6500
 15065              	.LASF121:
 15066 0bfd 53504932 		.ascii	"SPI2_IRQn\000"
 15066      5F495251 
 15066      6E00
 15067              	.LASF67:
 15068 0c07 4D757465 		.ascii	"Mutex\000"
 15068      7800
 15069              	.LASF567:
 15070 0c0d 74535647 		.ascii	"tSVGenParm\000"
 15070      656E5061 
 15070      726D00
 15071              	.LASF200:
 15072 0c18 4A535152 		.ascii	"JSQR\000"
 15072      00
 15073              	.LASF363:
 15074 0c1d 5F737464 		.ascii	"_stdin\000"
 15074      696E00
 15075              	.LASF665:
 15076 0c24 5061726B 		.ascii	"ParkParm\000"
 15076      5061726D 
 15076      00
 15077              	.LASF411:
 15078 0c2d 5F6E6D61 		.ascii	"_nmalloc\000"
 15078      6C6C6F63 
 15078      00
 15079              	.LASF120:
 15080 0c36 53504931 		.ascii	"SPI1_IRQn\000"
 15080      5F495251 
 15080      6E00
 15081              	.LASF137:
 15082 0c40 55415254 		.ascii	"UART4_IRQn\000"
 15082      345F4952 
 15082      516E00
 15083              	.LASF62:
 15084 0c4b 725F6374 		.ascii	"r_ctx\000"
 15084      7800
 15085              	.LASF251:
 15086 0c51 444D415F 		.ascii	"DMA_MemoryInc\000"
 15086      4D656D6F 
 15086      7279496E 
 15086      6300
 15087              	.LASF522:
 15088 0c5f 45737449 		.ascii	"EstIbeta\000"
 15088      62657461 
 15088      00
 15089              	.LASF542:
 15090 0c68 74504950 		.ascii	"tPIParm\000"
 15090      61726D00 
 15091              	.LASF550:
 15092 0c70 74506172 		.ascii	"tParkParm\000"
 15092      6B506172 
 15092      6D00
 15093              	.LASF261:
 15094 0c7a 54494D5F 		.ascii	"TIM_Prescaler\000"
ARM GAS  /var/folders/7z/kps_xzfj7sn5l5gkyq8s9db00000gn/T//ccvBF34a.s 			page 278


 15094      50726573 
 15094      63616C65 
 15094      7200
 15095              	.LASF664:
 15096 0c88 736D6331 		.ascii	"smc1\000"
 15096      00
 15097              	.LASF47:
 15098 0c8d 705F6D73 		.ascii	"p_msgqueue\000"
 15098      67717565 
 15098      756500
 15099              	.LASF285:
 15100 0c98 4E564943 		.ascii	"NVIC_IRQChannelPreemptionPriority\000"
 15100      5F495251 
 15100      4368616E 
 15100      6E656C50 
 15100      7265656D 
 15101              	.LASF469:
 15102 0cba 6C6F5F63 		.ascii	"lo_current_max\000"
 15102      75727265 
 15102      6E745F6D 
 15102      617800
 15103              	.LASF415:
 15104 0cc9 46494C45 		.ascii	"FILE\000"
 15104      00
 15105              	.LASF492:
 15106 0cce 63635F6D 		.ascii	"cc_min_current\000"
 15106      696E5F63 
 15106      75727265 
 15106      6E7400
 15107              	.LASF541:
 15108 0cdd 714F7574 		.ascii	"qOut\000"
 15108      00
 15109              	.LASF281:
 15110 0ce2 54494D5F 		.ascii	"TIM_BreakPolarity\000"
 15110      42726561 
 15110      6B506F6C 
 15110      61726974 
 15110      7900
 15111              	.LASF296:
 15112 0cf4 636C6561 		.ascii	"clear\000"
 15112      7200
 15113              	.LASF766:
 15114 0cfa 49544D5F 		.ascii	"ITM_SendChar\000"
 15114      53656E64 
 15114      43686172 
 15114      00
 15115              	.LASF440:
 15116 0d07 6379636C 		.ascii	"cycle_int_limit_running\000"
 15116      655F696E 
 15116      745F6C69 
 15116      6D69745F 
 15116      72756E6E 
 15117              	.LASF529:
 15118 0d1f 4B736C66 		.ascii	"Kslf\000"
 15118      00
 15119              	.LASF308:
 15120 0d24 5F6F6666 		.ascii	"_off_t\000"
ARM GAS  /var/folders/7z/kps_xzfj7sn5l5gkyq8s9db00000gn/T//ccvBF34a.s 			page 279


 15120      5F7400
 15121              	.LASF2:
 15122 0d2b 73697A65 		.ascii	"size_t\000"
 15122      5F7400
 15123              	.LASF394:
 15124 0d32 5F6C6F63 		.ascii	"_localtime_buf\000"
 15124      616C7469 
 15124      6D655F62 
 15124      756600
 15125              	.LASF313:
 15126 0d41 5F5F636F 		.ascii	"__count\000"
 15126      756E7400 
 15127              	.LASF53:
 15128 0d49 54687265 		.ascii	"ThreadsQueue\000"
 15128      61647351 
 15128      75657565 
 15128      00
 15129              	.LASF18:
 15130 0d56 75696E74 		.ascii	"uint8_t\000"
 15130      385F7400 
 15131              	.LASF693:
 15132 0d5e 57706C6C 		.ascii	"Wpll1\000"
 15132      3100
 15133              	.LASF64:
 15134 0d64 725F6F6C 		.ascii	"r_older\000"
 15134      64657200 
 15135              	.LASF35:
 15136 0d6c 705F7072 		.ascii	"p_prev\000"
 15136      657600
 15137              	.LASF626:
 15138 0d73 6D637077 		.ascii	"mcpwm_get_rpm_dep\000"
 15138      6D5F6765 
 15138      745F7270 
 15138      6D5F6465 
 15138      7000
 15139              	.LASF259:
 15140 0d85 444D415F 		.ascii	"DMA_PeripheralBurst\000"
 15140      50657269 
 15140      70686572 
 15140      616C4275 
 15140      72737400 
 15141              	.LASF106:
 15142 0d99 43414E31 		.ascii	"CAN1_RX1_IRQn\000"
 15142      5F525831 
 15142      5F495251 
 15142      6E00
 15143              	.LASF672:
 15144 0da7 46645765 		.ascii	"FdWeakParm\000"
 15144      616B5061 
 15144      726D00
 15145              	.LASF460:
 15146 0db2 6C5F6D61 		.ascii	"l_max_vin\000"
 15146      785F7669 
 15146      6E00
 15147              	.LASF753:
 15148 0dbc 54494D5F 		.ascii	"TIM_Cmd\000"
 15148      436D6400 
ARM GAS  /var/folders/7z/kps_xzfj7sn5l5gkyq8s9db00000gn/T//ccvBF34a.s 			page 280


 15149              	.LASF72:
 15150 0dc4 65786974 		.ascii	"exitcode\000"
 15150      636F6465 
 15150      00
 15151              	.LASF439:
 15152 0dcd 6379636C 		.ascii	"cycle_int_limit\000"
 15152      655F696E 
 15152      745F6C69 
 15152      6D697400 
 15153              	.LASF377:
 15154 0ddd 5F637674 		.ascii	"_cvtbuf\000"
 15154      62756600 
 15155              	.LASF695:
 15156 0de5 57706C6C 		.ascii	"Wplli\000"
 15156      6900
 15157              	.LASF694:
 15158 0deb 57706C6C 		.ascii	"Wpllp\000"
 15158      7000
 15159              	.LASF140:
 15160 0df1 54494D37 		.ascii	"TIM7_IRQn\000"
 15160      5F495251 
 15160      6E00
 15161              	.LASF677:
 15162 0dfb 41636375 		.ascii	"AccumThetaCnt\000"
 15162      6D546865 
 15162      7461436E 
 15162      7400
 15163              	.LASF88:
 15164 0e09 5254435F 		.ascii	"RTC_WKUP_IRQn\000"
 15164      574B5550 
 15164      5F495251 
 15164      6E00
 15165              	.LASF528:
 15166 0e17 49626574 		.ascii	"IbetaError\000"
 15166      61457272 
 15166      6F7200
 15167              	.LASF105:
 15168 0e22 43414E31 		.ascii	"CAN1_RX0_IRQn\000"
 15168      5F525830 
 15168      5F495251 
 15168      6E00
 15169              	.LASF658:
 15170 0e30 53706565 		.ascii	"SpeedReference\000"
 15170      64526566 
 15170      6572656E 
 15170      636500
 15171              	.LASF601:
 15172 0e3f 746D705F 		.ascii	"tmp_kp\000"
 15172      6B7000
 15173              	.LASF299:
 15174 0e46 4F535045 		.ascii	"OSPEEDR\000"
 15174      45445200 
 15175              	.LASF312:
 15176 0e4e 5F5F7763 		.ascii	"__wchb\000"
 15176      686200
 15177              	.LASF405:
 15178 0e55 5F6D6272 		.ascii	"_mbrtowc_state\000"
ARM GAS  /var/folders/7z/kps_xzfj7sn5l5gkyq8s9db00000gn/T//ccvBF34a.s 			page 281


 15178      746F7763 
 15178      5F737461 
 15178      746500
 15179              	.LASF539:
 15180 0e64 71496E52 		.ascii	"qInRef\000"
 15180      656600
 15181              	.LASF326:
 15182 0e6b 5F5F746D 		.ascii	"__tm_hour\000"
 15182      5F686F75 
 15182      7200
 15183              	.LASF459:
 15184 0e75 6C5F6D69 		.ascii	"l_min_vin\000"
 15184      6E5F7669 
 15184      6E00
 15185              	.LASF621:
 15186 0e7f 6D637077 		.ascii	"mcpwm_get_rpm\000"
 15186      6D5F6765 
 15186      745F7270 
 15186      6D00
 15187              	.LASF310:
 15188 0e8d 77696E74 		.ascii	"wint_t\000"
 15188      5F7400
 15189              	.LASF89:
 15190 0e94 464C4153 		.ascii	"FLASH_IRQn\000"
 15190      485F4952 
 15190      516E00
 15191              	.LASF378:
 15192 0e9f 5F6E6577 		.ascii	"_new\000"
 15192      00
 15193              	.LASF443:
 15194 0ea4 636F6D6D 		.ascii	"comm_time_sum_min_rpm\000"
 15194      5F74696D 
 15194      655F7375 
 15194      6D5F6D69 
 15194      6E5F7270 
 15195              	.LASF253:
 15196 0eba 444D415F 		.ascii	"DMA_MemoryDataSize\000"
 15196      4D656D6F 
 15196      72794461 
 15196      74615369 
 15196      7A6500
 15197              	.LASF385:
 15198 0ecd 5F6E696F 		.ascii	"_niobs\000"
 15198      627300
 15199              	.LASF135:
 15200 0ed4 54494D35 		.ascii	"TIM5_IRQn\000"
 15200      5F495251 
 15200      6E00
 15201              	.LASF723:
 15202 0ede 54494D5F 		.ascii	"TIM_OC2Init\000"
 15202      4F433249 
 15202      6E697400 
 15203              	.LASF510:
 15204 0eea 744D6561 		.ascii	"tMeasCurrParm\000"
 15204      73437572 
 15204      72506172 
 15204      6D00
ARM GAS  /var/folders/7z/kps_xzfj7sn5l5gkyq8s9db00000gn/T//ccvBF34a.s 			page 282


 15205              	.LASF221:
 15206 0ef8 43435231 		.ascii	"CCR1\000"
 15206      00
 15207              	.LASF222:
 15208 0efd 43435232 		.ascii	"CCR2\000"
 15208      00
 15209              	.LASF223:
 15210 0f02 43435233 		.ascii	"CCR3\000"
 15210      00
 15211              	.LASF224:
 15212 0f07 43435234 		.ascii	"CCR4\000"
 15212      00
 15213              	.LASF719:
 15214 0f0c 54494D5F 		.ascii	"TIM_DeInit\000"
 15214      4465496E 
 15214      697400
 15215              	.LASF362:
 15216 0f17 5F657272 		.ascii	"_errno\000"
 15216      6E6F00
 15217              	.LASF432:
 15218 0f1e 4641554C 		.ascii	"FAULT_CODE_OVER_VOLTAGE\000"
 15218      545F434F 
 15218      44455F4F 
 15218      5645525F 
 15218      564F4C54 
 15219              	.LASF327:
 15220 0f36 5F5F746D 		.ascii	"__tm_mday\000"
 15220      5F6D6461 
 15220      7900
 15221              	.LASF290:
 15222 0f40 69666372 		.ascii	"ifcr\000"
 15222      00
 15223              	.LASF547:
 15224 0f45 71496265 		.ascii	"qIbeta\000"
 15224      746100
 15225              	.LASF207:
 15226 0f4c 4E445452 		.ascii	"NDTR\000"
 15226      00
 15227              	.LASF71:
 15228 0f51 7264796D 		.ascii	"rdymsg\000"
 15228      736700
 15229              	.LASF334:
 15230 0f58 5F666E61 		.ascii	"_fnargs\000"
 15230      72677300 
 15231              	.LASF543:
 15232 0f60 71416E67 		.ascii	"qAngle\000"
 15232      6C6500
 15233              	.LASF275:
 15234 0f67 54494D5F 		.ascii	"TIM_OCInitTypeDef\000"
 15234      4F43496E 
 15234      69745479 
 15234      70654465 
 15234      6600
 15235              	.LASF468:
 15236 0f79 6C5F6D61 		.ascii	"l_max_duty\000"
 15236      785F6475 
 15236      747900
ARM GAS  /var/folders/7z/kps_xzfj7sn5l5gkyq8s9db00000gn/T//ccvBF34a.s 			page 283


 15237              	.LASF196:
 15238 0f84 4A4F4652 		.ascii	"JOFR4\000"
 15238      3400
 15239              	.LASF36:
 15240 0f8a 705F7072 		.ascii	"p_prio\000"
 15240      696F00
 15241              	.LASF15:
 15242 0f91 5F5F7569 		.ascii	"__uint64_t\000"
 15242      6E743634 
 15242      5F7400
 15243              	.LASF430:
 15244 0f9c 6D635F6D 		.ascii	"mc_motor_type\000"
 15244      6F746F72 
 15244      5F747970 
 15244      6500
 15245              	.LASF155:
 15246 0faa 444D4132 		.ascii	"DMA2_Stream7_IRQn\000"
 15246      5F537472 
 15246      65616D37 
 15246      5F495251 
 15246      6E00
 15247              	.LASF673:
 15248 0fbc 73776974 		.ascii	"switching_frequency_now\000"
 15248      6368696E 
 15248      675F6672 
 15248      65717565 
 15248      6E63795F 
 15249              	.LASF519:
 15250 0fd4 45626574 		.ascii	"Ebeta\000"
 15250      6100
 15251              	.LASF319:
 15252 0fda 5F6E6578 		.ascii	"_next\000"
 15252      7400
 15253              	.LASF662:
 15254 0fe0 53746172 		.ascii	"Startup_Ramp\000"
 15254      7475705F 
 15254      52616D70 
 15254      00
 15255              	.LASF162:
 15256 0fed 4F54475F 		.ascii	"OTG_HS_IRQn\000"
 15256      48535F49 
 15256      52516E00 
 15257              	.LASF503:
 15258 0ff9 4368616E 		.ascii	"ChangeMode\000"
 15258      67654D6F 
 15258      646500
 15259              	.LASF724:
 15260 1004 54494D5F 		.ascii	"TIM_OC3Init\000"
 15260      4F433349 
 15260      6E697400 
 15261              	.LASF402:
 15262 1010 5F736967 		.ascii	"_signal_buf\000"
 15262      6E616C5F 
 15262      62756600 
 15263              	.LASF628:
 15264 101c 6D637077 		.ascii	"mcpwm_get_configuration\000"
 15264      6D5F6765 
ARM GAS  /var/folders/7z/kps_xzfj7sn5l5gkyq8s9db00000gn/T//ccvBF34a.s 			page 284


 15264      745F636F 
 15264      6E666967 
 15264      75726174 
 15265              	.LASF348:
 15266 1034 5F636F6F 		.ascii	"_cookie\000"
 15266      6B696500 
 15267              	.LASF465:
 15268 103c 6C5F7465 		.ascii	"l_temp_motor_start\000"
 15268      6D705F6D 
 15268      6F746F72 
 15268      5F737461 
 15268      727400
 15269              	.LASF272:
 15270 104f 54494D5F 		.ascii	"TIM_OCNPolarity\000"
 15270      4F434E50 
 15270      6F6C6172 
 15270      69747900 
 15271              	.LASF154:
 15272 105f 444D4132 		.ascii	"DMA2_Stream6_IRQn\000"
 15272      5F537472 
 15272      65616D36 
 15272      5F495251 
 15272      6E00
 15273              	.LASF520:
 15274 1071 45626574 		.ascii	"EbetaFinal\000"
 15274      6146696E 
 15274      616C00
 15275              	.LASF34:
 15276 107c 705F6E65 		.ascii	"p_next\000"
 15276      787400
 15277              	.LASF504:
 15278 1083 4368616E 		.ascii	"ChangeSpeed\000"
 15278      67655370 
 15278      65656400 
 15279              	.LASF613:
 15280 108f 54494D5F 		.ascii	"TIM_BDTRInitStructure\000"
 15280      42445452 
 15280      496E6974 
 15280      53747275 
 15280      63747572 
 15281              	.LASF104:
 15282 10a5 43414E31 		.ascii	"CAN1_TX_IRQn\000"
 15282      5F54585F 
 15282      4952516E 
 15282      00
 15283              	.LASF707:
 15284 10b2 636F7374 		.ascii	"costh\000"
 15284      6800
 15285              	.LASF767:
 15286 10b8 53455155 		.ascii	"SEQUENCE_thread\000"
 15286      454E4345 
 15286      5F746872 
 15286      65616400 
 15287              	.LASF536:
 15288 10c8 71645375 		.ascii	"qdSum\000"
 15288      6D00
 15289              	.LASF148:
ARM GAS  /var/folders/7z/kps_xzfj7sn5l5gkyq8s9db00000gn/T//ccvBF34a.s 			page 285


 15290 10ce 43414E32 		.ascii	"CAN2_TX_IRQn\000"
 15290      5F54585F 
 15290      4952516E 
 15290      00
 15291              	.LASF493:
 15292 10db 63635F67 		.ascii	"cc_gain\000"
 15292      61696E00 
 15293              	.LASF153:
 15294 10e3 444D4132 		.ascii	"DMA2_Stream5_IRQn\000"
 15294      5F537472 
 15294      65616D35 
 15294      5F495251 
 15294      6E00
 15295              	.LASF559:
 15296 10f5 71465750 		.ascii	"qFWPercentage\000"
 15296      65726365 
 15296      6E746167 
 15296      6500
 15297              	.LASF27:
 15298 1103 74726566 		.ascii	"trefs_t\000"
 15298      735F7400 
 15299              	.LASF641:
 15300 110b 63757272 		.ascii	"curr0_offset\000"
 15300      305F6F66 
 15300      66736574 
 15300      00
 15301              	.LASF52:
 15302 1118 705F6D70 		.ascii	"p_mpool\000"
 15302      6F6F6C00 
 15303              	.LASF447:
 15304 1120 70776D5F 		.ascii	"pwm_mode\000"
 15304      6D6F6465 
 15304      00
 15305              	.LASF449:
 15306 1129 6D6F746F 		.ascii	"motor_type\000"
 15306      725F7479 
 15306      706500
 15307              	.LASF324:
 15308 1134 5F5F746D 		.ascii	"__tm_sec\000"
 15308      5F736563 
 15308      00
 15309              	.LASF476:
 15310 113d 736C5F6D 		.ascii	"sl_max_fullbreak_current_dir_change\000"
 15310      61785F66 
 15310      756C6C62 
 15310      7265616B 
 15310      5F637572 
 15311              	.LASF333:
 15312 1161 5F6F6E5F 		.ascii	"_on_exit_args\000"
 15312      65786974 
 15312      5F617267 
 15312      7300
 15313              	.LASF638:
 15314 116f 63757272 		.ascii	"curr0_sum\000"
 15314      305F7375 
 15314      6D00
 15315              	.LASF80:
ARM GAS  /var/folders/7z/kps_xzfj7sn5l5gkyq8s9db00000gn/T//ccvBF34a.s 			page 286


 15316 1179 55736167 		.ascii	"UsageFault_IRQn\000"
 15316      65466175 
 15316      6C745F49 
 15316      52516E00 
 15317              	.LASF25:
 15318 1189 746D6F64 		.ascii	"tmode_t\000"
 15318      655F7400 
 15319              	.LASF689:
 15320 1191 48616C6C 		.ascii	"HallPLLde1\000"
 15320      504C4C64 
 15320      653100
 15321              	.LASF614:
 15322 119c 4E564943 		.ascii	"NVIC_InitStructure\000"
 15322      5F496E69 
 15322      74537472 
 15322      75637475 
 15322      726500
 15323              	.LASF342:
 15324 11af 5F626173 		.ascii	"_base\000"
 15324      6500
 15325              	.LASF197:
 15326 11b5 53515231 		.ascii	"SQR1\000"
 15326      00
 15327              	.LASF198:
 15328 11ba 53515232 		.ascii	"SQR2\000"
 15328      00
 15329              	.LASF199:
 15330 11bf 53515233 		.ascii	"SQR3\000"
 15330      00
 15331              	.LASF685:
 15332 11c4 48616C6C 		.ascii	"HallPLLlead1\000"
 15332      504C4C6C 
 15332      65616431 
 15332      00
 15333              	.LASF686:
 15334 11d1 48616C6C 		.ascii	"HallPLLlead2\000"
 15334      504C4C6C 
 15334      65616432 
 15334      00
 15335              	.LASF624:
 15336 11de 6D637077 		.ascii	"mcpwm_fault_to_string\000"
 15336      6D5F6661 
 15336      756C745F 
 15336      746F5F73 
 15336      7472696E 
 15337              	.LASF301:
 15338 11f4 42535252 		.ascii	"BSRR\000"
 15338      00
 15339              	.LASF734:
 15340 11f9 646D6153 		.ascii	"dmaStreamAllocate\000"
 15340      74726561 
 15340      6D416C6C 
 15340      6F636174 
 15340      6500
 15341              	.LASF231:
 15342 120b 54494D5F 		.ascii	"TIM_TypeDef\000"
 15342      54797065 
ARM GAS  /var/folders/7z/kps_xzfj7sn5l5gkyq8s9db00000gn/T//ccvBF34a.s 			page 287


 15342      44656600 
 15343              	.LASF407:
 15344 1217 5F776372 		.ascii	"_wcrtomb_state\000"
 15344      746F6D62 
 15344      5F737461 
 15344      746500
 15345              	.LASF328:
 15346 1226 5F5F746D 		.ascii	"__tm_mon\000"
 15346      5F6D6F6E 
 15346      00
 15347              	.LASF220:
 15348 122f 52455345 		.ascii	"RESERVED10\000"
 15348      52564544 
 15348      313000
 15349              	.LASF227:
 15350 123a 52455345 		.ascii	"RESERVED12\000"
 15350      52564544 
 15350      313200
 15351              	.LASF229:
 15352 1245 52455345 		.ascii	"RESERVED13\000"
 15352      52564544 
 15352      313300
 15353              	.LASF230:
 15354 1250 52455345 		.ascii	"RESERVED14\000"
 15354      52564544 
 15354      313400
 15355              	.LASF96:
 15356 125b 444D4131 		.ascii	"DMA1_Stream0_IRQn\000"
 15356      5F537472 
 15356      65616D30 
 15356      5F495251 
 15356      6E00
 15357              	.LASF127:
 15358 126d 4F54475F 		.ascii	"OTG_FS_WKUP_IRQn\000"
 15358      46535F57 
 15358      4B55505F 
 15358      4952516E 
 15358      00
 15359              	.LASF730:
 15360 127e 54494D5F 		.ascii	"TIM_BDTRConfig\000"
 15360      42445452 
 15360      436F6E66 
 15360      696700
 15361              	.LASF429:
 15362 128d 4D4F544F 		.ascii	"MOTOR_TYPE_DC\000"
 15362      525F5459 
 15362      50455F44 
 15362      4300
 15363              	.LASF418:
 15364 129b 4D435F53 		.ascii	"MC_STATE_RUNNING\000"
 15364      54415445 
 15364      5F52554E 
 15364      4E494E47 
 15364      00
 15365              	.LASF606:
 15366 12ac 43616C63 		.ascii	"CalculateParkAngle\000"
 15366      756C6174 
ARM GAS  /var/folders/7z/kps_xzfj7sn5l5gkyq8s9db00000gn/T//ccvBF34a.s 			page 288


 15366      65506172 
 15366      6B416E67 
 15366      6C6500
 15367              	.LASF367:
 15368 12bf 5F656D65 		.ascii	"_emergency\000"
 15368      7267656E 
 15368      637900
 15369              	.LASF477:
 15370 12ca 736C5F63 		.ascii	"sl_cycle_int_limit\000"
 15370      79636C65 
 15370      5F696E74 
 15370      5F6C696D 
 15370      697400
 15371              	.LASF17:
 15372 12dd 696E7438 		.ascii	"int8_t\000"
 15372      5F7400
 15373              	.LASF236:
 15374 12e4 4144435F 		.ascii	"ADC_ExternalTrigConv\000"
 15374      45787465 
 15374      726E616C 
 15374      54726967 
 15374      436F6E76 
 15375              	.LASF317:
 15376 12f9 5F5F554C 		.ascii	"__ULong\000"
 15376      6F6E6700 
 15377              	.LASF718:
 15378 1301 6174616E 		.ascii	"atan2f\000"
 15378      326600
 15379              	.LASF63:
 15380 1308 725F6E65 		.ascii	"r_newer\000"
 15380      77657200 
 15381              	.LASF729:
 15382 1310 54494D5F 		.ascii	"TIM_OC4PreloadConfig\000"
 15382      4F433450 
 15382      72656C6F 
 15382      6164436F 
 15382      6E666967 
 15383              	.LASF109:
 15384 1325 54494D31 		.ascii	"TIM1_BRK_TIM9_IRQn\000"
 15384      5F42524B 
 15384      5F54494D 
 15384      395F4952 
 15384      516E00
 15385              	.LASF237:
 15386 1338 4144435F 		.ascii	"ADC_DataAlign\000"
 15386      44617461 
 15386      416C6967 
 15386      6E00
 15387              	.LASF256:
 15388 1346 444D415F 		.ascii	"DMA_FIFOMode\000"
 15388      4649464F 
 15388      4D6F6465 
 15388      00
 15389              	.LASF441:
 15390 1353 6379636C 		.ascii	"cycle_int_limit_max\000"
 15390      655F696E 
 15390      745F6C69 
ARM GAS  /var/folders/7z/kps_xzfj7sn5l5gkyq8s9db00000gn/T//ccvBF34a.s 			page 289


 15390      6D69745F 
 15390      6D617800 
 15391              	.LASF368:
 15392 1367 5F637572 		.ascii	"_current_category\000"
 15392      72656E74 
 15392      5F636174 
 15392      65676F72 
 15392      7900
 15393              	.LASF28:
 15394 1379 74736C69 		.ascii	"tslices_t\000"
 15394      6365735F 
 15394      7400
 15395              	.LASF392:
 15396 1383 5F737472 		.ascii	"_strtok_last\000"
 15396      746F6B5F 
 15396      6C617374 
 15396      00
 15397              	.LASF166:
 15398 1390 4650555F 		.ascii	"FPU_IRQn\000"
 15398      4952516E 
 15398      00
 15399              	.LASF708:
 15400 1399 73696E74 		.ascii	"sinth\000"
 15400      6800
 15401              	.LASF570:
 15402 139f 496E6974 		.ascii	"InitMeasCompCurr\000"
 15402      4D656173 
 15402      436F6D70 
 15402      43757272 
 15402      00
 15403              	.LASF59:
 15404 13b0 73697A65 		.ascii	"sizetype\000"
 15404      74797065 
 15404      00
 15405              	.LASF544:
 15406 13b9 7153696E 		.ascii	"qSin\000"
 15406      00
 15407              	.LASF388:
 15408 13be 5F736565 		.ascii	"_seed\000"
 15408      6400
 15409              	.LASF78:
 15410 13c4 4D656D6F 		.ascii	"MemoryManagement_IRQn\000"
 15410      72794D61 
 15410      6E616765 
 15410      6D656E74 
 15410      5F495251 
 15411              	.LASF690:
 15412 13da 48616C6C 		.ascii	"HallPLLdef\000"
 15412      504C4C64 
 15412      656600
 15413              	.LASF351:
 15414 13e5 5F736565 		.ascii	"_seek\000"
 15414      6B00
 15415              	.LASF306:
 15416 13eb 696F706F 		.ascii	"ioportmask_t\000"
 15416      72746D61 
 15416      736B5F74 
ARM GAS  /var/folders/7z/kps_xzfj7sn5l5gkyq8s9db00000gn/T//ccvBF34a.s 			page 290


 15416      00
 15417              	.LASF247:
 15418 13f8 444D415F 		.ascii	"DMA_Memory0BaseAddr\000"
 15418      4D656D6F 
 15418      72793042 
 15418      61736541 
 15418      64647200 
 15419              	.LASF651:
 15420 140c 72706D5F 		.ascii	"rpm_now\000"
 15420      6E6F7700 
 15421              	.LASF205:
 15422 1414 4144435F 		.ascii	"ADC_TypeDef\000"
 15422      54797065 
 15422      44656600 
 15423              	.LASF9:
 15424 1420 73686F72 		.ascii	"short unsigned int\000"
 15424      7420756E 
 15424      7369676E 
 15424      65642069 
 15424      6E7400
 15425              	.LASF279:
 15426 1433 54494D5F 		.ascii	"TIM_DeadTime\000"
 15426      44656164 
 15426      54696D65 
 15426      00
 15427              	.LASF4:
 15428 1440 7369676E 		.ascii	"signed char\000"
 15428      65642063 
 15428      68617200 
 15429              	.LASF150:
 15430 144c 43414E32 		.ascii	"CAN2_RX1_IRQn\000"
 15430      5F525831 
 15430      5F495251 
 15430      6E00
 15431              	.LASF268:
 15432 145a 54494D5F 		.ascii	"TIM_OutputState\000"
 15432      4F757470 
 15432      75745374 
 15432      61746500 
 15433              	.LASF620:
 15434 146a 6D637077 		.ascii	"mcpwm_get_tot_current\000"
 15434      6D5F6765 
 15434      745F746F 
 15434      745F6375 
 15434      7272656E 
 15435              	.LASF44:
 15436 1480 705F7072 		.ascii	"p_preempt\000"
 15436      65656D70 
 15436      7400
 15437              	.LASF246:
 15438 148a 444D415F 		.ascii	"DMA_PeripheralBaseAddr\000"
 15438      50657269 
 15438      70686572 
 15438      616C4261 
 15438      73654164 
 15439              	.LASF456:
 15440 14a1 6C5F6D61 		.ascii	"l_max_erpm\000"
ARM GAS  /var/folders/7z/kps_xzfj7sn5l5gkyq8s9db00000gn/T//ccvBF34a.s 			page 291


 15440      785F6572 
 15440      706D00
 15441              	.LASF45:
 15442 14ac 705F7469 		.ascii	"p_time\000"
 15442      6D6500
 15443              	.LASF654:
 15444 14b3 726C6973 		.ascii	"rlist\000"
 15444      7400
 15445              	.LASF254:
 15446 14b9 444D415F 		.ascii	"DMA_Mode\000"
 15446      4D6F6465 
 15446      00
 15447              	.LASF752:
 15448 14c2 54494D5F 		.ascii	"TIM_SelectSlaveMode\000"
 15448      53656C65 
 15448      6374536C 
 15448      6176654D 
 15448      6F646500 
 15449              	.LASF660:
 15450 14d6 636F756E 		.ascii	"count\000"
 15450      7400
 15451              	.LASF737:
 15452 14dc 444D415F 		.ascii	"DMA_ITConfig\000"
 15452      4954436F 
 15452      6E666967 
 15452      00
 15453              	.LASF149:
 15454 14e9 43414E32 		.ascii	"CAN2_RX0_IRQn\000"
 15454      5F525830 
 15454      5F495251 
 15454      6E00
 15455              	.LASF249:
 15456 14f7 444D415F 		.ascii	"DMA_BufferSize\000"
 15456      42756666 
 15456      65725369 
 15456      7A6500
 15457              	.LASF637:
 15458 1506 53455155 		.ascii	"SEQUENCE_thread_wa\000"
 15458      454E4345 
 15458      5F746872 
 15458      6561645F 
 15458      776100
 15459              	.LASF375:
 15460 1519 5F667265 		.ascii	"_freelist\000"
 15460      656C6973 
 15460      7400
 15461              	.LASF431:
 15462 1523 4641554C 		.ascii	"FAULT_CODE_NONE\000"
 15462      545F434F 
 15462      44455F4E 
 15462      4F4E4500 
 15463              	.LASF437:
 15464 1533 4641554C 		.ascii	"FAULT_CODE_OVER_TEMP_MOTOR\000"
 15464      545F434F 
 15464      44455F4F 
 15464      5645525F 
 15464      54454D50 
ARM GAS  /var/folders/7z/kps_xzfj7sn5l5gkyq8s9db00000gn/T//ccvBF34a.s 			page 292


 15465              	.LASF502:
 15466 154e 42746E31 		.ascii	"Btn1Pressed\000"
 15466      50726573 
 15466      73656400 
 15467              	.LASF577:
 15468 155a 4D656173 		.ascii	"MeasCompCurr\000"
 15468      436F6D70 
 15468      43757272 
 15468      00
 15469              	.LASF139:
 15470 1567 54494D36 		.ascii	"TIM6_DAC_IRQn\000"
 15470      5F444143 
 15470      5F495251 
 15470      6E00
 15471              	.LASF69:
 15472 1575 6D5F6F77 		.ascii	"m_owner\000"
 15472      6E657200 
 15473              	.LASF54:
 15474 157d 54687265 		.ascii	"ThreadsList\000"
 15474      6164734C 
 15474      69737400 
 15475              	.LASF555:
 15476 1589 71496452 		.ascii	"qIdRef\000"
 15476      656600
 15477              	.LASF478:
 15478 1590 736C5F70 		.ascii	"sl_phase_advance_at_br\000"
 15478      68617365 
 15478      5F616476 
 15478      616E6365 
 15478      5F61745F 
 15479              	.LASF305:
 15480 15a7 4750494F 		.ascii	"GPIO_TypeDef\000"
 15480      5F547970 
 15480      65446566 
 15480      00
 15481              	.LASF356:
 15482 15b4 5F6F6666 		.ascii	"_offset\000"
 15482      73657400 
 15483              	.LASF132:
 15484 15bc 444D4131 		.ascii	"DMA1_Stream7_IRQn\000"
 15484      5F537472 
 15484      65616D37 
 15484      5F495251 
 15484      6E00
 15485              	.LASF133:
 15486 15ce 46534D43 		.ascii	"FSMC_IRQn\000"
 15486      5F495251 
 15486      6E00
 15487              	.LASF241:
 15488 15d8 4144435F 		.ascii	"ADC_Prescaler\000"
 15488      50726573 
 15488      63616C65 
 15488      7200
 15489              	.LASF125:
 15490 15e6 45585449 		.ascii	"EXTI15_10_IRQn\000"
 15490      31355F31 
 15490      305F4952 
ARM GAS  /var/folders/7z/kps_xzfj7sn5l5gkyq8s9db00000gn/T//ccvBF34a.s 			page 293


 15490      516E00
 15491              	.LASF642:
 15492 15f5 63757272 		.ascii	"curr1_offset\000"
 15492      315F6F66 
 15492      66736574 
 15492      00
 15493              	.LASF401:
 15494 1602 5F6C3634 		.ascii	"_l64a_buf\000"
 15494      615F6275 
 15494      6600
 15495              	.LASF233:
 15496 160c 4144435F 		.ascii	"ADC_ScanConvMode\000"
 15496      5363616E 
 15496      436F6E76 
 15496      4D6F6465 
 15496      00
 15497              	.LASF716:
 15498 161d 7574696C 		.ascii	"utils_sys_unlock_cnt\000"
 15498      735F7379 
 15498      735F756E 
 15498      6C6F636B 
 15498      5F636E74 
 15499              	.LASF228:
 15500 1632 444D4152 		.ascii	"DMAR\000"
 15500      00
 15501              	.LASF586:
 15502 1637 53657475 		.ascii	"SetupParm\000"
 15502      70506172 
 15502      6D00
 15503              	.LASF450:
 15504 1641 6C5F6375 		.ascii	"l_current_max\000"
 15504      7272656E 
 15504      745F6D61 
 15504      7800
 15505              	.LASF393:
 15506 164f 5F617363 		.ascii	"_asctime_buf\000"
 15506      74696D65 
 15506      5F627566 
 15506      00
 15507              	.LASF623:
 15508 165c 6D637077 		.ascii	"mcpwm_get_fault\000"
 15508      6D5F6765 
 15508      745F6661 
 15508      756C7400 
 15509              	.LASF615:
 15510 166c 4144435F 		.ascii	"ADC_CommonInitStructure\000"
 15510      436F6D6D 
 15510      6F6E496E 
 15510      69745374 
 15510      72756374 
 15511              	.LASF311:
 15512 1684 5F5F7763 		.ascii	"__wch\000"
 15512      6800
 15513              	.LASF487:
 15514 168a 735F7069 		.ascii	"s_pid_min_rpm\000"
 15514      645F6D69 
 15514      6E5F7270 
ARM GAS  /var/folders/7z/kps_xzfj7sn5l5gkyq8s9db00000gn/T//ccvBF34a.s 			page 294


 15514      6D00
 15515              	.LASF683:
 15516 1698 53746174 		.ascii	"State_Index\000"
 15516      655F496E 
 15516      64657800 
 15517              	.LASF408:
 15518 16a4 5F776373 		.ascii	"_wcsrtombs_state\000"
 15518      72746F6D 
 15518      62735F73 
 15518      74617465 
 15518      00
 15519              	.LASF130:
 15520 16b5 54494D38 		.ascii	"TIM8_TRG_COM_TIM14_IRQn\000"
 15520      5F545247 
 15520      5F434F4D 
 15520      5F54494D 
 15520      31345F49 
 15521              	.LASF632:
 15522 16cd 4D656173 		.ascii	"MeasCurrParm\000"
 15522      43757272 
 15522      5061726D 
 15522      00
 15523              	.LASF307:
 15524 16da 5F4C4F43 		.ascii	"_LOCK_RECURSIVE_T\000"
 15524      4B5F5245 
 15524      43555253 
 15524      4956455F 
 15524      5400
 15525              	.LASF611:
 15526 16ec 54494D5F 		.ascii	"TIM_TimeBaseStructure\000"
 15526      54696D65 
 15526      42617365 
 15526      53747275 
 15526      63747572 
 15527              	.LASF43:
 15528 1702 705F7265 		.ascii	"p_refs\000"
 15528      667300
 15529              	.LASF735:
 15530 1709 444D415F 		.ascii	"DMA_Init\000"
 15530      496E6974 
 15530      00
 15531              	.LASF276:
 15532 1712 54494D5F 		.ascii	"TIM_OSSRState\000"
 15532      4F535352 
 15532      53746174 
 15532      6500
 15533              	.LASF11:
 15534 1720 6C6F6E67 		.ascii	"long int\000"
 15534      20696E74 
 15534      00
 15535              	.LASF721:
 15536 1729 54494D5F 		.ascii	"TIM_TimeBaseInit\000"
 15536      54696D65 
 15536      42617365 
 15536      496E6974 
 15536      00
 15537              	.LASF206:
ARM GAS  /var/folders/7z/kps_xzfj7sn5l5gkyq8s9db00000gn/T//ccvBF34a.s 			page 295


 15538 173a 4144435F 		.ascii	"ADC_Common_TypeDef\000"
 15538      436F6D6D 
 15538      6F6E5F54 
 15538      79706544 
 15538      656600
 15539              	.LASF563:
 15540 174d 6950574D 		.ascii	"iPWMPeriod\000"
 15540      50657269 
 15540      6F6400
 15541              	.LASF446:
 15542 1758 6D635F72 		.ascii	"mc_rpm_dep_struct\000"
 15542      706D5F64 
 15542      65705F73 
 15542      74727563 
 15542      7400
 15543              	.LASF726:
 15544 176a 54494D5F 		.ascii	"TIM_OC1PreloadConfig\000"
 15544      4F433150 
 15544      72656C6F 
 15544      6164436F 
 15544      6E666967 
 15545              	.LASF68:
 15546 177f 6D5F7175 		.ascii	"m_queue\000"
 15546      65756500 
 15547              	.LASF643:
 15548 1787 54686574 		.ascii	"ThetaCal\000"
 15548      6143616C 
 15548      00
 15549              	.LASF262:
 15550 1790 54494D5F 		.ascii	"TIM_CounterMode\000"
 15550      436F756E 
 15550      7465724D 
 15550      6F646500 
 15551              	.LASF266:
 15552 17a0 54494D5F 		.ascii	"TIM_TimeBaseInitTypeDef\000"
 15552      54696D65 
 15552      42617365 
 15552      496E6974 
 15552      54797065 
 15553              	.LASF715:
 15554 17b8 7574696C 		.ascii	"utils_sys_lock_cnt\000"
 15554      735F7379 
 15554      735F6C6F 
 15554      636B5F63 
 15554      6E7400
 15555              	.LASF425:
 15556 17cb 434F4D4D 		.ascii	"COMM_MODE_INTEGRATE\000"
 15556      5F4D4F44 
 15556      455F494E 
 15556      54454752 
 15556      41544500 
 15557              	.LASF650:
 15558 17df 6C617374 		.ascii	"last_current_sample_filtered\000"
 15558      5F637572 
 15558      72656E74 
 15558      5F73616D 
 15558      706C655F 
ARM GAS  /var/folders/7z/kps_xzfj7sn5l5gkyq8s9db00000gn/T//ccvBF34a.s 			page 296


 15559              	.LASF250:
 15560 17fc 444D415F 		.ascii	"DMA_PeripheralInc\000"
 15560      50657269 
 15560      70686572 
 15560      616C496E 
 15560      6300
 15561              	.LASF616:
 15562 180e 444D415F 		.ascii	"DMA_InitStructure\000"
 15562      496E6974 
 15562      53747275 
 15562      63747572 
 15562      6500
 15563              	.LASF386:
 15564 1820 5F696F62 		.ascii	"_iobs\000"
 15564      7300
 15565              	.LASF284:
 15566 1826 4E564943 		.ascii	"NVIC_IRQChannel\000"
 15566      5F495251 
 15566      4368616E 
 15566      6E656C00 
 15567              	.LASF653:
 15568 1836 636F6E66 		.ascii	"conf\000"
 15568      00
 15569              	.LASF58:
 15570 183b 636F6E74 		.ascii	"context\000"
 15570      65787400 
 15571              	.LASF396:
 15572 1843 5F72616E 		.ascii	"_rand_next\000"
 15572      645F6E65 
 15572      787400
 15573              	.LASF269:
 15574 184e 54494D5F 		.ascii	"TIM_OutputNState\000"
 15574      4F757470 
 15574      75744E53 
 15574      74617465 
 15574      00
 15575              	.LASF302:
 15576 185f 4C434B52 		.ascii	"LCKR\000"
 15576      00
 15577              	.LASF537:
 15578 1864 714F7574 		.ascii	"qOutMax\000"
 15578      4D617800 
 15579              	.LASF21:
 15580 186c 75696E74 		.ascii	"uint32_t\000"
 15580      33325F74 
 15580      00
 15581              	.LASF142:
 15582 1875 444D4132 		.ascii	"DMA2_Stream1_IRQn\000"
 15582      5F537472 
 15582      65616D31 
 15582      5F495251 
 15582      6E00
 15583              	.LASF530:
 15584 1887 4B736C66 		.ascii	"KslfFinal\000"
 15584      46696E61 
 15584      6C00
 15585              	.LASF248:
ARM GAS  /var/folders/7z/kps_xzfj7sn5l5gkyq8s9db00000gn/T//ccvBF34a.s 			page 297


 15586 1891 444D415F 		.ascii	"DMA_DIR\000"
 15586      44495200 
 15587              	.LASF320:
 15588 1899 5F6D6178 		.ascii	"_maxwds\000"
 15588      77647300 
 15589              	.LASF608:
 15590 18a1 4657496E 		.ascii	"FWInit\000"
 15590      697400
 15591              	.LASF645:
 15592 18a8 48616C6C 		.ascii	"Hall_KA\000"
 15592      5F4B4100 
 15593              	.LASF95:
 15594 18b0 45585449 		.ascii	"EXTI4_IRQn\000"
 15594      345F4952 
 15594      516E00
 15595              	.LASF711:
 15596 18bb 636F7366 		.ascii	"cosf\000"
 15596      00
 15597              	.LASF414:
 15598 18c0 6C6F6E67 		.ascii	"long double\000"
 15598      20646F75 
 15598      626C6500 
 15599              	.LASF55:
 15600 18cc 72656761 		.ascii	"regarm_t\000"
 15600      726D5F74 
 15600      00
 15601              	.LASF31:
 15602 18d5 6576656E 		.ascii	"eventmask_t\000"
 15602      746D6173 
 15602      6B5F7400 
 15603              	.LASF714:
 15604 18e1 43616C63 		.ascii	"CalcRefVec\000"
 15604      52656656 
 15604      656300
 15605              	.LASF534:
 15606 18ec 4F6D6567 		.ascii	"Omega\000"
 15606      6100
 15607              	.LASF141:
 15608 18f2 444D4132 		.ascii	"DMA2_Stream0_IRQn\000"
 15608      5F537472 
 15608      65616D30 
 15608      5F495251 
 15608      6E00
 15609              	.LASF575:
 15610 1904 4669656C 		.ascii	"FieldWeakening\000"
 15610      64576561 
 15610      6B656E69 
 15610      6E6700
 15611              	.LASF13:
 15612 1913 6C6F6E67 		.ascii	"long unsigned int\000"
 15612      20756E73 
 15612      69676E65 
 15612      6420696E 
 15612      7400
 15613              	.LASF94:
 15614 1925 45585449 		.ascii	"EXTI3_IRQn\000"
 15614      335F4952 
ARM GAS  /var/folders/7z/kps_xzfj7sn5l5gkyq8s9db00000gn/T//ccvBF34a.s 			page 298


 15614      516E00
 15615              	.LASF494:
 15616 1930 63635F72 		.ascii	"cc_ramp_step_max\000"
 15616      616D705F 
 15616      73746570 
 15616      5F6D6178 
 15616      00
 15617              	.LASF23:
 15618 1941 626F6F6C 		.ascii	"bool_t\000"
 15618      5F7400
 15619              	.LASF490:
 15620 1948 705F7069 		.ascii	"p_pid_kd\000"
 15620      645F6B64 
 15620      00
 15621              	.LASF489:
 15622 1951 705F7069 		.ascii	"p_pid_ki\000"
 15622      645F6B69 
 15622      00
 15623              	.LASF488:
 15624 195a 705F7069 		.ascii	"p_pid_kp\000"
 15624      645F6B70 
 15624      00
 15625              	.LASF482:
 15626 1963 68616C6C 		.ascii	"hall_fwd_add\000"
 15626      5F667764 
 15626      5F616464 
 15626      00
 15627              	.LASF422:
 15628 1970 50574D5F 		.ascii	"PWM_MODE_SYNCHRONOUS\000"
 15628      4D4F4445 
 15628      5F53594E 
 15628      4348524F 
 15628      4E4F5553 
 15629              	.LASF352:
 15630 1985 5F636C6F 		.ascii	"_close\000"
 15630      736500
 15631              	.LASF75:
 15632 198c 63686172 		.ascii	"char\000"
 15632      00
 15633              	.LASF124:
 15634 1991 55534152 		.ascii	"USART3_IRQn\000"
 15634      54335F49 
 15634      52516E00 
 15635              	.LASF60:
 15636 199d 725F7175 		.ascii	"r_queue\000"
 15636      65756500 
 15637              	.LASF384:
 15638 19a5 5F676C75 		.ascii	"_glue\000"
 15638      6500
 15639              	.LASF480:
 15640 19ab 736C5F62 		.ascii	"sl_bemf_coupling_k\000"
 15640      656D665F 
 15640      636F7570 
 15640      6C696E67 
 15640      5F6B00
 15641              	.LASF640:
 15642 19be 63757272 		.ascii	"curr_start_samples\000"
ARM GAS  /var/folders/7z/kps_xzfj7sn5l5gkyq8s9db00000gn/T//ccvBF34a.s 			page 299


 15642      5F737461 
 15642      72745F73 
 15642      616D706C 
 15642      657300
 15643              	.LASF527:
 15644 19d1 49626574 		.ascii	"Ibeta\000"
 15644      6100
 15645              	.LASF636:
 15646 19d7 54686574 		.ascii	"Theta_error\000"
 15646      615F6572 
 15646      726F7200 
 15647              	.LASF295:
 15648 19e3 73746D33 		.ascii	"stm32_dmaisr_t\000"
 15648      325F646D 
 15648      61697372 
 15648      5F7400
 15649              	.LASF498:
 15650 19f2 4F70656E 		.ascii	"OpenLoop\000"
 15650      4C6F6F70 
 15650      00
 15651              	.LASF557:
 15652 19fb 71467741 		.ascii	"qFwActiv\000"
 15652      63746976 
 15652      00
 15653              	.LASF243:
 15654 1a04 4144435F 		.ascii	"ADC_TwoSamplingDelay\000"
 15654      54776F53 
 15654      616D706C 
 15654      696E6744 
 15654      656C6179 
 15655              	.LASF123:
 15656 1a19 55534152 		.ascii	"USART2_IRQn\000"
 15656      54325F49 
 15656      52516E00 
 15657              	.LASF508:
 15658 1a25 4F666673 		.ascii	"Offseta\000"
 15658      65746100 
 15659              	.LASF509:
 15660 1a2d 4F666673 		.ascii	"Offsetb\000"
 15660      65746200 
 15661              	.LASF318:
 15662 1a35 5F426967 		.ascii	"_Bigint\000"
 15662      696E7400 
 15663              	.LASF420:
 15664 1a3d 6D635F73 		.ascii	"mc_state\000"
 15664      74617465 
 15664      00
 15665              	.LASF165:
 15666 1a46 48415348 		.ascii	"HASH_RNG_IRQn\000"
 15666      5F524E47 
 15666      5F495251 
 15666      6E00
 15667              	.LASF646:
 15668 1a54 48616C6C 		.ascii	"Hall_KB\000"
 15668      5F4B4200 
 15669              	.LASF187:
 15670 1a5c 49544D5F 		.ascii	"ITM_Type\000"
ARM GAS  /var/folders/7z/kps_xzfj7sn5l5gkyq8s9db00000gn/T//ccvBF34a.s 			page 300


 15670      54797065 
 15670      00
 15671              	.LASF116:
 15672 1a65 49324331 		.ascii	"I2C1_EV_IRQn\000"
 15672      5F45565F 
 15672      4952516E 
 15672      00
 15673              	.LASF625:
 15674 1a72 6661756C 		.ascii	"fault\000"
 15674      7400
 15675              	.LASF610:
 15676 1a78 636F6E66 		.ascii	"configuration\000"
 15676      69677572 
 15676      6174696F 
 15676      6E00
 15677              	.LASF118:
 15678 1a86 49324332 		.ascii	"I2C2_EV_IRQn\000"
 15678      5F45565F 
 15678      4952516E 
 15678      00
 15679              	.LASF122:
 15680 1a93 55534152 		.ascii	"USART1_IRQn\000"
 15680      54315F49 
 15680      52516E00 
 15681              	.LASF379:
 15682 1a9f 5F617465 		.ascii	"_atexit0\000"
 15682      78697430 
 15682      00
 15683              	.LASF591:
 15684 1aa8 53657475 		.ascii	"SetupControlParameters\000"
 15684      70436F6E 
 15684      74726F6C 
 15684      50617261 
 15684      6D657465 
 15685              	.LASF157:
 15686 1abf 49324333 		.ascii	"I2C3_EV_IRQn\000"
 15686      5F45565F 
 15686      4952516E 
 15686      00
 15687              	.LASF426:
 15688 1acc 434F4D4D 		.ascii	"COMM_MODE_DELAY\000"
 15688      5F4D4F44 
 15688      455F4445 
 15688      4C415900 
 15689              	.LASF451:
 15690 1adc 6C5F6375 		.ascii	"l_current_min\000"
 15690      7272656E 
 15690      745F6D69 
 15690      6E00
 15691              	.LASF656:
 15692 1aea 5F73746D 		.ascii	"_stm32_dma_streams\000"
 15692      33325F64 
 15692      6D615F73 
 15692      74726561 
 15692      6D7300
 15693              	.LASF605:
 15694 1afd 534D435F 		.ascii	"SMC_Position_Estimation\000"
ARM GAS  /var/folders/7z/kps_xzfj7sn5l5gkyq8s9db00000gn/T//ccvBF34a.s 			page 301


 15694      506F7369 
 15694      74696F6E 
 15694      5F457374 
 15694      696D6174 
 15695              	.LASF403:
 15696 1b15 5F676574 		.ascii	"_getdate_err\000"
 15696      64617465 
 15696      5F657272 
 15696      00
 15697              	.LASF433:
 15698 1b22 4641554C 		.ascii	"FAULT_CODE_UNDER_VOLTAGE\000"
 15698      545F434F 
 15698      44455F55 
 15698      4E444552 
 15698      5F564F4C 
 15699              	.LASF592:
 15700 1b3b 4465626F 		.ascii	"DebounceDelay\000"
 15700      756E6365 
 15700      44656C61 
 15700      7900
 15701              	.LASF630:
 15702 1b49 6661756C 		.ascii	"fault_now\000"
 15702      745F6E6F 
 15702      7700
 15703              	.LASF159:
 15704 1b53 4F54475F 		.ascii	"OTG_HS_EP1_OUT_IRQn\000"
 15704      48535F45 
 15704      50315F4F 
 15704      55545F49 
 15704      52516E00 
 15705              	.LASF470:
 15706 1b67 6C6F5F63 		.ascii	"lo_current_min\000"
 15706      75727265 
 15706      6E745F6D 
 15706      696E00
 15707              	.LASF663:
 15708 1b76 53746172 		.ascii	"Startup_Lock\000"
 15708      7475705F 
 15708      4C6F636B 
 15708      00
 15709              	.LASF617:
 15710 1b83 4144435F 		.ascii	"ADC_InitStructure\000"
 15710      496E6974 
 15710      53747275 
 15710      63747572 
 15710      6500
 15711              	.LASF136:
 15712 1b95 53504933 		.ascii	"SPI3_IRQn\000"
 15712      5F495251 
 15712      6E00
 15713              	.LASF485:
 15714 1b9f 735F7069 		.ascii	"s_pid_ki\000"
 15714      645F6B69 
 15714      00
 15715              	.LASF484:
 15716 1ba8 735F7069 		.ascii	"s_pid_kp\000"
 15716      645F6B70 
ARM GAS  /var/folders/7z/kps_xzfj7sn5l5gkyq8s9db00000gn/T//ccvBF34a.s 			page 302


 15716      00
 15717              	.LASF304:
 15718 1bb1 41465248 		.ascii	"AFRH\000"
 15718      00
 15719              	.LASF303:
 15720 1bb6 4146524C 		.ascii	"AFRL\000"
 15720      00
 15721              	.LASF525:
 15722 1bbb 4B736C69 		.ascii	"Kslide\000"
 15722      646500
 15723              	.LASF355:
 15724 1bc2 5F626C6B 		.ascii	"_blksize\000"
 15724      73697A65 
 15724      00
 15725              	.LASF232:
 15726 1bcb 4144435F 		.ascii	"ADC_Resolution\000"
 15726      5265736F 
 15726      6C757469 
 15726      6F6E00
 15727              	.LASF612:
 15728 1bda 54494D5F 		.ascii	"TIM_OCInitStructure\000"
 15728      4F43496E 
 15728      69745374 
 15728      72756374 
 15728      75726500 
 15729              	.LASF353:
 15730 1bee 5F756275 		.ascii	"_ubuf\000"
 15730      6600
 15731              	.LASF398:
 15732 1bf4 5F6D626C 		.ascii	"_mblen_state\000"
 15732      656E5F73 
 15732      74617465 
 15732      00
 15733              	.LASF381:
 15734 1c01 5F5F7367 		.ascii	"__sglue\000"
 15734      6C756500 
 15735              	.LASF765:
 15736 1c09 4952516E 		.ascii	"IRQn\000"
 15736      00
 15737              	.LASF138:
 15738 1c0e 55415254 		.ascii	"UART5_IRQn\000"
 15738      355F4952 
 15738      516E00
 15739              	.LASF371:
 15740 1c19 5F5F636C 		.ascii	"__cleanup\000"
 15740      65616E75 
 15740      7000
 15741              	.LASF99:
 15742 1c23 444D4131 		.ascii	"DMA1_Stream3_IRQn\000"
 15742      5F537472 
 15742      65616D33 
 15742      5F495251 
 15742      6E00
 15743              	.LASF183:
 15744 1c35 43494430 		.ascii	"CID0\000"
 15744      00
 15745              	.LASF184:
ARM GAS  /var/folders/7z/kps_xzfj7sn5l5gkyq8s9db00000gn/T//ccvBF34a.s 			page 303


 15746 1c3a 43494431 		.ascii	"CID1\000"
 15746      00
 15747              	.LASF185:
 15748 1c3f 43494432 		.ascii	"CID2\000"
 15748      00
 15749              	.LASF186:
 15750 1c44 43494433 		.ascii	"CID3\000"
 15750      00
 15751              	.LASF73:
 15752 1c49 77746F62 		.ascii	"wtobjp\000"
 15752      6A7000
 15753              	.LASF309:
 15754 1c50 5F66706F 		.ascii	"_fpos_t\000"
 15754      735F7400 
 15755              	.LASF346:
 15756 1c58 5F66696C 		.ascii	"_file\000"
 15756      6500
 15757              	.LASF444:
 15758 1c5e 636F6D6D 		.ascii	"comms\000"
 15758      7300
 15759              	.LASF51:
 15760 1c64 705F7265 		.ascii	"p_realprio\000"
 15760      616C7072 
 15760      696F00
 15761              	.LASF619:
 15762 1c6f 73746F70 		.ascii	"stop_pwm_hw\000"
 15762      5F70776D 
 15762      5F687700 
 15763              	.LASF732:
 15764 1c7b 54494D5F 		.ascii	"TIM_ARRPreloadConfig\000"
 15764      41525250 
 15764      72656C6F 
 15764      6164436F 
 15764      6E666967 
 15765              	.LASF675:
 15766 1c90 50726576 		.ascii	"PrevTheta\000"
 15766      54686574 
 15766      6100
 15767              	.LASF98:
 15768 1c9a 444D4131 		.ascii	"DMA1_Stream2_IRQn\000"
 15768      5F537472 
 15768      65616D32 
 15768      5F495251 
 15768      6E00
 15769              	.LASF344:
 15770 1cac 5F5F7346 		.ascii	"__sFILE\000"
 15770      494C4500 
 15771              	.LASF538:
 15772 1cb4 714F7574 		.ascii	"qOutMin\000"
 15772      4D696E00 
 15773              	.LASF413:
 15774 1cbc 646F7562 		.ascii	"double\000"
 15774      6C6500
 15775              	.LASF340:
 15776 1cc3 5F666E73 		.ascii	"_fns\000"
 15776      00
 15777              	.LASF713:
ARM GAS  /var/folders/7z/kps_xzfj7sn5l5gkyq8s9db00000gn/T//ccvBF34a.s 			page 304


 15778 1cc8 73717274 		.ascii	"sqrtf\000"
 15778      6600
 15779              	.LASF526:
 15780 1cce 4D617853 		.ascii	"MaxSMCError\000"
 15780      4D434572 
 15780      726F7200 
 15781              	.LASF466:
 15782 1cda 6C5F7465 		.ascii	"l_temp_motor_end\000"
 15782      6D705F6D 
 15782      6F746F72 
 15782      5F656E64 
 15782      00
 15783              	.LASF315:
 15784 1ceb 5F6D6273 		.ascii	"_mbstate_t\000"
 15784      74617465 
 15784      5F7400
 15785              	.LASF409:
 15786 1cf6 5F685F65 		.ascii	"_h_errno\000"
 15786      72726E6F 
 15786      00
 15787              	.LASF513:
 15788 1cff 45616C70 		.ascii	"EalphaFinal\000"
 15788      68614669 
 15788      6E616C00 
 15789              	.LASF706:
 15790 1d0b 48616C6C 		.ascii	"Hall_CosSin\000"
 15790      5F436F73 
 15790      53696E00 
 15791              	.LASF671:
 15792 1d17 53564765 		.ascii	"SVGenParm\000"
 15792      6E506172 
 15792      6D00
 15793              	.LASF589:
 15794 1d21 43616C63 		.ascii	"CalcPI\000"
 15794      504900
 15795              	.LASF341:
 15796 1d28 5F5F7362 		.ascii	"__sbuf\000"
 15796      756600
 15797              	.LASF97:
 15798 1d2f 444D4131 		.ascii	"DMA1_Stream1_IRQn\000"
 15798      5F537472 
 15798      65616D31 
 15798      5F495251 
 15798      6E00
 15799              	.LASF639:
 15800 1d41 63757272 		.ascii	"curr1_sum\000"
 15800      315F7375 
 15800      6D00
 15801              	.LASF511:
 15802 1d4b 56616C70 		.ascii	"Valpha\000"
 15802      686100
 15803              	.LASF300:
 15804 1d52 50555044 		.ascii	"PUPDR\000"
 15804      5200
 15805              	.LASF10:
 15806 1d58 5F5F696E 		.ascii	"__int32_t\000"
 15806      7433325F 
ARM GAS  /var/folders/7z/kps_xzfj7sn5l5gkyq8s9db00000gn/T//ccvBF34a.s 			page 305


 15806      7400
 15807              	.LASF12:
 15808 1d62 5F5F7569 		.ascii	"__uint32_t\000"
 15808      6E743332 
 15808      5F7400
 15809              	.LASF763:
 15810 1d6d 7372632F 		.ascii	"src/bldc/mcpwm.c\000"
 15810      626C6463 
 15810      2F6D6370 
 15810      776D2E63 
 15810      00
 15811              	.LASF516:
 15812 1d7e 45737449 		.ascii	"EstIalpha\000"
 15812      616C7068 
 15812      6100
 15813              	.LASF190:
 15814 1d88 46756E63 		.ascii	"FunctionalState\000"
 15814      74696F6E 
 15814      616C5374 
 15814      61746500 
 15815              	.LASF146:
 15816 1d98 4554485F 		.ascii	"ETH_IRQn\000"
 15816      4952516E 
 15816      00
 15817              	.LASF84:
 15818 1da1 53797354 		.ascii	"SysTick_IRQn\000"
 15818      69636B5F 
 15818      4952516E 
 15818      00
 15819              	.LASF314:
 15820 1dae 5F5F7661 		.ascii	"__value\000"
 15820      6C756500 
 15821              	.LASF738:
 15822 1db6 4144435F 		.ascii	"ADC_CommonInit\000"
 15822      436F6D6D 
 15822      6F6E496E 
 15822      697400
 15823              	.LASF337:
 15824 1dc5 5F69735F 		.ascii	"_is_cxa\000"
 15824      63786100 
 15825              	.LASF603:
 15826 1dcd 6D637077 		.ascii	"mcpwm_adc_inj_int_handler\000"
 15826      6D5F6164 
 15826      635F696E 
 15826      6A5F696E 
 15826      745F6861 
 15827              	.LASF740:
 15828 1de7 68775F73 		.ascii	"hw_setup_adc_channels\000"
 15828      65747570 
 15828      5F616463 
 15828      5F636861 
 15828      6E6E656C 
 15829              	.LASF733:
 15830 1dfd 5243435F 		.ascii	"RCC_AHB1PeriphClockCmd\000"
 15830      41484231 
 15830      50657269 
 15830      7068436C 
ARM GAS  /var/folders/7z/kps_xzfj7sn5l5gkyq8s9db00000gn/T//ccvBF34a.s 			page 306


 15830      6F636B43 
 15831              	.LASF720:
 15832 1e14 5243435F 		.ascii	"RCC_APB2PeriphClockCmd\000"
 15832      41504232 
 15832      50657269 
 15832      7068436C 
 15832      6F636B43 
 15833              	.LASF292:
 15834 1e2b 73656C66 		.ascii	"selfindex\000"
 15834      696E6465 
 15834      7800
 15835              	.LASF568:
 15836 1e35 70506172 		.ascii	"pParm\000"
 15836      6D00
 15837              	.LASF515:
 15838 1e3b 47736D6F 		.ascii	"Gsmopos\000"
 15838      706F7300 
 15839              	.LASF374:
 15840 1e43 5F703573 		.ascii	"_p5s\000"
 15840      00
 15841              	.LASF234:
 15842 1e48 4144435F 		.ascii	"ADC_ContinuousConvMode\000"
 15842      436F6E74 
 15842      696E756F 
 15842      7573436F 
 15842      6E764D6F 
 15843              	.LASF49:
 15844 1e5f 705F6570 		.ascii	"p_epending\000"
 15844      656E6469 
 15844      6E6700
 15845              	.LASF691:
 15846 1e6a 48616C6C 		.ascii	"HallPLLdef1\000"
 15846      504C4C64 
 15846      65663100 
 15847              	.LASF107:
 15848 1e76 43414E31 		.ascii	"CAN1_SCE_IRQn\000"
 15848      5F534345 
 15848      5F495251 
 15848      6E00
 15849              	.LASF552:
 15850 1e84 71566452 		.ascii	"qVdRef\000"
 15850      656600
 15851              	.LASF297:
 15852 1e8b 4D4F4445 		.ascii	"MODER\000"
 15852      5200
 15853              	.LASF77:
 15854 1e91 4E6F6E4D 		.ascii	"NonMaskableInt_IRQn\000"
 15854      61736B61 
 15854      626C6549 
 15854      6E745F49 
 15854      52516E00 
 15855              	.LASF548:
 15856 1ea5 7156616C 		.ascii	"qValpha\000"
 15856      70686100 
 15857              	.LASF676:
 15858 1ead 41636375 		.ascii	"AccumTheta\000"
 15858      6D546865 
ARM GAS  /var/folders/7z/kps_xzfj7sn5l5gkyq8s9db00000gn/T//ccvBF34a.s 			page 307


 15858      746100
 15859              	.LASF688:
 15860 1eb8 48616C6C 		.ascii	"HallPLLde\000"
 15860      504C4C64 
 15860      6500
 15861              	.LASF168:
 15862 1ec2 52455345 		.ascii	"RESERVED0\000"
 15862      52564544 
 15862      3000
 15863              	.LASF169:
 15864 1ecc 52455345 		.ascii	"RESERVED1\000"
 15864      52564544 
 15864      3100
 15865              	.LASF170:
 15866 1ed6 52455345 		.ascii	"RESERVED2\000"
 15866      52564544 
 15866      3200
 15867              	.LASF171:
 15868 1ee0 52455345 		.ascii	"RESERVED3\000"
 15868      52564544 
 15868      3300
 15869              	.LASF173:
 15870 1eea 52455345 		.ascii	"RESERVED4\000"
 15870      52564544 
 15870      3400
 15871              	.LASF174:
 15872 1ef4 52455345 		.ascii	"RESERVED5\000"
 15872      52564544 
 15872      3500
 15873              	.LASF214:
 15874 1efe 52455345 		.ascii	"RESERVED6\000"
 15874      52564544 
 15874      3600
 15875              	.LASF216:
 15876 1f08 52455345 		.ascii	"RESERVED7\000"
 15876      52564544 
 15876      3700
 15877              	.LASF218:
 15878 1f12 52455345 		.ascii	"RESERVED8\000"
 15878      52564544 
 15878      3800
 15879              	.LASF219:
 15880 1f1c 52455345 		.ascii	"RESERVED9\000"
 15880      52564544 
 15880      3900
 15881              	.LASF283:
 15882 1f26 54494D5F 		.ascii	"TIM_BDTRInitTypeDef\000"
 15882      42445452 
 15882      496E6974 
 15882      54797065 
 15882      44656600 
 15883              	.LASF110:
 15884 1f3a 54494D31 		.ascii	"TIM1_UP_TIM10_IRQn\000"
 15884      5F55505F 
 15884      54494D31 
 15884      305F4952 
 15884      516E00
ARM GAS  /var/folders/7z/kps_xzfj7sn5l5gkyq8s9db00000gn/T//ccvBF34a.s 			page 308


 15885              	.LASF244:
 15886 1f4d 4144435F 		.ascii	"ADC_CommonInitTypeDef\000"
 15886      436F6D6D 
 15886      6F6E496E 
 15886      69745479 
 15886      70654465 
 15887              	.LASF471:
 15888 1f63 6C6F5F69 		.ascii	"lo_in_current_max\000"
 15888      6E5F6375 
 15888      7272656E 
 15888      745F6D61 
 15888      7800
 15889              	.LASF709:
 15890 1f75 63685468 		.ascii	"chThdSleep\000"
 15890      64536C65 
 15890      657000
 15891              	.LASF566:
 15892 1f80 71567233 		.ascii	"qVr3\000"
 15892      00
 15893              	.LASF61:
 15894 1f85 725F7072 		.ascii	"r_prio\000"
 15894      696F00
 15895              	.LASF655:
 15896 1f8c 49544D5F 		.ascii	"ITM_RxBuffer\000"
 15896      52784275 
 15896      66666572 
 15896      00
 15897              	.LASF569:
 15898 1f99 496E6974 		.ascii	"InitPI\000"
 15898      504900
 15899              	.LASF434:
 15900 1fa0 4641554C 		.ascii	"FAULT_CODE_DRV8302\000"
 15900      545F434F 
 15900      44455F44 
 15900      52563833 
 15900      303200
 15901              	.LASF16:
 15902 1fb3 6C6F6E67 		.ascii	"long long unsigned int\000"
 15902      206C6F6E 
 15902      6720756E 
 15902      7369676E 
 15902      65642069 
 15903              	.LASF505:
 15904 1fca 576F7264 		.ascii	"Word\000"
 15904      00
 15905              	.LASF167:
 15906 1fcf 504F5254 		.ascii	"PORT\000"
 15906      00
 15907              	.LASF692:
 15908 1fd4 57706C6C 		.ascii	"Wpll\000"
 15908      00
 15909              	.LASF512:
 15910 1fd9 45616C70 		.ascii	"Ealpha\000"
 15910      686100
 15911              	.LASF177:
 15912 1fe0 50494436 		.ascii	"PID6\000"
 15912      00
ARM GAS  /var/folders/7z/kps_xzfj7sn5l5gkyq8s9db00000gn/T//ccvBF34a.s 			page 309


 15913              	.LASF395:
 15914 1fe5 5F67616D 		.ascii	"_gamma_signgam\000"
 15914      6D615F73 
 15914      69676E67 
 15914      616D00
 15915              	.LASF211:
 15916 1ff4 534D4352 		.ascii	"SMCR\000"
 15916      00
 15917              	.LASF42:
 15918 1ff9 705F666C 		.ascii	"p_flags\000"
 15918      61677300 
 15919              	.LASF74:
 15920 2001 65776D61 		.ascii	"ewmask\000"
 15920      736B00
 15921              	.LASF742:
 15922 2008 4144435F 		.ascii	"ADC_ExternalTrigInjectedConvConfig\000"
 15922      45787465 
 15922      726E616C 
 15922      54726967 
 15922      496E6A65 
 15923              	.LASF50:
 15924 202b 705F6D74 		.ascii	"p_mtxlist\000"
 15924      786C6973 
 15924      7400
 15925              	.LASF479:
 15926 2035 736C5F63 		.ascii	"sl_cycle_int_rpm_br\000"
 15926      79636C65 
 15926      5F696E74 
 15926      5F72706D 
 15926      5F627200 
 15927              	.LASF749:
 15928 2049 54494D5F 		.ascii	"TIM_SelectOutputTrigger\000"
 15928      53656C65 
 15928      63744F75 
 15928      74707574 
 15928      54726967 
 15929              	.LASF277:
 15930 2061 54494D5F 		.ascii	"TIM_OSSIState\000"
 15930      4F535349 
 15930      53746174 
 15930      6500
 15931              	.LASF26:
 15932 206f 74737461 		.ascii	"tstate_t\000"
 15932      74655F74 
 15932      00
 15933              	.LASF517:
 15934 2078 46736D6F 		.ascii	"Fsmopos\000"
 15934      706F7300 
 15935              	.LASF560:
 15936 2080 71496E74 		.ascii	"qInterpolPortion\000"
 15936      6572706F 
 15936      6C506F72 
 15936      74696F6E 
 15936      00
 15937              	.LASF427:
 15938 2091 6D635F63 		.ascii	"mc_comm_mode\000"
 15938      6F6D6D5F 
ARM GAS  /var/folders/7z/kps_xzfj7sn5l5gkyq8s9db00000gn/T//ccvBF34a.s 			page 310


 15938      6D6F6465 
 15938      00
 15939              	.LASF40:
 15940 209e 705F6E61 		.ascii	"p_name\000"
 15940      6D6500
 15941              	.LASF370:
 15942 20a5 5F5F7364 		.ascii	"__sdidinit\000"
 15942      6964696E 
 15942      697400
 15943              	.LASF201:
 15944 20b0 4A445231 		.ascii	"JDR1\000"
 15944      00
 15945              	.LASF202:
 15946 20b5 4A445232 		.ascii	"JDR2\000"
 15946      00
 15947              	.LASF203:
 15948 20ba 4A445233 		.ascii	"JDR3\000"
 15948      00
 15949              	.LASF204:
 15950 20bf 4A445234 		.ascii	"JDR4\000"
 15950      00
 15951              	.LASF417:
 15952 20c4 4D435F53 		.ascii	"MC_STATE_DETECTING\000"
 15952      54415445 
 15952      5F444554 
 15952      45435449 
 15952      4E4700
 15953              	.LASF593:
 15954 20d7 446F436F 		.ascii	"DoControl\000"
 15954      6E74726F 
 15954      6C00
 15955              	.LASF507:
 15956 20e1 456E6453 		.ascii	"EndSpeed\000"
 15956      70656564 
 15956      00
 15957              	.LASF316:
 15958 20ea 5F666C6F 		.ascii	"_flock_t\000"
 15958      636B5F74 
 15958      00
 15959              	.LASF635:
 15960 20f3 54617267 		.ascii	"TargetDCbus\000"
 15960      65744443 
 15960      62757300 
 15961              	.LASF573:
 15962 20ff 534D4349 		.ascii	"SMCInit\000"
 15962      6E697400 
 15963              	.LASF117:
 15964 2107 49324331 		.ascii	"I2C1_ER_IRQn\000"
 15964      5F45525F 
 15964      4952516E 
 15964      00
 15965              	.LASF421:
 15966 2114 50574D5F 		.ascii	"PWM_MODE_NONSYNCHRONOUS_HISW\000"
 15966      4D4F4445 
 15966      5F4E4F4E 
 15966      53594E43 
 15966      48524F4E 
ARM GAS  /var/folders/7z/kps_xzfj7sn5l5gkyq8s9db00000gn/T//ccvBF34a.s 			page 311


 15967              	.LASF111:
 15968 2131 54494D31 		.ascii	"TIM1_TRG_COM_TIM11_IRQn\000"
 15968      5F545247 
 15968      5F434F4D 
 15968      5F54494D 
 15968      31315F49 
 15969              	.LASF83:
 15970 2149 50656E64 		.ascii	"PendSV_IRQn\000"
 15970      53565F49 
 15970      52516E00 
 15971              	.LASF119:
 15972 2155 49324332 		.ascii	"I2C2_ER_IRQn\000"
 15972      5F45525F 
 15972      4952516E 
 15972      00
 15973              	.LASF158:
 15974 2162 49324333 		.ascii	"I2C3_ER_IRQn\000"
 15974      5F45525F 
 15974      4952516E 
 15974      00
 15975              	.LASF769:
 15976 216f 54494D5F 		.ascii	"TIM_GenerateEvent\000"
 15976      47656E65 
 15976      72617465 
 15976      4576656E 
 15976      7400
 15977              	.LASF438:
 15978 2181 6D635F66 		.ascii	"mc_fault_code\000"
 15978      61756C74 
 15978      5F636F64 
 15978      6500
 15979              	.LASF634:
 15980 218f 44436275 		.ascii	"DCbus\000"
 15980      7300
 15981              	.LASF496:
 15982 2195 6D635F63 		.ascii	"mc_configuration\000"
 15982      6F6E6669 
 15982      67757261 
 15982      74696F6E 
 15982      00
 15983              	.LASF14:
 15984 21a6 6C6F6E67 		.ascii	"long long int\000"
 15984      206C6F6E 
 15984      6720696E 
 15984      7400
 15985              	.LASF239:
 15986 21b4 4144435F 		.ascii	"ADC_InitTypeDef\000"
 15986      496E6974 
 15986      54797065 
 15986      44656600 
 15987              	.LASF360:
 15988 21c4 5F666C61 		.ascii	"_flags2\000"
 15988      67733200 
 15989              	.LASF410:
 15990 21cc 5F6E6578 		.ascii	"_nextf\000"
 15990      746600
 15991              	.LASF553:
ARM GAS  /var/folders/7z/kps_xzfj7sn5l5gkyq8s9db00000gn/T//ccvBF34a.s 			page 312


 15992 21d3 71567152 		.ascii	"qVqRef\000"
 15992      656600
 15993              	.LASF445:
 15994 21da 74696D65 		.ascii	"time_at_comm\000"
 15994      5F61745F 
 15994      636F6D6D 
 15994      00
 15995              	.LASF746:
 15996 21e7 4E564943 		.ascii	"NVIC_Init\000"
 15996      5F496E69 
 15996      7400
 15997              	.LASF727:
 15998 21f1 54494D5F 		.ascii	"TIM_OC2PreloadConfig\000"
 15998      4F433250 
 15998      72656C6F 
 15998      6164436F 
 15998      6E666967 
 15999              	.LASF458:
 16000 2206 6C5F6D61 		.ascii	"l_max_erpm_fbrake_cc\000"
 16000      785F6572 
 16000      706D5F66 
 16000      6272616B 
 16000      655F6363 
 16001              	.LASF599:
 16002 221b 43616C63 		.ascii	"CalcSVGen\000"
 16002      53564765 
 16002      6E00
 16003              	.LASF759:
 16004 2225 54494D5F 		.ascii	"TIM_SelectOCxM\000"
 16004      53656C65 
 16004      63744F43 
 16004      784D00
 16005              	.LASF580:
 16006 2234 436F6D70 		.ascii	"CompVdq\000"
 16006      56647100 
 16007              	.LASF574:
 16008 223c 566F6C74 		.ascii	"VoltRippleComp\000"
 16008      52697070 
 16008      6C65436F 
 16008      6D7000
 16009              	.LASF698:
 16010 224b 48616C6C 		.ascii	"HallPLLA\000"
 16010      504C4C41 
 16010      00
 16011              	.LASF257:
 16012 2254 444D415F 		.ascii	"DMA_FIFOThreshold\000"
 16012      4649464F 
 16012      54687265 
 16012      73686F6C 
 16012      6400
 16013              	.LASF700:
 16014 2266 48616C6C 		.ascii	"HallPLLB\000"
 16014      504C4C42 
 16014      00
 16015              	.LASF531:
 16016 226f 46696C74 		.ascii	"FiltOmCoef\000"
 16016      4F6D436F 
ARM GAS  /var/folders/7z/kps_xzfj7sn5l5gkyq8s9db00000gn/T//ccvBF34a.s 			page 313


 16016      656600
 16017              	.LASF416:
 16018 227a 4D435F53 		.ascii	"MC_STATE_OFF\000"
 16018      54415445 
 16018      5F4F4646 
 16018      00
 16019              	.LASF702:
 16020 2287 48616C6C 		.ascii	"HallPLLB_old\000"
 16020      504C4C42 
 16020      5F6F6C64 
 16020      00
 16021              	.LASF633:
 16022 2294 71566453 		.ascii	"qVdSquared\000"
 16022      71756172 
 16022      656400
 16023              	.LASF452:
 16024 229f 6C5F696E 		.ascii	"l_in_current_max\000"
 16024      5F637572 
 16024      72656E74 
 16024      5F6D6178 
 16024      00
 16025              	.LASF744:
 16026 22b0 4144435F 		.ascii	"ADC_InjectedSequencerLengthConfig\000"
 16026      496E6A65 
 16026      63746564 
 16026      53657175 
 16026      656E6365 
 16027              	.LASF39:
 16028 22d2 705F6F6C 		.ascii	"p_older\000"
 16028      64657200 
 16029              	.LASF129:
 16030 22da 54494D38 		.ascii	"TIM8_UP_TIM13_IRQn\000"
 16030      5F55505F 
 16030      54494D31 
 16030      335F4952 
 16030      516E00
 16031              	.LASF338:
 16032 22ed 5F617465 		.ascii	"_atexit\000"
 16032      78697400 
 16033              	.LASF703:
 16034 22f5 48616C6C 		.ascii	"HallPLLA_filtered\000"
 16034      504C4C41 
 16034      5F66696C 
 16034      74657265 
 16034      6400
 16035              	.LASF500:
 16036 2307 456E546F 		.ascii	"EnTorqueMod\000"
 16036      72717565 
 16036      4D6F6400 
 16037              	.LASF474:
 16038 2313 736C5F6D 		.ascii	"sl_min_erpm\000"
 16038      696E5F65 
 16038      72706D00 
 16039              	.LASF581:
 16040 231f 436F7272 		.ascii	"CorrADC1\000"
 16040      41444331 
 16040      00
ARM GAS  /var/folders/7z/kps_xzfj7sn5l5gkyq8s9db00000gn/T//ccvBF34a.s 			page 314


 16041              	.LASF582:
 16042 2328 436F7272 		.ascii	"CorrADC2\000"
 16042      41444332 
 16042      00
 16043              	.LASF383:
 16044 2331 5F5F4649 		.ascii	"__FILE\000"
 16044      4C4500
 16045              	.LASF747:
 16046 2338 4144435F 		.ascii	"ADC_Cmd\000"
 16046      436D6400 
 16047              	.LASF571:
 16048 2340 4F666673 		.ascii	"Offset_a\000"
 16048      65745F61 
 16048      00
 16049              	.LASF572:
 16050 2349 4F666673 		.ascii	"Offset_b\000"
 16050      65745F62 
 16050      00
 16051              	.LASF286:
 16052 2352 4E564943 		.ascii	"NVIC_IRQChannelSubPriority\000"
 16052      5F495251 
 16052      4368616E 
 16052      6E656C53 
 16052      75625072 
 16053              	.LASF321:
 16054 236d 5F736967 		.ascii	"_sign\000"
 16054      6E00
 16055              	.LASF564:
 16056 2373 71567231 		.ascii	"qVr1\000"
 16056      00
 16057              	.LASF565:
 16058 2378 71567232 		.ascii	"qVr2\000"
 16058      00
 16059              	.LASF3:
 16060 237d 5F5F696E 		.ascii	"__int8_t\000"
 16060      74385F74 
 16060      00
 16061              	.LASF472:
 16062 2386 6C6F5F69 		.ascii	"lo_in_current_min\000"
 16062      6E5F6375 
 16062      7272656E 
 16062      745F6D69 
 16062      6E00
 16063              	.LASF748:
 16064 2398 54494D5F 		.ascii	"TIM_CtrlPWMOutputs\000"
 16064      4374726C 
 16064      50574D4F 
 16064      75747075 
 16064      747300
 16065              	.LASF325:
 16066 23ab 5F5F746D 		.ascii	"__tm_min\000"
 16066      5F6D696E 
 16066      00
 16067              	.LASF670:
 16068 23b4 4374726C 		.ascii	"CtrlParm\000"
 16068      5061726D 
 16068      00
ARM GAS  /var/folders/7z/kps_xzfj7sn5l5gkyq8s9db00000gn/T//ccvBF34a.s 			page 315


 16069              	.LASF659:
 16070 23bd 4D6F746F 		.ascii	"MotorParm\000"
 16070      72506172 
 16070      6D00
 16071              	.LASF584:
 16072 23c7 696E7075 		.ascii	"input_voltage\000"
 16072      745F766F 
 16072      6C746167 
 16072      6500
 16073              	.LASF678:
 16074 23d5 4661756C 		.ascii	"Fault_seq\000"
 16074      745F7365 
 16074      7100
 16075              	.LASF467:
 16076 23df 6C5F6D69 		.ascii	"l_min_duty\000"
 16076      6E5F6475 
 16076      747900
 16077              	.LASF666:
 16078 23ea 50495061 		.ascii	"PIParmD\000"
 16078      726D4400 
 16079              	.LASF684:
 16080 23f2 48616C6C 		.ascii	"HallPLLlead\000"
 16080      504C4C6C 
 16080      65616400 
 16081              	.LASF86:
 16082 23fe 5056445F 		.ascii	"PVD_IRQn\000"
 16082      4952516E 
 16082      00
 16083              	.LASF667:
 16084 2407 50495061 		.ascii	"PIParmQ\000"
 16084      726D5100 
 16085              	.LASF668:
 16086 240f 50495061 		.ascii	"PIParmW\000"
 16086      726D5700 
 16087              	.LASF554:
 16088 2417 74437472 		.ascii	"tCtrlParm\000"
 16088      6C506172 
 16088      6D00
 16089              	.LASF213:
 16090 2421 43434D52 		.ascii	"CCMR1\000"
 16090      3100
 16091              	.LASF215:
 16092 2427 43434D52 		.ascii	"CCMR2\000"
 16092      3200
 16093              	.LASF754:
 16094 242d 5243435F 		.ascii	"RCC_APB1PeriphClockCmd\000"
 16094      41504231 
 16094      50657269 
 16094      7068436C 
 16094      6F636B43 
 16095              	.LASF1:
 16096 2444 756E7369 		.ascii	"unsigned int\000"
 16096      676E6564 
 16096      20696E74 
 16096      00
 16097              	.LASF397:
 16098 2451 5F723438 		.ascii	"_r48\000"
ARM GAS  /var/folders/7z/kps_xzfj7sn5l5gkyq8s9db00000gn/T//ccvBF34a.s 			page 316


 16098      00
 16099              	.LASF768:
 16100 2456 646F5F64 		.ascii	"do_dc_cal\000"
 16100      635F6361 
 16100      6C00
 16101              	.LASF289:
 16102 2460 73747265 		.ascii	"stream\000"
 16102      616D00
 16103              	.LASF674:
 16104 2467 69414443 		.ascii	"iADCisrCnt\000"
 16104      69737243 
 16104      6E7400
 16105              	.LASF741:
 16106 2472 4144435F 		.ascii	"ADC_MultiModeDMARequestAfterLastTransferCmd\000"
 16106      4D756C74 
 16106      694D6F64 
 16106      65444D41 
 16106      52657175 
 16107              	.LASF7:
 16108 249e 73686F72 		.ascii	"short int\000"
 16108      7420696E 
 16108      7400
 16109              	.LASF115:
 16110 24a8 54494D34 		.ascii	"TIM4_IRQn\000"
 16110      5F495251 
 16110      6E00
 16111              	.LASF349:
 16112 24b2 5F726561 		.ascii	"_read\000"
 16112      6400
 16113              	.LASF518:
 16114 24b8 56626574 		.ascii	"Vbeta\000"
 16114      6100
 16115              	.LASF764:
 16116 24be 2F557365 		.ascii	"/Users/Baram/oroca_bldc_dev/oroca_bldc/\000"
 16116      72732F42 
 16116      6172616D 
 16116      2F6F726F 
 16116      63615F62 
 16117              	.LASF428:
 16118 24e6 4D4F544F 		.ascii	"MOTOR_TYPE_BLDC\000"
 16118      525F5459 
 16118      50455F42 
 16118      4C444300 
 16119              	.LASF387:
 16120 24f6 5F72616E 		.ascii	"_rand48\000"
 16120      64343800 
 16121              	.LASF151:
 16122 24fe 43414E32 		.ascii	"CAN2_SCE_IRQn\000"
 16122      5F534345 
 16122      5F495251 
 16122      6E00
 16123              	.LASF669:
 16124 250c 50495061 		.ascii	"PIParmPLL\000"
 16124      726D504C 
 16124      4C00
 16125              	.LASF705:
 16126 2516 48616C6C 		.ascii	"Hall_SinCos\000"
ARM GAS  /var/folders/7z/kps_xzfj7sn5l5gkyq8s9db00000gn/T//ccvBF34a.s 			page 317


 16126      5F53696E 
 16126      436F7300 
 16127              	.LASF114:
 16128 2522 54494D33 		.ascii	"TIM3_IRQn\000"
 16128      5F495251 
 16128      6E00
 16129              	.LASF583:
 16130 252c 666C6167 		.ascii	"flags\000"
 16130      7300
 16131              	.LASF41:
 16132 2532 705F7374 		.ascii	"p_state\000"
 16132      61746500 
 16133              	.LASF79:
 16134 253a 42757346 		.ascii	"BusFault_IRQn\000"
 16134      61756C74 
 16134      5F495251 
 16134      6E00
 16135              		.ident	"GCC: (GNU Tools for ARM Embedded Processors) 4.9.3 20150303 (release) [ARM/embedded-4_9-br
ARM GAS  /var/folders/7z/kps_xzfj7sn5l5gkyq8s9db00000gn/T//ccvBF34a.s 			page 318


DEFINED SYMBOLS
                            *ABS*:0000000000000000 mcpwm.c
/var/folders/7z/kps_xzfj7sn5l5gkyq8s9db00000gn/T//ccvBF34a.s:21     .text.SEQUENCE_thread:0000000000000000 $t
/var/folders/7z/kps_xzfj7sn5l5gkyq8s9db00000gn/T//ccvBF34a.s:26     .text.SEQUENCE_thread:0000000000000000 SEQUENCE_thread
/var/folders/7z/kps_xzfj7sn5l5gkyq8s9db00000gn/T//ccvBF34a.s:56     .text.SEQUENCE_thread:0000000000000014 $d
/var/folders/7z/kps_xzfj7sn5l5gkyq8s9db00000gn/T//ccvBF34a.s:62     .text.mcpwm_adc_int_handler:0000000000000000 $t
/var/folders/7z/kps_xzfj7sn5l5gkyq8s9db00000gn/T//ccvBF34a.s:68     .text.mcpwm_adc_int_handler:0000000000000000 mcpwm_adc_int_handler
/var/folders/7z/kps_xzfj7sn5l5gkyq8s9db00000gn/T//ccvBF34a.s:99     .text.mcpwm_adc_int_handler:0000000000000014 $d
/var/folders/7z/kps_xzfj7sn5l5gkyq8s9db00000gn/T//ccvBF34a.s:105    .text.fputc:0000000000000000 $t
/var/folders/7z/kps_xzfj7sn5l5gkyq8s9db00000gn/T//ccvBF34a.s:111    .text.fputc:0000000000000000 fputc
/var/folders/7z/kps_xzfj7sn5l5gkyq8s9db00000gn/T//ccvBF34a.s:152    .text.SetupParm:0000000000000000 $t
/var/folders/7z/kps_xzfj7sn5l5gkyq8s9db00000gn/T//ccvBF34a.s:158    .text.SetupParm:0000000000000000 SetupParm
/var/folders/7z/kps_xzfj7sn5l5gkyq8s9db00000gn/T//ccvBF34a.s:249    .text.SetupParm:0000000000000058 $d
/var/folders/7z/kps_xzfj7sn5l5gkyq8s9db00000gn/T//ccvBF34a.s:264    .text.ClarkePark:0000000000000000 $t
/var/folders/7z/kps_xzfj7sn5l5gkyq8s9db00000gn/T//ccvBF34a.s:270    .text.ClarkePark:0000000000000000 ClarkePark
/var/folders/7z/kps_xzfj7sn5l5gkyq8s9db00000gn/T//ccvBF34a.s:337    .text.ClarkePark:0000000000000060 $d
/var/folders/7z/kps_xzfj7sn5l5gkyq8s9db00000gn/T//ccvBF34a.s:343    .text.InitPI:0000000000000000 $t
/var/folders/7z/kps_xzfj7sn5l5gkyq8s9db00000gn/T//ccvBF34a.s:349    .text.InitPI:0000000000000000 InitPI
/var/folders/7z/kps_xzfj7sn5l5gkyq8s9db00000gn/T//ccvBF34a.s:367    .text.CalcPI:0000000000000000 $t
/var/folders/7z/kps_xzfj7sn5l5gkyq8s9db00000gn/T//ccvBF34a.s:373    .text.CalcPI:0000000000000000 CalcPI
/var/folders/7z/kps_xzfj7sn5l5gkyq8s9db00000gn/T//ccvBF34a.s:430    .text.SetupControlParameters:0000000000000000 $t
/var/folders/7z/kps_xzfj7sn5l5gkyq8s9db00000gn/T//ccvBF34a.s:436    .text.SetupControlParameters:0000000000000000 SetupControlParameters
/var/folders/7z/kps_xzfj7sn5l5gkyq8s9db00000gn/T//ccvBF34a.s:559    .text.SetupControlParameters:0000000000000070 $d
/var/folders/7z/kps_xzfj7sn5l5gkyq8s9db00000gn/T//ccvBF34a.s:573    .text.DebounceDelay:0000000000000000 $t
/var/folders/7z/kps_xzfj7sn5l5gkyq8s9db00000gn/T//ccvBF34a.s:579    .text.DebounceDelay:0000000000000000 DebounceDelay
/var/folders/7z/kps_xzfj7sn5l5gkyq8s9db00000gn/T//ccvBF34a.s:592    .text.VoltRippleComp:0000000000000000 $t
/var/folders/7z/kps_xzfj7sn5l5gkyq8s9db00000gn/T//ccvBF34a.s:598    .text.VoltRippleComp:0000000000000000 VoltRippleComp
/var/folders/7z/kps_xzfj7sn5l5gkyq8s9db00000gn/T//ccvBF34a.s:648    .text.VoltRippleComp:0000000000000054 $d
/var/folders/7z/kps_xzfj7sn5l5gkyq8s9db00000gn/T//ccvBF34a.s:654    .text.DoControl:0000000000000000 $t
/var/folders/7z/kps_xzfj7sn5l5gkyq8s9db00000gn/T//ccvBF34a.s:660    .text.DoControl:0000000000000000 DoControl
/var/folders/7z/kps_xzfj7sn5l5gkyq8s9db00000gn/T//ccvBF34a.s:1040   .text.DoControl:0000000000000204 $d
/var/folders/7z/kps_xzfj7sn5l5gkyq8s9db00000gn/T//ccvBF34a.s:1060   .text.MeasCompCurr:0000000000000000 $t
/var/folders/7z/kps_xzfj7sn5l5gkyq8s9db00000gn/T//ccvBF34a.s:1066   .text.MeasCompCurr:0000000000000000 MeasCompCurr
/var/folders/7z/kps_xzfj7sn5l5gkyq8s9db00000gn/T//ccvBF34a.s:1124   .text.MeasCompCurr:0000000000000040 $d
/var/folders/7z/kps_xzfj7sn5l5gkyq8s9db00000gn/T//ccvBF34a.s:1130   .text.InitMeasCompCurr:0000000000000000 $t
/var/folders/7z/kps_xzfj7sn5l5gkyq8s9db00000gn/T//ccvBF34a.s:1136   .text.InitMeasCompCurr:0000000000000000 InitMeasCompCurr
/var/folders/7z/kps_xzfj7sn5l5gkyq8s9db00000gn/T//ccvBF34a.s:1153   .text.InitMeasCompCurr:0000000000000008 $d
/var/folders/7z/kps_xzfj7sn5l5gkyq8s9db00000gn/T//ccvBF34a.s:1158   .text.InvPark:0000000000000000 $t
/var/folders/7z/kps_xzfj7sn5l5gkyq8s9db00000gn/T//ccvBF34a.s:1164   .text.InvPark:0000000000000000 InvPark
/var/folders/7z/kps_xzfj7sn5l5gkyq8s9db00000gn/T//ccvBF34a.s:1217   .text.InvPark:0000000000000048 $d
/var/folders/7z/kps_xzfj7sn5l5gkyq8s9db00000gn/T//ccvBF34a.s:1222   .text.CalcRefVec:0000000000000000 $t
/var/folders/7z/kps_xzfj7sn5l5gkyq8s9db00000gn/T//ccvBF34a.s:1228   .text.CalcRefVec:0000000000000000 CalcRefVec
/var/folders/7z/kps_xzfj7sn5l5gkyq8s9db00000gn/T//ccvBF34a.s:1266   .text.CalcRefVec:000000000000003c $d
/var/folders/7z/kps_xzfj7sn5l5gkyq8s9db00000gn/T//ccvBF34a.s:1273   .text.CalcTimes:0000000000000000 $t
/var/folders/7z/kps_xzfj7sn5l5gkyq8s9db00000gn/T//ccvBF34a.s:1279   .text.CalcTimes:0000000000000000 CalcTimes
/var/folders/7z/kps_xzfj7sn5l5gkyq8s9db00000gn/T//ccvBF34a.s:1335   .text.CalcTimes:0000000000000064 $d
/var/folders/7z/kps_xzfj7sn5l5gkyq8s9db00000gn/T//ccvBF34a.s:1341   .text.update_timer_Duty:0000000000000000 $t
/var/folders/7z/kps_xzfj7sn5l5gkyq8s9db00000gn/T//ccvBF34a.s:1347   .text.update_timer_Duty:0000000000000000 update_timer_Duty
/var/folders/7z/kps_xzfj7sn5l5gkyq8s9db00000gn/T//ccvBF34a.s:1417   .text.update_timer_Duty:0000000000000050 $d
/var/folders/7z/kps_xzfj7sn5l5gkyq8s9db00000gn/T//ccvBF34a.s:1423   .text.CalcSVGen:0000000000000000 $t
/var/folders/7z/kps_xzfj7sn5l5gkyq8s9db00000gn/T//ccvBF34a.s:1429   .text.CalcSVGen:0000000000000000 CalcSVGen
/var/folders/7z/kps_xzfj7sn5l5gkyq8s9db00000gn/T//ccvBF34a.s:1608   .text.CalcSVGen:0000000000000100 $d
/var/folders/7z/kps_xzfj7sn5l5gkyq8s9db00000gn/T//ccvBF34a.s:1613   .text.SMCInit:0000000000000000 $t
/var/folders/7z/kps_xzfj7sn5l5gkyq8s9db00000gn/T//ccvBF34a.s:1619   .text.SMCInit:0000000000000000 SMCInit
/var/folders/7z/kps_xzfj7sn5l5gkyq8s9db00000gn/T//ccvBF34a.s:1660   .text.SMCInit:000000000000001c $d
/var/folders/7z/kps_xzfj7sn5l5gkyq8s9db00000gn/T//ccvBF34a.s:1669   .text.SMC_HallSensor_Estimation:0000000000000000 $t
/var/folders/7z/kps_xzfj7sn5l5gkyq8s9db00000gn/T//ccvBF34a.s:1675   .text.SMC_HallSensor_Estimation:0000000000000000 SMC_HallSensor_Estimation
ARM GAS  /var/folders/7z/kps_xzfj7sn5l5gkyq8s9db00000gn/T//ccvBF34a.s 			page 319


/var/folders/7z/kps_xzfj7sn5l5gkyq8s9db00000gn/T//ccvBF34a.s:1882   .text.SMC_HallSensor_Estimation:000000000000015c $d
/var/folders/7z/kps_xzfj7sn5l5gkyq8s9db00000gn/T//ccvBF34a.s:1902   .text.mcpwm_adc_inj_int_handler:0000000000000000 $t
/var/folders/7z/kps_xzfj7sn5l5gkyq8s9db00000gn/T//ccvBF34a.s:1908   .text.mcpwm_adc_inj_int_handler:0000000000000000 mcpwm_adc_inj_int_handler
/var/folders/7z/kps_xzfj7sn5l5gkyq8s9db00000gn/T//ccvBF34a.s:2124   .text.mcpwm_adc_inj_int_handler:0000000000000100 $d
/var/folders/7z/kps_xzfj7sn5l5gkyq8s9db00000gn/T//ccvBF34a.s:2143   .text.SMC_Position_Estimation:0000000000000000 $t
/var/folders/7z/kps_xzfj7sn5l5gkyq8s9db00000gn/T//ccvBF34a.s:2149   .text.SMC_Position_Estimation:0000000000000000 SMC_Position_Estimation
/var/folders/7z/kps_xzfj7sn5l5gkyq8s9db00000gn/T//ccvBF34a.s:2401   .text.SMC_Position_Estimation:00000000000001e4 $d
/var/folders/7z/kps_xzfj7sn5l5gkyq8s9db00000gn/T//ccvBF34a.s:2411   .text.CalculateParkAngle:0000000000000000 $t
/var/folders/7z/kps_xzfj7sn5l5gkyq8s9db00000gn/T//ccvBF34a.s:2417   .text.CalculateParkAngle:0000000000000000 CalculateParkAngle
/var/folders/7z/kps_xzfj7sn5l5gkyq8s9db00000gn/T//ccvBF34a.s:2549   .text.CalculateParkAngle:00000000000000d4 $d
/var/folders/7z/kps_xzfj7sn5l5gkyq8s9db00000gn/T//ccvBF34a.s:2562   .text.FWInit:0000000000000000 $t
/var/folders/7z/kps_xzfj7sn5l5gkyq8s9db00000gn/T//ccvBF34a.s:2568   .text.FWInit:0000000000000000 FWInit
/var/folders/7z/kps_xzfj7sn5l5gkyq8s9db00000gn/T//ccvBF34a.s:2658   .text.FWInit:0000000000000068 $d
/var/folders/7z/kps_xzfj7sn5l5gkyq8s9db00000gn/T//ccvBF34a.s:2679   .text.mcpwm_init:0000000000000000 $t
/var/folders/7z/kps_xzfj7sn5l5gkyq8s9db00000gn/T//ccvBF34a.s:2685   .text.mcpwm_init:0000000000000000 mcpwm_init
/var/folders/7z/kps_xzfj7sn5l5gkyq8s9db00000gn/T//ccvBF34a.s:3248   .text.mcpwm_init:0000000000000370 $d
/var/folders/7z/kps_xzfj7sn5l5gkyq8s9db00000gn/T//ccvBF34a.s:3265   .text.mcpwm_init:00000000000003b0 $t
/var/folders/7z/kps_xzfj7sn5l5gkyq8s9db00000gn/T//ccvBF34a.s:3481   .text.mcpwm_init:00000000000004bc $d
/var/folders/7z/kps_xzfj7sn5l5gkyq8s9db00000gn/T//ccvBF34a.s:3503   .text.FieldWeakening:0000000000000000 $t
/var/folders/7z/kps_xzfj7sn5l5gkyq8s9db00000gn/T//ccvBF34a.s:3509   .text.FieldWeakening:0000000000000000 FieldWeakening
/var/folders/7z/kps_xzfj7sn5l5gkyq8s9db00000gn/T//ccvBF34a.s:3543   .text.FieldWeakening:0000000000000030 $d
/var/folders/7z/kps_xzfj7sn5l5gkyq8s9db00000gn/T//ccvBF34a.s:3548   .text.stop_pwm_hw:0000000000000000 $t
/var/folders/7z/kps_xzfj7sn5l5gkyq8s9db00000gn/T//ccvBF34a.s:3554   .text.stop_pwm_hw:0000000000000000 stop_pwm_hw
/var/folders/7z/kps_xzfj7sn5l5gkyq8s9db00000gn/T//ccvBF34a.s:3633   .text.stop_pwm_hw:000000000000006c $d
/var/folders/7z/kps_xzfj7sn5l5gkyq8s9db00000gn/T//ccvBF34a.s:3638   .text.mcpwm_get_tot_current:0000000000000000 $t
/var/folders/7z/kps_xzfj7sn5l5gkyq8s9db00000gn/T//ccvBF34a.s:3644   .text.mcpwm_get_tot_current:0000000000000000 mcpwm_get_tot_current
/var/folders/7z/kps_xzfj7sn5l5gkyq8s9db00000gn/T//ccvBF34a.s:3663   .text.mcpwm_get_tot_current:0000000000000018 $d
/var/folders/7z/kps_xzfj7sn5l5gkyq8s9db00000gn/T//ccvBF34a.s:3670   .text.mcpwm_get_rpm:0000000000000000 $t
/var/folders/7z/kps_xzfj7sn5l5gkyq8s9db00000gn/T//ccvBF34a.s:3676   .text.mcpwm_get_rpm:0000000000000000 mcpwm_get_rpm
/var/folders/7z/kps_xzfj7sn5l5gkyq8s9db00000gn/T//ccvBF34a.s:3701   .text.mcpwm_get_rpm:000000000000001c $d
/var/folders/7z/kps_xzfj7sn5l5gkyq8s9db00000gn/T//ccvBF34a.s:3707   .text.mcpwm_get_state:0000000000000000 $t
/var/folders/7z/kps_xzfj7sn5l5gkyq8s9db00000gn/T//ccvBF34a.s:3713   .text.mcpwm_get_state:0000000000000000 mcpwm_get_state
/var/folders/7z/kps_xzfj7sn5l5gkyq8s9db00000gn/T//ccvBF34a.s:3727   .text.mcpwm_get_fault:0000000000000000 $t
/var/folders/7z/kps_xzfj7sn5l5gkyq8s9db00000gn/T//ccvBF34a.s:3733   .text.mcpwm_get_fault:0000000000000000 mcpwm_get_fault
/var/folders/7z/kps_xzfj7sn5l5gkyq8s9db00000gn/T//ccvBF34a.s:3748   .text.mcpwm_get_fault:0000000000000008 $d
/var/folders/7z/kps_xzfj7sn5l5gkyq8s9db00000gn/T//ccvBF34a.s:3753   .text.mcpwm_fault_to_string:0000000000000000 $t
/var/folders/7z/kps_xzfj7sn5l5gkyq8s9db00000gn/T//ccvBF34a.s:3759   .text.mcpwm_fault_to_string:0000000000000000 mcpwm_fault_to_string
/var/folders/7z/kps_xzfj7sn5l5gkyq8s9db00000gn/T//ccvBF34a.s:3779   .text.mcpwm_fault_to_string:0000000000000010 $d
/var/folders/7z/kps_xzfj7sn5l5gkyq8s9db00000gn/T//ccvBF34a.s:3785   .text.mcpwm_get_rpm_dep:0000000000000000 $t
/var/folders/7z/kps_xzfj7sn5l5gkyq8s9db00000gn/T//ccvBF34a.s:3791   .text.mcpwm_get_rpm_dep:0000000000000000 mcpwm_get_rpm_dep
/var/folders/7z/kps_xzfj7sn5l5gkyq8s9db00000gn/T//ccvBF34a.s:3805   .text.mcpwm_get_configuration:0000000000000000 $t
/var/folders/7z/kps_xzfj7sn5l5gkyq8s9db00000gn/T//ccvBF34a.s:3811   .text.mcpwm_get_configuration:0000000000000000 mcpwm_get_configuration
/var/folders/7z/kps_xzfj7sn5l5gkyq8s9db00000gn/T//ccvBF34a.s:3824   .text.mcpwm_get_configuration:0000000000000004 $d
/var/folders/7z/kps_xzfj7sn5l5gkyq8s9db00000gn/T//ccvBF34a.s:3829   .text.mcpwm_set_configuration:0000000000000000 $t
/var/folders/7z/kps_xzfj7sn5l5gkyq8s9db00000gn/T//ccvBF34a.s:3835   .text.mcpwm_set_configuration:0000000000000000 mcpwm_set_configuration
/var/folders/7z/kps_xzfj7sn5l5gkyq8s9db00000gn/T//ccvBF34a.s:4167   .bss.sinth:0000000000000000 sinth
/var/folders/7z/kps_xzfj7sn5l5gkyq8s9db00000gn/T//ccvBF34a.s:4292   .bss.costh:0000000000000000 costh
/var/folders/7z/kps_xzfj7sn5l5gkyq8s9db00000gn/T//ccvBF34a.s:4027   .bss.Hall_CosSin:0000000000000000 Hall_CosSin
/var/folders/7z/kps_xzfj7sn5l5gkyq8s9db00000gn/T//ccvBF34a.s:4006   .bss.Hall_SinCos:0000000000000000 Hall_SinCos
/var/folders/7z/kps_xzfj7sn5l5gkyq8s9db00000gn/T//ccvBF34a.s:3946   .bss.HallPLLB_filtered:0000000000000000 HallPLLB_filtered
/var/folders/7z/kps_xzfj7sn5l5gkyq8s9db00000gn/T//ccvBF34a.s:4330   .bss.HallPLLA_filtered:0000000000000000 HallPLLA_filtered
/var/folders/7z/kps_xzfj7sn5l5gkyq8s9db00000gn/T//ccvBF34a.s:4324   .bss.HallPLLB_old:0000000000000000 HallPLLB_old
/var/folders/7z/kps_xzfj7sn5l5gkyq8s9db00000gn/T//ccvBF34a.s:4298   .bss.HallPLLA_old:0000000000000000 HallPLLA_old
/var/folders/7z/kps_xzfj7sn5l5gkyq8s9db00000gn/T//ccvBF34a.s:4391   .bss.HallPLLB:0000000000000000 HallPLLB
/var/folders/7z/kps_xzfj7sn5l5gkyq8s9db00000gn/T//ccvBF34a.s:3940   .bss.HallPLLA1:0000000000000000 HallPLLA1
/var/folders/7z/kps_xzfj7sn5l5gkyq8s9db00000gn/T//ccvBF34a.s:4384   .bss.HallPLLA:0000000000000000 HallPLLA
/var/folders/7z/kps_xzfj7sn5l5gkyq8s9db00000gn/T//ccvBF34a.s:4318   .data.Ipll:0000000000000000 Ipll
ARM GAS  /var/folders/7z/kps_xzfj7sn5l5gkyq8s9db00000gn/T//ccvBF34a.s 			page 320


/var/folders/7z/kps_xzfj7sn5l5gkyq8s9db00000gn/T//ccvBF34a.s:3986   .data.Kpll:0000000000000000 Kpll
/var/folders/7z/kps_xzfj7sn5l5gkyq8s9db00000gn/T//ccvBF34a.s:4116   .bss.Wplli:0000000000000000 Wplli
/var/folders/7z/kps_xzfj7sn5l5gkyq8s9db00000gn/T//ccvBF34a.s:4147   .bss.Wpllp:0000000000000000 Wpllp
/var/folders/7z/kps_xzfj7sn5l5gkyq8s9db00000gn/T//ccvBF34a.s:3959   .bss.Wpll1:0000000000000000 Wpll1
/var/folders/7z/kps_xzfj7sn5l5gkyq8s9db00000gn/T//ccvBF34a.s:4452   .bss.Wpll:0000000000000000 Wpll
/var/folders/7z/kps_xzfj7sn5l5gkyq8s9db00000gn/T//ccvBF34a.s:3992   .bss.HallPLLdef1:0000000000000000 HallPLLdef1
/var/folders/7z/kps_xzfj7sn5l5gkyq8s9db00000gn/T//ccvBF34a.s:4104   .bss.HallPLLdef:0000000000000000 HallPLLdef
/var/folders/7z/kps_xzfj7sn5l5gkyq8s9db00000gn/T//ccvBF34a.s:4410   .bss.HallPLLde1:0000000000000000 HallPLLde1
/var/folders/7z/kps_xzfj7sn5l5gkyq8s9db00000gn/T//ccvBF34a.s:4141   .bss.HallPLLde:0000000000000000 HallPLLde
/var/folders/7z/kps_xzfj7sn5l5gkyq8s9db00000gn/T//ccvBF34a.s:4053   .bss.HallPLLqe:0000000000000000 HallPLLqe
/var/folders/7z/kps_xzfj7sn5l5gkyq8s9db00000gn/T//ccvBF34a.s:4377   .bss.HallPLLlead2:0000000000000000 HallPLLlead2
/var/folders/7z/kps_xzfj7sn5l5gkyq8s9db00000gn/T//ccvBF34a.s:4213   .bss.HallPLLlead1:0000000000000000 HallPLLlead1
/var/folders/7z/kps_xzfj7sn5l5gkyq8s9db00000gn/T//ccvBF34a.s:4239   .bss.HallPLLlead:0000000000000000 HallPLLlead
/var/folders/7z/kps_xzfj7sn5l5gkyq8s9db00000gn/T//ccvBF34a.s:4135   .bss.State_Index:0000000000000000 State_Index
/var/folders/7z/kps_xzfj7sn5l5gkyq8s9db00000gn/T//ccvBF34a.s:4079   .bss.Drive_Status:0000000000000000 Drive_Status
/var/folders/7z/kps_xzfj7sn5l5gkyq8s9db00000gn/T//ccvBF34a.s:4397   .data.Init_Charge_Time:0000000000000000 Init_Charge_Time
/var/folders/7z/kps_xzfj7sn5l5gkyq8s9db00000gn/T//ccvBF34a.s:4059   .bss.Init_Charge_cnt:0000000000000000 Init_Charge_cnt
/var/folders/7z/kps_xzfj7sn5l5gkyq8s9db00000gn/T//ccvBF34a.s:4129   .bss.Init_Charge_cnt_EN:0000000000000000 Init_Charge_cnt_EN
/var/folders/7z/kps_xzfj7sn5l5gkyq8s9db00000gn/T//ccvBF34a.s:4416   .bss.Fault_seq:0000000000000000 Fault_seq
/var/folders/7z/kps_xzfj7sn5l5gkyq8s9db00000gn/T//ccvBF34a.s:4200   .bss.Seq:0000000000000000 Seq
/var/folders/7z/kps_xzfj7sn5l5gkyq8s9db00000gn/T//ccvBF34a.s:4123   .bss.AccumThetaCnt:0000000000000000 AccumThetaCnt
/var/folders/7z/kps_xzfj7sn5l5gkyq8s9db00000gn/T//ccvBF34a.s:4066   .bss.AccumTheta:0000000000000000 AccumTheta
/var/folders/7z/kps_xzfj7sn5l5gkyq8s9db00000gn/T//ccvBF34a.s:4092   .bss.PrevTheta:0000000000000000 PrevTheta
/var/folders/7z/kps_xzfj7sn5l5gkyq8s9db00000gn/T//ccvBF34a.s:4219   .bss.iADCisrCnt:0000000000000000 iADCisrCnt
/var/folders/7z/kps_xzfj7sn5l5gkyq8s9db00000gn/T//ccvBF34a.s:4358   .data.switching_frequency_now:0000000000000000 switching_frequency_now
/var/folders/7z/kps_xzfj7sn5l5gkyq8s9db00000gn/T//ccvBF34a.s:4153   .bss.SpeedReference:0000000000000000 SpeedReference
/var/folders/7z/kps_xzfj7sn5l5gkyq8s9db00000gn/T//ccvBF34a.s:4351   .bss.FdWeakParm:0000000000000000 FdWeakParm
/var/folders/7z/kps_xzfj7sn5l5gkyq8s9db00000gn/T//ccvBF34a.s:4312   .bss.SVGenParm:0000000000000000 SVGenParm
/var/folders/7z/kps_xzfj7sn5l5gkyq8s9db00000gn/T//ccvBF34a.s:3966   .bss.CtrlParm:0000000000000000 CtrlParm
/var/folders/7z/kps_xzfj7sn5l5gkyq8s9db00000gn/T//ccvBF34a.s:4160   .bss.PIParmPLL:0000000000000000 PIParmPLL
/var/folders/7z/kps_xzfj7sn5l5gkyq8s9db00000gn/T//ccvBF34a.s:4013   .bss.PIParmW:0000000000000000 PIParmW
/var/folders/7z/kps_xzfj7sn5l5gkyq8s9db00000gn/T//ccvBF34a.s:3980   .bss.PIParmQ:0000000000000000 PIParmQ
/var/folders/7z/kps_xzfj7sn5l5gkyq8s9db00000gn/T//ccvBF34a.s:3934   .bss.PIParmD:0000000000000000 PIParmD
/var/folders/7z/kps_xzfj7sn5l5gkyq8s9db00000gn/T//ccvBF34a.s:4285   .bss.ParkParm:0000000000000000 ParkParm
/var/folders/7z/kps_xzfj7sn5l5gkyq8s9db00000gn/T//ccvBF34a.s:3913   .bss.ADC_Value:0000000000000000 ADC_Value
/var/folders/7z/kps_xzfj7sn5l5gkyq8s9db00000gn/T//ccvBF34a.s:4278   .bss.smc1:0000000000000000 smc1
/var/folders/7z/kps_xzfj7sn5l5gkyq8s9db00000gn/T//ccvBF34a.s:4073   .bss.Startup_Lock:0000000000000000 Startup_Lock
/var/folders/7z/kps_xzfj7sn5l5gkyq8s9db00000gn/T//ccvBF34a.s:3920   .bss.Startup_Ramp:0000000000000000 Startup_Ramp
/var/folders/7z/kps_xzfj7sn5l5gkyq8s9db00000gn/T//ccvBF34a.s:4271   .bss.VelReq:0000000000000000 VelReq
/var/folders/7z/kps_xzfj7sn5l5gkyq8s9db00000gn/T//ccvBF34a.s:4098   .bss.count:0000000000000000 count
/var/folders/7z/kps_xzfj7sn5l5gkyq8s9db00000gn/T//ccvBF34a.s:4305   .bss.MotorParm:0000000000000000 MotorParm
/var/folders/7z/kps_xzfj7sn5l5gkyq8s9db00000gn/T//ccvBF34a.s:3999   .bss.uGF:0000000000000000 uGF
/var/folders/7z/kps_xzfj7sn5l5gkyq8s9db00000gn/T//ccvBF34a.s:3902   .bss.curr0_offset:0000000000000000 $d
/var/folders/7z/kps_xzfj7sn5l5gkyq8s9db00000gn/T//ccvBF34a.s:3906   .bss.curr0_offset:0000000000000000 curr0_offset
/var/folders/7z/kps_xzfj7sn5l5gkyq8s9db00000gn/T//ccvBF34a.s:3909   .bss.ADC_Value:0000000000000000 $d
/var/folders/7z/kps_xzfj7sn5l5gkyq8s9db00000gn/T//ccvBF34a.s:3916   .bss.Startup_Ramp:0000000000000000 $d
/var/folders/7z/kps_xzfj7sn5l5gkyq8s9db00000gn/T//ccvBF34a.s:3923   .bss.rpm_now:0000000000000000 $d
/var/folders/7z/kps_xzfj7sn5l5gkyq8s9db00000gn/T//ccvBF34a.s:3927   .bss.rpm_now:0000000000000000 rpm_now
/var/folders/7z/kps_xzfj7sn5l5gkyq8s9db00000gn/T//ccvBF34a.s:3930   .bss.PIParmD:0000000000000000 $d
/var/folders/7z/kps_xzfj7sn5l5gkyq8s9db00000gn/T//ccvBF34a.s:3937   .bss.HallPLLA1:0000000000000000 $d
/var/folders/7z/kps_xzfj7sn5l5gkyq8s9db00000gn/T//ccvBF34a.s:3943   .bss.HallPLLB_filtered:0000000000000000 $d
/var/folders/7z/kps_xzfj7sn5l5gkyq8s9db00000gn/T//ccvBF34a.s:3949   .bss.curr1_sum:0000000000000000 $d
/var/folders/7z/kps_xzfj7sn5l5gkyq8s9db00000gn/T//ccvBF34a.s:3953   .bss.curr1_sum:0000000000000000 curr1_sum
/var/folders/7z/kps_xzfj7sn5l5gkyq8s9db00000gn/T//ccvBF34a.s:3956   .bss.Wpll1:0000000000000000 $d
/var/folders/7z/kps_xzfj7sn5l5gkyq8s9db00000gn/T//ccvBF34a.s:3962   .bss.CtrlParm:0000000000000000 $d
/var/folders/7z/kps_xzfj7sn5l5gkyq8s9db00000gn/T//ccvBF34a.s:3969   .bss.SEQUENCE_thread_wa:0000000000000000 $d
/var/folders/7z/kps_xzfj7sn5l5gkyq8s9db00000gn/T//ccvBF34a.s:3973   .bss.SEQUENCE_thread_wa:0000000000000000 SEQUENCE_thread_wa
ARM GAS  /var/folders/7z/kps_xzfj7sn5l5gkyq8s9db00000gn/T//ccvBF34a.s 			page 321


/var/folders/7z/kps_xzfj7sn5l5gkyq8s9db00000gn/T//ccvBF34a.s:3976   .bss.PIParmQ:0000000000000000 $d
/var/folders/7z/kps_xzfj7sn5l5gkyq8s9db00000gn/T//ccvBF34a.s:3983   .data.Kpll:0000000000000000 $d
/var/folders/7z/kps_xzfj7sn5l5gkyq8s9db00000gn/T//ccvBF34a.s:3989   .bss.HallPLLdef1:0000000000000000 $d
/var/folders/7z/kps_xzfj7sn5l5gkyq8s9db00000gn/T//ccvBF34a.s:3995   .bss.uGF:0000000000000000 $d
/var/folders/7z/kps_xzfj7sn5l5gkyq8s9db00000gn/T//ccvBF34a.s:4002   .bss.Hall_SinCos:0000000000000000 $d
/var/folders/7z/kps_xzfj7sn5l5gkyq8s9db00000gn/T//ccvBF34a.s:4009   .bss.PIParmW:0000000000000000 $d
/var/folders/7z/kps_xzfj7sn5l5gkyq8s9db00000gn/T//ccvBF34a.s:4016   .bss.curr_start_samples:0000000000000000 $d
/var/folders/7z/kps_xzfj7sn5l5gkyq8s9db00000gn/T//ccvBF34a.s:4020   .bss.curr_start_samples:0000000000000000 curr_start_samples
/var/folders/7z/kps_xzfj7sn5l5gkyq8s9db00000gn/T//ccvBF34a.s:4023   .bss.Hall_CosSin:0000000000000000 $d
/var/folders/7z/kps_xzfj7sn5l5gkyq8s9db00000gn/T//ccvBF34a.s:4030   .bss.conf:0000000000000000 $d
/var/folders/7z/kps_xzfj7sn5l5gkyq8s9db00000gn/T//ccvBF34a.s:4034   .bss.conf:0000000000000000 conf
/var/folders/7z/kps_xzfj7sn5l5gkyq8s9db00000gn/T//ccvBF34a.s:4040   .bss.dccal_done:0000000000000000 dccal_done
/var/folders/7z/kps_xzfj7sn5l5gkyq8s9db00000gn/T//ccvBF34a.s:4041   .bss.dccal_done:0000000000000000 $d
/var/folders/7z/kps_xzfj7sn5l5gkyq8s9db00000gn/T//ccvBF34a.s:4043   .bss.Hall_Err0:0000000000000000 $d
/var/folders/7z/kps_xzfj7sn5l5gkyq8s9db00000gn/T//ccvBF34a.s:4047   .bss.Hall_Err0:0000000000000000 Hall_Err0
/var/folders/7z/kps_xzfj7sn5l5gkyq8s9db00000gn/T//ccvBF34a.s:4050   .bss.HallPLLqe:0000000000000000 $d
/var/folders/7z/kps_xzfj7sn5l5gkyq8s9db00000gn/T//ccvBF34a.s:4056   .bss.Init_Charge_cnt:0000000000000000 $d
/var/folders/7z/kps_xzfj7sn5l5gkyq8s9db00000gn/T//ccvBF34a.s:4062   .bss.AccumTheta:0000000000000000 $d
/var/folders/7z/kps_xzfj7sn5l5gkyq8s9db00000gn/T//ccvBF34a.s:4069   .bss.Startup_Lock:0000000000000000 $d
/var/folders/7z/kps_xzfj7sn5l5gkyq8s9db00000gn/T//ccvBF34a.s:4076   .bss.Drive_Status:0000000000000000 $d
/var/folders/7z/kps_xzfj7sn5l5gkyq8s9db00000gn/T//ccvBF34a.s:4082   .bss.Futi:0000000000000000 $d
/var/folders/7z/kps_xzfj7sn5l5gkyq8s9db00000gn/T//ccvBF34a.s:4085   .bss.Futi:0000000000000000 Futi
/var/folders/7z/kps_xzfj7sn5l5gkyq8s9db00000gn/T//ccvBF34a.s:4088   .bss.PrevTheta:0000000000000000 $d
/var/folders/7z/kps_xzfj7sn5l5gkyq8s9db00000gn/T//ccvBF34a.s:4095   .bss.count:0000000000000000 $d
/var/folders/7z/kps_xzfj7sn5l5gkyq8s9db00000gn/T//ccvBF34a.s:4101   .bss.HallPLLdef:0000000000000000 $d
/var/folders/7z/kps_xzfj7sn5l5gkyq8s9db00000gn/T//ccvBF34a.s:4107   .bss.last_current_sample_filtered:0000000000000000 $d
/var/folders/7z/kps_xzfj7sn5l5gkyq8s9db00000gn/T//ccvBF34a.s:4110   .bss.last_current_sample_filtered:0000000000000000 last_current_sample_filtered
/var/folders/7z/kps_xzfj7sn5l5gkyq8s9db00000gn/T//ccvBF34a.s:4113   .bss.Wplli:0000000000000000 $d
/var/folders/7z/kps_xzfj7sn5l5gkyq8s9db00000gn/T//ccvBF34a.s:4119   .bss.AccumThetaCnt:0000000000000000 $d
/var/folders/7z/kps_xzfj7sn5l5gkyq8s9db00000gn/T//ccvBF34a.s:4126   .bss.Init_Charge_cnt_EN:0000000000000000 $d
/var/folders/7z/kps_xzfj7sn5l5gkyq8s9db00000gn/T//ccvBF34a.s:4132   .bss.State_Index:0000000000000000 $d
/var/folders/7z/kps_xzfj7sn5l5gkyq8s9db00000gn/T//ccvBF34a.s:4138   .bss.HallPLLde:0000000000000000 $d
/var/folders/7z/kps_xzfj7sn5l5gkyq8s9db00000gn/T//ccvBF34a.s:4144   .bss.Wpllp:0000000000000000 $d
/var/folders/7z/kps_xzfj7sn5l5gkyq8s9db00000gn/T//ccvBF34a.s:4150   .bss.SpeedReference:0000000000000000 $d
/var/folders/7z/kps_xzfj7sn5l5gkyq8s9db00000gn/T//ccvBF34a.s:4156   .bss.PIParmPLL:0000000000000000 $d
/var/folders/7z/kps_xzfj7sn5l5gkyq8s9db00000gn/T//ccvBF34a.s:4163   .bss.sinth:0000000000000000 $d
/var/folders/7z/kps_xzfj7sn5l5gkyq8s9db00000gn/T//ccvBF34a.s:4170   .bss.qVdSquared:0000000000000000 $d
/var/folders/7z/kps_xzfj7sn5l5gkyq8s9db00000gn/T//ccvBF34a.s:4174   .bss.qVdSquared:0000000000000000 qVdSquared
/var/folders/7z/kps_xzfj7sn5l5gkyq8s9db00000gn/T//ccvBF34a.s:4177   .bss.DCbus:0000000000000000 $d
/var/folders/7z/kps_xzfj7sn5l5gkyq8s9db00000gn/T//ccvBF34a.s:4181   .bss.DCbus:0000000000000000 DCbus
/var/folders/7z/kps_xzfj7sn5l5gkyq8s9db00000gn/T//ccvBF34a.s:4184   .bss.Hall_KA:0000000000000000 $d
/var/folders/7z/kps_xzfj7sn5l5gkyq8s9db00000gn/T//ccvBF34a.s:4187   .bss.Hall_KA:0000000000000000 Hall_KA
/var/folders/7z/kps_xzfj7sn5l5gkyq8s9db00000gn/T//ccvBF34a.s:4190   .bss.last_current_sample:0000000000000000 $d
/var/folders/7z/kps_xzfj7sn5l5gkyq8s9db00000gn/T//ccvBF34a.s:4194   .bss.last_current_sample:0000000000000000 last_current_sample
/var/folders/7z/kps_xzfj7sn5l5gkyq8s9db00000gn/T//ccvBF34a.s:4197   .bss.Seq:0000000000000000 $d
/var/folders/7z/kps_xzfj7sn5l5gkyq8s9db00000gn/T//ccvBF34a.s:4203   .bss.TargetDCbus:0000000000000000 $d
/var/folders/7z/kps_xzfj7sn5l5gkyq8s9db00000gn/T//ccvBF34a.s:4207   .bss.TargetDCbus:0000000000000000 TargetDCbus
/var/folders/7z/kps_xzfj7sn5l5gkyq8s9db00000gn/T//ccvBF34a.s:4210   .bss.HallPLLlead1:0000000000000000 $d
/var/folders/7z/kps_xzfj7sn5l5gkyq8s9db00000gn/T//ccvBF34a.s:4216   .bss.iADCisrCnt:0000000000000000 $d
/var/folders/7z/kps_xzfj7sn5l5gkyq8s9db00000gn/T//ccvBF34a.s:4222   .bss.Theta_error:0000000000000000 $d
/var/folders/7z/kps_xzfj7sn5l5gkyq8s9db00000gn/T//ccvBF34a.s:4226   .bss.Theta_error:0000000000000000 Theta_error
/var/folders/7z/kps_xzfj7sn5l5gkyq8s9db00000gn/T//ccvBF34a.s:4229   .bss.direction:0000000000000000 $d
/var/folders/7z/kps_xzfj7sn5l5gkyq8s9db00000gn/T//ccvBF34a.s:4233   .bss.direction:0000000000000000 direction
/var/folders/7z/kps_xzfj7sn5l5gkyq8s9db00000gn/T//ccvBF34a.s:4236   .bss.HallPLLlead:0000000000000000 $d
/var/folders/7z/kps_xzfj7sn5l5gkyq8s9db00000gn/T//ccvBF34a.s:4242   .bss.ThetaCal:0000000000000000 $d
/var/folders/7z/kps_xzfj7sn5l5gkyq8s9db00000gn/T//ccvBF34a.s:4245   .bss.ThetaCal:0000000000000000 ThetaCal
/var/folders/7z/kps_xzfj7sn5l5gkyq8s9db00000gn/T//ccvBF34a.s:4248   .bss.Theta:0000000000000000 $d
ARM GAS  /var/folders/7z/kps_xzfj7sn5l5gkyq8s9db00000gn/T//ccvBF34a.s 			page 322


/var/folders/7z/kps_xzfj7sn5l5gkyq8s9db00000gn/T//ccvBF34a.s:4252   .bss.Theta:0000000000000000 Theta
/var/folders/7z/kps_xzfj7sn5l5gkyq8s9db00000gn/T//ccvBF34a.s:4255   .rodata.CSWTCH.127:0000000000000000 $d
/var/folders/7z/kps_xzfj7sn5l5gkyq8s9db00000gn/T//ccvBF34a.s:4259   .rodata.CSWTCH.127:0000000000000000 CSWTCH.127
/var/folders/7z/kps_xzfj7sn5l5gkyq8s9db00000gn/T//ccvBF34a.s:4268   .bss.VelReq:0000000000000000 $d
/var/folders/7z/kps_xzfj7sn5l5gkyq8s9db00000gn/T//ccvBF34a.s:4274   .bss.smc1:0000000000000000 $d
/var/folders/7z/kps_xzfj7sn5l5gkyq8s9db00000gn/T//ccvBF34a.s:4281   .bss.ParkParm:0000000000000000 $d
/var/folders/7z/kps_xzfj7sn5l5gkyq8s9db00000gn/T//ccvBF34a.s:4288   .bss.costh:0000000000000000 $d
/var/folders/7z/kps_xzfj7sn5l5gkyq8s9db00000gn/T//ccvBF34a.s:4295   .bss.HallPLLA_old:0000000000000000 $d
/var/folders/7z/kps_xzfj7sn5l5gkyq8s9db00000gn/T//ccvBF34a.s:4301   .bss.MotorParm:0000000000000000 $d
/var/folders/7z/kps_xzfj7sn5l5gkyq8s9db00000gn/T//ccvBF34a.s:4308   .bss.SVGenParm:0000000000000000 $d
/var/folders/7z/kps_xzfj7sn5l5gkyq8s9db00000gn/T//ccvBF34a.s:4315   .data.Ipll:0000000000000000 $d
/var/folders/7z/kps_xzfj7sn5l5gkyq8s9db00000gn/T//ccvBF34a.s:4321   .bss.HallPLLB_old:0000000000000000 $d
/var/folders/7z/kps_xzfj7sn5l5gkyq8s9db00000gn/T//ccvBF34a.s:4327   .bss.HallPLLA_filtered:0000000000000000 $d
/var/folders/7z/kps_xzfj7sn5l5gkyq8s9db00000gn/T//ccvBF34a.s:4333   .bss.curr1_offset:0000000000000000 $d
/var/folders/7z/kps_xzfj7sn5l5gkyq8s9db00000gn/T//ccvBF34a.s:4337   .bss.curr1_offset:0000000000000000 curr1_offset
/var/folders/7z/kps_xzfj7sn5l5gkyq8s9db00000gn/T//ccvBF34a.s:4340   .bss.curr0_sum:0000000000000000 $d
/var/folders/7z/kps_xzfj7sn5l5gkyq8s9db00000gn/T//ccvBF34a.s:4344   .bss.curr0_sum:0000000000000000 curr0_sum
/var/folders/7z/kps_xzfj7sn5l5gkyq8s9db00000gn/T//ccvBF34a.s:4347   .bss.FdWeakParm:0000000000000000 $d
/var/folders/7z/kps_xzfj7sn5l5gkyq8s9db00000gn/T//ccvBF34a.s:4354   .data.switching_frequency_now:0000000000000000 $d
/var/folders/7z/kps_xzfj7sn5l5gkyq8s9db00000gn/T//ccvBF34a.s:4361   .bss.Hall_PIout:0000000000000000 $d
/var/folders/7z/kps_xzfj7sn5l5gkyq8s9db00000gn/T//ccvBF34a.s:4365   .bss.Hall_PIout:0000000000000000 Hall_PIout
/var/folders/7z/kps_xzfj7sn5l5gkyq8s9db00000gn/T//ccvBF34a.s:4371   .bss.fault_now:0000000000000000 fault_now
/var/folders/7z/kps_xzfj7sn5l5gkyq8s9db00000gn/T//ccvBF34a.s:4372   .bss.fault_now:0000000000000000 $d
/var/folders/7z/kps_xzfj7sn5l5gkyq8s9db00000gn/T//ccvBF34a.s:4374   .bss.HallPLLlead2:0000000000000000 $d
/var/folders/7z/kps_xzfj7sn5l5gkyq8s9db00000gn/T//ccvBF34a.s:4380   .bss.HallPLLA:0000000000000000 $d
/var/folders/7z/kps_xzfj7sn5l5gkyq8s9db00000gn/T//ccvBF34a.s:4387   .bss.HallPLLB:0000000000000000 $d
/var/folders/7z/kps_xzfj7sn5l5gkyq8s9db00000gn/T//ccvBF34a.s:4394   .data.Init_Charge_Time:0000000000000000 $d
/var/folders/7z/kps_xzfj7sn5l5gkyq8s9db00000gn/T//ccvBF34a.s:4400   .bss.MeasCurrParm:0000000000000000 $d
/var/folders/7z/kps_xzfj7sn5l5gkyq8s9db00000gn/T//ccvBF34a.s:4404   .bss.MeasCurrParm:0000000000000000 MeasCurrParm
/var/folders/7z/kps_xzfj7sn5l5gkyq8s9db00000gn/T//ccvBF34a.s:4407   .bss.HallPLLde1:0000000000000000 $d
/var/folders/7z/kps_xzfj7sn5l5gkyq8s9db00000gn/T//ccvBF34a.s:4413   .bss.Fault_seq:0000000000000000 $d
/var/folders/7z/kps_xzfj7sn5l5gkyq8s9db00000gn/T//ccvBF34a.s:4419   .rodata.str1.4:0000000000000000 $d
/var/folders/7z/kps_xzfj7sn5l5gkyq8s9db00000gn/T//ccvBF34a.s:4443   .bss.Hall_KB:0000000000000000 $d
/var/folders/7z/kps_xzfj7sn5l5gkyq8s9db00000gn/T//ccvBF34a.s:4446   .bss.Hall_KB:0000000000000000 Hall_KB
/var/folders/7z/kps_xzfj7sn5l5gkyq8s9db00000gn/T//ccvBF34a.s:4449   .bss.Wpll:0000000000000000 $d
                     .debug_frame:0000000000000010 $d
/var/folders/7z/kps_xzfj7sn5l5gkyq8s9db00000gn/T//ccvBF34a.s:61     .text.SEQUENCE_thread:000000000000001c $t
/var/folders/7z/kps_xzfj7sn5l5gkyq8s9db00000gn/T//ccvBF34a.s:104    .text.mcpwm_adc_int_handler:000000000000001c $t
/var/folders/7z/kps_xzfj7sn5l5gkyq8s9db00000gn/T//ccvBF34a.s:263    .text.SetupParm:0000000000000084 $t
/var/folders/7z/kps_xzfj7sn5l5gkyq8s9db00000gn/T//ccvBF34a.s:342    .text.ClarkePark:0000000000000068 $t
/var/folders/7z/kps_xzfj7sn5l5gkyq8s9db00000gn/T//ccvBF34a.s:572    .text.SetupControlParameters:0000000000000098 $t
/var/folders/7z/kps_xzfj7sn5l5gkyq8s9db00000gn/T//ccvBF34a.s:653    .text.VoltRippleComp:000000000000005c $t
/var/folders/7z/kps_xzfj7sn5l5gkyq8s9db00000gn/T//ccvBF34a.s:1059   .text.DoControl:0000000000000244 $t
/var/folders/7z/kps_xzfj7sn5l5gkyq8s9db00000gn/T//ccvBF34a.s:1129   .text.MeasCompCurr:0000000000000048 $t
/var/folders/7z/kps_xzfj7sn5l5gkyq8s9db00000gn/T//ccvBF34a.s:1157   .text.InitMeasCompCurr:000000000000000c $t
/var/folders/7z/kps_xzfj7sn5l5gkyq8s9db00000gn/T//ccvBF34a.s:1221   .text.InvPark:000000000000004c $t
/var/folders/7z/kps_xzfj7sn5l5gkyq8s9db00000gn/T//ccvBF34a.s:1272   .text.CalcRefVec:0000000000000048 $t
/var/folders/7z/kps_xzfj7sn5l5gkyq8s9db00000gn/T//ccvBF34a.s:1340   .text.CalcTimes:000000000000006c $t
/var/folders/7z/kps_xzfj7sn5l5gkyq8s9db00000gn/T//ccvBF34a.s:1422   .text.update_timer_Duty:0000000000000058 $t
/var/folders/7z/kps_xzfj7sn5l5gkyq8s9db00000gn/T//ccvBF34a.s:1612   .text.CalcSVGen:0000000000000104 $t
/var/folders/7z/kps_xzfj7sn5l5gkyq8s9db00000gn/T//ccvBF34a.s:1901   .text.SMC_HallSensor_Estimation:000000000000019c $t
/var/folders/7z/kps_xzfj7sn5l5gkyq8s9db00000gn/T//ccvBF34a.s:2142   .text.mcpwm_adc_inj_int_handler:000000000000013c $t
/var/folders/7z/kps_xzfj7sn5l5gkyq8s9db00000gn/T//ccvBF34a.s:2410   .text.SMC_Position_Estimation:00000000000001fc $t
/var/folders/7z/kps_xzfj7sn5l5gkyq8s9db00000gn/T//ccvBF34a.s:2561   .text.CalculateParkAngle:00000000000000f8 $t
/var/folders/7z/kps_xzfj7sn5l5gkyq8s9db00000gn/T//ccvBF34a.s:2678   .text.FWInit:00000000000000ac $t
/var/folders/7z/kps_xzfj7sn5l5gkyq8s9db00000gn/T//ccvBF34a.s:3502   .text.mcpwm_init:0000000000000504 $t
/var/folders/7z/kps_xzfj7sn5l5gkyq8s9db00000gn/T//ccvBF34a.s:3547   .text.FieldWeakening:0000000000000034 $t
ARM GAS  /var/folders/7z/kps_xzfj7sn5l5gkyq8s9db00000gn/T//ccvBF34a.s 			page 323


/var/folders/7z/kps_xzfj7sn5l5gkyq8s9db00000gn/T//ccvBF34a.s:3669   .text.mcpwm_get_tot_current:0000000000000024 $t
/var/folders/7z/kps_xzfj7sn5l5gkyq8s9db00000gn/T//ccvBF34a.s:3706   .text.mcpwm_get_rpm:0000000000000024 $t
/var/folders/7z/kps_xzfj7sn5l5gkyq8s9db00000gn/T//ccvBF34a.s:3752   .text.mcpwm_get_fault:000000000000000c $t
/var/folders/7z/kps_xzfj7sn5l5gkyq8s9db00000gn/T//ccvBF34a.s:3784   .text.mcpwm_fault_to_string:0000000000000018 $t
/var/folders/7z/kps_xzfj7sn5l5gkyq8s9db00000gn/T//ccvBF34a.s:3828   .text.mcpwm_get_configuration:0000000000000008 $t

UNDEFINED SYMBOLS
chThdSleep
rlist
WWDG_SetCounter
cosf
sinf
sqrtf
utils_sys_lock_cnt
utils_sys_unlock_cnt
ADC_GetInjectedConversionValue
atan2f
TIM_DeInit
RCC_APB2PeriphClockCmd
TIM_TimeBaseInit
TIM_OC1Init
TIM_OC2Init
TIM_OC3Init
TIM_OC4Init
TIM_OC1PreloadConfig
TIM_OC2PreloadConfig
TIM_OC3PreloadConfig
TIM_OC4PreloadConfig
TIM_BDTRConfig
TIM_CCPreloadControl
TIM_ARRPreloadConfig
RCC_AHB1PeriphClockCmd
dmaStreamAllocate
DMA_Init
DMA_Cmd
DMA_ITConfig
ADC_CommonInit
ADC_Init
hw_setup_adc_channels
ADC_MultiModeDMARequestAfterLastTransferCmd
ADC_ExternalTrigInjectedConvConfig
ADC_ExternalTrigInjectedConvEdgeConfig
ADC_InjectedSequencerLengthConfig
ADC_ITConfig
NVIC_Init
ADC_Cmd
TIM_CtrlPWMOutputs
TIM_SelectOutputTrigger
TIM_SelectMasterSlaveMode
TIM_SelectInputTrigger
TIM_SelectSlaveMode
TIM_Cmd
RCC_APB1PeriphClockCmd
_stm32_dma_streams
chThdCreateStatic
WWDG_SetPrescaler
WWDG_SetWindowValue
ARM GAS  /var/folders/7z/kps_xzfj7sn5l5gkyq8s9db00000gn/T//ccvBF34a.s 			page 324


WWDG_Enable
TIM_SelectOCxM
TIM_CCxCmd
TIM_CCxNCmd
TIM_GenerateEvent
