ARM GAS  /var/folders/bz/nn5481rn5xq59rb0mbj7x0880000gn/T//ccKvLbC4.s 			page 1


   1              		.syntax unified
   2              		.cpu cortex-m4
   3              		.eabi_attribute 27, 1
   4              		.eabi_attribute 28, 1
   5              		.fpu fpv4-sp-d16
   6              		.eabi_attribute 20, 1
   7              		.eabi_attribute 21, 1
   8              		.eabi_attribute 23, 3
   9              		.eabi_attribute 24, 1
  10              		.eabi_attribute 25, 1
  11              		.eabi_attribute 26, 1
  12              		.eabi_attribute 30, 2
  13              		.eabi_attribute 34, 1
  14              		.eabi_attribute 18, 4
  15              		.thumb
  16              		.file	"mcpwm.c"
  17              		.text
  18              	.Ltext0:
  19              		.cfi_sections	.debug_frame
  20              		.section	.text.SEQUENCE_thread,"ax",%progbits
  21              		.align	2
  22              		.p2align 4,,15
  23              		.thumb
  24              		.thumb_func
  25              		.type	SEQUENCE_thread, %function
  26              	SEQUENCE_thread:
  27              	.LFB124:
  28              		.file 1 "src/bldc/mcpwm.c"
  29              		.loc 1 780 0
  30              		.cfi_startproc
  31              		@ args = 0, pretend = 0, frame = 0
  32              		@ frame_needed = 0, uses_anonymous_args = 0
  33              	.LVL0:
  34 0000 08B5     		push	{r3, lr}
  35              		.cfi_def_cfa_offset 8
  36              		.cfi_offset 3, -8
  37              		.cfi_offset 14, -4
  38              		.loc 1 783 0
  39 0002 044B     		ldr	r3, .L3
  40 0004 044A     		ldr	r2, .L3+4
  41 0006 9B69     		ldr	r3, [r3, #24]
  42              		.loc 1 923 0
  43 0008 0A20     		movs	r0, #10
  44              	.LVL1:
  45              		.loc 1 783 0
  46 000a 9A61     		str	r2, [r3, #24]
  47              		.loc 1 923 0
  48 000c FFF7FEFF 		bl	chThdSleep
  49              	.LVL2:
  50              		.loc 1 926 0
  51 0010 0020     		movs	r0, #0
  52 0012 08BD     		pop	{r3, pc}
  53              	.L4:
  54              		.align	2
  55              	.L3:
  56 0014 00000000 		.word	rlist
  57 0018 00000000 		.word	.LC0
ARM GAS  /var/folders/bz/nn5481rn5xq59rb0mbj7x0880000gn/T//ccKvLbC4.s 			page 2


  58              		.cfi_endproc
  59              	.LFE124:
  60              		.size	SEQUENCE_thread, .-SEQUENCE_thread
  61              		.section	.text.mcpwm_adc_int_handler,"ax",%progbits
  62              		.align	2
  63              		.p2align 4,,15
  64              		.global	mcpwm_adc_int_handler
  65              		.thumb
  66              		.thumb_func
  67              		.type	mcpwm_adc_int_handler, %function
  68              	mcpwm_adc_int_handler:
  69              	.LFB123:
  70              		.loc 1 715 0
  71              		.cfi_startproc
  72              		@ args = 0, pretend = 0, frame = 0
  73              		@ frame_needed = 0, uses_anonymous_args = 0
  74              		@ link register save eliminated.
  75              	.LVL3:
  76              		.loc 1 720 0
  77 0000 044B     		ldr	r3, .L6
  78              		.loc 1 719 0
  79 0002 0549     		ldr	r1, .L6+4
  80              	.LVL4:
  81 0004 0020     		movs	r0, #0
  82              	.LVL5:
  83              		.loc 1 720 0
  84 0006 4022     		movs	r2, #64
  85              		.loc 1 719 0
  86 0008 4862     		str	r0, [r1, #36]
  87              		.loc 1 720 0
  88 000a 1A83     		strh	r2, [r3, #24]	@ movhi
  89              		.loc 1 725 0
  90 000c 6420     		movs	r0, #100
  91              		.loc 1 721 0
  92 000e 5A83     		strh	r2, [r3, #26]	@ movhi
  93              		.loc 1 725 0
  94 0010 FFF7FEBF 		b	WWDG_SetCounter
  95              	.LVL6:
  96              	.L7:
  97              		.align	2
  98              	.L6:
  99 0014 00040240 		.word	1073873920
 100 0018 00180040 		.word	1073747968
 101              		.cfi_endproc
 102              	.LFE123:
 103              		.size	mcpwm_adc_int_handler, .-mcpwm_adc_int_handler
 104              		.section	.text.fputc,"ax",%progbits
 105              		.align	2
 106              		.p2align 4,,15
 107              		.global	fputc
 108              		.thumb
 109              		.thumb_func
 110              		.type	fputc, %function
 111              	fputc:
 112              	.LFB121:
 113              		.loc 1 598 0
 114              		.cfi_startproc
ARM GAS  /var/folders/bz/nn5481rn5xq59rb0mbj7x0880000gn/T//ccKvLbC4.s 			page 3


 115              		@ args = 0, pretend = 0, frame = 0
 116              		@ frame_needed = 0, uses_anonymous_args = 0
 117              		@ link register save eliminated.
 118              	.LVL7:
 119              	.LBB22:
 120              	.LBB23:
 121              		.file 2 "lib/ChibiOS_2.6.6/os/ports/common/ARMCMx/CMSIS/include/core_cm4.h"
 122              		.loc 2 1704 0
 123 0000 4FF06042 		mov	r2, #-536870912
 124              	.LVL8:
 125 0004 D2F8803E 		ldr	r3, [r2, #3712]
 126 0008 D907     		lsls	r1, r3, #31
 127              	.LVL9:
 128 000a 0AD5     		bpl	.L9
 129              		.loc 2 1705 0
 130 000c D2F8003E 		ldr	r3, [r2, #3584]
 131              		.loc 2 1704 0
 132 0010 DB07     		lsls	r3, r3, #31
 133 0012 06D5     		bpl	.L9
 134              	.L16:
 135              		.loc 2 1707 0
 136 0014 1368     		ldr	r3, [r2]
 137 0016 4FF06041 		mov	r1, #-536870912
 138 001a 002B     		cmp	r3, #0
 139 001c FAD0     		beq	.L16
 140              		.loc 2 1708 0
 141 001e C3B2     		uxtb	r3, r0
 142 0020 0B70     		strb	r3, [r1]
 143              	.L9:
 144              	.LBE23:
 145              	.LBE22:
 146              		.loc 1 600 0
 147 0022 7047     		bx	lr
 148              		.cfi_endproc
 149              	.LFE121:
 150              		.size	fputc, .-fputc
 151              		.section	.text.SetupParm,"ax",%progbits
 152              		.align	2
 153              		.p2align 4,,15
 154              		.global	SetupParm
 155              		.thumb
 156              		.thumb_func
 157              		.type	SetupParm, %function
 158              	SetupParm:
 159              	.LFB125:
 160              		.loc 1 932 0
 161              		.cfi_startproc
 162              		@ args = 0, pretend = 0, frame = 0
 163              		@ frame_needed = 0, uses_anonymous_args = 0
 164              		@ link register save eliminated.
 165              		.loc 1 953 0
 166 0000 154A     		ldr	r2, .L23
 167              		.loc 1 946 0
 168 0002 164B     		ldr	r3, .L23+4
 169              		.loc 1 953 0
 170 0004 128A     		ldrh	r2, [r2, #16]
 171              		.loc 1 946 0
ARM GAS  /var/folders/bz/nn5481rn5xq59rb0mbj7x0880000gn/T//ccKvLbC4.s 			page 4


 172 0006 9FED167A 		flds	s14, .L23+8
 173              		.loc 1 950 0
 174 000a 1649     		ldr	r1, .L23+12
 175              		.loc 1 941 0
 176 000c 1648     		ldr	r0, .L23+16
 177              		.loc 1 953 0
 178 000e 07EE902A 		fmsr	s15, r2	@ int
 179 0012 F8EE677A 		fuitos	s15, s15
 180              		.loc 1 950 0
 181 0016 154A     		ldr	r2, .L23+20
 182              		.loc 1 932 0
 183 0018 F0B4     		push	{r4, r5, r6, r7}
 184              		.cfi_def_cfa_offset 16
 185              		.cfi_offset 4, -16
 186              		.cfi_offset 5, -12
 187              		.cfi_offset 6, -8
 188              		.cfi_offset 7, -4
 189              		.loc 1 953 0
 190 001a 67EE877A 		fmuls	s15, s15, s14
 191              		.loc 1 946 0
 192 001e 83ED007A 		fsts	s14, [r3]
 193              		.loc 1 947 0
 194 0022 83ED027A 		fsts	s14, [r3, #8]
 195              		.loc 1 953 0
 196 0026 9FED127A 		flds	s14, .L23+24
 197              		.loc 1 950 0
 198 002a 0968     		ldr	r1, [r1]
 199 002c 1268     		ldr	r2, [r2]
 200              		.loc 1 953 0
 201 002e 114E     		ldr	r6, .L23+28
 202              		.loc 1 957 0
 203 0030 114D     		ldr	r5, .L23+32
 204              		.loc 1 941 0
 205 0032 124F     		ldr	r7, .L23+36
 206 0034 4760     		str	r7, [r0, #4]
 207              		.loc 1 953 0
 208 0036 67EE877A 		fmuls	s15, s15, s14
 209              		.loc 1 950 0
 210 003a 89B2     		uxth	r1, r1
 211 003c 92B2     		uxth	r2, r2
 212              	.LVL10:
 213              	.LBB24:
 214              	.LBB25:
 215              		.loc 1 1380 0
 216 003e 9980     		strh	r1, [r3, #4]	@ movhi
 217              	.LBE25:
 218              	.LBE24:
 219              		.loc 1 957 0
 220 0040 0F4C     		ldr	r4, .L23+40
 221              	.LBB27:
 222              	.LBB26:
 223              		.loc 1 1381 0
 224 0042 9A81     		strh	r2, [r3, #12]	@ movhi
 225              	.LBE26:
 226              	.LBE27:
 227              		.loc 1 953 0
 228 0044 C6ED007A 		fsts	s15, [r6]
ARM GAS  /var/folders/bz/nn5481rn5xq59rb0mbj7x0880000gn/T//ccKvLbC4.s 			page 5


 229              		.loc 1 942 0
 230 0048 40F69F77 		movw	r7, #3999
 231              		.loc 1 957 0
 232 004c EB6A     		ldr	r3, [r5, #44]
 233              		.loc 1 942 0
 234 004e 0760     		str	r7, [r0]
 235              		.loc 1 957 0
 236 0050 2360     		str	r3, [r4]
 237              		.loc 1 961 0
 238 0052 0020     		movs	r0, #0
 239 0054 F0BC     		pop	{r4, r5, r6, r7}
 240              		.cfi_restore 7
 241              		.cfi_restore 6
 242              		.cfi_restore 5
 243              		.cfi_restore 4
 244              		.cfi_def_cfa_offset 0
 245 0056 7047     		bx	lr
 246              	.L24:
 247              		.align	2
 248              	.L23:
 249 0058 00000000 		.word	.LANCHOR4
 250 005c 00000000 		.word	.LANCHOR1
 251 0060 6740533A 		.word	978534503
 252 0064 00000000 		.word	.LANCHOR2
 253 0068 00000000 		.word	.LANCHOR0
 254 006c 00000000 		.word	.LANCHOR3
 255 0070 74D19541 		.word	1100337524
 256 0074 00000000 		.word	.LANCHOR5
 257 0078 00000140 		.word	1073807360
 258 007c 26310800 		.word	536870
 259 0080 00000000 		.word	.LANCHOR6
 260              		.cfi_endproc
 261              	.LFE125:
 262              		.size	SetupParm, .-SetupParm
 263              		.section	.text.ClarkePark,"ax",%progbits
 264              		.align	2
 265              		.p2align 4,,15
 266              		.global	ClarkePark
 267              		.thumb
 268              		.thumb_func
 269              		.type	ClarkePark, %function
 270              	ClarkePark:
 271              	.LFB127:
 272              		.loc 1 1015 0
 273              		.cfi_startproc
 274              		@ args = 0, pretend = 0, frame = 0
 275              		@ frame_needed = 0, uses_anonymous_args = 0
 276 0000 10B5     		push	{r4, lr}
 277              		.cfi_def_cfa_offset 8
 278              		.cfi_offset 4, -8
 279              		.cfi_offset 14, -4
 280              		.loc 1 1016 0
 281 0002 174C     		ldr	r4, .L27
 282              		.loc 1 1017 0
 283 0004 DFED177A 		flds	s15, .L27+4
 284              		.loc 1 1015 0
 285 0008 2DED048B 		fstmfdd	sp!, {d8, d9}
ARM GAS  /var/folders/bz/nn5481rn5xq59rb0mbj7x0880000gn/T//ccKvLbC4.s 			page 6


 286              		.cfi_def_cfa_offset 24
 287              		.cfi_offset 80, -24
 288              		.cfi_offset 81, -20
 289              		.cfi_offset 82, -16
 290              		.cfi_offset 83, -12
 291              		.loc 1 1017 0
 292 000c 94ED048A 		flds	s16, [r4, #16]
 293              		.loc 1 1016 0
 294 0010 D4ED038A 		flds	s17, [r4, #12]
 295              		.loc 1 1021 0
 296 0014 D4ED009A 		flds	s19, [r4]
 297              		.loc 1 1016 0
 298 0018 C4ED058A 		fsts	s17, [r4, #20]
 299              		.loc 1 1017 0
 300 001c 38EE088A 		fadds	s16, s16, s16
 301              		.loc 1 1021 0
 302 0020 B0EE690A 		fcpys	s0, s19
 303              		.loc 1 1017 0
 304 0024 28EE278A 		fmuls	s16, s16, s15
 305 0028 A8EEA78A 		vfma.f32	s16, s17, s15
 306 002c 84ED068A 		fsts	s16, [r4, #24]
 307              		.loc 1 1021 0
 308 0030 FFF7FEFF 		bl	cosf
 309              	.LVL11:
 310 0034 B0EE409A 		fcpys	s18, s0
 311 0038 B0EE690A 		fcpys	s0, s19
 312 003c FFF7FEFF 		bl	sinf
 313              	.LVL12:
 314              		.loc 1 1022 0
 315 0040 68EE097A 		fmuls	s15, s16, s18
 316              		.loc 1 1021 0
 317 0044 28EE008A 		fmuls	s16, s16, s0
 318              		.loc 1 1022 0
 319 0048 E8EEC07A 		vfms.f32	s15, s17, s0
 320              		.loc 1 1021 0
 321 004c A8EE898A 		vfma.f32	s16, s17, s18
 322              		.loc 1 1022 0
 323 0050 C4ED087A 		fsts	s15, [r4, #32]
 324              		.loc 1 1021 0
 325 0054 84ED078A 		fsts	s16, [r4, #28]
 326              		.loc 1 1025 0
 327 0058 BDEC048B 		fldmfdd	sp!, {d8-d9}
 328              		.cfi_restore 82
 329              		.cfi_restore 83
 330              		.cfi_restore 80
 331              		.cfi_restore 81
 332              		.cfi_def_cfa_offset 8
 333 005c 10BD     		pop	{r4, pc}
 334              	.L28:
 335 005e 00BF     		.align	2
 336              	.L27:
 337 0060 00000000 		.word	.LANCHOR7
 338 0064 3ACD133F 		.word	1058262330
 339              		.cfi_endproc
 340              	.LFE127:
 341              		.size	ClarkePark, .-ClarkePark
 342              		.section	.text.InitPI,"ax",%progbits
ARM GAS  /var/folders/bz/nn5481rn5xq59rb0mbj7x0880000gn/T//ccKvLbC4.s 			page 7


 343              		.align	2
 344              		.p2align 4,,15
 345              		.global	InitPI
 346              		.thumb
 347              		.thumb_func
 348              		.type	InitPI, %function
 349              	InitPI:
 350              	.LFB129:
 351              		.loc 1 1255 0
 352              		.cfi_startproc
 353              		@ args = 0, pretend = 0, frame = 0
 354              		@ frame_needed = 0, uses_anonymous_args = 0
 355              		@ link register save eliminated.
 356              	.LVL13:
 357              		.loc 1 1256 0
 358 0000 0023     		movs	r3, #0
 359 0002 0360     		str	r3, [r0]	@ float
 360              		.loc 1 1257 0
 361 0004 0362     		str	r3, [r0, #32]	@ float
 362 0006 7047     		bx	lr
 363              		.cfi_endproc
 364              	.LFE129:
 365              		.size	InitPI, .-InitPI
 366              		.section	.text.CalcPI,"ax",%progbits
 367              		.align	2
 368              		.p2align 4,,15
 369              		.global	CalcPI
 370              		.thumb
 371              		.thumb_func
 372              		.type	CalcPI, %function
 373              	CalcPI:
 374              	.LFB130:
 375              		.loc 1 1261 0
 376              		.cfi_startproc
 377              		@ args = 0, pretend = 0, frame = 0
 378              		@ frame_needed = 0, uses_anonymous_args = 0
 379              		@ link register save eliminated.
 380              	.LVL14:
 381              		.loc 1 1263 0
 382 0000 90ED067A 		flds	s14, [r0, #24]
 383 0004 90ED076A 		flds	s12, [r0, #28]
 384              		.loc 1 1265 0
 385 0008 D0ED007A 		flds	s15, [r0]
 386 000c D0ED015A 		flds	s11, [r0, #4]
 387              		.loc 1 1267 0
 388 0010 D0ED046A 		flds	s13, [r0, #16]
 389              		.loc 1 1263 0
 390 0014 37EE466A 		fsubs	s12, s14, s12
 391              	.LVL15:
 392              		.loc 1 1265 0
 393 0018 B0EE677A 		fcpys	s14, s15
 394 001c A5EE867A 		vfma.f32	s14, s11, s12
 395              	.LVL16:
 396              		.loc 1 1267 0
 397 0020 B4EEE67A 		fcmpes	s14, s13
 398 0024 F1EE10FA 		fmstat
 399 0028 0BDC     		bgt	.L40
ARM GAS  /var/folders/bz/nn5481rn5xq59rb0mbj7x0880000gn/T//ccKvLbC4.s 			page 8


 400              		.loc 1 1268 0
 401 002a D0ED056A 		flds	s13, [r0, #20]
 402 002e B4EEE67A 		fcmpes	s14, s13
 403 0032 F1EE10FA 		fmstat
 404 0036 04D4     		bmi	.L40
 405              		.loc 1 1269 0
 406 0038 F0EE476A 		fcpys	s13, s14
 407 003c 80ED087A 		fsts	s14, [r0, #32]
 408 0040 01E0     		b	.L33
 409              	.L40:
 410              		.loc 1 1268 0 discriminator 1
 411 0042 C0ED086A 		fsts	s13, [r0, #32]
 412              	.L33:
 413              	.LVL17:
 414              		.loc 1 1273 0
 415 0046 90ED025A 		flds	s10, [r0, #8]
 416 004a D0ED035A 		flds	s11, [r0, #12]
 417 004e E5EE067A 		vfma.f32	s15, s10, s12
 418              		.loc 1 1271 0
 419 0052 37EE667A 		fsubs	s14, s14, s13
 420              	.LVL18:
 421              		.loc 1 1273 0
 422 0056 E5EEC77A 		vfms.f32	s15, s11, s14
 423 005a C0ED007A 		fsts	s15, [r0]
 424              	.LVL19:
 425 005e 7047     		bx	lr
 426              		.cfi_endproc
 427              	.LFE130:
 428              		.size	CalcPI, .-CalcPI
 429              		.section	.text.SetupControlParameters,"ax",%progbits
 430              		.align	2
 431              		.p2align 4,,15
 432              		.global	SetupControlParameters
 433              		.thumb
 434              		.thumb_func
 435              		.type	SetupControlParameters, %function
 436              	SetupControlParameters:
 437              	.LFB131:
 438              		.loc 1 1278 0
 439              		.cfi_startproc
 440              		@ args = 0, pretend = 0, frame = 0
 441              		@ frame_needed = 0, uses_anonymous_args = 0
 442 0000 2DE9F043 		push	{r4, r5, r6, r7, r8, r9, lr}
 443              		.cfi_def_cfa_offset 28
 444              		.cfi_offset 4, -28
 445              		.cfi_offset 5, -24
 446              		.cfi_offset 6, -20
 447              		.cfi_offset 7, -16
 448              		.cfi_offset 8, -12
 449              		.cfi_offset 9, -8
 450              		.cfi_offset 14, -4
 451              		.loc 1 1290 0
 452 0004 1A48     		ldr	r0, .L43
 453              		.loc 1 1281 0
 454 0006 1B4C     		ldr	r4, .L43+4
 455              		.loc 1 1299 0
 456 0008 1B49     		ldr	r1, .L43+8
ARM GAS  /var/folders/bz/nn5481rn5xq59rb0mbj7x0880000gn/T//ccKvLbC4.s 			page 9


 457              		.loc 1 1308 0
 458 000a 1C4A     		ldr	r2, .L43+12
 459              		.loc 1 1283 0
 460 000c 1C4D     		ldr	r5, .L43+16
 461              		.loc 1 1282 0
 462 000e 1D4E     		ldr	r6, .L43+20
 463              		.loc 1 1281 0
 464 0010 DFF87890 		ldr	r9, .L43+28
 465              		.loc 1 1285 0
 466 0014 DFF87880 		ldr	r8, .L43+32
 467              		.loc 1 1302 0
 468 0018 DFF878E0 		ldr	lr, .L43+36
 469              		.loc 1 1303 0
 470 001c 1A4F     		ldr	r7, .L43+24
 471              		.loc 1 1281 0
 472 001e C4F80490 		str	r9, [r4, #4]	@ float
 473              	.LBB28:
 474              	.LBB29:
 475              		.loc 1 1256 0
 476 0022 0023     		movs	r3, #0
 477              	.LBE29:
 478              	.LBE28:
 479              		.loc 1 1299 0
 480 0024 4FF0804C 		mov	ip, #1073741824
 481              		.loc 1 1290 0
 482 0028 C0F80490 		str	r9, [r0, #4]	@ float
 483              		.loc 1 1282 0
 484 002c A660     		str	r6, [r4, #8]	@ float
 485              		.loc 1 1291 0
 486 002e 8660     		str	r6, [r0, #8]	@ float
 487              		.loc 1 1283 0
 488 0030 E560     		str	r5, [r4, #12]	@ float
 489              		.loc 1 1284 0
 490 0032 2561     		str	r5, [r4, #16]	@ float
 491              		.loc 1 1292 0
 492 0034 C560     		str	r5, [r0, #12]	@ float
 493              		.loc 1 1293 0
 494 0036 0561     		str	r5, [r0, #16]	@ float
 495              		.loc 1 1285 0
 496 0038 C4F81480 		str	r8, [r4, #20]	@ float
 497              	.LVL20:
 498              		.loc 1 1294 0
 499 003c C0F81480 		str	r8, [r0, #20]	@ float
 500              	.LVL21:
 501              	.LBB31:
 502              	.LBB30:
 503              		.loc 1 1256 0
 504 0040 2360     		str	r3, [r4]	@ float
 505              		.loc 1 1257 0
 506 0042 2362     		str	r3, [r4, #32]	@ float
 507              	.LBE30:
 508              	.LBE31:
 509              	.LBB32:
 510              	.LBB33:
 511              		.loc 1 1256 0
 512 0044 0360     		str	r3, [r0]	@ float
 513              		.loc 1 1257 0
ARM GAS  /var/folders/bz/nn5481rn5xq59rb0mbj7x0880000gn/T//ccKvLbC4.s 			page 10


 514 0046 0362     		str	r3, [r0, #32]	@ float
 515              	.LBE33:
 516              	.LBE32:
 517              		.loc 1 1300 0
 518 0048 8E60     		str	r6, [r1, #8]	@ float
 519              		.loc 1 1301 0
 520 004a CD60     		str	r5, [r1, #12]	@ float
 521              	.LBB34:
 522              	.LBB35:
 523              		.loc 1 1256 0
 524 004c 0B60     		str	r3, [r1]	@ float
 525              		.loc 1 1257 0
 526 004e 0B62     		str	r3, [r1, #32]	@ float
 527              	.LBE35:
 528              	.LBE34:
 529              		.loc 1 1309 0
 530 0050 9660     		str	r6, [r2, #8]	@ float
 531              		.loc 1 1310 0
 532 0052 D560     		str	r5, [r2, #12]	@ float
 533              	.LBB36:
 534              	.LBB37:
 535              		.loc 1 1256 0
 536 0054 1360     		str	r3, [r2]	@ float
 537              		.loc 1 1257 0
 538 0056 1362     		str	r3, [r2, #32]	@ float
 539              	.LBE37:
 540              	.LBE36:
 541              		.loc 1 1299 0
 542 0058 C1F804C0 		str	ip, [r1, #4]	@ float
 543              		.loc 1 1308 0
 544 005c C2F804C0 		str	ip, [r2, #4]	@ float
 545              		.loc 1 1302 0
 546 0060 C1F810E0 		str	lr, [r1, #16]	@ float
 547              		.loc 1 1311 0
 548 0064 C2F810E0 		str	lr, [r2, #16]	@ float
 549              		.loc 1 1303 0
 550 0068 4F61     		str	r7, [r1, #20]	@ float
 551              	.LVL22:
 552              		.loc 1 1312 0
 553 006a 5761     		str	r7, [r2, #20]	@ float
 554              	.LVL23:
 555 006c BDE8F083 		pop	{r4, r5, r6, r7, r8, r9, pc}
 556              	.L44:
 557              		.align	2
 558              	.L43:
 559 0070 00000000 		.word	.LANCHOR9
 560 0074 00000000 		.word	.LANCHOR8
 561 0078 00000000 		.word	.LANCHOR10
 562 007c 00000000 		.word	.LANCHOR11
 563 0080 58FF7F3F 		.word	1065353048
 564 0084 0AD7233C 		.word	1008981770
 565 0088 333373BF 		.word	-1082969293
 566 008c CDCC4C3D 		.word	1028443341
 567 0090 58FF7FBF 		.word	-1082130600
 568 0094 3333733F 		.word	1064514355
 569              		.cfi_endproc
 570              	.LFE131:
ARM GAS  /var/folders/bz/nn5481rn5xq59rb0mbj7x0880000gn/T//ccKvLbC4.s 			page 11


 571              		.size	SetupControlParameters, .-SetupControlParameters
 572              		.section	.text.DebounceDelay,"ax",%progbits
 573              		.align	2
 574              		.p2align 4,,15
 575              		.global	DebounceDelay
 576              		.thumb
 577              		.thumb_func
 578              		.type	DebounceDelay, %function
 579              	DebounceDelay:
 580              	.LFB132:
 581              		.loc 1 1320 0
 582              		.cfi_startproc
 583              		@ args = 0, pretend = 0, frame = 0
 584              		@ frame_needed = 0, uses_anonymous_args = 0
 585              		@ link register save eliminated.
 586              	.LVL24:
 587 0000 7047     		bx	lr
 588              		.cfi_endproc
 589              	.LFE132:
 590              		.size	DebounceDelay, .-DebounceDelay
 591 0002 00BF     		.section	.text.VoltRippleComp,"ax",%progbits
 592              		.align	2
 593              		.p2align 4,,15
 594              		.global	VoltRippleComp
 595              		.thumb
 596              		.thumb_func
 597              		.type	VoltRippleComp, %function
 598              	VoltRippleComp:
 599              	.LFB133:
 600              		.loc 1 1335 0
 601              		.cfi_startproc
 602              		@ args = 0, pretend = 0, frame = 0
 603              		@ frame_needed = 0, uses_anonymous_args = 0
 604              		@ link register save eliminated.
 605              	.LVL25:
 606              		.loc 1 1356 0
 607 0000 144A     		ldr	r2, .L55
 608 0002 154B     		ldr	r3, .L55+4
 609 0004 92ED007A 		flds	s14, [r2]
 610 0008 D3ED007A 		flds	s15, [r3]
 611 000c B4EEE77A 		fcmpes	s14, s15
 612 0010 F1EE10FA 		fmstat
 613 0014 11DC     		bgt	.L54
 614              		.loc 1 1358 0
 615 0016 93ED007A 		flds	s14, [r3]
 616 001a D2ED007A 		flds	s15, [r2]
 617 001e B4EEE77A 		fcmpes	s14, s15
 618 0022 F1EE10FA 		fmstat
 619 0026 07DD     		ble	.L49
 620              	.LVL26:
 621              	.LBB40:
 622              	.LBB41:
 623              		.loc 1 1359 0
 624 0028 D2ED007A 		flds	s15, [r2]
 625 002c 93ED007A 		flds	s14, [r3]
 626 0030 C7EE877A 		fdivs	s15, s15, s14
 627 0034 20EE270A 		fmuls	s0, s0, s15
ARM GAS  /var/folders/bz/nn5481rn5xq59rb0mbj7x0880000gn/T//ccKvLbC4.s 			page 12


 628              	.LVL27:
 629              	.L49:
 630              	.LBE41:
 631              	.LBE40:
 632              		.loc 1 1364 0
 633 0038 7047     		bx	lr
 634              	.LVL28:
 635              	.L54:
 636              		.loc 1 1357 0
 637 003a 92ED007A 		flds	s14, [r2]
 638 003e D3ED007A 		flds	s15, [r3]
 639 0042 D3ED006A 		flds	s13, [r3]
 640 0046 77EE677A 		fsubs	s15, s14, s15
 641 004a C7EEA67A 		fdivs	s15, s15, s13
 642 004e A7EE800A 		vfma.f32	s0, s15, s0
 643              	.LVL29:
 644 0052 7047     		bx	lr
 645              	.L56:
 646              		.align	2
 647              	.L55:
 648 0054 00000000 		.word	.LANCHOR5
 649 0058 00000000 		.word	.LANCHOR12
 650              		.cfi_endproc
 651              	.LFE133:
 652              		.size	VoltRippleComp, .-VoltRippleComp
 653              		.section	.text.DoControl,"ax",%progbits
 654              		.align	2
 655              		.p2align 4,,15
 656              		.global	DoControl
 657              		.thumb
 658              		.thumb_func
 659              		.type	DoControl, %function
 660              	DoControl:
 661              	.LFB128:
 662              		.loc 1 1030 0
 663              		.cfi_startproc
 664              		@ args = 0, pretend = 0, frame = 0
 665              		@ frame_needed = 0, uses_anonymous_args = 0
 666 0000 2DE9F041 		push	{r4, r5, r6, r7, r8, lr}
 667              		.cfi_def_cfa_offset 24
 668              		.cfi_offset 4, -24
 669              		.cfi_offset 5, -20
 670              		.cfi_offset 6, -16
 671              		.cfi_offset 7, -12
 672              		.cfi_offset 8, -8
 673              		.cfi_offset 14, -4
 674              		.loc 1 1032 0
 675 0004 804E     		ldr	r6, .L92
 676 0006 3378     		ldrb	r3, [r6]	@ zero_extendqisi2
 677 0008 13F00102 		ands	r2, r3, #1
 678 000c 3ED0     		beq	.L58
 679              		.loc 1 1040 0
 680 000e 9C06     		lsls	r4, r3, #26
 681 0010 00F1B580 		bmi	.L59
 682 0014 7D4C     		ldr	r4, .L92+4
 683 0016 6068     		ldr	r0, [r4, #4]	@ float
 684              	.L60:
ARM GAS  /var/folders/bz/nn5481rn5xq59rb0mbj7x0880000gn/T//ccKvLbC4.s 			page 13


 685              		.loc 1 1094 0
 686 0018 7D4B     		ldr	r3, .L92+8
 687              		.loc 1 1092 0
 688 001a 7E4A     		ldr	r2, .L92+12
 689              		.loc 1 1094 0
 690 001c 1B88     		ldrh	r3, [r3]
 691              		.loc 1 1092 0
 692 001e A260     		str	r2, [r4, #8]	@ float
 693              		.loc 1 1094 0
 694 0020 1BB9     		cbnz	r3, .L61
 695              		.loc 1 1096 0
 696 0022 7D4A     		ldr	r2, .L92+16
 697 0024 7D4B     		ldr	r3, .L92+20
 698 0026 D26D     		ldr	r2, [r2, #92]	@ float
 699 0028 DA61     		str	r2, [r3, #28]	@ float
 700              	.L61:
 701              		.loc 1 1100 0
 702 002a 7D4E     		ldr	r6, .L92+24
 703 002c 7D4D     		ldr	r5, .L92+28
 704              		.loc 1 1101 0
 705 002e B061     		str	r0, [r6, #24]	@ float
 706              		.loc 1 1100 0
 707 0030 EB69     		ldr	r3, [r5, #28]	@ float
 708 0032 F361     		str	r3, [r6, #28]	@ float
 709              		.loc 1 1102 0
 710 0034 3046     		mov	r0, r6
 711 0036 FFF7FEFF 		bl	CalcPI
 712              	.LVL30:
 713              		.loc 1 1103 0
 714 003a D6ED087A 		flds	s15, [r6, #32]
 715              		.loc 1 1112 0
 716 003e 7A4B     		ldr	r3, .L92+32
 717              		.loc 1 1103 0
 718 0040 C5ED097A 		fsts	s15, [r5, #36]
 719              		.loc 1 1112 0
 720 0044 67EEA77A 		fmuls	s15, s15, s15
 721              		.loc 1 1113 0
 722 0048 9FED787A 		flds	s14, .L92+36
 723              		.loc 1 1112 0
 724 004c C3ED007A 		fsts	s15, [r3]
 725              		.loc 1 1113 0
 726 0050 93ED000A 		flds	s0, [r3]
 727 0054 37EE400A 		fsubs	s0, s14, s0
 728 0058 F1EEC07A 		fsqrts	s15, s0
 729 005c F4EE677A 		fcmps	s15, s15
 730 0060 F1EE10FA 		fmstat
 731 0064 40F0C580 		bne	.L86
 732              	.L62:
 733 0068 714E     		ldr	r6, .L92+40
 734              		.loc 1 1117 0
 735 006a 2B6A     		ldr	r3, [r5, #32]	@ float
 736              		.loc 1 1118 0
 737 006c A268     		ldr	r2, [r4, #8]	@ float
 738              		.loc 1 1117 0
 739 006e F361     		str	r3, [r6, #28]	@ float
 740              		.loc 1 1114 0
 741 0070 B1EE677A 		fnegs	s14, s15
ARM GAS  /var/folders/bz/nn5481rn5xq59rb0mbj7x0880000gn/T//ccKvLbC4.s 			page 14


 742              		.loc 1 1119 0
 743 0074 3046     		mov	r0, r6
 744              		.loc 1 1118 0
 745 0076 B261     		str	r2, [r6, #24]	@ float
 746              		.loc 1 1113 0
 747 0078 C6ED047A 		fsts	s15, [r6, #16]
 748              		.loc 1 1114 0
 749 007c 86ED057A 		fsts	s14, [r6, #20]
 750              		.loc 1 1119 0
 751 0080 FFF7FEFF 		bl	CalcPI
 752              	.LVL31:
 753              		.loc 1 1120 0
 754 0084 336A     		ldr	r3, [r6, #32]	@ float
 755 0086 AB62     		str	r3, [r5, #40]	@ float
 756 0088 BDE8F081 		pop	{r4, r5, r6, r7, r8, pc}
 757              	.L58:
 758              		.loc 1 1148 0
 759 008c 9806     		lsls	r0, r3, #26
 760              		.loc 1 1162 0
 761 008e 5F4C     		ldr	r4, .L92+4
 762              		.loc 1 1148 0
 763 0090 0DD5     		bpl	.L64
 764              		.loc 1 1162 0
 765 0092 624D     		ldr	r5, .L92+20
 766              		.loc 1 1163 0
 767 0094 6748     		ldr	r0, .L92+44
 768              		.loc 1 1164 0
 769 0096 6849     		ldr	r1, .L92+48
 770              		.loc 1 1166 0
 771 0098 DFF8A8E1 		ldr	lr, .L92+60
 772              		.loc 1 1162 0
 773 009c A768     		ldr	r7, [r4, #8]	@ float
 774              		.loc 1 1166 0
 775 009e C4F800E0 		str	lr, [r4]	@ float
 776              		.loc 1 1151 0
 777 00a2 62F34513 		bfi	r3, r2, #5, #1
 778 00a6 3370     		strb	r3, [r6]
 779              		.loc 1 1162 0
 780 00a8 2F60     		str	r7, [r5]	@ float
 781              		.loc 1 1163 0
 782 00aa 0260     		str	r2, [r0]
 783              		.loc 1 1164 0
 784 00ac 0A60     		str	r2, [r1]
 785              	.L64:
 786              		.loc 1 1176 0
 787 00ae 584B     		ldr	r3, .L92+8
 788              		.loc 1 1180 0
 789 00b0 DFF86481 		ldr	r8, .L92+16
 790              		.loc 1 1176 0
 791 00b4 1B88     		ldrh	r3, [r3]
 792 00b6 002B     		cmp	r3, #0
 793 00b8 00F08280 		beq	.L87
 794              	.L65:
 795              		.loc 1 1195 0
 796 00bc 3378     		ldrb	r3, [r6]	@ zero_extendqisi2
 797              		.loc 1 1196 0
 798 00be D4ED007A 		flds	s15, [r4]
ARM GAS  /var/folders/bz/nn5481rn5xq59rb0mbj7x0880000gn/T//ccKvLbC4.s 			page 15


 799              		.loc 1 1195 0
 800 00c2 5907     		lsls	r1, r3, #29
 801              	.LBB42:
 802              	.LBB43:
 803              		.loc 1 1890 0
 804 00c4 5D4B     		ldr	r3, .L92+52
 805              	.LBE43:
 806              	.LBE42:
 807              		.loc 1 1196 0
 808 00c6 48BF     		it	mi
 809 00c8 C4ED027A 		fstsmi	s15, [r4, #8]
 810              	.LBB47:
 811              	.LBB44:
 812              		.loc 1 1890 0
 813 00cc 93ED027A 		flds	s14, [r3, #8]
 814              	.LBE44:
 815              	.LBE47:
 816              		.loc 1 1202 0
 817 00d0 F0EEE77A 		fabss	s15, s15
 818              	.LVL32:
 819              	.LBB48:
 820              	.LBB45:
 821              		.loc 1 1890 0
 822 00d4 F4EEC77A 		fcmpes	s15, s14
 823 00d8 F1EE10FA 		fmstat
 824 00dc 4CD9     		bls	.L88
 825              		.loc 1 1901 0
 826 00de 77EEC77A 		fsubs	s15, s15, s14
 827              	.LVL33:
 828 00e2 5A68     		ldr	r2, [r3, #4]	@ float
 829 00e4 C3ED057A 		fsts	s15, [r3, #20]
 830              		.loc 1 1902 0
 831 00e8 FDEEE77A 		ftosizs	s15, s15
 832 00ec C3ED047A 		fsts	s15, [r3, #16]	@ int
 833              	.L70:
 834              	.LBE45:
 835              	.LBE48:
 836              		.loc 1 1205 0
 837 00f0 4B4F     		ldr	r7, .L92+24
 838 00f2 4C4D     		ldr	r5, .L92+28
 839              		.loc 1 1202 0
 840 00f4 6260     		str	r2, [r4, #4]	@ float
 841              		.loc 1 1206 0
 842 00f6 0023     		movs	r3, #0
 843              		.loc 1 1205 0
 844 00f8 E969     		ldr	r1, [r5, #28]	@ float
 845              		.loc 1 1206 0
 846 00fa BB61     		str	r3, [r7, #24]	@ float
 847              		.loc 1 1207 0
 848 00fc 3846     		mov	r0, r7
 849              		.loc 1 1205 0
 850 00fe F961     		str	r1, [r7, #28]	@ float
 851              		.loc 1 1207 0
 852 0100 FFF7FEFF 		bl	CalcPI
 853              	.LVL34:
 854              		.loc 1 1221 0
 855 0104 3378     		ldrb	r3, [r6]	@ zero_extendqisi2
ARM GAS  /var/folders/bz/nn5481rn5xq59rb0mbj7x0880000gn/T//ccKvLbC4.s 			page 16


 856              		.loc 1 1222 0
 857 0106 97ED080A 		flds	s0, [r7, #32]
 858              		.loc 1 1221 0
 859 010a 1A07     		lsls	r2, r3, #28
 860 010c 6CD4     		bmi	.L89
 861              		.loc 1 1224 0
 862 010e 85ED090A 		fsts	s0, [r5, #36]
 863              	.L72:
 864              		.loc 1 1231 0
 865 0112 20EE000A 		fmuls	s0, s0, s0
 866 0116 444B     		ldr	r3, .L92+32
 867              		.loc 1 1232 0
 868 0118 DFED447A 		flds	s15, .L92+36
 869              		.loc 1 1231 0
 870 011c 83ED000A 		fsts	s0, [r3]
 871              		.loc 1 1232 0
 872 0120 93ED000A 		flds	s0, [r3]
 873 0124 37EEC00A 		fsubs	s0, s15, s0
 874 0128 F1EEC07A 		fsqrts	s15, s0
 875 012c F4EE677A 		fcmps	s15, s15
 876 0130 F1EE10FA 		fmstat
 877 0134 62D1     		bne	.L90
 878              	.L73:
 879 0136 3E4F     		ldr	r7, .L92+40
 880              		.loc 1 1237 0
 881 0138 A368     		ldr	r3, [r4, #8]	@ float
 882              		.loc 1 1236 0
 883 013a 2A6A     		ldr	r2, [r5, #32]	@ float
 884              		.loc 1 1237 0
 885 013c BB61     		str	r3, [r7, #24]	@ float
 886              		.loc 1 1233 0
 887 013e B1EE677A 		fnegs	s14, s15
 888              		.loc 1 1238 0
 889 0142 3846     		mov	r0, r7
 890              		.loc 1 1236 0
 891 0144 FA61     		str	r2, [r7, #28]	@ float
 892              		.loc 1 1232 0
 893 0146 C7ED047A 		fsts	s15, [r7, #16]
 894              		.loc 1 1233 0
 895 014a 87ED057A 		fsts	s14, [r7, #20]
 896              		.loc 1 1238 0
 897 014e FFF7FEFF 		bl	CalcPI
 898              	.LVL35:
 899              		.loc 1 1242 0
 900 0152 3378     		ldrb	r3, [r6]	@ zero_extendqisi2
 901              		.loc 1 1236 0
 902 0154 334C     		ldr	r4, .L92+28
 903              		.loc 1 1242 0
 904 0156 1B07     		lsls	r3, r3, #28
 905 0158 3FD4     		bmi	.L91
 906              		.loc 1 1245 0
 907 015a 3B6A     		ldr	r3, [r7, #32]	@ float
 908 015c A362     		str	r3, [r4, #40]	@ float
 909              	.L75:
 910              		.loc 1 1248 0
 911 015e D8ED187A 		flds	s15, [r8, #96]
 912 0162 F5EEC07A 		fcmpezs	s15
ARM GAS  /var/folders/bz/nn5481rn5xq59rb0mbj7x0880000gn/T//ccKvLbC4.s 			page 17


 913 0166 F1EE10FA 		fmstat
 914 016a 03D5     		bpl	.L57
 915              		.loc 1 1250 0
 916 016c 3378     		ldrb	r3, [r6]	@ zero_extendqisi2
 917 016e 6FF34103 		bfc	r3, #1, #1
 918 0172 3370     		strb	r3, [r6]
 919              	.L57:
 920 0174 BDE8F081 		pop	{r4, r5, r6, r7, r8, pc}
 921              	.LVL36:
 922              	.L88:
 923              	.LBB49:
 924              	.LBB46:
 925              		.loc 1 1893 0
 926 0178 DA69     		ldr	r2, [r3, #28]	@ float
 927 017a 5A60     		str	r2, [r3, #4]	@ float
 928 017c B8E7     		b	.L70
 929              	.LVL37:
 930              	.L59:
 931              	.LBE46:
 932              	.LBE49:
 933              		.loc 1 1053 0
 934 017e 2649     		ldr	r1, .L92+16
 935              		.loc 1 1048 0
 936 0180 224C     		ldr	r4, .L92+4
 937              		.loc 1 1050 0
 938 0182 DFF8B0E0 		ldr	lr, .L92+44
 939              		.loc 1 1051 0
 940 0186 2C4F     		ldr	r7, .L92+48
 941              		.loc 1 1048 0
 942 0188 0022     		movs	r2, #0
 943              		.loc 1 1050 0
 944 018a 0025     		movs	r5, #0
 945              		.loc 1 1043 0
 946 018c 6FF34513 		bfc	r3, #5, #1
 947              		.loc 1 1048 0
 948 0190 6260     		str	r2, [r4, #4]	@ float
 949              		.loc 1 1068 0
 950 0192 1046     		mov	r0, r2	@ float
 951              		.loc 1 1043 0
 952 0194 3370     		strb	r3, [r6]
 953              		.loc 1 1049 0
 954 0196 2260     		str	r2, [r4]	@ float
 955              		.loc 1 1053 0
 956 0198 0A60     		str	r2, [r1]	@ float
 957              		.loc 1 1054 0
 958 019a 4A60     		str	r2, [r1, #4]	@ float
 959              		.loc 1 1055 0
 960 019c 8A60     		str	r2, [r1, #8]	@ float
 961              		.loc 1 1056 0
 962 019e CA60     		str	r2, [r1, #12]	@ float
 963              		.loc 1 1057 0
 964 01a0 4A61     		str	r2, [r1, #20]	@ float
 965              		.loc 1 1058 0
 966 01a2 CA61     		str	r2, [r1, #28]	@ float
 967              		.loc 1 1059 0
 968 01a4 0A62     		str	r2, [r1, #32]	@ float
 969              		.loc 1 1060 0
ARM GAS  /var/folders/bz/nn5481rn5xq59rb0mbj7x0880000gn/T//ccKvLbC4.s 			page 18


 970 01a6 4A62     		str	r2, [r1, #36]	@ float
 971              		.loc 1 1061 0
 972 01a8 8A62     		str	r2, [r1, #40]	@ float
 973              		.loc 1 1062 0
 974 01aa CA62     		str	r2, [r1, #44]	@ float
 975              		.loc 1 1063 0
 976 01ac 0A63     		str	r2, [r1, #48]	@ float
 977              		.loc 1 1064 0
 978 01ae 4A63     		str	r2, [r1, #52]	@ float
 979              		.loc 1 1065 0
 980 01b0 0A64     		str	r2, [r1, #64]	@ float
 981              		.loc 1 1066 0
 982 01b2 4A64     		str	r2, [r1, #68]	@ float
 983              		.loc 1 1067 0
 984 01b4 8A65     		str	r2, [r1, #88]	@ float
 985              		.loc 1 1068 0
 986 01b6 CA65     		str	r2, [r1, #92]	@ float
 987              		.loc 1 1050 0
 988 01b8 CEF80050 		str	r5, [lr]
 989              		.loc 1 1051 0
 990 01bc 3D60     		str	r5, [r7]
 991 01be 2BE7     		b	.L60
 992              	.L87:
 993              		.loc 1 1180 0
 994 01c0 164D     		ldr	r5, .L92+20
 995              		.loc 1 1182 0
 996 01c2 1F4B     		ldr	r3, .L92+56
 997              		.loc 1 1180 0
 998 01c4 D8F85C20 		ldr	r2, [r8, #92]	@ float
 999              		.loc 1 1182 0
 1000 01c8 1B68     		ldr	r3, [r3]	@ float
 1001 01ca AB61     		str	r3, [r5, #24]	@ float
 1002              		.loc 1 1183 0
 1003 01cc 2846     		mov	r0, r5
 1004              		.loc 1 1180 0
 1005 01ce EA61     		str	r2, [r5, #28]	@ float
 1006              		.loc 1 1183 0
 1007 01d0 FFF7FEFF 		bl	CalcPI
 1008              	.LVL38:
 1009              		.loc 1 1184 0
 1010 01d4 2B6A     		ldr	r3, [r5, #32]	@ float
 1011 01d6 A360     		str	r3, [r4, #8]	@ float
 1012 01d8 70E7     		b	.L65
 1013              	.L91:
 1014              		.loc 1 1243 0
 1015 01da 97ED080A 		flds	s0, [r7, #32]
 1016 01de FFF7FEFF 		bl	VoltRippleComp
 1017              	.LVL39:
 1018 01e2 84ED0A0A 		fsts	s0, [r4, #40]
 1019 01e6 BAE7     		b	.L75
 1020              	.L89:
 1021              		.loc 1 1222 0
 1022 01e8 FFF7FEFF 		bl	VoltRippleComp
 1023              	.LVL40:
 1024 01ec 85ED090A 		fsts	s0, [r5, #36]
 1025 01f0 8FE7     		b	.L72
 1026              	.L86:
ARM GAS  /var/folders/bz/nn5481rn5xq59rb0mbj7x0880000gn/T//ccKvLbC4.s 			page 19


 1027              		.loc 1 1113 0
 1028 01f2 FFF7FEFF 		bl	sqrtf
 1029              	.LVL41:
 1030 01f6 F0EE407A 		fcpys	s15, s0
 1031 01fa 35E7     		b	.L62
 1032              	.L90:
 1033              		.loc 1 1232 0
 1034 01fc FFF7FEFF 		bl	sqrtf
 1035              	.LVL42:
 1036 0200 F0EE407A 		fcpys	s15, s0
 1037 0204 97E7     		b	.L73
 1038              	.L93:
 1039 0206 00BF     		.align	2
 1040              	.L92:
 1041 0208 00000000 		.word	.LANCHOR13
 1042 020c 00000000 		.word	.LANCHOR14
 1043 0210 00000000 		.word	.LANCHOR18
 1044 0214 49E1A336 		.word	916709705
 1045 0218 00000000 		.word	.LANCHOR17
 1046 021c 00000000 		.word	.LANCHOR10
 1047 0220 00000000 		.word	.LANCHOR8
 1048 0224 00000000 		.word	.LANCHOR7
 1049 0228 00000000 		.word	.LANCHOR19
 1050 022c 3D0A673F 		.word	1063717437
 1051 0230 00000000 		.word	.LANCHOR9
 1052 0234 00000000 		.word	.LANCHOR15
 1053 0238 00000000 		.word	.LANCHOR16
 1054 023c 00000000 		.word	.LANCHOR20
 1055 0240 00000000 		.word	qVelRef
 1056 0244 6F12833B 		.word	998445679
 1057              		.cfi_endproc
 1058              	.LFE128:
 1059              		.size	DoControl, .-DoControl
 1060              		.section	.text.MeasCompCurr,"ax",%progbits
 1061              		.align	2
 1062              		.p2align 4,,15
 1063              		.global	MeasCompCurr
 1064              		.thumb
 1065              		.thumb_func
 1066              		.type	MeasCompCurr, %function
 1067              	MeasCompCurr:
 1068              	.LFB134:
 1069              		.loc 1 1366 0
 1070              		.cfi_startproc
 1071              		@ args = 0, pretend = 0, frame = 0
 1072              		@ frame_needed = 0, uses_anonymous_args = 0
 1073              		@ link register save eliminated.
 1074              	.LVL43:
 1075 0000 30B4     		push	{r4, r5}
 1076              		.cfi_def_cfa_offset 8
 1077              		.cfi_offset 4, -8
 1078              		.cfi_offset 5, -4
 1079              		.loc 1 1369 0
 1080 0002 0F4C     		ldr	r4, .L96
 1081              		.loc 1 1373 0
 1082 0004 0F4D     		ldr	r5, .L96+4
 1083              		.loc 1 1369 0
ARM GAS  /var/folders/bz/nn5481rn5xq59rb0mbj7x0880000gn/T//ccKvLbC4.s 			page 20


 1084 0006 A288     		ldrh	r2, [r4, #4]
 1085              	.LVL44:
 1086              		.loc 1 1370 0
 1087 0008 A389     		ldrh	r3, [r4, #12]
 1088              	.LVL45:
 1089              		.loc 1 1373 0
 1090 000a 94ED006A 		flds	s12, [r4]
 1091              		.loc 1 1374 0
 1092 000e D4ED026A 		flds	s13, [r4, #8]
 1093              		.loc 1 1369 0
 1094 0012 12B2     		sxth	r2, r2
 1095 0014 801A     		subs	r0, r0, r2
 1096              	.LVL46:
 1097              		.loc 1 1373 0
 1098 0016 07EE900A 		fmsr	s15, r0	@ int
 1099              		.loc 1 1370 0
 1100 001a 1BB2     		sxth	r3, r3
 1101 001c C91A     		subs	r1, r1, r3
 1102              	.LVL47:
 1103              		.loc 1 1373 0
 1104 001e B8EEE77A 		fsitos	s14, s15
 1105              		.loc 1 1374 0
 1106 0022 07EE901A 		fmsr	s15, r1	@ int
 1107 0026 F8EEE77A 		fsitos	s15, s15
 1108              		.loc 1 1373 0
 1109 002a 26EE077A 		fmuls	s14, s12, s14
 1110              		.loc 1 1374 0
 1111 002e 66EEA77A 		fmuls	s15, s13, s15
 1112              		.loc 1 1373 0
 1113 0032 85ED037A 		fsts	s14, [r5, #12]
 1114              		.loc 1 1374 0
 1115 0036 C5ED047A 		fsts	s15, [r5, #16]
 1116              		.loc 1 1377 0
 1117 003a 30BC     		pop	{r4, r5}
 1118              		.cfi_restore 5
 1119              		.cfi_restore 4
 1120              		.cfi_def_cfa_offset 0
 1121 003c 7047     		bx	lr
 1122              	.L97:
 1123 003e 00BF     		.align	2
 1124              	.L96:
 1125 0040 00000000 		.word	.LANCHOR1
 1126 0044 00000000 		.word	.LANCHOR7
 1127              		.cfi_endproc
 1128              	.LFE134:
 1129              		.size	MeasCompCurr, .-MeasCompCurr
 1130              		.section	.text.InitMeasCompCurr,"ax",%progbits
 1131              		.align	2
 1132              		.p2align 4,,15
 1133              		.global	InitMeasCompCurr
 1134              		.thumb
 1135              		.thumb_func
 1136              		.type	InitMeasCompCurr, %function
 1137              	InitMeasCompCurr:
 1138              	.LFB135:
 1139              		.loc 1 1379 0
 1140              		.cfi_startproc
ARM GAS  /var/folders/bz/nn5481rn5xq59rb0mbj7x0880000gn/T//ccKvLbC4.s 			page 21


 1141              		@ args = 0, pretend = 0, frame = 0
 1142              		@ frame_needed = 0, uses_anonymous_args = 0
 1143              		@ link register save eliminated.
 1144              	.LVL48:
 1145              		.loc 1 1380 0
 1146 0000 014B     		ldr	r3, .L99
 1147 0002 9880     		strh	r0, [r3, #4]	@ movhi
 1148              		.loc 1 1381 0
 1149 0004 9981     		strh	r1, [r3, #12]	@ movhi
 1150 0006 7047     		bx	lr
 1151              	.L100:
 1152              		.align	2
 1153              	.L99:
 1154 0008 00000000 		.word	.LANCHOR1
 1155              		.cfi_endproc
 1156              	.LFE135:
 1157              		.size	InitMeasCompCurr, .-InitMeasCompCurr
 1158              		.section	.text.InvPark,"ax",%progbits
 1159              		.align	2
 1160              		.p2align 4,,15
 1161              		.global	InvPark
 1162              		.thumb
 1163              		.thumb_func
 1164              		.type	InvPark, %function
 1165              	InvPark:
 1166              	.LFB136:
 1167              		.loc 1 1385 0
 1168              		.cfi_startproc
 1169              		@ args = 0, pretend = 0, frame = 0
 1170              		@ frame_needed = 0, uses_anonymous_args = 0
 1171 0000 10B5     		push	{r4, lr}
 1172              		.cfi_def_cfa_offset 8
 1173              		.cfi_offset 4, -8
 1174              		.cfi_offset 14, -4
 1175              		.loc 1 1386 0
 1176 0002 114C     		ldr	r4, .L103
 1177              		.loc 1 1385 0
 1178 0004 2DED048B 		fstmfdd	sp!, {d8, d9}
 1179              		.cfi_def_cfa_offset 24
 1180              		.cfi_offset 80, -24
 1181              		.cfi_offset 81, -20
 1182              		.cfi_offset 82, -16
 1183              		.cfi_offset 83, -12
 1184              		.loc 1 1386 0
 1185 0008 94ED009A 		flds	s18, [r4]
 1186 000c 94ED098A 		flds	s16, [r4, #36]
 1187 0010 B0EE490A 		fcpys	s0, s18
 1188 0014 FFF7FEFF 		bl	cosf
 1189              	.LVL49:
 1190 0018 F0EE408A 		fcpys	s17, s0
 1191 001c B0EE490A 		fcpys	s0, s18
 1192 0020 FFF7FEFF 		bl	sinf
 1193              	.LVL50:
 1194 0024 D4ED0A7A 		flds	s15, [r4, #40]
 1195 0028 20EE677A 		fnmuls	s14, s0, s15
 1196              		.loc 1 1387 0
 1197 002c 68EEA77A 		fmuls	s15, s17, s15
ARM GAS  /var/folders/bz/nn5481rn5xq59rb0mbj7x0880000gn/T//ccKvLbC4.s 			page 22


 1198              		.loc 1 1386 0
 1199 0030 A8EE287A 		vfma.f32	s14, s16, s17
 1200              		.loc 1 1387 0
 1201 0034 E8EE007A 		vfma.f32	s15, s16, s0
 1202              		.loc 1 1389 0
 1203 0038 BDEC048B 		fldmfdd	sp!, {d8-d9}
 1204              		.cfi_restore 82
 1205              		.cfi_restore 83
 1206              		.cfi_restore 80
 1207              		.cfi_restore 81
 1208              		.cfi_def_cfa_offset 8
 1209              		.loc 1 1386 0
 1210 003c 84ED0B7A 		fsts	s14, [r4, #44]
 1211              		.loc 1 1387 0
 1212 0040 C4ED0C7A 		fsts	s15, [r4, #48]
 1213              		.loc 1 1389 0
 1214 0044 10BD     		pop	{r4, pc}
 1215              	.L104:
 1216 0046 00BF     		.align	2
 1217              	.L103:
 1218 0048 00000000 		.word	.LANCHOR7
 1219              		.cfi_endproc
 1220              	.LFE136:
 1221              		.size	InvPark, .-InvPark
 1222              		.section	.text.CalcRefVec,"ax",%progbits
 1223              		.align	2
 1224              		.p2align 4,,15
 1225              		.global	CalcRefVec
 1226              		.thumb
 1227              		.thumb_func
 1228              		.type	CalcRefVec, %function
 1229              	CalcRefVec:
 1230              	.LFB137:
 1231              		.loc 1 1391 0
 1232              		.cfi_startproc
 1233              		@ args = 0, pretend = 0, frame = 0
 1234              		@ frame_needed = 0, uses_anonymous_args = 0
 1235              		@ link register save eliminated.
 1236              		.loc 1 1396 0
 1237 0000 0E4B     		ldr	r3, .L106
 1238              		.loc 1 1397 0
 1239 0002 9FED0F6A 		flds	s12, .L106+4
 1240              		.loc 1 1396 0
 1241 0006 D3ED0C6A 		flds	s13, [r3, #48]
 1242              		.loc 1 1397 0
 1243 000a D3ED0B5A 		flds	s11, [r3, #44]
 1244              		.loc 1 1396 0
 1245 000e 0D4B     		ldr	r3, .L106+8
 1246 0010 F1EE667A 		fnegs	s15, s13
 1247              		.loc 1 1397 0
 1248 0014 B0EE677A 		fcpys	s14, s15
 1249 0018 A5EE867A 		vfma.f32	s14, s11, s12
 1250              		.loc 1 1398 0
 1251 001c E5EEC67A 		vfms.f32	s15, s11, s12
 1252              		.loc 1 1397 0
 1253 0020 B6EE006A 		fconsts	s12, #96
 1254 0024 27EE067A 		fmuls	s14, s14, s12
ARM GAS  /var/folders/bz/nn5481rn5xq59rb0mbj7x0880000gn/T//ccKvLbC4.s 			page 23


 1255              		.loc 1 1398 0
 1256 0028 67EE867A 		fmuls	s15, s15, s12
 1257              		.loc 1 1396 0
 1258 002c C3ED016A 		fsts	s13, [r3, #4]
 1259              		.loc 1 1397 0
 1260 0030 83ED027A 		fsts	s14, [r3, #8]
 1261              		.loc 1 1398 0
 1262 0034 C3ED037A 		fsts	s15, [r3, #12]
 1263 0038 7047     		bx	lr
 1264              	.L107:
 1265 003a 00BF     		.align	2
 1266              	.L106:
 1267 003c 00000000 		.word	.LANCHOR7
 1268 0040 D7B3DD3F 		.word	1071494103
 1269 0044 00000000 		.word	.LANCHOR6
 1270              		.cfi_endproc
 1271              	.LFE137:
 1272              		.size	CalcRefVec, .-CalcRefVec
 1273              		.section	.text.CalcTimes,"ax",%progbits
 1274              		.align	2
 1275              		.p2align 4,,15
 1276              		.global	CalcTimes
 1277              		.thumb
 1278              		.thumb_func
 1279              		.type	CalcTimes, %function
 1280              	CalcTimes:
 1281              	.LFB138:
 1282              		.loc 1 1403 0
 1283              		.cfi_startproc
 1284              		@ args = 0, pretend = 0, frame = 0
 1285              		@ frame_needed = 0, uses_anonymous_args = 0
 1286              		@ link register save eliminated.
 1287              		.loc 1 1404 0
 1288 0000 184B     		ldr	r3, .L109
 1289 0002 194A     		ldr	r2, .L109+4
 1290 0004 DB6A     		ldr	r3, [r3, #44]
 1291              		.loc 1 1406 0
 1292 0006 92ED047A 		flds	s14, [r2, #16]
 1293              		.loc 1 1407 0
 1294 000a D2ED056A 		flds	s13, [r2, #20]
 1295              		.loc 1 1404 0
 1296 000e 1360     		str	r3, [r2]
 1297              		.loc 1 1406 0
 1298 0010 07EE903A 		fmsr	s15, r3	@ int
 1299 0014 F8EE677A 		fuitos	s15, s15
 1300              		.loc 1 1408 0
 1301 0018 B6EE006A 		fconsts	s12, #96
 1302              		.loc 1 1406 0
 1303 001c 27EE877A 		fmuls	s14, s15, s14
 1304              		.loc 1 1407 0
 1305 0020 67EEA66A 		fmuls	s13, s15, s13
 1306              		.loc 1 1408 0
 1307 0024 77EEC77A 		fsubs	s15, s15, s14
 1308              		.loc 1 1406 0
 1309 0028 82ED047A 		fsts	s14, [r2, #16]
 1310              		.loc 1 1408 0
 1311 002c 77EEE67A 		fsubs	s15, s15, s13
ARM GAS  /var/folders/bz/nn5481rn5xq59rb0mbj7x0880000gn/T//ccKvLbC4.s 			page 24


 1312              		.loc 1 1407 0
 1313 0030 C2ED056A 		fsts	s13, [r2, #20]
 1314              		.loc 1 1408 0
 1315 0034 67EE867A 		fmuls	s15, s15, s12
 1316 0038 FCEEE77A 		ftouizs	s15, s15
 1317              		.loc 1 1409 0
 1318 003c B8EE676A 		fuitos	s12, s15
 1319              		.loc 1 1408 0
 1320 0040 C2ED087A 		fsts	s15, [r2, #32]	@ int
 1321              		.loc 1 1409 0
 1322 0044 37EE067A 		fadds	s14, s14, s12
 1323 0048 BCEEC77A 		ftouizs	s14, s14
 1324              		.loc 1 1410 0
 1325 004c F8EE477A 		fuitos	s15, s14
 1326              		.loc 1 1409 0
 1327 0050 82ED077A 		fsts	s14, [r2, #28]	@ int
 1328              		.loc 1 1410 0
 1329 0054 76EEA76A 		fadds	s13, s13, s15
 1330 0058 FCEEE66A 		ftouizs	s13, s13
 1331 005c C2ED066A 		fsts	s13, [r2, #24]	@ int
 1332 0060 7047     		bx	lr
 1333              	.L110:
 1334 0062 00BF     		.align	2
 1335              	.L109:
 1336 0064 00000140 		.word	1073807360
 1337 0068 00000000 		.word	.LANCHOR6
 1338              		.cfi_endproc
 1339              	.LFE138:
 1340              		.size	CalcTimes, .-CalcTimes
 1341              		.section	.text.update_timer_Duty,"ax",%progbits
 1342              		.align	2
 1343              		.p2align 4,,15
 1344              		.global	update_timer_Duty
 1345              		.thumb
 1346              		.thumb_func
 1347              		.type	update_timer_Duty, %function
 1348              	update_timer_Duty:
 1349              	.LFB139:
 1350              		.loc 1 1415 0
 1351              		.cfi_startproc
 1352              		@ args = 0, pretend = 0, frame = 0
 1353              		@ frame_needed = 0, uses_anonymous_args = 0
 1354              	.LVL51:
 1355 0000 2DE9F041 		push	{r4, r5, r6, r7, r8, lr}
 1356              		.cfi_def_cfa_offset 24
 1357              		.cfi_offset 4, -24
 1358              		.cfi_offset 5, -20
 1359              		.cfi_offset 6, -16
 1360              		.cfi_offset 7, -12
 1361              		.cfi_offset 8, -8
 1362              		.cfi_offset 14, -4
 1363              		.loc 1 1415 0
 1364 0004 1646     		mov	r6, r2
 1365 0006 0746     		mov	r7, r0
 1366 0008 8846     		mov	r8, r1
 1367              		.loc 1 1416 0
 1368 000a FFF7FEFF 		bl	utils_sys_lock_cnt
ARM GAS  /var/folders/bz/nn5481rn5xq59rb0mbj7x0880000gn/T//ccKvLbC4.s 			page 25


 1369              	.LVL52:
 1370              		.loc 1 1419 0
 1371 000e 104B     		ldr	r3, .L113
 1372              		.loc 1 1420 0
 1373 0010 104D     		ldr	r5, .L113+4
 1374              		.loc 1 1419 0
 1375 0012 1C88     		ldrh	r4, [r3]
 1376 0014 A4B2     		uxth	r4, r4
 1377 0016 44F00204 		orr	r4, r4, #2
 1378 001a 1C80     		strh	r4, [r3]	@ movhi
 1379              		.loc 1 1420 0
 1380 001c 2C88     		ldrh	r4, [r5]
 1381 001e A4B2     		uxth	r4, r4
 1382 0020 44F00204 		orr	r4, r4, #2
 1383 0024 2C80     		strh	r4, [r5]	@ movhi
 1384              		.loc 1 1422 0
 1385 0026 5F63     		str	r7, [r3, #52]
 1386              		.loc 1 1423 0
 1387 0028 C3F83880 		str	r8, [r3, #56]
 1388              		.loc 1 1424 0
 1389 002c DE63     		str	r6, [r3, #60]
 1390              		.loc 1 1434 0
 1391 002e 1A88     		ldrh	r2, [r3]
 1392 0030 22F00202 		bic	r2, r2, #2
 1393 0034 1204     		lsls	r2, r2, #16
 1394 0036 120C     		lsrs	r2, r2, #16
 1395 0038 1A80     		strh	r2, [r3]	@ movhi
 1396              		.loc 1 1435 0
 1397 003a 2B88     		ldrh	r3, [r5]
 1398 003c 23F00203 		bic	r3, r3, #2
 1399 0040 1B04     		lsls	r3, r3, #16
 1400 0042 1B0C     		lsrs	r3, r3, #16
 1401 0044 2B80     		strh	r3, [r5]	@ movhi
 1402              		.loc 1 1438 0
 1403 0046 BDE8F041 		pop	{r4, r5, r6, r7, r8, lr}
 1404              		.cfi_restore 14
 1405              		.cfi_restore 8
 1406              		.cfi_restore 7
 1407              		.cfi_restore 6
 1408              		.cfi_restore 5
 1409              		.cfi_restore 4
 1410              		.cfi_def_cfa_offset 0
 1411              	.LVL53:
 1412              		.loc 1 1437 0
 1413 004a FFF7FEBF 		b	utils_sys_unlock_cnt
 1414              	.LVL54:
 1415              	.L114:
 1416 004e 00BF     		.align	2
 1417              	.L113:
 1418 0050 00000140 		.word	1073807360
 1419 0054 00040140 		.word	1073808384
 1420              		.cfi_endproc
 1421              	.LFE139:
 1422              		.size	update_timer_Duty, .-update_timer_Duty
 1423              		.section	.text.CalcSVGen,"ax",%progbits
 1424              		.align	2
 1425              		.p2align 4,,15
ARM GAS  /var/folders/bz/nn5481rn5xq59rb0mbj7x0880000gn/T//ccKvLbC4.s 			page 26


 1426              		.global	CalcSVGen
 1427              		.thumb
 1428              		.thumb_func
 1429              		.type	CalcSVGen, %function
 1430              	CalcSVGen:
 1431              	.LFB140:
 1432              		.loc 1 1440 0
 1433              		.cfi_startproc
 1434              		@ args = 0, pretend = 0, frame = 0
 1435              		@ frame_needed = 0, uses_anonymous_args = 0
 1436 0000 10B5     		push	{r4, lr}
 1437              		.cfi_def_cfa_offset 8
 1438              		.cfi_offset 4, -8
 1439              		.cfi_offset 14, -4
 1440              		.loc 1 1441 0
 1441 0002 3F4C     		ldr	r4, .L138
 1442 0004 D4ED017A 		flds	s15, [r4, #4]
 1443 0008 F5EEC07A 		fcmpezs	s15
 1444 000c F1EE10FA 		fmstat
 1445 0010 27DB     		blt	.L131
 1446              		.loc 1 1444 0
 1447 0012 94ED027A 		flds	s14, [r4, #8]
 1448 0016 B5EEC07A 		fcmpezs	s14
 1449 001a F1EE10FA 		fmstat
 1450 001e 13DA     		bge	.L137
 1451              		.loc 1 1457 0
 1452 0020 D4ED036A 		flds	s13, [r4, #12]
 1453 0024 F5EEC06A 		fcmpezs	s13
 1454 0028 F1EE10FA 		fmstat
 1455 002c 45DB     		blt	.L133
 1456              		.loc 1 1460 0
 1457 002e C4ED057A 		fsts	s15, [r4, #20]
 1458              		.loc 1 1461 0
 1459 0032 C4ED046A 		fsts	s13, [r4, #16]
 1460              		.loc 1 1462 0
 1461 0036 FFF7FEFF 		bl	CalcTimes
 1462              	.LVL55:
 1463              		.loc 1 1463 0
 1464 003a 206A     		ldr	r0, [r4, #32]
 1465 003c A169     		ldr	r1, [r4, #24]
 1466 003e E269     		ldr	r2, [r4, #28]
 1467              		.loc 1 1511 0
 1468 0040 BDE81040 		pop	{r4, lr}
 1469              		.cfi_remember_state
 1470              		.cfi_restore 14
 1471              		.cfi_restore 4
 1472              		.cfi_def_cfa_offset 0
 1473              		.loc 1 1463 0
 1474 0044 FFF7FEBF 		b	update_timer_Duty
 1475              	.LVL56:
 1476              	.L137:
 1477              		.cfi_restore_state
 1478              		.loc 1 1449 0
 1479 0048 84ED057A 		fsts	s14, [r4, #20]
 1480              		.loc 1 1450 0
 1481 004c C4ED047A 		fsts	s15, [r4, #16]
 1482              		.loc 1 1451 0
ARM GAS  /var/folders/bz/nn5481rn5xq59rb0mbj7x0880000gn/T//ccKvLbC4.s 			page 27


 1483 0050 FFF7FEFF 		bl	CalcTimes
 1484              	.LVL57:
 1485              		.loc 1 1452 0
 1486 0054 04F11800 		add	r0, r4, #24
 1487 0058 07C8     		ldmia	r0, {r0, r1, r2}
 1488              		.loc 1 1511 0
 1489 005a BDE81040 		pop	{r4, lr}
 1490              		.cfi_remember_state
 1491              		.cfi_restore 14
 1492              		.cfi_restore 4
 1493              		.cfi_def_cfa_offset 0
 1494              		.loc 1 1452 0
 1495 005e FFF7FEBF 		b	update_timer_Duty
 1496              	.LVL58:
 1497              	.L131:
 1498              		.cfi_restore_state
 1499              		.loc 1 1479 0
 1500 0062 D4ED026A 		flds	s13, [r4, #8]
 1501 0066 F5EEC06A 		fcmpezs	s13
 1502 006a F1EE10FA 		fmstat
 1503 006e 35DB     		blt	.L134
 1504              		.loc 1 1482 0
 1505 0070 94ED037A 		flds	s14, [r4, #12]
 1506 0074 B5EEC07A 		fcmpezs	s14
 1507 0078 F1EE10FA 		fmstat
 1508 007c 0CDB     		blt	.L135
 1509              		.loc 1 1485 0
 1510 007e 84ED057A 		fsts	s14, [r4, #20]
 1511              		.loc 1 1486 0
 1512 0082 C4ED046A 		fsts	s13, [r4, #16]
 1513              		.loc 1 1487 0
 1514 0086 FFF7FEFF 		bl	CalcTimes
 1515              	.LVL59:
 1516              		.loc 1 1488 0
 1517 008a E069     		ldr	r0, [r4, #28]
 1518 008c 216A     		ldr	r1, [r4, #32]
 1519 008e A269     		ldr	r2, [r4, #24]
 1520              		.loc 1 1511 0
 1521 0090 BDE81040 		pop	{r4, lr}
 1522              		.cfi_remember_state
 1523              		.cfi_restore 14
 1524              		.cfi_restore 4
 1525              		.cfi_def_cfa_offset 0
 1526              		.loc 1 1488 0
 1527 0094 FFF7FEBF 		b	update_timer_Duty
 1528              	.LVL60:
 1529              	.L135:
 1530              		.cfi_restore_state
 1531              		.loc 1 1493 0
 1532 0098 B1EE477A 		fnegs	s14, s14
 1533              		.loc 1 1494 0
 1534 009c F1EE677A 		fnegs	s15, s15
 1535              		.loc 1 1493 0
 1536 00a0 84ED057A 		fsts	s14, [r4, #20]
 1537              		.loc 1 1494 0
 1538 00a4 C4ED047A 		fsts	s15, [r4, #16]
 1539              		.loc 1 1495 0
ARM GAS  /var/folders/bz/nn5481rn5xq59rb0mbj7x0880000gn/T//ccKvLbC4.s 			page 28


 1540 00a8 FFF7FEFF 		bl	CalcTimes
 1541              	.LVL61:
 1542              		.loc 1 1496 0
 1543 00ac A069     		ldr	r0, [r4, #24]
 1544 00ae 216A     		ldr	r1, [r4, #32]
 1545 00b0 E269     		ldr	r2, [r4, #28]
 1546              		.loc 1 1511 0
 1547 00b2 BDE81040 		pop	{r4, lr}
 1548              		.cfi_remember_state
 1549              		.cfi_restore 14
 1550              		.cfi_restore 4
 1551              		.cfi_def_cfa_offset 0
 1552              		.loc 1 1496 0
 1553 00b6 FFF7FEBF 		b	update_timer_Duty
 1554              	.LVL62:
 1555              	.L133:
 1556              		.cfi_restore_state
 1557              		.loc 1 1469 0
 1558 00ba B1EE477A 		fnegs	s14, s14
 1559              		.loc 1 1470 0
 1560 00be F1EE666A 		fnegs	s13, s13
 1561              		.loc 1 1469 0
 1562 00c2 84ED057A 		fsts	s14, [r4, #20]
 1563              		.loc 1 1470 0
 1564 00c6 C4ED046A 		fsts	s13, [r4, #16]
 1565              		.loc 1 1471 0
 1566 00ca FFF7FEFF 		bl	CalcTimes
 1567              	.LVL63:
 1568              		.loc 1 1472 0
 1569 00ce E069     		ldr	r0, [r4, #28]
 1570 00d0 A169     		ldr	r1, [r4, #24]
 1571 00d2 226A     		ldr	r2, [r4, #32]
 1572              		.loc 1 1511 0
 1573 00d4 BDE81040 		pop	{r4, lr}
 1574              		.cfi_remember_state
 1575              		.cfi_restore 14
 1576              		.cfi_restore 4
 1577              		.cfi_def_cfa_offset 0
 1578              		.loc 1 1472 0
 1579 00d8 FFF7FEBF 		b	update_timer_Duty
 1580              	.LVL64:
 1581              	.L134:
 1582              		.cfi_restore_state
 1583              		.loc 1 1504 0
 1584 00dc F1EE677A 		fnegs	s15, s15
 1585              		.loc 1 1505 0
 1586 00e0 F1EE666A 		fnegs	s13, s13
 1587              		.loc 1 1504 0
 1588 00e4 C4ED057A 		fsts	s15, [r4, #20]
 1589              		.loc 1 1505 0
 1590 00e8 C4ED046A 		fsts	s13, [r4, #16]
 1591              		.loc 1 1506 0
 1592 00ec FFF7FEFF 		bl	CalcTimes
 1593              	.LVL65:
 1594              		.loc 1 1507 0
 1595 00f0 206A     		ldr	r0, [r4, #32]
 1596 00f2 E169     		ldr	r1, [r4, #28]
ARM GAS  /var/folders/bz/nn5481rn5xq59rb0mbj7x0880000gn/T//ccKvLbC4.s 			page 29


 1597 00f4 A269     		ldr	r2, [r4, #24]
 1598              		.loc 1 1511 0
 1599 00f6 BDE81040 		pop	{r4, lr}
 1600              		.cfi_restore 14
 1601              		.cfi_restore 4
 1602              		.cfi_def_cfa_offset 0
 1603              		.loc 1 1507 0
 1604 00fa FFF7FEBF 		b	update_timer_Duty
 1605              	.LVL66:
 1606              	.L139:
 1607 00fe 00BF     		.align	2
 1608              	.L138:
 1609 0100 00000000 		.word	.LANCHOR6
 1610              		.cfi_endproc
 1611              	.LFE140:
 1612              		.size	CalcSVGen, .-CalcSVGen
 1613              		.section	.text.SMCInit,"ax",%progbits
 1614              		.align	2
 1615              		.p2align 4,,15
 1616              		.global	SMCInit
 1617              		.thumb
 1618              		.thumb_func
 1619              		.type	SMCInit, %function
 1620              	SMCInit:
 1621              	.LFB141:
 1622              		.loc 1 1514 0
 1623              		.cfi_startproc
 1624              		@ args = 0, pretend = 0, frame = 0
 1625              		@ frame_needed = 0, uses_anonymous_args = 0
 1626              		@ link register save eliminated.
 1627              	.LVL67:
 1628 0000 30B4     		push	{r4, r5}
 1629              		.cfi_def_cfa_offset 8
 1630              		.cfi_offset 4, -8
 1631              		.cfi_offset 5, -4
 1632              		.loc 1 1541 0
 1633 0002 0649     		ldr	r1, .L142
 1634              		.loc 1 1534 0
 1635 0004 064D     		ldr	r5, .L142+4
 1636              		.loc 1 1539 0
 1637 0006 074C     		ldr	r4, .L142+8
 1638              		.loc 1 1542 0
 1639 0008 074A     		ldr	r2, .L142+12
 1640              		.loc 1 1543 0
 1641 000a 084B     		ldr	r3, .L142+16
 1642              		.loc 1 1534 0
 1643 000c 8561     		str	r5, [r0, #24]	@ float
 1644              		.loc 1 1539 0
 1645 000e 0461     		str	r4, [r0, #16]	@ float
 1646              		.loc 1 1541 0
 1647 0010 8163     		str	r1, [r0, #56]	@ float
 1648              		.loc 1 1542 0
 1649 0012 C263     		str	r2, [r0, #60]	@ float
 1650              		.loc 1 1543 0
 1651 0014 0365     		str	r3, [r0, #80]	@ float
 1652              		.loc 1 1546 0
 1653 0016 30BC     		pop	{r4, r5}
ARM GAS  /var/folders/bz/nn5481rn5xq59rb0mbj7x0880000gn/T//ccKvLbC4.s 			page 30


 1654              		.cfi_restore 5
 1655              		.cfi_restore 4
 1656              		.cfi_def_cfa_offset 0
 1657 0018 7047     		bx	lr
 1658              	.L143:
 1659 001a 00BF     		.align	2
 1660              	.L142:
 1661 001c 9A99593F 		.word	1062836634
 1662 0020 00007C3F 		.word	1065091072
 1663 0024 5555D53D 		.word	1037391189
 1664 0028 0AD7A33B 		.word	1000593162
 1665 002c 2FE34D3A 		.word	978182959
 1666              		.cfi_endproc
 1667              	.LFE141:
 1668              		.size	SMCInit, .-SMCInit
 1669              		.section	.text.SMC_HallSensor_Estimation,"ax",%progbits
 1670              		.align	2
 1671              		.p2align 4,,15
 1672              		.global	SMC_HallSensor_Estimation
 1673              		.thumb
 1674              		.thumb_func
 1675              		.type	SMC_HallSensor_Estimation, %function
 1676              	SMC_HallSensor_Estimation:
 1677              	.LFB142:
 1678              		.loc 1 1625 0
 1679              		.cfi_startproc
 1680              		@ args = 0, pretend = 0, frame = 0
 1681              		@ frame_needed = 0, uses_anonymous_args = 0
 1682              	.LVL68:
 1683 0000 38B5     		push	{r3, r4, r5, lr}
 1684              		.cfi_def_cfa_offset 16
 1685              		.cfi_offset 3, -16
 1686              		.cfi_offset 4, -12
 1687              		.cfi_offset 5, -8
 1688              		.cfi_offset 14, -4
 1689              		.loc 1 1628 0
 1690 0002 564B     		ldr	r3, .L164
 1691 0004 9FED567A 		flds	s14, .L164+4
 1692 0008 9A88     		ldrh	r2, [r3, #4]
 1693              		.loc 1 1629 0
 1694 000a 5B88     		ldrh	r3, [r3, #2]
 1695              		.loc 1 1640 0
 1696 000c 554C     		ldr	r4, .L164+8
 1697              		.loc 1 1646 0
 1698 000e 564D     		ldr	r5, .L164+12
 1699              		.loc 1 1640 0
 1700 0010 94ED000A 		flds	s0, [r4]
 1701              		.loc 1 1625 0
 1702 0014 2DED048B 		fstmfdd	sp!, {d8, d9}
 1703              		.cfi_def_cfa_offset 32
 1704              		.cfi_offset 80, -32
 1705              		.cfi_offset 81, -28
 1706              		.cfi_offset 82, -24
 1707              		.cfi_offset 83, -20
 1708              		.loc 1 1629 0
 1709 0018 07EE903A 		fmsr	s15, r3	@ int
 1710              		.loc 1 1628 0
ARM GAS  /var/folders/bz/nn5481rn5xq59rb0mbj7x0880000gn/T//ccKvLbC4.s 			page 31


 1711 001c 08EE102A 		fmsr	s16, r2	@ int
 1712 0020 DFED528A 		flds	s17, .L164+16
 1713 0024 524A     		ldr	r2, .L164+20
 1714              		.loc 1 1629 0
 1715 0026 534B     		ldr	r3, .L164+24
 1716              		.loc 1 1628 0
 1717 0028 B8EE488A 		fuitos	s16, s16
 1718              		.loc 1 1629 0
 1719 002c F8EE677A 		fuitos	s15, s15
 1720              		.loc 1 1628 0
 1721 0030 38EE688A 		fsubs	s16, s16, s17
 1722              		.loc 1 1629 0
 1723 0034 77EEE87A 		fsubs	s15, s15, s17
 1724              		.loc 1 1628 0
 1725 0038 88EE078A 		fdivs	s16, s16, s14
 1726              		.loc 1 1629 0
 1727 003c C7EE878A 		fdivs	s17, s15, s14
 1728              		.loc 1 1628 0
 1729 0040 82ED008A 		fsts	s16, [r2]
 1730              		.loc 1 1629 0
 1731 0044 C3ED008A 		fsts	s17, [r3]
 1732              		.loc 1 1640 0
 1733 0048 FFF7FEFF 		bl	cosf
 1734              	.LVL69:
 1735 004c 4A4B     		ldr	r3, .L164+28
 1736 004e B0EE409A 		fcpys	s18, s0
 1737              		.loc 1 1641 0
 1738 0052 94ED000A 		flds	s0, [r4]
 1739              		.loc 1 1640 0
 1740 0056 83ED009A 		fsts	s18, [r3]
 1741              		.loc 1 1641 0
 1742 005a FFF7FEFF 		bl	sinf
 1743              	.LVL70:
 1744              		.loc 1 1646 0
 1745 005e 28EE098A 		fmuls	s16, s16, s18
 1746              		.loc 1 1647 0
 1747 0062 68EE808A 		fmuls	s17, s17, s0
 1748              		.loc 1 1655 0
 1749 0066 454A     		ldr	r2, .L164+32
 1750 0068 9FED456A 		flds	s12, .L164+36
 1751 006c D2ED007A 		flds	s15, [r2]
 1752              		.loc 1 1646 0
 1753 0070 85ED008A 		fsts	s16, [r5]
 1754              		.loc 1 1654 0
 1755 0074 38EE688A 		fsubs	s16, s16, s17
 1756              		.loc 1 1655 0
 1757 0078 424B     		ldr	r3, .L164+40
 1758              		.loc 1 1647 0
 1759 007a 4348     		ldr	r0, .L164+44
 1760              		.loc 1 1655 0
 1761 007c D3ED006A 		flds	s13, [r3]
 1762              		.loc 1 1641 0
 1763 0080 4249     		ldr	r1, .L164+48
 1764              		.loc 1 1647 0
 1765 0082 C0ED008A 		fsts	s17, [r0]
 1766              	.LVL71:
 1767              		.loc 1 1655 0
ARM GAS  /var/folders/bz/nn5481rn5xq59rb0mbj7x0880000gn/T//ccKvLbC4.s 			page 32


 1768 0086 D8EE067A 		vfnms.f32	s15, s16, s12
 1769              		.loc 1 1656 0
 1770 008a B2EE047A 		fconsts	s14, #36
 1771              		.loc 1 1655 0
 1772 008e 77EEA67A 		fadds	s15, s15, s13
 1773              		.loc 1 1641 0
 1774 0092 81ED000A 		fsts	s0, [r1]
 1775              		.loc 1 1655 0
 1776 0096 C3ED007A 		fsts	s15, [r3]
 1777              		.loc 1 1656 0
 1778 009a D3ED007A 		flds	s15, [r3]
 1779 009e F4EEC77A 		fcmpes	s15, s14
 1780 00a2 F1EE10FA 		fmstat
 1781 00a6 0ADC     		bgt	.L145
 1782              		.loc 1 1656 0 is_stmt 0 discriminator 2
 1783 00a8 D3ED007A 		flds	s15, [r3]
 1784 00ac BAEE047A 		fconsts	s14, #164
 1785 00b0 F4EEC77A 		fcmpes	s15, s14
 1786 00b4 F1EE10FA 		fmstat
 1787 00b8 58BF     		it	pl
 1788 00ba 93ED007A 		fldspl	s14, [r3]
 1789              	.L145:
 1790              		.loc 1 1656 0 discriminator 8
 1791 00be 83ED007A 		fsts	s14, [r3]
 1792              		.loc 1 1657 0 is_stmt 1 discriminator 8
 1793 00c2 82ED008A 		fsts	s16, [r2]
 1794              		.loc 1 1659 0 discriminator 8
 1795 00c6 D3ED007A 		flds	s15, [r3]
 1796 00ca D4ED006A 		flds	s13, [r4]
 1797              		.loc 1 1661 0 discriminator 8
 1798 00ce 9FED307A 		flds	s14, .L164+52
 1799              		.loc 1 1659 0 discriminator 8
 1800 00d2 244A     		ldr	r2, .L164+8
 1801 00d4 77EEA67A 		fadds	s15, s15, s13
 1802 00d8 C4ED007A 		fsts	s15, [r4]
 1803              		.loc 1 1660 0 discriminator 8
 1804 00dc 2168     		ldr	r1, [r4]	@ float
 1805              		.loc 1 1661 0 discriminator 8
 1806 00de D4ED007A 		flds	s15, [r4]
 1807 00e2 F4EEC77A 		fcmpes	s15, s14
 1808 00e6 F1EE10FA 		fmstat
 1809 00ea D2ED007A 		flds	s15, [r2]
 1810 00ee 1FDD     		ble	.L159
 1811              		.loc 1 1661 0 is_stmt 0 discriminator 1
 1812 00f0 37EEC77A 		fsubs	s14, s15, s14
 1813 00f4 82ED007A 		fsts	s14, [r2]
 1814              	.L148:
 1815              		.loc 1 1664 0 is_stmt 1
 1816 00f8 94ED007A 		flds	s14, [r4]
 1817 00fc DFED257A 		flds	s15, .L164+56
 1818              		.loc 1 1666 0
 1819 0100 DFED236A 		flds	s13, .L164+52
 1820              		.loc 1 1664 0
 1821 0104 77EE277A 		fadds	s15, s14, s15
 1822              		.loc 1 1666 0
 1823 0108 F4EEE67A 		fcmpes	s15, s13
 1824 010c F1EE10FA 		fmstat
ARM GAS  /var/folders/bz/nn5481rn5xq59rb0mbj7x0880000gn/T//ccKvLbC4.s 			page 33


 1825 0110 1ADC     		bgt	.L163
 1826              		.loc 1 1731 0
 1827 0112 BDEC048B 		fldmfdd	sp!, {d8-d9}
 1828              		.cfi_remember_state
 1829              		.cfi_restore 82
 1830              		.cfi_restore 83
 1831              		.cfi_restore 80
 1832              		.cfi_restore 81
 1833              		.cfi_def_cfa_offset 16
 1834              	.LVL72:
 1835              		.loc 1 1667 0
 1836 0116 F5EEC07A 		fcmpezs	s15
 1837 011a F1EE10FA 		fmstat
 1838 011e 1E4A     		ldr	r2, .L164+60
 1839              		.loc 1 1669 0
 1840 0120 1B68     		ldr	r3, [r3]	@ float
 1841 0122 D365     		str	r3, [r2, #92]	@ float
 1842              		.loc 1 1667 0
 1843 0124 48BF     		it	mi
 1844 0126 77EEA67A 		faddsmi	s15, s15, s13
 1845 012a C2ED167A 		fsts	s15, [r2, #88]
 1846              		.loc 1 1731 0
 1847 012e 38BD     		pop	{r3, r4, r5, pc}
 1848              	.LVL73:
 1849              	.L159:
 1850              		.cfi_restore_state
 1851              		.loc 1 1662 0
 1852 0130 F5EEC07A 		fcmpezs	s15
 1853 0134 F1EE10FA 		fmstat
 1854 0138 DED5     		bpl	.L148
 1855              		.loc 1 1662 0 is_stmt 0 discriminator 1
 1856 013a D2ED007A 		flds	s15, [r2]
 1857 013e 37EE877A 		fadds	s14, s15, s14
 1858 0142 82ED007A 		fsts	s14, [r2]
 1859 0146 D7E7     		b	.L148
 1860              	.L163:
 1861              		.loc 1 1731 0 is_stmt 1 discriminator 1
 1862 0148 BDEC048B 		fldmfdd	sp!, {d8-d9}
 1863              		.cfi_restore 80
 1864              		.cfi_restore 81
 1865              		.cfi_restore 82
 1866              		.cfi_restore 83
 1867              		.cfi_def_cfa_offset 16
 1868              	.LVL74:
 1869              		.loc 1 1666 0 discriminator 1
 1870 014c 124A     		ldr	r2, .L164+60
 1871              		.loc 1 1669 0 discriminator 1
 1872 014e 1B68     		ldr	r3, [r3]	@ float
 1873 0150 D365     		str	r3, [r2, #92]	@ float
 1874              		.loc 1 1666 0 discriminator 1
 1875 0152 77EEE67A 		fsubs	s15, s15, s13
 1876 0156 C2ED167A 		fsts	s15, [r2, #88]
 1877              		.loc 1 1731 0 discriminator 1
 1878 015a 38BD     		pop	{r3, r4, r5, pc}
 1879              	.LVL75:
 1880              	.L165:
 1881              		.align	2
ARM GAS  /var/folders/bz/nn5481rn5xq59rb0mbj7x0880000gn/T//ccKvLbC4.s 			page 34


 1882              	.L164:
 1883 015c 00000000 		.word	.LANCHOR4
 1884 0160 00F07F45 		.word	1166012416
 1885 0164 00000000 		.word	.LANCHOR23
 1886 0168 00000000 		.word	.LANCHOR26
 1887 016c 00209B44 		.word	1151016960
 1888 0170 00000000 		.word	.LANCHOR21
 1889 0174 00000000 		.word	.LANCHOR22
 1890 0178 00000000 		.word	.LANCHOR24
 1891 017c 00000000 		.word	.LANCHOR28
 1892 0180 0C02803F 		.word	1065353740
 1893 0184 00000000 		.word	.LANCHOR29
 1894 0188 00000000 		.word	.LANCHOR27
 1895 018c 00000000 		.word	.LANCHOR25
 1896 0190 DB0FC940 		.word	1086918619
 1897 0194 6666A63F 		.word	1067869798
 1898 0198 00000000 		.word	.LANCHOR17
 1899              		.cfi_endproc
 1900              	.LFE142:
 1901              		.size	SMC_HallSensor_Estimation, .-SMC_HallSensor_Estimation
 1902              		.section	.text.mcpwm_adc_inj_int_handler,"ax",%progbits
 1903              		.align	2
 1904              		.p2align 4,,15
 1905              		.global	mcpwm_adc_inj_int_handler
 1906              		.thumb
 1907              		.thumb_func
 1908              		.type	mcpwm_adc_inj_int_handler, %function
 1909              	mcpwm_adc_inj_int_handler:
 1910              	.LFB122:
 1911              		.loc 1 603 0
 1912              		.cfi_startproc
 1913              		@ args = 0, pretend = 0, frame = 0
 1914              		@ frame_needed = 0, uses_anonymous_args = 0
 1915              		.loc 1 604 0
 1916 0000 3F4B     		ldr	r3, .L174
 1917              		.loc 1 606 0
 1918 0002 4048     		ldr	r0, .L174+4
 1919              		.loc 1 603 0
 1920 0004 2DE9F041 		push	{r4, r5, r6, r7, r8, lr}
 1921              		.cfi_def_cfa_offset 24
 1922              		.cfi_offset 4, -24
 1923              		.cfi_offset 5, -20
 1924              		.cfi_offset 6, -16
 1925              		.cfi_offset 7, -12
 1926              		.cfi_offset 8, -8
 1927              		.cfi_offset 14, -4
 1928              		.loc 1 604 0
 1929 0008 0026     		movs	r6, #0
 1930 000a 5E62     		str	r6, [r3, #36]
 1931              		.loc 1 606 0
 1932 000c 1421     		movs	r1, #20
 1933 000e FFF7FEFF 		bl	ADC_GetInjectedConversionValue
 1934              	.LVL76:
 1935              		.loc 1 607 0
 1936 0012 1421     		movs	r1, #20
 1937              		.loc 1 606 0
 1938 0014 0546     		mov	r5, r0
ARM GAS  /var/folders/bz/nn5481rn5xq59rb0mbj7x0880000gn/T//ccKvLbC4.s 			page 35


 1939              	.LVL77:
 1940              		.loc 1 607 0
 1941 0016 3C48     		ldr	r0, .L174+8
 1942              	.LVL78:
 1943              		.loc 1 640 0
 1944 0018 3C4F     		ldr	r7, .L174+12
 1945              		.loc 1 607 0
 1946 001a FFF7FEFF 		bl	ADC_GetInjectedConversionValue
 1947              	.LVL79:
 1948 001e 0446     		mov	r4, r0
 1949              	.LVL80:
 1950              		.loc 1 609 0
 1951 0020 3B48     		ldr	r0, .L174+16
 1952              	.LVL81:
 1953              		.loc 1 610 0
 1954 0022 3C49     		ldr	r1, .L174+20
 1955              		.loc 1 609 0
 1956 0024 0368     		ldr	r3, [r0]
 1957              		.loc 1 611 0
 1958 0026 3C4A     		ldr	r2, .L174+24
 1959              		.loc 1 609 0
 1960 0028 2B44     		add	r3, r3, r5
 1961 002a 0360     		str	r3, [r0]
 1962              		.loc 1 610 0
 1963 002c 0B68     		ldr	r3, [r1]
 1964 002e 2344     		add	r3, r3, r4
 1965 0030 0B60     		str	r3, [r1]
 1966              		.loc 1 611 0
 1967 0032 1368     		ldr	r3, [r2]
 1968              		.loc 1 640 0
 1969 0034 3846     		mov	r0, r7
 1970              		.loc 1 611 0
 1971 0036 0133     		adds	r3, r3, #1
 1972 0038 1360     		str	r3, [r2]
 1973              		.loc 1 640 0
 1974 003a FFF7FEFF 		bl	SMC_HallSensor_Estimation
 1975              	.LVL82:
 1976              		.loc 1 646 0
 1977 003e 374B     		ldr	r3, .L174+28
 1978 0040 1B78     		ldrb	r3, [r3]	@ zero_extendqisi2
 1979 0042 9B07     		lsls	r3, r3, #30
 1980 0044 5AD5     		bpl	.L166
 1981              		.loc 1 648 0
 1982 0046 DFF8F0E0 		ldr	lr, .L174+56
 1983              		.loc 1 649 0
 1984 004a 354B     		ldr	r3, .L174+32
 1985              	.LBB50:
 1986              	.LBB51:
 1987              		.loc 1 1369 0
 1988 004c 354A     		ldr	r2, .L174+36
 1989              	.LBE51:
 1990              	.LBE50:
 1991              		.loc 1 660 0
 1992 004e D7F858C0 		ldr	ip, [r7, #88]	@ float
 1993              		.loc 1 665 0
 1994 0052 3548     		ldr	r0, .L174+40
 1995              	.LBB57:
ARM GAS  /var/folders/bz/nn5481rn5xq59rb0mbj7x0880000gn/T//ccKvLbC4.s 			page 36


 1996              	.LBB52:
 1997              		.loc 1 1373 0
 1998 0054 354F     		ldr	r7, .L174+44
 1999              	.LBE52:
 2000              	.LBE57:
 2001              		.loc 1 649 0
 2002 0056 8021     		movs	r1, #128
 2003              		.loc 1 648 0
 2004 0058 4FF04008 		mov	r8, #64
 2005 005c AEF81880 		strh	r8, [lr, #24]	@ movhi
 2006              		.loc 1 649 0
 2007 0060 1983     		strh	r1, [r3, #24]	@ movhi
 2008              	.LVL83:
 2009              	.LBB58:
 2010              	.LBB53:
 2011              		.loc 1 1369 0
 2012 0062 B2F804E0 		ldrh	lr, [r2, #4]
 2013              	.LVL84:
 2014              		.loc 1 1370 0
 2015 0066 9189     		ldrh	r1, [r2, #12]
 2016              	.LVL85:
 2017              		.loc 1 1373 0
 2018 0068 92ED006A 		flds	s12, [r2]
 2019              		.loc 1 1374 0
 2020 006c D2ED026A 		flds	s13, [r2, #8]
 2021              	.LBE53:
 2022              	.LBE58:
 2023              		.loc 1 665 0
 2024 0070 0388     		ldrh	r3, [r0]
 2025              		.loc 1 660 0
 2026 0072 C7F800C0 		str	ip, [r7]	@ float
 2027              	.LBB59:
 2028              	.LBB54:
 2029              		.loc 1 1369 0
 2030 0076 0FFA8EFE 		sxth	lr, lr
 2031 007a CEEB0505 		rsb	r5, lr, r5
 2032              	.LVL86:
 2033              		.loc 1 1370 0
 2034 007e 0AB2     		sxth	r2, r1
 2035              		.loc 1 1373 0
 2036 0080 07EE905A 		fmsr	s15, r5	@ int
 2037              		.loc 1 1370 0
 2038 0084 A41A     		subs	r4, r4, r2
 2039              	.LVL87:
 2040              		.loc 1 1373 0
 2041 0086 B8EEE77A 		fsitos	s14, s15
 2042              		.loc 1 1374 0
 2043 008a 07EE904A 		fmsr	s15, r4	@ int
 2044 008e F8EEE77A 		fsitos	s15, s15
 2045              	.LBE54:
 2046              	.LBE59:
 2047              		.loc 1 665 0
 2048 0092 0133     		adds	r3, r3, #1
 2049              	.LBB60:
 2050              	.LBB55:
 2051              		.loc 1 1373 0
 2052 0094 26EE077A 		fmuls	s14, s12, s14
ARM GAS  /var/folders/bz/nn5481rn5xq59rb0mbj7x0880000gn/T//ccKvLbC4.s 			page 37


 2053              		.loc 1 1374 0
 2054 0098 66EEA77A 		fmuls	s15, s13, s15
 2055              	.LBE55:
 2056              	.LBE60:
 2057              		.loc 1 665 0
 2058 009c 9BB2     		uxth	r3, r3
 2059              		.loc 1 666 0
 2060 009e 102B     		cmp	r3, #16
 2061              		.loc 1 665 0
 2062 00a0 18BF     		it	ne
 2063 00a2 0380     		strhne	r3, [r0]	@ movhi
 2064              	.LBB61:
 2065              	.LBB56:
 2066              		.loc 1 1373 0
 2067 00a4 87ED037A 		fsts	s14, [r7, #12]
 2068              		.loc 1 1374 0
 2069 00a8 C7ED047A 		fsts	s15, [r7, #16]
 2070              	.LBE56:
 2071              	.LBE61:
 2072              		.loc 1 668 0
 2073 00ac 08BF     		it	eq
 2074 00ae 0680     		strheq	r6, [r0]	@ movhi
 2075              		.loc 1 673 0
 2076 00b0 FFF7FEFF 		bl	ClarkePark
 2077              	.LVL88:
 2078              		.loc 1 676 0
 2079 00b4 FFF7FEFF 		bl	DoControl
 2080              	.LVL89:
 2081              		.loc 1 692 0
 2082 00b8 FFF7FEFF 		bl	InvPark
 2083              	.LVL90:
 2084              	.LBB62:
 2085              	.LBB63:
 2086              		.loc 1 1396 0
 2087 00bc D7ED0C6A 		flds	s13, [r7, #48]
 2088              		.loc 1 1397 0
 2089 00c0 D7ED0B5A 		flds	s11, [r7, #44]
 2090 00c4 9FED1A6A 		flds	s12, .L174+48
 2091              		.loc 1 1396 0
 2092 00c8 1A4B     		ldr	r3, .L174+52
 2093 00ca F1EE667A 		fnegs	s15, s13
 2094              		.loc 1 1397 0
 2095 00ce B0EE677A 		fcpys	s14, s15
 2096 00d2 A5EE867A 		vfma.f32	s14, s11, s12
 2097              		.loc 1 1398 0
 2098 00d6 E5EEC67A 		vfms.f32	s15, s11, s12
 2099              		.loc 1 1397 0
 2100 00da B6EE006A 		fconsts	s12, #96
 2101 00de 27EE067A 		fmuls	s14, s14, s12
 2102              		.loc 1 1398 0
 2103 00e2 67EE867A 		fmuls	s15, s15, s12
 2104              		.loc 1 1396 0
 2105 00e6 C3ED016A 		fsts	s13, [r3, #4]
 2106              		.loc 1 1397 0
 2107 00ea 83ED027A 		fsts	s14, [r3, #8]
 2108              		.loc 1 1398 0
 2109 00ee C3ED037A 		fsts	s15, [r3, #12]
ARM GAS  /var/folders/bz/nn5481rn5xq59rb0mbj7x0880000gn/T//ccKvLbC4.s 			page 38


 2110              	.LBE63:
 2111              	.LBE62:
 2112              		.loc 1 698 0
 2113 00f2 FFF7FEFF 		bl	CalcSVGen
 2114              	.LVL91:
 2115              		.loc 1 700 0
 2116 00f6 0A4B     		ldr	r3, .L174+32
 2117 00f8 8022     		movs	r2, #128
 2118 00fa 5A83     		strh	r2, [r3, #26]	@ movhi
 2119              	.LVL92:
 2120              	.L166:
 2121 00fc BDE8F081 		pop	{r4, r5, r6, r7, r8, pc}
 2122              	.L175:
 2123              		.align	2
 2124              	.L174:
 2125 0100 00180040 		.word	1073747968
 2126 0104 00200140 		.word	1073815552
 2127 0108 00210140 		.word	1073815808
 2128 010c 00000000 		.word	.LANCHOR17
 2129 0110 00000000 		.word	.LANCHOR30
 2130 0114 00000000 		.word	.LANCHOR31
 2131 0118 00000000 		.word	.LANCHOR32
 2132 011c 00000000 		.word	.LANCHOR13
 2133 0120 00040240 		.word	1073873920
 2134 0124 00000000 		.word	.LANCHOR1
 2135 0128 00000000 		.word	.LANCHOR18
 2136 012c 00000000 		.word	.LANCHOR7
 2137 0130 D7B3DD3F 		.word	1071494103
 2138 0134 00000000 		.word	.LANCHOR6
 2139 0138 00080240 		.word	1073874944
 2140              		.cfi_endproc
 2141              	.LFE122:
 2142              		.size	mcpwm_adc_inj_int_handler, .-mcpwm_adc_inj_int_handler
 2143              		.section	.text.SMC_Position_Estimation,"ax",%progbits
 2144              		.align	2
 2145              		.p2align 4,,15
 2146              		.global	SMC_Position_Estimation
 2147              		.thumb
 2148              		.thumb_func
 2149              		.type	SMC_Position_Estimation, %function
 2150              	SMC_Position_Estimation:
 2151              	.LFB143:
 2152              		.loc 1 1734 0
 2153              		.cfi_startproc
 2154              		@ args = 0, pretend = 0, frame = 0
 2155              		@ frame_needed = 0, uses_anonymous_args = 0
 2156              	.LVL93:
 2157              		.loc 1 1737 0
 2158 0000 90ED046A 		flds	s12, [r0, #16]
 2159 0004 D0ED014A 		flds	s9, [r0, #4]
 2160              		.loc 1 1738 0
 2161 0008 90ED085A 		flds	s10, [r0, #32]
 2162              		.loc 1 1737 0
 2163 000c D0ED000A 		flds	s1, [r0]
 2164              		.loc 1 1738 0
 2165 0010 90ED071A 		flds	s2, [r0, #28]
 2166              		.loc 1 1737 0
ARM GAS  /var/folders/bz/nn5481rn5xq59rb0mbj7x0880000gn/T//ccKvLbC4.s 			page 39


 2167 0014 D0ED031A 		flds	s3, [r0, #12]
 2168              		.loc 1 1738 0
 2169 0018 90ED0A2A 		flds	s4, [r0, #40]
 2170              		.loc 1 1737 0
 2171 001c D0ED063A 		flds	s7, [r0, #24]
 2172 0020 D0ED052A 		flds	s5, [r0, #20]
 2173              		.loc 1 1738 0
 2174 0024 90ED0B3A 		flds	s6, [r0, #44]
 2175              		.loc 1 1740 0
 2176 0028 D0ED0C7A 		flds	s15, [r0, #48]
 2177              		.loc 1 1741 0
 2178 002c D0ED105A 		flds	s11, [r0, #64]
 2179              		.loc 1 1745 0
 2180 0030 90ED0F4A 		flds	s8, [r0, #60]
 2181 0034 64EEC66A 		fnmuls	s13, s9, s12
 2182 0038 25EE467A 		fnmuls	s14, s10, s12
 2183              		.loc 1 1737 0
 2184 003c E6EE206A 		vfma.f32	s13, s12, s1
 2185              		.loc 1 1734 0
 2186 0040 10B5     		push	{r4, lr}
 2187              		.cfi_def_cfa_offset 8
 2188              		.cfi_offset 4, -8
 2189              		.cfi_offset 14, -4
 2190              		.loc 1 1738 0
 2191 0042 A6EE017A 		vfma.f32	s14, s12, s2
 2192              		.loc 1 1734 0
 2193 0046 0446     		mov	r4, r0
 2194 0048 B1EE466A 		fnegs	s12, s12
 2195              		.loc 1 1737 0
 2196 004c E6EE216A 		vfma.f32	s13, s12, s3
 2197              		.loc 1 1738 0
 2198 0050 A6EE027A 		vfma.f32	s14, s12, s4
 2199              		.loc 1 1737 0
 2200 0054 E3EEA26A 		vfma.f32	s13, s7, s5
 2201              		.loc 1 1738 0
 2202 0058 A3EE837A 		vfma.f32	s14, s7, s6
 2203              		.loc 1 1740 0
 2204 005c 76EEE77A 		fsubs	s15, s13, s15
 2205              		.loc 1 1741 0
 2206 0060 37EE656A 		fsubs	s12, s14, s11
 2207              		.loc 1 1745 0
 2208 0064 F0EEE75A 		fabss	s11, s15
 2209 0068 F4EEC45A 		fcmpes	s11, s8
 2210 006c F1EE10FA 		fmstat
 2211              		.loc 1 1737 0
 2212 0070 C0ED056A 		fsts	s13, [r0, #20]
 2213              		.loc 1 1740 0
 2214 0074 C0ED0D7A 		fsts	s15, [r0, #52]
 2215              		.loc 1 1738 0
 2216 0078 80ED0B7A 		fsts	s14, [r0, #44]
 2217              		.loc 1 1741 0
 2218 007c 80ED116A 		fsts	s12, [r0, #68]
 2219              		.loc 1 1745 0
 2220 0080 40F18780 		bpl	.L195
 2221              		.loc 1 1751 0
 2222 0084 90ED0E7A 		flds	s14, [r0, #56]
 2223 0088 67EE877A 		fmuls	s15, s15, s14
ARM GAS  /var/folders/bz/nn5481rn5xq59rb0mbj7x0880000gn/T//ccKvLbC4.s 			page 40


 2224              		.loc 1 1758 0
 2225 008c F0EEC66A 		fabss	s13, s12
 2226              		.loc 1 1751 0
 2227 0090 C7EE847A 		fdivs	s15, s15, s8
 2228              		.loc 1 1758 0
 2229 0094 B4EEE64A 		fcmpes	s8, s13
 2230 0098 F1EE10FA 		fmstat
 2231              		.loc 1 1751 0
 2232 009c C0ED037A 		fsts	s15, [r0, #12]
 2233              		.loc 1 1758 0
 2234 00a0 40F38F80 		ble	.L197
 2235              	.L201:
 2236              		.loc 1 1764 0
 2237 00a4 26EE077A 		fmuls	s14, s12, s14
 2238 00a8 87EE047A 		fdivs	s14, s14, s8
 2239 00ac 84ED0A7A 		fsts	s14, [r4, #40]
 2240              	.L184:
 2241              		.loc 1 1773 0
 2242 00b0 D4ED125A 		flds	s11, [r4, #72]
 2243              		.loc 1 1775 0
 2244 00b4 D4ED023A 		flds	s7, [r4, #8]
 2245              		.loc 1 1776 0
 2246 00b8 94ED094A 		flds	s8, [r4, #36]
 2247              		.loc 1 1775 0
 2248 00bc 94ED136A 		flds	s12, [r4, #76]
 2249              		.loc 1 1773 0
 2250 00c0 F0EE646A 		fcpys	s13, s9
 2251 00c4 E5EEA76A 		vfma.f32	s13, s11, s15
 2252              		.loc 1 1774 0
 2253 00c8 F0EE457A 		fcpys	s15, s10
 2254 00cc E5EE877A 		vfma.f32	s15, s11, s14
 2255              		.loc 1 1773 0
 2256 00d0 B0EE667A 		fcpys	s14, s13
 2257 00d4 A4EEE57A 		vfms.f32	s14, s9, s11
 2258              		.loc 1 1774 0
 2259 00d8 E5EE657A 		vfms.f32	s15, s10, s11
 2260              		.loc 1 1775 0
 2261 00dc B0EE630A 		fcpys	s0, s7
 2262              		.loc 1 1776 0
 2263 00e0 F0EE440A 		fcpys	s1, s8
 2264              		.loc 1 1775 0
 2265 00e4 A7EE060A 		vfma.f32	s0, s14, s12
 2266              		.loc 1 1776 0
 2267 00e8 E7EE860A 		vfma.f32	s1, s15, s12
 2268              		.loc 1 1775 0
 2269 00ec A3EEC60A 		vfms.f32	s0, s7, s12
 2270              		.loc 1 1776 0
 2271 00f0 E6EE440A 		vfms.f32	s1, s12, s8
 2272              		.loc 1 1773 0
 2273 00f4 84ED017A 		fsts	s14, [r4, #4]
 2274              		.loc 1 1774 0
 2275 00f8 C4ED087A 		fsts	s15, [r4, #32]
 2276              		.loc 1 1775 0
 2277 00fc 84ED020A 		fsts	s0, [r4, #8]
 2278              		.loc 1 1776 0
 2279 0100 C4ED090A 		fsts	s1, [r4, #36]
 2280              		.loc 1 1781 0
ARM GAS  /var/folders/bz/nn5481rn5xq59rb0mbj7x0880000gn/T//ccKvLbC4.s 			page 41


 2281 0104 B1EE400A 		fnegs	s0, s0
 2282 0108 FFF7FEFF 		bl	atan2f
 2283              	.LVL94:
 2284              		.loc 1 1783 0
 2285 010c 3548     		ldr	r0, .L202
 2286              		.loc 1 1786 0
 2287 010e 364A     		ldr	r2, .L202+4
 2288              		.loc 1 1783 0
 2289 0110 3649     		ldr	r1, .L202+8
 2290 0112 D0ED007A 		flds	s15, [r0]
 2291              		.loc 1 1786 0
 2292 0116 1388     		ldrh	r3, [r2]
 2293              		.loc 1 1783 0
 2294 0118 91ED007A 		flds	s14, [r1]
 2295              		.loc 1 1781 0
 2296 011c 84ED160A 		fsts	s0, [r4, #88]
 2297              		.loc 1 1783 0
 2298 0120 70EE677A 		fsubs	s15, s0, s15
 2299              		.loc 1 1786 0
 2300 0124 0133     		adds	r3, r3, #1
 2301 0126 9BB2     		uxth	r3, r3
 2302              		.loc 1 1783 0
 2303 0128 77EE877A 		fadds	s15, s15, s14
 2304              		.loc 1 1787 0
 2305 012c 102B     		cmp	r3, #16
 2306              		.loc 1 1784 0
 2307 012e 80ED000A 		fsts	s0, [r0]
 2308              		.loc 1 1783 0
 2309 0132 C1ED007A 		fsts	s15, [r1]
 2310              		.loc 1 1786 0
 2311 0136 1380     		strh	r3, [r2]	@ movhi
 2312              		.loc 1 1787 0
 2313 0138 4DD0     		beq	.L187
 2314 013a D4ED177A 		flds	s15, [r4, #92]
 2315              	.L188:
 2316              		.loc 1 1805 0
 2317 013e 94ED185A 		flds	s10, [r4, #96]
 2318 0142 D4ED145A 		flds	s11, [r4, #80]
 2319              		.loc 1 1849 0
 2320 0146 9FED2A7A 		flds	s14, .L202+12
 2321              		.loc 1 1854 0
 2322 014a 9FED2A6A 		flds	s12, .L202+16
 2323              		.loc 1 1805 0
 2324 014e F0EE456A 		fcpys	s13, s10
 2325 0152 E5EEA76A 		vfma.f32	s13, s11, s15
 2326 0156 E5EE656A 		vfms.f32	s13, s10, s11
 2327              		.loc 1 1849 0
 2328 015a 66EE877A 		fmuls	s15, s13, s14
 2329              		.loc 1 1805 0
 2330 015e C4ED186A 		fsts	s13, [r4, #96]
 2331              		.loc 1 1854 0
 2332 0162 F4EEC67A 		fcmpes	s15, s12
 2333 0166 F1EE10FA 		fmstat
 2334              		.loc 1 1849 0
 2335 016a C4ED137A 		fsts	s15, [r4, #76]
 2336 016e 58BF     		it	pl
 2337 0170 C4ED127A 		fstspl	s15, [r4, #72]
ARM GAS  /var/folders/bz/nn5481rn5xq59rb0mbj7x0880000gn/T//ccKvLbC4.s 			page 42


 2338              		.loc 1 1859 0
 2339 0174 DFED207A 		flds	s15, .L202+20
 2340              		.loc 1 1856 0
 2341 0178 48BF     		it	mi
 2342 017a 84ED126A 		fstsmi	s12, [r4, #72]
 2343              		.loc 1 1860 0
 2344 017e 30EE270A 		fadds	s0, s0, s15
 2345              		.loc 1 1857 0
 2346 0182 48BF     		it	mi
 2347 0184 84ED136A 		fstsmi	s12, [r4, #76]
 2348              		.loc 1 1859 0
 2349 0188 C4ED157A 		fsts	s15, [r4, #84]
 2350              		.loc 1 1860 0
 2351 018c 84ED160A 		fsts	s0, [r4, #88]
 2352 0190 10BD     		pop	{r4, pc}
 2353              	.LVL95:
 2354              	.L195:
 2355              		.loc 1 1753 0
 2356 0192 F5EEC07A 		fcmpezs	s15
 2357              		.loc 1 1754 0
 2358 0196 90ED0E7A 		flds	s14, [r0, #56]
 2359              		.loc 1 1753 0
 2360 019a F1EE10FA 		fmstat
 2361              		.loc 1 1758 0
 2362 019e F0EEC66A 		fabss	s13, s12
 2363              		.loc 1 1756 0
 2364 01a2 D8BF     		it	le
 2365 01a4 F1EE477A 		fnegsle	s15, s14
 2366              		.loc 1 1758 0
 2367 01a8 B4EEE64A 		fcmpes	s8, s13
 2368              		.loc 1 1754 0
 2369 01ac C6BF     		itte	gt
 2370 01ae 80ED037A 		fstsgt	s14, [r0, #12]
 2371 01b2 F0EE477A 		fcpysgt	s15, s14
 2372              		.loc 1 1756 0
 2373 01b6 C0ED037A 		fstsle	s15, [r0, #12]
 2374              		.loc 1 1758 0
 2375 01ba F1EE10FA 		fmstat
 2376 01be 3FF771AF 		bgt	.L201
 2377              	.L197:
 2378              		.loc 1 1766 0
 2379 01c2 B5EEC06A 		fcmpezs	s12
 2380 01c6 F1EE10FA 		fmstat
 2381              		.loc 1 1769 0
 2382 01ca D8BF     		it	le
 2383 01cc B1EE477A 		fnegsle	s14, s14
 2384 01d0 84ED0A7A 		fsts	s14, [r4, #40]
 2385 01d4 6CE7     		b	.L184
 2386              	.LVL96:
 2387              	.L187:
 2388              		.loc 1 1791 0
 2389 01d6 0020     		movs	r0, #0
 2390              		.loc 1 1790 0
 2391 01d8 0023     		movs	r3, #0
 2392              		.loc 1 1789 0
 2393 01da C4ED177A 		fsts	s15, [r4, #92]
 2394              		.loc 1 1791 0
ARM GAS  /var/folders/bz/nn5481rn5xq59rb0mbj7x0880000gn/T//ccKvLbC4.s 			page 43


 2395 01de 0860     		str	r0, [r1]	@ float
 2396              		.loc 1 1790 0
 2397 01e0 1380     		strh	r3, [r2]	@ movhi
 2398 01e2 ACE7     		b	.L188
 2399              	.L203:
 2400              		.align	2
 2401              	.L202:
 2402 01e4 00000000 		.word	.LANCHOR33
 2403 01e8 00000000 		.word	.LANCHOR18
 2404 01ec 00000000 		.word	.LANCHOR34
 2405 01f0 DB0F493E 		.word	1044975579
 2406 01f4 2FE34D3A 		.word	978182959
 2407 01f8 0020FD3E 		.word	1056776192
 2408              		.cfi_endproc
 2409              	.LFE143:
 2410              		.size	SMC_Position_Estimation, .-SMC_Position_Estimation
 2411              		.section	.text.CalculateParkAngle,"ax",%progbits
 2412              		.align	2
 2413              		.p2align 4,,15
 2414              		.global	CalculateParkAngle
 2415              		.thumb
 2416              		.thumb_func
 2417              		.type	CalculateParkAngle, %function
 2418              	CalculateParkAngle:
 2419              	.LFB126:
 2420              		.loc 1 963 0
 2421              		.cfi_startproc
 2422              		@ args = 0, pretend = 0, frame = 0
 2423              		@ frame_needed = 0, uses_anonymous_args = 0
 2424 0000 F8B5     		push	{r3, r4, r5, r6, r7, lr}
 2425              		.cfi_def_cfa_offset 24
 2426              		.cfi_offset 3, -24
 2427              		.cfi_offset 4, -20
 2428              		.cfi_offset 5, -16
 2429              		.cfi_offset 6, -12
 2430              		.cfi_offset 7, -8
 2431              		.cfi_offset 14, -4
 2432              		.loc 1 964 0
 2433 0002 344D     		ldr	r5, .L218
 2434 0004 344C     		ldr	r4, .L218+4
 2435 0006 6869     		ldr	r0, [r5, #20]	@ float
 2436              		.loc 1 965 0
 2437 0008 A969     		ldr	r1, [r5, #24]	@ float
 2438              		.loc 1 966 0
 2439 000a EA6A     		ldr	r2, [r5, #44]	@ float
 2440              		.loc 1 967 0
 2441 000c 2B6B     		ldr	r3, [r5, #48]	@ float
 2442              		.loc 1 964 0
 2443 000e 2063     		str	r0, [r4, #48]	@ float
 2444              		.loc 1 969 0
 2445 0010 2046     		mov	r0, r4
 2446              		.loc 1 965 0
 2447 0012 2164     		str	r1, [r4, #64]	@ float
 2448              		.loc 1 966 0
 2449 0014 2260     		str	r2, [r4]	@ float
 2450              		.loc 1 967 0
 2451 0016 E361     		str	r3, [r4, #28]	@ float
ARM GAS  /var/folders/bz/nn5481rn5xq59rb0mbj7x0880000gn/T//ccKvLbC4.s 			page 44


 2452              		.loc 1 969 0
 2453 0018 FFF7FEFF 		bl	SMC_Position_Estimation
 2454              	.LVL97:
 2455              		.loc 1 971 0
 2456 001c 2F49     		ldr	r1, .L218+8
 2457 001e 0A78     		ldrb	r2, [r1]	@ zero_extendqisi2
 2458 0020 D307     		lsls	r3, r2, #31
 2459 0022 15D5     		bpl	.L205
 2460              		.loc 1 973 0
 2461 0024 2E4E     		ldr	r6, .L218+12
 2462 0026 2F4B     		ldr	r3, .L218+16
 2463 0028 3068     		ldr	r0, [r6]
 2464 002a 1F68     		ldr	r7, [r3]
 2465 002c 8742     		cmp	r7, r0
 2466 002e 33D9     		bls	.L206
 2467 0030 2D4B     		ldr	r3, .L218+20
 2468 0032 95ED007A 		flds	s14, [r5]
 2469 0036 1B68     		ldr	r3, [r3]
 2470              		.loc 1 974 0
 2471 0038 0130     		adds	r0, r0, #1
 2472 003a 3060     		str	r0, [r6]
 2473              	.L207:
 2474              		.loc 1 990 0
 2475 003c 1B0C     		lsrs	r3, r3, #16
 2476 003e 07EE903A 		fmsr	s15, r3	@ int
 2477 0042 F8EEE77A 		fsitos	s15, s15
 2478 0046 77EE877A 		fadds	s15, s15, s14
 2479 004a C5ED007A 		fsts	s15, [r5]
 2480 004e F8BD     		pop	{r3, r4, r5, r6, r7, pc}
 2481              	.L205:
 2482              		.loc 1 1003 0
 2483 0050 264B     		ldr	r3, .L218+24
 2484 0052 94ED167A 		flds	s14, [r4, #88]
 2485 0056 93ED006A 		flds	s12, [r3]
 2486              		.loc 1 1004 0
 2487 005a D3ED007A 		flds	s15, [r3]
 2488 005e DFED246A 		flds	s13, .L218+28
 2489 0062 F0EEE77A 		fabss	s15, s15
 2490              		.loc 1 1003 0
 2491 0066 37EE067A 		fadds	s14, s14, s12
 2492              		.loc 1 1004 0
 2493 006a F4EEE67A 		fcmpes	s15, s13
 2494 006e F1EE10FA 		fmstat
 2495              		.loc 1 1003 0
 2496 0072 85ED007A 		fsts	s14, [r5]
 2497              		.loc 1 1004 0
 2498 0076 0EDD     		ble	.L204
 2499              		.loc 1 1006 0
 2500 0078 D3ED007A 		flds	s15, [r3]
 2501              		.loc 1 1007 0
 2502 007c 9FED1D7A 		flds	s14, .L218+32
 2503              		.loc 1 1006 0
 2504 0080 F5EEC07A 		fcmpezs	s15
 2505 0084 F1EE10FA 		fmstat
 2506              		.loc 1 1007 0
 2507 0088 D3ED007A 		flds	s15, [r3]
 2508              		.loc 1 1006 0
ARM GAS  /var/folders/bz/nn5481rn5xq59rb0mbj7x0880000gn/T//ccKvLbC4.s 			page 45


 2509 008c 1DD4     		bmi	.L217
 2510              		.loc 1 1009 0
 2511 008e 77EEC77A 		fsubs	s15, s15, s14
 2512 0092 C3ED007A 		fsts	s15, [r3]
 2513              	.L204:
 2514 0096 F8BD     		pop	{r3, r4, r5, r6, r7, pc}
 2515              	.L206:
 2516              		.loc 1 977 0
 2517 0098 1348     		ldr	r0, .L218+20
 2518 009a 5E68     		ldr	r6, [r3, #4]
 2519 009c 0368     		ldr	r3, [r0]
 2520 009e 9E42     		cmp	r6, r3
 2521 00a0 04D9     		bls	.L208
 2522              		.loc 1 980 0
 2523 00a2 0633     		adds	r3, r3, #6
 2524 00a4 0360     		str	r3, [r0]
 2525 00a6 95ED007A 		flds	s14, [r5]
 2526 00aa C7E7     		b	.L207
 2527              	.L208:
 2528              		.loc 1 988 0
 2529 00ac 95ED007A 		flds	s14, [r5]
 2530 00b0 D4ED167A 		flds	s15, [r4, #88]
 2531 00b4 0D48     		ldr	r0, .L218+24
 2532              		.loc 1 985 0
 2533 00b6 42F02002 		orr	r2, r2, #32
 2534              		.loc 1 988 0
 2535 00ba 77EE677A 		fsubs	s15, s14, s15
 2536              		.loc 1 985 0
 2537 00be 6FF30002 		bfc	r2, #0, #1
 2538 00c2 0A70     		strb	r2, [r1]
 2539              		.loc 1 988 0
 2540 00c4 C0ED007A 		fsts	s15, [r0]
 2541 00c8 B8E7     		b	.L207
 2542              	.L217:
 2543              		.loc 1 1007 0
 2544 00ca 77EE877A 		fadds	s15, s15, s14
 2545 00ce C3ED007A 		fsts	s15, [r3]
 2546 00d2 F8BD     		pop	{r3, r4, r5, r6, r7, pc}
 2547              	.L219:
 2548              		.align	2
 2549              	.L218:
 2550 00d4 00000000 		.word	.LANCHOR7
 2551 00d8 00000000 		.word	.LANCHOR17
 2552 00dc 00000000 		.word	.LANCHOR13
 2553 00e0 00000000 		.word	.LANCHOR15
 2554 00e4 00000000 		.word	.LANCHOR0
 2555 00e8 00000000 		.word	.LANCHOR16
 2556 00ec 00000000 		.word	.LANCHOR35
 2557 00f0 43989139 		.word	965843011
 2558 00f4 A9A19139 		.word	965845417
 2559              		.cfi_endproc
 2560              	.LFE126:
 2561              		.size	CalculateParkAngle, .-CalculateParkAngle
 2562              		.section	.text.FWInit,"ax",%progbits
 2563              		.align	2
 2564              		.p2align 4,,15
 2565              		.global	FWInit
ARM GAS  /var/folders/bz/nn5481rn5xq59rb0mbj7x0880000gn/T//ccKvLbC4.s 			page 46


 2566              		.thumb
 2567              		.thumb_func
 2568              		.type	FWInit, %function
 2569              	FWInit:
 2570              	.LFB144:
 2571              		.loc 1 1866 0
 2572              		.cfi_startproc
 2573              		@ args = 0, pretend = 0, frame = 0
 2574              		@ frame_needed = 0, uses_anonymous_args = 0
 2575 0000 2DE9F04F 		push	{r4, r5, r6, r7, r8, r9, r10, fp, lr}
 2576              		.cfi_def_cfa_offset 36
 2577              		.cfi_offset 4, -36
 2578              		.cfi_offset 5, -32
 2579              		.cfi_offset 6, -28
 2580              		.cfi_offset 7, -24
 2581              		.cfi_offset 8, -20
 2582              		.cfi_offset 9, -16
 2583              		.cfi_offset 10, -12
 2584              		.cfi_offset 11, -8
 2585              		.cfi_offset 14, -4
 2586              		.loc 1 1868 0
 2587 0004 184B     		ldr	r3, .L222
 2588 0006 194C     		ldr	r4, .L222+4
 2589              		.loc 1 1870 0
 2590 0008 1949     		ldr	r1, .L222+8
 2591              		.loc 1 1871 0
 2592 000a 1A4A     		ldr	r2, .L222+12
 2593              		.loc 1 1872 0
 2594 000c DFF884B0 		ldr	fp, .L222+44
 2595              		.loc 1 1873 0
 2596 0010 DFF884A0 		ldr	r10, .L222+48
 2597              		.loc 1 1874 0
 2598 0014 DFF88490 		ldr	r9, .L222+52
 2599              		.loc 1 1875 0
 2600 0018 DFF88480 		ldr	r8, .L222+56
 2601              		.loc 1 1876 0
 2602 001c DFF884C0 		ldr	ip, .L222+60
 2603              		.loc 1 1877 0
 2604 0020 DFF884E0 		ldr	lr, .L222+64
 2605              		.loc 1 1878 0
 2606 0024 144F     		ldr	r7, .L222+16
 2607              		.loc 1 1879 0
 2608 0026 154E     		ldr	r6, .L222+20
 2609              		.loc 1 1880 0
 2610 0028 154D     		ldr	r5, .L222+24
 2611              		.loc 1 1868 0
 2612 002a 9C60     		str	r4, [r3, #8]	@ float
 2613              		.loc 1 1869 0
 2614 002c 0020     		movs	r0, #0
 2615              		.loc 1 1881 0
 2616 002e 154C     		ldr	r4, .L222+28
 2617              		.loc 1 1869 0
 2618 0030 D861     		str	r0, [r3, #28]	@ float
 2619              		.loc 1 1870 0
 2620 0032 1962     		str	r1, [r3, #32]	@ float
 2621              		.loc 1 1882 0
 2622 0034 1448     		ldr	r0, .L222+32
ARM GAS  /var/folders/bz/nn5481rn5xq59rb0mbj7x0880000gn/T//ccKvLbC4.s 			page 47


 2623              		.loc 1 1883 0
 2624 0036 1549     		ldr	r1, .L222+36
 2625              		.loc 1 1871 0
 2626 0038 5A62     		str	r2, [r3, #36]	@ float
 2627              		.loc 1 1884 0
 2628 003a 154A     		ldr	r2, .L222+40
 2629              		.loc 1 1872 0
 2630 003c C3F828B0 		str	fp, [r3, #40]	@ float
 2631              		.loc 1 1873 0
 2632 0040 C3F82CA0 		str	r10, [r3, #44]	@ float
 2633              		.loc 1 1874 0
 2634 0044 C3F83090 		str	r9, [r3, #48]	@ float
 2635              		.loc 1 1875 0
 2636 0048 C3F83480 		str	r8, [r3, #52]	@ float
 2637              		.loc 1 1876 0
 2638 004c C3F838C0 		str	ip, [r3, #56]	@ float
 2639              		.loc 1 1877 0
 2640 0050 C3F83CE0 		str	lr, [r3, #60]	@ float
 2641              		.loc 1 1878 0
 2642 0054 1F64     		str	r7, [r3, #64]	@ float
 2643              		.loc 1 1879 0
 2644 0056 5E64     		str	r6, [r3, #68]	@ float
 2645              		.loc 1 1880 0
 2646 0058 9D64     		str	r5, [r3, #72]	@ float
 2647              		.loc 1 1881 0
 2648 005a DC64     		str	r4, [r3, #76]	@ float
 2649              		.loc 1 1882 0
 2650 005c 1865     		str	r0, [r3, #80]	@ float
 2651              		.loc 1 1883 0
 2652 005e 5965     		str	r1, [r3, #84]	@ float
 2653              		.loc 1 1884 0
 2654 0060 9A65     		str	r2, [r3, #88]	@ float
 2655 0062 BDE8F08F 		pop	{r4, r5, r6, r7, r8, r9, r10, fp, pc}
 2656              	.L223:
 2657 0066 00BF     		.align	2
 2658              	.L222:
 2659 0068 00000000 		.word	.LANCHOR20
 2660 006c CDCCCC3E 		.word	1053609165
 2661 0070 33C4D1B5 		.word	-1244543949
 2662 0074 460BD5B5 		.word	-1244329146
 2663 0078 BCFCEBB5 		.word	-1242825540
 2664 007c CD43EFB5 		.word	-1242610739
 2665 0080 DD8AF2B5 		.word	-1242395939
 2666 0084 EDD1F5B5 		.word	-1242181139
 2667 0088 FE18F9B5 		.word	-1241966338
 2668 008c 0E60FCB5 		.word	-1241751538
 2669 0090 1EA7FFB5 		.word	-1241536738
 2670 0094 5752D8B5 		.word	-1244114345
 2671 0098 6799DBB5 		.word	-1243899545
 2672 009c 78E0DEB5 		.word	-1243684744
 2673 00a0 8827E2B5 		.word	-1243469944
 2674 00a4 986EE5B5 		.word	-1243255144
 2675 00a8 AAB5E8B5 		.word	-1243040342
 2676              		.cfi_endproc
 2677              	.LFE144:
 2678              		.size	FWInit, .-FWInit
 2679              		.section	.text.mcpwm_init,"ax",%progbits
ARM GAS  /var/folders/bz/nn5481rn5xq59rb0mbj7x0880000gn/T//ccKvLbC4.s 			page 48


 2680              		.align	2
 2681              		.p2align 4,,15
 2682              		.global	mcpwm_init
 2683              		.thumb
 2684              		.thumb_func
 2685              		.type	mcpwm_init, %function
 2686              	mcpwm_init:
 2687              	.LFB119:
 2688              		.loc 1 286 0
 2689              		.cfi_startproc
 2690              		@ args = 0, pretend = 0, frame = 152
 2691              		@ frame_needed = 0, uses_anonymous_args = 0
 2692              	.LVL98:
 2693 0000 2DE9F04F 		push	{r4, r5, r6, r7, r8, r9, r10, fp, lr}
 2694              		.cfi_def_cfa_offset 36
 2695              		.cfi_offset 4, -36
 2696              		.cfi_offset 5, -32
 2697              		.cfi_offset 6, -28
 2698              		.cfi_offset 7, -24
 2699              		.cfi_offset 8, -20
 2700              		.cfi_offset 9, -16
 2701              		.cfi_offset 10, -12
 2702              		.cfi_offset 11, -8
 2703              		.cfi_offset 14, -4
 2704 0004 A9B0     		sub	sp, sp, #164
 2705              		.cfi_def_cfa_offset 200
 2706              		.loc 1 287 0
 2707 0006 FFF7FEFF 		bl	utils_sys_lock_cnt
 2708              	.LVL99:
 2709              		.loc 1 295 0
 2710 000a D94B     		ldr	r3, .L231
 2711              		.loc 1 298 0
 2712 000c D94E     		ldr	r6, .L231+4
 2713              		.loc 1 299 0
 2714 000e DA4F     		ldr	r7, .L231+8
 2715              		.loc 1 309 0
 2716 0010 DFF890B3 		ldr	fp, .L231+52
 2717              		.loc 1 295 0
 2718 0014 0024     		movs	r4, #0
 2719 0016 1C70     		strb	r4, [r3]
 2720              		.loc 1 296 0
 2721 0018 D84B     		ldr	r3, .L231+12
 2722              		.loc 1 298 0
 2723 001a 3046     		mov	r0, r6
 2724              		.loc 1 296 0
 2725 001c 1C70     		strb	r4, [r3]
 2726              		.loc 1 298 0
 2727 001e FFF7FEFF 		bl	TIM_DeInit
 2728              	.LVL100:
 2729              		.loc 1 299 0
 2730 0022 3846     		mov	r0, r7
 2731 0024 FFF7FEFF 		bl	TIM_DeInit
 2732              	.LVL101:
 2733              		.loc 1 304 0
 2734 0028 0120     		movs	r0, #1
 2735 002a 0146     		mov	r1, r0
 2736              		.loc 1 300 0
ARM GAS  /var/folders/bz/nn5481rn5xq59rb0mbj7x0880000gn/T//ccKvLbC4.s 			page 49


 2737 002c 7462     		str	r4, [r6, #36]
 2738              		.loc 1 301 0
 2739 002e 7C62     		str	r4, [r7, #36]
 2740              		.loc 1 311 0
 2741 0030 0125     		movs	r5, #1
 2742              		.loc 1 304 0
 2743 0032 FFF7FEFF 		bl	RCC_APB2PeriphClockCmd
 2744              	.LVL102:
 2745              		.loc 1 308 0
 2746 0036 4FF0200E 		mov	lr, #32	@ movhi
 2747              		.loc 1 313 0
 2748 003a 3046     		mov	r0, r6
 2749 003c 03A9     		add	r1, sp, #12
 2750              		.loc 1 309 0
 2751 003e DBF80020 		ldr	r2, [fp]
 2752              		.loc 1 308 0
 2753 0042 ADF80EE0 		strh	lr, [sp, #14]	@ movhi
 2754              		.loc 1 307 0
 2755 0046 ADF80C40 		strh	r4, [sp, #12]	@ movhi
 2756              		.loc 1 310 0
 2757 004a ADF81440 		strh	r4, [sp, #20]	@ movhi
 2758              		.loc 1 309 0
 2759 004e CC4B     		ldr	r3, .L231+16
 2760              		.loc 1 311 0
 2761 0050 8DF81650 		strb	r5, [sp, #22]
 2762              		.loc 1 309 0
 2763 0054 93FBF2F3 		sdiv	r3, r3, r2
 2764 0058 0493     		str	r3, [sp, #16]
 2765              		.loc 1 313 0
 2766 005a FFF7FEFF 		bl	TIM_TimeBaseInit
 2767              	.LVL103:
 2768              		.loc 1 319 0
 2769 005e F36A     		ldr	r3, [r6, #44]
 2770              		.loc 1 317 0
 2771 0060 ADF83A50 		strh	r5, [sp, #58]	@ movhi
 2772              		.loc 1 319 0
 2773 0064 EB40     		lsrs	r3, r3, r5
 2774 0066 1093     		str	r3, [sp, #64]
 2775              		.loc 1 316 0
 2776 0068 4FF06003 		mov	r3, #96	@ movhi
 2777              		.loc 1 322 0
 2778 006c 4FF48078 		mov	r8, #256
 2779              		.loc 1 318 0
 2780 0070 4FF00409 		mov	r9, #4
 2781              		.loc 1 325 0
 2782 0074 3046     		mov	r0, r6
 2783 0076 0EA9     		add	r1, sp, #56
 2784              		.loc 1 316 0
 2785 0078 ADF83830 		strh	r3, [sp, #56]	@ movhi
 2786              		.loc 1 323 0
 2787 007c 4FF40073 		mov	r3, #512	@ movhi
 2788 0080 ADF84A30 		strh	r3, [sp, #74]	@ movhi
 2789              		.loc 1 320 0
 2790 0084 ADF84440 		strh	r4, [sp, #68]	@ movhi
 2791              		.loc 1 321 0
 2792 0088 ADF84640 		strh	r4, [sp, #70]	@ movhi
 2793              		.loc 1 318 0
ARM GAS  /var/folders/bz/nn5481rn5xq59rb0mbj7x0880000gn/T//ccKvLbC4.s 			page 50


 2794 008c ADF83C90 		strh	r9, [sp, #60]	@ movhi
 2795              		.loc 1 322 0
 2796 0090 ADF84880 		strh	r8, [sp, #72]	@ movhi
 2797              		.loc 1 325 0
 2798 0094 FFF7FEFF 		bl	TIM_OC1Init
 2799              	.LVL104:
 2800              		.loc 1 326 0
 2801 0098 3046     		mov	r0, r6
 2802 009a 0EA9     		add	r1, sp, #56
 2803 009c FFF7FEFF 		bl	TIM_OC2Init
 2804              	.LVL105:
 2805              		.loc 1 327 0
 2806 00a0 3046     		mov	r0, r6
 2807 00a2 0EA9     		add	r1, sp, #56
 2808 00a4 FFF7FEFF 		bl	TIM_OC3Init
 2809              	.LVL106:
 2810              		.loc 1 328 0
 2811 00a8 3046     		mov	r0, r6
 2812 00aa 0EA9     		add	r1, sp, #56
 2813 00ac FFF7FEFF 		bl	TIM_OC4Init
 2814              	.LVL107:
 2815              		.loc 1 330 0
 2816 00b0 3046     		mov	r0, r6
 2817 00b2 0821     		movs	r1, #8
 2818 00b4 FFF7FEFF 		bl	TIM_OC1PreloadConfig
 2819              	.LVL108:
 2820              		.loc 1 331 0
 2821 00b8 3046     		mov	r0, r6
 2822 00ba 0821     		movs	r1, #8
 2823 00bc FFF7FEFF 		bl	TIM_OC2PreloadConfig
 2824              	.LVL109:
 2825              		.loc 1 332 0
 2826 00c0 3046     		mov	r0, r6
 2827 00c2 0821     		movs	r1, #8
 2828 00c4 FFF7FEFF 		bl	TIM_OC3PreloadConfig
 2829              	.LVL110:
 2830              		.loc 1 333 0
 2831 00c8 3046     		mov	r0, r6
 2832 00ca 0821     		movs	r1, #8
 2833 00cc FFF7FEFF 		bl	TIM_OC4PreloadConfig
 2834              	.LVL111:
 2835              		.loc 1 339 0
 2836 00d0 5023     		movs	r3, #80
 2837              		.loc 1 336 0
 2838 00d2 4FF4006A 		mov	r10, #2048
 2839              		.loc 1 344 0
 2840 00d6 3046     		mov	r0, r6
 2841 00d8 06A9     		add	r1, sp, #24
 2842              		.loc 1 339 0
 2843 00da ADF81E30 		strh	r3, [sp, #30]	@ movhi
 2844              		.loc 1 341 0
 2845 00de 4FF40053 		mov	r3, #8192	@ movhi
 2846 00e2 ADF82230 		strh	r3, [sp, #34]	@ movhi
 2847              		.loc 1 336 0
 2848 00e6 ADF818A0 		strh	r10, [sp, #24]	@ movhi
 2849              		.loc 1 337 0
 2850 00ea ADF81AA0 		strh	r10, [sp, #26]	@ movhi
ARM GAS  /var/folders/bz/nn5481rn5xq59rb0mbj7x0880000gn/T//ccKvLbC4.s 			page 51


 2851              		.loc 1 338 0
 2852 00ee ADF81C40 		strh	r4, [sp, #28]	@ movhi
 2853              		.loc 1 340 0
 2854 00f2 ADF82040 		strh	r4, [sp, #32]	@ movhi
 2855              		.loc 1 342 0
 2856 00f6 ADF82440 		strh	r4, [sp, #36]	@ movhi
 2857              		.loc 1 344 0
 2858 00fa FFF7FEFF 		bl	TIM_BDTRConfig
 2859              	.LVL112:
 2860              		.loc 1 345 0
 2861 00fe 3046     		mov	r0, r6
 2862 0100 2946     		mov	r1, r5
 2863 0102 FFF7FEFF 		bl	TIM_CCPreloadControl
 2864              	.LVL113:
 2865              		.loc 1 346 0
 2866 0106 3046     		mov	r0, r6
 2867 0108 2946     		mov	r1, r5
 2868 010a FFF7FEFF 		bl	TIM_ARRPreloadConfig
 2869              	.LVL114:
 2870              		.loc 1 356 0
 2871 010e 2946     		mov	r1, r5
 2872 0110 9C48     		ldr	r0, .L231+20
 2873 0112 FFF7FEFF 		bl	RCC_AHB1PeriphClockCmd
 2874              	.LVL115:
 2875              		.loc 1 357 0
 2876 0116 2946     		mov	r1, r5
 2877 0118 4FF4E060 		mov	r0, #1792
 2878 011c FFF7FEFF 		bl	RCC_APB2PeriphClockCmd
 2879              	.LVL116:
 2880              		.loc 1 359 0
 2881 0120 2346     		mov	r3, r4
 2882 0122 994A     		ldr	r2, .L231+24
 2883 0124 9948     		ldr	r0, .L231+28
 2884 0126 0321     		movs	r1, #3
 2885 0128 FFF7FEFF 		bl	dmaStreamAllocate
 2886              	.LVL117:
 2887              		.loc 1 370 0
 2888 012c 4FF40051 		mov	r1, #8192
 2889              		.loc 1 363 0
 2890 0130 DFF874C2 		ldr	ip, .L231+56
 2891              		.loc 1 364 0
 2892 0134 DFF874E2 		ldr	lr, .L231+60
 2893              		.loc 1 377 0
 2894 0138 9548     		ldr	r0, .L231+32
 2895              		.loc 1 369 0
 2896 013a CDF880A0 		str	r10, [sp, #128]
 2897              		.loc 1 372 0
 2898 013e 4FF40033 		mov	r3, #131072
 2899              		.loc 1 368 0
 2900 0142 4FF48062 		mov	r2, #1024
 2901              		.loc 1 366 0
 2902 0146 4FF00C0A 		mov	r10, #12
 2903              		.loc 1 370 0
 2904 014a 2191     		str	r1, [sp, #132]
 2905              		.loc 1 377 0
 2906 014c 19A9     		add	r1, sp, #100
 2907              		.loc 1 363 0
ARM GAS  /var/folders/bz/nn5481rn5xq59rb0mbj7x0880000gn/T//ccKvLbC4.s 			page 52


 2908 014e CDF86CC0 		str	ip, [sp, #108]
 2909              		.loc 1 364 0
 2910 0152 CDF868E0 		str	lr, [sp, #104]
 2911              		.loc 1 372 0
 2912 0156 2393     		str	r3, [sp, #140]
 2913              		.loc 1 368 0
 2914 0158 1F92     		str	r2, [sp, #124]
 2915              		.loc 1 362 0
 2916 015a 1994     		str	r4, [sp, #100]
 2917              		.loc 1 365 0
 2918 015c 1C94     		str	r4, [sp, #112]
 2919              		.loc 1 367 0
 2920 015e 1E94     		str	r4, [sp, #120]
 2921              		.loc 1 371 0
 2922 0160 CDF88880 		str	r8, [sp, #136]
 2923              		.loc 1 373 0
 2924 0164 2494     		str	r4, [sp, #144]
 2925              		.loc 1 374 0
 2926 0166 2594     		str	r4, [sp, #148]
 2927              		.loc 1 375 0
 2928 0168 2694     		str	r4, [sp, #152]
 2929              		.loc 1 376 0
 2930 016a 2794     		str	r4, [sp, #156]
 2931              		.loc 1 366 0
 2932 016c CDF874A0 		str	r10, [sp, #116]
 2933              		.loc 1 377 0
 2934 0170 FFF7FEFF 		bl	DMA_Init
 2935              	.LVL118:
 2936              		.loc 1 380 0
 2937 0174 2946     		mov	r1, r5
 2938 0176 8648     		ldr	r0, .L231+32
 2939 0178 FFF7FEFF 		bl	DMA_Cmd
 2940              	.LVL119:
 2941              		.loc 1 383 0
 2942 017c 1021     		movs	r1, #16
 2943 017e 2A46     		mov	r2, r5
 2944 0180 8348     		ldr	r0, .L231+32
 2945 0182 FFF7FEFF 		bl	DMA_ITConfig
 2946              	.LVL120:
 2947              		.loc 1 388 0
 2948 0186 1622     		movs	r2, #22
 2949              		.loc 1 390 0
 2950 0188 4FF48043 		mov	r3, #16384
 2951              		.loc 1 392 0
 2952 018c 0AA8     		add	r0, sp, #40
 2953              		.loc 1 388 0
 2954 018e 0A92     		str	r2, [sp, #40]
 2955              		.loc 1 390 0
 2956 0190 0C93     		str	r3, [sp, #48]
 2957              		.loc 1 389 0
 2958 0192 0B94     		str	r4, [sp, #44]
 2959              		.loc 1 391 0
 2960 0194 0D94     		str	r4, [sp, #52]
 2961              		.loc 1 392 0
 2962 0196 FFF7FEFF 		bl	ADC_CommonInit
 2963              	.LVL121:
 2964              		.loc 1 399 0
ARM GAS  /var/folders/bz/nn5481rn5xq59rb0mbj7x0880000gn/T//ccKvLbC4.s 			page 53


 2965 019a 4FF05063 		mov	r3, #218103808
 2966              		.loc 1 398 0
 2967 019e 4FF00052 		mov	r2, #536870912
 2968              		.loc 1 403 0
 2969 01a2 13A9     		add	r1, sp, #76
 2970 01a4 7B48     		ldr	r0, .L231+36
 2971              		.loc 1 399 0
 2972 01a6 1693     		str	r3, [sp, #88]
 2973              		.loc 1 398 0
 2974 01a8 1592     		str	r2, [sp, #84]
 2975              		.loc 1 395 0
 2976 01aa 1394     		str	r4, [sp, #76]
 2977              		.loc 1 396 0
 2978 01ac 8DF85050 		strb	r5, [sp, #80]
 2979              		.loc 1 397 0
 2980 01b0 8DF85140 		strb	r4, [sp, #81]
 2981              		.loc 1 400 0
 2982 01b4 1794     		str	r4, [sp, #92]
 2983              		.loc 1 401 0
 2984 01b6 8DF86090 		strb	r9, [sp, #96]
 2985              		.loc 1 403 0
 2986 01ba FFF7FEFF 		bl	ADC_Init
 2987              	.LVL122:
 2988              		.loc 1 406 0
 2989 01be 13A9     		add	r1, sp, #76
 2990 01c0 7548     		ldr	r0, .L231+40
 2991              		.loc 1 404 0
 2992 01c2 1594     		str	r4, [sp, #84]
 2993              		.loc 1 405 0
 2994 01c4 1694     		str	r4, [sp, #88]
 2995              		.loc 1 406 0
 2996 01c6 FFF7FEFF 		bl	ADC_Init
 2997              	.LVL123:
 2998              		.loc 1 407 0
 2999 01ca 13A9     		add	r1, sp, #76
 3000 01cc 7348     		ldr	r0, .L231+44
 3001 01ce FFF7FEFF 		bl	ADC_Init
 3002              	.LVL124:
 3003              		.loc 1 409 0
 3004 01d2 FFF7FEFF 		bl	hw_setup_adc_channels
 3005              	.LVL125:
 3006              		.loc 1 412 0
 3007 01d6 2846     		mov	r0, r5
 3008 01d8 FFF7FEFF 		bl	ADC_MultiModeDMARequestAfterLastTransferCmd
 3009              	.LVL126:
 3010              		.loc 1 415 0
 3011 01dc 6D48     		ldr	r0, .L231+36
 3012 01de 4FF44021 		mov	r1, #786432
 3013 01e2 FFF7FEFF 		bl	ADC_ExternalTrigInjectedConvConfig
 3014              	.LVL127:
 3015              		.loc 1 416 0
 3016 01e6 6C48     		ldr	r0, .L231+40
 3017 01e8 4FF45021 		mov	r1, #851968
 3018 01ec FFF7FEFF 		bl	ADC_ExternalTrigInjectedConvConfig
 3019              	.LVL128:
 3020              		.loc 1 417 0
 3021 01f0 6848     		ldr	r0, .L231+36
ARM GAS  /var/folders/bz/nn5481rn5xq59rb0mbj7x0880000gn/T//ccKvLbC4.s 			page 54


 3022 01f2 4FF40011 		mov	r1, #2097152
 3023 01f6 FFF7FEFF 		bl	ADC_ExternalTrigInjectedConvEdgeConfig
 3024              	.LVL129:
 3025              		.loc 1 418 0
 3026 01fa 6748     		ldr	r0, .L231+40
 3027 01fc 4FF40011 		mov	r1, #2097152
 3028 0200 FFF7FEFF 		bl	ADC_ExternalTrigInjectedConvEdgeConfig
 3029              	.LVL130:
 3030              		.loc 1 419 0
 3031 0204 2946     		mov	r1, r5
 3032 0206 6348     		ldr	r0, .L231+36
 3033 0208 FFF7FEFF 		bl	ADC_InjectedSequencerLengthConfig
 3034              	.LVL131:
 3035              		.loc 1 420 0
 3036 020c 2946     		mov	r1, r5
 3037 020e 6248     		ldr	r0, .L231+40
 3038 0210 FFF7FEFF 		bl	ADC_InjectedSequencerLengthConfig
 3039              	.LVL132:
 3040              		.loc 1 423 0
 3041 0214 40F20741 		movw	r1, #1031
 3042 0218 2A46     		mov	r2, r5
 3043 021a 5E48     		ldr	r0, .L231+36
 3044 021c FFF7FEFF 		bl	ADC_ITConfig
 3045              	.LVL133:
 3046              		.loc 1 425 0
 3047 0220 0323     		movs	r3, #3
 3048              		.loc 1 424 0
 3049 0222 1222     		movs	r2, #18
 3050              		.loc 1 428 0
 3051 0224 02A8     		add	r0, sp, #8
 3052              		.loc 1 424 0
 3053 0226 8DF80820 		strb	r2, [sp, #8]
 3054              		.loc 1 425 0
 3055 022a 8DF80930 		strb	r3, [sp, #9]
 3056              		.loc 1 426 0
 3057 022e 8DF80A30 		strb	r3, [sp, #10]
 3058              		.loc 1 427 0
 3059 0232 8DF80B50 		strb	r5, [sp, #11]
 3060              		.loc 1 428 0
 3061 0236 FFF7FEFF 		bl	NVIC_Init
 3062              	.LVL134:
 3063              		.loc 1 431 0
 3064 023a 2946     		mov	r1, r5
 3065 023c 5548     		ldr	r0, .L231+36
 3066 023e FFF7FEFF 		bl	ADC_Cmd
 3067              	.LVL135:
 3068              		.loc 1 434 0
 3069 0242 2946     		mov	r1, r5
 3070 0244 5448     		ldr	r0, .L231+40
 3071 0246 FFF7FEFF 		bl	ADC_Cmd
 3072              	.LVL136:
 3073              		.loc 1 437 0
 3074 024a 2946     		mov	r1, r5
 3075 024c 5348     		ldr	r0, .L231+44
 3076 024e FFF7FEFF 		bl	ADC_Cmd
 3077              	.LVL137:
 3078              		.loc 1 441 0
ARM GAS  /var/folders/bz/nn5481rn5xq59rb0mbj7x0880000gn/T//ccKvLbC4.s 			page 55


 3079 0252 2946     		mov	r1, r5
 3080 0254 0220     		movs	r0, #2
 3081 0256 FFF7FEFF 		bl	RCC_APB2PeriphClockCmd
 3082              	.LVL138:
 3083              		.loc 1 449 0
 3084 025a 3846     		mov	r0, r7
 3085 025c 0DEB0A01 		add	r1, sp, r10
 3086              		.loc 1 445 0
 3087 0260 DBF80020 		ldr	r2, [fp]
 3088              		.loc 1 443 0
 3089 0264 ADF80C40 		strh	r4, [sp, #12]	@ movhi
 3090              		.loc 1 444 0
 3091 0268 ADF80E40 		strh	r4, [sp, #14]	@ movhi
 3092              		.loc 1 446 0
 3093 026c ADF81440 		strh	r4, [sp, #20]	@ movhi
 3094              		.loc 1 447 0
 3095 0270 8DF81640 		strb	r4, [sp, #22]
 3096              		.loc 1 445 0
 3097 0274 4A4B     		ldr	r3, .L231+48
 3098 0276 93FBF2F3 		sdiv	r3, r3, r2
 3099 027a 0493     		str	r3, [sp, #16]
 3100              		.loc 1 449 0
 3101 027c FFF7FEFF 		bl	TIM_TimeBaseInit
 3102              	.LVL139:
 3103              		.loc 1 451 0
 3104 0280 4FF06002 		mov	r2, #96	@ movhi
 3105              		.loc 1 453 0
 3106 0284 F36A     		ldr	r3, [r6, #44]
 3107              		.loc 1 451 0
 3108 0286 ADF83820 		strh	r2, [sp, #56]	@ movhi
 3109              		.loc 1 458 0
 3110 028a 3846     		mov	r0, r7
 3111              		.loc 1 457 0
 3112 028c 4FF40072 		mov	r2, #512	@ movhi
 3113              		.loc 1 458 0
 3114 0290 0EA9     		add	r1, sp, #56
 3115              		.loc 1 457 0
 3116 0292 ADF84A20 		strh	r2, [sp, #74]	@ movhi
 3117              		.loc 1 453 0
 3118 0296 1093     		str	r3, [sp, #64]
 3119              		.loc 1 452 0
 3120 0298 ADF83A50 		strh	r5, [sp, #58]	@ movhi
 3121              		.loc 1 454 0
 3122 029c ADF84440 		strh	r4, [sp, #68]	@ movhi
 3123              		.loc 1 455 0
 3124 02a0 ADF84640 		strh	r4, [sp, #70]	@ movhi
 3125              		.loc 1 456 0
 3126 02a4 ADF84880 		strh	r8, [sp, #72]	@ movhi
 3127              		.loc 1 458 0
 3128 02a8 FFF7FEFF 		bl	TIM_OC1Init
 3129              	.LVL140:
 3130 02ac 3846     		mov	r0, r7
 3131 02ae 0821     		movs	r1, #8
 3132 02b0 FFF7FEFF 		bl	TIM_OC1PreloadConfig
 3133              	.LVL141:
 3134              		.loc 1 459 0
 3135 02b4 3846     		mov	r0, r7
ARM GAS  /var/folders/bz/nn5481rn5xq59rb0mbj7x0880000gn/T//ccKvLbC4.s 			page 56


 3136 02b6 0EA9     		add	r1, sp, #56
 3137 02b8 FFF7FEFF 		bl	TIM_OC2Init
 3138              	.LVL142:
 3139 02bc 3846     		mov	r0, r7
 3140 02be 0821     		movs	r1, #8
 3141 02c0 FFF7FEFF 		bl	TIM_OC2PreloadConfig
 3142              	.LVL143:
 3143              		.loc 1 460 0
 3144 02c4 3846     		mov	r0, r7
 3145 02c6 0EA9     		add	r1, sp, #56
 3146 02c8 FFF7FEFF 		bl	TIM_OC3Init
 3147              	.LVL144:
 3148 02cc 3846     		mov	r0, r7
 3149 02ce 0821     		movs	r1, #8
 3150 02d0 FFF7FEFF 		bl	TIM_OC3PreloadConfig
 3151              	.LVL145:
 3152              		.loc 1 462 0
 3153 02d4 3846     		mov	r0, r7
 3154 02d6 2946     		mov	r1, r5
 3155 02d8 FFF7FEFF 		bl	TIM_ARRPreloadConfig
 3156              	.LVL146:
 3157              		.loc 1 463 0
 3158 02dc 3846     		mov	r0, r7
 3159 02de 2946     		mov	r1, r5
 3160 02e0 FFF7FEFF 		bl	TIM_CCPreloadControl
 3161              	.LVL147:
 3162              		.loc 1 466 0
 3163 02e4 3846     		mov	r0, r7
 3164 02e6 2946     		mov	r1, r5
 3165 02e8 FFF7FEFF 		bl	TIM_CtrlPWMOutputs
 3166              	.LVL148:
 3167              		.loc 1 469 0
 3168 02ec 3046     		mov	r0, r6
 3169 02ee 2021     		movs	r1, #32
 3170 02f0 FFF7FEFF 		bl	TIM_SelectOutputTrigger
 3171              	.LVL149:
 3172              		.loc 1 470 0
 3173 02f4 3046     		mov	r0, r6
 3174 02f6 8021     		movs	r1, #128
 3175 02f8 FFF7FEFF 		bl	TIM_SelectMasterSlaveMode
 3176              	.LVL150:
 3177              		.loc 1 471 0
 3178 02fc 3846     		mov	r0, r7
 3179 02fe 2146     		mov	r1, r4
 3180 0300 FFF7FEFF 		bl	TIM_SelectInputTrigger
 3181              	.LVL151:
 3182              		.loc 1 472 0
 3183 0304 3846     		mov	r0, r7
 3184 0306 4946     		mov	r1, r9
 3185 0308 FFF7FEFF 		bl	TIM_SelectSlaveMode
 3186              	.LVL152:
 3187              		.loc 1 475 0
 3188 030c 3846     		mov	r0, r7
 3189 030e 2946     		mov	r1, r5
 3190 0310 FFF7FEFF 		bl	TIM_Cmd
 3191              	.LVL153:
 3192              		.loc 1 478 0
ARM GAS  /var/folders/bz/nn5481rn5xq59rb0mbj7x0880000gn/T//ccKvLbC4.s 			page 57


 3193 0314 3046     		mov	r0, r6
 3194 0316 2946     		mov	r1, r5
 3195 0318 FFF7FEFF 		bl	TIM_Cmd
 3196              	.LVL154:
 3197              		.loc 1 481 0
 3198 031c 3046     		mov	r0, r6
 3199 031e 2946     		mov	r1, r5
 3200 0320 FFF7FEFF 		bl	TIM_CtrlPWMOutputs
 3201              	.LVL155:
 3202              		.loc 1 484 0
 3203 0324 2846     		mov	r0, r5
 3204 0326 2946     		mov	r1, r5
 3205 0328 FFF7FEFF 		bl	RCC_APB1PeriphClockCmd
 3206              	.LVL156:
 3207              		.loc 1 488 0
 3208 032c 4FF0FF32 		mov	r2, #-1
 3209              		.loc 1 489 0
 3210 0330 5323     		movs	r3, #83
 3211              		.loc 1 492 0
 3212 0332 0DEB0A01 		add	r1, sp, r10
 3213 0336 4FF08040 		mov	r0, #1073741824
 3214              		.loc 1 488 0
 3215 033a 0492     		str	r2, [sp, #16]
 3216              		.loc 1 489 0
 3217 033c ADF80C30 		strh	r3, [sp, #12]	@ movhi
 3218              		.loc 1 490 0
 3219 0340 ADF81440 		strh	r4, [sp, #20]	@ movhi
 3220              		.loc 1 491 0
 3221 0344 ADF80E40 		strh	r4, [sp, #14]	@ movhi
 3222              		.loc 1 492 0
 3223 0348 FFF7FEFF 		bl	TIM_TimeBaseInit
 3224              	.LVL157:
 3225              		.loc 1 495 0
 3226 034c 2946     		mov	r1, r5
 3227 034e 4FF08040 		mov	r0, #1073741824
 3228 0352 FFF7FEFF 		bl	TIM_Cmd
 3229              	.LVL158:
 3230              		.loc 1 500 0
 3231 0356 FFF7FEFF 		bl	utils_sys_lock_cnt
 3232              	.LVL159:
 3233              		.loc 1 503 0
 3234 035a 3388     		ldrh	r3, [r6]
 3235 035c 9BB2     		uxth	r3, r3
 3236 035e 43F00203 		orr	r3, r3, #2
 3237 0362 3380     		strh	r3, [r6]	@ movhi
 3238              		.loc 1 504 0
 3239 0364 3B88     		ldrh	r3, [r7]
 3240 0366 9BB2     		uxth	r3, r3
 3241              		.loc 1 506 0
 3242 0368 4FF4FA72 		mov	r2, #500
 3243 036c 20E0     		b	.L232
 3244              	.L233:
 3245 036e 00BF     		.align	2
 3246              	.L231:
 3247 0370 00000000 		.word	.LANCHOR36
 3248 0374 00000140 		.word	1073807360
 3249 0378 00040140 		.word	1073808384
ARM GAS  /var/folders/bz/nn5481rn5xq59rb0mbj7x0880000gn/T//ccKvLbC4.s 			page 58


 3250 037c 00000000 		.word	.LANCHOR37
 3251 0380 00BD0105 		.word	84000000
 3252 0384 05004000 		.word	4194309
 3253 0388 00000000 		.word	mcpwm_adc_int_handler
 3254 038c 90000000 		.word	_stm32_dma_streams+144
 3255 0390 70640240 		.word	1073898608
 3256 0394 00200140 		.word	1073815552
 3257 0398 00210140 		.word	1073815808
 3258 039c 00220140 		.word	1073816064
 3259 03a0 007A030A 		.word	168000000
 3260 03a4 00000000 		.word	.LANCHOR38
 3261 03a8 00000000 		.word	.LANCHOR4
 3262 03ac 08230140 		.word	1073816328
 3263              	.L232:
 3264              		.loc 1 504 0
 3265 03b0 43F00203 		orr	r3, r3, #2
 3266 03b4 3B80     		strh	r3, [r7]	@ movhi
 3267              		.loc 1 506 0
 3268 03b6 7A63     		str	r2, [r7, #52]
 3269              		.loc 1 507 0
 3270 03b8 F36A     		ldr	r3, [r6, #44]
 3271 03ba BB63     		str	r3, [r7, #56]
 3272              		.loc 1 508 0
 3273 03bc F36A     		ldr	r3, [r6, #44]
 3274 03be FB63     		str	r3, [r7, #60]
 3275              		.loc 1 511 0
 3276 03c0 3388     		ldrh	r3, [r6]
 3277 03c2 23F00203 		bic	r3, r3, #2
 3278 03c6 1B04     		lsls	r3, r3, #16
 3279 03c8 1B0C     		lsrs	r3, r3, #16
 3280 03ca 3380     		strh	r3, [r6]	@ movhi
 3281              		.loc 1 512 0
 3282 03cc 3B88     		ldrh	r3, [r7]
 3283 03ce 23F00203 		bic	r3, r3, #2
 3284 03d2 1B04     		lsls	r3, r3, #16
 3285 03d4 1B0C     		lsrs	r3, r3, #16
 3286 03d6 3B80     		strh	r3, [r7]	@ movhi
 3287              		.loc 1 514 0
 3288 03d8 FFF7FEFF 		bl	utils_sys_unlock_cnt
 3289              	.LVL160:
 3290              		.loc 1 518 0
 3291 03dc 384B     		ldr	r3, .L234
 3292              	.LBB68:
 3293              	.LBB69:
 3294              		.loc 1 584 0
 3295 03de 394A     		ldr	r2, .L234+4
 3296              	.LBE69:
 3297              	.LBE68:
 3298              		.loc 1 519 0
 3299 03e0 8021     		movs	r1, #128
 3300              		.loc 1 518 0
 3301 03e2 4020     		movs	r0, #64
 3302 03e4 1883     		strh	r0, [r3, #24]	@ movhi
 3303              		.loc 1 519 0
 3304 03e6 5983     		strh	r1, [r3, #26]	@ movhi
 3305              		.loc 1 520 0
 3306 03e8 A3F81A80 		strh	r8, [r3, #26]	@ movhi
ARM GAS  /var/folders/bz/nn5481rn5xq59rb0mbj7x0880000gn/T//ccKvLbC4.s 			page 59


 3307              	.LBB72:
 3308              	.LBB70:
 3309              		.loc 1 583 0
 3310 03ec 1983     		strh	r1, [r3, #24]	@ movhi
 3311              	.L225:
 3312              		.loc 1 584 0
 3313 03ee 1369     		ldr	r3, [r2, #16]
 3314 03f0 DB04     		lsls	r3, r3, #19
 3315 03f2 FCD5     		bpl	.L225
 3316              		.loc 1 585 0
 3317 03f4 42F21070 		movw	r0, #10000
 3318 03f8 FFF7FEFF 		bl	chThdSleep
 3319              	.LVL161:
 3320              		.loc 1 586 0
 3321 03fc 324C     		ldr	r4, .L234+8
 3322              		.loc 1 587 0
 3323 03fe 3348     		ldr	r0, .L234+12
 3324              		.loc 1 588 0
 3325 0400 3349     		ldr	r1, .L234+16
 3326              		.loc 1 586 0
 3327 0402 0023     		movs	r3, #0
 3328 0404 2360     		str	r3, [r4]
 3329              		.loc 1 587 0
 3330 0406 0360     		str	r3, [r0]
 3331              		.loc 1 588 0
 3332 0408 0B60     		str	r3, [r1]
 3333              	.L226:
 3334              		.loc 1 589 0
 3335 040a 0B68     		ldr	r3, [r1]
 3336 040c 304A     		ldr	r2, .L234+16
 3337 040e B3F57A6F 		cmp	r3, #4000
 3338 0412 FADB     		blt	.L226
 3339              		.loc 1 590 0
 3340 0414 2F49     		ldr	r1, .L234+20
 3341              		.loc 1 591 0
 3342 0416 304F     		ldr	r7, .L234+24
 3343              		.loc 1 590 0
 3344 0418 2368     		ldr	r3, [r4]
 3345              		.loc 1 592 0
 3346 041a 294E     		ldr	r6, .L234
 3347              		.loc 1 590 0
 3348 041c 1468     		ldr	r4, [r2]
 3349 041e 93FBF4F3 		sdiv	r3, r3, r4
 3350 0422 0B60     		str	r3, [r1]
 3351              		.loc 1 591 0
 3352 0424 0368     		ldr	r3, [r0]
 3353 0426 1268     		ldr	r2, [r2]
 3354 0428 93FBF2F3 		sdiv	r3, r3, r2
 3355              		.loc 1 593 0
 3356 042c 0125     		movs	r5, #1
 3357              		.loc 1 591 0
 3358 042e 3B60     		str	r3, [r7]
 3359              		.loc 1 592 0
 3360 0430 8024     		movs	r4, #128
 3361              		.loc 1 593 0
 3362 0432 2A4B     		ldr	r3, .L234+28
 3363              		.loc 1 592 0
ARM GAS  /var/folders/bz/nn5481rn5xq59rb0mbj7x0880000gn/T//ccKvLbC4.s 			page 60


 3364 0434 7483     		strh	r4, [r6, #26]	@ movhi
 3365              	.LBE70:
 3366              	.LBE72:
 3367              		.loc 1 525 0
 3368 0436 2946     		mov	r1, r5
 3369 0438 4020     		movs	r0, #64
 3370              		.loc 1 531 0
 3371 043a 0024     		movs	r4, #0
 3372              	.LBB73:
 3373              	.LBB71:
 3374              		.loc 1 593 0
 3375 043c 1D70     		strb	r5, [r3]
 3376              	.LBE71:
 3377              	.LBE73:
 3378              		.loc 1 525 0
 3379 043e FFF7FEFF 		bl	RCC_APB1PeriphClockCmd
 3380              	.LVL162:
 3381              		.loc 1 529 0
 3382 0442 4FF0FF32 		mov	r2, #-1
 3383              		.loc 1 530 0
 3384 0446 0723     		movs	r3, #7
 3385              		.loc 1 533 0
 3386 0448 03A9     		add	r1, sp, #12
 3387 044a 2548     		ldr	r0, .L234+32
 3388              		.loc 1 529 0
 3389 044c 0492     		str	r2, [sp, #16]
 3390              		.loc 1 530 0
 3391 044e ADF80C30 		strh	r3, [sp, #12]	@ movhi
 3392              		.loc 1 531 0
 3393 0452 ADF81440 		strh	r4, [sp, #20]	@ movhi
 3394              		.loc 1 532 0
 3395 0456 ADF80E40 		strh	r4, [sp, #14]	@ movhi
 3396              		.loc 1 533 0
 3397 045a FFF7FEFF 		bl	TIM_TimeBaseInit
 3398              	.LVL163:
 3399              		.loc 1 536 0
 3400 045e 2946     		mov	r1, r5
 3401 0460 1F48     		ldr	r0, .L234+32
 3402              	.LBB74:
 3403              	.LBB75:
 3404              		.loc 1 1534 0
 3405 0462 204E     		ldr	r6, .L234+36
 3406              	.LBE75:
 3407              	.LBE74:
 3408              		.loc 1 536 0
 3409 0464 FFF7FEFF 		bl	TIM_Cmd
 3410              	.LVL164:
 3411              		.loc 1 539 0
 3412 0468 1F4B     		ldr	r3, .L234+40
 3413 046a 0094     		str	r4, [sp]
 3414 046c 4022     		movs	r2, #64
 3415 046e 40F69811 		movw	r1, #2456
 3416 0472 1E48     		ldr	r0, .L234+44
 3417 0474 FFF7FEFF 		bl	chThdCreateStatic
 3418              	.LVL165:
 3419              		.loc 1 543 0
 3420 0478 2946     		mov	r1, r5
ARM GAS  /var/folders/bz/nn5481rn5xq59rb0mbj7x0880000gn/T//ccKvLbC4.s 			page 61


 3421 047a 4FF40060 		mov	r0, #2048
 3422 047e FFF7FEFF 		bl	RCC_APB1PeriphClockCmd
 3423              	.LVL166:
 3424              		.loc 1 544 0
 3425 0482 2046     		mov	r0, r4
 3426 0484 FFF7FEFF 		bl	WWDG_SetPrescaler
 3427              	.LVL167:
 3428              		.loc 1 545 0
 3429 0488 FF20     		movs	r0, #255
 3430 048a FFF7FEFF 		bl	WWDG_SetWindowValue
 3431              	.LVL168:
 3432              		.loc 1 546 0
 3433 048e 6420     		movs	r0, #100
 3434 0490 FFF7FEFF 		bl	WWDG_Enable
 3435              	.LVL169:
 3436              	.LBB77:
 3437              	.LBB76:
 3438              		.loc 1 1534 0
 3439 0494 164B     		ldr	r3, .L234+48
 3440              		.loc 1 1541 0
 3441 0496 1748     		ldr	r0, .L234+52
 3442              		.loc 1 1542 0
 3443 0498 1749     		ldr	r1, .L234+56
 3444              		.loc 1 1543 0
 3445 049a 184A     		ldr	r2, .L234+60
 3446              		.loc 1 1539 0
 3447 049c 184D     		ldr	r5, .L234+64
 3448              		.loc 1 1534 0
 3449 049e 9E61     		str	r6, [r3, #24]	@ float
 3450              		.loc 1 1539 0
 3451 04a0 1D61     		str	r5, [r3, #16]	@ float
 3452              		.loc 1 1541 0
 3453 04a2 9863     		str	r0, [r3, #56]	@ float
 3454              		.loc 1 1542 0
 3455 04a4 D963     		str	r1, [r3, #60]	@ float
 3456              		.loc 1 1543 0
 3457 04a6 1A65     		str	r2, [r3, #80]	@ float
 3458              	.LBE76:
 3459              	.LBE77:
 3460              		.loc 1 552 0
 3461 04a8 FFF7FEFF 		bl	SetupControlParameters
 3462              	.LVL170:
 3463              		.loc 1 553 0
 3464 04ac FFF7FEFF 		bl	FWInit
 3465              	.LVL171:
 3466              		.loc 1 564 0
 3467 04b0 144B     		ldr	r3, .L234+68
 3468              		.loc 1 573 0
 3469 04b2 0222     		movs	r2, #2
 3470              		.loc 1 564 0
 3471 04b4 1C80     		strh	r4, [r3]	@ movhi
 3472              		.loc 1 573 0
 3473 04b6 1A70     		strb	r2, [r3]
 3474              		.loc 1 575 0
 3475 04b8 29B0     		add	sp, sp, #164
 3476              		.cfi_def_cfa_offset 36
 3477              		@ sp needed
ARM GAS  /var/folders/bz/nn5481rn5xq59rb0mbj7x0880000gn/T//ccKvLbC4.s 			page 62


 3478 04ba BDE8F08F 		pop	{r4, r5, r6, r7, r8, r9, r10, fp, pc}
 3479              	.L235:
 3480 04be 00BF     		.align	2
 3481              	.L234:
 3482 04c0 00080240 		.word	1073874944
 3483 04c4 00040240 		.word	1073873920
 3484 04c8 00000000 		.word	.LANCHOR30
 3485 04cc 00000000 		.word	.LANCHOR31
 3486 04d0 00000000 		.word	.LANCHOR32
 3487 04d4 00000000 		.word	.LANCHOR2
 3488 04d8 00000000 		.word	.LANCHOR3
 3489 04dc 00000000 		.word	.LANCHOR37
 3490 04e0 00180040 		.word	1073747968
 3491 04e4 00007C3F 		.word	1065091072
 3492 04e8 00000000 		.word	SEQUENCE_thread
 3493 04ec 00000000 		.word	.LANCHOR39
 3494 04f0 00000000 		.word	.LANCHOR17
 3495 04f4 9A99593F 		.word	1062836634
 3496 04f8 0AD7A33B 		.word	1000593162
 3497 04fc 2FE34D3A 		.word	978182959
 3498 0500 5555D53D 		.word	1037391189
 3499 0504 00000000 		.word	.LANCHOR13
 3500              		.cfi_endproc
 3501              	.LFE119:
 3502              		.size	mcpwm_init, .-mcpwm_init
 3503              		.section	.text.FieldWeakening,"ax",%progbits
 3504              		.align	2
 3505              		.p2align 4,,15
 3506              		.global	FieldWeakening
 3507              		.thumb
 3508              		.thumb_func
 3509              		.type	FieldWeakening, %function
 3510              	FieldWeakening:
 3511              	.LFB145:
 3512              		.loc 1 1888 0
 3513              		.cfi_startproc
 3514              		@ args = 0, pretend = 0, frame = 0
 3515              		@ frame_needed = 0, uses_anonymous_args = 0
 3516              		@ link register save eliminated.
 3517              	.LVL172:
 3518              		.loc 1 1890 0
 3519 0000 0B4B     		ldr	r3, .L243
 3520 0002 D3ED027A 		flds	s15, [r3, #8]
 3521 0006 F4EEC07A 		fcmpes	s15, s0
 3522 000a F1EE10FA 		fmstat
 3523 000e 0ADA     		bge	.L242
 3524              		.loc 1 1901 0
 3525 0010 70EE677A 		fsubs	s15, s0, s15
 3526 0014 93ED010A 		flds	s0, [r3, #4]
 3527              	.LVL173:
 3528 0018 C3ED057A 		fsts	s15, [r3, #20]
 3529              		.loc 1 1902 0
 3530 001c FDEEE77A 		ftosizs	s15, s15
 3531 0020 C3ED047A 		fsts	s15, [r3, #16]	@ int
 3532              		.loc 1 1913 0
 3533 0024 7047     		bx	lr
 3534              	.LVL174:
ARM GAS  /var/folders/bz/nn5481rn5xq59rb0mbj7x0880000gn/T//ccKvLbC4.s 			page 63


 3535              	.L242:
 3536              		.loc 1 1893 0
 3537 0026 93ED070A 		flds	s0, [r3, #28]
 3538              	.LVL175:
 3539 002a 83ED010A 		fsts	s0, [r3, #4]
 3540 002e 7047     		bx	lr
 3541              	.L244:
 3542              		.align	2
 3543              	.L243:
 3544 0030 00000000 		.word	.LANCHOR20
 3545              		.cfi_endproc
 3546              	.LFE145:
 3547              		.size	FieldWeakening, .-FieldWeakening
 3548              		.section	.text.stop_pwm_hw,"ax",%progbits
 3549              		.align	2
 3550              		.p2align 4,,15
 3551              		.global	stop_pwm_hw
 3552              		.thumb
 3553              		.thumb_func
 3554              		.type	stop_pwm_hw, %function
 3555              	stop_pwm_hw:
 3556              	.LFB147:
 3557              		.loc 1 1946 0
 3558              		.cfi_startproc
 3559              		@ args = 0, pretend = 0, frame = 0
 3560              		@ frame_needed = 0, uses_anonymous_args = 0
 3561 0000 10B5     		push	{r4, lr}
 3562              		.cfi_def_cfa_offset 8
 3563              		.cfi_offset 4, -8
 3564              		.cfi_offset 14, -4
 3565              		.loc 1 1947 0
 3566 0002 1A4C     		ldr	r4, .L247
 3567 0004 0021     		movs	r1, #0
 3568 0006 2046     		mov	r0, r4
 3569 0008 4022     		movs	r2, #64
 3570 000a FFF7FEFF 		bl	TIM_SelectOCxM
 3571              	.LVL176:
 3572              		.loc 1 1948 0
 3573 000e 2046     		mov	r0, r4
 3574 0010 0021     		movs	r1, #0
 3575 0012 0122     		movs	r2, #1
 3576 0014 FFF7FEFF 		bl	TIM_CCxCmd
 3577              	.LVL177:
 3578              		.loc 1 1949 0
 3579 0018 0021     		movs	r1, #0
 3580 001a 2046     		mov	r0, r4
 3581 001c 0A46     		mov	r2, r1
 3582 001e FFF7FEFF 		bl	TIM_CCxNCmd
 3583              	.LVL178:
 3584              		.loc 1 1951 0
 3585 0022 2046     		mov	r0, r4
 3586 0024 0421     		movs	r1, #4
 3587 0026 4022     		movs	r2, #64
 3588 0028 FFF7FEFF 		bl	TIM_SelectOCxM
 3589              	.LVL179:
 3590              		.loc 1 1952 0
 3591 002c 2046     		mov	r0, r4
ARM GAS  /var/folders/bz/nn5481rn5xq59rb0mbj7x0880000gn/T//ccKvLbC4.s 			page 64


 3592 002e 0421     		movs	r1, #4
 3593 0030 0122     		movs	r2, #1
 3594 0032 FFF7FEFF 		bl	TIM_CCxCmd
 3595              	.LVL180:
 3596              		.loc 1 1953 0
 3597 0036 2046     		mov	r0, r4
 3598 0038 0421     		movs	r1, #4
 3599 003a 0022     		movs	r2, #0
 3600 003c FFF7FEFF 		bl	TIM_CCxNCmd
 3601              	.LVL181:
 3602              		.loc 1 1955 0
 3603 0040 2046     		mov	r0, r4
 3604 0042 0821     		movs	r1, #8
 3605 0044 4022     		movs	r2, #64
 3606 0046 FFF7FEFF 		bl	TIM_SelectOCxM
 3607              	.LVL182:
 3608              		.loc 1 1956 0
 3609 004a 2046     		mov	r0, r4
 3610 004c 0821     		movs	r1, #8
 3611 004e 0122     		movs	r2, #1
 3612 0050 FFF7FEFF 		bl	TIM_CCxCmd
 3613              	.LVL183:
 3614              		.loc 1 1957 0
 3615 0054 2046     		mov	r0, r4
 3616 0056 0821     		movs	r1, #8
 3617 0058 0022     		movs	r2, #0
 3618 005a FFF7FEFF 		bl	TIM_CCxNCmd
 3619              	.LVL184:
 3620              		.loc 1 1959 0
 3621 005e 2046     		mov	r0, r4
 3622 0060 2021     		movs	r1, #32
 3623              		.loc 1 1960 0
 3624 0062 BDE81040 		pop	{r4, lr}
 3625              		.cfi_restore 14
 3626              		.cfi_restore 4
 3627              		.cfi_def_cfa_offset 0
 3628              		.loc 1 1959 0
 3629 0066 FFF7FEBF 		b	TIM_GenerateEvent
 3630              	.LVL185:
 3631              	.L248:
 3632 006a 00BF     		.align	2
 3633              	.L247:
 3634 006c 00000140 		.word	1073807360
 3635              		.cfi_endproc
 3636              	.LFE147:
 3637              		.size	stop_pwm_hw, .-stop_pwm_hw
 3638              		.section	.text.mcpwm_get_tot_current,"ax",%progbits
 3639              		.align	2
 3640              		.p2align 4,,15
 3641              		.global	mcpwm_get_tot_current
 3642              		.thumb
 3643              		.thumb_func
 3644              		.type	mcpwm_get_tot_current, %function
 3645              	mcpwm_get_tot_current:
 3646              	.LFB148:
 3647              		.loc 1 1972 0
 3648              		.cfi_startproc
ARM GAS  /var/folders/bz/nn5481rn5xq59rb0mbj7x0880000gn/T//ccKvLbC4.s 			page 65


 3649              		@ args = 0, pretend = 0, frame = 0
 3650              		@ frame_needed = 0, uses_anonymous_args = 0
 3651              		@ link register save eliminated.
 3652              		.loc 1 1973 0
 3653 0000 054B     		ldr	r3, .L250
 3654 0002 9FED067A 		flds	s14, .L250+4
 3655 0006 D3ED007A 		flds	s15, [r3]
 3656 000a 9FED050A 		flds	s0, .L250+8
 3657 000e 67EE877A 		fmuls	s15, s15, s14
 3658              		.loc 1 1974 0
 3659 0012 87EE800A 		fdivs	s0, s15, s0
 3660 0016 7047     		bx	lr
 3661              	.L251:
 3662              		.align	2
 3663              	.L250:
 3664 0018 00000000 		.word	.LANCHOR40
 3665 001c 6740533A 		.word	978534503
 3666 0020 0BD7233C 		.word	1008981771
 3667              		.cfi_endproc
 3668              	.LFE148:
 3669              		.size	mcpwm_get_tot_current, .-mcpwm_get_tot_current
 3670              		.section	.text.mcpwm_get_rpm,"ax",%progbits
 3671              		.align	2
 3672              		.p2align 4,,15
 3673              		.global	mcpwm_get_rpm
 3674              		.thumb
 3675              		.thumb_func
 3676              		.type	mcpwm_get_rpm, %function
 3677              	mcpwm_get_rpm:
 3678              	.LFB150:
 3679              		.loc 1 2000 0
 3680              		.cfi_startproc
 3681              		@ args = 0, pretend = 0, frame = 0
 3682              		@ frame_needed = 0, uses_anonymous_args = 0
 3683              		@ link register save eliminated.
 3684              		.loc 1 2001 0
 3685 0000 064B     		ldr	r3, .L256
 3686 0002 1B68     		ldr	r3, [r3]
 3687 0004 1BB1     		cbz	r3, .L255
 3688              		.loc 1 2001 0 is_stmt 0 discriminator 2
 3689 0006 064B     		ldr	r3, .L256+4
 3690 0008 93ED000A 		flds	s0, [r3]
 3691              		.loc 1 2002 0 is_stmt 1 discriminator 2
 3692 000c 7047     		bx	lr
 3693              	.L255:
 3694              		.loc 1 2001 0 discriminator 1
 3695 000e 044B     		ldr	r3, .L256+4
 3696 0010 93ED000A 		flds	s0, [r3]
 3697 0014 B1EE400A 		fnegs	s0, s0
 3698 0018 7047     		bx	lr
 3699              	.L257:
 3700 001a 00BF     		.align	2
 3701              	.L256:
 3702 001c 00000000 		.word	.LANCHOR41
 3703 0020 00000000 		.word	.LANCHOR42
 3704              		.cfi_endproc
 3705              	.LFE150:
ARM GAS  /var/folders/bz/nn5481rn5xq59rb0mbj7x0880000gn/T//ccKvLbC4.s 			page 66


 3706              		.size	mcpwm_get_rpm, .-mcpwm_get_rpm
 3707              		.section	.text.mcpwm_get_state,"ax",%progbits
 3708              		.align	2
 3709              		.p2align 4,,15
 3710              		.global	mcpwm_get_state
 3711              		.thumb
 3712              		.thumb_func
 3713              		.type	mcpwm_get_state, %function
 3714              	mcpwm_get_state:
 3715              	.LFB151:
 3716              		.loc 1 2004 0
 3717              		.cfi_startproc
 3718              		@ args = 0, pretend = 0, frame = 0
 3719              		@ frame_needed = 0, uses_anonymous_args = 0
 3720              		@ link register save eliminated.
 3721              		.loc 1 2006 0
 3722 0000 0020     		movs	r0, #0
 3723 0002 7047     		bx	lr
 3724              		.cfi_endproc
 3725              	.LFE151:
 3726              		.size	mcpwm_get_state, .-mcpwm_get_state
 3727              		.section	.text.mcpwm_get_fault,"ax",%progbits
 3728              		.align	2
 3729              		.p2align 4,,15
 3730              		.global	mcpwm_get_fault
 3731              		.thumb
 3732              		.thumb_func
 3733              		.type	mcpwm_get_fault, %function
 3734              	mcpwm_get_fault:
 3735              	.LFB152:
 3736              		.loc 1 2008 0
 3737              		.cfi_startproc
 3738              		@ args = 0, pretend = 0, frame = 0
 3739              		@ frame_needed = 0, uses_anonymous_args = 0
 3740              		@ link register save eliminated.
 3741              		.loc 1 2009 0
 3742 0000 014B     		ldr	r3, .L260
 3743 0002 1878     		ldrb	r0, [r3]	@ zero_extendqisi2
 3744              		.loc 1 2010 0
 3745 0004 7047     		bx	lr
 3746              	.L261:
 3747 0006 00BF     		.align	2
 3748              	.L260:
 3749 0008 00000000 		.word	.LANCHOR36
 3750              		.cfi_endproc
 3751              	.LFE152:
 3752              		.size	mcpwm_get_fault, .-mcpwm_get_fault
 3753              		.section	.text.mcpwm_fault_to_string,"ax",%progbits
 3754              		.align	2
 3755              		.p2align 4,,15
 3756              		.global	mcpwm_fault_to_string
 3757              		.thumb
 3758              		.thumb_func
 3759              		.type	mcpwm_fault_to_string, %function
 3760              	mcpwm_fault_to_string:
 3761              	.LFB153:
 3762              		.loc 1 2012 0
ARM GAS  /var/folders/bz/nn5481rn5xq59rb0mbj7x0880000gn/T//ccKvLbC4.s 			page 67


 3763              		.cfi_startproc
 3764              		@ args = 0, pretend = 0, frame = 0
 3765              		@ frame_needed = 0, uses_anonymous_args = 0
 3766              		@ link register save eliminated.
 3767              	.LVL186:
 3768 0000 0628     		cmp	r0, #6
 3769 0002 9ABF     		itte	ls
 3770 0004 024B     		ldrls	r3, .L265
 3771 0006 53F82000 		ldrls	r0, [r3, r0, lsl #2]
 3772              	.LVL187:
 3773              		.loc 1 2012 0
 3774 000a 0248     		ldrhi	r0, .L265+4
 3775              		.loc 1 2023 0
 3776 000c 7047     		bx	lr
 3777              	.L266:
 3778 000e 00BF     		.align	2
 3779              	.L265:
 3780 0010 00000000 		.word	.LANCHOR43
 3781 0014 0C000000 		.word	.LC1
 3782              		.cfi_endproc
 3783              	.LFE153:
 3784              		.size	mcpwm_fault_to_string, .-mcpwm_fault_to_string
 3785              		.section	.text.mcpwm_get_rpm_dep,"ax",%progbits
 3786              		.align	2
 3787              		.p2align 4,,15
 3788              		.global	mcpwm_get_rpm_dep
 3789              		.thumb
 3790              		.thumb_func
 3791              		.type	mcpwm_get_rpm_dep, %function
 3792              	mcpwm_get_rpm_dep:
 3793              	.LFB154:
 3794              		.loc 1 2024 0
 3795              		.cfi_startproc
 3796              		@ args = 0, pretend = 0, frame = 0
 3797              		@ frame_needed = 0, uses_anonymous_args = 0
 3798              		@ link register save eliminated.
 3799              	.LVL188:
 3800              		.loc 1 2028 0
 3801 0000 7047     		bx	lr
 3802              		.cfi_endproc
 3803              	.LFE154:
 3804              		.size	mcpwm_get_rpm_dep, .-mcpwm_get_rpm_dep
 3805 0002 00BF     		.section	.text.mcpwm_get_configuration,"ax",%progbits
 3806              		.align	2
 3807              		.p2align 4,,15
 3808              		.global	mcpwm_get_configuration
 3809              		.thumb
 3810              		.thumb_func
 3811              		.type	mcpwm_get_configuration, %function
 3812              	mcpwm_get_configuration:
 3813              	.LFB155:
 3814              		.loc 1 2031 0
 3815              		.cfi_startproc
 3816              		@ args = 0, pretend = 0, frame = 0
 3817              		@ frame_needed = 0, uses_anonymous_args = 0
 3818              		@ link register save eliminated.
 3819              		.loc 1 2033 0
ARM GAS  /var/folders/bz/nn5481rn5xq59rb0mbj7x0880000gn/T//ccKvLbC4.s 			page 68


 3820 0000 0048     		ldr	r0, .L269
 3821 0002 7047     		bx	lr
 3822              	.L270:
 3823              		.align	2
 3824              	.L269:
 3825 0004 00000000 		.word	.LANCHOR44
 3826              		.cfi_endproc
 3827              	.LFE155:
 3828              		.size	mcpwm_get_configuration, .-mcpwm_get_configuration
 3829              		.section	.text.mcpwm_set_configuration,"ax",%progbits
 3830              		.align	2
 3831              		.p2align 4,,15
 3832              		.global	mcpwm_set_configuration
 3833              		.thumb
 3834              		.thumb_func
 3835              		.type	mcpwm_set_configuration, %function
 3836              	mcpwm_set_configuration:
 3837              	.LFB156:
 3838              		.loc 1 2034 0
 3839              		.cfi_startproc
 3840              		@ args = 0, pretend = 0, frame = 0
 3841              		@ frame_needed = 0, uses_anonymous_args = 0
 3842              		@ link register save eliminated.
 3843              	.LVL189:
 3844 0000 7047     		bx	lr
 3845              		.cfi_endproc
 3846              	.LFE156:
 3847              		.size	mcpwm_set_configuration, .-mcpwm_set_configuration
 3848              		.global	sinth
 3849              		.global	costh
 3850              		.global	Hall_CosSin
 3851              		.global	Hall_SinCos
 3852              		.global	HallPLLB_filtered
 3853              		.global	HallPLLA_filtered
 3854              		.global	HallPLLB_old
 3855              		.global	HallPLLA_old
 3856              		.global	HallPLLB
 3857              		.global	HallPLLA1
 3858              		.global	HallPLLA
 3859              		.global	Ipll
 3860              		.global	Kpll
 3861              		.global	Wplli
 3862              		.global	Wpllp
 3863              		.global	Wpll1
 3864              		.global	Wpll
 3865              		.global	HallPLLdef1
 3866              		.global	HallPLLdef
 3867              		.global	HallPLLde1
 3868              		.global	HallPLLde
 3869              		.global	HallPLLqe
 3870              		.global	HallPLLlead2
 3871              		.global	HallPLLlead1
 3872              		.global	HallPLLlead
 3873              		.global	State_Index
 3874              		.global	Drive_Status
 3875              		.global	Init_Charge_Time
 3876              		.global	Init_Charge_cnt
ARM GAS  /var/folders/bz/nn5481rn5xq59rb0mbj7x0880000gn/T//ccKvLbC4.s 			page 69


 3877              		.global	Init_Charge_cnt_EN
 3878              		.global	Fault_seq
 3879              		.global	Seq
 3880              		.global	AccumThetaCnt
 3881              		.global	AccumTheta
 3882              		.global	PrevTheta
 3883              		.global	iADCisrCnt
 3884              		.global	switching_frequency_now
 3885              		.global	SpeedReference
 3886              		.global	FdWeakParm
 3887              		.global	SVGenParm
 3888              		.global	CtrlParm
 3889              		.global	PIParmPLL
 3890              		.global	PIParmW
 3891              		.global	PIParmQ
 3892              		.global	PIParmD
 3893              		.global	ParkParm
 3894              		.global	ADC_Value
 3895              		.global	smc1
 3896              		.global	Startup_Lock
 3897              		.global	Startup_Ramp
 3898              		.global	VelReq
 3899              		.global	count
 3900              		.global	MotorParm
 3901              		.global	uGF
 3902 0002 00BF     		.section	.bss.curr0_offset,"aw",%nobits
 3903              		.align	2
 3904              		.set	.LANCHOR2,. + 0
 3905              		.type	curr0_offset, %object
 3906              		.size	curr0_offset, 4
 3907              	curr0_offset:
 3908 0000 00000000 		.space	4
 3909              		.section	.bss.ADC_Value,"aw",%nobits
 3910              		.align	2
 3911              		.set	.LANCHOR4,. + 0
 3912              		.type	ADC_Value, %object
 3913              		.size	ADC_Value, 24
 3914              	ADC_Value:
 3915 0000 00000000 		.space	24
 3915      00000000 
 3915      00000000 
 3915      00000000 
 3915      00000000 
 3916              		.section	.bss.Startup_Ramp,"aw",%nobits
 3917              		.align	2
 3918              		.set	.LANCHOR16,. + 0
 3919              		.type	Startup_Ramp, %object
 3920              		.size	Startup_Ramp, 4
 3921              	Startup_Ramp:
 3922 0000 00000000 		.space	4
 3923              		.section	.bss.rpm_now,"aw",%nobits
 3924              		.align	2
 3925              		.set	.LANCHOR42,. + 0
 3926              		.type	rpm_now, %object
 3927              		.size	rpm_now, 4
 3928              	rpm_now:
 3929 0000 00000000 		.space	4
ARM GAS  /var/folders/bz/nn5481rn5xq59rb0mbj7x0880000gn/T//ccKvLbC4.s 			page 70


 3930              		.section	.bss.PIParmD,"aw",%nobits
 3931              		.align	2
 3932              		.set	.LANCHOR8,. + 0
 3933              		.type	PIParmD, %object
 3934              		.size	PIParmD, 36
 3935              	PIParmD:
 3936 0000 00000000 		.space	36
 3936      00000000 
 3936      00000000 
 3936      00000000 
 3936      00000000 
 3937              		.section	.bss.HallPLLA1,"aw",%nobits
 3938              		.align	2
 3939              		.type	HallPLLA1, %object
 3940              		.size	HallPLLA1, 4
 3941              	HallPLLA1:
 3942 0000 00000000 		.space	4
 3943              		.section	.bss.curr1_sum,"aw",%nobits
 3944              		.align	2
 3945              		.set	.LANCHOR31,. + 0
 3946              		.type	curr1_sum, %object
 3947              		.size	curr1_sum, 4
 3948              	curr1_sum:
 3949 0000 00000000 		.space	4
 3950              		.section	.bss.Wpll1,"aw",%nobits
 3951              		.align	2
 3952              		.type	Wpll1, %object
 3953              		.size	Wpll1, 4
 3954              	Wpll1:
 3955 0000 00000000 		.space	4
 3956              		.section	.bss.CtrlParm,"aw",%nobits
 3957              		.align	2
 3958              		.set	.LANCHOR14,. + 0
 3959              		.type	CtrlParm, %object
 3960              		.size	CtrlParm, 12
 3961              	CtrlParm:
 3962 0000 00000000 		.space	12
 3962      00000000 
 3962      00000000 
 3963              		.section	.bss.SEQUENCE_thread_wa,"aw",%nobits
 3964              		.align	3
 3965              		.set	.LANCHOR39,. + 0
 3966              		.type	SEQUENCE_thread_wa, %object
 3967              		.size	SEQUENCE_thread_wa, 2456
 3968              	SEQUENCE_thread_wa:
 3969 0000 00000000 		.space	2456
 3969      00000000 
 3969      00000000 
 3969      00000000 
 3969      00000000 
 3970              		.section	.bss.PIParmQ,"aw",%nobits
 3971              		.align	2
 3972              		.set	.LANCHOR9,. + 0
 3973              		.type	PIParmQ, %object
 3974              		.size	PIParmQ, 36
 3975              	PIParmQ:
 3976 0000 00000000 		.space	36
ARM GAS  /var/folders/bz/nn5481rn5xq59rb0mbj7x0880000gn/T//ccKvLbC4.s 			page 71


 3976      00000000 
 3976      00000000 
 3976      00000000 
 3976      00000000 
 3977              		.section	.data.Kpll,"aw",%progbits
 3978              		.align	2
 3979              		.type	Kpll, %object
 3980              		.size	Kpll, 4
 3981              	Kpll:
 3982 0000 D122DB3E 		.word	1054548689
 3983              		.section	.bss.HallPLLdef1,"aw",%nobits
 3984              		.align	2
 3985              		.type	HallPLLdef1, %object
 3986              		.size	HallPLLdef1, 4
 3987              	HallPLLdef1:
 3988 0000 00000000 		.space	4
 3989              		.section	.bss.uGF,"aw",%nobits
 3990              		.align	2
 3991              		.set	.LANCHOR13,. + 0
 3992              		.type	uGF, %object
 3993              		.size	uGF, 4
 3994              	uGF:
 3995 0000 00000000 		.space	4
 3996              		.section	.bss.Hall_SinCos,"aw",%nobits
 3997              		.align	2
 3998              		.set	.LANCHOR26,. + 0
 3999              		.type	Hall_SinCos, %object
 4000              		.size	Hall_SinCos, 4
 4001              	Hall_SinCos:
 4002 0000 00000000 		.space	4
 4003              		.section	.bss.PIParmW,"aw",%nobits
 4004              		.align	2
 4005              		.set	.LANCHOR10,. + 0
 4006              		.type	PIParmW, %object
 4007              		.size	PIParmW, 36
 4008              	PIParmW:
 4009 0000 00000000 		.space	36
 4009      00000000 
 4009      00000000 
 4009      00000000 
 4009      00000000 
 4010              		.section	.bss.curr_start_samples,"aw",%nobits
 4011              		.align	2
 4012              		.set	.LANCHOR32,. + 0
 4013              		.type	curr_start_samples, %object
 4014              		.size	curr_start_samples, 4
 4015              	curr_start_samples:
 4016 0000 00000000 		.space	4
 4017              		.section	.bss.Hall_CosSin,"aw",%nobits
 4018              		.align	2
 4019              		.set	.LANCHOR27,. + 0
 4020              		.type	Hall_CosSin, %object
 4021              		.size	Hall_CosSin, 4
 4022              	Hall_CosSin:
 4023 0000 00000000 		.space	4
 4024              		.section	.bss.conf,"aw",%nobits
 4025              		.align	2
ARM GAS  /var/folders/bz/nn5481rn5xq59rb0mbj7x0880000gn/T//ccKvLbC4.s 			page 72


 4026              		.set	.LANCHOR44,. + 0
 4027              		.type	conf, %object
 4028              		.size	conf, 176
 4029              	conf:
 4030 0000 00000000 		.space	176
 4030      00000000 
 4030      00000000 
 4030      00000000 
 4030      00000000 
 4031              		.section	.bss.dccal_done,"aw",%nobits
 4032              		.set	.LANCHOR37,. + 0
 4033              		.type	dccal_done, %object
 4034              		.size	dccal_done, 1
 4035              	dccal_done:
 4036 0000 00       		.space	1
 4037              		.section	.bss.Hall_Err0,"aw",%nobits
 4038              		.align	2
 4039              		.set	.LANCHOR28,. + 0
 4040              		.type	Hall_Err0, %object
 4041              		.size	Hall_Err0, 4
 4042              	Hall_Err0:
 4043 0000 00000000 		.space	4
 4044              		.section	.bss.HallPLLqe,"aw",%nobits
 4045              		.align	2
 4046              		.type	HallPLLqe, %object
 4047              		.size	HallPLLqe, 4
 4048              	HallPLLqe:
 4049 0000 00000000 		.space	4
 4050              		.section	.bss.Init_Charge_cnt,"aw",%nobits
 4051              		.align	2
 4052              		.type	Init_Charge_cnt, %object
 4053              		.size	Init_Charge_cnt, 4
 4054              	Init_Charge_cnt:
 4055 0000 00000000 		.space	4
 4056              		.section	.bss.AccumTheta,"aw",%nobits
 4057              		.align	2
 4058              		.set	.LANCHOR34,. + 0
 4059              		.type	AccumTheta, %object
 4060              		.size	AccumTheta, 4
 4061              	AccumTheta:
 4062 0000 00000000 		.space	4
 4063              		.section	.bss.Startup_Lock,"aw",%nobits
 4064              		.align	2
 4065              		.set	.LANCHOR15,. + 0
 4066              		.type	Startup_Lock, %object
 4067              		.size	Startup_Lock, 4
 4068              	Startup_Lock:
 4069 0000 00000000 		.space	4
 4070              		.section	.bss.Drive_Status,"aw",%nobits
 4071              		.align	2
 4072              		.type	Drive_Status, %object
 4073              		.size	Drive_Status, 4
 4074              	Drive_Status:
 4075 0000 00000000 		.space	4
 4076              		.section	.bss.Futi,"aw",%nobits
 4077              		.align	2
 4078              		.type	Futi, %object
ARM GAS  /var/folders/bz/nn5481rn5xq59rb0mbj7x0880000gn/T//ccKvLbC4.s 			page 73


 4079              		.size	Futi, 4
 4080              	Futi:
 4081 0000 00000000 		.space	4
 4082              		.section	.bss.PrevTheta,"aw",%nobits
 4083              		.align	2
 4084              		.set	.LANCHOR33,. + 0
 4085              		.type	PrevTheta, %object
 4086              		.size	PrevTheta, 4
 4087              	PrevTheta:
 4088 0000 00000000 		.space	4
 4089              		.section	.bss.VelReq,"aw",%nobits
 4090              		.align	2
 4091              		.type	VelReq, %object
 4092              		.size	VelReq, 4
 4093              	VelReq:
 4094 0000 00000000 		.space	4
 4095              		.section	.bss.count,"aw",%nobits
 4096              		.align	2
 4097              		.type	count, %object
 4098              		.size	count, 4
 4099              	count:
 4100 0000 00000000 		.space	4
 4101              		.section	.bss.HallPLLdef,"aw",%nobits
 4102              		.align	2
 4103              		.type	HallPLLdef, %object
 4104              		.size	HallPLLdef, 4
 4105              	HallPLLdef:
 4106 0000 00000000 		.space	4
 4107              		.section	.bss.last_current_sample_filtered,"aw",%nobits
 4108              		.align	2
 4109              		.type	last_current_sample_filtered, %object
 4110              		.size	last_current_sample_filtered, 4
 4111              	last_current_sample_filtered:
 4112 0000 00000000 		.space	4
 4113              		.section	.bss.Wplli,"aw",%nobits
 4114              		.align	2
 4115              		.type	Wplli, %object
 4116              		.size	Wplli, 4
 4117              	Wplli:
 4118 0000 00000000 		.space	4
 4119              		.section	.bss.AccumThetaCnt,"aw",%nobits
 4120              		.align	1
 4121              		.set	.LANCHOR18,. + 0
 4122              		.type	AccumThetaCnt, %object
 4123              		.size	AccumThetaCnt, 2
 4124              	AccumThetaCnt:
 4125 0000 0000     		.space	2
 4126              		.section	.bss.Init_Charge_cnt_EN,"aw",%nobits
 4127              		.align	2
 4128              		.type	Init_Charge_cnt_EN, %object
 4129              		.size	Init_Charge_cnt_EN, 4
 4130              	Init_Charge_cnt_EN:
 4131 0000 00000000 		.space	4
 4132              		.section	.bss.State_Index,"aw",%nobits
 4133              		.align	2
 4134              		.type	State_Index, %object
 4135              		.size	State_Index, 4
ARM GAS  /var/folders/bz/nn5481rn5xq59rb0mbj7x0880000gn/T//ccKvLbC4.s 			page 74


 4136              	State_Index:
 4137 0000 00000000 		.space	4
 4138              		.section	.bss.HallPLLde,"aw",%nobits
 4139              		.align	2
 4140              		.type	HallPLLde, %object
 4141              		.size	HallPLLde, 4
 4142              	HallPLLde:
 4143 0000 00000000 		.space	4
 4144              		.section	.bss.Wpllp,"aw",%nobits
 4145              		.align	2
 4146              		.type	Wpllp, %object
 4147              		.size	Wpllp, 4
 4148              	Wpllp:
 4149 0000 00000000 		.space	4
 4150              		.section	.bss.SpeedReference,"aw",%nobits
 4151              		.align	2
 4152              		.type	SpeedReference, %object
 4153              		.size	SpeedReference, 4
 4154              	SpeedReference:
 4155 0000 00000000 		.space	4
 4156              		.section	.bss.PIParmPLL,"aw",%nobits
 4157              		.align	2
 4158              		.set	.LANCHOR11,. + 0
 4159              		.type	PIParmPLL, %object
 4160              		.size	PIParmPLL, 36
 4161              	PIParmPLL:
 4162 0000 00000000 		.space	36
 4162      00000000 
 4162      00000000 
 4162      00000000 
 4162      00000000 
 4163              		.section	.bss.sinth,"aw",%nobits
 4164              		.align	2
 4165              		.set	.LANCHOR25,. + 0
 4166              		.type	sinth, %object
 4167              		.size	sinth, 4
 4168              	sinth:
 4169 0000 00000000 		.space	4
 4170              		.section	.bss.qVdSquared,"aw",%nobits
 4171              		.align	2
 4172              		.set	.LANCHOR19,. + 0
 4173              		.type	qVdSquared, %object
 4174              		.size	qVdSquared, 4
 4175              	qVdSquared:
 4176 0000 00000000 		.space	4
 4177              		.section	.bss.DCbus,"aw",%nobits
 4178              		.align	2
 4179              		.set	.LANCHOR12,. + 0
 4180              		.type	DCbus, %object
 4181              		.size	DCbus, 4
 4182              	DCbus:
 4183 0000 00000000 		.space	4
 4184              		.section	.bss.Hall_KA,"aw",%nobits
 4185              		.align	2
 4186              		.type	Hall_KA, %object
 4187              		.size	Hall_KA, 4
 4188              	Hall_KA:
ARM GAS  /var/folders/bz/nn5481rn5xq59rb0mbj7x0880000gn/T//ccKvLbC4.s 			page 75


 4189 0000 00000000 		.space	4
 4190              		.section	.bss.last_current_sample,"aw",%nobits
 4191              		.align	2
 4192              		.set	.LANCHOR40,. + 0
 4193              		.type	last_current_sample, %object
 4194              		.size	last_current_sample, 4
 4195              	last_current_sample:
 4196 0000 00000000 		.space	4
 4197              		.section	.bss.Seq,"aw",%nobits
 4198              		.align	2
 4199              		.type	Seq, %object
 4200              		.size	Seq, 4
 4201              	Seq:
 4202 0000 00000000 		.space	4
 4203              		.section	.bss.TargetDCbus,"aw",%nobits
 4204              		.align	2
 4205              		.set	.LANCHOR5,. + 0
 4206              		.type	TargetDCbus, %object
 4207              		.size	TargetDCbus, 4
 4208              	TargetDCbus:
 4209 0000 00000000 		.space	4
 4210              		.section	.bss.HallPLLlead1,"aw",%nobits
 4211              		.align	2
 4212              		.type	HallPLLlead1, %object
 4213              		.size	HallPLLlead1, 4
 4214              	HallPLLlead1:
 4215 0000 00000000 		.space	4
 4216              		.section	.bss.iADCisrCnt,"aw",%nobits
 4217              		.align	1
 4218              		.type	iADCisrCnt, %object
 4219              		.size	iADCisrCnt, 2
 4220              	iADCisrCnt:
 4221 0000 0000     		.space	2
 4222              		.section	.bss.Theta_error,"aw",%nobits
 4223              		.align	2
 4224              		.set	.LANCHOR35,. + 0
 4225              		.type	Theta_error, %object
 4226              		.size	Theta_error, 4
 4227              	Theta_error:
 4228 0000 00000000 		.space	4
 4229              		.section	.bss.direction,"aw",%nobits
 4230              		.align	2
 4231              		.set	.LANCHOR41,. + 0
 4232              		.type	direction, %object
 4233              		.size	direction, 4
 4234              	direction:
 4235 0000 00000000 		.space	4
 4236              		.section	.bss.HallPLLlead,"aw",%nobits
 4237              		.align	2
 4238              		.type	HallPLLlead, %object
 4239              		.size	HallPLLlead, 4
 4240              	HallPLLlead:
 4241 0000 00000000 		.space	4
 4242              		.section	.bss.ThetaCal,"aw",%nobits
 4243              		.align	2
 4244              		.type	ThetaCal, %object
 4245              		.size	ThetaCal, 4
ARM GAS  /var/folders/bz/nn5481rn5xq59rb0mbj7x0880000gn/T//ccKvLbC4.s 			page 76


 4246              	ThetaCal:
 4247 0000 00000000 		.space	4
 4248              		.section	.bss.Theta,"aw",%nobits
 4249              		.align	2
 4250              		.set	.LANCHOR23,. + 0
 4251              		.type	Theta, %object
 4252              		.size	Theta, 4
 4253              	Theta:
 4254 0000 00000000 		.space	4
 4255              		.section	.bss.HallPLLB_filtered,"aw",%nobits
 4256              		.align	2
 4257              		.type	HallPLLB_filtered, %object
 4258              		.size	HallPLLB_filtered, 4
 4259              	HallPLLB_filtered:
 4260 0000 00000000 		.space	4
 4261              		.section	.rodata.CSWTCH.128,"a",%progbits
 4262              		.align	2
 4263              		.set	.LANCHOR43,. + 0
 4264              		.type	CSWTCH.128, %object
 4265              		.size	CSWTCH.128, 28
 4266              	CSWTCH.128:
 4267 0000 1C000000 		.word	.LC2
 4268 0004 2C000000 		.word	.LC3
 4269 0008 44000000 		.word	.LC4
 4270 000c 60000000 		.word	.LC5
 4271 0010 74000000 		.word	.LC6
 4272 0014 90000000 		.word	.LC7
 4273 0018 AC000000 		.word	.LC8
 4274              		.section	.bss.smc1,"aw",%nobits
 4275              		.align	2
 4276              		.set	.LANCHOR17,. + 0
 4277              		.type	smc1, %object
 4278              		.size	smc1, 100
 4279              	smc1:
 4280 0000 00000000 		.space	100
 4280      00000000 
 4280      00000000 
 4280      00000000 
 4280      00000000 
 4281              		.section	.bss.ParkParm,"aw",%nobits
 4282              		.align	2
 4283              		.set	.LANCHOR7,. + 0
 4284              		.type	ParkParm, %object
 4285              		.size	ParkParm, 64
 4286              	ParkParm:
 4287 0000 00000000 		.space	64
 4287      00000000 
 4287      00000000 
 4287      00000000 
 4287      00000000 
 4288              		.section	.bss.costh,"aw",%nobits
 4289              		.align	2
 4290              		.set	.LANCHOR24,. + 0
 4291              		.type	costh, %object
 4292              		.size	costh, 4
 4293              	costh:
 4294 0000 00000000 		.space	4
ARM GAS  /var/folders/bz/nn5481rn5xq59rb0mbj7x0880000gn/T//ccKvLbC4.s 			page 77


 4295              		.section	.bss.HallPLLA_old,"aw",%nobits
 4296              		.align	2
 4297              		.type	HallPLLA_old, %object
 4298              		.size	HallPLLA_old, 4
 4299              	HallPLLA_old:
 4300 0000 00000000 		.space	4
 4301              		.section	.bss.MotorParm,"aw",%nobits
 4302              		.align	2
 4303              		.set	.LANCHOR0,. + 0
 4304              		.type	MotorParm, %object
 4305              		.size	MotorParm, 8
 4306              	MotorParm:
 4307 0000 00000000 		.space	8
 4307      00000000 
 4308              		.section	.bss.SVGenParm,"aw",%nobits
 4309              		.align	2
 4310              		.set	.LANCHOR6,. + 0
 4311              		.type	SVGenParm, %object
 4312              		.size	SVGenParm, 36
 4313              	SVGenParm:
 4314 0000 00000000 		.space	36
 4314      00000000 
 4314      00000000 
 4314      00000000 
 4314      00000000 
 4315              		.section	.data.Ipll,"aw",%progbits
 4316              		.align	2
 4317              		.type	Ipll, %object
 4318              		.size	Ipll, 4
 4319              	Ipll:
 4320 0000 D7A3E641 		.word	1105634263
 4321              		.section	.bss.HallPLLB_old,"aw",%nobits
 4322              		.align	2
 4323              		.type	HallPLLB_old, %object
 4324              		.size	HallPLLB_old, 4
 4325              	HallPLLB_old:
 4326 0000 00000000 		.space	4
 4327              		.section	.bss.HallPLLA_filtered,"aw",%nobits
 4328              		.align	2
 4329              		.type	HallPLLA_filtered, %object
 4330              		.size	HallPLLA_filtered, 4
 4331              	HallPLLA_filtered:
 4332 0000 00000000 		.space	4
 4333              		.section	.bss.curr1_offset,"aw",%nobits
 4334              		.align	2
 4335              		.set	.LANCHOR3,. + 0
 4336              		.type	curr1_offset, %object
 4337              		.size	curr1_offset, 4
 4338              	curr1_offset:
 4339 0000 00000000 		.space	4
 4340              		.section	.bss.curr0_sum,"aw",%nobits
 4341              		.align	2
 4342              		.set	.LANCHOR30,. + 0
 4343              		.type	curr0_sum, %object
 4344              		.size	curr0_sum, 4
 4345              	curr0_sum:
 4346 0000 00000000 		.space	4
ARM GAS  /var/folders/bz/nn5481rn5xq59rb0mbj7x0880000gn/T//ccKvLbC4.s 			page 78


 4347              		.section	.bss.FdWeakParm,"aw",%nobits
 4348              		.align	2
 4349              		.set	.LANCHOR20,. + 0
 4350              		.type	FdWeakParm, %object
 4351              		.size	FdWeakParm, 92
 4352              	FdWeakParm:
 4353 0000 00000000 		.space	92
 4353      00000000 
 4353      00000000 
 4353      00000000 
 4353      00000000 
 4354              		.section	.data.switching_frequency_now,"aw",%progbits
 4355              		.align	2
 4356              		.set	.LANCHOR38,. + 0
 4357              		.type	switching_frequency_now, %object
 4358              		.size	switching_frequency_now, 4
 4359              	switching_frequency_now:
 4360 0000 803E0000 		.word	16000
 4361              		.section	.bss.Hall_PIout,"aw",%nobits
 4362              		.align	2
 4363              		.set	.LANCHOR29,. + 0
 4364              		.type	Hall_PIout, %object
 4365              		.size	Hall_PIout, 4
 4366              	Hall_PIout:
 4367 0000 00000000 		.space	4
 4368              		.section	.bss.fault_now,"aw",%nobits
 4369              		.set	.LANCHOR36,. + 0
 4370              		.type	fault_now, %object
 4371              		.size	fault_now, 1
 4372              	fault_now:
 4373 0000 00       		.space	1
 4374              		.section	.bss.HallPLLlead2,"aw",%nobits
 4375              		.align	2
 4376              		.type	HallPLLlead2, %object
 4377              		.size	HallPLLlead2, 4
 4378              	HallPLLlead2:
 4379 0000 00000000 		.space	4
 4380              		.section	.bss.HallPLLA,"aw",%nobits
 4381              		.align	2
 4382              		.set	.LANCHOR21,. + 0
 4383              		.type	HallPLLA, %object
 4384              		.size	HallPLLA, 4
 4385              	HallPLLA:
 4386 0000 00000000 		.space	4
 4387              		.section	.bss.HallPLLB,"aw",%nobits
 4388              		.align	2
 4389              		.set	.LANCHOR22,. + 0
 4390              		.type	HallPLLB, %object
 4391              		.size	HallPLLB, 4
 4392              	HallPLLB:
 4393 0000 00000000 		.space	4
 4394              		.section	.data.Init_Charge_Time,"aw",%progbits
 4395              		.align	2
 4396              		.type	Init_Charge_Time, %object
 4397              		.size	Init_Charge_Time, 4
 4398              	Init_Charge_Time:
 4399 0000 B80B0000 		.word	3000
ARM GAS  /var/folders/bz/nn5481rn5xq59rb0mbj7x0880000gn/T//ccKvLbC4.s 			page 79


 4400              		.section	.bss.MeasCurrParm,"aw",%nobits
 4401              		.align	2
 4402              		.set	.LANCHOR1,. + 0
 4403              		.type	MeasCurrParm, %object
 4404              		.size	MeasCurrParm, 16
 4405              	MeasCurrParm:
 4406 0000 00000000 		.space	16
 4406      00000000 
 4406      00000000 
 4406      00000000 
 4407              		.section	.bss.HallPLLde1,"aw",%nobits
 4408              		.align	2
 4409              		.type	HallPLLde1, %object
 4410              		.size	HallPLLde1, 4
 4411              	HallPLLde1:
 4412 0000 00000000 		.space	4
 4413              		.section	.bss.Fault_seq,"aw",%nobits
 4414              		.align	2
 4415              		.type	Fault_seq, %object
 4416              		.size	Fault_seq, 4
 4417              	Fault_seq:
 4418 0000 00000000 		.space	4
 4419              		.section	.rodata.str1.4,"aMS",%progbits,1
 4420              		.align	2
 4421              	.LC0:
 4422 0000 6D637077 		.ascii	"mcpwm timer\000"
 4422      6D207469 
 4422      6D657200 
 4423              	.LC1:
 4424 000c 4641554C 		.ascii	"FAULT_UNKNOWN\000"
 4424      545F554E 
 4424      4B4E4F57 
 4424      4E00
 4425 001a 0000     		.space	2
 4426              	.LC2:
 4427 001c 4641554C 		.ascii	"FAULT_CODE_NONE\000"
 4427      545F434F 
 4427      44455F4E 
 4427      4F4E4500 
 4428              	.LC3:
 4429 002c 4641554C 		.ascii	"FAULT_CODE_OVER_VOLTAGE\000"
 4429      545F434F 
 4429      44455F4F 
 4429      5645525F 
 4429      564F4C54 
 4430              	.LC4:
 4431 0044 4641554C 		.ascii	"FAULT_CODE_UNDER_VOLTAGE\000"
 4431      545F434F 
 4431      44455F55 
 4431      4E444552 
 4431      5F564F4C 
 4432 005d 000000   		.space	3
 4433              	.LC5:
 4434 0060 4641554C 		.ascii	"FAULT_CODE_DRV8302\000"
 4434      545F434F 
 4434      44455F44 
 4434      52563833 
ARM GAS  /var/folders/bz/nn5481rn5xq59rb0mbj7x0880000gn/T//ccKvLbC4.s 			page 80


 4434      303200
 4435 0073 00       		.space	1
 4436              	.LC6:
 4437 0074 4641554C 		.ascii	"FAULT_CODE_ABS_OVER_CURRENT\000"
 4437      545F434F 
 4437      44455F41 
 4437      42535F4F 
 4437      5645525F 
 4438              	.LC7:
 4439 0090 4641554C 		.ascii	"FAULT_CODE_OVER_TEMP_FET\000"
 4439      545F434F 
 4439      44455F4F 
 4439      5645525F 
 4439      54454D50 
 4440 00a9 000000   		.space	3
 4441              	.LC8:
 4442 00ac 4641554C 		.ascii	"FAULT_CODE_OVER_TEMP_MOTOR\000"
 4442      545F434F 
 4442      44455F4F 
 4442      5645525F 
 4442      54454D50 
 4443              		.section	.bss.Hall_KB,"aw",%nobits
 4444              		.align	2
 4445              		.type	Hall_KB, %object
 4446              		.size	Hall_KB, 4
 4447              	Hall_KB:
 4448 0000 00000000 		.space	4
 4449              		.section	.bss.Wpll,"aw",%nobits
 4450              		.align	2
 4451              		.type	Wpll, %object
 4452              		.size	Wpll, 4
 4453              	Wpll:
 4454 0000 00000000 		.space	4
 4455              		.text
 4456              	.Letext0:
 4457              		.file 3 "/Users/imac/Downloads/gcc-arm-none-eabi-4_9-2015q2/lib/gcc/arm-none-eabi/4.9.3/include/st
 4458              		.file 4 "/Users/imac/Downloads/gcc-arm-none-eabi-4_9-2015q2/arm-none-eabi/include/machine/_default
 4459              		.file 5 "/Users/imac/Downloads/gcc-arm-none-eabi-4_9-2015q2/arm-none-eabi/include/sys/_stdint.h"
 4460              		.file 6 "lib/ChibiOS_2.6.6/os/ports/GCC/ARMCMx/chtypes.h"
 4461              		.file 7 "lib/ChibiOS_2.6.6/os/kernel/include/chlists.h"
 4462              		.file 8 "lib/ChibiOS_2.6.6/os/kernel/include/chthreads.h"
 4463              		.file 9 "lib/ChibiOS_2.6.6/os/ports/GCC/ARMCMx/chcore_v7m.h"
 4464              		.file 10 "lib/ChibiOS_2.6.6/os/kernel/include/chschd.h"
 4465              		.file 11 "lib/ChibiOS_2.6.6/os/kernel/include/chmtx.h"
 4466              		.file 12 "lib/ChibiOS_2.6.6/os/hal/platforms/STM32F4xx/stm32f4xx.h"
 4467              		.file 13 "lib/ChibiOS_2.6.6/ext/stdperiph_stm32f4/inc/stm32f4xx_adc.h"
 4468              		.file 14 "lib/ChibiOS_2.6.6/ext/stdperiph_stm32f4/inc/stm32f4xx_dma.h"
 4469              		.file 15 "lib/ChibiOS_2.6.6/ext/stdperiph_stm32f4/inc/stm32f4xx_tim.h"
 4470              		.file 16 "lib/ChibiOS_2.6.6/ext/stdperiph_stm32f4/inc/misc.h"
 4471              		.file 17 "lib/ChibiOS_2.6.6/os/hal/platforms/STM32F4xx/stm32_dma.h"
 4472              		.file 18 "lib/ChibiOS_2.6.6/os/hal/platforms/STM32/GPIOv2/pal_lld.h"
 4473              		.file 19 "/Users/imac/Downloads/gcc-arm-none-eabi-4_9-2015q2/arm-none-eabi/include/sys/lock.h"
 4474              		.file 20 "/Users/imac/Downloads/gcc-arm-none-eabi-4_9-2015q2/arm-none-eabi/include/sys/_types.h"
 4475              		.file 21 "/Users/imac/Downloads/gcc-arm-none-eabi-4_9-2015q2/arm-none-eabi/include/sys/reent.h"
 4476              		.file 22 "/Users/imac/Downloads/gcc-arm-none-eabi-4_9-2015q2/arm-none-eabi/include/stdio.h"
 4477              		.file 23 "src/core/datatypes.h"
 4478              		.file 24 "src/bldc/mcpwm.h"
ARM GAS  /var/folders/bz/nn5481rn5xq59rb0mbj7x0880000gn/T//ccKvLbC4.s 			page 81


 4479              		.file 25 "lib/ChibiOS_2.6.6/ext/stdperiph_stm32f4/inc/stm32f4xx_wwdg.h"
 4480              		.file 26 "/Users/imac/Downloads/gcc-arm-none-eabi-4_9-2015q2/arm-none-eabi/include/math.h"
 4481              		.file 27 "src/core/utils.h"
 4482              		.file 28 "lib/ChibiOS_2.6.6/ext/stdperiph_stm32f4/inc/stm32f4xx_rcc.h"
 4483              		.file 29 "lib/hwconf/hw.h"