ARM GAS  /var/folders/bz/nn5481rn5xq59rb0mbj7x0880000gn/T//ccWjsB25.s 			page 1


   1              		.syntax unified
   2              		.cpu cortex-m4
   3              		.eabi_attribute 27, 1
   4              		.eabi_attribute 28, 1
   5              		.fpu fpv4-sp-d16
   6              		.eabi_attribute 20, 1
   7              		.eabi_attribute 21, 1
   8              		.eabi_attribute 23, 3
   9              		.eabi_attribute 24, 1
  10              		.eabi_attribute 25, 1
  11              		.eabi_attribute 26, 1
  12              		.eabi_attribute 30, 2
  13              		.eabi_attribute 34, 1
  14              		.eabi_attribute 18, 4
  15              		.thumb
  16              		.file	"rfhelp.c"
  17              		.text
  18              	.Ltext0:
  19              		.cfi_sections	.debug_frame
  20              		.section	.text.rfhelp_init,"ax",%progbits
  21              		.align	2
  22              		.p2align 4,,15
  23              		.global	rfhelp_init
  24              		.thumb
  25              		.thumb_func
  26              		.type	rfhelp_init, %function
  27              	rfhelp_init:
  28              	.LFB118:
  29              		.file 1 "lib/nrf/rfhelp.c"
  30              		.loc 1 33 0
  31              		.cfi_startproc
  32              		@ args = 0, pretend = 0, frame = 0
  33              		@ frame_needed = 0, uses_anonymous_args = 0
  34 0000 2DE9F041 		push	{r4, r5, r6, r7, r8, lr}
  35              		.cfi_def_cfa_offset 24
  36              		.cfi_offset 4, -24
  37              		.cfi_offset 5, -20
  38              		.cfi_offset 6, -16
  39              		.cfi_offset 7, -12
  40              		.cfi_offset 8, -8
  41              		.cfi_offset 14, -4
  42              		.loc 1 34 0
  43 0004 1348     		ldr	r0, .L7
  44              		.loc 1 37 0
  45 0006 144E     		ldr	r6, .L7+4
  46 0008 144C     		ldr	r4, .L7+8
  47 000a 154D     		ldr	r5, .L7+12
  48              		.loc 1 34 0
  49 000c FFF7FEFF 		bl	chMtxInit
  50              	.LVL0:
  51              		.loc 1 37 0
  52 0010 0522     		movs	r2, #5
  53 0012 3260     		str	r2, [r6]
  54              	.LVL1:
  55 0014 04F10608 		add	r8, r4, #6
  56              	.LBB2:
  57              		.loc 1 46 0
ARM GAS  /var/folders/bz/nn5481rn5xq59rb0mbj7x0880000gn/T//ccWjsB25.s 			page 2


  58 0018 0027     		movs	r7, #0
  59 001a 00E0     		b	.L3
  60              	.LVL2:
  61              	.L6:
  62 001c 3268     		ldr	r2, [r6]
  63              	.LVL3:
  64              	.L3:
  65              		.loc 1 45 0 discriminator 3
  66 001e 2946     		mov	r1, r5
  67 0020 0A20     		movs	r0, #10
  68 0022 FFF7FEFF 		bl	rf_read_reg
  69              	.LVL4:
  70              		.loc 1 46 0 discriminator 3
  71 0026 04F8017B 		strb	r7, [r4], #1
  72              	.LVL5:
  73              		.loc 1 44 0 discriminator 3
  74 002a 4445     		cmp	r4, r8
  75 002c 05F10505 		add	r5, r5, #5
  76 0030 F4D1     		bne	.L6
  77              	.LBE2:
  78              		.loc 1 48 0
  79 0032 1020     		movs	r0, #16
  80 0034 0B49     		ldr	r1, .L7+16
  81 0036 3268     		ldr	r2, [r6]
  82 0038 FFF7FEFF 		bl	rf_read_reg
  83              	.LVL6:
  84              		.loc 1 50 0
  85 003c 3268     		ldr	r2, [r6]
  86 003e 0848     		ldr	r0, .L7+12
  87 0040 0849     		ldr	r1, .L7+16
  88 0042 FFF7FEFF 		bl	memcmp
  89              	.LVL7:
  90 0046 084B     		ldr	r3, .L7+20
  91 0048 B0FA80F0 		clz	r0, r0
  92 004c 4009     		lsrs	r0, r0, #5
  93 004e 1870     		strb	r0, [r3]
  94 0050 BDE8F081 		pop	{r4, r5, r6, r7, r8, pc}
  95              	.LVL8:
  96              	.L8:
  97              		.align	2
  98              	.L7:
  99 0054 00000000 		.word	.LANCHOR0
 100 0058 00000000 		.word	.LANCHOR1
 101 005c 00000000 		.word	.LANCHOR3
 102 0060 00000000 		.word	.LANCHOR2
 103 0064 00000000 		.word	.LANCHOR4
 104 0068 00000000 		.word	.LANCHOR5
 105              		.cfi_endproc
 106              	.LFE118:
 107              		.size	rfhelp_init, .-rfhelp_init
 108              		.section	.text.rfhelp_restart,"ax",%progbits
 109              		.align	2
 110              		.p2align 4,,15
 111              		.global	rfhelp_restart
 112              		.thumb
 113              		.thumb_func
 114              		.type	rfhelp_restart, %function
ARM GAS  /var/folders/bz/nn5481rn5xq59rb0mbj7x0880000gn/T//ccWjsB25.s 			page 3


 115              	rfhelp_restart:
 116              	.LFB119:
 117              		.loc 1 56 0
 118              		.cfi_startproc
 119              		@ args = 0, pretend = 0, frame = 0
 120              		@ frame_needed = 0, uses_anonymous_args = 0
 121 0000 F8B5     		push	{r3, r4, r5, r6, r7, lr}
 122              		.cfi_def_cfa_offset 24
 123              		.cfi_offset 3, -24
 124              		.cfi_offset 4, -20
 125              		.cfi_offset 5, -16
 126              		.cfi_offset 6, -12
 127              		.cfi_offset 7, -8
 128              		.cfi_offset 14, -4
 129              		.loc 1 60 0
 130 0002 124F     		ldr	r7, .L18
 131              		.loc 1 57 0
 132 0004 1248     		ldr	r0, .L18+4
 133 0006 134E     		ldr	r6, .L18+8
 134 0008 134D     		ldr	r5, .L18+12
 135 000a FFF7FEFF 		bl	chMtxLock
 136              	.LVL9:
 137              		.loc 1 59 0
 138 000e FFF7FEFF 		bl	rf_init
 139              	.LVL10:
 140              		.loc 1 60 0
 141 0012 3968     		ldr	r1, [r7]
 142 0014 1148     		ldr	r0, .L18+16
 143 0016 FFF7FEFF 		bl	rf_set_tx_addr
 144              	.LVL11:
 145              	.LBB3:
 146              		.loc 1 61 0
 147 001a 0024     		movs	r4, #0
 148 001c 04E0     		b	.L11
 149              	.LVL12:
 150              	.L10:
 151              		.loc 1 61 0 is_stmt 0 discriminator 2
 152 001e 0134     		adds	r4, r4, #1
 153              	.LVL13:
 154 0020 062C     		cmp	r4, #6
 155 0022 05F10505 		add	r5, r5, #5
 156 0026 0DD0     		beq	.L17
 157              	.LVL14:
 158              	.L11:
 159              		.loc 1 62 0 is_stmt 1
 160 0028 16F8013B 		ldrb	r3, [r6], #1	@ zero_extendqisi2
 161 002c 002B     		cmp	r3, #0
 162 002e F6D0     		beq	.L10
 163              		.loc 1 63 0
 164 0030 2046     		mov	r0, r4
 165 0032 2946     		mov	r1, r5
 166 0034 3A68     		ldr	r2, [r7]
 167              		.loc 1 61 0
 168 0036 0134     		adds	r4, r4, #1
 169              	.LVL15:
 170              		.loc 1 63 0
 171 0038 FFF7FEFF 		bl	rf_set_rx_addr
ARM GAS  /var/folders/bz/nn5481rn5xq59rb0mbj7x0880000gn/T//ccWjsB25.s 			page 4


 172              	.LVL16:
 173              		.loc 1 61 0
 174 003c 062C     		cmp	r4, #6
 175 003e 05F10505 		add	r5, r5, #5
 176 0042 F1D1     		bne	.L11
 177              	.L17:
 178              	.LBE3:
 179              		.loc 1 68 0
 180 0044 BDE8F840 		pop	{r3, r4, r5, r6, r7, lr}
 181              		.cfi_restore 14
 182              		.cfi_restore 7
 183              		.cfi_restore 6
 184              		.cfi_restore 5
 185              		.cfi_restore 4
 186              		.cfi_restore 3
 187              		.cfi_def_cfa_offset 0
 188              	.LVL17:
 189              		.loc 1 67 0
 190 0048 FFF7FEBF 		b	chMtxUnlock
 191              	.LVL18:
 192              	.L19:
 193              		.align	2
 194              	.L18:
 195 004c 00000000 		.word	.LANCHOR1
 196 0050 00000000 		.word	.LANCHOR0
 197 0054 00000000 		.word	.LANCHOR3
 198 0058 00000000 		.word	.LANCHOR2
 199 005c 00000000 		.word	.LANCHOR4
 200              		.cfi_endproc
 201              	.LFE119:
 202              		.size	rfhelp_restart, .-rfhelp_restart
 203              		.section	.text.rfhelp_send_data,"ax",%progbits
 204              		.align	2
 205              		.p2align 4,,15
 206              		.global	rfhelp_send_data
 207              		.thumb
 208              		.thumb_func
 209              		.type	rfhelp_send_data, %function
 210              	rfhelp_send_data:
 211              	.LFB120:
 212              		.loc 1 84 0
 213              		.cfi_startproc
 214              		@ args = 0, pretend = 0, frame = 0
 215              		@ frame_needed = 0, uses_anonymous_args = 0
 216              	.LVL19:
 217 0000 70B5     		push	{r4, r5, r6, lr}
 218              		.cfi_def_cfa_offset 16
 219              		.cfi_offset 4, -16
 220              		.cfi_offset 5, -12
 221              		.cfi_offset 6, -8
 222              		.cfi_offset 14, -4
 223              		.loc 1 84 0
 224 0002 0C46     		mov	r4, r1
 225 0004 0546     		mov	r5, r0
 226              		.loc 1 97 0
 227 0006 1D4E     		ldr	r6, .L33
 228              		.loc 1 88 0
ARM GAS  /var/folders/bz/nn5481rn5xq59rb0mbj7x0880000gn/T//ccWjsB25.s 			page 5


 229 0008 1D48     		ldr	r0, .L33+4
 230              	.LVL20:
 231 000a FFF7FEFF 		bl	chMtxLock
 232              	.LVL21:
 233              		.loc 1 90 0
 234 000e FFF7FEFF 		bl	rf_mode_tx
 235              	.LVL22:
 236              		.loc 1 91 0
 237 0012 FFF7FEFF 		bl	rf_clear_irq
 238              	.LVL23:
 239              		.loc 1 92 0
 240 0016 FFF7FEFF 		bl	rf_flush_all
 241              	.LVL24:
 242              		.loc 1 94 0
 243 001a 2846     		mov	r0, r5
 244 001c 2146     		mov	r1, r4
 245 001e FFF7FEFF 		bl	rf_write_tx_payload
 246              	.LVL25:
 247              		.loc 1 97 0
 248 0022 3078     		ldrb	r0, [r6]	@ zero_extendqisi2
 249 0024 00B3     		cbz	r0, .L29
 250              	.L21:
 251              		.loc 1 84 0
 252 0026 3C25     		movs	r5, #60
 253              	.LVL26:
 254 0028 03E0     		b	.L24
 255              	.LVL27:
 256              	.L32:
 257              	.LBB4:
 258              		.loc 1 110 0
 259 002a E306     		lsls	r3, r4, #27
 260 002c 17D4     		bmi	.L30
 261              		.loc 1 114 0
 262 002e 013D     		subs	r5, r5, #1
 263              	.LVL28:
 264 0030 20D0     		beq	.L31
 265              	.LVL29:
 266              	.L24:
 267              		.loc 1 102 0
 268 0032 FFF7FEFF 		bl	rf_status
 269              	.LVL30:
 270 0036 0446     		mov	r4, r0
 271              	.LVL31:
 272              		.loc 1 104 0
 273 0038 0A20     		movs	r0, #10
 274              	.LVL32:
 275 003a FFF7FEFF 		bl	chThdSleep
 276              	.LVL33:
 277              		.loc 1 107 0
 278 003e A206     		lsls	r2, r4, #26
 279 0040 F3D5     		bpl	.L32
 280              		.loc 1 108 0
 281 0042 0024     		movs	r4, #0
 282              	.LVL34:
 283              	.L22:
 284              	.LBE4:
 285              		.loc 1 121 0
ARM GAS  /var/folders/bz/nn5481rn5xq59rb0mbj7x0880000gn/T//ccWjsB25.s 			page 6


 286 0044 3078     		ldrb	r0, [r6]	@ zero_extendqisi2
 287 0046 20B9     		cbnz	r0, .L25
 288              		.loc 1 122 0
 289 0048 0E4B     		ldr	r3, .L33+8
 290 004a 0F49     		ldr	r1, .L33+12
 291 004c 1A68     		ldr	r2, [r3]
 292 004e FFF7FEFF 		bl	rf_set_rx_addr
 293              	.LVL35:
 294              	.L25:
 295              		.loc 1 125 0
 296 0052 FFF7FEFF 		bl	rf_mode_rx
 297              	.LVL36:
 298              		.loc 1 127 0
 299 0056 FFF7FEFF 		bl	chMtxUnlock
 300              	.LVL37:
 301              		.loc 1 130 0
 302 005a 2046     		mov	r0, r4
 303 005c 70BD     		pop	{r4, r5, r6, pc}
 304              	.LVL38:
 305              	.L30:
 306              	.LBB5:
 307              		.loc 1 111 0
 308 005e FFF7FEFF 		bl	rf_clear_maxrt_irq
 309              	.LVL39:
 310              		.loc 1 112 0
 311 0062 4FF0FF34 		mov	r4, #-1
 312              	.LVL40:
 313              		.loc 1 113 0
 314 0066 EDE7     		b	.L22
 315              	.LVL41:
 316              	.L29:
 317              	.LBE5:
 318              		.loc 1 98 0
 319 0068 064B     		ldr	r3, .L33+8
 320 006a 0849     		ldr	r1, .L33+16
 321 006c 1A68     		ldr	r2, [r3]
 322 006e FFF7FEFF 		bl	rf_set_rx_addr
 323              	.LVL42:
 324 0072 D8E7     		b	.L21
 325              	.LVL43:
 326              	.L31:
 327              	.LBB6:
 328              		.loc 1 115 0
 329 0074 6FF00104 		mvn	r4, #1
 330              	.LVL44:
 331 0078 E4E7     		b	.L22
 332              	.L34:
 333 007a 00BF     		.align	2
 334              	.L33:
 335 007c 00000000 		.word	.LANCHOR5
 336 0080 00000000 		.word	.LANCHOR0
 337 0084 00000000 		.word	.LANCHOR1
 338 0088 00000000 		.word	.LANCHOR2
 339 008c 00000000 		.word	.LANCHOR4
 340              	.LBE6:
 341              		.cfi_endproc
 342              	.LFE120:
ARM GAS  /var/folders/bz/nn5481rn5xq59rb0mbj7x0880000gn/T//ccWjsB25.s 			page 7


 343              		.size	rfhelp_send_data, .-rfhelp_send_data
 344              		.section	.text.rfhelp_read_rx_data,"ax",%progbits
 345              		.align	2
 346              		.p2align 4,,15
 347              		.global	rfhelp_read_rx_data
 348              		.thumb
 349              		.thumb_func
 350              		.type	rfhelp_read_rx_data, %function
 351              	rfhelp_read_rx_data:
 352              	.LFB121:
 353              		.loc 1 150 0
 354              		.cfi_startproc
 355              		@ args = 0, pretend = 0, frame = 0
 356              		@ frame_needed = 0, uses_anonymous_args = 0
 357              	.LVL45:
 358 0000 F8B5     		push	{r3, r4, r5, r6, r7, lr}
 359              		.cfi_def_cfa_offset 24
 360              		.cfi_offset 3, -24
 361              		.cfi_offset 4, -20
 362              		.cfi_offset 5, -16
 363              		.cfi_offset 6, -12
 364              		.cfi_offset 7, -8
 365              		.cfi_offset 14, -4
 366              		.loc 1 150 0
 367 0002 0746     		mov	r7, r0
 368              		.loc 1 153 0
 369 0004 1548     		ldr	r0, .L44
 370              	.LVL46:
 371              		.loc 1 150 0
 372 0006 0C46     		mov	r4, r1
 373 0008 1646     		mov	r6, r2
 374              		.loc 1 153 0
 375 000a FFF7FEFF 		bl	chMtxLock
 376              	.LVL47:
 377              		.loc 1 155 0
 378 000e FFF7FEFF 		bl	rf_status
 379              	.LVL48:
 380              		.loc 1 156 0
 381 0012 C0F34205 		ubfx	r5, r0, #1, #3
 382              	.LVL49:
 383              		.loc 1 158 0
 384 0016 072D     		cmp	r5, #7
 385 0018 1DD0     		beq	.L39
 386              		.loc 1 159 0
 387 001a FFF7FEFF 		bl	rf_get_payload_width
 388              	.LVL50:
 389 001e 0146     		mov	r1, r0
 390 0020 2060     		str	r0, [r4]
 391              		.loc 1 160 0
 392 0022 0EB1     		cbz	r6, .L37
 393              		.loc 1 161 0
 394 0024 3560     		str	r5, [r6]
 395 0026 2168     		ldr	r1, [r4]
 396              	.L37:
 397              		.loc 1 163 0
 398 0028 2029     		cmp	r1, #32
 399 002a 0FD8     		bhi	.L38
ARM GAS  /var/folders/bz/nn5481rn5xq59rb0mbj7x0880000gn/T//ccWjsB25.s 			page 8


 400              		.loc 1 164 0
 401 002c 3846     		mov	r0, r7
 402 002e FFF7FEFF 		bl	rf_read_rx_payload
 403              	.LVL51:
 404              		.loc 1 165 0
 405 0032 FFF7FEFF 		bl	rf_clear_rx_irq
 406              	.LVL52:
 407              		.loc 1 167 0
 408 0036 FFF7FEFF 		bl	rf_status
 409              	.LVL53:
 410              		.loc 1 168 0
 411 003a C0F34200 		ubfx	r0, r0, #1, #3
 412              	.LVL54:
 413 003e C41F     		subs	r4, r0, #7
 414              	.LVL55:
 415 0040 18BF     		it	ne
 416 0042 0124     		movne	r4, #1
 417              	.LVL56:
 418              	.L36:
 419              		.loc 1 179 0
 420 0044 FFF7FEFF 		bl	chMtxUnlock
 421              	.LVL57:
 422              		.loc 1 182 0
 423 0048 2046     		mov	r0, r4
 424 004a F8BD     		pop	{r3, r4, r5, r6, r7, pc}
 425              	.LVL58:
 426              	.L38:
 427              		.loc 1 174 0
 428 004c 0023     		movs	r3, #0
 429 004e 2360     		str	r3, [r4]
 430              	.LVL59:
 431              		.loc 1 175 0
 432 0050 6FF00104 		mvn	r4, #1
 433              	.LVL60:
 434 0054 F6E7     		b	.L36
 435              	.LVL61:
 436              	.L39:
 437              		.loc 1 151 0
 438 0056 4FF0FF34 		mov	r4, #-1
 439              	.LVL62:
 440 005a F3E7     		b	.L36
 441              	.L45:
 442              		.align	2
 443              	.L44:
 444 005c 00000000 		.word	.LANCHOR0
 445              		.cfi_endproc
 446              	.LFE121:
 447              		.size	rfhelp_read_rx_data, .-rfhelp_read_rx_data
 448              		.section	.text.rfhelp_rf_status,"ax",%progbits
 449              		.align	2
 450              		.p2align 4,,15
 451              		.global	rfhelp_rf_status
 452              		.thumb
 453              		.thumb_func
 454              		.type	rfhelp_rf_status, %function
 455              	rfhelp_rf_status:
 456              	.LFB122:
ARM GAS  /var/folders/bz/nn5481rn5xq59rb0mbj7x0880000gn/T//ccWjsB25.s 			page 9


 457              		.loc 1 184 0
 458              		.cfi_startproc
 459              		@ args = 0, pretend = 0, frame = 0
 460              		@ frame_needed = 0, uses_anonymous_args = 0
 461 0000 10B5     		push	{r4, lr}
 462              		.cfi_def_cfa_offset 8
 463              		.cfi_offset 4, -8
 464              		.cfi_offset 14, -4
 465              		.loc 1 185 0
 466 0002 0548     		ldr	r0, .L48
 467 0004 FFF7FEFF 		bl	chMtxLock
 468              	.LVL63:
 469              		.loc 1 186 0
 470 0008 FFF7FEFF 		bl	rf_status
 471              	.LVL64:
 472 000c 0446     		mov	r4, r0
 473              	.LVL65:
 474              		.loc 1 187 0
 475 000e FFF7FEFF 		bl	chMtxUnlock
 476              	.LVL66:
 477              		.loc 1 190 0
 478 0012 2046     		mov	r0, r4
 479 0014 10BD     		pop	{r4, pc}
 480              	.LVL67:
 481              	.L49:
 482 0016 00BF     		.align	2
 483              	.L48:
 484 0018 00000000 		.word	.LANCHOR0
 485              		.cfi_endproc
 486              	.LFE122:
 487              		.size	rfhelp_rf_status, .-rfhelp_rf_status
 488              		.section	.text.rfhelp_set_tx_addr,"ax",%progbits
 489              		.align	2
 490              		.p2align 4,,15
 491              		.global	rfhelp_set_tx_addr
 492              		.thumb
 493              		.thumb_func
 494              		.type	rfhelp_set_tx_addr, %function
 495              	rfhelp_set_tx_addr:
 496              	.LFB123:
 497              		.loc 1 192 0
 498              		.cfi_startproc
 499              		@ args = 0, pretend = 0, frame = 0
 500              		@ frame_needed = 0, uses_anonymous_args = 0
 501              	.LVL68:
 502 0000 70B5     		push	{r4, r5, r6, lr}
 503              		.cfi_def_cfa_offset 16
 504              		.cfi_offset 4, -16
 505              		.cfi_offset 5, -12
 506              		.cfi_offset 6, -8
 507              		.cfi_offset 14, -4
 508              		.loc 1 194 0
 509 0002 0F4D     		ldr	r5, .L52
 510              		.loc 1 192 0
 511 0004 0C46     		mov	r4, r1
 512 0006 0646     		mov	r6, r0
 513              		.loc 1 193 0
ARM GAS  /var/folders/bz/nn5481rn5xq59rb0mbj7x0880000gn/T//ccWjsB25.s 			page 10


 514 0008 0E48     		ldr	r0, .L52+4
 515              	.LVL69:
 516 000a FFF7FEFF 		bl	chMtxLock
 517              	.LVL70:
 518              		.loc 1 194 0
 519 000e 3146     		mov	r1, r6
 520 0010 2246     		mov	r2, r4
 521 0012 2846     		mov	r0, r5
 522 0014 FFF7FEFF 		bl	memcpy
 523              	.LVL71:
 524              		.loc 1 195 0
 525 0018 0B4B     		ldr	r3, .L52+8
 526              		.loc 1 197 0
 527 001a 0C48     		ldr	r0, .L52+12
 528              		.loc 1 195 0
 529 001c 1C60     		str	r4, [r3]
 530              		.loc 1 197 0
 531 001e 2946     		mov	r1, r5
 532 0020 2246     		mov	r2, r4
 533 0022 FFF7FEFF 		bl	memcmp
 534              	.LVL72:
 535 0026 0A4A     		ldr	r2, .L52+16
 536 0028 B0FA80F3 		clz	r3, r0
 537              		.loc 1 199 0
 538 002c 2146     		mov	r1, r4
 539              		.loc 1 197 0
 540 002e 5B09     		lsrs	r3, r3, #5
 541              		.loc 1 199 0
 542 0030 2846     		mov	r0, r5
 543              		.loc 1 197 0
 544 0032 1370     		strb	r3, [r2]
 545              		.loc 1 199 0
 546 0034 FFF7FEFF 		bl	rf_set_tx_addr
 547              	.LVL73:
 548              		.loc 1 201 0
 549 0038 BDE87040 		pop	{r4, r5, r6, lr}
 550              		.cfi_restore 14
 551              		.cfi_restore 6
 552              		.cfi_restore 5
 553              		.cfi_restore 4
 554              		.cfi_def_cfa_offset 0
 555              	.LVL74:
 556              		.loc 1 200 0
 557 003c FFF7FEBF 		b	chMtxUnlock
 558              	.LVL75:
 559              	.L53:
 560              		.align	2
 561              	.L52:
 562 0040 00000000 		.word	.LANCHOR4
 563 0044 00000000 		.word	.LANCHOR0
 564 0048 00000000 		.word	.LANCHOR1
 565 004c 00000000 		.word	.LANCHOR2
 566 0050 00000000 		.word	.LANCHOR5
 567              		.cfi_endproc
 568              	.LFE123:
 569              		.size	rfhelp_set_tx_addr, .-rfhelp_set_tx_addr
 570              		.section	.text.rfhelp_set_rx_addr,"ax",%progbits
ARM GAS  /var/folders/bz/nn5481rn5xq59rb0mbj7x0880000gn/T//ccWjsB25.s 			page 11


 571              		.align	2
 572              		.p2align 4,,15
 573              		.global	rfhelp_set_rx_addr
 574              		.thumb
 575              		.thumb_func
 576              		.type	rfhelp_set_rx_addr, %function
 577              	rfhelp_set_rx_addr:
 578              	.LFB124:
 579              		.loc 1 203 0
 580              		.cfi_startproc
 581              		@ args = 0, pretend = 0, frame = 0
 582              		@ frame_needed = 0, uses_anonymous_args = 0
 583              	.LVL76:
 584 0000 F8B5     		push	{r3, r4, r5, r6, r7, lr}
 585              		.cfi_def_cfa_offset 24
 586              		.cfi_offset 3, -24
 587              		.cfi_offset 4, -20
 588              		.cfi_offset 5, -16
 589              		.cfi_offset 6, -12
 590              		.cfi_offset 7, -8
 591              		.cfi_offset 14, -4
 592              		.loc 1 203 0
 593 0002 0446     		mov	r4, r0
 594              		.loc 1 205 0
 595 0004 134F     		ldr	r7, .L56
 596              		.loc 1 204 0
 597 0006 1448     		ldr	r0, .L56+4
 598              	.LVL77:
 599              		.loc 1 203 0
 600 0008 1546     		mov	r5, r2
 601 000a 0E46     		mov	r6, r1
 602              		.loc 1 204 0
 603 000c FFF7FEFF 		bl	chMtxLock
 604              	.LVL78:
 605              		.loc 1 205 0
 606 0010 04EB8400 		add	r0, r4, r4, lsl #2
 607 0014 3146     		mov	r1, r6
 608 0016 2A46     		mov	r2, r5
 609 0018 3844     		add	r0, r0, r7
 610 001a FFF7FEFF 		bl	memcpy
 611              	.LVL79:
 612              		.loc 1 206 0
 613 001e 0F4B     		ldr	r3, .L56+8
 614              		.loc 1 208 0
 615 0020 0F49     		ldr	r1, .L56+12
 616              		.loc 1 206 0
 617 0022 1D60     		str	r5, [r3]
 618              		.loc 1 208 0
 619 0024 2A46     		mov	r2, r5
 620 0026 3846     		mov	r0, r7
 621 0028 FFF7FEFF 		bl	memcmp
 622              	.LVL80:
 623              		.loc 1 209 0
 624 002c 0D4F     		ldr	r7, .L56+16
 625              		.loc 1 208 0
 626 002e DFF838E0 		ldr	lr, .L56+20
 627 0032 B0FA80F3 		clz	r3, r0
ARM GAS  /var/folders/bz/nn5481rn5xq59rb0mbj7x0880000gn/T//ccWjsB25.s 			page 12


 628              		.loc 1 211 0
 629 0036 3146     		mov	r1, r6
 630              		.loc 1 208 0
 631 0038 5B09     		lsrs	r3, r3, #5
 632              		.loc 1 211 0
 633 003a 2A46     		mov	r2, r5
 634 003c 2046     		mov	r0, r4
 635              		.loc 1 209 0
 636 003e 0125     		movs	r5, #1
 637              	.LVL81:
 638              		.loc 1 208 0
 639 0040 8EF80030 		strb	r3, [lr]
 640              		.loc 1 209 0
 641 0044 3D55     		strb	r5, [r7, r4]
 642              		.loc 1 211 0
 643 0046 FFF7FEFF 		bl	rf_set_rx_addr
 644              	.LVL82:
 645              		.loc 1 213 0
 646 004a BDE8F840 		pop	{r3, r4, r5, r6, r7, lr}
 647              		.cfi_restore 14
 648              		.cfi_restore 7
 649              		.cfi_restore 6
 650              		.cfi_restore 5
 651              		.cfi_restore 4
 652              		.cfi_restore 3
 653              		.cfi_def_cfa_offset 0
 654              	.LVL83:
 655              		.loc 1 212 0
 656 004e FFF7FEBF 		b	chMtxUnlock
 657              	.LVL84:
 658              	.L57:
 659 0052 00BF     		.align	2
 660              	.L56:
 661 0054 00000000 		.word	.LANCHOR2
 662 0058 00000000 		.word	.LANCHOR0
 663 005c 00000000 		.word	.LANCHOR1
 664 0060 00000000 		.word	.LANCHOR4
 665 0064 00000000 		.word	.LANCHOR3
 666 0068 00000000 		.word	.LANCHOR5
 667              		.cfi_endproc
 668              	.LFE124:
 669              		.size	rfhelp_set_rx_addr, .-rfhelp_set_rx_addr
 670              		.section	.bss.tx_addr,"aw",%nobits
 671              		.align	2
 672              		.set	.LANCHOR4,. + 0
 673              		.type	tx_addr, %object
 674              		.size	tx_addr, 5
 675              	tx_addr:
 676 0000 00000000 		.space	5
 676      00
 677              		.section	.bss.rx_addr_set,"aw",%nobits
 678              		.align	2
 679              		.set	.LANCHOR3,. + 0
 680              		.type	rx_addr_set, %object
 681              		.size	rx_addr_set, 6
 682              	rx_addr_set:
 683 0000 00000000 		.space	6
ARM GAS  /var/folders/bz/nn5481rn5xq59rb0mbj7x0880000gn/T//ccWjsB25.s 			page 13


 683      0000
 684              		.section	.bss.rf_mutex,"aw",%nobits
 685              		.align	2
 686              		.set	.LANCHOR0,. + 0
 687              		.type	rf_mutex, %object
 688              		.size	rf_mutex, 16
 689              	rf_mutex:
 690 0000 00000000 		.space	16
 690      00000000 
 690      00000000 
 690      00000000 
 691              		.section	.bss.rx_addr,"aw",%nobits
 692              		.align	2
 693              		.set	.LANCHOR2,. + 0
 694              		.type	rx_addr, %object
 695              		.size	rx_addr, 30
 696              	rx_addr:
 697 0000 00000000 		.space	30
 697      00000000 
 697      00000000 
 697      00000000 
 697      00000000 
 698              		.section	.bss.address_length,"aw",%nobits
 699              		.align	2
 700              		.set	.LANCHOR1,. + 0
 701              		.type	address_length, %object
 702              		.size	address_length, 4
 703              	address_length:
 704 0000 00000000 		.space	4
 705              		.section	.bss.tx_pipe0_addr_eq,"aw",%nobits
 706              		.set	.LANCHOR5,. + 0
 707              		.type	tx_pipe0_addr_eq, %object
 708              		.size	tx_pipe0_addr_eq, 1
 709              	tx_pipe0_addr_eq:
 710 0000 00       		.space	1
 711              		.text
 712              	.Letext0:
 713              		.file 2 "/Users/imac/Downloads/gcc-arm-none-eabi-4_9-2015q2/arm-none-eabi/include/machine/_default
 714              		.file 3 "/Users/imac/Downloads/gcc-arm-none-eabi-4_9-2015q2/arm-none-eabi/include/sys/_stdint.h"
 715              		.file 4 "/Users/imac/Downloads/gcc-arm-none-eabi-4_9-2015q2/lib/gcc/arm-none-eabi/4.9.3/include/st
 716              		.file 5 "lib/ChibiOS_2.6.6/os/ports/GCC/ARMCMx/chtypes.h"
 717              		.file 6 "lib/ChibiOS_2.6.6/os/kernel/include/chlists.h"
 718              		.file 7 "lib/ChibiOS_2.6.6/os/kernel/include/chthreads.h"
 719              		.file 8 "lib/ChibiOS_2.6.6/os/ports/GCC/ARMCMx/chcore_v7m.h"
 720              		.file 9 "lib/ChibiOS_2.6.6/os/kernel/include/chmtx.h"
 721              		.file 10 "lib/nrf/rf.h"
 722              		.file 11 "lib/ChibiOS_2.6.6/os/ports/common/ARMCMx/CMSIS/include/core_cm4.h"
 723              		.file 12 "/Users/imac/Downloads/gcc-arm-none-eabi-4_9-2015q2/arm-none-eabi/include/string.h"