ARM GAS  /var/folders/bz/nn5481rn5xq59rb0mbj7x0880000gn/T//ccWjsB25.s 			page 1


   1              		.syntax unified
   2              		.cpu cortex-m4
   3              		.eabi_attribute 27, 1
   4              		.eabi_attribute 28, 1
   5              		.fpu fpv4-sp-d16
   6              		.eabi_attribute 20, 1
   7              		.eabi_attribute 21, 1
   8              		.eabi_attribute 23, 3
   9              		.eabi_attribute 24, 1
  10              		.eabi_attribute 25, 1
  11              		.eabi_attribute 26, 1
  12              		.eabi_attribute 30, 2
  13              		.eabi_attribute 34, 1
  14              		.eabi_attribute 18, 4
  15              		.thumb
  16              		.file	"rfhelp.c"
  17              		.text
  18              	.Ltext0:
  19              		.cfi_sections	.debug_frame
  20              		.section	.text.rfhelp_init,"ax",%progbits
  21              		.align	2
  22              		.p2align 4,,15
  23              		.global	rfhelp_init
  24              		.thumb
  25              		.thumb_func
  26              		.type	rfhelp_init, %function
  27              	rfhelp_init:
  28              	.LFB118:
  29              		.file 1 "lib/nrf/rfhelp.c"
  30              		.loc 1 33 0
  31              		.cfi_startproc
  32              		@ args = 0, pretend = 0, frame = 0
  33              		@ frame_needed = 0, uses_anonymous_args = 0
  34 0000 2DE9F041 		push	{r4, r5, r6, r7, r8, lr}
  35              		.cfi_def_cfa_offset 24
  36              		.cfi_offset 4, -24
  37              		.cfi_offset 5, -20
  38              		.cfi_offset 6, -16
  39              		.cfi_offset 7, -12
  40              		.cfi_offset 8, -8
  41              		.cfi_offset 14, -4
  42              		.loc 1 34 0
  43 0004 1348     		ldr	r0, .L7
  44              		.loc 1 37 0
  45 0006 144E     		ldr	r6, .L7+4
  46 0008 144C     		ldr	r4, .L7+8
  47 000a 154D     		ldr	r5, .L7+12
  48              		.loc 1 34 0
  49 000c FFF7FEFF 		bl	chMtxInit
  50              	.LVL0:
  51              		.loc 1 37 0
  52 0010 0522     		movs	r2, #5
  53 0012 3260     		str	r2, [r6]
  54              	.LVL1:
  55 0014 04F10608 		add	r8, r4, #6
  56              	.LBB2:
  57              		.loc 1 46 0
ARM GAS  /var/folders/bz/nn5481rn5xq59rb0mbj7x0880000gn/T//ccWjsB25.s 			page 2


  58 0018 0027     		movs	r7, #0
  59 001a 00E0     		b	.L3
  60              	.LVL2:
  61              	.L6:
  62 001c 3268     		ldr	r2, [r6]
  63              	.LVL3:
  64              	.L3:
  65              		.loc 1 45 0 discriminator 3
  66 001e 2946     		mov	r1, r5
  67 0020 0A20     		movs	r0, #10
  68 0022 FFF7FEFF 		bl	rf_read_reg
  69              	.LVL4:
  70              		.loc 1 46 0 discriminator 3
  71 0026 04F8017B 		strb	r7, [r4], #1
  72              	.LVL5:
  73              		.loc 1 44 0 discriminator 3
  74 002a 4445     		cmp	r4, r8
  75 002c 05F10505 		add	r5, r5, #5
  76 0030 F4D1     		bne	.L6
  77              	.LBE2:
  78              		.loc 1 48 0
  79 0032 1020     		movs	r0, #16
  80 0034 0B49     		ldr	r1, .L7+16
  81 0036 3268     		ldr	r2, [r6]
  82 0038 FFF7FEFF 		bl	rf_read_reg
  83              	.LVL6:
  84              		.loc 1 50 0
  85 003c 3268     		ldr	r2, [r6]
  86 003e 0848     		ldr	r0, .L7+12
  87 0040 0849     		ldr	r1, .L7+16
  88 0042 FFF7FEFF 		bl	memcmp
  89              	.LVL7:
  90 0046 084B     		ldr	r3, .L7+20
  91 0048 B0FA80F0 		clz	r0, r0
  92 004c 4009     		lsrs	r0, r0, #5
  93 004e 1870     		strb	r0, [r3]
  94 0050 BDE8F081 		pop	{r4, r5, r6, r7, r8, pc}
  95              	.LVL8:
  96              	.L8:
  97              		.align	2
  98              	.L7:
  99 0054 00000000 		.word	.LANCHOR0
 100 0058 00000000 		.word	.LANCHOR1
 101 005c 00000000 		.word	.LANCHOR3
 102 0060 00000000 		.word	.LANCHOR2
 103 0064 00000000 		.word	.LANCHOR4
 104 0068 00000000 		.word	.LANCHOR5
 105              		.cfi_endproc
 106              	.LFE118:
 107              		.size	rfhelp_init, .-rfhelp_init
 108              		.section	.text.rfhelp_restart,"ax",%progbits
 109              		.align	2
 110              		.p2align 4,,15
 111              		.global	rfhelp_restart
 112              		.thumb
 113              		.thumb_func
 114              		.type	rfhelp_restart, %function
ARM GAS  /var/folders/bz/nn5481rn5xq59rb0mbj7x0880000gn/T//ccWjsB25.s 			page 3


 115              	rfhelp_restart:
 116              	.LFB119:
 117              		.loc 1 56 0
 118              		.cfi_startproc
 119              		@ args = 0, pretend = 0, frame = 0
 120              		@ frame_needed = 0, uses_anonymous_args = 0
 121 0000 F8B5     		push	{r3, r4, r5, r6, r7, lr}
 122              		.cfi_def_cfa_offset 24
 123              		.cfi_offset 3, -24
 124              		.cfi_offset 4, -20
 125              		.cfi_offset 5, -16
 126              		.cfi_offset 6, -12
 127              		.cfi_offset 7, -8
 128              		.cfi_offset 14, -4
 129              		.loc 1 60 0
 130 0002 124F     		ldr	r7, .L18
 131              		.loc 1 57 0
 132 0004 1248     		ldr	r0, .L18+4
 133 0006 134E     		ldr	r6, .L18+8
 134 0008 134D     		ldr	r5, .L18+12
 135 000a FFF7FEFF 		bl	chMtxLock
 136              	.LVL9:
 137              		.loc 1 59 0
 138 000e FFF7FEFF 		bl	rf_init
 139              	.LVL10:
 140              		.loc 1 60 0
 141 0012 3968     		ldr	r1, [r7]
 142 0014 1148     		ldr	r0, .L18+16
 143 0016 FFF7FEFF 		bl	rf_set_tx_addr
 144              	.LVL11:
 145              	.LBB3:
 146              		.loc 1 61 0
 147 001a 0024     		movs	r4, #0
 148 001c 04E0     		b	.L11
 149              	.LVL12:
 150              	.L10:
 151              		.loc 1 61 0 is_stmt 0 discriminator 2
 152 001e 0134     		adds	r4, r4, #1
 153              	.LVL13:
 154 0020 062C     		cmp	r4, #6
 155 0022 05F10505 		add	r5, r5, #5
 156 0026 0DD0     		beq	.L17
 157              	.LVL14:
 158              	.L11:
 159              		.loc 1 62 0 is_stmt 1
 160 0028 16F8013B 		ldrb	r3, [r6], #1	@ zero_extendqisi2
 161 002c 002B     		cmp	r3, #0
 162 002e F6D0     		beq	.L10
 163              		.loc 1 63 0
 164 0030 2046     		mov	r0, r4
 165 0032 2946     		mov	r1, r5
 166 0034 3A68     		ldr	r2, [r7]
 167              		.loc 1 61 0
 168 0036 0134     		adds	r4, r4, #1
 169              	.LVL15:
 170              		.loc 1 63 0
 171 0038 FFF7FEFF 		bl	rf_set_rx_addr
ARM GAS  /var/folders/bz/nn5481rn5xq59rb0mbj7x0880000gn/T//ccWjsB25.s 			page 4


 172              	.LVL16:
 173              		.loc 1 61 0
 174 003c 062C     		cmp	r4, #6
 175 003e 05F10505 		add	r5, r5, #5
 176 0042 F1D1     		bne	.L11
 177              	.L17:
 178              	.LBE3:
 179              		.loc 1 68 0
 180 0044 BDE8F840 		pop	{r3, r4, r5, r6, r7, lr}
 181              		.cfi_restore 14
 182              		.cfi_restore 7
 183              		.cfi_restore 6
 184              		.cfi_restore 5
 185              		.cfi_restore 4
 186              		.cfi_restore 3
 187              		.cfi_def_cfa_offset 0
 188              	.LVL17:
 189              		.loc 1 67 0
 190 0048 FFF7FEBF 		b	chMtxUnlock
 191              	.LVL18:
 192              	.L19:
 193              		.align	2
 194              	.L18:
 195 004c 00000000 		.word	.LANCHOR1
 196 0050 00000000 		.word	.LANCHOR0
 197 0054 00000000 		.word	.LANCHOR3
 198 0058 00000000 		.word	.LANCHOR2
 199 005c 00000000 		.word	.LANCHOR4
 200              		.cfi_endproc
 201              	.LFE119:
 202              		.size	rfhelp_restart, .-rfhelp_restart
 203              		.section	.text.rfhelp_send_data,"ax",%progbits
 204              		.align	2
 205              		.p2align 4,,15
 206              		.global	rfhelp_send_data
 207              		.thumb
 208              		.thumb_func
 209              		.type	rfhelp_send_data, %function
 210              	rfhelp_send_data:
 211              	.LFB120:
 212              		.loc 1 84 0
 213              		.cfi_startproc
 214              		@ args = 0, pretend = 0, frame = 0
 215              		@ frame_needed = 0, uses_anonymous_args = 0
 216              	.LVL19:
 217 0000 70B5     		push	{r4, r5, r6, lr}
 218              		.cfi_def_cfa_offset 16
 219              		.cfi_offset 4, -16
 220              		.cfi_offset 5, -12
 221              		.cfi_offset 6, -8
 222              		.cfi_offset 14, -4
 223              		.loc 1 84 0
 224 0002 0C46     		mov	r4, r1
 225 0004 0546     		mov	r5, r0
 226              		.loc 1 97 0
 227 0006 1D4E     		ldr	r6, .L33
 228              		.loc 1 88 0
ARM GAS  /var/folders/bz/nn5481rn5xq59rb0mbj7x0880000gn/T//ccWjsB25.s 			page 5


 229 0008 1D48     		ldr	r0, .L33+4
 230              	.LVL20:
 231 000a FFF7FEFF 		bl	chMtxLock
 232              	.LVL21:
 233              		.loc 1 90 0
 234 000e FFF7FEFF 		bl	rf_mode_tx
 235              	.LVL22:
 236              		.loc 1 91 0
 237 0012 FFF7FEFF 		bl	rf_clear_irq
 238              	.LVL23:
 239              		.loc 1 92 0
 240 0016 FFF7FEFF 		bl	rf_flush_all
 241              	.LVL24:
 242              		.loc 1 94 0
 243 001a 2846     		mov	r0, r5
 244 001c 2146     		mov	r1, r4
 245 001e FFF7FEFF 		bl	rf_write_tx_payload
 246              	.LVL25:
 247              		.loc 1 97 0
 248 0022 3078     		ldrb	r0, [r6]	@ zero_extendqisi2
 249 0024 00B3     		cbz	r0, .L29
 250              	.L21:
 251              		.loc 1 84 0
 252 0026 3C25     		movs	r5, #60
 253              	.LVL26:
 254 0028 03E0     		b	.L24
 255              	.LVL27:
 256              	.L32:
 257              	.LBB4:
 258              		.loc 1 110 0
 259 002a E306     		lsls	r3, r4, #27
 260 002c 17D4     		bmi	.L30
 261              		.loc 1 114 0
 262 002e 013D     		subs	r5, r5, #1
 263              	.LVL28:
 264 0030 20D0     		beq	.L31
 265              	.LVL29:
 266              	.L24:
 267              		.loc 1 102 0
 268 0032 FFF7FEFF 		bl	rf_status
 269              	.LVL30:
 270 0036 0446     		mov	r4, r0
 271              	.LVL31:
 272              		.loc 1 104 0
 273 0038 0A20     		movs	r0, #10
 274              	.LVL32:
 275 003a FFF7FEFF 		bl	chThdSleep
 276              	.LVL33:
 277              		.loc 1 107 0
 278 003e A206     		lsls	r2, r4, #26
 279 0040 F3D5     		bpl	.L32
 280              		.loc 1 108 0
 281 0042 0024     		movs	r4, #0
 282              	.LVL34:
 283              	.L22:
 284              	.LBE4:
 285              		.loc 1 121 0
ARM GAS  /var/folders/bz/nn5481rn5xq59rb0mbj7x0880000gn/T//ccWjsB25.s 			page 6


 286 0044 3078     		ldrb	r0, [r6]	@ zero_extendqisi2
 287 0046 20B9     		cbnz	r0, .L25
 288              		.loc 1 122 0
 289 0048 0E4B     		ldr	r3, .L33+8
 290 004a 0F49     		ldr	r1, .L33+12
 291 004c 1A68     		ldr	r2, [r3]
 292 004e FFF7FEFF 		bl	rf_set_rx_addr
 293              	.LVL35:
 294              	.L25:
 295              		.loc 1 125 0
 296 0052 FFF7FEFF 		bl	rf_mode_rx
 297              	.LVL36:
 298              		.loc 1 127 0
 299 0056 FFF7FEFF 		bl	chMtxUnlock
 300              	.LVL37:
 301              		.loc 1 130 0
 302 005a 2046     		mov	r0, r4
 303 005c 70BD     		pop	{r4, r5, r6, pc}
 304              	.LVL38:
 305              	.L30:
 306              	.LBB5:
 307              		.loc 1 111 0
 308 005e FFF7FEFF 		bl	rf_clear_maxrt_irq
 309              	.LVL39:
 310              		.loc 1 112 0
 311 0062 4FF0FF34 		mov	r4, #-1
 312              	.LVL40:
 313              		.loc 1 113 0
 314 0066 EDE7     		b	.L22
 315              	.LVL41:
 316              	.L29:
 317              	.LBE5:
 318              		.loc 1 98 0
 319 0068 064B     		ldr	r3, .L33+8
 320 006a 0849     		ldr	r1, .L33+16
 321 006c 1A68     		ldr	r2, [r3]
 322 006e FFF7FEFF 		bl	rf_set_rx_addr
 323              	.LVL42:
 324 0072 D8E7     		b	.L21
 325              	.LVL43:
 326              	.L31:
 327              	.LBB6:
 328              		.loc 1 115 0
 329 0074 6FF00104 		mvn	r4, #1
 330              	.LVL44:
 331 0078 E4E7     		b	.L22
 332              	.L34:
 333 007a 00BF     		.align	2
 334              	.L33:
 335 007c 00000000 		.word	.LANCHOR5
 336 0080 00000000 		.word	.LANCHOR0
 337 0084 00000000 		.word	.LANCHOR1
 338 0088 00000000 		.word	.LANCHOR2
 339 008c 00000000 		.word	.LANCHOR4
 340              	.LBE6:
 341              		.cfi_endproc
 342              	.LFE120:
ARM GAS  /var/folders/bz/nn5481rn5xq59rb0mbj7x0880000gn/T//ccWjsB25.s 			page 7


 343              		.size	rfhelp_send_data, .-rfhelp_send_data
 344              		.section	.text.rfhelp_read_rx_data,"ax",%progbits
 345              		.align	2
 346              		.p2align 4,,15
 347              		.global	rfhelp_read_rx_data
 348              		.thumb
 349              		.thumb_func
 350              		.type	rfhelp_read_rx_data, %function
 351              	rfhelp_read_rx_data:
 352              	.LFB121:
 353              		.loc 1 150 0
 354              		.cfi_startproc
 355              		@ args = 0, pretend = 0, frame = 0
 356              		@ frame_needed = 0, uses_anonymous_args = 0
 357              	.LVL45:
 358 0000 F8B5     		push	{r3, r4, r5, r6, r7, lr}
 359              		.cfi_def_cfa_offset 24
 360              		.cfi_offset 3, -24
 361              		.cfi_offset 4, -20
 362              		.cfi_offset 5, -16
 363              		.cfi_offset 6, -12
 364              		.cfi_offset 7, -8
 365              		.cfi_offset 14, -4
 366              		.loc 1 150 0
 367 0002 0746     		mov	r7, r0
 368              		.loc 1 153 0
 369 0004 1548     		ldr	r0, .L44
 370              	.LVL46:
 371              		.loc 1 150 0
 372 0006 0C46     		mov	r4, r1
 373 0008 1646     		mov	r6, r2
 374              		.loc 1 153 0
 375 000a FFF7FEFF 		bl	chMtxLock
 376              	.LVL47:
 377              		.loc 1 155 0
 378 000e FFF7FEFF 		bl	rf_status
 379              	.LVL48:
 380              		.loc 1 156 0
 381 0012 C0F34205 		ubfx	r5, r0, #1, #3
 382              	.LVL49:
 383              		.loc 1 158 0
 384 0016 072D     		cmp	r5, #7
 385 0018 1DD0     		beq	.L39
 386              		.loc 1 159 0
 387 001a FFF7FEFF 		bl	rf_get_payload_width
 388              	.LVL50:
 389 001e 0146     		mov	r1, r0
 390 0020 2060     		str	r0, [r4]
 391              		.loc 1 160 0
 392 0022 0EB1     		cbz	r6, .L37
 393              		.loc 1 161 0
 394 0024 3560     		str	r5, [r6]
 395 0026 2168     		ldr	r1, [r4]
 396              	.L37:
 397              		.loc 1 163 0
 398 0028 2029     		cmp	r1, #32
 399 002a 0FD8     		bhi	.L38
ARM GAS  /var/folders/bz/nn5481rn5xq59rb0mbj7x0880000gn/T//ccWjsB25.s 			page 8


 400              		.loc 1 164 0
 401 002c 3846     		mov	r0, r7
 402 002e FFF7FEFF 		bl	rf_read_rx_payload
 403              	.LVL51:
 404              		.loc 1 165 0
 405 0032 FFF7FEFF 		bl	rf_clear_rx_irq
 406              	.LVL52:
 407              		.loc 1 167 0
 408 0036 FFF7FEFF 		bl	rf_status
 409              	.LVL53:
 410              		.loc 1 168 0
 411 003a C0F34200 		ubfx	r0, r0, #1, #3
 412              	.LVL54:
 413 003e C41F     		subs	r4, r0, #7
 414              	.LVL55:
 415 0040 18BF     		it	ne
 416 0042 0124     		movne	r4, #1
 417              	.LVL56:
 418              	.L36:
 419              		.loc 1 179 0
 420 0044 FFF7FEFF 		bl	chMtxUnlock
 421              	.LVL57:
 422              		.loc 1 182 0
 423 0048 2046     		mov	r0, r4
 424 004a F8BD     		pop	{r3, r4, r5, r6, r7, pc}
 425              	.LVL58:
 426              	.L38:
 427              		.loc 1 174 0
 428 004c 0023     		movs	r3, #0
 429 004e 2360     		str	r3, [r4]
 430              	.LVL59:
 431              		.loc 1 175 0
 432 0050 6FF00104 		mvn	r4, #1
 433              	.LVL60:
 434 0054 F6E7     		b	.L36
 435              	.LVL61:
 436              	.L39:
 437              		.loc 1 151 0
 438 0056 4FF0FF34 		mov	r4, #-1
 439              	.LVL62:
 440 005a F3E7     		b	.L36
 441              	.L45:
 442              		.align	2
 443              	.L44:
 444 005c 00000000 		.word	.LANCHOR0
 445              		.cfi_endproc
 446              	.LFE121:
 447              		.size	rfhelp_read_rx_data, .-rfhelp_read_rx_data
 448              		.section	.text.rfhelp_rf_status,"ax",%progbits
 449              		.align	2
 450              		.p2align 4,,15
 451              		.global	rfhelp_rf_status
 452              		.thumb
 453              		.thumb_func
 454              		.type	rfhelp_rf_status, %function
 455              	rfhelp_rf_status:
 456              	.LFB122:
ARM GAS  /var/folders/bz/nn5481rn5xq59rb0mbj7x0880000gn/T//ccWjsB25.s 			page 9


 457              		.loc 1 184 0
 458              		.cfi_startproc
 459              		@ args = 0, pretend = 0, frame = 0
 460              		@ frame_needed = 0, uses_anonymous_args = 0
 461 0000 10B5     		push	{r4, lr}
 462              		.cfi_def_cfa_offset 8
 463              		.cfi_offset 4, -8
 464              		.cfi_offset 14, -4
 465              		.loc 1 185 0
 466 0002 0548     		ldr	r0, .L48
 467 0004 FFF7FEFF 		bl	chMtxLock
 468              	.LVL63:
 469              		.loc 1 186 0
 470 0008 FFF7FEFF 		bl	rf_status
 471              	.LVL64:
 472 000c 0446     		mov	r4, r0
 473              	.LVL65:
 474              		.loc 1 187 0
 475 000e FFF7FEFF 		bl	chMtxUnlock
 476              	.LVL66:
 477              		.loc 1 190 0
 478 0012 2046     		mov	r0, r4
 479 0014 10BD     		pop	{r4, pc}
 480              	.LVL67:
 481              	.L49:
 482 0016 00BF     		.align	2
 483              	.L48:
 484 0018 00000000 		.word	.LANCHOR0
 485              		.cfi_endproc
 486              	.LFE122:
 487              		.size	rfhelp_rf_status, .-rfhelp_rf_status
 488              		.section	.text.rfhelp_set_tx_addr,"ax",%progbits
 489              		.align	2
 490              		.p2align 4,,15
 491              		.global	rfhelp_set_tx_addr
 492              		.thumb
 493              		.thumb_func
 494              		.type	rfhelp_set_tx_addr, %function
 495              	rfhelp_set_tx_addr:
 496              	.LFB123:
 497              		.loc 1 192 0
 498              		.cfi_startproc
 499              		@ args = 0, pretend = 0, frame = 0
 500              		@ frame_needed = 0, uses_anonymous_args = 0
 501              	.LVL68:
 502 0000 70B5     		push	{r4, r5, r6, lr}
 503              		.cfi_def_cfa_offset 16
 504              		.cfi_offset 4, -16
 505              		.cfi_offset 5, -12
 506              		.cfi_offset 6, -8
 507              		.cfi_offset 14, -4
 508              		.loc 1 194 0
 509 0002 0F4D     		ldr	r5, .L52
 510              		.loc 1 192 0
 511 0004 0C46     		mov	r4, r1
 512 0006 0646     		mov	r6, r0
 513              		.loc 1 193 0
ARM GAS  /var/folders/bz/nn5481rn5xq59rb0mbj7x0880000gn/T//ccWjsB25.s 			page 10


 514 0008 0E48     		ldr	r0, .L52+4
 515              	.LVL69:
 516 000a FFF7FEFF 		bl	chMtxLock
 517              	.LVL70:
 518              		.loc 1 194 0
 519 000e 3146     		mov	r1, r6
 520 0010 2246     		mov	r2, r4
 521 0012 2846     		mov	r0, r5
 522 0014 FFF7FEFF 		bl	memcpy
 523              	.LVL71:
 524              		.loc 1 195 0
 525 0018 0B4B     		ldr	r3, .L52+8
 526              		.loc 1 197 0
 527 001a 0C48     		ldr	r0, .L52+12
 528              		.loc 1 195 0
 529 001c 1C60     		str	r4, [r3]
 530              		.loc 1 197 0
 531 001e 2946     		mov	r1, r5
 532 0020 2246     		mov	r2, r4
 533 0022 FFF7FEFF 		bl	memcmp
 534              	.LVL72:
 535 0026 0A4A     		ldr	r2, .L52+16
 536 0028 B0FA80F3 		clz	r3, r0
 537              		.loc 1 199 0
 538 002c 2146     		mov	r1, r4
 539              		.loc 1 197 0
 540 002e 5B09     		lsrs	r3, r3, #5
 541              		.loc 1 199 0
 542 0030 2846     		mov	r0, r5
 543              		.loc 1 197 0
 544 0032 1370     		strb	r3, [r2]
 545              		.loc 1 199 0
 546 0034 FFF7FEFF 		bl	rf_set_tx_addr
 547              	.LVL73:
 548              		.loc 1 201 0
 549 0038 BDE87040 		pop	{r4, r5, r6, lr}
 550              		.cfi_restore 14
 551              		.cfi_restore 6
 552              		.cfi_restore 5
 553              		.cfi_restore 4
 554              		.cfi_def_cfa_offset 0
 555              	.LVL74:
 556              		.loc 1 200 0
 557 003c FFF7FEBF 		b	chMtxUnlock
 558              	.LVL75:
 559              	.L53:
 560              		.align	2
 561              	.L52:
 562 0040 00000000 		.word	.LANCHOR4
 563 0044 00000000 		.word	.LANCHOR0
 564 0048 00000000 		.word	.LANCHOR1
 565 004c 00000000 		.word	.LANCHOR2
 566 0050 00000000 		.word	.LANCHOR5
 567              		.cfi_endproc
 568              	.LFE123:
 569              		.size	rfhelp_set_tx_addr, .-rfhelp_set_tx_addr
 570              		.section	.text.rfhelp_set_rx_addr,"ax",%progbits
ARM GAS  /var/folders/bz/nn5481rn5xq59rb0mbj7x0880000gn/T//ccWjsB25.s 			page 11


 571              		.align	2
 572              		.p2align 4,,15
 573              		.global	rfhelp_set_rx_addr
 574              		.thumb
 575              		.thumb_func
 576              		.type	rfhelp_set_rx_addr, %function
 577              	rfhelp_set_rx_addr:
 578              	.LFB124:
 579              		.loc 1 203 0
 580              		.cfi_startproc
 581              		@ args = 0, pretend = 0, frame = 0
 582              		@ frame_needed = 0, uses_anonymous_args = 0
 583              	.LVL76:
 584 0000 F8B5     		push	{r3, r4, r5, r6, r7, lr}
 585              		.cfi_def_cfa_offset 24
 586              		.cfi_offset 3, -24
 587              		.cfi_offset 4, -20
 588              		.cfi_offset 5, -16
 589              		.cfi_offset 6, -12
 590              		.cfi_offset 7, -8
 591              		.cfi_offset 14, -4
 592              		.loc 1 203 0
 593 0002 0446     		mov	r4, r0
 594              		.loc 1 205 0
 595 0004 134F     		ldr	r7, .L56
 596              		.loc 1 204 0
 597 0006 1448     		ldr	r0, .L56+4
 598              	.LVL77:
 599              		.loc 1 203 0
 600 0008 1546     		mov	r5, r2
 601 000a 0E46     		mov	r6, r1
 602              		.loc 1 204 0
 603 000c FFF7FEFF 		bl	chMtxLock
 604              	.LVL78:
 605              		.loc 1 205 0
 606 0010 04EB8400 		add	r0, r4, r4, lsl #2
 607 0014 3146     		mov	r1, r6
 608 0016 2A46     		mov	r2, r5
 609 0018 3844     		add	r0, r0, r7
 610 001a FFF7FEFF 		bl	memcpy
 611              	.LVL79:
 612              		.loc 1 206 0
 613 001e 0F4B     		ldr	r3, .L56+8
 614              		.loc 1 208 0
 615 0020 0F49     		ldr	r1, .L56+12
 616              		.loc 1 206 0
 617 0022 1D60     		str	r5, [r3]
 618              		.loc 1 208 0
 619 0024 2A46     		mov	r2, r5
 620 0026 3846     		mov	r0, r7
 621 0028 FFF7FEFF 		bl	memcmp
 622              	.LVL80:
 623              		.loc 1 209 0
 624 002c 0D4F     		ldr	r7, .L56+16
 625              		.loc 1 208 0
 626 002e DFF838E0 		ldr	lr, .L56+20
 627 0032 B0FA80F3 		clz	r3, r0
ARM GAS  /var/folders/bz/nn5481rn5xq59rb0mbj7x0880000gn/T//ccWjsB25.s 			page 12


 628              		.loc 1 211 0
 629 0036 3146     		mov	r1, r6
 630              		.loc 1 208 0
 631 0038 5B09     		lsrs	r3, r3, #5
 632              		.loc 1 211 0
 633 003a 2A46     		mov	r2, r5
 634 003c 2046     		mov	r0, r4
 635              		.loc 1 209 0
 636 003e 0125     		movs	r5, #1
 637              	.LVL81:
 638              		.loc 1 208 0
 639 0040 8EF80030 		strb	r3, [lr]
 640              		.loc 1 209 0
 641 0044 3D55     		strb	r5, [r7, r4]
 642              		.loc 1 211 0
 643 0046 FFF7FEFF 		bl	rf_set_rx_addr
 644              	.LVL82:
 645              		.loc 1 213 0
 646 004a BDE8F840 		pop	{r3, r4, r5, r6, r7, lr}
 647              		.cfi_restore 14
 648              		.cfi_restore 7
 649              		.cfi_restore 6
 650              		.cfi_restore 5
 651              		.cfi_restore 4
 652              		.cfi_restore 3
 653              		.cfi_def_cfa_offset 0
 654              	.LVL83:
 655              		.loc 1 212 0
 656 004e FFF7FEBF 		b	chMtxUnlock
 657              	.LVL84:
 658              	.L57:
 659 0052 00BF     		.align	2
 660              	.L56:
 661 0054 00000000 		.word	.LANCHOR2
 662 0058 00000000 		.word	.LANCHOR0
 663 005c 00000000 		.word	.LANCHOR1
 664 0060 00000000 		.word	.LANCHOR4
 665 0064 00000000 		.word	.LANCHOR3
 666 0068 00000000 		.word	.LANCHOR5
 667              		.cfi_endproc
 668              	.LFE124:
 669              		.size	rfhelp_set_rx_addr, .-rfhelp_set_rx_addr
 670              		.section	.bss.tx_addr,"aw",%nobits
 671              		.align	2
 672              		.set	.LANCHOR4,. + 0
 673              		.type	tx_addr, %object
 674              		.size	tx_addr, 5
 675              	tx_addr:
 676 0000 00000000 		.space	5
 676      00
 677              		.section	.bss.rx_addr_set,"aw",%nobits
 678              		.align	2
 679              		.set	.LANCHOR3,. + 0
 680              		.type	rx_addr_set, %object
 681              		.size	rx_addr_set, 6
 682              	rx_addr_set:
 683 0000 00000000 		.space	6
ARM GAS  /var/folders/bz/nn5481rn5xq59rb0mbj7x0880000gn/T//ccWjsB25.s 			page 13


 683      0000
 684              		.section	.bss.rf_mutex,"aw",%nobits
 685              		.align	2
 686              		.set	.LANCHOR0,. + 0
 687              		.type	rf_mutex, %object
 688              		.size	rf_mutex, 16
 689              	rf_mutex:
 690 0000 00000000 		.space	16
 690      00000000 
 690      00000000 
 690      00000000 
 691              		.section	.bss.rx_addr,"aw",%nobits
 692              		.align	2
 693              		.set	.LANCHOR2,. + 0
 694              		.type	rx_addr, %object
 695              		.size	rx_addr, 30
 696              	rx_addr:
 697 0000 00000000 		.space	30
 697      00000000 
 697      00000000 
 697      00000000 
 697      00000000 
 698              		.section	.bss.address_length,"aw",%nobits
 699              		.align	2
 700              		.set	.LANCHOR1,. + 0
 701              		.type	address_length, %object
 702              		.size	address_length, 4
 703              	address_length:
 704 0000 00000000 		.space	4
 705              		.section	.bss.tx_pipe0_addr_eq,"aw",%nobits
 706              		.set	.LANCHOR5,. + 0
 707              		.type	tx_pipe0_addr_eq, %object
 708              		.size	tx_pipe0_addr_eq, 1
 709              	tx_pipe0_addr_eq:
 710 0000 00       		.space	1
 711              		.text
 712              	.Letext0:
 713              		.file 2 "/Users/imac/Downloads/gcc-arm-none-eabi-4_9-2015q2/arm-none-eabi/include/machine/_default
 714              		.file 3 "/Users/imac/Downloads/gcc-arm-none-eabi-4_9-2015q2/arm-none-eabi/include/sys/_stdint.h"
 715              		.file 4 "/Users/imac/Downloads/gcc-arm-none-eabi-4_9-2015q2/lib/gcc/arm-none-eabi/4.9.3/include/st
 716              		.file 5 "lib/ChibiOS_2.6.6/os/ports/GCC/ARMCMx/chtypes.h"
 717              		.file 6 "lib/ChibiOS_2.6.6/os/kernel/include/chlists.h"
 718              		.file 7 "lib/ChibiOS_2.6.6/os/kernel/include/chthreads.h"
 719              		.file 8 "lib/ChibiOS_2.6.6/os/ports/GCC/ARMCMx/chcore_v7m.h"
 720              		.file 9 "lib/ChibiOS_2.6.6/os/kernel/include/chmtx.h"
 721              		.file 10 "lib/nrf/rf.h"
 722              		.file 11 "lib/ChibiOS_2.6.6/os/ports/common/ARMCMx/CMSIS/include/core_cm4.h"
 723              		.file 12 "/Users/imac/Downloads/gcc-arm-none-eabi-4_9-2015q2/arm-none-eabi/include/string.h"
 724              		.section	.debug_info,"",%progbits
 725              	.Ldebug_info0:
 726 0000 470B0000 		.4byte	0xb47
 727 0004 0400     		.2byte	0x4
 728 0006 00000000 		.4byte	.Ldebug_abbrev0
 729 000a 04       		.byte	0x4
 730 000b 01       		.uleb128 0x1
 731 000c B9030000 		.4byte	.LASF98
 732 0010 01       		.byte	0x1
ARM GAS  /var/folders/bz/nn5481rn5xq59rb0mbj7x0880000gn/T//ccWjsB25.s 			page 14


 733 0011 1E050000 		.4byte	.LASF99
 734 0015 3D010000 		.4byte	.LASF100
 735 0019 20000000 		.4byte	.Ldebug_ranges0+0x20
 736 001d 00000000 		.4byte	0
 737 0021 00000000 		.4byte	.Ldebug_line0
 738 0025 02       		.uleb128 0x2
 739 0026 01       		.byte	0x1
 740 0027 06       		.byte	0x6
 741 0028 B5000000 		.4byte	.LASF0
 742 002c 03       		.uleb128 0x3
 743 002d 36000000 		.4byte	.LASF4
 744 0031 02       		.byte	0x2
 745 0032 1D       		.byte	0x1d
 746 0033 37000000 		.4byte	0x37
 747 0037 02       		.uleb128 0x2
 748 0038 01       		.byte	0x1
 749 0039 08       		.byte	0x8
 750 003a 87020000 		.4byte	.LASF1
 751 003e 02       		.uleb128 0x2
 752 003f 02       		.byte	0x2
 753 0040 05       		.byte	0x5
 754 0041 C0020000 		.4byte	.LASF2
 755 0045 02       		.uleb128 0x2
 756 0046 02       		.byte	0x2
 757 0047 07       		.byte	0x7
 758 0048 B2010000 		.4byte	.LASF3
 759 004c 03       		.uleb128 0x3
 760 004d AF030000 		.4byte	.LASF5
 761 0051 02       		.byte	0x2
 762 0052 3F       		.byte	0x3f
 763 0053 57000000 		.4byte	0x57
 764 0057 02       		.uleb128 0x2
 765 0058 04       		.byte	0x4
 766 0059 05       		.byte	0x5
 767 005a FD000000 		.4byte	.LASF6
 768 005e 03       		.uleb128 0x3
 769 005f 64010000 		.4byte	.LASF7
 770 0063 02       		.byte	0x2
 771 0064 41       		.byte	0x41
 772 0065 69000000 		.4byte	0x69
 773 0069 02       		.uleb128 0x2
 774 006a 04       		.byte	0x4
 775 006b 07       		.byte	0x7
 776 006c 77030000 		.4byte	.LASF8
 777 0070 02       		.uleb128 0x2
 778 0071 08       		.byte	0x8
 779 0072 05       		.byte	0x5
 780 0073 78010000 		.4byte	.LASF9
 781 0077 02       		.uleb128 0x2
 782 0078 08       		.byte	0x8
 783 0079 07       		.byte	0x7
 784 007a C9000000 		.4byte	.LASF10
 785 007e 04       		.uleb128 0x4
 786 007f 04       		.byte	0x4
 787 0080 05       		.byte	0x5
 788 0081 696E7400 		.ascii	"int\000"
 789 0085 02       		.uleb128 0x2
ARM GAS  /var/folders/bz/nn5481rn5xq59rb0mbj7x0880000gn/T//ccWjsB25.s 			page 15


 790 0086 04       		.byte	0x4
 791 0087 07       		.byte	0x7
 792 0088 86010000 		.4byte	.LASF11
 793 008c 03       		.uleb128 0x3
 794 008d 2F050000 		.4byte	.LASF12
 795 0091 03       		.byte	0x3
 796 0092 14       		.byte	0x14
 797 0093 2C000000 		.4byte	0x2c
 798 0097 03       		.uleb128 0x3
 799 0098 7F020000 		.4byte	.LASF13
 800 009c 03       		.byte	0x3
 801 009d 1F       		.byte	0x1f
 802 009e 4C000000 		.4byte	0x4c
 803 00a2 03       		.uleb128 0x3
 804 00a3 3B030000 		.4byte	.LASF14
 805 00a7 03       		.byte	0x3
 806 00a8 20       		.byte	0x20
 807 00a9 5E000000 		.4byte	0x5e
 808 00ad 03       		.uleb128 0x3
 809 00ae 08000000 		.4byte	.LASF15
 810 00b2 04       		.byte	0x4
 811 00b3 D4       		.byte	0xd4
 812 00b4 85000000 		.4byte	0x85
 813 00b8 02       		.uleb128 0x2
 814 00b9 01       		.byte	0x1
 815 00ba 02       		.byte	0x2
 816 00bb 79020000 		.4byte	.LASF16
 817 00bf 03       		.uleb128 0x3
 818 00c0 E8010000 		.4byte	.LASF17
 819 00c4 05       		.byte	0x5
 820 00c5 2C       		.byte	0x2c
 821 00c6 8C000000 		.4byte	0x8c
 822 00ca 03       		.uleb128 0x3
 823 00cb 06010000 		.4byte	.LASF18
 824 00cf 05       		.byte	0x5
 825 00d0 2D       		.byte	0x2d
 826 00d1 8C000000 		.4byte	0x8c
 827 00d5 03       		.uleb128 0x3
 828 00d6 5D020000 		.4byte	.LASF19
 829 00da 05       		.byte	0x5
 830 00db 2E       		.byte	0x2e
 831 00dc 8C000000 		.4byte	0x8c
 832 00e0 03       		.uleb128 0x3
 833 00e1 E8000000 		.4byte	.LASF20
 834 00e5 05       		.byte	0x5
 835 00e6 2F       		.byte	0x2f
 836 00e7 8C000000 		.4byte	0x8c
 837 00eb 03       		.uleb128 0x3
 838 00ec 6C020000 		.4byte	.LASF21
 839 00f0 05       		.byte	0x5
 840 00f1 30       		.byte	0x30
 841 00f2 A2000000 		.4byte	0xa2
 842 00f6 03       		.uleb128 0x3
 843 00f7 C5010000 		.4byte	.LASF22
 844 00fb 05       		.byte	0x5
 845 00fc 31       		.byte	0x31
 846 00fd 97000000 		.4byte	0x97
ARM GAS  /var/folders/bz/nn5481rn5xq59rb0mbj7x0880000gn/T//ccWjsB25.s 			page 16


 847 0101 03       		.uleb128 0x3
 848 0102 FC010000 		.4byte	.LASF23
 849 0106 05       		.byte	0x5
 850 0107 33       		.byte	0x33
 851 0108 A2000000 		.4byte	0xa2
 852 010c 03       		.uleb128 0x3
 853 010d 9A030000 		.4byte	.LASF24
 854 0111 05       		.byte	0x5
 855 0112 35       		.byte	0x35
 856 0113 A2000000 		.4byte	0xa2
 857 0117 03       		.uleb128 0x3
 858 0118 16030000 		.4byte	.LASF25
 859 011c 06       		.byte	0x6
 860 011d 2A       		.byte	0x2a
 861 011e 22010000 		.4byte	0x122
 862 0122 05       		.uleb128 0x5
 863 0123 16030000 		.4byte	.LASF25
 864 0127 48       		.byte	0x48
 865 0128 07       		.byte	0x7
 866 0129 5E       		.byte	0x5e
 867 012a 1F020000 		.4byte	0x21f
 868 012e 06       		.uleb128 0x6
 869 012f 07030000 		.4byte	.LASF26
 870 0133 07       		.byte	0x7
 871 0134 5F       		.byte	0x5f
 872 0135 40020000 		.4byte	0x240
 873 0139 00       		.byte	0
 874 013a 06       		.uleb128 0x6
 875 013b 65020000 		.4byte	.LASF27
 876 013f 07       		.byte	0x7
 877 0140 61       		.byte	0x61
 878 0141 40020000 		.4byte	0x240
 879 0145 04       		.byte	0x4
 880 0146 06       		.uleb128 0x6
 881 0147 A2000000 		.4byte	.LASF28
 882 014b 07       		.byte	0x7
 883 014c 63       		.byte	0x63
 884 014d EB000000 		.4byte	0xeb
 885 0151 08       		.byte	0x8
 886 0152 06       		.uleb128 0x6
 887 0153 75050000 		.4byte	.LASF29
 888 0157 07       		.byte	0x7
 889 0158 64       		.byte	0x64
 890 0159 CA030000 		.4byte	0x3ca
 891 015d 0C       		.byte	0xc
 892 015e 06       		.uleb128 0x6
 893 015f 22010000 		.4byte	.LASF30
 894 0163 07       		.byte	0x7
 895 0164 66       		.byte	0x66
 896 0165 40020000 		.4byte	0x240
 897 0169 10       		.byte	0x10
 898 016a 06       		.uleb128 0x6
 899 016b 55020000 		.4byte	.LASF31
 900 016f 07       		.byte	0x7
 901 0170 67       		.byte	0x67
 902 0171 40020000 		.4byte	0x240
 903 0175 14       		.byte	0x14
ARM GAS  /var/folders/bz/nn5481rn5xq59rb0mbj7x0880000gn/T//ccWjsB25.s 			page 17


 904 0176 06       		.uleb128 0x6
 905 0177 60050000 		.4byte	.LASF32
 906 017b 07       		.byte	0x7
 907 017c 6E       		.byte	0x6e
 908 017d 6E040000 		.4byte	0x46e
 909 0181 18       		.byte	0x18
 910 0182 06       		.uleb128 0x6
 911 0183 CA020000 		.4byte	.LASF33
 912 0187 07       		.byte	0x7
 913 0188 79       		.byte	0x79
 914 0189 CA000000 		.4byte	0xca
 915 018d 1C       		.byte	0x1c
 916 018e 06       		.uleb128 0x6
 917 018f 0E030000 		.4byte	.LASF34
 918 0193 07       		.byte	0x7
 919 0194 7D       		.byte	0x7d
 920 0195 BF000000 		.4byte	0xbf
 921 0199 1D       		.byte	0x1d
 922 019a 06       		.uleb128 0x6
 923 019b 17050000 		.4byte	.LASF35
 924 019f 07       		.byte	0x7
 925 01a0 82       		.byte	0x82
 926 01a1 D5000000 		.4byte	0xd5
 927 01a5 1E       		.byte	0x1e
 928 01a6 06       		.uleb128 0x6
 929 01a7 D2020000 		.4byte	.LASF36
 930 01ab 07       		.byte	0x7
 931 01ac 88       		.byte	0x88
 932 01ad E0000000 		.4byte	0xe0
 933 01b1 1F       		.byte	0x1f
 934 01b2 06       		.uleb128 0x6
 935 01b3 E9040000 		.4byte	.LASF37
 936 01b7 07       		.byte	0x7
 937 01b8 8F       		.byte	0x8f
 938 01b9 F2030000 		.4byte	0x3f2
 939 01bd 20       		.byte	0x20
 940 01be 07       		.uleb128 0x7
 941 01bf 705F7500 		.ascii	"p_u\000"
 942 01c3 07       		.byte	0x7
 943 01c4 B4       		.byte	0xb4
 944 01c5 39040000 		.4byte	0x439
 945 01c9 24       		.byte	0x24
 946 01ca 06       		.uleb128 0x6
 947 01cb 7B050000 		.4byte	.LASF38
 948 01cf 07       		.byte	0x7
 949 01d0 B9       		.byte	0xb9
 950 01d1 66020000 		.4byte	0x266
 951 01d5 28       		.byte	0x28
 952 01d6 06       		.uleb128 0x6
 953 01d7 F7040000 		.4byte	.LASF39
 954 01db 07       		.byte	0x7
 955 01dc BF       		.byte	0xbf
 956 01dd 46020000 		.4byte	0x246
 957 01e1 2C       		.byte	0x2c
 958 01e2 06       		.uleb128 0x6
 959 01e3 67050000 		.4byte	.LASF40
 960 01e7 07       		.byte	0x7
ARM GAS  /var/folders/bz/nn5481rn5xq59rb0mbj7x0880000gn/T//ccWjsB25.s 			page 18


 961 01e8 C3       		.byte	0xc3
 962 01e9 F6000000 		.4byte	0xf6
 963 01ed 34       		.byte	0x34
 964 01ee 06       		.uleb128 0x6
 965 01ef 30030000 		.4byte	.LASF41
 966 01f3 07       		.byte	0x7
 967 01f4 C9       		.byte	0xc9
 968 01f5 01010000 		.4byte	0x101
 969 01f9 38       		.byte	0x38
 970 01fa 06       		.uleb128 0x6
 971 01fb B6020000 		.4byte	.LASF42
 972 01ff 07       		.byte	0x7
 973 0200 D0       		.byte	0xd0
 974 0201 80040000 		.4byte	0x480
 975 0205 3C       		.byte	0x3c
 976 0206 06       		.uleb128 0x6
 977 0207 A4030000 		.4byte	.LASF43
 978 020b 07       		.byte	0x7
 979 020c D4       		.byte	0xd4
 980 020d EB000000 		.4byte	0xeb
 981 0211 40       		.byte	0x40
 982 0212 06       		.uleb128 0x6
 983 0213 C1000000 		.4byte	.LASF44
 984 0217 07       		.byte	0x7
 985 0218 DA       		.byte	0xda
 986 0219 7C020000 		.4byte	0x27c
 987 021d 44       		.byte	0x44
 988 021e 00       		.byte	0
 989 021f 08       		.uleb128 0x8
 990 0220 08       		.byte	0x8
 991 0221 06       		.byte	0x6
 992 0222 61       		.byte	0x61
 993 0223 40020000 		.4byte	0x240
 994 0227 06       		.uleb128 0x6
 995 0228 07030000 		.4byte	.LASF26
 996 022c 06       		.byte	0x6
 997 022d 62       		.byte	0x62
 998 022e 40020000 		.4byte	0x240
 999 0232 00       		.byte	0
 1000 0233 06       		.uleb128 0x6
 1001 0234 65020000 		.4byte	.LASF27
 1002 0238 06       		.byte	0x6
 1003 0239 64       		.byte	0x64
 1004 023a 40020000 		.4byte	0x240
 1005 023e 04       		.byte	0x4
 1006 023f 00       		.byte	0
 1007 0240 09       		.uleb128 0x9
 1008 0241 04       		.byte	0x4
 1009 0242 17010000 		.4byte	0x117
 1010 0246 03       		.uleb128 0x3
 1011 0247 66000000 		.4byte	.LASF45
 1012 024b 06       		.byte	0x6
 1013 024c 66       		.byte	0x66
 1014 024d 1F020000 		.4byte	0x21f
 1015 0251 08       		.uleb128 0x8
 1016 0252 04       		.byte	0x4
 1017 0253 06       		.byte	0x6
ARM GAS  /var/folders/bz/nn5481rn5xq59rb0mbj7x0880000gn/T//ccWjsB25.s 			page 19


 1018 0254 6B       		.byte	0x6b
 1019 0255 66020000 		.4byte	0x266
 1020 0259 06       		.uleb128 0x6
 1021 025a 07030000 		.4byte	.LASF26
 1022 025e 06       		.byte	0x6
 1023 025f 6D       		.byte	0x6d
 1024 0260 40020000 		.4byte	0x240
 1025 0264 00       		.byte	0
 1026 0265 00       		.byte	0
 1027 0266 03       		.uleb128 0x3
 1028 0267 F0010000 		.4byte	.LASF46
 1029 026b 06       		.byte	0x6
 1030 026c 70       		.byte	0x70
 1031 026d 51020000 		.4byte	0x251
 1032 0271 03       		.uleb128 0x3
 1033 0272 6F010000 		.4byte	.LASF47
 1034 0276 08       		.byte	0x8
 1035 0277 E5       		.byte	0xe5
 1036 0278 7C020000 		.4byte	0x27c
 1037 027c 0A       		.uleb128 0xa
 1038 027d 04       		.byte	0x4
 1039 027e 0B       		.uleb128 0xb
 1040 027f F0040000 		.4byte	.LASF48
 1041 0283 64       		.byte	0x64
 1042 0284 08       		.byte	0x8
 1043 0285 0C01     		.2byte	0x10c
 1044 0287 CA030000 		.4byte	0x3ca
 1045 028b 0C       		.uleb128 0xc
 1046 028c 73313600 		.ascii	"s16\000"
 1047 0290 08       		.byte	0x8
 1048 0291 0E01     		.2byte	0x10e
 1049 0293 71020000 		.4byte	0x271
 1050 0297 00       		.byte	0
 1051 0298 0C       		.uleb128 0xc
 1052 0299 73313700 		.ascii	"s17\000"
 1053 029d 08       		.byte	0x8
 1054 029e 0F01     		.2byte	0x10f
 1055 02a0 71020000 		.4byte	0x271
 1056 02a4 04       		.byte	0x4
 1057 02a5 0C       		.uleb128 0xc
 1058 02a6 73313800 		.ascii	"s18\000"
 1059 02aa 08       		.byte	0x8
 1060 02ab 1001     		.2byte	0x110
 1061 02ad 71020000 		.4byte	0x271
 1062 02b1 08       		.byte	0x8
 1063 02b2 0C       		.uleb128 0xc
 1064 02b3 73313900 		.ascii	"s19\000"
 1065 02b7 08       		.byte	0x8
 1066 02b8 1101     		.2byte	0x111
 1067 02ba 71020000 		.4byte	0x271
 1068 02be 0C       		.byte	0xc
 1069 02bf 0C       		.uleb128 0xc
 1070 02c0 73323000 		.ascii	"s20\000"
 1071 02c4 08       		.byte	0x8
 1072 02c5 1201     		.2byte	0x112
 1073 02c7 71020000 		.4byte	0x271
 1074 02cb 10       		.byte	0x10
ARM GAS  /var/folders/bz/nn5481rn5xq59rb0mbj7x0880000gn/T//ccWjsB25.s 			page 20


 1075 02cc 0C       		.uleb128 0xc
 1076 02cd 73323100 		.ascii	"s21\000"
 1077 02d1 08       		.byte	0x8
 1078 02d2 1301     		.2byte	0x113
 1079 02d4 71020000 		.4byte	0x271
 1080 02d8 14       		.byte	0x14
 1081 02d9 0C       		.uleb128 0xc
 1082 02da 73323200 		.ascii	"s22\000"
 1083 02de 08       		.byte	0x8
 1084 02df 1401     		.2byte	0x114
 1085 02e1 71020000 		.4byte	0x271
 1086 02e5 18       		.byte	0x18
 1087 02e6 0C       		.uleb128 0xc
 1088 02e7 73323300 		.ascii	"s23\000"
 1089 02eb 08       		.byte	0x8
 1090 02ec 1501     		.2byte	0x115
 1091 02ee 71020000 		.4byte	0x271
 1092 02f2 1C       		.byte	0x1c
 1093 02f3 0C       		.uleb128 0xc
 1094 02f4 73323400 		.ascii	"s24\000"
 1095 02f8 08       		.byte	0x8
 1096 02f9 1601     		.2byte	0x116
 1097 02fb 71020000 		.4byte	0x271
 1098 02ff 20       		.byte	0x20
 1099 0300 0C       		.uleb128 0xc
 1100 0301 73323500 		.ascii	"s25\000"
 1101 0305 08       		.byte	0x8
 1102 0306 1701     		.2byte	0x117
 1103 0308 71020000 		.4byte	0x271
 1104 030c 24       		.byte	0x24
 1105 030d 0C       		.uleb128 0xc
 1106 030e 73323600 		.ascii	"s26\000"
 1107 0312 08       		.byte	0x8
 1108 0313 1801     		.2byte	0x118
 1109 0315 71020000 		.4byte	0x271
 1110 0319 28       		.byte	0x28
 1111 031a 0C       		.uleb128 0xc
 1112 031b 73323700 		.ascii	"s27\000"
 1113 031f 08       		.byte	0x8
 1114 0320 1901     		.2byte	0x119
 1115 0322 71020000 		.4byte	0x271
 1116 0326 2C       		.byte	0x2c
 1117 0327 0C       		.uleb128 0xc
 1118 0328 73323800 		.ascii	"s28\000"
 1119 032c 08       		.byte	0x8
 1120 032d 1A01     		.2byte	0x11a
 1121 032f 71020000 		.4byte	0x271
 1122 0333 30       		.byte	0x30
 1123 0334 0C       		.uleb128 0xc
 1124 0335 73323900 		.ascii	"s29\000"
 1125 0339 08       		.byte	0x8
 1126 033a 1B01     		.2byte	0x11b
 1127 033c 71020000 		.4byte	0x271
 1128 0340 34       		.byte	0x34
 1129 0341 0C       		.uleb128 0xc
 1130 0342 73333000 		.ascii	"s30\000"
 1131 0346 08       		.byte	0x8
ARM GAS  /var/folders/bz/nn5481rn5xq59rb0mbj7x0880000gn/T//ccWjsB25.s 			page 21


 1132 0347 1C01     		.2byte	0x11c
 1133 0349 71020000 		.4byte	0x271
 1134 034d 38       		.byte	0x38
 1135 034e 0C       		.uleb128 0xc
 1136 034f 73333100 		.ascii	"s31\000"
 1137 0353 08       		.byte	0x8
 1138 0354 1D01     		.2byte	0x11d
 1139 0356 71020000 		.4byte	0x271
 1140 035a 3C       		.byte	0x3c
 1141 035b 0C       		.uleb128 0xc
 1142 035c 723400   		.ascii	"r4\000"
 1143 035f 08       		.byte	0x8
 1144 0360 1F01     		.2byte	0x11f
 1145 0362 71020000 		.4byte	0x271
 1146 0366 40       		.byte	0x40
 1147 0367 0C       		.uleb128 0xc
 1148 0368 723500   		.ascii	"r5\000"
 1149 036b 08       		.byte	0x8
 1150 036c 2001     		.2byte	0x120
 1151 036e 71020000 		.4byte	0x271
 1152 0372 44       		.byte	0x44
 1153 0373 0C       		.uleb128 0xc
 1154 0374 723600   		.ascii	"r6\000"
 1155 0377 08       		.byte	0x8
 1156 0378 2101     		.2byte	0x121
 1157 037a 71020000 		.4byte	0x271
 1158 037e 48       		.byte	0x48
 1159 037f 0C       		.uleb128 0xc
 1160 0380 723700   		.ascii	"r7\000"
 1161 0383 08       		.byte	0x8
 1162 0384 2201     		.2byte	0x122
 1163 0386 71020000 		.4byte	0x271
 1164 038a 4C       		.byte	0x4c
 1165 038b 0C       		.uleb128 0xc
 1166 038c 723800   		.ascii	"r8\000"
 1167 038f 08       		.byte	0x8
 1168 0390 2301     		.2byte	0x123
 1169 0392 71020000 		.4byte	0x271
 1170 0396 50       		.byte	0x50
 1171 0397 0C       		.uleb128 0xc
 1172 0398 723900   		.ascii	"r9\000"
 1173 039b 08       		.byte	0x8
 1174 039c 2401     		.2byte	0x124
 1175 039e 71020000 		.4byte	0x271
 1176 03a2 54       		.byte	0x54
 1177 03a3 0C       		.uleb128 0xc
 1178 03a4 72313000 		.ascii	"r10\000"
 1179 03a8 08       		.byte	0x8
 1180 03a9 2501     		.2byte	0x125
 1181 03ab 71020000 		.4byte	0x271
 1182 03af 58       		.byte	0x58
 1183 03b0 0C       		.uleb128 0xc
 1184 03b1 72313100 		.ascii	"r11\000"
 1185 03b5 08       		.byte	0x8
 1186 03b6 2601     		.2byte	0x126
 1187 03b8 71020000 		.4byte	0x271
 1188 03bc 5C       		.byte	0x5c
ARM GAS  /var/folders/bz/nn5481rn5xq59rb0mbj7x0880000gn/T//ccWjsB25.s 			page 22


 1189 03bd 0C       		.uleb128 0xc
 1190 03be 6C7200   		.ascii	"lr\000"
 1191 03c1 08       		.byte	0x8
 1192 03c2 2701     		.2byte	0x127
 1193 03c4 71020000 		.4byte	0x271
 1194 03c8 60       		.byte	0x60
 1195 03c9 00       		.byte	0
 1196 03ca 0B       		.uleb128 0xb
 1197 03cb AA010000 		.4byte	.LASF49
 1198 03cf 04       		.byte	0x4
 1199 03d0 08       		.byte	0x8
 1200 03d1 3101     		.2byte	0x131
 1201 03d3 E5030000 		.4byte	0x3e5
 1202 03d7 0C       		.uleb128 0xc
 1203 03d8 72313300 		.ascii	"r13\000"
 1204 03dc 08       		.byte	0x8
 1205 03dd 3201     		.2byte	0x132
 1206 03df E5030000 		.4byte	0x3e5
 1207 03e3 00       		.byte	0
 1208 03e4 00       		.byte	0
 1209 03e5 09       		.uleb128 0x9
 1210 03e6 04       		.byte	0x4
 1211 03e7 7E020000 		.4byte	0x27e
 1212 03eb 02       		.uleb128 0x2
 1213 03ec 04       		.byte	0x4
 1214 03ed 07       		.byte	0x7
 1215 03ee 26020000 		.4byte	.LASF50
 1216 03f2 0D       		.uleb128 0xd
 1217 03f3 0C010000 		.4byte	0x10c
 1218 03f7 05       		.uleb128 0x5
 1219 03f8 A4010000 		.4byte	.LASF51
 1220 03fc 10       		.byte	0x10
 1221 03fd 09       		.byte	0x9
 1222 03fe 2C       		.byte	0x2c
 1223 03ff 28040000 		.4byte	0x428
 1224 0403 06       		.uleb128 0x6
 1225 0404 E0000000 		.4byte	.LASF52
 1226 0408 09       		.byte	0x9
 1227 0409 2D       		.byte	0x2d
 1228 040a 46020000 		.4byte	0x246
 1229 040e 00       		.byte	0
 1230 040f 06       		.uleb128 0x6
 1231 0410 6D050000 		.4byte	.LASF53
 1232 0414 09       		.byte	0x9
 1233 0415 2F       		.byte	0x2f
 1234 0416 40020000 		.4byte	0x240
 1235 041a 08       		.byte	0x8
 1236 041b 06       		.uleb128 0x6
 1237 041c 93030000 		.4byte	.LASF54
 1238 0420 09       		.byte	0x9
 1239 0421 31       		.byte	0x31
 1240 0422 28040000 		.4byte	0x428
 1241 0426 0C       		.byte	0xc
 1242 0427 00       		.byte	0
 1243 0428 09       		.uleb128 0x9
 1244 0429 04       		.byte	0x4
 1245 042a F7030000 		.4byte	0x3f7
ARM GAS  /var/folders/bz/nn5481rn5xq59rb0mbj7x0880000gn/T//ccWjsB25.s 			page 23


 1246 042e 03       		.uleb128 0x3
 1247 042f A4010000 		.4byte	.LASF51
 1248 0433 09       		.byte	0x9
 1249 0434 33       		.byte	0x33
 1250 0435 F7030000 		.4byte	0x3f7
 1251 0439 0E       		.uleb128 0xe
 1252 043a 04       		.byte	0x4
 1253 043b 07       		.byte	0x7
 1254 043c 96       		.byte	0x96
 1255 043d 6E040000 		.4byte	0x46e
 1256 0441 0F       		.uleb128 0xf
 1257 0442 0F000000 		.4byte	.LASF55
 1258 0446 07       		.byte	0x7
 1259 0447 9D       		.byte	0x9d
 1260 0448 F6000000 		.4byte	0xf6
 1261 044c 0F       		.uleb128 0xf
 1262 044d DF010000 		.4byte	.LASF56
 1263 0451 07       		.byte	0x7
 1264 0452 A4       		.byte	0xa4
 1265 0453 F6000000 		.4byte	0xf6
 1266 0457 0F       		.uleb128 0xf
 1267 0458 59050000 		.4byte	.LASF57
 1268 045c 07       		.byte	0x7
 1269 045d AB       		.byte	0xab
 1270 045e 7C020000 		.4byte	0x27c
 1271 0462 0F       		.uleb128 0xf
 1272 0463 00030000 		.4byte	.LASF58
 1273 0467 07       		.byte	0x7
 1274 0468 B2       		.byte	0xb2
 1275 0469 01010000 		.4byte	0x101
 1276 046d 00       		.byte	0
 1277 046e 09       		.uleb128 0x9
 1278 046f 04       		.byte	0x4
 1279 0470 74040000 		.4byte	0x474
 1280 0474 10       		.uleb128 0x10
 1281 0475 79040000 		.4byte	0x479
 1282 0479 02       		.uleb128 0x2
 1283 047a 01       		.byte	0x1
 1284 047b 08       		.byte	0x8
 1285 047c 89030000 		.4byte	.LASF59
 1286 0480 09       		.uleb128 0x9
 1287 0481 04       		.byte	0x4
 1288 0482 2E040000 		.4byte	0x42e
 1289 0486 0D       		.uleb128 0xd
 1290 0487 97000000 		.4byte	0x97
 1291 048b 09       		.uleb128 0x9
 1292 048c 04       		.byte	0x4
 1293 048d 79040000 		.4byte	0x479
 1294 0491 11       		.uleb128 0x11
 1295 0492 6B030000 		.4byte	.LASF60
 1296 0496 01       		.byte	0x1
 1297 0497 21       		.byte	0x21
 1298 0498 00000000 		.4byte	.LFB118
 1299 049c 6C000000 		.4byte	.LFE118-.LFB118
 1300 04a0 01       		.uleb128 0x1
 1301 04a1 9C       		.byte	0x9c
 1302 04a2 26050000 		.4byte	0x526
ARM GAS  /var/folders/bz/nn5481rn5xq59rb0mbj7x0880000gn/T//ccWjsB25.s 			page 24


 1303 04a6 12       		.uleb128 0x12
 1304 04a7 18000000 		.4byte	.LBB2
 1305 04ab 1A000000 		.4byte	.LBE2-.LBB2
 1306 04af D6040000 		.4byte	0x4d6
 1307 04b3 13       		.uleb128 0x13
 1308 04b4 6900     		.ascii	"i\000"
 1309 04b6 01       		.byte	0x1
 1310 04b7 2C       		.byte	0x2c
 1311 04b8 7E000000 		.4byte	0x7e
 1312 04bc 00000000 		.4byte	.LLST0
 1313 04c0 14       		.uleb128 0x14
 1314 04c1 26000000 		.4byte	.LVL4
 1315 04c5 0D0A0000 		.4byte	0xa0d
 1316 04c9 15       		.uleb128 0x15
 1317 04ca 01       		.uleb128 0x1
 1318 04cb 51       		.byte	0x51
 1319 04cc 02       		.uleb128 0x2
 1320 04cd 75       		.byte	0x75
 1321 04ce 00       		.sleb128 0
 1322 04cf 15       		.uleb128 0x15
 1323 04d0 01       		.uleb128 0x1
 1324 04d1 50       		.byte	0x50
 1325 04d2 01       		.uleb128 0x1
 1326 04d3 3A       		.byte	0x3a
 1327 04d4 00       		.byte	0
 1328 04d5 00       		.byte	0
 1329 04d6 16       		.uleb128 0x16
 1330 04d7 10000000 		.4byte	.LVL0
 1331 04db 280A0000 		.4byte	0xa28
 1332 04df ED040000 		.4byte	0x4ed
 1333 04e3 15       		.uleb128 0x15
 1334 04e4 01       		.uleb128 0x1
 1335 04e5 50       		.byte	0x50
 1336 04e6 05       		.uleb128 0x5
 1337 04e7 03       		.byte	0x3
 1338 04e8 00000000 		.4byte	.LANCHOR0
 1339 04ec 00       		.byte	0
 1340 04ed 16       		.uleb128 0x16
 1341 04ee 3C000000 		.4byte	.LVL6
 1342 04f2 0D0A0000 		.4byte	0xa0d
 1343 04f6 09050000 		.4byte	0x509
 1344 04fa 15       		.uleb128 0x15
 1345 04fb 01       		.uleb128 0x1
 1346 04fc 51       		.byte	0x51
 1347 04fd 05       		.uleb128 0x5
 1348 04fe 03       		.byte	0x3
 1349 04ff 00000000 		.4byte	.LANCHOR4
 1350 0503 15       		.uleb128 0x15
 1351 0504 01       		.uleb128 0x1
 1352 0505 50       		.byte	0x50
 1353 0506 01       		.uleb128 0x1
 1354 0507 40       		.byte	0x40
 1355 0508 00       		.byte	0
 1356 0509 14       		.uleb128 0x14
 1357 050a 46000000 		.4byte	.LVL7
 1358 050e 390A0000 		.4byte	0xa39
 1359 0512 15       		.uleb128 0x15
ARM GAS  /var/folders/bz/nn5481rn5xq59rb0mbj7x0880000gn/T//ccWjsB25.s 			page 25


 1360 0513 01       		.uleb128 0x1
 1361 0514 51       		.byte	0x51
 1362 0515 05       		.uleb128 0x5
 1363 0516 03       		.byte	0x3
 1364 0517 00000000 		.4byte	.LANCHOR4
 1365 051b 15       		.uleb128 0x15
 1366 051c 01       		.uleb128 0x1
 1367 051d 50       		.byte	0x50
 1368 051e 05       		.uleb128 0x5
 1369 051f 03       		.byte	0x3
 1370 0520 00000000 		.4byte	.LANCHOR2
 1371 0524 00       		.byte	0
 1372 0525 00       		.byte	0
 1373 0526 11       		.uleb128 0x11
 1374 0527 86000000 		.4byte	.LASF61
 1375 052b 01       		.byte	0x1
 1376 052c 38       		.byte	0x38
 1377 052d 00000000 		.4byte	.LFB119
 1378 0531 60000000 		.4byte	.LFE119-.LFB119
 1379 0535 01       		.uleb128 0x1
 1380 0536 9C       		.byte	0x9c
 1381 0537 AD050000 		.4byte	0x5ad
 1382 053b 12       		.uleb128 0x12
 1383 053c 1A000000 		.4byte	.LBB3
 1384 0540 2A000000 		.4byte	.LBE3-.LBB3
 1385 0544 6C050000 		.4byte	0x56c
 1386 0548 13       		.uleb128 0x13
 1387 0549 6900     		.ascii	"i\000"
 1388 054b 01       		.byte	0x1
 1389 054c 3D       		.byte	0x3d
 1390 054d 7E000000 		.4byte	0x7e
 1391 0551 27000000 		.4byte	.LLST1
 1392 0555 14       		.uleb128 0x14
 1393 0556 3C000000 		.4byte	.LVL16
 1394 055a 5F0A0000 		.4byte	0xa5f
 1395 055e 15       		.uleb128 0x15
 1396 055f 01       		.uleb128 0x1
 1397 0560 51       		.byte	0x51
 1398 0561 02       		.uleb128 0x2
 1399 0562 75       		.byte	0x75
 1400 0563 00       		.sleb128 0
 1401 0564 15       		.uleb128 0x15
 1402 0565 01       		.uleb128 0x1
 1403 0566 50       		.byte	0x50
 1404 0567 02       		.uleb128 0x2
 1405 0568 74       		.byte	0x74
 1406 0569 7F       		.sleb128 -1
 1407 056a 00       		.byte	0
 1408 056b 00       		.byte	0
 1409 056c 16       		.uleb128 0x16
 1410 056d 0E000000 		.4byte	.LVL9
 1411 0571 7A0A0000 		.4byte	0xa7a
 1412 0575 83050000 		.4byte	0x583
 1413 0579 15       		.uleb128 0x15
 1414 057a 01       		.uleb128 0x1
 1415 057b 50       		.byte	0x50
 1416 057c 05       		.uleb128 0x5
ARM GAS  /var/folders/bz/nn5481rn5xq59rb0mbj7x0880000gn/T//ccWjsB25.s 			page 26


 1417 057d 03       		.byte	0x3
 1418 057e 00000000 		.4byte	.LANCHOR0
 1419 0582 00       		.byte	0
 1420 0583 17       		.uleb128 0x17
 1421 0584 12000000 		.4byte	.LVL10
 1422 0588 8B0A0000 		.4byte	0xa8b
 1423 058c 16       		.uleb128 0x16
 1424 058d 1A000000 		.4byte	.LVL11
 1425 0591 920A0000 		.4byte	0xa92
 1426 0595 A3050000 		.4byte	0x5a3
 1427 0599 15       		.uleb128 0x15
 1428 059a 01       		.uleb128 0x1
 1429 059b 50       		.byte	0x50
 1430 059c 05       		.uleb128 0x5
 1431 059d 03       		.byte	0x3
 1432 059e 00000000 		.4byte	.LANCHOR4
 1433 05a2 00       		.byte	0
 1434 05a3 18       		.uleb128 0x18
 1435 05a4 4C000000 		.4byte	.LVL18
 1436 05a8 A80A0000 		.4byte	0xaa8
 1437 05ac 00       		.byte	0
 1438 05ad 19       		.uleb128 0x19
 1439 05ae 48050000 		.4byte	.LASF65
 1440 05b2 01       		.byte	0x1
 1441 05b3 54       		.byte	0x54
 1442 05b4 7E000000 		.4byte	0x7e
 1443 05b8 00000000 		.4byte	.LFB120
 1444 05bc 90000000 		.4byte	.LFE120-.LFB120
 1445 05c0 01       		.uleb128 0x1
 1446 05c1 9C       		.byte	0x9c
 1447 05c2 C7060000 		.4byte	0x6c7
 1448 05c6 1A       		.uleb128 0x1a
 1449 05c7 E4040000 		.4byte	.LASF62
 1450 05cb 01       		.byte	0x1
 1451 05cc 54       		.byte	0x54
 1452 05cd 8B040000 		.4byte	0x48b
 1453 05d1 69000000 		.4byte	.LLST2
 1454 05d5 1B       		.uleb128 0x1b
 1455 05d6 6C656E00 		.ascii	"len\000"
 1456 05da 01       		.byte	0x1
 1457 05db 54       		.byte	0x54
 1458 05dc 7E000000 		.4byte	0x7e
 1459 05e0 AE000000 		.4byte	.LLST3
 1460 05e4 1C       		.uleb128 0x1c
 1461 05e5 93010000 		.4byte	.LASF63
 1462 05e9 01       		.byte	0x1
 1463 05ea 55       		.byte	0x55
 1464 05eb 7E000000 		.4byte	0x7e
 1465 05ef F3000000 		.4byte	.LLST4
 1466 05f3 1C       		.uleb128 0x1c
 1467 05f4 57000000 		.4byte	.LASF64
 1468 05f8 01       		.byte	0x1
 1469 05f9 56       		.byte	0x56
 1470 05fa 7E000000 		.4byte	0x7e
 1471 05fe 52010000 		.4byte	.LLST5
 1472 0602 1D       		.uleb128 0x1d
 1473 0603 00000000 		.4byte	.Ldebug_ranges0+0
ARM GAS  /var/folders/bz/nn5481rn5xq59rb0mbj7x0880000gn/T//ccWjsB25.s 			page 27


 1474 0607 3E060000 		.4byte	0x63e
 1475 060b 13       		.uleb128 0x13
 1476 060c 7300     		.ascii	"s\000"
 1477 060e 01       		.byte	0x1
 1478 060f 66       		.byte	0x66
 1479 0610 7E000000 		.4byte	0x7e
 1480 0614 7F010000 		.4byte	.LLST6
 1481 0618 17       		.uleb128 0x17
 1482 0619 36000000 		.4byte	.LVL30
 1483 061d B30A0000 		.4byte	0xab3
 1484 0621 16       		.uleb128 0x16
 1485 0622 3E000000 		.4byte	.LVL33
 1486 0626 BE0A0000 		.4byte	0xabe
 1487 062a 34060000 		.4byte	0x634
 1488 062e 15       		.uleb128 0x15
 1489 062f 01       		.uleb128 0x1
 1490 0630 50       		.byte	0x50
 1491 0631 01       		.uleb128 0x1
 1492 0632 3A       		.byte	0x3a
 1493 0633 00       		.byte	0
 1494 0634 17       		.uleb128 0x17
 1495 0635 62000000 		.4byte	.LVL39
 1496 0639 D00A0000 		.4byte	0xad0
 1497 063d 00       		.byte	0
 1498 063e 16       		.uleb128 0x16
 1499 063f 0E000000 		.4byte	.LVL21
 1500 0643 7A0A0000 		.4byte	0xa7a
 1501 0647 55060000 		.4byte	0x655
 1502 064b 15       		.uleb128 0x15
 1503 064c 01       		.uleb128 0x1
 1504 064d 50       		.byte	0x50
 1505 064e 05       		.uleb128 0x5
 1506 064f 03       		.byte	0x3
 1507 0650 00000000 		.4byte	.LANCHOR0
 1508 0654 00       		.byte	0
 1509 0655 17       		.uleb128 0x17
 1510 0656 12000000 		.4byte	.LVL22
 1511 065a D70A0000 		.4byte	0xad7
 1512 065e 17       		.uleb128 0x17
 1513 065f 16000000 		.4byte	.LVL23
 1514 0663 DE0A0000 		.4byte	0xade
 1515 0667 17       		.uleb128 0x17
 1516 0668 1A000000 		.4byte	.LVL24
 1517 066c E50A0000 		.4byte	0xae5
 1518 0670 16       		.uleb128 0x16
 1519 0671 22000000 		.4byte	.LVL25
 1520 0675 EC0A0000 		.4byte	0xaec
 1521 0679 8A060000 		.4byte	0x68a
 1522 067d 15       		.uleb128 0x15
 1523 067e 01       		.uleb128 0x1
 1524 067f 51       		.byte	0x51
 1525 0680 02       		.uleb128 0x2
 1526 0681 74       		.byte	0x74
 1527 0682 00       		.sleb128 0
 1528 0683 15       		.uleb128 0x15
 1529 0684 01       		.uleb128 0x1
 1530 0685 50       		.byte	0x50
ARM GAS  /var/folders/bz/nn5481rn5xq59rb0mbj7x0880000gn/T//ccWjsB25.s 			page 28


 1531 0686 02       		.uleb128 0x2
 1532 0687 75       		.byte	0x75
 1533 0688 00       		.sleb128 0
 1534 0689 00       		.byte	0
 1535 068a 16       		.uleb128 0x16
 1536 068b 52000000 		.4byte	.LVL35
 1537 068f 5F0A0000 		.4byte	0xa5f
 1538 0693 A1060000 		.4byte	0x6a1
 1539 0697 15       		.uleb128 0x15
 1540 0698 01       		.uleb128 0x1
 1541 0699 51       		.byte	0x51
 1542 069a 05       		.uleb128 0x5
 1543 069b 03       		.byte	0x3
 1544 069c 00000000 		.4byte	.LANCHOR2
 1545 06a0 00       		.byte	0
 1546 06a1 17       		.uleb128 0x17
 1547 06a2 56000000 		.4byte	.LVL36
 1548 06a6 020B0000 		.4byte	0xb02
 1549 06aa 17       		.uleb128 0x17
 1550 06ab 5A000000 		.4byte	.LVL37
 1551 06af A80A0000 		.4byte	0xaa8
 1552 06b3 14       		.uleb128 0x14
 1553 06b4 72000000 		.4byte	.LVL42
 1554 06b8 5F0A0000 		.4byte	0xa5f
 1555 06bc 15       		.uleb128 0x15
 1556 06bd 01       		.uleb128 0x1
 1557 06be 51       		.byte	0x51
 1558 06bf 05       		.uleb128 0x5
 1559 06c0 03       		.byte	0x3
 1560 06c1 00000000 		.4byte	.LANCHOR4
 1561 06c5 00       		.byte	0
 1562 06c6 00       		.byte	0
 1563 06c7 19       		.uleb128 0x19
 1564 06c8 44030000 		.4byte	.LASF66
 1565 06cc 01       		.byte	0x1
 1566 06cd 96       		.byte	0x96
 1567 06ce 7E000000 		.4byte	0x7e
 1568 06d2 00000000 		.4byte	.LFB121
 1569 06d6 60000000 		.4byte	.LFE121-.LFB121
 1570 06da 01       		.uleb128 0x1
 1571 06db 9C       		.byte	0x9c
 1572 06dc 8F070000 		.4byte	0x78f
 1573 06e0 1A       		.uleb128 0x1a
 1574 06e1 E4040000 		.4byte	.LASF62
 1575 06e5 01       		.byte	0x1
 1576 06e6 96       		.byte	0x96
 1577 06e7 8B040000 		.4byte	0x48b
 1578 06eb BE010000 		.4byte	.LLST7
 1579 06ef 1B       		.uleb128 0x1b
 1580 06f0 6C656E00 		.ascii	"len\000"
 1581 06f4 01       		.byte	0x1
 1582 06f5 96       		.byte	0x96
 1583 06f6 8F070000 		.4byte	0x78f
 1584 06fa DC010000 		.4byte	.LLST8
 1585 06fe 1A       		.uleb128 0x1a
 1586 06ff 8E030000 		.4byte	.LASF67
 1587 0703 01       		.byte	0x1
ARM GAS  /var/folders/bz/nn5481rn5xq59rb0mbj7x0880000gn/T//ccWjsB25.s 			page 29


 1588 0704 96       		.byte	0x96
 1589 0705 8F070000 		.4byte	0x78f
 1590 0709 3A020000 		.4byte	.LLST9
 1591 070d 1C       		.uleb128 0x1c
 1592 070e 57000000 		.4byte	.LASF64
 1593 0712 01       		.byte	0x1
 1594 0713 97       		.byte	0x97
 1595 0714 7E000000 		.4byte	0x7e
 1596 0718 58020000 		.4byte	.LLST10
 1597 071c 13       		.uleb128 0x13
 1598 071d 7300     		.ascii	"s\000"
 1599 071f 01       		.byte	0x1
 1600 0720 9B       		.byte	0x9b
 1601 0721 7E000000 		.4byte	0x7e
 1602 0725 9F020000 		.4byte	.LLST11
 1603 0729 1E       		.uleb128 0x1e
 1604 072a 08020000 		.4byte	.LASF68
 1605 072e 01       		.byte	0x1
 1606 072f 9C       		.byte	0x9c
 1607 0730 7E000000 		.4byte	0x7e
 1608 0734 01       		.uleb128 0x1
 1609 0735 55       		.byte	0x55
 1610 0736 16       		.uleb128 0x16
 1611 0737 0E000000 		.4byte	.LVL47
 1612 073b 7A0A0000 		.4byte	0xa7a
 1613 073f 4D070000 		.4byte	0x74d
 1614 0743 15       		.uleb128 0x15
 1615 0744 01       		.uleb128 0x1
 1616 0745 50       		.byte	0x50
 1617 0746 05       		.uleb128 0x5
 1618 0747 03       		.byte	0x3
 1619 0748 00000000 		.4byte	.LANCHOR0
 1620 074c 00       		.byte	0
 1621 074d 17       		.uleb128 0x17
 1622 074e 12000000 		.4byte	.LVL48
 1623 0752 B30A0000 		.4byte	0xab3
 1624 0756 17       		.uleb128 0x17
 1625 0757 1E000000 		.4byte	.LVL50
 1626 075b 090B0000 		.4byte	0xb09
 1627 075f 16       		.uleb128 0x16
 1628 0760 32000000 		.4byte	.LVL51
 1629 0764 140B0000 		.4byte	0xb14
 1630 0768 73070000 		.4byte	0x773
 1631 076c 15       		.uleb128 0x15
 1632 076d 01       		.uleb128 0x1
 1633 076e 50       		.byte	0x50
 1634 076f 02       		.uleb128 0x2
 1635 0770 77       		.byte	0x77
 1636 0771 00       		.sleb128 0
 1637 0772 00       		.byte	0
 1638 0773 17       		.uleb128 0x17
 1639 0774 36000000 		.4byte	.LVL52
 1640 0778 2A0B0000 		.4byte	0xb2a
 1641 077c 17       		.uleb128 0x17
 1642 077d 3A000000 		.4byte	.LVL53
 1643 0781 B30A0000 		.4byte	0xab3
 1644 0785 17       		.uleb128 0x17
ARM GAS  /var/folders/bz/nn5481rn5xq59rb0mbj7x0880000gn/T//ccWjsB25.s 			page 30


 1645 0786 48000000 		.4byte	.LVL57
 1646 078a A80A0000 		.4byte	0xaa8
 1647 078e 00       		.byte	0
 1648 078f 09       		.uleb128 0x9
 1649 0790 04       		.byte	0x4
 1650 0791 7E000000 		.4byte	0x7e
 1651 0795 19       		.uleb128 0x19
 1652 0796 16000000 		.4byte	.LASF69
 1653 079a 01       		.byte	0x1
 1654 079b B8       		.byte	0xb8
 1655 079c 7E000000 		.4byte	0x7e
 1656 07a0 00000000 		.4byte	.LFB122
 1657 07a4 1C000000 		.4byte	.LFE122-.LFB122
 1658 07a8 01       		.uleb128 0x1
 1659 07a9 9C       		.byte	0x9c
 1660 07aa E5070000 		.4byte	0x7e5
 1661 07ae 13       		.uleb128 0x13
 1662 07af 7300     		.ascii	"s\000"
 1663 07b1 01       		.byte	0x1
 1664 07b2 BA       		.byte	0xba
 1665 07b3 7E000000 		.4byte	0x7e
 1666 07b7 C8020000 		.4byte	.LLST12
 1667 07bb 16       		.uleb128 0x16
 1668 07bc 08000000 		.4byte	.LVL63
 1669 07c0 7A0A0000 		.4byte	0xa7a
 1670 07c4 D2070000 		.4byte	0x7d2
 1671 07c8 15       		.uleb128 0x15
 1672 07c9 01       		.uleb128 0x1
 1673 07ca 50       		.byte	0x50
 1674 07cb 05       		.uleb128 0x5
 1675 07cc 03       		.byte	0x3
 1676 07cd 00000000 		.4byte	.LANCHOR0
 1677 07d1 00       		.byte	0
 1678 07d2 17       		.uleb128 0x17
 1679 07d3 0C000000 		.4byte	.LVL64
 1680 07d7 B30A0000 		.4byte	0xab3
 1681 07db 17       		.uleb128 0x17
 1682 07dc 12000000 		.4byte	.LVL66
 1683 07e0 A80A0000 		.4byte	0xaa8
 1684 07e4 00       		.byte	0
 1685 07e5 11       		.uleb128 0x11
 1686 07e6 58030000 		.4byte	.LASF70
 1687 07ea 01       		.byte	0x1
 1688 07eb C0       		.byte	0xc0
 1689 07ec 00000000 		.4byte	.LFB123
 1690 07f0 54000000 		.4byte	.LFE123-.LFB123
 1691 07f4 01       		.uleb128 0x1
 1692 07f5 9C       		.byte	0x9c
 1693 07f6 96080000 		.4byte	0x896
 1694 07fa 1A       		.uleb128 0x1a
 1695 07fb 74020000 		.4byte	.LASF71
 1696 07ff 01       		.byte	0x1
 1697 0800 C0       		.byte	0xc0
 1698 0801 6E040000 		.4byte	0x46e
 1699 0805 F1020000 		.4byte	.LLST13
 1700 0809 1A       		.uleb128 0x1a
 1701 080a 9B010000 		.4byte	.LASF72
ARM GAS  /var/folders/bz/nn5481rn5xq59rb0mbj7x0880000gn/T//ccWjsB25.s 			page 31


 1702 080e 01       		.byte	0x1
 1703 080f C0       		.byte	0xc0
 1704 0810 7E000000 		.4byte	0x7e
 1705 0814 1D030000 		.4byte	.LLST14
 1706 0818 16       		.uleb128 0x16
 1707 0819 0E000000 		.4byte	.LVL70
 1708 081d 7A0A0000 		.4byte	0xa7a
 1709 0821 2F080000 		.4byte	0x82f
 1710 0825 15       		.uleb128 0x15
 1711 0826 01       		.uleb128 0x1
 1712 0827 50       		.byte	0x50
 1713 0828 05       		.uleb128 0x5
 1714 0829 03       		.byte	0x3
 1715 082a 00000000 		.4byte	.LANCHOR0
 1716 082e 00       		.byte	0
 1717 082f 16       		.uleb128 0x16
 1718 0830 18000000 		.4byte	.LVL71
 1719 0834 310B0000 		.4byte	0xb31
 1720 0838 4F080000 		.4byte	0x84f
 1721 083c 15       		.uleb128 0x15
 1722 083d 01       		.uleb128 0x1
 1723 083e 52       		.byte	0x52
 1724 083f 02       		.uleb128 0x2
 1725 0840 74       		.byte	0x74
 1726 0841 00       		.sleb128 0
 1727 0842 15       		.uleb128 0x15
 1728 0843 01       		.uleb128 0x1
 1729 0844 51       		.byte	0x51
 1730 0845 02       		.uleb128 0x2
 1731 0846 76       		.byte	0x76
 1732 0847 00       		.sleb128 0
 1733 0848 15       		.uleb128 0x15
 1734 0849 01       		.uleb128 0x1
 1735 084a 50       		.byte	0x50
 1736 084b 02       		.uleb128 0x2
 1737 084c 75       		.byte	0x75
 1738 084d 00       		.sleb128 0
 1739 084e 00       		.byte	0
 1740 084f 16       		.uleb128 0x16
 1741 0850 26000000 		.4byte	.LVL72
 1742 0854 390A0000 		.4byte	0xa39
 1743 0858 72080000 		.4byte	0x872
 1744 085c 15       		.uleb128 0x15
 1745 085d 01       		.uleb128 0x1
 1746 085e 52       		.byte	0x52
 1747 085f 02       		.uleb128 0x2
 1748 0860 74       		.byte	0x74
 1749 0861 00       		.sleb128 0
 1750 0862 15       		.uleb128 0x15
 1751 0863 01       		.uleb128 0x1
 1752 0864 51       		.byte	0x51
 1753 0865 02       		.uleb128 0x2
 1754 0866 75       		.byte	0x75
 1755 0867 00       		.sleb128 0
 1756 0868 15       		.uleb128 0x15
 1757 0869 01       		.uleb128 0x1
 1758 086a 50       		.byte	0x50
ARM GAS  /var/folders/bz/nn5481rn5xq59rb0mbj7x0880000gn/T//ccWjsB25.s 			page 32


 1759 086b 05       		.uleb128 0x5
 1760 086c 03       		.byte	0x3
 1761 086d 00000000 		.4byte	.LANCHOR2
 1762 0871 00       		.byte	0
 1763 0872 16       		.uleb128 0x16
 1764 0873 38000000 		.4byte	.LVL73
 1765 0877 920A0000 		.4byte	0xa92
 1766 087b 8C080000 		.4byte	0x88c
 1767 087f 15       		.uleb128 0x15
 1768 0880 01       		.uleb128 0x1
 1769 0881 51       		.byte	0x51
 1770 0882 02       		.uleb128 0x2
 1771 0883 74       		.byte	0x74
 1772 0884 00       		.sleb128 0
 1773 0885 15       		.uleb128 0x15
 1774 0886 01       		.uleb128 0x1
 1775 0887 50       		.byte	0x50
 1776 0888 02       		.uleb128 0x2
 1777 0889 75       		.byte	0x75
 1778 088a 00       		.sleb128 0
 1779 088b 00       		.byte	0
 1780 088c 18       		.uleb128 0x18
 1781 088d 40000000 		.4byte	.LVL75
 1782 0891 A80A0000 		.4byte	0xaa8
 1783 0895 00       		.byte	0
 1784 0896 11       		.uleb128 0x11
 1785 0897 1D030000 		.4byte	.LASF73
 1786 089b 01       		.byte	0x1
 1787 089c CB       		.byte	0xcb
 1788 089d 00000000 		.4byte	.LFB124
 1789 08a1 6C000000 		.4byte	.LFE124-.LFB124
 1790 08a5 01       		.uleb128 0x1
 1791 08a6 9C       		.byte	0x9c
 1792 08a7 65090000 		.4byte	0x965
 1793 08ab 1A       		.uleb128 0x1a
 1794 08ac 8E030000 		.4byte	.LASF67
 1795 08b0 01       		.byte	0x1
 1796 08b1 CB       		.byte	0xcb
 1797 08b2 7E000000 		.4byte	0x7e
 1798 08b6 49030000 		.4byte	.LLST15
 1799 08ba 1A       		.uleb128 0x1a
 1800 08bb 74020000 		.4byte	.LASF71
 1801 08bf 01       		.byte	0x1
 1802 08c0 CB       		.byte	0xcb
 1803 08c1 6E040000 		.4byte	0x46e
 1804 08c5 75030000 		.4byte	.LLST16
 1805 08c9 1A       		.uleb128 0x1a
 1806 08ca 9B010000 		.4byte	.LASF72
 1807 08ce 01       		.byte	0x1
 1808 08cf CB       		.byte	0xcb
 1809 08d0 7E000000 		.4byte	0x7e
 1810 08d4 A1030000 		.4byte	.LLST17
 1811 08d8 16       		.uleb128 0x16
 1812 08d9 10000000 		.4byte	.LVL78
 1813 08dd 7A0A0000 		.4byte	0xa7a
 1814 08e1 EF080000 		.4byte	0x8ef
 1815 08e5 15       		.uleb128 0x15
ARM GAS  /var/folders/bz/nn5481rn5xq59rb0mbj7x0880000gn/T//ccWjsB25.s 			page 33


 1816 08e6 01       		.uleb128 0x1
 1817 08e7 50       		.byte	0x50
 1818 08e8 05       		.uleb128 0x5
 1819 08e9 03       		.byte	0x3
 1820 08ea 00000000 		.4byte	.LANCHOR0
 1821 08ee 00       		.byte	0
 1822 08ef 16       		.uleb128 0x16
 1823 08f0 1E000000 		.4byte	.LVL79
 1824 08f4 310B0000 		.4byte	0xb31
 1825 08f8 17090000 		.4byte	0x917
 1826 08fc 15       		.uleb128 0x15
 1827 08fd 01       		.uleb128 0x1
 1828 08fe 52       		.byte	0x52
 1829 08ff 02       		.uleb128 0x2
 1830 0900 75       		.byte	0x75
 1831 0901 00       		.sleb128 0
 1832 0902 15       		.uleb128 0x15
 1833 0903 01       		.uleb128 0x1
 1834 0904 51       		.byte	0x51
 1835 0905 02       		.uleb128 0x2
 1836 0906 76       		.byte	0x76
 1837 0907 00       		.sleb128 0
 1838 0908 15       		.uleb128 0x15
 1839 0909 01       		.uleb128 0x1
 1840 090a 50       		.byte	0x50
 1841 090b 0A       		.uleb128 0xa
 1842 090c 74       		.byte	0x74
 1843 090d 00       		.sleb128 0
 1844 090e 32       		.byte	0x32
 1845 090f 24       		.byte	0x24
 1846 0910 74       		.byte	0x74
 1847 0911 00       		.sleb128 0
 1848 0912 22       		.byte	0x22
 1849 0913 77       		.byte	0x77
 1850 0914 00       		.sleb128 0
 1851 0915 22       		.byte	0x22
 1852 0916 00       		.byte	0
 1853 0917 16       		.uleb128 0x16
 1854 0918 2C000000 		.4byte	.LVL80
 1855 091c 390A0000 		.4byte	0xa39
 1856 0920 3A090000 		.4byte	0x93a
 1857 0924 15       		.uleb128 0x15
 1858 0925 01       		.uleb128 0x1
 1859 0926 52       		.byte	0x52
 1860 0927 02       		.uleb128 0x2
 1861 0928 75       		.byte	0x75
 1862 0929 00       		.sleb128 0
 1863 092a 15       		.uleb128 0x15
 1864 092b 01       		.uleb128 0x1
 1865 092c 51       		.byte	0x51
 1866 092d 05       		.uleb128 0x5
 1867 092e 03       		.byte	0x3
 1868 092f 00000000 		.4byte	.LANCHOR4
 1869 0933 15       		.uleb128 0x15
 1870 0934 01       		.uleb128 0x1
 1871 0935 50       		.byte	0x50
 1872 0936 02       		.uleb128 0x2
ARM GAS  /var/folders/bz/nn5481rn5xq59rb0mbj7x0880000gn/T//ccWjsB25.s 			page 34


 1873 0937 77       		.byte	0x77
 1874 0938 00       		.sleb128 0
 1875 0939 00       		.byte	0
 1876 093a 16       		.uleb128 0x16
 1877 093b 4A000000 		.4byte	.LVL82
 1878 093f 5F0A0000 		.4byte	0xa5f
 1879 0943 5B090000 		.4byte	0x95b
 1880 0947 15       		.uleb128 0x15
 1881 0948 01       		.uleb128 0x1
 1882 0949 52       		.byte	0x52
 1883 094a 03       		.uleb128 0x3
 1884 094b F3       		.byte	0xf3
 1885 094c 01       		.uleb128 0x1
 1886 094d 52       		.byte	0x52
 1887 094e 15       		.uleb128 0x15
 1888 094f 01       		.uleb128 0x1
 1889 0950 51       		.byte	0x51
 1890 0951 02       		.uleb128 0x2
 1891 0952 76       		.byte	0x76
 1892 0953 00       		.sleb128 0
 1893 0954 15       		.uleb128 0x15
 1894 0955 01       		.uleb128 0x1
 1895 0956 50       		.byte	0x50
 1896 0957 02       		.uleb128 0x2
 1897 0958 74       		.byte	0x74
 1898 0959 00       		.sleb128 0
 1899 095a 00       		.byte	0
 1900 095b 18       		.uleb128 0x18
 1901 095c 52000000 		.4byte	.LVL84
 1902 0960 A80A0000 		.4byte	0xaa8
 1903 0964 00       		.byte	0
 1904 0965 1E       		.uleb128 0x1e
 1905 0966 AD020000 		.4byte	.LASF74
 1906 096a 01       		.byte	0x1
 1907 096b 1A       		.byte	0x1a
 1908 096c 2E040000 		.4byte	0x42e
 1909 0970 05       		.uleb128 0x5
 1910 0971 03       		.byte	0x3
 1911 0972 00000000 		.4byte	rf_mutex
 1912 0976 1F       		.uleb128 0x1f
 1913 0977 79040000 		.4byte	0x479
 1914 097b 8C090000 		.4byte	0x98c
 1915 097f 20       		.uleb128 0x20
 1916 0980 EB030000 		.4byte	0x3eb
 1917 0984 05       		.byte	0x5
 1918 0985 20       		.uleb128 0x20
 1919 0986 EB030000 		.4byte	0x3eb
 1920 098a 04       		.byte	0x4
 1921 098b 00       		.byte	0
 1922 098c 1E       		.uleb128 0x1e
 1923 098d 40000000 		.4byte	.LASF75
 1924 0991 01       		.byte	0x1
 1925 0992 1B       		.byte	0x1b
 1926 0993 76090000 		.4byte	0x976
 1927 0997 05       		.uleb128 0x5
 1928 0998 03       		.byte	0x3
 1929 0999 00000000 		.4byte	rx_addr
ARM GAS  /var/folders/bz/nn5481rn5xq59rb0mbj7x0880000gn/T//ccWjsB25.s 			page 35


 1930 099d 1F       		.uleb128 0x1f
 1931 099e 79040000 		.4byte	0x479
 1932 09a2 AD090000 		.4byte	0x9ad
 1933 09a6 20       		.uleb128 0x20
 1934 09a7 EB030000 		.4byte	0x3eb
 1935 09ab 04       		.byte	0x4
 1936 09ac 00       		.byte	0
 1937 09ad 1E       		.uleb128 0x1e
 1938 09ae 5E000000 		.4byte	.LASF76
 1939 09b2 01       		.byte	0x1
 1940 09b3 1C       		.byte	0x1c
 1941 09b4 9D090000 		.4byte	0x99d
 1942 09b8 05       		.uleb128 0x5
 1943 09b9 03       		.byte	0x3
 1944 09ba 00000000 		.4byte	tx_addr
 1945 09be 1F       		.uleb128 0x1f
 1946 09bf B8000000 		.4byte	0xb8
 1947 09c3 CE090000 		.4byte	0x9ce
 1948 09c7 20       		.uleb128 0x20
 1949 09c8 EB030000 		.4byte	0x3eb
 1950 09cc 05       		.byte	0x5
 1951 09cd 00       		.byte	0
 1952 09ce 1E       		.uleb128 0x1e
 1953 09cf 16010000 		.4byte	.LASF77
 1954 09d3 01       		.byte	0x1
 1955 09d4 1D       		.byte	0x1d
 1956 09d5 BE090000 		.4byte	0x9be
 1957 09d9 05       		.uleb128 0x5
 1958 09da 03       		.byte	0x3
 1959 09db 00000000 		.4byte	rx_addr_set
 1960 09df 1E       		.uleb128 0x1e
 1961 09e0 DC020000 		.4byte	.LASF78
 1962 09e4 01       		.byte	0x1
 1963 09e5 1E       		.byte	0x1e
 1964 09e6 7E000000 		.4byte	0x7e
 1965 09ea 05       		.uleb128 0x5
 1966 09eb 03       		.byte	0x3
 1967 09ec 00000000 		.4byte	address_length
 1968 09f0 1E       		.uleb128 0x1e
 1969 09f1 37050000 		.4byte	.LASF79
 1970 09f5 01       		.byte	0x1
 1971 09f6 1F       		.byte	0x1f
 1972 09f7 B8000000 		.4byte	0xb8
 1973 09fb 05       		.uleb128 0x5
 1974 09fc 03       		.byte	0x3
 1975 09fd 00000000 		.4byte	tx_pipe0_addr_eq
 1976 0a01 21       		.uleb128 0x21
 1977 0a02 95020000 		.4byte	.LASF101
 1978 0a06 0B       		.byte	0xb
 1979 0a07 9806     		.2byte	0x698
 1980 0a09 86040000 		.4byte	0x486
 1981 0a0d 22       		.uleb128 0x22
 1982 0a0e 2F020000 		.4byte	.LASF80
 1983 0a12 0A       		.byte	0xa
 1984 0a13 CB       		.byte	0xcb
 1985 0a14 280A0000 		.4byte	0xa28
 1986 0a18 23       		.uleb128 0x23
ARM GAS  /var/folders/bz/nn5481rn5xq59rb0mbj7x0880000gn/T//ccWjsB25.s 			page 36


 1987 0a19 7E000000 		.4byte	0x7e
 1988 0a1d 23       		.uleb128 0x23
 1989 0a1e 8B040000 		.4byte	0x48b
 1990 0a22 23       		.uleb128 0x23
 1991 0a23 7E000000 		.4byte	0x7e
 1992 0a27 00       		.byte	0
 1993 0a28 22       		.uleb128 0x22
 1994 0a29 02050000 		.4byte	.LASF81
 1995 0a2d 09       		.byte	0x9
 1996 0a2e 38       		.byte	0x38
 1997 0a2f 390A0000 		.4byte	0xa39
 1998 0a33 23       		.uleb128 0x23
 1999 0a34 80040000 		.4byte	0x480
 2000 0a38 00       		.byte	0
 2001 0a39 24       		.uleb128 0x24
 2002 0a3a DD040000 		.4byte	.LASF102
 2003 0a3e 0C       		.byte	0xc
 2004 0a3f 16       		.byte	0x16
 2005 0a40 7E000000 		.4byte	0x7e
 2006 0a44 580A0000 		.4byte	0xa58
 2007 0a48 23       		.uleb128 0x23
 2008 0a49 580A0000 		.4byte	0xa58
 2009 0a4d 23       		.uleb128 0x23
 2010 0a4e 580A0000 		.4byte	0xa58
 2011 0a52 23       		.uleb128 0x23
 2012 0a53 AD000000 		.4byte	0xad
 2013 0a57 00       		.byte	0
 2014 0a58 09       		.uleb128 0x9
 2015 0a59 04       		.byte	0x4
 2016 0a5a 5E0A0000 		.4byte	0xa5e
 2017 0a5e 25       		.uleb128 0x25
 2018 0a5f 22       		.uleb128 0x22
 2019 0a60 27000000 		.4byte	.LASF82
 2020 0a64 0A       		.byte	0xa
 2021 0a65 AA       		.byte	0xaa
 2022 0a66 7A0A0000 		.4byte	0xa7a
 2023 0a6a 23       		.uleb128 0x23
 2024 0a6b 7E000000 		.4byte	0x7e
 2025 0a6f 23       		.uleb128 0x23
 2026 0a70 6E040000 		.4byte	0x46e
 2027 0a74 23       		.uleb128 0x23
 2028 0a75 7E000000 		.4byte	0x7e
 2029 0a79 00       		.byte	0
 2030 0a7a 22       		.uleb128 0x22
 2031 0a7b 3B020000 		.4byte	.LASF83
 2032 0a7f 09       		.byte	0x9
 2033 0a80 39       		.byte	0x39
 2034 0a81 8B0A0000 		.4byte	0xa8b
 2035 0a85 23       		.uleb128 0x23
 2036 0a86 80040000 		.4byte	0x480
 2037 0a8a 00       		.byte	0
 2038 0a8b 26       		.uleb128 0x26
 2039 0a8c 00000000 		.4byte	.LASF88
 2040 0a90 0A       		.byte	0xa
 2041 0a91 A3       		.byte	0xa3
 2042 0a92 22       		.uleb128 0x22
 2043 0a93 48000000 		.4byte	.LASF84
ARM GAS  /var/folders/bz/nn5481rn5xq59rb0mbj7x0880000gn/T//ccWjsB25.s 			page 37


 2044 0a97 0A       		.byte	0xa
 2045 0a98 AB       		.byte	0xab
 2046 0a99 A80A0000 		.4byte	0xaa8
 2047 0a9d 23       		.uleb128 0x23
 2048 0a9e 6E040000 		.4byte	0x46e
 2049 0aa2 23       		.uleb128 0x23
 2050 0aa3 7E000000 		.4byte	0x7e
 2051 0aa7 00       		.byte	0
 2052 0aa8 27       		.uleb128 0x27
 2053 0aa9 A9000000 		.4byte	.LASF85
 2054 0aad 09       		.byte	0x9
 2055 0aae 3D       		.byte	0x3d
 2056 0aaf 80040000 		.4byte	0x480
 2057 0ab3 27       		.uleb128 0x27
 2058 0ab4 1C020000 		.4byte	.LASF86
 2059 0ab8 0A       		.byte	0xa
 2060 0ab9 C5       		.byte	0xc5
 2061 0aba 7E000000 		.4byte	0x7e
 2062 0abe 28       		.uleb128 0x28
 2063 0abf 0C050000 		.4byte	.LASF87
 2064 0ac3 07       		.byte	0x7
 2065 0ac4 7501     		.2byte	0x175
 2066 0ac6 D00A0000 		.4byte	0xad0
 2067 0aca 23       		.uleb128 0x23
 2068 0acb 0C010000 		.4byte	0x10c
 2069 0acf 00       		.byte	0
 2070 0ad0 26       		.uleb128 0x26
 2071 0ad1 73000000 		.4byte	.LASF89
 2072 0ad5 0A       		.byte	0xa
 2073 0ad6 C3       		.byte	0xc3
 2074 0ad7 26       		.uleb128 0x26
 2075 0ad8 F2000000 		.4byte	.LASF90
 2076 0adc 0A       		.byte	0xa
 2077 0add B5       		.byte	0xb5
 2078 0ade 26       		.uleb128 0x26
 2079 0adf 95000000 		.4byte	.LASF91
 2080 0ae3 0A       		.byte	0xa
 2081 0ae4 C0       		.byte	0xc0
 2082 0ae5 26       		.uleb128 0x26
 2083 0ae6 0F020000 		.4byte	.LASF92
 2084 0aea 0A       		.byte	0xa
 2085 0aeb BE       		.byte	0xbe
 2086 0aec 22       		.uleb128 0x22
 2087 0aed CB010000 		.4byte	.LASF93
 2088 0af1 0A       		.byte	0xa
 2089 0af2 AC       		.byte	0xac
 2090 0af3 020B0000 		.4byte	0xb02
 2091 0af7 23       		.uleb128 0x23
 2092 0af8 6E040000 		.4byte	0x46e
 2093 0afc 23       		.uleb128 0x23
 2094 0afd 7E000000 		.4byte	0x7e
 2095 0b01 00       		.byte	0
 2096 0b02 26       		.uleb128 0x26
 2097 0b03 A2020000 		.4byte	.LASF94
 2098 0b07 0A       		.byte	0xa
 2099 0b08 B6       		.byte	0xb6
 2100 0b09 27       		.uleb128 0x27
ARM GAS  /var/folders/bz/nn5481rn5xq59rb0mbj7x0880000gn/T//ccWjsB25.s 			page 38


 2101 0b0a EB020000 		.4byte	.LASF95
 2102 0b0e 0A       		.byte	0xa
 2103 0b0f C4       		.byte	0xc4
 2104 0b10 7E000000 		.4byte	0x7e
 2105 0b14 22       		.uleb128 0x22
 2106 0b15 2A010000 		.4byte	.LASF96
 2107 0b19 0A       		.byte	0xa
 2108 0b1a AF       		.byte	0xaf
 2109 0b1b 2A0B0000 		.4byte	0xb2a
 2110 0b1f 23       		.uleb128 0x23
 2111 0b20 8B040000 		.4byte	0x48b
 2112 0b24 23       		.uleb128 0x23
 2113 0b25 7E000000 		.4byte	0x7e
 2114 0b29 00       		.byte	0
 2115 0b2a 26       		.uleb128 0x26
 2116 0b2b 45020000 		.4byte	.LASF97
 2117 0b2f 0A       		.byte	0xa
 2118 0b30 C1       		.byte	0xc1
 2119 0b31 29       		.uleb128 0x29
 2120 0b32 0F010000 		.4byte	.LASF103
 2121 0b36 7C020000 		.4byte	0x27c
 2122 0b3a 23       		.uleb128 0x23
 2123 0b3b 7C020000 		.4byte	0x27c
 2124 0b3f 23       		.uleb128 0x23
 2125 0b40 580A0000 		.4byte	0xa58
 2126 0b44 23       		.uleb128 0x23
 2127 0b45 EB030000 		.4byte	0x3eb
 2128 0b49 00       		.byte	0
 2129 0b4a 00       		.byte	0
 2130              		.section	.debug_abbrev,"",%progbits
 2131              	.Ldebug_abbrev0:
 2132 0000 01       		.uleb128 0x1
 2133 0001 11       		.uleb128 0x11
 2134 0002 01       		.byte	0x1
 2135 0003 25       		.uleb128 0x25
 2136 0004 0E       		.uleb128 0xe
 2137 0005 13       		.uleb128 0x13
 2138 0006 0B       		.uleb128 0xb
 2139 0007 03       		.uleb128 0x3
 2140 0008 0E       		.uleb128 0xe
 2141 0009 1B       		.uleb128 0x1b
 2142 000a 0E       		.uleb128 0xe
 2143 000b 55       		.uleb128 0x55
 2144 000c 17       		.uleb128 0x17
 2145 000d 11       		.uleb128 0x11
 2146 000e 01       		.uleb128 0x1
 2147 000f 10       		.uleb128 0x10
 2148 0010 17       		.uleb128 0x17
 2149 0011 00       		.byte	0
 2150 0012 00       		.byte	0
 2151 0013 02       		.uleb128 0x2
 2152 0014 24       		.uleb128 0x24
 2153 0015 00       		.byte	0
 2154 0016 0B       		.uleb128 0xb
 2155 0017 0B       		.uleb128 0xb
 2156 0018 3E       		.uleb128 0x3e
 2157 0019 0B       		.uleb128 0xb
ARM GAS  /var/folders/bz/nn5481rn5xq59rb0mbj7x0880000gn/T//ccWjsB25.s 			page 39


 2158 001a 03       		.uleb128 0x3
 2159 001b 0E       		.uleb128 0xe
 2160 001c 00       		.byte	0
 2161 001d 00       		.byte	0
 2162 001e 03       		.uleb128 0x3
 2163 001f 16       		.uleb128 0x16
 2164 0020 00       		.byte	0
 2165 0021 03       		.uleb128 0x3
 2166 0022 0E       		.uleb128 0xe
 2167 0023 3A       		.uleb128 0x3a
 2168 0024 0B       		.uleb128 0xb
 2169 0025 3B       		.uleb128 0x3b
 2170 0026 0B       		.uleb128 0xb
 2171 0027 49       		.uleb128 0x49
 2172 0028 13       		.uleb128 0x13
 2173 0029 00       		.byte	0
 2174 002a 00       		.byte	0
 2175 002b 04       		.uleb128 0x4
 2176 002c 24       		.uleb128 0x24
 2177 002d 00       		.byte	0
 2178 002e 0B       		.uleb128 0xb
 2179 002f 0B       		.uleb128 0xb
 2180 0030 3E       		.uleb128 0x3e
 2181 0031 0B       		.uleb128 0xb
 2182 0032 03       		.uleb128 0x3
 2183 0033 08       		.uleb128 0x8
 2184 0034 00       		.byte	0
 2185 0035 00       		.byte	0
 2186 0036 05       		.uleb128 0x5
 2187 0037 13       		.uleb128 0x13
 2188 0038 01       		.byte	0x1
 2189 0039 03       		.uleb128 0x3
 2190 003a 0E       		.uleb128 0xe
 2191 003b 0B       		.uleb128 0xb
 2192 003c 0B       		.uleb128 0xb
 2193 003d 3A       		.uleb128 0x3a
 2194 003e 0B       		.uleb128 0xb
 2195 003f 3B       		.uleb128 0x3b
 2196 0040 0B       		.uleb128 0xb
 2197 0041 01       		.uleb128 0x1
 2198 0042 13       		.uleb128 0x13
 2199 0043 00       		.byte	0
 2200 0044 00       		.byte	0
 2201 0045 06       		.uleb128 0x6
 2202 0046 0D       		.uleb128 0xd
 2203 0047 00       		.byte	0
 2204 0048 03       		.uleb128 0x3
 2205 0049 0E       		.uleb128 0xe
 2206 004a 3A       		.uleb128 0x3a
 2207 004b 0B       		.uleb128 0xb
 2208 004c 3B       		.uleb128 0x3b
 2209 004d 0B       		.uleb128 0xb
 2210 004e 49       		.uleb128 0x49
 2211 004f 13       		.uleb128 0x13
 2212 0050 38       		.uleb128 0x38
 2213 0051 0B       		.uleb128 0xb
 2214 0052 00       		.byte	0
ARM GAS  /var/folders/bz/nn5481rn5xq59rb0mbj7x0880000gn/T//ccWjsB25.s 			page 40


 2215 0053 00       		.byte	0
 2216 0054 07       		.uleb128 0x7
 2217 0055 0D       		.uleb128 0xd
 2218 0056 00       		.byte	0
 2219 0057 03       		.uleb128 0x3
 2220 0058 08       		.uleb128 0x8
 2221 0059 3A       		.uleb128 0x3a
 2222 005a 0B       		.uleb128 0xb
 2223 005b 3B       		.uleb128 0x3b
 2224 005c 0B       		.uleb128 0xb
 2225 005d 49       		.uleb128 0x49
 2226 005e 13       		.uleb128 0x13
 2227 005f 38       		.uleb128 0x38
 2228 0060 0B       		.uleb128 0xb
 2229 0061 00       		.byte	0
 2230 0062 00       		.byte	0
 2231 0063 08       		.uleb128 0x8
 2232 0064 13       		.uleb128 0x13
 2233 0065 01       		.byte	0x1
 2234 0066 0B       		.uleb128 0xb
 2235 0067 0B       		.uleb128 0xb
 2236 0068 3A       		.uleb128 0x3a
 2237 0069 0B       		.uleb128 0xb
 2238 006a 3B       		.uleb128 0x3b
 2239 006b 0B       		.uleb128 0xb
 2240 006c 01       		.uleb128 0x1
 2241 006d 13       		.uleb128 0x13
 2242 006e 00       		.byte	0
 2243 006f 00       		.byte	0
 2244 0070 09       		.uleb128 0x9
 2245 0071 0F       		.uleb128 0xf
 2246 0072 00       		.byte	0
 2247 0073 0B       		.uleb128 0xb
 2248 0074 0B       		.uleb128 0xb
 2249 0075 49       		.uleb128 0x49
 2250 0076 13       		.uleb128 0x13
 2251 0077 00       		.byte	0
 2252 0078 00       		.byte	0
 2253 0079 0A       		.uleb128 0xa
 2254 007a 0F       		.uleb128 0xf
 2255 007b 00       		.byte	0
 2256 007c 0B       		.uleb128 0xb
 2257 007d 0B       		.uleb128 0xb
 2258 007e 00       		.byte	0
 2259 007f 00       		.byte	0
 2260 0080 0B       		.uleb128 0xb
 2261 0081 13       		.uleb128 0x13
 2262 0082 01       		.byte	0x1
 2263 0083 03       		.uleb128 0x3
 2264 0084 0E       		.uleb128 0xe
 2265 0085 0B       		.uleb128 0xb
 2266 0086 0B       		.uleb128 0xb
 2267 0087 3A       		.uleb128 0x3a
 2268 0088 0B       		.uleb128 0xb
 2269 0089 3B       		.uleb128 0x3b
 2270 008a 05       		.uleb128 0x5
 2271 008b 01       		.uleb128 0x1
ARM GAS  /var/folders/bz/nn5481rn5xq59rb0mbj7x0880000gn/T//ccWjsB25.s 			page 41


 2272 008c 13       		.uleb128 0x13
 2273 008d 00       		.byte	0
 2274 008e 00       		.byte	0
 2275 008f 0C       		.uleb128 0xc
 2276 0090 0D       		.uleb128 0xd
 2277 0091 00       		.byte	0
 2278 0092 03       		.uleb128 0x3
 2279 0093 08       		.uleb128 0x8
 2280 0094 3A       		.uleb128 0x3a
 2281 0095 0B       		.uleb128 0xb
 2282 0096 3B       		.uleb128 0x3b
 2283 0097 05       		.uleb128 0x5
 2284 0098 49       		.uleb128 0x49
 2285 0099 13       		.uleb128 0x13
 2286 009a 38       		.uleb128 0x38
 2287 009b 0B       		.uleb128 0xb
 2288 009c 00       		.byte	0
 2289 009d 00       		.byte	0
 2290 009e 0D       		.uleb128 0xd
 2291 009f 35       		.uleb128 0x35
 2292 00a0 00       		.byte	0
 2293 00a1 49       		.uleb128 0x49
 2294 00a2 13       		.uleb128 0x13
 2295 00a3 00       		.byte	0
 2296 00a4 00       		.byte	0
 2297 00a5 0E       		.uleb128 0xe
 2298 00a6 17       		.uleb128 0x17
 2299 00a7 01       		.byte	0x1
 2300 00a8 0B       		.uleb128 0xb
 2301 00a9 0B       		.uleb128 0xb
 2302 00aa 3A       		.uleb128 0x3a
 2303 00ab 0B       		.uleb128 0xb
 2304 00ac 3B       		.uleb128 0x3b
 2305 00ad 0B       		.uleb128 0xb
 2306 00ae 01       		.uleb128 0x1
 2307 00af 13       		.uleb128 0x13
 2308 00b0 00       		.byte	0
 2309 00b1 00       		.byte	0
 2310 00b2 0F       		.uleb128 0xf
 2311 00b3 0D       		.uleb128 0xd
 2312 00b4 00       		.byte	0
 2313 00b5 03       		.uleb128 0x3
 2314 00b6 0E       		.uleb128 0xe
 2315 00b7 3A       		.uleb128 0x3a
 2316 00b8 0B       		.uleb128 0xb
 2317 00b9 3B       		.uleb128 0x3b
 2318 00ba 0B       		.uleb128 0xb
 2319 00bb 49       		.uleb128 0x49
 2320 00bc 13       		.uleb128 0x13
 2321 00bd 00       		.byte	0
 2322 00be 00       		.byte	0
 2323 00bf 10       		.uleb128 0x10
 2324 00c0 26       		.uleb128 0x26
 2325 00c1 00       		.byte	0
 2326 00c2 49       		.uleb128 0x49
 2327 00c3 13       		.uleb128 0x13
 2328 00c4 00       		.byte	0
ARM GAS  /var/folders/bz/nn5481rn5xq59rb0mbj7x0880000gn/T//ccWjsB25.s 			page 42


 2329 00c5 00       		.byte	0
 2330 00c6 11       		.uleb128 0x11
 2331 00c7 2E       		.uleb128 0x2e
 2332 00c8 01       		.byte	0x1
 2333 00c9 3F       		.uleb128 0x3f
 2334 00ca 19       		.uleb128 0x19
 2335 00cb 03       		.uleb128 0x3
 2336 00cc 0E       		.uleb128 0xe
 2337 00cd 3A       		.uleb128 0x3a
 2338 00ce 0B       		.uleb128 0xb
 2339 00cf 3B       		.uleb128 0x3b
 2340 00d0 0B       		.uleb128 0xb
 2341 00d1 27       		.uleb128 0x27
 2342 00d2 19       		.uleb128 0x19
 2343 00d3 11       		.uleb128 0x11
 2344 00d4 01       		.uleb128 0x1
 2345 00d5 12       		.uleb128 0x12
 2346 00d6 06       		.uleb128 0x6
 2347 00d7 40       		.uleb128 0x40
 2348 00d8 18       		.uleb128 0x18
 2349 00d9 9742     		.uleb128 0x2117
 2350 00db 19       		.uleb128 0x19
 2351 00dc 01       		.uleb128 0x1
 2352 00dd 13       		.uleb128 0x13
 2353 00de 00       		.byte	0
 2354 00df 00       		.byte	0
 2355 00e0 12       		.uleb128 0x12
 2356 00e1 0B       		.uleb128 0xb
 2357 00e2 01       		.byte	0x1
 2358 00e3 11       		.uleb128 0x11
 2359 00e4 01       		.uleb128 0x1
 2360 00e5 12       		.uleb128 0x12
 2361 00e6 06       		.uleb128 0x6
 2362 00e7 01       		.uleb128 0x1
 2363 00e8 13       		.uleb128 0x13
 2364 00e9 00       		.byte	0
 2365 00ea 00       		.byte	0
 2366 00eb 13       		.uleb128 0x13
 2367 00ec 34       		.uleb128 0x34
 2368 00ed 00       		.byte	0
 2369 00ee 03       		.uleb128 0x3
 2370 00ef 08       		.uleb128 0x8
 2371 00f0 3A       		.uleb128 0x3a
 2372 00f1 0B       		.uleb128 0xb
 2373 00f2 3B       		.uleb128 0x3b
 2374 00f3 0B       		.uleb128 0xb
 2375 00f4 49       		.uleb128 0x49
 2376 00f5 13       		.uleb128 0x13
 2377 00f6 02       		.uleb128 0x2
 2378 00f7 17       		.uleb128 0x17
 2379 00f8 00       		.byte	0
 2380 00f9 00       		.byte	0
 2381 00fa 14       		.uleb128 0x14
 2382 00fb 898201   		.uleb128 0x4109
 2383 00fe 01       		.byte	0x1
 2384 00ff 11       		.uleb128 0x11
 2385 0100 01       		.uleb128 0x1
ARM GAS  /var/folders/bz/nn5481rn5xq59rb0mbj7x0880000gn/T//ccWjsB25.s 			page 43


 2386 0101 31       		.uleb128 0x31
 2387 0102 13       		.uleb128 0x13
 2388 0103 00       		.byte	0
 2389 0104 00       		.byte	0
 2390 0105 15       		.uleb128 0x15
 2391 0106 8A8201   		.uleb128 0x410a
 2392 0109 00       		.byte	0
 2393 010a 02       		.uleb128 0x2
 2394 010b 18       		.uleb128 0x18
 2395 010c 9142     		.uleb128 0x2111
 2396 010e 18       		.uleb128 0x18
 2397 010f 00       		.byte	0
 2398 0110 00       		.byte	0
 2399 0111 16       		.uleb128 0x16
 2400 0112 898201   		.uleb128 0x4109
 2401 0115 01       		.byte	0x1
 2402 0116 11       		.uleb128 0x11
 2403 0117 01       		.uleb128 0x1
 2404 0118 31       		.uleb128 0x31
 2405 0119 13       		.uleb128 0x13
 2406 011a 01       		.uleb128 0x1
 2407 011b 13       		.uleb128 0x13
 2408 011c 00       		.byte	0
 2409 011d 00       		.byte	0
 2410 011e 17       		.uleb128 0x17
 2411 011f 898201   		.uleb128 0x4109
 2412 0122 00       		.byte	0
 2413 0123 11       		.uleb128 0x11
 2414 0124 01       		.uleb128 0x1
 2415 0125 31       		.uleb128 0x31
 2416 0126 13       		.uleb128 0x13
 2417 0127 00       		.byte	0
 2418 0128 00       		.byte	0
 2419 0129 18       		.uleb128 0x18
 2420 012a 898201   		.uleb128 0x4109
 2421 012d 00       		.byte	0
 2422 012e 11       		.uleb128 0x11
 2423 012f 01       		.uleb128 0x1
 2424 0130 9542     		.uleb128 0x2115
 2425 0132 19       		.uleb128 0x19
 2426 0133 31       		.uleb128 0x31
 2427 0134 13       		.uleb128 0x13
 2428 0135 00       		.byte	0
 2429 0136 00       		.byte	0
 2430 0137 19       		.uleb128 0x19
 2431 0138 2E       		.uleb128 0x2e
 2432 0139 01       		.byte	0x1
 2433 013a 3F       		.uleb128 0x3f
 2434 013b 19       		.uleb128 0x19
 2435 013c 03       		.uleb128 0x3
 2436 013d 0E       		.uleb128 0xe
 2437 013e 3A       		.uleb128 0x3a
 2438 013f 0B       		.uleb128 0xb
 2439 0140 3B       		.uleb128 0x3b
 2440 0141 0B       		.uleb128 0xb
 2441 0142 27       		.uleb128 0x27
 2442 0143 19       		.uleb128 0x19
ARM GAS  /var/folders/bz/nn5481rn5xq59rb0mbj7x0880000gn/T//ccWjsB25.s 			page 44


 2443 0144 49       		.uleb128 0x49
 2444 0145 13       		.uleb128 0x13
 2445 0146 11       		.uleb128 0x11
 2446 0147 01       		.uleb128 0x1
 2447 0148 12       		.uleb128 0x12
 2448 0149 06       		.uleb128 0x6
 2449 014a 40       		.uleb128 0x40
 2450 014b 18       		.uleb128 0x18
 2451 014c 9742     		.uleb128 0x2117
 2452 014e 19       		.uleb128 0x19
 2453 014f 01       		.uleb128 0x1
 2454 0150 13       		.uleb128 0x13
 2455 0151 00       		.byte	0
 2456 0152 00       		.byte	0
 2457 0153 1A       		.uleb128 0x1a
 2458 0154 05       		.uleb128 0x5
 2459 0155 00       		.byte	0
 2460 0156 03       		.uleb128 0x3
 2461 0157 0E       		.uleb128 0xe
 2462 0158 3A       		.uleb128 0x3a
 2463 0159 0B       		.uleb128 0xb
 2464 015a 3B       		.uleb128 0x3b
 2465 015b 0B       		.uleb128 0xb
 2466 015c 49       		.uleb128 0x49
 2467 015d 13       		.uleb128 0x13
 2468 015e 02       		.uleb128 0x2
 2469 015f 17       		.uleb128 0x17
 2470 0160 00       		.byte	0
 2471 0161 00       		.byte	0
 2472 0162 1B       		.uleb128 0x1b
 2473 0163 05       		.uleb128 0x5
 2474 0164 00       		.byte	0
 2475 0165 03       		.uleb128 0x3
 2476 0166 08       		.uleb128 0x8
 2477 0167 3A       		.uleb128 0x3a
 2478 0168 0B       		.uleb128 0xb
 2479 0169 3B       		.uleb128 0x3b
 2480 016a 0B       		.uleb128 0xb
 2481 016b 49       		.uleb128 0x49
 2482 016c 13       		.uleb128 0x13
 2483 016d 02       		.uleb128 0x2
 2484 016e 17       		.uleb128 0x17
 2485 016f 00       		.byte	0
 2486 0170 00       		.byte	0
 2487 0171 1C       		.uleb128 0x1c
 2488 0172 34       		.uleb128 0x34
 2489 0173 00       		.byte	0
 2490 0174 03       		.uleb128 0x3
 2491 0175 0E       		.uleb128 0xe
 2492 0176 3A       		.uleb128 0x3a
 2493 0177 0B       		.uleb128 0xb
 2494 0178 3B       		.uleb128 0x3b
 2495 0179 0B       		.uleb128 0xb
 2496 017a 49       		.uleb128 0x49
 2497 017b 13       		.uleb128 0x13
 2498 017c 02       		.uleb128 0x2
 2499 017d 17       		.uleb128 0x17
ARM GAS  /var/folders/bz/nn5481rn5xq59rb0mbj7x0880000gn/T//ccWjsB25.s 			page 45


 2500 017e 00       		.byte	0
 2501 017f 00       		.byte	0
 2502 0180 1D       		.uleb128 0x1d
 2503 0181 0B       		.uleb128 0xb
 2504 0182 01       		.byte	0x1
 2505 0183 55       		.uleb128 0x55
 2506 0184 17       		.uleb128 0x17
 2507 0185 01       		.uleb128 0x1
 2508 0186 13       		.uleb128 0x13
 2509 0187 00       		.byte	0
 2510 0188 00       		.byte	0
 2511 0189 1E       		.uleb128 0x1e
 2512 018a 34       		.uleb128 0x34
 2513 018b 00       		.byte	0
 2514 018c 03       		.uleb128 0x3
 2515 018d 0E       		.uleb128 0xe
 2516 018e 3A       		.uleb128 0x3a
 2517 018f 0B       		.uleb128 0xb
 2518 0190 3B       		.uleb128 0x3b
 2519 0191 0B       		.uleb128 0xb
 2520 0192 49       		.uleb128 0x49
 2521 0193 13       		.uleb128 0x13
 2522 0194 02       		.uleb128 0x2
 2523 0195 18       		.uleb128 0x18
 2524 0196 00       		.byte	0
 2525 0197 00       		.byte	0
 2526 0198 1F       		.uleb128 0x1f
 2527 0199 01       		.uleb128 0x1
 2528 019a 01       		.byte	0x1
 2529 019b 49       		.uleb128 0x49
 2530 019c 13       		.uleb128 0x13
 2531 019d 01       		.uleb128 0x1
 2532 019e 13       		.uleb128 0x13
 2533 019f 00       		.byte	0
 2534 01a0 00       		.byte	0
 2535 01a1 20       		.uleb128 0x20
 2536 01a2 21       		.uleb128 0x21
 2537 01a3 00       		.byte	0
 2538 01a4 49       		.uleb128 0x49
 2539 01a5 13       		.uleb128 0x13
 2540 01a6 2F       		.uleb128 0x2f
 2541 01a7 0B       		.uleb128 0xb
 2542 01a8 00       		.byte	0
 2543 01a9 00       		.byte	0
 2544 01aa 21       		.uleb128 0x21
 2545 01ab 34       		.uleb128 0x34
 2546 01ac 00       		.byte	0
 2547 01ad 03       		.uleb128 0x3
 2548 01ae 0E       		.uleb128 0xe
 2549 01af 3A       		.uleb128 0x3a
 2550 01b0 0B       		.uleb128 0xb
 2551 01b1 3B       		.uleb128 0x3b
 2552 01b2 05       		.uleb128 0x5
 2553 01b3 49       		.uleb128 0x49
 2554 01b4 13       		.uleb128 0x13
 2555 01b5 3F       		.uleb128 0x3f
 2556 01b6 19       		.uleb128 0x19
ARM GAS  /var/folders/bz/nn5481rn5xq59rb0mbj7x0880000gn/T//ccWjsB25.s 			page 46


 2557 01b7 3C       		.uleb128 0x3c
 2558 01b8 19       		.uleb128 0x19
 2559 01b9 00       		.byte	0
 2560 01ba 00       		.byte	0
 2561 01bb 22       		.uleb128 0x22
 2562 01bc 2E       		.uleb128 0x2e
 2563 01bd 01       		.byte	0x1
 2564 01be 3F       		.uleb128 0x3f
 2565 01bf 19       		.uleb128 0x19
 2566 01c0 03       		.uleb128 0x3
 2567 01c1 0E       		.uleb128 0xe
 2568 01c2 3A       		.uleb128 0x3a
 2569 01c3 0B       		.uleb128 0xb
 2570 01c4 3B       		.uleb128 0x3b
 2571 01c5 0B       		.uleb128 0xb
 2572 01c6 27       		.uleb128 0x27
 2573 01c7 19       		.uleb128 0x19
 2574 01c8 3C       		.uleb128 0x3c
 2575 01c9 19       		.uleb128 0x19
 2576 01ca 01       		.uleb128 0x1
 2577 01cb 13       		.uleb128 0x13
 2578 01cc 00       		.byte	0
 2579 01cd 00       		.byte	0
 2580 01ce 23       		.uleb128 0x23
 2581 01cf 05       		.uleb128 0x5
 2582 01d0 00       		.byte	0
 2583 01d1 49       		.uleb128 0x49
 2584 01d2 13       		.uleb128 0x13
 2585 01d3 00       		.byte	0
 2586 01d4 00       		.byte	0
 2587 01d5 24       		.uleb128 0x24
 2588 01d6 2E       		.uleb128 0x2e
 2589 01d7 01       		.byte	0x1
 2590 01d8 3F       		.uleb128 0x3f
 2591 01d9 19       		.uleb128 0x19
 2592 01da 03       		.uleb128 0x3
 2593 01db 0E       		.uleb128 0xe
 2594 01dc 3A       		.uleb128 0x3a
 2595 01dd 0B       		.uleb128 0xb
 2596 01de 3B       		.uleb128 0x3b
 2597 01df 0B       		.uleb128 0xb
 2598 01e0 27       		.uleb128 0x27
 2599 01e1 19       		.uleb128 0x19
 2600 01e2 49       		.uleb128 0x49
 2601 01e3 13       		.uleb128 0x13
 2602 01e4 3C       		.uleb128 0x3c
 2603 01e5 19       		.uleb128 0x19
 2604 01e6 01       		.uleb128 0x1
 2605 01e7 13       		.uleb128 0x13
 2606 01e8 00       		.byte	0
 2607 01e9 00       		.byte	0
 2608 01ea 25       		.uleb128 0x25
 2609 01eb 26       		.uleb128 0x26
 2610 01ec 00       		.byte	0
 2611 01ed 00       		.byte	0
 2612 01ee 00       		.byte	0
 2613 01ef 26       		.uleb128 0x26
ARM GAS  /var/folders/bz/nn5481rn5xq59rb0mbj7x0880000gn/T//ccWjsB25.s 			page 47


 2614 01f0 2E       		.uleb128 0x2e
 2615 01f1 00       		.byte	0
 2616 01f2 3F       		.uleb128 0x3f
 2617 01f3 19       		.uleb128 0x19
 2618 01f4 03       		.uleb128 0x3
 2619 01f5 0E       		.uleb128 0xe
 2620 01f6 3A       		.uleb128 0x3a
 2621 01f7 0B       		.uleb128 0xb
 2622 01f8 3B       		.uleb128 0x3b
 2623 01f9 0B       		.uleb128 0xb
 2624 01fa 27       		.uleb128 0x27
 2625 01fb 19       		.uleb128 0x19
 2626 01fc 3C       		.uleb128 0x3c
 2627 01fd 19       		.uleb128 0x19
 2628 01fe 00       		.byte	0
 2629 01ff 00       		.byte	0
 2630 0200 27       		.uleb128 0x27
 2631 0201 2E       		.uleb128 0x2e
 2632 0202 00       		.byte	0
 2633 0203 3F       		.uleb128 0x3f
 2634 0204 19       		.uleb128 0x19
 2635 0205 03       		.uleb128 0x3
 2636 0206 0E       		.uleb128 0xe
 2637 0207 3A       		.uleb128 0x3a
 2638 0208 0B       		.uleb128 0xb
 2639 0209 3B       		.uleb128 0x3b
 2640 020a 0B       		.uleb128 0xb
 2641 020b 27       		.uleb128 0x27
 2642 020c 19       		.uleb128 0x19
 2643 020d 49       		.uleb128 0x49
 2644 020e 13       		.uleb128 0x13
 2645 020f 3C       		.uleb128 0x3c
 2646 0210 19       		.uleb128 0x19
 2647 0211 00       		.byte	0
 2648 0212 00       		.byte	0
 2649 0213 28       		.uleb128 0x28
 2650 0214 2E       		.uleb128 0x2e
 2651 0215 01       		.byte	0x1
 2652 0216 3F       		.uleb128 0x3f
 2653 0217 19       		.uleb128 0x19
 2654 0218 03       		.uleb128 0x3
 2655 0219 0E       		.uleb128 0xe
 2656 021a 3A       		.uleb128 0x3a
 2657 021b 0B       		.uleb128 0xb
 2658 021c 3B       		.uleb128 0x3b
 2659 021d 05       		.uleb128 0x5
 2660 021e 27       		.uleb128 0x27
 2661 021f 19       		.uleb128 0x19
 2662 0220 3C       		.uleb128 0x3c
 2663 0221 19       		.uleb128 0x19
 2664 0222 01       		.uleb128 0x1
 2665 0223 13       		.uleb128 0x13
 2666 0224 00       		.byte	0
 2667 0225 00       		.byte	0
 2668 0226 29       		.uleb128 0x29
 2669 0227 2E       		.uleb128 0x2e
 2670 0228 01       		.byte	0x1
ARM GAS  /var/folders/bz/nn5481rn5xq59rb0mbj7x0880000gn/T//ccWjsB25.s 			page 48


 2671 0229 3F       		.uleb128 0x3f
 2672 022a 19       		.uleb128 0x19
 2673 022b 03       		.uleb128 0x3
 2674 022c 0E       		.uleb128 0xe
 2675 022d 27       		.uleb128 0x27
 2676 022e 19       		.uleb128 0x19
 2677 022f 49       		.uleb128 0x49
 2678 0230 13       		.uleb128 0x13
 2679 0231 34       		.uleb128 0x34
 2680 0232 19       		.uleb128 0x19
 2681 0233 3C       		.uleb128 0x3c
 2682 0234 19       		.uleb128 0x19
 2683 0235 00       		.byte	0
 2684 0236 00       		.byte	0
 2685 0237 00       		.byte	0
 2686              		.section	.debug_loc,"",%progbits
 2687              	.Ldebug_loc0:
 2688              	.LLST0:
 2689 0000 14000000 		.4byte	.LVL1
 2690 0004 1C000000 		.4byte	.LVL2
 2691 0008 0200     		.2byte	0x2
 2692 000a 30       		.byte	0x30
 2693 000b 9F       		.byte	0x9f
 2694 000c 1C000000 		.4byte	.LVL2
 2695 0010 54000000 		.4byte	.LVL8
 2696 0014 0900     		.2byte	0x9
 2697 0016 74       		.byte	0x74
 2698 0017 00       		.sleb128 0
 2699 0018 03       		.byte	0x3
 2700 0019 00000000 		.4byte	rx_addr_set
 2701 001d 1C       		.byte	0x1c
 2702 001e 9F       		.byte	0x9f
 2703 001f 00000000 		.4byte	0
 2704 0023 00000000 		.4byte	0
 2705              	.LLST1:
 2706 0027 1A000000 		.4byte	.LVL11
 2707 002b 1E000000 		.4byte	.LVL12
 2708 002f 0200     		.2byte	0x2
 2709 0031 30       		.byte	0x30
 2710 0032 9F       		.byte	0x9f
 2711 0033 1E000000 		.4byte	.LVL12
 2712 0037 38000000 		.4byte	.LVL15
 2713 003b 0100     		.2byte	0x1
 2714 003d 54       		.byte	0x54
 2715 003e 38000000 		.4byte	.LVL15
 2716 0042 3B000000 		.4byte	.LVL16-1
 2717 0046 0100     		.2byte	0x1
 2718 0048 50       		.byte	0x50
 2719 0049 3B000000 		.4byte	.LVL16-1
 2720 004d 3C000000 		.4byte	.LVL16
 2721 0051 0300     		.2byte	0x3
 2722 0053 74       		.byte	0x74
 2723 0054 7F       		.sleb128 -1
 2724 0055 9F       		.byte	0x9f
 2725 0056 3C000000 		.4byte	.LVL16
 2726 005a 48000000 		.4byte	.LVL17
 2727 005e 0100     		.2byte	0x1
ARM GAS  /var/folders/bz/nn5481rn5xq59rb0mbj7x0880000gn/T//ccWjsB25.s 			page 49


 2728 0060 54       		.byte	0x54
 2729 0061 00000000 		.4byte	0
 2730 0065 00000000 		.4byte	0
 2731              	.LLST2:
 2732 0069 00000000 		.4byte	.LVL19
 2733 006d 0A000000 		.4byte	.LVL20
 2734 0071 0100     		.2byte	0x1
 2735 0073 50       		.byte	0x50
 2736 0074 0A000000 		.4byte	.LVL20
 2737 0078 28000000 		.4byte	.LVL26
 2738 007c 0100     		.2byte	0x1
 2739 007e 55       		.byte	0x55
 2740 007f 28000000 		.4byte	.LVL26
 2741 0083 68000000 		.4byte	.LVL41
 2742 0087 0400     		.2byte	0x4
 2743 0089 F3       		.byte	0xf3
 2744 008a 01       		.uleb128 0x1
 2745 008b 50       		.byte	0x50
 2746 008c 9F       		.byte	0x9f
 2747 008d 68000000 		.4byte	.LVL41
 2748 0091 74000000 		.4byte	.LVL43
 2749 0095 0100     		.2byte	0x1
 2750 0097 55       		.byte	0x55
 2751 0098 74000000 		.4byte	.LVL43
 2752 009c 90000000 		.4byte	.LFE120
 2753 00a0 0400     		.2byte	0x4
 2754 00a2 F3       		.byte	0xf3
 2755 00a3 01       		.uleb128 0x1
 2756 00a4 50       		.byte	0x50
 2757 00a5 9F       		.byte	0x9f
 2758 00a6 00000000 		.4byte	0
 2759 00aa 00000000 		.4byte	0
 2760              	.LLST3:
 2761 00ae 00000000 		.4byte	.LVL19
 2762 00b2 0D000000 		.4byte	.LVL21-1
 2763 00b6 0100     		.2byte	0x1
 2764 00b8 51       		.byte	0x51
 2765 00b9 0D000000 		.4byte	.LVL21-1
 2766 00bd 2A000000 		.4byte	.LVL27
 2767 00c1 0100     		.2byte	0x1
 2768 00c3 54       		.byte	0x54
 2769 00c4 2A000000 		.4byte	.LVL27
 2770 00c8 68000000 		.4byte	.LVL41
 2771 00cc 0400     		.2byte	0x4
 2772 00ce F3       		.byte	0xf3
 2773 00cf 01       		.uleb128 0x1
 2774 00d0 51       		.byte	0x51
 2775 00d1 9F       		.byte	0x9f
 2776 00d2 68000000 		.4byte	.LVL41
 2777 00d6 74000000 		.4byte	.LVL43
 2778 00da 0100     		.2byte	0x1
 2779 00dc 54       		.byte	0x54
 2780 00dd 74000000 		.4byte	.LVL43
 2781 00e1 90000000 		.4byte	.LFE120
 2782 00e5 0400     		.2byte	0x4
 2783 00e7 F3       		.byte	0xf3
 2784 00e8 01       		.uleb128 0x1
ARM GAS  /var/folders/bz/nn5481rn5xq59rb0mbj7x0880000gn/T//ccWjsB25.s 			page 50


 2785 00e9 51       		.byte	0x51
 2786 00ea 9F       		.byte	0x9f
 2787 00eb 00000000 		.4byte	0
 2788 00ef 00000000 		.4byte	0
 2789              	.LLST4:
 2790 00f3 00000000 		.4byte	.LVL19
 2791 00f7 2A000000 		.4byte	.LVL27
 2792 00fb 0300     		.2byte	0x3
 2793 00fd 08       		.byte	0x8
 2794 00fe 3C       		.byte	0x3c
 2795 00ff 9F       		.byte	0x9f
 2796 0100 2A000000 		.4byte	.LVL27
 2797 0104 30000000 		.4byte	.LVL28
 2798 0108 0300     		.2byte	0x3
 2799 010a 75       		.byte	0x75
 2800 010b 7F       		.sleb128 -1
 2801 010c 9F       		.byte	0x9f
 2802 010d 30000000 		.4byte	.LVL28
 2803 0111 3E000000 		.4byte	.LVL33
 2804 0115 0100     		.2byte	0x1
 2805 0117 55       		.byte	0x55
 2806 0118 3E000000 		.4byte	.LVL33
 2807 011c 44000000 		.4byte	.LVL34
 2808 0120 0300     		.2byte	0x3
 2809 0122 75       		.byte	0x75
 2810 0123 7F       		.sleb128 -1
 2811 0124 9F       		.byte	0x9f
 2812 0125 5E000000 		.4byte	.LVL38
 2813 0129 68000000 		.4byte	.LVL41
 2814 012d 0300     		.2byte	0x3
 2815 012f 75       		.byte	0x75
 2816 0130 7F       		.sleb128 -1
 2817 0131 9F       		.byte	0x9f
 2818 0132 68000000 		.4byte	.LVL41
 2819 0136 74000000 		.4byte	.LVL43
 2820 013a 0300     		.2byte	0x3
 2821 013c 08       		.byte	0x8
 2822 013d 3C       		.byte	0x3c
 2823 013e 9F       		.byte	0x9f
 2824 013f 74000000 		.4byte	.LVL43
 2825 0143 90000000 		.4byte	.LFE120
 2826 0147 0100     		.2byte	0x1
 2827 0149 55       		.byte	0x55
 2828 014a 00000000 		.4byte	0
 2829 014e 00000000 		.4byte	0
 2830              	.LLST5:
 2831 0152 00000000 		.4byte	.LVL19
 2832 0156 44000000 		.4byte	.LVL34
 2833 015a 0300     		.2byte	0x3
 2834 015c 09       		.byte	0x9
 2835 015d FF       		.byte	0xff
 2836 015e 9F       		.byte	0x9f
 2837 015f 44000000 		.4byte	.LVL34
 2838 0163 5E000000 		.4byte	.LVL38
 2839 0167 0100     		.2byte	0x1
 2840 0169 54       		.byte	0x54
 2841 016a 5E000000 		.4byte	.LVL38
ARM GAS  /var/folders/bz/nn5481rn5xq59rb0mbj7x0880000gn/T//ccWjsB25.s 			page 51


 2842 016e 90000000 		.4byte	.LFE120
 2843 0172 0300     		.2byte	0x3
 2844 0174 09       		.byte	0x9
 2845 0175 FF       		.byte	0xff
 2846 0176 9F       		.byte	0x9f
 2847 0177 00000000 		.4byte	0
 2848 017b 00000000 		.4byte	0
 2849              	.LLST6:
 2850 017f 2A000000 		.4byte	.LVL27
 2851 0183 32000000 		.4byte	.LVL29
 2852 0187 0100     		.2byte	0x1
 2853 0189 54       		.byte	0x54
 2854 018a 38000000 		.4byte	.LVL31
 2855 018e 3A000000 		.4byte	.LVL32
 2856 0192 0100     		.2byte	0x1
 2857 0194 50       		.byte	0x50
 2858 0195 3A000000 		.4byte	.LVL32
 2859 0199 44000000 		.4byte	.LVL34
 2860 019d 0100     		.2byte	0x1
 2861 019f 54       		.byte	0x54
 2862 01a0 5E000000 		.4byte	.LVL38
 2863 01a4 66000000 		.4byte	.LVL40
 2864 01a8 0100     		.2byte	0x1
 2865 01aa 54       		.byte	0x54
 2866 01ab 74000000 		.4byte	.LVL43
 2867 01af 78000000 		.4byte	.LVL44
 2868 01b3 0100     		.2byte	0x1
 2869 01b5 54       		.byte	0x54
 2870 01b6 00000000 		.4byte	0
 2871 01ba 00000000 		.4byte	0
 2872              	.LLST7:
 2873 01be 00000000 		.4byte	.LVL45
 2874 01c2 06000000 		.4byte	.LVL46
 2875 01c6 0100     		.2byte	0x1
 2876 01c8 50       		.byte	0x50
 2877 01c9 06000000 		.4byte	.LVL46
 2878 01cd 60000000 		.4byte	.LFE121
 2879 01d1 0100     		.2byte	0x1
 2880 01d3 57       		.byte	0x57
 2881 01d4 00000000 		.4byte	0
 2882 01d8 00000000 		.4byte	0
 2883              	.LLST8:
 2884 01dc 00000000 		.4byte	.LVL45
 2885 01e0 0D000000 		.4byte	.LVL47-1
 2886 01e4 0100     		.2byte	0x1
 2887 01e6 51       		.byte	0x51
 2888 01e7 0D000000 		.4byte	.LVL47-1
 2889 01eb 40000000 		.4byte	.LVL55
 2890 01ef 0100     		.2byte	0x1
 2891 01f1 54       		.byte	0x54
 2892 01f2 40000000 		.4byte	.LVL55
 2893 01f6 4C000000 		.4byte	.LVL58
 2894 01fa 0400     		.2byte	0x4
 2895 01fc F3       		.byte	0xf3
 2896 01fd 01       		.uleb128 0x1
 2897 01fe 51       		.byte	0x51
 2898 01ff 9F       		.byte	0x9f
ARM GAS  /var/folders/bz/nn5481rn5xq59rb0mbj7x0880000gn/T//ccWjsB25.s 			page 52


 2899 0200 4C000000 		.4byte	.LVL58
 2900 0204 54000000 		.4byte	.LVL60
 2901 0208 0100     		.2byte	0x1
 2902 020a 54       		.byte	0x54
 2903 020b 54000000 		.4byte	.LVL60
 2904 020f 56000000 		.4byte	.LVL61
 2905 0213 0400     		.2byte	0x4
 2906 0215 F3       		.byte	0xf3
 2907 0216 01       		.uleb128 0x1
 2908 0217 51       		.byte	0x51
 2909 0218 9F       		.byte	0x9f
 2910 0219 56000000 		.4byte	.LVL61
 2911 021d 5A000000 		.4byte	.LVL62
 2912 0221 0100     		.2byte	0x1
 2913 0223 54       		.byte	0x54
 2914 0224 5A000000 		.4byte	.LVL62
 2915 0228 60000000 		.4byte	.LFE121
 2916 022c 0400     		.2byte	0x4
 2917 022e F3       		.byte	0xf3
 2918 022f 01       		.uleb128 0x1
 2919 0230 51       		.byte	0x51
 2920 0231 9F       		.byte	0x9f
 2921 0232 00000000 		.4byte	0
 2922 0236 00000000 		.4byte	0
 2923              	.LLST9:
 2924 023a 00000000 		.4byte	.LVL45
 2925 023e 0D000000 		.4byte	.LVL47-1
 2926 0242 0100     		.2byte	0x1
 2927 0244 52       		.byte	0x52
 2928 0245 0D000000 		.4byte	.LVL47-1
 2929 0249 60000000 		.4byte	.LFE121
 2930 024d 0100     		.2byte	0x1
 2931 024f 56       		.byte	0x56
 2932 0250 00000000 		.4byte	0
 2933 0254 00000000 		.4byte	0
 2934              	.LLST10:
 2935 0258 00000000 		.4byte	.LVL45
 2936 025c 44000000 		.4byte	.LVL56
 2937 0260 0300     		.2byte	0x3
 2938 0262 09       		.byte	0x9
 2939 0263 FF       		.byte	0xff
 2940 0264 9F       		.byte	0x9f
 2941 0265 44000000 		.4byte	.LVL56
 2942 0269 4C000000 		.4byte	.LVL58
 2943 026d 0100     		.2byte	0x1
 2944 026f 54       		.byte	0x54
 2945 0270 4C000000 		.4byte	.LVL58
 2946 0274 50000000 		.4byte	.LVL59
 2947 0278 0300     		.2byte	0x3
 2948 027a 09       		.byte	0x9
 2949 027b FF       		.byte	0xff
 2950 027c 9F       		.byte	0x9f
 2951 027d 50000000 		.4byte	.LVL59
 2952 0281 56000000 		.4byte	.LVL61
 2953 0285 0300     		.2byte	0x3
 2954 0287 09       		.byte	0x9
 2955 0288 FE       		.byte	0xfe
ARM GAS  /var/folders/bz/nn5481rn5xq59rb0mbj7x0880000gn/T//ccWjsB25.s 			page 53


 2956 0289 9F       		.byte	0x9f
 2957 028a 56000000 		.4byte	.LVL61
 2958 028e 60000000 		.4byte	.LFE121
 2959 0292 0300     		.2byte	0x3
 2960 0294 09       		.byte	0x9
 2961 0295 FF       		.byte	0xff
 2962 0296 9F       		.byte	0x9f
 2963 0297 00000000 		.4byte	0
 2964 029b 00000000 		.4byte	0
 2965              	.LLST11:
 2966 029f 12000000 		.4byte	.LVL48
 2967 02a3 1D000000 		.4byte	.LVL50-1
 2968 02a7 0100     		.2byte	0x1
 2969 02a9 50       		.byte	0x50
 2970 02aa 3A000000 		.4byte	.LVL53
 2971 02ae 3E000000 		.4byte	.LVL54
 2972 02b2 0100     		.2byte	0x1
 2973 02b4 50       		.byte	0x50
 2974 02b5 56000000 		.4byte	.LVL61
 2975 02b9 60000000 		.4byte	.LFE121
 2976 02bd 0100     		.2byte	0x1
 2977 02bf 50       		.byte	0x50
 2978 02c0 00000000 		.4byte	0
 2979 02c4 00000000 		.4byte	0
 2980              	.LLST12:
 2981 02c8 0E000000 		.4byte	.LVL65
 2982 02cc 11000000 		.4byte	.LVL66-1
 2983 02d0 0100     		.2byte	0x1
 2984 02d2 50       		.byte	0x50
 2985 02d3 11000000 		.4byte	.LVL66-1
 2986 02d7 16000000 		.4byte	.LVL67
 2987 02db 0100     		.2byte	0x1
 2988 02dd 54       		.byte	0x54
 2989 02de 16000000 		.4byte	.LVL67
 2990 02e2 1C000000 		.4byte	.LFE122
 2991 02e6 0100     		.2byte	0x1
 2992 02e8 50       		.byte	0x50
 2993 02e9 00000000 		.4byte	0
 2994 02ed 00000000 		.4byte	0
 2995              	.LLST13:
 2996 02f1 00000000 		.4byte	.LVL68
 2997 02f5 0A000000 		.4byte	.LVL69
 2998 02f9 0100     		.2byte	0x1
 2999 02fb 50       		.byte	0x50
 3000 02fc 0A000000 		.4byte	.LVL69
 3001 0300 3C000000 		.4byte	.LVL74
 3002 0304 0100     		.2byte	0x1
 3003 0306 56       		.byte	0x56
 3004 0307 3C000000 		.4byte	.LVL74
 3005 030b 54000000 		.4byte	.LFE123
 3006 030f 0400     		.2byte	0x4
 3007 0311 F3       		.byte	0xf3
 3008 0312 01       		.uleb128 0x1
 3009 0313 50       		.byte	0x50
 3010 0314 9F       		.byte	0x9f
 3011 0315 00000000 		.4byte	0
 3012 0319 00000000 		.4byte	0
ARM GAS  /var/folders/bz/nn5481rn5xq59rb0mbj7x0880000gn/T//ccWjsB25.s 			page 54


 3013              	.LLST14:
 3014 031d 00000000 		.4byte	.LVL68
 3015 0321 0D000000 		.4byte	.LVL70-1
 3016 0325 0100     		.2byte	0x1
 3017 0327 51       		.byte	0x51
 3018 0328 0D000000 		.4byte	.LVL70-1
 3019 032c 3C000000 		.4byte	.LVL74
 3020 0330 0100     		.2byte	0x1
 3021 0332 54       		.byte	0x54
 3022 0333 3C000000 		.4byte	.LVL74
 3023 0337 54000000 		.4byte	.LFE123
 3024 033b 0400     		.2byte	0x4
 3025 033d F3       		.byte	0xf3
 3026 033e 01       		.uleb128 0x1
 3027 033f 51       		.byte	0x51
 3028 0340 9F       		.byte	0x9f
 3029 0341 00000000 		.4byte	0
 3030 0345 00000000 		.4byte	0
 3031              	.LLST15:
 3032 0349 00000000 		.4byte	.LVL76
 3033 034d 08000000 		.4byte	.LVL77
 3034 0351 0100     		.2byte	0x1
 3035 0353 50       		.byte	0x50
 3036 0354 08000000 		.4byte	.LVL77
 3037 0358 4E000000 		.4byte	.LVL83
 3038 035c 0100     		.2byte	0x1
 3039 035e 54       		.byte	0x54
 3040 035f 4E000000 		.4byte	.LVL83
 3041 0363 6C000000 		.4byte	.LFE124
 3042 0367 0400     		.2byte	0x4
 3043 0369 F3       		.byte	0xf3
 3044 036a 01       		.uleb128 0x1
 3045 036b 50       		.byte	0x50
 3046 036c 9F       		.byte	0x9f
 3047 036d 00000000 		.4byte	0
 3048 0371 00000000 		.4byte	0
 3049              	.LLST16:
 3050 0375 00000000 		.4byte	.LVL76
 3051 0379 0F000000 		.4byte	.LVL78-1
 3052 037d 0100     		.2byte	0x1
 3053 037f 51       		.byte	0x51
 3054 0380 0F000000 		.4byte	.LVL78-1
 3055 0384 4E000000 		.4byte	.LVL83
 3056 0388 0100     		.2byte	0x1
 3057 038a 56       		.byte	0x56
 3058 038b 4E000000 		.4byte	.LVL83
 3059 038f 6C000000 		.4byte	.LFE124
 3060 0393 0400     		.2byte	0x4
 3061 0395 F3       		.byte	0xf3
 3062 0396 01       		.uleb128 0x1
 3063 0397 51       		.byte	0x51
 3064 0398 9F       		.byte	0x9f
 3065 0399 00000000 		.4byte	0
 3066 039d 00000000 		.4byte	0
 3067              	.LLST17:
 3068 03a1 00000000 		.4byte	.LVL76
 3069 03a5 0F000000 		.4byte	.LVL78-1
ARM GAS  /var/folders/bz/nn5481rn5xq59rb0mbj7x0880000gn/T//ccWjsB25.s 			page 55


 3070 03a9 0100     		.2byte	0x1
 3071 03ab 52       		.byte	0x52
 3072 03ac 0F000000 		.4byte	.LVL78-1
 3073 03b0 40000000 		.4byte	.LVL81
 3074 03b4 0100     		.2byte	0x1
 3075 03b6 55       		.byte	0x55
 3076 03b7 40000000 		.4byte	.LVL81
 3077 03bb 49000000 		.4byte	.LVL82-1
 3078 03bf 0100     		.2byte	0x1
 3079 03c1 52       		.byte	0x52
 3080 03c2 49000000 		.4byte	.LVL82-1
 3081 03c6 6C000000 		.4byte	.LFE124
 3082 03ca 0400     		.2byte	0x4
 3083 03cc F3       		.byte	0xf3
 3084 03cd 01       		.uleb128 0x1
 3085 03ce 52       		.byte	0x52
 3086 03cf 9F       		.byte	0x9f
 3087 03d0 00000000 		.4byte	0
 3088 03d4 00000000 		.4byte	0
 3089              		.section	.debug_aranges,"",%progbits
 3090 0000 4C000000 		.4byte	0x4c
 3091 0004 0200     		.2byte	0x2
 3092 0006 00000000 		.4byte	.Ldebug_info0
 3093 000a 04       		.byte	0x4
 3094 000b 00       		.byte	0
 3095 000c 0000     		.2byte	0
 3096 000e 0000     		.2byte	0
 3097 0010 00000000 		.4byte	.LFB118
 3098 0014 6C000000 		.4byte	.LFE118-.LFB118
 3099 0018 00000000 		.4byte	.LFB119
 3100 001c 60000000 		.4byte	.LFE119-.LFB119
 3101 0020 00000000 		.4byte	.LFB120
 3102 0024 90000000 		.4byte	.LFE120-.LFB120
 3103 0028 00000000 		.4byte	.LFB121
 3104 002c 60000000 		.4byte	.LFE121-.LFB121
 3105 0030 00000000 		.4byte	.LFB122
 3106 0034 1C000000 		.4byte	.LFE122-.LFB122
 3107 0038 00000000 		.4byte	.LFB123
 3108 003c 54000000 		.4byte	.LFE123-.LFB123
 3109 0040 00000000 		.4byte	.LFB124
 3110 0044 6C000000 		.4byte	.LFE124-.LFB124
 3111 0048 00000000 		.4byte	0
 3112 004c 00000000 		.4byte	0
 3113              		.section	.debug_ranges,"",%progbits
 3114              	.Ldebug_ranges0:
 3115 0000 2A000000 		.4byte	.LBB4
 3116 0004 44000000 		.4byte	.LBE4
 3117 0008 5E000000 		.4byte	.LBB5
 3118 000c 68000000 		.4byte	.LBE5
 3119 0010 74000000 		.4byte	.LBB6
 3120 0014 90000000 		.4byte	.LBE6
 3121 0018 00000000 		.4byte	0
 3122 001c 00000000 		.4byte	0
 3123 0020 00000000 		.4byte	.LFB118
 3124 0024 6C000000 		.4byte	.LFE118
 3125 0028 00000000 		.4byte	.LFB119
 3126 002c 60000000 		.4byte	.LFE119
ARM GAS  /var/folders/bz/nn5481rn5xq59rb0mbj7x0880000gn/T//ccWjsB25.s 			page 56


 3127 0030 00000000 		.4byte	.LFB120
 3128 0034 90000000 		.4byte	.LFE120
 3129 0038 00000000 		.4byte	.LFB121
 3130 003c 60000000 		.4byte	.LFE121
 3131 0040 00000000 		.4byte	.LFB122
 3132 0044 1C000000 		.4byte	.LFE122
 3133 0048 00000000 		.4byte	.LFB123
 3134 004c 54000000 		.4byte	.LFE123
 3135 0050 00000000 		.4byte	.LFB124
 3136 0054 6C000000 		.4byte	.LFE124
 3137 0058 00000000 		.4byte	0
 3138 005c 00000000 		.4byte	0
 3139              		.section	.debug_line,"",%progbits
 3140              	.Ldebug_line0:
 3141 0000 85030000 		.section	.debug_str,"MS",%progbits,1
 3141      02007902 
 3141      00000201 
 3141      FB0E0D00 
 3141      01010101 
 3142              	.LASF88:
 3143 0000 72665F69 		.ascii	"rf_init\000"
 3143      6E697400 
 3144              	.LASF15:
 3145 0008 73697A65 		.ascii	"size_t\000"
 3145      5F7400
 3146              	.LASF55:
 3147 000f 7264796D 		.ascii	"rdymsg\000"
 3147      736700
 3148              	.LASF69:
 3149 0016 72666865 		.ascii	"rfhelp_rf_status\000"
 3149      6C705F72 
 3149      665F7374 
 3149      61747573 
 3149      00
 3150              	.LASF82:
 3151 0027 72665F73 		.ascii	"rf_set_rx_addr\000"
 3151      65745F72 
 3151      785F6164 
 3151      647200
 3152              	.LASF4:
 3153 0036 5F5F7569 		.ascii	"__uint8_t\000"
 3153      6E74385F 
 3153      7400
 3154              	.LASF75:
 3155 0040 72785F61 		.ascii	"rx_addr\000"
 3155      64647200 
 3156              	.LASF84:
 3157 0048 72665F73 		.ascii	"rf_set_tx_addr\000"
 3157      65745F74 
 3157      785F6164 
 3157      647200
 3158              	.LASF64:
 3159 0057 72657476 		.ascii	"retval\000"
 3159      616C00
 3160              	.LASF76:
 3161 005e 74785F61 		.ascii	"tx_addr\000"
 3161      64647200 
ARM GAS  /var/folders/bz/nn5481rn5xq59rb0mbj7x0880000gn/T//ccWjsB25.s 			page 57


 3162              	.LASF45:
 3163 0066 54687265 		.ascii	"ThreadsQueue\000"
 3163      61647351 
 3163      75657565 
 3163      00
 3164              	.LASF89:
 3165 0073 72665F63 		.ascii	"rf_clear_maxrt_irq\000"
 3165      6C656172 
 3165      5F6D6178 
 3165      72745F69 
 3165      727100
 3166              	.LASF61:
 3167 0086 72666865 		.ascii	"rfhelp_restart\000"
 3167      6C705F72 
 3167      65737461 
 3167      727400
 3168              	.LASF91:
 3169 0095 72665F63 		.ascii	"rf_clear_irq\000"
 3169      6C656172 
 3169      5F697271 
 3169      00
 3170              	.LASF28:
 3171 00a2 705F7072 		.ascii	"p_prio\000"
 3171      696F00
 3172              	.LASF85:
 3173 00a9 63684D74 		.ascii	"chMtxUnlock\000"
 3173      78556E6C 
 3173      6F636B00 
 3174              	.LASF0:
 3175 00b5 7369676E 		.ascii	"signed char\000"
 3175      65642063 
 3175      68617200 
 3176              	.LASF44:
 3177 00c1 705F6D70 		.ascii	"p_mpool\000"
 3177      6F6F6C00 
 3178              	.LASF10:
 3179 00c9 6C6F6E67 		.ascii	"long long unsigned int\000"
 3179      206C6F6E 
 3179      6720756E 
 3179      7369676E 
 3179      65642069 
 3180              	.LASF52:
 3181 00e0 6D5F7175 		.ascii	"m_queue\000"
 3181      65756500 
 3182              	.LASF20:
 3183 00e8 74736C69 		.ascii	"tslices_t\000"
 3183      6365735F 
 3183      7400
 3184              	.LASF90:
 3185 00f2 72665F6D 		.ascii	"rf_mode_tx\000"
 3185      6F64655F 
 3185      747800
 3186              	.LASF6:
 3187 00fd 6C6F6E67 		.ascii	"long int\000"
 3187      20696E74 
 3187      00
 3188              	.LASF18:
ARM GAS  /var/folders/bz/nn5481rn5xq59rb0mbj7x0880000gn/T//ccWjsB25.s 			page 58


 3189 0106 74737461 		.ascii	"tstate_t\000"
 3189      74655F74 
 3189      00
 3190              	.LASF103:
 3191 010f 6D656D63 		.ascii	"memcpy\000"
 3191      707900
 3192              	.LASF77:
 3193 0116 72785F61 		.ascii	"rx_addr_set\000"
 3193      6464725F 
 3193      73657400 
 3194              	.LASF30:
 3195 0122 705F6E65 		.ascii	"p_newer\000"
 3195      77657200 
 3196              	.LASF96:
 3197 012a 72665F72 		.ascii	"rf_read_rx_payload\000"
 3197      6561645F 
 3197      72785F70 
 3197      61796C6F 
 3197      616400
 3198              	.LASF100:
 3199 013d 2F557365 		.ascii	"/Users/imac/oroca_bldc_dev/oroca_bldc/\000"
 3199      72732F69 
 3199      6D61632F 
 3199      6F726F63 
 3199      615F626C 
 3200              	.LASF7:
 3201 0164 5F5F7569 		.ascii	"__uint32_t\000"
 3201      6E743332 
 3201      5F7400
 3202              	.LASF47:
 3203 016f 72656761 		.ascii	"regarm_t\000"
 3203      726D5F74 
 3203      00
 3204              	.LASF9:
 3205 0178 6C6F6E67 		.ascii	"long long int\000"
 3205      206C6F6E 
 3205      6720696E 
 3205      7400
 3206              	.LASF11:
 3207 0186 756E7369 		.ascii	"unsigned int\000"
 3207      676E6564 
 3207      20696E74 
 3207      00
 3208              	.LASF63:
 3209 0193 74696D65 		.ascii	"timeout\000"
 3209      6F757400 
 3210              	.LASF72:
 3211 019b 61646472 		.ascii	"addr_len\000"
 3211      5F6C656E 
 3211      00
 3212              	.LASF51:
 3213 01a4 4D757465 		.ascii	"Mutex\000"
 3213      7800
 3214              	.LASF49:
 3215 01aa 636F6E74 		.ascii	"context\000"
 3215      65787400 
 3216              	.LASF3:
ARM GAS  /var/folders/bz/nn5481rn5xq59rb0mbj7x0880000gn/T//ccWjsB25.s 			page 59


 3217 01b2 73686F72 		.ascii	"short unsigned int\000"
 3217      7420756E 
 3217      7369676E 
 3217      65642069 
 3217      6E7400
 3218              	.LASF22:
 3219 01c5 6D73675F 		.ascii	"msg_t\000"
 3219      7400
 3220              	.LASF93:
 3221 01cb 72665F77 		.ascii	"rf_write_tx_payload\000"
 3221      72697465 
 3221      5F74785F 
 3221      7061796C 
 3221      6F616400 
 3222              	.LASF56:
 3223 01df 65786974 		.ascii	"exitcode\000"
 3223      636F6465 
 3223      00
 3224              	.LASF17:
 3225 01e8 746D6F64 		.ascii	"tmode_t\000"
 3225      655F7400 
 3226              	.LASF46:
 3227 01f0 54687265 		.ascii	"ThreadsList\000"
 3227      6164734C 
 3227      69737400 
 3228              	.LASF23:
 3229 01fc 6576656E 		.ascii	"eventmask_t\000"
 3229      746D6173 
 3229      6B5F7400 
 3230              	.LASF68:
 3231 0208 70697065 		.ascii	"pipe_n\000"
 3231      5F6E00
 3232              	.LASF92:
 3233 020f 72665F66 		.ascii	"rf_flush_all\000"
 3233      6C757368 
 3233      5F616C6C 
 3233      00
 3234              	.LASF86:
 3235 021c 72665F73 		.ascii	"rf_status\000"
 3235      74617475 
 3235      7300
 3236              	.LASF50:
 3237 0226 73697A65 		.ascii	"sizetype\000"
 3237      74797065 
 3237      00
 3238              	.LASF80:
 3239 022f 72665F72 		.ascii	"rf_read_reg\000"
 3239      6561645F 
 3239      72656700 
 3240              	.LASF83:
 3241 023b 63684D74 		.ascii	"chMtxLock\000"
 3241      784C6F63 
 3241      6B00
 3242              	.LASF97:
 3243 0245 72665F63 		.ascii	"rf_clear_rx_irq\000"
 3243      6C656172 
 3243      5F72785F 
ARM GAS  /var/folders/bz/nn5481rn5xq59rb0mbj7x0880000gn/T//ccWjsB25.s 			page 60


 3243      69727100 
 3244              	.LASF31:
 3245 0255 705F6F6C 		.ascii	"p_older\000"
 3245      64657200 
 3246              	.LASF19:
 3247 025d 74726566 		.ascii	"trefs_t\000"
 3247      735F7400 
 3248              	.LASF27:
 3249 0265 705F7072 		.ascii	"p_prev\000"
 3249      657600
 3250              	.LASF21:
 3251 026c 74707269 		.ascii	"tprio_t\000"
 3251      6F5F7400 
 3252              	.LASF71:
 3253 0274 61646472 		.ascii	"addr\000"
 3253      00
 3254              	.LASF16:
 3255 0279 5F426F6F 		.ascii	"_Bool\000"
 3255      6C00
 3256              	.LASF13:
 3257 027f 696E7433 		.ascii	"int32_t\000"
 3257      325F7400 
 3258              	.LASF1:
 3259 0287 756E7369 		.ascii	"unsigned char\000"
 3259      676E6564 
 3259      20636861 
 3259      7200
 3260              	.LASF101:
 3261 0295 49544D5F 		.ascii	"ITM_RxBuffer\000"
 3261      52784275 
 3261      66666572 
 3261      00
 3262              	.LASF94:
 3263 02a2 72665F6D 		.ascii	"rf_mode_rx\000"
 3263      6F64655F 
 3263      727800
 3264              	.LASF74:
 3265 02ad 72665F6D 		.ascii	"rf_mutex\000"
 3265      75746578 
 3265      00
 3266              	.LASF42:
 3267 02b6 705F6D74 		.ascii	"p_mtxlist\000"
 3267      786C6973 
 3267      7400
 3268              	.LASF2:
 3269 02c0 73686F72 		.ascii	"short int\000"
 3269      7420696E 
 3269      7400
 3270              	.LASF33:
 3271 02ca 705F7374 		.ascii	"p_state\000"
 3271      61746500 
 3272              	.LASF36:
 3273 02d2 705F7072 		.ascii	"p_preempt\000"
 3273      65656D70 
 3273      7400
 3274              	.LASF78:
 3275 02dc 61646472 		.ascii	"address_length\000"
ARM GAS  /var/folders/bz/nn5481rn5xq59rb0mbj7x0880000gn/T//ccWjsB25.s 			page 61


 3275      6573735F 
 3275      6C656E67 
 3275      746800
 3276              	.LASF95:
 3277 02eb 72665F67 		.ascii	"rf_get_payload_width\000"
 3277      65745F70 
 3277      61796C6F 
 3277      61645F77 
 3277      69647468 
 3278              	.LASF58:
 3279 0300 65776D61 		.ascii	"ewmask\000"
 3279      736B00
 3280              	.LASF26:
 3281 0307 705F6E65 		.ascii	"p_next\000"
 3281      787400
 3282              	.LASF34:
 3283 030e 705F666C 		.ascii	"p_flags\000"
 3283      61677300 
 3284              	.LASF25:
 3285 0316 54687265 		.ascii	"Thread\000"
 3285      616400
 3286              	.LASF73:
 3287 031d 72666865 		.ascii	"rfhelp_set_rx_addr\000"
 3287      6C705F73 
 3287      65745F72 
 3287      785F6164 
 3287      647200
 3288              	.LASF41:
 3289 0330 705F6570 		.ascii	"p_epending\000"
 3289      656E6469 
 3289      6E6700
 3290              	.LASF14:
 3291 033b 75696E74 		.ascii	"uint32_t\000"
 3291      33325F74 
 3291      00
 3292              	.LASF66:
 3293 0344 72666865 		.ascii	"rfhelp_read_rx_data\000"
 3293      6C705F72 
 3293      6561645F 
 3293      72785F64 
 3293      61746100 
 3294              	.LASF70:
 3295 0358 72666865 		.ascii	"rfhelp_set_tx_addr\000"
 3295      6C705F73 
 3295      65745F74 
 3295      785F6164 
 3295      647200
 3296              	.LASF60:
 3297 036b 72666865 		.ascii	"rfhelp_init\000"
 3297      6C705F69 
 3297      6E697400 
 3298              	.LASF8:
 3299 0377 6C6F6E67 		.ascii	"long unsigned int\000"
 3299      20756E73 
 3299      69676E65 
 3299      6420696E 
 3299      7400
ARM GAS  /var/folders/bz/nn5481rn5xq59rb0mbj7x0880000gn/T//ccWjsB25.s 			page 62


 3300              	.LASF59:
 3301 0389 63686172 		.ascii	"char\000"
 3301      00
 3302              	.LASF67:
 3303 038e 70697065 		.ascii	"pipe\000"
 3303      00
 3304              	.LASF54:
 3305 0393 6D5F6E65 		.ascii	"m_next\000"
 3305      787400
 3306              	.LASF24:
 3307 039a 73797374 		.ascii	"systime_t\000"
 3307      696D655F 
 3307      7400
 3308              	.LASF43:
 3309 03a4 705F7265 		.ascii	"p_realprio\000"
 3309      616C7072 
 3309      696F00
 3310              	.LASF5:
 3311 03af 5F5F696E 		.ascii	"__int32_t\000"
 3311      7433325F 
 3311      7400
 3312              	.LASF98:
 3313 03b9 474E5520 		.ascii	"GNU C 4.9.3 20150529 (release) [ARM/embedded-4_9-br"
 3313      4320342E 
 3313      392E3320 
 3313      32303135 
 3313      30353239 
 3314 03ec 616E6368 		.ascii	"anch revision 224288] -mcpu=cortex-m4 -mfloat-abi=h"
 3314      20726576 
 3314      6973696F 
 3314      6E203232 
 3314      34323838 
 3315 041f 61726420 		.ascii	"ard -mfpu=fpv4-sp-d16 -mno-thumb-interwork -mthumb "
 3315      2D6D6670 
 3315      753D6670 
 3315      76342D73 
 3315      702D6431 
 3316 0452 2D676764 		.ascii	"-ggdb -O2 -std=gnu99 -fomit-frame-pointer -falign-f"
 3316      62202D4F 
 3316      32202D73 
 3316      74643D67 
 3316      6E753939 
 3317 0485 756E6374 		.ascii	"unctions=16 -ffunction-sections -fdata-sections -fn"
 3317      696F6E73 
 3317      3D313620 
 3317      2D666675 
 3317      6E637469 
 3318 04b8 6F2D636F 		.ascii	"o-common -fsingle-precision-constant\000"
 3318      6D6D6F6E 
 3318      202D6673 
 3318      696E676C 
 3318      652D7072 
 3319              	.LASF102:
 3320 04dd 6D656D63 		.ascii	"memcmp\000"
 3320      6D7000
 3321              	.LASF62:
 3322 04e4 64617461 		.ascii	"data\000"
ARM GAS  /var/folders/bz/nn5481rn5xq59rb0mbj7x0880000gn/T//ccWjsB25.s 			page 63


 3322      00
 3323              	.LASF37:
 3324 04e9 705F7469 		.ascii	"p_time\000"
 3324      6D6500
 3325              	.LASF48:
 3326 04f0 696E7463 		.ascii	"intctx\000"
 3326      747800
 3327              	.LASF39:
 3328 04f7 705F6D73 		.ascii	"p_msgqueue\000"
 3328      67717565 
 3328      756500
 3329              	.LASF81:
 3330 0502 63684D74 		.ascii	"chMtxInit\000"
 3330      78496E69 
 3330      7400
 3331              	.LASF87:
 3332 050c 63685468 		.ascii	"chThdSleep\000"
 3332      64536C65 
 3332      657000
 3333              	.LASF35:
 3334 0517 705F7265 		.ascii	"p_refs\000"
 3334      667300
 3335              	.LASF99:
 3336 051e 6C69622F 		.ascii	"lib/nrf/rfhelp.c\000"
 3336      6E72662F 
 3336      72666865 
 3336      6C702E63 
 3336      00
 3337              	.LASF12:
 3338 052f 75696E74 		.ascii	"uint8_t\000"
 3338      385F7400 
 3339              	.LASF79:
 3340 0537 74785F70 		.ascii	"tx_pipe0_addr_eq\000"
 3340      69706530 
 3340      5F616464 
 3340      725F6571 
 3340      00
 3341              	.LASF65:
 3342 0548 72666865 		.ascii	"rfhelp_send_data\000"
 3342      6C705F73 
 3342      656E645F 
 3342      64617461 
 3342      00
 3343              	.LASF57:
 3344 0559 77746F62 		.ascii	"wtobjp\000"
 3344      6A7000
 3345              	.LASF32:
 3346 0560 705F6E61 		.ascii	"p_name\000"
 3346      6D6500
 3347              	.LASF40:
 3348 0567 705F6D73 		.ascii	"p_msg\000"
 3348      6700
 3349              	.LASF53:
 3350 056d 6D5F6F77 		.ascii	"m_owner\000"
 3350      6E657200 
 3351              	.LASF29:
 3352 0575 705F6374 		.ascii	"p_ctx\000"
ARM GAS  /var/folders/bz/nn5481rn5xq59rb0mbj7x0880000gn/T//ccWjsB25.s 			page 64


 3352      7800
 3353              	.LASF38:
 3354 057b 705F7761 		.ascii	"p_waiting\000"
 3354      6974696E 
 3354      6700
 3355              		.ident	"GCC: (GNU Tools for ARM Embedded Processors) 4.9.3 20150529 (release) [ARM/embedded-4_9-br
ARM GAS  /var/folders/bz/nn5481rn5xq59rb0mbj7x0880000gn/T//ccWjsB25.s 			page 65


DEFINED SYMBOLS
                            *ABS*:0000000000000000 rfhelp.c
/var/folders/bz/nn5481rn5xq59rb0mbj7x0880000gn/T//ccWjsB25.s:21     .text.rfhelp_init:0000000000000000 $t
/var/folders/bz/nn5481rn5xq59rb0mbj7x0880000gn/T//ccWjsB25.s:27     .text.rfhelp_init:0000000000000000 rfhelp_init
/var/folders/bz/nn5481rn5xq59rb0mbj7x0880000gn/T//ccWjsB25.s:99     .text.rfhelp_init:0000000000000054 $d
/var/folders/bz/nn5481rn5xq59rb0mbj7x0880000gn/T//ccWjsB25.s:109    .text.rfhelp_restart:0000000000000000 $t
/var/folders/bz/nn5481rn5xq59rb0mbj7x0880000gn/T//ccWjsB25.s:115    .text.rfhelp_restart:0000000000000000 rfhelp_restart
/var/folders/bz/nn5481rn5xq59rb0mbj7x0880000gn/T//ccWjsB25.s:195    .text.rfhelp_restart:000000000000004c $d
/var/folders/bz/nn5481rn5xq59rb0mbj7x0880000gn/T//ccWjsB25.s:204    .text.rfhelp_send_data:0000000000000000 $t
/var/folders/bz/nn5481rn5xq59rb0mbj7x0880000gn/T//ccWjsB25.s:210    .text.rfhelp_send_data:0000000000000000 rfhelp_send_data
/var/folders/bz/nn5481rn5xq59rb0mbj7x0880000gn/T//ccWjsB25.s:335    .text.rfhelp_send_data:000000000000007c $d
/var/folders/bz/nn5481rn5xq59rb0mbj7x0880000gn/T//ccWjsB25.s:345    .text.rfhelp_read_rx_data:0000000000000000 $t
/var/folders/bz/nn5481rn5xq59rb0mbj7x0880000gn/T//ccWjsB25.s:351    .text.rfhelp_read_rx_data:0000000000000000 rfhelp_read_rx_data
/var/folders/bz/nn5481rn5xq59rb0mbj7x0880000gn/T//ccWjsB25.s:444    .text.rfhelp_read_rx_data:000000000000005c $d
/var/folders/bz/nn5481rn5xq59rb0mbj7x0880000gn/T//ccWjsB25.s:449    .text.rfhelp_rf_status:0000000000000000 $t
/var/folders/bz/nn5481rn5xq59rb0mbj7x0880000gn/T//ccWjsB25.s:455    .text.rfhelp_rf_status:0000000000000000 rfhelp_rf_status
/var/folders/bz/nn5481rn5xq59rb0mbj7x0880000gn/T//ccWjsB25.s:484    .text.rfhelp_rf_status:0000000000000018 $d
/var/folders/bz/nn5481rn5xq59rb0mbj7x0880000gn/T//ccWjsB25.s:489    .text.rfhelp_set_tx_addr:0000000000000000 $t
/var/folders/bz/nn5481rn5xq59rb0mbj7x0880000gn/T//ccWjsB25.s:495    .text.rfhelp_set_tx_addr:0000000000000000 rfhelp_set_tx_addr
/var/folders/bz/nn5481rn5xq59rb0mbj7x0880000gn/T//ccWjsB25.s:562    .text.rfhelp_set_tx_addr:0000000000000040 $d
/var/folders/bz/nn5481rn5xq59rb0mbj7x0880000gn/T//ccWjsB25.s:571    .text.rfhelp_set_rx_addr:0000000000000000 $t
/var/folders/bz/nn5481rn5xq59rb0mbj7x0880000gn/T//ccWjsB25.s:577    .text.rfhelp_set_rx_addr:0000000000000000 rfhelp_set_rx_addr
/var/folders/bz/nn5481rn5xq59rb0mbj7x0880000gn/T//ccWjsB25.s:661    .text.rfhelp_set_rx_addr:0000000000000054 $d
/var/folders/bz/nn5481rn5xq59rb0mbj7x0880000gn/T//ccWjsB25.s:671    .bss.tx_addr:0000000000000000 $d
/var/folders/bz/nn5481rn5xq59rb0mbj7x0880000gn/T//ccWjsB25.s:675    .bss.tx_addr:0000000000000000 tx_addr
/var/folders/bz/nn5481rn5xq59rb0mbj7x0880000gn/T//ccWjsB25.s:678    .bss.rx_addr_set:0000000000000000 $d
/var/folders/bz/nn5481rn5xq59rb0mbj7x0880000gn/T//ccWjsB25.s:682    .bss.rx_addr_set:0000000000000000 rx_addr_set
/var/folders/bz/nn5481rn5xq59rb0mbj7x0880000gn/T//ccWjsB25.s:685    .bss.rf_mutex:0000000000000000 $d
/var/folders/bz/nn5481rn5xq59rb0mbj7x0880000gn/T//ccWjsB25.s:689    .bss.rf_mutex:0000000000000000 rf_mutex
/var/folders/bz/nn5481rn5xq59rb0mbj7x0880000gn/T//ccWjsB25.s:692    .bss.rx_addr:0000000000000000 $d
/var/folders/bz/nn5481rn5xq59rb0mbj7x0880000gn/T//ccWjsB25.s:696    .bss.rx_addr:0000000000000000 rx_addr
/var/folders/bz/nn5481rn5xq59rb0mbj7x0880000gn/T//ccWjsB25.s:699    .bss.address_length:0000000000000000 $d
/var/folders/bz/nn5481rn5xq59rb0mbj7x0880000gn/T//ccWjsB25.s:703    .bss.address_length:0000000000000000 address_length
/var/folders/bz/nn5481rn5xq59rb0mbj7x0880000gn/T//ccWjsB25.s:709    .bss.tx_pipe0_addr_eq:0000000000000000 tx_pipe0_addr_eq
/var/folders/bz/nn5481rn5xq59rb0mbj7x0880000gn/T//ccWjsB25.s:710    .bss.tx_pipe0_addr_eq:0000000000000000 $d
                     .debug_frame:0000000000000010 $d

UNDEFINED SYMBOLS
chMtxInit
rf_read_reg
memcmp
chMtxLock
rf_init
rf_set_tx_addr
rf_set_rx_addr
chMtxUnlock
rf_mode_tx
rf_clear_irq
rf_flush_all
rf_write_tx_payload
rf_status
chThdSleep
rf_mode_rx
rf_clear_maxrt_irq
rf_get_payload_width
rf_read_rx_payload
rf_clear_rx_irq
ARM GAS  /var/folders/bz/nn5481rn5xq59rb0mbj7x0880000gn/T//ccWjsB25.s 			page 66


memcpy
