ARM GAS  /var/folders/7z/kps_xzfj7sn5l5gkyq8s9db00000gn/T//ccwF4UJp.s 			page 1


   1              		.syntax unified
   2              		.cpu cortex-m4
   3              		.eabi_attribute 27, 1
   4              		.eabi_attribute 28, 1
   5              		.fpu fpv4-sp-d16
   6              		.eabi_attribute 20, 1
   7              		.eabi_attribute 21, 1
   8              		.eabi_attribute 23, 3
   9              		.eabi_attribute 24, 1
  10              		.eabi_attribute 25, 1
  11              		.eabi_attribute 26, 1
  12              		.eabi_attribute 30, 2
  13              		.eabi_attribute 34, 1
  14              		.eabi_attribute 18, 4
  15              		.thumb
  16              		.file	"servo_dec.c"
  17              		.text
  18              	.Ltext0:
  19              		.cfi_sections	.debug_frame
  20              		.section	.text.icuwidthcb,"ax",%progbits
  21              		.align	2
  22              		.p2align 4,,15
  23              		.thumb
  24              		.thumb_func
  25              		.type	icuwidthcb, %function
  26              	icuwidthcb:
  27              	.LFB119:
  28              		.file 1 "src/core/servo_dec.c"
  29              		.loc 1 61 0
  30              		.cfi_startproc
  31              		@ args = 0, pretend = 0, frame = 0
  32              		@ frame_needed = 0, uses_anonymous_args = 0
  33              		@ link register save eliminated.
  34              	.LVL0:
  35              		.loc 1 62 0
  36 0000 0369     		ldr	r3, [r0, #16]
  37 0002 9FED477A 		flds	s14, .L39
  38 0006 1B68     		ldr	r3, [r3]
  39 0008 4649     		ldr	r1, .L39+4
  40              		.loc 1 63 0
  41 000a 474A     		ldr	r2, .L39+8
  42              		.loc 1 64 0
  43 000c 4748     		ldr	r0, .L39+12
  44              	.LVL1:
  45              		.loc 1 62 0
  46 000e 0133     		adds	r3, r3, #1
  47 0010 07EE903A 		fmsr	s15, r3	@ int
  48 0014 F8EE677A 		fuitos	s15, s15
  49 0018 C7EE877A 		fdivs	s15, s15, s14
  50 001c C1ED007A 		fsts	s15, [r1]
  51              		.loc 1 63 0
  52 0020 91ED007A 		flds	s14, [r1]
  53 0024 92ED006A 		flds	s12, [r2]
  54              		.loc 1 64 0
  55 0028 D0ED007A 		flds	s15, [r0]
  56 002c D2ED006A 		flds	s13, [r2]
  57              		.loc 1 63 0
ARM GAS  /var/folders/7z/kps_xzfj7sn5l5gkyq8s9db00000gn/T//ccwF4UJp.s 			page 2


  58 0030 37EE467A 		fsubs	s14, s14, s12
  59              	.LVL2:
  60              		.loc 1 64 0
  61 0034 77EEE67A 		fsubs	s15, s15, s13
  62              	.LVL3:
  63              		.loc 1 66 0
  64 0038 B4EEE77A 		fcmpes	s14, s15
  65 003c F1EE10FA 		fmstat
  66 0040 0ADD     		ble	.L2
  67              		.loc 1 67 0
  68 0042 DFED3B6A 		flds	s13, .L39+16
  69 0046 67EEA66A 		fmuls	s13, s15, s13
  70 004a B4EEE67A 		fcmpes	s14, s13
  71 004e F1EE10FA 		fmstat
  72 0052 3DD5     		bpl	.L1
  73              		.loc 1 68 0
  74 0054 B0EE677A 		fcpys	s14, s15
  75              	.LVL4:
  76              	.L2:
  77              		.loc 1 75 0
  78 0058 B5EEC07A 		fcmpezs	s14
  79 005c F1EE10FA 		fmstat
  80 0060 36DD     		ble	.L1
  81              	.LBB5:
  82              		.loc 1 77 0
  83 0062 F0EE006A 		fconsts	s13, #0
  84 0066 B0EE676A 		fcpys	s12, s15
  85              	.LBE5:
  86              		.loc 1 76 0
  87 006a 324B     		ldr	r3, .L39+20
  88              	.LBB10:
  89              		.loc 1 77 0
  90 006c 97EE266A 		vfnms.f32	s12, s14, s13
  91              	.LBE10:
  92              		.loc 1 76 0
  93 0070 1B78     		ldrb	r3, [r3]	@ zero_extendqisi2
  94              	.LBB11:
  95              		.loc 1 77 0
  96 0072 B0EE467A 		fcpys	s14, s12
  97              	.LVL5:
  98              	.LBE11:
  99              		.loc 1 76 0
 100 0076 63B9     		cbnz	r3, .L37
 101              		.loc 1 87 0
 102 0078 C6EE277A 		fdivs	s15, s12, s15
 103              	.LVL6:
 104 007c 2E4B     		ldr	r3, .L39+24
 105 007e C3ED007A 		fsts	s15, [r3]
 106              	.L16:
 107              		.loc 1 92 0
 108 0082 2E4B     		ldr	r3, .L39+28
 109              		.loc 1 90 0
 110 0084 2E49     		ldr	r1, .L39+32
 111 0086 2F4A     		ldr	r2, .L39+36
 112              		.loc 1 92 0
 113 0088 1B68     		ldr	r3, [r3]
 114              		.loc 1 90 0
ARM GAS  /var/folders/7z/kps_xzfj7sn5l5gkyq8s9db00000gn/T//ccwF4UJp.s 			page 3


 115 008a C968     		ldr	r1, [r1, #12]
 116 008c 1160     		str	r1, [r2]
 117              		.loc 1 92 0
 118 008e FBB1     		cbz	r3, .L1
 119              		.loc 1 93 0
 120 0090 1847     		bx	r3	@ indirect register sibling call
 121              	.LVL7:
 122              	.L37:
 123              	.LBB12:
 124              		.loc 1 77 0
 125 0092 C7EE277A 		fdivs	s15, s14, s15
 126              	.LVL8:
 127              		.loc 1 80 0
 128 0096 2C4B     		ldr	r3, .L39+40
 129 0098 2C4A     		ldr	r2, .L39+44
 130 009a D3ED006A 		flds	s13, [r3]
 131              	.LVL9:
 132 009e 92ED006A 		flds	s12, [r2]
 133              	.LVL10:
 134              	.LBB6:
 135              	.LBB7:
 136              		.loc 1 51 0
 137 00a2 F4EEE67A 		fcmpes	s15, s13
 138 00a6 F1EE10FA 		fmstat
 139 00aa 12D8     		bhi	.L33
 140 00ac F4EEC67A 		fcmpes	s15, s12
 141 00b0 F1EE10FA 		fmstat
 142 00b4 2CD9     		bls	.L38
 143              		.loc 1 53 0
 144 00b6 F4EEE67A 		fcmpes	s15, s13
 145 00ba F1EE10FA 		fmstat
 146 00be 04DB     		blt	.L35
 147 00c0 F4EEC66A 		fcmpes	s13, s12
 148 00c4 F1EE10FA 		fmstat
 149 00c8 09D9     		bls	.L18
 150              	.L35:
 151              		.loc 1 56 0
 152 00ca B0EE676A 		fcpys	s12, s15
 153              	.LVL11:
 154 00ce 17E0     		b	.L12
 155              	.LVL12:
 156              	.L1:
 157 00d0 7047     		bx	lr
 158              	.LVL13:
 159              	.L33:
 160              		.loc 1 53 0
 161 00d2 0CDB     		blt	.L13
 162 00d4 F4EEC66A 		fcmpes	s13, s12
 163 00d8 F1EE10FA 		fmstat
 164 00dc 07D8     		bhi	.L13
 165              	.L18:
 166              		.loc 1 54 0
 167 00de F4EE467A 		fcmps	s15, s12
 168 00e2 F1EE10FA 		fmstat
 169 00e6 98BF     		it	ls
 170 00e8 B0EE676A 		fcpysls	s12, s15
 171              	.LVL14:
ARM GAS  /var/folders/7z/kps_xzfj7sn5l5gkyq8s9db00000gn/T//ccwF4UJp.s 			page 4


 172 00ec 08E0     		b	.L12
 173              	.LVL15:
 174              	.L13:
 175              		.loc 1 56 0
 176 00ee F4EEE67A 		fcmpes	s15, s13
 177 00f2 F1EE10FA 		fmstat
 178 00f6 8CBF     		ite	hi
 179 00f8 B0EE666A 		fcpyshi	s12, s13
 180 00fc B0EE676A 		fcpysls	s12, s15
 181              	.LVL16:
 182              	.L12:
 183              	.LBE7:
 184              	.LBE6:
 185              		.loc 1 85 0
 186 0100 0D49     		ldr	r1, .L39+24
 187              		.loc 1 82 0
 188 0102 C2ED006A 		fsts	s13, [r2]
 189              		.loc 1 83 0
 190 0106 C3ED007A 		fsts	s15, [r3]
 191              		.loc 1 85 0
 192 010a 81ED006A 		fsts	s12, [r1]
 193              	.LBE12:
 194 010e B8E7     		b	.L16
 195              	.LVL17:
 196              	.L38:
 197              	.LBB13:
 198              	.LBB9:
 199              	.LBB8:
 200              		.loc 1 52 0
 201 0110 F4EE466A 		fcmps	s13, s12
 202 0114 F1EE10FA 		fmstat
 203 0118 98BF     		it	ls
 204 011a B0EE666A 		fcpysls	s12, s13
 205              	.LVL18:
 206 011e EFE7     		b	.L12
 207              	.L40:
 208              		.align	2
 209              	.L39:
 210 0120 00007A44 		.word	1148846080
 211 0124 00000000 		.word	.LANCHOR0
 212 0128 00000000 		.word	.LANCHOR1
 213 012c 00000000 		.word	.LANCHOR2
 214 0130 9A99993F 		.word	1067030938
 215 0134 00000000 		.word	.LANCHOR3
 216 0138 00000000 		.word	.LANCHOR6
 217 013c 00000000 		.word	.LANCHOR8
 218 0140 00000000 		.word	vtlist
 219 0144 00000000 		.word	.LANCHOR7
 220 0148 00000000 		.word	.LANCHOR4
 221 014c 00000000 		.word	.LANCHOR5
 222              	.LBE8:
 223              	.LBE9:
 224              	.LBE13:
 225              		.cfi_endproc
 226              	.LFE119:
 227              		.size	icuwidthcb, .-icuwidthcb
 228              		.section	.text.icuperiodcb,"ax",%progbits
ARM GAS  /var/folders/7z/kps_xzfj7sn5l5gkyq8s9db00000gn/T//ccwF4UJp.s 			page 5


 229              		.align	2
 230              		.p2align 4,,15
 231              		.thumb
 232              		.thumb_func
 233              		.type	icuperiodcb, %function
 234              	icuperiodcb:
 235              	.LFB120:
 236              		.loc 1 98 0
 237              		.cfi_startproc
 238              		@ args = 0, pretend = 0, frame = 0
 239              		@ frame_needed = 0, uses_anonymous_args = 0
 240              		@ link register save eliminated.
 241              	.LVL19:
 242 0000 7047     		bx	lr
 243              		.cfi_endproc
 244              	.LFE120:
 245              		.size	icuperiodcb, .-icuperiodcb
 246 0002 00BFAFF3 		.section	.text.servodec_init,"ax",%progbits
 246      0080AFF3 
 246      0080AFF3 
 246      0080
 247              		.align	2
 248              		.p2align 4,,15
 249              		.global	servodec_init
 250              		.thumb
 251              		.thumb_func
 252              		.type	servodec_init, %function
 253              	servodec_init:
 254              	.LFB121:
 255              		.loc 1 119 0
 256              		.cfi_startproc
 257              		@ args = 0, pretend = 0, frame = 0
 258              		@ frame_needed = 0, uses_anonymous_args = 0
 259              	.LVL20:
 260              		.loc 1 119 0
 261 0000 38B5     		push	{r3, r4, r5, lr}
 262              		.cfi_def_cfa_offset 16
 263              		.cfi_offset 3, -16
 264              		.cfi_offset 4, -12
 265              		.cfi_offset 5, -8
 266              		.cfi_offset 14, -4
 267              		.loc 1 120 0
 268 0002 0B4C     		ldr	r4, .L44
 269 0004 0B49     		ldr	r1, .L44+4
 270              		.loc 1 119 0
 271 0006 0546     		mov	r5, r0
 272              		.loc 1 120 0
 273 0008 2046     		mov	r0, r4
 274              	.LVL21:
 275 000a FFF7FEFF 		bl	icuStart
 276              	.LVL22:
 277              		.loc 1 121 0
 278 000e 0421     		movs	r1, #4
 279 0010 4FF48172 		mov	r2, #258
 280 0014 0848     		ldr	r0, .L44+8
 281 0016 FFF7FEFF 		bl	_pal_lld_setgroupmode
 282              	.LVL23:
ARM GAS  /var/folders/7z/kps_xzfj7sn5l5gkyq8s9db00000gn/T//ccwF4UJp.s 			page 6


 283              		.loc 1 122 0
 284 001a 2046     		mov	r0, r4
 285 001c FFF7FEFF 		bl	icuEnable
 286              	.LVL24:
 287              		.loc 1 130 0
 288 0020 0648     		ldr	r0, .L44+12
 289              	.LBB14:
 290              		.loc 1 125 0
 291 0022 0749     		ldr	r1, .L44+16
 292              		.loc 1 126 0
 293 0024 074A     		ldr	r2, .L44+20
 294              	.LBE14:
 295              		.loc 1 130 0
 296 0026 0560     		str	r5, [r0]
 297              	.LBB15:
 298              		.loc 1 125 0
 299 0028 0023     		movs	r3, #0
 300 002a 0B60     		str	r3, [r1]	@ float
 301              		.loc 1 126 0
 302 002c 1360     		str	r3, [r2]	@ float
 303              	.LVL25:
 304 002e 38BD     		pop	{r3, r4, r5, pc}
 305              	.LVL26:
 306              	.L45:
 307              		.align	2
 308              	.L44:
 309 0030 00000000 		.word	ICUD3
 310 0034 00000000 		.word	.LANCHOR9
 311 0038 000C0240 		.word	1073875968
 312 003c 00000000 		.word	.LANCHOR8
 313 0040 00000000 		.word	.LANCHOR6
 314 0044 00000000 		.word	.LANCHOR0
 315              	.LBE15:
 316              		.cfi_endproc
 317              	.LFE121:
 318              		.size	servodec_init, .-servodec_init
 319 0048 AFF30080 		.section	.text.servodec_set_pulse_options,"ax",%progbits
 319      AFF30080 
 320              		.align	2
 321              		.p2align 4,,15
 322              		.global	servodec_set_pulse_options
 323              		.thumb
 324              		.thumb_func
 325              		.type	servodec_set_pulse_options, %function
 326              	servodec_set_pulse_options:
 327              	.LFB122:
 328              		.loc 1 142 0
 329              		.cfi_startproc
 330              		@ args = 0, pretend = 0, frame = 0
 331              		@ frame_needed = 0, uses_anonymous_args = 0
 332              		@ link register save eliminated.
 333              	.LVL27:
 334              		.loc 1 143 0
 335 0000 0449     		ldr	r1, .L47
 336              		.loc 1 144 0
 337 0002 054A     		ldr	r2, .L47+4
 338              		.loc 1 145 0
ARM GAS  /var/folders/7z/kps_xzfj7sn5l5gkyq8s9db00000gn/T//ccwF4UJp.s 			page 7


 339 0004 054B     		ldr	r3, .L47+8
 340              		.loc 1 143 0
 341 0006 81ED000A 		fsts	s0, [r1]
 342              		.loc 1 144 0
 343 000a C2ED000A 		fsts	s1, [r2]
 344              		.loc 1 145 0
 345 000e 1870     		strb	r0, [r3]
 346 0010 7047     		bx	lr
 347              	.L48:
 348 0012 00BF     		.align	2
 349              	.L47:
 350 0014 00000000 		.word	.LANCHOR1
 351 0018 00000000 		.word	.LANCHOR2
 352 001c 00000000 		.word	.LANCHOR3
 353              		.cfi_endproc
 354              	.LFE122:
 355              		.size	servodec_set_pulse_options, .-servodec_set_pulse_options
 356              		.section	.text.servodec_get_servo,"ax",%progbits
 357              		.align	2
 358              		.p2align 4,,15
 359              		.global	servodec_get_servo
 360              		.thumb
 361              		.thumb_func
 362              		.type	servodec_get_servo, %function
 363              	servodec_get_servo:
 364              	.LFB123:
 365              		.loc 1 157 0
 366              		.cfi_startproc
 367              		@ args = 0, pretend = 0, frame = 0
 368              		@ frame_needed = 0, uses_anonymous_args = 0
 369              		@ link register save eliminated.
 370              	.LVL28:
 371              		.loc 1 158 0
 372 0000 0028     		cmp	r0, #0
 373              		.loc 1 159 0
 374 0002 DDBF     		ittte	le
 375 0004 034B     		ldrle	r3, .L52
 376 0006 03EB8000 		addle	r0, r3, r0, lsl #2
 377              	.LVL29:
 378 000a 90ED000A 		fldsle	s0, [r0]
 379              		.loc 1 161 0
 380 000e 9FED020A 		fldsgt	s0, .L52+4
 381              		.loc 1 163 0
 382 0012 7047     		bx	lr
 383              	.L53:
 384              		.align	2
 385              	.L52:
 386 0014 00000000 		.word	.LANCHOR6
 387 0018 00000000 		.word	0
 388              		.cfi_endproc
 389              	.LFE123:
 390              		.size	servodec_get_servo, .-servodec_get_servo
 391 001c AFF30080 		.section	.text.servodec_get_time_since_update,"ax",%progbits
 392              		.align	2
 393              		.p2align 4,,15
 394              		.global	servodec_get_time_since_update
 395              		.thumb
ARM GAS  /var/folders/7z/kps_xzfj7sn5l5gkyq8s9db00000gn/T//ccwF4UJp.s 			page 8


 396              		.thumb_func
 397              		.type	servodec_get_time_since_update, %function
 398              	servodec_get_time_since_update:
 399              	.LFB124:
 400              		.loc 1 172 0
 401              		.cfi_startproc
 402              		@ args = 0, pretend = 0, frame = 0
 403              		@ frame_needed = 0, uses_anonymous_args = 0
 404              		@ link register save eliminated.
 405              		.loc 1 173 0
 406 0000 044A     		ldr	r2, .L55
 407 0002 054B     		ldr	r3, .L55+4
 408 0004 DB68     		ldr	r3, [r3, #12]
 409 0006 1068     		ldr	r0, [r2]
 410 0008 044A     		ldr	r2, .L55+8
 411 000a 181A     		subs	r0, r3, r0
 412 000c A2FB0030 		umull	r3, r0, r2, r0
 413              		.loc 1 174 0
 414 0010 C008     		lsrs	r0, r0, #3
 415 0012 7047     		bx	lr
 416              	.L56:
 417              		.align	2
 418              	.L55:
 419 0014 00000000 		.word	.LANCHOR7
 420 0018 00000000 		.word	vtlist
 421 001c CDCCCCCC 		.word	-858993459
 422              		.cfi_endproc
 423              	.LFE124:
 424              		.size	servodec_get_time_since_update, .-servodec_get_time_since_update
 425              		.section	.text.servodec_get_last_pulse_len,"ax",%progbits
 426              		.align	2
 427              		.p2align 4,,15
 428              		.global	servodec_get_last_pulse_len
 429              		.thumb
 430              		.thumb_func
 431              		.type	servodec_get_last_pulse_len, %function
 432              	servodec_get_last_pulse_len:
 433              	.LFB125:
 434              		.loc 1 185 0
 435              		.cfi_startproc
 436              		@ args = 0, pretend = 0, frame = 0
 437              		@ frame_needed = 0, uses_anonymous_args = 0
 438              		@ link register save eliminated.
 439              	.LVL30:
 440              		.loc 1 186 0
 441 0000 0028     		cmp	r0, #0
 442              		.loc 1 187 0
 443 0002 DDBF     		ittte	le
 444 0004 034B     		ldrle	r3, .L60
 445 0006 03EB8000 		addle	r0, r3, r0, lsl #2
 446              	.LVL31:
 447 000a 90ED000A 		fldsle	s0, [r0]
 448              		.loc 1 189 0
 449 000e 9FED020A 		fldsgt	s0, .L60+4
 450              		.loc 1 191 0
 451 0012 7047     		bx	lr
 452              	.L61:
ARM GAS  /var/folders/7z/kps_xzfj7sn5l5gkyq8s9db00000gn/T//ccwF4UJp.s 			page 9


 453              		.align	2
 454              	.L60:
 455 0014 00000000 		.word	.LANCHOR0
 456 0018 00000000 		.word	0
 457              		.cfi_endproc
 458              	.LFE125:
 459              		.size	servodec_get_last_pulse_len, .-servodec_get_last_pulse_len
 460 001c AFF30080 		.section	.bss.servo_pos,"aw",%nobits
 461              		.align	2
 462              		.set	.LANCHOR6,. + 0
 463              		.type	servo_pos, %object
 464              		.size	servo_pos, 4
 465              	servo_pos:
 466 0000 00000000 		.space	4
 467              		.section	.data.c2.9454,"aw",%progbits
 468              		.align	2
 469              		.set	.LANCHOR5,. + 0
 470              		.type	c2.9454, %object
 471              		.size	c2.9454, 4
 472              	c2.9454:
 473 0000 0000003F 		.word	1056964608
 474              		.section	.data.c1.9453,"aw",%progbits
 475              		.align	2
 476              		.set	.LANCHOR4,. + 0
 477              		.type	c1.9453, %object
 478              		.size	c1.9453, 4
 479              	c1.9453:
 480 0000 0000003F 		.word	1056964608
 481              		.section	.data.pulse_end,"aw",%progbits
 482              		.align	2
 483              		.set	.LANCHOR2,. + 0
 484              		.type	pulse_end, %object
 485              		.size	pulse_end, 4
 486              	pulse_end:
 487 0000 00000040 		.word	1073741824
 488              		.section	.bss.last_update_time,"aw",%nobits
 489              		.align	2
 490              		.set	.LANCHOR7,. + 0
 491              		.type	last_update_time, %object
 492              		.size	last_update_time, 4
 493              	last_update_time:
 494 0000 00000000 		.space	4
 495              		.section	.bss.last_len_received,"aw",%nobits
 496              		.align	2
 497              		.set	.LANCHOR0,. + 0
 498              		.type	last_len_received, %object
 499              		.size	last_len_received, 4
 500              	last_len_received:
 501 0000 00000000 		.space	4
 502              		.section	.bss.use_median_filter,"aw",%nobits
 503              		.set	.LANCHOR3,. + 0
 504              		.type	use_median_filter, %object
 505              		.size	use_median_filter, 1
 506              	use_median_filter:
 507 0000 00       		.space	1
 508              		.section	.data.pulse_start,"aw",%progbits
 509              		.align	2
ARM GAS  /var/folders/7z/kps_xzfj7sn5l5gkyq8s9db00000gn/T//ccwF4UJp.s 			page 10


 510              		.set	.LANCHOR1,. + 0
 511              		.type	pulse_start, %object
 512              		.size	pulse_start, 4
 513              	pulse_start:
 514 0000 0000803F 		.word	1065353216
 515              		.section	.bss.done_func,"aw",%nobits
 516              		.align	2
 517              		.set	.LANCHOR8,. + 0
 518              		.type	done_func, %object
 519              		.size	done_func, 4
 520              	done_func:
 521 0000 00000000 		.space	4
 522              		.section	.data.icucfg,"aw",%progbits
 523              		.align	2
 524              		.set	.LANCHOR9,. + 0
 525              		.type	icucfg, %object
 526              		.size	icucfg, 28
 527              	icucfg:
 528 0000 00       		.byte	0
 529 0001 000000   		.space	3
 530 0004 40420F00 		.word	1000000
 531 0008 00000000 		.word	icuwidthcb
 532 000c 00000000 		.word	icuperiodcb
 533 0010 00000000 		.word	0
 534 0014 01       		.byte	1
 535 0015 000000   		.space	3
 536 0018 00000000 		.word	0
 537              		.text
 538              	.Letext0:
 539              		.file 2 "/Users/Baram/gcc-arm-none-eabi/arm-none-eabi/include/machine/_default_types.h"
 540              		.file 3 "/Users/Baram/gcc-arm-none-eabi/arm-none-eabi/include/stdint.h"
 541              		.file 4 "lib/ChibiOS_2.6.6/os/ports/GCC/ARMCMx/chtypes.h"
 542              		.file 5 "lib/ChibiOS_2.6.6/os/kernel/include/chvt.h"
 543              		.file 6 "lib/ChibiOS_2.6.6/os/hal/platforms/STM32/GPIOv2/pal_lld.h"
 544              		.file 7 "lib/ChibiOS_2.6.6/os/hal/platforms/STM32/TIMv1/stm32_tim.h"
 545              		.file 8 "lib/ChibiOS_2.6.6/os/hal/include/icu.h"
 546              		.file 9 "lib/ChibiOS_2.6.6/os/hal/platforms/STM32/TIMv1/icu_lld.h"
 547              		.file 10 "lib/ChibiOS_2.6.6/os/ports/common/ARMCMx/CMSIS/include/core_cm4.h"