ARM GAS  /var/folders/7z/kps_xzfj7sn5l5gkyq8s9db00000gn/T//cc70UF0G.s 			page 1


   1              		.syntax unified
   2              		.cpu cortex-m4
   3              		.eabi_attribute 27, 1
   4              		.eabi_attribute 28, 1
   5              		.fpu fpv4-sp-d16
   6              		.eabi_attribute 20, 1
   7              		.eabi_attribute 21, 1
   8              		.eabi_attribute 23, 3
   9              		.eabi_attribute 24, 1
  10              		.eabi_attribute 25, 1
  11              		.eabi_attribute 26, 1
  12              		.eabi_attribute 30, 2
  13              		.eabi_attribute 34, 1
  14              		.eabi_attribute 18, 4
  15              		.thumb
  16              		.file	"spi_dac.c"
  17              		.text
  18              	.Ltext0:
  19              		.cfi_sections	.debug_frame
  20              		.section	.text.gpt_cb,"ax",%progbits
  21              		.align	2
  22              		.p2align 4,,15
  23              		.thumb
  24              		.thumb_func
  25              		.type	gpt_cb, %function
  26              	gpt_cb:
  27              	.LFB118:
  28              		.file 1 "src/core/spi_dac.c"
  29              		.loc 1 29 0
  30              		.cfi_startproc
  31              		@ args = 0, pretend = 0, frame = 0
  32              		@ frame_needed = 0, uses_anonymous_args = 0
  33              		@ link register save eliminated.
  34              	.LVL0:
  35 0000 7047     		bx	lr
  36              		.cfi_endproc
  37              	.LFE118:
  38              		.size	gpt_cb, .-gpt_cb
  39 0002 00BFAFF3 		.section	.text._spi_dac_write,"ax",%progbits
  39      0080AFF3 
  39      0080AFF3 
  39      0080
  40              		.align	2
  41              		.p2align 4,,15
  42              		.thumb
  43              		.thumb_func
  44              		.type	_spi_dac_write, %function
  45              	_spi_dac_write:
  46              	.LFB125:
  47              		.loc 1 159 0
  48              		.cfi_startproc
  49              		@ args = 0, pretend = 0, frame = 8
  50              		@ frame_needed = 0, uses_anonymous_args = 0
  51              		@ link register save eliminated.
  52              	.LVL1:
  53              		.loc 1 159 0
  54 0000 10B4     		push	{r4}
ARM GAS  /var/folders/7z/kps_xzfj7sn5l5gkyq8s9db00000gn/T//cc70UF0G.s 			page 2


  55              		.cfi_def_cfa_offset 4
  56              		.cfi_offset 4, -4
  57              		.loc 1 169 0
  58 0002 214A     		ldr	r2, .L36
  59              		.loc 1 159 0
  60 0004 83B0     		sub	sp, sp, #12
  61              		.cfi_def_cfa_offset 16
  62              	.L3:
  63              		.loc 1 169 0 discriminator 1
  64 0006 1389     		ldrh	r3, [r2, #8]
  65 0008 9907     		lsls	r1, r3, #30
  66 000a FCD5     		bpl	.L3
  67              	.LBB50:
  68              	.LBB51:
  69              	.LBB52:
  70              	.LBB53:
  71              		.loc 1 57 0
  72 000c 1F4B     		ldr	r3, .L36+4
  73              	.LBE53:
  74              	.LBE52:
  75              	.LBE51:
  76              	.LBE50:
  77              		.loc 1 173 0
  78 000e 204A     		ldr	r2, .L36+8
  79              	.LBB62:
  80              	.LBB60:
  81              	.LBB56:
  82              	.LBB54:
  83              		.loc 1 57 0
  84 0010 DB68     		ldr	r3, [r3, #12]
  85              	.LBE54:
  86              	.LBE56:
  87              	.LBE60:
  88              	.LBE62:
  89              		.loc 1 173 0
  90 0012 4FF40041 		mov	r1, #32768
  91 0016 5183     		strh	r1, [r2, #26]	@ movhi
  92              	.LVL2:
  93              	.LBB63:
  94              	.LBB61:
  95              	.LBB57:
  96              	.LBB55:
  97              		.loc 1 57 0
  98 0018 596A     		ldr	r1, [r3, #36]
  99              	.L30:
 100              	.LBE55:
 101              	.LBE57:
 102              	.LBB58:
 103              	.LBB59:
 104 001a 5A6A     		ldr	r2, [r3, #36]
 105              	.LVL3:
 106              	.LBE59:
 107              	.LBE58:
 108              		.loc 1 64 0
 109 001c 9142     		cmp	r1, r2
 110 001e FCD0     		beq	.L30
 111              	.LBE61:
ARM GAS  /var/folders/7z/kps_xzfj7sn5l5gkyq8s9db00000gn/T//cc70UF0G.s 			page 3


 112              	.LBE63:
 113              		.loc 1 175 0
 114 0020 1B4A     		ldr	r2, .L36+8
 115              	.LVL4:
 116 0022 4FF40041 		mov	r1, #32768
 117 0026 1183     		strh	r1, [r2, #24]	@ movhi
 118              	.LVL5:
 119              	.LBB64:
 120              	.LBB65:
 121              	.LBB66:
 122              	.LBB67:
 123              		.loc 1 57 0
 124 0028 596A     		ldr	r1, [r3, #36]
 125              	.L31:
 126              	.LBE67:
 127              	.LBE66:
 128              	.LBB68:
 129              	.LBB69:
 130 002a 5A6A     		ldr	r2, [r3, #36]
 131              	.LVL6:
 132              	.LBE69:
 133              	.LBE68:
 134              		.loc 1 64 0
 135 002c 9142     		cmp	r1, r2
 136 002e FCD0     		beq	.L31
 137              	.LBE65:
 138              	.LBE64:
 139              		.loc 1 177 0
 140 0030 1749     		ldr	r1, .L36+8
 141              		.loc 1 180 0
 142 0032 154A     		ldr	r2, .L36
 143              	.LVL7:
 144              		.loc 1 177 0
 145 0034 4FF40044 		mov	r4, #32768
 146 0038 4C83     		strh	r4, [r1, #26]	@ movhi
 147              		.loc 1 180 0
 148 003a 9189     		ldrh	r1, [r2, #12]
 149              		.loc 1 185 0
 150 003c 40F48040 		orr	r0, r0, #16384
 151              	.LVL8:
 152              		.loc 1 180 0
 153 0040 89B2     		uxth	r1, r1
 154              		.loc 1 185 0
 155 0042 80B2     		uxth	r0, r0
 156              		.loc 1 180 0
 157 0044 ADF80610 		strh	r1, [sp, #6]	@ movhi
 158              		.loc 1 189 0
 159 0048 1146     		mov	r1, r2
 160              		.loc 1 185 0
 161 004a 9081     		strh	r0, [r2, #12]	@ movhi
 162              	.L8:
 163              		.loc 1 189 0 discriminator 1
 164 004c 0A89     		ldrh	r2, [r1, #8]
 165 004e D207     		lsls	r2, r2, #31
 166 0050 FCD5     		bpl	.L8
 167              	.LVL9:
 168              	.LBB70:
ARM GAS  /var/folders/7z/kps_xzfj7sn5l5gkyq8s9db00000gn/T//cc70UF0G.s 			page 4


 169              	.LBB71:
 170              	.LBB72:
 171              	.LBB73:
 172              		.loc 1 57 0
 173 0052 596A     		ldr	r1, [r3, #36]
 174              	.L32:
 175              	.LBE73:
 176              	.LBE72:
 177              	.LBB74:
 178              	.LBB75:
 179 0054 5A6A     		ldr	r2, [r3, #36]
 180              	.LVL10:
 181              	.LBE75:
 182              	.LBE74:
 183              		.loc 1 64 0
 184 0056 9142     		cmp	r1, r2
 185 0058 FCD0     		beq	.L32
 186              	.LBE71:
 187              	.LBE70:
 188              		.loc 1 193 0
 189 005a 0D4A     		ldr	r2, .L36+8
 190              	.LVL11:
 191 005c 4FF40041 		mov	r1, #32768
 192 0060 1183     		strh	r1, [r2, #24]	@ movhi
 193              	.LVL12:
 194              	.LBB76:
 195              	.LBB77:
 196              	.LBB78:
 197              	.LBB79:
 198              		.loc 1 57 0
 199 0062 596A     		ldr	r1, [r3, #36]
 200              	.L33:
 201              	.LBE79:
 202              	.LBE78:
 203              	.LBB80:
 204              	.LBB81:
 205 0064 5A6A     		ldr	r2, [r3, #36]
 206              	.LVL13:
 207              	.LBE81:
 208              	.LBE80:
 209              		.loc 1 64 0
 210 0066 9142     		cmp	r1, r2
 211 0068 FCD0     		beq	.L33
 212              	.LBE77:
 213              	.LBE76:
 214              		.loc 1 198 0
 215 006a 0A4A     		ldr	r2, .L36+12
 216              	.LVL14:
 217 006c 1021     		movs	r1, #16
 218 006e 5183     		strh	r1, [r2, #26]	@ movhi
 219              	.LVL15:
 220              	.LBB82:
 221              	.LBB83:
 222              	.LBB84:
 223              	.LBB85:
 224              		.loc 1 57 0
 225 0070 596A     		ldr	r1, [r3, #36]
ARM GAS  /var/folders/7z/kps_xzfj7sn5l5gkyq8s9db00000gn/T//cc70UF0G.s 			page 5


 226              	.L34:
 227              	.LBE85:
 228              	.LBE84:
 229              	.LBB86:
 230              	.LBB87:
 231 0072 5A6A     		ldr	r2, [r3, #36]
 232              	.LVL16:
 233              	.LBE87:
 234              	.LBE86:
 235              		.loc 1 64 0
 236 0074 9142     		cmp	r1, r2
 237 0076 FCD0     		beq	.L34
 238              	.LBE83:
 239              	.LBE82:
 240              		.loc 1 201 0
 241 0078 064B     		ldr	r3, .L36+12
 242 007a 1022     		movs	r2, #16
 243              	.LVL17:
 244 007c 1A83     		strh	r2, [r3, #24]	@ movhi
 245              		.loc 1 204 0
 246 007e 03B0     		add	sp, sp, #12
 247              		.cfi_def_cfa_offset 4
 248              		@ sp needed
 249 0080 5DF8044B 		ldr	r4, [sp], #4
 250              		.cfi_restore 4
 251              		.cfi_def_cfa_offset 0
 252 0084 7047     		bx	lr
 253              	.L37:
 254 0086 00BF     		.align	2
 255              	.L36:
 256 0088 00300140 		.word	1073819648
 257 008c 00000000 		.word	GPTD5
 258 0090 00000240 		.word	1073872896
 259 0094 00040240 		.word	1073873920
 260              		.cfi_endproc
 261              	.LFE125:
 262              		.size	_spi_dac_write, .-_spi_dac_write
 263 0098 AFF30080 		.section	.text.initGPT,"ax",%progbits
 263      AFF30080 
 264              		.align	2
 265              		.p2align 4,,15
 266              		.global	initGPT
 267              		.thumb
 268              		.thumb_func
 269              		.type	initGPT, %function
 270              	initGPT:
 271              	.LFB119:
 272              		.loc 1 47 0
 273              		.cfi_startproc
 274              		@ args = 0, pretend = 0, frame = 0
 275              		@ frame_needed = 0, uses_anonymous_args = 0
 276 0000 10B5     		push	{r4, lr}
 277              		.cfi_def_cfa_offset 8
 278              		.cfi_offset 4, -8
 279              		.cfi_offset 14, -4
 280              		.loc 1 49 0
 281 0002 064C     		ldr	r4, .L40
ARM GAS  /var/folders/7z/kps_xzfj7sn5l5gkyq8s9db00000gn/T//cc70UF0G.s 			page 6


 282 0004 0649     		ldr	r1, .L40+4
 283 0006 2046     		mov	r0, r4
 284 0008 FFF7FEFF 		bl	gptStart
 285              	.LVL18:
 286              		.loc 1 50 0
 287 000c 2046     		mov	r0, r4
 288 000e 4FF0FF31 		mov	r1, #-1
 289              		.loc 1 51 0
 290 0012 BDE81040 		pop	{r4, lr}
 291              		.cfi_restore 14
 292              		.cfi_restore 4
 293              		.cfi_def_cfa_offset 0
 294              		.loc 1 50 0
 295 0016 FFF7FEBF 		b	gptStartContinuous
 296              	.LVL19:
 297              	.L41:
 298 001a 00BF     		.align	2
 299              	.L40:
 300 001c 00000000 		.word	GPTD5
 301 0020 00000000 		.word	.LANCHOR0
 302              		.cfi_endproc
 303              	.LFE119:
 304              		.size	initGPT, .-initGPT
 305 0024 AFF30080 		.section	.text.get_GPT_value,"ax",%progbits
 305      AFF30080 
 305      AFF30080 
 306              		.align	2
 307              		.p2align 4,,15
 308              		.global	get_GPT_value
 309              		.thumb
 310              		.thumb_func
 311              		.type	get_GPT_value, %function
 312              	get_GPT_value:
 313              	.LFB120:
 314              		.loc 1 55 0
 315              		.cfi_startproc
 316              		@ args = 0, pretend = 0, frame = 0
 317              		@ frame_needed = 0, uses_anonymous_args = 0
 318              		@ link register save eliminated.
 319              		.loc 1 57 0
 320 0000 014B     		ldr	r3, .L43
 321 0002 DB68     		ldr	r3, [r3, #12]
 322 0004 586A     		ldr	r0, [r3, #36]
 323              		.loc 1 58 0
 324 0006 7047     		bx	lr
 325              	.L44:
 326              		.align	2
 327              	.L43:
 328 0008 00000000 		.word	GPTD5
 329              		.cfi_endproc
 330              	.LFE120:
 331              		.size	get_GPT_value, .-get_GPT_value
 332 000c AFF30080 		.section	.text._udelay,"ax",%progbits
 333              		.align	2
 334              		.p2align 4,,15
 335              		.global	_udelay
 336              		.thumb
ARM GAS  /var/folders/7z/kps_xzfj7sn5l5gkyq8s9db00000gn/T//cc70UF0G.s 			page 7


 337              		.thumb_func
 338              		.type	_udelay, %function
 339              	_udelay:
 340              	.LFB121:
 341              		.loc 1 61 0
 342              		.cfi_startproc
 343              		@ args = 0, pretend = 0, frame = 0
 344              		@ frame_needed = 0, uses_anonymous_args = 0
 345              		@ link register save eliminated.
 346              	.LVL20:
 347              	.LBB88:
 348              	.LBB89:
 349              		.loc 1 57 0
 350 0000 054B     		ldr	r3, .L50
 351 0002 DA68     		ldr	r2, [r3, #12]
 352 0004 516A     		ldr	r1, [r2, #36]
 353              	.LBE89:
 354              	.LBE88:
 355              	.LBB90:
 356              	.LBB91:
 357 0006 536A     		ldr	r3, [r2, #36]
 358              	.LVL21:
 359              	.LBE91:
 360              	.LBE90:
 361              		.loc 1 64 0
 362 0008 5B1A     		subs	r3, r3, r1
 363 000a 9842     		cmp	r0, r3
 364 000c 03D9     		bls	.L45
 365              	.L48:
 366              	.LBB92:
 367              	.LBB93:
 368              		.loc 1 57 0
 369 000e 536A     		ldr	r3, [r2, #36]
 370              	.LVL22:
 371              	.LBE93:
 372              	.LBE92:
 373              		.loc 1 64 0
 374 0010 5B1A     		subs	r3, r3, r1
 375              	.LVL23:
 376 0012 8342     		cmp	r3, r0
 377 0014 FBD3     		bcc	.L48
 378              	.L45:
 379 0016 7047     		bx	lr
 380              	.L51:
 381              		.align	2
 382              	.L50:
 383 0018 00000000 		.word	GPTD5
 384              		.cfi_endproc
 385              	.LFE121:
 386              		.size	_udelay, .-_udelay
 387 001c AFF30080 		.section	.text.spi_hw_init_gpio,"ax",%progbits
 388              		.align	2
 389              		.p2align 4,,15
 390              		.global	spi_hw_init_gpio
 391              		.thumb
 392              		.thumb_func
 393              		.type	spi_hw_init_gpio, %function
ARM GAS  /var/folders/7z/kps_xzfj7sn5l5gkyq8s9db00000gn/T//cc70UF0G.s 			page 8


 394              	spi_hw_init_gpio:
 395              	.LFB122:
 396              		.loc 1 73 0
 397              		.cfi_startproc
 398              		@ args = 0, pretend = 0, frame = 0
 399              		@ frame_needed = 0, uses_anonymous_args = 0
 400 0000 38B5     		push	{r3, r4, r5, lr}
 401              		.cfi_def_cfa_offset 16
 402              		.cfi_offset 3, -16
 403              		.cfi_offset 4, -12
 404              		.cfi_offset 5, -8
 405              		.cfi_offset 14, -4
 406              		.loc 1 79 0
 407 0002 4FF48050 		mov	r0, #4096
 408 0006 0121     		movs	r1, #1
 409 0008 FFF7FEFF 		bl	RCC_APB2PeriphClockCmd
 410              	.LVL24:
 411              		.loc 1 87 0
 412 000c 144D     		ldr	r5, .L54
 413              		.loc 1 88 0
 414 000e 154C     		ldr	r4, .L54+4
 415              		.loc 1 82 0
 416 0010 4FF48050 		mov	r0, #4096
 417 0014 0121     		movs	r1, #1
 418 0016 FFF7FEFF 		bl	RCC_APB2PeriphResetCmd
 419              	.LVL25:
 420              		.loc 1 83 0
 421 001a 4FF48050 		mov	r0, #4096
 422 001e 0021     		movs	r1, #0
 423 0020 FFF7FEFF 		bl	RCC_APB2PeriphResetCmd
 424              	.LVL26:
 425              		.loc 1 87 0
 426 0024 2846     		mov	r0, r5
 427 0026 4FF40041 		mov	r1, #32768
 428 002a 1922     		movs	r2, #25
 429 002c FFF7FEFF 		bl	_pal_lld_setgroupmode
 430              	.LVL27:
 431              		.loc 1 88 0
 432 0030 2046     		mov	r0, r4
 433 0032 1021     		movs	r1, #16
 434 0034 1922     		movs	r2, #25
 435 0036 FFF7FEFF 		bl	_pal_lld_setgroupmode
 436              	.LVL28:
 437              		.loc 1 93 0
 438 003a 1023     		movs	r3, #16
 439              		.loc 1 91 0
 440 003c 4FF40042 		mov	r2, #32768
 441 0040 2A83     		strh	r2, [r5, #24]	@ movhi
 442              		.loc 1 101 0
 443 0042 2046     		mov	r0, r4
 444              		.loc 1 93 0
 445 0044 2383     		strh	r3, [r4, #24]	@ movhi
 446              		.loc 1 101 0
 447 0046 0821     		movs	r1, #8
 448 0048 40F29A22 		movw	r2, #666
 449 004c FFF7FEFF 		bl	_pal_lld_setgroupmode
 450              	.LVL29:
ARM GAS  /var/folders/7z/kps_xzfj7sn5l5gkyq8s9db00000gn/T//cc70UF0G.s 			page 9


 451              		.loc 1 105 0
 452 0050 2046     		mov	r0, r4
 453 0052 2021     		movs	r1, #32
 454 0054 40F2BA22 		movw	r2, #698
 455              		.loc 1 109 0
 456 0058 BDE83840 		pop	{r3, r4, r5, lr}
 457              		.cfi_restore 14
 458              		.cfi_restore 5
 459              		.cfi_restore 4
 460              		.cfi_restore 3
 461              		.cfi_def_cfa_offset 0
 462              		.loc 1 105 0
 463 005c FFF7FEBF 		b	_pal_lld_setgroupmode
 464              	.LVL30:
 465              	.L55:
 466              		.align	2
 467              	.L54:
 468 0060 00000240 		.word	1073872896
 469 0064 00040240 		.word	1073873920
 470              		.cfi_endproc
 471              	.LFE122:
 472              		.size	spi_hw_init_gpio, .-spi_hw_init_gpio
 473 0068 AFF30080 		.section	.text.SPI_Init_for_DAC_7612,"ax",%progbits
 473      AFF30080 
 474              		.align	2
 475              		.p2align 4,,15
 476              		.global	SPI_Init_for_DAC_7612
 477              		.thumb
 478              		.thumb_func
 479              		.type	SPI_Init_for_DAC_7612, %function
 480              	SPI_Init_for_DAC_7612:
 481              	.LFB123:
 482              		.loc 1 116 0
 483              		.cfi_startproc
 484              		@ args = 0, pretend = 0, frame = 0
 485              		@ frame_needed = 0, uses_anonymous_args = 0
 486              		@ link register save eliminated.
 487              	.LVL31:
 488              		.loc 1 142 0
 489 0000 0423     		movs	r3, #4
 490              		.loc 1 137 0
 491 0002 40F62702 		movw	r2, #2087
 492 0006 0280     		strh	r2, [r0]	@ movhi
 493              		.loc 1 142 0
 494 0008 8380     		strh	r3, [r0, #4]	@ movhi
 495              		.loc 1 145 0
 496 000a 0388     		ldrh	r3, [r0]
 497 000c 9BB2     		uxth	r3, r3
 498 000e 43F04003 		orr	r3, r3, #64
 499 0012 0380     		strh	r3, [r0]	@ movhi
 500 0014 7047     		bx	lr
 501              		.cfi_endproc
 502              	.LFE123:
 503              		.size	SPI_Init_for_DAC_7612, .-SPI_Init_for_DAC_7612
 504 0016 00BFAFF3 		.section	.text.spi_dac_hw_init,"ax",%progbits
 504      0080AFF3 
 504      0080
ARM GAS  /var/folders/7z/kps_xzfj7sn5l5gkyq8s9db00000gn/T//cc70UF0G.s 			page 10


 505              		.align	2
 506              		.p2align 4,,15
 507              		.global	spi_dac_hw_init
 508              		.thumb
 509              		.thumb_func
 510              		.type	spi_dac_hw_init, %function
 511              	spi_dac_hw_init:
 512              	.LFB124:
 513              		.loc 1 151 0
 514              		.cfi_startproc
 515              		@ args = 0, pretend = 0, frame = 0
 516              		@ frame_needed = 0, uses_anonymous_args = 0
 517 0000 08B5     		push	{r3, lr}
 518              		.cfi_def_cfa_offset 8
 519              		.cfi_offset 3, -8
 520              		.cfi_offset 14, -4
 521              		.loc 1 152 0
 522 0002 FFF7FEFF 		bl	spi_hw_init_gpio
 523              	.LVL32:
 524              		.loc 1 153 0
 525 0006 FFF7FEFF 		bl	initGPT
 526              	.LVL33:
 527              	.LBB94:
 528              	.LBB95:
 529              		.loc 1 137 0
 530 000a 064A     		ldr	r2, .L59
 531              		.loc 1 142 0
 532 000c 0423     		movs	r3, #4
 533              		.loc 1 137 0
 534 000e 40F62701 		movw	r1, #2087
 535 0012 1180     		strh	r1, [r2]	@ movhi
 536              		.loc 1 142 0
 537 0014 9380     		strh	r3, [r2, #4]	@ movhi
 538              		.loc 1 145 0
 539 0016 1388     		ldrh	r3, [r2]
 540 0018 9BB2     		uxth	r3, r3
 541 001a 43F04003 		orr	r3, r3, #64
 542 001e 1380     		strh	r3, [r2]	@ movhi
 543 0020 08BD     		pop	{r3, pc}
 544              	.L60:
 545 0022 00BF     		.align	2
 546              	.L59:
 547 0024 00300140 		.word	1073819648
 548              	.LBE95:
 549              	.LBE94:
 550              		.cfi_endproc
 551              	.LFE124:
 552              		.size	spi_dac_hw_init, .-spi_dac_hw_init
 553 0028 AFF30080 		.section	.text.spi_dac_write_AB,"ax",%progbits
 553      AFF30080 
 554              		.align	2
 555              		.p2align 4,,15
 556              		.global	spi_dac_write_AB
 557              		.thumb
 558              		.thumb_func
 559              		.type	spi_dac_write_AB, %function
 560              	spi_dac_write_AB:
ARM GAS  /var/folders/7z/kps_xzfj7sn5l5gkyq8s9db00000gn/T//cc70UF0G.s 			page 11


 561              	.LFB126:
 562              		.loc 1 207 0
 563              		.cfi_startproc
 564              		@ args = 0, pretend = 0, frame = 0
 565              		@ frame_needed = 0, uses_anonymous_args = 0
 566              		@ link register save eliminated.
 567              	.LVL34:
 568              		.loc 1 209 0
 569 0000 C0F30B00 		ubfx	r0, r0, #0, #12
 570              	.LVL35:
 571 0004 FFF7FEBF 		b	_spi_dac_write
 572              	.LVL36:
 573              		.cfi_endproc
 574              	.LFE126:
 575              		.size	spi_dac_write_AB, .-spi_dac_write_AB
 576 0008 AFF30080 		.section	.text.spi_dac_write_A,"ax",%progbits
 576      AFF30080 
 577              		.align	2
 578              		.p2align 4,,15
 579              		.global	spi_dac_write_A
 580              		.thumb
 581              		.thumb_func
 582              		.type	spi_dac_write_A, %function
 583              	spi_dac_write_A:
 584              	.LFB127:
 585              		.loc 1 212 0
 586              		.cfi_startproc
 587              		@ args = 0, pretend = 0, frame = 0
 588              		@ frame_needed = 0, uses_anonymous_args = 0
 589              		@ link register save eliminated.
 590              	.LVL37:
 591              		.loc 1 213 0
 592 0000 C0F30B00 		ubfx	r0, r0, #0, #12
 593              	.LVL38:
 594              		.loc 1 214 0
 595 0004 40F40050 		orr	r0, r0, #8192
 596 0008 FFF7FEBF 		b	_spi_dac_write
 597              	.LVL39:
 598              		.cfi_endproc
 599              	.LFE127:
 600              		.size	spi_dac_write_A, .-spi_dac_write_A
 601 000c AFF30080 		.section	.text.spi_dac_write_B,"ax",%progbits
 602              		.align	2
 603              		.p2align 4,,15
 604              		.global	spi_dac_write_B
 605              		.thumb
 606              		.thumb_func
 607              		.type	spi_dac_write_B, %function
 608              	spi_dac_write_B:
 609              	.LFB128:
 610              		.loc 1 217 0
 611              		.cfi_startproc
 612              		@ args = 0, pretend = 0, frame = 0
 613              		@ frame_needed = 0, uses_anonymous_args = 0
 614              		@ link register save eliminated.
 615              	.LVL40:
 616              		.loc 1 218 0
ARM GAS  /var/folders/7z/kps_xzfj7sn5l5gkyq8s9db00000gn/T//cc70UF0G.s 			page 12


 617 0000 C0F30B00 		ubfx	r0, r0, #0, #12
 618              	.LVL41:
 619              		.loc 1 219 0
 620 0004 40F44050 		orr	r0, r0, #12288
 621 0008 FFF7FEBF 		b	_spi_dac_write
 622              	.LVL42:
 623              		.cfi_endproc
 624              	.LFE128:
 625              		.size	spi_dac_write_B, .-spi_dac_write_B
 626 000c AFF30080 		.section	.rodata.gpt_cfg,"a",%progbits
 627              		.align	2
 628              		.set	.LANCHOR0,. + 0
 629              		.type	gpt_cfg, %object
 630              		.size	gpt_cfg, 12
 631              	gpt_cfg:
 632 0000 40420F00 		.word	1000000
 633 0004 00000000 		.word	gpt_cb
 634 0008 00000000 		.word	0
 635              		.text
 636              	.Letext0:
 637              		.file 2 "/Users/Baram/gcc-arm-none-eabi/arm-none-eabi/include/machine/_default_types.h"
 638              		.file 3 "/Users/Baram/gcc-arm-none-eabi/arm-none-eabi/include/stdint.h"
 639              		.file 4 "lib/ChibiOS_2.6.6/os/hal/platforms/STM32F4xx/stm32f4xx.h"
 640              		.file 5 "lib/ChibiOS_2.6.6/os/hal/platforms/STM32/GPIOv2/pal_lld.h"
 641              		.file 6 "lib/ChibiOS_2.6.6/os/hal/include/gpt.h"
 642              		.file 7 "lib/ChibiOS_2.6.6/os/hal/platforms/STM32/TIMv1/gpt_lld.h"
 643              		.file 8 "lib/ChibiOS_2.6.6/os/hal/platforms/STM32/TIMv1/stm32_tim.h"
 644              		.file 9 "lib/ChibiOS_2.6.6/os/ports/common/ARMCMx/CMSIS/include/core_cm4.h"
 645              		.file 10 "lib/ChibiOS_2.6.6/ext/stdperiph_stm32f4/inc/stm32f4xx_rcc.h"