ARM GAS  /var/folders/7z/kps_xzfj7sn5l5gkyq8s9db00000gn/T//cc70UF0G.s 			page 1


   1              		.syntax unified
   2              		.cpu cortex-m4
   3              		.eabi_attribute 27, 1
   4              		.eabi_attribute 28, 1
   5              		.fpu fpv4-sp-d16
   6              		.eabi_attribute 20, 1
   7              		.eabi_attribute 21, 1
   8              		.eabi_attribute 23, 3
   9              		.eabi_attribute 24, 1
  10              		.eabi_attribute 25, 1
  11              		.eabi_attribute 26, 1
  12              		.eabi_attribute 30, 2
  13              		.eabi_attribute 34, 1
  14              		.eabi_attribute 18, 4
  15              		.thumb
  16              		.file	"spi_dac.c"
  17              		.text
  18              	.Ltext0:
  19              		.cfi_sections	.debug_frame
  20              		.section	.text.gpt_cb,"ax",%progbits
  21              		.align	2
  22              		.p2align 4,,15
  23              		.thumb
  24              		.thumb_func
  25              		.type	gpt_cb, %function
  26              	gpt_cb:
  27              	.LFB118:
  28              		.file 1 "src/core/spi_dac.c"
  29              		.loc 1 29 0
  30              		.cfi_startproc
  31              		@ args = 0, pretend = 0, frame = 0
  32              		@ frame_needed = 0, uses_anonymous_args = 0
  33              		@ link register save eliminated.
  34              	.LVL0:
  35 0000 7047     		bx	lr
  36              		.cfi_endproc
  37              	.LFE118:
  38              		.size	gpt_cb, .-gpt_cb
  39 0002 00BFAFF3 		.section	.text._spi_dac_write,"ax",%progbits
  39      0080AFF3 
  39      0080AFF3 
  39      0080
  40              		.align	2
  41              		.p2align 4,,15
  42              		.thumb
  43              		.thumb_func
  44              		.type	_spi_dac_write, %function
  45              	_spi_dac_write:
  46              	.LFB125:
  47              		.loc 1 159 0
  48              		.cfi_startproc
  49              		@ args = 0, pretend = 0, frame = 8
  50              		@ frame_needed = 0, uses_anonymous_args = 0
  51              		@ link register save eliminated.
  52              	.LVL1:
  53              		.loc 1 159 0
  54 0000 10B4     		push	{r4}
ARM GAS  /var/folders/7z/kps_xzfj7sn5l5gkyq8s9db00000gn/T//cc70UF0G.s 			page 2


  55              		.cfi_def_cfa_offset 4
  56              		.cfi_offset 4, -4
  57              		.loc 1 169 0
  58 0002 214A     		ldr	r2, .L36
  59              		.loc 1 159 0
  60 0004 83B0     		sub	sp, sp, #12
  61              		.cfi_def_cfa_offset 16
  62              	.L3:
  63              		.loc 1 169 0 discriminator 1
  64 0006 1389     		ldrh	r3, [r2, #8]
  65 0008 9907     		lsls	r1, r3, #30
  66 000a FCD5     		bpl	.L3
  67              	.LBB50:
  68              	.LBB51:
  69              	.LBB52:
  70              	.LBB53:
  71              		.loc 1 57 0
  72 000c 1F4B     		ldr	r3, .L36+4
  73              	.LBE53:
  74              	.LBE52:
  75              	.LBE51:
  76              	.LBE50:
  77              		.loc 1 173 0
  78 000e 204A     		ldr	r2, .L36+8
  79              	.LBB62:
  80              	.LBB60:
  81              	.LBB56:
  82              	.LBB54:
  83              		.loc 1 57 0
  84 0010 DB68     		ldr	r3, [r3, #12]
  85              	.LBE54:
  86              	.LBE56:
  87              	.LBE60:
  88              	.LBE62:
  89              		.loc 1 173 0
  90 0012 4FF40041 		mov	r1, #32768
  91 0016 5183     		strh	r1, [r2, #26]	@ movhi
  92              	.LVL2:
  93              	.LBB63:
  94              	.LBB61:
  95              	.LBB57:
  96              	.LBB55:
  97              		.loc 1 57 0
  98 0018 596A     		ldr	r1, [r3, #36]
  99              	.L30:
 100              	.LBE55:
 101              	.LBE57:
 102              	.LBB58:
 103              	.LBB59:
 104 001a 5A6A     		ldr	r2, [r3, #36]
 105              	.LVL3:
 106              	.LBE59:
 107              	.LBE58:
 108              		.loc 1 64 0
 109 001c 9142     		cmp	r1, r2
 110 001e FCD0     		beq	.L30
 111              	.LBE61:
ARM GAS  /var/folders/7z/kps_xzfj7sn5l5gkyq8s9db00000gn/T//cc70UF0G.s 			page 3


 112              	.LBE63:
 113              		.loc 1 175 0
 114 0020 1B4A     		ldr	r2, .L36+8
 115              	.LVL4:
 116 0022 4FF40041 		mov	r1, #32768
 117 0026 1183     		strh	r1, [r2, #24]	@ movhi
 118              	.LVL5:
 119              	.LBB64:
 120              	.LBB65:
 121              	.LBB66:
 122              	.LBB67:
 123              		.loc 1 57 0
 124 0028 596A     		ldr	r1, [r3, #36]
 125              	.L31:
 126              	.LBE67:
 127              	.LBE66:
 128              	.LBB68:
 129              	.LBB69:
 130 002a 5A6A     		ldr	r2, [r3, #36]
 131              	.LVL6:
 132              	.LBE69:
 133              	.LBE68:
 134              		.loc 1 64 0
 135 002c 9142     		cmp	r1, r2
 136 002e FCD0     		beq	.L31
 137              	.LBE65:
 138              	.LBE64:
 139              		.loc 1 177 0
 140 0030 1749     		ldr	r1, .L36+8
 141              		.loc 1 180 0
 142 0032 154A     		ldr	r2, .L36
 143              	.LVL7:
 144              		.loc 1 177 0
 145 0034 4FF40044 		mov	r4, #32768
 146 0038 4C83     		strh	r4, [r1, #26]	@ movhi
 147              		.loc 1 180 0
 148 003a 9189     		ldrh	r1, [r2, #12]
 149              		.loc 1 185 0
 150 003c 40F48040 		orr	r0, r0, #16384
 151              	.LVL8:
 152              		.loc 1 180 0
 153 0040 89B2     		uxth	r1, r1
 154              		.loc 1 185 0
 155 0042 80B2     		uxth	r0, r0
 156              		.loc 1 180 0
 157 0044 ADF80610 		strh	r1, [sp, #6]	@ movhi
 158              		.loc 1 189 0
 159 0048 1146     		mov	r1, r2
 160              		.loc 1 185 0
 161 004a 9081     		strh	r0, [r2, #12]	@ movhi
 162              	.L8:
 163              		.loc 1 189 0 discriminator 1
 164 004c 0A89     		ldrh	r2, [r1, #8]
 165 004e D207     		lsls	r2, r2, #31
 166 0050 FCD5     		bpl	.L8
 167              	.LVL9:
 168              	.LBB70:
ARM GAS  /var/folders/7z/kps_xzfj7sn5l5gkyq8s9db00000gn/T//cc70UF0G.s 			page 4


 169              	.LBB71:
 170              	.LBB72:
 171              	.LBB73:
 172              		.loc 1 57 0
 173 0052 596A     		ldr	r1, [r3, #36]
 174              	.L32:
 175              	.LBE73:
 176              	.LBE72:
 177              	.LBB74:
 178              	.LBB75:
 179 0054 5A6A     		ldr	r2, [r3, #36]
 180              	.LVL10:
 181              	.LBE75:
 182              	.LBE74:
 183              		.loc 1 64 0
 184 0056 9142     		cmp	r1, r2
 185 0058 FCD0     		beq	.L32
 186              	.LBE71:
 187              	.LBE70:
 188              		.loc 1 193 0
 189 005a 0D4A     		ldr	r2, .L36+8
 190              	.LVL11:
 191 005c 4FF40041 		mov	r1, #32768
 192 0060 1183     		strh	r1, [r2, #24]	@ movhi
 193              	.LVL12:
 194              	.LBB76:
 195              	.LBB77:
 196              	.LBB78:
 197              	.LBB79:
 198              		.loc 1 57 0
 199 0062 596A     		ldr	r1, [r3, #36]
 200              	.L33:
 201              	.LBE79:
 202              	.LBE78:
 203              	.LBB80:
 204              	.LBB81:
 205 0064 5A6A     		ldr	r2, [r3, #36]
 206              	.LVL13:
 207              	.LBE81:
 208              	.LBE80:
 209              		.loc 1 64 0
 210 0066 9142     		cmp	r1, r2
 211 0068 FCD0     		beq	.L33
 212              	.LBE77:
 213              	.LBE76:
 214              		.loc 1 198 0
 215 006a 0A4A     		ldr	r2, .L36+12
 216              	.LVL14:
 217 006c 1021     		movs	r1, #16
 218 006e 5183     		strh	r1, [r2, #26]	@ movhi
 219              	.LVL15:
 220              	.LBB82:
 221              	.LBB83:
 222              	.LBB84:
 223              	.LBB85:
 224              		.loc 1 57 0
 225 0070 596A     		ldr	r1, [r3, #36]
ARM GAS  /var/folders/7z/kps_xzfj7sn5l5gkyq8s9db00000gn/T//cc70UF0G.s 			page 5


 226              	.L34:
 227              	.LBE85:
 228              	.LBE84:
 229              	.LBB86:
 230              	.LBB87:
 231 0072 5A6A     		ldr	r2, [r3, #36]
 232              	.LVL16:
 233              	.LBE87:
 234              	.LBE86:
 235              		.loc 1 64 0
 236 0074 9142     		cmp	r1, r2
 237 0076 FCD0     		beq	.L34
 238              	.LBE83:
 239              	.LBE82:
 240              		.loc 1 201 0
 241 0078 064B     		ldr	r3, .L36+12
 242 007a 1022     		movs	r2, #16
 243              	.LVL17:
 244 007c 1A83     		strh	r2, [r3, #24]	@ movhi
 245              		.loc 1 204 0
 246 007e 03B0     		add	sp, sp, #12
 247              		.cfi_def_cfa_offset 4
 248              		@ sp needed
 249 0080 5DF8044B 		ldr	r4, [sp], #4
 250              		.cfi_restore 4
 251              		.cfi_def_cfa_offset 0
 252 0084 7047     		bx	lr
 253              	.L37:
 254 0086 00BF     		.align	2
 255              	.L36:
 256 0088 00300140 		.word	1073819648
 257 008c 00000000 		.word	GPTD5
 258 0090 00000240 		.word	1073872896
 259 0094 00040240 		.word	1073873920
 260              		.cfi_endproc
 261              	.LFE125:
 262              		.size	_spi_dac_write, .-_spi_dac_write
 263 0098 AFF30080 		.section	.text.initGPT,"ax",%progbits
 263      AFF30080 
 264              		.align	2
 265              		.p2align 4,,15
 266              		.global	initGPT
 267              		.thumb
 268              		.thumb_func
 269              		.type	initGPT, %function
 270              	initGPT:
 271              	.LFB119:
 272              		.loc 1 47 0
 273              		.cfi_startproc
 274              		@ args = 0, pretend = 0, frame = 0
 275              		@ frame_needed = 0, uses_anonymous_args = 0
 276 0000 10B5     		push	{r4, lr}
 277              		.cfi_def_cfa_offset 8
 278              		.cfi_offset 4, -8
 279              		.cfi_offset 14, -4
 280              		.loc 1 49 0
 281 0002 064C     		ldr	r4, .L40
ARM GAS  /var/folders/7z/kps_xzfj7sn5l5gkyq8s9db00000gn/T//cc70UF0G.s 			page 6


 282 0004 0649     		ldr	r1, .L40+4
 283 0006 2046     		mov	r0, r4
 284 0008 FFF7FEFF 		bl	gptStart
 285              	.LVL18:
 286              		.loc 1 50 0
 287 000c 2046     		mov	r0, r4
 288 000e 4FF0FF31 		mov	r1, #-1
 289              		.loc 1 51 0
 290 0012 BDE81040 		pop	{r4, lr}
 291              		.cfi_restore 14
 292              		.cfi_restore 4
 293              		.cfi_def_cfa_offset 0
 294              		.loc 1 50 0
 295 0016 FFF7FEBF 		b	gptStartContinuous
 296              	.LVL19:
 297              	.L41:
 298 001a 00BF     		.align	2
 299              	.L40:
 300 001c 00000000 		.word	GPTD5
 301 0020 00000000 		.word	.LANCHOR0
 302              		.cfi_endproc
 303              	.LFE119:
 304              		.size	initGPT, .-initGPT
 305 0024 AFF30080 		.section	.text.get_GPT_value,"ax",%progbits
 305      AFF30080 
 305      AFF30080 
 306              		.align	2
 307              		.p2align 4,,15
 308              		.global	get_GPT_value
 309              		.thumb
 310              		.thumb_func
 311              		.type	get_GPT_value, %function
 312              	get_GPT_value:
 313              	.LFB120:
 314              		.loc 1 55 0
 315              		.cfi_startproc
 316              		@ args = 0, pretend = 0, frame = 0
 317              		@ frame_needed = 0, uses_anonymous_args = 0
 318              		@ link register save eliminated.
 319              		.loc 1 57 0
 320 0000 014B     		ldr	r3, .L43
 321 0002 DB68     		ldr	r3, [r3, #12]
 322 0004 586A     		ldr	r0, [r3, #36]
 323              		.loc 1 58 0
 324 0006 7047     		bx	lr
 325              	.L44:
 326              		.align	2
 327              	.L43:
 328 0008 00000000 		.word	GPTD5
 329              		.cfi_endproc
 330              	.LFE120:
 331              		.size	get_GPT_value, .-get_GPT_value
 332 000c AFF30080 		.section	.text._udelay,"ax",%progbits
 333              		.align	2
 334              		.p2align 4,,15
 335              		.global	_udelay
 336              		.thumb
ARM GAS  /var/folders/7z/kps_xzfj7sn5l5gkyq8s9db00000gn/T//cc70UF0G.s 			page 7


 337              		.thumb_func
 338              		.type	_udelay, %function
 339              	_udelay:
 340              	.LFB121:
 341              		.loc 1 61 0
 342              		.cfi_startproc
 343              		@ args = 0, pretend = 0, frame = 0
 344              		@ frame_needed = 0, uses_anonymous_args = 0
 345              		@ link register save eliminated.
 346              	.LVL20:
 347              	.LBB88:
 348              	.LBB89:
 349              		.loc 1 57 0
 350 0000 054B     		ldr	r3, .L50
 351 0002 DA68     		ldr	r2, [r3, #12]
 352 0004 516A     		ldr	r1, [r2, #36]
 353              	.LBE89:
 354              	.LBE88:
 355              	.LBB90:
 356              	.LBB91:
 357 0006 536A     		ldr	r3, [r2, #36]
 358              	.LVL21:
 359              	.LBE91:
 360              	.LBE90:
 361              		.loc 1 64 0
 362 0008 5B1A     		subs	r3, r3, r1
 363 000a 9842     		cmp	r0, r3
 364 000c 03D9     		bls	.L45
 365              	.L48:
 366              	.LBB92:
 367              	.LBB93:
 368              		.loc 1 57 0
 369 000e 536A     		ldr	r3, [r2, #36]
 370              	.LVL22:
 371              	.LBE93:
 372              	.LBE92:
 373              		.loc 1 64 0
 374 0010 5B1A     		subs	r3, r3, r1
 375              	.LVL23:
 376 0012 8342     		cmp	r3, r0
 377 0014 FBD3     		bcc	.L48
 378              	.L45:
 379 0016 7047     		bx	lr
 380              	.L51:
 381              		.align	2
 382              	.L50:
 383 0018 00000000 		.word	GPTD5
 384              		.cfi_endproc
 385              	.LFE121:
 386              		.size	_udelay, .-_udelay
 387 001c AFF30080 		.section	.text.spi_hw_init_gpio,"ax",%progbits
 388              		.align	2
 389              		.p2align 4,,15
 390              		.global	spi_hw_init_gpio
 391              		.thumb
 392              		.thumb_func
 393              		.type	spi_hw_init_gpio, %function
ARM GAS  /var/folders/7z/kps_xzfj7sn5l5gkyq8s9db00000gn/T//cc70UF0G.s 			page 8


 394              	spi_hw_init_gpio:
 395              	.LFB122:
 396              		.loc 1 73 0
 397              		.cfi_startproc
 398              		@ args = 0, pretend = 0, frame = 0
 399              		@ frame_needed = 0, uses_anonymous_args = 0
 400 0000 38B5     		push	{r3, r4, r5, lr}
 401              		.cfi_def_cfa_offset 16
 402              		.cfi_offset 3, -16
 403              		.cfi_offset 4, -12
 404              		.cfi_offset 5, -8
 405              		.cfi_offset 14, -4
 406              		.loc 1 79 0
 407 0002 4FF48050 		mov	r0, #4096
 408 0006 0121     		movs	r1, #1
 409 0008 FFF7FEFF 		bl	RCC_APB2PeriphClockCmd
 410              	.LVL24:
 411              		.loc 1 87 0
 412 000c 144D     		ldr	r5, .L54
 413              		.loc 1 88 0
 414 000e 154C     		ldr	r4, .L54+4
 415              		.loc 1 82 0
 416 0010 4FF48050 		mov	r0, #4096
 417 0014 0121     		movs	r1, #1
 418 0016 FFF7FEFF 		bl	RCC_APB2PeriphResetCmd
 419              	.LVL25:
 420              		.loc 1 83 0
 421 001a 4FF48050 		mov	r0, #4096
 422 001e 0021     		movs	r1, #0
 423 0020 FFF7FEFF 		bl	RCC_APB2PeriphResetCmd
 424              	.LVL26:
 425              		.loc 1 87 0
 426 0024 2846     		mov	r0, r5
 427 0026 4FF40041 		mov	r1, #32768
 428 002a 1922     		movs	r2, #25
 429 002c FFF7FEFF 		bl	_pal_lld_setgroupmode
 430              	.LVL27:
 431              		.loc 1 88 0
 432 0030 2046     		mov	r0, r4
 433 0032 1021     		movs	r1, #16
 434 0034 1922     		movs	r2, #25
 435 0036 FFF7FEFF 		bl	_pal_lld_setgroupmode
 436              	.LVL28:
 437              		.loc 1 93 0
 438 003a 1023     		movs	r3, #16
 439              		.loc 1 91 0
 440 003c 4FF40042 		mov	r2, #32768
 441 0040 2A83     		strh	r2, [r5, #24]	@ movhi
 442              		.loc 1 101 0
 443 0042 2046     		mov	r0, r4
 444              		.loc 1 93 0
 445 0044 2383     		strh	r3, [r4, #24]	@ movhi
 446              		.loc 1 101 0
 447 0046 0821     		movs	r1, #8
 448 0048 40F29A22 		movw	r2, #666
 449 004c FFF7FEFF 		bl	_pal_lld_setgroupmode
 450              	.LVL29:
ARM GAS  /var/folders/7z/kps_xzfj7sn5l5gkyq8s9db00000gn/T//cc70UF0G.s 			page 9


 451              		.loc 1 105 0
 452 0050 2046     		mov	r0, r4
 453 0052 2021     		movs	r1, #32
 454 0054 40F2BA22 		movw	r2, #698
 455              		.loc 1 109 0
 456 0058 BDE83840 		pop	{r3, r4, r5, lr}
 457              		.cfi_restore 14
 458              		.cfi_restore 5
 459              		.cfi_restore 4
 460              		.cfi_restore 3
 461              		.cfi_def_cfa_offset 0
 462              		.loc 1 105 0
 463 005c FFF7FEBF 		b	_pal_lld_setgroupmode
 464              	.LVL30:
 465              	.L55:
 466              		.align	2
 467              	.L54:
 468 0060 00000240 		.word	1073872896
 469 0064 00040240 		.word	1073873920
 470              		.cfi_endproc
 471              	.LFE122:
 472              		.size	spi_hw_init_gpio, .-spi_hw_init_gpio
 473 0068 AFF30080 		.section	.text.SPI_Init_for_DAC_7612,"ax",%progbits
 473      AFF30080 
 474              		.align	2
 475              		.p2align 4,,15
 476              		.global	SPI_Init_for_DAC_7612
 477              		.thumb
 478              		.thumb_func
 479              		.type	SPI_Init_for_DAC_7612, %function
 480              	SPI_Init_for_DAC_7612:
 481              	.LFB123:
 482              		.loc 1 116 0
 483              		.cfi_startproc
 484              		@ args = 0, pretend = 0, frame = 0
 485              		@ frame_needed = 0, uses_anonymous_args = 0
 486              		@ link register save eliminated.
 487              	.LVL31:
 488              		.loc 1 142 0
 489 0000 0423     		movs	r3, #4
 490              		.loc 1 137 0
 491 0002 40F62702 		movw	r2, #2087
 492 0006 0280     		strh	r2, [r0]	@ movhi
 493              		.loc 1 142 0
 494 0008 8380     		strh	r3, [r0, #4]	@ movhi
 495              		.loc 1 145 0
 496 000a 0388     		ldrh	r3, [r0]
 497 000c 9BB2     		uxth	r3, r3
 498 000e 43F04003 		orr	r3, r3, #64
 499 0012 0380     		strh	r3, [r0]	@ movhi
 500 0014 7047     		bx	lr
 501              		.cfi_endproc
 502              	.LFE123:
 503              		.size	SPI_Init_for_DAC_7612, .-SPI_Init_for_DAC_7612
 504 0016 00BFAFF3 		.section	.text.spi_dac_hw_init,"ax",%progbits
 504      0080AFF3 
 504      0080
ARM GAS  /var/folders/7z/kps_xzfj7sn5l5gkyq8s9db00000gn/T//cc70UF0G.s 			page 10


 505              		.align	2
 506              		.p2align 4,,15
 507              		.global	spi_dac_hw_init
 508              		.thumb
 509              		.thumb_func
 510              		.type	spi_dac_hw_init, %function
 511              	spi_dac_hw_init:
 512              	.LFB124:
 513              		.loc 1 151 0
 514              		.cfi_startproc
 515              		@ args = 0, pretend = 0, frame = 0
 516              		@ frame_needed = 0, uses_anonymous_args = 0
 517 0000 08B5     		push	{r3, lr}
 518              		.cfi_def_cfa_offset 8
 519              		.cfi_offset 3, -8
 520              		.cfi_offset 14, -4
 521              		.loc 1 152 0
 522 0002 FFF7FEFF 		bl	spi_hw_init_gpio
 523              	.LVL32:
 524              		.loc 1 153 0
 525 0006 FFF7FEFF 		bl	initGPT
 526              	.LVL33:
 527              	.LBB94:
 528              	.LBB95:
 529              		.loc 1 137 0
 530 000a 064A     		ldr	r2, .L59
 531              		.loc 1 142 0
 532 000c 0423     		movs	r3, #4
 533              		.loc 1 137 0
 534 000e 40F62701 		movw	r1, #2087
 535 0012 1180     		strh	r1, [r2]	@ movhi
 536              		.loc 1 142 0
 537 0014 9380     		strh	r3, [r2, #4]	@ movhi
 538              		.loc 1 145 0
 539 0016 1388     		ldrh	r3, [r2]
 540 0018 9BB2     		uxth	r3, r3
 541 001a 43F04003 		orr	r3, r3, #64
 542 001e 1380     		strh	r3, [r2]	@ movhi
 543 0020 08BD     		pop	{r3, pc}
 544              	.L60:
 545 0022 00BF     		.align	2
 546              	.L59:
 547 0024 00300140 		.word	1073819648
 548              	.LBE95:
 549              	.LBE94:
 550              		.cfi_endproc
 551              	.LFE124:
 552              		.size	spi_dac_hw_init, .-spi_dac_hw_init
 553 0028 AFF30080 		.section	.text.spi_dac_write_AB,"ax",%progbits
 553      AFF30080 
 554              		.align	2
 555              		.p2align 4,,15
 556              		.global	spi_dac_write_AB
 557              		.thumb
 558              		.thumb_func
 559              		.type	spi_dac_write_AB, %function
 560              	spi_dac_write_AB:
ARM GAS  /var/folders/7z/kps_xzfj7sn5l5gkyq8s9db00000gn/T//cc70UF0G.s 			page 11


 561              	.LFB126:
 562              		.loc 1 207 0
 563              		.cfi_startproc
 564              		@ args = 0, pretend = 0, frame = 0
 565              		@ frame_needed = 0, uses_anonymous_args = 0
 566              		@ link register save eliminated.
 567              	.LVL34:
 568              		.loc 1 209 0
 569 0000 C0F30B00 		ubfx	r0, r0, #0, #12
 570              	.LVL35:
 571 0004 FFF7FEBF 		b	_spi_dac_write
 572              	.LVL36:
 573              		.cfi_endproc
 574              	.LFE126:
 575              		.size	spi_dac_write_AB, .-spi_dac_write_AB
 576 0008 AFF30080 		.section	.text.spi_dac_write_A,"ax",%progbits
 576      AFF30080 
 577              		.align	2
 578              		.p2align 4,,15
 579              		.global	spi_dac_write_A
 580              		.thumb
 581              		.thumb_func
 582              		.type	spi_dac_write_A, %function
 583              	spi_dac_write_A:
 584              	.LFB127:
 585              		.loc 1 212 0
 586              		.cfi_startproc
 587              		@ args = 0, pretend = 0, frame = 0
 588              		@ frame_needed = 0, uses_anonymous_args = 0
 589              		@ link register save eliminated.
 590              	.LVL37:
 591              		.loc 1 213 0
 592 0000 C0F30B00 		ubfx	r0, r0, #0, #12
 593              	.LVL38:
 594              		.loc 1 214 0
 595 0004 40F40050 		orr	r0, r0, #8192
 596 0008 FFF7FEBF 		b	_spi_dac_write
 597              	.LVL39:
 598              		.cfi_endproc
 599              	.LFE127:
 600              		.size	spi_dac_write_A, .-spi_dac_write_A
 601 000c AFF30080 		.section	.text.spi_dac_write_B,"ax",%progbits
 602              		.align	2
 603              		.p2align 4,,15
 604              		.global	spi_dac_write_B
 605              		.thumb
 606              		.thumb_func
 607              		.type	spi_dac_write_B, %function
 608              	spi_dac_write_B:
 609              	.LFB128:
 610              		.loc 1 217 0
 611              		.cfi_startproc
 612              		@ args = 0, pretend = 0, frame = 0
 613              		@ frame_needed = 0, uses_anonymous_args = 0
 614              		@ link register save eliminated.
 615              	.LVL40:
 616              		.loc 1 218 0
ARM GAS  /var/folders/7z/kps_xzfj7sn5l5gkyq8s9db00000gn/T//cc70UF0G.s 			page 12


 617 0000 C0F30B00 		ubfx	r0, r0, #0, #12
 618              	.LVL41:
 619              		.loc 1 219 0
 620 0004 40F44050 		orr	r0, r0, #12288
 621 0008 FFF7FEBF 		b	_spi_dac_write
 622              	.LVL42:
 623              		.cfi_endproc
 624              	.LFE128:
 625              		.size	spi_dac_write_B, .-spi_dac_write_B
 626 000c AFF30080 		.section	.rodata.gpt_cfg,"a",%progbits
 627              		.align	2
 628              		.set	.LANCHOR0,. + 0
 629              		.type	gpt_cfg, %object
 630              		.size	gpt_cfg, 12
 631              	gpt_cfg:
 632 0000 40420F00 		.word	1000000
 633 0004 00000000 		.word	gpt_cb
 634 0008 00000000 		.word	0
 635              		.text
 636              	.Letext0:
 637              		.file 2 "/Users/Baram/gcc-arm-none-eabi/arm-none-eabi/include/machine/_default_types.h"
 638              		.file 3 "/Users/Baram/gcc-arm-none-eabi/arm-none-eabi/include/stdint.h"
 639              		.file 4 "lib/ChibiOS_2.6.6/os/hal/platforms/STM32F4xx/stm32f4xx.h"
 640              		.file 5 "lib/ChibiOS_2.6.6/os/hal/platforms/STM32/GPIOv2/pal_lld.h"
 641              		.file 6 "lib/ChibiOS_2.6.6/os/hal/include/gpt.h"
 642              		.file 7 "lib/ChibiOS_2.6.6/os/hal/platforms/STM32/TIMv1/gpt_lld.h"
 643              		.file 8 "lib/ChibiOS_2.6.6/os/hal/platforms/STM32/TIMv1/stm32_tim.h"
 644              		.file 9 "lib/ChibiOS_2.6.6/os/ports/common/ARMCMx/CMSIS/include/core_cm4.h"
 645              		.file 10 "lib/ChibiOS_2.6.6/ext/stdperiph_stm32f4/inc/stm32f4xx_rcc.h"
 646              		.section	.debug_info,"",%progbits
 647              	.Ldebug_info0:
 648 0000 B30A0000 		.4byte	0xab3
 649 0004 0400     		.2byte	0x4
 650 0006 00000000 		.4byte	.Ldebug_abbrev0
 651 000a 04       		.byte	0x4
 652 000b 01       		.uleb128 0x1
 653 000c C9010000 		.4byte	.LASF102
 654 0010 01       		.byte	0x1
 655 0011 3D050000 		.4byte	.LASF103
 656 0015 62010000 		.4byte	.LASF104
 657 0019 40000000 		.4byte	.Ldebug_ranges0+0x40
 658 001d 00000000 		.4byte	0
 659 0021 00000000 		.4byte	.Ldebug_line0
 660 0025 02       		.uleb128 0x2
 661 0026 04       		.byte	0x4
 662 0027 05       		.byte	0x5
 663 0028 696E7400 		.ascii	"int\000"
 664 002c 03       		.uleb128 0x3
 665 002d 04       		.byte	0x4
 666 002e 07       		.byte	0x7
 667 002f 95010000 		.4byte	.LASF0
 668 0033 03       		.uleb128 0x3
 669 0034 01       		.byte	0x1
 670 0035 06       		.byte	0x6
 671 0036 9F000000 		.4byte	.LASF1
 672 003a 04       		.uleb128 0x4
 673 003b 1E000000 		.4byte	.LASF4
ARM GAS  /var/folders/7z/kps_xzfj7sn5l5gkyq8s9db00000gn/T//cc70UF0G.s 			page 13


 674 003f 02       		.byte	0x2
 675 0040 1D       		.byte	0x1d
 676 0041 45000000 		.4byte	0x45
 677 0045 03       		.uleb128 0x3
 678 0046 01       		.byte	0x1
 679 0047 08       		.byte	0x8
 680 0048 0F040000 		.4byte	.LASF2
 681 004c 03       		.uleb128 0x3
 682 004d 02       		.byte	0x2
 683 004e 05       		.byte	0x5
 684 004f 1D040000 		.4byte	.LASF3
 685 0053 04       		.uleb128 0x4
 686 0054 C9040000 		.4byte	.LASF5
 687 0058 02       		.byte	0x2
 688 0059 2B       		.byte	0x2b
 689 005a 5E000000 		.4byte	0x5e
 690 005e 03       		.uleb128 0x3
 691 005f 02       		.byte	0x2
 692 0060 07       		.byte	0x7
 693 0061 E8040000 		.4byte	.LASF6
 694 0065 04       		.uleb128 0x4
 695 0066 D4040000 		.4byte	.LASF7
 696 006a 02       		.byte	0x2
 697 006b 3F       		.byte	0x3f
 698 006c 70000000 		.4byte	0x70
 699 0070 03       		.uleb128 0x3
 700 0071 04       		.byte	0x4
 701 0072 05       		.byte	0x5
 702 0073 E7000000 		.4byte	.LASF8
 703 0077 04       		.uleb128 0x4
 704 0078 3F010000 		.4byte	.LASF9
 705 007c 02       		.byte	0x2
 706 007d 41       		.byte	0x41
 707 007e 82000000 		.4byte	0x82
 708 0082 03       		.uleb128 0x3
 709 0083 04       		.byte	0x4
 710 0084 07       		.byte	0x7
 711 0085 A2010000 		.4byte	.LASF10
 712 0089 03       		.uleb128 0x3
 713 008a 08       		.byte	0x8
 714 008b 05       		.byte	0x5
 715 008c 05010000 		.4byte	.LASF11
 716 0090 03       		.uleb128 0x3
 717 0091 08       		.byte	0x8
 718 0092 07       		.byte	0x7
 719 0093 55000000 		.4byte	.LASF12
 720 0097 04       		.uleb128 0x4
 721 0098 1B050000 		.4byte	.LASF13
 722 009c 03       		.byte	0x3
 723 009d 15       		.byte	0x15
 724 009e 3A000000 		.4byte	0x3a
 725 00a2 04       		.uleb128 0x4
 726 00a3 13010000 		.4byte	.LASF14
 727 00a7 03       		.byte	0x3
 728 00a8 21       		.byte	0x21
 729 00a9 53000000 		.4byte	0x53
 730 00ad 04       		.uleb128 0x4
ARM GAS  /var/folders/7z/kps_xzfj7sn5l5gkyq8s9db00000gn/T//cc70UF0G.s 			page 14


 731 00ae 07040000 		.4byte	.LASF15
 732 00b2 03       		.byte	0x3
 733 00b3 2C       		.byte	0x2c
 734 00b4 65000000 		.4byte	0x65
 735 00b8 04       		.uleb128 0x4
 736 00b9 82040000 		.4byte	.LASF16
 737 00bd 03       		.byte	0x3
 738 00be 2D       		.byte	0x2d
 739 00bf 77000000 		.4byte	0x77
 740 00c3 03       		.uleb128 0x3
 741 00c4 01       		.byte	0x1
 742 00c5 02       		.byte	0x2
 743 00c6 01040000 		.4byte	.LASF17
 744 00ca 05       		.uleb128 0x5
 745 00cb B8000000 		.4byte	0xb8
 746 00cf 03       		.uleb128 0x3
 747 00d0 04       		.byte	0x4
 748 00d1 07       		.byte	0x7
 749 00d2 4B030000 		.4byte	.LASF18
 750 00d6 03       		.uleb128 0x3
 751 00d7 01       		.byte	0x1
 752 00d8 08       		.byte	0x8
 753 00d9 A6040000 		.4byte	.LASF19
 754 00dd 06       		.uleb128 0x6
 755 00de B8000000 		.4byte	0xb8
 756 00e2 ED000000 		.4byte	0xed
 757 00e6 07       		.uleb128 0x7
 758 00e7 CF000000 		.4byte	0xcf
 759 00eb 03       		.byte	0x3
 760 00ec 00       		.byte	0
 761 00ed 05       		.uleb128 0x5
 762 00ee A2000000 		.4byte	0xa2
 763 00f2 05       		.uleb128 0x5
 764 00f3 AD000000 		.4byte	0xad
 765 00f7 08       		.uleb128 0x8
 766 00f8 01       		.byte	0x1
 767 00f9 04       		.byte	0x4
 768 00fa F901     		.2byte	0x1f9
 769 00fc 0D010000 		.4byte	0x10d
 770 0100 09       		.uleb128 0x9
 771 0101 47000000 		.4byte	.LASF20
 772 0105 00       		.sleb128 0
 773 0106 09       		.uleb128 0x9
 774 0107 F9000000 		.4byte	.LASF21
 775 010b 01       		.sleb128 1
 776 010c 00       		.byte	0
 777 010d 0A       		.uleb128 0xa
 778 010e 64030000 		.4byte	.LASF22
 779 0112 04       		.byte	0x4
 780 0113 F901     		.2byte	0x1f9
 781 0115 F7000000 		.4byte	0xf7
 782 0119 0B       		.uleb128 0xb
 783 011a 24       		.byte	0x24
 784 011b 04       		.byte	0x4
 785 011c E304     		.2byte	0x4e3
 786 011e 0B020000 		.4byte	0x20b
 787 0122 0C       		.uleb128 0xc
ARM GAS  /var/folders/7z/kps_xzfj7sn5l5gkyq8s9db00000gn/T//cc70UF0G.s 			page 15


 788 0123 43523100 		.ascii	"CR1\000"
 789 0127 04       		.byte	0x4
 790 0128 E504     		.2byte	0x4e5
 791 012a ED000000 		.4byte	0xed
 792 012e 00       		.byte	0
 793 012f 0D       		.uleb128 0xd
 794 0130 AB030000 		.4byte	.LASF23
 795 0134 04       		.byte	0x4
 796 0135 E604     		.2byte	0x4e6
 797 0137 A2000000 		.4byte	0xa2
 798 013b 02       		.byte	0x2
 799 013c 0C       		.uleb128 0xc
 800 013d 43523200 		.ascii	"CR2\000"
 801 0141 04       		.byte	0x4
 802 0142 E704     		.2byte	0x4e7
 803 0144 ED000000 		.4byte	0xed
 804 0148 04       		.byte	0x4
 805 0149 0D       		.uleb128 0xd
 806 014a 65040000 		.4byte	.LASF24
 807 014e 04       		.byte	0x4
 808 014f E804     		.2byte	0x4e8
 809 0151 A2000000 		.4byte	0xa2
 810 0155 06       		.byte	0x6
 811 0156 0C       		.uleb128 0xc
 812 0157 535200   		.ascii	"SR\000"
 813 015a 04       		.byte	0x4
 814 015b E904     		.2byte	0x4e9
 815 015d ED000000 		.4byte	0xed
 816 0161 08       		.byte	0x8
 817 0162 0D       		.uleb128 0xd
 818 0163 C5030000 		.4byte	.LASF25
 819 0167 04       		.byte	0x4
 820 0168 EA04     		.2byte	0x4ea
 821 016a A2000000 		.4byte	0xa2
 822 016e 0A       		.byte	0xa
 823 016f 0C       		.uleb128 0xc
 824 0170 445200   		.ascii	"DR\000"
 825 0173 04       		.byte	0x4
 826 0174 EB04     		.2byte	0x4eb
 827 0176 ED000000 		.4byte	0xed
 828 017a 0C       		.byte	0xc
 829 017b 0D       		.uleb128 0xd
 830 017c CF030000 		.4byte	.LASF26
 831 0180 04       		.byte	0x4
 832 0181 EC04     		.2byte	0x4ec
 833 0183 A2000000 		.4byte	0xa2
 834 0187 0E       		.byte	0xe
 835 0188 0D       		.uleb128 0xd
 836 0189 6C000000 		.4byte	.LASF27
 837 018d 04       		.byte	0x4
 838 018e ED04     		.2byte	0x4ed
 839 0190 ED000000 		.4byte	0xed
 840 0194 10       		.byte	0x10
 841 0195 0D       		.uleb128 0xd
 842 0196 6F040000 		.4byte	.LASF28
 843 019a 04       		.byte	0x4
 844 019b EE04     		.2byte	0x4ee
ARM GAS  /var/folders/7z/kps_xzfj7sn5l5gkyq8s9db00000gn/T//cc70UF0G.s 			page 16


 845 019d A2000000 		.4byte	0xa2
 846 01a1 12       		.byte	0x12
 847 01a2 0D       		.uleb128 0xd
 848 01a3 10000000 		.4byte	.LASF29
 849 01a7 04       		.byte	0x4
 850 01a8 EF04     		.2byte	0x4ef
 851 01aa ED000000 		.4byte	0xed
 852 01ae 14       		.byte	0x14
 853 01af 0D       		.uleb128 0xd
 854 01b0 D9030000 		.4byte	.LASF30
 855 01b4 04       		.byte	0x4
 856 01b5 F004     		.2byte	0x4f0
 857 01b7 A2000000 		.4byte	0xa2
 858 01bb 16       		.byte	0x16
 859 01bc 0D       		.uleb128 0xd
 860 01bd 30010000 		.4byte	.LASF31
 861 01c1 04       		.byte	0x4
 862 01c2 F104     		.2byte	0x4f1
 863 01c4 ED000000 		.4byte	0xed
 864 01c8 18       		.byte	0x18
 865 01c9 0D       		.uleb128 0xd
 866 01ca E3030000 		.4byte	.LASF32
 867 01ce 04       		.byte	0x4
 868 01cf F204     		.2byte	0x4f2
 869 01d1 A2000000 		.4byte	0xa2
 870 01d5 1A       		.byte	0x1a
 871 01d6 0D       		.uleb128 0xd
 872 01d7 B0000000 		.4byte	.LASF33
 873 01db 04       		.byte	0x4
 874 01dc F304     		.2byte	0x4f3
 875 01de ED000000 		.4byte	0xed
 876 01e2 1C       		.byte	0x1c
 877 01e3 0D       		.uleb128 0xd
 878 01e4 ED030000 		.4byte	.LASF34
 879 01e8 04       		.byte	0x4
 880 01e9 F404     		.2byte	0x4f4
 881 01eb A2000000 		.4byte	0xa2
 882 01ef 1E       		.byte	0x1e
 883 01f0 0D       		.uleb128 0xd
 884 01f1 45030000 		.4byte	.LASF35
 885 01f5 04       		.byte	0x4
 886 01f6 F504     		.2byte	0x4f5
 887 01f8 ED000000 		.4byte	0xed
 888 01fc 20       		.byte	0x20
 889 01fd 0D       		.uleb128 0xd
 890 01fe F7030000 		.4byte	.LASF36
 891 0202 04       		.byte	0x4
 892 0203 F604     		.2byte	0x4f6
 893 0205 A2000000 		.4byte	0xa2
 894 0209 22       		.byte	0x22
 895 020a 00       		.byte	0
 896 020b 0A       		.uleb128 0xa
 897 020c 9A040000 		.4byte	.LASF37
 898 0210 04       		.byte	0x4
 899 0211 F704     		.2byte	0x4f7
 900 0213 19010000 		.4byte	0x119
 901 0217 0E       		.uleb128 0xe
ARM GAS  /var/folders/7z/kps_xzfj7sn5l5gkyq8s9db00000gn/T//cc70UF0G.s 			page 17


 902 0218 04       		.byte	0x4
 903 0219 05       		.byte	0x5
 904 021a 96       		.byte	0x96
 905 021b 38020000 		.4byte	0x238
 906 021f 0F       		.uleb128 0xf
 907 0220 73657400 		.ascii	"set\000"
 908 0224 05       		.byte	0x5
 909 0225 97       		.byte	0x97
 910 0226 A2000000 		.4byte	0xa2
 911 022a 00       		.byte	0
 912 022b 10       		.uleb128 0x10
 913 022c 54030000 		.4byte	.LASF38
 914 0230 05       		.byte	0x5
 915 0231 98       		.byte	0x98
 916 0232 A2000000 		.4byte	0xa2
 917 0236 02       		.byte	0x2
 918 0237 00       		.byte	0
 919 0238 11       		.uleb128 0x11
 920 0239 04       		.byte	0x4
 921 023a 05       		.byte	0x5
 922 023b 94       		.byte	0x94
 923 023c 53020000 		.4byte	0x253
 924 0240 12       		.uleb128 0x12
 925 0241 5700     		.ascii	"W\000"
 926 0243 05       		.byte	0x5
 927 0244 95       		.byte	0x95
 928 0245 B8000000 		.4byte	0xb8
 929 0249 12       		.uleb128 0x12
 930 024a 4800     		.ascii	"H\000"
 931 024c 05       		.byte	0x5
 932 024d 99       		.byte	0x99
 933 024e 17020000 		.4byte	0x217
 934 0252 00       		.byte	0
 935 0253 0E       		.uleb128 0xe
 936 0254 28       		.byte	0x28
 937 0255 05       		.byte	0x5
 938 0256 8C       		.byte	0x8c
 939 0257 D4020000 		.4byte	0x2d4
 940 025b 10       		.uleb128 0x10
 941 025c 4F000000 		.4byte	.LASF39
 942 0260 05       		.byte	0x5
 943 0261 8E       		.byte	0x8e
 944 0262 CA000000 		.4byte	0xca
 945 0266 00       		.byte	0
 946 0267 10       		.uleb128 0x10
 947 0268 17000000 		.4byte	.LASF40
 948 026c 05       		.byte	0x5
 949 026d 8F       		.byte	0x8f
 950 026e CA000000 		.4byte	0xca
 951 0272 04       		.byte	0x4
 952 0273 10       		.uleb128 0x10
 953 0274 37010000 		.4byte	.LASF41
 954 0278 05       		.byte	0x5
 955 0279 90       		.byte	0x90
 956 027a CA000000 		.4byte	0xca
 957 027e 08       		.byte	0x8
 958 027f 10       		.uleb128 0x10
ARM GAS  /var/folders/7z/kps_xzfj7sn5l5gkyq8s9db00000gn/T//cc70UF0G.s 			page 18


 959 0280 00000000 		.4byte	.LASF42
 960 0284 05       		.byte	0x5
 961 0285 91       		.byte	0x91
 962 0286 CA000000 		.4byte	0xca
 963 028a 0C       		.byte	0xc
 964 028b 0F       		.uleb128 0xf
 965 028c 49445200 		.ascii	"IDR\000"
 966 0290 05       		.byte	0x5
 967 0291 92       		.byte	0x92
 968 0292 CA000000 		.4byte	0xca
 969 0296 10       		.byte	0x10
 970 0297 0F       		.uleb128 0xf
 971 0298 4F445200 		.ascii	"ODR\000"
 972 029c 05       		.byte	0x5
 973 029d 93       		.byte	0x93
 974 029e CA000000 		.4byte	0xca
 975 02a2 14       		.byte	0x14
 976 02a3 10       		.uleb128 0x10
 977 02a4 AB000000 		.4byte	.LASF43
 978 02a8 05       		.byte	0x5
 979 02a9 9A       		.byte	0x9a
 980 02aa D4020000 		.4byte	0x2d4
 981 02ae 18       		.byte	0x18
 982 02af 10       		.uleb128 0x10
 983 02b0 06000000 		.4byte	.LASF44
 984 02b4 05       		.byte	0x5
 985 02b5 9B       		.byte	0x9b
 986 02b6 CA000000 		.4byte	0xca
 987 02ba 1C       		.byte	0x1c
 988 02bb 10       		.uleb128 0x10
 989 02bc 5F050000 		.4byte	.LASF45
 990 02c0 05       		.byte	0x5
 991 02c1 9C       		.byte	0x9c
 992 02c2 CA000000 		.4byte	0xca
 993 02c6 20       		.byte	0x20
 994 02c7 10       		.uleb128 0x10
 995 02c8 90030000 		.4byte	.LASF46
 996 02cc 05       		.byte	0x5
 997 02cd 9D       		.byte	0x9d
 998 02ce CA000000 		.4byte	0xca
 999 02d2 24       		.byte	0x24
 1000 02d3 00       		.byte	0
 1001 02d4 05       		.uleb128 0x5
 1002 02d5 38020000 		.4byte	0x238
 1003 02d9 04       		.uleb128 0x4
 1004 02da B4010000 		.4byte	.LASF47
 1005 02de 05       		.byte	0x5
 1006 02df 9E       		.byte	0x9e
 1007 02e0 53020000 		.4byte	0x253
 1008 02e4 04       		.uleb128 0x4
 1009 02e5 3A000000 		.4byte	.LASF48
 1010 02e9 05       		.byte	0x5
 1011 02ea F0       		.byte	0xf0
 1012 02eb B8000000 		.4byte	0xb8
 1013 02ef 04       		.uleb128 0x4
 1014 02f0 56050000 		.4byte	.LASF49
 1015 02f4 05       		.byte	0x5
ARM GAS  /var/folders/7z/kps_xzfj7sn5l5gkyq8s9db00000gn/T//cc70UF0G.s 			page 19


 1016 02f5 F5       		.byte	0xf5
 1017 02f6 B8000000 		.4byte	0xb8
 1018 02fa 04       		.uleb128 0x4
 1019 02fb DC000000 		.4byte	.LASF50
 1020 02ff 05       		.byte	0x5
 1021 0300 FD       		.byte	0xfd
 1022 0301 05030000 		.4byte	0x305
 1023 0305 13       		.uleb128 0x13
 1024 0306 04       		.byte	0x4
 1025 0307 D9020000 		.4byte	0x2d9
 1026 030b 14       		.uleb128 0x14
 1027 030c 01       		.byte	0x1
 1028 030d 06       		.byte	0x6
 1029 030e 3C       		.byte	0x3c
 1030 030f 32030000 		.4byte	0x332
 1031 0313 09       		.uleb128 0x9
 1032 0314 F2020000 		.4byte	.LASF51
 1033 0318 00       		.sleb128 0
 1034 0319 09       		.uleb128 0x9
 1035 031a 79040000 		.4byte	.LASF52
 1036 031e 01       		.sleb128 1
 1037 031f 09       		.uleb128 0x9
 1038 0320 5A030000 		.4byte	.LASF53
 1039 0324 02       		.sleb128 2
 1040 0325 09       		.uleb128 0x9
 1041 0326 B8000000 		.4byte	.LASF54
 1042 032a 03       		.sleb128 3
 1043 032b 09       		.uleb128 0x9
 1044 032c 28000000 		.4byte	.LASF55
 1045 0330 04       		.sleb128 4
 1046 0331 00       		.byte	0
 1047 0332 04       		.uleb128 0x4
 1048 0333 8A010000 		.4byte	.LASF56
 1049 0337 06       		.byte	0x6
 1050 0338 42       		.byte	0x42
 1051 0339 0B030000 		.4byte	0x30b
 1052 033d 04       		.uleb128 0x4
 1053 033e 4A010000 		.4byte	.LASF57
 1054 0342 06       		.byte	0x6
 1055 0343 47       		.byte	0x47
 1056 0344 48030000 		.4byte	0x348
 1057 0348 15       		.uleb128 0x15
 1058 0349 4A010000 		.4byte	.LASF57
 1059 034d 10       		.byte	0x10
 1060 034e 07       		.byte	0x7
 1061 034f 9001     		.2byte	0x190
 1062 0351 8A030000 		.4byte	0x38a
 1063 0355 0D       		.uleb128 0xd
 1064 0356 D6000000 		.4byte	.LASF58
 1065 035a 07       		.byte	0x7
 1066 035b 9401     		.2byte	0x194
 1067 035d 32030000 		.4byte	0x332
 1068 0361 00       		.byte	0
 1069 0362 0D       		.uleb128 0xd
 1070 0363 C2040000 		.4byte	.LASF59
 1071 0367 07       		.byte	0x7
 1072 0368 9801     		.2byte	0x198
ARM GAS  /var/folders/7z/kps_xzfj7sn5l5gkyq8s9db00000gn/T//cc70UF0G.s 			page 20


 1073 036a 2B050000 		.4byte	0x52b
 1074 036e 04       		.byte	0x4
 1075 036f 0D       		.uleb128 0xd
 1076 0370 50050000 		.4byte	.LASF60
 1077 0374 07       		.byte	0x7
 1078 0375 A001     		.2byte	0x1a0
 1079 0377 B8000000 		.4byte	0xb8
 1080 037b 08       		.byte	0x8
 1081 037c 0C       		.uleb128 0xc
 1082 037d 74696D00 		.ascii	"tim\000"
 1083 0381 07       		.byte	0x7
 1084 0382 A401     		.2byte	0x1a4
 1085 0384 36050000 		.4byte	0x536
 1086 0388 0C       		.byte	0xc
 1087 0389 00       		.byte	0
 1088 038a 04       		.uleb128 0x4
 1089 038b 1C010000 		.4byte	.LASF61
 1090 038f 06       		.byte	0x6
 1091 0390 4E       		.byte	0x4e
 1092 0391 95030000 		.4byte	0x395
 1093 0395 13       		.uleb128 0x13
 1094 0396 04       		.byte	0x4
 1095 0397 9B030000 		.4byte	0x39b
 1096 039b 16       		.uleb128 0x16
 1097 039c A6030000 		.4byte	0x3a6
 1098 03a0 17       		.uleb128 0x17
 1099 03a1 A6030000 		.4byte	0x3a6
 1100 03a5 00       		.byte	0
 1101 03a6 13       		.uleb128 0x13
 1102 03a7 04       		.byte	0x4
 1103 03a8 3D030000 		.4byte	0x33d
 1104 03ac 0B       		.uleb128 0xb
 1105 03ad 60       		.byte	0x60
 1106 03ae 08       		.byte	0x8
 1107 03af 9E01     		.2byte	0x19e
 1108 03b1 C5040000 		.4byte	0x4c5
 1109 03b5 0C       		.uleb128 0xc
 1110 03b6 43523100 		.ascii	"CR1\000"
 1111 03ba 08       		.byte	0x8
 1112 03bb 9F01     		.2byte	0x19f
 1113 03bd CA000000 		.4byte	0xca
 1114 03c1 00       		.byte	0
 1115 03c2 0C       		.uleb128 0xc
 1116 03c3 43523200 		.ascii	"CR2\000"
 1117 03c7 08       		.byte	0x8
 1118 03c8 A001     		.2byte	0x1a0
 1119 03ca CA000000 		.4byte	0xca
 1120 03ce 04       		.byte	0x4
 1121 03cf 0D       		.uleb128 0xd
 1122 03d0 9A000000 		.4byte	.LASF62
 1123 03d4 08       		.byte	0x8
 1124 03d5 A101     		.2byte	0x1a1
 1125 03d7 CA000000 		.4byte	0xca
 1126 03db 08       		.byte	0x8
 1127 03dc 0D       		.uleb128 0xd
 1128 03dd 0B000000 		.4byte	.LASF63
 1129 03e1 08       		.byte	0x8
ARM GAS  /var/folders/7z/kps_xzfj7sn5l5gkyq8s9db00000gn/T//cc70UF0G.s 			page 21


 1130 03e2 A201     		.2byte	0x1a2
 1131 03e4 CA000000 		.4byte	0xca
 1132 03e8 0C       		.byte	0xc
 1133 03e9 0C       		.uleb128 0xc
 1134 03ea 535200   		.ascii	"SR\000"
 1135 03ed 08       		.byte	0x8
 1136 03ee A301     		.2byte	0x1a3
 1137 03f0 CA000000 		.4byte	0xca
 1138 03f4 10       		.byte	0x10
 1139 03f5 0C       		.uleb128 0xc
 1140 03f6 45475200 		.ascii	"EGR\000"
 1141 03fa 08       		.byte	0x8
 1142 03fb A401     		.2byte	0x1a4
 1143 03fd CA000000 		.4byte	0xca
 1144 0401 14       		.byte	0x14
 1145 0402 0D       		.uleb128 0xd
 1146 0403 8E000000 		.4byte	.LASF64
 1147 0407 08       		.byte	0x8
 1148 0408 A501     		.2byte	0x1a5
 1149 040a CA000000 		.4byte	0xca
 1150 040e 18       		.byte	0x18
 1151 040f 0D       		.uleb128 0xd
 1152 0410 94000000 		.4byte	.LASF65
 1153 0414 08       		.byte	0x8
 1154 0415 A601     		.2byte	0x1a6
 1155 0417 CA000000 		.4byte	0xca
 1156 041b 1C       		.byte	0x1c
 1157 041c 0D       		.uleb128 0xd
 1158 041d 00010000 		.4byte	.LASF66
 1159 0421 08       		.byte	0x8
 1160 0422 A701     		.2byte	0x1a7
 1161 0424 CA000000 		.4byte	0xca
 1162 0428 20       		.byte	0x20
 1163 0429 0C       		.uleb128 0xc
 1164 042a 434E5400 		.ascii	"CNT\000"
 1165 042e 08       		.byte	0x8
 1166 042f A801     		.2byte	0x1a8
 1167 0431 CA000000 		.4byte	0xca
 1168 0435 24       		.byte	0x24
 1169 0436 0C       		.uleb128 0xc
 1170 0437 50534300 		.ascii	"PSC\000"
 1171 043b 08       		.byte	0x8
 1172 043c A901     		.2byte	0x1a9
 1173 043e CA000000 		.4byte	0xca
 1174 0442 28       		.byte	0x28
 1175 0443 0C       		.uleb128 0xc
 1176 0444 41525200 		.ascii	"ARR\000"
 1177 0448 08       		.byte	0x8
 1178 0449 AA01     		.2byte	0x1aa
 1179 044b CA000000 		.4byte	0xca
 1180 044f 2C       		.byte	0x2c
 1181 0450 0C       		.uleb128 0xc
 1182 0451 52435200 		.ascii	"RCR\000"
 1183 0455 08       		.byte	0x8
 1184 0456 AB01     		.2byte	0x1ab
 1185 0458 CA000000 		.4byte	0xca
 1186 045c 30       		.byte	0x30
ARM GAS  /var/folders/7z/kps_xzfj7sn5l5gkyq8s9db00000gn/T//cc70UF0G.s 			page 22


 1187 045d 0C       		.uleb128 0xc
 1188 045e 43435200 		.ascii	"CCR\000"
 1189 0462 08       		.byte	0x8
 1190 0463 AC01     		.2byte	0x1ac
 1191 0465 C5040000 		.4byte	0x4c5
 1192 0469 34       		.byte	0x34
 1193 046a 0D       		.uleb128 0xd
 1194 046b 7F000000 		.4byte	.LASF67
 1195 046f 08       		.byte	0x8
 1196 0470 AD01     		.2byte	0x1ad
 1197 0472 CA000000 		.4byte	0xca
 1198 0476 44       		.byte	0x44
 1199 0477 0C       		.uleb128 0xc
 1200 0478 44435200 		.ascii	"DCR\000"
 1201 047c 08       		.byte	0x8
 1202 047d AE01     		.2byte	0x1ae
 1203 047f CA000000 		.4byte	0xca
 1204 0483 48       		.byte	0x48
 1205 0484 0D       		.uleb128 0xd
 1206 0485 8B030000 		.4byte	.LASF68
 1207 0489 08       		.byte	0x8
 1208 048a AF01     		.2byte	0x1af
 1209 048c CA000000 		.4byte	0xca
 1210 0490 4C       		.byte	0x4c
 1211 0491 0C       		.uleb128 0xc
 1212 0492 4F5200   		.ascii	"OR\000"
 1213 0495 08       		.byte	0x8
 1214 0496 B001     		.2byte	0x1b0
 1215 0498 CA000000 		.4byte	0xca
 1216 049c 50       		.byte	0x50
 1217 049d 0D       		.uleb128 0xd
 1218 049e 34000000 		.4byte	.LASF69
 1219 04a2 08       		.byte	0x8
 1220 04a3 B101     		.2byte	0x1b1
 1221 04a5 CA000000 		.4byte	0xca
 1222 04a9 54       		.byte	0x54
 1223 04aa 0D       		.uleb128 0xd
 1224 04ab 11050000 		.4byte	.LASF70
 1225 04af 08       		.byte	0x8
 1226 04b0 B201     		.2byte	0x1b2
 1227 04b2 CA000000 		.4byte	0xca
 1228 04b6 58       		.byte	0x58
 1229 04b7 0D       		.uleb128 0xd
 1230 04b8 16050000 		.4byte	.LASF71
 1231 04bc 08       		.byte	0x8
 1232 04bd B301     		.2byte	0x1b3
 1233 04bf CA000000 		.4byte	0xca
 1234 04c3 5C       		.byte	0x5c
 1235 04c4 00       		.byte	0
 1236 04c5 05       		.uleb128 0x5
 1237 04c6 DD000000 		.4byte	0xdd
 1238 04ca 0A       		.uleb128 0xa
 1239 04cb 26030000 		.4byte	.LASF72
 1240 04cf 08       		.byte	0x8
 1241 04d0 B401     		.2byte	0x1b4
 1242 04d2 AC030000 		.4byte	0x3ac
 1243 04d6 0A       		.uleb128 0xa
ARM GAS  /var/folders/7z/kps_xzfj7sn5l5gkyq8s9db00000gn/T//cc70UF0G.s 			page 23


 1244 04d7 02030000 		.4byte	.LASF73
 1245 04db 07       		.byte	0x7
 1246 04dc 6D01     		.2byte	0x16d
 1247 04de B8000000 		.4byte	0xb8
 1248 04e2 0A       		.uleb128 0xa
 1249 04e3 F0000000 		.4byte	.LASF74
 1250 04e7 07       		.byte	0x7
 1251 04e8 7201     		.2byte	0x172
 1252 04ea B8000000 		.4byte	0xb8
 1253 04ee 0B       		.uleb128 0xb
 1254 04ef 0C       		.byte	0xc
 1255 04f0 07       		.byte	0x7
 1256 04f1 7801     		.2byte	0x178
 1257 04f3 1F050000 		.4byte	0x51f
 1258 04f7 0D       		.uleb128 0xd
 1259 04f8 84000000 		.4byte	.LASF75
 1260 04fc 07       		.byte	0x7
 1261 04fd 7E01     		.2byte	0x17e
 1262 04ff D6040000 		.4byte	0x4d6
 1263 0503 00       		.byte	0
 1264 0504 0D       		.uleb128 0xd
 1265 0505 1D030000 		.4byte	.LASF76
 1266 0509 07       		.byte	0x7
 1267 050a 8301     		.2byte	0x183
 1268 050c 8A030000 		.4byte	0x38a
 1269 0510 04       		.byte	0x4
 1270 0511 0D       		.uleb128 0xd
 1271 0512 6B050000 		.4byte	.LASF77
 1272 0516 07       		.byte	0x7
 1273 0517 8A01     		.2byte	0x18a
 1274 0519 B8000000 		.4byte	0xb8
 1275 051d 08       		.byte	0x8
 1276 051e 00       		.byte	0
 1277 051f 0A       		.uleb128 0xa
 1278 0520 DE040000 		.4byte	.LASF78
 1279 0524 07       		.byte	0x7
 1280 0525 8B01     		.2byte	0x18b
 1281 0527 EE040000 		.4byte	0x4ee
 1282 052b 13       		.uleb128 0x13
 1283 052c 04       		.byte	0x4
 1284 052d 31050000 		.4byte	0x531
 1285 0531 18       		.uleb128 0x18
 1286 0532 1F050000 		.4byte	0x51f
 1287 0536 13       		.uleb128 0x13
 1288 0537 04       		.byte	0x4
 1289 0538 CA040000 		.4byte	0x4ca
 1290 053c 19       		.uleb128 0x19
 1291 053d 54010000 		.4byte	.LASF105
 1292 0541 01       		.byte	0x1
 1293 0542 36       		.byte	0x36
 1294 0543 B8000000 		.4byte	0xb8
 1295 0547 01       		.byte	0x1
 1296 0548 1A       		.uleb128 0x1a
 1297 0549 CE000000 		.4byte	.LASF79
 1298 054d 01       		.byte	0x1
 1299 054e 3C       		.byte	0x3c
 1300 054f 01       		.byte	0x1
ARM GAS  /var/folders/7z/kps_xzfj7sn5l5gkyq8s9db00000gn/T//cc70UF0G.s 			page 24


 1301 0550 74050000 		.4byte	0x574
 1302 0554 1B       		.uleb128 0x1b
 1303 0555 93040000 		.4byte	.LASF81
 1304 0559 01       		.byte	0x1
 1305 055a 3C       		.byte	0x3c
 1306 055b B8000000 		.4byte	0xb8
 1307 055f 1C       		.uleb128 0x1c
 1308 0560 743100   		.ascii	"t1\000"
 1309 0563 01       		.byte	0x1
 1310 0564 3E       		.byte	0x3e
 1311 0565 B8000000 		.4byte	0xb8
 1312 0569 1C       		.uleb128 0x1c
 1313 056a 743200   		.ascii	"t2\000"
 1314 056d 01       		.byte	0x1
 1315 056e 3F       		.byte	0x3f
 1316 056f B8000000 		.4byte	0xb8
 1317 0573 00       		.byte	0
 1318 0574 1A       		.uleb128 0x1a
 1319 0575 95030000 		.4byte	.LASF80
 1320 0579 01       		.byte	0x1
 1321 057a 73       		.byte	0x73
 1322 057b 01       		.byte	0x1
 1323 057c 97050000 		.4byte	0x597
 1324 0580 1B       		.uleb128 0x1b
 1325 0581 60040000 		.4byte	.LASF82
 1326 0585 01       		.byte	0x1
 1327 0586 73       		.byte	0x73
 1328 0587 97050000 		.4byte	0x597
 1329 058b 1D       		.uleb128 0x1d
 1330 058c C7000000 		.4byte	.LASF83
 1331 0590 01       		.byte	0x1
 1332 0591 75       		.byte	0x75
 1333 0592 A2000000 		.4byte	0xa2
 1334 0596 00       		.byte	0
 1335 0597 13       		.uleb128 0x13
 1336 0598 04       		.byte	0x4
 1337 0599 0B020000 		.4byte	0x20b
 1338 059d 1E       		.uleb128 0x1e
 1339 059e 64050000 		.4byte	.LASF84
 1340 05a2 01       		.byte	0x1
 1341 05a3 1D       		.byte	0x1d
 1342 05a4 00000000 		.4byte	.LFB118
 1343 05a8 02000000 		.4byte	.LFE118-.LFB118
 1344 05ac 01       		.uleb128 0x1
 1345 05ad 9C       		.byte	0x9c
 1346 05ae C0050000 		.4byte	0x5c0
 1347 05b2 1F       		.uleb128 0x1f
 1348 05b3 ED020000 		.4byte	.LASF86
 1349 05b7 01       		.byte	0x1
 1350 05b8 1D       		.byte	0x1d
 1351 05b9 A6030000 		.4byte	0x3a6
 1352 05bd 01       		.uleb128 0x1
 1353 05be 50       		.byte	0x50
 1354 05bf 00       		.byte	0
 1355 05c0 1E       		.uleb128 0x1e
 1356 05c1 27040000 		.4byte	.LASF85
 1357 05c5 01       		.byte	0x1
ARM GAS  /var/folders/7z/kps_xzfj7sn5l5gkyq8s9db00000gn/T//cc70UF0G.s 			page 25


 1358 05c6 9E       		.byte	0x9e
 1359 05c7 00000000 		.4byte	.LFB125
 1360 05cb 98000000 		.4byte	.LFE125-.LFB125
 1361 05cf 01       		.uleb128 0x1
 1362 05d0 9C       		.byte	0x9c
 1363 05d1 8A070000 		.4byte	0x78a
 1364 05d5 20       		.uleb128 0x20
 1365 05d6 FD020000 		.4byte	.LASF87
 1366 05da 01       		.byte	0x1
 1367 05db 9E       		.byte	0x9e
 1368 05dc 4C000000 		.4byte	0x4c
 1369 05e0 00000000 		.4byte	.LLST0
 1370 05e4 21       		.uleb128 0x21
 1371 05e5 36040000 		.4byte	.LASF88
 1372 05e9 01       		.byte	0x1
 1373 05ea A0       		.byte	0xa0
 1374 05eb 8A070000 		.4byte	0x78a
 1375 05ef 02       		.uleb128 0x2
 1376 05f0 91       		.byte	0x91
 1377 05f1 76       		.sleb128 -10
 1378 05f2 22       		.uleb128 0x22
 1379 05f3 60040000 		.4byte	.LASF82
 1380 05f7 01       		.byte	0x1
 1381 05f8 A1       		.byte	0xa1
 1382 05f9 97050000 		.4byte	0x597
 1383 05fd 00300140 		.4byte	0x40013000
 1384 0601 23       		.uleb128 0x23
 1385 0602 48050000 		.4byte	0x548
 1386 0606 0C000000 		.4byte	.LBB50
 1387 060a 00000000 		.4byte	.Ldebug_ranges0+0
 1388 060e 01       		.byte	0x1
 1389 060f AE       		.byte	0xae
 1390 0610 4D060000 		.4byte	0x64d
 1391 0614 24       		.uleb128 0x24
 1392 0615 54050000 		.4byte	0x554
 1393 0619 01       		.byte	0x1
 1394 061a 25       		.uleb128 0x25
 1395 061b 00000000 		.4byte	.Ldebug_ranges0+0
 1396 061f 26       		.uleb128 0x26
 1397 0620 5F050000 		.4byte	0x55f
 1398 0624 27       		.uleb128 0x27
 1399 0625 69050000 		.4byte	0x569
 1400 0629 21000000 		.4byte	.LLST1
 1401 062d 28       		.uleb128 0x28
 1402 062e 3C050000 		.4byte	0x53c
 1403 0632 0C000000 		.4byte	.LBB52
 1404 0636 20000000 		.4byte	.Ldebug_ranges0+0x20
 1405 063a 01       		.byte	0x1
 1406 063b 3E       		.byte	0x3e
 1407 063c 29       		.uleb128 0x29
 1408 063d 3C050000 		.4byte	0x53c
 1409 0641 1A000000 		.4byte	.LBB58
 1410 0645 02000000 		.4byte	.LBE58-.LBB58
 1411 0649 01       		.byte	0x1
 1412 064a 3F       		.byte	0x3f
 1413 064b 00       		.byte	0
 1414 064c 00       		.byte	0
ARM GAS  /var/folders/7z/kps_xzfj7sn5l5gkyq8s9db00000gn/T//cc70UF0G.s 			page 26


 1415 064d 2A       		.uleb128 0x2a
 1416 064e 48050000 		.4byte	0x548
 1417 0652 28000000 		.4byte	.LBB64
 1418 0656 08000000 		.4byte	.LBE64-.LBB64
 1419 065a 01       		.byte	0x1
 1420 065b B0       		.byte	0xb0
 1421 065c 9D060000 		.4byte	0x69d
 1422 0660 24       		.uleb128 0x24
 1423 0661 54050000 		.4byte	0x554
 1424 0665 01       		.byte	0x1
 1425 0666 2B       		.uleb128 0x2b
 1426 0667 28000000 		.4byte	.LBB65
 1427 066b 08000000 		.4byte	.LBE65-.LBB65
 1428 066f 26       		.uleb128 0x26
 1429 0670 5F050000 		.4byte	0x55f
 1430 0674 27       		.uleb128 0x27
 1431 0675 69050000 		.4byte	0x569
 1432 0679 34000000 		.4byte	.LLST2
 1433 067d 29       		.uleb128 0x29
 1434 067e 3C050000 		.4byte	0x53c
 1435 0682 28000000 		.4byte	.LBB66
 1436 0686 02000000 		.4byte	.LBE66-.LBB66
 1437 068a 01       		.byte	0x1
 1438 068b 3E       		.byte	0x3e
 1439 068c 29       		.uleb128 0x29
 1440 068d 3C050000 		.4byte	0x53c
 1441 0691 2A000000 		.4byte	.LBB68
 1442 0695 02000000 		.4byte	.LBE68-.LBB68
 1443 0699 01       		.byte	0x1
 1444 069a 3F       		.byte	0x3f
 1445 069b 00       		.byte	0
 1446 069c 00       		.byte	0
 1447 069d 2A       		.uleb128 0x2a
 1448 069e 48050000 		.4byte	0x548
 1449 06a2 52000000 		.4byte	.LBB70
 1450 06a6 08000000 		.4byte	.LBE70-.LBB70
 1451 06aa 01       		.byte	0x1
 1452 06ab BF       		.byte	0xbf
 1453 06ac ED060000 		.4byte	0x6ed
 1454 06b0 24       		.uleb128 0x24
 1455 06b1 54050000 		.4byte	0x554
 1456 06b5 01       		.byte	0x1
 1457 06b6 2B       		.uleb128 0x2b
 1458 06b7 52000000 		.4byte	.LBB71
 1459 06bb 08000000 		.4byte	.LBE71-.LBB71
 1460 06bf 26       		.uleb128 0x26
 1461 06c0 5F050000 		.4byte	0x55f
 1462 06c4 27       		.uleb128 0x27
 1463 06c5 69050000 		.4byte	0x569
 1464 06c9 47000000 		.4byte	.LLST3
 1465 06cd 29       		.uleb128 0x29
 1466 06ce 3C050000 		.4byte	0x53c
 1467 06d2 52000000 		.4byte	.LBB72
 1468 06d6 02000000 		.4byte	.LBE72-.LBB72
 1469 06da 01       		.byte	0x1
 1470 06db 3E       		.byte	0x3e
 1471 06dc 29       		.uleb128 0x29
ARM GAS  /var/folders/7z/kps_xzfj7sn5l5gkyq8s9db00000gn/T//cc70UF0G.s 			page 27


 1472 06dd 3C050000 		.4byte	0x53c
 1473 06e1 54000000 		.4byte	.LBB74
 1474 06e5 02000000 		.4byte	.LBE74-.LBB74
 1475 06e9 01       		.byte	0x1
 1476 06ea 3F       		.byte	0x3f
 1477 06eb 00       		.byte	0
 1478 06ec 00       		.byte	0
 1479 06ed 2A       		.uleb128 0x2a
 1480 06ee 48050000 		.4byte	0x548
 1481 06f2 62000000 		.4byte	.LBB76
 1482 06f6 08000000 		.4byte	.LBE76-.LBB76
 1483 06fa 01       		.byte	0x1
 1484 06fb C2       		.byte	0xc2
 1485 06fc 3D070000 		.4byte	0x73d
 1486 0700 24       		.uleb128 0x24
 1487 0701 54050000 		.4byte	0x554
 1488 0705 01       		.byte	0x1
 1489 0706 2B       		.uleb128 0x2b
 1490 0707 62000000 		.4byte	.LBB77
 1491 070b 08000000 		.4byte	.LBE77-.LBB77
 1492 070f 26       		.uleb128 0x26
 1493 0710 5F050000 		.4byte	0x55f
 1494 0714 27       		.uleb128 0x27
 1495 0715 69050000 		.4byte	0x569
 1496 0719 5A000000 		.4byte	.LLST4
 1497 071d 29       		.uleb128 0x29
 1498 071e 3C050000 		.4byte	0x53c
 1499 0722 62000000 		.4byte	.LBB78
 1500 0726 02000000 		.4byte	.LBE78-.LBB78
 1501 072a 01       		.byte	0x1
 1502 072b 3E       		.byte	0x3e
 1503 072c 29       		.uleb128 0x29
 1504 072d 3C050000 		.4byte	0x53c
 1505 0731 64000000 		.4byte	.LBB80
 1506 0735 02000000 		.4byte	.LBE80-.LBB80
 1507 0739 01       		.byte	0x1
 1508 073a 3F       		.byte	0x3f
 1509 073b 00       		.byte	0
 1510 073c 00       		.byte	0
 1511 073d 2C       		.uleb128 0x2c
 1512 073e 48050000 		.4byte	0x548
 1513 0742 70000000 		.4byte	.LBB82
 1514 0746 08000000 		.4byte	.LBE82-.LBB82
 1515 074a 01       		.byte	0x1
 1516 074b C8       		.byte	0xc8
 1517 074c 24       		.uleb128 0x24
 1518 074d 54050000 		.4byte	0x554
 1519 0751 01       		.byte	0x1
 1520 0752 2B       		.uleb128 0x2b
 1521 0753 70000000 		.4byte	.LBB83
 1522 0757 08000000 		.4byte	.LBE83-.LBB83
 1523 075b 26       		.uleb128 0x26
 1524 075c 5F050000 		.4byte	0x55f
 1525 0760 27       		.uleb128 0x27
 1526 0761 69050000 		.4byte	0x569
 1527 0765 6D000000 		.4byte	.LLST5
 1528 0769 29       		.uleb128 0x29
ARM GAS  /var/folders/7z/kps_xzfj7sn5l5gkyq8s9db00000gn/T//cc70UF0G.s 			page 28


 1529 076a 3C050000 		.4byte	0x53c
 1530 076e 70000000 		.4byte	.LBB84
 1531 0772 02000000 		.4byte	.LBE84-.LBB84
 1532 0776 01       		.byte	0x1
 1533 0777 3E       		.byte	0x3e
 1534 0778 29       		.uleb128 0x29
 1535 0779 3C050000 		.4byte	0x53c
 1536 077d 72000000 		.4byte	.LBB86
 1537 0781 02000000 		.4byte	.LBE86-.LBB86
 1538 0785 01       		.byte	0x1
 1539 0786 3F       		.byte	0x3f
 1540 0787 00       		.byte	0
 1541 0788 00       		.byte	0
 1542 0789 00       		.byte	0
 1543 078a 05       		.uleb128 0x5
 1544 078b 4C000000 		.4byte	0x4c
 1545 078f 2D       		.uleb128 0x2d
 1546 0790 8B040000 		.4byte	.LASF89
 1547 0794 01       		.byte	0x1
 1548 0795 2E       		.byte	0x2e
 1549 0796 00000000 		.4byte	.LFB119
 1550 079a 24000000 		.4byte	.LFE119-.LFB119
 1551 079e 01       		.uleb128 0x1
 1552 079f 9C       		.byte	0x9c
 1553 07a0 D2070000 		.4byte	0x7d2
 1554 07a4 2E       		.uleb128 0x2e
 1555 07a5 0C000000 		.4byte	.LVL18
 1556 07a9 440A0000 		.4byte	0xa44
 1557 07ad C1070000 		.4byte	0x7c1
 1558 07b1 2F       		.uleb128 0x2f
 1559 07b2 01       		.uleb128 0x1
 1560 07b3 51       		.byte	0x51
 1561 07b4 05       		.uleb128 0x5
 1562 07b5 03       		.byte	0x3
 1563 07b6 00000000 		.4byte	.LANCHOR0
 1564 07ba 2F       		.uleb128 0x2f
 1565 07bb 01       		.uleb128 0x1
 1566 07bc 50       		.byte	0x50
 1567 07bd 02       		.uleb128 0x2
 1568 07be 74       		.byte	0x74
 1569 07bf 00       		.sleb128 0
 1570 07c0 00       		.byte	0
 1571 07c1 30       		.uleb128 0x30
 1572 07c2 1A000000 		.4byte	.LVL19
 1573 07c6 5A0A0000 		.4byte	0xa5a
 1574 07ca 2F       		.uleb128 0x2f
 1575 07cb 01       		.uleb128 0x1
 1576 07cc 51       		.byte	0x51
 1577 07cd 02       		.uleb128 0x2
 1578 07ce 09       		.byte	0x9
 1579 07cf FF       		.byte	0xff
 1580 07d0 00       		.byte	0
 1581 07d1 00       		.byte	0
 1582 07d2 31       		.uleb128 0x31
 1583 07d3 3C050000 		.4byte	0x53c
 1584 07d7 00000000 		.4byte	.LFB120
 1585 07db 0C000000 		.4byte	.LFE120-.LFB120
ARM GAS  /var/folders/7z/kps_xzfj7sn5l5gkyq8s9db00000gn/T//cc70UF0G.s 			page 29


 1586 07df 01       		.uleb128 0x1
 1587 07e0 9C       		.byte	0x9c
 1588 07e1 32       		.uleb128 0x32
 1589 07e2 48050000 		.4byte	0x548
 1590 07e6 00000000 		.4byte	.LFB121
 1591 07ea 1C000000 		.4byte	.LFE121-.LFB121
 1592 07ee 01       		.uleb128 0x1
 1593 07ef 9C       		.byte	0x9c
 1594 07f0 37080000 		.4byte	0x837
 1595 07f4 33       		.uleb128 0x33
 1596 07f5 54050000 		.4byte	0x554
 1597 07f9 01       		.uleb128 0x1
 1598 07fa 50       		.byte	0x50
 1599 07fb 26       		.uleb128 0x26
 1600 07fc 5F050000 		.4byte	0x55f
 1601 0800 27       		.uleb128 0x27
 1602 0801 69050000 		.4byte	0x569
 1603 0805 80000000 		.4byte	.LLST6
 1604 0809 29       		.uleb128 0x29
 1605 080a 3C050000 		.4byte	0x53c
 1606 080e 00000000 		.4byte	.LBB88
 1607 0812 06000000 		.4byte	.LBE88-.LBB88
 1608 0816 01       		.byte	0x1
 1609 0817 3E       		.byte	0x3e
 1610 0818 29       		.uleb128 0x29
 1611 0819 3C050000 		.4byte	0x53c
 1612 081d 06000000 		.4byte	.LBB90
 1613 0821 02000000 		.4byte	.LBE90-.LBB90
 1614 0825 01       		.byte	0x1
 1615 0826 3F       		.byte	0x3f
 1616 0827 29       		.uleb128 0x29
 1617 0828 3C050000 		.4byte	0x53c
 1618 082c 0E000000 		.4byte	.LBB92
 1619 0830 02000000 		.4byte	.LBE92-.LBB92
 1620 0834 01       		.byte	0x1
 1621 0835 42       		.byte	0x42
 1622 0836 00       		.byte	0
 1623 0837 2D       		.uleb128 0x2d
 1624 0838 0C030000 		.4byte	.LASF90
 1625 083c 01       		.byte	0x1
 1626 083d 49       		.byte	0x49
 1627 083e 00000000 		.4byte	.LFB122
 1628 0842 68000000 		.4byte	.LFE122-.LFB122
 1629 0846 01       		.uleb128 0x1
 1630 0847 9C       		.byte	0x9c
 1631 0848 19090000 		.4byte	0x919
 1632 084c 2E       		.uleb128 0x2e
 1633 084d 0C000000 		.4byte	.LVL24
 1634 0851 700A0000 		.4byte	0xa70
 1635 0855 66080000 		.4byte	0x866
 1636 0859 2F       		.uleb128 0x2f
 1637 085a 01       		.uleb128 0x1
 1638 085b 51       		.byte	0x51
 1639 085c 01       		.uleb128 0x1
 1640 085d 31       		.byte	0x31
 1641 085e 2F       		.uleb128 0x2f
 1642 085f 01       		.uleb128 0x1
ARM GAS  /var/folders/7z/kps_xzfj7sn5l5gkyq8s9db00000gn/T//cc70UF0G.s 			page 30


 1643 0860 50       		.byte	0x50
 1644 0861 03       		.uleb128 0x3
 1645 0862 0A       		.byte	0xa
 1646 0863 0010     		.2byte	0x1000
 1647 0865 00       		.byte	0
 1648 0866 2E       		.uleb128 0x2e
 1649 0867 1A000000 		.4byte	.LVL25
 1650 086b 870A0000 		.4byte	0xa87
 1651 086f 80080000 		.4byte	0x880
 1652 0873 2F       		.uleb128 0x2f
 1653 0874 01       		.uleb128 0x1
 1654 0875 51       		.byte	0x51
 1655 0876 01       		.uleb128 0x1
 1656 0877 31       		.byte	0x31
 1657 0878 2F       		.uleb128 0x2f
 1658 0879 01       		.uleb128 0x1
 1659 087a 50       		.byte	0x50
 1660 087b 03       		.uleb128 0x3
 1661 087c 0A       		.byte	0xa
 1662 087d 0010     		.2byte	0x1000
 1663 087f 00       		.byte	0
 1664 0880 2E       		.uleb128 0x2e
 1665 0881 24000000 		.4byte	.LVL26
 1666 0885 870A0000 		.4byte	0xa87
 1667 0889 9A080000 		.4byte	0x89a
 1668 088d 2F       		.uleb128 0x2f
 1669 088e 01       		.uleb128 0x1
 1670 088f 51       		.byte	0x51
 1671 0890 01       		.uleb128 0x1
 1672 0891 30       		.byte	0x30
 1673 0892 2F       		.uleb128 0x2f
 1674 0893 01       		.uleb128 0x1
 1675 0894 50       		.byte	0x50
 1676 0895 03       		.uleb128 0x3
 1677 0896 0A       		.byte	0xa
 1678 0897 0010     		.2byte	0x1000
 1679 0899 00       		.byte	0
 1680 089a 2E       		.uleb128 0x2e
 1681 089b 30000000 		.4byte	.LVL27
 1682 089f 9E0A0000 		.4byte	0xa9e
 1683 08a3 BA080000 		.4byte	0x8ba
 1684 08a7 2F       		.uleb128 0x2f
 1685 08a8 01       		.uleb128 0x1
 1686 08a9 52       		.byte	0x52
 1687 08aa 01       		.uleb128 0x1
 1688 08ab 49       		.byte	0x49
 1689 08ac 2F       		.uleb128 0x2f
 1690 08ad 01       		.uleb128 0x1
 1691 08ae 51       		.byte	0x51
 1692 08af 03       		.uleb128 0x3
 1693 08b0 0A       		.byte	0xa
 1694 08b1 0080     		.2byte	0x8000
 1695 08b3 2F       		.uleb128 0x2f
 1696 08b4 01       		.uleb128 0x1
 1697 08b5 50       		.byte	0x50
 1698 08b6 02       		.uleb128 0x2
 1699 08b7 75       		.byte	0x75
ARM GAS  /var/folders/7z/kps_xzfj7sn5l5gkyq8s9db00000gn/T//cc70UF0G.s 			page 31


 1700 08b8 00       		.sleb128 0
 1701 08b9 00       		.byte	0
 1702 08ba 2E       		.uleb128 0x2e
 1703 08bb 3A000000 		.4byte	.LVL28
 1704 08bf 9E0A0000 		.4byte	0xa9e
 1705 08c3 D8080000 		.4byte	0x8d8
 1706 08c7 2F       		.uleb128 0x2f
 1707 08c8 01       		.uleb128 0x1
 1708 08c9 52       		.byte	0x52
 1709 08ca 01       		.uleb128 0x1
 1710 08cb 49       		.byte	0x49
 1711 08cc 2F       		.uleb128 0x2f
 1712 08cd 01       		.uleb128 0x1
 1713 08ce 51       		.byte	0x51
 1714 08cf 01       		.uleb128 0x1
 1715 08d0 40       		.byte	0x40
 1716 08d1 2F       		.uleb128 0x2f
 1717 08d2 01       		.uleb128 0x1
 1718 08d3 50       		.byte	0x50
 1719 08d4 02       		.uleb128 0x2
 1720 08d5 74       		.byte	0x74
 1721 08d6 00       		.sleb128 0
 1722 08d7 00       		.byte	0
 1723 08d8 2E       		.uleb128 0x2e
 1724 08d9 50000000 		.4byte	.LVL29
 1725 08dd 9E0A0000 		.4byte	0xa9e
 1726 08e1 F8080000 		.4byte	0x8f8
 1727 08e5 2F       		.uleb128 0x2f
 1728 08e6 01       		.uleb128 0x1
 1729 08e7 52       		.byte	0x52
 1730 08e8 03       		.uleb128 0x3
 1731 08e9 0A       		.byte	0xa
 1732 08ea 9A02     		.2byte	0x29a
 1733 08ec 2F       		.uleb128 0x2f
 1734 08ed 01       		.uleb128 0x1
 1735 08ee 51       		.byte	0x51
 1736 08ef 01       		.uleb128 0x1
 1737 08f0 38       		.byte	0x38
 1738 08f1 2F       		.uleb128 0x2f
 1739 08f2 01       		.uleb128 0x1
 1740 08f3 50       		.byte	0x50
 1741 08f4 02       		.uleb128 0x2
 1742 08f5 74       		.byte	0x74
 1743 08f6 00       		.sleb128 0
 1744 08f7 00       		.byte	0
 1745 08f8 30       		.uleb128 0x30
 1746 08f9 60000000 		.4byte	.LVL30
 1747 08fd 9E0A0000 		.4byte	0xa9e
 1748 0901 2F       		.uleb128 0x2f
 1749 0902 01       		.uleb128 0x1
 1750 0903 52       		.byte	0x52
 1751 0904 03       		.uleb128 0x3
 1752 0905 0A       		.byte	0xa
 1753 0906 BA02     		.2byte	0x2ba
 1754 0908 2F       		.uleb128 0x2f
 1755 0909 01       		.uleb128 0x1
 1756 090a 51       		.byte	0x51
ARM GAS  /var/folders/7z/kps_xzfj7sn5l5gkyq8s9db00000gn/T//cc70UF0G.s 			page 32


 1757 090b 02       		.uleb128 0x2
 1758 090c 08       		.byte	0x8
 1759 090d 20       		.byte	0x20
 1760 090e 2F       		.uleb128 0x2f
 1761 090f 01       		.uleb128 0x1
 1762 0910 50       		.byte	0x50
 1763 0911 05       		.uleb128 0x5
 1764 0912 0C       		.byte	0xc
 1765 0913 00040240 		.4byte	0x40020400
 1766 0917 00       		.byte	0
 1767 0918 00       		.byte	0
 1768 0919 32       		.uleb128 0x32
 1769 091a 74050000 		.4byte	0x574
 1770 091e 00000000 		.4byte	.LFB123
 1771 0922 16000000 		.4byte	.LFE123-.LFB123
 1772 0926 01       		.uleb128 0x1
 1773 0927 9C       		.byte	0x9c
 1774 0928 3B090000 		.4byte	0x93b
 1775 092c 33       		.uleb128 0x33
 1776 092d 80050000 		.4byte	0x580
 1777 0931 01       		.uleb128 0x1
 1778 0932 50       		.byte	0x50
 1779 0933 34       		.uleb128 0x34
 1780 0934 8B050000 		.4byte	0x58b
 1781 0938 2708     		.2byte	0x827
 1782 093a 00       		.byte	0
 1783 093b 2D       		.uleb128 0x2d
 1784 093c B5030000 		.4byte	.LASF91
 1785 0940 01       		.byte	0x1
 1786 0941 96       		.byte	0x96
 1787 0942 00000000 		.4byte	.LFB124
 1788 0946 28000000 		.4byte	.LFE124-.LFB124
 1789 094a 01       		.uleb128 0x1
 1790 094b 9C       		.byte	0x9c
 1791 094c 91090000 		.4byte	0x991
 1792 0950 2A       		.uleb128 0x2a
 1793 0951 74050000 		.4byte	0x574
 1794 0955 0A000000 		.4byte	.LBB94
 1795 0959 1E000000 		.4byte	.LBE94-.LBB94
 1796 095d 01       		.byte	0x1
 1797 095e 9B       		.byte	0x9b
 1798 095f 7E090000 		.4byte	0x97e
 1799 0963 35       		.uleb128 0x35
 1800 0964 80050000 		.4byte	0x580
 1801 0968 00300140 		.4byte	0x40013000
 1802 096c 2B       		.uleb128 0x2b
 1803 096d 0A000000 		.4byte	.LBB95
 1804 0971 1E000000 		.4byte	.LBE95-.LBB95
 1805 0975 34       		.uleb128 0x34
 1806 0976 8B050000 		.4byte	0x58b
 1807 097a 2708     		.2byte	0x827
 1808 097c 00       		.byte	0
 1809 097d 00       		.byte	0
 1810 097e 36       		.uleb128 0x36
 1811 097f 06000000 		.4byte	.LVL32
 1812 0983 37080000 		.4byte	0x837
 1813 0987 36       		.uleb128 0x36
ARM GAS  /var/folders/7z/kps_xzfj7sn5l5gkyq8s9db00000gn/T//cc70UF0G.s 			page 33


 1814 0988 0A000000 		.4byte	.LVL33
 1815 098c 8F070000 		.4byte	0x78f
 1816 0990 00       		.byte	0
 1817 0991 2D       		.uleb128 0x2d
 1818 0992 23050000 		.4byte	.LASF92
 1819 0996 01       		.byte	0x1
 1820 0997 CE       		.byte	0xce
 1821 0998 00000000 		.4byte	.LFB126
 1822 099c 08000000 		.4byte	.LFE126-.LFB126
 1823 09a0 01       		.uleb128 0x1
 1824 09a1 9C       		.byte	0x9c
 1825 09a2 BF090000 		.4byte	0x9bf
 1826 09a6 20       		.uleb128 0x20
 1827 09a7 FD020000 		.4byte	.LASF87
 1828 09ab 01       		.byte	0x1
 1829 09ac CE       		.byte	0xce
 1830 09ad 4C000000 		.4byte	0x4c
 1831 09b1 93000000 		.4byte	.LLST7
 1832 09b5 37       		.uleb128 0x37
 1833 09b6 08000000 		.4byte	.LVL36
 1834 09ba C0050000 		.4byte	0x5c0
 1835 09be 00       		.byte	0
 1836 09bf 2D       		.uleb128 0x2d
 1837 09c0 40040000 		.4byte	.LASF93
 1838 09c4 01       		.byte	0x1
 1839 09c5 D3       		.byte	0xd3
 1840 09c6 00000000 		.4byte	.LFB127
 1841 09ca 0C000000 		.4byte	.LFE127-.LFB127
 1842 09ce 01       		.uleb128 0x1
 1843 09cf 9C       		.byte	0x9c
 1844 09d0 ED090000 		.4byte	0x9ed
 1845 09d4 20       		.uleb128 0x20
 1846 09d5 FD020000 		.4byte	.LASF87
 1847 09d9 01       		.byte	0x1
 1848 09da D3       		.byte	0xd3
 1849 09db 4C000000 		.4byte	0x4c
 1850 09df C9000000 		.4byte	.LLST8
 1851 09e3 37       		.uleb128 0x37
 1852 09e4 0C000000 		.4byte	.LVL39
 1853 09e8 C0050000 		.4byte	0x5c0
 1854 09ec 00       		.byte	0
 1855 09ed 2D       		.uleb128 0x2d
 1856 09ee 50040000 		.4byte	.LASF94
 1857 09f2 01       		.byte	0x1
 1858 09f3 D8       		.byte	0xd8
 1859 09f4 00000000 		.4byte	.LFB128
 1860 09f8 0C000000 		.4byte	.LFE128-.LFB128
 1861 09fc 01       		.uleb128 0x1
 1862 09fd 9C       		.byte	0x9c
 1863 09fe 1B0A0000 		.4byte	0xa1b
 1864 0a02 20       		.uleb128 0x20
 1865 0a03 FD020000 		.4byte	.LASF87
 1866 0a07 01       		.byte	0x1
 1867 0a08 D8       		.byte	0xd8
 1868 0a09 4C000000 		.4byte	0x4c
 1869 0a0d FF000000 		.4byte	.LLST9
 1870 0a11 37       		.uleb128 0x37
ARM GAS  /var/folders/7z/kps_xzfj7sn5l5gkyq8s9db00000gn/T//cc70UF0G.s 			page 34


 1871 0a12 0C000000 		.4byte	.LVL42
 1872 0a16 C0050000 		.4byte	0x5c0
 1873 0a1a 00       		.byte	0
 1874 0a1b 21       		.uleb128 0x21
 1875 0a1c C1010000 		.4byte	.LASF95
 1876 0a20 01       		.byte	0x1
 1877 0a21 25       		.byte	0x25
 1878 0a22 31050000 		.4byte	0x531
 1879 0a26 05       		.uleb128 0x5
 1880 0a27 03       		.byte	0x3
 1881 0a28 00000000 		.4byte	gpt_cfg
 1882 0a2c 38       		.uleb128 0x38
 1883 0a2d 72000000 		.4byte	.LASF96
 1884 0a31 09       		.byte	0x9
 1885 0a32 9806     		.2byte	0x698
 1886 0a34 F2000000 		.4byte	0xf2
 1887 0a38 38       		.uleb128 0x38
 1888 0a39 2A010000 		.4byte	.LASF97
 1889 0a3d 07       		.byte	0x7
 1890 0a3e D001     		.2byte	0x1d0
 1891 0a40 3D030000 		.4byte	0x33d
 1892 0a44 39       		.uleb128 0x39
 1893 0a45 34050000 		.4byte	.LASF98
 1894 0a49 06       		.byte	0x6
 1895 0a4a 70       		.byte	0x70
 1896 0a4b 5A0A0000 		.4byte	0xa5a
 1897 0a4f 17       		.uleb128 0x17
 1898 0a50 A6030000 		.4byte	0x3a6
 1899 0a54 17       		.uleb128 0x17
 1900 0a55 2B050000 		.4byte	0x52b
 1901 0a59 00       		.byte	0
 1902 0a5a 39       		.uleb128 0x39
 1903 0a5b 32030000 		.4byte	.LASF99
 1904 0a5f 06       		.byte	0x6
 1905 0a60 72       		.byte	0x72
 1906 0a61 700A0000 		.4byte	0xa70
 1907 0a65 17       		.uleb128 0x17
 1908 0a66 A6030000 		.4byte	0x3a6
 1909 0a6a 17       		.uleb128 0x17
 1910 0a6b E2040000 		.4byte	0x4e2
 1911 0a6f 00       		.byte	0
 1912 0a70 3A       		.uleb128 0x3a
 1913 0a71 AB040000 		.4byte	.LASF100
 1914 0a75 0A       		.byte	0xa
 1915 0a76 E101     		.2byte	0x1e1
 1916 0a78 870A0000 		.4byte	0xa87
 1917 0a7c 17       		.uleb128 0x17
 1918 0a7d B8000000 		.4byte	0xb8
 1919 0a81 17       		.uleb128 0x17
 1920 0a82 0D010000 		.4byte	0x10d
 1921 0a86 00       		.byte	0
 1922 0a87 3A       		.uleb128 0x3a
 1923 0a88 74030000 		.4byte	.LASF101
 1924 0a8c 0A       		.byte	0xa
 1925 0a8d E701     		.2byte	0x1e7
 1926 0a8f 9E0A0000 		.4byte	0xa9e
 1927 0a93 17       		.uleb128 0x17
ARM GAS  /var/folders/7z/kps_xzfj7sn5l5gkyq8s9db00000gn/T//cc70UF0G.s 			page 35


 1928 0a94 B8000000 		.4byte	0xb8
 1929 0a98 17       		.uleb128 0x17
 1930 0a99 0D010000 		.4byte	0x10d
 1931 0a9d 00       		.byte	0
 1932 0a9e 3B       		.uleb128 0x3b
 1933 0a9f FB040000 		.4byte	.LASF106
 1934 0aa3 05       		.byte	0x5
 1935 0aa4 C201     		.2byte	0x1c2
 1936 0aa6 17       		.uleb128 0x17
 1937 0aa7 FA020000 		.4byte	0x2fa
 1938 0aab 17       		.uleb128 0x17
 1939 0aac E4020000 		.4byte	0x2e4
 1940 0ab0 17       		.uleb128 0x17
 1941 0ab1 EF020000 		.4byte	0x2ef
 1942 0ab5 00       		.byte	0
 1943 0ab6 00       		.byte	0
 1944              		.section	.debug_abbrev,"",%progbits
 1945              	.Ldebug_abbrev0:
 1946 0000 01       		.uleb128 0x1
 1947 0001 11       		.uleb128 0x11
 1948 0002 01       		.byte	0x1
 1949 0003 25       		.uleb128 0x25
 1950 0004 0E       		.uleb128 0xe
 1951 0005 13       		.uleb128 0x13
 1952 0006 0B       		.uleb128 0xb
 1953 0007 03       		.uleb128 0x3
 1954 0008 0E       		.uleb128 0xe
 1955 0009 1B       		.uleb128 0x1b
 1956 000a 0E       		.uleb128 0xe
 1957 000b 55       		.uleb128 0x55
 1958 000c 17       		.uleb128 0x17
 1959 000d 11       		.uleb128 0x11
 1960 000e 01       		.uleb128 0x1
 1961 000f 10       		.uleb128 0x10
 1962 0010 17       		.uleb128 0x17
 1963 0011 00       		.byte	0
 1964 0012 00       		.byte	0
 1965 0013 02       		.uleb128 0x2
 1966 0014 24       		.uleb128 0x24
 1967 0015 00       		.byte	0
 1968 0016 0B       		.uleb128 0xb
 1969 0017 0B       		.uleb128 0xb
 1970 0018 3E       		.uleb128 0x3e
 1971 0019 0B       		.uleb128 0xb
 1972 001a 03       		.uleb128 0x3
 1973 001b 08       		.uleb128 0x8
 1974 001c 00       		.byte	0
 1975 001d 00       		.byte	0
 1976 001e 03       		.uleb128 0x3
 1977 001f 24       		.uleb128 0x24
 1978 0020 00       		.byte	0
 1979 0021 0B       		.uleb128 0xb
 1980 0022 0B       		.uleb128 0xb
 1981 0023 3E       		.uleb128 0x3e
 1982 0024 0B       		.uleb128 0xb
 1983 0025 03       		.uleb128 0x3
 1984 0026 0E       		.uleb128 0xe
ARM GAS  /var/folders/7z/kps_xzfj7sn5l5gkyq8s9db00000gn/T//cc70UF0G.s 			page 36


 1985 0027 00       		.byte	0
 1986 0028 00       		.byte	0
 1987 0029 04       		.uleb128 0x4
 1988 002a 16       		.uleb128 0x16
 1989 002b 00       		.byte	0
 1990 002c 03       		.uleb128 0x3
 1991 002d 0E       		.uleb128 0xe
 1992 002e 3A       		.uleb128 0x3a
 1993 002f 0B       		.uleb128 0xb
 1994 0030 3B       		.uleb128 0x3b
 1995 0031 0B       		.uleb128 0xb
 1996 0032 49       		.uleb128 0x49
 1997 0033 13       		.uleb128 0x13
 1998 0034 00       		.byte	0
 1999 0035 00       		.byte	0
 2000 0036 05       		.uleb128 0x5
 2001 0037 35       		.uleb128 0x35
 2002 0038 00       		.byte	0
 2003 0039 49       		.uleb128 0x49
 2004 003a 13       		.uleb128 0x13
 2005 003b 00       		.byte	0
 2006 003c 00       		.byte	0
 2007 003d 06       		.uleb128 0x6
 2008 003e 01       		.uleb128 0x1
 2009 003f 01       		.byte	0x1
 2010 0040 49       		.uleb128 0x49
 2011 0041 13       		.uleb128 0x13
 2012 0042 01       		.uleb128 0x1
 2013 0043 13       		.uleb128 0x13
 2014 0044 00       		.byte	0
 2015 0045 00       		.byte	0
 2016 0046 07       		.uleb128 0x7
 2017 0047 21       		.uleb128 0x21
 2018 0048 00       		.byte	0
 2019 0049 49       		.uleb128 0x49
 2020 004a 13       		.uleb128 0x13
 2021 004b 2F       		.uleb128 0x2f
 2022 004c 0B       		.uleb128 0xb
 2023 004d 00       		.byte	0
 2024 004e 00       		.byte	0
 2025 004f 08       		.uleb128 0x8
 2026 0050 04       		.uleb128 0x4
 2027 0051 01       		.byte	0x1
 2028 0052 0B       		.uleb128 0xb
 2029 0053 0B       		.uleb128 0xb
 2030 0054 3A       		.uleb128 0x3a
 2031 0055 0B       		.uleb128 0xb
 2032 0056 3B       		.uleb128 0x3b
 2033 0057 05       		.uleb128 0x5
 2034 0058 01       		.uleb128 0x1
 2035 0059 13       		.uleb128 0x13
 2036 005a 00       		.byte	0
 2037 005b 00       		.byte	0
 2038 005c 09       		.uleb128 0x9
 2039 005d 28       		.uleb128 0x28
 2040 005e 00       		.byte	0
 2041 005f 03       		.uleb128 0x3
ARM GAS  /var/folders/7z/kps_xzfj7sn5l5gkyq8s9db00000gn/T//cc70UF0G.s 			page 37


 2042 0060 0E       		.uleb128 0xe
 2043 0061 1C       		.uleb128 0x1c
 2044 0062 0D       		.uleb128 0xd
 2045 0063 00       		.byte	0
 2046 0064 00       		.byte	0
 2047 0065 0A       		.uleb128 0xa
 2048 0066 16       		.uleb128 0x16
 2049 0067 00       		.byte	0
 2050 0068 03       		.uleb128 0x3
 2051 0069 0E       		.uleb128 0xe
 2052 006a 3A       		.uleb128 0x3a
 2053 006b 0B       		.uleb128 0xb
 2054 006c 3B       		.uleb128 0x3b
 2055 006d 05       		.uleb128 0x5
 2056 006e 49       		.uleb128 0x49
 2057 006f 13       		.uleb128 0x13
 2058 0070 00       		.byte	0
 2059 0071 00       		.byte	0
 2060 0072 0B       		.uleb128 0xb
 2061 0073 13       		.uleb128 0x13
 2062 0074 01       		.byte	0x1
 2063 0075 0B       		.uleb128 0xb
 2064 0076 0B       		.uleb128 0xb
 2065 0077 3A       		.uleb128 0x3a
 2066 0078 0B       		.uleb128 0xb
 2067 0079 3B       		.uleb128 0x3b
 2068 007a 05       		.uleb128 0x5
 2069 007b 01       		.uleb128 0x1
 2070 007c 13       		.uleb128 0x13
 2071 007d 00       		.byte	0
 2072 007e 00       		.byte	0
 2073 007f 0C       		.uleb128 0xc
 2074 0080 0D       		.uleb128 0xd
 2075 0081 00       		.byte	0
 2076 0082 03       		.uleb128 0x3
 2077 0083 08       		.uleb128 0x8
 2078 0084 3A       		.uleb128 0x3a
 2079 0085 0B       		.uleb128 0xb
 2080 0086 3B       		.uleb128 0x3b
 2081 0087 05       		.uleb128 0x5
 2082 0088 49       		.uleb128 0x49
 2083 0089 13       		.uleb128 0x13
 2084 008a 38       		.uleb128 0x38
 2085 008b 0B       		.uleb128 0xb
 2086 008c 00       		.byte	0
 2087 008d 00       		.byte	0
 2088 008e 0D       		.uleb128 0xd
 2089 008f 0D       		.uleb128 0xd
 2090 0090 00       		.byte	0
 2091 0091 03       		.uleb128 0x3
 2092 0092 0E       		.uleb128 0xe
 2093 0093 3A       		.uleb128 0x3a
 2094 0094 0B       		.uleb128 0xb
 2095 0095 3B       		.uleb128 0x3b
 2096 0096 05       		.uleb128 0x5
 2097 0097 49       		.uleb128 0x49
 2098 0098 13       		.uleb128 0x13
ARM GAS  /var/folders/7z/kps_xzfj7sn5l5gkyq8s9db00000gn/T//cc70UF0G.s 			page 38


 2099 0099 38       		.uleb128 0x38
 2100 009a 0B       		.uleb128 0xb
 2101 009b 00       		.byte	0
 2102 009c 00       		.byte	0
 2103 009d 0E       		.uleb128 0xe
 2104 009e 13       		.uleb128 0x13
 2105 009f 01       		.byte	0x1
 2106 00a0 0B       		.uleb128 0xb
 2107 00a1 0B       		.uleb128 0xb
 2108 00a2 3A       		.uleb128 0x3a
 2109 00a3 0B       		.uleb128 0xb
 2110 00a4 3B       		.uleb128 0x3b
 2111 00a5 0B       		.uleb128 0xb
 2112 00a6 01       		.uleb128 0x1
 2113 00a7 13       		.uleb128 0x13
 2114 00a8 00       		.byte	0
 2115 00a9 00       		.byte	0
 2116 00aa 0F       		.uleb128 0xf
 2117 00ab 0D       		.uleb128 0xd
 2118 00ac 00       		.byte	0
 2119 00ad 03       		.uleb128 0x3
 2120 00ae 08       		.uleb128 0x8
 2121 00af 3A       		.uleb128 0x3a
 2122 00b0 0B       		.uleb128 0xb
 2123 00b1 3B       		.uleb128 0x3b
 2124 00b2 0B       		.uleb128 0xb
 2125 00b3 49       		.uleb128 0x49
 2126 00b4 13       		.uleb128 0x13
 2127 00b5 38       		.uleb128 0x38
 2128 00b6 0B       		.uleb128 0xb
 2129 00b7 00       		.byte	0
 2130 00b8 00       		.byte	0
 2131 00b9 10       		.uleb128 0x10
 2132 00ba 0D       		.uleb128 0xd
 2133 00bb 00       		.byte	0
 2134 00bc 03       		.uleb128 0x3
 2135 00bd 0E       		.uleb128 0xe
 2136 00be 3A       		.uleb128 0x3a
 2137 00bf 0B       		.uleb128 0xb
 2138 00c0 3B       		.uleb128 0x3b
 2139 00c1 0B       		.uleb128 0xb
 2140 00c2 49       		.uleb128 0x49
 2141 00c3 13       		.uleb128 0x13
 2142 00c4 38       		.uleb128 0x38
 2143 00c5 0B       		.uleb128 0xb
 2144 00c6 00       		.byte	0
 2145 00c7 00       		.byte	0
 2146 00c8 11       		.uleb128 0x11
 2147 00c9 17       		.uleb128 0x17
 2148 00ca 01       		.byte	0x1
 2149 00cb 0B       		.uleb128 0xb
 2150 00cc 0B       		.uleb128 0xb
 2151 00cd 3A       		.uleb128 0x3a
 2152 00ce 0B       		.uleb128 0xb
 2153 00cf 3B       		.uleb128 0x3b
 2154 00d0 0B       		.uleb128 0xb
 2155 00d1 01       		.uleb128 0x1
ARM GAS  /var/folders/7z/kps_xzfj7sn5l5gkyq8s9db00000gn/T//cc70UF0G.s 			page 39


 2156 00d2 13       		.uleb128 0x13
 2157 00d3 00       		.byte	0
 2158 00d4 00       		.byte	0
 2159 00d5 12       		.uleb128 0x12
 2160 00d6 0D       		.uleb128 0xd
 2161 00d7 00       		.byte	0
 2162 00d8 03       		.uleb128 0x3
 2163 00d9 08       		.uleb128 0x8
 2164 00da 3A       		.uleb128 0x3a
 2165 00db 0B       		.uleb128 0xb
 2166 00dc 3B       		.uleb128 0x3b
 2167 00dd 0B       		.uleb128 0xb
 2168 00de 49       		.uleb128 0x49
 2169 00df 13       		.uleb128 0x13
 2170 00e0 00       		.byte	0
 2171 00e1 00       		.byte	0
 2172 00e2 13       		.uleb128 0x13
 2173 00e3 0F       		.uleb128 0xf
 2174 00e4 00       		.byte	0
 2175 00e5 0B       		.uleb128 0xb
 2176 00e6 0B       		.uleb128 0xb
 2177 00e7 49       		.uleb128 0x49
 2178 00e8 13       		.uleb128 0x13
 2179 00e9 00       		.byte	0
 2180 00ea 00       		.byte	0
 2181 00eb 14       		.uleb128 0x14
 2182 00ec 04       		.uleb128 0x4
 2183 00ed 01       		.byte	0x1
 2184 00ee 0B       		.uleb128 0xb
 2185 00ef 0B       		.uleb128 0xb
 2186 00f0 3A       		.uleb128 0x3a
 2187 00f1 0B       		.uleb128 0xb
 2188 00f2 3B       		.uleb128 0x3b
 2189 00f3 0B       		.uleb128 0xb
 2190 00f4 01       		.uleb128 0x1
 2191 00f5 13       		.uleb128 0x13
 2192 00f6 00       		.byte	0
 2193 00f7 00       		.byte	0
 2194 00f8 15       		.uleb128 0x15
 2195 00f9 13       		.uleb128 0x13
 2196 00fa 01       		.byte	0x1
 2197 00fb 03       		.uleb128 0x3
 2198 00fc 0E       		.uleb128 0xe
 2199 00fd 0B       		.uleb128 0xb
 2200 00fe 0B       		.uleb128 0xb
 2201 00ff 3A       		.uleb128 0x3a
 2202 0100 0B       		.uleb128 0xb
 2203 0101 3B       		.uleb128 0x3b
 2204 0102 05       		.uleb128 0x5
 2205 0103 01       		.uleb128 0x1
 2206 0104 13       		.uleb128 0x13
 2207 0105 00       		.byte	0
 2208 0106 00       		.byte	0
 2209 0107 16       		.uleb128 0x16
 2210 0108 15       		.uleb128 0x15
 2211 0109 01       		.byte	0x1
 2212 010a 27       		.uleb128 0x27
ARM GAS  /var/folders/7z/kps_xzfj7sn5l5gkyq8s9db00000gn/T//cc70UF0G.s 			page 40


 2213 010b 19       		.uleb128 0x19
 2214 010c 01       		.uleb128 0x1
 2215 010d 13       		.uleb128 0x13
 2216 010e 00       		.byte	0
 2217 010f 00       		.byte	0
 2218 0110 17       		.uleb128 0x17
 2219 0111 05       		.uleb128 0x5
 2220 0112 00       		.byte	0
 2221 0113 49       		.uleb128 0x49
 2222 0114 13       		.uleb128 0x13
 2223 0115 00       		.byte	0
 2224 0116 00       		.byte	0
 2225 0117 18       		.uleb128 0x18
 2226 0118 26       		.uleb128 0x26
 2227 0119 00       		.byte	0
 2228 011a 49       		.uleb128 0x49
 2229 011b 13       		.uleb128 0x13
 2230 011c 00       		.byte	0
 2231 011d 00       		.byte	0
 2232 011e 19       		.uleb128 0x19
 2233 011f 2E       		.uleb128 0x2e
 2234 0120 00       		.byte	0
 2235 0121 3F       		.uleb128 0x3f
 2236 0122 19       		.uleb128 0x19
 2237 0123 03       		.uleb128 0x3
 2238 0124 0E       		.uleb128 0xe
 2239 0125 3A       		.uleb128 0x3a
 2240 0126 0B       		.uleb128 0xb
 2241 0127 3B       		.uleb128 0x3b
 2242 0128 0B       		.uleb128 0xb
 2243 0129 27       		.uleb128 0x27
 2244 012a 19       		.uleb128 0x19
 2245 012b 49       		.uleb128 0x49
 2246 012c 13       		.uleb128 0x13
 2247 012d 20       		.uleb128 0x20
 2248 012e 0B       		.uleb128 0xb
 2249 012f 00       		.byte	0
 2250 0130 00       		.byte	0
 2251 0131 1A       		.uleb128 0x1a
 2252 0132 2E       		.uleb128 0x2e
 2253 0133 01       		.byte	0x1
 2254 0134 3F       		.uleb128 0x3f
 2255 0135 19       		.uleb128 0x19
 2256 0136 03       		.uleb128 0x3
 2257 0137 0E       		.uleb128 0xe
 2258 0138 3A       		.uleb128 0x3a
 2259 0139 0B       		.uleb128 0xb
 2260 013a 3B       		.uleb128 0x3b
 2261 013b 0B       		.uleb128 0xb
 2262 013c 27       		.uleb128 0x27
 2263 013d 19       		.uleb128 0x19
 2264 013e 20       		.uleb128 0x20
 2265 013f 0B       		.uleb128 0xb
 2266 0140 01       		.uleb128 0x1
 2267 0141 13       		.uleb128 0x13
 2268 0142 00       		.byte	0
 2269 0143 00       		.byte	0
ARM GAS  /var/folders/7z/kps_xzfj7sn5l5gkyq8s9db00000gn/T//cc70UF0G.s 			page 41


 2270 0144 1B       		.uleb128 0x1b
 2271 0145 05       		.uleb128 0x5
 2272 0146 00       		.byte	0
 2273 0147 03       		.uleb128 0x3
 2274 0148 0E       		.uleb128 0xe
 2275 0149 3A       		.uleb128 0x3a
 2276 014a 0B       		.uleb128 0xb
 2277 014b 3B       		.uleb128 0x3b
 2278 014c 0B       		.uleb128 0xb
 2279 014d 49       		.uleb128 0x49
 2280 014e 13       		.uleb128 0x13
 2281 014f 00       		.byte	0
 2282 0150 00       		.byte	0
 2283 0151 1C       		.uleb128 0x1c
 2284 0152 34       		.uleb128 0x34
 2285 0153 00       		.byte	0
 2286 0154 03       		.uleb128 0x3
 2287 0155 08       		.uleb128 0x8
 2288 0156 3A       		.uleb128 0x3a
 2289 0157 0B       		.uleb128 0xb
 2290 0158 3B       		.uleb128 0x3b
 2291 0159 0B       		.uleb128 0xb
 2292 015a 49       		.uleb128 0x49
 2293 015b 13       		.uleb128 0x13
 2294 015c 00       		.byte	0
 2295 015d 00       		.byte	0
 2296 015e 1D       		.uleb128 0x1d
 2297 015f 34       		.uleb128 0x34
 2298 0160 00       		.byte	0
 2299 0161 03       		.uleb128 0x3
 2300 0162 0E       		.uleb128 0xe
 2301 0163 3A       		.uleb128 0x3a
 2302 0164 0B       		.uleb128 0xb
 2303 0165 3B       		.uleb128 0x3b
 2304 0166 0B       		.uleb128 0xb
 2305 0167 49       		.uleb128 0x49
 2306 0168 13       		.uleb128 0x13
 2307 0169 00       		.byte	0
 2308 016a 00       		.byte	0
 2309 016b 1E       		.uleb128 0x1e
 2310 016c 2E       		.uleb128 0x2e
 2311 016d 01       		.byte	0x1
 2312 016e 03       		.uleb128 0x3
 2313 016f 0E       		.uleb128 0xe
 2314 0170 3A       		.uleb128 0x3a
 2315 0171 0B       		.uleb128 0xb
 2316 0172 3B       		.uleb128 0x3b
 2317 0173 0B       		.uleb128 0xb
 2318 0174 27       		.uleb128 0x27
 2319 0175 19       		.uleb128 0x19
 2320 0176 11       		.uleb128 0x11
 2321 0177 01       		.uleb128 0x1
 2322 0178 12       		.uleb128 0x12
 2323 0179 06       		.uleb128 0x6
 2324 017a 40       		.uleb128 0x40
 2325 017b 18       		.uleb128 0x18
 2326 017c 9742     		.uleb128 0x2117
ARM GAS  /var/folders/7z/kps_xzfj7sn5l5gkyq8s9db00000gn/T//cc70UF0G.s 			page 42


 2327 017e 19       		.uleb128 0x19
 2328 017f 01       		.uleb128 0x1
 2329 0180 13       		.uleb128 0x13
 2330 0181 00       		.byte	0
 2331 0182 00       		.byte	0
 2332 0183 1F       		.uleb128 0x1f
 2333 0184 05       		.uleb128 0x5
 2334 0185 00       		.byte	0
 2335 0186 03       		.uleb128 0x3
 2336 0187 0E       		.uleb128 0xe
 2337 0188 3A       		.uleb128 0x3a
 2338 0189 0B       		.uleb128 0xb
 2339 018a 3B       		.uleb128 0x3b
 2340 018b 0B       		.uleb128 0xb
 2341 018c 49       		.uleb128 0x49
 2342 018d 13       		.uleb128 0x13
 2343 018e 02       		.uleb128 0x2
 2344 018f 18       		.uleb128 0x18
 2345 0190 00       		.byte	0
 2346 0191 00       		.byte	0
 2347 0192 20       		.uleb128 0x20
 2348 0193 05       		.uleb128 0x5
 2349 0194 00       		.byte	0
 2350 0195 03       		.uleb128 0x3
 2351 0196 0E       		.uleb128 0xe
 2352 0197 3A       		.uleb128 0x3a
 2353 0198 0B       		.uleb128 0xb
 2354 0199 3B       		.uleb128 0x3b
 2355 019a 0B       		.uleb128 0xb
 2356 019b 49       		.uleb128 0x49
 2357 019c 13       		.uleb128 0x13
 2358 019d 02       		.uleb128 0x2
 2359 019e 17       		.uleb128 0x17
 2360 019f 00       		.byte	0
 2361 01a0 00       		.byte	0
 2362 01a1 21       		.uleb128 0x21
 2363 01a2 34       		.uleb128 0x34
 2364 01a3 00       		.byte	0
 2365 01a4 03       		.uleb128 0x3
 2366 01a5 0E       		.uleb128 0xe
 2367 01a6 3A       		.uleb128 0x3a
 2368 01a7 0B       		.uleb128 0xb
 2369 01a8 3B       		.uleb128 0x3b
 2370 01a9 0B       		.uleb128 0xb
 2371 01aa 49       		.uleb128 0x49
 2372 01ab 13       		.uleb128 0x13
 2373 01ac 02       		.uleb128 0x2
 2374 01ad 18       		.uleb128 0x18
 2375 01ae 00       		.byte	0
 2376 01af 00       		.byte	0
 2377 01b0 22       		.uleb128 0x22
 2378 01b1 34       		.uleb128 0x34
 2379 01b2 00       		.byte	0
 2380 01b3 03       		.uleb128 0x3
 2381 01b4 0E       		.uleb128 0xe
 2382 01b5 3A       		.uleb128 0x3a
 2383 01b6 0B       		.uleb128 0xb
ARM GAS  /var/folders/7z/kps_xzfj7sn5l5gkyq8s9db00000gn/T//cc70UF0G.s 			page 43


 2384 01b7 3B       		.uleb128 0x3b
 2385 01b8 0B       		.uleb128 0xb
 2386 01b9 49       		.uleb128 0x49
 2387 01ba 13       		.uleb128 0x13
 2388 01bb 1C       		.uleb128 0x1c
 2389 01bc 06       		.uleb128 0x6
 2390 01bd 00       		.byte	0
 2391 01be 00       		.byte	0
 2392 01bf 23       		.uleb128 0x23
 2393 01c0 1D       		.uleb128 0x1d
 2394 01c1 01       		.byte	0x1
 2395 01c2 31       		.uleb128 0x31
 2396 01c3 13       		.uleb128 0x13
 2397 01c4 52       		.uleb128 0x52
 2398 01c5 01       		.uleb128 0x1
 2399 01c6 55       		.uleb128 0x55
 2400 01c7 17       		.uleb128 0x17
 2401 01c8 58       		.uleb128 0x58
 2402 01c9 0B       		.uleb128 0xb
 2403 01ca 59       		.uleb128 0x59
 2404 01cb 0B       		.uleb128 0xb
 2405 01cc 01       		.uleb128 0x1
 2406 01cd 13       		.uleb128 0x13
 2407 01ce 00       		.byte	0
 2408 01cf 00       		.byte	0
 2409 01d0 24       		.uleb128 0x24
 2410 01d1 05       		.uleb128 0x5
 2411 01d2 00       		.byte	0
 2412 01d3 31       		.uleb128 0x31
 2413 01d4 13       		.uleb128 0x13
 2414 01d5 1C       		.uleb128 0x1c
 2415 01d6 0B       		.uleb128 0xb
 2416 01d7 00       		.byte	0
 2417 01d8 00       		.byte	0
 2418 01d9 25       		.uleb128 0x25
 2419 01da 0B       		.uleb128 0xb
 2420 01db 01       		.byte	0x1
 2421 01dc 55       		.uleb128 0x55
 2422 01dd 17       		.uleb128 0x17
 2423 01de 00       		.byte	0
 2424 01df 00       		.byte	0
 2425 01e0 26       		.uleb128 0x26
 2426 01e1 34       		.uleb128 0x34
 2427 01e2 00       		.byte	0
 2428 01e3 31       		.uleb128 0x31
 2429 01e4 13       		.uleb128 0x13
 2430 01e5 00       		.byte	0
 2431 01e6 00       		.byte	0
 2432 01e7 27       		.uleb128 0x27
 2433 01e8 34       		.uleb128 0x34
 2434 01e9 00       		.byte	0
 2435 01ea 31       		.uleb128 0x31
 2436 01eb 13       		.uleb128 0x13
 2437 01ec 02       		.uleb128 0x2
 2438 01ed 17       		.uleb128 0x17
 2439 01ee 00       		.byte	0
 2440 01ef 00       		.byte	0
ARM GAS  /var/folders/7z/kps_xzfj7sn5l5gkyq8s9db00000gn/T//cc70UF0G.s 			page 44


 2441 01f0 28       		.uleb128 0x28
 2442 01f1 1D       		.uleb128 0x1d
 2443 01f2 00       		.byte	0
 2444 01f3 31       		.uleb128 0x31
 2445 01f4 13       		.uleb128 0x13
 2446 01f5 52       		.uleb128 0x52
 2447 01f6 01       		.uleb128 0x1
 2448 01f7 55       		.uleb128 0x55
 2449 01f8 17       		.uleb128 0x17
 2450 01f9 58       		.uleb128 0x58
 2451 01fa 0B       		.uleb128 0xb
 2452 01fb 59       		.uleb128 0x59
 2453 01fc 0B       		.uleb128 0xb
 2454 01fd 00       		.byte	0
 2455 01fe 00       		.byte	0
 2456 01ff 29       		.uleb128 0x29
 2457 0200 1D       		.uleb128 0x1d
 2458 0201 00       		.byte	0
 2459 0202 31       		.uleb128 0x31
 2460 0203 13       		.uleb128 0x13
 2461 0204 11       		.uleb128 0x11
 2462 0205 01       		.uleb128 0x1
 2463 0206 12       		.uleb128 0x12
 2464 0207 06       		.uleb128 0x6
 2465 0208 58       		.uleb128 0x58
 2466 0209 0B       		.uleb128 0xb
 2467 020a 59       		.uleb128 0x59
 2468 020b 0B       		.uleb128 0xb
 2469 020c 00       		.byte	0
 2470 020d 00       		.byte	0
 2471 020e 2A       		.uleb128 0x2a
 2472 020f 1D       		.uleb128 0x1d
 2473 0210 01       		.byte	0x1
 2474 0211 31       		.uleb128 0x31
 2475 0212 13       		.uleb128 0x13
 2476 0213 11       		.uleb128 0x11
 2477 0214 01       		.uleb128 0x1
 2478 0215 12       		.uleb128 0x12
 2479 0216 06       		.uleb128 0x6
 2480 0217 58       		.uleb128 0x58
 2481 0218 0B       		.uleb128 0xb
 2482 0219 59       		.uleb128 0x59
 2483 021a 0B       		.uleb128 0xb
 2484 021b 01       		.uleb128 0x1
 2485 021c 13       		.uleb128 0x13
 2486 021d 00       		.byte	0
 2487 021e 00       		.byte	0
 2488 021f 2B       		.uleb128 0x2b
 2489 0220 0B       		.uleb128 0xb
 2490 0221 01       		.byte	0x1
 2491 0222 11       		.uleb128 0x11
 2492 0223 01       		.uleb128 0x1
 2493 0224 12       		.uleb128 0x12
 2494 0225 06       		.uleb128 0x6
 2495 0226 00       		.byte	0
 2496 0227 00       		.byte	0
 2497 0228 2C       		.uleb128 0x2c
ARM GAS  /var/folders/7z/kps_xzfj7sn5l5gkyq8s9db00000gn/T//cc70UF0G.s 			page 45


 2498 0229 1D       		.uleb128 0x1d
 2499 022a 01       		.byte	0x1
 2500 022b 31       		.uleb128 0x31
 2501 022c 13       		.uleb128 0x13
 2502 022d 11       		.uleb128 0x11
 2503 022e 01       		.uleb128 0x1
 2504 022f 12       		.uleb128 0x12
 2505 0230 06       		.uleb128 0x6
 2506 0231 58       		.uleb128 0x58
 2507 0232 0B       		.uleb128 0xb
 2508 0233 59       		.uleb128 0x59
 2509 0234 0B       		.uleb128 0xb
 2510 0235 00       		.byte	0
 2511 0236 00       		.byte	0
 2512 0237 2D       		.uleb128 0x2d
 2513 0238 2E       		.uleb128 0x2e
 2514 0239 01       		.byte	0x1
 2515 023a 3F       		.uleb128 0x3f
 2516 023b 19       		.uleb128 0x19
 2517 023c 03       		.uleb128 0x3
 2518 023d 0E       		.uleb128 0xe
 2519 023e 3A       		.uleb128 0x3a
 2520 023f 0B       		.uleb128 0xb
 2521 0240 3B       		.uleb128 0x3b
 2522 0241 0B       		.uleb128 0xb
 2523 0242 27       		.uleb128 0x27
 2524 0243 19       		.uleb128 0x19
 2525 0244 11       		.uleb128 0x11
 2526 0245 01       		.uleb128 0x1
 2527 0246 12       		.uleb128 0x12
 2528 0247 06       		.uleb128 0x6
 2529 0248 40       		.uleb128 0x40
 2530 0249 18       		.uleb128 0x18
 2531 024a 9742     		.uleb128 0x2117
 2532 024c 19       		.uleb128 0x19
 2533 024d 01       		.uleb128 0x1
 2534 024e 13       		.uleb128 0x13
 2535 024f 00       		.byte	0
 2536 0250 00       		.byte	0
 2537 0251 2E       		.uleb128 0x2e
 2538 0252 898201   		.uleb128 0x4109
 2539 0255 01       		.byte	0x1
 2540 0256 11       		.uleb128 0x11
 2541 0257 01       		.uleb128 0x1
 2542 0258 31       		.uleb128 0x31
 2543 0259 13       		.uleb128 0x13
 2544 025a 01       		.uleb128 0x1
 2545 025b 13       		.uleb128 0x13
 2546 025c 00       		.byte	0
 2547 025d 00       		.byte	0
 2548 025e 2F       		.uleb128 0x2f
 2549 025f 8A8201   		.uleb128 0x410a
 2550 0262 00       		.byte	0
 2551 0263 02       		.uleb128 0x2
 2552 0264 18       		.uleb128 0x18
 2553 0265 9142     		.uleb128 0x2111
 2554 0267 18       		.uleb128 0x18
ARM GAS  /var/folders/7z/kps_xzfj7sn5l5gkyq8s9db00000gn/T//cc70UF0G.s 			page 46


 2555 0268 00       		.byte	0
 2556 0269 00       		.byte	0
 2557 026a 30       		.uleb128 0x30
 2558 026b 898201   		.uleb128 0x4109
 2559 026e 01       		.byte	0x1
 2560 026f 11       		.uleb128 0x11
 2561 0270 01       		.uleb128 0x1
 2562 0271 9542     		.uleb128 0x2115
 2563 0273 19       		.uleb128 0x19
 2564 0274 31       		.uleb128 0x31
 2565 0275 13       		.uleb128 0x13
 2566 0276 00       		.byte	0
 2567 0277 00       		.byte	0
 2568 0278 31       		.uleb128 0x31
 2569 0279 2E       		.uleb128 0x2e
 2570 027a 00       		.byte	0
 2571 027b 31       		.uleb128 0x31
 2572 027c 13       		.uleb128 0x13
 2573 027d 11       		.uleb128 0x11
 2574 027e 01       		.uleb128 0x1
 2575 027f 12       		.uleb128 0x12
 2576 0280 06       		.uleb128 0x6
 2577 0281 40       		.uleb128 0x40
 2578 0282 18       		.uleb128 0x18
 2579 0283 9742     		.uleb128 0x2117
 2580 0285 19       		.uleb128 0x19
 2581 0286 00       		.byte	0
 2582 0287 00       		.byte	0
 2583 0288 32       		.uleb128 0x32
 2584 0289 2E       		.uleb128 0x2e
 2585 028a 01       		.byte	0x1
 2586 028b 31       		.uleb128 0x31
 2587 028c 13       		.uleb128 0x13
 2588 028d 11       		.uleb128 0x11
 2589 028e 01       		.uleb128 0x1
 2590 028f 12       		.uleb128 0x12
 2591 0290 06       		.uleb128 0x6
 2592 0291 40       		.uleb128 0x40
 2593 0292 18       		.uleb128 0x18
 2594 0293 9742     		.uleb128 0x2117
 2595 0295 19       		.uleb128 0x19
 2596 0296 01       		.uleb128 0x1
 2597 0297 13       		.uleb128 0x13
 2598 0298 00       		.byte	0
 2599 0299 00       		.byte	0
 2600 029a 33       		.uleb128 0x33
 2601 029b 05       		.uleb128 0x5
 2602 029c 00       		.byte	0
 2603 029d 31       		.uleb128 0x31
 2604 029e 13       		.uleb128 0x13
 2605 029f 02       		.uleb128 0x2
 2606 02a0 18       		.uleb128 0x18
 2607 02a1 00       		.byte	0
 2608 02a2 00       		.byte	0
 2609 02a3 34       		.uleb128 0x34
 2610 02a4 34       		.uleb128 0x34
 2611 02a5 00       		.byte	0
ARM GAS  /var/folders/7z/kps_xzfj7sn5l5gkyq8s9db00000gn/T//cc70UF0G.s 			page 47


 2612 02a6 31       		.uleb128 0x31
 2613 02a7 13       		.uleb128 0x13
 2614 02a8 1C       		.uleb128 0x1c
 2615 02a9 05       		.uleb128 0x5
 2616 02aa 00       		.byte	0
 2617 02ab 00       		.byte	0
 2618 02ac 35       		.uleb128 0x35
 2619 02ad 05       		.uleb128 0x5
 2620 02ae 00       		.byte	0
 2621 02af 31       		.uleb128 0x31
 2622 02b0 13       		.uleb128 0x13
 2623 02b1 1C       		.uleb128 0x1c
 2624 02b2 06       		.uleb128 0x6
 2625 02b3 00       		.byte	0
 2626 02b4 00       		.byte	0
 2627 02b5 36       		.uleb128 0x36
 2628 02b6 898201   		.uleb128 0x4109
 2629 02b9 00       		.byte	0
 2630 02ba 11       		.uleb128 0x11
 2631 02bb 01       		.uleb128 0x1
 2632 02bc 31       		.uleb128 0x31
 2633 02bd 13       		.uleb128 0x13
 2634 02be 00       		.byte	0
 2635 02bf 00       		.byte	0
 2636 02c0 37       		.uleb128 0x37
 2637 02c1 898201   		.uleb128 0x4109
 2638 02c4 00       		.byte	0
 2639 02c5 11       		.uleb128 0x11
 2640 02c6 01       		.uleb128 0x1
 2641 02c7 9542     		.uleb128 0x2115
 2642 02c9 19       		.uleb128 0x19
 2643 02ca 31       		.uleb128 0x31
 2644 02cb 13       		.uleb128 0x13
 2645 02cc 00       		.byte	0
 2646 02cd 00       		.byte	0
 2647 02ce 38       		.uleb128 0x38
 2648 02cf 34       		.uleb128 0x34
 2649 02d0 00       		.byte	0
 2650 02d1 03       		.uleb128 0x3
 2651 02d2 0E       		.uleb128 0xe
 2652 02d3 3A       		.uleb128 0x3a
 2653 02d4 0B       		.uleb128 0xb
 2654 02d5 3B       		.uleb128 0x3b
 2655 02d6 05       		.uleb128 0x5
 2656 02d7 49       		.uleb128 0x49
 2657 02d8 13       		.uleb128 0x13
 2658 02d9 3F       		.uleb128 0x3f
 2659 02da 19       		.uleb128 0x19
 2660 02db 3C       		.uleb128 0x3c
 2661 02dc 19       		.uleb128 0x19
 2662 02dd 00       		.byte	0
 2663 02de 00       		.byte	0
 2664 02df 39       		.uleb128 0x39
 2665 02e0 2E       		.uleb128 0x2e
 2666 02e1 01       		.byte	0x1
 2667 02e2 3F       		.uleb128 0x3f
 2668 02e3 19       		.uleb128 0x19
ARM GAS  /var/folders/7z/kps_xzfj7sn5l5gkyq8s9db00000gn/T//cc70UF0G.s 			page 48


 2669 02e4 03       		.uleb128 0x3
 2670 02e5 0E       		.uleb128 0xe
 2671 02e6 3A       		.uleb128 0x3a
 2672 02e7 0B       		.uleb128 0xb
 2673 02e8 3B       		.uleb128 0x3b
 2674 02e9 0B       		.uleb128 0xb
 2675 02ea 27       		.uleb128 0x27
 2676 02eb 19       		.uleb128 0x19
 2677 02ec 3C       		.uleb128 0x3c
 2678 02ed 19       		.uleb128 0x19
 2679 02ee 01       		.uleb128 0x1
 2680 02ef 13       		.uleb128 0x13
 2681 02f0 00       		.byte	0
 2682 02f1 00       		.byte	0
 2683 02f2 3A       		.uleb128 0x3a
 2684 02f3 2E       		.uleb128 0x2e
 2685 02f4 01       		.byte	0x1
 2686 02f5 3F       		.uleb128 0x3f
 2687 02f6 19       		.uleb128 0x19
 2688 02f7 03       		.uleb128 0x3
 2689 02f8 0E       		.uleb128 0xe
 2690 02f9 3A       		.uleb128 0x3a
 2691 02fa 0B       		.uleb128 0xb
 2692 02fb 3B       		.uleb128 0x3b
 2693 02fc 05       		.uleb128 0x5
 2694 02fd 27       		.uleb128 0x27
 2695 02fe 19       		.uleb128 0x19
 2696 02ff 3C       		.uleb128 0x3c
 2697 0300 19       		.uleb128 0x19
 2698 0301 01       		.uleb128 0x1
 2699 0302 13       		.uleb128 0x13
 2700 0303 00       		.byte	0
 2701 0304 00       		.byte	0
 2702 0305 3B       		.uleb128 0x3b
 2703 0306 2E       		.uleb128 0x2e
 2704 0307 01       		.byte	0x1
 2705 0308 3F       		.uleb128 0x3f
 2706 0309 19       		.uleb128 0x19
 2707 030a 03       		.uleb128 0x3
 2708 030b 0E       		.uleb128 0xe
 2709 030c 3A       		.uleb128 0x3a
 2710 030d 0B       		.uleb128 0xb
 2711 030e 3B       		.uleb128 0x3b
 2712 030f 05       		.uleb128 0x5
 2713 0310 27       		.uleb128 0x27
 2714 0311 19       		.uleb128 0x19
 2715 0312 3C       		.uleb128 0x3c
 2716 0313 19       		.uleb128 0x19
 2717 0314 00       		.byte	0
 2718 0315 00       		.byte	0
 2719 0316 00       		.byte	0
 2720              		.section	.debug_loc,"",%progbits
 2721              	.Ldebug_loc0:
 2722              	.LLST0:
 2723 0000 00000000 		.4byte	.LVL1
 2724 0004 40000000 		.4byte	.LVL8
 2725 0008 0100     		.2byte	0x1
ARM GAS  /var/folders/7z/kps_xzfj7sn5l5gkyq8s9db00000gn/T//cc70UF0G.s 			page 49


 2726 000a 50       		.byte	0x50
 2727 000b 40000000 		.4byte	.LVL8
 2728 000f 98000000 		.4byte	.LFE125
 2729 0013 0400     		.2byte	0x4
 2730 0015 F3       		.byte	0xf3
 2731 0016 01       		.uleb128 0x1
 2732 0017 50       		.byte	0x50
 2733 0018 9F       		.byte	0x9f
 2734 0019 00000000 		.4byte	0
 2735 001d 00000000 		.4byte	0
 2736              	.LLST1:
 2737 0021 1C000000 		.4byte	.LVL3
 2738 0025 22000000 		.4byte	.LVL4
 2739 0029 0100     		.2byte	0x1
 2740 002b 52       		.byte	0x52
 2741 002c 00000000 		.4byte	0
 2742 0030 00000000 		.4byte	0
 2743              	.LLST2:
 2744 0034 2C000000 		.4byte	.LVL6
 2745 0038 34000000 		.4byte	.LVL7
 2746 003c 0100     		.2byte	0x1
 2747 003e 52       		.byte	0x52
 2748 003f 00000000 		.4byte	0
 2749 0043 00000000 		.4byte	0
 2750              	.LLST3:
 2751 0047 56000000 		.4byte	.LVL10
 2752 004b 5C000000 		.4byte	.LVL11
 2753 004f 0100     		.2byte	0x1
 2754 0051 52       		.byte	0x52
 2755 0052 00000000 		.4byte	0
 2756 0056 00000000 		.4byte	0
 2757              	.LLST4:
 2758 005a 66000000 		.4byte	.LVL13
 2759 005e 6C000000 		.4byte	.LVL14
 2760 0062 0100     		.2byte	0x1
 2761 0064 52       		.byte	0x52
 2762 0065 00000000 		.4byte	0
 2763 0069 00000000 		.4byte	0
 2764              	.LLST5:
 2765 006d 74000000 		.4byte	.LVL16
 2766 0071 7C000000 		.4byte	.LVL17
 2767 0075 0100     		.2byte	0x1
 2768 0077 52       		.byte	0x52
 2769 0078 00000000 		.4byte	0
 2770 007c 00000000 		.4byte	0
 2771              	.LLST6:
 2772 0080 10000000 		.4byte	.LVL22
 2773 0084 12000000 		.4byte	.LVL23
 2774 0088 0100     		.2byte	0x1
 2775 008a 53       		.byte	0x53
 2776 008b 00000000 		.4byte	0
 2777 008f 00000000 		.4byte	0
 2778              	.LLST7:
 2779 0093 00000000 		.4byte	.LVL34
 2780 0097 00000000 		.4byte	.LVL34
 2781 009b 0100     		.2byte	0x1
 2782 009d 50       		.byte	0x50
ARM GAS  /var/folders/7z/kps_xzfj7sn5l5gkyq8s9db00000gn/T//cc70UF0G.s 			page 50


 2783 009e 00000000 		.4byte	.LVL34
 2784 00a2 04000000 		.4byte	.LVL35
 2785 00a6 0700     		.2byte	0x7
 2786 00a8 70       		.byte	0x70
 2787 00a9 00       		.sleb128 0
 2788 00aa 0A       		.byte	0xa
 2789 00ab FF0F     		.2byte	0xfff
 2790 00ad 1A       		.byte	0x1a
 2791 00ae 9F       		.byte	0x9f
 2792 00af 04000000 		.4byte	.LVL35
 2793 00b3 08000000 		.4byte	.LFE126
 2794 00b7 0800     		.2byte	0x8
 2795 00b9 F3       		.byte	0xf3
 2796 00ba 01       		.uleb128 0x1
 2797 00bb 50       		.byte	0x50
 2798 00bc 0A       		.byte	0xa
 2799 00bd FF0F     		.2byte	0xfff
 2800 00bf 1A       		.byte	0x1a
 2801 00c0 9F       		.byte	0x9f
 2802 00c1 00000000 		.4byte	0
 2803 00c5 00000000 		.4byte	0
 2804              	.LLST8:
 2805 00c9 00000000 		.4byte	.LVL37
 2806 00cd 00000000 		.4byte	.LVL37
 2807 00d1 0100     		.2byte	0x1
 2808 00d3 50       		.byte	0x50
 2809 00d4 00000000 		.4byte	.LVL37
 2810 00d8 04000000 		.4byte	.LVL38
 2811 00dc 0700     		.2byte	0x7
 2812 00de 70       		.byte	0x70
 2813 00df 00       		.sleb128 0
 2814 00e0 0A       		.byte	0xa
 2815 00e1 FF0F     		.2byte	0xfff
 2816 00e3 1A       		.byte	0x1a
 2817 00e4 9F       		.byte	0x9f
 2818 00e5 04000000 		.4byte	.LVL38
 2819 00e9 0C000000 		.4byte	.LFE127
 2820 00ed 0800     		.2byte	0x8
 2821 00ef F3       		.byte	0xf3
 2822 00f0 01       		.uleb128 0x1
 2823 00f1 50       		.byte	0x50
 2824 00f2 0A       		.byte	0xa
 2825 00f3 FF0F     		.2byte	0xfff
 2826 00f5 1A       		.byte	0x1a
 2827 00f6 9F       		.byte	0x9f
 2828 00f7 00000000 		.4byte	0
 2829 00fb 00000000 		.4byte	0
 2830              	.LLST9:
 2831 00ff 00000000 		.4byte	.LVL40
 2832 0103 00000000 		.4byte	.LVL40
 2833 0107 0100     		.2byte	0x1
 2834 0109 50       		.byte	0x50
 2835 010a 00000000 		.4byte	.LVL40
 2836 010e 04000000 		.4byte	.LVL41
 2837 0112 0700     		.2byte	0x7
 2838 0114 70       		.byte	0x70
 2839 0115 00       		.sleb128 0
ARM GAS  /var/folders/7z/kps_xzfj7sn5l5gkyq8s9db00000gn/T//cc70UF0G.s 			page 51


 2840 0116 0A       		.byte	0xa
 2841 0117 FF0F     		.2byte	0xfff
 2842 0119 1A       		.byte	0x1a
 2843 011a 9F       		.byte	0x9f
 2844 011b 04000000 		.4byte	.LVL41
 2845 011f 0C000000 		.4byte	.LFE128
 2846 0123 0800     		.2byte	0x8
 2847 0125 F3       		.byte	0xf3
 2848 0126 01       		.uleb128 0x1
 2849 0127 50       		.byte	0x50
 2850 0128 0A       		.byte	0xa
 2851 0129 FF0F     		.2byte	0xfff
 2852 012b 1A       		.byte	0x1a
 2853 012c 9F       		.byte	0x9f
 2854 012d 00000000 		.4byte	0
 2855 0131 00000000 		.4byte	0
 2856              		.section	.debug_aranges,"",%progbits
 2857 0000 6C000000 		.4byte	0x6c
 2858 0004 0200     		.2byte	0x2
 2859 0006 00000000 		.4byte	.Ldebug_info0
 2860 000a 04       		.byte	0x4
 2861 000b 00       		.byte	0
 2862 000c 0000     		.2byte	0
 2863 000e 0000     		.2byte	0
 2864 0010 00000000 		.4byte	.LFB118
 2865 0014 02000000 		.4byte	.LFE118-.LFB118
 2866 0018 00000000 		.4byte	.LFB125
 2867 001c 98000000 		.4byte	.LFE125-.LFB125
 2868 0020 00000000 		.4byte	.LFB119
 2869 0024 24000000 		.4byte	.LFE119-.LFB119
 2870 0028 00000000 		.4byte	.LFB120
 2871 002c 0C000000 		.4byte	.LFE120-.LFB120
 2872 0030 00000000 		.4byte	.LFB121
 2873 0034 1C000000 		.4byte	.LFE121-.LFB121
 2874 0038 00000000 		.4byte	.LFB122
 2875 003c 68000000 		.4byte	.LFE122-.LFB122
 2876 0040 00000000 		.4byte	.LFB123
 2877 0044 16000000 		.4byte	.LFE123-.LFB123
 2878 0048 00000000 		.4byte	.LFB124
 2879 004c 28000000 		.4byte	.LFE124-.LFB124
 2880 0050 00000000 		.4byte	.LFB126
 2881 0054 08000000 		.4byte	.LFE126-.LFB126
 2882 0058 00000000 		.4byte	.LFB127
 2883 005c 0C000000 		.4byte	.LFE127-.LFB127
 2884 0060 00000000 		.4byte	.LFB128
 2885 0064 0C000000 		.4byte	.LFE128-.LFB128
 2886 0068 00000000 		.4byte	0
 2887 006c 00000000 		.4byte	0
 2888              		.section	.debug_ranges,"",%progbits
 2889              	.Ldebug_ranges0:
 2890 0000 0C000000 		.4byte	.LBB50
 2891 0004 0E000000 		.4byte	.LBE50
 2892 0008 10000000 		.4byte	.LBB62
 2893 000c 12000000 		.4byte	.LBE62
 2894 0010 18000000 		.4byte	.LBB63
 2895 0014 20000000 		.4byte	.LBE63
 2896 0018 00000000 		.4byte	0
ARM GAS  /var/folders/7z/kps_xzfj7sn5l5gkyq8s9db00000gn/T//cc70UF0G.s 			page 52


 2897 001c 00000000 		.4byte	0
 2898 0020 0C000000 		.4byte	.LBB52
 2899 0024 0E000000 		.4byte	.LBE52
 2900 0028 10000000 		.4byte	.LBB56
 2901 002c 12000000 		.4byte	.LBE56
 2902 0030 18000000 		.4byte	.LBB57
 2903 0034 1A000000 		.4byte	.LBE57
 2904 0038 00000000 		.4byte	0
 2905 003c 00000000 		.4byte	0
 2906 0040 00000000 		.4byte	.LFB118
 2907 0044 02000000 		.4byte	.LFE118
 2908 0048 00000000 		.4byte	.LFB125
 2909 004c 98000000 		.4byte	.LFE125
 2910 0050 00000000 		.4byte	.LFB119
 2911 0054 24000000 		.4byte	.LFE119
 2912 0058 00000000 		.4byte	.LFB120
 2913 005c 0C000000 		.4byte	.LFE120
 2914 0060 00000000 		.4byte	.LFB121
 2915 0064 1C000000 		.4byte	.LFE121
 2916 0068 00000000 		.4byte	.LFB122
 2917 006c 68000000 		.4byte	.LFE122
 2918 0070 00000000 		.4byte	.LFB123
 2919 0074 16000000 		.4byte	.LFE123
 2920 0078 00000000 		.4byte	.LFB124
 2921 007c 28000000 		.4byte	.LFE124
 2922 0080 00000000 		.4byte	.LFB126
 2923 0084 08000000 		.4byte	.LFE126
 2924 0088 00000000 		.4byte	.LFB127
 2925 008c 0C000000 		.4byte	.LFE127
 2926 0090 00000000 		.4byte	.LFB128
 2927 0094 0C000000 		.4byte	.LFE128
 2928 0098 00000000 		.4byte	0
 2929 009c 00000000 		.4byte	0
 2930              		.section	.debug_line,"",%progbits
 2931              	.Ldebug_line0:
 2932 0000 70030000 		.section	.debug_str,"MS",%progbits,1
 2932      02002D02 
 2932      00000201 
 2932      FB0E0D00 
 2932      01010101 
 2933              	.LASF42:
 2934 0000 50555044 		.ascii	"PUPDR\000"
 2934      5200
 2935              	.LASF44:
 2936 0006 4C434B52 		.ascii	"LCKR\000"
 2936      00
 2937              	.LASF63:
 2938 000b 44494552 		.ascii	"DIER\000"
 2938      00
 2939              	.LASF29:
 2940 0010 52584352 		.ascii	"RXCRCR\000"
 2940      435200
 2941              	.LASF40:
 2942 0017 4F545950 		.ascii	"OTYPER\000"
 2942      455200
 2943              	.LASF4:
 2944 001e 5F5F7569 		.ascii	"__uint8_t\000"
ARM GAS  /var/folders/7z/kps_xzfj7sn5l5gkyq8s9db00000gn/T//cc70UF0G.s 			page 53


 2944      6E74385F 
 2944      7400
 2945              	.LASF55:
 2946 0028 4750545F 		.ascii	"GPT_ONESHOT\000"
 2946      4F4E4553 
 2946      484F5400 
 2947              	.LASF69:
 2948 0034 43434D52 		.ascii	"CCMR3\000"
 2948      3300
 2949              	.LASF48:
 2950 003a 696F706F 		.ascii	"ioportmask_t\000"
 2950      72746D61 
 2950      736B5F74 
 2950      00
 2951              	.LASF20:
 2952 0047 44495341 		.ascii	"DISABLE\000"
 2952      424C4500 
 2953              	.LASF39:
 2954 004f 4D4F4445 		.ascii	"MODER\000"
 2954      5200
 2955              	.LASF12:
 2956 0055 6C6F6E67 		.ascii	"long long unsigned int\000"
 2956      206C6F6E 
 2956      6720756E 
 2956      7369676E 
 2956      65642069 
 2957              	.LASF27:
 2958 006c 43524350 		.ascii	"CRCPR\000"
 2958      5200
 2959              	.LASF96:
 2960 0072 49544D5F 		.ascii	"ITM_RxBuffer\000"
 2960      52784275 
 2960      66666572 
 2960      00
 2961              	.LASF67:
 2962 007f 42445452 		.ascii	"BDTR\000"
 2962      00
 2963              	.LASF75:
 2964 0084 66726571 		.ascii	"frequency\000"
 2964      75656E63 
 2964      7900
 2965              	.LASF64:
 2966 008e 43434D52 		.ascii	"CCMR1\000"
 2966      3100
 2967              	.LASF65:
 2968 0094 43434D52 		.ascii	"CCMR2\000"
 2968      3200
 2969              	.LASF62:
 2970 009a 534D4352 		.ascii	"SMCR\000"
 2970      00
 2971              	.LASF1:
 2972 009f 7369676E 		.ascii	"signed char\000"
 2972      65642063 
 2972      68617200 
 2973              	.LASF43:
 2974 00ab 42535252 		.ascii	"BSRR\000"
 2974      00
ARM GAS  /var/folders/7z/kps_xzfj7sn5l5gkyq8s9db00000gn/T//cc70UF0G.s 			page 54


 2975              	.LASF33:
 2976 00b0 49325343 		.ascii	"I2SCFGR\000"
 2976      46475200 
 2977              	.LASF54:
 2978 00b8 4750545F 		.ascii	"GPT_CONTINUOUS\000"
 2978      434F4E54 
 2978      494E554F 
 2978      555300
 2979              	.LASF83:
 2980 00c7 746D7072 		.ascii	"tmpreg\000"
 2980      656700
 2981              	.LASF79:
 2982 00ce 5F756465 		.ascii	"_udelay\000"
 2982      6C617900 
 2983              	.LASF58:
 2984 00d6 73746174 		.ascii	"state\000"
 2984      6500
 2985              	.LASF50:
 2986 00dc 696F706F 		.ascii	"ioportid_t\000"
 2986      72746964 
 2986      5F7400
 2987              	.LASF8:
 2988 00e7 6C6F6E67 		.ascii	"long int\000"
 2988      20696E74 
 2988      00
 2989              	.LASF74:
 2990 00f0 67707463 		.ascii	"gptcnt_t\000"
 2990      6E745F74 
 2990      00
 2991              	.LASF21:
 2992 00f9 454E4142 		.ascii	"ENABLE\000"
 2992      4C4500
 2993              	.LASF66:
 2994 0100 43434552 		.ascii	"CCER\000"
 2994      00
 2995              	.LASF11:
 2996 0105 6C6F6E67 		.ascii	"long long int\000"
 2996      206C6F6E 
 2996      6720696E 
 2996      7400
 2997              	.LASF14:
 2998 0113 75696E74 		.ascii	"uint16_t\000"
 2998      31365F74 
 2998      00
 2999              	.LASF61:
 3000 011c 67707463 		.ascii	"gptcallback_t\000"
 3000      616C6C62 
 3000      61636B5F 
 3000      7400
 3001              	.LASF97:
 3002 012a 47505444 		.ascii	"GPTD5\000"
 3002      3500
 3003              	.LASF31:
 3004 0130 54584352 		.ascii	"TXCRCR\000"
 3004      435200
 3005              	.LASF41:
 3006 0137 4F535045 		.ascii	"OSPEEDR\000"
ARM GAS  /var/folders/7z/kps_xzfj7sn5l5gkyq8s9db00000gn/T//cc70UF0G.s 			page 55


 3006      45445200 
 3007              	.LASF9:
 3008 013f 5F5F7569 		.ascii	"__uint32_t\000"
 3008      6E743332 
 3008      5F7400
 3009              	.LASF57:
 3010 014a 47505444 		.ascii	"GPTDriver\000"
 3010      72697665 
 3010      7200
 3011              	.LASF105:
 3012 0154 6765745F 		.ascii	"get_GPT_value\000"
 3012      4750545F 
 3012      76616C75 
 3012      6500
 3013              	.LASF104:
 3014 0162 2F557365 		.ascii	"/Users/Baram/oroca_bldc_dev/oroca_bldc/\000"
 3014      72732F42 
 3014      6172616D 
 3014      2F6F726F 
 3014      63615F62 
 3015              	.LASF56:
 3016 018a 67707473 		.ascii	"gptstate_t\000"
 3016      74617465 
 3016      5F7400
 3017              	.LASF0:
 3018 0195 756E7369 		.ascii	"unsigned int\000"
 3018      676E6564 
 3018      20696E74 
 3018      00
 3019              	.LASF10:
 3020 01a2 6C6F6E67 		.ascii	"long unsigned int\000"
 3020      20756E73 
 3020      69676E65 
 3020      6420696E 
 3020      7400
 3021              	.LASF47:
 3022 01b4 4750494F 		.ascii	"GPIO_TypeDef\000"
 3022      5F547970 
 3022      65446566 
 3022      00
 3023              	.LASF95:
 3024 01c1 6770745F 		.ascii	"gpt_cfg\000"
 3024      63666700 
 3025              	.LASF102:
 3026 01c9 474E5520 		.ascii	"GNU C 4.9.3 20150303 (release) [ARM/embedded-4_9-br"
 3026      4320342E 
 3026      392E3320 
 3026      32303135 
 3026      30333033 
 3027 01fc 616E6368 		.ascii	"anch revision 221220] -mcpu=cortex-m4 -mfloat-abi=h"
 3027      20726576 
 3027      6973696F 
 3027      6E203232 
 3027      31323230 
 3028 022f 61726420 		.ascii	"ard -mfpu=fpv4-sp-d16 -mno-thumb-interwork -mthumb "
 3028      2D6D6670 
 3028      753D6670 
ARM GAS  /var/folders/7z/kps_xzfj7sn5l5gkyq8s9db00000gn/T//cc70UF0G.s 			page 56


 3028      76342D73 
 3028      702D6431 
 3029 0262 2D676764 		.ascii	"-ggdb -O2 -std=gnu99 -fomit-frame-pointer -falign-f"
 3029      62202D4F 
 3029      32202D73 
 3029      74643D67 
 3029      6E753939 
 3030 0295 756E6374 		.ascii	"unctions=16 -ffunction-sections -fdata-sections -fn"
 3030      696F6E73 
 3030      3D313620 
 3030      2D666675 
 3030      6E637469 
 3031 02c8 6F2D636F 		.ascii	"o-common -fsingle-precision-constant\000"
 3031      6D6D6F6E 
 3031      202D6673 
 3031      696E676C 
 3031      652D7072 
 3032              	.LASF86:
 3033 02ed 67707470 		.ascii	"gptp\000"
 3033      00
 3034              	.LASF51:
 3035 02f2 4750545F 		.ascii	"GPT_UNINIT\000"
 3035      554E494E 
 3035      495400
 3036              	.LASF87:
 3037 02fd 64617461 		.ascii	"data\000"
 3037      00
 3038              	.LASF73:
 3039 0302 67707466 		.ascii	"gptfreq_t\000"
 3039      7265715F 
 3039      7400
 3040              	.LASF90:
 3041 030c 7370695F 		.ascii	"spi_hw_init_gpio\000"
 3041      68775F69 
 3041      6E69745F 
 3041      6770696F 
 3041      00
 3042              	.LASF76:
 3043 031d 63616C6C 		.ascii	"callback\000"
 3043      6261636B 
 3043      00
 3044              	.LASF72:
 3045 0326 73746D33 		.ascii	"stm32_tim_t\000"
 3045      325F7469 
 3045      6D5F7400 
 3046              	.LASF99:
 3047 0332 67707453 		.ascii	"gptStartContinuous\000"
 3047      74617274 
 3047      436F6E74 
 3047      696E756F 
 3047      757300
 3048              	.LASF35:
 3049 0345 49325350 		.ascii	"I2SPR\000"
 3049      5200
 3050              	.LASF18:
 3051 034b 73697A65 		.ascii	"sizetype\000"
 3051      74797065 
ARM GAS  /var/folders/7z/kps_xzfj7sn5l5gkyq8s9db00000gn/T//cc70UF0G.s 			page 57


 3051      00
 3052              	.LASF38:
 3053 0354 636C6561 		.ascii	"clear\000"
 3053      7200
 3054              	.LASF53:
 3055 035a 4750545F 		.ascii	"GPT_READY\000"
 3055      52454144 
 3055      5900
 3056              	.LASF22:
 3057 0364 46756E63 		.ascii	"FunctionalState\000"
 3057      74696F6E 
 3057      616C5374 
 3057      61746500 
 3058              	.LASF101:
 3059 0374 5243435F 		.ascii	"RCC_APB2PeriphResetCmd\000"
 3059      41504232 
 3059      50657269 
 3059      70685265 
 3059      73657443 
 3060              	.LASF68:
 3061 038b 444D4152 		.ascii	"DMAR\000"
 3061      00
 3062              	.LASF46:
 3063 0390 41465248 		.ascii	"AFRH\000"
 3063      00
 3064              	.LASF80:
 3065 0395 5350495F 		.ascii	"SPI_Init_for_DAC_7612\000"
 3065      496E6974 
 3065      5F666F72 
 3065      5F444143 
 3065      5F373631 
 3066              	.LASF23:
 3067 03ab 52455345 		.ascii	"RESERVED0\000"
 3067      52564544 
 3067      3000
 3068              	.LASF91:
 3069 03b5 7370695F 		.ascii	"spi_dac_hw_init\000"
 3069      6461635F 
 3069      68775F69 
 3069      6E697400 
 3070              	.LASF25:
 3071 03c5 52455345 		.ascii	"RESERVED2\000"
 3071      52564544 
 3071      3200
 3072              	.LASF26:
 3073 03cf 52455345 		.ascii	"RESERVED3\000"
 3073      52564544 
 3073      3300
 3074              	.LASF30:
 3075 03d9 52455345 		.ascii	"RESERVED5\000"
 3075      52564544 
 3075      3500
 3076              	.LASF32:
 3077 03e3 52455345 		.ascii	"RESERVED6\000"
 3077      52564544 
 3077      3600
 3078              	.LASF34:
ARM GAS  /var/folders/7z/kps_xzfj7sn5l5gkyq8s9db00000gn/T//cc70UF0G.s 			page 58


 3079 03ed 52455345 		.ascii	"RESERVED7\000"
 3079      52564544 
 3079      3700
 3080              	.LASF36:
 3081 03f7 52455345 		.ascii	"RESERVED8\000"
 3081      52564544 
 3081      3800
 3082              	.LASF17:
 3083 0401 5F426F6F 		.ascii	"_Bool\000"
 3083      6C00
 3084              	.LASF15:
 3085 0407 696E7433 		.ascii	"int32_t\000"
 3085      325F7400 
 3086              	.LASF2:
 3087 040f 756E7369 		.ascii	"unsigned char\000"
 3087      676E6564 
 3087      20636861 
 3087      7200
 3088              	.LASF3:
 3089 041d 73686F72 		.ascii	"short int\000"
 3089      7420696E 
 3089      7400
 3090              	.LASF85:
 3091 0427 5F737069 		.ascii	"_spi_dac_write\000"
 3091      5F646163 
 3091      5F777269 
 3091      746500
 3092              	.LASF88:
 3093 0436 64617461 		.ascii	"data_temp\000"
 3093      5F74656D 
 3093      7000
 3094              	.LASF93:
 3095 0440 7370695F 		.ascii	"spi_dac_write_A\000"
 3095      6461635F 
 3095      77726974 
 3095      655F4100 
 3096              	.LASF94:
 3097 0450 7370695F 		.ascii	"spi_dac_write_B\000"
 3097      6461635F 
 3097      77726974 
 3097      655F4200 
 3098              	.LASF82:
 3099 0460 53504978 		.ascii	"SPIx\000"
 3099      00
 3100              	.LASF24:
 3101 0465 52455345 		.ascii	"RESERVED1\000"
 3101      52564544 
 3101      3100
 3102              	.LASF28:
 3103 046f 52455345 		.ascii	"RESERVED4\000"
 3103      52564544 
 3103      3400
 3104              	.LASF52:
 3105 0479 4750545F 		.ascii	"GPT_STOP\000"
 3105      53544F50 
 3105      00
 3106              	.LASF16:
ARM GAS  /var/folders/7z/kps_xzfj7sn5l5gkyq8s9db00000gn/T//cc70UF0G.s 			page 59


 3107 0482 75696E74 		.ascii	"uint32_t\000"
 3107      33325F74 
 3107      00
 3108              	.LASF89:
 3109 048b 696E6974 		.ascii	"initGPT\000"
 3109      47505400 
 3110              	.LASF81:
 3111 0493 7564656C 		.ascii	"udelay\000"
 3111      617900
 3112              	.LASF37:
 3113 049a 5350495F 		.ascii	"SPI_TypeDef\000"
 3113      54797065 
 3113      44656600 
 3114              	.LASF19:
 3115 04a6 63686172 		.ascii	"char\000"
 3115      00
 3116              	.LASF100:
 3117 04ab 5243435F 		.ascii	"RCC_APB2PeriphClockCmd\000"
 3117      41504232 
 3117      50657269 
 3117      7068436C 
 3117      6F636B43 
 3118              	.LASF59:
 3119 04c2 636F6E66 		.ascii	"config\000"
 3119      696700
 3120              	.LASF5:
 3121 04c9 5F5F7569 		.ascii	"__uint16_t\000"
 3121      6E743136 
 3121      5F7400
 3122              	.LASF7:
 3123 04d4 5F5F696E 		.ascii	"__int32_t\000"
 3123      7433325F 
 3123      7400
 3124              	.LASF78:
 3125 04de 47505443 		.ascii	"GPTConfig\000"
 3125      6F6E6669 
 3125      6700
 3126              	.LASF6:
 3127 04e8 73686F72 		.ascii	"short unsigned int\000"
 3127      7420756E 
 3127      7369676E 
 3127      65642069 
 3127      6E7400
 3128              	.LASF106:
 3129 04fb 5F70616C 		.ascii	"_pal_lld_setgroupmode\000"
 3129      5F6C6C64 
 3129      5F736574 
 3129      67726F75 
 3129      706D6F64 
 3130              	.LASF70:
 3131 0511 43435235 		.ascii	"CCR5\000"
 3131      00
 3132              	.LASF71:
 3133 0516 43435236 		.ascii	"CCR6\000"
 3133      00
 3134              	.LASF13:
 3135 051b 75696E74 		.ascii	"uint8_t\000"
ARM GAS  /var/folders/7z/kps_xzfj7sn5l5gkyq8s9db00000gn/T//cc70UF0G.s 			page 60


 3135      385F7400 
 3136              	.LASF92:
 3137 0523 7370695F 		.ascii	"spi_dac_write_AB\000"
 3137      6461635F 
 3137      77726974 
 3137      655F4142 
 3137      00
 3138              	.LASF98:
 3139 0534 67707453 		.ascii	"gptStart\000"
 3139      74617274 
 3139      00
 3140              	.LASF103:
 3141 053d 7372632F 		.ascii	"src/core/spi_dac.c\000"
 3141      636F7265 
 3141      2F737069 
 3141      5F646163 
 3141      2E6300
 3142              	.LASF60:
 3143 0550 636C6F63 		.ascii	"clock\000"
 3143      6B00
 3144              	.LASF49:
 3145 0556 696F6D6F 		.ascii	"iomode_t\000"
 3145      64655F74 
 3145      00
 3146              	.LASF45:
 3147 055f 4146524C 		.ascii	"AFRL\000"
 3147      00
 3148              	.LASF84:
 3149 0564 6770745F 		.ascii	"gpt_cb\000"
 3149      636200
 3150              	.LASF77:
 3151 056b 64696572 		.ascii	"dier\000"
 3151      00
 3152              		.ident	"GCC: (GNU Tools for ARM Embedded Processors) 4.9.3 20150303 (release) [ARM/embedded-4_9-br
ARM GAS  /var/folders/7z/kps_xzfj7sn5l5gkyq8s9db00000gn/T//cc70UF0G.s 			page 61


DEFINED SYMBOLS
                            *ABS*:0000000000000000 spi_dac.c
/var/folders/7z/kps_xzfj7sn5l5gkyq8s9db00000gn/T//cc70UF0G.s:21     .text.gpt_cb:0000000000000000 $t
/var/folders/7z/kps_xzfj7sn5l5gkyq8s9db00000gn/T//cc70UF0G.s:26     .text.gpt_cb:0000000000000000 gpt_cb
/var/folders/7z/kps_xzfj7sn5l5gkyq8s9db00000gn/T//cc70UF0G.s:40     .text._spi_dac_write:0000000000000000 $t
/var/folders/7z/kps_xzfj7sn5l5gkyq8s9db00000gn/T//cc70UF0G.s:45     .text._spi_dac_write:0000000000000000 _spi_dac_write
/var/folders/7z/kps_xzfj7sn5l5gkyq8s9db00000gn/T//cc70UF0G.s:256    .text._spi_dac_write:0000000000000088 $d
/var/folders/7z/kps_xzfj7sn5l5gkyq8s9db00000gn/T//cc70UF0G.s:264    .text.initGPT:0000000000000000 $t
/var/folders/7z/kps_xzfj7sn5l5gkyq8s9db00000gn/T//cc70UF0G.s:270    .text.initGPT:0000000000000000 initGPT
/var/folders/7z/kps_xzfj7sn5l5gkyq8s9db00000gn/T//cc70UF0G.s:300    .text.initGPT:000000000000001c $d
/var/folders/7z/kps_xzfj7sn5l5gkyq8s9db00000gn/T//cc70UF0G.s:306    .text.get_GPT_value:0000000000000000 $t
/var/folders/7z/kps_xzfj7sn5l5gkyq8s9db00000gn/T//cc70UF0G.s:312    .text.get_GPT_value:0000000000000000 get_GPT_value
/var/folders/7z/kps_xzfj7sn5l5gkyq8s9db00000gn/T//cc70UF0G.s:328    .text.get_GPT_value:0000000000000008 $d
/var/folders/7z/kps_xzfj7sn5l5gkyq8s9db00000gn/T//cc70UF0G.s:333    .text._udelay:0000000000000000 $t
/var/folders/7z/kps_xzfj7sn5l5gkyq8s9db00000gn/T//cc70UF0G.s:339    .text._udelay:0000000000000000 _udelay
/var/folders/7z/kps_xzfj7sn5l5gkyq8s9db00000gn/T//cc70UF0G.s:383    .text._udelay:0000000000000018 $d
/var/folders/7z/kps_xzfj7sn5l5gkyq8s9db00000gn/T//cc70UF0G.s:388    .text.spi_hw_init_gpio:0000000000000000 $t
/var/folders/7z/kps_xzfj7sn5l5gkyq8s9db00000gn/T//cc70UF0G.s:394    .text.spi_hw_init_gpio:0000000000000000 spi_hw_init_gpio
/var/folders/7z/kps_xzfj7sn5l5gkyq8s9db00000gn/T//cc70UF0G.s:468    .text.spi_hw_init_gpio:0000000000000060 $d
/var/folders/7z/kps_xzfj7sn5l5gkyq8s9db00000gn/T//cc70UF0G.s:474    .text.SPI_Init_for_DAC_7612:0000000000000000 $t
/var/folders/7z/kps_xzfj7sn5l5gkyq8s9db00000gn/T//cc70UF0G.s:480    .text.SPI_Init_for_DAC_7612:0000000000000000 SPI_Init_for_DAC_7612
/var/folders/7z/kps_xzfj7sn5l5gkyq8s9db00000gn/T//cc70UF0G.s:505    .text.spi_dac_hw_init:0000000000000000 $t
/var/folders/7z/kps_xzfj7sn5l5gkyq8s9db00000gn/T//cc70UF0G.s:511    .text.spi_dac_hw_init:0000000000000000 spi_dac_hw_init
/var/folders/7z/kps_xzfj7sn5l5gkyq8s9db00000gn/T//cc70UF0G.s:547    .text.spi_dac_hw_init:0000000000000024 $d
/var/folders/7z/kps_xzfj7sn5l5gkyq8s9db00000gn/T//cc70UF0G.s:554    .text.spi_dac_write_AB:0000000000000000 $t
/var/folders/7z/kps_xzfj7sn5l5gkyq8s9db00000gn/T//cc70UF0G.s:560    .text.spi_dac_write_AB:0000000000000000 spi_dac_write_AB
/var/folders/7z/kps_xzfj7sn5l5gkyq8s9db00000gn/T//cc70UF0G.s:577    .text.spi_dac_write_A:0000000000000000 $t
/var/folders/7z/kps_xzfj7sn5l5gkyq8s9db00000gn/T//cc70UF0G.s:583    .text.spi_dac_write_A:0000000000000000 spi_dac_write_A
/var/folders/7z/kps_xzfj7sn5l5gkyq8s9db00000gn/T//cc70UF0G.s:602    .text.spi_dac_write_B:0000000000000000 $t
/var/folders/7z/kps_xzfj7sn5l5gkyq8s9db00000gn/T//cc70UF0G.s:608    .text.spi_dac_write_B:0000000000000000 spi_dac_write_B
/var/folders/7z/kps_xzfj7sn5l5gkyq8s9db00000gn/T//cc70UF0G.s:627    .rodata.gpt_cfg:0000000000000000 $d
/var/folders/7z/kps_xzfj7sn5l5gkyq8s9db00000gn/T//cc70UF0G.s:631    .rodata.gpt_cfg:0000000000000000 gpt_cfg
                     .debug_frame:0000000000000010 $d
/var/folders/7z/kps_xzfj7sn5l5gkyq8s9db00000gn/T//cc70UF0G.s:263    .text._spi_dac_write:0000000000000098 $t
/var/folders/7z/kps_xzfj7sn5l5gkyq8s9db00000gn/T//cc70UF0G.s:305    .text.initGPT:0000000000000024 $t
/var/folders/7z/kps_xzfj7sn5l5gkyq8s9db00000gn/T//cc70UF0G.s:332    .text.get_GPT_value:000000000000000c $t
/var/folders/7z/kps_xzfj7sn5l5gkyq8s9db00000gn/T//cc70UF0G.s:387    .text._udelay:000000000000001c $t
/var/folders/7z/kps_xzfj7sn5l5gkyq8s9db00000gn/T//cc70UF0G.s:473    .text.spi_hw_init_gpio:0000000000000068 $t
/var/folders/7z/kps_xzfj7sn5l5gkyq8s9db00000gn/T//cc70UF0G.s:553    .text.spi_dac_hw_init:0000000000000028 $t

UNDEFINED SYMBOLS
GPTD5
gptStart
gptStartContinuous
RCC_APB2PeriphClockCmd
RCC_APB2PeriphResetCmd
_pal_lld_setgroupmode
