ARM GAS  /var/folders/7z/kps_xzfj7sn5l5gkyq8s9db00000gn/T//ccY40Ifq.s 			page 1


   1              		.syntax unified
   2              		.cpu cortex-m4
   3              		.eabi_attribute 27, 1
   4              		.eabi_attribute 28, 1
   5              		.fpu fpv4-sp-d16
   6              		.eabi_attribute 20, 1
   7              		.eabi_attribute 21, 1
   8              		.eabi_attribute 23, 3
   9              		.eabi_attribute 24, 1
  10              		.eabi_attribute 25, 1
  11              		.eabi_attribute 26, 1
  12              		.eabi_attribute 30, 2
  13              		.eabi_attribute 34, 1
  14              		.eabi_attribute 18, 4
  15              		.thumb
  16              		.file	"stm32f4xx_i2c.c"
  17              		.text
  18              	.Ltext0:
  19              		.cfi_sections	.debug_frame
  20              		.section	.text.I2C_DeInit,"ax",%progbits
  21              		.align	2
  22              		.p2align 4,,15
  23              		.global	I2C_DeInit
  24              		.thumb
  25              		.thumb_func
  26              		.type	I2C_DeInit, %function
  27              	I2C_DeInit:
  28              	.LFB111:
  29              		.file 1 "lib/ChibiOS_2.6.6/ext/stdperiph_stm32f4/src/stm32f4xx_i2c.c"
  30              		.loc 1 139 0
  31              		.cfi_startproc
  32              		@ args = 0, pretend = 0, frame = 0
  33              		@ frame_needed = 0, uses_anonymous_args = 0
  34              	.LVL0:
  35 0000 08B5     		push	{r3, lr}
  36              		.cfi_def_cfa_offset 8
  37              		.cfi_offset 3, -8
  38              		.cfi_offset 14, -4
  39              		.loc 1 143 0
  40 0002 174B     		ldr	r3, .L10
  41 0004 9842     		cmp	r0, r3
  42 0006 12D0     		beq	.L7
  43              		.loc 1 150 0
  44 0008 164B     		ldr	r3, .L10+4
  45 000a 9842     		cmp	r0, r3
  46 000c 1BD0     		beq	.L8
  47              		.loc 1 159 0
  48 000e 164B     		ldr	r3, .L10+8
  49 0010 9842     		cmp	r0, r3
  50 0012 00D0     		beq	.L9
  51 0014 08BD     		pop	{r3, pc}
  52              	.L9:
  53              		.loc 1 162 0
  54 0016 4FF40000 		mov	r0, #8388608
  55              	.LVL1:
  56 001a 0121     		movs	r1, #1
  57 001c FFF7FEFF 		bl	RCC_APB1PeriphResetCmd
ARM GAS  /var/folders/7z/kps_xzfj7sn5l5gkyq8s9db00000gn/T//ccY40Ifq.s 			page 2


  58              	.LVL2:
  59              		.loc 1 164 0
  60 0020 4FF40000 		mov	r0, #8388608
  61 0024 0021     		movs	r1, #0
  62              		.loc 1 167 0
  63 0026 BDE80840 		pop	{r3, lr}
  64              		.cfi_remember_state
  65              		.cfi_restore 14
  66              		.cfi_restore 3
  67              		.cfi_def_cfa_offset 0
  68              		.loc 1 164 0
  69 002a FFF7FEBF 		b	RCC_APB1PeriphResetCmd
  70              	.LVL3:
  71              	.L7:
  72              		.cfi_restore_state
  73              		.loc 1 146 0
  74 002e 4FF40010 		mov	r0, #2097152
  75              	.LVL4:
  76 0032 0121     		movs	r1, #1
  77 0034 FFF7FEFF 		bl	RCC_APB1PeriphResetCmd
  78              	.LVL5:
  79              		.loc 1 148 0
  80 0038 4FF40010 		mov	r0, #2097152
  81 003c 0021     		movs	r1, #0
  82              		.loc 1 167 0
  83 003e BDE80840 		pop	{r3, lr}
  84              		.cfi_remember_state
  85              		.cfi_restore 14
  86              		.cfi_restore 3
  87              		.cfi_def_cfa_offset 0
  88              		.loc 1 148 0
  89 0042 FFF7FEBF 		b	RCC_APB1PeriphResetCmd
  90              	.LVL6:
  91              	.L8:
  92              		.cfi_restore_state
  93              		.loc 1 153 0
  94 0046 4FF48000 		mov	r0, #4194304
  95              	.LVL7:
  96 004a 0121     		movs	r1, #1
  97 004c FFF7FEFF 		bl	RCC_APB1PeriphResetCmd
  98              	.LVL8:
  99              		.loc 1 155 0
 100 0050 4FF48000 		mov	r0, #4194304
 101 0054 0021     		movs	r1, #0
 102              		.loc 1 167 0
 103 0056 BDE80840 		pop	{r3, lr}
 104              		.cfi_restore 14
 105              		.cfi_restore 3
 106              		.cfi_def_cfa_offset 0
 107              		.loc 1 155 0
 108 005a FFF7FEBF 		b	RCC_APB1PeriphResetCmd
 109              	.LVL9:
 110              	.L11:
 111 005e 00BF     		.align	2
 112              	.L10:
 113 0060 00540040 		.word	1073763328
 114 0064 00580040 		.word	1073764352
ARM GAS  /var/folders/7z/kps_xzfj7sn5l5gkyq8s9db00000gn/T//ccY40Ifq.s 			page 3


 115 0068 005C0040 		.word	1073765376
 116              		.cfi_endproc
 117              	.LFE111:
 118              		.size	I2C_DeInit, .-I2C_DeInit
 119 006c AFF30080 		.section	.text.I2C_Init,"ax",%progbits
 120              		.align	2
 121              		.p2align 4,,15
 122              		.global	I2C_Init
 123              		.thumb
 124              		.thumb_func
 125              		.type	I2C_Init, %function
 126              	I2C_Init:
 127              	.LFB112:
 128              		.loc 1 182 0
 129              		.cfi_startproc
 130              		@ args = 0, pretend = 0, frame = 16
 131              		@ frame_needed = 0, uses_anonymous_args = 0
 132              	.LVL10:
 133 0000 F0B5     		push	{r4, r5, r6, r7, lr}
 134              		.cfi_def_cfa_offset 20
 135              		.cfi_offset 4, -20
 136              		.cfi_offset 5, -16
 137              		.cfi_offset 6, -12
 138              		.cfi_offset 7, -8
 139              		.cfi_offset 14, -4
 140 0002 0546     		mov	r5, r0
 141 0004 85B0     		sub	sp, sp, #20
 142              		.cfi_def_cfa_offset 40
 143              		.loc 1 202 0
 144 0006 6846     		mov	r0, sp
 145              	.LVL11:
 146              		.loc 1 182 0
 147 0008 0E46     		mov	r6, r1
 148              		.loc 1 198 0
 149 000a AC88     		ldrh	r4, [r5, #4]
 150              	.LVL12:
 151              		.loc 1 202 0
 152 000c FFF7FEFF 		bl	RCC_GetClocksFreq
 153              	.LVL13:
 154              		.loc 1 203 0
 155 0010 029B     		ldr	r3, [sp, #8]
 156              		.loc 1 205 0
 157 0012 3248     		ldr	r0, .L21
 158              		.loc 1 218 0
 159 0014 3268     		ldr	r2, [r6]
 160 0016 DFF8CCE0 		ldr	lr, .L21+8
 161              		.loc 1 205 0
 162 001a A0FB0310 		umull	r1, r0, r0, r3
 163              		.loc 1 200 0
 164 001e 24F03F04 		bic	r4, r4, #63
 165              	.LVL14:
 166 0022 2404     		lsls	r4, r4, #16
 167              		.loc 1 205 0
 168 0024 800C     		lsrs	r0, r0, #18
 169              		.loc 1 200 0
 170 0026 240C     		lsrs	r4, r4, #16
 171              	.LVL15:
ARM GAS  /var/folders/7z/kps_xzfj7sn5l5gkyq8s9db00000gn/T//ccY40Ifq.s 			page 4


 172              		.loc 1 205 0
 173 0028 87B2     		uxth	r7, r0
 174              	.LVL16:
 175              		.loc 1 206 0
 176 002a 3C43     		orrs	r4, r4, r7
 177              	.LVL17:
 178              		.loc 1 208 0
 179 002c AC80     		strh	r4, [r5, #4]	@ movhi
 180              		.loc 1 212 0
 181 002e 2988     		ldrh	r1, [r5]
 182 0030 21F00101 		bic	r1, r1, #1
 183 0034 0904     		lsls	r1, r1, #16
 184 0036 090C     		lsrs	r1, r1, #16
 185              		.loc 1 218 0
 186 0038 7245     		cmp	r2, lr
 187              		.loc 1 212 0
 188 003a 2980     		strh	r1, [r5]	@ movhi
 189              	.LVL18:
 190              		.loc 1 218 0
 191 003c 24D8     		bhi	.L13
 192              		.loc 1 221 0
 193 003e 5200     		lsls	r2, r2, #1
 194 0040 B3FBF2F3 		udiv	r3, r3, r2
 195              	.LVL19:
 196 0044 9BB2     		uxth	r3, r3
 197              	.LVL20:
 198              		.loc 1 223 0
 199 0046 032B     		cmp	r3, #3
 200              		.loc 1 231 0
 201 0048 07F10107 		add	r7, r7, #1
 202              	.LVL21:
 203              		.loc 1 226 0
 204 004c 98BF     		it	ls
 205 004e 0423     		movls	r3, #4
 206              	.LVL22:
 207              		.loc 1 231 0
 208 0050 2F84     		strh	r7, [r5, #32]	@ movhi
 209              	.LVL23:
 210              	.L15:
 211              		.loc 1 264 0
 212 0052 AB83     		strh	r3, [r5, #28]	@ movhi
 213              		.loc 1 266 0
 214 0054 2888     		ldrh	r0, [r5]
 215              		.loc 1 276 0
 216 0056 7789     		ldrh	r7, [r6, #10]
 217 0058 B288     		ldrh	r2, [r6, #4]
 218              		.loc 1 282 0
 219 005a 3489     		ldrh	r4, [r6, #8]
 220 005c B189     		ldrh	r1, [r6, #12]
 221              		.loc 1 266 0
 222 005e 80B2     		uxth	r0, r0
 223 0060 40F00100 		orr	r0, r0, #1
 224 0064 2880     		strh	r0, [r5]	@ movhi
 225              		.loc 1 270 0
 226 0066 2B88     		ldrh	r3, [r5]
 227              	.LVL24:
 228              		.loc 1 272 0
ARM GAS  /var/folders/7z/kps_xzfj7sn5l5gkyq8s9db00000gn/T//ccY40Ifq.s 			page 5


 229 0068 23F48163 		bic	r3, r3, #1032
 230              	.LVL25:
 231 006c 23F00203 		bic	r3, r3, #2
 232 0070 1B04     		lsls	r3, r3, #16
 233              		.loc 1 276 0
 234 0072 3A43     		orrs	r2, r2, r7
 235              		.loc 1 272 0
 236 0074 1B0C     		lsrs	r3, r3, #16
 237              	.LVL26:
 238              		.loc 1 276 0
 239 0076 1343     		orrs	r3, r3, r2
 240              	.LVL27:
 241              		.loc 1 282 0
 242 0078 44EA0102 		orr	r2, r4, r1
 243              		.loc 1 276 0
 244 007c 9BB2     		uxth	r3, r3
 245              	.LVL28:
 246              		.loc 1 282 0
 247 007e 92B2     		uxth	r2, r2
 248              		.loc 1 278 0
 249 0080 2B80     		strh	r3, [r5]	@ movhi
 250              		.loc 1 282 0
 251 0082 2A81     		strh	r2, [r5, #8]	@ movhi
 252              		.loc 1 283 0
 253 0084 05B0     		add	sp, sp, #20
 254              		.cfi_remember_state
 255              		.cfi_def_cfa_offset 20
 256              		@ sp needed
 257 0086 F0BD     		pop	{r4, r5, r6, r7, pc}
 258              	.LVL29:
 259              	.L13:
 260              		.cfi_restore_state
 261              		.loc 1 238 0
 262 0088 F488     		ldrh	r4, [r6, #6]
 263 008a 4BF6FF71 		movw	r1, #49151
 264 008e 8C42     		cmp	r4, r1
 265 0090 1DD0     		beq	.L20
 266              		.loc 1 246 0
 267 0092 02EB8202 		add	r2, r2, r2, lsl #2
 268 0096 02EB8202 		add	r2, r2, r2, lsl #2
 269 009a B3FBF2F3 		udiv	r3, r3, r2
 270              	.LVL30:
 271 009e 9BB2     		uxth	r3, r3
 272              	.LVL31:
 273              		.loc 1 248 0
 274 00a0 43F48043 		orr	r3, r3, #16384
 275              	.LVL32:
 276              	.L17:
 277              		.loc 1 252 0
 278 00a4 C3F30B02 		ubfx	r2, r3, #0, #12
 279 00a8 0AB9     		cbnz	r2, .L18
 280              		.loc 1 255 0
 281 00aa 43F00103 		orr	r3, r3, #1
 282              	.LVL33:
 283              	.L18:
 284              		.loc 1 260 0
 285 00ae 4FF49671 		mov	r1, #300
ARM GAS  /var/folders/7z/kps_xzfj7sn5l5gkyq8s9db00000gn/T//ccY40Ifq.s 			page 6


 286 00b2 0B4C     		ldr	r4, .L21+4
 287 00b4 01FB00F2 		mul	r2, r1, r0
 288 00b8 84FB0201 		smull	r0, r1, r4, r2
 289 00bc D217     		asrs	r2, r2, #31
 290 00be C2EBA112 		rsb	r2, r2, r1, asr #6
 291 00c2 0132     		adds	r2, r2, #1
 292 00c4 92B2     		uxth	r2, r2
 293              		.loc 1 258 0
 294 00c6 43F40043 		orr	r3, r3, #32768
 295              	.LVL34:
 296              		.loc 1 260 0
 297 00ca 2A84     		strh	r2, [r5, #32]	@ movhi
 298 00cc C1E7     		b	.L15
 299              	.LVL35:
 300              	.L20:
 301              		.loc 1 241 0
 302 00ce 02EB4202 		add	r2, r2, r2, lsl #1
 303 00d2 B3FBF2F3 		udiv	r3, r3, r2
 304              	.LVL36:
 305 00d6 9BB2     		uxth	r3, r3
 306              	.LVL37:
 307 00d8 E4E7     		b	.L17
 308              	.L22:
 309 00da 00BF     		.align	2
 310              	.L21:
 311 00dc 83DE1B43 		.word	1125899907
 312 00e0 D34D6210 		.word	274877907
 313 00e4 A0860100 		.word	100000
 314              		.cfi_endproc
 315              	.LFE112:
 316              		.size	I2C_Init, .-I2C_Init
 317 00e8 AFF30080 		.section	.text.I2C_StructInit,"ax",%progbits
 317      AFF30080 
 318              		.align	2
 319              		.p2align 4,,15
 320              		.global	I2C_StructInit
 321              		.thumb
 322              		.thumb_func
 323              		.type	I2C_StructInit, %function
 324              	I2C_StructInit:
 325              	.LFB113:
 326              		.loc 1 291 0
 327              		.cfi_startproc
 328              		@ args = 0, pretend = 0, frame = 0
 329              		@ frame_needed = 0, uses_anonymous_args = 0
 330              		@ link register save eliminated.
 331              	.LVL38:
 332              		.loc 1 296 0
 333 0000 0023     		movs	r3, #0
 334              		.loc 1 291 0
 335 0002 10B4     		push	{r4}
 336              		.cfi_def_cfa_offset 4
 337              		.cfi_offset 4, -4
 338              		.loc 1 298 0
 339 0004 4BF6FF71 		movw	r1, #49151
 340              		.loc 1 294 0
 341 0008 41F28834 		movw	r4, #5000
ARM GAS  /var/folders/7z/kps_xzfj7sn5l5gkyq8s9db00000gn/T//ccY40Ifq.s 			page 7


 342              		.loc 1 304 0
 343 000c 4FF48042 		mov	r2, #16384
 344              		.loc 1 294 0
 345 0010 0460     		str	r4, [r0]
 346              		.loc 1 298 0
 347 0012 C180     		strh	r1, [r0, #6]	@ movhi
 348              		.loc 1 304 0
 349 0014 8281     		strh	r2, [r0, #12]	@ movhi
 350              		.loc 1 296 0
 351 0016 8380     		strh	r3, [r0, #4]	@ movhi
 352              		.loc 1 300 0
 353 0018 0381     		strh	r3, [r0, #8]	@ movhi
 354              		.loc 1 302 0
 355 001a 4381     		strh	r3, [r0, #10]	@ movhi
 356              		.loc 1 305 0
 357 001c 5DF8044B 		ldr	r4, [sp], #4
 358              		.cfi_restore 4
 359              		.cfi_def_cfa_offset 0
 360 0020 7047     		bx	lr
 361              		.cfi_endproc
 362              	.LFE113:
 363              		.size	I2C_StructInit, .-I2C_StructInit
 364 0022 00BFAFF3 		.section	.text.I2C_Cmd,"ax",%progbits
 364      0080AFF3 
 364      0080AFF3 
 364      0080
 365              		.align	2
 366              		.p2align 4,,15
 367              		.global	I2C_Cmd
 368              		.thumb
 369              		.thumb_func
 370              		.type	I2C_Cmd, %function
 371              	I2C_Cmd:
 372              	.LFB114:
 373              		.loc 1 315 0
 374              		.cfi_startproc
 375              		@ args = 0, pretend = 0, frame = 0
 376              		@ frame_needed = 0, uses_anonymous_args = 0
 377              		@ link register save eliminated.
 378              	.LVL39:
 379              		.loc 1 322 0
 380 0000 0388     		ldrh	r3, [r0]
 381              		.loc 1 319 0
 382 0002 29B9     		cbnz	r1, .L28
 383              		.loc 1 327 0
 384 0004 23F00103 		bic	r3, r3, #1
 385 0008 1B04     		lsls	r3, r3, #16
 386 000a 1B0C     		lsrs	r3, r3, #16
 387 000c 0380     		strh	r3, [r0]	@ movhi
 388 000e 7047     		bx	lr
 389              	.L28:
 390              		.loc 1 322 0
 391 0010 9BB2     		uxth	r3, r3
 392 0012 43F00103 		orr	r3, r3, #1
 393 0016 0380     		strh	r3, [r0]	@ movhi
 394 0018 7047     		bx	lr
 395              		.cfi_endproc
ARM GAS  /var/folders/7z/kps_xzfj7sn5l5gkyq8s9db00000gn/T//ccY40Ifq.s 			page 8


 396              	.LFE114:
 397              		.size	I2C_Cmd, .-I2C_Cmd
 398 001a 00BFAFF3 		.section	.text.I2C_GenerateSTART,"ax",%progbits
 398      0080
 399              		.align	2
 400              		.p2align 4,,15
 401              		.global	I2C_GenerateSTART
 402              		.thumb
 403              		.thumb_func
 404              		.type	I2C_GenerateSTART, %function
 405              	I2C_GenerateSTART:
 406              	.LFB115:
 407              		.loc 1 339 0
 408              		.cfi_startproc
 409              		@ args = 0, pretend = 0, frame = 0
 410              		@ frame_needed = 0, uses_anonymous_args = 0
 411              		@ link register save eliminated.
 412              	.LVL40:
 413              		.loc 1 346 0
 414 0000 0388     		ldrh	r3, [r0]
 415              		.loc 1 343 0
 416 0002 29B9     		cbnz	r1, .L32
 417              		.loc 1 351 0
 418 0004 23F48073 		bic	r3, r3, #256
 419 0008 1B04     		lsls	r3, r3, #16
 420 000a 1B0C     		lsrs	r3, r3, #16
 421 000c 0380     		strh	r3, [r0]	@ movhi
 422 000e 7047     		bx	lr
 423              	.L32:
 424              		.loc 1 346 0
 425 0010 9BB2     		uxth	r3, r3
 426 0012 43F48073 		orr	r3, r3, #256
 427 0016 0380     		strh	r3, [r0]	@ movhi
 428 0018 7047     		bx	lr
 429              		.cfi_endproc
 430              	.LFE115:
 431              		.size	I2C_GenerateSTART, .-I2C_GenerateSTART
 432 001a 00BFAFF3 		.section	.text.I2C_GenerateSTOP,"ax",%progbits
 432      0080
 433              		.align	2
 434              		.p2align 4,,15
 435              		.global	I2C_GenerateSTOP
 436              		.thumb
 437              		.thumb_func
 438              		.type	I2C_GenerateSTOP, %function
 439              	I2C_GenerateSTOP:
 440              	.LFB116:
 441              		.loc 1 363 0
 442              		.cfi_startproc
 443              		@ args = 0, pretend = 0, frame = 0
 444              		@ frame_needed = 0, uses_anonymous_args = 0
 445              		@ link register save eliminated.
 446              	.LVL41:
 447              		.loc 1 370 0
 448 0000 0388     		ldrh	r3, [r0]
 449              		.loc 1 367 0
 450 0002 29B9     		cbnz	r1, .L36
ARM GAS  /var/folders/7z/kps_xzfj7sn5l5gkyq8s9db00000gn/T//ccY40Ifq.s 			page 9


 451              		.loc 1 375 0
 452 0004 23F40073 		bic	r3, r3, #512
 453 0008 1B04     		lsls	r3, r3, #16
 454 000a 1B0C     		lsrs	r3, r3, #16
 455 000c 0380     		strh	r3, [r0]	@ movhi
 456 000e 7047     		bx	lr
 457              	.L36:
 458              		.loc 1 370 0
 459 0010 9BB2     		uxth	r3, r3
 460 0012 43F40073 		orr	r3, r3, #512
 461 0016 0380     		strh	r3, [r0]	@ movhi
 462 0018 7047     		bx	lr
 463              		.cfi_endproc
 464              	.LFE116:
 465              		.size	I2C_GenerateSTOP, .-I2C_GenerateSTOP
 466 001a 00BFAFF3 		.section	.text.I2C_Send7bitAddress,"ax",%progbits
 466      0080
 467              		.align	2
 468              		.p2align 4,,15
 469              		.global	I2C_Send7bitAddress
 470              		.thumb
 471              		.thumb_func
 472              		.type	I2C_Send7bitAddress, %function
 473              	I2C_Send7bitAddress:
 474              	.LFB117:
 475              		.loc 1 391 0
 476              		.cfi_startproc
 477              		@ args = 0, pretend = 0, frame = 0
 478              		@ frame_needed = 0, uses_anonymous_args = 0
 479              		@ link register save eliminated.
 480              	.LVL42:
 481              		.loc 1 396 0
 482 0000 22B9     		cbnz	r2, .L40
 483              		.loc 1 404 0
 484 0002 01F0FE01 		and	r1, r1, #254
 485              	.LVL43:
 486              		.loc 1 407 0
 487 0006 89B2     		uxth	r1, r1
 488              	.LVL44:
 489 0008 0182     		strh	r1, [r0, #16]	@ movhi
 490 000a 7047     		bx	lr
 491              	.LVL45:
 492              	.L40:
 493              		.loc 1 399 0
 494 000c 41F00101 		orr	r1, r1, #1
 495              	.LVL46:
 496              		.loc 1 407 0
 497 0010 89B2     		uxth	r1, r1
 498              	.LVL47:
 499 0012 0182     		strh	r1, [r0, #16]	@ movhi
 500 0014 7047     		bx	lr
 501              		.cfi_endproc
 502              	.LFE117:
 503              		.size	I2C_Send7bitAddress, .-I2C_Send7bitAddress
 504 0016 00BFAFF3 		.section	.text.I2C_AcknowledgeConfig,"ax",%progbits
 504      0080AFF3 
 504      0080
ARM GAS  /var/folders/7z/kps_xzfj7sn5l5gkyq8s9db00000gn/T//ccY40Ifq.s 			page 10


 505              		.align	2
 506              		.p2align 4,,15
 507              		.global	I2C_AcknowledgeConfig
 508              		.thumb
 509              		.thumb_func
 510              		.type	I2C_AcknowledgeConfig, %function
 511              	I2C_AcknowledgeConfig:
 512              	.LFB118:
 513              		.loc 1 418 0
 514              		.cfi_startproc
 515              		@ args = 0, pretend = 0, frame = 0
 516              		@ frame_needed = 0, uses_anonymous_args = 0
 517              		@ link register save eliminated.
 518              	.LVL48:
 519              		.loc 1 425 0
 520 0000 0388     		ldrh	r3, [r0]
 521              		.loc 1 422 0
 522 0002 29B9     		cbnz	r1, .L44
 523              		.loc 1 430 0
 524 0004 23F48063 		bic	r3, r3, #1024
 525 0008 1B04     		lsls	r3, r3, #16
 526 000a 1B0C     		lsrs	r3, r3, #16
 527 000c 0380     		strh	r3, [r0]	@ movhi
 528 000e 7047     		bx	lr
 529              	.L44:
 530              		.loc 1 425 0
 531 0010 9BB2     		uxth	r3, r3
 532 0012 43F48063 		orr	r3, r3, #1024
 533 0016 0380     		strh	r3, [r0]	@ movhi
 534 0018 7047     		bx	lr
 535              		.cfi_endproc
 536              	.LFE118:
 537              		.size	I2C_AcknowledgeConfig, .-I2C_AcknowledgeConfig
 538 001a 00BFAFF3 		.section	.text.I2C_OwnAddress2Config,"ax",%progbits
 538      0080
 539              		.align	2
 540              		.p2align 4,,15
 541              		.global	I2C_OwnAddress2Config
 542              		.thumb
 543              		.thumb_func
 544              		.type	I2C_OwnAddress2Config, %function
 545              	I2C_OwnAddress2Config:
 546              	.LFB119:
 547              		.loc 1 441 0
 548              		.cfi_startproc
 549              		@ args = 0, pretend = 0, frame = 0
 550              		@ frame_needed = 0, uses_anonymous_args = 0
 551              		@ link register save eliminated.
 552              	.LVL49:
 553              		.loc 1 448 0
 554 0000 8389     		ldrh	r3, [r0, #12]
 555 0002 9BB2     		uxth	r3, r3
 556              	.LVL50:
 557              		.loc 1 454 0
 558 0004 01F0FE01 		and	r1, r1, #254
 559              	.LVL51:
 560              		.loc 1 451 0
ARM GAS  /var/folders/7z/kps_xzfj7sn5l5gkyq8s9db00000gn/T//ccY40Ifq.s 			page 11


 561 0008 23F0FE03 		bic	r3, r3, #254
 562              	.LVL52:
 563              		.loc 1 454 0
 564 000c 1943     		orrs	r1, r1, r3
 565              	.LVL53:
 566              		.loc 1 457 0
 567 000e 8181     		strh	r1, [r0, #12]	@ movhi
 568 0010 7047     		bx	lr
 569              		.cfi_endproc
 570              	.LFE119:
 571              		.size	I2C_OwnAddress2Config, .-I2C_OwnAddress2Config
 572 0012 00BFAFF3 		.section	.text.I2C_DualAddressCmd,"ax",%progbits
 572      0080AFF3 
 572      0080AFF3 
 572      0080
 573              		.align	2
 574              		.p2align 4,,15
 575              		.global	I2C_DualAddressCmd
 576              		.thumb
 577              		.thumb_func
 578              		.type	I2C_DualAddressCmd, %function
 579              	I2C_DualAddressCmd:
 580              	.LFB120:
 581              		.loc 1 468 0
 582              		.cfi_startproc
 583              		@ args = 0, pretend = 0, frame = 0
 584              		@ frame_needed = 0, uses_anonymous_args = 0
 585              		@ link register save eliminated.
 586              	.LVL54:
 587              		.loc 1 475 0
 588 0000 8389     		ldrh	r3, [r0, #12]
 589              		.loc 1 472 0
 590 0002 29B9     		cbnz	r1, .L49
 591              		.loc 1 480 0
 592 0004 23F00103 		bic	r3, r3, #1
 593 0008 1B04     		lsls	r3, r3, #16
 594 000a 1B0C     		lsrs	r3, r3, #16
 595 000c 8381     		strh	r3, [r0, #12]	@ movhi
 596 000e 7047     		bx	lr
 597              	.L49:
 598              		.loc 1 475 0
 599 0010 9BB2     		uxth	r3, r3
 600 0012 43F00103 		orr	r3, r3, #1
 601 0016 8381     		strh	r3, [r0, #12]	@ movhi
 602 0018 7047     		bx	lr
 603              		.cfi_endproc
 604              	.LFE120:
 605              		.size	I2C_DualAddressCmd, .-I2C_DualAddressCmd
 606 001a 00BFAFF3 		.section	.text.I2C_GeneralCallCmd,"ax",%progbits
 606      0080
 607              		.align	2
 608              		.p2align 4,,15
 609              		.global	I2C_GeneralCallCmd
 610              		.thumb
 611              		.thumb_func
 612              		.type	I2C_GeneralCallCmd, %function
 613              	I2C_GeneralCallCmd:
ARM GAS  /var/folders/7z/kps_xzfj7sn5l5gkyq8s9db00000gn/T//ccY40Ifq.s 			page 12


 614              	.LFB121:
 615              		.loc 1 492 0
 616              		.cfi_startproc
 617              		@ args = 0, pretend = 0, frame = 0
 618              		@ frame_needed = 0, uses_anonymous_args = 0
 619              		@ link register save eliminated.
 620              	.LVL55:
 621              		.loc 1 499 0
 622 0000 0388     		ldrh	r3, [r0]
 623              		.loc 1 496 0
 624 0002 29B9     		cbnz	r1, .L53
 625              		.loc 1 504 0
 626 0004 23F04003 		bic	r3, r3, #64
 627 0008 1B04     		lsls	r3, r3, #16
 628 000a 1B0C     		lsrs	r3, r3, #16
 629 000c 0380     		strh	r3, [r0]	@ movhi
 630 000e 7047     		bx	lr
 631              	.L53:
 632              		.loc 1 499 0
 633 0010 9BB2     		uxth	r3, r3
 634 0012 43F04003 		orr	r3, r3, #64
 635 0016 0380     		strh	r3, [r0]	@ movhi
 636 0018 7047     		bx	lr
 637              		.cfi_endproc
 638              	.LFE121:
 639              		.size	I2C_GeneralCallCmd, .-I2C_GeneralCallCmd
 640 001a 00BFAFF3 		.section	.text.I2C_SoftwareResetCmd,"ax",%progbits
 640      0080
 641              		.align	2
 642              		.p2align 4,,15
 643              		.global	I2C_SoftwareResetCmd
 644              		.thumb
 645              		.thumb_func
 646              		.type	I2C_SoftwareResetCmd, %function
 647              	I2C_SoftwareResetCmd:
 648              	.LFB122:
 649              		.loc 1 518 0
 650              		.cfi_startproc
 651              		@ args = 0, pretend = 0, frame = 0
 652              		@ frame_needed = 0, uses_anonymous_args = 0
 653              		@ link register save eliminated.
 654              	.LVL56:
 655              		.loc 1 525 0
 656 0000 0388     		ldrh	r3, [r0]
 657              		.loc 1 522 0
 658 0002 19B9     		cbnz	r1, .L57
 659              		.loc 1 530 0
 660 0004 C3F30E03 		ubfx	r3, r3, #0, #15
 661 0008 0380     		strh	r3, [r0]	@ movhi
 662 000a 7047     		bx	lr
 663              	.L57:
 664              		.loc 1 525 0
 665 000c 6FEA4343 		mvn	r3, r3, lsl #17
 666 0010 6FEA5343 		mvn	r3, r3, lsr #17
 667 0014 9BB2     		uxth	r3, r3
 668 0016 0380     		strh	r3, [r0]	@ movhi
 669 0018 7047     		bx	lr
ARM GAS  /var/folders/7z/kps_xzfj7sn5l5gkyq8s9db00000gn/T//ccY40Ifq.s 			page 13


 670              		.cfi_endproc
 671              	.LFE122:
 672              		.size	I2C_SoftwareResetCmd, .-I2C_SoftwareResetCmd
 673 001a 00BFAFF3 		.section	.text.I2C_StretchClockCmd,"ax",%progbits
 673      0080
 674              		.align	2
 675              		.p2align 4,,15
 676              		.global	I2C_StretchClockCmd
 677              		.thumb
 678              		.thumb_func
 679              		.type	I2C_StretchClockCmd, %function
 680              	I2C_StretchClockCmd:
 681              	.LFB123:
 682              		.loc 1 542 0
 683              		.cfi_startproc
 684              		@ args = 0, pretend = 0, frame = 0
 685              		@ frame_needed = 0, uses_anonymous_args = 0
 686              		@ link register save eliminated.
 687              	.LVL57:
 688              		.loc 1 549 0
 689 0000 0388     		ldrh	r3, [r0]
 690              		.loc 1 546 0
 691 0002 29B1     		cbz	r1, .L61
 692              		.loc 1 554 0
 693 0004 23F08003 		bic	r3, r3, #128
 694 0008 1B04     		lsls	r3, r3, #16
 695 000a 1B0C     		lsrs	r3, r3, #16
 696 000c 0380     		strh	r3, [r0]	@ movhi
 697 000e 7047     		bx	lr
 698              	.L61:
 699              		.loc 1 549 0
 700 0010 9BB2     		uxth	r3, r3
 701 0012 43F08003 		orr	r3, r3, #128
 702 0016 0380     		strh	r3, [r0]	@ movhi
 703 0018 7047     		bx	lr
 704              		.cfi_endproc
 705              	.LFE123:
 706              		.size	I2C_StretchClockCmd, .-I2C_StretchClockCmd
 707 001a 00BFAFF3 		.section	.text.I2C_FastModeDutyCycleConfig,"ax",%progbits
 707      0080
 708              		.align	2
 709              		.p2align 4,,15
 710              		.global	I2C_FastModeDutyCycleConfig
 711              		.thumb
 712              		.thumb_func
 713              		.type	I2C_FastModeDutyCycleConfig, %function
 714              	I2C_FastModeDutyCycleConfig:
 715              	.LFB124:
 716              		.loc 1 568 0
 717              		.cfi_startproc
 718              		@ args = 0, pretend = 0, frame = 0
 719              		@ frame_needed = 0, uses_anonymous_args = 0
 720              		@ link register save eliminated.
 721              	.LVL58:
 722              		.loc 1 572 0
 723 0000 B1F5804F 		cmp	r1, #16384
 724              		.loc 1 575 0
ARM GAS  /var/folders/7z/kps_xzfj7sn5l5gkyq8s9db00000gn/T//ccY40Ifq.s 			page 14


 725 0004 838B     		ldrh	r3, [r0, #28]
 726              		.loc 1 572 0
 727 0006 05D0     		beq	.L63
 728              		.loc 1 575 0
 729 0008 23F48043 		bic	r3, r3, #16384
 730 000c 1B04     		lsls	r3, r3, #16
 731 000e 1B0C     		lsrs	r3, r3, #16
 732 0010 8383     		strh	r3, [r0, #28]	@ movhi
 733 0012 7047     		bx	lr
 734              	.L63:
 735              		.loc 1 580 0
 736 0014 9BB2     		uxth	r3, r3
 737 0016 43F48043 		orr	r3, r3, #16384
 738 001a 8383     		strh	r3, [r0, #28]	@ movhi
 739 001c 7047     		bx	lr
 740              		.cfi_endproc
 741              	.LFE124:
 742              		.size	I2C_FastModeDutyCycleConfig, .-I2C_FastModeDutyCycleConfig
 743              		.section	.text.I2C_NACKPositionConfig,"ax",%progbits
 744              		.align	2
 745              		.p2align 4,,15
 746              		.global	I2C_NACKPositionConfig
 747              		.thumb
 748              		.thumb_func
 749              		.type	I2C_NACKPositionConfig, %function
 750              	I2C_NACKPositionConfig:
 751              	.LFB125:
 752              		.loc 1 606 0
 753              		.cfi_startproc
 754              		@ args = 0, pretend = 0, frame = 0
 755              		@ frame_needed = 0, uses_anonymous_args = 0
 756              		@ link register save eliminated.
 757              	.LVL59:
 758              		.loc 1 612 0
 759 0000 B1F5006F 		cmp	r1, #2048
 760              		.loc 1 615 0
 761 0004 0388     		ldrh	r3, [r0]
 762              		.loc 1 612 0
 763 0006 05D0     		beq	.L68
 764              		.loc 1 620 0
 765 0008 23F40063 		bic	r3, r3, #2048
 766 000c 1B04     		lsls	r3, r3, #16
 767 000e 1B0C     		lsrs	r3, r3, #16
 768 0010 0380     		strh	r3, [r0]	@ movhi
 769 0012 7047     		bx	lr
 770              	.L68:
 771              		.loc 1 615 0
 772 0014 9BB2     		uxth	r3, r3
 773 0016 43F40063 		orr	r3, r3, #2048
 774 001a 0380     		strh	r3, [r0]	@ movhi
 775 001c 7047     		bx	lr
 776              		.cfi_endproc
 777              	.LFE125:
 778              		.size	I2C_NACKPositionConfig, .-I2C_NACKPositionConfig
 779              		.section	.text.I2C_SMBusAlertConfig,"ax",%progbits
 780              		.align	2
 781              		.p2align 4,,15
ARM GAS  /var/folders/7z/kps_xzfj7sn5l5gkyq8s9db00000gn/T//ccY40Ifq.s 			page 15


 782              		.global	I2C_SMBusAlertConfig
 783              		.thumb
 784              		.thumb_func
 785              		.type	I2C_SMBusAlertConfig, %function
 786              	I2C_SMBusAlertConfig:
 787              	.LFB126:
 788              		.loc 1 634 0
 789              		.cfi_startproc
 790              		@ args = 0, pretend = 0, frame = 0
 791              		@ frame_needed = 0, uses_anonymous_args = 0
 792              		@ link register save eliminated.
 793              	.LVL60:
 794              		.loc 1 638 0
 795 0000 B1F5005F 		cmp	r1, #8192
 796              		.loc 1 641 0
 797 0004 0388     		ldrh	r3, [r0]
 798              		.loc 1 638 0
 799 0006 05D0     		beq	.L72
 800              		.loc 1 646 0
 801 0008 23F40053 		bic	r3, r3, #8192
 802 000c 1B04     		lsls	r3, r3, #16
 803 000e 1B0C     		lsrs	r3, r3, #16
 804 0010 0380     		strh	r3, [r0]	@ movhi
 805 0012 7047     		bx	lr
 806              	.L72:
 807              		.loc 1 641 0
 808 0014 9BB2     		uxth	r3, r3
 809 0016 43F40053 		orr	r3, r3, #8192
 810 001a 0380     		strh	r3, [r0]	@ movhi
 811 001c 7047     		bx	lr
 812              		.cfi_endproc
 813              	.LFE126:
 814              		.size	I2C_SMBusAlertConfig, .-I2C_SMBusAlertConfig
 815              		.section	.text.I2C_ARPCmd,"ax",%progbits
 816              		.align	2
 817              		.p2align 4,,15
 818              		.global	I2C_ARPCmd
 819              		.thumb
 820              		.thumb_func
 821              		.type	I2C_ARPCmd, %function
 822              	I2C_ARPCmd:
 823              	.LFB127:
 824              		.loc 1 658 0
 825              		.cfi_startproc
 826              		@ args = 0, pretend = 0, frame = 0
 827              		@ frame_needed = 0, uses_anonymous_args = 0
 828              		@ link register save eliminated.
 829              	.LVL61:
 830              		.loc 1 665 0
 831 0000 0388     		ldrh	r3, [r0]
 832              		.loc 1 662 0
 833 0002 29B9     		cbnz	r1, .L76
 834              		.loc 1 670 0
 835 0004 23F01003 		bic	r3, r3, #16
 836 0008 1B04     		lsls	r3, r3, #16
 837 000a 1B0C     		lsrs	r3, r3, #16
 838 000c 0380     		strh	r3, [r0]	@ movhi
ARM GAS  /var/folders/7z/kps_xzfj7sn5l5gkyq8s9db00000gn/T//ccY40Ifq.s 			page 16


 839 000e 7047     		bx	lr
 840              	.L76:
 841              		.loc 1 665 0
 842 0010 9BB2     		uxth	r3, r3
 843 0012 43F01003 		orr	r3, r3, #16
 844 0016 0380     		strh	r3, [r0]	@ movhi
 845 0018 7047     		bx	lr
 846              		.cfi_endproc
 847              	.LFE127:
 848              		.size	I2C_ARPCmd, .-I2C_ARPCmd
 849 001a 00BFAFF3 		.section	.text.I2C_SendData,"ax",%progbits
 849      0080
 850              		.align	2
 851              		.p2align 4,,15
 852              		.global	I2C_SendData
 853              		.thumb
 854              		.thumb_func
 855              		.type	I2C_SendData, %function
 856              	I2C_SendData:
 857              	.LFB128:
 858              		.loc 1 696 0
 859              		.cfi_startproc
 860              		@ args = 0, pretend = 0, frame = 0
 861              		@ frame_needed = 0, uses_anonymous_args = 0
 862              		@ link register save eliminated.
 863              	.LVL62:
 864              		.loc 1 700 0
 865 0000 0182     		strh	r1, [r0, #16]	@ movhi
 866 0002 7047     		bx	lr
 867              		.cfi_endproc
 868              	.LFE128:
 869              		.size	I2C_SendData, .-I2C_SendData
 870 0004 AFF30080 		.section	.text.I2C_ReceiveData,"ax",%progbits
 870      AFF30080 
 870      AFF30080 
 871              		.align	2
 872              		.p2align 4,,15
 873              		.global	I2C_ReceiveData
 874              		.thumb
 875              		.thumb_func
 876              		.type	I2C_ReceiveData, %function
 877              	I2C_ReceiveData:
 878              	.LFB129:
 879              		.loc 1 709 0
 880              		.cfi_startproc
 881              		@ args = 0, pretend = 0, frame = 0
 882              		@ frame_needed = 0, uses_anonymous_args = 0
 883              		@ link register save eliminated.
 884              	.LVL63:
 885              		.loc 1 713 0
 886 0000 008A     		ldrh	r0, [r0, #16]
 887              	.LVL64:
 888              		.loc 1 714 0
 889 0002 C0B2     		uxtb	r0, r0
 890 0004 7047     		bx	lr
 891              		.cfi_endproc
 892              	.LFE129:
ARM GAS  /var/folders/7z/kps_xzfj7sn5l5gkyq8s9db00000gn/T//ccY40Ifq.s 			page 17


 893              		.size	I2C_ReceiveData, .-I2C_ReceiveData
 894 0006 00BFAFF3 		.section	.text.I2C_TransmitPEC,"ax",%progbits
 894      0080AFF3 
 894      0080
 895              		.align	2
 896              		.p2align 4,,15
 897              		.global	I2C_TransmitPEC
 898              		.thumb
 899              		.thumb_func
 900              		.type	I2C_TransmitPEC, %function
 901              	I2C_TransmitPEC:
 902              	.LFB130:
 903              		.loc 1 740 0
 904              		.cfi_startproc
 905              		@ args = 0, pretend = 0, frame = 0
 906              		@ frame_needed = 0, uses_anonymous_args = 0
 907              		@ link register save eliminated.
 908              	.LVL65:
 909              		.loc 1 747 0
 910 0000 0388     		ldrh	r3, [r0]
 911              		.loc 1 744 0
 912 0002 29B9     		cbnz	r1, .L82
 913              		.loc 1 752 0
 914 0004 23F48053 		bic	r3, r3, #4096
 915 0008 1B04     		lsls	r3, r3, #16
 916 000a 1B0C     		lsrs	r3, r3, #16
 917 000c 0380     		strh	r3, [r0]	@ movhi
 918 000e 7047     		bx	lr
 919              	.L82:
 920              		.loc 1 747 0
 921 0010 9BB2     		uxth	r3, r3
 922 0012 43F48053 		orr	r3, r3, #4096
 923 0016 0380     		strh	r3, [r0]	@ movhi
 924 0018 7047     		bx	lr
 925              		.cfi_endproc
 926              	.LFE130:
 927              		.size	I2C_TransmitPEC, .-I2C_TransmitPEC
 928 001a 00BFAFF3 		.section	.text.I2C_PECPositionConfig,"ax",%progbits
 928      0080
 929              		.align	2
 930              		.p2align 4,,15
 931              		.global	I2C_PECPositionConfig
 932              		.thumb
 933              		.thumb_func
 934              		.type	I2C_PECPositionConfig, %function
 935              	I2C_PECPositionConfig:
 936              	.LFB131:
 937              		.loc 1 771 0
 938              		.cfi_startproc
 939              		@ args = 0, pretend = 0, frame = 0
 940              		@ frame_needed = 0, uses_anonymous_args = 0
 941              		@ link register save eliminated.
 942              	.LVL66:
 943              		.loc 1 775 0
 944 0000 B1F5006F 		cmp	r1, #2048
 945              		.loc 1 778 0
 946 0004 0388     		ldrh	r3, [r0]
ARM GAS  /var/folders/7z/kps_xzfj7sn5l5gkyq8s9db00000gn/T//ccY40Ifq.s 			page 18


 947              		.loc 1 775 0
 948 0006 05D0     		beq	.L86
 949              		.loc 1 783 0
 950 0008 23F40063 		bic	r3, r3, #2048
 951 000c 1B04     		lsls	r3, r3, #16
 952 000e 1B0C     		lsrs	r3, r3, #16
 953 0010 0380     		strh	r3, [r0]	@ movhi
 954 0012 7047     		bx	lr
 955              	.L86:
 956              		.loc 1 778 0
 957 0014 9BB2     		uxth	r3, r3
 958 0016 43F40063 		orr	r3, r3, #2048
 959 001a 0380     		strh	r3, [r0]	@ movhi
 960 001c 7047     		bx	lr
 961              		.cfi_endproc
 962              	.LFE131:
 963              		.size	I2C_PECPositionConfig, .-I2C_PECPositionConfig
 964              		.section	.text.I2C_CalculatePEC,"ax",%progbits
 965              		.align	2
 966              		.p2align 4,,15
 967              		.global	I2C_CalculatePEC
 968              		.thumb
 969              		.thumb_func
 970              		.type	I2C_CalculatePEC, %function
 971              	I2C_CalculatePEC:
 972              	.LFB132:
 973              		.loc 1 795 0
 974              		.cfi_startproc
 975              		@ args = 0, pretend = 0, frame = 0
 976              		@ frame_needed = 0, uses_anonymous_args = 0
 977              		@ link register save eliminated.
 978              	.LVL67:
 979              		.loc 1 802 0
 980 0000 0388     		ldrh	r3, [r0]
 981              		.loc 1 799 0
 982 0002 29B9     		cbnz	r1, .L90
 983              		.loc 1 807 0
 984 0004 23F02003 		bic	r3, r3, #32
 985 0008 1B04     		lsls	r3, r3, #16
 986 000a 1B0C     		lsrs	r3, r3, #16
 987 000c 0380     		strh	r3, [r0]	@ movhi
 988 000e 7047     		bx	lr
 989              	.L90:
 990              		.loc 1 802 0
 991 0010 9BB2     		uxth	r3, r3
 992 0012 43F02003 		orr	r3, r3, #32
 993 0016 0380     		strh	r3, [r0]	@ movhi
 994 0018 7047     		bx	lr
 995              		.cfi_endproc
 996              	.LFE132:
 997              		.size	I2C_CalculatePEC, .-I2C_CalculatePEC
 998 001a 00BFAFF3 		.section	.text.I2C_GetPEC,"ax",%progbits
 998      0080
 999              		.align	2
 1000              		.p2align 4,,15
 1001              		.global	I2C_GetPEC
 1002              		.thumb
ARM GAS  /var/folders/7z/kps_xzfj7sn5l5gkyq8s9db00000gn/T//ccY40Ifq.s 			page 19


 1003              		.thumb_func
 1004              		.type	I2C_GetPEC, %function
 1005              	I2C_GetPEC:
 1006              	.LFB133:
 1007              		.loc 1 817 0
 1008              		.cfi_startproc
 1009              		@ args = 0, pretend = 0, frame = 0
 1010              		@ frame_needed = 0, uses_anonymous_args = 0
 1011              		@ link register save eliminated.
 1012              	.LVL68:
 1013              		.loc 1 821 0
 1014 0000 008B     		ldrh	r0, [r0, #24]
 1015              	.LVL69:
 1016              		.loc 1 822 0
 1017 0002 C0F30720 		ubfx	r0, r0, #8, #8
 1018 0006 7047     		bx	lr
 1019              		.cfi_endproc
 1020              	.LFE133:
 1021              		.size	I2C_GetPEC, .-I2C_GetPEC
 1022 0008 AFF30080 		.section	.text.I2C_DMACmd,"ax",%progbits
 1022      AFF30080 
 1023              		.align	2
 1024              		.p2align 4,,15
 1025              		.global	I2C_DMACmd
 1026              		.thumb
 1027              		.thumb_func
 1028              		.type	I2C_DMACmd, %function
 1029              	I2C_DMACmd:
 1030              	.LFB134:
 1031              		.loc 1 850 0
 1032              		.cfi_startproc
 1033              		@ args = 0, pretend = 0, frame = 0
 1034              		@ frame_needed = 0, uses_anonymous_args = 0
 1035              		@ link register save eliminated.
 1036              	.LVL70:
 1037              		.loc 1 857 0
 1038 0000 8388     		ldrh	r3, [r0, #4]
 1039              		.loc 1 854 0
 1040 0002 29B9     		cbnz	r1, .L95
 1041              		.loc 1 862 0
 1042 0004 23F40063 		bic	r3, r3, #2048
 1043 0008 1B04     		lsls	r3, r3, #16
 1044 000a 1B0C     		lsrs	r3, r3, #16
 1045 000c 8380     		strh	r3, [r0, #4]	@ movhi
 1046 000e 7047     		bx	lr
 1047              	.L95:
 1048              		.loc 1 857 0
 1049 0010 9BB2     		uxth	r3, r3
 1050 0012 43F40063 		orr	r3, r3, #2048
 1051 0016 8380     		strh	r3, [r0, #4]	@ movhi
 1052 0018 7047     		bx	lr
 1053              		.cfi_endproc
 1054              	.LFE134:
 1055              		.size	I2C_DMACmd, .-I2C_DMACmd
 1056 001a 00BFAFF3 		.section	.text.I2C_DMALastTransferCmd,"ax",%progbits
 1056      0080
 1057              		.align	2
ARM GAS  /var/folders/7z/kps_xzfj7sn5l5gkyq8s9db00000gn/T//ccY40Ifq.s 			page 20


 1058              		.p2align 4,,15
 1059              		.global	I2C_DMALastTransferCmd
 1060              		.thumb
 1061              		.thumb_func
 1062              		.type	I2C_DMALastTransferCmd, %function
 1063              	I2C_DMALastTransferCmd:
 1064              	.LFB135:
 1065              		.loc 1 874 0
 1066              		.cfi_startproc
 1067              		@ args = 0, pretend = 0, frame = 0
 1068              		@ frame_needed = 0, uses_anonymous_args = 0
 1069              		@ link register save eliminated.
 1070              	.LVL71:
 1071              		.loc 1 881 0
 1072 0000 8388     		ldrh	r3, [r0, #4]
 1073              		.loc 1 878 0
 1074 0002 29B9     		cbnz	r1, .L99
 1075              		.loc 1 886 0
 1076 0004 23F48053 		bic	r3, r3, #4096
 1077 0008 1B04     		lsls	r3, r3, #16
 1078 000a 1B0C     		lsrs	r3, r3, #16
 1079 000c 8380     		strh	r3, [r0, #4]	@ movhi
 1080 000e 7047     		bx	lr
 1081              	.L99:
 1082              		.loc 1 881 0
 1083 0010 9BB2     		uxth	r3, r3
 1084 0012 43F48053 		orr	r3, r3, #4096
 1085 0016 8380     		strh	r3, [r0, #4]	@ movhi
 1086 0018 7047     		bx	lr
 1087              		.cfi_endproc
 1088              	.LFE135:
 1089              		.size	I2C_DMALastTransferCmd, .-I2C_DMALastTransferCmd
 1090 001a 00BFAFF3 		.section	.text.I2C_ReadRegister,"ax",%progbits
 1090      0080
 1091              		.align	2
 1092              		.p2align 4,,15
 1093              		.global	I2C_ReadRegister
 1094              		.thumb
 1095              		.thumb_func
 1096              		.type	I2C_ReadRegister, %function
 1097              	I2C_ReadRegister:
 1098              	.LFB136:
 1099              		.loc 1 1012 0
 1100              		.cfi_startproc
 1101              		@ args = 0, pretend = 0, frame = 8
 1102              		@ frame_needed = 0, uses_anonymous_args = 0
 1103              		@ link register save eliminated.
 1104              	.LVL72:
 1105 0000 82B0     		sub	sp, sp, #8
 1106              		.cfi_def_cfa_offset 8
 1107              		.loc 1 1013 0
 1108 0002 0023     		movs	r3, #0
 1109 0004 0193     		str	r3, [sp, #4]
 1110              		.loc 1 1019 0
 1111 0006 0190     		str	r0, [sp, #4]
 1112              		.loc 1 1020 0
 1113 0008 019B     		ldr	r3, [sp, #4]
ARM GAS  /var/folders/7z/kps_xzfj7sn5l5gkyq8s9db00000gn/T//ccY40Ifq.s 			page 21


 1114 000a 1944     		add	r1, r1, r3
 1115              	.LVL73:
 1116 000c 0191     		str	r1, [sp, #4]
 1117              		.loc 1 1023 0
 1118 000e 019B     		ldr	r3, [sp, #4]
 1119 0010 1888     		ldrh	r0, [r3]
 1120              	.LVL74:
 1121              		.loc 1 1024 0
 1122 0012 80B2     		uxth	r0, r0
 1123 0014 02B0     		add	sp, sp, #8
 1124              		.cfi_def_cfa_offset 0
 1125              		@ sp needed
 1126 0016 7047     		bx	lr
 1127              		.cfi_endproc
 1128              	.LFE136:
 1129              		.size	I2C_ReadRegister, .-I2C_ReadRegister
 1130 0018 AFF30080 		.section	.text.I2C_ITConfig,"ax",%progbits
 1130      AFF30080 
 1131              		.align	2
 1132              		.p2align 4,,15
 1133              		.global	I2C_ITConfig
 1134              		.thumb
 1135              		.thumb_func
 1136              		.type	I2C_ITConfig, %function
 1137              	I2C_ITConfig:
 1138              	.LFB137:
 1139              		.loc 1 1039 0
 1140              		.cfi_startproc
 1141              		@ args = 0, pretend = 0, frame = 0
 1142              		@ frame_needed = 0, uses_anonymous_args = 0
 1143              		@ link register save eliminated.
 1144              	.LVL75:
 1145              		.loc 1 1048 0
 1146 0000 8388     		ldrh	r3, [r0, #4]
 1147 0002 9BB2     		uxth	r3, r3
 1148              		.loc 1 1045 0
 1149 0004 1AB9     		cbnz	r2, .L105
 1150              		.loc 1 1053 0
 1151 0006 23EA0101 		bic	r1, r3, r1
 1152              	.LVL76:
 1153 000a 8180     		strh	r1, [r0, #4]	@ movhi
 1154 000c 7047     		bx	lr
 1155              	.LVL77:
 1156              	.L105:
 1157              		.loc 1 1048 0
 1158 000e 1943     		orrs	r1, r1, r3
 1159              	.LVL78:
 1160 0010 8180     		strh	r1, [r0, #4]	@ movhi
 1161 0012 7047     		bx	lr
 1162              		.cfi_endproc
 1163              	.LFE137:
 1164              		.size	I2C_ITConfig, .-I2C_ITConfig
 1165 0014 AFF30080 		.section	.text.I2C_CheckEvent,"ax",%progbits
 1165      AFF30080 
 1165      AFF30080 
 1166              		.align	2
 1167              		.p2align 4,,15
ARM GAS  /var/folders/7z/kps_xzfj7sn5l5gkyq8s9db00000gn/T//ccY40Ifq.s 			page 22


 1168              		.global	I2C_CheckEvent
 1169              		.thumb
 1170              		.thumb_func
 1171              		.type	I2C_CheckEvent, %function
 1172              	I2C_CheckEvent:
 1173              	.LFB138:
 1174              		.loc 1 1098 0
 1175              		.cfi_startproc
 1176              		@ args = 0, pretend = 0, frame = 0
 1177              		@ frame_needed = 0, uses_anonymous_args = 0
 1178              		@ link register save eliminated.
 1179              	.LVL79:
 1180              		.loc 1 1108 0
 1181 0000 838A     		ldrh	r3, [r0, #20]
 1182              		.loc 1 1109 0
 1183 0002 008B     		ldrh	r0, [r0, #24]
 1184              	.LVL80:
 1185              		.loc 1 1108 0
 1186 0004 9BB2     		uxth	r3, r3
 1187              	.LVL81:
 1188              		.loc 1 1113 0
 1189 0006 43EA0043 		orr	r3, r3, r0, lsl #16
 1190              	.LVL82:
 1191 000a 21F07F40 		bic	r0, r1, #-16777216
 1192              	.LVL83:
 1193              		.loc 1 1116 0
 1194 000e 1840     		ands	r0, r0, r3
 1195              		.loc 1 1128 0
 1196 0010 081A     		subs	r0, r1, r0
 1197 0012 B0FA80F0 		clz	r0, r0
 1198 0016 4009     		lsrs	r0, r0, #5
 1199 0018 7047     		bx	lr
 1200              		.cfi_endproc
 1201              	.LFE138:
 1202              		.size	I2C_CheckEvent, .-I2C_CheckEvent
 1203 001a 00BFAFF3 		.section	.text.I2C_GetLastEvent,"ax",%progbits
 1203      0080
 1204              		.align	2
 1205              		.p2align 4,,15
 1206              		.global	I2C_GetLastEvent
 1207              		.thumb
 1208              		.thumb_func
 1209              		.type	I2C_GetLastEvent, %function
 1210              	I2C_GetLastEvent:
 1211              	.LFB139:
 1212              		.loc 1 1146 0
 1213              		.cfi_startproc
 1214              		@ args = 0, pretend = 0, frame = 0
 1215              		@ frame_needed = 0, uses_anonymous_args = 0
 1216              		@ link register save eliminated.
 1217              	.LVL84:
 1218              		.loc 1 1154 0
 1219 0000 838A     		ldrh	r3, [r0, #20]
 1220              		.loc 1 1155 0
 1221 0002 028B     		ldrh	r2, [r0, #24]
 1222              		.loc 1 1154 0
 1223 0004 98B2     		uxth	r0, r3
ARM GAS  /var/folders/7z/kps_xzfj7sn5l5gkyq8s9db00000gn/T//ccY40Ifq.s 			page 23


 1224              	.LVL85:
 1225              		.loc 1 1159 0
 1226 0006 40EA0240 		orr	r0, r0, r2, lsl #16
 1227              	.LVL86:
 1228              		.loc 1 1163 0
 1229 000a 20F07F40 		bic	r0, r0, #-16777216
 1230 000e 7047     		bx	lr
 1231              		.cfi_endproc
 1232              	.LFE139:
 1233              		.size	I2C_GetLastEvent, .-I2C_GetLastEvent
 1234              		.section	.text.I2C_GetFlagStatus,"ax",%progbits
 1235              		.align	2
 1236              		.p2align 4,,15
 1237              		.global	I2C_GetFlagStatus
 1238              		.thumb
 1239              		.thumb_func
 1240              		.type	I2C_GetFlagStatus, %function
 1241              	I2C_GetFlagStatus:
 1242              	.LFB140:
 1243              		.loc 1 1201 0
 1244              		.cfi_startproc
 1245              		@ args = 0, pretend = 0, frame = 8
 1246              		@ frame_needed = 0, uses_anonymous_args = 0
 1247              		@ link register save eliminated.
 1248              	.LVL87:
 1249 0000 82B0     		sub	sp, sp, #8
 1250              		.cfi_def_cfa_offset 8
 1251              		.loc 1 1203 0
 1252 0002 0023     		movs	r3, #0
 1253              		.loc 1 1213 0
 1254 0004 0A0F     		lsrs	r2, r1, #28
 1255              		.loc 1 1203 0
 1256 0006 0093     		str	r3, [sp]
 1257 0008 0193     		str	r3, [sp, #4]
 1258              		.loc 1 1210 0
 1259 000a 0190     		str	r0, [sp, #4]
 1260              		.loc 1 1213 0
 1261 000c 0092     		str	r2, [sp]
 1262              		.loc 1 1218 0
 1263 000e 009B     		ldr	r3, [sp]
 1264              		.loc 1 1216 0
 1265 0010 21F07F41 		bic	r1, r1, #-16777216
 1266              	.LVL88:
 1267              		.loc 1 1218 0
 1268 0014 53B1     		cbz	r3, .L109
 1269              		.loc 1 1221 0
 1270 0016 019B     		ldr	r3, [sp, #4]
 1271 0018 1433     		adds	r3, r3, #20
 1272 001a 0193     		str	r3, [sp, #4]
 1273              	.L110:
 1274              		.loc 1 1231 0
 1275 001c 019B     		ldr	r3, [sp, #4]
 1276 001e 1B68     		ldr	r3, [r3]
 1277              	.LVL89:
 1278 0020 1942     		tst	r1, r3
 1279              		.loc 1 1244 0
 1280 0022 14BF     		ite	ne
ARM GAS  /var/folders/7z/kps_xzfj7sn5l5gkyq8s9db00000gn/T//ccY40Ifq.s 			page 24


 1281 0024 0120     		movne	r0, #1
 1282              	.LVL90:
 1283 0026 0020     		moveq	r0, #0
 1284 0028 02B0     		add	sp, sp, #8
 1285              		.cfi_remember_state
 1286              		.cfi_def_cfa_offset 0
 1287              		@ sp needed
 1288 002a 7047     		bx	lr
 1289              	.LVL91:
 1290              	.L109:
 1291              		.cfi_restore_state
 1292              		.loc 1 1228 0
 1293 002c 019B     		ldr	r3, [sp, #4]
 1294 002e 1833     		adds	r3, r3, #24
 1295              		.loc 1 1226 0
 1296 0030 090C     		lsrs	r1, r1, #16
 1297              	.LVL92:
 1298              		.loc 1 1228 0
 1299 0032 0193     		str	r3, [sp, #4]
 1300 0034 F2E7     		b	.L110
 1301              		.cfi_endproc
 1302              	.LFE140:
 1303              		.size	I2C_GetFlagStatus, .-I2C_GetFlagStatus
 1304 0036 00BFAFF3 		.section	.text.I2C_ClearFlag,"ax",%progbits
 1304      0080AFF3 
 1304      0080
 1305              		.align	2
 1306              		.p2align 4,,15
 1307              		.global	I2C_ClearFlag
 1308              		.thumb
 1309              		.thumb_func
 1310              		.type	I2C_ClearFlag, %function
 1311              	I2C_ClearFlag:
 1312              	.LFB141:
 1313              		.loc 1 1278 0
 1314              		.cfi_startproc
 1315              		@ args = 0, pretend = 0, frame = 0
 1316              		@ frame_needed = 0, uses_anonymous_args = 0
 1317              		@ link register save eliminated.
 1318              	.LVL93:
 1319              		.loc 1 1286 0
 1320 0000 C943     		mvns	r1, r1
 1321              	.LVL94:
 1322 0002 89B2     		uxth	r1, r1
 1323              	.LVL95:
 1324 0004 8182     		strh	r1, [r0, #20]	@ movhi
 1325 0006 7047     		bx	lr
 1326              		.cfi_endproc
 1327              	.LFE141:
 1328              		.size	I2C_ClearFlag, .-I2C_ClearFlag
 1329 0008 AFF30080 		.section	.text.I2C_GetITStatus,"ax",%progbits
 1329      AFF30080 
 1330              		.align	2
 1331              		.p2align 4,,15
 1332              		.global	I2C_GetITStatus
 1333              		.thumb
 1334              		.thumb_func
ARM GAS  /var/folders/7z/kps_xzfj7sn5l5gkyq8s9db00000gn/T//ccY40Ifq.s 			page 25


 1335              		.type	I2C_GetITStatus, %function
 1336              	I2C_GetITStatus:
 1337              	.LFB142:
 1338              		.loc 1 1312 0
 1339              		.cfi_startproc
 1340              		@ args = 0, pretend = 0, frame = 0
 1341              		@ frame_needed = 0, uses_anonymous_args = 0
 1342              		@ link register save eliminated.
 1343              	.LVL96:
 1344              		.loc 1 1321 0
 1345 0000 8388     		ldrh	r3, [r0, #4]
 1346              		.loc 1 1327 0
 1347 0002 808A     		ldrh	r0, [r0, #20]
 1348              	.LVL97:
 1349 0004 80B2     		uxth	r0, r0
 1350 0006 0840     		ands	r0, r0, r1
 1351              		.loc 1 1321 0
 1352 0008 9BB2     		uxth	r3, r3
 1353              	.LVL98:
 1354              		.loc 1 1327 0
 1355 000a 06D0     		beq	.L114
 1356              		.loc 1 1321 0 discriminator 1
 1357 000c 01F0E061 		and	r1, r1, #117440512
 1358              	.LVL99:
 1359              		.loc 1 1327 0 discriminator 1
 1360 0010 13EA1143 		ands	r3, r3, r1, lsr #16
 1361              	.LVL100:
 1362              		.loc 1 1330 0 discriminator 1
 1363 0014 14BF     		ite	ne
 1364 0016 0120     		movne	r0, #1
 1365 0018 0020     		moveq	r0, #0
 1366              	.L114:
 1367              	.LVL101:
 1368              		.loc 1 1339 0
 1369 001a 7047     		bx	lr
 1370              		.cfi_endproc
 1371              	.LFE142:
 1372              		.size	I2C_GetITStatus, .-I2C_GetITStatus
 1373 001c AFF30080 		.section	.text.I2C_ClearITPendingBit,"ax",%progbits
 1374              		.align	2
 1375              		.p2align 4,,15
 1376              		.global	I2C_ClearITPendingBit
 1377              		.thumb
 1378              		.thumb_func
 1379              		.type	I2C_ClearITPendingBit, %function
 1380              	I2C_ClearITPendingBit:
 1381              	.LFB143:
 1382              		.loc 1 1372 0
 1383              		.cfi_startproc
 1384              		@ args = 0, pretend = 0, frame = 0
 1385              		@ frame_needed = 0, uses_anonymous_args = 0
 1386              		@ link register save eliminated.
 1387              	.LVL102:
 1388              		.loc 1 1382 0
 1389 0000 C943     		mvns	r1, r1
 1390              	.LVL103:
 1391 0002 89B2     		uxth	r1, r1
ARM GAS  /var/folders/7z/kps_xzfj7sn5l5gkyq8s9db00000gn/T//ccY40Ifq.s 			page 26


 1392              	.LVL104:
 1393 0004 8182     		strh	r1, [r0, #20]	@ movhi
 1394 0006 7047     		bx	lr
 1395              		.cfi_endproc
 1396              	.LFE143:
 1397              		.size	I2C_ClearITPendingBit, .-I2C_ClearITPendingBit
 1398 0008 AFF30080 		.text
 1398      AFF30080 
 1399              	.Letext0:
 1400              		.file 2 "/Users/Baram/gcc-arm-none-eabi/arm-none-eabi/include/machine/_default_types.h"
 1401              		.file 3 "/Users/Baram/gcc-arm-none-eabi/arm-none-eabi/include/stdint.h"
 1402              		.file 4 "lib/ChibiOS_2.6.6/os/hal/platforms/STM32F4xx/stm32f4xx.h"
 1403              		.file 5 "lib/ChibiOS_2.6.6/ext/stdperiph_stm32f4/inc/stm32f4xx_rcc.h"
 1404              		.file 6 "lib/ChibiOS_2.6.6/ext/stdperiph_stm32f4/inc/stm32f4xx_i2c.h"
 1405              		.file 7 "lib/ChibiOS_2.6.6/os/ports/common/ARMCMx/CMSIS/include/core_cm4.h"
 1406              		.section	.debug_info,"",%progbits
 1407              	.Ldebug_info0:
 1408 0000 DB0B0000 		.4byte	0xbdb
 1409 0004 0400     		.2byte	0x4
 1410 0006 00000000 		.4byte	.Ldebug_abbrev0
 1411 000a 04       		.byte	0x4
 1412 000b 01       		.uleb128 0x1
 1413 000c 85020000 		.4byte	.LASF116
 1414 0010 01       		.byte	0x1
 1415 0011 A4000000 		.4byte	.LASF117
 1416 0015 35020000 		.4byte	.LASF118
 1417 0019 00000000 		.4byte	.Ldebug_ranges0+0
 1418 001d 00000000 		.4byte	0
 1419 0021 00000000 		.4byte	.Ldebug_line0
 1420 0025 02       		.uleb128 0x2
 1421 0026 08       		.byte	0x8
 1422 0027 07       		.byte	0x7
 1423 0028 E0000000 		.4byte	.LASF0
 1424 002c 02       		.uleb128 0x2
 1425 002d 04       		.byte	0x4
 1426 002e 07       		.byte	0x7
 1427 002f 66020000 		.4byte	.LASF1
 1428 0033 02       		.uleb128 0x2
 1429 0034 01       		.byte	0x1
 1430 0035 06       		.byte	0x6
 1431 0036 4E010000 		.4byte	.LASF2
 1432 003a 03       		.uleb128 0x3
 1433 003b 5B000000 		.4byte	.LASF5
 1434 003f 02       		.byte	0x2
 1435 0040 1D       		.byte	0x1d
 1436 0041 45000000 		.4byte	0x45
 1437 0045 02       		.uleb128 0x2
 1438 0046 01       		.byte	0x1
 1439 0047 08       		.byte	0x8
 1440 0048 5D050000 		.4byte	.LASF3
 1441 004c 02       		.uleb128 0x2
 1442 004d 02       		.byte	0x2
 1443 004e 05       		.byte	0x5
 1444 004f 73050000 		.4byte	.LASF4
 1445 0053 03       		.uleb128 0x3
 1446 0054 39060000 		.4byte	.LASF6
 1447 0058 02       		.byte	0x2
ARM GAS  /var/folders/7z/kps_xzfj7sn5l5gkyq8s9db00000gn/T//ccY40Ifq.s 			page 27


 1448 0059 2B       		.byte	0x2b
 1449 005a 5E000000 		.4byte	0x5e
 1450 005e 02       		.uleb128 0x2
 1451 005f 02       		.byte	0x2
 1452 0060 07       		.byte	0x7
 1453 0061 7D060000 		.4byte	.LASF7
 1454 0065 03       		.uleb128 0x3
 1455 0066 5D060000 		.4byte	.LASF8
 1456 006a 02       		.byte	0x2
 1457 006b 3F       		.byte	0x3f
 1458 006c 70000000 		.4byte	0x70
 1459 0070 02       		.uleb128 0x2
 1460 0071 04       		.byte	0x4
 1461 0072 05       		.byte	0x5
 1462 0073 3D070000 		.4byte	.LASF9
 1463 0077 03       		.uleb128 0x3
 1464 0078 EA010000 		.4byte	.LASF10
 1465 007c 02       		.byte	0x2
 1466 007d 41       		.byte	0x41
 1467 007e 82000000 		.4byte	0x82
 1468 0082 02       		.uleb128 0x2
 1469 0083 04       		.byte	0x4
 1470 0084 07       		.byte	0x7
 1471 0085 73020000 		.4byte	.LASF11
 1472 0089 02       		.uleb128 0x2
 1473 008a 08       		.byte	0x8
 1474 008b 05       		.byte	0x5
 1475 008c 40010000 		.4byte	.LASF12
 1476 0090 04       		.uleb128 0x4
 1477 0091 04       		.byte	0x4
 1478 0092 05       		.byte	0x5
 1479 0093 696E7400 		.ascii	"int\000"
 1480 0097 03       		.uleb128 0x3
 1481 0098 D8060000 		.4byte	.LASF13
 1482 009c 03       		.byte	0x3
 1483 009d 15       		.byte	0x15
 1484 009e 3A000000 		.4byte	0x3a
 1485 00a2 03       		.uleb128 0x3
 1486 00a3 C0010000 		.4byte	.LASF14
 1487 00a7 03       		.byte	0x3
 1488 00a8 21       		.byte	0x21
 1489 00a9 53000000 		.4byte	0x53
 1490 00ad 03       		.uleb128 0x3
 1491 00ae 55050000 		.4byte	.LASF15
 1492 00b2 03       		.byte	0x3
 1493 00b3 2C       		.byte	0x2c
 1494 00b4 65000000 		.4byte	0x65
 1495 00b8 03       		.uleb128 0x3
 1496 00b9 DF050000 		.4byte	.LASF16
 1497 00bd 03       		.byte	0x3
 1498 00be 2D       		.byte	0x2d
 1499 00bf 77000000 		.4byte	0x77
 1500 00c3 02       		.uleb128 0x2
 1501 00c4 04       		.byte	0x4
 1502 00c5 07       		.byte	0x7
 1503 00c6 52040000 		.4byte	.LASF17
 1504 00ca 05       		.uleb128 0x5
ARM GAS  /var/folders/7z/kps_xzfj7sn5l5gkyq8s9db00000gn/T//ccY40Ifq.s 			page 28


 1505 00cb B8000000 		.4byte	0xb8
 1506 00cf 05       		.uleb128 0x5
 1507 00d0 A2000000 		.4byte	0xa2
 1508 00d4 05       		.uleb128 0x5
 1509 00d5 AD000000 		.4byte	0xad
 1510 00d9 06       		.uleb128 0x6
 1511 00da 01       		.byte	0x1
 1512 00db 04       		.byte	0x4
 1513 00dc F701     		.2byte	0x1f7
 1514 00de EF000000 		.4byte	0xef
 1515 00e2 07       		.uleb128 0x7
 1516 00e3 3B040000 		.4byte	.LASF18
 1517 00e7 00       		.sleb128 0
 1518 00e8 08       		.uleb128 0x8
 1519 00e9 53455400 		.ascii	"SET\000"
 1520 00ed 01       		.sleb128 1
 1521 00ee 00       		.byte	0
 1522 00ef 09       		.uleb128 0x9
 1523 00f0 31000000 		.4byte	.LASF19
 1524 00f4 04       		.byte	0x4
 1525 00f5 F701     		.2byte	0x1f7
 1526 00f7 D9000000 		.4byte	0xd9
 1527 00fb 09       		.uleb128 0x9
 1528 00fc 5D020000 		.4byte	.LASF20
 1529 0100 04       		.byte	0x4
 1530 0101 F701     		.2byte	0x1f7
 1531 0103 D9000000 		.4byte	0xd9
 1532 0107 06       		.uleb128 0x6
 1533 0108 01       		.byte	0x1
 1534 0109 04       		.byte	0x4
 1535 010a F901     		.2byte	0x1f9
 1536 010c 1D010000 		.4byte	0x11d
 1537 0110 07       		.uleb128 0x7
 1538 0111 9C000000 		.4byte	.LASF21
 1539 0115 00       		.sleb128 0
 1540 0116 07       		.uleb128 0x7
 1541 0117 B9010000 		.4byte	.LASF22
 1542 011b 01       		.sleb128 1
 1543 011c 00       		.byte	0
 1544 011d 09       		.uleb128 0x9
 1545 011e 87040000 		.4byte	.LASF23
 1546 0122 04       		.byte	0x4
 1547 0123 F901     		.2byte	0x1f9
 1548 0125 07010000 		.4byte	0x107
 1549 0129 06       		.uleb128 0x6
 1550 012a 01       		.byte	0x1
 1551 012b 04       		.byte	0x4
 1552 012c FC01     		.2byte	0x1fc
 1553 012e 3F010000 		.4byte	0x13f
 1554 0132 07       		.uleb128 0x7
 1555 0133 01020000 		.4byte	.LASF24
 1556 0137 00       		.sleb128 0
 1557 0138 07       		.uleb128 0x7
 1558 0139 F4060000 		.4byte	.LASF25
 1559 013d 01       		.sleb128 1
 1560 013e 00       		.byte	0
 1561 013f 09       		.uleb128 0x9
ARM GAS  /var/folders/7z/kps_xzfj7sn5l5gkyq8s9db00000gn/T//ccY40Ifq.s 			page 29


 1562 0140 F5010000 		.4byte	.LASF26
 1563 0144 04       		.byte	0x4
 1564 0145 FC01     		.2byte	0x1fc
 1565 0147 29010000 		.4byte	0x129
 1566 014b 0A       		.uleb128 0xa
 1567 014c 28       		.byte	0x28
 1568 014d 04       		.byte	0x4
 1569 014e F603     		.2byte	0x3f6
 1570 0150 58020000 		.4byte	0x258
 1571 0154 0B       		.uleb128 0xb
 1572 0155 43523100 		.ascii	"CR1\000"
 1573 0159 04       		.byte	0x4
 1574 015a F803     		.2byte	0x3f8
 1575 015c CF000000 		.4byte	0xcf
 1576 0160 00       		.byte	0
 1577 0161 0C       		.uleb128 0xc
 1578 0162 D6040000 		.4byte	.LASF27
 1579 0166 04       		.byte	0x4
 1580 0167 F903     		.2byte	0x3f9
 1581 0169 A2000000 		.4byte	0xa2
 1582 016d 02       		.byte	0x2
 1583 016e 0B       		.uleb128 0xb
 1584 016f 43523200 		.ascii	"CR2\000"
 1585 0173 04       		.byte	0x4
 1586 0174 FA03     		.2byte	0x3fa
 1587 0176 CF000000 		.4byte	0xcf
 1588 017a 04       		.byte	0x4
 1589 017b 0C       		.uleb128 0xc
 1590 017c E0040000 		.4byte	.LASF28
 1591 0180 04       		.byte	0x4
 1592 0181 FB03     		.2byte	0x3fb
 1593 0183 A2000000 		.4byte	0xa2
 1594 0187 06       		.byte	0x6
 1595 0188 0C       		.uleb128 0xc
 1596 0189 C9010000 		.4byte	.LASF29
 1597 018d 04       		.byte	0x4
 1598 018e FC03     		.2byte	0x3fc
 1599 0190 CF000000 		.4byte	0xcf
 1600 0194 08       		.byte	0x8
 1601 0195 0C       		.uleb128 0xc
 1602 0196 EA040000 		.4byte	.LASF30
 1603 019a 04       		.byte	0x4
 1604 019b FD03     		.2byte	0x3fd
 1605 019d A2000000 		.4byte	0xa2
 1606 01a1 0A       		.byte	0xa
 1607 01a2 0C       		.uleb128 0xc
 1608 01a3 05070000 		.4byte	.LASF31
 1609 01a7 04       		.byte	0x4
 1610 01a8 FE03     		.2byte	0x3fe
 1611 01aa CF000000 		.4byte	0xcf
 1612 01ae 0C       		.byte	0xc
 1613 01af 0C       		.uleb128 0xc
 1614 01b0 F4040000 		.4byte	.LASF32
 1615 01b4 04       		.byte	0x4
 1616 01b5 FF03     		.2byte	0x3ff
 1617 01b7 A2000000 		.4byte	0xa2
 1618 01bb 0E       		.byte	0xe
ARM GAS  /var/folders/7z/kps_xzfj7sn5l5gkyq8s9db00000gn/T//ccY40Ifq.s 			page 30


 1619 01bc 0B       		.uleb128 0xb
 1620 01bd 445200   		.ascii	"DR\000"
 1621 01c0 04       		.byte	0x4
 1622 01c1 0004     		.2byte	0x400
 1623 01c3 CF000000 		.4byte	0xcf
 1624 01c7 10       		.byte	0x10
 1625 01c8 0C       		.uleb128 0xc
 1626 01c9 FE040000 		.4byte	.LASF33
 1627 01cd 04       		.byte	0x4
 1628 01ce 0104     		.2byte	0x401
 1629 01d0 A2000000 		.4byte	0xa2
 1630 01d4 12       		.byte	0x12
 1631 01d5 0B       		.uleb128 0xb
 1632 01d6 53523100 		.ascii	"SR1\000"
 1633 01da 04       		.byte	0x4
 1634 01db 0204     		.2byte	0x402
 1635 01dd CF000000 		.4byte	0xcf
 1636 01e1 14       		.byte	0x14
 1637 01e2 0C       		.uleb128 0xc
 1638 01e3 08050000 		.4byte	.LASF34
 1639 01e7 04       		.byte	0x4
 1640 01e8 0304     		.2byte	0x403
 1641 01ea A2000000 		.4byte	0xa2
 1642 01ee 16       		.byte	0x16
 1643 01ef 0B       		.uleb128 0xb
 1644 01f0 53523200 		.ascii	"SR2\000"
 1645 01f4 04       		.byte	0x4
 1646 01f5 0404     		.2byte	0x404
 1647 01f7 CF000000 		.4byte	0xcf
 1648 01fb 18       		.byte	0x18
 1649 01fc 0C       		.uleb128 0xc
 1650 01fd 12050000 		.4byte	.LASF35
 1651 0201 04       		.byte	0x4
 1652 0202 0504     		.2byte	0x405
 1653 0204 A2000000 		.4byte	0xa2
 1654 0208 1A       		.byte	0x1a
 1655 0209 0B       		.uleb128 0xb
 1656 020a 43435200 		.ascii	"CCR\000"
 1657 020e 04       		.byte	0x4
 1658 020f 0604     		.2byte	0x406
 1659 0211 CF000000 		.4byte	0xcf
 1660 0215 1C       		.byte	0x1c
 1661 0216 0C       		.uleb128 0xc
 1662 0217 1C050000 		.4byte	.LASF36
 1663 021b 04       		.byte	0x4
 1664 021c 0704     		.2byte	0x407
 1665 021e A2000000 		.4byte	0xa2
 1666 0222 1E       		.byte	0x1e
 1667 0223 0C       		.uleb128 0xc
 1668 0224 72000000 		.4byte	.LASF37
 1669 0228 04       		.byte	0x4
 1670 0229 0804     		.2byte	0x408
 1671 022b CF000000 		.4byte	0xcf
 1672 022f 20       		.byte	0x20
 1673 0230 0C       		.uleb128 0xc
 1674 0231 26050000 		.4byte	.LASF38
 1675 0235 04       		.byte	0x4
ARM GAS  /var/folders/7z/kps_xzfj7sn5l5gkyq8s9db00000gn/T//ccY40Ifq.s 			page 31


 1676 0236 0904     		.2byte	0x409
 1677 0238 A2000000 		.4byte	0xa2
 1678 023c 22       		.byte	0x22
 1679 023d 0C       		.uleb128 0xc
 1680 023e CE010000 		.4byte	.LASF39
 1681 0242 04       		.byte	0x4
 1682 0243 0A04     		.2byte	0x40a
 1683 0245 CF000000 		.4byte	0xcf
 1684 0249 24       		.byte	0x24
 1685 024a 0C       		.uleb128 0xc
 1686 024b 30050000 		.4byte	.LASF40
 1687 024f 04       		.byte	0x4
 1688 0250 0B04     		.2byte	0x40b
 1689 0252 A2000000 		.4byte	0xa2
 1690 0256 26       		.byte	0x26
 1691 0257 00       		.byte	0
 1692 0258 09       		.uleb128 0x9
 1693 0259 46070000 		.4byte	.LASF41
 1694 025d 04       		.byte	0x4
 1695 025e 0C04     		.2byte	0x40c
 1696 0260 4B010000 		.4byte	0x14b
 1697 0264 0D       		.uleb128 0xd
 1698 0265 10       		.byte	0x10
 1699 0266 05       		.byte	0x5
 1700 0267 30       		.byte	0x30
 1701 0268 9D020000 		.4byte	0x29d
 1702 026c 0E       		.uleb128 0xe
 1703 026d 87050000 		.4byte	.LASF42
 1704 0271 05       		.byte	0x5
 1705 0272 32       		.byte	0x32
 1706 0273 B8000000 		.4byte	0xb8
 1707 0277 00       		.byte	0
 1708 0278 0E       		.uleb128 0xe
 1709 0279 26020000 		.4byte	.LASF43
 1710 027d 05       		.byte	0x5
 1711 027e 33       		.byte	0x33
 1712 027f B8000000 		.4byte	0xb8
 1713 0283 04       		.byte	0x4
 1714 0284 0E       		.uleb128 0xe
 1715 0285 E8050000 		.4byte	.LASF44
 1716 0289 05       		.byte	0x5
 1717 028a 34       		.byte	0x34
 1718 028b B8000000 		.4byte	0xb8
 1719 028f 08       		.byte	0x8
 1720 0290 0E       		.uleb128 0xe
 1721 0291 82010000 		.4byte	.LASF45
 1722 0295 05       		.byte	0x5
 1723 0296 35       		.byte	0x35
 1724 0297 B8000000 		.4byte	0xb8
 1725 029b 0C       		.byte	0xc
 1726 029c 00       		.byte	0
 1727 029d 03       		.uleb128 0x3
 1728 029e 1B070000 		.4byte	.LASF46
 1729 02a2 05       		.byte	0x5
 1730 02a3 36       		.byte	0x36
 1731 02a4 64020000 		.4byte	0x264
 1732 02a8 0D       		.uleb128 0xd
ARM GAS  /var/folders/7z/kps_xzfj7sn5l5gkyq8s9db00000gn/T//ccY40Ifq.s 			page 32


 1733 02a9 10       		.byte	0x10
 1734 02aa 06       		.byte	0x6
 1735 02ab 36       		.byte	0x36
 1736 02ac F9020000 		.4byte	0x2f9
 1737 02b0 0E       		.uleb128 0xe
 1738 02b1 92010000 		.4byte	.LASF47
 1739 02b5 06       		.byte	0x6
 1740 02b6 38       		.byte	0x38
 1741 02b7 B8000000 		.4byte	0xb8
 1742 02bb 00       		.byte	0
 1743 02bc 0E       		.uleb128 0xe
 1744 02bd A1010000 		.4byte	.LASF48
 1745 02c1 06       		.byte	0x6
 1746 02c2 3B       		.byte	0x3b
 1747 02c3 A2000000 		.4byte	0xa2
 1748 02c7 04       		.byte	0x4
 1749 02c8 0E       		.uleb128 0xe
 1750 02c9 DB030000 		.4byte	.LASF49
 1751 02cd 06       		.byte	0x6
 1752 02ce 3E       		.byte	0x3e
 1753 02cf A2000000 		.4byte	0xa2
 1754 02d3 06       		.byte	0x6
 1755 02d4 0E       		.uleb128 0xe
 1756 02d5 3A050000 		.4byte	.LASF50
 1757 02d9 06       		.byte	0x6
 1758 02da 41       		.byte	0x41
 1759 02db A2000000 		.4byte	0xa2
 1760 02df 08       		.byte	0x8
 1761 02e0 0E       		.uleb128 0xe
 1762 02e1 6B050000 		.4byte	.LASF51
 1763 02e5 06       		.byte	0x6
 1764 02e6 44       		.byte	0x44
 1765 02e7 A2000000 		.4byte	0xa2
 1766 02eb 0A       		.byte	0xa
 1767 02ec 0E       		.uleb128 0xe
 1768 02ed B6050000 		.4byte	.LASF52
 1769 02f1 06       		.byte	0x6
 1770 02f2 47       		.byte	0x47
 1771 02f3 A2000000 		.4byte	0xa2
 1772 02f7 0C       		.byte	0xc
 1773 02f8 00       		.byte	0
 1774 02f9 03       		.uleb128 0x3
 1775 02fa B1040000 		.4byte	.LASF53
 1776 02fe 06       		.byte	0x6
 1777 02ff 49       		.byte	0x49
 1778 0300 A8020000 		.4byte	0x2a8
 1779 0304 0F       		.uleb128 0xf
 1780 0305 64040000 		.4byte	.LASF54
 1781 0309 01       		.byte	0x1
 1782 030a 8A       		.byte	0x8a
 1783 030b 00000000 		.4byte	.LFB111
 1784 030f 6C000000 		.4byte	.LFE111-.LFB111
 1785 0313 01       		.uleb128 0x1
 1786 0314 9C       		.byte	0x9c
 1787 0315 C1030000 		.4byte	0x3c1
 1788 0319 10       		.uleb128 0x10
 1789 031a 17040000 		.4byte	.LASF56
ARM GAS  /var/folders/7z/kps_xzfj7sn5l5gkyq8s9db00000gn/T//ccY40Ifq.s 			page 33


 1790 031e 01       		.byte	0x1
 1791 031f 8A       		.byte	0x8a
 1792 0320 C1030000 		.4byte	0x3c1
 1793 0324 00000000 		.4byte	.LLST0
 1794 0328 11       		.uleb128 0x11
 1795 0329 20000000 		.4byte	.LVL2
 1796 032d AF0B0000 		.4byte	0xbaf
 1797 0331 42030000 		.4byte	0x342
 1798 0335 12       		.uleb128 0x12
 1799 0336 01       		.uleb128 0x1
 1800 0337 51       		.byte	0x51
 1801 0338 01       		.uleb128 0x1
 1802 0339 31       		.byte	0x31
 1803 033a 12       		.uleb128 0x12
 1804 033b 01       		.uleb128 0x1
 1805 033c 50       		.byte	0x50
 1806 033d 03       		.uleb128 0x3
 1807 033e 40       		.byte	0x40
 1808 033f 43       		.byte	0x43
 1809 0340 24       		.byte	0x24
 1810 0341 00       		.byte	0
 1811 0342 13       		.uleb128 0x13
 1812 0343 2E000000 		.4byte	.LVL3
 1813 0347 AF0B0000 		.4byte	0xbaf
 1814 034b 5C030000 		.4byte	0x35c
 1815 034f 12       		.uleb128 0x12
 1816 0350 01       		.uleb128 0x1
 1817 0351 51       		.byte	0x51
 1818 0352 01       		.uleb128 0x1
 1819 0353 30       		.byte	0x30
 1820 0354 12       		.uleb128 0x12
 1821 0355 01       		.uleb128 0x1
 1822 0356 50       		.byte	0x50
 1823 0357 03       		.uleb128 0x3
 1824 0358 40       		.byte	0x40
 1825 0359 43       		.byte	0x43
 1826 035a 24       		.byte	0x24
 1827 035b 00       		.byte	0
 1828 035c 11       		.uleb128 0x11
 1829 035d 38000000 		.4byte	.LVL5
 1830 0361 AF0B0000 		.4byte	0xbaf
 1831 0365 76030000 		.4byte	0x376
 1832 0369 12       		.uleb128 0x12
 1833 036a 01       		.uleb128 0x1
 1834 036b 51       		.byte	0x51
 1835 036c 01       		.uleb128 0x1
 1836 036d 31       		.byte	0x31
 1837 036e 12       		.uleb128 0x12
 1838 036f 01       		.uleb128 0x1
 1839 0370 50       		.byte	0x50
 1840 0371 03       		.uleb128 0x3
 1841 0372 40       		.byte	0x40
 1842 0373 41       		.byte	0x41
 1843 0374 24       		.byte	0x24
 1844 0375 00       		.byte	0
 1845 0376 13       		.uleb128 0x13
 1846 0377 46000000 		.4byte	.LVL6
ARM GAS  /var/folders/7z/kps_xzfj7sn5l5gkyq8s9db00000gn/T//ccY40Ifq.s 			page 34


 1847 037b AF0B0000 		.4byte	0xbaf
 1848 037f 90030000 		.4byte	0x390
 1849 0383 12       		.uleb128 0x12
 1850 0384 01       		.uleb128 0x1
 1851 0385 51       		.byte	0x51
 1852 0386 01       		.uleb128 0x1
 1853 0387 30       		.byte	0x30
 1854 0388 12       		.uleb128 0x12
 1855 0389 01       		.uleb128 0x1
 1856 038a 50       		.byte	0x50
 1857 038b 03       		.uleb128 0x3
 1858 038c 40       		.byte	0x40
 1859 038d 41       		.byte	0x41
 1860 038e 24       		.byte	0x24
 1861 038f 00       		.byte	0
 1862 0390 11       		.uleb128 0x11
 1863 0391 50000000 		.4byte	.LVL8
 1864 0395 AF0B0000 		.4byte	0xbaf
 1865 0399 AA030000 		.4byte	0x3aa
 1866 039d 12       		.uleb128 0x12
 1867 039e 01       		.uleb128 0x1
 1868 039f 51       		.byte	0x51
 1869 03a0 01       		.uleb128 0x1
 1870 03a1 31       		.byte	0x31
 1871 03a2 12       		.uleb128 0x12
 1872 03a3 01       		.uleb128 0x1
 1873 03a4 50       		.byte	0x50
 1874 03a5 03       		.uleb128 0x3
 1875 03a6 40       		.byte	0x40
 1876 03a7 42       		.byte	0x42
 1877 03a8 24       		.byte	0x24
 1878 03a9 00       		.byte	0
 1879 03aa 14       		.uleb128 0x14
 1880 03ab 5E000000 		.4byte	.LVL9
 1881 03af AF0B0000 		.4byte	0xbaf
 1882 03b3 12       		.uleb128 0x12
 1883 03b4 01       		.uleb128 0x1
 1884 03b5 51       		.byte	0x51
 1885 03b6 01       		.uleb128 0x1
 1886 03b7 30       		.byte	0x30
 1887 03b8 12       		.uleb128 0x12
 1888 03b9 01       		.uleb128 0x1
 1889 03ba 50       		.byte	0x50
 1890 03bb 03       		.uleb128 0x3
 1891 03bc 40       		.byte	0x40
 1892 03bd 42       		.byte	0x42
 1893 03be 24       		.byte	0x24
 1894 03bf 00       		.byte	0
 1895 03c0 00       		.byte	0
 1896 03c1 15       		.uleb128 0x15
 1897 03c2 04       		.byte	0x4
 1898 03c3 58020000 		.4byte	0x258
 1899 03c7 0F       		.uleb128 0xf
 1900 03c8 C7030000 		.4byte	.LASF55
 1901 03cc 01       		.byte	0x1
 1902 03cd B5       		.byte	0xb5
 1903 03ce 00000000 		.4byte	.LFB112
ARM GAS  /var/folders/7z/kps_xzfj7sn5l5gkyq8s9db00000gn/T//ccY40Ifq.s 			page 35


 1904 03d2 E8000000 		.4byte	.LFE112-.LFB112
 1905 03d6 01       		.uleb128 0x1
 1906 03d7 9C       		.byte	0x9c
 1907 03d8 55040000 		.4byte	0x455
 1908 03dc 10       		.uleb128 0x10
 1909 03dd 17040000 		.4byte	.LASF56
 1910 03e1 01       		.byte	0x1
 1911 03e2 B5       		.byte	0xb5
 1912 03e3 C1030000 		.4byte	0x3c1
 1913 03e7 53000000 		.4byte	.LLST1
 1914 03eb 10       		.uleb128 0x10
 1915 03ec 31010000 		.4byte	.LASF57
 1916 03f0 01       		.byte	0x1
 1917 03f1 B5       		.byte	0xb5
 1918 03f2 55040000 		.4byte	0x455
 1919 03f6 71000000 		.4byte	.LLST2
 1920 03fa 16       		.uleb128 0x16
 1921 03fb 52070000 		.4byte	.LASF58
 1922 03ff 01       		.byte	0x1
 1923 0400 B7       		.byte	0xb7
 1924 0401 A2000000 		.4byte	0xa2
 1925 0405 8F000000 		.4byte	.LLST3
 1926 0409 16       		.uleb128 0x16
 1927 040a 5A010000 		.4byte	.LASF59
 1928 040e 01       		.byte	0x1
 1929 040f B7       		.byte	0xb7
 1930 0410 A2000000 		.4byte	0xa2
 1931 0414 09010000 		.4byte	.LLST4
 1932 0418 16       		.uleb128 0x16
 1933 0419 59070000 		.4byte	.LASF60
 1934 041d 01       		.byte	0x1
 1935 041e B8       		.byte	0xb8
 1936 041f A2000000 		.4byte	0xa2
 1937 0423 63010000 		.4byte	.LLST5
 1938 0427 16       		.uleb128 0x16
 1939 0428 C8040000 		.4byte	.LASF61
 1940 042c 01       		.byte	0x1
 1941 042d B9       		.byte	0xb9
 1942 042e B8000000 		.4byte	0xb8
 1943 0432 B0010000 		.4byte	.LLST6
 1944 0436 17       		.uleb128 0x17
 1945 0437 4A050000 		.4byte	.LASF62
 1946 043b 01       		.byte	0x1
 1947 043c BA       		.byte	0xba
 1948 043d 9D020000 		.4byte	0x29d
 1949 0441 02       		.uleb128 0x2
 1950 0442 91       		.byte	0x91
 1951 0443 58       		.sleb128 -40
 1952 0444 18       		.uleb128 0x18
 1953 0445 10000000 		.4byte	.LVL13
 1954 0449 C60B0000 		.4byte	0xbc6
 1955 044d 12       		.uleb128 0x12
 1956 044e 01       		.uleb128 0x1
 1957 044f 50       		.byte	0x50
 1958 0450 02       		.uleb128 0x2
 1959 0451 7D       		.byte	0x7d
 1960 0452 00       		.sleb128 0
ARM GAS  /var/folders/7z/kps_xzfj7sn5l5gkyq8s9db00000gn/T//ccY40Ifq.s 			page 36


 1961 0453 00       		.byte	0
 1962 0454 00       		.byte	0
 1963 0455 15       		.uleb128 0x15
 1964 0456 04       		.byte	0x4
 1965 0457 F9020000 		.4byte	0x2f9
 1966 045b 19       		.uleb128 0x19
 1967 045c AA010000 		.4byte	.LASF63
 1968 0460 01       		.byte	0x1
 1969 0461 2201     		.2byte	0x122
 1970 0463 00000000 		.4byte	.LFB113
 1971 0467 22000000 		.4byte	.LFE113-.LFB113
 1972 046b 01       		.uleb128 0x1
 1973 046c 9C       		.byte	0x9c
 1974 046d 80040000 		.4byte	0x480
 1975 0471 1A       		.uleb128 0x1a
 1976 0472 31010000 		.4byte	.LASF57
 1977 0476 01       		.byte	0x1
 1978 0477 2201     		.2byte	0x122
 1979 0479 55040000 		.4byte	0x455
 1980 047d 01       		.uleb128 0x1
 1981 047e 50       		.byte	0x50
 1982 047f 00       		.byte	0
 1983 0480 19       		.uleb128 0x19
 1984 0481 CE040000 		.4byte	.LASF64
 1985 0485 01       		.byte	0x1
 1986 0486 3A01     		.2byte	0x13a
 1987 0488 00000000 		.4byte	.LFB114
 1988 048c 1A000000 		.4byte	.LFE114-.LFB114
 1989 0490 01       		.uleb128 0x1
 1990 0491 9C       		.byte	0x9c
 1991 0492 B3040000 		.4byte	0x4b3
 1992 0496 1A       		.uleb128 0x1a
 1993 0497 17040000 		.4byte	.LASF56
 1994 049b 01       		.byte	0x1
 1995 049c 3A01     		.2byte	0x13a
 1996 049e C1030000 		.4byte	0x3c1
 1997 04a2 01       		.uleb128 0x1
 1998 04a3 50       		.byte	0x50
 1999 04a4 1A       		.uleb128 0x1a
 2000 04a5 16000000 		.4byte	.LASF65
 2001 04a9 01       		.byte	0x1
 2002 04aa 3A01     		.2byte	0x13a
 2003 04ac 1D010000 		.4byte	0x11d
 2004 04b0 01       		.uleb128 0x1
 2005 04b1 51       		.byte	0x51
 2006 04b2 00       		.byte	0
 2007 04b3 19       		.uleb128 0x19
 2008 04b4 1F000000 		.4byte	.LASF66
 2009 04b8 01       		.byte	0x1
 2010 04b9 5201     		.2byte	0x152
 2011 04bb 00000000 		.4byte	.LFB115
 2012 04bf 1A000000 		.4byte	.LFE115-.LFB115
 2013 04c3 01       		.uleb128 0x1
 2014 04c4 9C       		.byte	0x9c
 2015 04c5 E6040000 		.4byte	0x4e6
 2016 04c9 1A       		.uleb128 0x1a
 2017 04ca 17040000 		.4byte	.LASF56
ARM GAS  /var/folders/7z/kps_xzfj7sn5l5gkyq8s9db00000gn/T//ccY40Ifq.s 			page 37


 2018 04ce 01       		.byte	0x1
 2019 04cf 5201     		.2byte	0x152
 2020 04d1 C1030000 		.4byte	0x3c1
 2021 04d5 01       		.uleb128 0x1
 2022 04d6 50       		.byte	0x50
 2023 04d7 1A       		.uleb128 0x1a
 2024 04d8 16000000 		.4byte	.LASF65
 2025 04dc 01       		.byte	0x1
 2026 04dd 5201     		.2byte	0x152
 2027 04df 1D010000 		.4byte	0x11d
 2028 04e3 01       		.uleb128 0x1
 2029 04e4 51       		.byte	0x51
 2030 04e5 00       		.byte	0
 2031 04e6 19       		.uleb128 0x19
 2032 04e7 0A070000 		.4byte	.LASF67
 2033 04eb 01       		.byte	0x1
 2034 04ec 6A01     		.2byte	0x16a
 2035 04ee 00000000 		.4byte	.LFB116
 2036 04f2 1A000000 		.4byte	.LFE116-.LFB116
 2037 04f6 01       		.uleb128 0x1
 2038 04f7 9C       		.byte	0x9c
 2039 04f8 19050000 		.4byte	0x519
 2040 04fc 1A       		.uleb128 0x1a
 2041 04fd 17040000 		.4byte	.LASF56
 2042 0501 01       		.byte	0x1
 2043 0502 6A01     		.2byte	0x16a
 2044 0504 C1030000 		.4byte	0x3c1
 2045 0508 01       		.uleb128 0x1
 2046 0509 50       		.byte	0x50
 2047 050a 1A       		.uleb128 0x1a
 2048 050b 16000000 		.4byte	.LASF65
 2049 050f 01       		.byte	0x1
 2050 0510 6A01     		.2byte	0x16a
 2051 0512 1D010000 		.4byte	0x11d
 2052 0516 01       		.uleb128 0x1
 2053 0517 51       		.byte	0x51
 2054 0518 00       		.byte	0
 2055 0519 19       		.uleb128 0x19
 2056 051a E0060000 		.4byte	.LASF68
 2057 051e 01       		.byte	0x1
 2058 051f 8601     		.2byte	0x186
 2059 0521 00000000 		.4byte	.LFB117
 2060 0525 16000000 		.4byte	.LFE117-.LFB117
 2061 0529 01       		.uleb128 0x1
 2062 052a 9C       		.byte	0x9c
 2063 052b 5C050000 		.4byte	0x55c
 2064 052f 1A       		.uleb128 0x1a
 2065 0530 17040000 		.4byte	.LASF56
 2066 0534 01       		.byte	0x1
 2067 0535 8601     		.2byte	0x186
 2068 0537 C1030000 		.4byte	0x3c1
 2069 053b 01       		.uleb128 0x1
 2070 053c 50       		.byte	0x50
 2071 053d 1B       		.uleb128 0x1b
 2072 053e 0F040000 		.4byte	.LASF69
 2073 0542 01       		.byte	0x1
 2074 0543 8601     		.2byte	0x186
ARM GAS  /var/folders/7z/kps_xzfj7sn5l5gkyq8s9db00000gn/T//ccY40Ifq.s 			page 38


 2075 0545 97000000 		.4byte	0x97
 2076 0549 0D020000 		.4byte	.LLST7
 2077 054d 1A       		.uleb128 0x1a
 2078 054e 1C040000 		.4byte	.LASF70
 2079 0552 01       		.byte	0x1
 2080 0553 8601     		.2byte	0x186
 2081 0555 97000000 		.4byte	0x97
 2082 0559 01       		.uleb128 0x1
 2083 055a 52       		.byte	0x52
 2084 055b 00       		.byte	0
 2085 055c 19       		.uleb128 0x19
 2086 055d 67060000 		.4byte	.LASF71
 2087 0561 01       		.byte	0x1
 2088 0562 A101     		.2byte	0x1a1
 2089 0564 00000000 		.4byte	.LFB118
 2090 0568 1A000000 		.4byte	.LFE118-.LFB118
 2091 056c 01       		.uleb128 0x1
 2092 056d 9C       		.byte	0x9c
 2093 056e 8F050000 		.4byte	0x58f
 2094 0572 1A       		.uleb128 0x1a
 2095 0573 17040000 		.4byte	.LASF56
 2096 0577 01       		.byte	0x1
 2097 0578 A101     		.2byte	0x1a1
 2098 057a C1030000 		.4byte	0x3c1
 2099 057e 01       		.uleb128 0x1
 2100 057f 50       		.byte	0x50
 2101 0580 1A       		.uleb128 0x1a
 2102 0581 16000000 		.4byte	.LASF65
 2103 0585 01       		.byte	0x1
 2104 0586 A101     		.2byte	0x1a1
 2105 0588 1D010000 		.4byte	0x11d
 2106 058c 01       		.uleb128 0x1
 2107 058d 51       		.byte	0x51
 2108 058e 00       		.byte	0
 2109 058f 19       		.uleb128 0x19
 2110 0590 1B010000 		.4byte	.LASF72
 2111 0594 01       		.byte	0x1
 2112 0595 B801     		.2byte	0x1b8
 2113 0597 00000000 		.4byte	.LFB119
 2114 059b 12000000 		.4byte	.LFE119-.LFB119
 2115 059f 01       		.uleb128 0x1
 2116 05a0 9C       		.byte	0x9c
 2117 05a1 D4050000 		.4byte	0x5d4
 2118 05a5 1A       		.uleb128 0x1a
 2119 05a6 17040000 		.4byte	.LASF56
 2120 05aa 01       		.byte	0x1
 2121 05ab B801     		.2byte	0x1b8
 2122 05ad C1030000 		.4byte	0x3c1
 2123 05b1 01       		.uleb128 0x1
 2124 05b2 50       		.byte	0x50
 2125 05b3 1B       		.uleb128 0x1b
 2126 05b4 0F040000 		.4byte	.LASF69
 2127 05b8 01       		.byte	0x1
 2128 05b9 B801     		.2byte	0x1b8
 2129 05bb 97000000 		.4byte	0x97
 2130 05bf 36020000 		.4byte	.LLST8
 2131 05c3 1C       		.uleb128 0x1c
ARM GAS  /var/folders/7z/kps_xzfj7sn5l5gkyq8s9db00000gn/T//ccY40Ifq.s 			page 39


 2132 05c4 52070000 		.4byte	.LASF58
 2133 05c8 01       		.byte	0x1
 2134 05c9 BA01     		.2byte	0x1ba
 2135 05cb A2000000 		.4byte	0xa2
 2136 05cf 57020000 		.4byte	.LLST9
 2137 05d3 00       		.byte	0
 2138 05d4 19       		.uleb128 0x19
 2139 05d5 26060000 		.4byte	.LASF73
 2140 05d9 01       		.byte	0x1
 2141 05da D301     		.2byte	0x1d3
 2142 05dc 00000000 		.4byte	.LFB120
 2143 05e0 1A000000 		.4byte	.LFE120-.LFB120
 2144 05e4 01       		.uleb128 0x1
 2145 05e5 9C       		.byte	0x9c
 2146 05e6 07060000 		.4byte	0x607
 2147 05ea 1A       		.uleb128 0x1a
 2148 05eb 17040000 		.4byte	.LASF56
 2149 05ef 01       		.byte	0x1
 2150 05f0 D301     		.2byte	0x1d3
 2151 05f2 C1030000 		.4byte	0x3c1
 2152 05f6 01       		.uleb128 0x1
 2153 05f7 50       		.byte	0x50
 2154 05f8 1A       		.uleb128 0x1a
 2155 05f9 16000000 		.4byte	.LASF65
 2156 05fd 01       		.byte	0x1
 2157 05fe D301     		.2byte	0x1d3
 2158 0600 1D010000 		.4byte	0x11d
 2159 0604 01       		.uleb128 0x1
 2160 0605 51       		.byte	0x51
 2161 0606 00       		.byte	0
 2162 0607 19       		.uleb128 0x19
 2163 0608 6F040000 		.4byte	.LASF74
 2164 060c 01       		.byte	0x1
 2165 060d EB01     		.2byte	0x1eb
 2166 060f 00000000 		.4byte	.LFB121
 2167 0613 1A000000 		.4byte	.LFE121-.LFB121
 2168 0617 01       		.uleb128 0x1
 2169 0618 9C       		.byte	0x9c
 2170 0619 3A060000 		.4byte	0x63a
 2171 061d 1A       		.uleb128 0x1a
 2172 061e 17040000 		.4byte	.LASF56
 2173 0622 01       		.byte	0x1
 2174 0623 EB01     		.2byte	0x1eb
 2175 0625 C1030000 		.4byte	0x3c1
 2176 0629 01       		.uleb128 0x1
 2177 062a 50       		.byte	0x50
 2178 062b 1A       		.uleb128 0x1a
 2179 062c 16000000 		.4byte	.LASF65
 2180 0630 01       		.byte	0x1
 2181 0631 EB01     		.2byte	0x1eb
 2182 0633 1D010000 		.4byte	0x11d
 2183 0637 01       		.uleb128 0x1
 2184 0638 51       		.byte	0x51
 2185 0639 00       		.byte	0
 2186 063a 19       		.uleb128 0x19
 2187 063b C3060000 		.4byte	.LASF75
 2188 063f 01       		.byte	0x1
ARM GAS  /var/folders/7z/kps_xzfj7sn5l5gkyq8s9db00000gn/T//ccY40Ifq.s 			page 40


 2189 0640 0502     		.2byte	0x205
 2190 0642 00000000 		.4byte	.LFB122
 2191 0646 1A000000 		.4byte	.LFE122-.LFB122
 2192 064a 01       		.uleb128 0x1
 2193 064b 9C       		.byte	0x9c
 2194 064c 6D060000 		.4byte	0x66d
 2195 0650 1A       		.uleb128 0x1a
 2196 0651 17040000 		.4byte	.LASF56
 2197 0655 01       		.byte	0x1
 2198 0656 0502     		.2byte	0x205
 2199 0658 C1030000 		.4byte	0x3c1
 2200 065c 01       		.uleb128 0x1
 2201 065d 50       		.byte	0x50
 2202 065e 1A       		.uleb128 0x1a
 2203 065f 16000000 		.4byte	.LASF65
 2204 0663 01       		.byte	0x1
 2205 0664 0502     		.2byte	0x205
 2206 0666 1D010000 		.4byte	0x11d
 2207 066a 01       		.uleb128 0x1
 2208 066b 51       		.byte	0x51
 2209 066c 00       		.byte	0
 2210 066d 19       		.uleb128 0x19
 2211 066e 47000000 		.4byte	.LASF76
 2212 0672 01       		.byte	0x1
 2213 0673 1D02     		.2byte	0x21d
 2214 0675 00000000 		.4byte	.LFB123
 2215 0679 1A000000 		.4byte	.LFE123-.LFB123
 2216 067d 01       		.uleb128 0x1
 2217 067e 9C       		.byte	0x9c
 2218 067f A0060000 		.4byte	0x6a0
 2219 0683 1A       		.uleb128 0x1a
 2220 0684 17040000 		.4byte	.LASF56
 2221 0688 01       		.byte	0x1
 2222 0689 1D02     		.2byte	0x21d
 2223 068b C1030000 		.4byte	0x3c1
 2224 068f 01       		.uleb128 0x1
 2225 0690 50       		.byte	0x50
 2226 0691 1A       		.uleb128 0x1a
 2227 0692 16000000 		.4byte	.LASF65
 2228 0696 01       		.byte	0x1
 2229 0697 1D02     		.2byte	0x21d
 2230 0699 1D010000 		.4byte	0x11d
 2231 069d 01       		.uleb128 0x1
 2232 069e 51       		.byte	0x51
 2233 069f 00       		.byte	0
 2234 06a0 19       		.uleb128 0x19
 2235 06a1 F8050000 		.4byte	.LASF77
 2236 06a5 01       		.byte	0x1
 2237 06a6 3702     		.2byte	0x237
 2238 06a8 00000000 		.4byte	.LFB124
 2239 06ac 1E000000 		.4byte	.LFE124-.LFB124
 2240 06b0 01       		.uleb128 0x1
 2241 06b1 9C       		.byte	0x9c
 2242 06b2 D3060000 		.4byte	0x6d3
 2243 06b6 1A       		.uleb128 0x1a
 2244 06b7 17040000 		.4byte	.LASF56
 2245 06bb 01       		.byte	0x1
ARM GAS  /var/folders/7z/kps_xzfj7sn5l5gkyq8s9db00000gn/T//ccY40Ifq.s 			page 41


 2246 06bc 3702     		.2byte	0x237
 2247 06be C1030000 		.4byte	0x3c1
 2248 06c2 01       		.uleb128 0x1
 2249 06c3 50       		.byte	0x50
 2250 06c4 1A       		.uleb128 0x1a
 2251 06c5 DB030000 		.4byte	.LASF49
 2252 06c9 01       		.byte	0x1
 2253 06ca 3702     		.2byte	0x237
 2254 06cc A2000000 		.4byte	0xa2
 2255 06d0 01       		.uleb128 0x1
 2256 06d1 51       		.byte	0x51
 2257 06d2 00       		.byte	0
 2258 06d3 19       		.uleb128 0x19
 2259 06d4 04010000 		.4byte	.LASF78
 2260 06d8 01       		.byte	0x1
 2261 06d9 5D02     		.2byte	0x25d
 2262 06db 00000000 		.4byte	.LFB125
 2263 06df 1E000000 		.4byte	.LFE125-.LFB125
 2264 06e3 01       		.uleb128 0x1
 2265 06e4 9C       		.byte	0x9c
 2266 06e5 06070000 		.4byte	0x706
 2267 06e9 1A       		.uleb128 0x1a
 2268 06ea 17040000 		.4byte	.LASF56
 2269 06ee 01       		.byte	0x1
 2270 06ef 5D02     		.2byte	0x25d
 2271 06f1 C1030000 		.4byte	0x3c1
 2272 06f5 01       		.uleb128 0x1
 2273 06f6 50       		.byte	0x50
 2274 06f7 1A       		.uleb128 0x1a
 2275 06f8 2A040000 		.4byte	.LASF79
 2276 06fc 01       		.byte	0x1
 2277 06fd 5D02     		.2byte	0x25d
 2278 06ff A2000000 		.4byte	0xa2
 2279 0703 01       		.uleb128 0x1
 2280 0704 51       		.byte	0x51
 2281 0705 00       		.byte	0
 2282 0706 19       		.uleb128 0x19
 2283 0707 07020000 		.4byte	.LASF80
 2284 070b 01       		.byte	0x1
 2285 070c 7902     		.2byte	0x279
 2286 070e 00000000 		.4byte	.LFB126
 2287 0712 1E000000 		.4byte	.LFE126-.LFB126
 2288 0716 01       		.uleb128 0x1
 2289 0717 9C       		.byte	0x9c
 2290 0718 39070000 		.4byte	0x739
 2291 071c 1A       		.uleb128 0x1a
 2292 071d 17040000 		.4byte	.LASF56
 2293 0721 01       		.byte	0x1
 2294 0722 7902     		.2byte	0x279
 2295 0724 C1030000 		.4byte	0x3c1
 2296 0728 01       		.uleb128 0x1
 2297 0729 50       		.byte	0x50
 2298 072a 1A       		.uleb128 0x1a
 2299 072b 00040000 		.4byte	.LASF81
 2300 072f 01       		.byte	0x1
 2301 0730 7902     		.2byte	0x279
 2302 0732 A2000000 		.4byte	0xa2
ARM GAS  /var/folders/7z/kps_xzfj7sn5l5gkyq8s9db00000gn/T//ccY40Ifq.s 			page 42


 2303 0736 01       		.uleb128 0x1
 2304 0737 51       		.byte	0x51
 2305 0738 00       		.byte	0
 2306 0739 19       		.uleb128 0x19
 2307 073a D0030000 		.4byte	.LASF82
 2308 073e 01       		.byte	0x1
 2309 073f 9102     		.2byte	0x291
 2310 0741 00000000 		.4byte	.LFB127
 2311 0745 1A000000 		.4byte	.LFE127-.LFB127
 2312 0749 01       		.uleb128 0x1
 2313 074a 9C       		.byte	0x9c
 2314 074b 6C070000 		.4byte	0x76c
 2315 074f 1A       		.uleb128 0x1a
 2316 0750 17040000 		.4byte	.LASF56
 2317 0754 01       		.byte	0x1
 2318 0755 9102     		.2byte	0x291
 2319 0757 C1030000 		.4byte	0x3c1
 2320 075b 01       		.uleb128 0x1
 2321 075c 50       		.byte	0x50
 2322 075d 1A       		.uleb128 0x1a
 2323 075e 16000000 		.4byte	.LASF65
 2324 0762 01       		.byte	0x1
 2325 0763 9102     		.2byte	0x291
 2326 0765 1D010000 		.4byte	0x11d
 2327 0769 01       		.uleb128 0x1
 2328 076a 51       		.byte	0x51
 2329 076b 00       		.byte	0
 2330 076c 19       		.uleb128 0x19
 2331 076d 64010000 		.4byte	.LASF83
 2332 0771 01       		.byte	0x1
 2333 0772 B702     		.2byte	0x2b7
 2334 0774 00000000 		.4byte	.LFB128
 2335 0778 04000000 		.4byte	.LFE128-.LFB128
 2336 077c 01       		.uleb128 0x1
 2337 077d 9C       		.byte	0x9c
 2338 077e 9F070000 		.4byte	0x79f
 2339 0782 1A       		.uleb128 0x1a
 2340 0783 17040000 		.4byte	.LASF56
 2341 0787 01       		.byte	0x1
 2342 0788 B702     		.2byte	0x2b7
 2343 078a C1030000 		.4byte	0x3c1
 2344 078e 01       		.uleb128 0x1
 2345 078f 50       		.byte	0x50
 2346 0790 1A       		.uleb128 0x1a
 2347 0791 82040000 		.4byte	.LASF84
 2348 0795 01       		.byte	0x1
 2349 0796 B702     		.2byte	0x2b7
 2350 0798 97000000 		.4byte	0x97
 2351 079c 01       		.uleb128 0x1
 2352 079d 51       		.byte	0x51
 2353 079e 00       		.byte	0
 2354 079f 1D       		.uleb128 0x1d
 2355 07a0 98050000 		.4byte	.LASF89
 2356 07a4 01       		.byte	0x1
 2357 07a5 C402     		.2byte	0x2c4
 2358 07a7 97000000 		.4byte	0x97
 2359 07ab 00000000 		.4byte	.LFB129
ARM GAS  /var/folders/7z/kps_xzfj7sn5l5gkyq8s9db00000gn/T//ccY40Ifq.s 			page 43


 2360 07af 06000000 		.4byte	.LFE129-.LFB129
 2361 07b3 01       		.uleb128 0x1
 2362 07b4 9C       		.byte	0x9c
 2363 07b5 CA070000 		.4byte	0x7ca
 2364 07b9 1B       		.uleb128 0x1b
 2365 07ba 17040000 		.4byte	.LASF56
 2366 07be 01       		.byte	0x1
 2367 07bf C402     		.2byte	0x2c4
 2368 07c1 C1030000 		.4byte	0x3c1
 2369 07c5 87020000 		.4byte	.LLST10
 2370 07c9 00       		.byte	0
 2371 07ca 19       		.uleb128 0x19
 2372 07cb F0030000 		.4byte	.LASF85
 2373 07cf 01       		.byte	0x1
 2374 07d0 E302     		.2byte	0x2e3
 2375 07d2 00000000 		.4byte	.LFB130
 2376 07d6 1A000000 		.4byte	.LFE130-.LFB130
 2377 07da 01       		.uleb128 0x1
 2378 07db 9C       		.byte	0x9c
 2379 07dc FD070000 		.4byte	0x7fd
 2380 07e0 1A       		.uleb128 0x1a
 2381 07e1 17040000 		.4byte	.LASF56
 2382 07e5 01       		.byte	0x1
 2383 07e6 E302     		.2byte	0x2e3
 2384 07e8 C1030000 		.4byte	0x3c1
 2385 07ec 01       		.uleb128 0x1
 2386 07ed 50       		.byte	0x50
 2387 07ee 1A       		.uleb128 0x1a
 2388 07ef 16000000 		.4byte	.LASF65
 2389 07f3 01       		.byte	0x1
 2390 07f4 E302     		.2byte	0x2e3
 2391 07f6 1D010000 		.4byte	0x11d
 2392 07fa 01       		.uleb128 0x1
 2393 07fb 51       		.byte	0x51
 2394 07fc 00       		.byte	0
 2395 07fd 19       		.uleb128 0x19
 2396 07fe A9030000 		.4byte	.LASF86
 2397 0802 01       		.byte	0x1
 2398 0803 0203     		.2byte	0x302
 2399 0805 00000000 		.4byte	.LFB131
 2400 0809 1E000000 		.4byte	.LFE131-.LFB131
 2401 080d 01       		.uleb128 0x1
 2402 080e 9C       		.byte	0x9c
 2403 080f 30080000 		.4byte	0x830
 2404 0813 1A       		.uleb128 0x1a
 2405 0814 17040000 		.4byte	.LASF56
 2406 0818 01       		.byte	0x1
 2407 0819 0203     		.2byte	0x302
 2408 081b C1030000 		.4byte	0x3c1
 2409 081f 01       		.uleb128 0x1
 2410 0820 50       		.byte	0x50
 2411 0821 1A       		.uleb128 0x1a
 2412 0822 90060000 		.4byte	.LASF87
 2413 0826 01       		.byte	0x1
 2414 0827 0203     		.2byte	0x302
 2415 0829 A2000000 		.4byte	0xa2
 2416 082d 01       		.uleb128 0x1
ARM GAS  /var/folders/7z/kps_xzfj7sn5l5gkyq8s9db00000gn/T//ccY40Ifq.s 			page 44


 2417 082e 51       		.byte	0x51
 2418 082f 00       		.byte	0
 2419 0830 19       		.uleb128 0x19
 2420 0831 71010000 		.4byte	.LASF88
 2421 0835 01       		.byte	0x1
 2422 0836 1A03     		.2byte	0x31a
 2423 0838 00000000 		.4byte	.LFB132
 2424 083c 1A000000 		.4byte	.LFE132-.LFB132
 2425 0840 01       		.uleb128 0x1
 2426 0841 9C       		.byte	0x9c
 2427 0842 63080000 		.4byte	0x863
 2428 0846 1A       		.uleb128 0x1a
 2429 0847 17040000 		.4byte	.LASF56
 2430 084b 01       		.byte	0x1
 2431 084c 1A03     		.2byte	0x31a
 2432 084e C1030000 		.4byte	0x3c1
 2433 0852 01       		.uleb128 0x1
 2434 0853 50       		.byte	0x50
 2435 0854 1A       		.uleb128 0x1a
 2436 0855 16000000 		.4byte	.LASF65
 2437 0859 01       		.byte	0x1
 2438 085a 1A03     		.2byte	0x31a
 2439 085c 1D010000 		.4byte	0x11d
 2440 0860 01       		.uleb128 0x1
 2441 0861 51       		.byte	0x51
 2442 0862 00       		.byte	0
 2443 0863 1D       		.uleb128 0x1d
 2444 0864 3C000000 		.4byte	.LASF90
 2445 0868 01       		.byte	0x1
 2446 0869 3003     		.2byte	0x330
 2447 086b 97000000 		.4byte	0x97
 2448 086f 00000000 		.4byte	.LFB133
 2449 0873 08000000 		.4byte	.LFE133-.LFB133
 2450 0877 01       		.uleb128 0x1
 2451 0878 9C       		.byte	0x9c
 2452 0879 8E080000 		.4byte	0x88e
 2453 087d 1B       		.uleb128 0x1b
 2454 087e 17040000 		.4byte	.LASF56
 2455 0882 01       		.byte	0x1
 2456 0883 3003     		.2byte	0x330
 2457 0885 C1030000 		.4byte	0x3c1
 2458 0889 A8020000 		.4byte	.LLST11
 2459 088d 00       		.byte	0
 2460 088e 19       		.uleb128 0x19
 2461 088f A6040000 		.4byte	.LASF91
 2462 0893 01       		.byte	0x1
 2463 0894 5103     		.2byte	0x351
 2464 0896 00000000 		.4byte	.LFB134
 2465 089a 1A000000 		.4byte	.LFE134-.LFB134
 2466 089e 01       		.uleb128 0x1
 2467 089f 9C       		.byte	0x9c
 2468 08a0 C1080000 		.4byte	0x8c1
 2469 08a4 1A       		.uleb128 0x1a
 2470 08a5 17040000 		.4byte	.LASF56
 2471 08a9 01       		.byte	0x1
 2472 08aa 5103     		.2byte	0x351
 2473 08ac C1030000 		.4byte	0x3c1
ARM GAS  /var/folders/7z/kps_xzfj7sn5l5gkyq8s9db00000gn/T//ccY40Ifq.s 			page 45


 2474 08b0 01       		.uleb128 0x1
 2475 08b1 50       		.byte	0x50
 2476 08b2 1A       		.uleb128 0x1a
 2477 08b3 16000000 		.4byte	.LASF65
 2478 08b7 01       		.byte	0x1
 2479 08b8 5103     		.2byte	0x351
 2480 08ba 1D010000 		.4byte	0x11d
 2481 08be 01       		.uleb128 0x1
 2482 08bf 51       		.byte	0x51
 2483 08c0 00       		.byte	0
 2484 08c1 19       		.uleb128 0x19
 2485 08c2 D3010000 		.4byte	.LASF92
 2486 08c6 01       		.byte	0x1
 2487 08c7 6903     		.2byte	0x369
 2488 08c9 00000000 		.4byte	.LFB135
 2489 08cd 1A000000 		.4byte	.LFE135-.LFB135
 2490 08d1 01       		.uleb128 0x1
 2491 08d2 9C       		.byte	0x9c
 2492 08d3 F4080000 		.4byte	0x8f4
 2493 08d7 1A       		.uleb128 0x1a
 2494 08d8 17040000 		.4byte	.LASF56
 2495 08dc 01       		.byte	0x1
 2496 08dd 6903     		.2byte	0x369
 2497 08df C1030000 		.4byte	0x3c1
 2498 08e3 01       		.uleb128 0x1
 2499 08e4 50       		.byte	0x50
 2500 08e5 1A       		.uleb128 0x1a
 2501 08e6 16000000 		.4byte	.LASF65
 2502 08ea 01       		.byte	0x1
 2503 08eb 6903     		.2byte	0x369
 2504 08ed 1D010000 		.4byte	0x11d
 2505 08f1 01       		.uleb128 0x1
 2506 08f2 51       		.byte	0x51
 2507 08f3 00       		.byte	0
 2508 08f4 1D       		.uleb128 0x1d
 2509 08f5 CE050000 		.4byte	.LASF93
 2510 08f9 01       		.byte	0x1
 2511 08fa F303     		.2byte	0x3f3
 2512 08fc A2000000 		.4byte	0xa2
 2513 0900 00000000 		.4byte	.LFB136
 2514 0904 18000000 		.4byte	.LFE136-.LFB136
 2515 0908 01       		.uleb128 0x1
 2516 0909 9C       		.byte	0x9c
 2517 090a 3E090000 		.4byte	0x93e
 2518 090e 1B       		.uleb128 0x1b
 2519 090f 17040000 		.4byte	.LASF56
 2520 0913 01       		.byte	0x1
 2521 0914 F303     		.2byte	0x3f3
 2522 0916 C1030000 		.4byte	0x3c1
 2523 091a C9020000 		.4byte	.LLST12
 2524 091e 1B       		.uleb128 0x1b
 2525 091f 65000000 		.4byte	.LASF94
 2526 0923 01       		.byte	0x1
 2527 0924 F303     		.2byte	0x3f3
 2528 0926 97000000 		.4byte	0x97
 2529 092a EA020000 		.4byte	.LLST13
 2530 092e 1E       		.uleb128 0x1e
ARM GAS  /var/folders/7z/kps_xzfj7sn5l5gkyq8s9db00000gn/T//ccY40Ifq.s 			page 46


 2531 092f 746D7000 		.ascii	"tmp\000"
 2532 0933 01       		.byte	0x1
 2533 0934 F503     		.2byte	0x3f5
 2534 0936 CA000000 		.4byte	0xca
 2535 093a 02       		.uleb128 0x2
 2536 093b 91       		.byte	0x91
 2537 093c 7C       		.sleb128 -4
 2538 093d 00       		.byte	0
 2539 093e 19       		.uleb128 0x19
 2540 093f 8F000000 		.4byte	.LASF95
 2541 0943 01       		.byte	0x1
 2542 0944 0E04     		.2byte	0x40e
 2543 0946 00000000 		.4byte	.LFB137
 2544 094a 14000000 		.4byte	.LFE137-.LFB137
 2545 094e 01       		.uleb128 0x1
 2546 094f 9C       		.byte	0x9c
 2547 0950 81090000 		.4byte	0x981
 2548 0954 1A       		.uleb128 0x1a
 2549 0955 17040000 		.4byte	.LASF56
 2550 0959 01       		.byte	0x1
 2551 095a 0E04     		.2byte	0x40e
 2552 095c C1030000 		.4byte	0x3c1
 2553 0960 01       		.uleb128 0x1
 2554 0961 50       		.byte	0x50
 2555 0962 1B       		.uleb128 0x1b
 2556 0963 C1040000 		.4byte	.LASF96
 2557 0967 01       		.byte	0x1
 2558 0968 0E04     		.2byte	0x40e
 2559 096a A2000000 		.4byte	0xa2
 2560 096e 0B030000 		.4byte	.LLST14
 2561 0972 1A       		.uleb128 0x1a
 2562 0973 16000000 		.4byte	.LASF65
 2563 0977 01       		.byte	0x1
 2564 0978 0E04     		.2byte	0x40e
 2565 097a 1D010000 		.4byte	0x11d
 2566 097e 01       		.uleb128 0x1
 2567 097f 52       		.byte	0x52
 2568 0980 00       		.byte	0
 2569 0981 1D       		.uleb128 0x1d
 2570 0982 97040000 		.4byte	.LASF97
 2571 0986 01       		.byte	0x1
 2572 0987 4904     		.2byte	0x449
 2573 0989 3F010000 		.4byte	0x13f
 2574 098d 00000000 		.4byte	.LFB138
 2575 0991 1A000000 		.4byte	.LFE138-.LFB138
 2576 0995 01       		.uleb128 0x1
 2577 0996 9C       		.byte	0x9c
 2578 0997 FA090000 		.4byte	0x9fa
 2579 099b 1B       		.uleb128 0x1b
 2580 099c 17040000 		.4byte	.LASF56
 2581 09a0 01       		.byte	0x1
 2582 09a1 4904     		.2byte	0x449
 2583 09a3 C1030000 		.4byte	0x3c1
 2584 09a7 45030000 		.4byte	.LLST15
 2585 09ab 1A       		.uleb128 0x1a
 2586 09ac 7D050000 		.4byte	.LASF98
 2587 09b0 01       		.byte	0x1
ARM GAS  /var/folders/7z/kps_xzfj7sn5l5gkyq8s9db00000gn/T//ccY40Ifq.s 			page 47


 2588 09b1 4904     		.2byte	0x449
 2589 09b3 B8000000 		.4byte	0xb8
 2590 09b7 01       		.uleb128 0x1
 2591 09b8 51       		.byte	0x51
 2592 09b9 1C       		.uleb128 0x1c
 2593 09ba B2060000 		.4byte	.LASF99
 2594 09be 01       		.byte	0x1
 2595 09bf 4B04     		.2byte	0x44b
 2596 09c1 B8000000 		.4byte	0xb8
 2597 09c5 66030000 		.4byte	.LLST16
 2598 09c9 1C       		.uleb128 0x1c
 2599 09ca 44060000 		.4byte	.LASF100
 2600 09ce 01       		.byte	0x1
 2601 09cf 4C04     		.2byte	0x44c
 2602 09d1 B8000000 		.4byte	0xb8
 2603 09d5 9A030000 		.4byte	.LLST17
 2604 09d9 1C       		.uleb128 0x1c
 2605 09da 4A060000 		.4byte	.LASF101
 2606 09de 01       		.byte	0x1
 2607 09df 4C04     		.2byte	0x44c
 2608 09e1 B8000000 		.4byte	0xb8
 2609 09e5 BF030000 		.4byte	.LLST18
 2610 09e9 1C       		.uleb128 0x1c
 2611 09ea BC060000 		.4byte	.LASF102
 2612 09ee 01       		.byte	0x1
 2613 09ef 4D04     		.2byte	0x44d
 2614 09f1 3F010000 		.4byte	0x13f
 2615 09f5 E6030000 		.4byte	.LLST19
 2616 09f9 00       		.byte	0
 2617 09fa 1D       		.uleb128 0x1d
 2618 09fb 41040000 		.4byte	.LASF103
 2619 09ff 01       		.byte	0x1
 2620 0a00 7904     		.2byte	0x479
 2621 0a02 B8000000 		.4byte	0xb8
 2622 0a06 00000000 		.4byte	.LFB139
 2623 0a0a 10000000 		.4byte	.LFE139-.LFB139
 2624 0a0e 01       		.uleb128 0x1
 2625 0a0f 9C       		.byte	0x9c
 2626 0a10 550A0000 		.4byte	0xa55
 2627 0a14 1B       		.uleb128 0x1b
 2628 0a15 17040000 		.4byte	.LASF56
 2629 0a19 01       		.byte	0x1
 2630 0a1a 7904     		.2byte	0x479
 2631 0a1c C1030000 		.4byte	0x3c1
 2632 0a20 20040000 		.4byte	.LLST20
 2633 0a24 1C       		.uleb128 0x1c
 2634 0a25 B2060000 		.4byte	.LASF99
 2635 0a29 01       		.byte	0x1
 2636 0a2a 7B04     		.2byte	0x47b
 2637 0a2c B8000000 		.4byte	0xb8
 2638 0a30 41040000 		.4byte	.LLST21
 2639 0a34 1C       		.uleb128 0x1c
 2640 0a35 44060000 		.4byte	.LASF100
 2641 0a39 01       		.byte	0x1
 2642 0a3a 7C04     		.2byte	0x47c
 2643 0a3c B8000000 		.4byte	0xb8
 2644 0a40 95040000 		.4byte	.LLST22
ARM GAS  /var/folders/7z/kps_xzfj7sn5l5gkyq8s9db00000gn/T//ccY40Ifq.s 			page 48


 2645 0a44 1C       		.uleb128 0x1c
 2646 0a45 4A060000 		.4byte	.LASF101
 2647 0a49 01       		.byte	0x1
 2648 0a4a 7C04     		.2byte	0x47c
 2649 0a4c B8000000 		.4byte	0xb8
 2650 0a50 CB040000 		.4byte	.LLST23
 2651 0a54 00       		.byte	0
 2652 0a55 1D       		.uleb128 0x1d
 2653 0a56 A0060000 		.4byte	.LASF104
 2654 0a5a 01       		.byte	0x1
 2655 0a5b B004     		.2byte	0x4b0
 2656 0a5d EF000000 		.4byte	0xef
 2657 0a61 00000000 		.4byte	.LFB140
 2658 0a65 36000000 		.4byte	.LFE140-.LFB140
 2659 0a69 01       		.uleb128 0x1
 2660 0a6a 9C       		.byte	0x9c
 2661 0a6b BE0A0000 		.4byte	0xabe
 2662 0a6f 1B       		.uleb128 0x1b
 2663 0a70 17040000 		.4byte	.LASF56
 2664 0a74 01       		.byte	0x1
 2665 0a75 B004     		.2byte	0x4b0
 2666 0a77 C1030000 		.4byte	0x3c1
 2667 0a7b F2040000 		.4byte	.LLST24
 2668 0a7f 1B       		.uleb128 0x1b
 2669 0a80 5B040000 		.4byte	.LASF105
 2670 0a84 01       		.byte	0x1
 2671 0a85 B004     		.2byte	0x4b0
 2672 0a87 B8000000 		.4byte	0xb8
 2673 0a8b 1E050000 		.4byte	.LLST25
 2674 0a8f 1C       		.uleb128 0x1c
 2675 0a90 1C020000 		.4byte	.LASF106
 2676 0a94 01       		.byte	0x1
 2677 0a95 B204     		.2byte	0x4b2
 2678 0a97 EF000000 		.4byte	0xef
 2679 0a9b 3C050000 		.4byte	.LLST26
 2680 0a9f 1F       		.uleb128 0x1f
 2681 0aa0 E9030000 		.4byte	.LASF107
 2682 0aa4 01       		.byte	0x1
 2683 0aa5 B304     		.2byte	0x4b3
 2684 0aa7 CA000000 		.4byte	0xca
 2685 0aab 02       		.uleb128 0x2
 2686 0aac 91       		.byte	0x91
 2687 0aad 78       		.sleb128 -8
 2688 0aae 1F       		.uleb128 0x1f
 2689 0aaf FC060000 		.4byte	.LASF108
 2690 0ab3 01       		.byte	0x1
 2691 0ab4 B304     		.2byte	0x4b3
 2692 0ab6 CA000000 		.4byte	0xca
 2693 0aba 02       		.uleb128 0x2
 2694 0abb 91       		.byte	0x91
 2695 0abc 7C       		.sleb128 -4
 2696 0abd 00       		.byte	0
 2697 0abe 19       		.uleb128 0x19
 2698 0abf A8050000 		.4byte	.LASF109
 2699 0ac3 01       		.byte	0x1
 2700 0ac4 FD04     		.2byte	0x4fd
 2701 0ac6 00000000 		.4byte	.LFB141
ARM GAS  /var/folders/7z/kps_xzfj7sn5l5gkyq8s9db00000gn/T//ccY40Ifq.s 			page 49


 2702 0aca 08000000 		.4byte	.LFE141-.LFB141
 2703 0ace 01       		.uleb128 0x1
 2704 0acf 9C       		.byte	0x9c
 2705 0ad0 030B0000 		.4byte	0xb03
 2706 0ad4 1A       		.uleb128 0x1a
 2707 0ad5 17040000 		.4byte	.LASF56
 2708 0ad9 01       		.byte	0x1
 2709 0ada FD04     		.2byte	0x4fd
 2710 0adc C1030000 		.4byte	0x3c1
 2711 0ae0 01       		.uleb128 0x1
 2712 0ae1 50       		.byte	0x50
 2713 0ae2 1B       		.uleb128 0x1b
 2714 0ae3 5B040000 		.4byte	.LASF105
 2715 0ae7 01       		.byte	0x1
 2716 0ae8 FD04     		.2byte	0x4fd
 2717 0aea B8000000 		.4byte	0xb8
 2718 0aee 6E050000 		.4byte	.LLST27
 2719 0af2 1C       		.uleb128 0x1c
 2720 0af3 BF030000 		.4byte	.LASF110
 2721 0af7 01       		.byte	0x1
 2722 0af8 FF04     		.2byte	0x4ff
 2723 0afa B8000000 		.4byte	0xb8
 2724 0afe 9D050000 		.4byte	.LLST28
 2725 0b02 00       		.byte	0
 2726 0b03 1D       		.uleb128 0x1d
 2727 0b04 2D070000 		.4byte	.LASF111
 2728 0b08 01       		.byte	0x1
 2729 0b09 1F05     		.2byte	0x51f
 2730 0b0b FB000000 		.4byte	0xfb
 2731 0b0f 00000000 		.4byte	.LFB142
 2732 0b13 1C000000 		.4byte	.LFE142-.LFB142
 2733 0b17 01       		.uleb128 0x1
 2734 0b18 9C       		.byte	0x9c
 2735 0b19 5E0B0000 		.4byte	0xb5e
 2736 0b1d 1B       		.uleb128 0x1b
 2737 0b1e 17040000 		.4byte	.LASF56
 2738 0b22 01       		.byte	0x1
 2739 0b23 1F05     		.2byte	0x51f
 2740 0b25 C1030000 		.4byte	0x3c1
 2741 0b29 E0050000 		.4byte	.LLST29
 2742 0b2d 1B       		.uleb128 0x1b
 2743 0b2e C1040000 		.4byte	.LASF96
 2744 0b32 01       		.byte	0x1
 2745 0b33 1F05     		.2byte	0x51f
 2746 0b35 B8000000 		.4byte	0xb8
 2747 0b39 01060000 		.4byte	.LLST30
 2748 0b3d 1C       		.uleb128 0x1c
 2749 0b3e 1C020000 		.4byte	.LASF106
 2750 0b42 01       		.byte	0x1
 2751 0b43 2105     		.2byte	0x521
 2752 0b45 FB000000 		.4byte	0xfb
 2753 0b49 3B060000 		.4byte	.LLST31
 2754 0b4d 1C       		.uleb128 0x1c
 2755 0b4e 50060000 		.4byte	.LASF112
 2756 0b52 01       		.byte	0x1
 2757 0b53 2205     		.2byte	0x522
 2758 0b55 B8000000 		.4byte	0xb8
ARM GAS  /var/folders/7z/kps_xzfj7sn5l5gkyq8s9db00000gn/T//ccY40Ifq.s 			page 50


 2759 0b59 5A060000 		.4byte	.LLST32
 2760 0b5d 00       		.byte	0
 2761 0b5e 19       		.uleb128 0x19
 2762 0b5f 00000000 		.4byte	.LASF113
 2763 0b63 01       		.byte	0x1
 2764 0b64 5B05     		.2byte	0x55b
 2765 0b66 00000000 		.4byte	.LFB143
 2766 0b6a 08000000 		.4byte	.LFE143-.LFB143
 2767 0b6e 01       		.uleb128 0x1
 2768 0b6f 9C       		.byte	0x9c
 2769 0b70 A30B0000 		.4byte	0xba3
 2770 0b74 1A       		.uleb128 0x1a
 2771 0b75 17040000 		.4byte	.LASF56
 2772 0b79 01       		.byte	0x1
 2773 0b7a 5B05     		.2byte	0x55b
 2774 0b7c C1030000 		.4byte	0x3c1
 2775 0b80 01       		.uleb128 0x1
 2776 0b81 50       		.byte	0x50
 2777 0b82 1B       		.uleb128 0x1b
 2778 0b83 C1040000 		.4byte	.LASF96
 2779 0b87 01       		.byte	0x1
 2780 0b88 5B05     		.2byte	0x55b
 2781 0b8a B8000000 		.4byte	0xb8
 2782 0b8e 9E060000 		.4byte	.LLST33
 2783 0b92 1C       		.uleb128 0x1c
 2784 0b93 BF030000 		.4byte	.LASF110
 2785 0b97 01       		.byte	0x1
 2786 0b98 5D05     		.2byte	0x55d
 2787 0b9a B8000000 		.4byte	0xb8
 2788 0b9e CD060000 		.4byte	.LLST34
 2789 0ba2 00       		.byte	0
 2790 0ba3 20       		.uleb128 0x20
 2791 0ba4 F7000000 		.4byte	.LASF119
 2792 0ba8 07       		.byte	0x7
 2793 0ba9 9806     		.2byte	0x698
 2794 0bab D4000000 		.4byte	0xd4
 2795 0baf 21       		.uleb128 0x21
 2796 0bb0 78000000 		.4byte	.LASF114
 2797 0bb4 05       		.byte	0x5
 2798 0bb5 E601     		.2byte	0x1e6
 2799 0bb7 C60B0000 		.4byte	0xbc6
 2800 0bbb 22       		.uleb128 0x22
 2801 0bbc B8000000 		.4byte	0xb8
 2802 0bc0 22       		.uleb128 0x22
 2803 0bc1 1D010000 		.4byte	0x11d
 2804 0bc5 00       		.byte	0
 2805 0bc6 21       		.uleb128 0x21
 2806 0bc7 14060000 		.4byte	.LASF115
 2807 0bcb 05       		.byte	0x5
 2808 0bcc D501     		.2byte	0x1d5
 2809 0bce D80B0000 		.4byte	0xbd8
 2810 0bd2 22       		.uleb128 0x22
 2811 0bd3 D80B0000 		.4byte	0xbd8
 2812 0bd7 00       		.byte	0
 2813 0bd8 15       		.uleb128 0x15
 2814 0bd9 04       		.byte	0x4
 2815 0bda 9D020000 		.4byte	0x29d
ARM GAS  /var/folders/7z/kps_xzfj7sn5l5gkyq8s9db00000gn/T//ccY40Ifq.s 			page 51


 2816 0bde 00       		.byte	0
 2817              		.section	.debug_abbrev,"",%progbits
 2818              	.Ldebug_abbrev0:
 2819 0000 01       		.uleb128 0x1
 2820 0001 11       		.uleb128 0x11
 2821 0002 01       		.byte	0x1
 2822 0003 25       		.uleb128 0x25
 2823 0004 0E       		.uleb128 0xe
 2824 0005 13       		.uleb128 0x13
 2825 0006 0B       		.uleb128 0xb
 2826 0007 03       		.uleb128 0x3
 2827 0008 0E       		.uleb128 0xe
 2828 0009 1B       		.uleb128 0x1b
 2829 000a 0E       		.uleb128 0xe
 2830 000b 55       		.uleb128 0x55
 2831 000c 17       		.uleb128 0x17
 2832 000d 11       		.uleb128 0x11
 2833 000e 01       		.uleb128 0x1
 2834 000f 10       		.uleb128 0x10
 2835 0010 17       		.uleb128 0x17
 2836 0011 00       		.byte	0
 2837 0012 00       		.byte	0
 2838 0013 02       		.uleb128 0x2
 2839 0014 24       		.uleb128 0x24
 2840 0015 00       		.byte	0
 2841 0016 0B       		.uleb128 0xb
 2842 0017 0B       		.uleb128 0xb
 2843 0018 3E       		.uleb128 0x3e
 2844 0019 0B       		.uleb128 0xb
 2845 001a 03       		.uleb128 0x3
 2846 001b 0E       		.uleb128 0xe
 2847 001c 00       		.byte	0
 2848 001d 00       		.byte	0
 2849 001e 03       		.uleb128 0x3
 2850 001f 16       		.uleb128 0x16
 2851 0020 00       		.byte	0
 2852 0021 03       		.uleb128 0x3
 2853 0022 0E       		.uleb128 0xe
 2854 0023 3A       		.uleb128 0x3a
 2855 0024 0B       		.uleb128 0xb
 2856 0025 3B       		.uleb128 0x3b
 2857 0026 0B       		.uleb128 0xb
 2858 0027 49       		.uleb128 0x49
 2859 0028 13       		.uleb128 0x13
 2860 0029 00       		.byte	0
 2861 002a 00       		.byte	0
 2862 002b 04       		.uleb128 0x4
 2863 002c 24       		.uleb128 0x24
 2864 002d 00       		.byte	0
 2865 002e 0B       		.uleb128 0xb
 2866 002f 0B       		.uleb128 0xb
 2867 0030 3E       		.uleb128 0x3e
 2868 0031 0B       		.uleb128 0xb
 2869 0032 03       		.uleb128 0x3
 2870 0033 08       		.uleb128 0x8
 2871 0034 00       		.byte	0
 2872 0035 00       		.byte	0
ARM GAS  /var/folders/7z/kps_xzfj7sn5l5gkyq8s9db00000gn/T//ccY40Ifq.s 			page 52


 2873 0036 05       		.uleb128 0x5
 2874 0037 35       		.uleb128 0x35
 2875 0038 00       		.byte	0
 2876 0039 49       		.uleb128 0x49
 2877 003a 13       		.uleb128 0x13
 2878 003b 00       		.byte	0
 2879 003c 00       		.byte	0
 2880 003d 06       		.uleb128 0x6
 2881 003e 04       		.uleb128 0x4
 2882 003f 01       		.byte	0x1
 2883 0040 0B       		.uleb128 0xb
 2884 0041 0B       		.uleb128 0xb
 2885 0042 3A       		.uleb128 0x3a
 2886 0043 0B       		.uleb128 0xb
 2887 0044 3B       		.uleb128 0x3b
 2888 0045 05       		.uleb128 0x5
 2889 0046 01       		.uleb128 0x1
 2890 0047 13       		.uleb128 0x13
 2891 0048 00       		.byte	0
 2892 0049 00       		.byte	0
 2893 004a 07       		.uleb128 0x7
 2894 004b 28       		.uleb128 0x28
 2895 004c 00       		.byte	0
 2896 004d 03       		.uleb128 0x3
 2897 004e 0E       		.uleb128 0xe
 2898 004f 1C       		.uleb128 0x1c
 2899 0050 0D       		.uleb128 0xd
 2900 0051 00       		.byte	0
 2901 0052 00       		.byte	0
 2902 0053 08       		.uleb128 0x8
 2903 0054 28       		.uleb128 0x28
 2904 0055 00       		.byte	0
 2905 0056 03       		.uleb128 0x3
 2906 0057 08       		.uleb128 0x8
 2907 0058 1C       		.uleb128 0x1c
 2908 0059 0D       		.uleb128 0xd
 2909 005a 00       		.byte	0
 2910 005b 00       		.byte	0
 2911 005c 09       		.uleb128 0x9
 2912 005d 16       		.uleb128 0x16
 2913 005e 00       		.byte	0
 2914 005f 03       		.uleb128 0x3
 2915 0060 0E       		.uleb128 0xe
 2916 0061 3A       		.uleb128 0x3a
 2917 0062 0B       		.uleb128 0xb
 2918 0063 3B       		.uleb128 0x3b
 2919 0064 05       		.uleb128 0x5
 2920 0065 49       		.uleb128 0x49
 2921 0066 13       		.uleb128 0x13
 2922 0067 00       		.byte	0
 2923 0068 00       		.byte	0
 2924 0069 0A       		.uleb128 0xa
 2925 006a 13       		.uleb128 0x13
 2926 006b 01       		.byte	0x1
 2927 006c 0B       		.uleb128 0xb
 2928 006d 0B       		.uleb128 0xb
 2929 006e 3A       		.uleb128 0x3a
ARM GAS  /var/folders/7z/kps_xzfj7sn5l5gkyq8s9db00000gn/T//ccY40Ifq.s 			page 53


 2930 006f 0B       		.uleb128 0xb
 2931 0070 3B       		.uleb128 0x3b
 2932 0071 05       		.uleb128 0x5
 2933 0072 01       		.uleb128 0x1
 2934 0073 13       		.uleb128 0x13
 2935 0074 00       		.byte	0
 2936 0075 00       		.byte	0
 2937 0076 0B       		.uleb128 0xb
 2938 0077 0D       		.uleb128 0xd
 2939 0078 00       		.byte	0
 2940 0079 03       		.uleb128 0x3
 2941 007a 08       		.uleb128 0x8
 2942 007b 3A       		.uleb128 0x3a
 2943 007c 0B       		.uleb128 0xb
 2944 007d 3B       		.uleb128 0x3b
 2945 007e 05       		.uleb128 0x5
 2946 007f 49       		.uleb128 0x49
 2947 0080 13       		.uleb128 0x13
 2948 0081 38       		.uleb128 0x38
 2949 0082 0B       		.uleb128 0xb
 2950 0083 00       		.byte	0
 2951 0084 00       		.byte	0
 2952 0085 0C       		.uleb128 0xc
 2953 0086 0D       		.uleb128 0xd
 2954 0087 00       		.byte	0
 2955 0088 03       		.uleb128 0x3
 2956 0089 0E       		.uleb128 0xe
 2957 008a 3A       		.uleb128 0x3a
 2958 008b 0B       		.uleb128 0xb
 2959 008c 3B       		.uleb128 0x3b
 2960 008d 05       		.uleb128 0x5
 2961 008e 49       		.uleb128 0x49
 2962 008f 13       		.uleb128 0x13
 2963 0090 38       		.uleb128 0x38
 2964 0091 0B       		.uleb128 0xb
 2965 0092 00       		.byte	0
 2966 0093 00       		.byte	0
 2967 0094 0D       		.uleb128 0xd
 2968 0095 13       		.uleb128 0x13
 2969 0096 01       		.byte	0x1
 2970 0097 0B       		.uleb128 0xb
 2971 0098 0B       		.uleb128 0xb
 2972 0099 3A       		.uleb128 0x3a
 2973 009a 0B       		.uleb128 0xb
 2974 009b 3B       		.uleb128 0x3b
 2975 009c 0B       		.uleb128 0xb
 2976 009d 01       		.uleb128 0x1
 2977 009e 13       		.uleb128 0x13
 2978 009f 00       		.byte	0
 2979 00a0 00       		.byte	0
 2980 00a1 0E       		.uleb128 0xe
 2981 00a2 0D       		.uleb128 0xd
 2982 00a3 00       		.byte	0
 2983 00a4 03       		.uleb128 0x3
 2984 00a5 0E       		.uleb128 0xe
 2985 00a6 3A       		.uleb128 0x3a
 2986 00a7 0B       		.uleb128 0xb
ARM GAS  /var/folders/7z/kps_xzfj7sn5l5gkyq8s9db00000gn/T//ccY40Ifq.s 			page 54


 2987 00a8 3B       		.uleb128 0x3b
 2988 00a9 0B       		.uleb128 0xb
 2989 00aa 49       		.uleb128 0x49
 2990 00ab 13       		.uleb128 0x13
 2991 00ac 38       		.uleb128 0x38
 2992 00ad 0B       		.uleb128 0xb
 2993 00ae 00       		.byte	0
 2994 00af 00       		.byte	0
 2995 00b0 0F       		.uleb128 0xf
 2996 00b1 2E       		.uleb128 0x2e
 2997 00b2 01       		.byte	0x1
 2998 00b3 3F       		.uleb128 0x3f
 2999 00b4 19       		.uleb128 0x19
 3000 00b5 03       		.uleb128 0x3
 3001 00b6 0E       		.uleb128 0xe
 3002 00b7 3A       		.uleb128 0x3a
 3003 00b8 0B       		.uleb128 0xb
 3004 00b9 3B       		.uleb128 0x3b
 3005 00ba 0B       		.uleb128 0xb
 3006 00bb 27       		.uleb128 0x27
 3007 00bc 19       		.uleb128 0x19
 3008 00bd 11       		.uleb128 0x11
 3009 00be 01       		.uleb128 0x1
 3010 00bf 12       		.uleb128 0x12
 3011 00c0 06       		.uleb128 0x6
 3012 00c1 40       		.uleb128 0x40
 3013 00c2 18       		.uleb128 0x18
 3014 00c3 9742     		.uleb128 0x2117
 3015 00c5 19       		.uleb128 0x19
 3016 00c6 01       		.uleb128 0x1
 3017 00c7 13       		.uleb128 0x13
 3018 00c8 00       		.byte	0
 3019 00c9 00       		.byte	0
 3020 00ca 10       		.uleb128 0x10
 3021 00cb 05       		.uleb128 0x5
 3022 00cc 00       		.byte	0
 3023 00cd 03       		.uleb128 0x3
 3024 00ce 0E       		.uleb128 0xe
 3025 00cf 3A       		.uleb128 0x3a
 3026 00d0 0B       		.uleb128 0xb
 3027 00d1 3B       		.uleb128 0x3b
 3028 00d2 0B       		.uleb128 0xb
 3029 00d3 49       		.uleb128 0x49
 3030 00d4 13       		.uleb128 0x13
 3031 00d5 02       		.uleb128 0x2
 3032 00d6 17       		.uleb128 0x17
 3033 00d7 00       		.byte	0
 3034 00d8 00       		.byte	0
 3035 00d9 11       		.uleb128 0x11
 3036 00da 898201   		.uleb128 0x4109
 3037 00dd 01       		.byte	0x1
 3038 00de 11       		.uleb128 0x11
 3039 00df 01       		.uleb128 0x1
 3040 00e0 31       		.uleb128 0x31
 3041 00e1 13       		.uleb128 0x13
 3042 00e2 01       		.uleb128 0x1
 3043 00e3 13       		.uleb128 0x13
ARM GAS  /var/folders/7z/kps_xzfj7sn5l5gkyq8s9db00000gn/T//ccY40Ifq.s 			page 55


 3044 00e4 00       		.byte	0
 3045 00e5 00       		.byte	0
 3046 00e6 12       		.uleb128 0x12
 3047 00e7 8A8201   		.uleb128 0x410a
 3048 00ea 00       		.byte	0
 3049 00eb 02       		.uleb128 0x2
 3050 00ec 18       		.uleb128 0x18
 3051 00ed 9142     		.uleb128 0x2111
 3052 00ef 18       		.uleb128 0x18
 3053 00f0 00       		.byte	0
 3054 00f1 00       		.byte	0
 3055 00f2 13       		.uleb128 0x13
 3056 00f3 898201   		.uleb128 0x4109
 3057 00f6 01       		.byte	0x1
 3058 00f7 11       		.uleb128 0x11
 3059 00f8 01       		.uleb128 0x1
 3060 00f9 9542     		.uleb128 0x2115
 3061 00fb 19       		.uleb128 0x19
 3062 00fc 31       		.uleb128 0x31
 3063 00fd 13       		.uleb128 0x13
 3064 00fe 01       		.uleb128 0x1
 3065 00ff 13       		.uleb128 0x13
 3066 0100 00       		.byte	0
 3067 0101 00       		.byte	0
 3068 0102 14       		.uleb128 0x14
 3069 0103 898201   		.uleb128 0x4109
 3070 0106 01       		.byte	0x1
 3071 0107 11       		.uleb128 0x11
 3072 0108 01       		.uleb128 0x1
 3073 0109 9542     		.uleb128 0x2115
 3074 010b 19       		.uleb128 0x19
 3075 010c 31       		.uleb128 0x31
 3076 010d 13       		.uleb128 0x13
 3077 010e 00       		.byte	0
 3078 010f 00       		.byte	0
 3079 0110 15       		.uleb128 0x15
 3080 0111 0F       		.uleb128 0xf
 3081 0112 00       		.byte	0
 3082 0113 0B       		.uleb128 0xb
 3083 0114 0B       		.uleb128 0xb
 3084 0115 49       		.uleb128 0x49
 3085 0116 13       		.uleb128 0x13
 3086 0117 00       		.byte	0
 3087 0118 00       		.byte	0
 3088 0119 16       		.uleb128 0x16
 3089 011a 34       		.uleb128 0x34
 3090 011b 00       		.byte	0
 3091 011c 03       		.uleb128 0x3
 3092 011d 0E       		.uleb128 0xe
 3093 011e 3A       		.uleb128 0x3a
 3094 011f 0B       		.uleb128 0xb
 3095 0120 3B       		.uleb128 0x3b
 3096 0121 0B       		.uleb128 0xb
 3097 0122 49       		.uleb128 0x49
 3098 0123 13       		.uleb128 0x13
 3099 0124 02       		.uleb128 0x2
 3100 0125 17       		.uleb128 0x17
ARM GAS  /var/folders/7z/kps_xzfj7sn5l5gkyq8s9db00000gn/T//ccY40Ifq.s 			page 56


 3101 0126 00       		.byte	0
 3102 0127 00       		.byte	0
 3103 0128 17       		.uleb128 0x17
 3104 0129 34       		.uleb128 0x34
 3105 012a 00       		.byte	0
 3106 012b 03       		.uleb128 0x3
 3107 012c 0E       		.uleb128 0xe
 3108 012d 3A       		.uleb128 0x3a
 3109 012e 0B       		.uleb128 0xb
 3110 012f 3B       		.uleb128 0x3b
 3111 0130 0B       		.uleb128 0xb
 3112 0131 49       		.uleb128 0x49
 3113 0132 13       		.uleb128 0x13
 3114 0133 02       		.uleb128 0x2
 3115 0134 18       		.uleb128 0x18
 3116 0135 00       		.byte	0
 3117 0136 00       		.byte	0
 3118 0137 18       		.uleb128 0x18
 3119 0138 898201   		.uleb128 0x4109
 3120 013b 01       		.byte	0x1
 3121 013c 11       		.uleb128 0x11
 3122 013d 01       		.uleb128 0x1
 3123 013e 31       		.uleb128 0x31
 3124 013f 13       		.uleb128 0x13
 3125 0140 00       		.byte	0
 3126 0141 00       		.byte	0
 3127 0142 19       		.uleb128 0x19
 3128 0143 2E       		.uleb128 0x2e
 3129 0144 01       		.byte	0x1
 3130 0145 3F       		.uleb128 0x3f
 3131 0146 19       		.uleb128 0x19
 3132 0147 03       		.uleb128 0x3
 3133 0148 0E       		.uleb128 0xe
 3134 0149 3A       		.uleb128 0x3a
 3135 014a 0B       		.uleb128 0xb
 3136 014b 3B       		.uleb128 0x3b
 3137 014c 05       		.uleb128 0x5
 3138 014d 27       		.uleb128 0x27
 3139 014e 19       		.uleb128 0x19
 3140 014f 11       		.uleb128 0x11
 3141 0150 01       		.uleb128 0x1
 3142 0151 12       		.uleb128 0x12
 3143 0152 06       		.uleb128 0x6
 3144 0153 40       		.uleb128 0x40
 3145 0154 18       		.uleb128 0x18
 3146 0155 9742     		.uleb128 0x2117
 3147 0157 19       		.uleb128 0x19
 3148 0158 01       		.uleb128 0x1
 3149 0159 13       		.uleb128 0x13
 3150 015a 00       		.byte	0
 3151 015b 00       		.byte	0
 3152 015c 1A       		.uleb128 0x1a
 3153 015d 05       		.uleb128 0x5
 3154 015e 00       		.byte	0
 3155 015f 03       		.uleb128 0x3
 3156 0160 0E       		.uleb128 0xe
 3157 0161 3A       		.uleb128 0x3a
ARM GAS  /var/folders/7z/kps_xzfj7sn5l5gkyq8s9db00000gn/T//ccY40Ifq.s 			page 57


 3158 0162 0B       		.uleb128 0xb
 3159 0163 3B       		.uleb128 0x3b
 3160 0164 05       		.uleb128 0x5
 3161 0165 49       		.uleb128 0x49
 3162 0166 13       		.uleb128 0x13
 3163 0167 02       		.uleb128 0x2
 3164 0168 18       		.uleb128 0x18
 3165 0169 00       		.byte	0
 3166 016a 00       		.byte	0
 3167 016b 1B       		.uleb128 0x1b
 3168 016c 05       		.uleb128 0x5
 3169 016d 00       		.byte	0
 3170 016e 03       		.uleb128 0x3
 3171 016f 0E       		.uleb128 0xe
 3172 0170 3A       		.uleb128 0x3a
 3173 0171 0B       		.uleb128 0xb
 3174 0172 3B       		.uleb128 0x3b
 3175 0173 05       		.uleb128 0x5
 3176 0174 49       		.uleb128 0x49
 3177 0175 13       		.uleb128 0x13
 3178 0176 02       		.uleb128 0x2
 3179 0177 17       		.uleb128 0x17
 3180 0178 00       		.byte	0
 3181 0179 00       		.byte	0
 3182 017a 1C       		.uleb128 0x1c
 3183 017b 34       		.uleb128 0x34
 3184 017c 00       		.byte	0
 3185 017d 03       		.uleb128 0x3
 3186 017e 0E       		.uleb128 0xe
 3187 017f 3A       		.uleb128 0x3a
 3188 0180 0B       		.uleb128 0xb
 3189 0181 3B       		.uleb128 0x3b
 3190 0182 05       		.uleb128 0x5
 3191 0183 49       		.uleb128 0x49
 3192 0184 13       		.uleb128 0x13
 3193 0185 02       		.uleb128 0x2
 3194 0186 17       		.uleb128 0x17
 3195 0187 00       		.byte	0
 3196 0188 00       		.byte	0
 3197 0189 1D       		.uleb128 0x1d
 3198 018a 2E       		.uleb128 0x2e
 3199 018b 01       		.byte	0x1
 3200 018c 3F       		.uleb128 0x3f
 3201 018d 19       		.uleb128 0x19
 3202 018e 03       		.uleb128 0x3
 3203 018f 0E       		.uleb128 0xe
 3204 0190 3A       		.uleb128 0x3a
 3205 0191 0B       		.uleb128 0xb
 3206 0192 3B       		.uleb128 0x3b
 3207 0193 05       		.uleb128 0x5
 3208 0194 27       		.uleb128 0x27
 3209 0195 19       		.uleb128 0x19
 3210 0196 49       		.uleb128 0x49
 3211 0197 13       		.uleb128 0x13
 3212 0198 11       		.uleb128 0x11
 3213 0199 01       		.uleb128 0x1
 3214 019a 12       		.uleb128 0x12
ARM GAS  /var/folders/7z/kps_xzfj7sn5l5gkyq8s9db00000gn/T//ccY40Ifq.s 			page 58


 3215 019b 06       		.uleb128 0x6
 3216 019c 40       		.uleb128 0x40
 3217 019d 18       		.uleb128 0x18
 3218 019e 9742     		.uleb128 0x2117
 3219 01a0 19       		.uleb128 0x19
 3220 01a1 01       		.uleb128 0x1
 3221 01a2 13       		.uleb128 0x13
 3222 01a3 00       		.byte	0
 3223 01a4 00       		.byte	0
 3224 01a5 1E       		.uleb128 0x1e
 3225 01a6 34       		.uleb128 0x34
 3226 01a7 00       		.byte	0
 3227 01a8 03       		.uleb128 0x3
 3228 01a9 08       		.uleb128 0x8
 3229 01aa 3A       		.uleb128 0x3a
 3230 01ab 0B       		.uleb128 0xb
 3231 01ac 3B       		.uleb128 0x3b
 3232 01ad 05       		.uleb128 0x5
 3233 01ae 49       		.uleb128 0x49
 3234 01af 13       		.uleb128 0x13
 3235 01b0 02       		.uleb128 0x2
 3236 01b1 18       		.uleb128 0x18
 3237 01b2 00       		.byte	0
 3238 01b3 00       		.byte	0
 3239 01b4 1F       		.uleb128 0x1f
 3240 01b5 34       		.uleb128 0x34
 3241 01b6 00       		.byte	0
 3242 01b7 03       		.uleb128 0x3
 3243 01b8 0E       		.uleb128 0xe
 3244 01b9 3A       		.uleb128 0x3a
 3245 01ba 0B       		.uleb128 0xb
 3246 01bb 3B       		.uleb128 0x3b
 3247 01bc 05       		.uleb128 0x5
 3248 01bd 49       		.uleb128 0x49
 3249 01be 13       		.uleb128 0x13
 3250 01bf 02       		.uleb128 0x2
 3251 01c0 18       		.uleb128 0x18
 3252 01c1 00       		.byte	0
 3253 01c2 00       		.byte	0
 3254 01c3 20       		.uleb128 0x20
 3255 01c4 34       		.uleb128 0x34
 3256 01c5 00       		.byte	0
 3257 01c6 03       		.uleb128 0x3
 3258 01c7 0E       		.uleb128 0xe
 3259 01c8 3A       		.uleb128 0x3a
 3260 01c9 0B       		.uleb128 0xb
 3261 01ca 3B       		.uleb128 0x3b
 3262 01cb 05       		.uleb128 0x5
 3263 01cc 49       		.uleb128 0x49
 3264 01cd 13       		.uleb128 0x13
 3265 01ce 3F       		.uleb128 0x3f
 3266 01cf 19       		.uleb128 0x19
 3267 01d0 3C       		.uleb128 0x3c
 3268 01d1 19       		.uleb128 0x19
 3269 01d2 00       		.byte	0
 3270 01d3 00       		.byte	0
 3271 01d4 21       		.uleb128 0x21
ARM GAS  /var/folders/7z/kps_xzfj7sn5l5gkyq8s9db00000gn/T//ccY40Ifq.s 			page 59


 3272 01d5 2E       		.uleb128 0x2e
 3273 01d6 01       		.byte	0x1
 3274 01d7 3F       		.uleb128 0x3f
 3275 01d8 19       		.uleb128 0x19
 3276 01d9 03       		.uleb128 0x3
 3277 01da 0E       		.uleb128 0xe
 3278 01db 3A       		.uleb128 0x3a
 3279 01dc 0B       		.uleb128 0xb
 3280 01dd 3B       		.uleb128 0x3b
 3281 01de 05       		.uleb128 0x5
 3282 01df 27       		.uleb128 0x27
 3283 01e0 19       		.uleb128 0x19
 3284 01e1 3C       		.uleb128 0x3c
 3285 01e2 19       		.uleb128 0x19
 3286 01e3 01       		.uleb128 0x1
 3287 01e4 13       		.uleb128 0x13
 3288 01e5 00       		.byte	0
 3289 01e6 00       		.byte	0
 3290 01e7 22       		.uleb128 0x22
 3291 01e8 05       		.uleb128 0x5
 3292 01e9 00       		.byte	0
 3293 01ea 49       		.uleb128 0x49
 3294 01eb 13       		.uleb128 0x13
 3295 01ec 00       		.byte	0
 3296 01ed 00       		.byte	0
 3297 01ee 00       		.byte	0
 3298              		.section	.debug_loc,"",%progbits
 3299              	.Ldebug_loc0:
 3300              	.LLST0:
 3301 0000 00000000 		.4byte	.LVL0
 3302 0004 1A000000 		.4byte	.LVL1
 3303 0008 0100     		.2byte	0x1
 3304 000a 50       		.byte	0x50
 3305 000b 1A000000 		.4byte	.LVL1
 3306 000f 2E000000 		.4byte	.LVL3
 3307 0013 0400     		.2byte	0x4
 3308 0015 F3       		.byte	0xf3
 3309 0016 01       		.uleb128 0x1
 3310 0017 50       		.byte	0x50
 3311 0018 9F       		.byte	0x9f
 3312 0019 2E000000 		.4byte	.LVL3
 3313 001d 32000000 		.4byte	.LVL4
 3314 0021 0100     		.2byte	0x1
 3315 0023 50       		.byte	0x50
 3316 0024 32000000 		.4byte	.LVL4
 3317 0028 46000000 		.4byte	.LVL6
 3318 002c 0400     		.2byte	0x4
 3319 002e F3       		.byte	0xf3
 3320 002f 01       		.uleb128 0x1
 3321 0030 50       		.byte	0x50
 3322 0031 9F       		.byte	0x9f
 3323 0032 46000000 		.4byte	.LVL6
 3324 0036 4A000000 		.4byte	.LVL7
 3325 003a 0100     		.2byte	0x1
 3326 003c 50       		.byte	0x50
 3327 003d 4A000000 		.4byte	.LVL7
 3328 0041 6C000000 		.4byte	.LFE111
ARM GAS  /var/folders/7z/kps_xzfj7sn5l5gkyq8s9db00000gn/T//ccY40Ifq.s 			page 60


 3329 0045 0400     		.2byte	0x4
 3330 0047 F3       		.byte	0xf3
 3331 0048 01       		.uleb128 0x1
 3332 0049 50       		.byte	0x50
 3333 004a 9F       		.byte	0x9f
 3334 004b 00000000 		.4byte	0
 3335 004f 00000000 		.4byte	0
 3336              	.LLST1:
 3337 0053 00000000 		.4byte	.LVL10
 3338 0057 08000000 		.4byte	.LVL11
 3339 005b 0100     		.2byte	0x1
 3340 005d 50       		.byte	0x50
 3341 005e 08000000 		.4byte	.LVL11
 3342 0062 E8000000 		.4byte	.LFE112
 3343 0066 0100     		.2byte	0x1
 3344 0068 55       		.byte	0x55
 3345 0069 00000000 		.4byte	0
 3346 006d 00000000 		.4byte	0
 3347              	.LLST2:
 3348 0071 00000000 		.4byte	.LVL10
 3349 0075 0F000000 		.4byte	.LVL13-1
 3350 0079 0100     		.2byte	0x1
 3351 007b 51       		.byte	0x51
 3352 007c 0F000000 		.4byte	.LVL13-1
 3353 0080 E8000000 		.4byte	.LFE112
 3354 0084 0100     		.2byte	0x1
 3355 0086 56       		.byte	0x56
 3356 0087 00000000 		.4byte	0
 3357 008b 00000000 		.4byte	0
 3358              	.LLST3:
 3359 008f 00000000 		.4byte	.LVL10
 3360 0093 0C000000 		.4byte	.LVL12
 3361 0097 0200     		.2byte	0x2
 3362 0099 30       		.byte	0x30
 3363 009a 9F       		.byte	0x9f
 3364 009b 0C000000 		.4byte	.LVL12
 3365 009f 22000000 		.4byte	.LVL14
 3366 00a3 0100     		.2byte	0x1
 3367 00a5 54       		.byte	0x54
 3368 00a6 28000000 		.4byte	.LVL15
 3369 00aa 3C000000 		.4byte	.LVL18
 3370 00ae 0100     		.2byte	0x1
 3371 00b0 54       		.byte	0x54
 3372 00b1 3C000000 		.4byte	.LVL18
 3373 00b5 50000000 		.4byte	.LVL22
 3374 00b9 0200     		.2byte	0x2
 3375 00bb 30       		.byte	0x30
 3376 00bc 9F       		.byte	0x9f
 3377 00bd 50000000 		.4byte	.LVL22
 3378 00c1 6C000000 		.4byte	.LVL25
 3379 00c5 0100     		.2byte	0x1
 3380 00c7 53       		.byte	0x53
 3381 00c8 76000000 		.4byte	.LVL26
 3382 00cc 78000000 		.4byte	.LVL27
 3383 00d0 0100     		.2byte	0x1
 3384 00d2 53       		.byte	0x53
 3385 00d3 7E000000 		.4byte	.LVL28
ARM GAS  /var/folders/7z/kps_xzfj7sn5l5gkyq8s9db00000gn/T//ccY40Ifq.s 			page 61


 3386 00d7 88000000 		.4byte	.LVL29
 3387 00db 0100     		.2byte	0x1
 3388 00dd 53       		.byte	0x53
 3389 00de 88000000 		.4byte	.LVL29
 3390 00e2 CA000000 		.4byte	.LVL34
 3391 00e6 0200     		.2byte	0x2
 3392 00e8 30       		.byte	0x30
 3393 00e9 9F       		.byte	0x9f
 3394 00ea CA000000 		.4byte	.LVL34
 3395 00ee CE000000 		.4byte	.LVL35
 3396 00f2 0100     		.2byte	0x1
 3397 00f4 53       		.byte	0x53
 3398 00f5 CE000000 		.4byte	.LVL35
 3399 00f9 E8000000 		.4byte	.LFE112
 3400 00fd 0200     		.2byte	0x2
 3401 00ff 30       		.byte	0x30
 3402 0100 9F       		.byte	0x9f
 3403 0101 00000000 		.4byte	0
 3404 0105 00000000 		.4byte	0
 3405              	.LLST4:
 3406 0109 00000000 		.4byte	.LVL10
 3407 010d 2A000000 		.4byte	.LVL16
 3408 0111 0200     		.2byte	0x2
 3409 0113 30       		.byte	0x30
 3410 0114 9F       		.byte	0x9f
 3411 0115 2A000000 		.4byte	.LVL16
 3412 0119 4C000000 		.4byte	.LVL21
 3413 011d 0100     		.2byte	0x1
 3414 011f 57       		.byte	0x57
 3415 0120 4C000000 		.4byte	.LVL21
 3416 0124 52000000 		.4byte	.LVL23
 3417 0128 0300     		.2byte	0x3
 3418 012a 77       		.byte	0x77
 3419 012b 7F       		.sleb128 -1
 3420 012c 9F       		.byte	0x9f
 3421 012d 52000000 		.4byte	.LVL23
 3422 0131 88000000 		.4byte	.LVL29
 3423 0135 1900     		.2byte	0x19
 3424 0137 91       		.byte	0x91
 3425 0138 60       		.sleb128 -32
 3426 0139 06       		.byte	0x6
 3427 013a F7       		.byte	0xf7
 3428 013b 2C       		.uleb128 0x2c
 3429 013c F7       		.byte	0xf7
 3430 013d 25       		.uleb128 0x25
 3431 013e 0C       		.byte	0xc
 3432 013f 83DE1B43 		.4byte	0x431bde83
 3433 0143 F7       		.byte	0xf7
 3434 0144 25       		.uleb128 0x25
 3435 0145 1E       		.byte	0x1e
 3436 0146 08       		.byte	0x8
 3437 0147 20       		.byte	0x20
 3438 0148 F7       		.byte	0xf7
 3439 0149 25       		.uleb128 0x25
 3440 014a 25       		.byte	0x25
 3441 014b F7       		.byte	0xf7
 3442 014c 2C       		.uleb128 0x2c
ARM GAS  /var/folders/7z/kps_xzfj7sn5l5gkyq8s9db00000gn/T//ccY40Ifq.s 			page 62


 3443 014d 42       		.byte	0x42
 3444 014e 25       		.byte	0x25
 3445 014f 9F       		.byte	0x9f
 3446 0150 88000000 		.4byte	.LVL29
 3447 0154 E8000000 		.4byte	.LFE112
 3448 0158 0100     		.2byte	0x1
 3449 015a 57       		.byte	0x57
 3450 015b 00000000 		.4byte	0
 3451 015f 00000000 		.4byte	0
 3452              	.LLST5:
 3453 0163 00000000 		.4byte	.LVL10
 3454 0167 46000000 		.4byte	.LVL20
 3455 016b 0200     		.2byte	0x2
 3456 016d 34       		.byte	0x34
 3457 016e 9F       		.byte	0x9f
 3458 016f 46000000 		.4byte	.LVL20
 3459 0173 52000000 		.4byte	.LVL23
 3460 0177 0100     		.2byte	0x1
 3461 0179 53       		.byte	0x53
 3462 017a 88000000 		.4byte	.LVL29
 3463 017e A0000000 		.4byte	.LVL31
 3464 0182 0200     		.2byte	0x2
 3465 0184 34       		.byte	0x34
 3466 0185 9F       		.byte	0x9f
 3467 0186 A0000000 		.4byte	.LVL31
 3468 018a CA000000 		.4byte	.LVL34
 3469 018e 0100     		.2byte	0x1
 3470 0190 53       		.byte	0x53
 3471 0191 CE000000 		.4byte	.LVL35
 3472 0195 D8000000 		.4byte	.LVL37
 3473 0199 0200     		.2byte	0x2
 3474 019b 34       		.byte	0x34
 3475 019c 9F       		.byte	0x9f
 3476 019d D8000000 		.4byte	.LVL37
 3477 01a1 E8000000 		.4byte	.LFE112
 3478 01a5 0100     		.2byte	0x1
 3479 01a7 53       		.byte	0x53
 3480 01a8 00000000 		.4byte	0
 3481 01ac 00000000 		.4byte	0
 3482              	.LLST6:
 3483 01b0 00000000 		.4byte	.LVL10
 3484 01b4 28000000 		.4byte	.LVL15
 3485 01b8 0600     		.2byte	0x6
 3486 01ba 0C       		.byte	0xc
 3487 01bb 00127A00 		.4byte	0x7a1200
 3488 01bf 9F       		.byte	0x9f
 3489 01c0 28000000 		.4byte	.LVL15
 3490 01c4 44000000 		.4byte	.LVL19
 3491 01c8 0100     		.2byte	0x1
 3492 01ca 53       		.byte	0x53
 3493 01cb 44000000 		.4byte	.LVL19
 3494 01cf 88000000 		.4byte	.LVL29
 3495 01d3 0200     		.2byte	0x2
 3496 01d5 91       		.byte	0x91
 3497 01d6 60       		.sleb128 -32
 3498 01d7 88000000 		.4byte	.LVL29
 3499 01db 9E000000 		.4byte	.LVL30
ARM GAS  /var/folders/7z/kps_xzfj7sn5l5gkyq8s9db00000gn/T//ccY40Ifq.s 			page 63


 3500 01df 0100     		.2byte	0x1
 3501 01e1 53       		.byte	0x53
 3502 01e2 9E000000 		.4byte	.LVL30
 3503 01e6 CE000000 		.4byte	.LVL35
 3504 01ea 0200     		.2byte	0x2
 3505 01ec 91       		.byte	0x91
 3506 01ed 60       		.sleb128 -32
 3507 01ee CE000000 		.4byte	.LVL35
 3508 01f2 D6000000 		.4byte	.LVL36
 3509 01f6 0100     		.2byte	0x1
 3510 01f8 53       		.byte	0x53
 3511 01f9 D6000000 		.4byte	.LVL36
 3512 01fd E8000000 		.4byte	.LFE112
 3513 0201 0200     		.2byte	0x2
 3514 0203 91       		.byte	0x91
 3515 0204 60       		.sleb128 -32
 3516 0205 00000000 		.4byte	0
 3517 0209 00000000 		.4byte	0
 3518              	.LLST7:
 3519 020d 00000000 		.4byte	.LVL42
 3520 0211 06000000 		.4byte	.LVL43
 3521 0215 0100     		.2byte	0x1
 3522 0217 51       		.byte	0x51
 3523 0218 06000000 		.4byte	.LVL43
 3524 021c 08000000 		.4byte	.LVL44
 3525 0220 0100     		.2byte	0x1
 3526 0222 51       		.byte	0x51
 3527 0223 0C000000 		.4byte	.LVL45
 3528 0227 12000000 		.4byte	.LVL47
 3529 022b 0100     		.2byte	0x1
 3530 022d 51       		.byte	0x51
 3531 022e 00000000 		.4byte	0
 3532 0232 00000000 		.4byte	0
 3533              	.LLST8:
 3534 0236 00000000 		.4byte	.LVL49
 3535 023a 08000000 		.4byte	.LVL51
 3536 023e 0100     		.2byte	0x1
 3537 0240 51       		.byte	0x51
 3538 0241 08000000 		.4byte	.LVL51
 3539 0245 12000000 		.4byte	.LFE119
 3540 0249 0400     		.2byte	0x4
 3541 024b F3       		.byte	0xf3
 3542 024c 01       		.uleb128 0x1
 3543 024d 51       		.byte	0x51
 3544 024e 9F       		.byte	0x9f
 3545 024f 00000000 		.4byte	0
 3546 0253 00000000 		.4byte	0
 3547              	.LLST9:
 3548 0257 00000000 		.4byte	.LVL49
 3549 025b 04000000 		.4byte	.LVL50
 3550 025f 0200     		.2byte	0x2
 3551 0261 30       		.byte	0x30
 3552 0262 9F       		.byte	0x9f
 3553 0263 04000000 		.4byte	.LVL50
 3554 0267 0C000000 		.4byte	.LVL52
 3555 026b 0700     		.2byte	0x7
 3556 026d 73       		.byte	0x73
ARM GAS  /var/folders/7z/kps_xzfj7sn5l5gkyq8s9db00000gn/T//ccY40Ifq.s 			page 64


 3557 026e 00       		.sleb128 0
 3558 026f 0B       		.byte	0xb
 3559 0270 01FF     		.2byte	0xff01
 3560 0272 1A       		.byte	0x1a
 3561 0273 9F       		.byte	0x9f
 3562 0274 0E000000 		.4byte	.LVL53
 3563 0278 12000000 		.4byte	.LFE119
 3564 027c 0100     		.2byte	0x1
 3565 027e 51       		.byte	0x51
 3566 027f 00000000 		.4byte	0
 3567 0283 00000000 		.4byte	0
 3568              	.LLST10:
 3569 0287 00000000 		.4byte	.LVL63
 3570 028b 02000000 		.4byte	.LVL64
 3571 028f 0100     		.2byte	0x1
 3572 0291 50       		.byte	0x50
 3573 0292 02000000 		.4byte	.LVL64
 3574 0296 06000000 		.4byte	.LFE129
 3575 029a 0400     		.2byte	0x4
 3576 029c F3       		.byte	0xf3
 3577 029d 01       		.uleb128 0x1
 3578 029e 50       		.byte	0x50
 3579 029f 9F       		.byte	0x9f
 3580 02a0 00000000 		.4byte	0
 3581 02a4 00000000 		.4byte	0
 3582              	.LLST11:
 3583 02a8 00000000 		.4byte	.LVL68
 3584 02ac 02000000 		.4byte	.LVL69
 3585 02b0 0100     		.2byte	0x1
 3586 02b2 50       		.byte	0x50
 3587 02b3 02000000 		.4byte	.LVL69
 3588 02b7 08000000 		.4byte	.LFE133
 3589 02bb 0400     		.2byte	0x4
 3590 02bd F3       		.byte	0xf3
 3591 02be 01       		.uleb128 0x1
 3592 02bf 50       		.byte	0x50
 3593 02c0 9F       		.byte	0x9f
 3594 02c1 00000000 		.4byte	0
 3595 02c5 00000000 		.4byte	0
 3596              	.LLST12:
 3597 02c9 00000000 		.4byte	.LVL72
 3598 02cd 12000000 		.4byte	.LVL74
 3599 02d1 0100     		.2byte	0x1
 3600 02d3 50       		.byte	0x50
 3601 02d4 12000000 		.4byte	.LVL74
 3602 02d8 18000000 		.4byte	.LFE136
 3603 02dc 0400     		.2byte	0x4
 3604 02de F3       		.byte	0xf3
 3605 02df 01       		.uleb128 0x1
 3606 02e0 50       		.byte	0x50
 3607 02e1 9F       		.byte	0x9f
 3608 02e2 00000000 		.4byte	0
 3609 02e6 00000000 		.4byte	0
 3610              	.LLST13:
 3611 02ea 00000000 		.4byte	.LVL72
 3612 02ee 0C000000 		.4byte	.LVL73
 3613 02f2 0100     		.2byte	0x1
ARM GAS  /var/folders/7z/kps_xzfj7sn5l5gkyq8s9db00000gn/T//ccY40Ifq.s 			page 65


 3614 02f4 51       		.byte	0x51
 3615 02f5 0C000000 		.4byte	.LVL73
 3616 02f9 18000000 		.4byte	.LFE136
 3617 02fd 0400     		.2byte	0x4
 3618 02ff F3       		.byte	0xf3
 3619 0300 01       		.uleb128 0x1
 3620 0301 51       		.byte	0x51
 3621 0302 9F       		.byte	0x9f
 3622 0303 00000000 		.4byte	0
 3623 0307 00000000 		.4byte	0
 3624              	.LLST14:
 3625 030b 00000000 		.4byte	.LVL75
 3626 030f 0A000000 		.4byte	.LVL76
 3627 0313 0100     		.2byte	0x1
 3628 0315 51       		.byte	0x51
 3629 0316 0A000000 		.4byte	.LVL76
 3630 031a 0E000000 		.4byte	.LVL77
 3631 031e 0400     		.2byte	0x4
 3632 0320 F3       		.byte	0xf3
 3633 0321 01       		.uleb128 0x1
 3634 0322 51       		.byte	0x51
 3635 0323 9F       		.byte	0x9f
 3636 0324 0E000000 		.4byte	.LVL77
 3637 0328 10000000 		.4byte	.LVL78
 3638 032c 0100     		.2byte	0x1
 3639 032e 51       		.byte	0x51
 3640 032f 10000000 		.4byte	.LVL78
 3641 0333 14000000 		.4byte	.LFE137
 3642 0337 0400     		.2byte	0x4
 3643 0339 F3       		.byte	0xf3
 3644 033a 01       		.uleb128 0x1
 3645 033b 51       		.byte	0x51
 3646 033c 9F       		.byte	0x9f
 3647 033d 00000000 		.4byte	0
 3648 0341 00000000 		.4byte	0
 3649              	.LLST15:
 3650 0345 00000000 		.4byte	.LVL79
 3651 0349 04000000 		.4byte	.LVL80
 3652 034d 0100     		.2byte	0x1
 3653 034f 50       		.byte	0x50
 3654 0350 04000000 		.4byte	.LVL80
 3655 0354 1A000000 		.4byte	.LFE138
 3656 0358 0400     		.2byte	0x4
 3657 035a F3       		.byte	0xf3
 3658 035b 01       		.uleb128 0x1
 3659 035c 50       		.byte	0x50
 3660 035d 9F       		.byte	0x9f
 3661 035e 00000000 		.4byte	0
 3662 0362 00000000 		.4byte	0
 3663              	.LLST16:
 3664 0366 00000000 		.4byte	.LVL79
 3665 036a 06000000 		.4byte	.LVL81
 3666 036e 0200     		.2byte	0x2
 3667 0370 30       		.byte	0x30
 3668 0371 9F       		.byte	0x9f
 3669 0372 06000000 		.4byte	.LVL81
 3670 0376 0A000000 		.4byte	.LVL82
ARM GAS  /var/folders/7z/kps_xzfj7sn5l5gkyq8s9db00000gn/T//ccY40Ifq.s 			page 66


 3671 037a 1600     		.2byte	0x16
 3672 037c 70       		.byte	0x70
 3673 037d 00       		.sleb128 0
 3674 037e 0A       		.byte	0xa
 3675 037f FFFF     		.2byte	0xffff
 3676 0381 1A       		.byte	0x1a
 3677 0382 40       		.byte	0x40
 3678 0383 24       		.byte	0x24
 3679 0384 73       		.byte	0x73
 3680 0385 00       		.sleb128 0
 3681 0386 0A       		.byte	0xa
 3682 0387 FFFF     		.2byte	0xffff
 3683 0389 1A       		.byte	0x1a
 3684 038a 21       		.byte	0x21
 3685 038b 0C       		.byte	0xc
 3686 038c FFFFFF00 		.4byte	0xffffff
 3687 0390 1A       		.byte	0x1a
 3688 0391 9F       		.byte	0x9f
 3689 0392 00000000 		.4byte	0
 3690 0396 00000000 		.4byte	0
 3691              	.LLST17:
 3692 039a 00000000 		.4byte	.LVL79
 3693 039e 06000000 		.4byte	.LVL81
 3694 03a2 0200     		.2byte	0x2
 3695 03a4 30       		.byte	0x30
 3696 03a5 9F       		.byte	0x9f
 3697 03a6 06000000 		.4byte	.LVL81
 3698 03aa 0A000000 		.4byte	.LVL82
 3699 03ae 0700     		.2byte	0x7
 3700 03b0 73       		.byte	0x73
 3701 03b1 00       		.sleb128 0
 3702 03b2 0A       		.byte	0xa
 3703 03b3 FFFF     		.2byte	0xffff
 3704 03b5 1A       		.byte	0x1a
 3705 03b6 9F       		.byte	0x9f
 3706 03b7 00000000 		.4byte	0
 3707 03bb 00000000 		.4byte	0
 3708              	.LLST18:
 3709 03bf 00000000 		.4byte	.LVL79
 3710 03c3 06000000 		.4byte	.LVL81
 3711 03c7 0200     		.2byte	0x2
 3712 03c9 30       		.byte	0x30
 3713 03ca 9F       		.byte	0x9f
 3714 03cb 06000000 		.4byte	.LVL81
 3715 03cf 0E000000 		.4byte	.LVL83
 3716 03d3 0900     		.2byte	0x9
 3717 03d5 70       		.byte	0x70
 3718 03d6 00       		.sleb128 0
 3719 03d7 0A       		.byte	0xa
 3720 03d8 FFFF     		.2byte	0xffff
 3721 03da 1A       		.byte	0x1a
 3722 03db 40       		.byte	0x40
 3723 03dc 24       		.byte	0x24
 3724 03dd 9F       		.byte	0x9f
 3725 03de 00000000 		.4byte	0
 3726 03e2 00000000 		.4byte	0
 3727              	.LLST19:
ARM GAS  /var/folders/7z/kps_xzfj7sn5l5gkyq8s9db00000gn/T//ccY40Ifq.s 			page 67


 3728 03e6 00000000 		.4byte	.LVL79
 3729 03ea 06000000 		.4byte	.LVL81
 3730 03ee 0200     		.2byte	0x2
 3731 03f0 30       		.byte	0x30
 3732 03f1 9F       		.byte	0x9f
 3733 03f2 06000000 		.4byte	.LVL81
 3734 03f6 0A000000 		.4byte	.LVL82
 3735 03fa 1C00     		.2byte	0x1c
 3736 03fc 71       		.byte	0x71
 3737 03fd 00       		.sleb128 0
 3738 03fe 70       		.byte	0x70
 3739 03ff 00       		.sleb128 0
 3740 0400 0A       		.byte	0xa
 3741 0401 FFFF     		.2byte	0xffff
 3742 0403 1A       		.byte	0x1a
 3743 0404 40       		.byte	0x40
 3744 0405 24       		.byte	0x24
 3745 0406 73       		.byte	0x73
 3746 0407 00       		.sleb128 0
 3747 0408 0A       		.byte	0xa
 3748 0409 FFFF     		.2byte	0xffff
 3749 040b 1A       		.byte	0x1a
 3750 040c 21       		.byte	0x21
 3751 040d 71       		.byte	0x71
 3752 040e 00       		.sleb128 0
 3753 040f 1A       		.byte	0x1a
 3754 0410 0C       		.byte	0xc
 3755 0411 FFFFFF00 		.4byte	0xffffff
 3756 0415 1A       		.byte	0x1a
 3757 0416 29       		.byte	0x29
 3758 0417 9F       		.byte	0x9f
 3759 0418 00000000 		.4byte	0
 3760 041c 00000000 		.4byte	0
 3761              	.LLST20:
 3762 0420 00000000 		.4byte	.LVL84
 3763 0424 06000000 		.4byte	.LVL85
 3764 0428 0100     		.2byte	0x1
 3765 042a 50       		.byte	0x50
 3766 042b 06000000 		.4byte	.LVL85
 3767 042f 10000000 		.4byte	.LFE139
 3768 0433 0400     		.2byte	0x4
 3769 0435 F3       		.byte	0xf3
 3770 0436 01       		.uleb128 0x1
 3771 0437 50       		.byte	0x50
 3772 0438 9F       		.byte	0x9f
 3773 0439 00000000 		.4byte	0
 3774 043d 00000000 		.4byte	0
 3775              	.LLST21:
 3776 0441 00000000 		.4byte	.LVL84
 3777 0445 06000000 		.4byte	.LVL85
 3778 0449 0200     		.2byte	0x2
 3779 044b 30       		.byte	0x30
 3780 044c 9F       		.byte	0x9f
 3781 044d 06000000 		.4byte	.LVL85
 3782 0451 0A000000 		.4byte	.LVL86
 3783 0455 1600     		.2byte	0x16
 3784 0457 72       		.byte	0x72
ARM GAS  /var/folders/7z/kps_xzfj7sn5l5gkyq8s9db00000gn/T//ccY40Ifq.s 			page 68


 3785 0458 00       		.sleb128 0
 3786 0459 0A       		.byte	0xa
 3787 045a FFFF     		.2byte	0xffff
 3788 045c 1A       		.byte	0x1a
 3789 045d 40       		.byte	0x40
 3790 045e 24       		.byte	0x24
 3791 045f 70       		.byte	0x70
 3792 0460 00       		.sleb128 0
 3793 0461 0A       		.byte	0xa
 3794 0462 FFFF     		.2byte	0xffff
 3795 0464 1A       		.byte	0x1a
 3796 0465 21       		.byte	0x21
 3797 0466 0C       		.byte	0xc
 3798 0467 FFFFFF00 		.4byte	0xffffff
 3799 046b 1A       		.byte	0x1a
 3800 046c 9F       		.byte	0x9f
 3801 046d 0A000000 		.4byte	.LVL86
 3802 0471 10000000 		.4byte	.LFE139
 3803 0475 1600     		.2byte	0x16
 3804 0477 72       		.byte	0x72
 3805 0478 00       		.sleb128 0
 3806 0479 0A       		.byte	0xa
 3807 047a FFFF     		.2byte	0xffff
 3808 047c 1A       		.byte	0x1a
 3809 047d 40       		.byte	0x40
 3810 047e 24       		.byte	0x24
 3811 047f 73       		.byte	0x73
 3812 0480 00       		.sleb128 0
 3813 0481 0A       		.byte	0xa
 3814 0482 FFFF     		.2byte	0xffff
 3815 0484 1A       		.byte	0x1a
 3816 0485 21       		.byte	0x21
 3817 0486 0C       		.byte	0xc
 3818 0487 FFFFFF00 		.4byte	0xffffff
 3819 048b 1A       		.byte	0x1a
 3820 048c 9F       		.byte	0x9f
 3821 048d 00000000 		.4byte	0
 3822 0491 00000000 		.4byte	0
 3823              	.LLST22:
 3824 0495 00000000 		.4byte	.LVL84
 3825 0499 06000000 		.4byte	.LVL85
 3826 049d 0200     		.2byte	0x2
 3827 049f 30       		.byte	0x30
 3828 04a0 9F       		.byte	0x9f
 3829 04a1 06000000 		.4byte	.LVL85
 3830 04a5 0A000000 		.4byte	.LVL86
 3831 04a9 0700     		.2byte	0x7
 3832 04ab 70       		.byte	0x70
 3833 04ac 00       		.sleb128 0
 3834 04ad 0A       		.byte	0xa
 3835 04ae FFFF     		.2byte	0xffff
 3836 04b0 1A       		.byte	0x1a
 3837 04b1 9F       		.byte	0x9f
 3838 04b2 0A000000 		.4byte	.LVL86
 3839 04b6 10000000 		.4byte	.LFE139
 3840 04ba 0700     		.2byte	0x7
 3841 04bc 73       		.byte	0x73
ARM GAS  /var/folders/7z/kps_xzfj7sn5l5gkyq8s9db00000gn/T//ccY40Ifq.s 			page 69


 3842 04bd 00       		.sleb128 0
 3843 04be 0A       		.byte	0xa
 3844 04bf FFFF     		.2byte	0xffff
 3845 04c1 1A       		.byte	0x1a
 3846 04c2 9F       		.byte	0x9f
 3847 04c3 00000000 		.4byte	0
 3848 04c7 00000000 		.4byte	0
 3849              	.LLST23:
 3850 04cb 00000000 		.4byte	.LVL84
 3851 04cf 06000000 		.4byte	.LVL85
 3852 04d3 0200     		.2byte	0x2
 3853 04d5 30       		.byte	0x30
 3854 04d6 9F       		.byte	0x9f
 3855 04d7 06000000 		.4byte	.LVL85
 3856 04db 10000000 		.4byte	.LFE139
 3857 04df 0900     		.2byte	0x9
 3858 04e1 72       		.byte	0x72
 3859 04e2 00       		.sleb128 0
 3860 04e3 0A       		.byte	0xa
 3861 04e4 FFFF     		.2byte	0xffff
 3862 04e6 1A       		.byte	0x1a
 3863 04e7 40       		.byte	0x40
 3864 04e8 24       		.byte	0x24
 3865 04e9 9F       		.byte	0x9f
 3866 04ea 00000000 		.4byte	0
 3867 04ee 00000000 		.4byte	0
 3868              	.LLST24:
 3869 04f2 00000000 		.4byte	.LVL87
 3870 04f6 26000000 		.4byte	.LVL90
 3871 04fa 0100     		.2byte	0x1
 3872 04fc 50       		.byte	0x50
 3873 04fd 26000000 		.4byte	.LVL90
 3874 0501 2C000000 		.4byte	.LVL91
 3875 0505 0400     		.2byte	0x4
 3876 0507 F3       		.byte	0xf3
 3877 0508 01       		.uleb128 0x1
 3878 0509 50       		.byte	0x50
 3879 050a 9F       		.byte	0x9f
 3880 050b 2C000000 		.4byte	.LVL91
 3881 050f 36000000 		.4byte	.LFE140
 3882 0513 0100     		.2byte	0x1
 3883 0515 50       		.byte	0x50
 3884 0516 00000000 		.4byte	0
 3885 051a 00000000 		.4byte	0
 3886              	.LLST25:
 3887 051e 00000000 		.4byte	.LVL87
 3888 0522 14000000 		.4byte	.LVL88
 3889 0526 0100     		.2byte	0x1
 3890 0528 51       		.byte	0x51
 3891 0529 14000000 		.4byte	.LVL88
 3892 052d 36000000 		.4byte	.LFE140
 3893 0531 0100     		.2byte	0x1
 3894 0533 51       		.byte	0x51
 3895 0534 00000000 		.4byte	0
 3896 0538 00000000 		.4byte	0
 3897              	.LLST26:
 3898 053c 00000000 		.4byte	.LVL87
ARM GAS  /var/folders/7z/kps_xzfj7sn5l5gkyq8s9db00000gn/T//ccY40Ifq.s 			page 70


 3899 0540 20000000 		.4byte	.LVL89
 3900 0544 0200     		.2byte	0x2
 3901 0546 30       		.byte	0x30
 3902 0547 9F       		.byte	0x9f
 3903 0548 20000000 		.4byte	.LVL89
 3904 054c 2C000000 		.4byte	.LVL91
 3905 0550 0800     		.2byte	0x8
 3906 0552 71       		.byte	0x71
 3907 0553 00       		.sleb128 0
 3908 0554 73       		.byte	0x73
 3909 0555 00       		.sleb128 0
 3910 0556 1A       		.byte	0x1a
 3911 0557 30       		.byte	0x30
 3912 0558 2E       		.byte	0x2e
 3913 0559 9F       		.byte	0x9f
 3914 055a 2C000000 		.4byte	.LVL91
 3915 055e 36000000 		.4byte	.LFE140
 3916 0562 0200     		.2byte	0x2
 3917 0564 30       		.byte	0x30
 3918 0565 9F       		.byte	0x9f
 3919 0566 00000000 		.4byte	0
 3920 056a 00000000 		.4byte	0
 3921              	.LLST27:
 3922 056e 00000000 		.4byte	.LVL93
 3923 0572 02000000 		.4byte	.LVL94
 3924 0576 0100     		.2byte	0x1
 3925 0578 51       		.byte	0x51
 3926 0579 02000000 		.4byte	.LVL94
 3927 057d 04000000 		.4byte	.LVL95
 3928 0581 0400     		.2byte	0x4
 3929 0583 71       		.byte	0x71
 3930 0584 00       		.sleb128 0
 3931 0585 20       		.byte	0x20
 3932 0586 9F       		.byte	0x9f
 3933 0587 04000000 		.4byte	.LVL95
 3934 058b 08000000 		.4byte	.LFE141
 3935 058f 0400     		.2byte	0x4
 3936 0591 F3       		.byte	0xf3
 3937 0592 01       		.uleb128 0x1
 3938 0593 51       		.byte	0x51
 3939 0594 9F       		.byte	0x9f
 3940 0595 00000000 		.4byte	0
 3941 0599 00000000 		.4byte	0
 3942              	.LLST28:
 3943 059d 00000000 		.4byte	.LVL93
 3944 05a1 02000000 		.4byte	.LVL94
 3945 05a5 0900     		.2byte	0x9
 3946 05a7 71       		.byte	0x71
 3947 05a8 00       		.sleb128 0
 3948 05a9 0C       		.byte	0xc
 3949 05aa FFFFFF00 		.4byte	0xffffff
 3950 05ae 1A       		.byte	0x1a
 3951 05af 9F       		.byte	0x9f
 3952 05b0 02000000 		.4byte	.LVL94
 3953 05b4 04000000 		.4byte	.LVL95
 3954 05b8 0A00     		.2byte	0xa
 3955 05ba 71       		.byte	0x71
ARM GAS  /var/folders/7z/kps_xzfj7sn5l5gkyq8s9db00000gn/T//ccY40Ifq.s 			page 71


 3956 05bb 00       		.sleb128 0
 3957 05bc 20       		.byte	0x20
 3958 05bd 0C       		.byte	0xc
 3959 05be FFFFFF00 		.4byte	0xffffff
 3960 05c2 1A       		.byte	0x1a
 3961 05c3 9F       		.byte	0x9f
 3962 05c4 04000000 		.4byte	.LVL95
 3963 05c8 08000000 		.4byte	.LFE141
 3964 05cc 0A00     		.2byte	0xa
 3965 05ce F3       		.byte	0xf3
 3966 05cf 01       		.uleb128 0x1
 3967 05d0 51       		.byte	0x51
 3968 05d1 0C       		.byte	0xc
 3969 05d2 FFFFFF00 		.4byte	0xffffff
 3970 05d6 1A       		.byte	0x1a
 3971 05d7 9F       		.byte	0x9f
 3972 05d8 00000000 		.4byte	0
 3973 05dc 00000000 		.4byte	0
 3974              	.LLST29:
 3975 05e0 00000000 		.4byte	.LVL96
 3976 05e4 04000000 		.4byte	.LVL97
 3977 05e8 0100     		.2byte	0x1
 3978 05ea 50       		.byte	0x50
 3979 05eb 04000000 		.4byte	.LVL97
 3980 05ef 1C000000 		.4byte	.LFE142
 3981 05f3 0400     		.2byte	0x4
 3982 05f5 F3       		.byte	0xf3
 3983 05f6 01       		.uleb128 0x1
 3984 05f7 50       		.byte	0x50
 3985 05f8 9F       		.byte	0x9f
 3986 05f9 00000000 		.4byte	0
 3987 05fd 00000000 		.4byte	0
 3988              	.LLST30:
 3989 0601 00000000 		.4byte	.LVL96
 3990 0605 0A000000 		.4byte	.LVL98
 3991 0609 0100     		.2byte	0x1
 3992 060b 51       		.byte	0x51
 3993 060c 0A000000 		.4byte	.LVL98
 3994 0610 10000000 		.4byte	.LVL99
 3995 0614 0900     		.2byte	0x9
 3996 0616 71       		.byte	0x71
 3997 0617 00       		.sleb128 0
 3998 0618 0C       		.byte	0xc
 3999 0619 FFFFFF00 		.4byte	0xffffff
 4000 061d 1A       		.byte	0x1a
 4001 061e 9F       		.byte	0x9f
 4002 061f 10000000 		.4byte	.LVL99
 4003 0623 1C000000 		.4byte	.LFE142
 4004 0627 0A00     		.2byte	0xa
 4005 0629 F3       		.byte	0xf3
 4006 062a 01       		.uleb128 0x1
 4007 062b 51       		.byte	0x51
 4008 062c 0C       		.byte	0xc
 4009 062d FFFFFF00 		.4byte	0xffffff
 4010 0631 1A       		.byte	0x1a
 4011 0632 9F       		.byte	0x9f
 4012 0633 00000000 		.4byte	0
ARM GAS  /var/folders/7z/kps_xzfj7sn5l5gkyq8s9db00000gn/T//ccY40Ifq.s 			page 72


 4013 0637 00000000 		.4byte	0
 4014              	.LLST31:
 4015 063b 00000000 		.4byte	.LVL96
 4016 063f 1A000000 		.4byte	.LVL101
 4017 0643 0200     		.2byte	0x2
 4018 0645 30       		.byte	0x30
 4019 0646 9F       		.byte	0x9f
 4020 0647 1A000000 		.4byte	.LVL101
 4021 064b 1C000000 		.4byte	.LFE142
 4022 064f 0100     		.2byte	0x1
 4023 0651 50       		.byte	0x50
 4024 0652 00000000 		.4byte	0
 4025 0656 00000000 		.4byte	0
 4026              	.LLST32:
 4027 065a 00000000 		.4byte	.LVL96
 4028 065e 0A000000 		.4byte	.LVL98
 4029 0662 0200     		.2byte	0x2
 4030 0664 30       		.byte	0x30
 4031 0665 9F       		.byte	0x9f
 4032 0666 0A000000 		.4byte	.LVL98
 4033 066a 10000000 		.4byte	.LVL99
 4034 066e 1000     		.2byte	0x10
 4035 0670 71       		.byte	0x71
 4036 0671 00       		.sleb128 0
 4037 0672 4C       		.byte	0x4c
 4038 0673 46       		.byte	0x46
 4039 0674 24       		.byte	0x24
 4040 0675 1A       		.byte	0x1a
 4041 0676 40       		.byte	0x40
 4042 0677 25       		.byte	0x25
 4043 0678 73       		.byte	0x73
 4044 0679 00       		.sleb128 0
 4045 067a 0A       		.byte	0xa
 4046 067b FFFF     		.2byte	0xffff
 4047 067d 1A       		.byte	0x1a
 4048 067e 1A       		.byte	0x1a
 4049 067f 9F       		.byte	0x9f
 4050 0680 10000000 		.4byte	.LVL99
 4051 0684 14000000 		.4byte	.LVL100
 4052 0688 0C00     		.2byte	0xc
 4053 068a 71       		.byte	0x71
 4054 068b 00       		.sleb128 0
 4055 068c 40       		.byte	0x40
 4056 068d 25       		.byte	0x25
 4057 068e 73       		.byte	0x73
 4058 068f 00       		.sleb128 0
 4059 0690 0A       		.byte	0xa
 4060 0691 FFFF     		.2byte	0xffff
 4061 0693 1A       		.byte	0x1a
 4062 0694 1A       		.byte	0x1a
 4063 0695 9F       		.byte	0x9f
 4064 0696 00000000 		.4byte	0
 4065 069a 00000000 		.4byte	0
 4066              	.LLST33:
 4067 069e 00000000 		.4byte	.LVL102
 4068 06a2 02000000 		.4byte	.LVL103
 4069 06a6 0100     		.2byte	0x1
ARM GAS  /var/folders/7z/kps_xzfj7sn5l5gkyq8s9db00000gn/T//ccY40Ifq.s 			page 73


 4070 06a8 51       		.byte	0x51
 4071 06a9 02000000 		.4byte	.LVL103
 4072 06ad 04000000 		.4byte	.LVL104
 4073 06b1 0400     		.2byte	0x4
 4074 06b3 71       		.byte	0x71
 4075 06b4 00       		.sleb128 0
 4076 06b5 20       		.byte	0x20
 4077 06b6 9F       		.byte	0x9f
 4078 06b7 04000000 		.4byte	.LVL104
 4079 06bb 08000000 		.4byte	.LFE143
 4080 06bf 0400     		.2byte	0x4
 4081 06c1 F3       		.byte	0xf3
 4082 06c2 01       		.uleb128 0x1
 4083 06c3 51       		.byte	0x51
 4084 06c4 9F       		.byte	0x9f
 4085 06c5 00000000 		.4byte	0
 4086 06c9 00000000 		.4byte	0
 4087              	.LLST34:
 4088 06cd 00000000 		.4byte	.LVL102
 4089 06d1 02000000 		.4byte	.LVL103
 4090 06d5 0900     		.2byte	0x9
 4091 06d7 71       		.byte	0x71
 4092 06d8 00       		.sleb128 0
 4093 06d9 0C       		.byte	0xc
 4094 06da FFFFFF00 		.4byte	0xffffff
 4095 06de 1A       		.byte	0x1a
 4096 06df 9F       		.byte	0x9f
 4097 06e0 02000000 		.4byte	.LVL103
 4098 06e4 04000000 		.4byte	.LVL104
 4099 06e8 0A00     		.2byte	0xa
 4100 06ea 71       		.byte	0x71
 4101 06eb 00       		.sleb128 0
 4102 06ec 20       		.byte	0x20
 4103 06ed 0C       		.byte	0xc
 4104 06ee FFFFFF00 		.4byte	0xffffff
 4105 06f2 1A       		.byte	0x1a
 4106 06f3 9F       		.byte	0x9f
 4107 06f4 04000000 		.4byte	.LVL104
 4108 06f8 08000000 		.4byte	.LFE143
 4109 06fc 0A00     		.2byte	0xa
 4110 06fe F3       		.byte	0xf3
 4111 06ff 01       		.uleb128 0x1
 4112 0700 51       		.byte	0x51
 4113 0701 0C       		.byte	0xc
 4114 0702 FFFFFF00 		.4byte	0xffffff
 4115 0706 1A       		.byte	0x1a
 4116 0707 9F       		.byte	0x9f
 4117 0708 00000000 		.4byte	0
 4118 070c 00000000 		.4byte	0
 4119              		.section	.debug_aranges,"",%progbits
 4120 0000 1C010000 		.4byte	0x11c
 4121 0004 0200     		.2byte	0x2
 4122 0006 00000000 		.4byte	.Ldebug_info0
 4123 000a 04       		.byte	0x4
 4124 000b 00       		.byte	0
 4125 000c 0000     		.2byte	0
 4126 000e 0000     		.2byte	0
ARM GAS  /var/folders/7z/kps_xzfj7sn5l5gkyq8s9db00000gn/T//ccY40Ifq.s 			page 74


 4127 0010 00000000 		.4byte	.LFB111
 4128 0014 6C000000 		.4byte	.LFE111-.LFB111
 4129 0018 00000000 		.4byte	.LFB112
 4130 001c E8000000 		.4byte	.LFE112-.LFB112
 4131 0020 00000000 		.4byte	.LFB113
 4132 0024 22000000 		.4byte	.LFE113-.LFB113
 4133 0028 00000000 		.4byte	.LFB114
 4134 002c 1A000000 		.4byte	.LFE114-.LFB114
 4135 0030 00000000 		.4byte	.LFB115
 4136 0034 1A000000 		.4byte	.LFE115-.LFB115
 4137 0038 00000000 		.4byte	.LFB116
 4138 003c 1A000000 		.4byte	.LFE116-.LFB116
 4139 0040 00000000 		.4byte	.LFB117
 4140 0044 16000000 		.4byte	.LFE117-.LFB117
 4141 0048 00000000 		.4byte	.LFB118
 4142 004c 1A000000 		.4byte	.LFE118-.LFB118
 4143 0050 00000000 		.4byte	.LFB119
 4144 0054 12000000 		.4byte	.LFE119-.LFB119
 4145 0058 00000000 		.4byte	.LFB120
 4146 005c 1A000000 		.4byte	.LFE120-.LFB120
 4147 0060 00000000 		.4byte	.LFB121
 4148 0064 1A000000 		.4byte	.LFE121-.LFB121
 4149 0068 00000000 		.4byte	.LFB122
 4150 006c 1A000000 		.4byte	.LFE122-.LFB122
 4151 0070 00000000 		.4byte	.LFB123
 4152 0074 1A000000 		.4byte	.LFE123-.LFB123
 4153 0078 00000000 		.4byte	.LFB124
 4154 007c 1E000000 		.4byte	.LFE124-.LFB124
 4155 0080 00000000 		.4byte	.LFB125
 4156 0084 1E000000 		.4byte	.LFE125-.LFB125
 4157 0088 00000000 		.4byte	.LFB126
 4158 008c 1E000000 		.4byte	.LFE126-.LFB126
 4159 0090 00000000 		.4byte	.LFB127
 4160 0094 1A000000 		.4byte	.LFE127-.LFB127
 4161 0098 00000000 		.4byte	.LFB128
 4162 009c 04000000 		.4byte	.LFE128-.LFB128
 4163 00a0 00000000 		.4byte	.LFB129
 4164 00a4 06000000 		.4byte	.LFE129-.LFB129
 4165 00a8 00000000 		.4byte	.LFB130
 4166 00ac 1A000000 		.4byte	.LFE130-.LFB130
 4167 00b0 00000000 		.4byte	.LFB131
 4168 00b4 1E000000 		.4byte	.LFE131-.LFB131
 4169 00b8 00000000 		.4byte	.LFB132
 4170 00bc 1A000000 		.4byte	.LFE132-.LFB132
 4171 00c0 00000000 		.4byte	.LFB133
 4172 00c4 08000000 		.4byte	.LFE133-.LFB133
 4173 00c8 00000000 		.4byte	.LFB134
 4174 00cc 1A000000 		.4byte	.LFE134-.LFB134
 4175 00d0 00000000 		.4byte	.LFB135
 4176 00d4 1A000000 		.4byte	.LFE135-.LFB135
 4177 00d8 00000000 		.4byte	.LFB136
 4178 00dc 18000000 		.4byte	.LFE136-.LFB136
 4179 00e0 00000000 		.4byte	.LFB137
 4180 00e4 14000000 		.4byte	.LFE137-.LFB137
 4181 00e8 00000000 		.4byte	.LFB138
 4182 00ec 1A000000 		.4byte	.LFE138-.LFB138
 4183 00f0 00000000 		.4byte	.LFB139
ARM GAS  /var/folders/7z/kps_xzfj7sn5l5gkyq8s9db00000gn/T//ccY40Ifq.s 			page 75


 4184 00f4 10000000 		.4byte	.LFE139-.LFB139
 4185 00f8 00000000 		.4byte	.LFB140
 4186 00fc 36000000 		.4byte	.LFE140-.LFB140
 4187 0100 00000000 		.4byte	.LFB141
 4188 0104 08000000 		.4byte	.LFE141-.LFB141
 4189 0108 00000000 		.4byte	.LFB142
 4190 010c 1C000000 		.4byte	.LFE142-.LFB142
 4191 0110 00000000 		.4byte	.LFB143
 4192 0114 08000000 		.4byte	.LFE143-.LFB143
 4193 0118 00000000 		.4byte	0
 4194 011c 00000000 		.4byte	0
 4195              		.section	.debug_ranges,"",%progbits
 4196              	.Ldebug_ranges0:
 4197 0000 00000000 		.4byte	.LFB111
 4198 0004 6C000000 		.4byte	.LFE111
 4199 0008 00000000 		.4byte	.LFB112
 4200 000c E8000000 		.4byte	.LFE112
 4201 0010 00000000 		.4byte	.LFB113
 4202 0014 22000000 		.4byte	.LFE113
 4203 0018 00000000 		.4byte	.LFB114
 4204 001c 1A000000 		.4byte	.LFE114
 4205 0020 00000000 		.4byte	.LFB115
 4206 0024 1A000000 		.4byte	.LFE115
 4207 0028 00000000 		.4byte	.LFB116
 4208 002c 1A000000 		.4byte	.LFE116
 4209 0030 00000000 		.4byte	.LFB117
 4210 0034 16000000 		.4byte	.LFE117
 4211 0038 00000000 		.4byte	.LFB118
 4212 003c 1A000000 		.4byte	.LFE118
 4213 0040 00000000 		.4byte	.LFB119
 4214 0044 12000000 		.4byte	.LFE119
 4215 0048 00000000 		.4byte	.LFB120
 4216 004c 1A000000 		.4byte	.LFE120
 4217 0050 00000000 		.4byte	.LFB121
 4218 0054 1A000000 		.4byte	.LFE121
 4219 0058 00000000 		.4byte	.LFB122
 4220 005c 1A000000 		.4byte	.LFE122
 4221 0060 00000000 		.4byte	.LFB123
 4222 0064 1A000000 		.4byte	.LFE123
 4223 0068 00000000 		.4byte	.LFB124
 4224 006c 1E000000 		.4byte	.LFE124
 4225 0070 00000000 		.4byte	.LFB125
 4226 0074 1E000000 		.4byte	.LFE125
 4227 0078 00000000 		.4byte	.LFB126
 4228 007c 1E000000 		.4byte	.LFE126
 4229 0080 00000000 		.4byte	.LFB127
 4230 0084 1A000000 		.4byte	.LFE127
 4231 0088 00000000 		.4byte	.LFB128
 4232 008c 04000000 		.4byte	.LFE128
 4233 0090 00000000 		.4byte	.LFB129
 4234 0094 06000000 		.4byte	.LFE129
 4235 0098 00000000 		.4byte	.LFB130
 4236 009c 1A000000 		.4byte	.LFE130
 4237 00a0 00000000 		.4byte	.LFB131
 4238 00a4 1E000000 		.4byte	.LFE131
 4239 00a8 00000000 		.4byte	.LFB132
 4240 00ac 1A000000 		.4byte	.LFE132
ARM GAS  /var/folders/7z/kps_xzfj7sn5l5gkyq8s9db00000gn/T//ccY40Ifq.s 			page 76


 4241 00b0 00000000 		.4byte	.LFB133
 4242 00b4 08000000 		.4byte	.LFE133
 4243 00b8 00000000 		.4byte	.LFB134
 4244 00bc 1A000000 		.4byte	.LFE134
 4245 00c0 00000000 		.4byte	.LFB135
 4246 00c4 1A000000 		.4byte	.LFE135
 4247 00c8 00000000 		.4byte	.LFB136
 4248 00cc 18000000 		.4byte	.LFE136
 4249 00d0 00000000 		.4byte	.LFB137
 4250 00d4 14000000 		.4byte	.LFE137
 4251 00d8 00000000 		.4byte	.LFB138
 4252 00dc 1A000000 		.4byte	.LFE138
 4253 00e0 00000000 		.4byte	.LFB139
 4254 00e4 10000000 		.4byte	.LFE139
 4255 00e8 00000000 		.4byte	.LFB140
 4256 00ec 36000000 		.4byte	.LFE140
 4257 00f0 00000000 		.4byte	.LFB141
 4258 00f4 08000000 		.4byte	.LFE141
 4259 00f8 00000000 		.4byte	.LFB142
 4260 00fc 1C000000 		.4byte	.LFE142
 4261 0100 00000000 		.4byte	.LFB143
 4262 0104 08000000 		.4byte	.LFE143
 4263 0108 00000000 		.4byte	0
 4264 010c 00000000 		.4byte	0
 4265              		.section	.debug_line,"",%progbits
 4266              	.Ldebug_line0:
 4267 0000 ED040000 		.section	.debug_str,"MS",%progbits,1
 4267      0200B701 
 4267      00000201 
 4267      FB0E0D00 
 4267      01010101 
 4268              	.LASF113:
 4269 0000 4932435F 		.ascii	"I2C_ClearITPendingBit\000"
 4269      436C6561 
 4269      72495450 
 4269      656E6469 
 4269      6E674269 
 4270              	.LASF65:
 4271 0016 4E657753 		.ascii	"NewState\000"
 4271      74617465 
 4271      00
 4272              	.LASF66:
 4273 001f 4932435F 		.ascii	"I2C_GenerateSTART\000"
 4273      47656E65 
 4273      72617465 
 4273      53544152 
 4273      5400
 4274              	.LASF19:
 4275 0031 466C6167 		.ascii	"FlagStatus\000"
 4275      53746174 
 4275      757300
 4276              	.LASF90:
 4277 003c 4932435F 		.ascii	"I2C_GetPEC\000"
 4277      47657450 
 4277      454300
 4278              	.LASF76:
 4279 0047 4932435F 		.ascii	"I2C_StretchClockCmd\000"
ARM GAS  /var/folders/7z/kps_xzfj7sn5l5gkyq8s9db00000gn/T//ccY40Ifq.s 			page 77


 4279      53747265 
 4279      74636843 
 4279      6C6F636B 
 4279      436D6400 
 4280              	.LASF5:
 4281 005b 5F5F7569 		.ascii	"__uint8_t\000"
 4281      6E74385F 
 4281      7400
 4282              	.LASF94:
 4283 0065 4932435F 		.ascii	"I2C_Register\000"
 4283      52656769 
 4283      73746572 
 4283      00
 4284              	.LASF37:
 4285 0072 54524953 		.ascii	"TRISE\000"
 4285      4500
 4286              	.LASF114:
 4287 0078 5243435F 		.ascii	"RCC_APB1PeriphResetCmd\000"
 4287      41504231 
 4287      50657269 
 4287      70685265 
 4287      73657443 
 4288              	.LASF95:
 4289 008f 4932435F 		.ascii	"I2C_ITConfig\000"
 4289      4954436F 
 4289      6E666967 
 4289      00
 4290              	.LASF21:
 4291 009c 44495341 		.ascii	"DISABLE\000"
 4291      424C4500 
 4292              	.LASF117:
 4293 00a4 6C69622F 		.ascii	"lib/ChibiOS_2.6.6/ext/stdperiph_stm32f4/src/stm32f4"
 4293      43686962 
 4293      694F535F 
 4293      322E362E 
 4293      362F6578 
 4294 00d7 78785F69 		.ascii	"xx_i2c.c\000"
 4294      32632E63 
 4294      00
 4295              	.LASF0:
 4296 00e0 6C6F6E67 		.ascii	"long long unsigned int\000"
 4296      206C6F6E 
 4296      6720756E 
 4296      7369676E 
 4296      65642069 
 4297              	.LASF119:
 4298 00f7 49544D5F 		.ascii	"ITM_RxBuffer\000"
 4298      52784275 
 4298      66666572 
 4298      00
 4299              	.LASF78:
 4300 0104 4932435F 		.ascii	"I2C_NACKPositionConfig\000"
 4300      4E41434B 
 4300      506F7369 
 4300      74696F6E 
 4300      436F6E66 
 4301              	.LASF72:
ARM GAS  /var/folders/7z/kps_xzfj7sn5l5gkyq8s9db00000gn/T//ccY40Ifq.s 			page 78


 4302 011b 4932435F 		.ascii	"I2C_OwnAddress2Config\000"
 4302      4F776E41 
 4302      64647265 
 4302      73733243 
 4302      6F6E6669 
 4303              	.LASF57:
 4304 0131 4932435F 		.ascii	"I2C_InitStruct\000"
 4304      496E6974 
 4304      53747275 
 4304      637400
 4305              	.LASF12:
 4306 0140 6C6F6E67 		.ascii	"long long int\000"
 4306      206C6F6E 
 4306      6720696E 
 4306      7400
 4307              	.LASF2:
 4308 014e 7369676E 		.ascii	"signed char\000"
 4308      65642063 
 4308      68617200 
 4309              	.LASF59:
 4310 015a 66726571 		.ascii	"freqrange\000"
 4310      72616E67 
 4310      6500
 4311              	.LASF83:
 4312 0164 4932435F 		.ascii	"I2C_SendData\000"
 4312      53656E64 
 4312      44617461 
 4312      00
 4313              	.LASF88:
 4314 0171 4932435F 		.ascii	"I2C_CalculatePEC\000"
 4314      43616C63 
 4314      756C6174 
 4314      65504543 
 4314      00
 4315              	.LASF45:
 4316 0182 50434C4B 		.ascii	"PCLK2_Frequency\000"
 4316      325F4672 
 4316      65717565 
 4316      6E637900 
 4317              	.LASF47:
 4318 0192 4932435F 		.ascii	"I2C_ClockSpeed\000"
 4318      436C6F63 
 4318      6B537065 
 4318      656400
 4319              	.LASF48:
 4320 01a1 4932435F 		.ascii	"I2C_Mode\000"
 4320      4D6F6465 
 4320      00
 4321              	.LASF63:
 4322 01aa 4932435F 		.ascii	"I2C_StructInit\000"
 4322      53747275 
 4322      6374496E 
 4322      697400
 4323              	.LASF22:
 4324 01b9 454E4142 		.ascii	"ENABLE\000"
 4324      4C4500
 4325              	.LASF14:
ARM GAS  /var/folders/7z/kps_xzfj7sn5l5gkyq8s9db00000gn/T//ccY40Ifq.s 			page 79


 4326 01c0 75696E74 		.ascii	"uint16_t\000"
 4326      31365F74 
 4326      00
 4327              	.LASF29:
 4328 01c9 4F415231 		.ascii	"OAR1\000"
 4328      00
 4329              	.LASF39:
 4330 01ce 464C5452 		.ascii	"FLTR\000"
 4330      00
 4331              	.LASF92:
 4332 01d3 4932435F 		.ascii	"I2C_DMALastTransferCmd\000"
 4332      444D414C 
 4332      61737454 
 4332      72616E73 
 4332      66657243 
 4333              	.LASF10:
 4334 01ea 5F5F7569 		.ascii	"__uint32_t\000"
 4334      6E743332 
 4334      5F7400
 4335              	.LASF26:
 4336 01f5 4572726F 		.ascii	"ErrorStatus\000"
 4336      72537461 
 4336      74757300 
 4337              	.LASF24:
 4338 0201 4552524F 		.ascii	"ERROR\000"
 4338      5200
 4339              	.LASF80:
 4340 0207 4932435F 		.ascii	"I2C_SMBusAlertConfig\000"
 4340      534D4275 
 4340      73416C65 
 4340      7274436F 
 4340      6E666967 
 4341              	.LASF106:
 4342 021c 62697473 		.ascii	"bitstatus\000"
 4342      74617475 
 4342      7300
 4343              	.LASF43:
 4344 0226 48434C4B 		.ascii	"HCLK_Frequency\000"
 4344      5F467265 
 4344      7175656E 
 4344      637900
 4345              	.LASF118:
 4346 0235 2F557365 		.ascii	"/Users/Baram/oroca_bldc_dev/oroca_bldc/\000"
 4346      72732F42 
 4346      6172616D 
 4346      2F6F726F 
 4346      63615F62 
 4347              	.LASF20:
 4348 025d 49545374 		.ascii	"ITStatus\000"
 4348      61747573 
 4348      00
 4349              	.LASF1:
 4350 0266 756E7369 		.ascii	"unsigned int\000"
 4350      676E6564 
 4350      20696E74 
 4350      00
 4351              	.LASF11:
ARM GAS  /var/folders/7z/kps_xzfj7sn5l5gkyq8s9db00000gn/T//ccY40Ifq.s 			page 80


 4352 0273 6C6F6E67 		.ascii	"long unsigned int\000"
 4352      20756E73 
 4352      69676E65 
 4352      6420696E 
 4352      7400
 4353              	.LASF116:
 4354 0285 474E5520 		.ascii	"GNU C 4.9.3 20150303 (release) [ARM/embedded-4_9-br"
 4354      4320342E 
 4354      392E3320 
 4354      32303135 
 4354      30333033 
 4355 02b8 616E6368 		.ascii	"anch revision 221220] -mcpu=cortex-m4 -mfloat-abi=h"
 4355      20726576 
 4355      6973696F 
 4355      6E203232 
 4355      31323230 
 4356 02eb 61726420 		.ascii	"ard -mfpu=fpv4-sp-d16 -mno-thumb-interwork -mthumb "
 4356      2D6D6670 
 4356      753D6670 
 4356      76342D73 
 4356      702D6431 
 4357 031e 2D676764 		.ascii	"-ggdb -O2 -std=gnu99 -fomit-frame-pointer -falign-f"
 4357      62202D4F 
 4357      32202D73 
 4357      74643D67 
 4357      6E753939 
 4358 0351 756E6374 		.ascii	"unctions=16 -ffunction-sections -fdata-sections -fn"
 4358      696F6E73 
 4358      3D313620 
 4358      2D666675 
 4358      6E637469 
 4359 0384 6F2D636F 		.ascii	"o-common -fsingle-precision-constant\000"
 4359      6D6D6F6E 
 4359      202D6673 
 4359      696E676C 
 4359      652D7072 
 4360              	.LASF86:
 4361 03a9 4932435F 		.ascii	"I2C_PECPositionConfig\000"
 4361      50454350 
 4361      6F736974 
 4361      696F6E43 
 4361      6F6E6669 
 4362              	.LASF110:
 4363 03bf 666C6167 		.ascii	"flagpos\000"
 4363      706F7300 
 4364              	.LASF55:
 4365 03c7 4932435F 		.ascii	"I2C_Init\000"
 4365      496E6974 
 4365      00
 4366              	.LASF82:
 4367 03d0 4932435F 		.ascii	"I2C_ARPCmd\000"
 4367      41525043 
 4367      6D6400
 4368              	.LASF49:
 4369 03db 4932435F 		.ascii	"I2C_DutyCycle\000"
 4369      44757479 
 4369      4379636C 
ARM GAS  /var/folders/7z/kps_xzfj7sn5l5gkyq8s9db00000gn/T//ccY40Ifq.s 			page 81


 4369      6500
 4370              	.LASF107:
 4371 03e9 69326372 		.ascii	"i2creg\000"
 4371      656700
 4372              	.LASF85:
 4373 03f0 4932435F 		.ascii	"I2C_TransmitPEC\000"
 4373      5472616E 
 4373      736D6974 
 4373      50454300 
 4374              	.LASF81:
 4375 0400 4932435F 		.ascii	"I2C_SMBusAlert\000"
 4375      534D4275 
 4375      73416C65 
 4375      727400
 4376              	.LASF69:
 4377 040f 41646472 		.ascii	"Address\000"
 4377      65737300 
 4378              	.LASF56:
 4379 0417 49324378 		.ascii	"I2Cx\000"
 4379      00
 4380              	.LASF70:
 4381 041c 4932435F 		.ascii	"I2C_Direction\000"
 4381      44697265 
 4381      6374696F 
 4381      6E00
 4382              	.LASF79:
 4383 042a 4932435F 		.ascii	"I2C_NACKPosition\000"
 4383      4E41434B 
 4383      506F7369 
 4383      74696F6E 
 4383      00
 4384              	.LASF18:
 4385 043b 52455345 		.ascii	"RESET\000"
 4385      5400
 4386              	.LASF103:
 4387 0441 4932435F 		.ascii	"I2C_GetLastEvent\000"
 4387      4765744C 
 4387      61737445 
 4387      76656E74 
 4387      00
 4388              	.LASF17:
 4389 0452 73697A65 		.ascii	"sizetype\000"
 4389      74797065 
 4389      00
 4390              	.LASF105:
 4391 045b 4932435F 		.ascii	"I2C_FLAG\000"
 4391      464C4147 
 4391      00
 4392              	.LASF54:
 4393 0464 4932435F 		.ascii	"I2C_DeInit\000"
 4393      4465496E 
 4393      697400
 4394              	.LASF74:
 4395 046f 4932435F 		.ascii	"I2C_GeneralCallCmd\000"
 4395      47656E65 
 4395      72616C43 
 4395      616C6C43 
ARM GAS  /var/folders/7z/kps_xzfj7sn5l5gkyq8s9db00000gn/T//ccY40Ifq.s 			page 82


 4395      6D6400
 4396              	.LASF84:
 4397 0482 44617461 		.ascii	"Data\000"
 4397      00
 4398              	.LASF23:
 4399 0487 46756E63 		.ascii	"FunctionalState\000"
 4399      74696F6E 
 4399      616C5374 
 4399      61746500 
 4400              	.LASF97:
 4401 0497 4932435F 		.ascii	"I2C_CheckEvent\000"
 4401      43686563 
 4401      6B457665 
 4401      6E7400
 4402              	.LASF91:
 4403 04a6 4932435F 		.ascii	"I2C_DMACmd\000"
 4403      444D4143 
 4403      6D6400
 4404              	.LASF53:
 4405 04b1 4932435F 		.ascii	"I2C_InitTypeDef\000"
 4405      496E6974 
 4405      54797065 
 4405      44656600 
 4406              	.LASF96:
 4407 04c1 4932435F 		.ascii	"I2C_IT\000"
 4407      495400
 4408              	.LASF61:
 4409 04c8 70636C6B 		.ascii	"pclk1\000"
 4409      3100
 4410              	.LASF64:
 4411 04ce 4932435F 		.ascii	"I2C_Cmd\000"
 4411      436D6400 
 4412              	.LASF27:
 4413 04d6 52455345 		.ascii	"RESERVED0\000"
 4413      52564544 
 4413      3000
 4414              	.LASF28:
 4415 04e0 52455345 		.ascii	"RESERVED1\000"
 4415      52564544 
 4415      3100
 4416              	.LASF30:
 4417 04ea 52455345 		.ascii	"RESERVED2\000"
 4417      52564544 
 4417      3200
 4418              	.LASF32:
 4419 04f4 52455345 		.ascii	"RESERVED3\000"
 4419      52564544 
 4419      3300
 4420              	.LASF33:
 4421 04fe 52455345 		.ascii	"RESERVED4\000"
 4421      52564544 
 4421      3400
 4422              	.LASF34:
 4423 0508 52455345 		.ascii	"RESERVED5\000"
 4423      52564544 
 4423      3500
 4424              	.LASF35:
ARM GAS  /var/folders/7z/kps_xzfj7sn5l5gkyq8s9db00000gn/T//ccY40Ifq.s 			page 83


 4425 0512 52455345 		.ascii	"RESERVED6\000"
 4425      52564544 
 4425      3600
 4426              	.LASF36:
 4427 051c 52455345 		.ascii	"RESERVED7\000"
 4427      52564544 
 4427      3700
 4428              	.LASF38:
 4429 0526 52455345 		.ascii	"RESERVED8\000"
 4429      52564544 
 4429      3800
 4430              	.LASF40:
 4431 0530 52455345 		.ascii	"RESERVED9\000"
 4431      52564544 
 4431      3900
 4432              	.LASF50:
 4433 053a 4932435F 		.ascii	"I2C_OwnAddress1\000"
 4433      4F776E41 
 4433      64647265 
 4433      73733100 
 4434              	.LASF62:
 4435 054a 7263635F 		.ascii	"rcc_clocks\000"
 4435      636C6F63 
 4435      6B7300
 4436              	.LASF15:
 4437 0555 696E7433 		.ascii	"int32_t\000"
 4437      325F7400 
 4438              	.LASF3:
 4439 055d 756E7369 		.ascii	"unsigned char\000"
 4439      676E6564 
 4439      20636861 
 4439      7200
 4440              	.LASF51:
 4441 056b 4932435F 		.ascii	"I2C_Ack\000"
 4441      41636B00 
 4442              	.LASF4:
 4443 0573 73686F72 		.ascii	"short int\000"
 4443      7420696E 
 4443      7400
 4444              	.LASF98:
 4445 057d 4932435F 		.ascii	"I2C_EVENT\000"
 4445      4556454E 
 4445      5400
 4446              	.LASF42:
 4447 0587 53595343 		.ascii	"SYSCLK_Frequency\000"
 4447      4C4B5F46 
 4447      72657175 
 4447      656E6379 
 4447      00
 4448              	.LASF89:
 4449 0598 4932435F 		.ascii	"I2C_ReceiveData\000"
 4449      52656365 
 4449      69766544 
 4449      61746100 
 4450              	.LASF109:
 4451 05a8 4932435F 		.ascii	"I2C_ClearFlag\000"
 4451      436C6561 
ARM GAS  /var/folders/7z/kps_xzfj7sn5l5gkyq8s9db00000gn/T//ccY40Ifq.s 			page 84


 4451      72466C61 
 4451      6700
 4452              	.LASF52:
 4453 05b6 4932435F 		.ascii	"I2C_AcknowledgedAddress\000"
 4453      41636B6E 
 4453      6F776C65 
 4453      64676564 
 4453      41646472 
 4454              	.LASF93:
 4455 05ce 4932435F 		.ascii	"I2C_ReadRegister\000"
 4455      52656164 
 4455      52656769 
 4455      73746572 
 4455      00
 4456              	.LASF16:
 4457 05df 75696E74 		.ascii	"uint32_t\000"
 4457      33325F74 
 4457      00
 4458              	.LASF44:
 4459 05e8 50434C4B 		.ascii	"PCLK1_Frequency\000"
 4459      315F4672 
 4459      65717565 
 4459      6E637900 
 4460              	.LASF77:
 4461 05f8 4932435F 		.ascii	"I2C_FastModeDutyCycleConfig\000"
 4461      46617374 
 4461      4D6F6465 
 4461      44757479 
 4461      4379636C 
 4462              	.LASF115:
 4463 0614 5243435F 		.ascii	"RCC_GetClocksFreq\000"
 4463      47657443 
 4463      6C6F636B 
 4463      73467265 
 4463      7100
 4464              	.LASF73:
 4465 0626 4932435F 		.ascii	"I2C_DualAddressCmd\000"
 4465      4475616C 
 4465      41646472 
 4465      65737343 
 4465      6D6400
 4466              	.LASF6:
 4467 0639 5F5F7569 		.ascii	"__uint16_t\000"
 4467      6E743136 
 4467      5F7400
 4468              	.LASF100:
 4469 0644 666C6167 		.ascii	"flag1\000"
 4469      3100
 4470              	.LASF101:
 4471 064a 666C6167 		.ascii	"flag2\000"
 4471      3200
 4472              	.LASF112:
 4473 0650 656E6162 		.ascii	"enablestatus\000"
 4473      6C657374 
 4473      61747573 
 4473      00
 4474              	.LASF8:
ARM GAS  /var/folders/7z/kps_xzfj7sn5l5gkyq8s9db00000gn/T//ccY40Ifq.s 			page 85


 4475 065d 5F5F696E 		.ascii	"__int32_t\000"
 4475      7433325F 
 4475      7400
 4476              	.LASF71:
 4477 0667 4932435F 		.ascii	"I2C_AcknowledgeConfig\000"
 4477      41636B6E 
 4477      6F776C65 
 4477      64676543 
 4477      6F6E6669 
 4478              	.LASF7:
 4479 067d 73686F72 		.ascii	"short unsigned int\000"
 4479      7420756E 
 4479      7369676E 
 4479      65642069 
 4479      6E7400
 4480              	.LASF87:
 4481 0690 4932435F 		.ascii	"I2C_PECPosition\000"
 4481      50454350 
 4481      6F736974 
 4481      696F6E00 
 4482              	.LASF104:
 4483 06a0 4932435F 		.ascii	"I2C_GetFlagStatus\000"
 4483      47657446 
 4483      6C616753 
 4483      74617475 
 4483      7300
 4484              	.LASF99:
 4485 06b2 6C617374 		.ascii	"lastevent\000"
 4485      6576656E 
 4485      7400
 4486              	.LASF102:
 4487 06bc 73746174 		.ascii	"status\000"
 4487      757300
 4488              	.LASF75:
 4489 06c3 4932435F 		.ascii	"I2C_SoftwareResetCmd\000"
 4489      536F6674 
 4489      77617265 
 4489      52657365 
 4489      74436D64 
 4490              	.LASF13:
 4491 06d8 75696E74 		.ascii	"uint8_t\000"
 4491      385F7400 
 4492              	.LASF68:
 4493 06e0 4932435F 		.ascii	"I2C_Send7bitAddress\000"
 4493      53656E64 
 4493      37626974 
 4493      41646472 
 4493      65737300 
 4494              	.LASF25:
 4495 06f4 53554343 		.ascii	"SUCCESS\000"
 4495      45535300 
 4496              	.LASF108:
 4497 06fc 69326378 		.ascii	"i2cxbase\000"
 4497      62617365 
 4497      00
 4498              	.LASF31:
 4499 0705 4F415232 		.ascii	"OAR2\000"
ARM GAS  /var/folders/7z/kps_xzfj7sn5l5gkyq8s9db00000gn/T//ccY40Ifq.s 			page 86


 4499      00
 4500              	.LASF67:
 4501 070a 4932435F 		.ascii	"I2C_GenerateSTOP\000"
 4501      47656E65 
 4501      72617465 
 4501      53544F50 
 4501      00
 4502              	.LASF46:
 4503 071b 5243435F 		.ascii	"RCC_ClocksTypeDef\000"
 4503      436C6F63 
 4503      6B735479 
 4503      70654465 
 4503      6600
 4504              	.LASF111:
 4505 072d 4932435F 		.ascii	"I2C_GetITStatus\000"
 4505      47657449 
 4505      54537461 
 4505      74757300 
 4506              	.LASF9:
 4507 073d 6C6F6E67 		.ascii	"long int\000"
 4507      20696E74 
 4507      00
 4508              	.LASF41:
 4509 0746 4932435F 		.ascii	"I2C_TypeDef\000"
 4509      54797065 
 4509      44656600 
 4510              	.LASF58:
 4511 0752 746D7072 		.ascii	"tmpreg\000"
 4511      656700
 4512              	.LASF60:
 4513 0759 72657375 		.ascii	"result\000"
 4513      6C7400
 4514              		.ident	"GCC: (GNU Tools for ARM Embedded Processors) 4.9.3 20150303 (release) [ARM/embedded-4_9-br
ARM GAS  /var/folders/7z/kps_xzfj7sn5l5gkyq8s9db00000gn/T//ccY40Ifq.s 			page 87


DEFINED SYMBOLS
                            *ABS*:0000000000000000 stm32f4xx_i2c.c
/var/folders/7z/kps_xzfj7sn5l5gkyq8s9db00000gn/T//ccY40Ifq.s:21     .text.I2C_DeInit:0000000000000000 $t
/var/folders/7z/kps_xzfj7sn5l5gkyq8s9db00000gn/T//ccY40Ifq.s:27     .text.I2C_DeInit:0000000000000000 I2C_DeInit
/var/folders/7z/kps_xzfj7sn5l5gkyq8s9db00000gn/T//ccY40Ifq.s:113    .text.I2C_DeInit:0000000000000060 $d
/var/folders/7z/kps_xzfj7sn5l5gkyq8s9db00000gn/T//ccY40Ifq.s:120    .text.I2C_Init:0000000000000000 $t
/var/folders/7z/kps_xzfj7sn5l5gkyq8s9db00000gn/T//ccY40Ifq.s:126    .text.I2C_Init:0000000000000000 I2C_Init
/var/folders/7z/kps_xzfj7sn5l5gkyq8s9db00000gn/T//ccY40Ifq.s:311    .text.I2C_Init:00000000000000dc $d
/var/folders/7z/kps_xzfj7sn5l5gkyq8s9db00000gn/T//ccY40Ifq.s:318    .text.I2C_StructInit:0000000000000000 $t
/var/folders/7z/kps_xzfj7sn5l5gkyq8s9db00000gn/T//ccY40Ifq.s:324    .text.I2C_StructInit:0000000000000000 I2C_StructInit
/var/folders/7z/kps_xzfj7sn5l5gkyq8s9db00000gn/T//ccY40Ifq.s:365    .text.I2C_Cmd:0000000000000000 $t
/var/folders/7z/kps_xzfj7sn5l5gkyq8s9db00000gn/T//ccY40Ifq.s:371    .text.I2C_Cmd:0000000000000000 I2C_Cmd
/var/folders/7z/kps_xzfj7sn5l5gkyq8s9db00000gn/T//ccY40Ifq.s:399    .text.I2C_GenerateSTART:0000000000000000 $t
/var/folders/7z/kps_xzfj7sn5l5gkyq8s9db00000gn/T//ccY40Ifq.s:405    .text.I2C_GenerateSTART:0000000000000000 I2C_GenerateSTART
/var/folders/7z/kps_xzfj7sn5l5gkyq8s9db00000gn/T//ccY40Ifq.s:433    .text.I2C_GenerateSTOP:0000000000000000 $t
/var/folders/7z/kps_xzfj7sn5l5gkyq8s9db00000gn/T//ccY40Ifq.s:439    .text.I2C_GenerateSTOP:0000000000000000 I2C_GenerateSTOP
/var/folders/7z/kps_xzfj7sn5l5gkyq8s9db00000gn/T//ccY40Ifq.s:467    .text.I2C_Send7bitAddress:0000000000000000 $t
/var/folders/7z/kps_xzfj7sn5l5gkyq8s9db00000gn/T//ccY40Ifq.s:473    .text.I2C_Send7bitAddress:0000000000000000 I2C_Send7bitAddress
/var/folders/7z/kps_xzfj7sn5l5gkyq8s9db00000gn/T//ccY40Ifq.s:505    .text.I2C_AcknowledgeConfig:0000000000000000 $t
/var/folders/7z/kps_xzfj7sn5l5gkyq8s9db00000gn/T//ccY40Ifq.s:511    .text.I2C_AcknowledgeConfig:0000000000000000 I2C_AcknowledgeConfig
/var/folders/7z/kps_xzfj7sn5l5gkyq8s9db00000gn/T//ccY40Ifq.s:539    .text.I2C_OwnAddress2Config:0000000000000000 $t
/var/folders/7z/kps_xzfj7sn5l5gkyq8s9db00000gn/T//ccY40Ifq.s:545    .text.I2C_OwnAddress2Config:0000000000000000 I2C_OwnAddress2Config
/var/folders/7z/kps_xzfj7sn5l5gkyq8s9db00000gn/T//ccY40Ifq.s:573    .text.I2C_DualAddressCmd:0000000000000000 $t
/var/folders/7z/kps_xzfj7sn5l5gkyq8s9db00000gn/T//ccY40Ifq.s:579    .text.I2C_DualAddressCmd:0000000000000000 I2C_DualAddressCmd
/var/folders/7z/kps_xzfj7sn5l5gkyq8s9db00000gn/T//ccY40Ifq.s:607    .text.I2C_GeneralCallCmd:0000000000000000 $t
/var/folders/7z/kps_xzfj7sn5l5gkyq8s9db00000gn/T//ccY40Ifq.s:613    .text.I2C_GeneralCallCmd:0000000000000000 I2C_GeneralCallCmd
/var/folders/7z/kps_xzfj7sn5l5gkyq8s9db00000gn/T//ccY40Ifq.s:641    .text.I2C_SoftwareResetCmd:0000000000000000 $t
/var/folders/7z/kps_xzfj7sn5l5gkyq8s9db00000gn/T//ccY40Ifq.s:647    .text.I2C_SoftwareResetCmd:0000000000000000 I2C_SoftwareResetCmd
/var/folders/7z/kps_xzfj7sn5l5gkyq8s9db00000gn/T//ccY40Ifq.s:674    .text.I2C_StretchClockCmd:0000000000000000 $t
/var/folders/7z/kps_xzfj7sn5l5gkyq8s9db00000gn/T//ccY40Ifq.s:680    .text.I2C_StretchClockCmd:0000000000000000 I2C_StretchClockCmd
/var/folders/7z/kps_xzfj7sn5l5gkyq8s9db00000gn/T//ccY40Ifq.s:708    .text.I2C_FastModeDutyCycleConfig:0000000000000000 $t
/var/folders/7z/kps_xzfj7sn5l5gkyq8s9db00000gn/T//ccY40Ifq.s:714    .text.I2C_FastModeDutyCycleConfig:0000000000000000 I2C_FastModeDutyCycleConfig
/var/folders/7z/kps_xzfj7sn5l5gkyq8s9db00000gn/T//ccY40Ifq.s:744    .text.I2C_NACKPositionConfig:0000000000000000 $t
/var/folders/7z/kps_xzfj7sn5l5gkyq8s9db00000gn/T//ccY40Ifq.s:750    .text.I2C_NACKPositionConfig:0000000000000000 I2C_NACKPositionConfig
/var/folders/7z/kps_xzfj7sn5l5gkyq8s9db00000gn/T//ccY40Ifq.s:780    .text.I2C_SMBusAlertConfig:0000000000000000 $t
/var/folders/7z/kps_xzfj7sn5l5gkyq8s9db00000gn/T//ccY40Ifq.s:786    .text.I2C_SMBusAlertConfig:0000000000000000 I2C_SMBusAlertConfig
/var/folders/7z/kps_xzfj7sn5l5gkyq8s9db00000gn/T//ccY40Ifq.s:816    .text.I2C_ARPCmd:0000000000000000 $t
/var/folders/7z/kps_xzfj7sn5l5gkyq8s9db00000gn/T//ccY40Ifq.s:822    .text.I2C_ARPCmd:0000000000000000 I2C_ARPCmd
/var/folders/7z/kps_xzfj7sn5l5gkyq8s9db00000gn/T//ccY40Ifq.s:850    .text.I2C_SendData:0000000000000000 $t
/var/folders/7z/kps_xzfj7sn5l5gkyq8s9db00000gn/T//ccY40Ifq.s:856    .text.I2C_SendData:0000000000000000 I2C_SendData
/var/folders/7z/kps_xzfj7sn5l5gkyq8s9db00000gn/T//ccY40Ifq.s:871    .text.I2C_ReceiveData:0000000000000000 $t
/var/folders/7z/kps_xzfj7sn5l5gkyq8s9db00000gn/T//ccY40Ifq.s:877    .text.I2C_ReceiveData:0000000000000000 I2C_ReceiveData
/var/folders/7z/kps_xzfj7sn5l5gkyq8s9db00000gn/T//ccY40Ifq.s:895    .text.I2C_TransmitPEC:0000000000000000 $t
/var/folders/7z/kps_xzfj7sn5l5gkyq8s9db00000gn/T//ccY40Ifq.s:901    .text.I2C_TransmitPEC:0000000000000000 I2C_TransmitPEC
/var/folders/7z/kps_xzfj7sn5l5gkyq8s9db00000gn/T//ccY40Ifq.s:929    .text.I2C_PECPositionConfig:0000000000000000 $t
/var/folders/7z/kps_xzfj7sn5l5gkyq8s9db00000gn/T//ccY40Ifq.s:935    .text.I2C_PECPositionConfig:0000000000000000 I2C_PECPositionConfig
/var/folders/7z/kps_xzfj7sn5l5gkyq8s9db00000gn/T//ccY40Ifq.s:965    .text.I2C_CalculatePEC:0000000000000000 $t
/var/folders/7z/kps_xzfj7sn5l5gkyq8s9db00000gn/T//ccY40Ifq.s:971    .text.I2C_CalculatePEC:0000000000000000 I2C_CalculatePEC
/var/folders/7z/kps_xzfj7sn5l5gkyq8s9db00000gn/T//ccY40Ifq.s:999    .text.I2C_GetPEC:0000000000000000 $t
/var/folders/7z/kps_xzfj7sn5l5gkyq8s9db00000gn/T//ccY40Ifq.s:1005   .text.I2C_GetPEC:0000000000000000 I2C_GetPEC
/var/folders/7z/kps_xzfj7sn5l5gkyq8s9db00000gn/T//ccY40Ifq.s:1023   .text.I2C_DMACmd:0000000000000000 $t
/var/folders/7z/kps_xzfj7sn5l5gkyq8s9db00000gn/T//ccY40Ifq.s:1029   .text.I2C_DMACmd:0000000000000000 I2C_DMACmd
/var/folders/7z/kps_xzfj7sn5l5gkyq8s9db00000gn/T//ccY40Ifq.s:1057   .text.I2C_DMALastTransferCmd:0000000000000000 $t
/var/folders/7z/kps_xzfj7sn5l5gkyq8s9db00000gn/T//ccY40Ifq.s:1063   .text.I2C_DMALastTransferCmd:0000000000000000 I2C_DMALastTransferCmd
/var/folders/7z/kps_xzfj7sn5l5gkyq8s9db00000gn/T//ccY40Ifq.s:1091   .text.I2C_ReadRegister:0000000000000000 $t
/var/folders/7z/kps_xzfj7sn5l5gkyq8s9db00000gn/T//ccY40Ifq.s:1097   .text.I2C_ReadRegister:0000000000000000 I2C_ReadRegister
/var/folders/7z/kps_xzfj7sn5l5gkyq8s9db00000gn/T//ccY40Ifq.s:1131   .text.I2C_ITConfig:0000000000000000 $t
ARM GAS  /var/folders/7z/kps_xzfj7sn5l5gkyq8s9db00000gn/T//ccY40Ifq.s 			page 88


/var/folders/7z/kps_xzfj7sn5l5gkyq8s9db00000gn/T//ccY40Ifq.s:1137   .text.I2C_ITConfig:0000000000000000 I2C_ITConfig
/var/folders/7z/kps_xzfj7sn5l5gkyq8s9db00000gn/T//ccY40Ifq.s:1166   .text.I2C_CheckEvent:0000000000000000 $t
/var/folders/7z/kps_xzfj7sn5l5gkyq8s9db00000gn/T//ccY40Ifq.s:1172   .text.I2C_CheckEvent:0000000000000000 I2C_CheckEvent
/var/folders/7z/kps_xzfj7sn5l5gkyq8s9db00000gn/T//ccY40Ifq.s:1204   .text.I2C_GetLastEvent:0000000000000000 $t
/var/folders/7z/kps_xzfj7sn5l5gkyq8s9db00000gn/T//ccY40Ifq.s:1210   .text.I2C_GetLastEvent:0000000000000000 I2C_GetLastEvent
/var/folders/7z/kps_xzfj7sn5l5gkyq8s9db00000gn/T//ccY40Ifq.s:1235   .text.I2C_GetFlagStatus:0000000000000000 $t
/var/folders/7z/kps_xzfj7sn5l5gkyq8s9db00000gn/T//ccY40Ifq.s:1241   .text.I2C_GetFlagStatus:0000000000000000 I2C_GetFlagStatus
/var/folders/7z/kps_xzfj7sn5l5gkyq8s9db00000gn/T//ccY40Ifq.s:1305   .text.I2C_ClearFlag:0000000000000000 $t
/var/folders/7z/kps_xzfj7sn5l5gkyq8s9db00000gn/T//ccY40Ifq.s:1311   .text.I2C_ClearFlag:0000000000000000 I2C_ClearFlag
/var/folders/7z/kps_xzfj7sn5l5gkyq8s9db00000gn/T//ccY40Ifq.s:1330   .text.I2C_GetITStatus:0000000000000000 $t
/var/folders/7z/kps_xzfj7sn5l5gkyq8s9db00000gn/T//ccY40Ifq.s:1336   .text.I2C_GetITStatus:0000000000000000 I2C_GetITStatus
/var/folders/7z/kps_xzfj7sn5l5gkyq8s9db00000gn/T//ccY40Ifq.s:1374   .text.I2C_ClearITPendingBit:0000000000000000 $t
/var/folders/7z/kps_xzfj7sn5l5gkyq8s9db00000gn/T//ccY40Ifq.s:1380   .text.I2C_ClearITPendingBit:0000000000000000 I2C_ClearITPendingBit
                     .debug_frame:0000000000000010 $d
/var/folders/7z/kps_xzfj7sn5l5gkyq8s9db00000gn/T//ccY40Ifq.s:119    .text.I2C_DeInit:000000000000006c $t
/var/folders/7z/kps_xzfj7sn5l5gkyq8s9db00000gn/T//ccY40Ifq.s:317    .text.I2C_Init:00000000000000e8 $t

UNDEFINED SYMBOLS
RCC_APB1PeriphResetCmd
RCC_GetClocksFreq
