ARM GAS  /var/folders/7z/kps_xzfj7sn5l5gkyq8s9db00000gn/T//ccc38Eju.s 			page 1


   1              		.syntax unified
   2              		.cpu cortex-m4
   3              		.eabi_attribute 27, 1
   4              		.eabi_attribute 28, 1
   5              		.fpu fpv4-sp-d16
   6              		.eabi_attribute 20, 1
   7              		.eabi_attribute 21, 1
   8              		.eabi_attribute 23, 3
   9              		.eabi_attribute 24, 1
  10              		.eabi_attribute 25, 1
  11              		.eabi_attribute 26, 1
  12              		.eabi_attribute 30, 2
  13              		.eabi_attribute 34, 1
  14              		.eabi_attribute 18, 4
  15              		.thumb
  16              		.file	"stm32f4xx_tim.c"
  17              		.text
  18              	.Ltext0:
  19              		.cfi_sections	.debug_frame
  20              		.section	.text.TIM_DeInit,"ax",%progbits
  21              		.align	2
  22              		.p2align 4,,15
  23              		.global	TIM_DeInit
  24              		.thumb
  25              		.thumb_func
  26              		.type	TIM_DeInit, %function
  27              	TIM_DeInit:
  28              	.LFB111:
  29              		.file 1 "lib/ChibiOS_2.6.6/ext/stdperiph_stm32f4/src/stm32f4xx_tim.c"
  30              		.loc 1 201 0
  31              		.cfi_startproc
  32              		@ args = 0, pretend = 0, frame = 0
  33              		@ frame_needed = 0, uses_anonymous_args = 0
  34              	.LVL0:
  35 0000 08B5     		push	{r3, lr}
  36              		.cfi_def_cfa_offset 8
  37              		.cfi_offset 3, -8
  38              		.cfi_offset 14, -4
  39              		.loc 1 205 0
  40 0002 604B     		ldr	r3, .L32
  41 0004 9842     		cmp	r0, r3
  42 0006 35D0     		beq	.L18
  43              		.loc 1 210 0
  44 0008 B0F1804F 		cmp	r0, #1073741824
  45 000c 3CD0     		beq	.L19
  46              		.loc 1 215 0
  47 000e 5E4B     		ldr	r3, .L32+4
  48 0010 9842     		cmp	r0, r3
  49 0012 43D0     		beq	.L20
  50              		.loc 1 220 0
  51 0014 5D4B     		ldr	r3, .L32+8
  52 0016 9842     		cmp	r0, r3
  53 0018 4AD0     		beq	.L21
  54              		.loc 1 225 0
  55 001a 5D4B     		ldr	r3, .L32+12
  56 001c 9842     		cmp	r0, r3
  57 001e 51D0     		beq	.L22
ARM GAS  /var/folders/7z/kps_xzfj7sn5l5gkyq8s9db00000gn/T//ccc38Eju.s 			page 2


  58              		.loc 1 230 0
  59 0020 5C4B     		ldr	r3, .L32+16
  60 0022 9842     		cmp	r0, r3
  61 0024 58D0     		beq	.L23
  62              		.loc 1 235 0
  63 0026 5C4B     		ldr	r3, .L32+20
  64 0028 9842     		cmp	r0, r3
  65 002a 5FD0     		beq	.L24
  66              		.loc 1 240 0
  67 002c 5B4B     		ldr	r3, .L32+24
  68 002e 9842     		cmp	r0, r3
  69 0030 66D0     		beq	.L25
  70              		.loc 1 245 0
  71 0032 5B4B     		ldr	r3, .L32+28
  72 0034 9842     		cmp	r0, r3
  73 0036 6DD0     		beq	.L26
  74              		.loc 1 250 0
  75 0038 5A4B     		ldr	r3, .L32+32
  76 003a 9842     		cmp	r0, r3
  77 003c 76D0     		beq	.L27
  78              		.loc 1 255 0
  79 003e 5A4B     		ldr	r3, .L32+36
  80 0040 9842     		cmp	r0, r3
  81 0042 7FD0     		beq	.L28
  82              		.loc 1 260 0
  83 0044 594B     		ldr	r3, .L32+40
  84 0046 9842     		cmp	r0, r3
  85 0048 00F08880 		beq	.L29
  86              		.loc 1 265 0
  87 004c 584B     		ldr	r3, .L32+44
  88 004e 9842     		cmp	r0, r3
  89 0050 00F08E80 		beq	.L30
  90              		.loc 1 272 0
  91 0054 574B     		ldr	r3, .L32+48
  92 0056 9842     		cmp	r0, r3
  93 0058 00D0     		beq	.L31
  94 005a 08BD     		pop	{r3, pc}
  95              	.L31:
  96              		.loc 1 274 0
  97 005c 4FF48070 		mov	r0, #256
  98              	.LVL1:
  99 0060 0121     		movs	r1, #1
 100 0062 FFF7FEFF 		bl	RCC_APB1PeriphResetCmd
 101              	.LVL2:
 102              		.loc 1 275 0
 103 0066 4FF48070 		mov	r0, #256
 104 006a 0021     		movs	r1, #0
 105              		.loc 1 278 0
 106 006c BDE80840 		pop	{r3, lr}
 107              		.cfi_remember_state
 108              		.cfi_restore 14
 109              		.cfi_restore 3
 110              		.cfi_def_cfa_offset 0
 111              		.loc 1 275 0
 112 0070 FFF7FEBF 		b	RCC_APB1PeriphResetCmd
 113              	.LVL3:
 114              	.L18:
ARM GAS  /var/folders/7z/kps_xzfj7sn5l5gkyq8s9db00000gn/T//ccc38Eju.s 			page 3


 115              		.cfi_restore_state
 116              		.loc 1 207 0
 117 0074 0120     		movs	r0, #1
 118              	.LVL4:
 119 0076 0146     		mov	r1, r0
 120 0078 FFF7FEFF 		bl	RCC_APB2PeriphResetCmd
 121              	.LVL5:
 122              		.loc 1 208 0
 123 007c 0120     		movs	r0, #1
 124 007e 0021     		movs	r1, #0
 125              		.loc 1 278 0
 126 0080 BDE80840 		pop	{r3, lr}
 127              		.cfi_remember_state
 128              		.cfi_restore 14
 129              		.cfi_restore 3
 130              		.cfi_def_cfa_offset 0
 131              		.loc 1 208 0
 132 0084 FFF7FEBF 		b	RCC_APB2PeriphResetCmd
 133              	.LVL6:
 134              	.L19:
 135              		.cfi_restore_state
 136              		.loc 1 212 0
 137 0088 0120     		movs	r0, #1
 138              	.LVL7:
 139 008a 0146     		mov	r1, r0
 140 008c FFF7FEFF 		bl	RCC_APB1PeriphResetCmd
 141              	.LVL8:
 142              		.loc 1 213 0
 143 0090 0120     		movs	r0, #1
 144 0092 0021     		movs	r1, #0
 145              		.loc 1 278 0
 146 0094 BDE80840 		pop	{r3, lr}
 147              		.cfi_remember_state
 148              		.cfi_restore 14
 149              		.cfi_restore 3
 150              		.cfi_def_cfa_offset 0
 151              		.loc 1 213 0
 152 0098 FFF7FEBF 		b	RCC_APB1PeriphResetCmd
 153              	.LVL9:
 154              	.L20:
 155              		.cfi_restore_state
 156              		.loc 1 217 0
 157 009c 0220     		movs	r0, #2
 158              	.LVL10:
 159 009e 0121     		movs	r1, #1
 160 00a0 FFF7FEFF 		bl	RCC_APB1PeriphResetCmd
 161              	.LVL11:
 162              		.loc 1 218 0
 163 00a4 0220     		movs	r0, #2
 164 00a6 0021     		movs	r1, #0
 165              		.loc 1 278 0
 166 00a8 BDE80840 		pop	{r3, lr}
 167              		.cfi_remember_state
 168              		.cfi_restore 14
 169              		.cfi_restore 3
 170              		.cfi_def_cfa_offset 0
 171              		.loc 1 218 0
ARM GAS  /var/folders/7z/kps_xzfj7sn5l5gkyq8s9db00000gn/T//ccc38Eju.s 			page 4


 172 00ac FFF7FEBF 		b	RCC_APB1PeriphResetCmd
 173              	.LVL12:
 174              	.L21:
 175              		.cfi_restore_state
 176              		.loc 1 222 0
 177 00b0 0420     		movs	r0, #4
 178              	.LVL13:
 179 00b2 0121     		movs	r1, #1
 180 00b4 FFF7FEFF 		bl	RCC_APB1PeriphResetCmd
 181              	.LVL14:
 182              		.loc 1 223 0
 183 00b8 0420     		movs	r0, #4
 184 00ba 0021     		movs	r1, #0
 185              		.loc 1 278 0
 186 00bc BDE80840 		pop	{r3, lr}
 187              		.cfi_remember_state
 188              		.cfi_restore 14
 189              		.cfi_restore 3
 190              		.cfi_def_cfa_offset 0
 191              		.loc 1 223 0
 192 00c0 FFF7FEBF 		b	RCC_APB1PeriphResetCmd
 193              	.LVL15:
 194              	.L22:
 195              		.cfi_restore_state
 196              		.loc 1 227 0
 197 00c4 0820     		movs	r0, #8
 198              	.LVL16:
 199 00c6 0121     		movs	r1, #1
 200 00c8 FFF7FEFF 		bl	RCC_APB1PeriphResetCmd
 201              	.LVL17:
 202              		.loc 1 228 0
 203 00cc 0820     		movs	r0, #8
 204 00ce 0021     		movs	r1, #0
 205              		.loc 1 278 0
 206 00d0 BDE80840 		pop	{r3, lr}
 207              		.cfi_remember_state
 208              		.cfi_restore 14
 209              		.cfi_restore 3
 210              		.cfi_def_cfa_offset 0
 211              		.loc 1 228 0
 212 00d4 FFF7FEBF 		b	RCC_APB1PeriphResetCmd
 213              	.LVL18:
 214              	.L23:
 215              		.cfi_restore_state
 216              		.loc 1 232 0
 217 00d8 1020     		movs	r0, #16
 218              	.LVL19:
 219 00da 0121     		movs	r1, #1
 220 00dc FFF7FEFF 		bl	RCC_APB1PeriphResetCmd
 221              	.LVL20:
 222              		.loc 1 233 0
 223 00e0 1020     		movs	r0, #16
 224 00e2 0021     		movs	r1, #0
 225              		.loc 1 278 0
 226 00e4 BDE80840 		pop	{r3, lr}
 227              		.cfi_remember_state
 228              		.cfi_restore 14
ARM GAS  /var/folders/7z/kps_xzfj7sn5l5gkyq8s9db00000gn/T//ccc38Eju.s 			page 5


 229              		.cfi_restore 3
 230              		.cfi_def_cfa_offset 0
 231              		.loc 1 233 0
 232 00e8 FFF7FEBF 		b	RCC_APB1PeriphResetCmd
 233              	.LVL21:
 234              	.L24:
 235              		.cfi_restore_state
 236              		.loc 1 237 0
 237 00ec 2020     		movs	r0, #32
 238              	.LVL22:
 239 00ee 0121     		movs	r1, #1
 240 00f0 FFF7FEFF 		bl	RCC_APB1PeriphResetCmd
 241              	.LVL23:
 242              		.loc 1 238 0
 243 00f4 2020     		movs	r0, #32
 244 00f6 0021     		movs	r1, #0
 245              		.loc 1 278 0
 246 00f8 BDE80840 		pop	{r3, lr}
 247              		.cfi_remember_state
 248              		.cfi_restore 14
 249              		.cfi_restore 3
 250              		.cfi_def_cfa_offset 0
 251              		.loc 1 238 0
 252 00fc FFF7FEBF 		b	RCC_APB1PeriphResetCmd
 253              	.LVL24:
 254              	.L25:
 255              		.cfi_restore_state
 256              		.loc 1 242 0
 257 0100 0220     		movs	r0, #2
 258              	.LVL25:
 259 0102 0121     		movs	r1, #1
 260 0104 FFF7FEFF 		bl	RCC_APB2PeriphResetCmd
 261              	.LVL26:
 262              		.loc 1 243 0
 263 0108 0220     		movs	r0, #2
 264 010a 0021     		movs	r1, #0
 265              		.loc 1 278 0
 266 010c BDE80840 		pop	{r3, lr}
 267              		.cfi_remember_state
 268              		.cfi_restore 14
 269              		.cfi_restore 3
 270              		.cfi_def_cfa_offset 0
 271              		.loc 1 243 0
 272 0110 FFF7FEBF 		b	RCC_APB2PeriphResetCmd
 273              	.LVL27:
 274              	.L26:
 275              		.cfi_restore_state
 276              		.loc 1 247 0
 277 0114 4FF48030 		mov	r0, #65536
 278              	.LVL28:
 279 0118 0121     		movs	r1, #1
 280 011a FFF7FEFF 		bl	RCC_APB2PeriphResetCmd
 281              	.LVL29:
 282              		.loc 1 248 0
 283 011e 4FF48030 		mov	r0, #65536
 284 0122 0021     		movs	r1, #0
 285              		.loc 1 278 0
ARM GAS  /var/folders/7z/kps_xzfj7sn5l5gkyq8s9db00000gn/T//ccc38Eju.s 			page 6


 286 0124 BDE80840 		pop	{r3, lr}
 287              		.cfi_remember_state
 288              		.cfi_restore 14
 289              		.cfi_restore 3
 290              		.cfi_def_cfa_offset 0
 291              		.loc 1 248 0
 292 0128 FFF7FEBF 		b	RCC_APB2PeriphResetCmd
 293              	.LVL30:
 294              	.L27:
 295              		.cfi_restore_state
 296              		.loc 1 252 0
 297 012c 4FF40030 		mov	r0, #131072
 298              	.LVL31:
 299 0130 0121     		movs	r1, #1
 300 0132 FFF7FEFF 		bl	RCC_APB2PeriphResetCmd
 301              	.LVL32:
 302              		.loc 1 253 0
 303 0136 4FF40030 		mov	r0, #131072
 304 013a 0021     		movs	r1, #0
 305              		.loc 1 278 0
 306 013c BDE80840 		pop	{r3, lr}
 307              		.cfi_remember_state
 308              		.cfi_restore 14
 309              		.cfi_restore 3
 310              		.cfi_def_cfa_offset 0
 311              		.loc 1 253 0
 312 0140 FFF7FEBF 		b	RCC_APB2PeriphResetCmd
 313              	.LVL33:
 314              	.L28:
 315              		.cfi_restore_state
 316              		.loc 1 257 0
 317 0144 4FF48020 		mov	r0, #262144
 318              	.LVL34:
 319 0148 0121     		movs	r1, #1
 320 014a FFF7FEFF 		bl	RCC_APB2PeriphResetCmd
 321              	.LVL35:
 322              		.loc 1 258 0
 323 014e 4FF48020 		mov	r0, #262144
 324 0152 0021     		movs	r1, #0
 325              		.loc 1 278 0
 326 0154 BDE80840 		pop	{r3, lr}
 327              		.cfi_remember_state
 328              		.cfi_restore 14
 329              		.cfi_restore 3
 330              		.cfi_def_cfa_offset 0
 331              		.loc 1 258 0
 332 0158 FFF7FEBF 		b	RCC_APB2PeriphResetCmd
 333              	.LVL36:
 334              	.L29:
 335              		.cfi_restore_state
 336              		.loc 1 262 0
 337 015c 4020     		movs	r0, #64
 338              	.LVL37:
 339 015e 0121     		movs	r1, #1
 340 0160 FFF7FEFF 		bl	RCC_APB1PeriphResetCmd
 341              	.LVL38:
 342              		.loc 1 263 0
ARM GAS  /var/folders/7z/kps_xzfj7sn5l5gkyq8s9db00000gn/T//ccc38Eju.s 			page 7


 343 0164 4020     		movs	r0, #64
 344 0166 0021     		movs	r1, #0
 345              		.loc 1 278 0
 346 0168 BDE80840 		pop	{r3, lr}
 347              		.cfi_remember_state
 348              		.cfi_restore 14
 349              		.cfi_restore 3
 350              		.cfi_def_cfa_offset 0
 351              		.loc 1 263 0
 352 016c FFF7FEBF 		b	RCC_APB1PeriphResetCmd
 353              	.LVL39:
 354              	.L30:
 355              		.cfi_restore_state
 356              		.loc 1 267 0
 357 0170 8020     		movs	r0, #128
 358              	.LVL40:
 359 0172 0121     		movs	r1, #1
 360 0174 FFF7FEFF 		bl	RCC_APB1PeriphResetCmd
 361              	.LVL41:
 362              		.loc 1 268 0
 363 0178 8020     		movs	r0, #128
 364 017a 0021     		movs	r1, #0
 365              		.loc 1 278 0
 366 017c BDE80840 		pop	{r3, lr}
 367              		.cfi_restore 14
 368              		.cfi_restore 3
 369              		.cfi_def_cfa_offset 0
 370              		.loc 1 268 0
 371 0180 FFF7FEBF 		b	RCC_APB1PeriphResetCmd
 372              	.LVL42:
 373              	.L33:
 374              		.align	2
 375              	.L32:
 376 0184 00000140 		.word	1073807360
 377 0188 00040040 		.word	1073742848
 378 018c 00080040 		.word	1073743872
 379 0190 000C0040 		.word	1073744896
 380 0194 00100040 		.word	1073745920
 381 0198 00140040 		.word	1073746944
 382 019c 00040140 		.word	1073808384
 383 01a0 00400140 		.word	1073823744
 384 01a4 00440140 		.word	1073824768
 385 01a8 00480140 		.word	1073825792
 386 01ac 00180040 		.word	1073747968
 387 01b0 001C0040 		.word	1073748992
 388 01b4 00200040 		.word	1073750016
 389              		.cfi_endproc
 390              	.LFE111:
 391              		.size	TIM_DeInit, .-TIM_DeInit
 392 01b8 AFF30080 		.section	.text.TIM_TimeBaseInit,"ax",%progbits
 392      AFF30080 
 393              		.align	2
 394              		.p2align 4,,15
 395              		.global	TIM_TimeBaseInit
 396              		.thumb
 397              		.thumb_func
 398              		.type	TIM_TimeBaseInit, %function
ARM GAS  /var/folders/7z/kps_xzfj7sn5l5gkyq8s9db00000gn/T//ccc38Eju.s 			page 8


 399              	TIM_TimeBaseInit:
 400              	.LFB112:
 401              		.loc 1 289 0
 402              		.cfi_startproc
 403              		@ args = 0, pretend = 0, frame = 0
 404              		@ frame_needed = 0, uses_anonymous_args = 0
 405              		@ link register save eliminated.
 406              	.LVL43:
 407              		.loc 1 299 0
 408 0000 224A     		ldr	r2, .L48
 409              		.loc 1 297 0
 410 0002 0388     		ldrh	r3, [r0]
 411              		.loc 1 299 0
 412 0004 9042     		cmp	r0, r2
 413              		.loc 1 297 0
 414 0006 9BB2     		uxth	r3, r3
 415              	.LVL44:
 416              		.loc 1 299 0
 417 0008 12D0     		beq	.L35
 418              		.loc 1 299 0 is_stmt 0 discriminator 1
 419 000a 02F58062 		add	r2, r2, #1024
 420 000e 9042     		cmp	r0, r2
 421 0010 0ED0     		beq	.L35
 422              		.loc 1 299 0 discriminator 2
 423 0012 B0F1804F 		cmp	r0, #1073741824
 424 0016 0BD0     		beq	.L35
 425              		.loc 1 300 0 is_stmt 1
 426 0018 A2F58032 		sub	r2, r2, #65536
 427 001c 9042     		cmp	r0, r2
 428 001e 07D0     		beq	.L35
 429              		.loc 1 300 0 is_stmt 0 discriminator 1
 430 0020 02F58062 		add	r2, r2, #1024
 431 0024 9042     		cmp	r0, r2
 432 0026 03D0     		beq	.L35
 433              		.loc 1 301 0 is_stmt 1
 434 0028 02F58062 		add	r2, r2, #1024
 435 002c 9042     		cmp	r0, r2
 436 002e 03D1     		bne	.L36
 437              	.L35:
 438              		.loc 1 305 0
 439 0030 4A88     		ldrh	r2, [r1, #2]
 440              		.loc 1 304 0
 441 0032 23F07003 		bic	r3, r3, #112
 442              	.LVL45:
 443              		.loc 1 305 0
 444 0036 1343     		orrs	r3, r3, r2
 445              	.LVL46:
 446              	.L36:
 447              		.loc 1 308 0
 448 0038 154A     		ldr	r2, .L48+4
 449 003a 9042     		cmp	r0, r2
 450 003c 1ED0     		beq	.L37
 451              		.loc 1 308 0 is_stmt 0 discriminator 1
 452 003e 02F58062 		add	r2, r2, #1024
 453 0042 9042     		cmp	r0, r2
 454 0044 1AD0     		beq	.L37
 455              		.loc 1 312 0 is_stmt 1
ARM GAS  /var/folders/7z/kps_xzfj7sn5l5gkyq8s9db00000gn/T//ccc38Eju.s 			page 9


 456 0046 0A89     		ldrh	r2, [r1, #8]
 457              		.loc 1 289 0
 458 0048 70B4     		push	{r4, r5, r6}
 459              		.cfi_def_cfa_offset 12
 460              		.cfi_offset 4, -12
 461              		.cfi_offset 5, -8
 462              		.cfi_offset 6, -4
 463              		.loc 1 311 0
 464 004a 23F44073 		bic	r3, r3, #768
 465              	.LVL47:
 466              		.loc 1 323 0
 467 004e 0F4C     		ldr	r4, .L48
 468              		.loc 1 318 0
 469 0050 4E68     		ldr	r6, [r1, #4]
 470              		.loc 1 321 0
 471 0052 0D88     		ldrh	r5, [r1]
 472              		.loc 1 311 0
 473 0054 9BB2     		uxth	r3, r3
 474              	.LVL48:
 475              		.loc 1 312 0
 476 0056 1343     		orrs	r3, r3, r2
 477              	.LVL49:
 478              		.loc 1 323 0
 479 0058 A042     		cmp	r0, r4
 480              		.loc 1 315 0
 481 005a 0380     		strh	r3, [r0]	@ movhi
 482              		.loc 1 318 0
 483 005c C662     		str	r6, [r0, #44]
 484              		.loc 1 321 0
 485 005e 0585     		strh	r5, [r0, #40]	@ movhi
 486              		.loc 1 323 0
 487 0060 06D0     		beq	.L41
 488              	.LVL50:
 489              		.loc 1 323 0 is_stmt 0 discriminator 1
 490 0062 0C4B     		ldr	r3, .L48+8
 491 0064 9842     		cmp	r0, r3
 492 0066 03D0     		beq	.L41
 493              		.loc 1 331 0 is_stmt 1
 494 0068 0123     		movs	r3, #1
 495 006a 8382     		strh	r3, [r0, #20]	@ movhi
 496              		.loc 1 332 0
 497 006c 70BC     		pop	{r4, r5, r6}
 498              		.cfi_remember_state
 499              		.cfi_restore 6
 500              		.cfi_restore 5
 501              		.cfi_restore 4
 502              		.cfi_def_cfa_offset 0
 503 006e 7047     		bx	lr
 504              	.L41:
 505              		.cfi_restore_state
 506              		.loc 1 326 0
 507 0070 8B7A     		ldrb	r3, [r1, #10]	@ zero_extendqisi2
 508 0072 0386     		strh	r3, [r0, #48]	@ movhi
 509              		.loc 1 331 0
 510 0074 0123     		movs	r3, #1
 511 0076 8382     		strh	r3, [r0, #20]	@ movhi
 512              		.loc 1 332 0
ARM GAS  /var/folders/7z/kps_xzfj7sn5l5gkyq8s9db00000gn/T//ccc38Eju.s 			page 10


 513 0078 70BC     		pop	{r4, r5, r6}
 514              		.cfi_restore 4
 515              		.cfi_restore 5
 516              		.cfi_restore 6
 517              		.cfi_def_cfa_offset 0
 518 007a 7047     		bx	lr
 519              	.LVL51:
 520              	.L37:
 521              		.loc 1 315 0
 522 007c 0380     		strh	r3, [r0]	@ movhi
 523              		.loc 1 321 0
 524 007e 0B88     		ldrh	r3, [r1]
 525              	.LVL52:
 526              		.loc 1 318 0
 527 0080 4A68     		ldr	r2, [r1, #4]
 528 0082 C262     		str	r2, [r0, #44]
 529              	.LVL53:
 530              		.loc 1 321 0
 531 0084 0385     		strh	r3, [r0, #40]	@ movhi
 532              		.loc 1 331 0
 533 0086 0123     		movs	r3, #1
 534 0088 8382     		strh	r3, [r0, #20]	@ movhi
 535 008a 7047     		bx	lr
 536              	.L49:
 537              		.align	2
 538              	.L48:
 539 008c 00000140 		.word	1073807360
 540 0090 00100040 		.word	1073745920
 541 0094 00040140 		.word	1073808384
 542              		.cfi_endproc
 543              	.LFE112:
 544              		.size	TIM_TimeBaseInit, .-TIM_TimeBaseInit
 545 0098 AFF30080 		.section	.text.TIM_TimeBaseStructInit,"ax",%progbits
 545      AFF30080 
 546              		.align	2
 547              		.p2align 4,,15
 548              		.global	TIM_TimeBaseStructInit
 549              		.thumb
 550              		.thumb_func
 551              		.type	TIM_TimeBaseStructInit, %function
 552              	TIM_TimeBaseStructInit:
 553              	.LFB113:
 554              		.loc 1 341 0
 555              		.cfi_startproc
 556              		@ args = 0, pretend = 0, frame = 0
 557              		@ frame_needed = 0, uses_anonymous_args = 0
 558              		@ link register save eliminated.
 559              	.LVL54:
 560              		.loc 1 344 0
 561 0000 0023     		movs	r3, #0
 562              		.loc 1 343 0
 563 0002 4FF0FF32 		mov	r2, #-1
 564 0006 4260     		str	r2, [r0, #4]
 565              		.loc 1 344 0
 566 0008 0380     		strh	r3, [r0]	@ movhi
 567              		.loc 1 345 0
 568 000a 0381     		strh	r3, [r0, #8]	@ movhi
ARM GAS  /var/folders/7z/kps_xzfj7sn5l5gkyq8s9db00000gn/T//ccc38Eju.s 			page 11


 569              		.loc 1 346 0
 570 000c 4380     		strh	r3, [r0, #2]	@ movhi
 571              		.loc 1 347 0
 572 000e 8372     		strb	r3, [r0, #10]
 573 0010 7047     		bx	lr
 574              		.cfi_endproc
 575              	.LFE113:
 576              		.size	TIM_TimeBaseStructInit, .-TIM_TimeBaseStructInit
 577 0012 00BFAFF3 		.section	.text.TIM_PrescalerConfig,"ax",%progbits
 577      0080AFF3 
 577      0080AFF3 
 577      0080
 578              		.align	2
 579              		.p2align 4,,15
 580              		.global	TIM_PrescalerConfig
 581              		.thumb
 582              		.thumb_func
 583              		.type	TIM_PrescalerConfig, %function
 584              	TIM_PrescalerConfig:
 585              	.LFB114:
 586              		.loc 1 361 0
 587              		.cfi_startproc
 588              		@ args = 0, pretend = 0, frame = 0
 589              		@ frame_needed = 0, uses_anonymous_args = 0
 590              		@ link register save eliminated.
 591              	.LVL55:
 592              		.loc 1 366 0
 593 0000 0185     		strh	r1, [r0, #40]	@ movhi
 594              		.loc 1 368 0
 595 0002 8282     		strh	r2, [r0, #20]	@ movhi
 596 0004 7047     		bx	lr
 597              		.cfi_endproc
 598              	.LFE114:
 599              		.size	TIM_PrescalerConfig, .-TIM_PrescalerConfig
 600 0006 00BFAFF3 		.section	.text.TIM_CounterModeConfig,"ax",%progbits
 600      0080AFF3 
 600      0080
 601              		.align	2
 602              		.p2align 4,,15
 603              		.global	TIM_CounterModeConfig
 604              		.thumb
 605              		.thumb_func
 606              		.type	TIM_CounterModeConfig, %function
 607              	TIM_CounterModeConfig:
 608              	.LFB115:
 609              		.loc 1 384 0
 610              		.cfi_startproc
 611              		@ args = 0, pretend = 0, frame = 0
 612              		@ frame_needed = 0, uses_anonymous_args = 0
 613              		@ link register save eliminated.
 614              	.LVL56:
 615              		.loc 1 391 0
 616 0000 0388     		ldrh	r3, [r0]
 617              	.LVL57:
 618              		.loc 1 394 0
 619 0002 23F07003 		bic	r3, r3, #112
 620              	.LVL58:
ARM GAS  /var/folders/7z/kps_xzfj7sn5l5gkyq8s9db00000gn/T//ccc38Eju.s 			page 12


 621 0006 1B04     		lsls	r3, r3, #16
 622 0008 1B0C     		lsrs	r3, r3, #16
 623              	.LVL59:
 624              		.loc 1 397 0
 625 000a 1943     		orrs	r1, r1, r3
 626              	.LVL60:
 627              		.loc 1 400 0
 628 000c 0180     		strh	r1, [r0]	@ movhi
 629 000e 7047     		bx	lr
 630              		.cfi_endproc
 631              	.LFE115:
 632              		.size	TIM_CounterModeConfig, .-TIM_CounterModeConfig
 633              		.section	.text.TIM_SetCounter,"ax",%progbits
 634              		.align	2
 635              		.p2align 4,,15
 636              		.global	TIM_SetCounter
 637              		.thumb
 638              		.thumb_func
 639              		.type	TIM_SetCounter, %function
 640              	TIM_SetCounter:
 641              	.LFB116:
 642              		.loc 1 410 0
 643              		.cfi_startproc
 644              		@ args = 0, pretend = 0, frame = 0
 645              		@ frame_needed = 0, uses_anonymous_args = 0
 646              		@ link register save eliminated.
 647              	.LVL61:
 648              		.loc 1 415 0
 649 0000 4162     		str	r1, [r0, #36]
 650 0002 7047     		bx	lr
 651              		.cfi_endproc
 652              	.LFE116:
 653              		.size	TIM_SetCounter, .-TIM_SetCounter
 654 0004 AFF30080 		.section	.text.TIM_SetAutoreload,"ax",%progbits
 654      AFF30080 
 654      AFF30080 
 655              		.align	2
 656              		.p2align 4,,15
 657              		.global	TIM_SetAutoreload
 658              		.thumb
 659              		.thumb_func
 660              		.type	TIM_SetAutoreload, %function
 661              	TIM_SetAutoreload:
 662              	.LFB117:
 663              		.loc 1 425 0
 664              		.cfi_startproc
 665              		@ args = 0, pretend = 0, frame = 0
 666              		@ frame_needed = 0, uses_anonymous_args = 0
 667              		@ link register save eliminated.
 668              	.LVL62:
 669              		.loc 1 430 0
 670 0000 C162     		str	r1, [r0, #44]
 671 0002 7047     		bx	lr
 672              		.cfi_endproc
 673              	.LFE117:
 674              		.size	TIM_SetAutoreload, .-TIM_SetAutoreload
 675 0004 AFF30080 		.section	.text.TIM_GetCounter,"ax",%progbits
ARM GAS  /var/folders/7z/kps_xzfj7sn5l5gkyq8s9db00000gn/T//ccc38Eju.s 			page 13


 675      AFF30080 
 675      AFF30080 
 676              		.align	2
 677              		.p2align 4,,15
 678              		.global	TIM_GetCounter
 679              		.thumb
 680              		.thumb_func
 681              		.type	TIM_GetCounter, %function
 682              	TIM_GetCounter:
 683              	.LFB118:
 684              		.loc 1 439 0
 685              		.cfi_startproc
 686              		@ args = 0, pretend = 0, frame = 0
 687              		@ frame_needed = 0, uses_anonymous_args = 0
 688              		@ link register save eliminated.
 689              	.LVL63:
 690              		.loc 1 444 0
 691 0000 406A     		ldr	r0, [r0, #36]
 692              	.LVL64:
 693              		.loc 1 445 0
 694 0002 7047     		bx	lr
 695              		.cfi_endproc
 696              	.LFE118:
 697              		.size	TIM_GetCounter, .-TIM_GetCounter
 698 0004 AFF30080 		.section	.text.TIM_GetPrescaler,"ax",%progbits
 698      AFF30080 
 698      AFF30080 
 699              		.align	2
 700              		.p2align 4,,15
 701              		.global	TIM_GetPrescaler
 702              		.thumb
 703              		.thumb_func
 704              		.type	TIM_GetPrescaler, %function
 705              	TIM_GetPrescaler:
 706              	.LFB119:
 707              		.loc 1 453 0
 708              		.cfi_startproc
 709              		@ args = 0, pretend = 0, frame = 0
 710              		@ frame_needed = 0, uses_anonymous_args = 0
 711              		@ link register save eliminated.
 712              	.LVL65:
 713              		.loc 1 458 0
 714 0000 008D     		ldrh	r0, [r0, #40]
 715              	.LVL66:
 716              		.loc 1 459 0
 717 0002 80B2     		uxth	r0, r0
 718 0004 7047     		bx	lr
 719              		.cfi_endproc
 720              	.LFE119:
 721              		.size	TIM_GetPrescaler, .-TIM_GetPrescaler
 722 0006 00BFAFF3 		.section	.text.TIM_UpdateDisableConfig,"ax",%progbits
 722      0080AFF3 
 722      0080
 723              		.align	2
 724              		.p2align 4,,15
 725              		.global	TIM_UpdateDisableConfig
 726              		.thumb
ARM GAS  /var/folders/7z/kps_xzfj7sn5l5gkyq8s9db00000gn/T//ccc38Eju.s 			page 14


 727              		.thumb_func
 728              		.type	TIM_UpdateDisableConfig, %function
 729              	TIM_UpdateDisableConfig:
 730              	.LFB120:
 731              		.loc 1 469 0
 732              		.cfi_startproc
 733              		@ args = 0, pretend = 0, frame = 0
 734              		@ frame_needed = 0, uses_anonymous_args = 0
 735              		@ link register save eliminated.
 736              	.LVL67:
 737              		.loc 1 477 0
 738 0000 0388     		ldrh	r3, [r0]
 739              		.loc 1 474 0
 740 0002 29B9     		cbnz	r1, .L60
 741              		.loc 1 482 0
 742 0004 23F00203 		bic	r3, r3, #2
 743 0008 1B04     		lsls	r3, r3, #16
 744 000a 1B0C     		lsrs	r3, r3, #16
 745 000c 0380     		strh	r3, [r0]	@ movhi
 746 000e 7047     		bx	lr
 747              	.L60:
 748              		.loc 1 477 0
 749 0010 9BB2     		uxth	r3, r3
 750 0012 43F00203 		orr	r3, r3, #2
 751 0016 0380     		strh	r3, [r0]	@ movhi
 752 0018 7047     		bx	lr
 753              		.cfi_endproc
 754              	.LFE120:
 755              		.size	TIM_UpdateDisableConfig, .-TIM_UpdateDisableConfig
 756 001a 00BFAFF3 		.section	.text.TIM_UpdateRequestConfig,"ax",%progbits
 756      0080
 757              		.align	2
 758              		.p2align 4,,15
 759              		.global	TIM_UpdateRequestConfig
 760              		.thumb
 761              		.thumb_func
 762              		.type	TIM_UpdateRequestConfig, %function
 763              	TIM_UpdateRequestConfig:
 764              	.LFB121:
 765              		.loc 1 498 0
 766              		.cfi_startproc
 767              		@ args = 0, pretend = 0, frame = 0
 768              		@ frame_needed = 0, uses_anonymous_args = 0
 769              		@ link register save eliminated.
 770              	.LVL68:
 771              		.loc 1 506 0
 772 0000 0388     		ldrh	r3, [r0]
 773              		.loc 1 503 0
 774 0002 29B9     		cbnz	r1, .L64
 775              		.loc 1 511 0
 776 0004 23F00403 		bic	r3, r3, #4
 777 0008 1B04     		lsls	r3, r3, #16
 778 000a 1B0C     		lsrs	r3, r3, #16
 779 000c 0380     		strh	r3, [r0]	@ movhi
 780 000e 7047     		bx	lr
 781              	.L64:
 782              		.loc 1 506 0
ARM GAS  /var/folders/7z/kps_xzfj7sn5l5gkyq8s9db00000gn/T//ccc38Eju.s 			page 15


 783 0010 9BB2     		uxth	r3, r3
 784 0012 43F00403 		orr	r3, r3, #4
 785 0016 0380     		strh	r3, [r0]	@ movhi
 786 0018 7047     		bx	lr
 787              		.cfi_endproc
 788              	.LFE121:
 789              		.size	TIM_UpdateRequestConfig, .-TIM_UpdateRequestConfig
 790 001a 00BFAFF3 		.section	.text.TIM_ARRPreloadConfig,"ax",%progbits
 790      0080
 791              		.align	2
 792              		.p2align 4,,15
 793              		.global	TIM_ARRPreloadConfig
 794              		.thumb
 795              		.thumb_func
 796              		.type	TIM_ARRPreloadConfig, %function
 797              	TIM_ARRPreloadConfig:
 798              	.LFB122:
 799              		.loc 1 523 0
 800              		.cfi_startproc
 801              		@ args = 0, pretend = 0, frame = 0
 802              		@ frame_needed = 0, uses_anonymous_args = 0
 803              		@ link register save eliminated.
 804              	.LVL69:
 805              		.loc 1 531 0
 806 0000 0388     		ldrh	r3, [r0]
 807              		.loc 1 528 0
 808 0002 29B9     		cbnz	r1, .L68
 809              		.loc 1 536 0
 810 0004 23F08003 		bic	r3, r3, #128
 811 0008 1B04     		lsls	r3, r3, #16
 812 000a 1B0C     		lsrs	r3, r3, #16
 813 000c 0380     		strh	r3, [r0]	@ movhi
 814 000e 7047     		bx	lr
 815              	.L68:
 816              		.loc 1 531 0
 817 0010 9BB2     		uxth	r3, r3
 818 0012 43F08003 		orr	r3, r3, #128
 819 0016 0380     		strh	r3, [r0]	@ movhi
 820 0018 7047     		bx	lr
 821              		.cfi_endproc
 822              	.LFE122:
 823              		.size	TIM_ARRPreloadConfig, .-TIM_ARRPreloadConfig
 824 001a 00BFAFF3 		.section	.text.TIM_SelectOnePulseMode,"ax",%progbits
 824      0080
 825              		.align	2
 826              		.p2align 4,,15
 827              		.global	TIM_SelectOnePulseMode
 828              		.thumb
 829              		.thumb_func
 830              		.type	TIM_SelectOnePulseMode, %function
 831              	TIM_SelectOnePulseMode:
 832              	.LFB123:
 833              		.loc 1 550 0
 834              		.cfi_startproc
 835              		@ args = 0, pretend = 0, frame = 0
 836              		@ frame_needed = 0, uses_anonymous_args = 0
 837              		@ link register save eliminated.
ARM GAS  /var/folders/7z/kps_xzfj7sn5l5gkyq8s9db00000gn/T//ccc38Eju.s 			page 16


 838              	.LVL70:
 839              		.loc 1 556 0
 840 0000 0388     		ldrh	r3, [r0]
 841 0002 23F00803 		bic	r3, r3, #8
 842 0006 1B04     		lsls	r3, r3, #16
 843 0008 1B0C     		lsrs	r3, r3, #16
 844 000a 0380     		strh	r3, [r0]	@ movhi
 845              		.loc 1 559 0
 846 000c 0388     		ldrh	r3, [r0]
 847 000e 9BB2     		uxth	r3, r3
 848 0010 1943     		orrs	r1, r1, r3
 849              	.LVL71:
 850 0012 0180     		strh	r1, [r0]	@ movhi
 851 0014 7047     		bx	lr
 852              		.cfi_endproc
 853              	.LFE123:
 854              		.size	TIM_SelectOnePulseMode, .-TIM_SelectOnePulseMode
 855 0016 00BFAFF3 		.section	.text.TIM_SetClockDivision,"ax",%progbits
 855      0080AFF3 
 855      0080
 856              		.align	2
 857              		.p2align 4,,15
 858              		.global	TIM_SetClockDivision
 859              		.thumb
 860              		.thumb_func
 861              		.type	TIM_SetClockDivision, %function
 862              	TIM_SetClockDivision:
 863              	.LFB124:
 864              		.loc 1 573 0
 865              		.cfi_startproc
 866              		@ args = 0, pretend = 0, frame = 0
 867              		@ frame_needed = 0, uses_anonymous_args = 0
 868              		@ link register save eliminated.
 869              	.LVL72:
 870              		.loc 1 579 0
 871 0000 0388     		ldrh	r3, [r0]
 872 0002 23F44073 		bic	r3, r3, #768
 873 0006 1B04     		lsls	r3, r3, #16
 874 0008 1B0C     		lsrs	r3, r3, #16
 875 000a 0380     		strh	r3, [r0]	@ movhi
 876              		.loc 1 582 0
 877 000c 0388     		ldrh	r3, [r0]
 878 000e 9BB2     		uxth	r3, r3
 879 0010 1943     		orrs	r1, r1, r3
 880              	.LVL73:
 881 0012 0180     		strh	r1, [r0]	@ movhi
 882 0014 7047     		bx	lr
 883              		.cfi_endproc
 884              	.LFE124:
 885              		.size	TIM_SetClockDivision, .-TIM_SetClockDivision
 886 0016 00BFAFF3 		.section	.text.TIM_Cmd,"ax",%progbits
 886      0080AFF3 
 886      0080
 887              		.align	2
 888              		.p2align 4,,15
 889              		.global	TIM_Cmd
 890              		.thumb
ARM GAS  /var/folders/7z/kps_xzfj7sn5l5gkyq8s9db00000gn/T//ccc38Eju.s 			page 17


 891              		.thumb_func
 892              		.type	TIM_Cmd, %function
 893              	TIM_Cmd:
 894              	.LFB125:
 895              		.loc 1 593 0
 896              		.cfi_startproc
 897              		@ args = 0, pretend = 0, frame = 0
 898              		@ frame_needed = 0, uses_anonymous_args = 0
 899              		@ link register save eliminated.
 900              	.LVL74:
 901              		.loc 1 601 0
 902 0000 0388     		ldrh	r3, [r0]
 903              		.loc 1 598 0
 904 0002 29B9     		cbnz	r1, .L74
 905              		.loc 1 606 0
 906 0004 23F00103 		bic	r3, r3, #1
 907 0008 1B04     		lsls	r3, r3, #16
 908 000a 1B0C     		lsrs	r3, r3, #16
 909 000c 0380     		strh	r3, [r0]	@ movhi
 910 000e 7047     		bx	lr
 911              	.L74:
 912              		.loc 1 601 0
 913 0010 9BB2     		uxth	r3, r3
 914 0012 43F00103 		orr	r3, r3, #1
 915 0016 0380     		strh	r3, [r0]	@ movhi
 916 0018 7047     		bx	lr
 917              		.cfi_endproc
 918              	.LFE125:
 919              		.size	TIM_Cmd, .-TIM_Cmd
 920 001a 00BFAFF3 		.section	.text.TIM_OC1Init,"ax",%progbits
 920      0080
 921              		.align	2
 922              		.p2align 4,,15
 923              		.global	TIM_OC1Init
 924              		.thumb
 925              		.thumb_func
 926              		.type	TIM_OC1Init, %function
 927              	TIM_OC1Init:
 928              	.LFB126:
 929              		.loc 1 672 0
 930              		.cfi_startproc
 931              		@ args = 0, pretend = 0, frame = 0
 932              		@ frame_needed = 0, uses_anonymous_args = 0
 933              	.LVL75:
 934 0000 F0B5     		push	{r4, r5, r6, r7, lr}
 935              		.cfi_def_cfa_offset 20
 936              		.cfi_offset 4, -20
 937              		.cfi_offset 5, -16
 938              		.cfi_offset 6, -12
 939              		.cfi_offset 7, -8
 940              		.cfi_offset 14, -4
 941              		.loc 1 682 0
 942 0002 048C     		ldrh	r4, [r0, #32]
 943 0004 B1F802C0 		ldrh	ip, [r1, #2]
 944 0008 8B89     		ldrh	r3, [r1, #12]
 945              		.loc 1 696 0
 946 000a 0F88     		ldrh	r7, [r1]
ARM GAS  /var/folders/7z/kps_xzfj7sn5l5gkyq8s9db00000gn/T//ccc38Eju.s 			page 18


 947              		.loc 1 706 0
 948 000c 1B4E     		ldr	r6, .L79
 949              		.loc 1 682 0
 950 000e 24F00104 		bic	r4, r4, #1
 951 0012 2404     		lsls	r4, r4, #16
 952 0014 240C     		lsrs	r4, r4, #16
 953 0016 0484     		strh	r4, [r0, #32]	@ movhi
 954              		.loc 1 685 0
 955 0018 058C     		ldrh	r5, [r0, #32]
 956              	.LVL76:
 957              		.loc 1 687 0
 958 001a B0F804E0 		ldrh	lr, [r0, #4]
 959              		.loc 1 690 0
 960 001e 048B     		ldrh	r4, [r0, #24]
 961              		.loc 1 699 0
 962 0020 25F00205 		bic	r5, r5, #2
 963              	.LVL77:
 964              		.loc 1 694 0
 965 0024 24F07302 		bic	r2, r4, #115
 966              		.loc 1 699 0
 967 0028 2D04     		lsls	r5, r5, #16
 968 002a 2D0C     		lsrs	r5, r5, #16
 969 002c 4CEA0303 		orr	r3, ip, r3
 970              		.loc 1 694 0
 971 0030 1204     		lsls	r2, r2, #16
 972              		.loc 1 704 0
 973 0032 2B43     		orrs	r3, r3, r5
 974              		.loc 1 694 0
 975 0034 120C     		lsrs	r2, r2, #16
 976              		.loc 1 706 0
 977 0036 B042     		cmp	r0, r6
 978              		.loc 1 704 0
 979 0038 9BB2     		uxth	r3, r3
 980              		.loc 1 687 0
 981 003a 1FFA8EF4 		uxth	r4, lr
 982              	.LVL78:
 983              		.loc 1 696 0
 984 003e 42EA0702 		orr	r2, r2, r7
 985              	.LVL79:
 986              		.loc 1 706 0
 987 0042 08D0     		beq	.L76
 988              		.loc 1 706 0 is_stmt 0 discriminator 1
 989 0044 0E4D     		ldr	r5, .L79+4
 990 0046 A842     		cmp	r0, r5
 991 0048 05D0     		beq	.L76
 992              	.L77:
 993              		.loc 1 737 0 is_stmt 1
 994 004a 8968     		ldr	r1, [r1, #8]
 995              	.LVL80:
 996              		.loc 1 731 0
 997 004c 8480     		strh	r4, [r0, #4]	@ movhi
 998              		.loc 1 734 0
 999 004e 0283     		strh	r2, [r0, #24]	@ movhi
 1000              		.loc 1 737 0
 1001 0050 4163     		str	r1, [r0, #52]
 1002              		.loc 1 740 0
 1003 0052 0384     		strh	r3, [r0, #32]	@ movhi
ARM GAS  /var/folders/7z/kps_xzfj7sn5l5gkyq8s9db00000gn/T//ccc38Eju.s 			page 19


 1004 0054 F0BD     		pop	{r4, r5, r6, r7, pc}
 1005              	.LVL81:
 1006              	.L76:
 1007              		.loc 1 716 0
 1008 0056 CE89     		ldrh	r6, [r1, #14]
 1009 0058 B1F812E0 		ldrh	lr, [r1, #18]
 1010 005c 0D8A     		ldrh	r5, [r1, #16]
 1011              		.loc 1 721 0
 1012 005e 8F88     		ldrh	r7, [r1, #4]
 1013              		.loc 1 714 0
 1014 0060 23F00803 		bic	r3, r3, #8
 1015              	.LVL82:
 1016              		.loc 1 724 0
 1017 0064 24F44074 		bic	r4, r4, #768
 1018              	.LVL83:
 1019              		.loc 1 716 0
 1020 0068 3343     		orrs	r3, r3, r6
 1021              	.LVL84:
 1022 006a 4EEA0505 		orr	r5, lr, r5
 1023              		.loc 1 718 0
 1024 006e 23F00403 		bic	r3, r3, #4
 1025              	.LVL85:
 1026              		.loc 1 728 0
 1027 0072 2C43     		orrs	r4, r4, r5
 1028              		.loc 1 721 0
 1029 0074 3B43     		orrs	r3, r3, r7
 1030              	.LVL86:
 1031              		.loc 1 728 0
 1032 0076 A4B2     		uxth	r4, r4
 1033              	.LVL87:
 1034 0078 E7E7     		b	.L77
 1035              	.L80:
 1036 007a 00BF     		.align	2
 1037              	.L79:
 1038 007c 00000140 		.word	1073807360
 1039 0080 00040140 		.word	1073808384
 1040              		.cfi_endproc
 1041              	.LFE126:
 1042              		.size	TIM_OC1Init, .-TIM_OC1Init
 1043 0084 AFF30080 		.section	.text.TIM_OC2Init,"ax",%progbits
 1043      AFF30080 
 1043      AFF30080 
 1044              		.align	2
 1045              		.p2align 4,,15
 1046              		.global	TIM_OC2Init
 1047              		.thumb
 1048              		.thumb_func
 1049              		.type	TIM_OC2Init, %function
 1050              	TIM_OC2Init:
 1051              	.LFB127:
 1052              		.loc 1 753 0
 1053              		.cfi_startproc
 1054              		@ args = 0, pretend = 0, frame = 0
 1055              		@ frame_needed = 0, uses_anonymous_args = 0
 1056              	.LVL88:
 1057 0000 F0B5     		push	{r4, r5, r6, r7, lr}
 1058              		.cfi_def_cfa_offset 20
ARM GAS  /var/folders/7z/kps_xzfj7sn5l5gkyq8s9db00000gn/T//ccc38Eju.s 			page 20


 1059              		.cfi_offset 4, -20
 1060              		.cfi_offset 5, -16
 1061              		.cfi_offset 6, -12
 1062              		.cfi_offset 7, -8
 1063              		.cfi_offset 14, -4
 1064              		.loc 1 763 0
 1065 0002 058C     		ldrh	r5, [r0, #32]
 1066              		.loc 1 778 0
 1067 0004 0C88     		ldrh	r4, [r1]
 1068              		.loc 1 783 0
 1069 0006 B1F80CC0 		ldrh	ip, [r1, #12]
 1070              		.loc 1 786 0
 1071 000a B1F802E0 		ldrh	lr, [r1, #2]
 1072              		.loc 1 788 0
 1073 000e 1E4E     		ldr	r6, .L85
 1074              		.loc 1 763 0
 1075 0010 25F01005 		bic	r5, r5, #16
 1076 0014 2D04     		lsls	r5, r5, #16
 1077 0016 2D0C     		lsrs	r5, r5, #16
 1078 0018 0584     		strh	r5, [r0, #32]	@ movhi
 1079              		.loc 1 766 0
 1080 001a 028C     		ldrh	r2, [r0, #32]
 1081              	.LVL89:
 1082              		.loc 1 768 0
 1083 001c 8788     		ldrh	r7, [r0, #4]
 1084              		.loc 1 771 0
 1085 001e 058B     		ldrh	r5, [r0, #24]
 1086              		.loc 1 781 0
 1087 0020 22F02003 		bic	r3, r2, #32
 1088 0024 1B04     		lsls	r3, r3, #16
 1089              		.loc 1 775 0
 1090 0026 25F4E642 		bic	r2, r5, #29440
 1091              	.LVL90:
 1092              		.loc 1 781 0
 1093 002a 1B0C     		lsrs	r3, r3, #16
 1094              		.loc 1 775 0
 1095 002c 1204     		lsls	r2, r2, #16
 1096              		.loc 1 783 0
 1097 002e 43EA0C13 		orr	r3, r3, ip, lsl #4
 1098              		.loc 1 775 0
 1099 0032 120C     		lsrs	r2, r2, #16
 1100              		.loc 1 786 0
 1101 0034 43EA0E13 		orr	r3, r3, lr, lsl #4
 1102              		.loc 1 778 0
 1103 0038 42EA0422 		orr	r2, r2, r4, lsl #8
 1104              		.loc 1 788 0
 1105 003c B042     		cmp	r0, r6
 1106              		.loc 1 786 0
 1107 003e 9BB2     		uxth	r3, r3
 1108              		.loc 1 768 0
 1109 0040 BDB2     		uxth	r5, r7
 1110              	.LVL91:
 1111              		.loc 1 778 0
 1112 0042 94B2     		uxth	r4, r2
 1113              	.LVL92:
 1114              		.loc 1 788 0
 1115 0044 08D0     		beq	.L82
ARM GAS  /var/folders/7z/kps_xzfj7sn5l5gkyq8s9db00000gn/T//ccc38Eju.s 			page 21


 1116              		.loc 1 788 0 is_stmt 0 discriminator 1
 1117 0046 114A     		ldr	r2, .L85+4
 1118 0048 9042     		cmp	r0, r2
 1119 004a 05D0     		beq	.L82
 1120              	.L83:
 1121              		.loc 1 819 0 is_stmt 1
 1122 004c 8A68     		ldr	r2, [r1, #8]
 1123              		.loc 1 813 0
 1124 004e 8580     		strh	r5, [r0, #4]	@ movhi
 1125              		.loc 1 816 0
 1126 0050 0483     		strh	r4, [r0, #24]	@ movhi
 1127              		.loc 1 819 0
 1128 0052 8263     		str	r2, [r0, #56]
 1129              		.loc 1 822 0
 1130 0054 0384     		strh	r3, [r0, #32]	@ movhi
 1131 0056 F0BD     		pop	{r4, r5, r6, r7, pc}
 1132              	.LVL93:
 1133              	.L82:
 1134              		.loc 1 796 0
 1135 0058 23F08002 		bic	r2, r3, #128
 1136              		.loc 1 798 0
 1137 005c CB89     		ldrh	r3, [r1, #14]
 1138              	.LVL94:
 1139              		.loc 1 808 0
 1140 005e B1F810E0 		ldrh	lr, [r1, #16]
 1141              		.loc 1 803 0
 1142 0062 8F88     		ldrh	r7, [r1, #4]
 1143              		.loc 1 810 0
 1144 0064 4E8A     		ldrh	r6, [r1, #18]
 1145              		.loc 1 796 0
 1146 0066 92B2     		uxth	r2, r2
 1147              	.LVL95:
 1148              		.loc 1 798 0
 1149 0068 42EA0312 		orr	r2, r2, r3, lsl #4
 1150              	.LVL96:
 1151              		.loc 1 806 0
 1152 006c 25F44065 		bic	r5, r5, #3072
 1153              	.LVL97:
 1154              		.loc 1 800 0
 1155 0070 4FF6BF73 		movw	r3, #65471
 1156 0074 1340     		ands	r3, r3, r2
 1157              	.LVL98:
 1158              		.loc 1 808 0
 1159 0076 45EA8E05 		orr	r5, r5, lr, lsl #2
 1160              		.loc 1 803 0
 1161 007a 43EA0713 		orr	r3, r3, r7, lsl #4
 1162              	.LVL99:
 1163              		.loc 1 810 0
 1164 007e 45EA8605 		orr	r5, r5, r6, lsl #2
 1165              		.loc 1 803 0
 1166 0082 9BB2     		uxth	r3, r3
 1167              	.LVL100:
 1168              		.loc 1 810 0
 1169 0084 ADB2     		uxth	r5, r5
 1170              	.LVL101:
 1171 0086 E1E7     		b	.L83
 1172              	.L86:
ARM GAS  /var/folders/7z/kps_xzfj7sn5l5gkyq8s9db00000gn/T//ccc38Eju.s 			page 22


 1173              		.align	2
 1174              	.L85:
 1175 0088 00000140 		.word	1073807360
 1176 008c 00040140 		.word	1073808384
 1177              		.cfi_endproc
 1178              	.LFE127:
 1179              		.size	TIM_OC2Init, .-TIM_OC2Init
 1180              		.section	.text.TIM_OC3Init,"ax",%progbits
 1181              		.align	2
 1182              		.p2align 4,,15
 1183              		.global	TIM_OC3Init
 1184              		.thumb
 1185              		.thumb_func
 1186              		.type	TIM_OC3Init, %function
 1187              	TIM_OC3Init:
 1188              	.LFB128:
 1189              		.loc 1 834 0
 1190              		.cfi_startproc
 1191              		@ args = 0, pretend = 0, frame = 0
 1192              		@ frame_needed = 0, uses_anonymous_args = 0
 1193              	.LVL102:
 1194 0000 F0B5     		push	{r4, r5, r6, r7, lr}
 1195              		.cfi_def_cfa_offset 20
 1196              		.cfi_offset 4, -20
 1197              		.cfi_offset 5, -16
 1198              		.cfi_offset 6, -12
 1199              		.cfi_offset 7, -8
 1200              		.cfi_offset 14, -4
 1201              		.loc 1 844 0
 1202 0002 058C     		ldrh	r5, [r0, #32]
 1203              		.loc 1 863 0
 1204 0004 B1F80CC0 		ldrh	ip, [r1, #12]
 1205              		.loc 1 866 0
 1206 0008 B1F802E0 		ldrh	lr, [r1, #2]
 1207              		.loc 1 858 0
 1208 000c 0C88     		ldrh	r4, [r1]
 1209              		.loc 1 868 0
 1210 000e 1E4F     		ldr	r7, .L91
 1211              		.loc 1 844 0
 1212 0010 25F48075 		bic	r5, r5, #256
 1213 0014 2D04     		lsls	r5, r5, #16
 1214 0016 2D0C     		lsrs	r5, r5, #16
 1215 0018 0584     		strh	r5, [r0, #32]	@ movhi
 1216              		.loc 1 847 0
 1217 001a 028C     		ldrh	r2, [r0, #32]
 1218              	.LVL103:
 1219              		.loc 1 849 0
 1220 001c 8688     		ldrh	r6, [r0, #4]
 1221              		.loc 1 852 0
 1222 001e 858B     		ldrh	r5, [r0, #28]
 1223              		.loc 1 861 0
 1224 0020 22F40073 		bic	r3, r2, #512
 1225 0024 1B04     		lsls	r3, r3, #16
 1226              		.loc 1 856 0
 1227 0026 25F07302 		bic	r2, r5, #115
 1228              	.LVL104:
 1229              		.loc 1 861 0
ARM GAS  /var/folders/7z/kps_xzfj7sn5l5gkyq8s9db00000gn/T//ccc38Eju.s 			page 23


 1230 002a 1B0C     		lsrs	r3, r3, #16
 1231              		.loc 1 863 0
 1232 002c 43EA0C23 		orr	r3, r3, ip, lsl #8
 1233              		.loc 1 856 0
 1234 0030 1204     		lsls	r2, r2, #16
 1235              		.loc 1 866 0
 1236 0032 43EA0E23 		orr	r3, r3, lr, lsl #8
 1237              		.loc 1 856 0
 1238 0036 120C     		lsrs	r2, r2, #16
 1239              		.loc 1 868 0
 1240 0038 B842     		cmp	r0, r7
 1241              		.loc 1 866 0
 1242 003a 9BB2     		uxth	r3, r3
 1243              		.loc 1 849 0
 1244 003c B5B2     		uxth	r5, r6
 1245              	.LVL105:
 1246              		.loc 1 858 0
 1247 003e 44EA0204 		orr	r4, r4, r2
 1248              	.LVL106:
 1249              		.loc 1 868 0
 1250 0042 08D0     		beq	.L88
 1251              		.loc 1 868 0 is_stmt 0 discriminator 1
 1252 0044 114A     		ldr	r2, .L91+4
 1253 0046 9042     		cmp	r0, r2
 1254 0048 05D0     		beq	.L88
 1255              	.L89:
 1256              		.loc 1 899 0 is_stmt 1
 1257 004a 8A68     		ldr	r2, [r1, #8]
 1258              		.loc 1 893 0
 1259 004c 8580     		strh	r5, [r0, #4]	@ movhi
 1260              		.loc 1 896 0
 1261 004e 8483     		strh	r4, [r0, #28]	@ movhi
 1262              		.loc 1 899 0
 1263 0050 C263     		str	r2, [r0, #60]
 1264              		.loc 1 902 0
 1265 0052 0384     		strh	r3, [r0, #32]	@ movhi
 1266 0054 F0BD     		pop	{r4, r5, r6, r7, pc}
 1267              	.LVL107:
 1268              	.L88:
 1269              		.loc 1 876 0
 1270 0056 23F40062 		bic	r2, r3, #2048
 1271              		.loc 1 878 0
 1272 005a CB89     		ldrh	r3, [r1, #14]
 1273              	.LVL108:
 1274              		.loc 1 888 0
 1275 005c B1F810E0 		ldrh	lr, [r1, #16]
 1276              		.loc 1 883 0
 1277 0060 8F88     		ldrh	r7, [r1, #4]
 1278              		.loc 1 890 0
 1279 0062 4E8A     		ldrh	r6, [r1, #18]
 1280              		.loc 1 876 0
 1281 0064 92B2     		uxth	r2, r2
 1282              	.LVL109:
 1283              		.loc 1 878 0
 1284 0066 42EA0322 		orr	r2, r2, r3, lsl #8
 1285              	.LVL110:
 1286              		.loc 1 886 0
ARM GAS  /var/folders/7z/kps_xzfj7sn5l5gkyq8s9db00000gn/T//ccc38Eju.s 			page 24


 1287 006a 25F44055 		bic	r5, r5, #12288
 1288              	.LVL111:
 1289              		.loc 1 880 0
 1290 006e 4FF6FF33 		movw	r3, #64511
 1291 0072 1340     		ands	r3, r3, r2
 1292              	.LVL112:
 1293              		.loc 1 888 0
 1294 0074 45EA0E15 		orr	r5, r5, lr, lsl #4
 1295              		.loc 1 883 0
 1296 0078 43EA0723 		orr	r3, r3, r7, lsl #8
 1297              	.LVL113:
 1298              		.loc 1 890 0
 1299 007c 45EA0615 		orr	r5, r5, r6, lsl #4
 1300              		.loc 1 883 0
 1301 0080 9BB2     		uxth	r3, r3
 1302              	.LVL114:
 1303              		.loc 1 890 0
 1304 0082 ADB2     		uxth	r5, r5
 1305              	.LVL115:
 1306 0084 E1E7     		b	.L89
 1307              	.L92:
 1308 0086 00BF     		.align	2
 1309              	.L91:
 1310 0088 00000140 		.word	1073807360
 1311 008c 00040140 		.word	1073808384
 1312              		.cfi_endproc
 1313              	.LFE128:
 1314              		.size	TIM_OC3Init, .-TIM_OC3Init
 1315              		.section	.text.TIM_OC4Init,"ax",%progbits
 1316              		.align	2
 1317              		.p2align 4,,15
 1318              		.global	TIM_OC4Init
 1319              		.thumb
 1320              		.thumb_func
 1321              		.type	TIM_OC4Init, %function
 1322              	TIM_OC4Init:
 1323              	.LFB129:
 1324              		.loc 1 914 0
 1325              		.cfi_startproc
 1326              		@ args = 0, pretend = 0, frame = 0
 1327              		@ frame_needed = 0, uses_anonymous_args = 0
 1328              	.LVL116:
 1329              		.loc 1 924 0
 1330 0000 028C     		ldrh	r2, [r0, #32]
 1331              		.loc 1 947 0
 1332 0002 B1F802C0 		ldrh	ip, [r1, #2]
 1333              		.loc 1 924 0
 1334 0006 22F48052 		bic	r2, r2, #4096
 1335 000a 1204     		lsls	r2, r2, #16
 1336 000c 120C     		lsrs	r2, r2, #16
 1337              		.loc 1 914 0
 1338 000e 2DE9F041 		push	{r4, r5, r6, r7, r8, lr}
 1339              		.cfi_def_cfa_offset 24
 1340              		.cfi_offset 4, -24
 1341              		.cfi_offset 5, -20
 1342              		.cfi_offset 6, -16
 1343              		.cfi_offset 7, -12
ARM GAS  /var/folders/7z/kps_xzfj7sn5l5gkyq8s9db00000gn/T//ccc38Eju.s 			page 25


 1344              		.cfi_offset 8, -8
 1345              		.cfi_offset 14, -4
 1346              		.loc 1 944 0
 1347 0012 B1F80C80 		ldrh	r8, [r1, #12]
 1348              		.loc 1 939 0
 1349 0016 B1F800E0 		ldrh	lr, [r1]
 1350              		.loc 1 924 0
 1351 001a 0284     		strh	r2, [r0, #32]	@ movhi
 1352              		.loc 1 927 0
 1353 001c 058C     		ldrh	r5, [r0, #32]
 1354              	.LVL117:
 1355              		.loc 1 929 0
 1356 001e 8788     		ldrh	r7, [r0, #4]
 1357              		.loc 1 932 0
 1358 0020 828B     		ldrh	r2, [r0, #28]
 1359              		.loc 1 949 0
 1360 0022 124E     		ldr	r6, .L97
 1361              		.loc 1 942 0
 1362 0024 25F40054 		bic	r4, r5, #8192
 1363              		.loc 1 936 0
 1364 0028 22F4E643 		bic	r3, r2, #29440
 1365              		.loc 1 942 0
 1366 002c 2404     		lsls	r4, r4, #16
 1367 002e 240C     		lsrs	r4, r4, #16
 1368              		.loc 1 936 0
 1369 0030 1B04     		lsls	r3, r3, #16
 1370              		.loc 1 944 0
 1371 0032 44EA0834 		orr	r4, r4, r8, lsl #12
 1372              		.loc 1 936 0
 1373 0036 1B0C     		lsrs	r3, r3, #16
 1374              		.loc 1 947 0
 1375 0038 44EA0C34 		orr	r4, r4, ip, lsl #12
 1376              		.loc 1 939 0
 1377 003c 43EA0E23 		orr	r3, r3, lr, lsl #8
 1378              		.loc 1 949 0
 1379 0040 B042     		cmp	r0, r6
 1380              		.loc 1 947 0
 1381 0042 A4B2     		uxth	r4, r4
 1382              		.loc 1 929 0
 1383 0044 BAB2     		uxth	r2, r7
 1384              	.LVL118:
 1385              		.loc 1 939 0
 1386 0046 9BB2     		uxth	r3, r3
 1387              	.LVL119:
 1388              		.loc 1 949 0
 1389 0048 09D0     		beq	.L94
 1390              		.loc 1 949 0 is_stmt 0 discriminator 1
 1391 004a 094D     		ldr	r5, .L97+4
 1392 004c A842     		cmp	r0, r5
 1393 004e 06D0     		beq	.L94
 1394              	.L95:
 1395              		.loc 1 964 0 is_stmt 1
 1396 0050 8968     		ldr	r1, [r1, #8]
 1397              	.LVL120:
 1398              		.loc 1 958 0
 1399 0052 8280     		strh	r2, [r0, #4]	@ movhi
 1400              		.loc 1 961 0
ARM GAS  /var/folders/7z/kps_xzfj7sn5l5gkyq8s9db00000gn/T//ccc38Eju.s 			page 26


 1401 0054 8383     		strh	r3, [r0, #28]	@ movhi
 1402              		.loc 1 964 0
 1403 0056 0164     		str	r1, [r0, #64]
 1404              		.loc 1 967 0
 1405 0058 0484     		strh	r4, [r0, #32]	@ movhi
 1406 005a BDE8F081 		pop	{r4, r5, r6, r7, r8, pc}
 1407              	.LVL121:
 1408              	.L94:
 1409              		.loc 1 955 0
 1410 005e 0D8A     		ldrh	r5, [r1, #16]
 1411              		.loc 1 953 0
 1412 0060 22F48042 		bic	r2, r2, #16384
 1413              	.LVL122:
 1414              		.loc 1 955 0
 1415 0064 42EA8512 		orr	r2, r2, r5, lsl #6
 1416              	.LVL123:
 1417 0068 92B2     		uxth	r2, r2
 1418              	.LVL124:
 1419 006a F1E7     		b	.L95
 1420              	.L98:
 1421              		.align	2
 1422              	.L97:
 1423 006c 00000140 		.word	1073807360
 1424 0070 00040140 		.word	1073808384
 1425              		.cfi_endproc
 1426              	.LFE129:
 1427              		.size	TIM_OC4Init, .-TIM_OC4Init
 1428 0074 AFF30080 		.section	.text.TIM_OCStructInit,"ax",%progbits
 1428      AFF30080 
 1428      AFF30080 
 1429              		.align	2
 1430              		.p2align 4,,15
 1431              		.global	TIM_OCStructInit
 1432              		.thumb
 1433              		.thumb_func
 1434              		.type	TIM_OCStructInit, %function
 1435              	TIM_OCStructInit:
 1436              	.LFB130:
 1437              		.loc 1 977 0
 1438              		.cfi_startproc
 1439              		@ args = 0, pretend = 0, frame = 0
 1440              		@ frame_needed = 0, uses_anonymous_args = 0
 1441              		@ link register save eliminated.
 1442              	.LVL125:
 1443              		.loc 1 979 0
 1444 0000 0023     		movs	r3, #0
 1445 0002 0380     		strh	r3, [r0]	@ movhi
 1446              		.loc 1 980 0
 1447 0004 4380     		strh	r3, [r0, #2]	@ movhi
 1448              		.loc 1 981 0
 1449 0006 8380     		strh	r3, [r0, #4]	@ movhi
 1450              		.loc 1 982 0
 1451 0008 8360     		str	r3, [r0, #8]
 1452              		.loc 1 983 0
 1453 000a 8381     		strh	r3, [r0, #12]	@ movhi
 1454              		.loc 1 984 0
 1455 000c C381     		strh	r3, [r0, #14]	@ movhi
ARM GAS  /var/folders/7z/kps_xzfj7sn5l5gkyq8s9db00000gn/T//ccc38Eju.s 			page 27


 1456              		.loc 1 985 0
 1457 000e 0382     		strh	r3, [r0, #16]	@ movhi
 1458              		.loc 1 986 0
 1459 0010 4382     		strh	r3, [r0, #18]	@ movhi
 1460 0012 7047     		bx	lr
 1461              		.cfi_endproc
 1462              	.LFE130:
 1463              		.size	TIM_OCStructInit, .-TIM_OCStructInit
 1464 0014 AFF30080 		.section	.text.TIM_SelectOCxM,"ax",%progbits
 1464      AFF30080 
 1464      AFF30080 
 1465              		.align	2
 1466              		.p2align 4,,15
 1467              		.global	TIM_SelectOCxM
 1468              		.thumb
 1469              		.thumb_func
 1470              		.type	TIM_SelectOCxM, %function
 1471              	TIM_SelectOCxM:
 1472              	.LFB131:
 1473              		.loc 1 1013 0
 1474              		.cfi_startproc
 1475              		@ args = 0, pretend = 0, frame = 0
 1476              		@ frame_needed = 0, uses_anonymous_args = 0
 1477              		@ link register save eliminated.
 1478              	.LVL126:
 1479 0000 10B4     		push	{r4}
 1480              		.cfi_def_cfa_offset 4
 1481              		.cfi_offset 4, -4
 1482              		.loc 1 1028 0
 1483 0002 048C     		ldrh	r4, [r0, #32]
 1484              		.loc 1 1025 0
 1485 0004 0123     		movs	r3, #1
 1486              		.loc 1 1028 0
 1487 0006 A4B2     		uxth	r4, r4
 1488              		.loc 1 1025 0
 1489 0008 8B40     		lsls	r3, r3, r1
 1490              		.loc 1 1028 0
 1491 000a 24EA0303 		bic	r3, r4, r3
 1492              		.loc 1 1030 0
 1493 000e 21F00804 		bic	r4, r1, #8
 1494              		.loc 1 1028 0
 1495 0012 0384     		strh	r3, [r0, #32]	@ movhi
 1496              		.loc 1 1023 0
 1497 0014 1830     		adds	r0, r0, #24
 1498              	.LVL127:
 1499              		.loc 1 1030 0
 1500 0016 7CB1     		cbz	r4, .L104
 1501              	.LVL128:
 1502              		.loc 1 1042 0
 1503 0018 0439     		subs	r1, r1, #4
 1504              	.LVL129:
 1505 001a C1F34E01 		ubfx	r1, r1, #1, #15
 1506              		.loc 1 1045 0
 1507 001e 48F6FF73 		movw	r3, #36863
 1508 0022 0C58     		ldr	r4, [r1, r0]
 1509 0024 2340     		ands	r3, r3, r4
 1510 0026 0B50     		str	r3, [r1, r0]
ARM GAS  /var/folders/7z/kps_xzfj7sn5l5gkyq8s9db00000gn/T//ccc38Eju.s 			page 28


 1511              		.loc 1 1048 0
 1512 0028 1202     		lsls	r2, r2, #8
 1513              	.LVL130:
 1514 002a 0B58     		ldr	r3, [r1, r0]
 1515              		.loc 1 1050 0
 1516 002c 5DF8044B 		ldr	r4, [sp], #4
 1517              		.cfi_remember_state
 1518              		.cfi_restore 4
 1519              		.cfi_def_cfa_offset 0
 1520              		.loc 1 1048 0
 1521 0030 92B2     		uxth	r2, r2
 1522 0032 1A43     		orrs	r2, r2, r3
 1523 0034 0A50     		str	r2, [r1, r0]
 1524              		.loc 1 1050 0
 1525 0036 7047     		bx	lr
 1526              	.LVL131:
 1527              	.L104:
 1528              		.cfi_restore_state
 1529              		.loc 1 1032 0
 1530 0038 4908     		lsrs	r1, r1, #1
 1531              	.LVL132:
 1532              		.loc 1 1035 0
 1533 003a 4FF68F73 		movw	r3, #65423
 1534 003e 4458     		ldr	r4, [r0, r1]
 1535 0040 2340     		ands	r3, r3, r4
 1536 0042 4350     		str	r3, [r0, r1]
 1537              		.loc 1 1038 0
 1538 0044 4358     		ldr	r3, [r0, r1]
 1539              		.loc 1 1050 0
 1540 0046 5DF8044B 		ldr	r4, [sp], #4
 1541              		.cfi_restore 4
 1542              		.cfi_def_cfa_offset 0
 1543              		.loc 1 1038 0
 1544 004a 1A43     		orrs	r2, r2, r3
 1545              	.LVL133:
 1546 004c 4250     		str	r2, [r0, r1]
 1547              		.loc 1 1050 0
 1548 004e 7047     		bx	lr
 1549              		.cfi_endproc
 1550              	.LFE131:
 1551              		.size	TIM_SelectOCxM, .-TIM_SelectOCxM
 1552              		.section	.text.TIM_SetCompare1,"ax",%progbits
 1553              		.align	2
 1554              		.p2align 4,,15
 1555              		.global	TIM_SetCompare1
 1556              		.thumb
 1557              		.thumb_func
 1558              		.type	TIM_SetCompare1, %function
 1559              	TIM_SetCompare1:
 1560              	.LFB132:
 1561              		.loc 1 1059 0
 1562              		.cfi_startproc
 1563              		@ args = 0, pretend = 0, frame = 0
 1564              		@ frame_needed = 0, uses_anonymous_args = 0
 1565              		@ link register save eliminated.
 1566              	.LVL134:
 1567              		.loc 1 1064 0
ARM GAS  /var/folders/7z/kps_xzfj7sn5l5gkyq8s9db00000gn/T//ccc38Eju.s 			page 29


 1568 0000 4163     		str	r1, [r0, #52]
 1569 0002 7047     		bx	lr
 1570              		.cfi_endproc
 1571              	.LFE132:
 1572              		.size	TIM_SetCompare1, .-TIM_SetCompare1
 1573 0004 AFF30080 		.section	.text.TIM_SetCompare2,"ax",%progbits
 1573      AFF30080 
 1573      AFF30080 
 1574              		.align	2
 1575              		.p2align 4,,15
 1576              		.global	TIM_SetCompare2
 1577              		.thumb
 1578              		.thumb_func
 1579              		.type	TIM_SetCompare2, %function
 1580              	TIM_SetCompare2:
 1581              	.LFB133:
 1582              		.loc 1 1075 0
 1583              		.cfi_startproc
 1584              		@ args = 0, pretend = 0, frame = 0
 1585              		@ frame_needed = 0, uses_anonymous_args = 0
 1586              		@ link register save eliminated.
 1587              	.LVL135:
 1588              		.loc 1 1080 0
 1589 0000 8163     		str	r1, [r0, #56]
 1590 0002 7047     		bx	lr
 1591              		.cfi_endproc
 1592              	.LFE133:
 1593              		.size	TIM_SetCompare2, .-TIM_SetCompare2
 1594 0004 AFF30080 		.section	.text.TIM_SetCompare3,"ax",%progbits
 1594      AFF30080 
 1594      AFF30080 
 1595              		.align	2
 1596              		.p2align 4,,15
 1597              		.global	TIM_SetCompare3
 1598              		.thumb
 1599              		.thumb_func
 1600              		.type	TIM_SetCompare3, %function
 1601              	TIM_SetCompare3:
 1602              	.LFB134:
 1603              		.loc 1 1090 0
 1604              		.cfi_startproc
 1605              		@ args = 0, pretend = 0, frame = 0
 1606              		@ frame_needed = 0, uses_anonymous_args = 0
 1607              		@ link register save eliminated.
 1608              	.LVL136:
 1609              		.loc 1 1095 0
 1610 0000 C163     		str	r1, [r0, #60]
 1611 0002 7047     		bx	lr
 1612              		.cfi_endproc
 1613              	.LFE134:
 1614              		.size	TIM_SetCompare3, .-TIM_SetCompare3
 1615 0004 AFF30080 		.section	.text.TIM_SetCompare4,"ax",%progbits
 1615      AFF30080 
 1615      AFF30080 
 1616              		.align	2
 1617              		.p2align 4,,15
 1618              		.global	TIM_SetCompare4
ARM GAS  /var/folders/7z/kps_xzfj7sn5l5gkyq8s9db00000gn/T//ccc38Eju.s 			page 30


 1619              		.thumb
 1620              		.thumb_func
 1621              		.type	TIM_SetCompare4, %function
 1622              	TIM_SetCompare4:
 1623              	.LFB135:
 1624              		.loc 1 1105 0
 1625              		.cfi_startproc
 1626              		@ args = 0, pretend = 0, frame = 0
 1627              		@ frame_needed = 0, uses_anonymous_args = 0
 1628              		@ link register save eliminated.
 1629              	.LVL137:
 1630              		.loc 1 1110 0
 1631 0000 0164     		str	r1, [r0, #64]
 1632 0002 7047     		bx	lr
 1633              		.cfi_endproc
 1634              	.LFE135:
 1635              		.size	TIM_SetCompare4, .-TIM_SetCompare4
 1636 0004 AFF30080 		.section	.text.TIM_ForcedOC1Config,"ax",%progbits
 1636      AFF30080 
 1636      AFF30080 
 1637              		.align	2
 1638              		.p2align 4,,15
 1639              		.global	TIM_ForcedOC1Config
 1640              		.thumb
 1641              		.thumb_func
 1642              		.type	TIM_ForcedOC1Config, %function
 1643              	TIM_ForcedOC1Config:
 1644              	.LFB136:
 1645              		.loc 1 1123 0
 1646              		.cfi_startproc
 1647              		@ args = 0, pretend = 0, frame = 0
 1648              		@ frame_needed = 0, uses_anonymous_args = 0
 1649              		@ link register save eliminated.
 1650              	.LVL138:
 1651              		.loc 1 1129 0
 1652 0000 038B     		ldrh	r3, [r0, #24]
 1653              	.LVL139:
 1654              		.loc 1 1132 0
 1655 0002 23F07003 		bic	r3, r3, #112
 1656              	.LVL140:
 1657 0006 1B04     		lsls	r3, r3, #16
 1658 0008 1B0C     		lsrs	r3, r3, #16
 1659              	.LVL141:
 1660              		.loc 1 1135 0
 1661 000a 1943     		orrs	r1, r1, r3
 1662              	.LVL142:
 1663              		.loc 1 1138 0
 1664 000c 0183     		strh	r1, [r0, #24]	@ movhi
 1665 000e 7047     		bx	lr
 1666              		.cfi_endproc
 1667              	.LFE136:
 1668              		.size	TIM_ForcedOC1Config, .-TIM_ForcedOC1Config
 1669              		.section	.text.TIM_ForcedOC2Config,"ax",%progbits
 1670              		.align	2
 1671              		.p2align 4,,15
 1672              		.global	TIM_ForcedOC2Config
 1673              		.thumb
ARM GAS  /var/folders/7z/kps_xzfj7sn5l5gkyq8s9db00000gn/T//ccc38Eju.s 			page 31


 1674              		.thumb_func
 1675              		.type	TIM_ForcedOC2Config, %function
 1676              	TIM_ForcedOC2Config:
 1677              	.LFB137:
 1678              		.loc 1 1152 0
 1679              		.cfi_startproc
 1680              		@ args = 0, pretend = 0, frame = 0
 1681              		@ frame_needed = 0, uses_anonymous_args = 0
 1682              		@ link register save eliminated.
 1683              	.LVL143:
 1684              		.loc 1 1158 0
 1685 0000 038B     		ldrh	r3, [r0, #24]
 1686              	.LVL144:
 1687              		.loc 1 1161 0
 1688 0002 23F4E043 		bic	r3, r3, #28672
 1689              	.LVL145:
 1690 0006 1B04     		lsls	r3, r3, #16
 1691 0008 1B0C     		lsrs	r3, r3, #16
 1692              	.LVL146:
 1693              		.loc 1 1164 0
 1694 000a 43EA0121 		orr	r1, r3, r1, lsl #8
 1695              	.LVL147:
 1696 000e 89B2     		uxth	r1, r1
 1697              	.LVL148:
 1698              		.loc 1 1167 0
 1699 0010 0183     		strh	r1, [r0, #24]	@ movhi
 1700 0012 7047     		bx	lr
 1701              		.cfi_endproc
 1702              	.LFE137:
 1703              		.size	TIM_ForcedOC2Config, .-TIM_ForcedOC2Config
 1704 0014 AFF30080 		.section	.text.TIM_ForcedOC3Config,"ax",%progbits
 1704      AFF30080 
 1704      AFF30080 
 1705              		.align	2
 1706              		.p2align 4,,15
 1707              		.global	TIM_ForcedOC3Config
 1708              		.thumb
 1709              		.thumb_func
 1710              		.type	TIM_ForcedOC3Config, %function
 1711              	TIM_ForcedOC3Config:
 1712              	.LFB138:
 1713              		.loc 1 1180 0
 1714              		.cfi_startproc
 1715              		@ args = 0, pretend = 0, frame = 0
 1716              		@ frame_needed = 0, uses_anonymous_args = 0
 1717              		@ link register save eliminated.
 1718              	.LVL149:
 1719              		.loc 1 1187 0
 1720 0000 838B     		ldrh	r3, [r0, #28]
 1721              	.LVL150:
 1722              		.loc 1 1190 0
 1723 0002 23F07003 		bic	r3, r3, #112
 1724              	.LVL151:
 1725 0006 1B04     		lsls	r3, r3, #16
 1726 0008 1B0C     		lsrs	r3, r3, #16
 1727              	.LVL152:
 1728              		.loc 1 1193 0
ARM GAS  /var/folders/7z/kps_xzfj7sn5l5gkyq8s9db00000gn/T//ccc38Eju.s 			page 32


 1729 000a 1943     		orrs	r1, r1, r3
 1730              	.LVL153:
 1731              		.loc 1 1196 0
 1732 000c 8183     		strh	r1, [r0, #28]	@ movhi
 1733 000e 7047     		bx	lr
 1734              		.cfi_endproc
 1735              	.LFE138:
 1736              		.size	TIM_ForcedOC3Config, .-TIM_ForcedOC3Config
 1737              		.section	.text.TIM_ForcedOC4Config,"ax",%progbits
 1738              		.align	2
 1739              		.p2align 4,,15
 1740              		.global	TIM_ForcedOC4Config
 1741              		.thumb
 1742              		.thumb_func
 1743              		.type	TIM_ForcedOC4Config, %function
 1744              	TIM_ForcedOC4Config:
 1745              	.LFB139:
 1746              		.loc 1 1209 0
 1747              		.cfi_startproc
 1748              		@ args = 0, pretend = 0, frame = 0
 1749              		@ frame_needed = 0, uses_anonymous_args = 0
 1750              		@ link register save eliminated.
 1751              	.LVL154:
 1752              		.loc 1 1215 0
 1753 0000 838B     		ldrh	r3, [r0, #28]
 1754              	.LVL155:
 1755              		.loc 1 1218 0
 1756 0002 23F4E043 		bic	r3, r3, #28672
 1757              	.LVL156:
 1758 0006 1B04     		lsls	r3, r3, #16
 1759 0008 1B0C     		lsrs	r3, r3, #16
 1760              	.LVL157:
 1761              		.loc 1 1221 0
 1762 000a 43EA0121 		orr	r1, r3, r1, lsl #8
 1763              	.LVL158:
 1764 000e 89B2     		uxth	r1, r1
 1765              	.LVL159:
 1766              		.loc 1 1224 0
 1767 0010 8183     		strh	r1, [r0, #28]	@ movhi
 1768 0012 7047     		bx	lr
 1769              		.cfi_endproc
 1770              	.LFE139:
 1771              		.size	TIM_ForcedOC4Config, .-TIM_ForcedOC4Config
 1772 0014 AFF30080 		.section	.text.TIM_OC1PreloadConfig,"ax",%progbits
 1772      AFF30080 
 1772      AFF30080 
 1773              		.align	2
 1774              		.p2align 4,,15
 1775              		.global	TIM_OC1PreloadConfig
 1776              		.thumb
 1777              		.thumb_func
 1778              		.type	TIM_OC1PreloadConfig, %function
 1779              	TIM_OC1PreloadConfig:
 1780              	.LFB140:
 1781              		.loc 1 1237 0
 1782              		.cfi_startproc
 1783              		@ args = 0, pretend = 0, frame = 0
ARM GAS  /var/folders/7z/kps_xzfj7sn5l5gkyq8s9db00000gn/T//ccc38Eju.s 			page 33


 1784              		@ frame_needed = 0, uses_anonymous_args = 0
 1785              		@ link register save eliminated.
 1786              	.LVL160:
 1787              		.loc 1 1244 0
 1788 0000 038B     		ldrh	r3, [r0, #24]
 1789              	.LVL161:
 1790              		.loc 1 1247 0
 1791 0002 23F00803 		bic	r3, r3, #8
 1792              	.LVL162:
 1793 0006 1B04     		lsls	r3, r3, #16
 1794 0008 1B0C     		lsrs	r3, r3, #16
 1795              	.LVL163:
 1796              		.loc 1 1250 0
 1797 000a 1943     		orrs	r1, r1, r3
 1798              	.LVL164:
 1799              		.loc 1 1253 0
 1800 000c 0183     		strh	r1, [r0, #24]	@ movhi
 1801 000e 7047     		bx	lr
 1802              		.cfi_endproc
 1803              	.LFE140:
 1804              		.size	TIM_OC1PreloadConfig, .-TIM_OC1PreloadConfig
 1805              		.section	.text.TIM_OC2PreloadConfig,"ax",%progbits
 1806              		.align	2
 1807              		.p2align 4,,15
 1808              		.global	TIM_OC2PreloadConfig
 1809              		.thumb
 1810              		.thumb_func
 1811              		.type	TIM_OC2PreloadConfig, %function
 1812              	TIM_OC2PreloadConfig:
 1813              	.LFB141:
 1814              		.loc 1 1267 0
 1815              		.cfi_startproc
 1816              		@ args = 0, pretend = 0, frame = 0
 1817              		@ frame_needed = 0, uses_anonymous_args = 0
 1818              		@ link register save eliminated.
 1819              	.LVL165:
 1820              		.loc 1 1274 0
 1821 0000 038B     		ldrh	r3, [r0, #24]
 1822              	.LVL166:
 1823              		.loc 1 1277 0
 1824 0002 23F40063 		bic	r3, r3, #2048
 1825              	.LVL167:
 1826 0006 1B04     		lsls	r3, r3, #16
 1827 0008 1B0C     		lsrs	r3, r3, #16
 1828              	.LVL168:
 1829              		.loc 1 1280 0
 1830 000a 43EA0121 		orr	r1, r3, r1, lsl #8
 1831              	.LVL169:
 1832 000e 89B2     		uxth	r1, r1
 1833              	.LVL170:
 1834              		.loc 1 1283 0
 1835 0010 0183     		strh	r1, [r0, #24]	@ movhi
 1836 0012 7047     		bx	lr
 1837              		.cfi_endproc
 1838              	.LFE141:
 1839              		.size	TIM_OC2PreloadConfig, .-TIM_OC2PreloadConfig
 1840 0014 AFF30080 		.section	.text.TIM_OC3PreloadConfig,"ax",%progbits
ARM GAS  /var/folders/7z/kps_xzfj7sn5l5gkyq8s9db00000gn/T//ccc38Eju.s 			page 34


 1840      AFF30080 
 1840      AFF30080 
 1841              		.align	2
 1842              		.p2align 4,,15
 1843              		.global	TIM_OC3PreloadConfig
 1844              		.thumb
 1845              		.thumb_func
 1846              		.type	TIM_OC3PreloadConfig, %function
 1847              	TIM_OC3PreloadConfig:
 1848              	.LFB142:
 1849              		.loc 1 1296 0
 1850              		.cfi_startproc
 1851              		@ args = 0, pretend = 0, frame = 0
 1852              		@ frame_needed = 0, uses_anonymous_args = 0
 1853              		@ link register save eliminated.
 1854              	.LVL171:
 1855              		.loc 1 1303 0
 1856 0000 838B     		ldrh	r3, [r0, #28]
 1857              	.LVL172:
 1858              		.loc 1 1306 0
 1859 0002 23F00803 		bic	r3, r3, #8
 1860              	.LVL173:
 1861 0006 1B04     		lsls	r3, r3, #16
 1862 0008 1B0C     		lsrs	r3, r3, #16
 1863              	.LVL174:
 1864              		.loc 1 1309 0
 1865 000a 1943     		orrs	r1, r1, r3
 1866              	.LVL175:
 1867              		.loc 1 1312 0
 1868 000c 8183     		strh	r1, [r0, #28]	@ movhi
 1869 000e 7047     		bx	lr
 1870              		.cfi_endproc
 1871              	.LFE142:
 1872              		.size	TIM_OC3PreloadConfig, .-TIM_OC3PreloadConfig
 1873              		.section	.text.TIM_OC4PreloadConfig,"ax",%progbits
 1874              		.align	2
 1875              		.p2align 4,,15
 1876              		.global	TIM_OC4PreloadConfig
 1877              		.thumb
 1878              		.thumb_func
 1879              		.type	TIM_OC4PreloadConfig, %function
 1880              	TIM_OC4PreloadConfig:
 1881              	.LFB143:
 1882              		.loc 1 1325 0
 1883              		.cfi_startproc
 1884              		@ args = 0, pretend = 0, frame = 0
 1885              		@ frame_needed = 0, uses_anonymous_args = 0
 1886              		@ link register save eliminated.
 1887              	.LVL176:
 1888              		.loc 1 1332 0
 1889 0000 838B     		ldrh	r3, [r0, #28]
 1890              	.LVL177:
 1891              		.loc 1 1335 0
 1892 0002 23F40063 		bic	r3, r3, #2048
 1893              	.LVL178:
 1894 0006 1B04     		lsls	r3, r3, #16
 1895 0008 1B0C     		lsrs	r3, r3, #16
ARM GAS  /var/folders/7z/kps_xzfj7sn5l5gkyq8s9db00000gn/T//ccc38Eju.s 			page 35


 1896              	.LVL179:
 1897              		.loc 1 1338 0
 1898 000a 43EA0121 		orr	r1, r3, r1, lsl #8
 1899              	.LVL180:
 1900 000e 89B2     		uxth	r1, r1
 1901              	.LVL181:
 1902              		.loc 1 1341 0
 1903 0010 8183     		strh	r1, [r0, #28]	@ movhi
 1904 0012 7047     		bx	lr
 1905              		.cfi_endproc
 1906              	.LFE143:
 1907              		.size	TIM_OC4PreloadConfig, .-TIM_OC4PreloadConfig
 1908 0014 AFF30080 		.section	.text.TIM_OC1FastConfig,"ax",%progbits
 1908      AFF30080 
 1908      AFF30080 
 1909              		.align	2
 1910              		.p2align 4,,15
 1911              		.global	TIM_OC1FastConfig
 1912              		.thumb
 1913              		.thumb_func
 1914              		.type	TIM_OC1FastConfig, %function
 1915              	TIM_OC1FastConfig:
 1916              	.LFB144:
 1917              		.loc 1 1354 0
 1918              		.cfi_startproc
 1919              		@ args = 0, pretend = 0, frame = 0
 1920              		@ frame_needed = 0, uses_anonymous_args = 0
 1921              		@ link register save eliminated.
 1922              	.LVL182:
 1923              		.loc 1 1362 0
 1924 0000 038B     		ldrh	r3, [r0, #24]
 1925              	.LVL183:
 1926              		.loc 1 1365 0
 1927 0002 23F00403 		bic	r3, r3, #4
 1928              	.LVL184:
 1929 0006 1B04     		lsls	r3, r3, #16
 1930 0008 1B0C     		lsrs	r3, r3, #16
 1931              	.LVL185:
 1932              		.loc 1 1368 0
 1933 000a 1943     		orrs	r1, r1, r3
 1934              	.LVL186:
 1935              		.loc 1 1371 0
 1936 000c 0183     		strh	r1, [r0, #24]	@ movhi
 1937 000e 7047     		bx	lr
 1938              		.cfi_endproc
 1939              	.LFE144:
 1940              		.size	TIM_OC1FastConfig, .-TIM_OC1FastConfig
 1941              		.section	.text.TIM_OC2FastConfig,"ax",%progbits
 1942              		.align	2
 1943              		.p2align 4,,15
 1944              		.global	TIM_OC2FastConfig
 1945              		.thumb
 1946              		.thumb_func
 1947              		.type	TIM_OC2FastConfig, %function
 1948              	TIM_OC2FastConfig:
 1949              	.LFB145:
 1950              		.loc 1 1385 0
ARM GAS  /var/folders/7z/kps_xzfj7sn5l5gkyq8s9db00000gn/T//ccc38Eju.s 			page 36


 1951              		.cfi_startproc
 1952              		@ args = 0, pretend = 0, frame = 0
 1953              		@ frame_needed = 0, uses_anonymous_args = 0
 1954              		@ link register save eliminated.
 1955              	.LVL187:
 1956              		.loc 1 1393 0
 1957 0000 038B     		ldrh	r3, [r0, #24]
 1958              	.LVL188:
 1959              		.loc 1 1396 0
 1960 0002 23F48063 		bic	r3, r3, #1024
 1961              	.LVL189:
 1962 0006 1B04     		lsls	r3, r3, #16
 1963 0008 1B0C     		lsrs	r3, r3, #16
 1964              	.LVL190:
 1965              		.loc 1 1399 0
 1966 000a 43EA0121 		orr	r1, r3, r1, lsl #8
 1967              	.LVL191:
 1968 000e 89B2     		uxth	r1, r1
 1969              	.LVL192:
 1970              		.loc 1 1402 0
 1971 0010 0183     		strh	r1, [r0, #24]	@ movhi
 1972 0012 7047     		bx	lr
 1973              		.cfi_endproc
 1974              	.LFE145:
 1975              		.size	TIM_OC2FastConfig, .-TIM_OC2FastConfig
 1976 0014 AFF30080 		.section	.text.TIM_OC3FastConfig,"ax",%progbits
 1976      AFF30080 
 1976      AFF30080 
 1977              		.align	2
 1978              		.p2align 4,,15
 1979              		.global	TIM_OC3FastConfig
 1980              		.thumb
 1981              		.thumb_func
 1982              		.type	TIM_OC3FastConfig, %function
 1983              	TIM_OC3FastConfig:
 1984              	.LFB146:
 1985              		.loc 1 1415 0
 1986              		.cfi_startproc
 1987              		@ args = 0, pretend = 0, frame = 0
 1988              		@ frame_needed = 0, uses_anonymous_args = 0
 1989              		@ link register save eliminated.
 1990              	.LVL193:
 1991              		.loc 1 1423 0
 1992 0000 838B     		ldrh	r3, [r0, #28]
 1993              	.LVL194:
 1994              		.loc 1 1426 0
 1995 0002 23F00403 		bic	r3, r3, #4
 1996              	.LVL195:
 1997 0006 1B04     		lsls	r3, r3, #16
 1998 0008 1B0C     		lsrs	r3, r3, #16
 1999              	.LVL196:
 2000              		.loc 1 1429 0
 2001 000a 1943     		orrs	r1, r1, r3
 2002              	.LVL197:
 2003              		.loc 1 1432 0
 2004 000c 8183     		strh	r1, [r0, #28]	@ movhi
 2005 000e 7047     		bx	lr
ARM GAS  /var/folders/7z/kps_xzfj7sn5l5gkyq8s9db00000gn/T//ccc38Eju.s 			page 37


 2006              		.cfi_endproc
 2007              	.LFE146:
 2008              		.size	TIM_OC3FastConfig, .-TIM_OC3FastConfig
 2009              		.section	.text.TIM_OC4FastConfig,"ax",%progbits
 2010              		.align	2
 2011              		.p2align 4,,15
 2012              		.global	TIM_OC4FastConfig
 2013              		.thumb
 2014              		.thumb_func
 2015              		.type	TIM_OC4FastConfig, %function
 2016              	TIM_OC4FastConfig:
 2017              	.LFB147:
 2018              		.loc 1 1445 0
 2019              		.cfi_startproc
 2020              		@ args = 0, pretend = 0, frame = 0
 2021              		@ frame_needed = 0, uses_anonymous_args = 0
 2022              		@ link register save eliminated.
 2023              	.LVL198:
 2024              		.loc 1 1453 0
 2025 0000 838B     		ldrh	r3, [r0, #28]
 2026              	.LVL199:
 2027              		.loc 1 1456 0
 2028 0002 23F48063 		bic	r3, r3, #1024
 2029              	.LVL200:
 2030 0006 1B04     		lsls	r3, r3, #16
 2031 0008 1B0C     		lsrs	r3, r3, #16
 2032              	.LVL201:
 2033              		.loc 1 1459 0
 2034 000a 43EA0121 		orr	r1, r3, r1, lsl #8
 2035              	.LVL202:
 2036 000e 89B2     		uxth	r1, r1
 2037              	.LVL203:
 2038              		.loc 1 1462 0
 2039 0010 8183     		strh	r1, [r0, #28]	@ movhi
 2040 0012 7047     		bx	lr
 2041              		.cfi_endproc
 2042              	.LFE147:
 2043              		.size	TIM_OC4FastConfig, .-TIM_OC4FastConfig
 2044 0014 AFF30080 		.section	.text.TIM_ClearOC1Ref,"ax",%progbits
 2044      AFF30080 
 2044      AFF30080 
 2045              		.align	2
 2046              		.p2align 4,,15
 2047              		.global	TIM_ClearOC1Ref
 2048              		.thumb
 2049              		.thumb_func
 2050              		.type	TIM_ClearOC1Ref, %function
 2051              	TIM_ClearOC1Ref:
 2052              	.LFB148:
 2053              		.loc 1 1475 0
 2054              		.cfi_startproc
 2055              		@ args = 0, pretend = 0, frame = 0
 2056              		@ frame_needed = 0, uses_anonymous_args = 0
 2057              		@ link register save eliminated.
 2058              	.LVL204:
 2059              		.loc 1 1482 0
 2060 0000 038B     		ldrh	r3, [r0, #24]
ARM GAS  /var/folders/7z/kps_xzfj7sn5l5gkyq8s9db00000gn/T//ccc38Eju.s 			page 38


 2061              	.LVL205:
 2062              		.loc 1 1485 0
 2063 0002 23F08003 		bic	r3, r3, #128
 2064              	.LVL206:
 2065 0006 1B04     		lsls	r3, r3, #16
 2066 0008 1B0C     		lsrs	r3, r3, #16
 2067              	.LVL207:
 2068              		.loc 1 1488 0
 2069 000a 1943     		orrs	r1, r1, r3
 2070              	.LVL208:
 2071              		.loc 1 1491 0
 2072 000c 0183     		strh	r1, [r0, #24]	@ movhi
 2073 000e 7047     		bx	lr
 2074              		.cfi_endproc
 2075              	.LFE148:
 2076              		.size	TIM_ClearOC1Ref, .-TIM_ClearOC1Ref
 2077              		.section	.text.TIM_ClearOC2Ref,"ax",%progbits
 2078              		.align	2
 2079              		.p2align 4,,15
 2080              		.global	TIM_ClearOC2Ref
 2081              		.thumb
 2082              		.thumb_func
 2083              		.type	TIM_ClearOC2Ref, %function
 2084              	TIM_ClearOC2Ref:
 2085              	.LFB149:
 2086              		.loc 1 1505 0
 2087              		.cfi_startproc
 2088              		@ args = 0, pretend = 0, frame = 0
 2089              		@ frame_needed = 0, uses_anonymous_args = 0
 2090              		@ link register save eliminated.
 2091              	.LVL209:
 2092              		.loc 1 1512 0
 2093 0000 038B     		ldrh	r3, [r0, #24]
 2094              	.LVL210:
 2095              		.loc 1 1515 0
 2096 0002 C3F30E03 		ubfx	r3, r3, #0, #15
 2097              	.LVL211:
 2098              		.loc 1 1518 0
 2099 0006 43EA0121 		orr	r1, r3, r1, lsl #8
 2100              	.LVL212:
 2101 000a 89B2     		uxth	r1, r1
 2102              	.LVL213:
 2103              		.loc 1 1521 0
 2104 000c 0183     		strh	r1, [r0, #24]	@ movhi
 2105 000e 7047     		bx	lr
 2106              		.cfi_endproc
 2107              	.LFE149:
 2108              		.size	TIM_ClearOC2Ref, .-TIM_ClearOC2Ref
 2109              		.section	.text.TIM_ClearOC3Ref,"ax",%progbits
 2110              		.align	2
 2111              		.p2align 4,,15
 2112              		.global	TIM_ClearOC3Ref
 2113              		.thumb
 2114              		.thumb_func
 2115              		.type	TIM_ClearOC3Ref, %function
 2116              	TIM_ClearOC3Ref:
 2117              	.LFB150:
ARM GAS  /var/folders/7z/kps_xzfj7sn5l5gkyq8s9db00000gn/T//ccc38Eju.s 			page 39


 2118              		.loc 1 1534 0
 2119              		.cfi_startproc
 2120              		@ args = 0, pretend = 0, frame = 0
 2121              		@ frame_needed = 0, uses_anonymous_args = 0
 2122              		@ link register save eliminated.
 2123              	.LVL214:
 2124              		.loc 1 1541 0
 2125 0000 838B     		ldrh	r3, [r0, #28]
 2126              	.LVL215:
 2127              		.loc 1 1544 0
 2128 0002 23F08003 		bic	r3, r3, #128
 2129              	.LVL216:
 2130 0006 1B04     		lsls	r3, r3, #16
 2131 0008 1B0C     		lsrs	r3, r3, #16
 2132              	.LVL217:
 2133              		.loc 1 1547 0
 2134 000a 1943     		orrs	r1, r1, r3
 2135              	.LVL218:
 2136              		.loc 1 1550 0
 2137 000c 8183     		strh	r1, [r0, #28]	@ movhi
 2138 000e 7047     		bx	lr
 2139              		.cfi_endproc
 2140              	.LFE150:
 2141              		.size	TIM_ClearOC3Ref, .-TIM_ClearOC3Ref
 2142              		.section	.text.TIM_ClearOC4Ref,"ax",%progbits
 2143              		.align	2
 2144              		.p2align 4,,15
 2145              		.global	TIM_ClearOC4Ref
 2146              		.thumb
 2147              		.thumb_func
 2148              		.type	TIM_ClearOC4Ref, %function
 2149              	TIM_ClearOC4Ref:
 2150              	.LFB151:
 2151              		.loc 1 1563 0
 2152              		.cfi_startproc
 2153              		@ args = 0, pretend = 0, frame = 0
 2154              		@ frame_needed = 0, uses_anonymous_args = 0
 2155              		@ link register save eliminated.
 2156              	.LVL219:
 2157              		.loc 1 1570 0
 2158 0000 838B     		ldrh	r3, [r0, #28]
 2159              	.LVL220:
 2160              		.loc 1 1573 0
 2161 0002 C3F30E03 		ubfx	r3, r3, #0, #15
 2162              	.LVL221:
 2163              		.loc 1 1576 0
 2164 0006 43EA0121 		orr	r1, r3, r1, lsl #8
 2165              	.LVL222:
 2166 000a 89B2     		uxth	r1, r1
 2167              	.LVL223:
 2168              		.loc 1 1579 0
 2169 000c 8183     		strh	r1, [r0, #28]	@ movhi
 2170 000e 7047     		bx	lr
 2171              		.cfi_endproc
 2172              	.LFE151:
 2173              		.size	TIM_ClearOC4Ref, .-TIM_ClearOC4Ref
 2174              		.section	.text.TIM_OC1PolarityConfig,"ax",%progbits
ARM GAS  /var/folders/7z/kps_xzfj7sn5l5gkyq8s9db00000gn/T//ccc38Eju.s 			page 40


 2175              		.align	2
 2176              		.p2align 4,,15
 2177              		.global	TIM_OC1PolarityConfig
 2178              		.thumb
 2179              		.thumb_func
 2180              		.type	TIM_OC1PolarityConfig, %function
 2181              	TIM_OC1PolarityConfig:
 2182              	.LFB152:
 2183              		.loc 1 1592 0
 2184              		.cfi_startproc
 2185              		@ args = 0, pretend = 0, frame = 0
 2186              		@ frame_needed = 0, uses_anonymous_args = 0
 2187              		@ link register save eliminated.
 2188              	.LVL224:
 2189              		.loc 1 1599 0
 2190 0000 038C     		ldrh	r3, [r0, #32]
 2191              	.LVL225:
 2192              		.loc 1 1602 0
 2193 0002 23F00203 		bic	r3, r3, #2
 2194              	.LVL226:
 2195 0006 1B04     		lsls	r3, r3, #16
 2196 0008 1B0C     		lsrs	r3, r3, #16
 2197              	.LVL227:
 2198              		.loc 1 1603 0
 2199 000a 1943     		orrs	r1, r1, r3
 2200              	.LVL228:
 2201              		.loc 1 1606 0
 2202 000c 0184     		strh	r1, [r0, #32]	@ movhi
 2203 000e 7047     		bx	lr
 2204              		.cfi_endproc
 2205              	.LFE152:
 2206              		.size	TIM_OC1PolarityConfig, .-TIM_OC1PolarityConfig
 2207              		.section	.text.TIM_OC1NPolarityConfig,"ax",%progbits
 2208              		.align	2
 2209              		.p2align 4,,15
 2210              		.global	TIM_OC1NPolarityConfig
 2211              		.thumb
 2212              		.thumb_func
 2213              		.type	TIM_OC1NPolarityConfig, %function
 2214              	TIM_OC1NPolarityConfig:
 2215              	.LFB153:
 2216              		.loc 1 1619 0
 2217              		.cfi_startproc
 2218              		@ args = 0, pretend = 0, frame = 0
 2219              		@ frame_needed = 0, uses_anonymous_args = 0
 2220              		@ link register save eliminated.
 2221              	.LVL229:
 2222              		.loc 1 1625 0
 2223 0000 038C     		ldrh	r3, [r0, #32]
 2224              	.LVL230:
 2225              		.loc 1 1628 0
 2226 0002 23F00803 		bic	r3, r3, #8
 2227              	.LVL231:
 2228 0006 1B04     		lsls	r3, r3, #16
 2229 0008 1B0C     		lsrs	r3, r3, #16
 2230              	.LVL232:
 2231              		.loc 1 1629 0
ARM GAS  /var/folders/7z/kps_xzfj7sn5l5gkyq8s9db00000gn/T//ccc38Eju.s 			page 41


 2232 000a 1943     		orrs	r1, r1, r3
 2233              	.LVL233:
 2234              		.loc 1 1632 0
 2235 000c 0184     		strh	r1, [r0, #32]	@ movhi
 2236 000e 7047     		bx	lr
 2237              		.cfi_endproc
 2238              	.LFE153:
 2239              		.size	TIM_OC1NPolarityConfig, .-TIM_OC1NPolarityConfig
 2240              		.section	.text.TIM_OC2PolarityConfig,"ax",%progbits
 2241              		.align	2
 2242              		.p2align 4,,15
 2243              		.global	TIM_OC2PolarityConfig
 2244              		.thumb
 2245              		.thumb_func
 2246              		.type	TIM_OC2PolarityConfig, %function
 2247              	TIM_OC2PolarityConfig:
 2248              	.LFB154:
 2249              		.loc 1 1646 0
 2250              		.cfi_startproc
 2251              		@ args = 0, pretend = 0, frame = 0
 2252              		@ frame_needed = 0, uses_anonymous_args = 0
 2253              		@ link register save eliminated.
 2254              	.LVL234:
 2255              		.loc 1 1653 0
 2256 0000 038C     		ldrh	r3, [r0, #32]
 2257              	.LVL235:
 2258              		.loc 1 1656 0
 2259 0002 23F02003 		bic	r3, r3, #32
 2260              	.LVL236:
 2261 0006 1B04     		lsls	r3, r3, #16
 2262 0008 1B0C     		lsrs	r3, r3, #16
 2263              	.LVL237:
 2264              		.loc 1 1657 0
 2265 000a 43EA0111 		orr	r1, r3, r1, lsl #4
 2266              	.LVL238:
 2267 000e 89B2     		uxth	r1, r1
 2268              	.LVL239:
 2269              		.loc 1 1660 0
 2270 0010 0184     		strh	r1, [r0, #32]	@ movhi
 2271 0012 7047     		bx	lr
 2272              		.cfi_endproc
 2273              	.LFE154:
 2274              		.size	TIM_OC2PolarityConfig, .-TIM_OC2PolarityConfig
 2275 0014 AFF30080 		.section	.text.TIM_OC2NPolarityConfig,"ax",%progbits
 2275      AFF30080 
 2275      AFF30080 
 2276              		.align	2
 2277              		.p2align 4,,15
 2278              		.global	TIM_OC2NPolarityConfig
 2279              		.thumb
 2280              		.thumb_func
 2281              		.type	TIM_OC2NPolarityConfig, %function
 2282              	TIM_OC2NPolarityConfig:
 2283              	.LFB155:
 2284              		.loc 1 1673 0
 2285              		.cfi_startproc
 2286              		@ args = 0, pretend = 0, frame = 0
ARM GAS  /var/folders/7z/kps_xzfj7sn5l5gkyq8s9db00000gn/T//ccc38Eju.s 			page 42


 2287              		@ frame_needed = 0, uses_anonymous_args = 0
 2288              		@ link register save eliminated.
 2289              	.LVL240:
 2290              		.loc 1 1680 0
 2291 0000 038C     		ldrh	r3, [r0, #32]
 2292              	.LVL241:
 2293              		.loc 1 1683 0
 2294 0002 23F08003 		bic	r3, r3, #128
 2295              	.LVL242:
 2296 0006 1B04     		lsls	r3, r3, #16
 2297 0008 1B0C     		lsrs	r3, r3, #16
 2298              	.LVL243:
 2299              		.loc 1 1684 0
 2300 000a 43EA0111 		orr	r1, r3, r1, lsl #4
 2301              	.LVL244:
 2302 000e 89B2     		uxth	r1, r1
 2303              	.LVL245:
 2304              		.loc 1 1687 0
 2305 0010 0184     		strh	r1, [r0, #32]	@ movhi
 2306 0012 7047     		bx	lr
 2307              		.cfi_endproc
 2308              	.LFE155:
 2309              		.size	TIM_OC2NPolarityConfig, .-TIM_OC2NPolarityConfig
 2310 0014 AFF30080 		.section	.text.TIM_OC3PolarityConfig,"ax",%progbits
 2310      AFF30080 
 2310      AFF30080 
 2311              		.align	2
 2312              		.p2align 4,,15
 2313              		.global	TIM_OC3PolarityConfig
 2314              		.thumb
 2315              		.thumb_func
 2316              		.type	TIM_OC3PolarityConfig, %function
 2317              	TIM_OC3PolarityConfig:
 2318              	.LFB156:
 2319              		.loc 1 1700 0
 2320              		.cfi_startproc
 2321              		@ args = 0, pretend = 0, frame = 0
 2322              		@ frame_needed = 0, uses_anonymous_args = 0
 2323              		@ link register save eliminated.
 2324              	.LVL246:
 2325              		.loc 1 1707 0
 2326 0000 038C     		ldrh	r3, [r0, #32]
 2327              	.LVL247:
 2328              		.loc 1 1710 0
 2329 0002 23F40073 		bic	r3, r3, #512
 2330              	.LVL248:
 2331 0006 1B04     		lsls	r3, r3, #16
 2332 0008 1B0C     		lsrs	r3, r3, #16
 2333              	.LVL249:
 2334              		.loc 1 1711 0
 2335 000a 43EA0121 		orr	r1, r3, r1, lsl #8
 2336              	.LVL250:
 2337 000e 89B2     		uxth	r1, r1
 2338              	.LVL251:
 2339              		.loc 1 1714 0
 2340 0010 0184     		strh	r1, [r0, #32]	@ movhi
 2341 0012 7047     		bx	lr
ARM GAS  /var/folders/7z/kps_xzfj7sn5l5gkyq8s9db00000gn/T//ccc38Eju.s 			page 43


 2342              		.cfi_endproc
 2343              	.LFE156:
 2344              		.size	TIM_OC3PolarityConfig, .-TIM_OC3PolarityConfig
 2345 0014 AFF30080 		.section	.text.TIM_OC3NPolarityConfig,"ax",%progbits
 2345      AFF30080 
 2345      AFF30080 
 2346              		.align	2
 2347              		.p2align 4,,15
 2348              		.global	TIM_OC3NPolarityConfig
 2349              		.thumb
 2350              		.thumb_func
 2351              		.type	TIM_OC3NPolarityConfig, %function
 2352              	TIM_OC3NPolarityConfig:
 2353              	.LFB157:
 2354              		.loc 1 1727 0
 2355              		.cfi_startproc
 2356              		@ args = 0, pretend = 0, frame = 0
 2357              		@ frame_needed = 0, uses_anonymous_args = 0
 2358              		@ link register save eliminated.
 2359              	.LVL252:
 2360              		.loc 1 1734 0
 2361 0000 038C     		ldrh	r3, [r0, #32]
 2362              	.LVL253:
 2363              		.loc 1 1737 0
 2364 0002 23F40063 		bic	r3, r3, #2048
 2365              	.LVL254:
 2366 0006 1B04     		lsls	r3, r3, #16
 2367 0008 1B0C     		lsrs	r3, r3, #16
 2368              	.LVL255:
 2369              		.loc 1 1738 0
 2370 000a 43EA0121 		orr	r1, r3, r1, lsl #8
 2371              	.LVL256:
 2372 000e 89B2     		uxth	r1, r1
 2373              	.LVL257:
 2374              		.loc 1 1741 0
 2375 0010 0184     		strh	r1, [r0, #32]	@ movhi
 2376 0012 7047     		bx	lr
 2377              		.cfi_endproc
 2378              	.LFE157:
 2379              		.size	TIM_OC3NPolarityConfig, .-TIM_OC3NPolarityConfig
 2380 0014 AFF30080 		.section	.text.TIM_OC4PolarityConfig,"ax",%progbits
 2380      AFF30080 
 2380      AFF30080 
 2381              		.align	2
 2382              		.p2align 4,,15
 2383              		.global	TIM_OC4PolarityConfig
 2384              		.thumb
 2385              		.thumb_func
 2386              		.type	TIM_OC4PolarityConfig, %function
 2387              	TIM_OC4PolarityConfig:
 2388              	.LFB158:
 2389              		.loc 1 1754 0
 2390              		.cfi_startproc
 2391              		@ args = 0, pretend = 0, frame = 0
 2392              		@ frame_needed = 0, uses_anonymous_args = 0
 2393              		@ link register save eliminated.
 2394              	.LVL258:
ARM GAS  /var/folders/7z/kps_xzfj7sn5l5gkyq8s9db00000gn/T//ccc38Eju.s 			page 44


 2395              		.loc 1 1761 0
 2396 0000 038C     		ldrh	r3, [r0, #32]
 2397              	.LVL259:
 2398              		.loc 1 1764 0
 2399 0002 23F40053 		bic	r3, r3, #8192
 2400              	.LVL260:
 2401 0006 1B04     		lsls	r3, r3, #16
 2402 0008 1B0C     		lsrs	r3, r3, #16
 2403              	.LVL261:
 2404              		.loc 1 1765 0
 2405 000a 43EA0131 		orr	r1, r3, r1, lsl #12
 2406              	.LVL262:
 2407 000e 89B2     		uxth	r1, r1
 2408              	.LVL263:
 2409              		.loc 1 1768 0
 2410 0010 0184     		strh	r1, [r0, #32]	@ movhi
 2411 0012 7047     		bx	lr
 2412              		.cfi_endproc
 2413              	.LFE158:
 2414              		.size	TIM_OC4PolarityConfig, .-TIM_OC4PolarityConfig
 2415 0014 AFF30080 		.section	.text.TIM_CCxCmd,"ax",%progbits
 2415      AFF30080 
 2415      AFF30080 
 2416              		.align	2
 2417              		.p2align 4,,15
 2418              		.global	TIM_CCxCmd
 2419              		.thumb
 2420              		.thumb_func
 2421              		.type	TIM_CCxCmd, %function
 2422              	TIM_CCxCmd:
 2423              	.LFB159:
 2424              		.loc 1 1785 0
 2425              		.cfi_startproc
 2426              		@ args = 0, pretend = 0, frame = 0
 2427              		@ frame_needed = 0, uses_anonymous_args = 0
 2428              		@ link register save eliminated.
 2429              	.LVL264:
 2430 0000 10B4     		push	{r4}
 2431              		.cfi_def_cfa_offset 4
 2432              		.cfi_offset 4, -4
 2433              		.loc 1 1796 0
 2434 0002 048C     		ldrh	r4, [r0, #32]
 2435              		.loc 1 1793 0
 2436 0004 0123     		movs	r3, #1
 2437              		.loc 1 1796 0
 2438 0006 A4B2     		uxth	r4, r4
 2439              		.loc 1 1793 0
 2440 0008 8B40     		lsls	r3, r3, r1
 2441              		.loc 1 1796 0
 2442 000a 24EA0303 		bic	r3, r4, r3
 2443 000e 0384     		strh	r3, [r0, #32]	@ movhi
 2444              		.loc 1 1799 0
 2445 0010 038C     		ldrh	r3, [r0, #32]
 2446              		.loc 1 1800 0
 2447 0012 5DF8044B 		ldr	r4, [sp], #4
 2448              		.cfi_restore 4
 2449              		.cfi_def_cfa_offset 0
ARM GAS  /var/folders/7z/kps_xzfj7sn5l5gkyq8s9db00000gn/T//ccc38Eju.s 			page 45


 2450              		.loc 1 1799 0
 2451 0016 8A40     		lsls	r2, r2, r1
 2452              	.LVL265:
 2453 0018 1343     		orrs	r3, r3, r2
 2454 001a 9BB2     		uxth	r3, r3
 2455 001c 0384     		strh	r3, [r0, #32]	@ movhi
 2456              		.loc 1 1800 0
 2457 001e 7047     		bx	lr
 2458              		.cfi_endproc
 2459              	.LFE159:
 2460              		.size	TIM_CCxCmd, .-TIM_CCxCmd
 2461              		.section	.text.TIM_CCxNCmd,"ax",%progbits
 2462              		.align	2
 2463              		.p2align 4,,15
 2464              		.global	TIM_CCxNCmd
 2465              		.thumb
 2466              		.thumb_func
 2467              		.type	TIM_CCxNCmd, %function
 2468              	TIM_CCxNCmd:
 2469              	.LFB160:
 2470              		.loc 1 1815 0
 2471              		.cfi_startproc
 2472              		@ args = 0, pretend = 0, frame = 0
 2473              		@ frame_needed = 0, uses_anonymous_args = 0
 2474              		@ link register save eliminated.
 2475              	.LVL266:
 2476 0000 10B4     		push	{r4}
 2477              		.cfi_def_cfa_offset 4
 2478              		.cfi_offset 4, -4
 2479              		.loc 1 1826 0
 2480 0002 048C     		ldrh	r4, [r0, #32]
 2481              		.loc 1 1823 0
 2482 0004 0423     		movs	r3, #4
 2483              		.loc 1 1826 0
 2484 0006 A4B2     		uxth	r4, r4
 2485              		.loc 1 1823 0
 2486 0008 8B40     		lsls	r3, r3, r1
 2487              		.loc 1 1826 0
 2488 000a 24EA0303 		bic	r3, r4, r3
 2489 000e 0384     		strh	r3, [r0, #32]	@ movhi
 2490              		.loc 1 1829 0
 2491 0010 038C     		ldrh	r3, [r0, #32]
 2492              		.loc 1 1830 0
 2493 0012 5DF8044B 		ldr	r4, [sp], #4
 2494              		.cfi_restore 4
 2495              		.cfi_def_cfa_offset 0
 2496              		.loc 1 1829 0
 2497 0016 8A40     		lsls	r2, r2, r1
 2498              	.LVL267:
 2499 0018 1343     		orrs	r3, r3, r2
 2500 001a 9BB2     		uxth	r3, r3
 2501 001c 0384     		strh	r3, [r0, #32]	@ movhi
 2502              		.loc 1 1830 0
 2503 001e 7047     		bx	lr
 2504              		.cfi_endproc
 2505              	.LFE160:
 2506              		.size	TIM_CCxNCmd, .-TIM_CCxNCmd
ARM GAS  /var/folders/7z/kps_xzfj7sn5l5gkyq8s9db00000gn/T//ccc38Eju.s 			page 46


 2507              		.section	.text.TIM_ICInit,"ax",%progbits
 2508              		.align	2
 2509              		.p2align 4,,15
 2510              		.global	TIM_ICInit
 2511              		.thumb
 2512              		.thumb_func
 2513              		.type	TIM_ICInit, %function
 2514              	TIM_ICInit:
 2515              	.LFB161:
 2516              		.loc 1 1897 0
 2517              		.cfi_startproc
 2518              		@ args = 0, pretend = 0, frame = 0
 2519              		@ frame_needed = 0, uses_anonymous_args = 0
 2520              	.LVL268:
 2521              		.loc 1 1905 0
 2522 0000 0B88     		ldrh	r3, [r1]
 2523              		.loc 1 1897 0
 2524 0002 F0B5     		push	{r4, r5, r6, r7, lr}
 2525              		.cfi_def_cfa_offset 20
 2526              		.cfi_offset 4, -20
 2527              		.cfi_offset 5, -16
 2528              		.cfi_offset 6, -12
 2529              		.cfi_offset 7, -8
 2530              		.cfi_offset 14, -4
 2531              		.loc 1 1905 0
 2532 0004 002B     		cmp	r3, #0
 2533 0006 32D0     		beq	.L142
 2534              		.loc 1 1914 0
 2535 0008 042B     		cmp	r3, #4
 2536 000a 57D0     		beq	.L143
 2537              		.loc 1 1924 0
 2538 000c 082B     		cmp	r3, #8
 2539 000e 00F08380 		beq	.L144
 2540              	.LBB46:
 2541              	.LBB47:
 2542              		.loc 1 3327 0
 2543 0012 028C     		ldrh	r2, [r0, #32]
 2544              	.LBE47:
 2545              	.LBE46:
 2546              		.loc 1 1938 0
 2547 0014 4F88     		ldrh	r7, [r1, #2]
 2548 0016 B1F804E0 		ldrh	lr, [r1, #4]
 2549 001a 0E89     		ldrh	r6, [r1, #8]
 2550              	.LVL269:
 2551              		.loc 1 1942 0
 2552 001c CD88     		ldrh	r5, [r1, #6]
 2553              	.LBB49:
 2554              	.LBB48:
 2555              		.loc 1 3327 0
 2556 001e 22F48052 		bic	r2, r2, #4096
 2557 0022 1204     		lsls	r2, r2, #16
 2558 0024 120C     		lsrs	r2, r2, #16
 2559 0026 0284     		strh	r2, [r0, #32]	@ movhi
 2560              		.loc 1 3328 0
 2561 0028 848B     		ldrh	r4, [r0, #28]
 2562              	.LVL270:
 2563              		.loc 1 3329 0
ARM GAS  /var/folders/7z/kps_xzfj7sn5l5gkyq8s9db00000gn/T//ccc38Eju.s 			page 47


 2564 002a 028C     		ldrh	r2, [r0, #32]
 2565              	.LVL271:
 2566              		.loc 1 3333 0
 2567 002c 24F44071 		bic	r1, r4, #768
 2568              	.LVL272:
 2569              		.loc 1 3338 0
 2570 0030 22F40053 		bic	r3, r2, #8192
 2571              		.loc 1 3333 0
 2572 0034 0905     		lsls	r1, r1, #20
 2573              		.loc 1 3338 0
 2574 0036 5B04     		lsls	r3, r3, #17
 2575              		.loc 1 3333 0
 2576 0038 090D     		lsrs	r1, r1, #20
 2577              	.LVL273:
 2578              		.loc 1 3338 0
 2579 003a 5B0C     		lsrs	r3, r3, #17
 2580              		.loc 1 3334 0
 2581 003c 41EA0E21 		orr	r1, r1, lr, lsl #8
 2582              	.LVL274:
 2583              		.loc 1 3339 0
 2584 0040 43EA0733 		orr	r3, r3, r7, lsl #12
 2585              		.loc 1 3335 0
 2586 0044 41EA0631 		orr	r1, r1, r6, lsl #12
 2587              	.LVL275:
 2588              		.loc 1 3339 0
 2589 0048 9BB2     		uxth	r3, r3
 2590 004a 43F48053 		orr	r3, r3, #4096
 2591              		.loc 1 3335 0
 2592 004e 89B2     		uxth	r1, r1
 2593              	.LVL276:
 2594              		.loc 1 3342 0
 2595 0050 8183     		strh	r1, [r0, #28]	@ movhi
 2596              		.loc 1 3343 0
 2597 0052 0384     		strh	r3, [r0, #32]	@ movhi
 2598              	.LBE48:
 2599              	.LBE49:
 2600              	.LBB50:
 2601              	.LBB51:
 2602              		.loc 1 2171 0
 2603 0054 828B     		ldrh	r2, [r0, #28]
 2604 0056 22F44062 		bic	r2, r2, #3072
 2605 005a 1204     		lsls	r2, r2, #16
 2606 005c 120C     		lsrs	r2, r2, #16
 2607 005e 8283     		strh	r2, [r0, #28]	@ movhi
 2608              		.loc 1 2174 0
 2609 0060 838B     		ldrh	r3, [r0, #28]
 2610              	.LVL277:
 2611 0062 9BB2     		uxth	r3, r3
 2612 0064 43EA0523 		orr	r3, r3, r5, lsl #8
 2613 0068 9BB2     		uxth	r3, r3
 2614 006a 8383     		strh	r3, [r0, #28]	@ movhi
 2615 006c F0BD     		pop	{r4, r5, r6, r7, pc}
 2616              	.LVL278:
 2617              	.L142:
 2618              	.LBE51:
 2619              	.LBE50:
 2620              	.LBB52:
ARM GAS  /var/folders/7z/kps_xzfj7sn5l5gkyq8s9db00000gn/T//ccc38Eju.s 			page 48


 2621              	.LBB53:
 2622              		.loc 1 3203 0
 2623 006e 028C     		ldrh	r2, [r0, #32]
 2624              	.LBE53:
 2625              	.LBE52:
 2626              		.loc 1 1908 0
 2627 0070 4E88     		ldrh	r6, [r1, #2]
 2628 0072 8D88     		ldrh	r5, [r1, #4]
 2629 0074 0B89     		ldrh	r3, [r1, #8]
 2630              	.LVL279:
 2631              		.loc 1 1912 0
 2632 0076 CC88     		ldrh	r4, [r1, #6]
 2633              	.LBB55:
 2634              	.LBB54:
 2635              		.loc 1 3203 0
 2636 0078 22F00102 		bic	r2, r2, #1
 2637 007c 1204     		lsls	r2, r2, #16
 2638 007e 120C     		lsrs	r2, r2, #16
 2639 0080 0284     		strh	r2, [r0, #32]	@ movhi
 2640              		.loc 1 3204 0
 2641 0082 028B     		ldrh	r2, [r0, #24]
 2642              		.loc 1 3205 0
 2643 0084 018C     		ldrh	r1, [r0, #32]
 2644              	.LVL280:
 2645              		.loc 1 3204 0
 2646 0086 92B2     		uxth	r2, r2
 2647              	.LVL281:
 2648              		.loc 1 3208 0
 2649 0088 22F0F302 		bic	r2, r2, #243
 2650              	.LVL282:
 2651              		.loc 1 3212 0
 2652 008c 21F00A01 		bic	r1, r1, #10
 2653              	.LVL283:
 2654 0090 42EA0313 		orr	r3, r2, r3, lsl #4
 2655              	.LVL284:
 2656 0094 0904     		lsls	r1, r1, #16
 2657 0096 46F00102 		orr	r2, r6, #1
 2658 009a 9BB2     		uxth	r3, r3
 2659 009c 090C     		lsrs	r1, r1, #16
 2660              		.loc 1 3209 0
 2661 009e 2B43     		orrs	r3, r3, r5
 2662              	.LVL285:
 2663              		.loc 1 3213 0
 2664 00a0 1143     		orrs	r1, r1, r2
 2665              	.LVL286:
 2666              		.loc 1 3216 0
 2667 00a2 0383     		strh	r3, [r0, #24]	@ movhi
 2668              		.loc 1 3217 0
 2669 00a4 0184     		strh	r1, [r0, #32]	@ movhi
 2670              	.LBE54:
 2671              	.LBE55:
 2672              	.LBB56:
 2673              	.LBB57:
 2674              		.loc 1 2098 0
 2675 00a6 038B     		ldrh	r3, [r0, #24]
 2676              	.LVL287:
 2677 00a8 23F00C03 		bic	r3, r3, #12
ARM GAS  /var/folders/7z/kps_xzfj7sn5l5gkyq8s9db00000gn/T//ccc38Eju.s 			page 49


 2678 00ac 1B04     		lsls	r3, r3, #16
 2679 00ae 1B0C     		lsrs	r3, r3, #16
 2680 00b0 0383     		strh	r3, [r0, #24]	@ movhi
 2681              		.loc 1 2101 0
 2682 00b2 038B     		ldrh	r3, [r0, #24]
 2683 00b4 9BB2     		uxth	r3, r3
 2684 00b6 1C43     		orrs	r4, r4, r3
 2685              	.LVL288:
 2686 00b8 0483     		strh	r4, [r0, #24]	@ movhi
 2687 00ba F0BD     		pop	{r4, r5, r6, r7, pc}
 2688              	.LVL289:
 2689              	.L143:
 2690              	.LBE57:
 2691              	.LBE56:
 2692              	.LBB58:
 2693              	.LBB59:
 2694              		.loc 1 3244 0
 2695 00bc 058C     		ldrh	r5, [r0, #32]
 2696              	.LBE59:
 2697              	.LBE58:
 2698              		.loc 1 1918 0
 2699 00be 4F88     		ldrh	r7, [r1, #2]
 2700 00c0 8E88     		ldrh	r6, [r1, #4]
 2701 00c2 B1F808E0 		ldrh	lr, [r1, #8]
 2702              	.LVL290:
 2703              		.loc 1 1922 0
 2704 00c6 CC88     		ldrh	r4, [r1, #6]
 2705              	.LBB61:
 2706              	.LBB60:
 2707              		.loc 1 3244 0
 2708 00c8 25F01001 		bic	r1, r5, #16
 2709              	.LVL291:
 2710 00cc 0904     		lsls	r1, r1, #16
 2711 00ce 090C     		lsrs	r1, r1, #16
 2712 00d0 0184     		strh	r1, [r0, #32]	@ movhi
 2713              		.loc 1 3245 0
 2714 00d2 028B     		ldrh	r2, [r0, #24]
 2715              	.LVL292:
 2716              		.loc 1 3246 0
 2717 00d4 018C     		ldrh	r1, [r0, #32]
 2718              		.loc 1 3250 0
 2719 00d6 22F44073 		bic	r3, r2, #768
 2720 00da 1B05     		lsls	r3, r3, #20
 2721 00dc 1B0D     		lsrs	r3, r3, #20
 2722              		.loc 1 3246 0
 2723 00de 8AB2     		uxth	r2, r1
 2724              	.LVL293:
 2725              		.loc 1 3251 0
 2726 00e0 43EA0E33 		orr	r3, r3, lr, lsl #12
 2727              	.LVL294:
 2728              		.loc 1 3255 0
 2729 00e4 22F0A002 		bic	r2, r2, #160
 2730              	.LVL295:
 2731              		.loc 1 3251 0
 2732 00e8 9BB2     		uxth	r3, r3
 2733              	.LVL296:
 2734              		.loc 1 3256 0
ARM GAS  /var/folders/7z/kps_xzfj7sn5l5gkyq8s9db00000gn/T//ccc38Eju.s 			page 50


 2735 00ea 42EA0712 		orr	r2, r2, r7, lsl #4
 2736              		.loc 1 3252 0
 2737 00ee 43EA0623 		orr	r3, r3, r6, lsl #8
 2738              	.LVL297:
 2739              		.loc 1 3256 0
 2740 00f2 92B2     		uxth	r2, r2
 2741              		.loc 1 3252 0
 2742 00f4 9BB2     		uxth	r3, r3
 2743              	.LVL298:
 2744              		.loc 1 3256 0
 2745 00f6 42F01002 		orr	r2, r2, #16
 2746              	.LVL299:
 2747              		.loc 1 3259 0
 2748 00fa 0383     		strh	r3, [r0, #24]	@ movhi
 2749              		.loc 1 3260 0
 2750 00fc 0284     		strh	r2, [r0, #32]	@ movhi
 2751              	.LBE60:
 2752              	.LBE61:
 2753              	.LBB62:
 2754              	.LBB63:
 2755              		.loc 1 2123 0
 2756 00fe 038B     		ldrh	r3, [r0, #24]
 2757              	.LVL300:
 2758 0100 23F44063 		bic	r3, r3, #3072
 2759 0104 1B04     		lsls	r3, r3, #16
 2760 0106 1B0C     		lsrs	r3, r3, #16
 2761 0108 0383     		strh	r3, [r0, #24]	@ movhi
 2762              		.loc 1 2126 0
 2763 010a 038B     		ldrh	r3, [r0, #24]
 2764 010c 9BB2     		uxth	r3, r3
 2765 010e 43EA0423 		orr	r3, r3, r4, lsl #8
 2766 0112 9BB2     		uxth	r3, r3
 2767 0114 0383     		strh	r3, [r0, #24]	@ movhi
 2768 0116 F0BD     		pop	{r4, r5, r6, r7, pc}
 2769              	.LVL301:
 2770              	.L144:
 2771              	.LBE63:
 2772              	.LBE62:
 2773              	.LBB64:
 2774              	.LBB65:
 2775              		.loc 1 3286 0
 2776 0118 068C     		ldrh	r6, [r0, #32]
 2777              	.LBE65:
 2778              	.LBE64:
 2779              		.loc 1 1928 0
 2780 011a 4F88     		ldrh	r7, [r1, #2]
 2781 011c 8D88     		ldrh	r5, [r1, #4]
 2782 011e 0A89     		ldrh	r2, [r1, #8]
 2783              	.LVL302:
 2784              		.loc 1 1932 0
 2785 0120 CC88     		ldrh	r4, [r1, #6]
 2786              	.LBB67:
 2787              	.LBB66:
 2788              		.loc 1 3286 0
 2789 0122 26F48071 		bic	r1, r6, #256
 2790              	.LVL303:
 2791 0126 0904     		lsls	r1, r1, #16
ARM GAS  /var/folders/7z/kps_xzfj7sn5l5gkyq8s9db00000gn/T//ccc38Eju.s 			page 51


 2792 0128 090C     		lsrs	r1, r1, #16
 2793 012a 0184     		strh	r1, [r0, #32]	@ movhi
 2794              		.loc 1 3287 0
 2795 012c 818B     		ldrh	r1, [r0, #28]
 2796              		.loc 1 3288 0
 2797 012e 038C     		ldrh	r3, [r0, #32]
 2798              		.loc 1 3287 0
 2799 0130 89B2     		uxth	r1, r1
 2800              	.LVL304:
 2801              		.loc 1 3288 0
 2802 0132 9BB2     		uxth	r3, r3
 2803              	.LVL305:
 2804              		.loc 1 3292 0
 2805 0134 21F0F301 		bic	r1, r1, #243
 2806              	.LVL306:
 2807              		.loc 1 3296 0
 2808 0138 23F42063 		bic	r3, r3, #2560
 2809              	.LVL307:
 2810 013c 41EA0212 		orr	r2, r1, r2, lsl #4
 2811              	.LVL308:
 2812              		.loc 1 3297 0
 2813 0140 43EA0723 		orr	r3, r3, r7, lsl #8
 2814 0144 92B2     		uxth	r2, r2
 2815 0146 9BB2     		uxth	r3, r3
 2816 0148 43F48073 		orr	r3, r3, #256
 2817              		.loc 1 3293 0
 2818 014c 2A43     		orrs	r2, r2, r5
 2819              	.LVL309:
 2820              		.loc 1 3300 0
 2821 014e 8283     		strh	r2, [r0, #28]	@ movhi
 2822              		.loc 1 3301 0
 2823 0150 0384     		strh	r3, [r0, #32]	@ movhi
 2824              	.LBE66:
 2825              	.LBE67:
 2826              	.LBB68:
 2827              	.LBB69:
 2828              		.loc 1 2147 0
 2829 0152 838B     		ldrh	r3, [r0, #28]
 2830              	.LVL310:
 2831 0154 23F00C03 		bic	r3, r3, #12
 2832 0158 1B04     		lsls	r3, r3, #16
 2833 015a 1B0C     		lsrs	r3, r3, #16
 2834 015c 8383     		strh	r3, [r0, #28]	@ movhi
 2835              	.LVL311:
 2836              		.loc 1 2150 0
 2837 015e 838B     		ldrh	r3, [r0, #28]
 2838 0160 9BB2     		uxth	r3, r3
 2839 0162 1C43     		orrs	r4, r4, r3
 2840              	.LVL312:
 2841 0164 8483     		strh	r4, [r0, #28]	@ movhi
 2842 0166 F0BD     		pop	{r4, r5, r6, r7, pc}
 2843              	.LBE69:
 2844              	.LBE68:
 2845              		.cfi_endproc
 2846              	.LFE161:
 2847              		.size	TIM_ICInit, .-TIM_ICInit
 2848 0168 AFF30080 		.section	.text.TIM_ICStructInit,"ax",%progbits
ARM GAS  /var/folders/7z/kps_xzfj7sn5l5gkyq8s9db00000gn/T//ccc38Eju.s 			page 52


 2848      AFF30080 
 2849              		.align	2
 2850              		.p2align 4,,15
 2851              		.global	TIM_ICStructInit
 2852              		.thumb
 2853              		.thumb_func
 2854              		.type	TIM_ICStructInit, %function
 2855              	TIM_ICStructInit:
 2856              	.LFB162:
 2857              		.loc 1 1953 0
 2858              		.cfi_startproc
 2859              		@ args = 0, pretend = 0, frame = 0
 2860              		@ frame_needed = 0, uses_anonymous_args = 0
 2861              		@ link register save eliminated.
 2862              	.LVL313:
 2863              		.loc 1 1955 0
 2864 0000 0023     		movs	r3, #0
 2865              		.loc 1 1957 0
 2866 0002 0122     		movs	r2, #1
 2867 0004 8280     		strh	r2, [r0, #4]	@ movhi
 2868              		.loc 1 1955 0
 2869 0006 0380     		strh	r3, [r0]	@ movhi
 2870              		.loc 1 1956 0
 2871 0008 4380     		strh	r3, [r0, #2]	@ movhi
 2872              		.loc 1 1958 0
 2873 000a C380     		strh	r3, [r0, #6]	@ movhi
 2874              		.loc 1 1959 0
 2875 000c 0381     		strh	r3, [r0, #8]	@ movhi
 2876 000e 7047     		bx	lr
 2877              		.cfi_endproc
 2878              	.LFE162:
 2879              		.size	TIM_ICStructInit, .-TIM_ICStructInit
 2880              		.section	.text.TIM_PWMIConfig,"ax",%progbits
 2881              		.align	2
 2882              		.p2align 4,,15
 2883              		.global	TIM_PWMIConfig
 2884              		.thumb
 2885              		.thumb_func
 2886              		.type	TIM_PWMIConfig, %function
 2887              	TIM_PWMIConfig:
 2888              	.LFB163:
 2889              		.loc 1 1972 0
 2890              		.cfi_startproc
 2891              		@ args = 0, pretend = 0, frame = 0
 2892              		@ frame_needed = 0, uses_anonymous_args = 0
 2893              	.LVL314:
 2894              		.loc 1 1980 0
 2895 0000 B1F802C0 		ldrh	ip, [r1, #2]
 2896              		.loc 1 1997 0
 2897 0004 0B88     		ldrh	r3, [r1]
 2898              		.loc 1 1972 0
 2899 0006 F0B5     		push	{r4, r5, r6, r7, lr}
 2900              		.cfi_def_cfa_offset 20
 2901              		.cfi_offset 4, -20
 2902              		.cfi_offset 5, -16
 2903              		.cfi_offset 6, -12
 2904              		.cfi_offset 7, -8
ARM GAS  /var/folders/7z/kps_xzfj7sn5l5gkyq8s9db00000gn/T//ccc38Eju.s 			page 53


 2905              		.cfi_offset 14, -4
 2906              		.loc 1 1989 0
 2907 0008 B1F804E0 		ldrh	lr, [r1, #4]
 2908              		.loc 1 1980 0
 2909 000c BCF1000F 		cmp	ip, #0
 2910              		.loc 1 1986 0
 2911 0010 0CBF     		ite	eq
 2912 0012 0224     		moveq	r4, #2
 2913 0014 0024     		movne	r4, #0
 2914              	.LVL315:
 2915              		.loc 1 1989 0
 2916 0016 BEF1010F 		cmp	lr, #1
 2917              		.loc 1 1995 0
 2918 001a 0CBF     		ite	eq
 2919 001c 0225     		moveq	r5, #2
 2920 001e 0125     		movne	r5, #1
 2921              	.LVL316:
 2922              		.loc 1 1997 0
 2923 0020 002B     		cmp	r3, #0
 2924 0022 4BD0     		beq	.L154
 2925              	.LBB70:
 2926              	.LBB71:
 2927              		.loc 1 3244 0
 2928 0024 038C     		ldrh	r3, [r0, #32]
 2929              	.LBE71:
 2930              	.LBE70:
 2931              		.loc 1 2012 0
 2932 0026 0E89     		ldrh	r6, [r1, #8]
 2933              	.LVL317:
 2934              		.loc 1 2015 0
 2935 0028 C988     		ldrh	r1, [r1, #6]
 2936              	.LVL318:
 2937              	.LBB73:
 2938              	.LBB72:
 2939              		.loc 1 3244 0
 2940 002a 23F01003 		bic	r3, r3, #16
 2941 002e 1B04     		lsls	r3, r3, #16
 2942 0030 1B0C     		lsrs	r3, r3, #16
 2943 0032 0384     		strh	r3, [r0, #32]	@ movhi
 2944              		.loc 1 3245 0
 2945 0034 028B     		ldrh	r2, [r0, #24]
 2946              	.LVL319:
 2947              		.loc 1 3246 0
 2948 0036 078C     		ldrh	r7, [r0, #32]
 2949              		.loc 1 3250 0
 2950 0038 22F44073 		bic	r3, r2, #768
 2951 003c 1B05     		lsls	r3, r3, #20
 2952 003e 1B0D     		lsrs	r3, r3, #20
 2953              		.loc 1 3246 0
 2954 0040 BAB2     		uxth	r2, r7
 2955              	.LVL320:
 2956              		.loc 1 3251 0
 2957 0042 43EA0633 		orr	r3, r3, r6, lsl #12
 2958              	.LVL321:
 2959              		.loc 1 3255 0
 2960 0046 22F0A002 		bic	r2, r2, #160
 2961              	.LVL322:
ARM GAS  /var/folders/7z/kps_xzfj7sn5l5gkyq8s9db00000gn/T//ccc38Eju.s 			page 54


 2962              		.loc 1 3251 0
 2963 004a 9BB2     		uxth	r3, r3
 2964              	.LVL323:
 2965              		.loc 1 3256 0
 2966 004c 42EA0C12 		orr	r2, r2, ip, lsl #4
 2967              		.loc 1 3252 0
 2968 0050 43EA0E23 		orr	r3, r3, lr, lsl #8
 2969              	.LVL324:
 2970              		.loc 1 3256 0
 2971 0054 92B2     		uxth	r2, r2
 2972              		.loc 1 3252 0
 2973 0056 9BB2     		uxth	r3, r3
 2974              	.LVL325:
 2975              		.loc 1 3256 0
 2976 0058 42F01002 		orr	r2, r2, #16
 2977              	.LVL326:
 2978              		.loc 1 3259 0
 2979 005c 0383     		strh	r3, [r0, #24]	@ movhi
 2980              		.loc 1 3260 0
 2981 005e 0284     		strh	r2, [r0, #32]	@ movhi
 2982              	.LBE72:
 2983              	.LBE73:
 2984              	.LBB74:
 2985              	.LBB75:
 2986              		.loc 1 2123 0
 2987 0060 038B     		ldrh	r3, [r0, #24]
 2988              	.LVL327:
 2989 0062 23F44063 		bic	r3, r3, #3072
 2990 0066 1B04     		lsls	r3, r3, #16
 2991 0068 1B0C     		lsrs	r3, r3, #16
 2992 006a 0383     		strh	r3, [r0, #24]	@ movhi
 2993              		.loc 1 2126 0
 2994 006c 038B     		ldrh	r3, [r0, #24]
 2995 006e 9BB2     		uxth	r3, r3
 2996 0070 43EA0123 		orr	r3, r3, r1, lsl #8
 2997 0074 9BB2     		uxth	r3, r3
 2998 0076 0383     		strh	r3, [r0, #24]	@ movhi
 2999              	.LVL328:
 3000              	.LBE75:
 3001              	.LBE74:
 3002              	.LBB76:
 3003              	.LBB77:
 3004              		.loc 1 3203 0
 3005 0078 038C     		ldrh	r3, [r0, #32]
 3006 007a 23F00103 		bic	r3, r3, #1
 3007 007e 1B04     		lsls	r3, r3, #16
 3008 0080 1B0C     		lsrs	r3, r3, #16
 3009 0082 0384     		strh	r3, [r0, #32]	@ movhi
 3010              		.loc 1 3204 0
 3011 0084 038B     		ldrh	r3, [r0, #24]
 3012              		.loc 1 3205 0
 3013 0086 028C     		ldrh	r2, [r0, #32]
 3014              	.LVL329:
 3015              		.loc 1 3204 0
 3016 0088 9BB2     		uxth	r3, r3
 3017              	.LVL330:
 3018              		.loc 1 3208 0
ARM GAS  /var/folders/7z/kps_xzfj7sn5l5gkyq8s9db00000gn/T//ccc38Eju.s 			page 55


 3019 008a 23F0F303 		bic	r3, r3, #243
 3020              	.LVL331:
 3021              		.loc 1 3205 0
 3022 008e 92B2     		uxth	r2, r2
 3023              	.LVL332:
 3024 0090 43EA0616 		orr	r6, r3, r6, lsl #4
 3025              	.LVL333:
 3026              		.loc 1 3212 0
 3027 0094 22F00A03 		bic	r3, r2, #10
 3028 0098 43F00103 		orr	r3, r3, #1
 3029 009c B6B2     		uxth	r6, r6
 3030              		.loc 1 3213 0
 3031 009e 1C43     		orrs	r4, r4, r3
 3032              	.LVL334:
 3033              		.loc 1 3209 0
 3034 00a0 2E43     		orrs	r6, r6, r5
 3035              	.LVL335:
 3036              		.loc 1 3216 0
 3037 00a2 0683     		strh	r6, [r0, #24]	@ movhi
 3038              		.loc 1 3217 0
 3039 00a4 0484     		strh	r4, [r0, #32]	@ movhi
 3040              	.LVL336:
 3041              	.LBE77:
 3042              	.LBE76:
 3043              	.LBB78:
 3044              	.LBB79:
 3045              		.loc 1 2098 0
 3046 00a6 038B     		ldrh	r3, [r0, #24]
 3047 00a8 23F00C03 		bic	r3, r3, #12
 3048 00ac 1B04     		lsls	r3, r3, #16
 3049 00ae 1B0C     		lsrs	r3, r3, #16
 3050 00b0 0383     		strh	r3, [r0, #24]	@ movhi
 3051              		.loc 1 2101 0
 3052 00b2 038B     		ldrh	r3, [r0, #24]
 3053 00b4 9BB2     		uxth	r3, r3
 3054 00b6 1943     		orrs	r1, r1, r3
 3055              	.LVL337:
 3056 00b8 0183     		strh	r1, [r0, #24]	@ movhi
 3057 00ba F0BD     		pop	{r4, r5, r6, r7, pc}
 3058              	.LVL338:
 3059              	.L154:
 3060              	.LBE79:
 3061              	.LBE78:
 3062              	.LBB80:
 3063              	.LBB81:
 3064              		.loc 1 3203 0
 3065 00bc 038C     		ldrh	r3, [r0, #32]
 3066              	.LBE81:
 3067              	.LBE80:
 3068              		.loc 1 2000 0
 3069 00be 0F89     		ldrh	r7, [r1, #8]
 3070              	.LVL339:
 3071              		.loc 1 2003 0
 3072 00c0 CE88     		ldrh	r6, [r1, #6]
 3073              	.LBB83:
 3074              	.LBB82:
 3075              		.loc 1 3203 0
ARM GAS  /var/folders/7z/kps_xzfj7sn5l5gkyq8s9db00000gn/T//ccc38Eju.s 			page 56


 3076 00c2 23F00103 		bic	r3, r3, #1
 3077 00c6 1B04     		lsls	r3, r3, #16
 3078 00c8 1B0C     		lsrs	r3, r3, #16
 3079 00ca 0384     		strh	r3, [r0, #32]	@ movhi
 3080              		.loc 1 3204 0
 3081 00cc 018B     		ldrh	r1, [r0, #24]
 3082              	.LVL340:
 3083              		.loc 1 3205 0
 3084 00ce 038C     		ldrh	r3, [r0, #32]
 3085              		.loc 1 3204 0
 3086 00d0 89B2     		uxth	r1, r1
 3087              	.LVL341:
 3088              		.loc 1 3208 0
 3089 00d2 21F0F301 		bic	r1, r1, #243
 3090              	.LVL342:
 3091              		.loc 1 3212 0
 3092 00d6 23F00A03 		bic	r3, r3, #10
 3093              	.LVL343:
 3094 00da 41EA0711 		orr	r1, r1, r7, lsl #4
 3095 00de 1B04     		lsls	r3, r3, #16
 3096 00e0 4CF00102 		orr	r2, ip, #1
 3097 00e4 89B2     		uxth	r1, r1
 3098 00e6 1B0C     		lsrs	r3, r3, #16
 3099              		.loc 1 3213 0
 3100 00e8 1343     		orrs	r3, r3, r2
 3101              		.loc 1 3209 0
 3102 00ea 41EA0E0E 		orr	lr, r1, lr
 3103              	.LVL344:
 3104              		.loc 1 3216 0
 3105 00ee A0F818E0 		strh	lr, [r0, #24]	@ movhi
 3106              		.loc 1 3217 0
 3107 00f2 0384     		strh	r3, [r0, #32]	@ movhi
 3108              	.LBE82:
 3109              	.LBE83:
 3110              	.LBB84:
 3111              	.LBB85:
 3112              		.loc 1 2098 0
 3113 00f4 038B     		ldrh	r3, [r0, #24]
 3114              	.LVL345:
 3115 00f6 23F00C03 		bic	r3, r3, #12
 3116 00fa 1B04     		lsls	r3, r3, #16
 3117 00fc 1B0C     		lsrs	r3, r3, #16
 3118 00fe 0383     		strh	r3, [r0, #24]	@ movhi
 3119              	.LVL346:
 3120              		.loc 1 2101 0
 3121 0100 038B     		ldrh	r3, [r0, #24]
 3122 0102 9BB2     		uxth	r3, r3
 3123 0104 3343     		orrs	r3, r3, r6
 3124 0106 0383     		strh	r3, [r0, #24]	@ movhi
 3125              	.LVL347:
 3126              	.LBE85:
 3127              	.LBE84:
 3128              	.LBB86:
 3129              	.LBB87:
 3130              		.loc 1 3244 0
 3131 0108 038C     		ldrh	r3, [r0, #32]
 3132 010a 23F01003 		bic	r3, r3, #16
ARM GAS  /var/folders/7z/kps_xzfj7sn5l5gkyq8s9db00000gn/T//ccc38Eju.s 			page 57


 3133 010e 1B04     		lsls	r3, r3, #16
 3134 0110 1B0C     		lsrs	r3, r3, #16
 3135 0112 0384     		strh	r3, [r0, #32]	@ movhi
 3136              		.loc 1 3245 0
 3137 0114 028B     		ldrh	r2, [r0, #24]
 3138              	.LVL348:
 3139              		.loc 1 3246 0
 3140 0116 018C     		ldrh	r1, [r0, #32]
 3141              		.loc 1 3250 0
 3142 0118 22F44073 		bic	r3, r2, #768
 3143 011c 1B05     		lsls	r3, r3, #20
 3144 011e 1B0D     		lsrs	r3, r3, #20
 3145              		.loc 1 3246 0
 3146 0120 8AB2     		uxth	r2, r1
 3147              	.LVL349:
 3148              		.loc 1 3251 0
 3149 0122 43EA0733 		orr	r3, r3, r7, lsl #12
 3150              	.LVL350:
 3151              		.loc 1 3255 0
 3152 0126 22F0A002 		bic	r2, r2, #160
 3153              	.LVL351:
 3154              		.loc 1 3251 0
 3155 012a 9BB2     		uxth	r3, r3
 3156              	.LVL352:
 3157 012c 42F01002 		orr	r2, r2, #16
 3158              		.loc 1 3252 0
 3159 0130 43EA0525 		orr	r5, r3, r5, lsl #8
 3160              	.LVL353:
 3161              		.loc 1 3256 0
 3162 0134 42EA0414 		orr	r4, r2, r4, lsl #4
 3163              	.LVL354:
 3164              		.loc 1 3259 0
 3165 0138 0583     		strh	r5, [r0, #24]	@ movhi
 3166              		.loc 1 3260 0
 3167 013a 0484     		strh	r4, [r0, #32]	@ movhi
 3168              	.LVL355:
 3169              	.LBE87:
 3170              	.LBE86:
 3171              	.LBB88:
 3172              	.LBB89:
 3173              		.loc 1 2123 0
 3174 013c 038B     		ldrh	r3, [r0, #24]
 3175 013e 23F44063 		bic	r3, r3, #3072
 3176 0142 1B04     		lsls	r3, r3, #16
 3177 0144 1B0C     		lsrs	r3, r3, #16
 3178 0146 0383     		strh	r3, [r0, #24]	@ movhi
 3179              		.loc 1 2126 0
 3180 0148 038B     		ldrh	r3, [r0, #24]
 3181 014a 9BB2     		uxth	r3, r3
 3182 014c 43EA0626 		orr	r6, r3, r6, lsl #8
 3183              	.LVL356:
 3184 0150 B6B2     		uxth	r6, r6
 3185 0152 0683     		strh	r6, [r0, #24]	@ movhi
 3186 0154 F0BD     		pop	{r4, r5, r6, r7, pc}
 3187              	.LBE89:
 3188              	.LBE88:
 3189              		.cfi_endproc
ARM GAS  /var/folders/7z/kps_xzfj7sn5l5gkyq8s9db00000gn/T//ccc38Eju.s 			page 58


 3190              	.LFE163:
 3191              		.size	TIM_PWMIConfig, .-TIM_PWMIConfig
 3192 0156 00BFAFF3 		.section	.text.TIM_GetCapture1,"ax",%progbits
 3192      0080AFF3 
 3192      0080
 3193              		.align	2
 3194              		.p2align 4,,15
 3195              		.global	TIM_GetCapture1
 3196              		.thumb
 3197              		.thumb_func
 3198              		.type	TIM_GetCapture1, %function
 3199              	TIM_GetCapture1:
 3200              	.LFB164:
 3201              		.loc 1 2029 0
 3202              		.cfi_startproc
 3203              		@ args = 0, pretend = 0, frame = 0
 3204              		@ frame_needed = 0, uses_anonymous_args = 0
 3205              		@ link register save eliminated.
 3206              	.LVL357:
 3207              		.loc 1 2034 0
 3208 0000 406B     		ldr	r0, [r0, #52]
 3209              	.LVL358:
 3210              		.loc 1 2035 0
 3211 0002 7047     		bx	lr
 3212              		.cfi_endproc
 3213              	.LFE164:
 3214              		.size	TIM_GetCapture1, .-TIM_GetCapture1
 3215 0004 AFF30080 		.section	.text.TIM_GetCapture2,"ax",%progbits
 3215      AFF30080 
 3215      AFF30080 
 3216              		.align	2
 3217              		.p2align 4,,15
 3218              		.global	TIM_GetCapture2
 3219              		.thumb
 3220              		.thumb_func
 3221              		.type	TIM_GetCapture2, %function
 3222              	TIM_GetCapture2:
 3223              	.LFB165:
 3224              		.loc 1 2044 0
 3225              		.cfi_startproc
 3226              		@ args = 0, pretend = 0, frame = 0
 3227              		@ frame_needed = 0, uses_anonymous_args = 0
 3228              		@ link register save eliminated.
 3229              	.LVL359:
 3230              		.loc 1 2049 0
 3231 0000 806B     		ldr	r0, [r0, #56]
 3232              	.LVL360:
 3233              		.loc 1 2050 0
 3234 0002 7047     		bx	lr
 3235              		.cfi_endproc
 3236              	.LFE165:
 3237              		.size	TIM_GetCapture2, .-TIM_GetCapture2
 3238 0004 AFF30080 		.section	.text.TIM_GetCapture3,"ax",%progbits
 3238      AFF30080 
 3238      AFF30080 
 3239              		.align	2
 3240              		.p2align 4,,15
ARM GAS  /var/folders/7z/kps_xzfj7sn5l5gkyq8s9db00000gn/T//ccc38Eju.s 			page 59


 3241              		.global	TIM_GetCapture3
 3242              		.thumb
 3243              		.thumb_func
 3244              		.type	TIM_GetCapture3, %function
 3245              	TIM_GetCapture3:
 3246              	.LFB166:
 3247              		.loc 1 2058 0
 3248              		.cfi_startproc
 3249              		@ args = 0, pretend = 0, frame = 0
 3250              		@ frame_needed = 0, uses_anonymous_args = 0
 3251              		@ link register save eliminated.
 3252              	.LVL361:
 3253              		.loc 1 2063 0
 3254 0000 C06B     		ldr	r0, [r0, #60]
 3255              	.LVL362:
 3256              		.loc 1 2064 0
 3257 0002 7047     		bx	lr
 3258              		.cfi_endproc
 3259              	.LFE166:
 3260              		.size	TIM_GetCapture3, .-TIM_GetCapture3
 3261 0004 AFF30080 		.section	.text.TIM_GetCapture4,"ax",%progbits
 3261      AFF30080 
 3261      AFF30080 
 3262              		.align	2
 3263              		.p2align 4,,15
 3264              		.global	TIM_GetCapture4
 3265              		.thumb
 3266              		.thumb_func
 3267              		.type	TIM_GetCapture4, %function
 3268              	TIM_GetCapture4:
 3269              	.LFB167:
 3270              		.loc 1 2072 0
 3271              		.cfi_startproc
 3272              		@ args = 0, pretend = 0, frame = 0
 3273              		@ frame_needed = 0, uses_anonymous_args = 0
 3274              		@ link register save eliminated.
 3275              	.LVL363:
 3276              		.loc 1 2077 0
 3277 0000 006C     		ldr	r0, [r0, #64]
 3278              	.LVL364:
 3279              		.loc 1 2078 0
 3280 0002 7047     		bx	lr
 3281              		.cfi_endproc
 3282              	.LFE167:
 3283              		.size	TIM_GetCapture4, .-TIM_GetCapture4
 3284 0004 AFF30080 		.section	.text.TIM_SetIC1Prescaler,"ax",%progbits
 3284      AFF30080 
 3284      AFF30080 
 3285              		.align	2
 3286              		.p2align 4,,15
 3287              		.global	TIM_SetIC1Prescaler
 3288              		.thumb
 3289              		.thumb_func
 3290              		.type	TIM_SetIC1Prescaler, %function
 3291              	TIM_SetIC1Prescaler:
 3292              	.LFB168:
 3293              		.loc 1 2092 0
ARM GAS  /var/folders/7z/kps_xzfj7sn5l5gkyq8s9db00000gn/T//ccc38Eju.s 			page 60


 3294              		.cfi_startproc
 3295              		@ args = 0, pretend = 0, frame = 0
 3296              		@ frame_needed = 0, uses_anonymous_args = 0
 3297              		@ link register save eliminated.
 3298              	.LVL365:
 3299              		.loc 1 2098 0
 3300 0000 038B     		ldrh	r3, [r0, #24]
 3301 0002 23F00C03 		bic	r3, r3, #12
 3302 0006 1B04     		lsls	r3, r3, #16
 3303 0008 1B0C     		lsrs	r3, r3, #16
 3304 000a 0383     		strh	r3, [r0, #24]	@ movhi
 3305              		.loc 1 2101 0
 3306 000c 038B     		ldrh	r3, [r0, #24]
 3307 000e 9BB2     		uxth	r3, r3
 3308 0010 1943     		orrs	r1, r1, r3
 3309              	.LVL366:
 3310 0012 0183     		strh	r1, [r0, #24]	@ movhi
 3311 0014 7047     		bx	lr
 3312              		.cfi_endproc
 3313              	.LFE168:
 3314              		.size	TIM_SetIC1Prescaler, .-TIM_SetIC1Prescaler
 3315 0016 00BFAFF3 		.section	.text.TIM_SetIC2Prescaler,"ax",%progbits
 3315      0080AFF3 
 3315      0080
 3316              		.align	2
 3317              		.p2align 4,,15
 3318              		.global	TIM_SetIC2Prescaler
 3319              		.thumb
 3320              		.thumb_func
 3321              		.type	TIM_SetIC2Prescaler, %function
 3322              	TIM_SetIC2Prescaler:
 3323              	.LFB169:
 3324              		.loc 1 2117 0
 3325              		.cfi_startproc
 3326              		@ args = 0, pretend = 0, frame = 0
 3327              		@ frame_needed = 0, uses_anonymous_args = 0
 3328              		@ link register save eliminated.
 3329              	.LVL367:
 3330              		.loc 1 2123 0
 3331 0000 038B     		ldrh	r3, [r0, #24]
 3332 0002 23F44063 		bic	r3, r3, #3072
 3333 0006 1B04     		lsls	r3, r3, #16
 3334 0008 1B0C     		lsrs	r3, r3, #16
 3335 000a 0383     		strh	r3, [r0, #24]	@ movhi
 3336              		.loc 1 2126 0
 3337 000c 038B     		ldrh	r3, [r0, #24]
 3338 000e 9BB2     		uxth	r3, r3
 3339 0010 43EA0121 		orr	r1, r3, r1, lsl #8
 3340              	.LVL368:
 3341 0014 89B2     		uxth	r1, r1
 3342 0016 0183     		strh	r1, [r0, #24]	@ movhi
 3343 0018 7047     		bx	lr
 3344              		.cfi_endproc
 3345              	.LFE169:
 3346              		.size	TIM_SetIC2Prescaler, .-TIM_SetIC2Prescaler
 3347 001a 00BFAFF3 		.section	.text.TIM_SetIC3Prescaler,"ax",%progbits
 3347      0080
ARM GAS  /var/folders/7z/kps_xzfj7sn5l5gkyq8s9db00000gn/T//ccc38Eju.s 			page 61


 3348              		.align	2
 3349              		.p2align 4,,15
 3350              		.global	TIM_SetIC3Prescaler
 3351              		.thumb
 3352              		.thumb_func
 3353              		.type	TIM_SetIC3Prescaler, %function
 3354              	TIM_SetIC3Prescaler:
 3355              	.LFB170:
 3356              		.loc 1 2141 0
 3357              		.cfi_startproc
 3358              		@ args = 0, pretend = 0, frame = 0
 3359              		@ frame_needed = 0, uses_anonymous_args = 0
 3360              		@ link register save eliminated.
 3361              	.LVL369:
 3362              		.loc 1 2147 0
 3363 0000 838B     		ldrh	r3, [r0, #28]
 3364 0002 23F00C03 		bic	r3, r3, #12
 3365 0006 1B04     		lsls	r3, r3, #16
 3366 0008 1B0C     		lsrs	r3, r3, #16
 3367 000a 8383     		strh	r3, [r0, #28]	@ movhi
 3368              		.loc 1 2150 0
 3369 000c 838B     		ldrh	r3, [r0, #28]
 3370 000e 9BB2     		uxth	r3, r3
 3371 0010 1943     		orrs	r1, r1, r3
 3372              	.LVL370:
 3373 0012 8183     		strh	r1, [r0, #28]	@ movhi
 3374 0014 7047     		bx	lr
 3375              		.cfi_endproc
 3376              	.LFE170:
 3377              		.size	TIM_SetIC3Prescaler, .-TIM_SetIC3Prescaler
 3378 0016 00BFAFF3 		.section	.text.TIM_SetIC4Prescaler,"ax",%progbits
 3378      0080AFF3 
 3378      0080
 3379              		.align	2
 3380              		.p2align 4,,15
 3381              		.global	TIM_SetIC4Prescaler
 3382              		.thumb
 3383              		.thumb_func
 3384              		.type	TIM_SetIC4Prescaler, %function
 3385              	TIM_SetIC4Prescaler:
 3386              	.LFB171:
 3387              		.loc 1 2165 0
 3388              		.cfi_startproc
 3389              		@ args = 0, pretend = 0, frame = 0
 3390              		@ frame_needed = 0, uses_anonymous_args = 0
 3391              		@ link register save eliminated.
 3392              	.LVL371:
 3393              		.loc 1 2171 0
 3394 0000 838B     		ldrh	r3, [r0, #28]
 3395 0002 23F44063 		bic	r3, r3, #3072
 3396 0006 1B04     		lsls	r3, r3, #16
 3397 0008 1B0C     		lsrs	r3, r3, #16
 3398 000a 8383     		strh	r3, [r0, #28]	@ movhi
 3399              		.loc 1 2174 0
 3400 000c 838B     		ldrh	r3, [r0, #28]
 3401 000e 9BB2     		uxth	r3, r3
 3402 0010 43EA0121 		orr	r1, r3, r1, lsl #8
ARM GAS  /var/folders/7z/kps_xzfj7sn5l5gkyq8s9db00000gn/T//ccc38Eju.s 			page 62


 3403              	.LVL372:
 3404 0014 89B2     		uxth	r1, r1
 3405 0016 8183     		strh	r1, [r0, #28]	@ movhi
 3406 0018 7047     		bx	lr
 3407              		.cfi_endproc
 3408              	.LFE171:
 3409              		.size	TIM_SetIC4Prescaler, .-TIM_SetIC4Prescaler
 3410 001a 00BFAFF3 		.section	.text.TIM_BDTRConfig,"ax",%progbits
 3410      0080
 3411              		.align	2
 3412              		.p2align 4,,15
 3413              		.global	TIM_BDTRConfig
 3414              		.thumb
 3415              		.thumb_func
 3416              		.type	TIM_BDTRConfig, %function
 3417              	TIM_BDTRConfig:
 3418              	.LFB172:
 3419              		.loc 1 2218 0
 3420              		.cfi_startproc
 3421              		@ args = 0, pretend = 0, frame = 0
 3422              		@ frame_needed = 0, uses_anonymous_args = 0
 3423              	.LVL373:
 3424 0000 F0B5     		push	{r4, r5, r6, r7, lr}
 3425              		.cfi_def_cfa_offset 20
 3426              		.cfi_offset 4, -20
 3427              		.cfi_offset 5, -16
 3428              		.cfi_offset 6, -12
 3429              		.cfi_offset 7, -8
 3430              		.cfi_offset 14, -4
 3431              		.loc 1 2230 0
 3432 0002 0B88     		ldrh	r3, [r1]
 3433 0004 B1F802E0 		ldrh	lr, [r1, #2]
 3434 0008 8F88     		ldrh	r7, [r1, #4]
 3435 000a CE88     		ldrh	r6, [r1, #6]
 3436 000c 0D89     		ldrh	r5, [r1, #8]
 3437 000e 4C89     		ldrh	r4, [r1, #10]
 3438 0010 8A89     		ldrh	r2, [r1, #12]
 3439 0012 4EEA0303 		orr	r3, lr, r3
 3440 0016 3B43     		orrs	r3, r3, r7
 3441 0018 3343     		orrs	r3, r3, r6
 3442 001a 2B43     		orrs	r3, r3, r5
 3443 001c 2343     		orrs	r3, r3, r4
 3444 001e 1343     		orrs	r3, r3, r2
 3445 0020 9BB2     		uxth	r3, r3
 3446 0022 A0F84430 		strh	r3, [r0, #68]	@ movhi
 3447 0026 F0BD     		pop	{r4, r5, r6, r7, pc}
 3448              		.cfi_endproc
 3449              	.LFE172:
 3450              		.size	TIM_BDTRConfig, .-TIM_BDTRConfig
 3451 0028 AFF30080 		.section	.text.TIM_BDTRStructInit,"ax",%progbits
 3451      AFF30080 
 3452              		.align	2
 3453              		.p2align 4,,15
 3454              		.global	TIM_BDTRStructInit
 3455              		.thumb
 3456              		.thumb_func
 3457              		.type	TIM_BDTRStructInit, %function
ARM GAS  /var/folders/7z/kps_xzfj7sn5l5gkyq8s9db00000gn/T//ccc38Eju.s 			page 63


 3458              	TIM_BDTRStructInit:
 3459              	.LFB173:
 3460              		.loc 1 2243 0
 3461              		.cfi_startproc
 3462              		@ args = 0, pretend = 0, frame = 0
 3463              		@ frame_needed = 0, uses_anonymous_args = 0
 3464              		@ link register save eliminated.
 3465              	.LVL374:
 3466              		.loc 1 2245 0
 3467 0000 0023     		movs	r3, #0
 3468 0002 0380     		strh	r3, [r0]	@ movhi
 3469              		.loc 1 2246 0
 3470 0004 4380     		strh	r3, [r0, #2]	@ movhi
 3471              		.loc 1 2247 0
 3472 0006 8380     		strh	r3, [r0, #4]	@ movhi
 3473              		.loc 1 2248 0
 3474 0008 C380     		strh	r3, [r0, #6]	@ movhi
 3475              		.loc 1 2249 0
 3476 000a 0381     		strh	r3, [r0, #8]	@ movhi
 3477              		.loc 1 2250 0
 3478 000c 4381     		strh	r3, [r0, #10]	@ movhi
 3479              		.loc 1 2251 0
 3480 000e 8381     		strh	r3, [r0, #12]	@ movhi
 3481 0010 7047     		bx	lr
 3482              		.cfi_endproc
 3483              	.LFE173:
 3484              		.size	TIM_BDTRStructInit, .-TIM_BDTRStructInit
 3485 0012 00BFAFF3 		.section	.text.TIM_CtrlPWMOutputs,"ax",%progbits
 3485      0080AFF3 
 3485      0080AFF3 
 3485      0080
 3486              		.align	2
 3487              		.p2align 4,,15
 3488              		.global	TIM_CtrlPWMOutputs
 3489              		.thumb
 3490              		.thumb_func
 3491              		.type	TIM_CtrlPWMOutputs, %function
 3492              	TIM_CtrlPWMOutputs:
 3493              	.LFB174:
 3494              		.loc 1 2262 0
 3495              		.cfi_startproc
 3496              		@ args = 0, pretend = 0, frame = 0
 3497              		@ frame_needed = 0, uses_anonymous_args = 0
 3498              		@ link register save eliminated.
 3499              	.LVL375:
 3500              		.loc 1 2270 0
 3501 0000 B0F84430 		ldrh	r3, [r0, #68]
 3502              		.loc 1 2267 0
 3503 0004 21B9     		cbnz	r1, .L169
 3504              		.loc 1 2275 0
 3505 0006 C3F30E03 		ubfx	r3, r3, #0, #15
 3506 000a A0F84430 		strh	r3, [r0, #68]	@ movhi
 3507 000e 7047     		bx	lr
 3508              	.L169:
 3509              		.loc 1 2270 0
 3510 0010 6FEA4343 		mvn	r3, r3, lsl #17
 3511 0014 6FEA5343 		mvn	r3, r3, lsr #17
ARM GAS  /var/folders/7z/kps_xzfj7sn5l5gkyq8s9db00000gn/T//ccc38Eju.s 			page 64


 3512 0018 9BB2     		uxth	r3, r3
 3513 001a A0F84430 		strh	r3, [r0, #68]	@ movhi
 3514 001e 7047     		bx	lr
 3515              		.cfi_endproc
 3516              	.LFE174:
 3517              		.size	TIM_CtrlPWMOutputs, .-TIM_CtrlPWMOutputs
 3518              		.section	.text.TIM_SelectCOM,"ax",%progbits
 3519              		.align	2
 3520              		.p2align 4,,15
 3521              		.global	TIM_SelectCOM
 3522              		.thumb
 3523              		.thumb_func
 3524              		.type	TIM_SelectCOM, %function
 3525              	TIM_SelectCOM:
 3526              	.LFB175:
 3527              		.loc 1 2287 0
 3528              		.cfi_startproc
 3529              		@ args = 0, pretend = 0, frame = 0
 3530              		@ frame_needed = 0, uses_anonymous_args = 0
 3531              		@ link register save eliminated.
 3532              	.LVL376:
 3533              		.loc 1 2295 0
 3534 0000 8388     		ldrh	r3, [r0, #4]
 3535              		.loc 1 2292 0
 3536 0002 29B9     		cbnz	r1, .L173
 3537              		.loc 1 2300 0
 3538 0004 23F00403 		bic	r3, r3, #4
 3539 0008 1B04     		lsls	r3, r3, #16
 3540 000a 1B0C     		lsrs	r3, r3, #16
 3541 000c 8380     		strh	r3, [r0, #4]	@ movhi
 3542 000e 7047     		bx	lr
 3543              	.L173:
 3544              		.loc 1 2295 0
 3545 0010 9BB2     		uxth	r3, r3
 3546 0012 43F00403 		orr	r3, r3, #4
 3547 0016 8380     		strh	r3, [r0, #4]	@ movhi
 3548 0018 7047     		bx	lr
 3549              		.cfi_endproc
 3550              	.LFE175:
 3551              		.size	TIM_SelectCOM, .-TIM_SelectCOM
 3552 001a 00BFAFF3 		.section	.text.TIM_CCPreloadControl,"ax",%progbits
 3552      0080
 3553              		.align	2
 3554              		.p2align 4,,15
 3555              		.global	TIM_CCPreloadControl
 3556              		.thumb
 3557              		.thumb_func
 3558              		.type	TIM_CCPreloadControl, %function
 3559              	TIM_CCPreloadControl:
 3560              	.LFB176:
 3561              		.loc 1 2312 0
 3562              		.cfi_startproc
 3563              		@ args = 0, pretend = 0, frame = 0
 3564              		@ frame_needed = 0, uses_anonymous_args = 0
 3565              		@ link register save eliminated.
 3566              	.LVL377:
 3567              		.loc 1 2319 0
ARM GAS  /var/folders/7z/kps_xzfj7sn5l5gkyq8s9db00000gn/T//ccc38Eju.s 			page 65


 3568 0000 8388     		ldrh	r3, [r0, #4]
 3569              		.loc 1 2316 0
 3570 0002 29B9     		cbnz	r1, .L177
 3571              		.loc 1 2324 0
 3572 0004 23F00103 		bic	r3, r3, #1
 3573 0008 1B04     		lsls	r3, r3, #16
 3574 000a 1B0C     		lsrs	r3, r3, #16
 3575 000c 8380     		strh	r3, [r0, #4]	@ movhi
 3576 000e 7047     		bx	lr
 3577              	.L177:
 3578              		.loc 1 2319 0
 3579 0010 9BB2     		uxth	r3, r3
 3580 0012 43F00103 		orr	r3, r3, #1
 3581 0016 8380     		strh	r3, [r0, #4]	@ movhi
 3582 0018 7047     		bx	lr
 3583              		.cfi_endproc
 3584              	.LFE176:
 3585              		.size	TIM_CCPreloadControl, .-TIM_CCPreloadControl
 3586 001a 00BFAFF3 		.section	.text.TIM_ITConfig,"ax",%progbits
 3586      0080
 3587              		.align	2
 3588              		.p2align 4,,15
 3589              		.global	TIM_ITConfig
 3590              		.thumb
 3591              		.thumb_func
 3592              		.type	TIM_ITConfig, %function
 3593              	TIM_ITConfig:
 3594              	.LFB177:
 3595              		.loc 1 2369 0
 3596              		.cfi_startproc
 3597              		@ args = 0, pretend = 0, frame = 0
 3598              		@ frame_needed = 0, uses_anonymous_args = 0
 3599              		@ link register save eliminated.
 3600              	.LVL378:
 3601              		.loc 1 2378 0
 3602 0000 8389     		ldrh	r3, [r0, #12]
 3603 0002 9BB2     		uxth	r3, r3
 3604              		.loc 1 2375 0
 3605 0004 1AB9     		cbnz	r2, .L181
 3606              		.loc 1 2383 0
 3607 0006 23EA0101 		bic	r1, r3, r1
 3608              	.LVL379:
 3609 000a 8181     		strh	r1, [r0, #12]	@ movhi
 3610 000c 7047     		bx	lr
 3611              	.LVL380:
 3612              	.L181:
 3613              		.loc 1 2378 0
 3614 000e 1943     		orrs	r1, r1, r3
 3615              	.LVL381:
 3616 0010 8181     		strh	r1, [r0, #12]	@ movhi
 3617 0012 7047     		bx	lr
 3618              		.cfi_endproc
 3619              	.LFE177:
 3620              		.size	TIM_ITConfig, .-TIM_ITConfig
 3621 0014 AFF30080 		.section	.text.TIM_GenerateEvent,"ax",%progbits
 3621      AFF30080 
 3621      AFF30080 
ARM GAS  /var/folders/7z/kps_xzfj7sn5l5gkyq8s9db00000gn/T//ccc38Eju.s 			page 66


 3622              		.align	2
 3623              		.p2align 4,,15
 3624              		.global	TIM_GenerateEvent
 3625              		.thumb
 3626              		.thumb_func
 3627              		.type	TIM_GenerateEvent, %function
 3628              	TIM_GenerateEvent:
 3629              	.LFB178:
 3630              		.loc 1 2407 0
 3631              		.cfi_startproc
 3632              		@ args = 0, pretend = 0, frame = 0
 3633              		@ frame_needed = 0, uses_anonymous_args = 0
 3634              		@ link register save eliminated.
 3635              	.LVL382:
 3636              		.loc 1 2413 0
 3637 0000 8182     		strh	r1, [r0, #20]	@ movhi
 3638 0002 7047     		bx	lr
 3639              		.cfi_endproc
 3640              	.LFE178:
 3641              		.size	TIM_GenerateEvent, .-TIM_GenerateEvent
 3642 0004 AFF30080 		.section	.text.TIM_GetFlagStatus,"ax",%progbits
 3642      AFF30080 
 3642      AFF30080 
 3643              		.align	2
 3644              		.p2align 4,,15
 3645              		.global	TIM_GetFlagStatus
 3646              		.thumb
 3647              		.thumb_func
 3648              		.type	TIM_GetFlagStatus, %function
 3649              	TIM_GetFlagStatus:
 3650              	.LFB179:
 3651              		.loc 1 2440 0
 3652              		.cfi_startproc
 3653              		@ args = 0, pretend = 0, frame = 0
 3654              		@ frame_needed = 0, uses_anonymous_args = 0
 3655              		@ link register save eliminated.
 3656              	.LVL383:
 3657              		.loc 1 2447 0
 3658 0000 038A     		ldrh	r3, [r0, #16]
 3659              	.LVL384:
 3660 0002 1942     		tst	r1, r3
 3661              		.loc 1 2456 0
 3662 0004 14BF     		ite	ne
 3663 0006 0120     		movne	r0, #1
 3664              	.LVL385:
 3665 0008 0020     		moveq	r0, #0
 3666 000a 7047     		bx	lr
 3667              		.cfi_endproc
 3668              	.LFE179:
 3669              		.size	TIM_GetFlagStatus, .-TIM_GetFlagStatus
 3670 000c AFF30080 		.section	.text.TIM_ClearFlag,"ax",%progbits
 3671              		.align	2
 3672              		.p2align 4,,15
 3673              		.global	TIM_ClearFlag
 3674              		.thumb
 3675              		.thumb_func
 3676              		.type	TIM_ClearFlag, %function
ARM GAS  /var/folders/7z/kps_xzfj7sn5l5gkyq8s9db00000gn/T//ccc38Eju.s 			page 67


 3677              	TIM_ClearFlag:
 3678              	.LFB180:
 3679              		.loc 1 2482 0
 3680              		.cfi_startproc
 3681              		@ args = 0, pretend = 0, frame = 0
 3682              		@ frame_needed = 0, uses_anonymous_args = 0
 3683              		@ link register save eliminated.
 3684              	.LVL386:
 3685              		.loc 1 2487 0
 3686 0000 C943     		mvns	r1, r1
 3687              	.LVL387:
 3688 0002 89B2     		uxth	r1, r1
 3689 0004 0182     		strh	r1, [r0, #16]	@ movhi
 3690 0006 7047     		bx	lr
 3691              		.cfi_endproc
 3692              	.LFE180:
 3693              		.size	TIM_ClearFlag, .-TIM_ClearFlag
 3694 0008 AFF30080 		.section	.text.TIM_GetITStatus,"ax",%progbits
 3694      AFF30080 
 3695              		.align	2
 3696              		.p2align 4,,15
 3697              		.global	TIM_GetITStatus
 3698              		.thumb
 3699              		.thumb_func
 3700              		.type	TIM_GetITStatus, %function
 3701              	TIM_GetITStatus:
 3702              	.LFB181:
 3703              		.loc 1 2510 0
 3704              		.cfi_startproc
 3705              		@ args = 0, pretend = 0, frame = 0
 3706              		@ frame_needed = 0, uses_anonymous_args = 0
 3707              		@ link register save eliminated.
 3708              	.LVL388:
 3709              		.loc 1 2517 0
 3710 0000 038A     		ldrh	r3, [r0, #16]
 3711              	.LVL389:
 3712              		.loc 1 2519 0
 3713 0002 8289     		ldrh	r2, [r0, #12]
 3714              		.loc 1 2520 0
 3715 0004 11EA0300 		ands	r0, r1, r3
 3716              	.LVL390:
 3717              		.loc 1 2519 0
 3718 0008 92B2     		uxth	r2, r2
 3719              	.LVL391:
 3720              		.loc 1 2520 0
 3721 000a 03D0     		beq	.L186
 3722              		.loc 1 2520 0 is_stmt 0 discriminator 1
 3723 000c 1142     		tst	r1, r2
 3724              		.loc 1 2522 0 is_stmt 1 discriminator 1
 3725 000e 14BF     		ite	ne
 3726 0010 0120     		movne	r0, #1
 3727 0012 0020     		moveq	r0, #0
 3728              	.L186:
 3729              	.LVL392:
 3730              		.loc 1 2529 0
 3731 0014 7047     		bx	lr
 3732              		.cfi_endproc
ARM GAS  /var/folders/7z/kps_xzfj7sn5l5gkyq8s9db00000gn/T//ccc38Eju.s 			page 68


 3733              	.LFE181:
 3734              		.size	TIM_GetITStatus, .-TIM_GetITStatus
 3735 0016 00BFAFF3 		.section	.text.TIM_ClearITPendingBit,"ax",%progbits
 3735      0080AFF3 
 3735      0080
 3736              		.align	2
 3737              		.p2align 4,,15
 3738              		.global	TIM_ClearITPendingBit
 3739              		.thumb
 3740              		.thumb_func
 3741              		.type	TIM_ClearITPendingBit, %function
 3742              	TIM_ClearITPendingBit:
 3743              	.LFB182:
 3744              		.loc 1 2551 0
 3745              		.cfi_startproc
 3746              		@ args = 0, pretend = 0, frame = 0
 3747              		@ frame_needed = 0, uses_anonymous_args = 0
 3748              		@ link register save eliminated.
 3749              	.LVL393:
 3750              		.loc 1 2556 0
 3751 0000 C943     		mvns	r1, r1
 3752              	.LVL394:
 3753 0002 89B2     		uxth	r1, r1
 3754 0004 0182     		strh	r1, [r0, #16]	@ movhi
 3755 0006 7047     		bx	lr
 3756              		.cfi_endproc
 3757              	.LFE182:
 3758              		.size	TIM_ClearITPendingBit, .-TIM_ClearITPendingBit
 3759 0008 AFF30080 		.section	.text.TIM_DMAConfig,"ax",%progbits
 3759      AFF30080 
 3760              		.align	2
 3761              		.p2align 4,,15
 3762              		.global	TIM_DMAConfig
 3763              		.thumb
 3764              		.thumb_func
 3765              		.type	TIM_DMAConfig, %function
 3766              	TIM_DMAConfig:
 3767              	.LFB183:
 3768              		.loc 1 2588 0
 3769              		.cfi_startproc
 3770              		@ args = 0, pretend = 0, frame = 0
 3771              		@ frame_needed = 0, uses_anonymous_args = 0
 3772              		@ link register save eliminated.
 3773              	.LVL395:
 3774              		.loc 1 2595 0
 3775 0000 0A43     		orrs	r2, r2, r1
 3776              	.LVL396:
 3777 0002 A0F84820 		strh	r2, [r0, #72]	@ movhi
 3778 0006 7047     		bx	lr
 3779              		.cfi_endproc
 3780              	.LFE183:
 3781              		.size	TIM_DMAConfig, .-TIM_DMAConfig
 3782 0008 AFF30080 		.section	.text.TIM_DMACmd,"ax",%progbits
 3782      AFF30080 
 3783              		.align	2
 3784              		.p2align 4,,15
 3785              		.global	TIM_DMACmd
ARM GAS  /var/folders/7z/kps_xzfj7sn5l5gkyq8s9db00000gn/T//ccc38Eju.s 			page 69


 3786              		.thumb
 3787              		.thumb_func
 3788              		.type	TIM_DMACmd, %function
 3789              	TIM_DMACmd:
 3790              	.LFB184:
 3791              		.loc 1 2615 0
 3792              		.cfi_startproc
 3793              		@ args = 0, pretend = 0, frame = 0
 3794              		@ frame_needed = 0, uses_anonymous_args = 0
 3795              		@ link register save eliminated.
 3796              	.LVL397:
 3797              		.loc 1 2624 0
 3798 0000 8389     		ldrh	r3, [r0, #12]
 3799 0002 9BB2     		uxth	r3, r3
 3800              		.loc 1 2621 0
 3801 0004 1AB9     		cbnz	r2, .L193
 3802              		.loc 1 2629 0
 3803 0006 23EA0101 		bic	r1, r3, r1
 3804              	.LVL398:
 3805 000a 8181     		strh	r1, [r0, #12]	@ movhi
 3806 000c 7047     		bx	lr
 3807              	.LVL399:
 3808              	.L193:
 3809              		.loc 1 2624 0
 3810 000e 1943     		orrs	r1, r1, r3
 3811              	.LVL400:
 3812 0010 8181     		strh	r1, [r0, #12]	@ movhi
 3813 0012 7047     		bx	lr
 3814              		.cfi_endproc
 3815              	.LFE184:
 3816              		.size	TIM_DMACmd, .-TIM_DMACmd
 3817 0014 AFF30080 		.section	.text.TIM_SelectCCDMA,"ax",%progbits
 3817      AFF30080 
 3817      AFF30080 
 3818              		.align	2
 3819              		.p2align 4,,15
 3820              		.global	TIM_SelectCCDMA
 3821              		.thumb
 3822              		.thumb_func
 3823              		.type	TIM_SelectCCDMA, %function
 3824              	TIM_SelectCCDMA:
 3825              	.LFB185:
 3826              		.loc 1 2641 0
 3827              		.cfi_startproc
 3828              		@ args = 0, pretend = 0, frame = 0
 3829              		@ frame_needed = 0, uses_anonymous_args = 0
 3830              		@ link register save eliminated.
 3831              	.LVL401:
 3832              		.loc 1 2649 0
 3833 0000 8388     		ldrh	r3, [r0, #4]
 3834              		.loc 1 2646 0
 3835 0002 29B9     		cbnz	r1, .L197
 3836              		.loc 1 2654 0
 3837 0004 23F00803 		bic	r3, r3, #8
 3838 0008 1B04     		lsls	r3, r3, #16
 3839 000a 1B0C     		lsrs	r3, r3, #16
 3840 000c 8380     		strh	r3, [r0, #4]	@ movhi
ARM GAS  /var/folders/7z/kps_xzfj7sn5l5gkyq8s9db00000gn/T//ccc38Eju.s 			page 70


 3841 000e 7047     		bx	lr
 3842              	.L197:
 3843              		.loc 1 2649 0
 3844 0010 9BB2     		uxth	r3, r3
 3845 0012 43F00803 		orr	r3, r3, #8
 3846 0016 8380     		strh	r3, [r0, #4]	@ movhi
 3847 0018 7047     		bx	lr
 3848              		.cfi_endproc
 3849              	.LFE185:
 3850              		.size	TIM_SelectCCDMA, .-TIM_SelectCCDMA
 3851 001a 00BFAFF3 		.section	.text.TIM_InternalClockConfig,"ax",%progbits
 3851      0080
 3852              		.align	2
 3853              		.p2align 4,,15
 3854              		.global	TIM_InternalClockConfig
 3855              		.thumb
 3856              		.thumb_func
 3857              		.type	TIM_InternalClockConfig, %function
 3858              	TIM_InternalClockConfig:
 3859              	.LFB186:
 3860              		.loc 1 2680 0
 3861              		.cfi_startproc
 3862              		@ args = 0, pretend = 0, frame = 0
 3863              		@ frame_needed = 0, uses_anonymous_args = 0
 3864              		@ link register save eliminated.
 3865              	.LVL402:
 3866              		.loc 1 2685 0
 3867 0000 0389     		ldrh	r3, [r0, #8]
 3868 0002 23F00703 		bic	r3, r3, #7
 3869 0006 1B04     		lsls	r3, r3, #16
 3870 0008 1B0C     		lsrs	r3, r3, #16
 3871 000a 0381     		strh	r3, [r0, #8]	@ movhi
 3872 000c 7047     		bx	lr
 3873              		.cfi_endproc
 3874              	.LFE186:
 3875              		.size	TIM_InternalClockConfig, .-TIM_InternalClockConfig
 3876 000e 00BF     		.section	.text.TIM_ITRxExternalClockConfig,"ax",%progbits
 3877              		.align	2
 3878              		.p2align 4,,15
 3879              		.global	TIM_ITRxExternalClockConfig
 3880              		.thumb
 3881              		.thumb_func
 3882              		.type	TIM_ITRxExternalClockConfig, %function
 3883              	TIM_ITRxExternalClockConfig:
 3884              	.LFB187:
 3885              		.loc 1 2701 0
 3886              		.cfi_startproc
 3887              		@ args = 0, pretend = 0, frame = 0
 3888              		@ frame_needed = 0, uses_anonymous_args = 0
 3889              		@ link register save eliminated.
 3890              	.LVL403:
 3891              	.LBB90:
 3892              	.LBB91:
 3893              		.loc 1 2894 0
 3894 0000 0389     		ldrh	r3, [r0, #8]
 3895              	.LVL404:
 3896              		.loc 1 2897 0
ARM GAS  /var/folders/7z/kps_xzfj7sn5l5gkyq8s9db00000gn/T//ccc38Eju.s 			page 71


 3897 0002 23F07003 		bic	r3, r3, #112
 3898              	.LVL405:
 3899 0006 1B04     		lsls	r3, r3, #16
 3900 0008 1B0C     		lsrs	r3, r3, #16
 3901              	.LVL406:
 3902              		.loc 1 2900 0
 3903 000a 1943     		orrs	r1, r1, r3
 3904              	.LVL407:
 3905              		.loc 1 2903 0
 3906 000c 0181     		strh	r1, [r0, #8]	@ movhi
 3907              	.LBE91:
 3908              	.LBE90:
 3909              		.loc 1 2710 0
 3910 000e 0389     		ldrh	r3, [r0, #8]
 3911 0010 9BB2     		uxth	r3, r3
 3912 0012 43F00703 		orr	r3, r3, #7
 3913 0016 0381     		strh	r3, [r0, #8]	@ movhi
 3914 0018 7047     		bx	lr
 3915              		.cfi_endproc
 3916              	.LFE187:
 3917              		.size	TIM_ITRxExternalClockConfig, .-TIM_ITRxExternalClockConfig
 3918 001a 00BFAFF3 		.section	.text.TIM_TIxExternalClockConfig,"ax",%progbits
 3918      0080
 3919              		.align	2
 3920              		.p2align 4,,15
 3921              		.global	TIM_TIxExternalClockConfig
 3922              		.thumb
 3923              		.thumb_func
 3924              		.type	TIM_TIxExternalClockConfig, %function
 3925              	TIM_TIxExternalClockConfig:
 3926              	.LFB188:
 3927              		.loc 1 2732 0
 3928              		.cfi_startproc
 3929              		@ args = 0, pretend = 0, frame = 0
 3930              		@ frame_needed = 0, uses_anonymous_args = 0
 3931              		@ link register save eliminated.
 3932              	.LVL408:
 3933              		.loc 1 2739 0
 3934 0000 6029     		cmp	r1, #96
 3935              		.loc 1 2732 0
 3936 0002 30B4     		push	{r4, r5}
 3937              		.cfi_def_cfa_offset 8
 3938              		.cfi_offset 4, -8
 3939              		.cfi_offset 5, -4
 3940              	.LBB92:
 3941              	.LBB93:
 3942              		.loc 1 3244 0
 3943 0004 048C     		ldrh	r4, [r0, #32]
 3944              	.LBE93:
 3945              	.LBE92:
 3946              		.loc 1 2739 0
 3947 0006 24D0     		beq	.L204
 3948              	.LVL409:
 3949              	.LBB95:
 3950              	.LBB96:
 3951              		.loc 1 3203 0
 3952 0008 24F00104 		bic	r4, r4, #1
ARM GAS  /var/folders/7z/kps_xzfj7sn5l5gkyq8s9db00000gn/T//ccc38Eju.s 			page 72


 3953 000c 2404     		lsls	r4, r4, #16
 3954 000e 240C     		lsrs	r4, r4, #16
 3955 0010 0484     		strh	r4, [r0, #32]	@ movhi
 3956              		.loc 1 3204 0
 3957 0012 048B     		ldrh	r4, [r0, #24]
 3958              		.loc 1 3205 0
 3959 0014 058C     		ldrh	r5, [r0, #32]
 3960              		.loc 1 3204 0
 3961 0016 A4B2     		uxth	r4, r4
 3962              	.LVL410:
 3963              		.loc 1 3208 0
 3964 0018 24F0F304 		bic	r4, r4, #243
 3965              	.LVL411:
 3966              		.loc 1 3205 0
 3967 001c ADB2     		uxth	r5, r5
 3968              	.LVL412:
 3969 001e 44F00104 		orr	r4, r4, #1
 3970              		.loc 1 3212 0
 3971 0022 25F00A05 		bic	r5, r5, #10
 3972              	.LVL413:
 3973              		.loc 1 3209 0
 3974 0026 44EA0313 		orr	r3, r4, r3, lsl #4
 3975              	.LVL414:
 3976 002a 45F00104 		orr	r4, r5, #1
 3977 002e 9BB2     		uxth	r3, r3
 3978              	.LVL415:
 3979              		.loc 1 3213 0
 3980 0030 2243     		orrs	r2, r2, r4
 3981              	.LVL416:
 3982              		.loc 1 3216 0
 3983 0032 0383     		strh	r3, [r0, #24]	@ movhi
 3984              		.loc 1 3217 0
 3985 0034 0284     		strh	r2, [r0, #32]	@ movhi
 3986              	.LVL417:
 3987              	.L202:
 3988              	.LBE96:
 3989              	.LBE95:
 3990              	.LBB97:
 3991              	.LBB98:
 3992              		.loc 1 2894 0
 3993 0036 0389     		ldrh	r3, [r0, #8]
 3994              	.LVL418:
 3995              		.loc 1 2897 0
 3996 0038 23F07003 		bic	r3, r3, #112
 3997              	.LVL419:
 3998 003c 1B04     		lsls	r3, r3, #16
 3999 003e 1B0C     		lsrs	r3, r3, #16
 4000              	.LVL420:
 4001              		.loc 1 2900 0
 4002 0040 0B43     		orrs	r3, r3, r1
 4003              	.LVL421:
 4004              		.loc 1 2903 0
 4005 0042 0381     		strh	r3, [r0, #8]	@ movhi
 4006              	.LBE98:
 4007              	.LBE97:
 4008              		.loc 1 2750 0
 4009 0044 0389     		ldrh	r3, [r0, #8]
ARM GAS  /var/folders/7z/kps_xzfj7sn5l5gkyq8s9db00000gn/T//ccc38Eju.s 			page 73


 4010              	.LVL422:
 4011 0046 9BB2     		uxth	r3, r3
 4012 0048 43F00703 		orr	r3, r3, #7
 4013 004c 0381     		strh	r3, [r0, #8]	@ movhi
 4014              	.LVL423:
 4015              		.loc 1 2751 0
 4016 004e 30BC     		pop	{r4, r5}
 4017              		.cfi_remember_state
 4018              		.cfi_restore 5
 4019              		.cfi_restore 4
 4020              		.cfi_def_cfa_offset 0
 4021 0050 7047     		bx	lr
 4022              	.LVL424:
 4023              	.L204:
 4024              		.cfi_restore_state
 4025              	.LBB99:
 4026              	.LBB94:
 4027              		.loc 1 3244 0
 4028 0052 24F01004 		bic	r4, r4, #16
 4029 0056 2404     		lsls	r4, r4, #16
 4030 0058 240C     		lsrs	r4, r4, #16
 4031 005a 0484     		strh	r4, [r0, #32]	@ movhi
 4032              		.loc 1 3245 0
 4033 005c 048B     		ldrh	r4, [r0, #24]
 4034              	.LVL425:
 4035              		.loc 1 3246 0
 4036 005e 058C     		ldrh	r5, [r0, #32]
 4037              		.loc 1 3250 0
 4038 0060 24F44074 		bic	r4, r4, #768
 4039              	.LVL426:
 4040 0064 2405     		lsls	r4, r4, #20
 4041              		.loc 1 3246 0
 4042 0066 ADB2     		uxth	r5, r5
 4043              	.LVL427:
 4044              		.loc 1 3250 0
 4045 0068 240D     		lsrs	r4, r4, #20
 4046              		.loc 1 3255 0
 4047 006a 25F0A005 		bic	r5, r5, #160
 4048              	.LVL428:
 4049 006e 44F48074 		orr	r4, r4, #256
 4050 0072 45F01005 		orr	r5, r5, #16
 4051              		.loc 1 3252 0
 4052 0076 44EA0333 		orr	r3, r4, r3, lsl #12
 4053              	.LVL429:
 4054              		.loc 1 3256 0
 4055 007a 45EA0212 		orr	r2, r5, r2, lsl #4
 4056              	.LVL430:
 4057              		.loc 1 3252 0
 4058 007e 9BB2     		uxth	r3, r3
 4059              	.LVL431:
 4060              		.loc 1 3256 0
 4061 0080 92B2     		uxth	r2, r2
 4062              	.LVL432:
 4063              		.loc 1 3259 0
 4064 0082 0383     		strh	r3, [r0, #24]	@ movhi
 4065              		.loc 1 3260 0
 4066 0084 0284     		strh	r2, [r0, #32]	@ movhi
ARM GAS  /var/folders/7z/kps_xzfj7sn5l5gkyq8s9db00000gn/T//ccc38Eju.s 			page 74


 4067 0086 D6E7     		b	.L202
 4068              	.LBE94:
 4069              	.LBE99:
 4070              		.cfi_endproc
 4071              	.LFE188:
 4072              		.size	TIM_TIxExternalClockConfig, .-TIM_TIxExternalClockConfig
 4073 0088 AFF30080 		.section	.text.TIM_ETRClockMode1Config,"ax",%progbits
 4073      AFF30080 
 4074              		.align	2
 4075              		.p2align 4,,15
 4076              		.global	TIM_ETRClockMode1Config
 4077              		.thumb
 4078              		.thumb_func
 4079              		.type	TIM_ETRClockMode1Config, %function
 4080              	TIM_ETRClockMode1Config:
 4081              	.LFB189:
 4082              		.loc 1 2772 0
 4083              		.cfi_startproc
 4084              		@ args = 0, pretend = 0, frame = 0
 4085              		@ frame_needed = 0, uses_anonymous_args = 0
 4086              		@ link register save eliminated.
 4087              	.LVL433:
 4088 0000 10B4     		push	{r4}
 4089              		.cfi_def_cfa_offset 4
 4090              		.cfi_offset 4, -4
 4091              	.LBB100:
 4092              	.LBB101:
 4093              		.loc 1 3016 0
 4094 0002 0489     		ldrh	r4, [r0, #8]
 4095              	.LVL434:
 4096              		.loc 1 3022 0
 4097 0004 42EA0323 		orr	r3, r2, r3, lsl #8
 4098              	.LVL435:
 4099              		.loc 1 3019 0
 4100 0008 E4B2     		uxtb	r4, r4
 4101              	.LVL436:
 4102 000a 2343     		orrs	r3, r3, r4
 4103 000c 9BB2     		uxth	r3, r3
 4104              		.loc 1 3022 0
 4105 000e 1943     		orrs	r1, r1, r3
 4106              	.LVL437:
 4107              		.loc 1 3025 0
 4108 0010 0181     		strh	r1, [r0, #8]	@ movhi
 4109              	.LBE101:
 4110              	.LBE100:
 4111              		.loc 1 2784 0
 4112 0012 0389     		ldrh	r3, [r0, #8]
 4113              	.LVL438:
 4114              		.loc 1 2798 0
 4115 0014 5DF8044B 		ldr	r4, [sp], #4
 4116              		.cfi_restore 4
 4117              		.cfi_def_cfa_offset 0
 4118              		.loc 1 2793 0
 4119 0018 23F07703 		bic	r3, r3, #119
 4120              	.LVL439:
 4121 001c 1B04     		lsls	r3, r3, #16
 4122 001e 1B0C     		lsrs	r3, r3, #16
ARM GAS  /var/folders/7z/kps_xzfj7sn5l5gkyq8s9db00000gn/T//ccc38Eju.s 			page 75


 4123              	.LVL440:
 4124              		.loc 1 2794 0
 4125 0020 43F07703 		orr	r3, r3, #119
 4126              	.LVL441:
 4127              		.loc 1 2797 0
 4128 0024 0381     		strh	r3, [r0, #8]	@ movhi
 4129              		.loc 1 2798 0
 4130 0026 7047     		bx	lr
 4131              		.cfi_endproc
 4132              	.LFE189:
 4133              		.size	TIM_ETRClockMode1Config, .-TIM_ETRClockMode1Config
 4134 0028 AFF30080 		.section	.text.TIM_ETRClockMode2Config,"ax",%progbits
 4134      AFF30080 
 4135              		.align	2
 4136              		.p2align 4,,15
 4137              		.global	TIM_ETRClockMode2Config
 4138              		.thumb
 4139              		.thumb_func
 4140              		.type	TIM_ETRClockMode2Config, %function
 4141              	TIM_ETRClockMode2Config:
 4142              	.LFB190:
 4143              		.loc 1 2819 0
 4144              		.cfi_startproc
 4145              		@ args = 0, pretend = 0, frame = 0
 4146              		@ frame_needed = 0, uses_anonymous_args = 0
 4147              		@ link register save eliminated.
 4148              	.LVL442:
 4149 0000 10B4     		push	{r4}
 4150              		.cfi_def_cfa_offset 4
 4151              		.cfi_offset 4, -4
 4152              	.LBB102:
 4153              	.LBB103:
 4154              		.loc 1 3016 0
 4155 0002 0489     		ldrh	r4, [r0, #8]
 4156              	.LVL443:
 4157              		.loc 1 3022 0
 4158 0004 42EA0323 		orr	r3, r2, r3, lsl #8
 4159              	.LVL444:
 4160              		.loc 1 3019 0
 4161 0008 E4B2     		uxtb	r4, r4
 4162              	.LVL445:
 4163 000a 2343     		orrs	r3, r3, r4
 4164 000c 9BB2     		uxth	r3, r3
 4165              		.loc 1 3022 0
 4166 000e 1943     		orrs	r1, r1, r3
 4167              	.LVL446:
 4168              		.loc 1 3025 0
 4169 0010 0181     		strh	r1, [r0, #8]	@ movhi
 4170              	.LBE103:
 4171              	.LBE102:
 4172              		.loc 1 2830 0
 4173 0012 0389     		ldrh	r3, [r0, #8]
 4174              		.loc 1 2831 0
 4175 0014 5DF8044B 		ldr	r4, [sp], #4
 4176              		.cfi_restore 4
 4177              		.cfi_def_cfa_offset 0
 4178              		.loc 1 2830 0
ARM GAS  /var/folders/7z/kps_xzfj7sn5l5gkyq8s9db00000gn/T//ccc38Eju.s 			page 76


 4179 0018 9BB2     		uxth	r3, r3
 4180 001a 43F48043 		orr	r3, r3, #16384
 4181 001e 0381     		strh	r3, [r0, #8]	@ movhi
 4182              		.loc 1 2831 0
 4183 0020 7047     		bx	lr
 4184              		.cfi_endproc
 4185              	.LFE190:
 4186              		.size	TIM_ETRClockMode2Config, .-TIM_ETRClockMode2Config
 4187 0022 00BFAFF3 		.section	.text.TIM_SelectInputTrigger,"ax",%progbits
 4187      0080AFF3 
 4187      0080AFF3 
 4187      0080
 4188              		.align	2
 4189              		.p2align 4,,15
 4190              		.global	TIM_SelectInputTrigger
 4191              		.thumb
 4192              		.thumb_func
 4193              		.type	TIM_SelectInputTrigger, %function
 4194              	TIM_SelectInputTrigger:
 4195              	.LFB191:
 4196              		.loc 1 2886 0
 4197              		.cfi_startproc
 4198              		@ args = 0, pretend = 0, frame = 0
 4199              		@ frame_needed = 0, uses_anonymous_args = 0
 4200              		@ link register save eliminated.
 4201              	.LVL447:
 4202              		.loc 1 2894 0
 4203 0000 0389     		ldrh	r3, [r0, #8]
 4204              	.LVL448:
 4205              		.loc 1 2897 0
 4206 0002 23F07003 		bic	r3, r3, #112
 4207              	.LVL449:
 4208 0006 1B04     		lsls	r3, r3, #16
 4209 0008 1B0C     		lsrs	r3, r3, #16
 4210              	.LVL450:
 4211              		.loc 1 2900 0
 4212 000a 1943     		orrs	r1, r1, r3
 4213              	.LVL451:
 4214              		.loc 1 2903 0
 4215 000c 0181     		strh	r1, [r0, #8]	@ movhi
 4216 000e 7047     		bx	lr
 4217              		.cfi_endproc
 4218              	.LFE191:
 4219              		.size	TIM_SelectInputTrigger, .-TIM_SelectInputTrigger
 4220              		.section	.text.TIM_SelectOutputTrigger,"ax",%progbits
 4221              		.align	2
 4222              		.p2align 4,,15
 4223              		.global	TIM_SelectOutputTrigger
 4224              		.thumb
 4225              		.thumb_func
 4226              		.type	TIM_SelectOutputTrigger, %function
 4227              	TIM_SelectOutputTrigger:
 4228              	.LFB192:
 4229              		.loc 1 2929 0
 4230              		.cfi_startproc
 4231              		@ args = 0, pretend = 0, frame = 0
 4232              		@ frame_needed = 0, uses_anonymous_args = 0
ARM GAS  /var/folders/7z/kps_xzfj7sn5l5gkyq8s9db00000gn/T//ccc38Eju.s 			page 77


 4233              		@ link register save eliminated.
 4234              	.LVL452:
 4235              		.loc 1 2935 0
 4236 0000 8388     		ldrh	r3, [r0, #4]
 4237 0002 23F07003 		bic	r3, r3, #112
 4238 0006 1B04     		lsls	r3, r3, #16
 4239 0008 1B0C     		lsrs	r3, r3, #16
 4240 000a 8380     		strh	r3, [r0, #4]	@ movhi
 4241              		.loc 1 2937 0
 4242 000c 8388     		ldrh	r3, [r0, #4]
 4243 000e 9BB2     		uxth	r3, r3
 4244 0010 1943     		orrs	r1, r1, r3
 4245              	.LVL453:
 4246 0012 8180     		strh	r1, [r0, #4]	@ movhi
 4247 0014 7047     		bx	lr
 4248              		.cfi_endproc
 4249              	.LFE192:
 4250              		.size	TIM_SelectOutputTrigger, .-TIM_SelectOutputTrigger
 4251 0016 00BFAFF3 		.section	.text.TIM_SelectSlaveMode,"ax",%progbits
 4251      0080AFF3 
 4251      0080
 4252              		.align	2
 4253              		.p2align 4,,15
 4254              		.global	TIM_SelectSlaveMode
 4255              		.thumb
 4256              		.thumb_func
 4257              		.type	TIM_SelectSlaveMode, %function
 4258              	TIM_SelectSlaveMode:
 4259              	.LFB193:
 4260              		.loc 1 2953 0
 4261              		.cfi_startproc
 4262              		@ args = 0, pretend = 0, frame = 0
 4263              		@ frame_needed = 0, uses_anonymous_args = 0
 4264              		@ link register save eliminated.
 4265              	.LVL454:
 4266              		.loc 1 2959 0
 4267 0000 0389     		ldrh	r3, [r0, #8]
 4268 0002 23F00703 		bic	r3, r3, #7
 4269 0006 1B04     		lsls	r3, r3, #16
 4270 0008 1B0C     		lsrs	r3, r3, #16
 4271 000a 0381     		strh	r3, [r0, #8]	@ movhi
 4272              		.loc 1 2962 0
 4273 000c 0389     		ldrh	r3, [r0, #8]
 4274 000e 9BB2     		uxth	r3, r3
 4275 0010 1943     		orrs	r1, r1, r3
 4276              	.LVL455:
 4277 0012 0181     		strh	r1, [r0, #8]	@ movhi
 4278 0014 7047     		bx	lr
 4279              		.cfi_endproc
 4280              	.LFE193:
 4281              		.size	TIM_SelectSlaveMode, .-TIM_SelectSlaveMode
 4282 0016 00BFAFF3 		.section	.text.TIM_SelectMasterSlaveMode,"ax",%progbits
 4282      0080AFF3 
 4282      0080
 4283              		.align	2
 4284              		.p2align 4,,15
 4285              		.global	TIM_SelectMasterSlaveMode
ARM GAS  /var/folders/7z/kps_xzfj7sn5l5gkyq8s9db00000gn/T//ccc38Eju.s 			page 78


 4286              		.thumb
 4287              		.thumb_func
 4288              		.type	TIM_SelectMasterSlaveMode, %function
 4289              	TIM_SelectMasterSlaveMode:
 4290              	.LFB194:
 4291              		.loc 1 2976 0
 4292              		.cfi_startproc
 4293              		@ args = 0, pretend = 0, frame = 0
 4294              		@ frame_needed = 0, uses_anonymous_args = 0
 4295              		@ link register save eliminated.
 4296              	.LVL456:
 4297              		.loc 1 2982 0
 4298 0000 0389     		ldrh	r3, [r0, #8]
 4299 0002 23F08003 		bic	r3, r3, #128
 4300 0006 1B04     		lsls	r3, r3, #16
 4301 0008 1B0C     		lsrs	r3, r3, #16
 4302 000a 0381     		strh	r3, [r0, #8]	@ movhi
 4303              		.loc 1 2985 0
 4304 000c 0389     		ldrh	r3, [r0, #8]
 4305 000e 9BB2     		uxth	r3, r3
 4306 0010 1943     		orrs	r1, r1, r3
 4307              	.LVL457:
 4308 0012 0181     		strh	r1, [r0, #8]	@ movhi
 4309 0014 7047     		bx	lr
 4310              		.cfi_endproc
 4311              	.LFE194:
 4312              		.size	TIM_SelectMasterSlaveMode, .-TIM_SelectMasterSlaveMode
 4313 0016 00BFAFF3 		.section	.text.TIM_ETRConfig,"ax",%progbits
 4313      0080AFF3 
 4313      0080
 4314              		.align	2
 4315              		.p2align 4,,15
 4316              		.global	TIM_ETRConfig
 4317              		.thumb
 4318              		.thumb_func
 4319              		.type	TIM_ETRConfig, %function
 4320              	TIM_ETRConfig:
 4321              	.LFB195:
 4322              		.loc 1 3007 0
 4323              		.cfi_startproc
 4324              		@ args = 0, pretend = 0, frame = 0
 4325              		@ frame_needed = 0, uses_anonymous_args = 0
 4326              		@ link register save eliminated.
 4327              	.LVL458:
 4328 0000 10B4     		push	{r4}
 4329              		.cfi_def_cfa_offset 4
 4330              		.cfi_offset 4, -4
 4331              		.loc 1 3016 0
 4332 0002 0489     		ldrh	r4, [r0, #8]
 4333              	.LVL459:
 4334              		.loc 1 3019 0
 4335 0004 E4B2     		uxtb	r4, r4
 4336              	.LVL460:
 4337 0006 2143     		orrs	r1, r1, r4
 4338              	.LVL461:
 4339 0008 0A43     		orrs	r2, r2, r1
 4340              	.LVL462:
ARM GAS  /var/folders/7z/kps_xzfj7sn5l5gkyq8s9db00000gn/T//ccc38Eju.s 			page 79


 4341              		.loc 1 3022 0
 4342 000a 42EA0323 		orr	r3, r2, r3, lsl #8
 4343              	.LVL463:
 4344 000e 99B2     		uxth	r1, r3
 4345              	.LVL464:
 4346              		.loc 1 3025 0
 4347 0010 0181     		strh	r1, [r0, #8]	@ movhi
 4348              		.loc 1 3026 0
 4349 0012 5DF8044B 		ldr	r4, [sp], #4
 4350              		.cfi_restore 4
 4351              		.cfi_def_cfa_offset 0
 4352 0016 7047     		bx	lr
 4353              		.cfi_endproc
 4354              	.LFE195:
 4355              		.size	TIM_ETRConfig, .-TIM_ETRConfig
 4356 0018 AFF30080 		.section	.text.TIM_EncoderInterfaceConfig,"ax",%progbits
 4356      AFF30080 
 4357              		.align	2
 4358              		.p2align 4,,15
 4359              		.global	TIM_EncoderInterfaceConfig
 4360              		.thumb
 4361              		.thumb_func
 4362              		.type	TIM_EncoderInterfaceConfig, %function
 4363              	TIM_EncoderInterfaceConfig:
 4364              	.LFB196:
 4365              		.loc 1 3065 0
 4366              		.cfi_startproc
 4367              		@ args = 0, pretend = 0, frame = 0
 4368              		@ frame_needed = 0, uses_anonymous_args = 0
 4369              		@ link register save eliminated.
 4370              	.LVL465:
 4371 0000 70B4     		push	{r4, r5, r6}
 4372              		.cfi_def_cfa_offset 12
 4373              		.cfi_offset 4, -12
 4374              		.cfi_offset 5, -8
 4375              		.cfi_offset 6, -4
 4376              		.loc 1 3077 0
 4377 0002 0689     		ldrh	r6, [r0, #8]
 4378              	.LVL466:
 4379              		.loc 1 3080 0
 4380 0004 048B     		ldrh	r4, [r0, #24]
 4381              	.LVL467:
 4382              		.loc 1 3083 0
 4383 0006 058C     		ldrh	r5, [r0, #32]
 4384              		.loc 1 3090 0
 4385 0008 24F44074 		bic	r4, r4, #768
 4386              	.LVL468:
 4387 000c 24F00304 		bic	r4, r4, #3
 4388              		.loc 1 3083 0
 4389 0010 ADB2     		uxth	r5, r5
 4390              	.LVL469:
 4391              		.loc 1 3094 0
 4392 0012 25F02205 		bic	r5, r5, #34
 4393              	.LVL470:
 4394              		.loc 1 3086 0
 4395 0016 26F00706 		bic	r6, r6, #7
 4396              	.LVL471:
ARM GAS  /var/folders/7z/kps_xzfj7sn5l5gkyq8s9db00000gn/T//ccc38Eju.s 			page 80


 4397              		.loc 1 3090 0
 4398 001a 2404     		lsls	r4, r4, #16
 4399 001c 2A43     		orrs	r2, r2, r5
 4400              	.LVL472:
 4401              		.loc 1 3086 0
 4402 001e 3604     		lsls	r6, r6, #16
 4403              		.loc 1 3090 0
 4404 0020 240C     		lsrs	r4, r4, #16
 4405              		.loc 1 3086 0
 4406 0022 360C     		lsrs	r6, r6, #16
 4407              	.LVL473:
 4408              		.loc 1 3091 0
 4409 0024 44F48074 		orr	r4, r4, #256
 4410              		.loc 1 3095 0
 4411 0028 42EA0313 		orr	r3, r2, r3, lsl #4
 4412              	.LVL474:
 4413              		.loc 1 3087 0
 4414 002c 3143     		orrs	r1, r1, r6
 4415              	.LVL475:
 4416              		.loc 1 3091 0
 4417 002e 44F00104 		orr	r4, r4, #1
 4418              	.LVL476:
 4419              		.loc 1 3095 0
 4420 0032 9AB2     		uxth	r2, r3
 4421              	.LVL477:
 4422              		.loc 1 3098 0
 4423 0034 0181     		strh	r1, [r0, #8]	@ movhi
 4424              		.loc 1 3101 0
 4425 0036 0483     		strh	r4, [r0, #24]	@ movhi
 4426              		.loc 1 3104 0
 4427 0038 0284     		strh	r2, [r0, #32]	@ movhi
 4428              		.loc 1 3105 0
 4429 003a 70BC     		pop	{r4, r5, r6}
 4430              		.cfi_restore 6
 4431              		.cfi_restore 5
 4432              		.cfi_restore 4
 4433              		.cfi_def_cfa_offset 0
 4434              	.LVL478:
 4435 003c 7047     		bx	lr
 4436              		.cfi_endproc
 4437              	.LFE196:
 4438              		.size	TIM_EncoderInterfaceConfig, .-TIM_EncoderInterfaceConfig
 4439 003e 00BF     		.section	.text.TIM_SelectHallSensor,"ax",%progbits
 4440              		.align	2
 4441              		.p2align 4,,15
 4442              		.global	TIM_SelectHallSensor
 4443              		.thumb
 4444              		.thumb_func
 4445              		.type	TIM_SelectHallSensor, %function
 4446              	TIM_SelectHallSensor:
 4447              	.LFB197:
 4448              		.loc 1 3116 0
 4449              		.cfi_startproc
 4450              		@ args = 0, pretend = 0, frame = 0
 4451              		@ frame_needed = 0, uses_anonymous_args = 0
 4452              		@ link register save eliminated.
 4453              	.LVL479:
ARM GAS  /var/folders/7z/kps_xzfj7sn5l5gkyq8s9db00000gn/T//ccc38Eju.s 			page 81


 4454              		.loc 1 3124 0
 4455 0000 8388     		ldrh	r3, [r0, #4]
 4456              		.loc 1 3121 0
 4457 0002 29B9     		cbnz	r1, .L220
 4458              		.loc 1 3129 0
 4459 0004 23F08003 		bic	r3, r3, #128
 4460 0008 1B04     		lsls	r3, r3, #16
 4461 000a 1B0C     		lsrs	r3, r3, #16
 4462 000c 8380     		strh	r3, [r0, #4]	@ movhi
 4463 000e 7047     		bx	lr
 4464              	.L220:
 4465              		.loc 1 3124 0
 4466 0010 9BB2     		uxth	r3, r3
 4467 0012 43F08003 		orr	r3, r3, #128
 4468 0016 8380     		strh	r3, [r0, #4]	@ movhi
 4469 0018 7047     		bx	lr
 4470              		.cfi_endproc
 4471              	.LFE197:
 4472              		.size	TIM_SelectHallSensor, .-TIM_SelectHallSensor
 4473 001a 00BFAFF3 		.section	.text.TIM_RemapConfig,"ax",%progbits
 4473      0080
 4474              		.align	2
 4475              		.p2align 4,,15
 4476              		.global	TIM_RemapConfig
 4477              		.thumb
 4478              		.thumb_func
 4479              		.type	TIM_RemapConfig, %function
 4480              	TIM_RemapConfig:
 4481              	.LFB198:
 4482              		.loc 1 3167 0
 4483              		.cfi_startproc
 4484              		@ args = 0, pretend = 0, frame = 0
 4485              		@ frame_needed = 0, uses_anonymous_args = 0
 4486              		@ link register save eliminated.
 4487              	.LVL480:
 4488              		.loc 1 3173 0
 4489 0000 A0F85010 		strh	r1, [r0, #80]	@ movhi
 4490 0004 7047     		bx	lr
 4491              		.cfi_endproc
 4492              	.LFE198:
 4493              		.size	TIM_RemapConfig, .-TIM_RemapConfig
 4494 0006 00BFAFF3 		.text
 4494      0080AFF3 
 4494      0080
 4495              	.Letext0:
 4496              		.file 2 "/Users/Baram/gcc-arm-none-eabi/arm-none-eabi/include/machine/_default_types.h"
 4497              		.file 3 "/Users/Baram/gcc-arm-none-eabi/arm-none-eabi/include/stdint.h"
 4498              		.file 4 "lib/ChibiOS_2.6.6/os/hal/platforms/STM32F4xx/stm32f4xx.h"
 4499              		.file 5 "lib/ChibiOS_2.6.6/ext/stdperiph_stm32f4/inc/stm32f4xx_tim.h"
 4500              		.file 6 "lib/ChibiOS_2.6.6/ext/stdperiph_stm32f4/inc/stm32f4xx_rcc.h"
 4501              		.file 7 "lib/ChibiOS_2.6.6/os/ports/common/ARMCMx/CMSIS/include/core_cm4.h"