ARM GAS  /var/folders/7z/kps_xzfj7sn5l5gkyq8s9db00000gn/T//cc2C97ap.s 			page 1


   1              		.syntax unified
   2              		.cpu cortex-m4
   3              		.eabi_attribute 27, 1
   4              		.eabi_attribute 28, 1
   5              		.fpu fpv4-sp-d16
   6              		.eabi_attribute 20, 1
   7              		.eabi_attribute 21, 1
   8              		.eabi_attribute 23, 3
   9              		.eabi_attribute 24, 1
  10              		.eabi_attribute 25, 1
  11              		.eabi_attribute 26, 1
  12              		.eabi_attribute 30, 2
  13              		.eabi_attribute 34, 1
  14              		.eabi_attribute 18, 4
  15              		.thumb
  16              		.file	"stm32f4xx_adc.c"
  17              		.text
  18              	.Ltext0:
  19              		.cfi_sections	.debug_frame
  20              		.section	.text.ADC_DeInit,"ax",%progbits
  21              		.align	2
  22              		.p2align 4,,15
  23              		.global	ADC_DeInit
  24              		.thumb
  25              		.thumb_func
  26              		.type	ADC_DeInit, %function
  27              	ADC_DeInit:
  28              	.LFB111:
  29              		.file 1 "lib/ChibiOS_2.6.6/ext/stdperiph_stm32f4/src/stm32f4xx_adc.c"
  30              		.loc 1 213 0
  31              		.cfi_startproc
  32              		@ args = 0, pretend = 0, frame = 0
  33              		@ frame_needed = 0, uses_anonymous_args = 0
  34 0000 08B5     		push	{r3, lr}
  35              		.cfi_def_cfa_offset 8
  36              		.cfi_offset 3, -8
  37              		.cfi_offset 14, -4
  38              		.loc 1 215 0
  39 0002 4FF48070 		mov	r0, #256
  40 0006 0121     		movs	r1, #1
  41 0008 FFF7FEFF 		bl	RCC_APB2PeriphResetCmd
  42              	.LVL0:
  43              		.loc 1 218 0
  44 000c 4FF48070 		mov	r0, #256
  45 0010 0021     		movs	r1, #0
  46              		.loc 1 219 0
  47 0012 BDE80840 		pop	{r3, lr}
  48              		.cfi_restore 14
  49              		.cfi_restore 3
  50              		.cfi_def_cfa_offset 0
  51              		.loc 1 218 0
  52 0016 FFF7FEBF 		b	RCC_APB2PeriphResetCmd
  53              	.LVL1:
  54              		.cfi_endproc
  55              	.LFE111:
  56              		.size	ADC_DeInit, .-ADC_DeInit
  57 001a 00BFAFF3 		.section	.text.ADC_Init,"ax",%progbits
ARM GAS  /var/folders/7z/kps_xzfj7sn5l5gkyq8s9db00000gn/T//cc2C97ap.s 			page 2


  57      0080
  58              		.align	2
  59              		.p2align 4,,15
  60              		.global	ADC_Init
  61              		.thumb
  62              		.thumb_func
  63              		.type	ADC_Init, %function
  64              	ADC_Init:
  65              	.LFB112:
  66              		.loc 1 235 0
  67              		.cfi_startproc
  68              		@ args = 0, pretend = 0, frame = 0
  69              		@ frame_needed = 0, uses_anonymous_args = 0
  70              	.LVL2:
  71 0000 F0B5     		push	{r4, r5, r6, r7, lr}
  72              		.cfi_def_cfa_offset 20
  73              		.cfi_offset 4, -20
  74              		.cfi_offset 5, -16
  75              		.cfi_offset 6, -12
  76              		.cfi_offset 7, -8
  77              		.cfi_offset 14, -4
  78              		.loc 1 250 0
  79 0002 4468     		ldr	r4, [r0, #4]
  80              	.LVL3:
  81 0004 0A68     		ldr	r2, [r1]
  82              		.loc 1 258 0
  83 0006 91F804C0 		ldrb	ip, [r1, #4]	@ zero_extendqisi2
  84 000a D1F80CE0 		ldr	lr, [r1, #12]
  85 000e 0E69     		ldr	r6, [r1, #16]
  86 0010 8D68     		ldr	r5, [r1, #8]
  87              		.loc 1 278 0
  88 0012 4F79     		ldrb	r7, [r1, #5]	@ zero_extendqisi2
  89              		.loc 1 267 0
  90 0014 0D4B     		ldr	r3, .L5
  91              		.loc 1 253 0
  92 0016 24F04074 		bic	r4, r4, #50331648
  93              	.LVL4:
  94 001a 24F48074 		bic	r4, r4, #256
  95 001e 2243     		orrs	r2, r2, r4
  96              		.loc 1 258 0
  97 0020 42EA0C22 		orr	r2, r2, ip, lsl #8
  98              	.LVL5:
  99              		.loc 1 261 0
 100 0024 4260     		str	r2, [r0, #4]
 101              		.loc 1 264 0
 102 0026 8468     		ldr	r4, [r0, #8]
 103              	.LVL6:
 104 0028 4EEA0602 		orr	r2, lr, r6
 105 002c 2A43     		orrs	r2, r2, r5
 106              		.loc 1 267 0
 107 002e 2340     		ands	r3, r3, r4
 108              	.LVL7:
 109 0030 1343     		orrs	r3, r3, r2
 110              	.LVL8:
 111              		.loc 1 275 0
 112 0032 43EA4703 		orr	r3, r3, r7, lsl #1
 113              	.LVL9:
ARM GAS  /var/folders/7z/kps_xzfj7sn5l5gkyq8s9db00000gn/T//cc2C97ap.s 			page 3


 114              		.loc 1 281 0
 115 0036 8360     		str	r3, [r0, #8]
 116              		.loc 1 291 0
 117 0038 0A7D     		ldrb	r2, [r1, #20]	@ zero_extendqisi2
 118              		.loc 1 284 0
 119 003a C36A     		ldr	r3, [r0, #44]
 120              	.LVL10:
 121              		.loc 1 291 0
 122 003c 013A     		subs	r2, r2, #1
 123              		.loc 1 292 0
 124 003e D2B2     		uxtb	r2, r2
 125              		.loc 1 287 0
 126 0040 23F47003 		bic	r3, r3, #15728640
 127              	.LVL11:
 128              		.loc 1 292 0
 129 0044 43EA0253 		orr	r3, r3, r2, lsl #20
 130              	.LVL12:
 131              		.loc 1 295 0
 132 0048 C362     		str	r3, [r0, #44]
 133              	.LVL13:
 134 004a F0BD     		pop	{r4, r5, r6, r7, pc}
 135              	.L6:
 136              		.align	2
 137              	.L5:
 138 004c FDF7FFC0 		.word	-1056966659
 139              		.cfi_endproc
 140              	.LFE112:
 141              		.size	ADC_Init, .-ADC_Init
 142              		.section	.text.ADC_StructInit,"ax",%progbits
 143              		.align	2
 144              		.p2align 4,,15
 145              		.global	ADC_StructInit
 146              		.thumb
 147              		.thumb_func
 148              		.type	ADC_StructInit, %function
 149              	ADC_StructInit:
 150              	.LFB113:
 151              		.loc 1 310 0
 152              		.cfi_startproc
 153              		@ args = 0, pretend = 0, frame = 0
 154              		@ frame_needed = 0, uses_anonymous_args = 0
 155              		@ link register save eliminated.
 156              	.LVL14:
 157              		.loc 1 312 0
 158 0000 0023     		movs	r3, #0
 159              		.loc 1 330 0
 160 0002 0122     		movs	r2, #1
 161 0004 0275     		strb	r2, [r0, #20]
 162              		.loc 1 312 0
 163 0006 0360     		str	r3, [r0]
 164              		.loc 1 315 0
 165 0008 0371     		strb	r3, [r0, #4]
 166              		.loc 1 318 0
 167 000a 4371     		strb	r3, [r0, #5]
 168              		.loc 1 321 0
 169 000c 8360     		str	r3, [r0, #8]
 170              		.loc 1 324 0
ARM GAS  /var/folders/7z/kps_xzfj7sn5l5gkyq8s9db00000gn/T//cc2C97ap.s 			page 4


 171 000e C360     		str	r3, [r0, #12]
 172              		.loc 1 327 0
 173 0010 0361     		str	r3, [r0, #16]
 174 0012 7047     		bx	lr
 175              		.cfi_endproc
 176              	.LFE113:
 177              		.size	ADC_StructInit, .-ADC_StructInit
 178 0014 AFF30080 		.section	.text.ADC_CommonInit,"ax",%progbits
 178      AFF30080 
 178      AFF30080 
 179              		.align	2
 180              		.p2align 4,,15
 181              		.global	ADC_CommonInit
 182              		.thumb
 183              		.thumb_func
 184              		.type	ADC_CommonInit, %function
 185              	ADC_CommonInit:
 186              	.LFB114:
 187              		.loc 1 341 0
 188              		.cfi_startproc
 189              		@ args = 0, pretend = 0, frame = 0
 190              		@ frame_needed = 0, uses_anonymous_args = 0
 191              		@ link register save eliminated.
 192              	.LVL15:
 193 0000 70B4     		push	{r4, r5, r6}
 194              		.cfi_def_cfa_offset 12
 195              		.cfi_offset 4, -12
 196              		.cfi_offset 5, -8
 197              		.cfi_offset 6, -4
 198              		.loc 1 361 0
 199 0002 90E84400 		ldmia	r0, {r2, r6}
 200              		.loc 1 350 0
 201 0006 064D     		ldr	r5, .L10
 202              		.loc 1 362 0
 203 0008 8468     		ldr	r4, [r0, #8]
 204              		.loc 1 361 0
 205 000a C168     		ldr	r1, [r0, #12]
 206              		.loc 1 353 0
 207 000c 054B     		ldr	r3, .L10+4
 208              		.loc 1 350 0
 209 000e 6868     		ldr	r0, [r5, #4]
 210              	.LVL16:
 211              		.loc 1 361 0
 212 0010 3243     		orrs	r2, r2, r6
 213              		.loc 1 362 0
 214 0012 2243     		orrs	r2, r2, r4
 215              		.loc 1 361 0
 216 0014 0A43     		orrs	r2, r2, r1
 217              		.loc 1 353 0
 218 0016 0340     		ands	r3, r3, r0
 219              	.LVL17:
 220              		.loc 1 361 0
 221 0018 1343     		orrs	r3, r3, r2
 222              	.LVL18:
 223              		.loc 1 367 0
 224 001a 6B60     		str	r3, [r5, #4]
 225              		.loc 1 368 0
ARM GAS  /var/folders/7z/kps_xzfj7sn5l5gkyq8s9db00000gn/T//cc2C97ap.s 			page 5


 226 001c 70BC     		pop	{r4, r5, r6}
 227              		.cfi_restore 6
 228              		.cfi_restore 5
 229              		.cfi_restore 4
 230              		.cfi_def_cfa_offset 0
 231 001e 7047     		bx	lr
 232              	.L11:
 233              		.align	2
 234              	.L10:
 235 0020 00230140 		.word	1073816320
 236 0024 E030FCFF 		.word	-249632
 237              		.cfi_endproc
 238              	.LFE114:
 239              		.size	ADC_CommonInit, .-ADC_CommonInit
 240 0028 AFF30080 		.section	.text.ADC_CommonStructInit,"ax",%progbits
 240      AFF30080 
 241              		.align	2
 242              		.p2align 4,,15
 243              		.global	ADC_CommonStructInit
 244              		.thumb
 245              		.thumb_func
 246              		.type	ADC_CommonStructInit, %function
 247              	ADC_CommonStructInit:
 248              	.LFB115:
 249              		.loc 1 377 0
 250              		.cfi_startproc
 251              		@ args = 0, pretend = 0, frame = 0
 252              		@ frame_needed = 0, uses_anonymous_args = 0
 253              		@ link register save eliminated.
 254              	.LVL19:
 255              		.loc 1 379 0
 256 0000 0023     		movs	r3, #0
 257 0002 0360     		str	r3, [r0]
 258              		.loc 1 382 0
 259 0004 4360     		str	r3, [r0, #4]
 260              		.loc 1 385 0
 261 0006 8360     		str	r3, [r0, #8]
 262              		.loc 1 388 0
 263 0008 C360     		str	r3, [r0, #12]
 264 000a 7047     		bx	lr
 265              		.cfi_endproc
 266              	.LFE115:
 267              		.size	ADC_CommonStructInit, .-ADC_CommonStructInit
 268 000c AFF30080 		.section	.text.ADC_Cmd,"ax",%progbits
 269              		.align	2
 270              		.p2align 4,,15
 271              		.global	ADC_Cmd
 272              		.thumb
 273              		.thumb_func
 274              		.type	ADC_Cmd, %function
 275              	ADC_Cmd:
 276              	.LFB116:
 277              		.loc 1 399 0
 278              		.cfi_startproc
 279              		@ args = 0, pretend = 0, frame = 0
 280              		@ frame_needed = 0, uses_anonymous_args = 0
 281              		@ link register save eliminated.
ARM GAS  /var/folders/7z/kps_xzfj7sn5l5gkyq8s9db00000gn/T//cc2C97ap.s 			page 6


 282              	.LVL20:
 283              		.loc 1 406 0
 284 0000 8368     		ldr	r3, [r0, #8]
 285              		.loc 1 403 0
 286 0002 19B9     		cbnz	r1, .L17
 287              		.loc 1 411 0
 288 0004 23F00103 		bic	r3, r3, #1
 289 0008 8360     		str	r3, [r0, #8]
 290 000a 7047     		bx	lr
 291              	.L17:
 292              		.loc 1 406 0
 293 000c 43F00103 		orr	r3, r3, #1
 294 0010 8360     		str	r3, [r0, #8]
 295 0012 7047     		bx	lr
 296              		.cfi_endproc
 297              	.LFE116:
 298              		.size	ADC_Cmd, .-ADC_Cmd
 299 0014 AFF30080 		.section	.text.ADC_AnalogWatchdogCmd,"ax",%progbits
 299      AFF30080 
 299      AFF30080 
 300              		.align	2
 301              		.p2align 4,,15
 302              		.global	ADC_AnalogWatchdogCmd
 303              		.thumb
 304              		.thumb_func
 305              		.type	ADC_AnalogWatchdogCmd, %function
 306              	ADC_AnalogWatchdogCmd:
 307              	.LFB117:
 308              		.loc 1 457 0
 309              		.cfi_startproc
 310              		@ args = 0, pretend = 0, frame = 0
 311              		@ frame_needed = 0, uses_anonymous_args = 0
 312              		@ link register save eliminated.
 313              	.LVL21:
 314              		.loc 1 464 0
 315 0000 4368     		ldr	r3, [r0, #4]
 316              	.LVL22:
 317              		.loc 1 467 0
 318 0002 23F44003 		bic	r3, r3, #12582912
 319              	.LVL23:
 320 0006 23F40073 		bic	r3, r3, #512
 321              	.LVL24:
 322              		.loc 1 470 0
 323 000a 1943     		orrs	r1, r1, r3
 324              	.LVL25:
 325              		.loc 1 473 0
 326 000c 4160     		str	r1, [r0, #4]
 327 000e 7047     		bx	lr
 328              		.cfi_endproc
 329              	.LFE117:
 330              		.size	ADC_AnalogWatchdogCmd, .-ADC_AnalogWatchdogCmd
 331              		.section	.text.ADC_AnalogWatchdogThresholdsConfig,"ax",%progbits
 332              		.align	2
 333              		.p2align 4,,15
 334              		.global	ADC_AnalogWatchdogThresholdsConfig
 335              		.thumb
 336              		.thumb_func
ARM GAS  /var/folders/7z/kps_xzfj7sn5l5gkyq8s9db00000gn/T//cc2C97ap.s 			page 7


 337              		.type	ADC_AnalogWatchdogThresholdsConfig, %function
 338              	ADC_AnalogWatchdogThresholdsConfig:
 339              	.LFB118:
 340              		.loc 1 487 0
 341              		.cfi_startproc
 342              		@ args = 0, pretend = 0, frame = 0
 343              		@ frame_needed = 0, uses_anonymous_args = 0
 344              		@ link register save eliminated.
 345              	.LVL26:
 346              		.loc 1 494 0
 347 0000 4162     		str	r1, [r0, #36]
 348              		.loc 1 497 0
 349 0002 8262     		str	r2, [r0, #40]
 350 0004 7047     		bx	lr
 351              		.cfi_endproc
 352              	.LFE118:
 353              		.size	ADC_AnalogWatchdogThresholdsConfig, .-ADC_AnalogWatchdogThresholdsConfig
 354 0006 00BFAFF3 		.section	.text.ADC_AnalogWatchdogSingleChannelConfig,"ax",%progbits
 354      0080AFF3 
 354      0080
 355              		.align	2
 356              		.p2align 4,,15
 357              		.global	ADC_AnalogWatchdogSingleChannelConfig
 358              		.thumb
 359              		.thumb_func
 360              		.type	ADC_AnalogWatchdogSingleChannelConfig, %function
 361              	ADC_AnalogWatchdogSingleChannelConfig:
 362              	.LFB119:
 363              		.loc 1 527 0
 364              		.cfi_startproc
 365              		@ args = 0, pretend = 0, frame = 0
 366              		@ frame_needed = 0, uses_anonymous_args = 0
 367              		@ link register save eliminated.
 368              	.LVL27:
 369              		.loc 1 534 0
 370 0000 4368     		ldr	r3, [r0, #4]
 371              	.LVL28:
 372              		.loc 1 537 0
 373 0002 23F01F03 		bic	r3, r3, #31
 374              	.LVL29:
 375              		.loc 1 540 0
 376 0006 1943     		orrs	r1, r1, r3
 377              	.LVL30:
 378              		.loc 1 543 0
 379 0008 4160     		str	r1, [r0, #4]
 380 000a 7047     		bx	lr
 381              		.cfi_endproc
 382              	.LFE119:
 383              		.size	ADC_AnalogWatchdogSingleChannelConfig, .-ADC_AnalogWatchdogSingleChannelConfig
 384 000c AFF30080 		.section	.text.ADC_TempSensorVrefintCmd,"ax",%progbits
 385              		.align	2
 386              		.p2align 4,,15
 387              		.global	ADC_TempSensorVrefintCmd
 388              		.thumb
 389              		.thumb_func
 390              		.type	ADC_TempSensorVrefintCmd, %function
 391              	ADC_TempSensorVrefintCmd:
ARM GAS  /var/folders/7z/kps_xzfj7sn5l5gkyq8s9db00000gn/T//cc2C97ap.s 			page 8


 392              	.LFB120:
 393              		.loc 1 592 0
 394              		.cfi_startproc
 395              		@ args = 0, pretend = 0, frame = 0
 396              		@ frame_needed = 0, uses_anonymous_args = 0
 397              		@ link register save eliminated.
 398              	.LVL31:
 399              		.loc 1 598 0
 400 0000 054A     		ldr	r2, .L25
 401 0002 5368     		ldr	r3, [r2, #4]
 402              		.loc 1 595 0
 403 0004 18B9     		cbnz	r0, .L24
 404              		.loc 1 603 0
 405 0006 23F40003 		bic	r3, r3, #8388608
 406 000a 5360     		str	r3, [r2, #4]
 407 000c 7047     		bx	lr
 408              	.L24:
 409              		.loc 1 598 0
 410 000e 43F40003 		orr	r3, r3, #8388608
 411 0012 5360     		str	r3, [r2, #4]
 412 0014 7047     		bx	lr
 413              	.L26:
 414 0016 00BF     		.align	2
 415              	.L25:
 416 0018 00230140 		.word	1073816320
 417              		.cfi_endproc
 418              	.LFE120:
 419              		.size	ADC_TempSensorVrefintCmd, .-ADC_TempSensorVrefintCmd
 420 001c AFF30080 		.section	.text.ADC_VBATCmd,"ax",%progbits
 421              		.align	2
 422              		.p2align 4,,15
 423              		.global	ADC_VBATCmd
 424              		.thumb
 425              		.thumb_func
 426              		.type	ADC_VBATCmd, %function
 427              	ADC_VBATCmd:
 428              	.LFB121:
 429              		.loc 1 614 0
 430              		.cfi_startproc
 431              		@ args = 0, pretend = 0, frame = 0
 432              		@ frame_needed = 0, uses_anonymous_args = 0
 433              		@ link register save eliminated.
 434              	.LVL32:
 435              		.loc 1 620 0
 436 0000 054A     		ldr	r2, .L31
 437 0002 5368     		ldr	r3, [r2, #4]
 438              		.loc 1 617 0
 439 0004 18B9     		cbnz	r0, .L30
 440              		.loc 1 625 0
 441 0006 23F48003 		bic	r3, r3, #4194304
 442 000a 5360     		str	r3, [r2, #4]
 443 000c 7047     		bx	lr
 444              	.L30:
 445              		.loc 1 620 0
 446 000e 43F48003 		orr	r3, r3, #4194304
 447 0012 5360     		str	r3, [r2, #4]
 448 0014 7047     		bx	lr
ARM GAS  /var/folders/7z/kps_xzfj7sn5l5gkyq8s9db00000gn/T//cc2C97ap.s 			page 9


 449              	.L32:
 450 0016 00BF     		.align	2
 451              	.L31:
 452 0018 00230140 		.word	1073816320
 453              		.cfi_endproc
 454              	.LFE121:
 455              		.size	ADC_VBATCmd, .-ADC_VBATCmd
 456 001c AFF30080 		.section	.text.ADC_RegularChannelConfig,"ax",%progbits
 457              		.align	2
 458              		.p2align 4,,15
 459              		.global	ADC_RegularChannelConfig
 460              		.thumb
 461              		.thumb_func
 462              		.type	ADC_RegularChannelConfig, %function
 463              	ADC_RegularChannelConfig:
 464              	.LFB122:
 465              		.loc 1 715 0
 466              		.cfi_startproc
 467              		@ args = 0, pretend = 0, frame = 0
 468              		@ frame_needed = 0, uses_anonymous_args = 0
 469              		@ link register save eliminated.
 470              	.LVL33:
 471              		.loc 1 724 0
 472 0000 0929     		cmp	r1, #9
 473              		.loc 1 715 0
 474 0002 70B4     		push	{r4, r5, r6}
 475              		.cfi_def_cfa_offset 12
 476              		.cfi_offset 4, -12
 477              		.cfi_offset 5, -8
 478              		.cfi_offset 6, -4
 479              		.loc 1 724 0
 480 0004 1CD9     		bls	.L34
 481              		.loc 1 730 0
 482 0006 A1F10A04 		sub	r4, r1, #10
 483 000a 04EB4404 		add	r4, r4, r4, lsl #1
 484              		.loc 1 727 0
 485 000e C568     		ldr	r5, [r0, #12]
 486              	.LVL34:
 487              		.loc 1 730 0
 488 0010 0726     		movs	r6, #7
 489 0012 A640     		lsls	r6, r6, r4
 490              	.LVL35:
 491              		.loc 1 736 0
 492 0014 A340     		lsls	r3, r3, r4
 493              	.LVL36:
 494              		.loc 1 733 0
 495 0016 25EA0604 		bic	r4, r5, r6
 496              	.LVL37:
 497              		.loc 1 739 0
 498 001a 2343     		orrs	r3, r3, r4
 499              	.LVL38:
 500              		.loc 1 765 0
 501 001c 062A     		cmp	r2, #6
 502              		.loc 1 742 0
 503 001e C360     		str	r3, [r0, #12]
 504              		.loc 1 765 0
 505 0020 1AD9     		bls	.L40
ARM GAS  /var/folders/7z/kps_xzfj7sn5l5gkyq8s9db00000gn/T//cc2C97ap.s 			page 10


 506              	.L36:
 507              		.loc 1 786 0
 508 0022 0C2A     		cmp	r2, #12
 509 0024 25D9     		bls	.L41
 510              		.loc 1 813 0
 511 0026 0D3A     		subs	r2, r2, #13
 512              	.LVL39:
 513              		.loc 1 810 0
 514 0028 C46A     		ldr	r4, [r0, #44]
 515              	.LVL40:
 516              		.loc 1 813 0
 517 002a 02EB8202 		add	r2, r2, r2, lsl #2
 518              	.LVL41:
 519 002e 1F23     		movs	r3, #31
 520 0030 9340     		lsls	r3, r3, r2
 521              	.LVL42:
 522              		.loc 1 816 0
 523 0032 24EA0303 		bic	r3, r4, r3
 524              	.LVL43:
 525              		.loc 1 819 0
 526 0036 9140     		lsls	r1, r1, r2
 527              	.LVL44:
 528              		.loc 1 822 0
 529 0038 1943     		orrs	r1, r1, r3
 530              	.LVL45:
 531              		.loc 1 825 0
 532 003a C162     		str	r1, [r0, #44]
 533              		.loc 1 827 0
 534 003c 70BC     		pop	{r4, r5, r6}
 535              		.cfi_remember_state
 536              		.cfi_restore 6
 537              		.cfi_restore 5
 538              		.cfi_restore 4
 539              		.cfi_def_cfa_offset 0
 540 003e 7047     		bx	lr
 541              	.LVL46:
 542              	.L34:
 543              		.cfi_restore_state
 544              		.loc 1 750 0
 545 0040 01EB4106 		add	r6, r1, r1, lsl #1
 546              		.loc 1 747 0
 547 0044 0569     		ldr	r5, [r0, #16]
 548              	.LVL47:
 549              		.loc 1 750 0
 550 0046 0724     		movs	r4, #7
 551 0048 B440     		lsls	r4, r4, r6
 552              	.LVL48:
 553              		.loc 1 756 0
 554 004a B340     		lsls	r3, r3, r6
 555              	.LVL49:
 556              		.loc 1 753 0
 557 004c 25EA0404 		bic	r4, r5, r4
 558              	.LVL50:
 559              		.loc 1 759 0
 560 0050 2343     		orrs	r3, r3, r4
 561              	.LVL51:
 562              		.loc 1 765 0
ARM GAS  /var/folders/7z/kps_xzfj7sn5l5gkyq8s9db00000gn/T//cc2C97ap.s 			page 11


 563 0052 062A     		cmp	r2, #6
 564              		.loc 1 762 0
 565 0054 0361     		str	r3, [r0, #16]
 566              		.loc 1 765 0
 567 0056 E4D8     		bhi	.L36
 568              	.L40:
 569              		.loc 1 771 0
 570 0058 013A     		subs	r2, r2, #1
 571              	.LVL52:
 572              		.loc 1 768 0
 573 005a 446B     		ldr	r4, [r0, #52]
 574              	.LVL53:
 575              		.loc 1 771 0
 576 005c 02EB8202 		add	r2, r2, r2, lsl #2
 577              	.LVL54:
 578 0060 1F23     		movs	r3, #31
 579 0062 9340     		lsls	r3, r3, r2
 580              	.LVL55:
 581              		.loc 1 774 0
 582 0064 24EA0303 		bic	r3, r4, r3
 583              	.LVL56:
 584              		.loc 1 777 0
 585 0068 9140     		lsls	r1, r1, r2
 586              	.LVL57:
 587              		.loc 1 780 0
 588 006a 1943     		orrs	r1, r1, r3
 589              	.LVL58:
 590              		.loc 1 783 0
 591 006c 4163     		str	r1, [r0, #52]
 592              		.loc 1 827 0
 593 006e 70BC     		pop	{r4, r5, r6}
 594              		.cfi_remember_state
 595              		.cfi_restore 4
 596              		.cfi_restore 5
 597              		.cfi_restore 6
 598              		.cfi_def_cfa_offset 0
 599 0070 7047     		bx	lr
 600              	.LVL59:
 601              	.L41:
 602              		.cfi_restore_state
 603              		.loc 1 792 0
 604 0072 073A     		subs	r2, r2, #7
 605              	.LVL60:
 606              		.loc 1 789 0
 607 0074 046B     		ldr	r4, [r0, #48]
 608              	.LVL61:
 609              		.loc 1 792 0
 610 0076 02EB8202 		add	r2, r2, r2, lsl #2
 611              	.LVL62:
 612 007a 1F23     		movs	r3, #31
 613 007c 9340     		lsls	r3, r3, r2
 614              	.LVL63:
 615              		.loc 1 795 0
 616 007e 24EA0303 		bic	r3, r4, r3
 617              	.LVL64:
 618              		.loc 1 798 0
 619 0082 9140     		lsls	r1, r1, r2
ARM GAS  /var/folders/7z/kps_xzfj7sn5l5gkyq8s9db00000gn/T//cc2C97ap.s 			page 12


 620              	.LVL65:
 621              		.loc 1 801 0
 622 0084 1943     		orrs	r1, r1, r3
 623              	.LVL66:
 624              		.loc 1 804 0
 625 0086 0163     		str	r1, [r0, #48]
 626              		.loc 1 827 0
 627 0088 70BC     		pop	{r4, r5, r6}
 628              		.cfi_restore 4
 629              		.cfi_restore 5
 630              		.cfi_restore 6
 631              		.cfi_def_cfa_offset 0
 632 008a 7047     		bx	lr
 633              		.cfi_endproc
 634              	.LFE122:
 635              		.size	ADC_RegularChannelConfig, .-ADC_RegularChannelConfig
 636 008c AFF30080 		.section	.text.ADC_SoftwareStartConv,"ax",%progbits
 637              		.align	2
 638              		.p2align 4,,15
 639              		.global	ADC_SoftwareStartConv
 640              		.thumb
 641              		.thumb_func
 642              		.type	ADC_SoftwareStartConv, %function
 643              	ADC_SoftwareStartConv:
 644              	.LFB123:
 645              		.loc 1 835 0
 646              		.cfi_startproc
 647              		@ args = 0, pretend = 0, frame = 0
 648              		@ frame_needed = 0, uses_anonymous_args = 0
 649              		@ link register save eliminated.
 650              	.LVL67:
 651              		.loc 1 840 0
 652 0000 8368     		ldr	r3, [r0, #8]
 653 0002 43F08043 		orr	r3, r3, #1073741824
 654 0006 8360     		str	r3, [r0, #8]
 655 0008 7047     		bx	lr
 656              		.cfi_endproc
 657              	.LFE123:
 658              		.size	ADC_SoftwareStartConv, .-ADC_SoftwareStartConv
 659 000a 00BFAFF3 		.section	.text.ADC_GetSoftwareStartConvStatus,"ax",%progbits
 659      0080
 660              		.align	2
 661              		.p2align 4,,15
 662              		.global	ADC_GetSoftwareStartConvStatus
 663              		.thumb
 664              		.thumb_func
 665              		.type	ADC_GetSoftwareStartConvStatus, %function
 666              	ADC_GetSoftwareStartConvStatus:
 667              	.LFB124:
 668              		.loc 1 849 0
 669              		.cfi_startproc
 670              		@ args = 0, pretend = 0, frame = 0
 671              		@ frame_needed = 0, uses_anonymous_args = 0
 672              		@ link register save eliminated.
 673              	.LVL68:
 674              		.loc 1 855 0
 675 0000 8068     		ldr	r0, [r0, #8]
ARM GAS  /var/folders/7z/kps_xzfj7sn5l5gkyq8s9db00000gn/T//cc2C97ap.s 			page 13


 676              	.LVL69:
 677              		.loc 1 868 0
 678 0002 C0F38050 		ubfx	r0, r0, #22, #1
 679              	.LVL70:
 680 0006 7047     		bx	lr
 681              		.cfi_endproc
 682              	.LFE124:
 683              		.size	ADC_GetSoftwareStartConvStatus, .-ADC_GetSoftwareStartConvStatus
 684 0008 AFF30080 		.section	.text.ADC_EOCOnEachRegularChannelCmd,"ax",%progbits
 684      AFF30080 
 685              		.align	2
 686              		.p2align 4,,15
 687              		.global	ADC_EOCOnEachRegularChannelCmd
 688              		.thumb
 689              		.thumb_func
 690              		.type	ADC_EOCOnEachRegularChannelCmd, %function
 691              	ADC_EOCOnEachRegularChannelCmd:
 692              	.LFB125:
 693              		.loc 1 879 0
 694              		.cfi_startproc
 695              		@ args = 0, pretend = 0, frame = 0
 696              		@ frame_needed = 0, uses_anonymous_args = 0
 697              		@ link register save eliminated.
 698              	.LVL71:
 699              		.loc 1 887 0
 700 0000 8368     		ldr	r3, [r0, #8]
 701              		.loc 1 884 0
 702 0002 19B9     		cbnz	r1, .L47
 703              		.loc 1 892 0
 704 0004 23F48063 		bic	r3, r3, #1024
 705 0008 8360     		str	r3, [r0, #8]
 706 000a 7047     		bx	lr
 707              	.L47:
 708              		.loc 1 887 0
 709 000c 43F48063 		orr	r3, r3, #1024
 710 0010 8360     		str	r3, [r0, #8]
 711 0012 7047     		bx	lr
 712              		.cfi_endproc
 713              	.LFE125:
 714              		.size	ADC_EOCOnEachRegularChannelCmd, .-ADC_EOCOnEachRegularChannelCmd
 715 0014 AFF30080 		.section	.text.ADC_ContinuousModeCmd,"ax",%progbits
 715      AFF30080 
 715      AFF30080 
 716              		.align	2
 717              		.p2align 4,,15
 718              		.global	ADC_ContinuousModeCmd
 719              		.thumb
 720              		.thumb_func
 721              		.type	ADC_ContinuousModeCmd, %function
 722              	ADC_ContinuousModeCmd:
 723              	.LFB126:
 724              		.loc 1 904 0
 725              		.cfi_startproc
 726              		@ args = 0, pretend = 0, frame = 0
 727              		@ frame_needed = 0, uses_anonymous_args = 0
 728              		@ link register save eliminated.
 729              	.LVL72:
ARM GAS  /var/folders/7z/kps_xzfj7sn5l5gkyq8s9db00000gn/T//cc2C97ap.s 			page 14


 730              		.loc 1 912 0
 731 0000 8368     		ldr	r3, [r0, #8]
 732              		.loc 1 909 0
 733 0002 19B9     		cbnz	r1, .L51
 734              		.loc 1 917 0
 735 0004 23F00203 		bic	r3, r3, #2
 736 0008 8360     		str	r3, [r0, #8]
 737 000a 7047     		bx	lr
 738              	.L51:
 739              		.loc 1 912 0
 740 000c 43F00203 		orr	r3, r3, #2
 741 0010 8360     		str	r3, [r0, #8]
 742 0012 7047     		bx	lr
 743              		.cfi_endproc
 744              	.LFE126:
 745              		.size	ADC_ContinuousModeCmd, .-ADC_ContinuousModeCmd
 746 0014 AFF30080 		.section	.text.ADC_DiscModeChannelCountConfig,"ax",%progbits
 746      AFF30080 
 746      AFF30080 
 747              		.align	2
 748              		.p2align 4,,15
 749              		.global	ADC_DiscModeChannelCountConfig
 750              		.thumb
 751              		.thumb_func
 752              		.type	ADC_DiscModeChannelCountConfig, %function
 753              	ADC_DiscModeChannelCountConfig:
 754              	.LFB127:
 755              		.loc 1 930 0
 756              		.cfi_startproc
 757              		@ args = 0, pretend = 0, frame = 0
 758              		@ frame_needed = 0, uses_anonymous_args = 0
 759              		@ link register save eliminated.
 760              	.LVL73:
 761              		.loc 1 939 0
 762 0000 4368     		ldr	r3, [r0, #4]
 763              	.LVL74:
 764              		.loc 1 945 0
 765 0002 0139     		subs	r1, r1, #1
 766              	.LVL75:
 767              		.loc 1 942 0
 768 0004 23F46043 		bic	r3, r3, #57344
 769              	.LVL76:
 770              		.loc 1 946 0
 771 0008 43EA4131 		orr	r1, r3, r1, lsl #13
 772              	.LVL77:
 773              		.loc 1 949 0
 774 000c 4160     		str	r1, [r0, #4]
 775 000e 7047     		bx	lr
 776              		.cfi_endproc
 777              	.LFE127:
 778              		.size	ADC_DiscModeChannelCountConfig, .-ADC_DiscModeChannelCountConfig
 779              		.section	.text.ADC_DiscModeCmd,"ax",%progbits
 780              		.align	2
 781              		.p2align 4,,15
 782              		.global	ADC_DiscModeCmd
 783              		.thumb
 784              		.thumb_func
ARM GAS  /var/folders/7z/kps_xzfj7sn5l5gkyq8s9db00000gn/T//cc2C97ap.s 			page 15


 785              		.type	ADC_DiscModeCmd, %function
 786              	ADC_DiscModeCmd:
 787              	.LFB128:
 788              		.loc 1 962 0
 789              		.cfi_startproc
 790              		@ args = 0, pretend = 0, frame = 0
 791              		@ frame_needed = 0, uses_anonymous_args = 0
 792              		@ link register save eliminated.
 793              	.LVL78:
 794              		.loc 1 970 0
 795 0000 4368     		ldr	r3, [r0, #4]
 796              		.loc 1 967 0
 797 0002 19B9     		cbnz	r1, .L56
 798              		.loc 1 975 0
 799 0004 23F40063 		bic	r3, r3, #2048
 800 0008 4360     		str	r3, [r0, #4]
 801 000a 7047     		bx	lr
 802              	.L56:
 803              		.loc 1 970 0
 804 000c 43F40063 		orr	r3, r3, #2048
 805 0010 4360     		str	r3, [r0, #4]
 806 0012 7047     		bx	lr
 807              		.cfi_endproc
 808              	.LFE128:
 809              		.size	ADC_DiscModeCmd, .-ADC_DiscModeCmd
 810 0014 AFF30080 		.section	.text.ADC_GetConversionValue,"ax",%progbits
 810      AFF30080 
 810      AFF30080 
 811              		.align	2
 812              		.p2align 4,,15
 813              		.global	ADC_GetConversionValue
 814              		.thumb
 815              		.thumb_func
 816              		.type	ADC_GetConversionValue, %function
 817              	ADC_GetConversionValue:
 818              	.LFB129:
 819              		.loc 1 985 0
 820              		.cfi_startproc
 821              		@ args = 0, pretend = 0, frame = 0
 822              		@ frame_needed = 0, uses_anonymous_args = 0
 823              		@ link register save eliminated.
 824              	.LVL79:
 825              		.loc 1 990 0
 826 0000 C06C     		ldr	r0, [r0, #76]
 827              	.LVL80:
 828              		.loc 1 991 0
 829 0002 80B2     		uxth	r0, r0
 830 0004 7047     		bx	lr
 831              		.cfi_endproc
 832              	.LFE129:
 833              		.size	ADC_GetConversionValue, .-ADC_GetConversionValue
 834 0006 00BFAFF3 		.section	.text.ADC_GetMultiModeConversionValue,"ax",%progbits
 834      0080AFF3 
 834      0080
 835              		.align	2
 836              		.p2align 4,,15
 837              		.global	ADC_GetMultiModeConversionValue
ARM GAS  /var/folders/7z/kps_xzfj7sn5l5gkyq8s9db00000gn/T//cc2C97ap.s 			page 16


 838              		.thumb
 839              		.thumb_func
 840              		.type	ADC_GetMultiModeConversionValue, %function
 841              	ADC_GetMultiModeConversionValue:
 842              	.LFB130:
 843              		.loc 1 1006 0
 844              		.cfi_startproc
 845              		@ args = 0, pretend = 0, frame = 0
 846              		@ frame_needed = 0, uses_anonymous_args = 0
 847              		@ link register save eliminated.
 848              		.loc 1 1008 0
 849 0000 014B     		ldr	r3, .L59
 850 0002 1868     		ldr	r0, [r3]
 851              		.loc 1 1009 0
 852 0004 7047     		bx	lr
 853              	.L60:
 854 0006 00BF     		.align	2
 855              	.L59:
 856 0008 08230140 		.word	1073816328
 857              		.cfi_endproc
 858              	.LFE130:
 859              		.size	ADC_GetMultiModeConversionValue, .-ADC_GetMultiModeConversionValue
 860 000c AFF30080 		.section	.text.ADC_DMACmd,"ax",%progbits
 861              		.align	2
 862              		.p2align 4,,15
 863              		.global	ADC_DMACmd
 864              		.thumb
 865              		.thumb_func
 866              		.type	ADC_DMACmd, %function
 867              	ADC_DMACmd:
 868              	.LFB131:
 869              		.loc 1 1055 0
 870              		.cfi_startproc
 871              		@ args = 0, pretend = 0, frame = 0
 872              		@ frame_needed = 0, uses_anonymous_args = 0
 873              		@ link register save eliminated.
 874              	.LVL81:
 875              		.loc 1 1062 0
 876 0000 8368     		ldr	r3, [r0, #8]
 877              		.loc 1 1059 0
 878 0002 19B9     		cbnz	r1, .L64
 879              		.loc 1 1067 0
 880 0004 23F48073 		bic	r3, r3, #256
 881 0008 8360     		str	r3, [r0, #8]
 882 000a 7047     		bx	lr
 883              	.L64:
 884              		.loc 1 1062 0
 885 000c 43F48073 		orr	r3, r3, #256
 886 0010 8360     		str	r3, [r0, #8]
 887 0012 7047     		bx	lr
 888              		.cfi_endproc
 889              	.LFE131:
 890              		.size	ADC_DMACmd, .-ADC_DMACmd
 891 0014 AFF30080 		.section	.text.ADC_DMARequestAfterLastTransferCmd,"ax",%progbits
 891      AFF30080 
 891      AFF30080 
 892              		.align	2
ARM GAS  /var/folders/7z/kps_xzfj7sn5l5gkyq8s9db00000gn/T//cc2C97ap.s 			page 17


 893              		.p2align 4,,15
 894              		.global	ADC_DMARequestAfterLastTransferCmd
 895              		.thumb
 896              		.thumb_func
 897              		.type	ADC_DMARequestAfterLastTransferCmd, %function
 898              	ADC_DMARequestAfterLastTransferCmd:
 899              	.LFB132:
 900              		.loc 1 1079 0
 901              		.cfi_startproc
 902              		@ args = 0, pretend = 0, frame = 0
 903              		@ frame_needed = 0, uses_anonymous_args = 0
 904              		@ link register save eliminated.
 905              	.LVL82:
 906              		.loc 1 1086 0
 907 0000 8368     		ldr	r3, [r0, #8]
 908              		.loc 1 1083 0
 909 0002 19B9     		cbnz	r1, .L68
 910              		.loc 1 1091 0
 911 0004 23F40073 		bic	r3, r3, #512
 912 0008 8360     		str	r3, [r0, #8]
 913 000a 7047     		bx	lr
 914              	.L68:
 915              		.loc 1 1086 0
 916 000c 43F40073 		orr	r3, r3, #512
 917 0010 8360     		str	r3, [r0, #8]
 918 0012 7047     		bx	lr
 919              		.cfi_endproc
 920              	.LFE132:
 921              		.size	ADC_DMARequestAfterLastTransferCmd, .-ADC_DMARequestAfterLastTransferCmd
 922 0014 AFF30080 		.section	.text.ADC_MultiModeDMARequestAfterLastTransferCmd,"ax",%progbits
 922      AFF30080 
 922      AFF30080 
 923              		.align	2
 924              		.p2align 4,,15
 925              		.global	ADC_MultiModeDMARequestAfterLastTransferCmd
 926              		.thumb
 927              		.thumb_func
 928              		.type	ADC_MultiModeDMARequestAfterLastTransferCmd, %function
 929              	ADC_MultiModeDMARequestAfterLastTransferCmd:
 930              	.LFB133:
 931              		.loc 1 1106 0
 932              		.cfi_startproc
 933              		@ args = 0, pretend = 0, frame = 0
 934              		@ frame_needed = 0, uses_anonymous_args = 0
 935              		@ link register save eliminated.
 936              	.LVL83:
 937              		.loc 1 1112 0
 938 0000 054A     		ldr	r2, .L73
 939 0002 5368     		ldr	r3, [r2, #4]
 940              		.loc 1 1109 0
 941 0004 18B9     		cbnz	r0, .L72
 942              		.loc 1 1117 0
 943 0006 23F40053 		bic	r3, r3, #8192
 944 000a 5360     		str	r3, [r2, #4]
 945 000c 7047     		bx	lr
 946              	.L72:
 947              		.loc 1 1112 0
ARM GAS  /var/folders/7z/kps_xzfj7sn5l5gkyq8s9db00000gn/T//cc2C97ap.s 			page 18


 948 000e 43F40053 		orr	r3, r3, #8192
 949 0012 5360     		str	r3, [r2, #4]
 950 0014 7047     		bx	lr
 951              	.L74:
 952 0016 00BF     		.align	2
 953              	.L73:
 954 0018 00230140 		.word	1073816320
 955              		.cfi_endproc
 956              	.LFE133:
 957              		.size	ADC_MultiModeDMARequestAfterLastTransferCmd, .-ADC_MultiModeDMARequestAfterLastTransferCmd
 958 001c AFF30080 		.section	.text.ADC_InjectedChannelConfig,"ax",%progbits
 959              		.align	2
 960              		.p2align 4,,15
 961              		.global	ADC_InjectedChannelConfig
 962              		.thumb
 963              		.thumb_func
 964              		.type	ADC_InjectedChannelConfig, %function
 965              	ADC_InjectedChannelConfig:
 966              	.LFB134:
 967              		.loc 1 1193 0
 968              		.cfi_startproc
 969              		@ args = 0, pretend = 0, frame = 0
 970              		@ frame_needed = 0, uses_anonymous_args = 0
 971              		@ link register save eliminated.
 972              	.LVL84:
 973              		.loc 1 1201 0
 974 0000 0929     		cmp	r1, #9
 975              		.loc 1 1193 0
 976 0002 70B4     		push	{r4, r5, r6}
 977              		.cfi_def_cfa_offset 12
 978              		.cfi_offset 4, -12
 979              		.cfi_offset 5, -8
 980              		.cfi_offset 6, -4
 981              		.loc 1 1201 0
 982 0004 1AD8     		bhi	.L79
 983              		.loc 1 1221 0
 984 0006 01EB4106 		add	r6, r1, r1, lsl #1
 985              		.loc 1 1219 0
 986 000a 0569     		ldr	r5, [r0, #16]
 987              	.LVL85:
 988              		.loc 1 1221 0
 989 000c 0724     		movs	r4, #7
 990 000e B440     		lsls	r4, r4, r6
 991              	.LVL86:
 992              		.loc 1 1225 0
 993 0010 B340     		lsls	r3, r3, r6
 994              	.LVL87:
 995              		.loc 1 1223 0
 996 0012 25EA0404 		bic	r4, r5, r4
 997              	.LVL88:
 998              		.loc 1 1227 0
 999 0016 2343     		orrs	r3, r3, r4
 1000              	.LVL89:
 1001              		.loc 1 1229 0
 1002 0018 0361     		str	r3, [r0, #16]
 1003              	.L77:
 1004              		.loc 1 1233 0
ARM GAS  /var/folders/7z/kps_xzfj7sn5l5gkyq8s9db00000gn/T//cc2C97ap.s 			page 19


 1005 001a 836B     		ldr	r3, [r0, #56]
 1006              	.LVL90:
 1007 001c 0232     		adds	r2, r2, #2
 1008              	.LVL91:
 1009              		.loc 1 1235 0
 1010 001e C3F30154 		ubfx	r4, r3, #20, #2
 1011              		.loc 1 1237 0
 1012 0022 121B     		subs	r2, r2, r4
 1013 0024 D2B2     		uxtb	r2, r2
 1014 0026 02EB8202 		add	r2, r2, r2, lsl #2
 1015              	.LVL92:
 1016 002a 1F24     		movs	r4, #31
 1017 002c 9440     		lsls	r4, r4, r2
 1018              	.LVL93:
 1019              		.loc 1 1239 0
 1020 002e 23EA0403 		bic	r3, r3, r4
 1021              	.LVL94:
 1022              		.loc 1 1241 0
 1023 0032 9140     		lsls	r1, r1, r2
 1024              	.LVL95:
 1025              		.loc 1 1243 0
 1026 0034 1943     		orrs	r1, r1, r3
 1027              	.LVL96:
 1028              		.loc 1 1245 0
 1029 0036 8163     		str	r1, [r0, #56]
 1030              		.loc 1 1246 0
 1031 0038 70BC     		pop	{r4, r5, r6}
 1032              		.cfi_remember_state
 1033              		.cfi_restore 6
 1034              		.cfi_restore 5
 1035              		.cfi_restore 4
 1036              		.cfi_def_cfa_offset 0
 1037 003a 7047     		bx	lr
 1038              	.LVL97:
 1039              	.L79:
 1040              		.cfi_restore_state
 1041              		.loc 1 1206 0
 1042 003c A1F10A04 		sub	r4, r1, #10
 1043 0040 04EB4404 		add	r4, r4, r4, lsl #1
 1044              		.loc 1 1204 0
 1045 0044 C568     		ldr	r5, [r0, #12]
 1046              	.LVL98:
 1047              		.loc 1 1206 0
 1048 0046 0726     		movs	r6, #7
 1049 0048 A640     		lsls	r6, r6, r4
 1050              	.LVL99:
 1051              		.loc 1 1210 0
 1052 004a A340     		lsls	r3, r3, r4
 1053              	.LVL100:
 1054              		.loc 1 1208 0
 1055 004c 25EA0604 		bic	r4, r5, r6
 1056              	.LVL101:
 1057              		.loc 1 1212 0
 1058 0050 2343     		orrs	r3, r3, r4
 1059              	.LVL102:
 1060              		.loc 1 1214 0
 1061 0052 C360     		str	r3, [r0, #12]
ARM GAS  /var/folders/7z/kps_xzfj7sn5l5gkyq8s9db00000gn/T//cc2C97ap.s 			page 20


 1062 0054 E1E7     		b	.L77
 1063              		.cfi_endproc
 1064              	.LFE134:
 1065              		.size	ADC_InjectedChannelConfig, .-ADC_InjectedChannelConfig
 1066 0056 00BFAFF3 		.section	.text.ADC_InjectedSequencerLengthConfig,"ax",%progbits
 1066      0080AFF3 
 1066      0080
 1067              		.align	2
 1068              		.p2align 4,,15
 1069              		.global	ADC_InjectedSequencerLengthConfig
 1070              		.thumb
 1071              		.thumb_func
 1072              		.type	ADC_InjectedSequencerLengthConfig, %function
 1073              	ADC_InjectedSequencerLengthConfig:
 1074              	.LFB135:
 1075              		.loc 1 1256 0
 1076              		.cfi_startproc
 1077              		@ args = 0, pretend = 0, frame = 0
 1078              		@ frame_needed = 0, uses_anonymous_args = 0
 1079              		@ link register save eliminated.
 1080              	.LVL103:
 1081              		.loc 1 1264 0
 1082 0000 836B     		ldr	r3, [r0, #56]
 1083              	.LVL104:
 1084              		.loc 1 1270 0
 1085 0002 0139     		subs	r1, r1, #1
 1086              	.LVL105:
 1087              		.loc 1 1267 0
 1088 0004 23F44013 		bic	r3, r3, #3145728
 1089              	.LVL106:
 1090              		.loc 1 1271 0
 1091 0008 43EA0151 		orr	r1, r3, r1, lsl #20
 1092              	.LVL107:
 1093              		.loc 1 1274 0
 1094 000c 8163     		str	r1, [r0, #56]
 1095 000e 7047     		bx	lr
 1096              		.cfi_endproc
 1097              	.LFE135:
 1098              		.size	ADC_InjectedSequencerLengthConfig, .-ADC_InjectedSequencerLengthConfig
 1099              		.section	.text.ADC_SetInjectedOffset,"ax",%progbits
 1100              		.align	2
 1101              		.p2align 4,,15
 1102              		.global	ADC_SetInjectedOffset
 1103              		.thumb
 1104              		.thumb_func
 1105              		.type	ADC_SetInjectedOffset, %function
 1106              	ADC_SetInjectedOffset:
 1107              	.LFB136:
 1108              		.loc 1 1291 0
 1109              		.cfi_startproc
 1110              		@ args = 0, pretend = 0, frame = 8
 1111              		@ frame_needed = 0, uses_anonymous_args = 0
 1112              		@ link register save eliminated.
 1113              	.LVL108:
 1114 0000 82B0     		sub	sp, sp, #8
 1115              		.cfi_def_cfa_offset 8
 1116              		.loc 1 1292 0
ARM GAS  /var/folders/7z/kps_xzfj7sn5l5gkyq8s9db00000gn/T//cc2C97ap.s 			page 21


 1117 0002 0023     		movs	r3, #0
 1118 0004 0193     		str	r3, [sp, #4]
 1119              		.loc 1 1298 0
 1120 0006 0190     		str	r0, [sp, #4]
 1121              		.loc 1 1299 0
 1122 0008 019B     		ldr	r3, [sp, #4]
 1123 000a 1944     		add	r1, r1, r3
 1124              	.LVL109:
 1125 000c 0191     		str	r1, [sp, #4]
 1126              		.loc 1 1302 0
 1127 000e 019B     		ldr	r3, [sp, #4]
 1128 0010 1A60     		str	r2, [r3]
 1129              		.loc 1 1303 0
 1130 0012 02B0     		add	sp, sp, #8
 1131              		.cfi_def_cfa_offset 0
 1132              		@ sp needed
 1133 0014 7047     		bx	lr
 1134              		.cfi_endproc
 1135              	.LFE136:
 1136              		.size	ADC_SetInjectedOffset, .-ADC_SetInjectedOffset
 1137 0016 00BFAFF3 		.section	.text.ADC_ExternalTrigInjectedConvConfig,"ax",%progbits
 1137      0080AFF3 
 1137      0080
 1138              		.align	2
 1139              		.p2align 4,,15
 1140              		.global	ADC_ExternalTrigInjectedConvConfig
 1141              		.thumb
 1142              		.thumb_func
 1143              		.type	ADC_ExternalTrigInjectedConvConfig, %function
 1144              	ADC_ExternalTrigInjectedConvConfig:
 1145              	.LFB137:
 1146              		.loc 1 1329 0
 1147              		.cfi_startproc
 1148              		@ args = 0, pretend = 0, frame = 0
 1149              		@ frame_needed = 0, uses_anonymous_args = 0
 1150              		@ link register save eliminated.
 1151              	.LVL110:
 1152              		.loc 1 1336 0
 1153 0000 8368     		ldr	r3, [r0, #8]
 1154              	.LVL111:
 1155              		.loc 1 1339 0
 1156 0002 23F47023 		bic	r3, r3, #983040
 1157              	.LVL112:
 1158              		.loc 1 1342 0
 1159 0006 1943     		orrs	r1, r1, r3
 1160              	.LVL113:
 1161              		.loc 1 1345 0
 1162 0008 8160     		str	r1, [r0, #8]
 1163 000a 7047     		bx	lr
 1164              		.cfi_endproc
 1165              	.LFE137:
 1166              		.size	ADC_ExternalTrigInjectedConvConfig, .-ADC_ExternalTrigInjectedConvConfig
 1167 000c AFF30080 		.section	.text.ADC_ExternalTrigInjectedConvEdgeConfig,"ax",%progbits
 1168              		.align	2
 1169              		.p2align 4,,15
 1170              		.global	ADC_ExternalTrigInjectedConvEdgeConfig
 1171              		.thumb
ARM GAS  /var/folders/7z/kps_xzfj7sn5l5gkyq8s9db00000gn/T//cc2C97ap.s 			page 22


 1172              		.thumb_func
 1173              		.type	ADC_ExternalTrigInjectedConvEdgeConfig, %function
 1174              	ADC_ExternalTrigInjectedConvEdgeConfig:
 1175              	.LFB138:
 1176              		.loc 1 1363 0
 1177              		.cfi_startproc
 1178              		@ args = 0, pretend = 0, frame = 0
 1179              		@ frame_needed = 0, uses_anonymous_args = 0
 1180              		@ link register save eliminated.
 1181              	.LVL114:
 1182              		.loc 1 1369 0
 1183 0000 8368     		ldr	r3, [r0, #8]
 1184              	.LVL115:
 1185              		.loc 1 1371 0
 1186 0002 23F44013 		bic	r3, r3, #3145728
 1187              	.LVL116:
 1188              		.loc 1 1373 0
 1189 0006 1943     		orrs	r1, r1, r3
 1190              	.LVL117:
 1191              		.loc 1 1375 0
 1192 0008 8160     		str	r1, [r0, #8]
 1193 000a 7047     		bx	lr
 1194              		.cfi_endproc
 1195              	.LFE138:
 1196              		.size	ADC_ExternalTrigInjectedConvEdgeConfig, .-ADC_ExternalTrigInjectedConvEdgeConfig
 1197 000c AFF30080 		.section	.text.ADC_SoftwareStartInjectedConv,"ax",%progbits
 1198              		.align	2
 1199              		.p2align 4,,15
 1200              		.global	ADC_SoftwareStartInjectedConv
 1201              		.thumb
 1202              		.thumb_func
 1203              		.type	ADC_SoftwareStartInjectedConv, %function
 1204              	ADC_SoftwareStartInjectedConv:
 1205              	.LFB139:
 1206              		.loc 1 1384 0
 1207              		.cfi_startproc
 1208              		@ args = 0, pretend = 0, frame = 0
 1209              		@ frame_needed = 0, uses_anonymous_args = 0
 1210              		@ link register save eliminated.
 1211              	.LVL118:
 1212              		.loc 1 1388 0
 1213 0000 8368     		ldr	r3, [r0, #8]
 1214 0002 43F48003 		orr	r3, r3, #4194304
 1215 0006 8360     		str	r3, [r0, #8]
 1216 0008 7047     		bx	lr
 1217              		.cfi_endproc
 1218              	.LFE139:
 1219              		.size	ADC_SoftwareStartInjectedConv, .-ADC_SoftwareStartInjectedConv
 1220 000a 00BFAFF3 		.section	.text.ADC_GetSoftwareStartInjectedConvCmdStatus,"ax",%progbits
 1220      0080
 1221              		.align	2
 1222              		.p2align 4,,15
 1223              		.global	ADC_GetSoftwareStartInjectedConvCmdStatus
 1224              		.thumb
 1225              		.thumb_func
 1226              		.type	ADC_GetSoftwareStartInjectedConvCmdStatus, %function
 1227              	ADC_GetSoftwareStartInjectedConvCmdStatus:
ARM GAS  /var/folders/7z/kps_xzfj7sn5l5gkyq8s9db00000gn/T//cc2C97ap.s 			page 23


 1228              	.LFB140:
 1229              		.loc 1 1397 0
 1230              		.cfi_startproc
 1231              		@ args = 0, pretend = 0, frame = 0
 1232              		@ frame_needed = 0, uses_anonymous_args = 0
 1233              		@ link register save eliminated.
 1234              	.LVL119:
 1235              		.loc 1 1403 0
 1236 0000 8068     		ldr	r0, [r0, #8]
 1237              	.LVL120:
 1238              		.loc 1 1415 0
 1239 0002 C0F38050 		ubfx	r0, r0, #22, #1
 1240              	.LVL121:
 1241 0006 7047     		bx	lr
 1242              		.cfi_endproc
 1243              	.LFE140:
 1244              		.size	ADC_GetSoftwareStartInjectedConvCmdStatus, .-ADC_GetSoftwareStartInjectedConvCmdStatus
 1245 0008 AFF30080 		.section	.text.ADC_AutoInjectedConvCmd,"ax",%progbits
 1245      AFF30080 
 1246              		.align	2
 1247              		.p2align 4,,15
 1248              		.global	ADC_AutoInjectedConvCmd
 1249              		.thumb
 1250              		.thumb_func
 1251              		.type	ADC_AutoInjectedConvCmd, %function
 1252              	ADC_AutoInjectedConvCmd:
 1253              	.LFB141:
 1254              		.loc 1 1426 0
 1255              		.cfi_startproc
 1256              		@ args = 0, pretend = 0, frame = 0
 1257              		@ frame_needed = 0, uses_anonymous_args = 0
 1258              		@ link register save eliminated.
 1259              	.LVL122:
 1260              		.loc 1 1433 0
 1261 0000 4368     		ldr	r3, [r0, #4]
 1262              		.loc 1 1430 0
 1263 0002 19B9     		cbnz	r1, .L90
 1264              		.loc 1 1438 0
 1265 0004 23F48063 		bic	r3, r3, #1024
 1266 0008 4360     		str	r3, [r0, #4]
 1267 000a 7047     		bx	lr
 1268              	.L90:
 1269              		.loc 1 1433 0
 1270 000c 43F48063 		orr	r3, r3, #1024
 1271 0010 4360     		str	r3, [r0, #4]
 1272 0012 7047     		bx	lr
 1273              		.cfi_endproc
 1274              	.LFE141:
 1275              		.size	ADC_AutoInjectedConvCmd, .-ADC_AutoInjectedConvCmd
 1276 0014 AFF30080 		.section	.text.ADC_InjectedDiscModeCmd,"ax",%progbits
 1276      AFF30080 
 1276      AFF30080 
 1277              		.align	2
 1278              		.p2align 4,,15
 1279              		.global	ADC_InjectedDiscModeCmd
 1280              		.thumb
 1281              		.thumb_func
ARM GAS  /var/folders/7z/kps_xzfj7sn5l5gkyq8s9db00000gn/T//cc2C97ap.s 			page 24


 1282              		.type	ADC_InjectedDiscModeCmd, %function
 1283              	ADC_InjectedDiscModeCmd:
 1284              	.LFB142:
 1285              		.loc 1 1452 0
 1286              		.cfi_startproc
 1287              		@ args = 0, pretend = 0, frame = 0
 1288              		@ frame_needed = 0, uses_anonymous_args = 0
 1289              		@ link register save eliminated.
 1290              	.LVL123:
 1291              		.loc 1 1459 0
 1292 0000 4368     		ldr	r3, [r0, #4]
 1293              		.loc 1 1456 0
 1294 0002 19B9     		cbnz	r1, .L94
 1295              		.loc 1 1464 0
 1296 0004 23F48053 		bic	r3, r3, #4096
 1297 0008 4360     		str	r3, [r0, #4]
 1298 000a 7047     		bx	lr
 1299              	.L94:
 1300              		.loc 1 1459 0
 1301 000c 43F48053 		orr	r3, r3, #4096
 1302 0010 4360     		str	r3, [r0, #4]
 1303 0012 7047     		bx	lr
 1304              		.cfi_endproc
 1305              	.LFE142:
 1306              		.size	ADC_InjectedDiscModeCmd, .-ADC_InjectedDiscModeCmd
 1307 0014 AFF30080 		.section	.text.ADC_GetInjectedConversionValue,"ax",%progbits
 1307      AFF30080 
 1307      AFF30080 
 1308              		.align	2
 1309              		.p2align 4,,15
 1310              		.global	ADC_GetInjectedConversionValue
 1311              		.thumb
 1312              		.thumb_func
 1313              		.type	ADC_GetInjectedConversionValue, %function
 1314              	ADC_GetInjectedConversionValue:
 1315              	.LFB143:
 1316              		.loc 1 1480 0
 1317              		.cfi_startproc
 1318              		@ args = 0, pretend = 0, frame = 8
 1319              		@ frame_needed = 0, uses_anonymous_args = 0
 1320              		@ link register save eliminated.
 1321              	.LVL124:
 1322 0000 82B0     		sub	sp, sp, #8
 1323              		.cfi_def_cfa_offset 8
 1324              		.loc 1 1481 0
 1325 0002 0023     		movs	r3, #0
 1326 0004 0193     		str	r3, [sp, #4]
 1327              		.loc 1 1487 0
 1328 0006 0190     		str	r0, [sp, #4]
 1329              		.loc 1 1488 0
 1330 0008 019B     		ldr	r3, [sp, #4]
 1331 000a 2833     		adds	r3, r3, #40
 1332 000c 1944     		add	r1, r1, r3
 1333              	.LVL125:
 1334 000e 0191     		str	r1, [sp, #4]
 1335              		.loc 1 1491 0
 1336 0010 019B     		ldr	r3, [sp, #4]
ARM GAS  /var/folders/7z/kps_xzfj7sn5l5gkyq8s9db00000gn/T//cc2C97ap.s 			page 25


 1337 0012 1868     		ldr	r0, [r3]
 1338              	.LVL126:
 1339              		.loc 1 1492 0
 1340 0014 80B2     		uxth	r0, r0
 1341 0016 02B0     		add	sp, sp, #8
 1342              		.cfi_def_cfa_offset 0
 1343              		@ sp needed
 1344 0018 7047     		bx	lr
 1345              		.cfi_endproc
 1346              	.LFE143:
 1347              		.size	ADC_GetInjectedConversionValue, .-ADC_GetInjectedConversionValue
 1348 001a 00BFAFF3 		.section	.text.ADC_ITConfig,"ax",%progbits
 1348      0080
 1349              		.align	2
 1350              		.p2align 4,,15
 1351              		.global	ADC_ITConfig
 1352              		.thumb
 1353              		.thumb_func
 1354              		.type	ADC_ITConfig, %function
 1355              	ADC_ITConfig:
 1356              	.LFB144:
 1357              		.loc 1 1588 0
 1358              		.cfi_startproc
 1359              		@ args = 0, pretend = 0, frame = 0
 1360              		@ frame_needed = 0, uses_anonymous_args = 0
 1361              		@ link register save eliminated.
 1362              	.LVL127:
 1363              		.loc 1 1597 0
 1364 0000 C9B2     		uxtb	r1, r1
 1365              	.LVL128:
 1366 0002 0123     		movs	r3, #1
 1367 0004 8B40     		lsls	r3, r3, r1
 1368              	.LVL129:
 1369              		.loc 1 1599 0
 1370 0006 22B9     		cbnz	r2, .L100
 1371              		.loc 1 1607 0
 1372 0008 4268     		ldr	r2, [r0, #4]
 1373              	.LVL130:
 1374 000a 22EA0303 		bic	r3, r2, r3
 1375              	.LVL131:
 1376 000e 4360     		str	r3, [r0, #4]
 1377 0010 7047     		bx	lr
 1378              	.LVL132:
 1379              	.L100:
 1380              		.loc 1 1602 0
 1381 0012 4268     		ldr	r2, [r0, #4]
 1382              	.LVL133:
 1383 0014 1343     		orrs	r3, r3, r2
 1384              	.LVL134:
 1385 0016 4360     		str	r3, [r0, #4]
 1386 0018 7047     		bx	lr
 1387              		.cfi_endproc
 1388              	.LFE144:
 1389              		.size	ADC_ITConfig, .-ADC_ITConfig
 1390 001a 00BFAFF3 		.section	.text.ADC_GetFlagStatus,"ax",%progbits
 1390      0080
 1391              		.align	2
ARM GAS  /var/folders/7z/kps_xzfj7sn5l5gkyq8s9db00000gn/T//cc2C97ap.s 			page 26


 1392              		.p2align 4,,15
 1393              		.global	ADC_GetFlagStatus
 1394              		.thumb
 1395              		.thumb_func
 1396              		.type	ADC_GetFlagStatus, %function
 1397              	ADC_GetFlagStatus:
 1398              	.LFB145:
 1399              		.loc 1 1625 0
 1400              		.cfi_startproc
 1401              		@ args = 0, pretend = 0, frame = 0
 1402              		@ frame_needed = 0, uses_anonymous_args = 0
 1403              		@ link register save eliminated.
 1404              	.LVL135:
 1405              		.loc 1 1632 0
 1406 0000 0368     		ldr	r3, [r0]
 1407              	.LVL136:
 1408 0002 1942     		tst	r1, r3
 1409              		.loc 1 1644 0
 1410 0004 14BF     		ite	ne
 1411 0006 0120     		movne	r0, #1
 1412              	.LVL137:
 1413 0008 0020     		moveq	r0, #0
 1414 000a 7047     		bx	lr
 1415              		.cfi_endproc
 1416              	.LFE145:
 1417              		.size	ADC_GetFlagStatus, .-ADC_GetFlagStatus
 1418 000c AFF30080 		.section	.text.ADC_ClearFlag,"ax",%progbits
 1419              		.align	2
 1420              		.p2align 4,,15
 1421              		.global	ADC_ClearFlag
 1422              		.thumb
 1423              		.thumb_func
 1424              		.type	ADC_ClearFlag, %function
 1425              	ADC_ClearFlag:
 1426              	.LFB146:
 1427              		.loc 1 1660 0
 1428              		.cfi_startproc
 1429              		@ args = 0, pretend = 0, frame = 0
 1430              		@ frame_needed = 0, uses_anonymous_args = 0
 1431              		@ link register save eliminated.
 1432              	.LVL138:
 1433              		.loc 1 1666 0
 1434 0000 C943     		mvns	r1, r1
 1435              	.LVL139:
 1436 0002 0160     		str	r1, [r0]
 1437 0004 7047     		bx	lr
 1438              		.cfi_endproc
 1439              	.LFE146:
 1440              		.size	ADC_ClearFlag, .-ADC_ClearFlag
 1441 0006 00BFAFF3 		.section	.text.ADC_GetITStatus,"ax",%progbits
 1441      0080AFF3 
 1441      0080
 1442              		.align	2
 1443              		.p2align 4,,15
 1444              		.global	ADC_GetITStatus
 1445              		.thumb
 1446              		.thumb_func
ARM GAS  /var/folders/7z/kps_xzfj7sn5l5gkyq8s9db00000gn/T//cc2C97ap.s 			page 27


 1447              		.type	ADC_GetITStatus, %function
 1448              	ADC_GetITStatus:
 1449              	.LFB147:
 1450              		.loc 1 1681 0
 1451              		.cfi_startproc
 1452              		@ args = 0, pretend = 0, frame = 0
 1453              		@ frame_needed = 0, uses_anonymous_args = 0
 1454              		@ link register save eliminated.
 1455              	.LVL140:
 1456              		.loc 1 1693 0
 1457 0000 4268     		ldr	r2, [r0, #4]
 1458              	.LVL141:
 1459              		.loc 1 1696 0
 1460 0002 0068     		ldr	r0, [r0]
 1461              	.LVL142:
 1462 0004 10EA1120 		ands	r0, r0, r1, lsr #8
 1463 0008 06D0     		beq	.L104
 1464              		.loc 1 1693 0 discriminator 1
 1465 000a C9B2     		uxtb	r1, r1
 1466              	.LVL143:
 1467 000c 0123     		movs	r3, #1
 1468 000e 8B40     		lsls	r3, r3, r1
 1469              		.loc 1 1696 0 discriminator 1
 1470 0010 1342     		tst	r3, r2
 1471              		.loc 1 1699 0 discriminator 1
 1472 0012 14BF     		ite	ne
 1473 0014 0120     		movne	r0, #1
 1474 0016 0020     		moveq	r0, #0
 1475              	.LVL144:
 1476              	.L104:
 1477              		.loc 1 1708 0
 1478 0018 7047     		bx	lr
 1479              		.cfi_endproc
 1480              	.LFE147:
 1481              		.size	ADC_GetITStatus, .-ADC_GetITStatus
 1482 001a 00BFAFF3 		.section	.text.ADC_ClearITPendingBit,"ax",%progbits
 1482      0080
 1483              		.align	2
 1484              		.p2align 4,,15
 1485              		.global	ADC_ClearITPendingBit
 1486              		.thumb
 1487              		.thumb_func
 1488              		.type	ADC_ClearITPendingBit, %function
 1489              	ADC_ClearITPendingBit:
 1490              	.LFB148:
 1491              		.loc 1 1722 0
 1492              		.cfi_startproc
 1493              		@ args = 0, pretend = 0, frame = 0
 1494              		@ frame_needed = 0, uses_anonymous_args = 0
 1495              		@ link register save eliminated.
 1496              	.LVL145:
 1497              		.loc 1 1730 0
 1498 0000 6FEA1121 		mvn	r1, r1, lsr #8
 1499              	.LVL146:
 1500 0004 0160     		str	r1, [r0]
 1501 0006 7047     		bx	lr
 1502              		.cfi_endproc
ARM GAS  /var/folders/7z/kps_xzfj7sn5l5gkyq8s9db00000gn/T//cc2C97ap.s 			page 28


 1503              	.LFE148:
 1504              		.size	ADC_ClearITPendingBit, .-ADC_ClearITPendingBit
 1505 0008 AFF30080 		.text
 1505      AFF30080 
 1506              	.Letext0:
 1507              		.file 2 "/Users/Baram/gcc-arm-none-eabi/arm-none-eabi/include/machine/_default_types.h"
 1508              		.file 3 "/Users/Baram/gcc-arm-none-eabi/arm-none-eabi/include/stdint.h"
 1509              		.file 4 "lib/ChibiOS_2.6.6/os/hal/platforms/STM32F4xx/stm32f4xx.h"
 1510              		.file 5 "lib/ChibiOS_2.6.6/ext/stdperiph_stm32f4/inc/stm32f4xx_adc.h"
 1511              		.file 6 "lib/ChibiOS_2.6.6/os/ports/common/ARMCMx/CMSIS/include/core_cm4.h"
 1512              		.file 7 "lib/ChibiOS_2.6.6/ext/stdperiph_stm32f4/inc/stm32f4xx_rcc.h"