ARM GAS  /var/folders/7z/kps_xzfj7sn5l5gkyq8s9db00000gn/T//ccc38Eju.s 			page 1


   1              		.syntax unified
   2              		.cpu cortex-m4
   3              		.eabi_attribute 27, 1
   4              		.eabi_attribute 28, 1
   5              		.fpu fpv4-sp-d16
   6              		.eabi_attribute 20, 1
   7              		.eabi_attribute 21, 1
   8              		.eabi_attribute 23, 3
   9              		.eabi_attribute 24, 1
  10              		.eabi_attribute 25, 1
  11              		.eabi_attribute 26, 1
  12              		.eabi_attribute 30, 2
  13              		.eabi_attribute 34, 1
  14              		.eabi_attribute 18, 4
  15              		.thumb
  16              		.file	"stm32f4xx_tim.c"
  17              		.text
  18              	.Ltext0:
  19              		.cfi_sections	.debug_frame
  20              		.section	.text.TIM_DeInit,"ax",%progbits
  21              		.align	2
  22              		.p2align 4,,15
  23              		.global	TIM_DeInit
  24              		.thumb
  25              		.thumb_func
  26              		.type	TIM_DeInit, %function
  27              	TIM_DeInit:
  28              	.LFB111:
  29              		.file 1 "lib/ChibiOS_2.6.6/ext/stdperiph_stm32f4/src/stm32f4xx_tim.c"
  30              		.loc 1 201 0
  31              		.cfi_startproc
  32              		@ args = 0, pretend = 0, frame = 0
  33              		@ frame_needed = 0, uses_anonymous_args = 0
  34              	.LVL0:
  35 0000 08B5     		push	{r3, lr}
  36              		.cfi_def_cfa_offset 8
  37              		.cfi_offset 3, -8
  38              		.cfi_offset 14, -4
  39              		.loc 1 205 0
  40 0002 604B     		ldr	r3, .L32
  41 0004 9842     		cmp	r0, r3
  42 0006 35D0     		beq	.L18
  43              		.loc 1 210 0
  44 0008 B0F1804F 		cmp	r0, #1073741824
  45 000c 3CD0     		beq	.L19
  46              		.loc 1 215 0
  47 000e 5E4B     		ldr	r3, .L32+4
  48 0010 9842     		cmp	r0, r3
  49 0012 43D0     		beq	.L20
  50              		.loc 1 220 0
  51 0014 5D4B     		ldr	r3, .L32+8
  52 0016 9842     		cmp	r0, r3
  53 0018 4AD0     		beq	.L21
  54              		.loc 1 225 0
  55 001a 5D4B     		ldr	r3, .L32+12
  56 001c 9842     		cmp	r0, r3
  57 001e 51D0     		beq	.L22
ARM GAS  /var/folders/7z/kps_xzfj7sn5l5gkyq8s9db00000gn/T//ccc38Eju.s 			page 2


  58              		.loc 1 230 0
  59 0020 5C4B     		ldr	r3, .L32+16
  60 0022 9842     		cmp	r0, r3
  61 0024 58D0     		beq	.L23
  62              		.loc 1 235 0
  63 0026 5C4B     		ldr	r3, .L32+20
  64 0028 9842     		cmp	r0, r3
  65 002a 5FD0     		beq	.L24
  66              		.loc 1 240 0
  67 002c 5B4B     		ldr	r3, .L32+24
  68 002e 9842     		cmp	r0, r3
  69 0030 66D0     		beq	.L25
  70              		.loc 1 245 0
  71 0032 5B4B     		ldr	r3, .L32+28
  72 0034 9842     		cmp	r0, r3
  73 0036 6DD0     		beq	.L26
  74              		.loc 1 250 0
  75 0038 5A4B     		ldr	r3, .L32+32
  76 003a 9842     		cmp	r0, r3
  77 003c 76D0     		beq	.L27
  78              		.loc 1 255 0
  79 003e 5A4B     		ldr	r3, .L32+36
  80 0040 9842     		cmp	r0, r3
  81 0042 7FD0     		beq	.L28
  82              		.loc 1 260 0
  83 0044 594B     		ldr	r3, .L32+40
  84 0046 9842     		cmp	r0, r3
  85 0048 00F08880 		beq	.L29
  86              		.loc 1 265 0
  87 004c 584B     		ldr	r3, .L32+44
  88 004e 9842     		cmp	r0, r3
  89 0050 00F08E80 		beq	.L30
  90              		.loc 1 272 0
  91 0054 574B     		ldr	r3, .L32+48
  92 0056 9842     		cmp	r0, r3
  93 0058 00D0     		beq	.L31
  94 005a 08BD     		pop	{r3, pc}
  95              	.L31:
  96              		.loc 1 274 0
  97 005c 4FF48070 		mov	r0, #256
  98              	.LVL1:
  99 0060 0121     		movs	r1, #1
 100 0062 FFF7FEFF 		bl	RCC_APB1PeriphResetCmd
 101              	.LVL2:
 102              		.loc 1 275 0
 103 0066 4FF48070 		mov	r0, #256
 104 006a 0021     		movs	r1, #0
 105              		.loc 1 278 0
 106 006c BDE80840 		pop	{r3, lr}
 107              		.cfi_remember_state
 108              		.cfi_restore 14
 109              		.cfi_restore 3
 110              		.cfi_def_cfa_offset 0
 111              		.loc 1 275 0
 112 0070 FFF7FEBF 		b	RCC_APB1PeriphResetCmd
 113              	.LVL3:
 114              	.L18:
ARM GAS  /var/folders/7z/kps_xzfj7sn5l5gkyq8s9db00000gn/T//ccc38Eju.s 			page 3


 115              		.cfi_restore_state
 116              		.loc 1 207 0
 117 0074 0120     		movs	r0, #1
 118              	.LVL4:
 119 0076 0146     		mov	r1, r0
 120 0078 FFF7FEFF 		bl	RCC_APB2PeriphResetCmd
 121              	.LVL5:
 122              		.loc 1 208 0
 123 007c 0120     		movs	r0, #1
 124 007e 0021     		movs	r1, #0
 125              		.loc 1 278 0
 126 0080 BDE80840 		pop	{r3, lr}
 127              		.cfi_remember_state
 128              		.cfi_restore 14
 129              		.cfi_restore 3
 130              		.cfi_def_cfa_offset 0
 131              		.loc 1 208 0
 132 0084 FFF7FEBF 		b	RCC_APB2PeriphResetCmd
 133              	.LVL6:
 134              	.L19:
 135              		.cfi_restore_state
 136              		.loc 1 212 0
 137 0088 0120     		movs	r0, #1
 138              	.LVL7:
 139 008a 0146     		mov	r1, r0
 140 008c FFF7FEFF 		bl	RCC_APB1PeriphResetCmd
 141              	.LVL8:
 142              		.loc 1 213 0
 143 0090 0120     		movs	r0, #1
 144 0092 0021     		movs	r1, #0
 145              		.loc 1 278 0
 146 0094 BDE80840 		pop	{r3, lr}
 147              		.cfi_remember_state
 148              		.cfi_restore 14
 149              		.cfi_restore 3
 150              		.cfi_def_cfa_offset 0
 151              		.loc 1 213 0
 152 0098 FFF7FEBF 		b	RCC_APB1PeriphResetCmd
 153              	.LVL9:
 154              	.L20:
 155              		.cfi_restore_state
 156              		.loc 1 217 0
 157 009c 0220     		movs	r0, #2
 158              	.LVL10:
 159 009e 0121     		movs	r1, #1
 160 00a0 FFF7FEFF 		bl	RCC_APB1PeriphResetCmd
 161              	.LVL11:
 162              		.loc 1 218 0
 163 00a4 0220     		movs	r0, #2
 164 00a6 0021     		movs	r1, #0
 165              		.loc 1 278 0
 166 00a8 BDE80840 		pop	{r3, lr}
 167              		.cfi_remember_state
 168              		.cfi_restore 14
 169              		.cfi_restore 3
 170              		.cfi_def_cfa_offset 0
 171              		.loc 1 218 0
ARM GAS  /var/folders/7z/kps_xzfj7sn5l5gkyq8s9db00000gn/T//ccc38Eju.s 			page 4


 172 00ac FFF7FEBF 		b	RCC_APB1PeriphResetCmd
 173              	.LVL12:
 174              	.L21:
 175              		.cfi_restore_state
 176              		.loc 1 222 0
 177 00b0 0420     		movs	r0, #4
 178              	.LVL13:
 179 00b2 0121     		movs	r1, #1
 180 00b4 FFF7FEFF 		bl	RCC_APB1PeriphResetCmd
 181              	.LVL14:
 182              		.loc 1 223 0
 183 00b8 0420     		movs	r0, #4
 184 00ba 0021     		movs	r1, #0
 185              		.loc 1 278 0
 186 00bc BDE80840 		pop	{r3, lr}
 187              		.cfi_remember_state
 188              		.cfi_restore 14
 189              		.cfi_restore 3
 190              		.cfi_def_cfa_offset 0
 191              		.loc 1 223 0
 192 00c0 FFF7FEBF 		b	RCC_APB1PeriphResetCmd
 193              	.LVL15:
 194              	.L22:
 195              		.cfi_restore_state
 196              		.loc 1 227 0
 197 00c4 0820     		movs	r0, #8
 198              	.LVL16:
 199 00c6 0121     		movs	r1, #1
 200 00c8 FFF7FEFF 		bl	RCC_APB1PeriphResetCmd
 201              	.LVL17:
 202              		.loc 1 228 0
 203 00cc 0820     		movs	r0, #8
 204 00ce 0021     		movs	r1, #0
 205              		.loc 1 278 0
 206 00d0 BDE80840 		pop	{r3, lr}
 207              		.cfi_remember_state
 208              		.cfi_restore 14
 209              		.cfi_restore 3
 210              		.cfi_def_cfa_offset 0
 211              		.loc 1 228 0
 212 00d4 FFF7FEBF 		b	RCC_APB1PeriphResetCmd
 213              	.LVL18:
 214              	.L23:
 215              		.cfi_restore_state
 216              		.loc 1 232 0
 217 00d8 1020     		movs	r0, #16
 218              	.LVL19:
 219 00da 0121     		movs	r1, #1
 220 00dc FFF7FEFF 		bl	RCC_APB1PeriphResetCmd
 221              	.LVL20:
 222              		.loc 1 233 0
 223 00e0 1020     		movs	r0, #16
 224 00e2 0021     		movs	r1, #0
 225              		.loc 1 278 0
 226 00e4 BDE80840 		pop	{r3, lr}
 227              		.cfi_remember_state
 228              		.cfi_restore 14
ARM GAS  /var/folders/7z/kps_xzfj7sn5l5gkyq8s9db00000gn/T//ccc38Eju.s 			page 5


 229              		.cfi_restore 3
 230              		.cfi_def_cfa_offset 0
 231              		.loc 1 233 0
 232 00e8 FFF7FEBF 		b	RCC_APB1PeriphResetCmd
 233              	.LVL21:
 234              	.L24:
 235              		.cfi_restore_state
 236              		.loc 1 237 0
 237 00ec 2020     		movs	r0, #32
 238              	.LVL22:
 239 00ee 0121     		movs	r1, #1
 240 00f0 FFF7FEFF 		bl	RCC_APB1PeriphResetCmd
 241              	.LVL23:
 242              		.loc 1 238 0
 243 00f4 2020     		movs	r0, #32
 244 00f6 0021     		movs	r1, #0
 245              		.loc 1 278 0
 246 00f8 BDE80840 		pop	{r3, lr}
 247              		.cfi_remember_state
 248              		.cfi_restore 14
 249              		.cfi_restore 3
 250              		.cfi_def_cfa_offset 0
 251              		.loc 1 238 0
 252 00fc FFF7FEBF 		b	RCC_APB1PeriphResetCmd
 253              	.LVL24:
 254              	.L25:
 255              		.cfi_restore_state
 256              		.loc 1 242 0
 257 0100 0220     		movs	r0, #2
 258              	.LVL25:
 259 0102 0121     		movs	r1, #1
 260 0104 FFF7FEFF 		bl	RCC_APB2PeriphResetCmd
 261              	.LVL26:
 262              		.loc 1 243 0
 263 0108 0220     		movs	r0, #2
 264 010a 0021     		movs	r1, #0
 265              		.loc 1 278 0
 266 010c BDE80840 		pop	{r3, lr}
 267              		.cfi_remember_state
 268              		.cfi_restore 14
 269              		.cfi_restore 3
 270              		.cfi_def_cfa_offset 0
 271              		.loc 1 243 0
 272 0110 FFF7FEBF 		b	RCC_APB2PeriphResetCmd
 273              	.LVL27:
 274              	.L26:
 275              		.cfi_restore_state
 276              		.loc 1 247 0
 277 0114 4FF48030 		mov	r0, #65536
 278              	.LVL28:
 279 0118 0121     		movs	r1, #1
 280 011a FFF7FEFF 		bl	RCC_APB2PeriphResetCmd
 281              	.LVL29:
 282              		.loc 1 248 0
 283 011e 4FF48030 		mov	r0, #65536
 284 0122 0021     		movs	r1, #0
 285              		.loc 1 278 0
ARM GAS  /var/folders/7z/kps_xzfj7sn5l5gkyq8s9db00000gn/T//ccc38Eju.s 			page 6


 286 0124 BDE80840 		pop	{r3, lr}
 287              		.cfi_remember_state
 288              		.cfi_restore 14
 289              		.cfi_restore 3
 290              		.cfi_def_cfa_offset 0
 291              		.loc 1 248 0
 292 0128 FFF7FEBF 		b	RCC_APB2PeriphResetCmd
 293              	.LVL30:
 294              	.L27:
 295              		.cfi_restore_state
 296              		.loc 1 252 0
 297 012c 4FF40030 		mov	r0, #131072
 298              	.LVL31:
 299 0130 0121     		movs	r1, #1
 300 0132 FFF7FEFF 		bl	RCC_APB2PeriphResetCmd
 301              	.LVL32:
 302              		.loc 1 253 0
 303 0136 4FF40030 		mov	r0, #131072
 304 013a 0021     		movs	r1, #0
 305              		.loc 1 278 0
 306 013c BDE80840 		pop	{r3, lr}
 307              		.cfi_remember_state
 308              		.cfi_restore 14
 309              		.cfi_restore 3
 310              		.cfi_def_cfa_offset 0
 311              		.loc 1 253 0
 312 0140 FFF7FEBF 		b	RCC_APB2PeriphResetCmd
 313              	.LVL33:
 314              	.L28:
 315              		.cfi_restore_state
 316              		.loc 1 257 0
 317 0144 4FF48020 		mov	r0, #262144
 318              	.LVL34:
 319 0148 0121     		movs	r1, #1
 320 014a FFF7FEFF 		bl	RCC_APB2PeriphResetCmd
 321              	.LVL35:
 322              		.loc 1 258 0
 323 014e 4FF48020 		mov	r0, #262144
 324 0152 0021     		movs	r1, #0
 325              		.loc 1 278 0
 326 0154 BDE80840 		pop	{r3, lr}
 327              		.cfi_remember_state
 328              		.cfi_restore 14
 329              		.cfi_restore 3
 330              		.cfi_def_cfa_offset 0
 331              		.loc 1 258 0
 332 0158 FFF7FEBF 		b	RCC_APB2PeriphResetCmd
 333              	.LVL36:
 334              	.L29:
 335              		.cfi_restore_state
 336              		.loc 1 262 0
 337 015c 4020     		movs	r0, #64
 338              	.LVL37:
 339 015e 0121     		movs	r1, #1
 340 0160 FFF7FEFF 		bl	RCC_APB1PeriphResetCmd
 341              	.LVL38:
 342              		.loc 1 263 0
ARM GAS  /var/folders/7z/kps_xzfj7sn5l5gkyq8s9db00000gn/T//ccc38Eju.s 			page 7


 343 0164 4020     		movs	r0, #64
 344 0166 0021     		movs	r1, #0
 345              		.loc 1 278 0
 346 0168 BDE80840 		pop	{r3, lr}
 347              		.cfi_remember_state
 348              		.cfi_restore 14
 349              		.cfi_restore 3
 350              		.cfi_def_cfa_offset 0
 351              		.loc 1 263 0
 352 016c FFF7FEBF 		b	RCC_APB1PeriphResetCmd
 353              	.LVL39:
 354              	.L30:
 355              		.cfi_restore_state
 356              		.loc 1 267 0
 357 0170 8020     		movs	r0, #128
 358              	.LVL40:
 359 0172 0121     		movs	r1, #1
 360 0174 FFF7FEFF 		bl	RCC_APB1PeriphResetCmd
 361              	.LVL41:
 362              		.loc 1 268 0
 363 0178 8020     		movs	r0, #128
 364 017a 0021     		movs	r1, #0
 365              		.loc 1 278 0
 366 017c BDE80840 		pop	{r3, lr}
 367              		.cfi_restore 14
 368              		.cfi_restore 3
 369              		.cfi_def_cfa_offset 0
 370              		.loc 1 268 0
 371 0180 FFF7FEBF 		b	RCC_APB1PeriphResetCmd
 372              	.LVL42:
 373              	.L33:
 374              		.align	2
 375              	.L32:
 376 0184 00000140 		.word	1073807360
 377 0188 00040040 		.word	1073742848
 378 018c 00080040 		.word	1073743872
 379 0190 000C0040 		.word	1073744896
 380 0194 00100040 		.word	1073745920
 381 0198 00140040 		.word	1073746944
 382 019c 00040140 		.word	1073808384
 383 01a0 00400140 		.word	1073823744
 384 01a4 00440140 		.word	1073824768
 385 01a8 00480140 		.word	1073825792
 386 01ac 00180040 		.word	1073747968
 387 01b0 001C0040 		.word	1073748992
 388 01b4 00200040 		.word	1073750016
 389              		.cfi_endproc
 390              	.LFE111:
 391              		.size	TIM_DeInit, .-TIM_DeInit
 392 01b8 AFF30080 		.section	.text.TIM_TimeBaseInit,"ax",%progbits
 392      AFF30080 
 393              		.align	2
 394              		.p2align 4,,15
 395              		.global	TIM_TimeBaseInit
 396              		.thumb
 397              		.thumb_func
 398              		.type	TIM_TimeBaseInit, %function
ARM GAS  /var/folders/7z/kps_xzfj7sn5l5gkyq8s9db00000gn/T//ccc38Eju.s 			page 8


 399              	TIM_TimeBaseInit:
 400              	.LFB112:
 401              		.loc 1 289 0
 402              		.cfi_startproc
 403              		@ args = 0, pretend = 0, frame = 0
 404              		@ frame_needed = 0, uses_anonymous_args = 0
 405              		@ link register save eliminated.
 406              	.LVL43:
 407              		.loc 1 299 0
 408 0000 224A     		ldr	r2, .L48
 409              		.loc 1 297 0
 410 0002 0388     		ldrh	r3, [r0]
 411              		.loc 1 299 0
 412 0004 9042     		cmp	r0, r2
 413              		.loc 1 297 0
 414 0006 9BB2     		uxth	r3, r3
 415              	.LVL44:
 416              		.loc 1 299 0
 417 0008 12D0     		beq	.L35
 418              		.loc 1 299 0 is_stmt 0 discriminator 1
 419 000a 02F58062 		add	r2, r2, #1024
 420 000e 9042     		cmp	r0, r2
 421 0010 0ED0     		beq	.L35
 422              		.loc 1 299 0 discriminator 2
 423 0012 B0F1804F 		cmp	r0, #1073741824
 424 0016 0BD0     		beq	.L35
 425              		.loc 1 300 0 is_stmt 1
 426 0018 A2F58032 		sub	r2, r2, #65536
 427 001c 9042     		cmp	r0, r2
 428 001e 07D0     		beq	.L35
 429              		.loc 1 300 0 is_stmt 0 discriminator 1
 430 0020 02F58062 		add	r2, r2, #1024
 431 0024 9042     		cmp	r0, r2
 432 0026 03D0     		beq	.L35
 433              		.loc 1 301 0 is_stmt 1
 434 0028 02F58062 		add	r2, r2, #1024
 435 002c 9042     		cmp	r0, r2
 436 002e 03D1     		bne	.L36
 437              	.L35:
 438              		.loc 1 305 0
 439 0030 4A88     		ldrh	r2, [r1, #2]
 440              		.loc 1 304 0
 441 0032 23F07003 		bic	r3, r3, #112
 442              	.LVL45:
 443              		.loc 1 305 0
 444 0036 1343     		orrs	r3, r3, r2
 445              	.LVL46:
 446              	.L36:
 447              		.loc 1 308 0
 448 0038 154A     		ldr	r2, .L48+4
 449 003a 9042     		cmp	r0, r2
 450 003c 1ED0     		beq	.L37
 451              		.loc 1 308 0 is_stmt 0 discriminator 1
 452 003e 02F58062 		add	r2, r2, #1024
 453 0042 9042     		cmp	r0, r2
 454 0044 1AD0     		beq	.L37
 455              		.loc 1 312 0 is_stmt 1
ARM GAS  /var/folders/7z/kps_xzfj7sn5l5gkyq8s9db00000gn/T//ccc38Eju.s 			page 9


 456 0046 0A89     		ldrh	r2, [r1, #8]
 457              		.loc 1 289 0
 458 0048 70B4     		push	{r4, r5, r6}
 459              		.cfi_def_cfa_offset 12
 460              		.cfi_offset 4, -12
 461              		.cfi_offset 5, -8
 462              		.cfi_offset 6, -4
 463              		.loc 1 311 0
 464 004a 23F44073 		bic	r3, r3, #768
 465              	.LVL47:
 466              		.loc 1 323 0
 467 004e 0F4C     		ldr	r4, .L48
 468              		.loc 1 318 0
 469 0050 4E68     		ldr	r6, [r1, #4]
 470              		.loc 1 321 0
 471 0052 0D88     		ldrh	r5, [r1]
 472              		.loc 1 311 0
 473 0054 9BB2     		uxth	r3, r3
 474              	.LVL48:
 475              		.loc 1 312 0
 476 0056 1343     		orrs	r3, r3, r2
 477              	.LVL49:
 478              		.loc 1 323 0
 479 0058 A042     		cmp	r0, r4
 480              		.loc 1 315 0
 481 005a 0380     		strh	r3, [r0]	@ movhi
 482              		.loc 1 318 0
 483 005c C662     		str	r6, [r0, #44]
 484              		.loc 1 321 0
 485 005e 0585     		strh	r5, [r0, #40]	@ movhi
 486              		.loc 1 323 0
 487 0060 06D0     		beq	.L41
 488              	.LVL50:
 489              		.loc 1 323 0 is_stmt 0 discriminator 1
 490 0062 0C4B     		ldr	r3, .L48+8
 491 0064 9842     		cmp	r0, r3
 492 0066 03D0     		beq	.L41
 493              		.loc 1 331 0 is_stmt 1
 494 0068 0123     		movs	r3, #1
 495 006a 8382     		strh	r3, [r0, #20]	@ movhi
 496              		.loc 1 332 0
 497 006c 70BC     		pop	{r4, r5, r6}
 498              		.cfi_remember_state
 499              		.cfi_restore 6
 500              		.cfi_restore 5
 501              		.cfi_restore 4
 502              		.cfi_def_cfa_offset 0
 503 006e 7047     		bx	lr
 504              	.L41:
 505              		.cfi_restore_state
 506              		.loc 1 326 0
 507 0070 8B7A     		ldrb	r3, [r1, #10]	@ zero_extendqisi2
 508 0072 0386     		strh	r3, [r0, #48]	@ movhi
 509              		.loc 1 331 0
 510 0074 0123     		movs	r3, #1
 511 0076 8382     		strh	r3, [r0, #20]	@ movhi
 512              		.loc 1 332 0
ARM GAS  /var/folders/7z/kps_xzfj7sn5l5gkyq8s9db00000gn/T//ccc38Eju.s 			page 10


 513 0078 70BC     		pop	{r4, r5, r6}
 514              		.cfi_restore 4
 515              		.cfi_restore 5
 516              		.cfi_restore 6
 517              		.cfi_def_cfa_offset 0
 518 007a 7047     		bx	lr
 519              	.LVL51:
 520              	.L37:
 521              		.loc 1 315 0
 522 007c 0380     		strh	r3, [r0]	@ movhi
 523              		.loc 1 321 0
 524 007e 0B88     		ldrh	r3, [r1]
 525              	.LVL52:
 526              		.loc 1 318 0
 527 0080 4A68     		ldr	r2, [r1, #4]
 528 0082 C262     		str	r2, [r0, #44]
 529              	.LVL53:
 530              		.loc 1 321 0
 531 0084 0385     		strh	r3, [r0, #40]	@ movhi
 532              		.loc 1 331 0
 533 0086 0123     		movs	r3, #1
 534 0088 8382     		strh	r3, [r0, #20]	@ movhi
 535 008a 7047     		bx	lr
 536              	.L49:
 537              		.align	2
 538              	.L48:
 539 008c 00000140 		.word	1073807360
 540 0090 00100040 		.word	1073745920
 541 0094 00040140 		.word	1073808384
 542              		.cfi_endproc
 543              	.LFE112:
 544              		.size	TIM_TimeBaseInit, .-TIM_TimeBaseInit
 545 0098 AFF30080 		.section	.text.TIM_TimeBaseStructInit,"ax",%progbits
 545      AFF30080 
 546              		.align	2
 547              		.p2align 4,,15
 548              		.global	TIM_TimeBaseStructInit
 549              		.thumb
 550              		.thumb_func
 551              		.type	TIM_TimeBaseStructInit, %function
 552              	TIM_TimeBaseStructInit:
 553              	.LFB113:
 554              		.loc 1 341 0
 555              		.cfi_startproc
 556              		@ args = 0, pretend = 0, frame = 0
 557              		@ frame_needed = 0, uses_anonymous_args = 0
 558              		@ link register save eliminated.
 559              	.LVL54:
 560              		.loc 1 344 0
 561 0000 0023     		movs	r3, #0
 562              		.loc 1 343 0
 563 0002 4FF0FF32 		mov	r2, #-1
 564 0006 4260     		str	r2, [r0, #4]
 565              		.loc 1 344 0
 566 0008 0380     		strh	r3, [r0]	@ movhi
 567              		.loc 1 345 0
 568 000a 0381     		strh	r3, [r0, #8]	@ movhi
ARM GAS  /var/folders/7z/kps_xzfj7sn5l5gkyq8s9db00000gn/T//ccc38Eju.s 			page 11


 569              		.loc 1 346 0
 570 000c 4380     		strh	r3, [r0, #2]	@ movhi
 571              		.loc 1 347 0
 572 000e 8372     		strb	r3, [r0, #10]
 573 0010 7047     		bx	lr
 574              		.cfi_endproc
 575              	.LFE113:
 576              		.size	TIM_TimeBaseStructInit, .-TIM_TimeBaseStructInit
 577 0012 00BFAFF3 		.section	.text.TIM_PrescalerConfig,"ax",%progbits
 577      0080AFF3 
 577      0080AFF3 
 577      0080
 578              		.align	2
 579              		.p2align 4,,15
 580              		.global	TIM_PrescalerConfig
 581              		.thumb
 582              		.thumb_func
 583              		.type	TIM_PrescalerConfig, %function
 584              	TIM_PrescalerConfig:
 585              	.LFB114:
 586              		.loc 1 361 0
 587              		.cfi_startproc
 588              		@ args = 0, pretend = 0, frame = 0
 589              		@ frame_needed = 0, uses_anonymous_args = 0
 590              		@ link register save eliminated.
 591              	.LVL55:
 592              		.loc 1 366 0
 593 0000 0185     		strh	r1, [r0, #40]	@ movhi
 594              		.loc 1 368 0
 595 0002 8282     		strh	r2, [r0, #20]	@ movhi
 596 0004 7047     		bx	lr
 597              		.cfi_endproc
 598              	.LFE114:
 599              		.size	TIM_PrescalerConfig, .-TIM_PrescalerConfig
 600 0006 00BFAFF3 		.section	.text.TIM_CounterModeConfig,"ax",%progbits
 600      0080AFF3 
 600      0080
 601              		.align	2
 602              		.p2align 4,,15
 603              		.global	TIM_CounterModeConfig
 604              		.thumb
 605              		.thumb_func
 606              		.type	TIM_CounterModeConfig, %function
 607              	TIM_CounterModeConfig:
 608              	.LFB115:
 609              		.loc 1 384 0
 610              		.cfi_startproc
 611              		@ args = 0, pretend = 0, frame = 0
 612              		@ frame_needed = 0, uses_anonymous_args = 0
 613              		@ link register save eliminated.
 614              	.LVL56:
 615              		.loc 1 391 0
 616 0000 0388     		ldrh	r3, [r0]
 617              	.LVL57:
 618              		.loc 1 394 0
 619 0002 23F07003 		bic	r3, r3, #112
 620              	.LVL58:
ARM GAS  /var/folders/7z/kps_xzfj7sn5l5gkyq8s9db00000gn/T//ccc38Eju.s 			page 12


 621 0006 1B04     		lsls	r3, r3, #16
 622 0008 1B0C     		lsrs	r3, r3, #16
 623              	.LVL59:
 624              		.loc 1 397 0
 625 000a 1943     		orrs	r1, r1, r3
 626              	.LVL60:
 627              		.loc 1 400 0
 628 000c 0180     		strh	r1, [r0]	@ movhi
 629 000e 7047     		bx	lr
 630              		.cfi_endproc
 631              	.LFE115:
 632              		.size	TIM_CounterModeConfig, .-TIM_CounterModeConfig
 633              		.section	.text.TIM_SetCounter,"ax",%progbits
 634              		.align	2
 635              		.p2align 4,,15
 636              		.global	TIM_SetCounter
 637              		.thumb
 638              		.thumb_func
 639              		.type	TIM_SetCounter, %function
 640              	TIM_SetCounter:
 641              	.LFB116:
 642              		.loc 1 410 0
 643              		.cfi_startproc
 644              		@ args = 0, pretend = 0, frame = 0
 645              		@ frame_needed = 0, uses_anonymous_args = 0
 646              		@ link register save eliminated.
 647              	.LVL61:
 648              		.loc 1 415 0
 649 0000 4162     		str	r1, [r0, #36]
 650 0002 7047     		bx	lr
 651              		.cfi_endproc
 652              	.LFE116:
 653              		.size	TIM_SetCounter, .-TIM_SetCounter
 654 0004 AFF30080 		.section	.text.TIM_SetAutoreload,"ax",%progbits
 654      AFF30080 
 654      AFF30080 
 655              		.align	2
 656              		.p2align 4,,15
 657              		.global	TIM_SetAutoreload
 658              		.thumb
 659              		.thumb_func
 660              		.type	TIM_SetAutoreload, %function
 661              	TIM_SetAutoreload:
 662              	.LFB117:
 663              		.loc 1 425 0
 664              		.cfi_startproc
 665              		@ args = 0, pretend = 0, frame = 0
 666              		@ frame_needed = 0, uses_anonymous_args = 0
 667              		@ link register save eliminated.
 668              	.LVL62:
 669              		.loc 1 430 0
 670 0000 C162     		str	r1, [r0, #44]
 671 0002 7047     		bx	lr
 672              		.cfi_endproc
 673              	.LFE117:
 674              		.size	TIM_SetAutoreload, .-TIM_SetAutoreload
 675 0004 AFF30080 		.section	.text.TIM_GetCounter,"ax",%progbits
ARM GAS  /var/folders/7z/kps_xzfj7sn5l5gkyq8s9db00000gn/T//ccc38Eju.s 			page 13


 675      AFF30080 
 675      AFF30080 
 676              		.align	2
 677              		.p2align 4,,15
 678              		.global	TIM_GetCounter
 679              		.thumb
 680              		.thumb_func
 681              		.type	TIM_GetCounter, %function
 682              	TIM_GetCounter:
 683              	.LFB118:
 684              		.loc 1 439 0
 685              		.cfi_startproc
 686              		@ args = 0, pretend = 0, frame = 0
 687              		@ frame_needed = 0, uses_anonymous_args = 0
 688              		@ link register save eliminated.
 689              	.LVL63:
 690              		.loc 1 444 0
 691 0000 406A     		ldr	r0, [r0, #36]
 692              	.LVL64:
 693              		.loc 1 445 0
 694 0002 7047     		bx	lr
 695              		.cfi_endproc
 696              	.LFE118:
 697              		.size	TIM_GetCounter, .-TIM_GetCounter
 698 0004 AFF30080 		.section	.text.TIM_GetPrescaler,"ax",%progbits
 698      AFF30080 
 698      AFF30080 
 699              		.align	2
 700              		.p2align 4,,15
 701              		.global	TIM_GetPrescaler
 702              		.thumb
 703              		.thumb_func
 704              		.type	TIM_GetPrescaler, %function
 705              	TIM_GetPrescaler:
 706              	.LFB119:
 707              		.loc 1 453 0
 708              		.cfi_startproc
 709              		@ args = 0, pretend = 0, frame = 0
 710              		@ frame_needed = 0, uses_anonymous_args = 0
 711              		@ link register save eliminated.
 712              	.LVL65:
 713              		.loc 1 458 0
 714 0000 008D     		ldrh	r0, [r0, #40]
 715              	.LVL66:
 716              		.loc 1 459 0
 717 0002 80B2     		uxth	r0, r0
 718 0004 7047     		bx	lr
 719              		.cfi_endproc
 720              	.LFE119:
 721              		.size	TIM_GetPrescaler, .-TIM_GetPrescaler
 722 0006 00BFAFF3 		.section	.text.TIM_UpdateDisableConfig,"ax",%progbits
 722      0080AFF3 
 722      0080
 723              		.align	2
 724              		.p2align 4,,15
 725              		.global	TIM_UpdateDisableConfig
 726              		.thumb
ARM GAS  /var/folders/7z/kps_xzfj7sn5l5gkyq8s9db00000gn/T//ccc38Eju.s 			page 14


 727              		.thumb_func
 728              		.type	TIM_UpdateDisableConfig, %function
 729              	TIM_UpdateDisableConfig:
 730              	.LFB120:
 731              		.loc 1 469 0
 732              		.cfi_startproc
 733              		@ args = 0, pretend = 0, frame = 0
 734              		@ frame_needed = 0, uses_anonymous_args = 0
 735              		@ link register save eliminated.
 736              	.LVL67:
 737              		.loc 1 477 0
 738 0000 0388     		ldrh	r3, [r0]
 739              		.loc 1 474 0
 740 0002 29B9     		cbnz	r1, .L60
 741              		.loc 1 482 0
 742 0004 23F00203 		bic	r3, r3, #2
 743 0008 1B04     		lsls	r3, r3, #16
 744 000a 1B0C     		lsrs	r3, r3, #16
 745 000c 0380     		strh	r3, [r0]	@ movhi
 746 000e 7047     		bx	lr
 747              	.L60:
 748              		.loc 1 477 0
 749 0010 9BB2     		uxth	r3, r3
 750 0012 43F00203 		orr	r3, r3, #2
 751 0016 0380     		strh	r3, [r0]	@ movhi
 752 0018 7047     		bx	lr
 753              		.cfi_endproc
 754              	.LFE120:
 755              		.size	TIM_UpdateDisableConfig, .-TIM_UpdateDisableConfig
 756 001a 00BFAFF3 		.section	.text.TIM_UpdateRequestConfig,"ax",%progbits
 756      0080
 757              		.align	2
 758              		.p2align 4,,15
 759              		.global	TIM_UpdateRequestConfig
 760              		.thumb
 761              		.thumb_func
 762              		.type	TIM_UpdateRequestConfig, %function
 763              	TIM_UpdateRequestConfig:
 764              	.LFB121:
 765              		.loc 1 498 0
 766              		.cfi_startproc
 767              		@ args = 0, pretend = 0, frame = 0
 768              		@ frame_needed = 0, uses_anonymous_args = 0
 769              		@ link register save eliminated.
 770              	.LVL68:
 771              		.loc 1 506 0
 772 0000 0388     		ldrh	r3, [r0]
 773              		.loc 1 503 0
 774 0002 29B9     		cbnz	r1, .L64
 775              		.loc 1 511 0
 776 0004 23F00403 		bic	r3, r3, #4
 777 0008 1B04     		lsls	r3, r3, #16
 778 000a 1B0C     		lsrs	r3, r3, #16
 779 000c 0380     		strh	r3, [r0]	@ movhi
 780 000e 7047     		bx	lr
 781              	.L64:
 782              		.loc 1 506 0
ARM GAS  /var/folders/7z/kps_xzfj7sn5l5gkyq8s9db00000gn/T//ccc38Eju.s 			page 15


 783 0010 9BB2     		uxth	r3, r3
 784 0012 43F00403 		orr	r3, r3, #4
 785 0016 0380     		strh	r3, [r0]	@ movhi
 786 0018 7047     		bx	lr
 787              		.cfi_endproc
 788              	.LFE121:
 789              		.size	TIM_UpdateRequestConfig, .-TIM_UpdateRequestConfig
 790 001a 00BFAFF3 		.section	.text.TIM_ARRPreloadConfig,"ax",%progbits
 790      0080
 791              		.align	2
 792              		.p2align 4,,15
 793              		.global	TIM_ARRPreloadConfig
 794              		.thumb
 795              		.thumb_func
 796              		.type	TIM_ARRPreloadConfig, %function
 797              	TIM_ARRPreloadConfig:
 798              	.LFB122:
 799              		.loc 1 523 0
 800              		.cfi_startproc
 801              		@ args = 0, pretend = 0, frame = 0
 802              		@ frame_needed = 0, uses_anonymous_args = 0
 803              		@ link register save eliminated.
 804              	.LVL69:
 805              		.loc 1 531 0
 806 0000 0388     		ldrh	r3, [r0]
 807              		.loc 1 528 0
 808 0002 29B9     		cbnz	r1, .L68
 809              		.loc 1 536 0
 810 0004 23F08003 		bic	r3, r3, #128
 811 0008 1B04     		lsls	r3, r3, #16
 812 000a 1B0C     		lsrs	r3, r3, #16
 813 000c 0380     		strh	r3, [r0]	@ movhi
 814 000e 7047     		bx	lr
 815              	.L68:
 816              		.loc 1 531 0
 817 0010 9BB2     		uxth	r3, r3
 818 0012 43F08003 		orr	r3, r3, #128
 819 0016 0380     		strh	r3, [r0]	@ movhi
 820 0018 7047     		bx	lr
 821              		.cfi_endproc
 822              	.LFE122:
 823              		.size	TIM_ARRPreloadConfig, .-TIM_ARRPreloadConfig
 824 001a 00BFAFF3 		.section	.text.TIM_SelectOnePulseMode,"ax",%progbits
 824      0080
 825              		.align	2
 826              		.p2align 4,,15
 827              		.global	TIM_SelectOnePulseMode
 828              		.thumb
 829              		.thumb_func
 830              		.type	TIM_SelectOnePulseMode, %function
 831              	TIM_SelectOnePulseMode:
 832              	.LFB123:
 833              		.loc 1 550 0
 834              		.cfi_startproc
 835              		@ args = 0, pretend = 0, frame = 0
 836              		@ frame_needed = 0, uses_anonymous_args = 0
 837              		@ link register save eliminated.
ARM GAS  /var/folders/7z/kps_xzfj7sn5l5gkyq8s9db00000gn/T//ccc38Eju.s 			page 16


 838              	.LVL70:
 839              		.loc 1 556 0
 840 0000 0388     		ldrh	r3, [r0]
 841 0002 23F00803 		bic	r3, r3, #8
 842 0006 1B04     		lsls	r3, r3, #16
 843 0008 1B0C     		lsrs	r3, r3, #16
 844 000a 0380     		strh	r3, [r0]	@ movhi
 845              		.loc 1 559 0
 846 000c 0388     		ldrh	r3, [r0]
 847 000e 9BB2     		uxth	r3, r3
 848 0010 1943     		orrs	r1, r1, r3
 849              	.LVL71:
 850 0012 0180     		strh	r1, [r0]	@ movhi
 851 0014 7047     		bx	lr
 852              		.cfi_endproc
 853              	.LFE123:
 854              		.size	TIM_SelectOnePulseMode, .-TIM_SelectOnePulseMode
 855 0016 00BFAFF3 		.section	.text.TIM_SetClockDivision,"ax",%progbits
 855      0080AFF3 
 855      0080
 856              		.align	2
 857              		.p2align 4,,15
 858              		.global	TIM_SetClockDivision
 859              		.thumb
 860              		.thumb_func
 861              		.type	TIM_SetClockDivision, %function
 862              	TIM_SetClockDivision:
 863              	.LFB124:
 864              		.loc 1 573 0
 865              		.cfi_startproc
 866              		@ args = 0, pretend = 0, frame = 0
 867              		@ frame_needed = 0, uses_anonymous_args = 0
 868              		@ link register save eliminated.
 869              	.LVL72:
 870              		.loc 1 579 0
 871 0000 0388     		ldrh	r3, [r0]
 872 0002 23F44073 		bic	r3, r3, #768
 873 0006 1B04     		lsls	r3, r3, #16
 874 0008 1B0C     		lsrs	r3, r3, #16
 875 000a 0380     		strh	r3, [r0]	@ movhi
 876              		.loc 1 582 0
 877 000c 0388     		ldrh	r3, [r0]
 878 000e 9BB2     		uxth	r3, r3
 879 0010 1943     		orrs	r1, r1, r3
 880              	.LVL73:
 881 0012 0180     		strh	r1, [r0]	@ movhi
 882 0014 7047     		bx	lr
 883              		.cfi_endproc
 884              	.LFE124:
 885              		.size	TIM_SetClockDivision, .-TIM_SetClockDivision
 886 0016 00BFAFF3 		.section	.text.TIM_Cmd,"ax",%progbits
 886      0080AFF3 
 886      0080
 887              		.align	2
 888              		.p2align 4,,15
 889              		.global	TIM_Cmd
 890              		.thumb
ARM GAS  /var/folders/7z/kps_xzfj7sn5l5gkyq8s9db00000gn/T//ccc38Eju.s 			page 17


 891              		.thumb_func
 892              		.type	TIM_Cmd, %function
 893              	TIM_Cmd:
 894              	.LFB125:
 895              		.loc 1 593 0
 896              		.cfi_startproc
 897              		@ args = 0, pretend = 0, frame = 0
 898              		@ frame_needed = 0, uses_anonymous_args = 0
 899              		@ link register save eliminated.
 900              	.LVL74:
 901              		.loc 1 601 0
 902 0000 0388     		ldrh	r3, [r0]
 903              		.loc 1 598 0
 904 0002 29B9     		cbnz	r1, .L74
 905              		.loc 1 606 0
 906 0004 23F00103 		bic	r3, r3, #1
 907 0008 1B04     		lsls	r3, r3, #16
 908 000a 1B0C     		lsrs	r3, r3, #16
 909 000c 0380     		strh	r3, [r0]	@ movhi
 910 000e 7047     		bx	lr
 911              	.L74:
 912              		.loc 1 601 0
 913 0010 9BB2     		uxth	r3, r3
 914 0012 43F00103 		orr	r3, r3, #1
 915 0016 0380     		strh	r3, [r0]	@ movhi
 916 0018 7047     		bx	lr
 917              		.cfi_endproc
 918              	.LFE125:
 919              		.size	TIM_Cmd, .-TIM_Cmd
 920 001a 00BFAFF3 		.section	.text.TIM_OC1Init,"ax",%progbits
 920      0080
 921              		.align	2
 922              		.p2align 4,,15
 923              		.global	TIM_OC1Init
 924              		.thumb
 925              		.thumb_func
 926              		.type	TIM_OC1Init, %function
 927              	TIM_OC1Init:
 928              	.LFB126:
 929              		.loc 1 672 0
 930              		.cfi_startproc
 931              		@ args = 0, pretend = 0, frame = 0
 932              		@ frame_needed = 0, uses_anonymous_args = 0
 933              	.LVL75:
 934 0000 F0B5     		push	{r4, r5, r6, r7, lr}
 935              		.cfi_def_cfa_offset 20
 936              		.cfi_offset 4, -20
 937              		.cfi_offset 5, -16
 938              		.cfi_offset 6, -12
 939              		.cfi_offset 7, -8
 940              		.cfi_offset 14, -4
 941              		.loc 1 682 0
 942 0002 048C     		ldrh	r4, [r0, #32]
 943 0004 B1F802C0 		ldrh	ip, [r1, #2]
 944 0008 8B89     		ldrh	r3, [r1, #12]
 945              		.loc 1 696 0
 946 000a 0F88     		ldrh	r7, [r1]
ARM GAS  /var/folders/7z/kps_xzfj7sn5l5gkyq8s9db00000gn/T//ccc38Eju.s 			page 18


 947              		.loc 1 706 0
 948 000c 1B4E     		ldr	r6, .L79
 949              		.loc 1 682 0
 950 000e 24F00104 		bic	r4, r4, #1
 951 0012 2404     		lsls	r4, r4, #16
 952 0014 240C     		lsrs	r4, r4, #16
 953 0016 0484     		strh	r4, [r0, #32]	@ movhi
 954              		.loc 1 685 0
 955 0018 058C     		ldrh	r5, [r0, #32]
 956              	.LVL76:
 957              		.loc 1 687 0
 958 001a B0F804E0 		ldrh	lr, [r0, #4]
 959              		.loc 1 690 0
 960 001e 048B     		ldrh	r4, [r0, #24]
 961              		.loc 1 699 0
 962 0020 25F00205 		bic	r5, r5, #2
 963              	.LVL77:
 964              		.loc 1 694 0
 965 0024 24F07302 		bic	r2, r4, #115
 966              		.loc 1 699 0
 967 0028 2D04     		lsls	r5, r5, #16
 968 002a 2D0C     		lsrs	r5, r5, #16
 969 002c 4CEA0303 		orr	r3, ip, r3
 970              		.loc 1 694 0
 971 0030 1204     		lsls	r2, r2, #16
 972              		.loc 1 704 0
 973 0032 2B43     		orrs	r3, r3, r5
 974              		.loc 1 694 0
 975 0034 120C     		lsrs	r2, r2, #16
 976              		.loc 1 706 0
 977 0036 B042     		cmp	r0, r6
 978              		.loc 1 704 0
 979 0038 9BB2     		uxth	r3, r3
 980              		.loc 1 687 0
 981 003a 1FFA8EF4 		uxth	r4, lr
 982              	.LVL78:
 983              		.loc 1 696 0
 984 003e 42EA0702 		orr	r2, r2, r7
 985              	.LVL79:
 986              		.loc 1 706 0
 987 0042 08D0     		beq	.L76
 988              		.loc 1 706 0 is_stmt 0 discriminator 1
 989 0044 0E4D     		ldr	r5, .L79+4
 990 0046 A842     		cmp	r0, r5
 991 0048 05D0     		beq	.L76
 992              	.L77:
 993              		.loc 1 737 0 is_stmt 1
 994 004a 8968     		ldr	r1, [r1, #8]
 995              	.LVL80:
 996              		.loc 1 731 0
 997 004c 8480     		strh	r4, [r0, #4]	@ movhi
 998              		.loc 1 734 0
 999 004e 0283     		strh	r2, [r0, #24]	@ movhi
 1000              		.loc 1 737 0
 1001 0050 4163     		str	r1, [r0, #52]
 1002              		.loc 1 740 0
 1003 0052 0384     		strh	r3, [r0, #32]	@ movhi
ARM GAS  /var/folders/7z/kps_xzfj7sn5l5gkyq8s9db00000gn/T//ccc38Eju.s 			page 19


 1004 0054 F0BD     		pop	{r4, r5, r6, r7, pc}
 1005              	.LVL81:
 1006              	.L76:
 1007              		.loc 1 716 0
 1008 0056 CE89     		ldrh	r6, [r1, #14]
 1009 0058 B1F812E0 		ldrh	lr, [r1, #18]
 1010 005c 0D8A     		ldrh	r5, [r1, #16]
 1011              		.loc 1 721 0
 1012 005e 8F88     		ldrh	r7, [r1, #4]
 1013              		.loc 1 714 0
 1014 0060 23F00803 		bic	r3, r3, #8
 1015              	.LVL82:
 1016              		.loc 1 724 0
 1017 0064 24F44074 		bic	r4, r4, #768
 1018              	.LVL83:
 1019              		.loc 1 716 0
 1020 0068 3343     		orrs	r3, r3, r6
 1021              	.LVL84:
 1022 006a 4EEA0505 		orr	r5, lr, r5
 1023              		.loc 1 718 0
 1024 006e 23F00403 		bic	r3, r3, #4
 1025              	.LVL85:
 1026              		.loc 1 728 0
 1027 0072 2C43     		orrs	r4, r4, r5
 1028              		.loc 1 721 0
 1029 0074 3B43     		orrs	r3, r3, r7
 1030              	.LVL86:
 1031              		.loc 1 728 0
 1032 0076 A4B2     		uxth	r4, r4
 1033              	.LVL87:
 1034 0078 E7E7     		b	.L77
 1035              	.L80:
 1036 007a 00BF     		.align	2
 1037              	.L79:
 1038 007c 00000140 		.word	1073807360
 1039 0080 00040140 		.word	1073808384
 1040              		.cfi_endproc
 1041              	.LFE126:
 1042              		.size	TIM_OC1Init, .-TIM_OC1Init
 1043 0084 AFF30080 		.section	.text.TIM_OC2Init,"ax",%progbits
 1043      AFF30080 
 1043      AFF30080 
 1044              		.align	2
 1045              		.p2align 4,,15
 1046              		.global	TIM_OC2Init
 1047              		.thumb
 1048              		.thumb_func
 1049              		.type	TIM_OC2Init, %function
 1050              	TIM_OC2Init:
 1051              	.LFB127:
 1052              		.loc 1 753 0
 1053              		.cfi_startproc
 1054              		@ args = 0, pretend = 0, frame = 0
 1055              		@ frame_needed = 0, uses_anonymous_args = 0
 1056              	.LVL88:
 1057 0000 F0B5     		push	{r4, r5, r6, r7, lr}
 1058              		.cfi_def_cfa_offset 20
ARM GAS  /var/folders/7z/kps_xzfj7sn5l5gkyq8s9db00000gn/T//ccc38Eju.s 			page 20


 1059              		.cfi_offset 4, -20
 1060              		.cfi_offset 5, -16
 1061              		.cfi_offset 6, -12
 1062              		.cfi_offset 7, -8
 1063              		.cfi_offset 14, -4
 1064              		.loc 1 763 0
 1065 0002 058C     		ldrh	r5, [r0, #32]
 1066              		.loc 1 778 0
 1067 0004 0C88     		ldrh	r4, [r1]
 1068              		.loc 1 783 0
 1069 0006 B1F80CC0 		ldrh	ip, [r1, #12]
 1070              		.loc 1 786 0
 1071 000a B1F802E0 		ldrh	lr, [r1, #2]
 1072              		.loc 1 788 0
 1073 000e 1E4E     		ldr	r6, .L85
 1074              		.loc 1 763 0
 1075 0010 25F01005 		bic	r5, r5, #16
 1076 0014 2D04     		lsls	r5, r5, #16
 1077 0016 2D0C     		lsrs	r5, r5, #16
 1078 0018 0584     		strh	r5, [r0, #32]	@ movhi
 1079              		.loc 1 766 0
 1080 001a 028C     		ldrh	r2, [r0, #32]
 1081              	.LVL89:
 1082              		.loc 1 768 0
 1083 001c 8788     		ldrh	r7, [r0, #4]
 1084              		.loc 1 771 0
 1085 001e 058B     		ldrh	r5, [r0, #24]
 1086              		.loc 1 781 0
 1087 0020 22F02003 		bic	r3, r2, #32
 1088 0024 1B04     		lsls	r3, r3, #16
 1089              		.loc 1 775 0
 1090 0026 25F4E642 		bic	r2, r5, #29440
 1091              	.LVL90:
 1092              		.loc 1 781 0
 1093 002a 1B0C     		lsrs	r3, r3, #16
 1094              		.loc 1 775 0
 1095 002c 1204     		lsls	r2, r2, #16
 1096              		.loc 1 783 0
 1097 002e 43EA0C13 		orr	r3, r3, ip, lsl #4
 1098              		.loc 1 775 0
 1099 0032 120C     		lsrs	r2, r2, #16
 1100              		.loc 1 786 0
 1101 0034 43EA0E13 		orr	r3, r3, lr, lsl #4
 1102              		.loc 1 778 0
 1103 0038 42EA0422 		orr	r2, r2, r4, lsl #8
 1104              		.loc 1 788 0
 1105 003c B042     		cmp	r0, r6
 1106              		.loc 1 786 0
 1107 003e 9BB2     		uxth	r3, r3
 1108              		.loc 1 768 0
 1109 0040 BDB2     		uxth	r5, r7
 1110              	.LVL91:
 1111              		.loc 1 778 0
 1112 0042 94B2     		uxth	r4, r2
 1113              	.LVL92:
 1114              		.loc 1 788 0
 1115 0044 08D0     		beq	.L82
ARM GAS  /var/folders/7z/kps_xzfj7sn5l5gkyq8s9db00000gn/T//ccc38Eju.s 			page 21


 1116              		.loc 1 788 0 is_stmt 0 discriminator 1
 1117 0046 114A     		ldr	r2, .L85+4
 1118 0048 9042     		cmp	r0, r2
 1119 004a 05D0     		beq	.L82
 1120              	.L83:
 1121              		.loc 1 819 0 is_stmt 1
 1122 004c 8A68     		ldr	r2, [r1, #8]
 1123              		.loc 1 813 0
 1124 004e 8580     		strh	r5, [r0, #4]	@ movhi
 1125              		.loc 1 816 0
 1126 0050 0483     		strh	r4, [r0, #24]	@ movhi
 1127              		.loc 1 819 0
 1128 0052 8263     		str	r2, [r0, #56]
 1129              		.loc 1 822 0
 1130 0054 0384     		strh	r3, [r0, #32]	@ movhi
 1131 0056 F0BD     		pop	{r4, r5, r6, r7, pc}
 1132              	.LVL93:
 1133              	.L82:
 1134              		.loc 1 796 0
 1135 0058 23F08002 		bic	r2, r3, #128
 1136              		.loc 1 798 0
 1137 005c CB89     		ldrh	r3, [r1, #14]
 1138              	.LVL94:
 1139              		.loc 1 808 0
 1140 005e B1F810E0 		ldrh	lr, [r1, #16]
 1141              		.loc 1 803 0
 1142 0062 8F88     		ldrh	r7, [r1, #4]
 1143              		.loc 1 810 0
 1144 0064 4E8A     		ldrh	r6, [r1, #18]
 1145              		.loc 1 796 0
 1146 0066 92B2     		uxth	r2, r2
 1147              	.LVL95:
 1148              		.loc 1 798 0
 1149 0068 42EA0312 		orr	r2, r2, r3, lsl #4
 1150              	.LVL96:
 1151              		.loc 1 806 0
 1152 006c 25F44065 		bic	r5, r5, #3072
 1153              	.LVL97:
 1154              		.loc 1 800 0
 1155 0070 4FF6BF73 		movw	r3, #65471
 1156 0074 1340     		ands	r3, r3, r2
 1157              	.LVL98:
 1158              		.loc 1 808 0
 1159 0076 45EA8E05 		orr	r5, r5, lr, lsl #2
 1160              		.loc 1 803 0
 1161 007a 43EA0713 		orr	r3, r3, r7, lsl #4
 1162              	.LVL99:
 1163              		.loc 1 810 0
 1164 007e 45EA8605 		orr	r5, r5, r6, lsl #2
 1165              		.loc 1 803 0
 1166 0082 9BB2     		uxth	r3, r3
 1167              	.LVL100:
 1168              		.loc 1 810 0
 1169 0084 ADB2     		uxth	r5, r5
 1170              	.LVL101:
 1171 0086 E1E7     		b	.L83
 1172              	.L86:
ARM GAS  /var/folders/7z/kps_xzfj7sn5l5gkyq8s9db00000gn/T//ccc38Eju.s 			page 22


 1173              		.align	2
 1174              	.L85:
 1175 0088 00000140 		.word	1073807360
 1176 008c 00040140 		.word	1073808384
 1177              		.cfi_endproc
 1178              	.LFE127:
 1179              		.size	TIM_OC2Init, .-TIM_OC2Init
 1180              		.section	.text.TIM_OC3Init,"ax",%progbits
 1181              		.align	2
 1182              		.p2align 4,,15
 1183              		.global	TIM_OC3Init
 1184              		.thumb
 1185              		.thumb_func
 1186              		.type	TIM_OC3Init, %function
 1187              	TIM_OC3Init:
 1188              	.LFB128:
 1189              		.loc 1 834 0
 1190              		.cfi_startproc
 1191              		@ args = 0, pretend = 0, frame = 0
 1192              		@ frame_needed = 0, uses_anonymous_args = 0
 1193              	.LVL102:
 1194 0000 F0B5     		push	{r4, r5, r6, r7, lr}
 1195              		.cfi_def_cfa_offset 20
 1196              		.cfi_offset 4, -20
 1197              		.cfi_offset 5, -16
 1198              		.cfi_offset 6, -12
 1199              		.cfi_offset 7, -8
 1200              		.cfi_offset 14, -4
 1201              		.loc 1 844 0
 1202 0002 058C     		ldrh	r5, [r0, #32]
 1203              		.loc 1 863 0
 1204 0004 B1F80CC0 		ldrh	ip, [r1, #12]
 1205              		.loc 1 866 0
 1206 0008 B1F802E0 		ldrh	lr, [r1, #2]
 1207              		.loc 1 858 0
 1208 000c 0C88     		ldrh	r4, [r1]
 1209              		.loc 1 868 0
 1210 000e 1E4F     		ldr	r7, .L91
 1211              		.loc 1 844 0
 1212 0010 25F48075 		bic	r5, r5, #256
 1213 0014 2D04     		lsls	r5, r5, #16
 1214 0016 2D0C     		lsrs	r5, r5, #16
 1215 0018 0584     		strh	r5, [r0, #32]	@ movhi
 1216              		.loc 1 847 0
 1217 001a 028C     		ldrh	r2, [r0, #32]
 1218              	.LVL103:
 1219              		.loc 1 849 0
 1220 001c 8688     		ldrh	r6, [r0, #4]
 1221              		.loc 1 852 0
 1222 001e 858B     		ldrh	r5, [r0, #28]
 1223              		.loc 1 861 0
 1224 0020 22F40073 		bic	r3, r2, #512
 1225 0024 1B04     		lsls	r3, r3, #16
 1226              		.loc 1 856 0
 1227 0026 25F07302 		bic	r2, r5, #115
 1228              	.LVL104:
 1229              		.loc 1 861 0
ARM GAS  /var/folders/7z/kps_xzfj7sn5l5gkyq8s9db00000gn/T//ccc38Eju.s 			page 23


 1230 002a 1B0C     		lsrs	r3, r3, #16
 1231              		.loc 1 863 0
 1232 002c 43EA0C23 		orr	r3, r3, ip, lsl #8
 1233              		.loc 1 856 0
 1234 0030 1204     		lsls	r2, r2, #16
 1235              		.loc 1 866 0
 1236 0032 43EA0E23 		orr	r3, r3, lr, lsl #8
 1237              		.loc 1 856 0
 1238 0036 120C     		lsrs	r2, r2, #16
 1239              		.loc 1 868 0
 1240 0038 B842     		cmp	r0, r7
 1241              		.loc 1 866 0
 1242 003a 9BB2     		uxth	r3, r3
 1243              		.loc 1 849 0
 1244 003c B5B2     		uxth	r5, r6
 1245              	.LVL105:
 1246              		.loc 1 858 0
 1247 003e 44EA0204 		orr	r4, r4, r2
 1248              	.LVL106:
 1249              		.loc 1 868 0
 1250 0042 08D0     		beq	.L88
 1251              		.loc 1 868 0 is_stmt 0 discriminator 1
 1252 0044 114A     		ldr	r2, .L91+4
 1253 0046 9042     		cmp	r0, r2
 1254 0048 05D0     		beq	.L88
 1255              	.L89:
 1256              		.loc 1 899 0 is_stmt 1
 1257 004a 8A68     		ldr	r2, [r1, #8]
 1258              		.loc 1 893 0
 1259 004c 8580     		strh	r5, [r0, #4]	@ movhi
 1260              		.loc 1 896 0
 1261 004e 8483     		strh	r4, [r0, #28]	@ movhi
 1262              		.loc 1 899 0
 1263 0050 C263     		str	r2, [r0, #60]
 1264              		.loc 1 902 0
 1265 0052 0384     		strh	r3, [r0, #32]	@ movhi
 1266 0054 F0BD     		pop	{r4, r5, r6, r7, pc}
 1267              	.LVL107:
 1268              	.L88:
 1269              		.loc 1 876 0
 1270 0056 23F40062 		bic	r2, r3, #2048
 1271              		.loc 1 878 0
 1272 005a CB89     		ldrh	r3, [r1, #14]
 1273              	.LVL108:
 1274              		.loc 1 888 0
 1275 005c B1F810E0 		ldrh	lr, [r1, #16]
 1276              		.loc 1 883 0
 1277 0060 8F88     		ldrh	r7, [r1, #4]
 1278              		.loc 1 890 0
 1279 0062 4E8A     		ldrh	r6, [r1, #18]
 1280              		.loc 1 876 0
 1281 0064 92B2     		uxth	r2, r2
 1282              	.LVL109:
 1283              		.loc 1 878 0
 1284 0066 42EA0322 		orr	r2, r2, r3, lsl #8
 1285              	.LVL110:
 1286              		.loc 1 886 0
ARM GAS  /var/folders/7z/kps_xzfj7sn5l5gkyq8s9db00000gn/T//ccc38Eju.s 			page 24


 1287 006a 25F44055 		bic	r5, r5, #12288
 1288              	.LVL111:
 1289              		.loc 1 880 0
 1290 006e 4FF6FF33 		movw	r3, #64511
 1291 0072 1340     		ands	r3, r3, r2
 1292              	.LVL112:
 1293              		.loc 1 888 0
 1294 0074 45EA0E15 		orr	r5, r5, lr, lsl #4
 1295              		.loc 1 883 0
 1296 0078 43EA0723 		orr	r3, r3, r7, lsl #8
 1297              	.LVL113:
 1298              		.loc 1 890 0
 1299 007c 45EA0615 		orr	r5, r5, r6, lsl #4
 1300              		.loc 1 883 0
 1301 0080 9BB2     		uxth	r3, r3
 1302              	.LVL114:
 1303              		.loc 1 890 0
 1304 0082 ADB2     		uxth	r5, r5
 1305              	.LVL115:
 1306 0084 E1E7     		b	.L89
 1307              	.L92:
 1308 0086 00BF     		.align	2
 1309              	.L91:
 1310 0088 00000140 		.word	1073807360
 1311 008c 00040140 		.word	1073808384
 1312              		.cfi_endproc
 1313              	.LFE128:
 1314              		.size	TIM_OC3Init, .-TIM_OC3Init
 1315              		.section	.text.TIM_OC4Init,"ax",%progbits
 1316              		.align	2
 1317              		.p2align 4,,15
 1318              		.global	TIM_OC4Init
 1319              		.thumb
 1320              		.thumb_func
 1321              		.type	TIM_OC4Init, %function
 1322              	TIM_OC4Init:
 1323              	.LFB129:
 1324              		.loc 1 914 0
 1325              		.cfi_startproc
 1326              		@ args = 0, pretend = 0, frame = 0
 1327              		@ frame_needed = 0, uses_anonymous_args = 0
 1328              	.LVL116:
 1329              		.loc 1 924 0
 1330 0000 028C     		ldrh	r2, [r0, #32]
 1331              		.loc 1 947 0
 1332 0002 B1F802C0 		ldrh	ip, [r1, #2]
 1333              		.loc 1 924 0
 1334 0006 22F48052 		bic	r2, r2, #4096
 1335 000a 1204     		lsls	r2, r2, #16
 1336 000c 120C     		lsrs	r2, r2, #16
 1337              		.loc 1 914 0
 1338 000e 2DE9F041 		push	{r4, r5, r6, r7, r8, lr}
 1339              		.cfi_def_cfa_offset 24
 1340              		.cfi_offset 4, -24
 1341              		.cfi_offset 5, -20
 1342              		.cfi_offset 6, -16
 1343              		.cfi_offset 7, -12
ARM GAS  /var/folders/7z/kps_xzfj7sn5l5gkyq8s9db00000gn/T//ccc38Eju.s 			page 25


 1344              		.cfi_offset 8, -8
 1345              		.cfi_offset 14, -4
 1346              		.loc 1 944 0
 1347 0012 B1F80C80 		ldrh	r8, [r1, #12]
 1348              		.loc 1 939 0
 1349 0016 B1F800E0 		ldrh	lr, [r1]
 1350              		.loc 1 924 0
 1351 001a 0284     		strh	r2, [r0, #32]	@ movhi
 1352              		.loc 1 927 0
 1353 001c 058C     		ldrh	r5, [r0, #32]
 1354              	.LVL117:
 1355              		.loc 1 929 0
 1356 001e 8788     		ldrh	r7, [r0, #4]
 1357              		.loc 1 932 0
 1358 0020 828B     		ldrh	r2, [r0, #28]
 1359              		.loc 1 949 0
 1360 0022 124E     		ldr	r6, .L97
 1361              		.loc 1 942 0
 1362 0024 25F40054 		bic	r4, r5, #8192
 1363              		.loc 1 936 0
 1364 0028 22F4E643 		bic	r3, r2, #29440
 1365              		.loc 1 942 0
 1366 002c 2404     		lsls	r4, r4, #16
 1367 002e 240C     		lsrs	r4, r4, #16
 1368              		.loc 1 936 0
 1369 0030 1B04     		lsls	r3, r3, #16
 1370              		.loc 1 944 0
 1371 0032 44EA0834 		orr	r4, r4, r8, lsl #12
 1372              		.loc 1 936 0
 1373 0036 1B0C     		lsrs	r3, r3, #16
 1374              		.loc 1 947 0
 1375 0038 44EA0C34 		orr	r4, r4, ip, lsl #12
 1376              		.loc 1 939 0
 1377 003c 43EA0E23 		orr	r3, r3, lr, lsl #8
 1378              		.loc 1 949 0
 1379 0040 B042     		cmp	r0, r6
 1380              		.loc 1 947 0
 1381 0042 A4B2     		uxth	r4, r4
 1382              		.loc 1 929 0
 1383 0044 BAB2     		uxth	r2, r7
 1384              	.LVL118:
 1385              		.loc 1 939 0
 1386 0046 9BB2     		uxth	r3, r3
 1387              	.LVL119:
 1388              		.loc 1 949 0
 1389 0048 09D0     		beq	.L94
 1390              		.loc 1 949 0 is_stmt 0 discriminator 1
 1391 004a 094D     		ldr	r5, .L97+4
 1392 004c A842     		cmp	r0, r5
 1393 004e 06D0     		beq	.L94
 1394              	.L95:
 1395              		.loc 1 964 0 is_stmt 1
 1396 0050 8968     		ldr	r1, [r1, #8]
 1397              	.LVL120:
 1398              		.loc 1 958 0
 1399 0052 8280     		strh	r2, [r0, #4]	@ movhi
 1400              		.loc 1 961 0
ARM GAS  /var/folders/7z/kps_xzfj7sn5l5gkyq8s9db00000gn/T//ccc38Eju.s 			page 26


 1401 0054 8383     		strh	r3, [r0, #28]	@ movhi
 1402              		.loc 1 964 0
 1403 0056 0164     		str	r1, [r0, #64]
 1404              		.loc 1 967 0
 1405 0058 0484     		strh	r4, [r0, #32]	@ movhi
 1406 005a BDE8F081 		pop	{r4, r5, r6, r7, r8, pc}
 1407              	.LVL121:
 1408              	.L94:
 1409              		.loc 1 955 0
 1410 005e 0D8A     		ldrh	r5, [r1, #16]
 1411              		.loc 1 953 0
 1412 0060 22F48042 		bic	r2, r2, #16384
 1413              	.LVL122:
 1414              		.loc 1 955 0
 1415 0064 42EA8512 		orr	r2, r2, r5, lsl #6
 1416              	.LVL123:
 1417 0068 92B2     		uxth	r2, r2
 1418              	.LVL124:
 1419 006a F1E7     		b	.L95
 1420              	.L98:
 1421              		.align	2
 1422              	.L97:
 1423 006c 00000140 		.word	1073807360
 1424 0070 00040140 		.word	1073808384
 1425              		.cfi_endproc
 1426              	.LFE129:
 1427              		.size	TIM_OC4Init, .-TIM_OC4Init
 1428 0074 AFF30080 		.section	.text.TIM_OCStructInit,"ax",%progbits
 1428      AFF30080 
 1428      AFF30080 
 1429              		.align	2
 1430              		.p2align 4,,15
 1431              		.global	TIM_OCStructInit
 1432              		.thumb
 1433              		.thumb_func
 1434              		.type	TIM_OCStructInit, %function
 1435              	TIM_OCStructInit:
 1436              	.LFB130:
 1437              		.loc 1 977 0
 1438              		.cfi_startproc
 1439              		@ args = 0, pretend = 0, frame = 0
 1440              		@ frame_needed = 0, uses_anonymous_args = 0
 1441              		@ link register save eliminated.
 1442              	.LVL125:
 1443              		.loc 1 979 0
 1444 0000 0023     		movs	r3, #0
 1445 0002 0380     		strh	r3, [r0]	@ movhi
 1446              		.loc 1 980 0
 1447 0004 4380     		strh	r3, [r0, #2]	@ movhi
 1448              		.loc 1 981 0
 1449 0006 8380     		strh	r3, [r0, #4]	@ movhi
 1450              		.loc 1 982 0
 1451 0008 8360     		str	r3, [r0, #8]
 1452              		.loc 1 983 0
 1453 000a 8381     		strh	r3, [r0, #12]	@ movhi
 1454              		.loc 1 984 0
 1455 000c C381     		strh	r3, [r0, #14]	@ movhi
ARM GAS  /var/folders/7z/kps_xzfj7sn5l5gkyq8s9db00000gn/T//ccc38Eju.s 			page 27


 1456              		.loc 1 985 0
 1457 000e 0382     		strh	r3, [r0, #16]	@ movhi
 1458              		.loc 1 986 0
 1459 0010 4382     		strh	r3, [r0, #18]	@ movhi
 1460 0012 7047     		bx	lr
 1461              		.cfi_endproc
 1462              	.LFE130:
 1463              		.size	TIM_OCStructInit, .-TIM_OCStructInit
 1464 0014 AFF30080 		.section	.text.TIM_SelectOCxM,"ax",%progbits
 1464      AFF30080 
 1464      AFF30080 
 1465              		.align	2
 1466              		.p2align 4,,15
 1467              		.global	TIM_SelectOCxM
 1468              		.thumb
 1469              		.thumb_func
 1470              		.type	TIM_SelectOCxM, %function
 1471              	TIM_SelectOCxM:
 1472              	.LFB131:
 1473              		.loc 1 1013 0
 1474              		.cfi_startproc
 1475              		@ args = 0, pretend = 0, frame = 0
 1476              		@ frame_needed = 0, uses_anonymous_args = 0
 1477              		@ link register save eliminated.
 1478              	.LVL126:
 1479 0000 10B4     		push	{r4}
 1480              		.cfi_def_cfa_offset 4
 1481              		.cfi_offset 4, -4
 1482              		.loc 1 1028 0
 1483 0002 048C     		ldrh	r4, [r0, #32]
 1484              		.loc 1 1025 0
 1485 0004 0123     		movs	r3, #1
 1486              		.loc 1 1028 0
 1487 0006 A4B2     		uxth	r4, r4
 1488              		.loc 1 1025 0
 1489 0008 8B40     		lsls	r3, r3, r1
 1490              		.loc 1 1028 0
 1491 000a 24EA0303 		bic	r3, r4, r3
 1492              		.loc 1 1030 0
 1493 000e 21F00804 		bic	r4, r1, #8
 1494              		.loc 1 1028 0
 1495 0012 0384     		strh	r3, [r0, #32]	@ movhi
 1496              		.loc 1 1023 0
 1497 0014 1830     		adds	r0, r0, #24
 1498              	.LVL127:
 1499              		.loc 1 1030 0
 1500 0016 7CB1     		cbz	r4, .L104
 1501              	.LVL128:
 1502              		.loc 1 1042 0
 1503 0018 0439     		subs	r1, r1, #4
 1504              	.LVL129:
 1505 001a C1F34E01 		ubfx	r1, r1, #1, #15
 1506              		.loc 1 1045 0
 1507 001e 48F6FF73 		movw	r3, #36863
 1508 0022 0C58     		ldr	r4, [r1, r0]
 1509 0024 2340     		ands	r3, r3, r4
 1510 0026 0B50     		str	r3, [r1, r0]
ARM GAS  /var/folders/7z/kps_xzfj7sn5l5gkyq8s9db00000gn/T//ccc38Eju.s 			page 28


 1511              		.loc 1 1048 0
 1512 0028 1202     		lsls	r2, r2, #8
 1513              	.LVL130:
 1514 002a 0B58     		ldr	r3, [r1, r0]
 1515              		.loc 1 1050 0
 1516 002c 5DF8044B 		ldr	r4, [sp], #4
 1517              		.cfi_remember_state
 1518              		.cfi_restore 4
 1519              		.cfi_def_cfa_offset 0
 1520              		.loc 1 1048 0
 1521 0030 92B2     		uxth	r2, r2
 1522 0032 1A43     		orrs	r2, r2, r3
 1523 0034 0A50     		str	r2, [r1, r0]
 1524              		.loc 1 1050 0
 1525 0036 7047     		bx	lr
 1526              	.LVL131:
 1527              	.L104:
 1528              		.cfi_restore_state
 1529              		.loc 1 1032 0
 1530 0038 4908     		lsrs	r1, r1, #1
 1531              	.LVL132:
 1532              		.loc 1 1035 0
 1533 003a 4FF68F73 		movw	r3, #65423
 1534 003e 4458     		ldr	r4, [r0, r1]
 1535 0040 2340     		ands	r3, r3, r4
 1536 0042 4350     		str	r3, [r0, r1]
 1537              		.loc 1 1038 0
 1538 0044 4358     		ldr	r3, [r0, r1]
 1539              		.loc 1 1050 0
 1540 0046 5DF8044B 		ldr	r4, [sp], #4
 1541              		.cfi_restore 4
 1542              		.cfi_def_cfa_offset 0
 1543              		.loc 1 1038 0
 1544 004a 1A43     		orrs	r2, r2, r3
 1545              	.LVL133:
 1546 004c 4250     		str	r2, [r0, r1]
 1547              		.loc 1 1050 0
 1548 004e 7047     		bx	lr
 1549              		.cfi_endproc
 1550              	.LFE131:
 1551              		.size	TIM_SelectOCxM, .-TIM_SelectOCxM
 1552              		.section	.text.TIM_SetCompare1,"ax",%progbits
 1553              		.align	2
 1554              		.p2align 4,,15
 1555              		.global	TIM_SetCompare1
 1556              		.thumb
 1557              		.thumb_func
 1558              		.type	TIM_SetCompare1, %function
 1559              	TIM_SetCompare1:
 1560              	.LFB132:
 1561              		.loc 1 1059 0
 1562              		.cfi_startproc
 1563              		@ args = 0, pretend = 0, frame = 0
 1564              		@ frame_needed = 0, uses_anonymous_args = 0
 1565              		@ link register save eliminated.
 1566              	.LVL134:
 1567              		.loc 1 1064 0
ARM GAS  /var/folders/7z/kps_xzfj7sn5l5gkyq8s9db00000gn/T//ccc38Eju.s 			page 29


 1568 0000 4163     		str	r1, [r0, #52]
 1569 0002 7047     		bx	lr
 1570              		.cfi_endproc
 1571              	.LFE132:
 1572              		.size	TIM_SetCompare1, .-TIM_SetCompare1
 1573 0004 AFF30080 		.section	.text.TIM_SetCompare2,"ax",%progbits
 1573      AFF30080 
 1573      AFF30080 
 1574              		.align	2
 1575              		.p2align 4,,15
 1576              		.global	TIM_SetCompare2
 1577              		.thumb
 1578              		.thumb_func
 1579              		.type	TIM_SetCompare2, %function
 1580              	TIM_SetCompare2:
 1581              	.LFB133:
 1582              		.loc 1 1075 0
 1583              		.cfi_startproc
 1584              		@ args = 0, pretend = 0, frame = 0
 1585              		@ frame_needed = 0, uses_anonymous_args = 0
 1586              		@ link register save eliminated.
 1587              	.LVL135:
 1588              		.loc 1 1080 0
 1589 0000 8163     		str	r1, [r0, #56]
 1590 0002 7047     		bx	lr
 1591              		.cfi_endproc
 1592              	.LFE133:
 1593              		.size	TIM_SetCompare2, .-TIM_SetCompare2
 1594 0004 AFF30080 		.section	.text.TIM_SetCompare3,"ax",%progbits
 1594      AFF30080 
 1594      AFF30080 
 1595              		.align	2
 1596              		.p2align 4,,15
 1597              		.global	TIM_SetCompare3
 1598              		.thumb
 1599              		.thumb_func
 1600              		.type	TIM_SetCompare3, %function
 1601              	TIM_SetCompare3:
 1602              	.LFB134:
 1603              		.loc 1 1090 0
 1604              		.cfi_startproc
 1605              		@ args = 0, pretend = 0, frame = 0
 1606              		@ frame_needed = 0, uses_anonymous_args = 0
 1607              		@ link register save eliminated.
 1608              	.LVL136:
 1609              		.loc 1 1095 0
 1610 0000 C163     		str	r1, [r0, #60]
 1611 0002 7047     		bx	lr
 1612              		.cfi_endproc
 1613              	.LFE134:
 1614              		.size	TIM_SetCompare3, .-TIM_SetCompare3
 1615 0004 AFF30080 		.section	.text.TIM_SetCompare4,"ax",%progbits
 1615      AFF30080 
 1615      AFF30080 
 1616              		.align	2
 1617              		.p2align 4,,15
 1618              		.global	TIM_SetCompare4
ARM GAS  /var/folders/7z/kps_xzfj7sn5l5gkyq8s9db00000gn/T//ccc38Eju.s 			page 30


 1619              		.thumb
 1620              		.thumb_func
 1621              		.type	TIM_SetCompare4, %function
 1622              	TIM_SetCompare4:
 1623              	.LFB135:
 1624              		.loc 1 1105 0
 1625              		.cfi_startproc
 1626              		@ args = 0, pretend = 0, frame = 0
 1627              		@ frame_needed = 0, uses_anonymous_args = 0
 1628              		@ link register save eliminated.
 1629              	.LVL137:
 1630              		.loc 1 1110 0
 1631 0000 0164     		str	r1, [r0, #64]
 1632 0002 7047     		bx	lr
 1633              		.cfi_endproc
 1634              	.LFE135:
 1635              		.size	TIM_SetCompare4, .-TIM_SetCompare4
 1636 0004 AFF30080 		.section	.text.TIM_ForcedOC1Config,"ax",%progbits
 1636      AFF30080 
 1636      AFF30080 
 1637              		.align	2
 1638              		.p2align 4,,15
 1639              		.global	TIM_ForcedOC1Config
 1640              		.thumb
 1641              		.thumb_func
 1642              		.type	TIM_ForcedOC1Config, %function
 1643              	TIM_ForcedOC1Config:
 1644              	.LFB136:
 1645              		.loc 1 1123 0
 1646              		.cfi_startproc
 1647              		@ args = 0, pretend = 0, frame = 0
 1648              		@ frame_needed = 0, uses_anonymous_args = 0
 1649              		@ link register save eliminated.
 1650              	.LVL138:
 1651              		.loc 1 1129 0
 1652 0000 038B     		ldrh	r3, [r0, #24]
 1653              	.LVL139:
 1654              		.loc 1 1132 0
 1655 0002 23F07003 		bic	r3, r3, #112
 1656              	.LVL140:
 1657 0006 1B04     		lsls	r3, r3, #16
 1658 0008 1B0C     		lsrs	r3, r3, #16
 1659              	.LVL141:
 1660              		.loc 1 1135 0
 1661 000a 1943     		orrs	r1, r1, r3
 1662              	.LVL142:
 1663              		.loc 1 1138 0
 1664 000c 0183     		strh	r1, [r0, #24]	@ movhi
 1665 000e 7047     		bx	lr
 1666              		.cfi_endproc
 1667              	.LFE136:
 1668              		.size	TIM_ForcedOC1Config, .-TIM_ForcedOC1Config
 1669              		.section	.text.TIM_ForcedOC2Config,"ax",%progbits
 1670              		.align	2
 1671              		.p2align 4,,15
 1672              		.global	TIM_ForcedOC2Config
 1673              		.thumb
ARM GAS  /var/folders/7z/kps_xzfj7sn5l5gkyq8s9db00000gn/T//ccc38Eju.s 			page 31


 1674              		.thumb_func
 1675              		.type	TIM_ForcedOC2Config, %function
 1676              	TIM_ForcedOC2Config:
 1677              	.LFB137:
 1678              		.loc 1 1152 0
 1679              		.cfi_startproc
 1680              		@ args = 0, pretend = 0, frame = 0
 1681              		@ frame_needed = 0, uses_anonymous_args = 0
 1682              		@ link register save eliminated.
 1683              	.LVL143:
 1684              		.loc 1 1158 0
 1685 0000 038B     		ldrh	r3, [r0, #24]
 1686              	.LVL144:
 1687              		.loc 1 1161 0
 1688 0002 23F4E043 		bic	r3, r3, #28672
 1689              	.LVL145:
 1690 0006 1B04     		lsls	r3, r3, #16
 1691 0008 1B0C     		lsrs	r3, r3, #16
 1692              	.LVL146:
 1693              		.loc 1 1164 0
 1694 000a 43EA0121 		orr	r1, r3, r1, lsl #8
 1695              	.LVL147:
 1696 000e 89B2     		uxth	r1, r1
 1697              	.LVL148:
 1698              		.loc 1 1167 0
 1699 0010 0183     		strh	r1, [r0, #24]	@ movhi
 1700 0012 7047     		bx	lr
 1701              		.cfi_endproc
 1702              	.LFE137:
 1703              		.size	TIM_ForcedOC2Config, .-TIM_ForcedOC2Config
 1704 0014 AFF30080 		.section	.text.TIM_ForcedOC3Config,"ax",%progbits
 1704      AFF30080 
 1704      AFF30080 
 1705              		.align	2
 1706              		.p2align 4,,15
 1707              		.global	TIM_ForcedOC3Config
 1708              		.thumb
 1709              		.thumb_func
 1710              		.type	TIM_ForcedOC3Config, %function
 1711              	TIM_ForcedOC3Config:
 1712              	.LFB138:
 1713              		.loc 1 1180 0
 1714              		.cfi_startproc
 1715              		@ args = 0, pretend = 0, frame = 0
 1716              		@ frame_needed = 0, uses_anonymous_args = 0
 1717              		@ link register save eliminated.
 1718              	.LVL149:
 1719              		.loc 1 1187 0
 1720 0000 838B     		ldrh	r3, [r0, #28]
 1721              	.LVL150:
 1722              		.loc 1 1190 0
 1723 0002 23F07003 		bic	r3, r3, #112
 1724              	.LVL151:
 1725 0006 1B04     		lsls	r3, r3, #16
 1726 0008 1B0C     		lsrs	r3, r3, #16
 1727              	.LVL152:
 1728              		.loc 1 1193 0
ARM GAS  /var/folders/7z/kps_xzfj7sn5l5gkyq8s9db00000gn/T//ccc38Eju.s 			page 32


 1729 000a 1943     		orrs	r1, r1, r3
 1730              	.LVL153:
 1731              		.loc 1 1196 0
 1732 000c 8183     		strh	r1, [r0, #28]	@ movhi
 1733 000e 7047     		bx	lr
 1734              		.cfi_endproc
 1735              	.LFE138:
 1736              		.size	TIM_ForcedOC3Config, .-TIM_ForcedOC3Config
 1737              		.section	.text.TIM_ForcedOC4Config,"ax",%progbits
 1738              		.align	2
 1739              		.p2align 4,,15
 1740              		.global	TIM_ForcedOC4Config
 1741              		.thumb
 1742              		.thumb_func
 1743              		.type	TIM_ForcedOC4Config, %function
 1744              	TIM_ForcedOC4Config:
 1745              	.LFB139:
 1746              		.loc 1 1209 0
 1747              		.cfi_startproc
 1748              		@ args = 0, pretend = 0, frame = 0
 1749              		@ frame_needed = 0, uses_anonymous_args = 0
 1750              		@ link register save eliminated.
 1751              	.LVL154:
 1752              		.loc 1 1215 0
 1753 0000 838B     		ldrh	r3, [r0, #28]
 1754              	.LVL155:
 1755              		.loc 1 1218 0
 1756 0002 23F4E043 		bic	r3, r3, #28672
 1757              	.LVL156:
 1758 0006 1B04     		lsls	r3, r3, #16
 1759 0008 1B0C     		lsrs	r3, r3, #16
 1760              	.LVL157:
 1761              		.loc 1 1221 0
 1762 000a 43EA0121 		orr	r1, r3, r1, lsl #8
 1763              	.LVL158:
 1764 000e 89B2     		uxth	r1, r1
 1765              	.LVL159:
 1766              		.loc 1 1224 0
 1767 0010 8183     		strh	r1, [r0, #28]	@ movhi
 1768 0012 7047     		bx	lr
 1769              		.cfi_endproc
 1770              	.LFE139:
 1771              		.size	TIM_ForcedOC4Config, .-TIM_ForcedOC4Config
 1772 0014 AFF30080 		.section	.text.TIM_OC1PreloadConfig,"ax",%progbits
 1772      AFF30080 
 1772      AFF30080 
 1773              		.align	2
 1774              		.p2align 4,,15
 1775              		.global	TIM_OC1PreloadConfig
 1776              		.thumb
 1777              		.thumb_func
 1778              		.type	TIM_OC1PreloadConfig, %function
 1779              	TIM_OC1PreloadConfig:
 1780              	.LFB140:
 1781              		.loc 1 1237 0
 1782              		.cfi_startproc
 1783              		@ args = 0, pretend = 0, frame = 0
ARM GAS  /var/folders/7z/kps_xzfj7sn5l5gkyq8s9db00000gn/T//ccc38Eju.s 			page 33


 1784              		@ frame_needed = 0, uses_anonymous_args = 0
 1785              		@ link register save eliminated.
 1786              	.LVL160:
 1787              		.loc 1 1244 0
 1788 0000 038B     		ldrh	r3, [r0, #24]
 1789              	.LVL161:
 1790              		.loc 1 1247 0
 1791 0002 23F00803 		bic	r3, r3, #8
 1792              	.LVL162:
 1793 0006 1B04     		lsls	r3, r3, #16
 1794 0008 1B0C     		lsrs	r3, r3, #16
 1795              	.LVL163:
 1796              		.loc 1 1250 0
 1797 000a 1943     		orrs	r1, r1, r3
 1798              	.LVL164:
 1799              		.loc 1 1253 0
 1800 000c 0183     		strh	r1, [r0, #24]	@ movhi
 1801 000e 7047     		bx	lr
 1802              		.cfi_endproc
 1803              	.LFE140:
 1804              		.size	TIM_OC1PreloadConfig, .-TIM_OC1PreloadConfig
 1805              		.section	.text.TIM_OC2PreloadConfig,"ax",%progbits
 1806              		.align	2
 1807              		.p2align 4,,15
 1808              		.global	TIM_OC2PreloadConfig
 1809              		.thumb
 1810              		.thumb_func
 1811              		.type	TIM_OC2PreloadConfig, %function
 1812              	TIM_OC2PreloadConfig:
 1813              	.LFB141:
 1814              		.loc 1 1267 0
 1815              		.cfi_startproc
 1816              		@ args = 0, pretend = 0, frame = 0
 1817              		@ frame_needed = 0, uses_anonymous_args = 0
 1818              		@ link register save eliminated.
 1819              	.LVL165:
 1820              		.loc 1 1274 0
 1821 0000 038B     		ldrh	r3, [r0, #24]
 1822              	.LVL166:
 1823              		.loc 1 1277 0
 1824 0002 23F40063 		bic	r3, r3, #2048
 1825              	.LVL167:
 1826 0006 1B04     		lsls	r3, r3, #16
 1827 0008 1B0C     		lsrs	r3, r3, #16
 1828              	.LVL168:
 1829              		.loc 1 1280 0
 1830 000a 43EA0121 		orr	r1, r3, r1, lsl #8
 1831              	.LVL169:
 1832 000e 89B2     		uxth	r1, r1
 1833              	.LVL170:
 1834              		.loc 1 1283 0
 1835 0010 0183     		strh	r1, [r0, #24]	@ movhi
 1836 0012 7047     		bx	lr
 1837              		.cfi_endproc
 1838              	.LFE141:
 1839              		.size	TIM_OC2PreloadConfig, .-TIM_OC2PreloadConfig
 1840 0014 AFF30080 		.section	.text.TIM_OC3PreloadConfig,"ax",%progbits
ARM GAS  /var/folders/7z/kps_xzfj7sn5l5gkyq8s9db00000gn/T//ccc38Eju.s 			page 34


 1840      AFF30080 
 1840      AFF30080 
 1841              		.align	2
 1842              		.p2align 4,,15
 1843              		.global	TIM_OC3PreloadConfig
 1844              		.thumb
 1845              		.thumb_func
 1846              		.type	TIM_OC3PreloadConfig, %function
 1847              	TIM_OC3PreloadConfig:
 1848              	.LFB142:
 1849              		.loc 1 1296 0
 1850              		.cfi_startproc
 1851              		@ args = 0, pretend = 0, frame = 0
 1852              		@ frame_needed = 0, uses_anonymous_args = 0
 1853              		@ link register save eliminated.
 1854              	.LVL171:
 1855              		.loc 1 1303 0
 1856 0000 838B     		ldrh	r3, [r0, #28]
 1857              	.LVL172:
 1858              		.loc 1 1306 0
 1859 0002 23F00803 		bic	r3, r3, #8
 1860              	.LVL173:
 1861 0006 1B04     		lsls	r3, r3, #16
 1862 0008 1B0C     		lsrs	r3, r3, #16
 1863              	.LVL174:
 1864              		.loc 1 1309 0
 1865 000a 1943     		orrs	r1, r1, r3
 1866              	.LVL175:
 1867              		.loc 1 1312 0
 1868 000c 8183     		strh	r1, [r0, #28]	@ movhi
 1869 000e 7047     		bx	lr
 1870              		.cfi_endproc
 1871              	.LFE142:
 1872              		.size	TIM_OC3PreloadConfig, .-TIM_OC3PreloadConfig
 1873              		.section	.text.TIM_OC4PreloadConfig,"ax",%progbits
 1874              		.align	2
 1875              		.p2align 4,,15
 1876              		.global	TIM_OC4PreloadConfig
 1877              		.thumb
 1878              		.thumb_func
 1879              		.type	TIM_OC4PreloadConfig, %function
 1880              	TIM_OC4PreloadConfig:
 1881              	.LFB143:
 1882              		.loc 1 1325 0
 1883              		.cfi_startproc
 1884              		@ args = 0, pretend = 0, frame = 0
 1885              		@ frame_needed = 0, uses_anonymous_args = 0
 1886              		@ link register save eliminated.
 1887              	.LVL176:
 1888              		.loc 1 1332 0
 1889 0000 838B     		ldrh	r3, [r0, #28]
 1890              	.LVL177:
 1891              		.loc 1 1335 0
 1892 0002 23F40063 		bic	r3, r3, #2048
 1893              	.LVL178:
 1894 0006 1B04     		lsls	r3, r3, #16
 1895 0008 1B0C     		lsrs	r3, r3, #16
ARM GAS  /var/folders/7z/kps_xzfj7sn5l5gkyq8s9db00000gn/T//ccc38Eju.s 			page 35


 1896              	.LVL179:
 1897              		.loc 1 1338 0
 1898 000a 43EA0121 		orr	r1, r3, r1, lsl #8
 1899              	.LVL180:
 1900 000e 89B2     		uxth	r1, r1
 1901              	.LVL181:
 1902              		.loc 1 1341 0
 1903 0010 8183     		strh	r1, [r0, #28]	@ movhi
 1904 0012 7047     		bx	lr
 1905              		.cfi_endproc
 1906              	.LFE143:
 1907              		.size	TIM_OC4PreloadConfig, .-TIM_OC4PreloadConfig
 1908 0014 AFF30080 		.section	.text.TIM_OC1FastConfig,"ax",%progbits
 1908      AFF30080 
 1908      AFF30080 
 1909              		.align	2
 1910              		.p2align 4,,15
 1911              		.global	TIM_OC1FastConfig
 1912              		.thumb
 1913              		.thumb_func
 1914              		.type	TIM_OC1FastConfig, %function
 1915              	TIM_OC1FastConfig:
 1916              	.LFB144:
 1917              		.loc 1 1354 0
 1918              		.cfi_startproc
 1919              		@ args = 0, pretend = 0, frame = 0
 1920              		@ frame_needed = 0, uses_anonymous_args = 0
 1921              		@ link register save eliminated.
 1922              	.LVL182:
 1923              		.loc 1 1362 0
 1924 0000 038B     		ldrh	r3, [r0, #24]
 1925              	.LVL183:
 1926              		.loc 1 1365 0
 1927 0002 23F00403 		bic	r3, r3, #4
 1928              	.LVL184:
 1929 0006 1B04     		lsls	r3, r3, #16
 1930 0008 1B0C     		lsrs	r3, r3, #16
 1931              	.LVL185:
 1932              		.loc 1 1368 0
 1933 000a 1943     		orrs	r1, r1, r3
 1934              	.LVL186:
 1935              		.loc 1 1371 0
 1936 000c 0183     		strh	r1, [r0, #24]	@ movhi
 1937 000e 7047     		bx	lr
 1938              		.cfi_endproc
 1939              	.LFE144:
 1940              		.size	TIM_OC1FastConfig, .-TIM_OC1FastConfig
 1941              		.section	.text.TIM_OC2FastConfig,"ax",%progbits
 1942              		.align	2
 1943              		.p2align 4,,15
 1944              		.global	TIM_OC2FastConfig
 1945              		.thumb
 1946              		.thumb_func
 1947              		.type	TIM_OC2FastConfig, %function
 1948              	TIM_OC2FastConfig:
 1949              	.LFB145:
 1950              		.loc 1 1385 0
ARM GAS  /var/folders/7z/kps_xzfj7sn5l5gkyq8s9db00000gn/T//ccc38Eju.s 			page 36


 1951              		.cfi_startproc
 1952              		@ args = 0, pretend = 0, frame = 0
 1953              		@ frame_needed = 0, uses_anonymous_args = 0
 1954              		@ link register save eliminated.
 1955              	.LVL187:
 1956              		.loc 1 1393 0
 1957 0000 038B     		ldrh	r3, [r0, #24]
 1958              	.LVL188:
 1959              		.loc 1 1396 0
 1960 0002 23F48063 		bic	r3, r3, #1024
 1961              	.LVL189:
 1962 0006 1B04     		lsls	r3, r3, #16
 1963 0008 1B0C     		lsrs	r3, r3, #16
 1964              	.LVL190:
 1965              		.loc 1 1399 0
 1966 000a 43EA0121 		orr	r1, r3, r1, lsl #8
 1967              	.LVL191:
 1968 000e 89B2     		uxth	r1, r1
 1969              	.LVL192:
 1970              		.loc 1 1402 0
 1971 0010 0183     		strh	r1, [r0, #24]	@ movhi
 1972 0012 7047     		bx	lr
 1973              		.cfi_endproc
 1974              	.LFE145:
 1975              		.size	TIM_OC2FastConfig, .-TIM_OC2FastConfig
 1976 0014 AFF30080 		.section	.text.TIM_OC3FastConfig,"ax",%progbits
 1976      AFF30080 
 1976      AFF30080 
 1977              		.align	2
 1978              		.p2align 4,,15
 1979              		.global	TIM_OC3FastConfig
 1980              		.thumb
 1981              		.thumb_func
 1982              		.type	TIM_OC3FastConfig, %function
 1983              	TIM_OC3FastConfig:
 1984              	.LFB146:
 1985              		.loc 1 1415 0
 1986              		.cfi_startproc
 1987              		@ args = 0, pretend = 0, frame = 0
 1988              		@ frame_needed = 0, uses_anonymous_args = 0
 1989              		@ link register save eliminated.
 1990              	.LVL193:
 1991              		.loc 1 1423 0
 1992 0000 838B     		ldrh	r3, [r0, #28]
 1993              	.LVL194:
 1994              		.loc 1 1426 0
 1995 0002 23F00403 		bic	r3, r3, #4
 1996              	.LVL195:
 1997 0006 1B04     		lsls	r3, r3, #16
 1998 0008 1B0C     		lsrs	r3, r3, #16
 1999              	.LVL196:
 2000              		.loc 1 1429 0
 2001 000a 1943     		orrs	r1, r1, r3
 2002              	.LVL197:
 2003              		.loc 1 1432 0
 2004 000c 8183     		strh	r1, [r0, #28]	@ movhi
 2005 000e 7047     		bx	lr
ARM GAS  /var/folders/7z/kps_xzfj7sn5l5gkyq8s9db00000gn/T//ccc38Eju.s 			page 37


 2006              		.cfi_endproc
 2007              	.LFE146:
 2008              		.size	TIM_OC3FastConfig, .-TIM_OC3FastConfig
 2009              		.section	.text.TIM_OC4FastConfig,"ax",%progbits
 2010              		.align	2
 2011              		.p2align 4,,15
 2012              		.global	TIM_OC4FastConfig
 2013              		.thumb
 2014              		.thumb_func
 2015              		.type	TIM_OC4FastConfig, %function
 2016              	TIM_OC4FastConfig:
 2017              	.LFB147:
 2018              		.loc 1 1445 0
 2019              		.cfi_startproc
 2020              		@ args = 0, pretend = 0, frame = 0
 2021              		@ frame_needed = 0, uses_anonymous_args = 0
 2022              		@ link register save eliminated.
 2023              	.LVL198:
 2024              		.loc 1 1453 0
 2025 0000 838B     		ldrh	r3, [r0, #28]
 2026              	.LVL199:
 2027              		.loc 1 1456 0
 2028 0002 23F48063 		bic	r3, r3, #1024
 2029              	.LVL200:
 2030 0006 1B04     		lsls	r3, r3, #16
 2031 0008 1B0C     		lsrs	r3, r3, #16
 2032              	.LVL201:
 2033              		.loc 1 1459 0
 2034 000a 43EA0121 		orr	r1, r3, r1, lsl #8
 2035              	.LVL202:
 2036 000e 89B2     		uxth	r1, r1
 2037              	.LVL203:
 2038              		.loc 1 1462 0
 2039 0010 8183     		strh	r1, [r0, #28]	@ movhi
 2040 0012 7047     		bx	lr
 2041              		.cfi_endproc
 2042              	.LFE147:
 2043              		.size	TIM_OC4FastConfig, .-TIM_OC4FastConfig
 2044 0014 AFF30080 		.section	.text.TIM_ClearOC1Ref,"ax",%progbits
 2044      AFF30080 
 2044      AFF30080 
 2045              		.align	2
 2046              		.p2align 4,,15
 2047              		.global	TIM_ClearOC1Ref
 2048              		.thumb
 2049              		.thumb_func
 2050              		.type	TIM_ClearOC1Ref, %function
 2051              	TIM_ClearOC1Ref:
 2052              	.LFB148:
 2053              		.loc 1 1475 0
 2054              		.cfi_startproc
 2055              		@ args = 0, pretend = 0, frame = 0
 2056              		@ frame_needed = 0, uses_anonymous_args = 0
 2057              		@ link register save eliminated.
 2058              	.LVL204:
 2059              		.loc 1 1482 0
 2060 0000 038B     		ldrh	r3, [r0, #24]
ARM GAS  /var/folders/7z/kps_xzfj7sn5l5gkyq8s9db00000gn/T//ccc38Eju.s 			page 38


 2061              	.LVL205:
 2062              		.loc 1 1485 0
 2063 0002 23F08003 		bic	r3, r3, #128
 2064              	.LVL206:
 2065 0006 1B04     		lsls	r3, r3, #16
 2066 0008 1B0C     		lsrs	r3, r3, #16
 2067              	.LVL207:
 2068              		.loc 1 1488 0
 2069 000a 1943     		orrs	r1, r1, r3
 2070              	.LVL208:
 2071              		.loc 1 1491 0
 2072 000c 0183     		strh	r1, [r0, #24]	@ movhi
 2073 000e 7047     		bx	lr
 2074              		.cfi_endproc
 2075              	.LFE148:
 2076              		.size	TIM_ClearOC1Ref, .-TIM_ClearOC1Ref
 2077              		.section	.text.TIM_ClearOC2Ref,"ax",%progbits
 2078              		.align	2
 2079              		.p2align 4,,15
 2080              		.global	TIM_ClearOC2Ref
 2081              		.thumb
 2082              		.thumb_func
 2083              		.type	TIM_ClearOC2Ref, %function
 2084              	TIM_ClearOC2Ref:
 2085              	.LFB149:
 2086              		.loc 1 1505 0
 2087              		.cfi_startproc
 2088              		@ args = 0, pretend = 0, frame = 0
 2089              		@ frame_needed = 0, uses_anonymous_args = 0
 2090              		@ link register save eliminated.
 2091              	.LVL209:
 2092              		.loc 1 1512 0
 2093 0000 038B     		ldrh	r3, [r0, #24]
 2094              	.LVL210:
 2095              		.loc 1 1515 0
 2096 0002 C3F30E03 		ubfx	r3, r3, #0, #15
 2097              	.LVL211:
 2098              		.loc 1 1518 0
 2099 0006 43EA0121 		orr	r1, r3, r1, lsl #8
 2100              	.LVL212:
 2101 000a 89B2     		uxth	r1, r1
 2102              	.LVL213:
 2103              		.loc 1 1521 0
 2104 000c 0183     		strh	r1, [r0, #24]	@ movhi
 2105 000e 7047     		bx	lr
 2106              		.cfi_endproc
 2107              	.LFE149:
 2108              		.size	TIM_ClearOC2Ref, .-TIM_ClearOC2Ref
 2109              		.section	.text.TIM_ClearOC3Ref,"ax",%progbits
 2110              		.align	2
 2111              		.p2align 4,,15
 2112              		.global	TIM_ClearOC3Ref
 2113              		.thumb
 2114              		.thumb_func
 2115              		.type	TIM_ClearOC3Ref, %function
 2116              	TIM_ClearOC3Ref:
 2117              	.LFB150:
ARM GAS  /var/folders/7z/kps_xzfj7sn5l5gkyq8s9db00000gn/T//ccc38Eju.s 			page 39


 2118              		.loc 1 1534 0
 2119              		.cfi_startproc
 2120              		@ args = 0, pretend = 0, frame = 0
 2121              		@ frame_needed = 0, uses_anonymous_args = 0
 2122              		@ link register save eliminated.
 2123              	.LVL214:
 2124              		.loc 1 1541 0
 2125 0000 838B     		ldrh	r3, [r0, #28]
 2126              	.LVL215:
 2127              		.loc 1 1544 0
 2128 0002 23F08003 		bic	r3, r3, #128
 2129              	.LVL216:
 2130 0006 1B04     		lsls	r3, r3, #16
 2131 0008 1B0C     		lsrs	r3, r3, #16
 2132              	.LVL217:
 2133              		.loc 1 1547 0
 2134 000a 1943     		orrs	r1, r1, r3
 2135              	.LVL218:
 2136              		.loc 1 1550 0
 2137 000c 8183     		strh	r1, [r0, #28]	@ movhi
 2138 000e 7047     		bx	lr
 2139              		.cfi_endproc
 2140              	.LFE150:
 2141              		.size	TIM_ClearOC3Ref, .-TIM_ClearOC3Ref
 2142              		.section	.text.TIM_ClearOC4Ref,"ax",%progbits
 2143              		.align	2
 2144              		.p2align 4,,15
 2145              		.global	TIM_ClearOC4Ref
 2146              		.thumb
 2147              		.thumb_func
 2148              		.type	TIM_ClearOC4Ref, %function
 2149              	TIM_ClearOC4Ref:
 2150              	.LFB151:
 2151              		.loc 1 1563 0
 2152              		.cfi_startproc
 2153              		@ args = 0, pretend = 0, frame = 0
 2154              		@ frame_needed = 0, uses_anonymous_args = 0
 2155              		@ link register save eliminated.
 2156              	.LVL219:
 2157              		.loc 1 1570 0
 2158 0000 838B     		ldrh	r3, [r0, #28]
 2159              	.LVL220:
 2160              		.loc 1 1573 0
 2161 0002 C3F30E03 		ubfx	r3, r3, #0, #15
 2162              	.LVL221:
 2163              		.loc 1 1576 0
 2164 0006 43EA0121 		orr	r1, r3, r1, lsl #8
 2165              	.LVL222:
 2166 000a 89B2     		uxth	r1, r1
 2167              	.LVL223:
 2168              		.loc 1 1579 0
 2169 000c 8183     		strh	r1, [r0, #28]	@ movhi
 2170 000e 7047     		bx	lr
 2171              		.cfi_endproc
 2172              	.LFE151:
 2173              		.size	TIM_ClearOC4Ref, .-TIM_ClearOC4Ref
 2174              		.section	.text.TIM_OC1PolarityConfig,"ax",%progbits
ARM GAS  /var/folders/7z/kps_xzfj7sn5l5gkyq8s9db00000gn/T//ccc38Eju.s 			page 40


 2175              		.align	2
 2176              		.p2align 4,,15
 2177              		.global	TIM_OC1PolarityConfig
 2178              		.thumb
 2179              		.thumb_func
 2180              		.type	TIM_OC1PolarityConfig, %function
 2181              	TIM_OC1PolarityConfig:
 2182              	.LFB152:
 2183              		.loc 1 1592 0
 2184              		.cfi_startproc
 2185              		@ args = 0, pretend = 0, frame = 0
 2186              		@ frame_needed = 0, uses_anonymous_args = 0
 2187              		@ link register save eliminated.
 2188              	.LVL224:
 2189              		.loc 1 1599 0
 2190 0000 038C     		ldrh	r3, [r0, #32]
 2191              	.LVL225:
 2192              		.loc 1 1602 0
 2193 0002 23F00203 		bic	r3, r3, #2
 2194              	.LVL226:
 2195 0006 1B04     		lsls	r3, r3, #16
 2196 0008 1B0C     		lsrs	r3, r3, #16
 2197              	.LVL227:
 2198              		.loc 1 1603 0
 2199 000a 1943     		orrs	r1, r1, r3
 2200              	.LVL228:
 2201              		.loc 1 1606 0
 2202 000c 0184     		strh	r1, [r0, #32]	@ movhi
 2203 000e 7047     		bx	lr
 2204              		.cfi_endproc
 2205              	.LFE152:
 2206              		.size	TIM_OC1PolarityConfig, .-TIM_OC1PolarityConfig
 2207              		.section	.text.TIM_OC1NPolarityConfig,"ax",%progbits
 2208              		.align	2
 2209              		.p2align 4,,15
 2210              		.global	TIM_OC1NPolarityConfig
 2211              		.thumb
 2212              		.thumb_func
 2213              		.type	TIM_OC1NPolarityConfig, %function
 2214              	TIM_OC1NPolarityConfig:
 2215              	.LFB153:
 2216              		.loc 1 1619 0
 2217              		.cfi_startproc
 2218              		@ args = 0, pretend = 0, frame = 0
 2219              		@ frame_needed = 0, uses_anonymous_args = 0
 2220              		@ link register save eliminated.
 2221              	.LVL229:
 2222              		.loc 1 1625 0
 2223 0000 038C     		ldrh	r3, [r0, #32]
 2224              	.LVL230:
 2225              		.loc 1 1628 0
 2226 0002 23F00803 		bic	r3, r3, #8
 2227              	.LVL231:
 2228 0006 1B04     		lsls	r3, r3, #16
 2229 0008 1B0C     		lsrs	r3, r3, #16
 2230              	.LVL232:
 2231              		.loc 1 1629 0
ARM GAS  /var/folders/7z/kps_xzfj7sn5l5gkyq8s9db00000gn/T//ccc38Eju.s 			page 41


 2232 000a 1943     		orrs	r1, r1, r3
 2233              	.LVL233:
 2234              		.loc 1 1632 0
 2235 000c 0184     		strh	r1, [r0, #32]	@ movhi
 2236 000e 7047     		bx	lr
 2237              		.cfi_endproc
 2238              	.LFE153:
 2239              		.size	TIM_OC1NPolarityConfig, .-TIM_OC1NPolarityConfig
 2240              		.section	.text.TIM_OC2PolarityConfig,"ax",%progbits
 2241              		.align	2
 2242              		.p2align 4,,15
 2243              		.global	TIM_OC2PolarityConfig
 2244              		.thumb
 2245              		.thumb_func
 2246              		.type	TIM_OC2PolarityConfig, %function
 2247              	TIM_OC2PolarityConfig:
 2248              	.LFB154:
 2249              		.loc 1 1646 0
 2250              		.cfi_startproc
 2251              		@ args = 0, pretend = 0, frame = 0
 2252              		@ frame_needed = 0, uses_anonymous_args = 0
 2253              		@ link register save eliminated.
 2254              	.LVL234:
 2255              		.loc 1 1653 0
 2256 0000 038C     		ldrh	r3, [r0, #32]
 2257              	.LVL235:
 2258              		.loc 1 1656 0
 2259 0002 23F02003 		bic	r3, r3, #32
 2260              	.LVL236:
 2261 0006 1B04     		lsls	r3, r3, #16
 2262 0008 1B0C     		lsrs	r3, r3, #16
 2263              	.LVL237:
 2264              		.loc 1 1657 0
 2265 000a 43EA0111 		orr	r1, r3, r1, lsl #4
 2266              	.LVL238:
 2267 000e 89B2     		uxth	r1, r1
 2268              	.LVL239:
 2269              		.loc 1 1660 0
 2270 0010 0184     		strh	r1, [r0, #32]	@ movhi
 2271 0012 7047     		bx	lr
 2272              		.cfi_endproc
 2273              	.LFE154:
 2274              		.size	TIM_OC2PolarityConfig, .-TIM_OC2PolarityConfig
 2275 0014 AFF30080 		.section	.text.TIM_OC2NPolarityConfig,"ax",%progbits
 2275      AFF30080 
 2275      AFF30080 
 2276              		.align	2
 2277              		.p2align 4,,15
 2278              		.global	TIM_OC2NPolarityConfig
 2279              		.thumb
 2280              		.thumb_func
 2281              		.type	TIM_OC2NPolarityConfig, %function
 2282              	TIM_OC2NPolarityConfig:
 2283              	.LFB155:
 2284              		.loc 1 1673 0
 2285              		.cfi_startproc
 2286              		@ args = 0, pretend = 0, frame = 0
ARM GAS  /var/folders/7z/kps_xzfj7sn5l5gkyq8s9db00000gn/T//ccc38Eju.s 			page 42


 2287              		@ frame_needed = 0, uses_anonymous_args = 0
 2288              		@ link register save eliminated.
 2289              	.LVL240:
 2290              		.loc 1 1680 0
 2291 0000 038C     		ldrh	r3, [r0, #32]
 2292              	.LVL241:
 2293              		.loc 1 1683 0
 2294 0002 23F08003 		bic	r3, r3, #128
 2295              	.LVL242:
 2296 0006 1B04     		lsls	r3, r3, #16
 2297 0008 1B0C     		lsrs	r3, r3, #16
 2298              	.LVL243:
 2299              		.loc 1 1684 0
 2300 000a 43EA0111 		orr	r1, r3, r1, lsl #4
 2301              	.LVL244:
 2302 000e 89B2     		uxth	r1, r1
 2303              	.LVL245:
 2304              		.loc 1 1687 0
 2305 0010 0184     		strh	r1, [r0, #32]	@ movhi
 2306 0012 7047     		bx	lr
 2307              		.cfi_endproc
 2308              	.LFE155:
 2309              		.size	TIM_OC2NPolarityConfig, .-TIM_OC2NPolarityConfig
 2310 0014 AFF30080 		.section	.text.TIM_OC3PolarityConfig,"ax",%progbits
 2310      AFF30080 
 2310      AFF30080 
 2311              		.align	2
 2312              		.p2align 4,,15
 2313              		.global	TIM_OC3PolarityConfig
 2314              		.thumb
 2315              		.thumb_func
 2316              		.type	TIM_OC3PolarityConfig, %function
 2317              	TIM_OC3PolarityConfig:
 2318              	.LFB156:
 2319              		.loc 1 1700 0
 2320              		.cfi_startproc
 2321              		@ args = 0, pretend = 0, frame = 0
 2322              		@ frame_needed = 0, uses_anonymous_args = 0
 2323              		@ link register save eliminated.
 2324              	.LVL246:
 2325              		.loc 1 1707 0
 2326 0000 038C     		ldrh	r3, [r0, #32]
 2327              	.LVL247:
 2328              		.loc 1 1710 0
 2329 0002 23F40073 		bic	r3, r3, #512
 2330              	.LVL248:
 2331 0006 1B04     		lsls	r3, r3, #16
 2332 0008 1B0C     		lsrs	r3, r3, #16
 2333              	.LVL249:
 2334              		.loc 1 1711 0
 2335 000a 43EA0121 		orr	r1, r3, r1, lsl #8
 2336              	.LVL250:
 2337 000e 89B2     		uxth	r1, r1
 2338              	.LVL251:
 2339              		.loc 1 1714 0
 2340 0010 0184     		strh	r1, [r0, #32]	@ movhi
 2341 0012 7047     		bx	lr
ARM GAS  /var/folders/7z/kps_xzfj7sn5l5gkyq8s9db00000gn/T//ccc38Eju.s 			page 43


 2342              		.cfi_endproc
 2343              	.LFE156:
 2344              		.size	TIM_OC3PolarityConfig, .-TIM_OC3PolarityConfig
 2345 0014 AFF30080 		.section	.text.TIM_OC3NPolarityConfig,"ax",%progbits
 2345      AFF30080 
 2345      AFF30080 
 2346              		.align	2
 2347              		.p2align 4,,15
 2348              		.global	TIM_OC3NPolarityConfig
 2349              		.thumb
 2350              		.thumb_func
 2351              		.type	TIM_OC3NPolarityConfig, %function
 2352              	TIM_OC3NPolarityConfig:
 2353              	.LFB157:
 2354              		.loc 1 1727 0
 2355              		.cfi_startproc
 2356              		@ args = 0, pretend = 0, frame = 0
 2357              		@ frame_needed = 0, uses_anonymous_args = 0
 2358              		@ link register save eliminated.
 2359              	.LVL252:
 2360              		.loc 1 1734 0
 2361 0000 038C     		ldrh	r3, [r0, #32]
 2362              	.LVL253:
 2363              		.loc 1 1737 0
 2364 0002 23F40063 		bic	r3, r3, #2048
 2365              	.LVL254:
 2366 0006 1B04     		lsls	r3, r3, #16
 2367 0008 1B0C     		lsrs	r3, r3, #16
 2368              	.LVL255:
 2369              		.loc 1 1738 0
 2370 000a 43EA0121 		orr	r1, r3, r1, lsl #8
 2371              	.LVL256:
 2372 000e 89B2     		uxth	r1, r1
 2373              	.LVL257:
 2374              		.loc 1 1741 0
 2375 0010 0184     		strh	r1, [r0, #32]	@ movhi
 2376 0012 7047     		bx	lr
 2377              		.cfi_endproc
 2378              	.LFE157:
 2379              		.size	TIM_OC3NPolarityConfig, .-TIM_OC3NPolarityConfig
 2380 0014 AFF30080 		.section	.text.TIM_OC4PolarityConfig,"ax",%progbits
 2380      AFF30080 
 2380      AFF30080 
 2381              		.align	2
 2382              		.p2align 4,,15
 2383              		.global	TIM_OC4PolarityConfig
 2384              		.thumb
 2385              		.thumb_func
 2386              		.type	TIM_OC4PolarityConfig, %function
 2387              	TIM_OC4PolarityConfig:
 2388              	.LFB158:
 2389              		.loc 1 1754 0
 2390              		.cfi_startproc
 2391              		@ args = 0, pretend = 0, frame = 0
 2392              		@ frame_needed = 0, uses_anonymous_args = 0
 2393              		@ link register save eliminated.
 2394              	.LVL258:
ARM GAS  /var/folders/7z/kps_xzfj7sn5l5gkyq8s9db00000gn/T//ccc38Eju.s 			page 44


 2395              		.loc 1 1761 0
 2396 0000 038C     		ldrh	r3, [r0, #32]
 2397              	.LVL259:
 2398              		.loc 1 1764 0
 2399 0002 23F40053 		bic	r3, r3, #8192
 2400              	.LVL260:
 2401 0006 1B04     		lsls	r3, r3, #16
 2402 0008 1B0C     		lsrs	r3, r3, #16
 2403              	.LVL261:
 2404              		.loc 1 1765 0
 2405 000a 43EA0131 		orr	r1, r3, r1, lsl #12
 2406              	.LVL262:
 2407 000e 89B2     		uxth	r1, r1
 2408              	.LVL263:
 2409              		.loc 1 1768 0
 2410 0010 0184     		strh	r1, [r0, #32]	@ movhi
 2411 0012 7047     		bx	lr
 2412              		.cfi_endproc
 2413              	.LFE158:
 2414              		.size	TIM_OC4PolarityConfig, .-TIM_OC4PolarityConfig
 2415 0014 AFF30080 		.section	.text.TIM_CCxCmd,"ax",%progbits
 2415      AFF30080 
 2415      AFF30080 
 2416              		.align	2
 2417              		.p2align 4,,15
 2418              		.global	TIM_CCxCmd
 2419              		.thumb
 2420              		.thumb_func
 2421              		.type	TIM_CCxCmd, %function
 2422              	TIM_CCxCmd:
 2423              	.LFB159:
 2424              		.loc 1 1785 0
 2425              		.cfi_startproc
 2426              		@ args = 0, pretend = 0, frame = 0
 2427              		@ frame_needed = 0, uses_anonymous_args = 0
 2428              		@ link register save eliminated.
 2429              	.LVL264:
 2430 0000 10B4     		push	{r4}
 2431              		.cfi_def_cfa_offset 4
 2432              		.cfi_offset 4, -4
 2433              		.loc 1 1796 0
 2434 0002 048C     		ldrh	r4, [r0, #32]
 2435              		.loc 1 1793 0
 2436 0004 0123     		movs	r3, #1
 2437              		.loc 1 1796 0
 2438 0006 A4B2     		uxth	r4, r4
 2439              		.loc 1 1793 0
 2440 0008 8B40     		lsls	r3, r3, r1
 2441              		.loc 1 1796 0
 2442 000a 24EA0303 		bic	r3, r4, r3
 2443 000e 0384     		strh	r3, [r0, #32]	@ movhi
 2444              		.loc 1 1799 0
 2445 0010 038C     		ldrh	r3, [r0, #32]
 2446              		.loc 1 1800 0
 2447 0012 5DF8044B 		ldr	r4, [sp], #4
 2448              		.cfi_restore 4
 2449              		.cfi_def_cfa_offset 0
ARM GAS  /var/folders/7z/kps_xzfj7sn5l5gkyq8s9db00000gn/T//ccc38Eju.s 			page 45


 2450              		.loc 1 1799 0
 2451 0016 8A40     		lsls	r2, r2, r1
 2452              	.LVL265:
 2453 0018 1343     		orrs	r3, r3, r2
 2454 001a 9BB2     		uxth	r3, r3
 2455 001c 0384     		strh	r3, [r0, #32]	@ movhi
 2456              		.loc 1 1800 0
 2457 001e 7047     		bx	lr
 2458              		.cfi_endproc
 2459              	.LFE159:
 2460              		.size	TIM_CCxCmd, .-TIM_CCxCmd
 2461              		.section	.text.TIM_CCxNCmd,"ax",%progbits
 2462              		.align	2
 2463              		.p2align 4,,15
 2464              		.global	TIM_CCxNCmd
 2465              		.thumb
 2466              		.thumb_func
 2467              		.type	TIM_CCxNCmd, %function
 2468              	TIM_CCxNCmd:
 2469              	.LFB160:
 2470              		.loc 1 1815 0
 2471              		.cfi_startproc
 2472              		@ args = 0, pretend = 0, frame = 0
 2473              		@ frame_needed = 0, uses_anonymous_args = 0
 2474              		@ link register save eliminated.
 2475              	.LVL266:
 2476 0000 10B4     		push	{r4}
 2477              		.cfi_def_cfa_offset 4
 2478              		.cfi_offset 4, -4
 2479              		.loc 1 1826 0
 2480 0002 048C     		ldrh	r4, [r0, #32]
 2481              		.loc 1 1823 0
 2482 0004 0423     		movs	r3, #4
 2483              		.loc 1 1826 0
 2484 0006 A4B2     		uxth	r4, r4
 2485              		.loc 1 1823 0
 2486 0008 8B40     		lsls	r3, r3, r1
 2487              		.loc 1 1826 0
 2488 000a 24EA0303 		bic	r3, r4, r3
 2489 000e 0384     		strh	r3, [r0, #32]	@ movhi
 2490              		.loc 1 1829 0
 2491 0010 038C     		ldrh	r3, [r0, #32]
 2492              		.loc 1 1830 0
 2493 0012 5DF8044B 		ldr	r4, [sp], #4
 2494              		.cfi_restore 4
 2495              		.cfi_def_cfa_offset 0
 2496              		.loc 1 1829 0
 2497 0016 8A40     		lsls	r2, r2, r1
 2498              	.LVL267:
 2499 0018 1343     		orrs	r3, r3, r2
 2500 001a 9BB2     		uxth	r3, r3
 2501 001c 0384     		strh	r3, [r0, #32]	@ movhi
 2502              		.loc 1 1830 0
 2503 001e 7047     		bx	lr
 2504              		.cfi_endproc
 2505              	.LFE160:
 2506              		.size	TIM_CCxNCmd, .-TIM_CCxNCmd
ARM GAS  /var/folders/7z/kps_xzfj7sn5l5gkyq8s9db00000gn/T//ccc38Eju.s 			page 46


 2507              		.section	.text.TIM_ICInit,"ax",%progbits
 2508              		.align	2
 2509              		.p2align 4,,15
 2510              		.global	TIM_ICInit
 2511              		.thumb
 2512              		.thumb_func
 2513              		.type	TIM_ICInit, %function
 2514              	TIM_ICInit:
 2515              	.LFB161:
 2516              		.loc 1 1897 0
 2517              		.cfi_startproc
 2518              		@ args = 0, pretend = 0, frame = 0
 2519              		@ frame_needed = 0, uses_anonymous_args = 0
 2520              	.LVL268:
 2521              		.loc 1 1905 0
 2522 0000 0B88     		ldrh	r3, [r1]
 2523              		.loc 1 1897 0
 2524 0002 F0B5     		push	{r4, r5, r6, r7, lr}
 2525              		.cfi_def_cfa_offset 20
 2526              		.cfi_offset 4, -20
 2527              		.cfi_offset 5, -16
 2528              		.cfi_offset 6, -12
 2529              		.cfi_offset 7, -8
 2530              		.cfi_offset 14, -4
 2531              		.loc 1 1905 0
 2532 0004 002B     		cmp	r3, #0
 2533 0006 32D0     		beq	.L142
 2534              		.loc 1 1914 0
 2535 0008 042B     		cmp	r3, #4
 2536 000a 57D0     		beq	.L143
 2537              		.loc 1 1924 0
 2538 000c 082B     		cmp	r3, #8
 2539 000e 00F08380 		beq	.L144
 2540              	.LBB46:
 2541              	.LBB47:
 2542              		.loc 1 3327 0
 2543 0012 028C     		ldrh	r2, [r0, #32]
 2544              	.LBE47:
 2545              	.LBE46:
 2546              		.loc 1 1938 0
 2547 0014 4F88     		ldrh	r7, [r1, #2]
 2548 0016 B1F804E0 		ldrh	lr, [r1, #4]
 2549 001a 0E89     		ldrh	r6, [r1, #8]
 2550              	.LVL269:
 2551              		.loc 1 1942 0
 2552 001c CD88     		ldrh	r5, [r1, #6]
 2553              	.LBB49:
 2554              	.LBB48:
 2555              		.loc 1 3327 0
 2556 001e 22F48052 		bic	r2, r2, #4096
 2557 0022 1204     		lsls	r2, r2, #16
 2558 0024 120C     		lsrs	r2, r2, #16
 2559 0026 0284     		strh	r2, [r0, #32]	@ movhi
 2560              		.loc 1 3328 0
 2561 0028 848B     		ldrh	r4, [r0, #28]
 2562              	.LVL270:
 2563              		.loc 1 3329 0
ARM GAS  /var/folders/7z/kps_xzfj7sn5l5gkyq8s9db00000gn/T//ccc38Eju.s 			page 47


 2564 002a 028C     		ldrh	r2, [r0, #32]
 2565              	.LVL271:
 2566              		.loc 1 3333 0
 2567 002c 24F44071 		bic	r1, r4, #768
 2568              	.LVL272:
 2569              		.loc 1 3338 0
 2570 0030 22F40053 		bic	r3, r2, #8192
 2571              		.loc 1 3333 0
 2572 0034 0905     		lsls	r1, r1, #20
 2573              		.loc 1 3338 0
 2574 0036 5B04     		lsls	r3, r3, #17
 2575              		.loc 1 3333 0
 2576 0038 090D     		lsrs	r1, r1, #20
 2577              	.LVL273:
 2578              		.loc 1 3338 0
 2579 003a 5B0C     		lsrs	r3, r3, #17
 2580              		.loc 1 3334 0
 2581 003c 41EA0E21 		orr	r1, r1, lr, lsl #8
 2582              	.LVL274:
 2583              		.loc 1 3339 0
 2584 0040 43EA0733 		orr	r3, r3, r7, lsl #12
 2585              		.loc 1 3335 0
 2586 0044 41EA0631 		orr	r1, r1, r6, lsl #12
 2587              	.LVL275:
 2588              		.loc 1 3339 0
 2589 0048 9BB2     		uxth	r3, r3
 2590 004a 43F48053 		orr	r3, r3, #4096
 2591              		.loc 1 3335 0
 2592 004e 89B2     		uxth	r1, r1
 2593              	.LVL276:
 2594              		.loc 1 3342 0
 2595 0050 8183     		strh	r1, [r0, #28]	@ movhi
 2596              		.loc 1 3343 0
 2597 0052 0384     		strh	r3, [r0, #32]	@ movhi
 2598              	.LBE48:
 2599              	.LBE49:
 2600              	.LBB50:
 2601              	.LBB51:
 2602              		.loc 1 2171 0
 2603 0054 828B     		ldrh	r2, [r0, #28]
 2604 0056 22F44062 		bic	r2, r2, #3072
 2605 005a 1204     		lsls	r2, r2, #16
 2606 005c 120C     		lsrs	r2, r2, #16
 2607 005e 8283     		strh	r2, [r0, #28]	@ movhi
 2608              		.loc 1 2174 0
 2609 0060 838B     		ldrh	r3, [r0, #28]
 2610              	.LVL277:
 2611 0062 9BB2     		uxth	r3, r3
 2612 0064 43EA0523 		orr	r3, r3, r5, lsl #8
 2613 0068 9BB2     		uxth	r3, r3
 2614 006a 8383     		strh	r3, [r0, #28]	@ movhi
 2615 006c F0BD     		pop	{r4, r5, r6, r7, pc}
 2616              	.LVL278:
 2617              	.L142:
 2618              	.LBE51:
 2619              	.LBE50:
 2620              	.LBB52:
ARM GAS  /var/folders/7z/kps_xzfj7sn5l5gkyq8s9db00000gn/T//ccc38Eju.s 			page 48


 2621              	.LBB53:
 2622              		.loc 1 3203 0
 2623 006e 028C     		ldrh	r2, [r0, #32]
 2624              	.LBE53:
 2625              	.LBE52:
 2626              		.loc 1 1908 0
 2627 0070 4E88     		ldrh	r6, [r1, #2]
 2628 0072 8D88     		ldrh	r5, [r1, #4]
 2629 0074 0B89     		ldrh	r3, [r1, #8]
 2630              	.LVL279:
 2631              		.loc 1 1912 0
 2632 0076 CC88     		ldrh	r4, [r1, #6]
 2633              	.LBB55:
 2634              	.LBB54:
 2635              		.loc 1 3203 0
 2636 0078 22F00102 		bic	r2, r2, #1
 2637 007c 1204     		lsls	r2, r2, #16
 2638 007e 120C     		lsrs	r2, r2, #16
 2639 0080 0284     		strh	r2, [r0, #32]	@ movhi
 2640              		.loc 1 3204 0
 2641 0082 028B     		ldrh	r2, [r0, #24]
 2642              		.loc 1 3205 0
 2643 0084 018C     		ldrh	r1, [r0, #32]
 2644              	.LVL280:
 2645              		.loc 1 3204 0
 2646 0086 92B2     		uxth	r2, r2
 2647              	.LVL281:
 2648              		.loc 1 3208 0
 2649 0088 22F0F302 		bic	r2, r2, #243
 2650              	.LVL282:
 2651              		.loc 1 3212 0
 2652 008c 21F00A01 		bic	r1, r1, #10
 2653              	.LVL283:
 2654 0090 42EA0313 		orr	r3, r2, r3, lsl #4
 2655              	.LVL284:
 2656 0094 0904     		lsls	r1, r1, #16
 2657 0096 46F00102 		orr	r2, r6, #1
 2658 009a 9BB2     		uxth	r3, r3
 2659 009c 090C     		lsrs	r1, r1, #16
 2660              		.loc 1 3209 0
 2661 009e 2B43     		orrs	r3, r3, r5
 2662              	.LVL285:
 2663              		.loc 1 3213 0
 2664 00a0 1143     		orrs	r1, r1, r2
 2665              	.LVL286:
 2666              		.loc 1 3216 0
 2667 00a2 0383     		strh	r3, [r0, #24]	@ movhi
 2668              		.loc 1 3217 0
 2669 00a4 0184     		strh	r1, [r0, #32]	@ movhi
 2670              	.LBE54:
 2671              	.LBE55:
 2672              	.LBB56:
 2673              	.LBB57:
 2674              		.loc 1 2098 0
 2675 00a6 038B     		ldrh	r3, [r0, #24]
 2676              	.LVL287:
 2677 00a8 23F00C03 		bic	r3, r3, #12
ARM GAS  /var/folders/7z/kps_xzfj7sn5l5gkyq8s9db00000gn/T//ccc38Eju.s 			page 49


 2678 00ac 1B04     		lsls	r3, r3, #16
 2679 00ae 1B0C     		lsrs	r3, r3, #16
 2680 00b0 0383     		strh	r3, [r0, #24]	@ movhi
 2681              		.loc 1 2101 0
 2682 00b2 038B     		ldrh	r3, [r0, #24]
 2683 00b4 9BB2     		uxth	r3, r3
 2684 00b6 1C43     		orrs	r4, r4, r3
 2685              	.LVL288:
 2686 00b8 0483     		strh	r4, [r0, #24]	@ movhi
 2687 00ba F0BD     		pop	{r4, r5, r6, r7, pc}
 2688              	.LVL289:
 2689              	.L143:
 2690              	.LBE57:
 2691              	.LBE56:
 2692              	.LBB58:
 2693              	.LBB59:
 2694              		.loc 1 3244 0
 2695 00bc 058C     		ldrh	r5, [r0, #32]
 2696              	.LBE59:
 2697              	.LBE58:
 2698              		.loc 1 1918 0
 2699 00be 4F88     		ldrh	r7, [r1, #2]
 2700 00c0 8E88     		ldrh	r6, [r1, #4]
 2701 00c2 B1F808E0 		ldrh	lr, [r1, #8]
 2702              	.LVL290:
 2703              		.loc 1 1922 0
 2704 00c6 CC88     		ldrh	r4, [r1, #6]
 2705              	.LBB61:
 2706              	.LBB60:
 2707              		.loc 1 3244 0
 2708 00c8 25F01001 		bic	r1, r5, #16
 2709              	.LVL291:
 2710 00cc 0904     		lsls	r1, r1, #16
 2711 00ce 090C     		lsrs	r1, r1, #16
 2712 00d0 0184     		strh	r1, [r0, #32]	@ movhi
 2713              		.loc 1 3245 0
 2714 00d2 028B     		ldrh	r2, [r0, #24]
 2715              	.LVL292:
 2716              		.loc 1 3246 0
 2717 00d4 018C     		ldrh	r1, [r0, #32]
 2718              		.loc 1 3250 0
 2719 00d6 22F44073 		bic	r3, r2, #768
 2720 00da 1B05     		lsls	r3, r3, #20
 2721 00dc 1B0D     		lsrs	r3, r3, #20
 2722              		.loc 1 3246 0
 2723 00de 8AB2     		uxth	r2, r1
 2724              	.LVL293:
 2725              		.loc 1 3251 0
 2726 00e0 43EA0E33 		orr	r3, r3, lr, lsl #12
 2727              	.LVL294:
 2728              		.loc 1 3255 0
 2729 00e4 22F0A002 		bic	r2, r2, #160
 2730              	.LVL295:
 2731              		.loc 1 3251 0
 2732 00e8 9BB2     		uxth	r3, r3
 2733              	.LVL296:
 2734              		.loc 1 3256 0
ARM GAS  /var/folders/7z/kps_xzfj7sn5l5gkyq8s9db00000gn/T//ccc38Eju.s 			page 50


 2735 00ea 42EA0712 		orr	r2, r2, r7, lsl #4
 2736              		.loc 1 3252 0
 2737 00ee 43EA0623 		orr	r3, r3, r6, lsl #8
 2738              	.LVL297:
 2739              		.loc 1 3256 0
 2740 00f2 92B2     		uxth	r2, r2
 2741              		.loc 1 3252 0
 2742 00f4 9BB2     		uxth	r3, r3
 2743              	.LVL298:
 2744              		.loc 1 3256 0
 2745 00f6 42F01002 		orr	r2, r2, #16
 2746              	.LVL299:
 2747              		.loc 1 3259 0
 2748 00fa 0383     		strh	r3, [r0, #24]	@ movhi
 2749              		.loc 1 3260 0
 2750 00fc 0284     		strh	r2, [r0, #32]	@ movhi
 2751              	.LBE60:
 2752              	.LBE61:
 2753              	.LBB62:
 2754              	.LBB63:
 2755              		.loc 1 2123 0
 2756 00fe 038B     		ldrh	r3, [r0, #24]
 2757              	.LVL300:
 2758 0100 23F44063 		bic	r3, r3, #3072
 2759 0104 1B04     		lsls	r3, r3, #16
 2760 0106 1B0C     		lsrs	r3, r3, #16
 2761 0108 0383     		strh	r3, [r0, #24]	@ movhi
 2762              		.loc 1 2126 0
 2763 010a 038B     		ldrh	r3, [r0, #24]
 2764 010c 9BB2     		uxth	r3, r3
 2765 010e 43EA0423 		orr	r3, r3, r4, lsl #8
 2766 0112 9BB2     		uxth	r3, r3
 2767 0114 0383     		strh	r3, [r0, #24]	@ movhi
 2768 0116 F0BD     		pop	{r4, r5, r6, r7, pc}
 2769              	.LVL301:
 2770              	.L144:
 2771              	.LBE63:
 2772              	.LBE62:
 2773              	.LBB64:
 2774              	.LBB65:
 2775              		.loc 1 3286 0
 2776 0118 068C     		ldrh	r6, [r0, #32]
 2777              	.LBE65:
 2778              	.LBE64:
 2779              		.loc 1 1928 0
 2780 011a 4F88     		ldrh	r7, [r1, #2]
 2781 011c 8D88     		ldrh	r5, [r1, #4]
 2782 011e 0A89     		ldrh	r2, [r1, #8]
 2783              	.LVL302:
 2784              		.loc 1 1932 0
 2785 0120 CC88     		ldrh	r4, [r1, #6]
 2786              	.LBB67:
 2787              	.LBB66:
 2788              		.loc 1 3286 0
 2789 0122 26F48071 		bic	r1, r6, #256
 2790              	.LVL303:
 2791 0126 0904     		lsls	r1, r1, #16
ARM GAS  /var/folders/7z/kps_xzfj7sn5l5gkyq8s9db00000gn/T//ccc38Eju.s 			page 51


 2792 0128 090C     		lsrs	r1, r1, #16
 2793 012a 0184     		strh	r1, [r0, #32]	@ movhi
 2794              		.loc 1 3287 0
 2795 012c 818B     		ldrh	r1, [r0, #28]
 2796              		.loc 1 3288 0
 2797 012e 038C     		ldrh	r3, [r0, #32]
 2798              		.loc 1 3287 0
 2799 0130 89B2     		uxth	r1, r1
 2800              	.LVL304:
 2801              		.loc 1 3288 0
 2802 0132 9BB2     		uxth	r3, r3
 2803              	.LVL305:
 2804              		.loc 1 3292 0
 2805 0134 21F0F301 		bic	r1, r1, #243
 2806              	.LVL306:
 2807              		.loc 1 3296 0
 2808 0138 23F42063 		bic	r3, r3, #2560
 2809              	.LVL307:
 2810 013c 41EA0212 		orr	r2, r1, r2, lsl #4
 2811              	.LVL308:
 2812              		.loc 1 3297 0
 2813 0140 43EA0723 		orr	r3, r3, r7, lsl #8
 2814 0144 92B2     		uxth	r2, r2
 2815 0146 9BB2     		uxth	r3, r3
 2816 0148 43F48073 		orr	r3, r3, #256
 2817              		.loc 1 3293 0
 2818 014c 2A43     		orrs	r2, r2, r5
 2819              	.LVL309:
 2820              		.loc 1 3300 0
 2821 014e 8283     		strh	r2, [r0, #28]	@ movhi
 2822              		.loc 1 3301 0
 2823 0150 0384     		strh	r3, [r0, #32]	@ movhi
 2824              	.LBE66:
 2825              	.LBE67:
 2826              	.LBB68:
 2827              	.LBB69:
 2828              		.loc 1 2147 0
 2829 0152 838B     		ldrh	r3, [r0, #28]
 2830              	.LVL310:
 2831 0154 23F00C03 		bic	r3, r3, #12
 2832 0158 1B04     		lsls	r3, r3, #16
 2833 015a 1B0C     		lsrs	r3, r3, #16
 2834 015c 8383     		strh	r3, [r0, #28]	@ movhi
 2835              	.LVL311:
 2836              		.loc 1 2150 0
 2837 015e 838B     		ldrh	r3, [r0, #28]
 2838 0160 9BB2     		uxth	r3, r3
 2839 0162 1C43     		orrs	r4, r4, r3
 2840              	.LVL312:
 2841 0164 8483     		strh	r4, [r0, #28]	@ movhi
 2842 0166 F0BD     		pop	{r4, r5, r6, r7, pc}
 2843              	.LBE69:
 2844              	.LBE68:
 2845              		.cfi_endproc
 2846              	.LFE161:
 2847              		.size	TIM_ICInit, .-TIM_ICInit
 2848 0168 AFF30080 		.section	.text.TIM_ICStructInit,"ax",%progbits
ARM GAS  /var/folders/7z/kps_xzfj7sn5l5gkyq8s9db00000gn/T//ccc38Eju.s 			page 52


 2848      AFF30080 
 2849              		.align	2
 2850              		.p2align 4,,15
 2851              		.global	TIM_ICStructInit
 2852              		.thumb
 2853              		.thumb_func
 2854              		.type	TIM_ICStructInit, %function
 2855              	TIM_ICStructInit:
 2856              	.LFB162:
 2857              		.loc 1 1953 0
 2858              		.cfi_startproc
 2859              		@ args = 0, pretend = 0, frame = 0
 2860              		@ frame_needed = 0, uses_anonymous_args = 0
 2861              		@ link register save eliminated.
 2862              	.LVL313:
 2863              		.loc 1 1955 0
 2864 0000 0023     		movs	r3, #0
 2865              		.loc 1 1957 0
 2866 0002 0122     		movs	r2, #1
 2867 0004 8280     		strh	r2, [r0, #4]	@ movhi
 2868              		.loc 1 1955 0
 2869 0006 0380     		strh	r3, [r0]	@ movhi
 2870              		.loc 1 1956 0
 2871 0008 4380     		strh	r3, [r0, #2]	@ movhi
 2872              		.loc 1 1958 0
 2873 000a C380     		strh	r3, [r0, #6]	@ movhi
 2874              		.loc 1 1959 0
 2875 000c 0381     		strh	r3, [r0, #8]	@ movhi
 2876 000e 7047     		bx	lr
 2877              		.cfi_endproc
 2878              	.LFE162:
 2879              		.size	TIM_ICStructInit, .-TIM_ICStructInit
 2880              		.section	.text.TIM_PWMIConfig,"ax",%progbits
 2881              		.align	2
 2882              		.p2align 4,,15
 2883              		.global	TIM_PWMIConfig
 2884              		.thumb
 2885              		.thumb_func
 2886              		.type	TIM_PWMIConfig, %function
 2887              	TIM_PWMIConfig:
 2888              	.LFB163:
 2889              		.loc 1 1972 0
 2890              		.cfi_startproc
 2891              		@ args = 0, pretend = 0, frame = 0
 2892              		@ frame_needed = 0, uses_anonymous_args = 0
 2893              	.LVL314:
 2894              		.loc 1 1980 0
 2895 0000 B1F802C0 		ldrh	ip, [r1, #2]
 2896              		.loc 1 1997 0
 2897 0004 0B88     		ldrh	r3, [r1]
 2898              		.loc 1 1972 0
 2899 0006 F0B5     		push	{r4, r5, r6, r7, lr}
 2900              		.cfi_def_cfa_offset 20
 2901              		.cfi_offset 4, -20
 2902              		.cfi_offset 5, -16
 2903              		.cfi_offset 6, -12
 2904              		.cfi_offset 7, -8
ARM GAS  /var/folders/7z/kps_xzfj7sn5l5gkyq8s9db00000gn/T//ccc38Eju.s 			page 53


 2905              		.cfi_offset 14, -4
 2906              		.loc 1 1989 0
 2907 0008 B1F804E0 		ldrh	lr, [r1, #4]
 2908              		.loc 1 1980 0
 2909 000c BCF1000F 		cmp	ip, #0
 2910              		.loc 1 1986 0
 2911 0010 0CBF     		ite	eq
 2912 0012 0224     		moveq	r4, #2
 2913 0014 0024     		movne	r4, #0
 2914              	.LVL315:
 2915              		.loc 1 1989 0
 2916 0016 BEF1010F 		cmp	lr, #1
 2917              		.loc 1 1995 0
 2918 001a 0CBF     		ite	eq
 2919 001c 0225     		moveq	r5, #2
 2920 001e 0125     		movne	r5, #1
 2921              	.LVL316:
 2922              		.loc 1 1997 0
 2923 0020 002B     		cmp	r3, #0
 2924 0022 4BD0     		beq	.L154
 2925              	.LBB70:
 2926              	.LBB71:
 2927              		.loc 1 3244 0
 2928 0024 038C     		ldrh	r3, [r0, #32]
 2929              	.LBE71:
 2930              	.LBE70:
 2931              		.loc 1 2012 0
 2932 0026 0E89     		ldrh	r6, [r1, #8]
 2933              	.LVL317:
 2934              		.loc 1 2015 0
 2935 0028 C988     		ldrh	r1, [r1, #6]
 2936              	.LVL318:
 2937              	.LBB73:
 2938              	.LBB72:
 2939              		.loc 1 3244 0
 2940 002a 23F01003 		bic	r3, r3, #16
 2941 002e 1B04     		lsls	r3, r3, #16
 2942 0030 1B0C     		lsrs	r3, r3, #16
 2943 0032 0384     		strh	r3, [r0, #32]	@ movhi
 2944              		.loc 1 3245 0
 2945 0034 028B     		ldrh	r2, [r0, #24]
 2946              	.LVL319:
 2947              		.loc 1 3246 0
 2948 0036 078C     		ldrh	r7, [r0, #32]
 2949              		.loc 1 3250 0
 2950 0038 22F44073 		bic	r3, r2, #768
 2951 003c 1B05     		lsls	r3, r3, #20
 2952 003e 1B0D     		lsrs	r3, r3, #20
 2953              		.loc 1 3246 0
 2954 0040 BAB2     		uxth	r2, r7
 2955              	.LVL320:
 2956              		.loc 1 3251 0
 2957 0042 43EA0633 		orr	r3, r3, r6, lsl #12
 2958              	.LVL321:
 2959              		.loc 1 3255 0
 2960 0046 22F0A002 		bic	r2, r2, #160
 2961              	.LVL322:
ARM GAS  /var/folders/7z/kps_xzfj7sn5l5gkyq8s9db00000gn/T//ccc38Eju.s 			page 54


 2962              		.loc 1 3251 0
 2963 004a 9BB2     		uxth	r3, r3
 2964              	.LVL323:
 2965              		.loc 1 3256 0
 2966 004c 42EA0C12 		orr	r2, r2, ip, lsl #4
 2967              		.loc 1 3252 0
 2968 0050 43EA0E23 		orr	r3, r3, lr, lsl #8
 2969              	.LVL324:
 2970              		.loc 1 3256 0
 2971 0054 92B2     		uxth	r2, r2
 2972              		.loc 1 3252 0
 2973 0056 9BB2     		uxth	r3, r3
 2974              	.LVL325:
 2975              		.loc 1 3256 0
 2976 0058 42F01002 		orr	r2, r2, #16
 2977              	.LVL326:
 2978              		.loc 1 3259 0
 2979 005c 0383     		strh	r3, [r0, #24]	@ movhi
 2980              		.loc 1 3260 0
 2981 005e 0284     		strh	r2, [r0, #32]	@ movhi
 2982              	.LBE72:
 2983              	.LBE73:
 2984              	.LBB74:
 2985              	.LBB75:
 2986              		.loc 1 2123 0
 2987 0060 038B     		ldrh	r3, [r0, #24]
 2988              	.LVL327:
 2989 0062 23F44063 		bic	r3, r3, #3072
 2990 0066 1B04     		lsls	r3, r3, #16
 2991 0068 1B0C     		lsrs	r3, r3, #16
 2992 006a 0383     		strh	r3, [r0, #24]	@ movhi
 2993              		.loc 1 2126 0
 2994 006c 038B     		ldrh	r3, [r0, #24]
 2995 006e 9BB2     		uxth	r3, r3
 2996 0070 43EA0123 		orr	r3, r3, r1, lsl #8
 2997 0074 9BB2     		uxth	r3, r3
 2998 0076 0383     		strh	r3, [r0, #24]	@ movhi
 2999              	.LVL328:
 3000              	.LBE75:
 3001              	.LBE74:
 3002              	.LBB76:
 3003              	.LBB77:
 3004              		.loc 1 3203 0
 3005 0078 038C     		ldrh	r3, [r0, #32]
 3006 007a 23F00103 		bic	r3, r3, #1
 3007 007e 1B04     		lsls	r3, r3, #16
 3008 0080 1B0C     		lsrs	r3, r3, #16
 3009 0082 0384     		strh	r3, [r0, #32]	@ movhi
 3010              		.loc 1 3204 0
 3011 0084 038B     		ldrh	r3, [r0, #24]
 3012              		.loc 1 3205 0
 3013 0086 028C     		ldrh	r2, [r0, #32]
 3014              	.LVL329:
 3015              		.loc 1 3204 0
 3016 0088 9BB2     		uxth	r3, r3
 3017              	.LVL330:
 3018              		.loc 1 3208 0
ARM GAS  /var/folders/7z/kps_xzfj7sn5l5gkyq8s9db00000gn/T//ccc38Eju.s 			page 55


 3019 008a 23F0F303 		bic	r3, r3, #243
 3020              	.LVL331:
 3021              		.loc 1 3205 0
 3022 008e 92B2     		uxth	r2, r2
 3023              	.LVL332:
 3024 0090 43EA0616 		orr	r6, r3, r6, lsl #4
 3025              	.LVL333:
 3026              		.loc 1 3212 0
 3027 0094 22F00A03 		bic	r3, r2, #10
 3028 0098 43F00103 		orr	r3, r3, #1
 3029 009c B6B2     		uxth	r6, r6
 3030              		.loc 1 3213 0
 3031 009e 1C43     		orrs	r4, r4, r3
 3032              	.LVL334:
 3033              		.loc 1 3209 0
 3034 00a0 2E43     		orrs	r6, r6, r5
 3035              	.LVL335:
 3036              		.loc 1 3216 0
 3037 00a2 0683     		strh	r6, [r0, #24]	@ movhi
 3038              		.loc 1 3217 0
 3039 00a4 0484     		strh	r4, [r0, #32]	@ movhi
 3040              	.LVL336:
 3041              	.LBE77:
 3042              	.LBE76:
 3043              	.LBB78:
 3044              	.LBB79:
 3045              		.loc 1 2098 0
 3046 00a6 038B     		ldrh	r3, [r0, #24]
 3047 00a8 23F00C03 		bic	r3, r3, #12
 3048 00ac 1B04     		lsls	r3, r3, #16
 3049 00ae 1B0C     		lsrs	r3, r3, #16
 3050 00b0 0383     		strh	r3, [r0, #24]	@ movhi
 3051              		.loc 1 2101 0
 3052 00b2 038B     		ldrh	r3, [r0, #24]
 3053 00b4 9BB2     		uxth	r3, r3
 3054 00b6 1943     		orrs	r1, r1, r3
 3055              	.LVL337:
 3056 00b8 0183     		strh	r1, [r0, #24]	@ movhi
 3057 00ba F0BD     		pop	{r4, r5, r6, r7, pc}
 3058              	.LVL338:
 3059              	.L154:
 3060              	.LBE79:
 3061              	.LBE78:
 3062              	.LBB80:
 3063              	.LBB81:
 3064              		.loc 1 3203 0
 3065 00bc 038C     		ldrh	r3, [r0, #32]
 3066              	.LBE81:
 3067              	.LBE80:
 3068              		.loc 1 2000 0
 3069 00be 0F89     		ldrh	r7, [r1, #8]
 3070              	.LVL339:
 3071              		.loc 1 2003 0
 3072 00c0 CE88     		ldrh	r6, [r1, #6]
 3073              	.LBB83:
 3074              	.LBB82:
 3075              		.loc 1 3203 0
ARM GAS  /var/folders/7z/kps_xzfj7sn5l5gkyq8s9db00000gn/T//ccc38Eju.s 			page 56


 3076 00c2 23F00103 		bic	r3, r3, #1
 3077 00c6 1B04     		lsls	r3, r3, #16
 3078 00c8 1B0C     		lsrs	r3, r3, #16
 3079 00ca 0384     		strh	r3, [r0, #32]	@ movhi
 3080              		.loc 1 3204 0
 3081 00cc 018B     		ldrh	r1, [r0, #24]
 3082              	.LVL340:
 3083              		.loc 1 3205 0
 3084 00ce 038C     		ldrh	r3, [r0, #32]
 3085              		.loc 1 3204 0
 3086 00d0 89B2     		uxth	r1, r1
 3087              	.LVL341:
 3088              		.loc 1 3208 0
 3089 00d2 21F0F301 		bic	r1, r1, #243
 3090              	.LVL342:
 3091              		.loc 1 3212 0
 3092 00d6 23F00A03 		bic	r3, r3, #10
 3093              	.LVL343:
 3094 00da 41EA0711 		orr	r1, r1, r7, lsl #4
 3095 00de 1B04     		lsls	r3, r3, #16
 3096 00e0 4CF00102 		orr	r2, ip, #1
 3097 00e4 89B2     		uxth	r1, r1
 3098 00e6 1B0C     		lsrs	r3, r3, #16
 3099              		.loc 1 3213 0
 3100 00e8 1343     		orrs	r3, r3, r2
 3101              		.loc 1 3209 0
 3102 00ea 41EA0E0E 		orr	lr, r1, lr
 3103              	.LVL344:
 3104              		.loc 1 3216 0
 3105 00ee A0F818E0 		strh	lr, [r0, #24]	@ movhi
 3106              		.loc 1 3217 0
 3107 00f2 0384     		strh	r3, [r0, #32]	@ movhi
 3108              	.LBE82:
 3109              	.LBE83:
 3110              	.LBB84:
 3111              	.LBB85:
 3112              		.loc 1 2098 0
 3113 00f4 038B     		ldrh	r3, [r0, #24]
 3114              	.LVL345:
 3115 00f6 23F00C03 		bic	r3, r3, #12
 3116 00fa 1B04     		lsls	r3, r3, #16
 3117 00fc 1B0C     		lsrs	r3, r3, #16
 3118 00fe 0383     		strh	r3, [r0, #24]	@ movhi
 3119              	.LVL346:
 3120              		.loc 1 2101 0
 3121 0100 038B     		ldrh	r3, [r0, #24]
 3122 0102 9BB2     		uxth	r3, r3
 3123 0104 3343     		orrs	r3, r3, r6
 3124 0106 0383     		strh	r3, [r0, #24]	@ movhi
 3125              	.LVL347:
 3126              	.LBE85:
 3127              	.LBE84:
 3128              	.LBB86:
 3129              	.LBB87:
 3130              		.loc 1 3244 0
 3131 0108 038C     		ldrh	r3, [r0, #32]
 3132 010a 23F01003 		bic	r3, r3, #16
ARM GAS  /var/folders/7z/kps_xzfj7sn5l5gkyq8s9db00000gn/T//ccc38Eju.s 			page 57


 3133 010e 1B04     		lsls	r3, r3, #16
 3134 0110 1B0C     		lsrs	r3, r3, #16
 3135 0112 0384     		strh	r3, [r0, #32]	@ movhi
 3136              		.loc 1 3245 0
 3137 0114 028B     		ldrh	r2, [r0, #24]
 3138              	.LVL348:
 3139              		.loc 1 3246 0
 3140 0116 018C     		ldrh	r1, [r0, #32]
 3141              		.loc 1 3250 0
 3142 0118 22F44073 		bic	r3, r2, #768
 3143 011c 1B05     		lsls	r3, r3, #20
 3144 011e 1B0D     		lsrs	r3, r3, #20
 3145              		.loc 1 3246 0
 3146 0120 8AB2     		uxth	r2, r1
 3147              	.LVL349:
 3148              		.loc 1 3251 0
 3149 0122 43EA0733 		orr	r3, r3, r7, lsl #12
 3150              	.LVL350:
 3151              		.loc 1 3255 0
 3152 0126 22F0A002 		bic	r2, r2, #160
 3153              	.LVL351:
 3154              		.loc 1 3251 0
 3155 012a 9BB2     		uxth	r3, r3
 3156              	.LVL352:
 3157 012c 42F01002 		orr	r2, r2, #16
 3158              		.loc 1 3252 0
 3159 0130 43EA0525 		orr	r5, r3, r5, lsl #8
 3160              	.LVL353:
 3161              		.loc 1 3256 0
 3162 0134 42EA0414 		orr	r4, r2, r4, lsl #4
 3163              	.LVL354:
 3164              		.loc 1 3259 0
 3165 0138 0583     		strh	r5, [r0, #24]	@ movhi
 3166              		.loc 1 3260 0
 3167 013a 0484     		strh	r4, [r0, #32]	@ movhi
 3168              	.LVL355:
 3169              	.LBE87:
 3170              	.LBE86:
 3171              	.LBB88:
 3172              	.LBB89:
 3173              		.loc 1 2123 0
 3174 013c 038B     		ldrh	r3, [r0, #24]
 3175 013e 23F44063 		bic	r3, r3, #3072
 3176 0142 1B04     		lsls	r3, r3, #16
 3177 0144 1B0C     		lsrs	r3, r3, #16
 3178 0146 0383     		strh	r3, [r0, #24]	@ movhi
 3179              		.loc 1 2126 0
 3180 0148 038B     		ldrh	r3, [r0, #24]
 3181 014a 9BB2     		uxth	r3, r3
 3182 014c 43EA0626 		orr	r6, r3, r6, lsl #8
 3183              	.LVL356:
 3184 0150 B6B2     		uxth	r6, r6
 3185 0152 0683     		strh	r6, [r0, #24]	@ movhi
 3186 0154 F0BD     		pop	{r4, r5, r6, r7, pc}
 3187              	.LBE89:
 3188              	.LBE88:
 3189              		.cfi_endproc
ARM GAS  /var/folders/7z/kps_xzfj7sn5l5gkyq8s9db00000gn/T//ccc38Eju.s 			page 58


 3190              	.LFE163:
 3191              		.size	TIM_PWMIConfig, .-TIM_PWMIConfig
 3192 0156 00BFAFF3 		.section	.text.TIM_GetCapture1,"ax",%progbits
 3192      0080AFF3 
 3192      0080
 3193              		.align	2
 3194              		.p2align 4,,15
 3195              		.global	TIM_GetCapture1
 3196              		.thumb
 3197              		.thumb_func
 3198              		.type	TIM_GetCapture1, %function
 3199              	TIM_GetCapture1:
 3200              	.LFB164:
 3201              		.loc 1 2029 0
 3202              		.cfi_startproc
 3203              		@ args = 0, pretend = 0, frame = 0
 3204              		@ frame_needed = 0, uses_anonymous_args = 0
 3205              		@ link register save eliminated.
 3206              	.LVL357:
 3207              		.loc 1 2034 0
 3208 0000 406B     		ldr	r0, [r0, #52]
 3209              	.LVL358:
 3210              		.loc 1 2035 0
 3211 0002 7047     		bx	lr
 3212              		.cfi_endproc
 3213              	.LFE164:
 3214              		.size	TIM_GetCapture1, .-TIM_GetCapture1
 3215 0004 AFF30080 		.section	.text.TIM_GetCapture2,"ax",%progbits
 3215      AFF30080 
 3215      AFF30080 
 3216              		.align	2
 3217              		.p2align 4,,15
 3218              		.global	TIM_GetCapture2
 3219              		.thumb
 3220              		.thumb_func
 3221              		.type	TIM_GetCapture2, %function
 3222              	TIM_GetCapture2:
 3223              	.LFB165:
 3224              		.loc 1 2044 0
 3225              		.cfi_startproc
 3226              		@ args = 0, pretend = 0, frame = 0
 3227              		@ frame_needed = 0, uses_anonymous_args = 0
 3228              		@ link register save eliminated.
 3229              	.LVL359:
 3230              		.loc 1 2049 0
 3231 0000 806B     		ldr	r0, [r0, #56]
 3232              	.LVL360:
 3233              		.loc 1 2050 0
 3234 0002 7047     		bx	lr
 3235              		.cfi_endproc
 3236              	.LFE165:
 3237              		.size	TIM_GetCapture2, .-TIM_GetCapture2
 3238 0004 AFF30080 		.section	.text.TIM_GetCapture3,"ax",%progbits
 3238      AFF30080 
 3238      AFF30080 
 3239              		.align	2
 3240              		.p2align 4,,15
ARM GAS  /var/folders/7z/kps_xzfj7sn5l5gkyq8s9db00000gn/T//ccc38Eju.s 			page 59


 3241              		.global	TIM_GetCapture3
 3242              		.thumb
 3243              		.thumb_func
 3244              		.type	TIM_GetCapture3, %function
 3245              	TIM_GetCapture3:
 3246              	.LFB166:
 3247              		.loc 1 2058 0
 3248              		.cfi_startproc
 3249              		@ args = 0, pretend = 0, frame = 0
 3250              		@ frame_needed = 0, uses_anonymous_args = 0
 3251              		@ link register save eliminated.
 3252              	.LVL361:
 3253              		.loc 1 2063 0
 3254 0000 C06B     		ldr	r0, [r0, #60]
 3255              	.LVL362:
 3256              		.loc 1 2064 0
 3257 0002 7047     		bx	lr
 3258              		.cfi_endproc
 3259              	.LFE166:
 3260              		.size	TIM_GetCapture3, .-TIM_GetCapture3
 3261 0004 AFF30080 		.section	.text.TIM_GetCapture4,"ax",%progbits
 3261      AFF30080 
 3261      AFF30080 
 3262              		.align	2
 3263              		.p2align 4,,15
 3264              		.global	TIM_GetCapture4
 3265              		.thumb
 3266              		.thumb_func
 3267              		.type	TIM_GetCapture4, %function
 3268              	TIM_GetCapture4:
 3269              	.LFB167:
 3270              		.loc 1 2072 0
 3271              		.cfi_startproc
 3272              		@ args = 0, pretend = 0, frame = 0
 3273              		@ frame_needed = 0, uses_anonymous_args = 0
 3274              		@ link register save eliminated.
 3275              	.LVL363:
 3276              		.loc 1 2077 0
 3277 0000 006C     		ldr	r0, [r0, #64]
 3278              	.LVL364:
 3279              		.loc 1 2078 0
 3280 0002 7047     		bx	lr
 3281              		.cfi_endproc
 3282              	.LFE167:
 3283              		.size	TIM_GetCapture4, .-TIM_GetCapture4
 3284 0004 AFF30080 		.section	.text.TIM_SetIC1Prescaler,"ax",%progbits
 3284      AFF30080 
 3284      AFF30080 
 3285              		.align	2
 3286              		.p2align 4,,15
 3287              		.global	TIM_SetIC1Prescaler
 3288              		.thumb
 3289              		.thumb_func
 3290              		.type	TIM_SetIC1Prescaler, %function
 3291              	TIM_SetIC1Prescaler:
 3292              	.LFB168:
 3293              		.loc 1 2092 0
ARM GAS  /var/folders/7z/kps_xzfj7sn5l5gkyq8s9db00000gn/T//ccc38Eju.s 			page 60


 3294              		.cfi_startproc
 3295              		@ args = 0, pretend = 0, frame = 0
 3296              		@ frame_needed = 0, uses_anonymous_args = 0
 3297              		@ link register save eliminated.
 3298              	.LVL365:
 3299              		.loc 1 2098 0
 3300 0000 038B     		ldrh	r3, [r0, #24]
 3301 0002 23F00C03 		bic	r3, r3, #12
 3302 0006 1B04     		lsls	r3, r3, #16
 3303 0008 1B0C     		lsrs	r3, r3, #16
 3304 000a 0383     		strh	r3, [r0, #24]	@ movhi
 3305              		.loc 1 2101 0
 3306 000c 038B     		ldrh	r3, [r0, #24]
 3307 000e 9BB2     		uxth	r3, r3
 3308 0010 1943     		orrs	r1, r1, r3
 3309              	.LVL366:
 3310 0012 0183     		strh	r1, [r0, #24]	@ movhi
 3311 0014 7047     		bx	lr
 3312              		.cfi_endproc
 3313              	.LFE168:
 3314              		.size	TIM_SetIC1Prescaler, .-TIM_SetIC1Prescaler
 3315 0016 00BFAFF3 		.section	.text.TIM_SetIC2Prescaler,"ax",%progbits
 3315      0080AFF3 
 3315      0080
 3316              		.align	2
 3317              		.p2align 4,,15
 3318              		.global	TIM_SetIC2Prescaler
 3319              		.thumb
 3320              		.thumb_func
 3321              		.type	TIM_SetIC2Prescaler, %function
 3322              	TIM_SetIC2Prescaler:
 3323              	.LFB169:
 3324              		.loc 1 2117 0
 3325              		.cfi_startproc
 3326              		@ args = 0, pretend = 0, frame = 0
 3327              		@ frame_needed = 0, uses_anonymous_args = 0
 3328              		@ link register save eliminated.
 3329              	.LVL367:
 3330              		.loc 1 2123 0
 3331 0000 038B     		ldrh	r3, [r0, #24]
 3332 0002 23F44063 		bic	r3, r3, #3072
 3333 0006 1B04     		lsls	r3, r3, #16
 3334 0008 1B0C     		lsrs	r3, r3, #16
 3335 000a 0383     		strh	r3, [r0, #24]	@ movhi
 3336              		.loc 1 2126 0
 3337 000c 038B     		ldrh	r3, [r0, #24]
 3338 000e 9BB2     		uxth	r3, r3
 3339 0010 43EA0121 		orr	r1, r3, r1, lsl #8
 3340              	.LVL368:
 3341 0014 89B2     		uxth	r1, r1
 3342 0016 0183     		strh	r1, [r0, #24]	@ movhi
 3343 0018 7047     		bx	lr
 3344              		.cfi_endproc
 3345              	.LFE169:
 3346              		.size	TIM_SetIC2Prescaler, .-TIM_SetIC2Prescaler
 3347 001a 00BFAFF3 		.section	.text.TIM_SetIC3Prescaler,"ax",%progbits
 3347      0080
ARM GAS  /var/folders/7z/kps_xzfj7sn5l5gkyq8s9db00000gn/T//ccc38Eju.s 			page 61


 3348              		.align	2
 3349              		.p2align 4,,15
 3350              		.global	TIM_SetIC3Prescaler
 3351              		.thumb
 3352              		.thumb_func
 3353              		.type	TIM_SetIC3Prescaler, %function
 3354              	TIM_SetIC3Prescaler:
 3355              	.LFB170:
 3356              		.loc 1 2141 0
 3357              		.cfi_startproc
 3358              		@ args = 0, pretend = 0, frame = 0
 3359              		@ frame_needed = 0, uses_anonymous_args = 0
 3360              		@ link register save eliminated.
 3361              	.LVL369:
 3362              		.loc 1 2147 0
 3363 0000 838B     		ldrh	r3, [r0, #28]
 3364 0002 23F00C03 		bic	r3, r3, #12
 3365 0006 1B04     		lsls	r3, r3, #16
 3366 0008 1B0C     		lsrs	r3, r3, #16
 3367 000a 8383     		strh	r3, [r0, #28]	@ movhi
 3368              		.loc 1 2150 0
 3369 000c 838B     		ldrh	r3, [r0, #28]
 3370 000e 9BB2     		uxth	r3, r3
 3371 0010 1943     		orrs	r1, r1, r3
 3372              	.LVL370:
 3373 0012 8183     		strh	r1, [r0, #28]	@ movhi
 3374 0014 7047     		bx	lr
 3375              		.cfi_endproc
 3376              	.LFE170:
 3377              		.size	TIM_SetIC3Prescaler, .-TIM_SetIC3Prescaler
 3378 0016 00BFAFF3 		.section	.text.TIM_SetIC4Prescaler,"ax",%progbits
 3378      0080AFF3 
 3378      0080
 3379              		.align	2
 3380              		.p2align 4,,15
 3381              		.global	TIM_SetIC4Prescaler
 3382              		.thumb
 3383              		.thumb_func
 3384              		.type	TIM_SetIC4Prescaler, %function
 3385              	TIM_SetIC4Prescaler:
 3386              	.LFB171:
 3387              		.loc 1 2165 0
 3388              		.cfi_startproc
 3389              		@ args = 0, pretend = 0, frame = 0
 3390              		@ frame_needed = 0, uses_anonymous_args = 0
 3391              		@ link register save eliminated.
 3392              	.LVL371:
 3393              		.loc 1 2171 0
 3394 0000 838B     		ldrh	r3, [r0, #28]
 3395 0002 23F44063 		bic	r3, r3, #3072
 3396 0006 1B04     		lsls	r3, r3, #16
 3397 0008 1B0C     		lsrs	r3, r3, #16
 3398 000a 8383     		strh	r3, [r0, #28]	@ movhi
 3399              		.loc 1 2174 0
 3400 000c 838B     		ldrh	r3, [r0, #28]
 3401 000e 9BB2     		uxth	r3, r3
 3402 0010 43EA0121 		orr	r1, r3, r1, lsl #8
ARM GAS  /var/folders/7z/kps_xzfj7sn5l5gkyq8s9db00000gn/T//ccc38Eju.s 			page 62


 3403              	.LVL372:
 3404 0014 89B2     		uxth	r1, r1
 3405 0016 8183     		strh	r1, [r0, #28]	@ movhi
 3406 0018 7047     		bx	lr
 3407              		.cfi_endproc
 3408              	.LFE171:
 3409              		.size	TIM_SetIC4Prescaler, .-TIM_SetIC4Prescaler
 3410 001a 00BFAFF3 		.section	.text.TIM_BDTRConfig,"ax",%progbits
 3410      0080
 3411              		.align	2
 3412              		.p2align 4,,15
 3413              		.global	TIM_BDTRConfig
 3414              		.thumb
 3415              		.thumb_func
 3416              		.type	TIM_BDTRConfig, %function
 3417              	TIM_BDTRConfig:
 3418              	.LFB172:
 3419              		.loc 1 2218 0
 3420              		.cfi_startproc
 3421              		@ args = 0, pretend = 0, frame = 0
 3422              		@ frame_needed = 0, uses_anonymous_args = 0
 3423              	.LVL373:
 3424 0000 F0B5     		push	{r4, r5, r6, r7, lr}
 3425              		.cfi_def_cfa_offset 20
 3426              		.cfi_offset 4, -20
 3427              		.cfi_offset 5, -16
 3428              		.cfi_offset 6, -12
 3429              		.cfi_offset 7, -8
 3430              		.cfi_offset 14, -4
 3431              		.loc 1 2230 0
 3432 0002 0B88     		ldrh	r3, [r1]
 3433 0004 B1F802E0 		ldrh	lr, [r1, #2]
 3434 0008 8F88     		ldrh	r7, [r1, #4]
 3435 000a CE88     		ldrh	r6, [r1, #6]
 3436 000c 0D89     		ldrh	r5, [r1, #8]
 3437 000e 4C89     		ldrh	r4, [r1, #10]
 3438 0010 8A89     		ldrh	r2, [r1, #12]
 3439 0012 4EEA0303 		orr	r3, lr, r3
 3440 0016 3B43     		orrs	r3, r3, r7
 3441 0018 3343     		orrs	r3, r3, r6
 3442 001a 2B43     		orrs	r3, r3, r5
 3443 001c 2343     		orrs	r3, r3, r4
 3444 001e 1343     		orrs	r3, r3, r2
 3445 0020 9BB2     		uxth	r3, r3
 3446 0022 A0F84430 		strh	r3, [r0, #68]	@ movhi
 3447 0026 F0BD     		pop	{r4, r5, r6, r7, pc}
 3448              		.cfi_endproc
 3449              	.LFE172:
 3450              		.size	TIM_BDTRConfig, .-TIM_BDTRConfig
 3451 0028 AFF30080 		.section	.text.TIM_BDTRStructInit,"ax",%progbits
 3451      AFF30080 
 3452              		.align	2
 3453              		.p2align 4,,15
 3454              		.global	TIM_BDTRStructInit
 3455              		.thumb
 3456              		.thumb_func
 3457              		.type	TIM_BDTRStructInit, %function
ARM GAS  /var/folders/7z/kps_xzfj7sn5l5gkyq8s9db00000gn/T//ccc38Eju.s 			page 63


 3458              	TIM_BDTRStructInit:
 3459              	.LFB173:
 3460              		.loc 1 2243 0
 3461              		.cfi_startproc
 3462              		@ args = 0, pretend = 0, frame = 0
 3463              		@ frame_needed = 0, uses_anonymous_args = 0
 3464              		@ link register save eliminated.
 3465              	.LVL374:
 3466              		.loc 1 2245 0
 3467 0000 0023     		movs	r3, #0
 3468 0002 0380     		strh	r3, [r0]	@ movhi
 3469              		.loc 1 2246 0
 3470 0004 4380     		strh	r3, [r0, #2]	@ movhi
 3471              		.loc 1 2247 0
 3472 0006 8380     		strh	r3, [r0, #4]	@ movhi
 3473              		.loc 1 2248 0
 3474 0008 C380     		strh	r3, [r0, #6]	@ movhi
 3475              		.loc 1 2249 0
 3476 000a 0381     		strh	r3, [r0, #8]	@ movhi
 3477              		.loc 1 2250 0
 3478 000c 4381     		strh	r3, [r0, #10]	@ movhi
 3479              		.loc 1 2251 0
 3480 000e 8381     		strh	r3, [r0, #12]	@ movhi
 3481 0010 7047     		bx	lr
 3482              		.cfi_endproc
 3483              	.LFE173:
 3484              		.size	TIM_BDTRStructInit, .-TIM_BDTRStructInit
 3485 0012 00BFAFF3 		.section	.text.TIM_CtrlPWMOutputs,"ax",%progbits
 3485      0080AFF3 
 3485      0080AFF3 
 3485      0080
 3486              		.align	2
 3487              		.p2align 4,,15
 3488              		.global	TIM_CtrlPWMOutputs
 3489              		.thumb
 3490              		.thumb_func
 3491              		.type	TIM_CtrlPWMOutputs, %function
 3492              	TIM_CtrlPWMOutputs:
 3493              	.LFB174:
 3494              		.loc 1 2262 0
 3495              		.cfi_startproc
 3496              		@ args = 0, pretend = 0, frame = 0
 3497              		@ frame_needed = 0, uses_anonymous_args = 0
 3498              		@ link register save eliminated.
 3499              	.LVL375:
 3500              		.loc 1 2270 0
 3501 0000 B0F84430 		ldrh	r3, [r0, #68]
 3502              		.loc 1 2267 0
 3503 0004 21B9     		cbnz	r1, .L169
 3504              		.loc 1 2275 0
 3505 0006 C3F30E03 		ubfx	r3, r3, #0, #15
 3506 000a A0F84430 		strh	r3, [r0, #68]	@ movhi
 3507 000e 7047     		bx	lr
 3508              	.L169:
 3509              		.loc 1 2270 0
 3510 0010 6FEA4343 		mvn	r3, r3, lsl #17
 3511 0014 6FEA5343 		mvn	r3, r3, lsr #17
ARM GAS  /var/folders/7z/kps_xzfj7sn5l5gkyq8s9db00000gn/T//ccc38Eju.s 			page 64


 3512 0018 9BB2     		uxth	r3, r3
 3513 001a A0F84430 		strh	r3, [r0, #68]	@ movhi
 3514 001e 7047     		bx	lr
 3515              		.cfi_endproc
 3516              	.LFE174:
 3517              		.size	TIM_CtrlPWMOutputs, .-TIM_CtrlPWMOutputs
 3518              		.section	.text.TIM_SelectCOM,"ax",%progbits
 3519              		.align	2
 3520              		.p2align 4,,15
 3521              		.global	TIM_SelectCOM
 3522              		.thumb
 3523              		.thumb_func
 3524              		.type	TIM_SelectCOM, %function
 3525              	TIM_SelectCOM:
 3526              	.LFB175:
 3527              		.loc 1 2287 0
 3528              		.cfi_startproc
 3529              		@ args = 0, pretend = 0, frame = 0
 3530              		@ frame_needed = 0, uses_anonymous_args = 0
 3531              		@ link register save eliminated.
 3532              	.LVL376:
 3533              		.loc 1 2295 0
 3534 0000 8388     		ldrh	r3, [r0, #4]
 3535              		.loc 1 2292 0
 3536 0002 29B9     		cbnz	r1, .L173
 3537              		.loc 1 2300 0
 3538 0004 23F00403 		bic	r3, r3, #4
 3539 0008 1B04     		lsls	r3, r3, #16
 3540 000a 1B0C     		lsrs	r3, r3, #16
 3541 000c 8380     		strh	r3, [r0, #4]	@ movhi
 3542 000e 7047     		bx	lr
 3543              	.L173:
 3544              		.loc 1 2295 0
 3545 0010 9BB2     		uxth	r3, r3
 3546 0012 43F00403 		orr	r3, r3, #4
 3547 0016 8380     		strh	r3, [r0, #4]	@ movhi
 3548 0018 7047     		bx	lr
 3549              		.cfi_endproc
 3550              	.LFE175:
 3551              		.size	TIM_SelectCOM, .-TIM_SelectCOM
 3552 001a 00BFAFF3 		.section	.text.TIM_CCPreloadControl,"ax",%progbits
 3552      0080
 3553              		.align	2
 3554              		.p2align 4,,15
 3555              		.global	TIM_CCPreloadControl
 3556              		.thumb
 3557              		.thumb_func
 3558              		.type	TIM_CCPreloadControl, %function
 3559              	TIM_CCPreloadControl:
 3560              	.LFB176:
 3561              		.loc 1 2312 0
 3562              		.cfi_startproc
 3563              		@ args = 0, pretend = 0, frame = 0
 3564              		@ frame_needed = 0, uses_anonymous_args = 0
 3565              		@ link register save eliminated.
 3566              	.LVL377:
 3567              		.loc 1 2319 0
ARM GAS  /var/folders/7z/kps_xzfj7sn5l5gkyq8s9db00000gn/T//ccc38Eju.s 			page 65


 3568 0000 8388     		ldrh	r3, [r0, #4]
 3569              		.loc 1 2316 0
 3570 0002 29B9     		cbnz	r1, .L177
 3571              		.loc 1 2324 0
 3572 0004 23F00103 		bic	r3, r3, #1
 3573 0008 1B04     		lsls	r3, r3, #16
 3574 000a 1B0C     		lsrs	r3, r3, #16
 3575 000c 8380     		strh	r3, [r0, #4]	@ movhi
 3576 000e 7047     		bx	lr
 3577              	.L177:
 3578              		.loc 1 2319 0
 3579 0010 9BB2     		uxth	r3, r3
 3580 0012 43F00103 		orr	r3, r3, #1
 3581 0016 8380     		strh	r3, [r0, #4]	@ movhi
 3582 0018 7047     		bx	lr
 3583              		.cfi_endproc
 3584              	.LFE176:
 3585              		.size	TIM_CCPreloadControl, .-TIM_CCPreloadControl
 3586 001a 00BFAFF3 		.section	.text.TIM_ITConfig,"ax",%progbits
 3586      0080
 3587              		.align	2
 3588              		.p2align 4,,15
 3589              		.global	TIM_ITConfig
 3590              		.thumb
 3591              		.thumb_func
 3592              		.type	TIM_ITConfig, %function
 3593              	TIM_ITConfig:
 3594              	.LFB177:
 3595              		.loc 1 2369 0
 3596              		.cfi_startproc
 3597              		@ args = 0, pretend = 0, frame = 0
 3598              		@ frame_needed = 0, uses_anonymous_args = 0
 3599              		@ link register save eliminated.
 3600              	.LVL378:
 3601              		.loc 1 2378 0
 3602 0000 8389     		ldrh	r3, [r0, #12]
 3603 0002 9BB2     		uxth	r3, r3
 3604              		.loc 1 2375 0
 3605 0004 1AB9     		cbnz	r2, .L181
 3606              		.loc 1 2383 0
 3607 0006 23EA0101 		bic	r1, r3, r1
 3608              	.LVL379:
 3609 000a 8181     		strh	r1, [r0, #12]	@ movhi
 3610 000c 7047     		bx	lr
 3611              	.LVL380:
 3612              	.L181:
 3613              		.loc 1 2378 0
 3614 000e 1943     		orrs	r1, r1, r3
 3615              	.LVL381:
 3616 0010 8181     		strh	r1, [r0, #12]	@ movhi
 3617 0012 7047     		bx	lr
 3618              		.cfi_endproc
 3619              	.LFE177:
 3620              		.size	TIM_ITConfig, .-TIM_ITConfig
 3621 0014 AFF30080 		.section	.text.TIM_GenerateEvent,"ax",%progbits
 3621      AFF30080 
 3621      AFF30080 
ARM GAS  /var/folders/7z/kps_xzfj7sn5l5gkyq8s9db00000gn/T//ccc38Eju.s 			page 66


 3622              		.align	2
 3623              		.p2align 4,,15
 3624              		.global	TIM_GenerateEvent
 3625              		.thumb
 3626              		.thumb_func
 3627              		.type	TIM_GenerateEvent, %function
 3628              	TIM_GenerateEvent:
 3629              	.LFB178:
 3630              		.loc 1 2407 0
 3631              		.cfi_startproc
 3632              		@ args = 0, pretend = 0, frame = 0
 3633              		@ frame_needed = 0, uses_anonymous_args = 0
 3634              		@ link register save eliminated.
 3635              	.LVL382:
 3636              		.loc 1 2413 0
 3637 0000 8182     		strh	r1, [r0, #20]	@ movhi
 3638 0002 7047     		bx	lr
 3639              		.cfi_endproc
 3640              	.LFE178:
 3641              		.size	TIM_GenerateEvent, .-TIM_GenerateEvent
 3642 0004 AFF30080 		.section	.text.TIM_GetFlagStatus,"ax",%progbits
 3642      AFF30080 
 3642      AFF30080 
 3643              		.align	2
 3644              		.p2align 4,,15
 3645              		.global	TIM_GetFlagStatus
 3646              		.thumb
 3647              		.thumb_func
 3648              		.type	TIM_GetFlagStatus, %function
 3649              	TIM_GetFlagStatus:
 3650              	.LFB179:
 3651              		.loc 1 2440 0
 3652              		.cfi_startproc
 3653              		@ args = 0, pretend = 0, frame = 0
 3654              		@ frame_needed = 0, uses_anonymous_args = 0
 3655              		@ link register save eliminated.
 3656              	.LVL383:
 3657              		.loc 1 2447 0
 3658 0000 038A     		ldrh	r3, [r0, #16]
 3659              	.LVL384:
 3660 0002 1942     		tst	r1, r3
 3661              		.loc 1 2456 0
 3662 0004 14BF     		ite	ne
 3663 0006 0120     		movne	r0, #1
 3664              	.LVL385:
 3665 0008 0020     		moveq	r0, #0
 3666 000a 7047     		bx	lr
 3667              		.cfi_endproc
 3668              	.LFE179:
 3669              		.size	TIM_GetFlagStatus, .-TIM_GetFlagStatus
 3670 000c AFF30080 		.section	.text.TIM_ClearFlag,"ax",%progbits
 3671              		.align	2
 3672              		.p2align 4,,15
 3673              		.global	TIM_ClearFlag
 3674              		.thumb
 3675              		.thumb_func
 3676              		.type	TIM_ClearFlag, %function
ARM GAS  /var/folders/7z/kps_xzfj7sn5l5gkyq8s9db00000gn/T//ccc38Eju.s 			page 67


 3677              	TIM_ClearFlag:
 3678              	.LFB180:
 3679              		.loc 1 2482 0
 3680              		.cfi_startproc
 3681              		@ args = 0, pretend = 0, frame = 0
 3682              		@ frame_needed = 0, uses_anonymous_args = 0
 3683              		@ link register save eliminated.
 3684              	.LVL386:
 3685              		.loc 1 2487 0
 3686 0000 C943     		mvns	r1, r1
 3687              	.LVL387:
 3688 0002 89B2     		uxth	r1, r1
 3689 0004 0182     		strh	r1, [r0, #16]	@ movhi
 3690 0006 7047     		bx	lr
 3691              		.cfi_endproc
 3692              	.LFE180:
 3693              		.size	TIM_ClearFlag, .-TIM_ClearFlag
 3694 0008 AFF30080 		.section	.text.TIM_GetITStatus,"ax",%progbits
 3694      AFF30080 
 3695              		.align	2
 3696              		.p2align 4,,15
 3697              		.global	TIM_GetITStatus
 3698              		.thumb
 3699              		.thumb_func
 3700              		.type	TIM_GetITStatus, %function
 3701              	TIM_GetITStatus:
 3702              	.LFB181:
 3703              		.loc 1 2510 0
 3704              		.cfi_startproc
 3705              		@ args = 0, pretend = 0, frame = 0
 3706              		@ frame_needed = 0, uses_anonymous_args = 0
 3707              		@ link register save eliminated.
 3708              	.LVL388:
 3709              		.loc 1 2517 0
 3710 0000 038A     		ldrh	r3, [r0, #16]
 3711              	.LVL389:
 3712              		.loc 1 2519 0
 3713 0002 8289     		ldrh	r2, [r0, #12]
 3714              		.loc 1 2520 0
 3715 0004 11EA0300 		ands	r0, r1, r3
 3716              	.LVL390:
 3717              		.loc 1 2519 0
 3718 0008 92B2     		uxth	r2, r2
 3719              	.LVL391:
 3720              		.loc 1 2520 0
 3721 000a 03D0     		beq	.L186
 3722              		.loc 1 2520 0 is_stmt 0 discriminator 1
 3723 000c 1142     		tst	r1, r2
 3724              		.loc 1 2522 0 is_stmt 1 discriminator 1
 3725 000e 14BF     		ite	ne
 3726 0010 0120     		movne	r0, #1
 3727 0012 0020     		moveq	r0, #0
 3728              	.L186:
 3729              	.LVL392:
 3730              		.loc 1 2529 0
 3731 0014 7047     		bx	lr
 3732              		.cfi_endproc
ARM GAS  /var/folders/7z/kps_xzfj7sn5l5gkyq8s9db00000gn/T//ccc38Eju.s 			page 68


 3733              	.LFE181:
 3734              		.size	TIM_GetITStatus, .-TIM_GetITStatus
 3735 0016 00BFAFF3 		.section	.text.TIM_ClearITPendingBit,"ax",%progbits
 3735      0080AFF3 
 3735      0080
 3736              		.align	2
 3737              		.p2align 4,,15
 3738              		.global	TIM_ClearITPendingBit
 3739              		.thumb
 3740              		.thumb_func
 3741              		.type	TIM_ClearITPendingBit, %function
 3742              	TIM_ClearITPendingBit:
 3743              	.LFB182:
 3744              		.loc 1 2551 0
 3745              		.cfi_startproc
 3746              		@ args = 0, pretend = 0, frame = 0
 3747              		@ frame_needed = 0, uses_anonymous_args = 0
 3748              		@ link register save eliminated.
 3749              	.LVL393:
 3750              		.loc 1 2556 0
 3751 0000 C943     		mvns	r1, r1
 3752              	.LVL394:
 3753 0002 89B2     		uxth	r1, r1
 3754 0004 0182     		strh	r1, [r0, #16]	@ movhi
 3755 0006 7047     		bx	lr
 3756              		.cfi_endproc
 3757              	.LFE182:
 3758              		.size	TIM_ClearITPendingBit, .-TIM_ClearITPendingBit
 3759 0008 AFF30080 		.section	.text.TIM_DMAConfig,"ax",%progbits
 3759      AFF30080 
 3760              		.align	2
 3761              		.p2align 4,,15
 3762              		.global	TIM_DMAConfig
 3763              		.thumb
 3764              		.thumb_func
 3765              		.type	TIM_DMAConfig, %function
 3766              	TIM_DMAConfig:
 3767              	.LFB183:
 3768              		.loc 1 2588 0
 3769              		.cfi_startproc
 3770              		@ args = 0, pretend = 0, frame = 0
 3771              		@ frame_needed = 0, uses_anonymous_args = 0
 3772              		@ link register save eliminated.
 3773              	.LVL395:
 3774              		.loc 1 2595 0
 3775 0000 0A43     		orrs	r2, r2, r1
 3776              	.LVL396:
 3777 0002 A0F84820 		strh	r2, [r0, #72]	@ movhi
 3778 0006 7047     		bx	lr
 3779              		.cfi_endproc
 3780              	.LFE183:
 3781              		.size	TIM_DMAConfig, .-TIM_DMAConfig
 3782 0008 AFF30080 		.section	.text.TIM_DMACmd,"ax",%progbits
 3782      AFF30080 
 3783              		.align	2
 3784              		.p2align 4,,15
 3785              		.global	TIM_DMACmd
ARM GAS  /var/folders/7z/kps_xzfj7sn5l5gkyq8s9db00000gn/T//ccc38Eju.s 			page 69


 3786              		.thumb
 3787              		.thumb_func
 3788              		.type	TIM_DMACmd, %function
 3789              	TIM_DMACmd:
 3790              	.LFB184:
 3791              		.loc 1 2615 0
 3792              		.cfi_startproc
 3793              		@ args = 0, pretend = 0, frame = 0
 3794              		@ frame_needed = 0, uses_anonymous_args = 0
 3795              		@ link register save eliminated.
 3796              	.LVL397:
 3797              		.loc 1 2624 0
 3798 0000 8389     		ldrh	r3, [r0, #12]
 3799 0002 9BB2     		uxth	r3, r3
 3800              		.loc 1 2621 0
 3801 0004 1AB9     		cbnz	r2, .L193
 3802              		.loc 1 2629 0
 3803 0006 23EA0101 		bic	r1, r3, r1
 3804              	.LVL398:
 3805 000a 8181     		strh	r1, [r0, #12]	@ movhi
 3806 000c 7047     		bx	lr
 3807              	.LVL399:
 3808              	.L193:
 3809              		.loc 1 2624 0
 3810 000e 1943     		orrs	r1, r1, r3
 3811              	.LVL400:
 3812 0010 8181     		strh	r1, [r0, #12]	@ movhi
 3813 0012 7047     		bx	lr
 3814              		.cfi_endproc
 3815              	.LFE184:
 3816              		.size	TIM_DMACmd, .-TIM_DMACmd
 3817 0014 AFF30080 		.section	.text.TIM_SelectCCDMA,"ax",%progbits
 3817      AFF30080 
 3817      AFF30080 
 3818              		.align	2
 3819              		.p2align 4,,15
 3820              		.global	TIM_SelectCCDMA
 3821              		.thumb
 3822              		.thumb_func
 3823              		.type	TIM_SelectCCDMA, %function
 3824              	TIM_SelectCCDMA:
 3825              	.LFB185:
 3826              		.loc 1 2641 0
 3827              		.cfi_startproc
 3828              		@ args = 0, pretend = 0, frame = 0
 3829              		@ frame_needed = 0, uses_anonymous_args = 0
 3830              		@ link register save eliminated.
 3831              	.LVL401:
 3832              		.loc 1 2649 0
 3833 0000 8388     		ldrh	r3, [r0, #4]
 3834              		.loc 1 2646 0
 3835 0002 29B9     		cbnz	r1, .L197
 3836              		.loc 1 2654 0
 3837 0004 23F00803 		bic	r3, r3, #8
 3838 0008 1B04     		lsls	r3, r3, #16
 3839 000a 1B0C     		lsrs	r3, r3, #16
 3840 000c 8380     		strh	r3, [r0, #4]	@ movhi
ARM GAS  /var/folders/7z/kps_xzfj7sn5l5gkyq8s9db00000gn/T//ccc38Eju.s 			page 70


 3841 000e 7047     		bx	lr
 3842              	.L197:
 3843              		.loc 1 2649 0
 3844 0010 9BB2     		uxth	r3, r3
 3845 0012 43F00803 		orr	r3, r3, #8
 3846 0016 8380     		strh	r3, [r0, #4]	@ movhi
 3847 0018 7047     		bx	lr
 3848              		.cfi_endproc
 3849              	.LFE185:
 3850              		.size	TIM_SelectCCDMA, .-TIM_SelectCCDMA
 3851 001a 00BFAFF3 		.section	.text.TIM_InternalClockConfig,"ax",%progbits
 3851      0080
 3852              		.align	2
 3853              		.p2align 4,,15
 3854              		.global	TIM_InternalClockConfig
 3855              		.thumb
 3856              		.thumb_func
 3857              		.type	TIM_InternalClockConfig, %function
 3858              	TIM_InternalClockConfig:
 3859              	.LFB186:
 3860              		.loc 1 2680 0
 3861              		.cfi_startproc
 3862              		@ args = 0, pretend = 0, frame = 0
 3863              		@ frame_needed = 0, uses_anonymous_args = 0
 3864              		@ link register save eliminated.
 3865              	.LVL402:
 3866              		.loc 1 2685 0
 3867 0000 0389     		ldrh	r3, [r0, #8]
 3868 0002 23F00703 		bic	r3, r3, #7
 3869 0006 1B04     		lsls	r3, r3, #16
 3870 0008 1B0C     		lsrs	r3, r3, #16
 3871 000a 0381     		strh	r3, [r0, #8]	@ movhi
 3872 000c 7047     		bx	lr
 3873              		.cfi_endproc
 3874              	.LFE186:
 3875              		.size	TIM_InternalClockConfig, .-TIM_InternalClockConfig
 3876 000e 00BF     		.section	.text.TIM_ITRxExternalClockConfig,"ax",%progbits
 3877              		.align	2
 3878              		.p2align 4,,15
 3879              		.global	TIM_ITRxExternalClockConfig
 3880              		.thumb
 3881              		.thumb_func
 3882              		.type	TIM_ITRxExternalClockConfig, %function
 3883              	TIM_ITRxExternalClockConfig:
 3884              	.LFB187:
 3885              		.loc 1 2701 0
 3886              		.cfi_startproc
 3887              		@ args = 0, pretend = 0, frame = 0
 3888              		@ frame_needed = 0, uses_anonymous_args = 0
 3889              		@ link register save eliminated.
 3890              	.LVL403:
 3891              	.LBB90:
 3892              	.LBB91:
 3893              		.loc 1 2894 0
 3894 0000 0389     		ldrh	r3, [r0, #8]
 3895              	.LVL404:
 3896              		.loc 1 2897 0
ARM GAS  /var/folders/7z/kps_xzfj7sn5l5gkyq8s9db00000gn/T//ccc38Eju.s 			page 71


 3897 0002 23F07003 		bic	r3, r3, #112
 3898              	.LVL405:
 3899 0006 1B04     		lsls	r3, r3, #16
 3900 0008 1B0C     		lsrs	r3, r3, #16
 3901              	.LVL406:
 3902              		.loc 1 2900 0
 3903 000a 1943     		orrs	r1, r1, r3
 3904              	.LVL407:
 3905              		.loc 1 2903 0
 3906 000c 0181     		strh	r1, [r0, #8]	@ movhi
 3907              	.LBE91:
 3908              	.LBE90:
 3909              		.loc 1 2710 0
 3910 000e 0389     		ldrh	r3, [r0, #8]
 3911 0010 9BB2     		uxth	r3, r3
 3912 0012 43F00703 		orr	r3, r3, #7
 3913 0016 0381     		strh	r3, [r0, #8]	@ movhi
 3914 0018 7047     		bx	lr
 3915              		.cfi_endproc
 3916              	.LFE187:
 3917              		.size	TIM_ITRxExternalClockConfig, .-TIM_ITRxExternalClockConfig
 3918 001a 00BFAFF3 		.section	.text.TIM_TIxExternalClockConfig,"ax",%progbits
 3918      0080
 3919              		.align	2
 3920              		.p2align 4,,15
 3921              		.global	TIM_TIxExternalClockConfig
 3922              		.thumb
 3923              		.thumb_func
 3924              		.type	TIM_TIxExternalClockConfig, %function
 3925              	TIM_TIxExternalClockConfig:
 3926              	.LFB188:
 3927              		.loc 1 2732 0
 3928              		.cfi_startproc
 3929              		@ args = 0, pretend = 0, frame = 0
 3930              		@ frame_needed = 0, uses_anonymous_args = 0
 3931              		@ link register save eliminated.
 3932              	.LVL408:
 3933              		.loc 1 2739 0
 3934 0000 6029     		cmp	r1, #96
 3935              		.loc 1 2732 0
 3936 0002 30B4     		push	{r4, r5}
 3937              		.cfi_def_cfa_offset 8
 3938              		.cfi_offset 4, -8
 3939              		.cfi_offset 5, -4
 3940              	.LBB92:
 3941              	.LBB93:
 3942              		.loc 1 3244 0
 3943 0004 048C     		ldrh	r4, [r0, #32]
 3944              	.LBE93:
 3945              	.LBE92:
 3946              		.loc 1 2739 0
 3947 0006 24D0     		beq	.L204
 3948              	.LVL409:
 3949              	.LBB95:
 3950              	.LBB96:
 3951              		.loc 1 3203 0
 3952 0008 24F00104 		bic	r4, r4, #1
ARM GAS  /var/folders/7z/kps_xzfj7sn5l5gkyq8s9db00000gn/T//ccc38Eju.s 			page 72


 3953 000c 2404     		lsls	r4, r4, #16
 3954 000e 240C     		lsrs	r4, r4, #16
 3955 0010 0484     		strh	r4, [r0, #32]	@ movhi
 3956              		.loc 1 3204 0
 3957 0012 048B     		ldrh	r4, [r0, #24]
 3958              		.loc 1 3205 0
 3959 0014 058C     		ldrh	r5, [r0, #32]
 3960              		.loc 1 3204 0
 3961 0016 A4B2     		uxth	r4, r4
 3962              	.LVL410:
 3963              		.loc 1 3208 0
 3964 0018 24F0F304 		bic	r4, r4, #243
 3965              	.LVL411:
 3966              		.loc 1 3205 0
 3967 001c ADB2     		uxth	r5, r5
 3968              	.LVL412:
 3969 001e 44F00104 		orr	r4, r4, #1
 3970              		.loc 1 3212 0
 3971 0022 25F00A05 		bic	r5, r5, #10
 3972              	.LVL413:
 3973              		.loc 1 3209 0
 3974 0026 44EA0313 		orr	r3, r4, r3, lsl #4
 3975              	.LVL414:
 3976 002a 45F00104 		orr	r4, r5, #1
 3977 002e 9BB2     		uxth	r3, r3
 3978              	.LVL415:
 3979              		.loc 1 3213 0
 3980 0030 2243     		orrs	r2, r2, r4
 3981              	.LVL416:
 3982              		.loc 1 3216 0
 3983 0032 0383     		strh	r3, [r0, #24]	@ movhi
 3984              		.loc 1 3217 0
 3985 0034 0284     		strh	r2, [r0, #32]	@ movhi
 3986              	.LVL417:
 3987              	.L202:
 3988              	.LBE96:
 3989              	.LBE95:
 3990              	.LBB97:
 3991              	.LBB98:
 3992              		.loc 1 2894 0
 3993 0036 0389     		ldrh	r3, [r0, #8]
 3994              	.LVL418:
 3995              		.loc 1 2897 0
 3996 0038 23F07003 		bic	r3, r3, #112
 3997              	.LVL419:
 3998 003c 1B04     		lsls	r3, r3, #16
 3999 003e 1B0C     		lsrs	r3, r3, #16
 4000              	.LVL420:
 4001              		.loc 1 2900 0
 4002 0040 0B43     		orrs	r3, r3, r1
 4003              	.LVL421:
 4004              		.loc 1 2903 0
 4005 0042 0381     		strh	r3, [r0, #8]	@ movhi
 4006              	.LBE98:
 4007              	.LBE97:
 4008              		.loc 1 2750 0
 4009 0044 0389     		ldrh	r3, [r0, #8]
ARM GAS  /var/folders/7z/kps_xzfj7sn5l5gkyq8s9db00000gn/T//ccc38Eju.s 			page 73


 4010              	.LVL422:
 4011 0046 9BB2     		uxth	r3, r3
 4012 0048 43F00703 		orr	r3, r3, #7
 4013 004c 0381     		strh	r3, [r0, #8]	@ movhi
 4014              	.LVL423:
 4015              		.loc 1 2751 0
 4016 004e 30BC     		pop	{r4, r5}
 4017              		.cfi_remember_state
 4018              		.cfi_restore 5
 4019              		.cfi_restore 4
 4020              		.cfi_def_cfa_offset 0
 4021 0050 7047     		bx	lr
 4022              	.LVL424:
 4023              	.L204:
 4024              		.cfi_restore_state
 4025              	.LBB99:
 4026              	.LBB94:
 4027              		.loc 1 3244 0
 4028 0052 24F01004 		bic	r4, r4, #16
 4029 0056 2404     		lsls	r4, r4, #16
 4030 0058 240C     		lsrs	r4, r4, #16
 4031 005a 0484     		strh	r4, [r0, #32]	@ movhi
 4032              		.loc 1 3245 0
 4033 005c 048B     		ldrh	r4, [r0, #24]
 4034              	.LVL425:
 4035              		.loc 1 3246 0
 4036 005e 058C     		ldrh	r5, [r0, #32]
 4037              		.loc 1 3250 0
 4038 0060 24F44074 		bic	r4, r4, #768
 4039              	.LVL426:
 4040 0064 2405     		lsls	r4, r4, #20
 4041              		.loc 1 3246 0
 4042 0066 ADB2     		uxth	r5, r5
 4043              	.LVL427:
 4044              		.loc 1 3250 0
 4045 0068 240D     		lsrs	r4, r4, #20
 4046              		.loc 1 3255 0
 4047 006a 25F0A005 		bic	r5, r5, #160
 4048              	.LVL428:
 4049 006e 44F48074 		orr	r4, r4, #256
 4050 0072 45F01005 		orr	r5, r5, #16
 4051              		.loc 1 3252 0
 4052 0076 44EA0333 		orr	r3, r4, r3, lsl #12
 4053              	.LVL429:
 4054              		.loc 1 3256 0
 4055 007a 45EA0212 		orr	r2, r5, r2, lsl #4
 4056              	.LVL430:
 4057              		.loc 1 3252 0
 4058 007e 9BB2     		uxth	r3, r3
 4059              	.LVL431:
 4060              		.loc 1 3256 0
 4061 0080 92B2     		uxth	r2, r2
 4062              	.LVL432:
 4063              		.loc 1 3259 0
 4064 0082 0383     		strh	r3, [r0, #24]	@ movhi
 4065              		.loc 1 3260 0
 4066 0084 0284     		strh	r2, [r0, #32]	@ movhi
ARM GAS  /var/folders/7z/kps_xzfj7sn5l5gkyq8s9db00000gn/T//ccc38Eju.s 			page 74


 4067 0086 D6E7     		b	.L202
 4068              	.LBE94:
 4069              	.LBE99:
 4070              		.cfi_endproc
 4071              	.LFE188:
 4072              		.size	TIM_TIxExternalClockConfig, .-TIM_TIxExternalClockConfig
 4073 0088 AFF30080 		.section	.text.TIM_ETRClockMode1Config,"ax",%progbits
 4073      AFF30080 
 4074              		.align	2
 4075              		.p2align 4,,15
 4076              		.global	TIM_ETRClockMode1Config
 4077              		.thumb
 4078              		.thumb_func
 4079              		.type	TIM_ETRClockMode1Config, %function
 4080              	TIM_ETRClockMode1Config:
 4081              	.LFB189:
 4082              		.loc 1 2772 0
 4083              		.cfi_startproc
 4084              		@ args = 0, pretend = 0, frame = 0
 4085              		@ frame_needed = 0, uses_anonymous_args = 0
 4086              		@ link register save eliminated.
 4087              	.LVL433:
 4088 0000 10B4     		push	{r4}
 4089              		.cfi_def_cfa_offset 4
 4090              		.cfi_offset 4, -4
 4091              	.LBB100:
 4092              	.LBB101:
 4093              		.loc 1 3016 0
 4094 0002 0489     		ldrh	r4, [r0, #8]
 4095              	.LVL434:
 4096              		.loc 1 3022 0
 4097 0004 42EA0323 		orr	r3, r2, r3, lsl #8
 4098              	.LVL435:
 4099              		.loc 1 3019 0
 4100 0008 E4B2     		uxtb	r4, r4
 4101              	.LVL436:
 4102 000a 2343     		orrs	r3, r3, r4
 4103 000c 9BB2     		uxth	r3, r3
 4104              		.loc 1 3022 0
 4105 000e 1943     		orrs	r1, r1, r3
 4106              	.LVL437:
 4107              		.loc 1 3025 0
 4108 0010 0181     		strh	r1, [r0, #8]	@ movhi
 4109              	.LBE101:
 4110              	.LBE100:
 4111              		.loc 1 2784 0
 4112 0012 0389     		ldrh	r3, [r0, #8]
 4113              	.LVL438:
 4114              		.loc 1 2798 0
 4115 0014 5DF8044B 		ldr	r4, [sp], #4
 4116              		.cfi_restore 4
 4117              		.cfi_def_cfa_offset 0
 4118              		.loc 1 2793 0
 4119 0018 23F07703 		bic	r3, r3, #119
 4120              	.LVL439:
 4121 001c 1B04     		lsls	r3, r3, #16
 4122 001e 1B0C     		lsrs	r3, r3, #16
ARM GAS  /var/folders/7z/kps_xzfj7sn5l5gkyq8s9db00000gn/T//ccc38Eju.s 			page 75


 4123              	.LVL440:
 4124              		.loc 1 2794 0
 4125 0020 43F07703 		orr	r3, r3, #119
 4126              	.LVL441:
 4127              		.loc 1 2797 0
 4128 0024 0381     		strh	r3, [r0, #8]	@ movhi
 4129              		.loc 1 2798 0
 4130 0026 7047     		bx	lr
 4131              		.cfi_endproc
 4132              	.LFE189:
 4133              		.size	TIM_ETRClockMode1Config, .-TIM_ETRClockMode1Config
 4134 0028 AFF30080 		.section	.text.TIM_ETRClockMode2Config,"ax",%progbits
 4134      AFF30080 
 4135              		.align	2
 4136              		.p2align 4,,15
 4137              		.global	TIM_ETRClockMode2Config
 4138              		.thumb
 4139              		.thumb_func
 4140              		.type	TIM_ETRClockMode2Config, %function
 4141              	TIM_ETRClockMode2Config:
 4142              	.LFB190:
 4143              		.loc 1 2819 0
 4144              		.cfi_startproc
 4145              		@ args = 0, pretend = 0, frame = 0
 4146              		@ frame_needed = 0, uses_anonymous_args = 0
 4147              		@ link register save eliminated.
 4148              	.LVL442:
 4149 0000 10B4     		push	{r4}
 4150              		.cfi_def_cfa_offset 4
 4151              		.cfi_offset 4, -4
 4152              	.LBB102:
 4153              	.LBB103:
 4154              		.loc 1 3016 0
 4155 0002 0489     		ldrh	r4, [r0, #8]
 4156              	.LVL443:
 4157              		.loc 1 3022 0
 4158 0004 42EA0323 		orr	r3, r2, r3, lsl #8
 4159              	.LVL444:
 4160              		.loc 1 3019 0
 4161 0008 E4B2     		uxtb	r4, r4
 4162              	.LVL445:
 4163 000a 2343     		orrs	r3, r3, r4
 4164 000c 9BB2     		uxth	r3, r3
 4165              		.loc 1 3022 0
 4166 000e 1943     		orrs	r1, r1, r3
 4167              	.LVL446:
 4168              		.loc 1 3025 0
 4169 0010 0181     		strh	r1, [r0, #8]	@ movhi
 4170              	.LBE103:
 4171              	.LBE102:
 4172              		.loc 1 2830 0
 4173 0012 0389     		ldrh	r3, [r0, #8]
 4174              		.loc 1 2831 0
 4175 0014 5DF8044B 		ldr	r4, [sp], #4
 4176              		.cfi_restore 4
 4177              		.cfi_def_cfa_offset 0
 4178              		.loc 1 2830 0
ARM GAS  /var/folders/7z/kps_xzfj7sn5l5gkyq8s9db00000gn/T//ccc38Eju.s 			page 76


 4179 0018 9BB2     		uxth	r3, r3
 4180 001a 43F48043 		orr	r3, r3, #16384
 4181 001e 0381     		strh	r3, [r0, #8]	@ movhi
 4182              		.loc 1 2831 0
 4183 0020 7047     		bx	lr
 4184              		.cfi_endproc
 4185              	.LFE190:
 4186              		.size	TIM_ETRClockMode2Config, .-TIM_ETRClockMode2Config
 4187 0022 00BFAFF3 		.section	.text.TIM_SelectInputTrigger,"ax",%progbits
 4187      0080AFF3 
 4187      0080AFF3 
 4187      0080
 4188              		.align	2
 4189              		.p2align 4,,15
 4190              		.global	TIM_SelectInputTrigger
 4191              		.thumb
 4192              		.thumb_func
 4193              		.type	TIM_SelectInputTrigger, %function
 4194              	TIM_SelectInputTrigger:
 4195              	.LFB191:
 4196              		.loc 1 2886 0
 4197              		.cfi_startproc
 4198              		@ args = 0, pretend = 0, frame = 0
 4199              		@ frame_needed = 0, uses_anonymous_args = 0
 4200              		@ link register save eliminated.
 4201              	.LVL447:
 4202              		.loc 1 2894 0
 4203 0000 0389     		ldrh	r3, [r0, #8]
 4204              	.LVL448:
 4205              		.loc 1 2897 0
 4206 0002 23F07003 		bic	r3, r3, #112
 4207              	.LVL449:
 4208 0006 1B04     		lsls	r3, r3, #16
 4209 0008 1B0C     		lsrs	r3, r3, #16
 4210              	.LVL450:
 4211              		.loc 1 2900 0
 4212 000a 1943     		orrs	r1, r1, r3
 4213              	.LVL451:
 4214              		.loc 1 2903 0
 4215 000c 0181     		strh	r1, [r0, #8]	@ movhi
 4216 000e 7047     		bx	lr
 4217              		.cfi_endproc
 4218              	.LFE191:
 4219              		.size	TIM_SelectInputTrigger, .-TIM_SelectInputTrigger
 4220              		.section	.text.TIM_SelectOutputTrigger,"ax",%progbits
 4221              		.align	2
 4222              		.p2align 4,,15
 4223              		.global	TIM_SelectOutputTrigger
 4224              		.thumb
 4225              		.thumb_func
 4226              		.type	TIM_SelectOutputTrigger, %function
 4227              	TIM_SelectOutputTrigger:
 4228              	.LFB192:
 4229              		.loc 1 2929 0
 4230              		.cfi_startproc
 4231              		@ args = 0, pretend = 0, frame = 0
 4232              		@ frame_needed = 0, uses_anonymous_args = 0
ARM GAS  /var/folders/7z/kps_xzfj7sn5l5gkyq8s9db00000gn/T//ccc38Eju.s 			page 77


 4233              		@ link register save eliminated.
 4234              	.LVL452:
 4235              		.loc 1 2935 0
 4236 0000 8388     		ldrh	r3, [r0, #4]
 4237 0002 23F07003 		bic	r3, r3, #112
 4238 0006 1B04     		lsls	r3, r3, #16
 4239 0008 1B0C     		lsrs	r3, r3, #16
 4240 000a 8380     		strh	r3, [r0, #4]	@ movhi
 4241              		.loc 1 2937 0
 4242 000c 8388     		ldrh	r3, [r0, #4]
 4243 000e 9BB2     		uxth	r3, r3
 4244 0010 1943     		orrs	r1, r1, r3
 4245              	.LVL453:
 4246 0012 8180     		strh	r1, [r0, #4]	@ movhi
 4247 0014 7047     		bx	lr
 4248              		.cfi_endproc
 4249              	.LFE192:
 4250              		.size	TIM_SelectOutputTrigger, .-TIM_SelectOutputTrigger
 4251 0016 00BFAFF3 		.section	.text.TIM_SelectSlaveMode,"ax",%progbits
 4251      0080AFF3 
 4251      0080
 4252              		.align	2
 4253              		.p2align 4,,15
 4254              		.global	TIM_SelectSlaveMode
 4255              		.thumb
 4256              		.thumb_func
 4257              		.type	TIM_SelectSlaveMode, %function
 4258              	TIM_SelectSlaveMode:
 4259              	.LFB193:
 4260              		.loc 1 2953 0
 4261              		.cfi_startproc
 4262              		@ args = 0, pretend = 0, frame = 0
 4263              		@ frame_needed = 0, uses_anonymous_args = 0
 4264              		@ link register save eliminated.
 4265              	.LVL454:
 4266              		.loc 1 2959 0
 4267 0000 0389     		ldrh	r3, [r0, #8]
 4268 0002 23F00703 		bic	r3, r3, #7
 4269 0006 1B04     		lsls	r3, r3, #16
 4270 0008 1B0C     		lsrs	r3, r3, #16
 4271 000a 0381     		strh	r3, [r0, #8]	@ movhi
 4272              		.loc 1 2962 0
 4273 000c 0389     		ldrh	r3, [r0, #8]
 4274 000e 9BB2     		uxth	r3, r3
 4275 0010 1943     		orrs	r1, r1, r3
 4276              	.LVL455:
 4277 0012 0181     		strh	r1, [r0, #8]	@ movhi
 4278 0014 7047     		bx	lr
 4279              		.cfi_endproc
 4280              	.LFE193:
 4281              		.size	TIM_SelectSlaveMode, .-TIM_SelectSlaveMode
 4282 0016 00BFAFF3 		.section	.text.TIM_SelectMasterSlaveMode,"ax",%progbits
 4282      0080AFF3 
 4282      0080
 4283              		.align	2
 4284              		.p2align 4,,15
 4285              		.global	TIM_SelectMasterSlaveMode
ARM GAS  /var/folders/7z/kps_xzfj7sn5l5gkyq8s9db00000gn/T//ccc38Eju.s 			page 78


 4286              		.thumb
 4287              		.thumb_func
 4288              		.type	TIM_SelectMasterSlaveMode, %function
 4289              	TIM_SelectMasterSlaveMode:
 4290              	.LFB194:
 4291              		.loc 1 2976 0
 4292              		.cfi_startproc
 4293              		@ args = 0, pretend = 0, frame = 0
 4294              		@ frame_needed = 0, uses_anonymous_args = 0
 4295              		@ link register save eliminated.
 4296              	.LVL456:
 4297              		.loc 1 2982 0
 4298 0000 0389     		ldrh	r3, [r0, #8]
 4299 0002 23F08003 		bic	r3, r3, #128
 4300 0006 1B04     		lsls	r3, r3, #16
 4301 0008 1B0C     		lsrs	r3, r3, #16
 4302 000a 0381     		strh	r3, [r0, #8]	@ movhi
 4303              		.loc 1 2985 0
 4304 000c 0389     		ldrh	r3, [r0, #8]
 4305 000e 9BB2     		uxth	r3, r3
 4306 0010 1943     		orrs	r1, r1, r3
 4307              	.LVL457:
 4308 0012 0181     		strh	r1, [r0, #8]	@ movhi
 4309 0014 7047     		bx	lr
 4310              		.cfi_endproc
 4311              	.LFE194:
 4312              		.size	TIM_SelectMasterSlaveMode, .-TIM_SelectMasterSlaveMode
 4313 0016 00BFAFF3 		.section	.text.TIM_ETRConfig,"ax",%progbits
 4313      0080AFF3 
 4313      0080
 4314              		.align	2
 4315              		.p2align 4,,15
 4316              		.global	TIM_ETRConfig
 4317              		.thumb
 4318              		.thumb_func
 4319              		.type	TIM_ETRConfig, %function
 4320              	TIM_ETRConfig:
 4321              	.LFB195:
 4322              		.loc 1 3007 0
 4323              		.cfi_startproc
 4324              		@ args = 0, pretend = 0, frame = 0
 4325              		@ frame_needed = 0, uses_anonymous_args = 0
 4326              		@ link register save eliminated.
 4327              	.LVL458:
 4328 0000 10B4     		push	{r4}
 4329              		.cfi_def_cfa_offset 4
 4330              		.cfi_offset 4, -4
 4331              		.loc 1 3016 0
 4332 0002 0489     		ldrh	r4, [r0, #8]
 4333              	.LVL459:
 4334              		.loc 1 3019 0
 4335 0004 E4B2     		uxtb	r4, r4
 4336              	.LVL460:
 4337 0006 2143     		orrs	r1, r1, r4
 4338              	.LVL461:
 4339 0008 0A43     		orrs	r2, r2, r1
 4340              	.LVL462:
ARM GAS  /var/folders/7z/kps_xzfj7sn5l5gkyq8s9db00000gn/T//ccc38Eju.s 			page 79


 4341              		.loc 1 3022 0
 4342 000a 42EA0323 		orr	r3, r2, r3, lsl #8
 4343              	.LVL463:
 4344 000e 99B2     		uxth	r1, r3
 4345              	.LVL464:
 4346              		.loc 1 3025 0
 4347 0010 0181     		strh	r1, [r0, #8]	@ movhi
 4348              		.loc 1 3026 0
 4349 0012 5DF8044B 		ldr	r4, [sp], #4
 4350              		.cfi_restore 4
 4351              		.cfi_def_cfa_offset 0
 4352 0016 7047     		bx	lr
 4353              		.cfi_endproc
 4354              	.LFE195:
 4355              		.size	TIM_ETRConfig, .-TIM_ETRConfig
 4356 0018 AFF30080 		.section	.text.TIM_EncoderInterfaceConfig,"ax",%progbits
 4356      AFF30080 
 4357              		.align	2
 4358              		.p2align 4,,15
 4359              		.global	TIM_EncoderInterfaceConfig
 4360              		.thumb
 4361              		.thumb_func
 4362              		.type	TIM_EncoderInterfaceConfig, %function
 4363              	TIM_EncoderInterfaceConfig:
 4364              	.LFB196:
 4365              		.loc 1 3065 0
 4366              		.cfi_startproc
 4367              		@ args = 0, pretend = 0, frame = 0
 4368              		@ frame_needed = 0, uses_anonymous_args = 0
 4369              		@ link register save eliminated.
 4370              	.LVL465:
 4371 0000 70B4     		push	{r4, r5, r6}
 4372              		.cfi_def_cfa_offset 12
 4373              		.cfi_offset 4, -12
 4374              		.cfi_offset 5, -8
 4375              		.cfi_offset 6, -4
 4376              		.loc 1 3077 0
 4377 0002 0689     		ldrh	r6, [r0, #8]
 4378              	.LVL466:
 4379              		.loc 1 3080 0
 4380 0004 048B     		ldrh	r4, [r0, #24]
 4381              	.LVL467:
 4382              		.loc 1 3083 0
 4383 0006 058C     		ldrh	r5, [r0, #32]
 4384              		.loc 1 3090 0
 4385 0008 24F44074 		bic	r4, r4, #768
 4386              	.LVL468:
 4387 000c 24F00304 		bic	r4, r4, #3
 4388              		.loc 1 3083 0
 4389 0010 ADB2     		uxth	r5, r5
 4390              	.LVL469:
 4391              		.loc 1 3094 0
 4392 0012 25F02205 		bic	r5, r5, #34
 4393              	.LVL470:
 4394              		.loc 1 3086 0
 4395 0016 26F00706 		bic	r6, r6, #7
 4396              	.LVL471:
ARM GAS  /var/folders/7z/kps_xzfj7sn5l5gkyq8s9db00000gn/T//ccc38Eju.s 			page 80


 4397              		.loc 1 3090 0
 4398 001a 2404     		lsls	r4, r4, #16
 4399 001c 2A43     		orrs	r2, r2, r5
 4400              	.LVL472:
 4401              		.loc 1 3086 0
 4402 001e 3604     		lsls	r6, r6, #16
 4403              		.loc 1 3090 0
 4404 0020 240C     		lsrs	r4, r4, #16
 4405              		.loc 1 3086 0
 4406 0022 360C     		lsrs	r6, r6, #16
 4407              	.LVL473:
 4408              		.loc 1 3091 0
 4409 0024 44F48074 		orr	r4, r4, #256
 4410              		.loc 1 3095 0
 4411 0028 42EA0313 		orr	r3, r2, r3, lsl #4
 4412              	.LVL474:
 4413              		.loc 1 3087 0
 4414 002c 3143     		orrs	r1, r1, r6
 4415              	.LVL475:
 4416              		.loc 1 3091 0
 4417 002e 44F00104 		orr	r4, r4, #1
 4418              	.LVL476:
 4419              		.loc 1 3095 0
 4420 0032 9AB2     		uxth	r2, r3
 4421              	.LVL477:
 4422              		.loc 1 3098 0
 4423 0034 0181     		strh	r1, [r0, #8]	@ movhi
 4424              		.loc 1 3101 0
 4425 0036 0483     		strh	r4, [r0, #24]	@ movhi
 4426              		.loc 1 3104 0
 4427 0038 0284     		strh	r2, [r0, #32]	@ movhi
 4428              		.loc 1 3105 0
 4429 003a 70BC     		pop	{r4, r5, r6}
 4430              		.cfi_restore 6
 4431              		.cfi_restore 5
 4432              		.cfi_restore 4
 4433              		.cfi_def_cfa_offset 0
 4434              	.LVL478:
 4435 003c 7047     		bx	lr
 4436              		.cfi_endproc
 4437              	.LFE196:
 4438              		.size	TIM_EncoderInterfaceConfig, .-TIM_EncoderInterfaceConfig
 4439 003e 00BF     		.section	.text.TIM_SelectHallSensor,"ax",%progbits
 4440              		.align	2
 4441              		.p2align 4,,15
 4442              		.global	TIM_SelectHallSensor
 4443              		.thumb
 4444              		.thumb_func
 4445              		.type	TIM_SelectHallSensor, %function
 4446              	TIM_SelectHallSensor:
 4447              	.LFB197:
 4448              		.loc 1 3116 0
 4449              		.cfi_startproc
 4450              		@ args = 0, pretend = 0, frame = 0
 4451              		@ frame_needed = 0, uses_anonymous_args = 0
 4452              		@ link register save eliminated.
 4453              	.LVL479:
ARM GAS  /var/folders/7z/kps_xzfj7sn5l5gkyq8s9db00000gn/T//ccc38Eju.s 			page 81


 4454              		.loc 1 3124 0
 4455 0000 8388     		ldrh	r3, [r0, #4]
 4456              		.loc 1 3121 0
 4457 0002 29B9     		cbnz	r1, .L220
 4458              		.loc 1 3129 0
 4459 0004 23F08003 		bic	r3, r3, #128
 4460 0008 1B04     		lsls	r3, r3, #16
 4461 000a 1B0C     		lsrs	r3, r3, #16
 4462 000c 8380     		strh	r3, [r0, #4]	@ movhi
 4463 000e 7047     		bx	lr
 4464              	.L220:
 4465              		.loc 1 3124 0
 4466 0010 9BB2     		uxth	r3, r3
 4467 0012 43F08003 		orr	r3, r3, #128
 4468 0016 8380     		strh	r3, [r0, #4]	@ movhi
 4469 0018 7047     		bx	lr
 4470              		.cfi_endproc
 4471              	.LFE197:
 4472              		.size	TIM_SelectHallSensor, .-TIM_SelectHallSensor
 4473 001a 00BFAFF3 		.section	.text.TIM_RemapConfig,"ax",%progbits
 4473      0080
 4474              		.align	2
 4475              		.p2align 4,,15
 4476              		.global	TIM_RemapConfig
 4477              		.thumb
 4478              		.thumb_func
 4479              		.type	TIM_RemapConfig, %function
 4480              	TIM_RemapConfig:
 4481              	.LFB198:
 4482              		.loc 1 3167 0
 4483              		.cfi_startproc
 4484              		@ args = 0, pretend = 0, frame = 0
 4485              		@ frame_needed = 0, uses_anonymous_args = 0
 4486              		@ link register save eliminated.
 4487              	.LVL480:
 4488              		.loc 1 3173 0
 4489 0000 A0F85010 		strh	r1, [r0, #80]	@ movhi
 4490 0004 7047     		bx	lr
 4491              		.cfi_endproc
 4492              	.LFE198:
 4493              		.size	TIM_RemapConfig, .-TIM_RemapConfig
 4494 0006 00BFAFF3 		.text
 4494      0080AFF3 
 4494      0080
 4495              	.Letext0:
 4496              		.file 2 "/Users/Baram/gcc-arm-none-eabi/arm-none-eabi/include/machine/_default_types.h"
 4497              		.file 3 "/Users/Baram/gcc-arm-none-eabi/arm-none-eabi/include/stdint.h"
 4498              		.file 4 "lib/ChibiOS_2.6.6/os/hal/platforms/STM32F4xx/stm32f4xx.h"
 4499              		.file 5 "lib/ChibiOS_2.6.6/ext/stdperiph_stm32f4/inc/stm32f4xx_tim.h"
 4500              		.file 6 "lib/ChibiOS_2.6.6/ext/stdperiph_stm32f4/inc/stm32f4xx_rcc.h"
 4501              		.file 7 "lib/ChibiOS_2.6.6/os/ports/common/ARMCMx/CMSIS/include/core_cm4.h"
 4502              		.section	.debug_info,"",%progbits
 4503              	.Ldebug_info0:
 4504 0000 D1240000 		.4byte	0x24d1
 4505 0004 0400     		.2byte	0x4
 4506 0006 00000000 		.4byte	.Ldebug_abbrev0
 4507 000a 04       		.byte	0x4
ARM GAS  /var/folders/7z/kps_xzfj7sn5l5gkyq8s9db00000gn/T//ccc38Eju.s 			page 82


 4508 000b 01       		.uleb128 0x1
 4509 000c 44040000 		.4byte	.LASF229
 4510 0010 01       		.byte	0x1
 4511 0011 380C0000 		.4byte	.LASF230
 4512 0015 76050000 		.4byte	.LASF231
 4513 0019 A8000000 		.4byte	.Ldebug_ranges0+0xa8
 4514 001d 00000000 		.4byte	0
 4515 0021 00000000 		.4byte	.Ldebug_line0
 4516 0025 02       		.uleb128 0x2
 4517 0026 01       		.byte	0x1
 4518 0027 06       		.byte	0x6
 4519 0028 88020000 		.4byte	.LASF0
 4520 002c 03       		.uleb128 0x3
 4521 002d D0000000 		.4byte	.LASF3
 4522 0031 02       		.byte	0x2
 4523 0032 1D       		.byte	0x1d
 4524 0033 37000000 		.4byte	0x37
 4525 0037 02       		.uleb128 0x2
 4526 0038 01       		.byte	0x1
 4527 0039 08       		.byte	0x8
 4528 003a FF090000 		.4byte	.LASF1
 4529 003e 02       		.uleb128 0x2
 4530 003f 02       		.byte	0x2
 4531 0040 05       		.byte	0x5
 4532 0041 3D0A0000 		.4byte	.LASF2
 4533 0045 03       		.uleb128 0x3
 4534 0046 FA030000 		.4byte	.LASF4
 4535 004a 02       		.byte	0x2
 4536 004b 2B       		.byte	0x2b
 4537 004c 50000000 		.4byte	0x50
 4538 0050 02       		.uleb128 0x2
 4539 0051 02       		.byte	0x2
 4540 0052 07       		.byte	0x7
 4541 0053 AB0C0000 		.4byte	.LASF5
 4542 0057 03       		.uleb128 0x3
 4543 0058 F50B0000 		.4byte	.LASF6
 4544 005c 02       		.byte	0x2
 4545 005d 3F       		.byte	0x3f
 4546 005e 62000000 		.4byte	0x62
 4547 0062 02       		.uleb128 0x2
 4548 0063 04       		.byte	0x4
 4549 0064 05       		.byte	0x5
 4550 0065 10030000 		.4byte	.LASF7
 4551 0069 03       		.uleb128 0x3
 4552 006a 11040000 		.4byte	.LASF8
 4553 006e 02       		.byte	0x2
 4554 006f 41       		.byte	0x41
 4555 0070 74000000 		.4byte	0x74
 4556 0074 02       		.uleb128 0x2
 4557 0075 04       		.byte	0x4
 4558 0076 07       		.byte	0x7
 4559 0077 4A0B0000 		.4byte	.LASF9
 4560 007b 02       		.uleb128 0x2
 4561 007c 08       		.byte	0x8
 4562 007d 05       		.byte	0x5
 4563 007e 3F030000 		.4byte	.LASF10
 4564 0082 02       		.uleb128 0x2
ARM GAS  /var/folders/7z/kps_xzfj7sn5l5gkyq8s9db00000gn/T//ccc38Eju.s 			page 83


 4565 0083 08       		.byte	0x8
 4566 0084 07       		.byte	0x7
 4567 0085 AD020000 		.4byte	.LASF11
 4568 0089 04       		.uleb128 0x4
 4569 008a 04       		.byte	0x4
 4570 008b 05       		.byte	0x5
 4571 008c 696E7400 		.ascii	"int\000"
 4572 0090 02       		.uleb128 0x2
 4573 0091 04       		.byte	0x4
 4574 0092 07       		.byte	0x7
 4575 0093 DB050000 		.4byte	.LASF12
 4576 0097 03       		.uleb128 0x3
 4577 0098 790D0000 		.4byte	.LASF13
 4578 009c 03       		.byte	0x3
 4579 009d 15       		.byte	0x15
 4580 009e 2C000000 		.4byte	0x2c
 4581 00a2 03       		.uleb128 0x3
 4582 00a3 4D030000 		.4byte	.LASF14
 4583 00a7 03       		.byte	0x3
 4584 00a8 21       		.byte	0x21
 4585 00a9 45000000 		.4byte	0x45
 4586 00ad 03       		.uleb128 0x3
 4587 00ae F7090000 		.4byte	.LASF15
 4588 00b2 03       		.byte	0x3
 4589 00b3 2C       		.byte	0x2c
 4590 00b4 57000000 		.4byte	0x57
 4591 00b8 03       		.uleb128 0x3
 4592 00b9 1F0D0000 		.4byte	.LASF16
 4593 00bd 03       		.byte	0x3
 4594 00be 2D       		.byte	0x2d
 4595 00bf 69000000 		.4byte	0x69
 4596 00c3 02       		.uleb128 0x2
 4597 00c4 04       		.byte	0x4
 4598 00c5 07       		.byte	0x7
 4599 00c6 EC070000 		.4byte	.LASF17
 4600 00ca 05       		.uleb128 0x5
 4601 00cb B8000000 		.4byte	0xb8
 4602 00cf 05       		.uleb128 0x5
 4603 00d0 A2000000 		.4byte	0xa2
 4604 00d4 05       		.uleb128 0x5
 4605 00d5 AD000000 		.4byte	0xad
 4606 00d9 06       		.uleb128 0x6
 4607 00da 01       		.byte	0x1
 4608 00db 04       		.byte	0x4
 4609 00dc F701     		.2byte	0x1f7
 4610 00de EF000000 		.4byte	0xef
 4611 00e2 07       		.uleb128 0x7
 4612 00e3 9D070000 		.4byte	.LASF18
 4613 00e7 00       		.sleb128 0
 4614 00e8 08       		.uleb128 0x8
 4615 00e9 53455400 		.ascii	"SET\000"
 4616 00ed 01       		.sleb128 1
 4617 00ee 00       		.byte	0
 4618 00ef 09       		.uleb128 0x9
 4619 00f0 C5000000 		.4byte	.LASF19
 4620 00f4 04       		.byte	0x4
 4621 00f5 F701     		.2byte	0x1f7
ARM GAS  /var/folders/7z/kps_xzfj7sn5l5gkyq8s9db00000gn/T//ccc38Eju.s 			page 84


 4622 00f7 D9000000 		.4byte	0xd9
 4623 00fb 09       		.uleb128 0x9
 4624 00fc A70D0000 		.4byte	.LASF20
 4625 0100 04       		.byte	0x4
 4626 0101 F701     		.2byte	0x1f7
 4627 0103 D9000000 		.4byte	0xd9
 4628 0107 06       		.uleb128 0x6
 4629 0108 01       		.byte	0x1
 4630 0109 04       		.byte	0x4
 4631 010a F901     		.2byte	0x1f9
 4632 010c 1D010000 		.4byte	0x11d
 4633 0110 07       		.uleb128 0x7
 4634 0111 60010000 		.4byte	.LASF21
 4635 0115 00       		.sleb128 0
 4636 0116 07       		.uleb128 0x7
 4637 0117 2A030000 		.4byte	.LASF22
 4638 011b 01       		.sleb128 1
 4639 011c 00       		.byte	0
 4640 011d 09       		.uleb128 0x9
 4641 011e C9080000 		.4byte	.LASF23
 4642 0122 04       		.byte	0x4
 4643 0123 F901     		.2byte	0x1f9
 4644 0125 07010000 		.4byte	0x107
 4645 0129 0A       		.uleb128 0xa
 4646 012a 54       		.byte	0x54
 4647 012b 04       		.byte	0x4
 4648 012c FD04     		.2byte	0x4fd
 4649 012e 05030000 		.4byte	0x305
 4650 0132 0B       		.uleb128 0xb
 4651 0133 43523100 		.ascii	"CR1\000"
 4652 0137 04       		.byte	0x4
 4653 0138 FF04     		.2byte	0x4ff
 4654 013a CF000000 		.4byte	0xcf
 4655 013e 00       		.byte	0
 4656 013f 0C       		.uleb128 0xc
 4657 0140 CA0A0000 		.4byte	.LASF24
 4658 0144 04       		.byte	0x4
 4659 0145 0005     		.2byte	0x500
 4660 0147 A2000000 		.4byte	0xa2
 4661 014b 02       		.byte	0x2
 4662 014c 0B       		.uleb128 0xb
 4663 014d 43523200 		.ascii	"CR2\000"
 4664 0151 04       		.byte	0x4
 4665 0152 0105     		.2byte	0x501
 4666 0154 CF000000 		.4byte	0xcf
 4667 0158 04       		.byte	0x4
 4668 0159 0C       		.uleb128 0xc
 4669 015a 7E090000 		.4byte	.LASF25
 4670 015e 04       		.byte	0x4
 4671 015f 0205     		.2byte	0x502
 4672 0161 A2000000 		.4byte	0xa2
 4673 0165 06       		.byte	0x6
 4674 0166 0C       		.uleb128 0xc
 4675 0167 D4060000 		.4byte	.LASF26
 4676 016b 04       		.byte	0x4
 4677 016c 0305     		.2byte	0x503
 4678 016e CF000000 		.4byte	0xcf
ARM GAS  /var/folders/7z/kps_xzfj7sn5l5gkyq8s9db00000gn/T//ccc38Eju.s 			page 85


 4679 0172 08       		.byte	0x8
 4680 0173 0C       		.uleb128 0xc
 4681 0174 88090000 		.4byte	.LASF27
 4682 0178 04       		.byte	0x4
 4683 0179 0405     		.2byte	0x504
 4684 017b A2000000 		.4byte	0xa2
 4685 017f 0A       		.byte	0xa
 4686 0180 0C       		.uleb128 0xc
 4687 0181 4A000000 		.4byte	.LASF28
 4688 0185 04       		.byte	0x4
 4689 0186 0505     		.2byte	0x505
 4690 0188 CF000000 		.4byte	0xcf
 4691 018c 0C       		.byte	0xc
 4692 018d 0C       		.uleb128 0xc
 4693 018e 92090000 		.4byte	.LASF29
 4694 0192 04       		.byte	0x4
 4695 0193 0605     		.2byte	0x506
 4696 0195 A2000000 		.4byte	0xa2
 4697 0199 0E       		.byte	0xe
 4698 019a 0B       		.uleb128 0xb
 4699 019b 535200   		.ascii	"SR\000"
 4700 019e 04       		.byte	0x4
 4701 019f 0705     		.2byte	0x507
 4702 01a1 CF000000 		.4byte	0xcf
 4703 01a5 10       		.byte	0x10
 4704 01a6 0C       		.uleb128 0xc
 4705 01a7 9C090000 		.4byte	.LASF30
 4706 01ab 04       		.byte	0x4
 4707 01ac 0805     		.2byte	0x508
 4708 01ae A2000000 		.4byte	0xa2
 4709 01b2 12       		.byte	0x12
 4710 01b3 0B       		.uleb128 0xb
 4711 01b4 45475200 		.ascii	"EGR\000"
 4712 01b8 04       		.byte	0x4
 4713 01b9 0905     		.2byte	0x509
 4714 01bb CF000000 		.4byte	0xcf
 4715 01bf 14       		.byte	0x14
 4716 01c0 0C       		.uleb128 0xc
 4717 01c1 A6090000 		.4byte	.LASF31
 4718 01c5 04       		.byte	0x4
 4719 01c6 0A05     		.2byte	0x50a
 4720 01c8 A2000000 		.4byte	0xa2
 4721 01cc 16       		.byte	0x16
 4722 01cd 0C       		.uleb128 0xc
 4723 01ce 66020000 		.4byte	.LASF32
 4724 01d2 04       		.byte	0x4
 4725 01d3 0B05     		.2byte	0x50b
 4726 01d5 CF000000 		.4byte	0xcf
 4727 01d9 18       		.byte	0x18
 4728 01da 0C       		.uleb128 0xc
 4729 01db B0090000 		.4byte	.LASF33
 4730 01df 04       		.byte	0x4
 4731 01e0 0C05     		.2byte	0x50c
 4732 01e2 A2000000 		.4byte	0xa2
 4733 01e6 1A       		.byte	0x1a
 4734 01e7 0C       		.uleb128 0xc
 4735 01e8 6C020000 		.4byte	.LASF34
ARM GAS  /var/folders/7z/kps_xzfj7sn5l5gkyq8s9db00000gn/T//ccc38Eju.s 			page 86


 4736 01ec 04       		.byte	0x4
 4737 01ed 0D05     		.2byte	0x50d
 4738 01ef CF000000 		.4byte	0xcf
 4739 01f3 1C       		.byte	0x1c
 4740 01f4 0C       		.uleb128 0xc
 4741 01f5 FE0A0000 		.4byte	.LASF35
 4742 01f9 04       		.byte	0x4
 4743 01fa 0E05     		.2byte	0x50e
 4744 01fc A2000000 		.4byte	0xa2
 4745 0200 1E       		.byte	0x1e
 4746 0201 0C       		.uleb128 0xc
 4747 0202 3A030000 		.4byte	.LASF36
 4748 0206 04       		.byte	0x4
 4749 0207 0F05     		.2byte	0x50f
 4750 0209 CF000000 		.4byte	0xcf
 4751 020d 20       		.byte	0x20
 4752 020e 0C       		.uleb128 0xc
 4753 020f BA090000 		.4byte	.LASF37
 4754 0213 04       		.byte	0x4
 4755 0214 1005     		.2byte	0x510
 4756 0216 A2000000 		.4byte	0xa2
 4757 021a 22       		.byte	0x22
 4758 021b 0B       		.uleb128 0xb
 4759 021c 434E5400 		.ascii	"CNT\000"
 4760 0220 04       		.byte	0x4
 4761 0221 1105     		.2byte	0x511
 4762 0223 CA000000 		.4byte	0xca
 4763 0227 24       		.byte	0x24
 4764 0228 0B       		.uleb128 0xb
 4765 0229 50534300 		.ascii	"PSC\000"
 4766 022d 04       		.byte	0x4
 4767 022e 1205     		.2byte	0x512
 4768 0230 CF000000 		.4byte	0xcf
 4769 0234 28       		.byte	0x28
 4770 0235 0C       		.uleb128 0xc
 4771 0236 C4090000 		.4byte	.LASF38
 4772 023a 04       		.byte	0x4
 4773 023b 1305     		.2byte	0x513
 4774 023d A2000000 		.4byte	0xa2
 4775 0241 2A       		.byte	0x2a
 4776 0242 0B       		.uleb128 0xb
 4777 0243 41525200 		.ascii	"ARR\000"
 4778 0247 04       		.byte	0x4
 4779 0248 1405     		.2byte	0x514
 4780 024a CA000000 		.4byte	0xca
 4781 024e 2C       		.byte	0x2c
 4782 024f 0B       		.uleb128 0xb
 4783 0250 52435200 		.ascii	"RCR\000"
 4784 0254 04       		.byte	0x4
 4785 0255 1505     		.2byte	0x515
 4786 0257 CF000000 		.4byte	0xcf
 4787 025b 30       		.byte	0x30
 4788 025c 0C       		.uleb128 0xc
 4789 025d D2020000 		.4byte	.LASF39
 4790 0261 04       		.byte	0x4
 4791 0262 1605     		.2byte	0x516
 4792 0264 A2000000 		.4byte	0xa2
ARM GAS  /var/folders/7z/kps_xzfj7sn5l5gkyq8s9db00000gn/T//ccc38Eju.s 			page 87


 4793 0268 32       		.byte	0x32
 4794 0269 0C       		.uleb128 0xc
 4795 026a 280D0000 		.4byte	.LASF40
 4796 026e 04       		.byte	0x4
 4797 026f 1705     		.2byte	0x517
 4798 0271 CA000000 		.4byte	0xca
 4799 0275 34       		.byte	0x34
 4800 0276 0C       		.uleb128 0xc
 4801 0277 86010000 		.4byte	.LASF41
 4802 027b 04       		.byte	0x4
 4803 027c 1805     		.2byte	0x518
 4804 027e CA000000 		.4byte	0xca
 4805 0282 38       		.byte	0x38
 4806 0283 0C       		.uleb128 0xc
 4807 0284 450D0000 		.4byte	.LASF42
 4808 0288 04       		.byte	0x4
 4809 0289 1905     		.2byte	0x519
 4810 028b CA000000 		.4byte	0xca
 4811 028f 3C       		.byte	0x3c
 4812 0290 0C       		.uleb128 0xc
 4813 0291 4A0D0000 		.4byte	.LASF43
 4814 0295 04       		.byte	0x4
 4815 0296 1A05     		.2byte	0x51a
 4816 0298 CA000000 		.4byte	0xca
 4817 029c 40       		.byte	0x40
 4818 029d 0C       		.uleb128 0xc
 4819 029e 470A0000 		.4byte	.LASF44
 4820 02a2 04       		.byte	0x4
 4821 02a3 1B05     		.2byte	0x51b
 4822 02a5 CF000000 		.4byte	0xcf
 4823 02a9 44       		.byte	0x44
 4824 02aa 0C       		.uleb128 0xc
 4825 02ab DD020000 		.4byte	.LASF45
 4826 02af 04       		.byte	0x4
 4827 02b0 1C05     		.2byte	0x51c
 4828 02b2 A2000000 		.4byte	0xa2
 4829 02b6 46       		.byte	0x46
 4830 02b7 0B       		.uleb128 0xb
 4831 02b8 44435200 		.ascii	"DCR\000"
 4832 02bc 04       		.byte	0x4
 4833 02bd 1D05     		.2byte	0x51d
 4834 02bf CF000000 		.4byte	0xcf
 4835 02c3 48       		.byte	0x48
 4836 02c4 0C       		.uleb128 0xc
 4837 02c5 E8020000 		.4byte	.LASF46
 4838 02c9 04       		.byte	0x4
 4839 02ca 1E05     		.2byte	0x51e
 4840 02cc A2000000 		.4byte	0xa2
 4841 02d0 4A       		.byte	0x4a
 4842 02d1 0C       		.uleb128 0xc
 4843 02d2 970B0000 		.4byte	.LASF47
 4844 02d6 04       		.byte	0x4
 4845 02d7 1F05     		.2byte	0x51f
 4846 02d9 CF000000 		.4byte	0xcf
 4847 02dd 4C       		.byte	0x4c
 4848 02de 0C       		.uleb128 0xc
 4849 02df F3020000 		.4byte	.LASF48
ARM GAS  /var/folders/7z/kps_xzfj7sn5l5gkyq8s9db00000gn/T//ccc38Eju.s 			page 88


 4850 02e3 04       		.byte	0x4
 4851 02e4 2005     		.2byte	0x520
 4852 02e6 A2000000 		.4byte	0xa2
 4853 02ea 4E       		.byte	0x4e
 4854 02eb 0B       		.uleb128 0xb
 4855 02ec 4F5200   		.ascii	"OR\000"
 4856 02ef 04       		.byte	0x4
 4857 02f0 2105     		.2byte	0x521
 4858 02f2 CF000000 		.4byte	0xcf
 4859 02f6 50       		.byte	0x50
 4860 02f7 0C       		.uleb128 0xc
 4861 02f8 FE020000 		.4byte	.LASF49
 4862 02fc 04       		.byte	0x4
 4863 02fd 2205     		.2byte	0x522
 4864 02ff A2000000 		.4byte	0xa2
 4865 0303 52       		.byte	0x52
 4866 0304 00       		.byte	0
 4867 0305 09       		.uleb128 0x9
 4868 0306 05040000 		.4byte	.LASF50
 4869 030a 04       		.byte	0x4
 4870 030b 2305     		.2byte	0x523
 4871 030d 29010000 		.4byte	0x129
 4872 0311 0D       		.uleb128 0xd
 4873 0312 0C       		.byte	0xc
 4874 0313 05       		.byte	0x5
 4875 0314 37       		.byte	0x37
 4876 0315 56030000 		.4byte	0x356
 4877 0319 0E       		.uleb128 0xe
 4878 031a CE090000 		.4byte	.LASF51
 4879 031e 05       		.byte	0x5
 4880 031f 39       		.byte	0x39
 4881 0320 A2000000 		.4byte	0xa2
 4882 0324 00       		.byte	0
 4883 0325 0E       		.uleb128 0xe
 4884 0326 86000000 		.4byte	.LASF52
 4885 032a 05       		.byte	0x5
 4886 032b 3C       		.byte	0x3c
 4887 032c A2000000 		.4byte	0xa2
 4888 0330 02       		.byte	0x2
 4889 0331 0E       		.uleb128 0xe
 4890 0332 BC0B0000 		.4byte	.LASF53
 4891 0336 05       		.byte	0x5
 4892 0337 3F       		.byte	0x3f
 4893 0338 B8000000 		.4byte	0xb8
 4894 033c 04       		.byte	0x4
 4895 033d 0E       		.uleb128 0xe
 4896 033e 02060000 		.4byte	.LASF54
 4897 0342 05       		.byte	0x5
 4898 0343 43       		.byte	0x43
 4899 0344 A2000000 		.4byte	0xa2
 4900 0348 08       		.byte	0x8
 4901 0349 0E       		.uleb128 0xe
 4902 034a BC0D0000 		.4byte	.LASF55
 4903 034e 05       		.byte	0x5
 4904 034f 46       		.byte	0x46
 4905 0350 97000000 		.4byte	0x97
 4906 0354 0A       		.byte	0xa
ARM GAS  /var/folders/7z/kps_xzfj7sn5l5gkyq8s9db00000gn/T//ccc38Eju.s 			page 89


 4907 0355 00       		.byte	0
 4908 0356 03       		.uleb128 0x3
 4909 0357 C70B0000 		.4byte	.LASF56
 4910 035b 05       		.byte	0x5
 4911 035c 4E       		.byte	0x4e
 4912 035d 11030000 		.4byte	0x311
 4913 0361 0D       		.uleb128 0xd
 4914 0362 14       		.byte	0x14
 4915 0363 05       		.byte	0x5
 4916 0364 54       		.byte	0x54
 4917 0365 CA030000 		.4byte	0x3ca
 4918 0369 0E       		.uleb128 0xe
 4919 036a CC0C0000 		.4byte	.LASF57
 4920 036e 05       		.byte	0x5
 4921 036f 56       		.byte	0x56
 4922 0370 A2000000 		.4byte	0xa2
 4923 0374 00       		.byte	0
 4924 0375 0E       		.uleb128 0xe
 4925 0376 4F090000 		.4byte	.LASF58
 4926 037a 05       		.byte	0x5
 4927 037b 59       		.byte	0x59
 4928 037c A2000000 		.4byte	0xa2
 4929 0380 02       		.byte	0x2
 4930 0381 0E       		.uleb128 0xe
 4931 0382 19030000 		.4byte	.LASF59
 4932 0386 05       		.byte	0x5
 4933 0387 5C       		.byte	0x5c
 4934 0388 A2000000 		.4byte	0xa2
 4935 038c 04       		.byte	0x4
 4936 038d 0E       		.uleb128 0xe
 4937 038e 2D010000 		.4byte	.LASF60
 4938 0392 05       		.byte	0x5
 4939 0393 60       		.byte	0x60
 4940 0394 B8000000 		.4byte	0xb8
 4941 0398 08       		.byte	0x8
 4942 0399 0E       		.uleb128 0xe
 4943 039a F3050000 		.4byte	.LASF61
 4944 039e 05       		.byte	0x5
 4945 039f 63       		.byte	0x63
 4946 03a0 A2000000 		.4byte	0xa2
 4947 03a4 0C       		.byte	0xc
 4948 03a5 0E       		.uleb128 0xe
 4949 03a6 5C0B0000 		.4byte	.LASF62
 4950 03aa 05       		.byte	0x5
 4951 03ab 66       		.byte	0x66
 4952 03ac A2000000 		.4byte	0xa2
 4953 03b0 0E       		.byte	0xe
 4954 03b1 0E       		.uleb128 0xe
 4955 03b2 350E0000 		.4byte	.LASF63
 4956 03b6 05       		.byte	0x5
 4957 03b7 6A       		.byte	0x6a
 4958 03b8 A2000000 		.4byte	0xa2
 4959 03bc 10       		.byte	0x10
 4960 03bd 0E       		.uleb128 0xe
 4961 03be 7F080000 		.4byte	.LASF64
 4962 03c2 05       		.byte	0x5
 4963 03c3 6E       		.byte	0x6e
ARM GAS  /var/folders/7z/kps_xzfj7sn5l5gkyq8s9db00000gn/T//ccc38Eju.s 			page 90


 4964 03c4 A2000000 		.4byte	0xa2
 4965 03c8 12       		.byte	0x12
 4966 03c9 00       		.byte	0
 4967 03ca 03       		.uleb128 0x3
 4968 03cb 4F0D0000 		.4byte	.LASF65
 4969 03cf 05       		.byte	0x5
 4970 03d0 71       		.byte	0x71
 4971 03d1 61030000 		.4byte	0x361
 4972 03d5 0D       		.uleb128 0xd
 4973 03d6 0A       		.byte	0xa
 4974 03d7 05       		.byte	0x5
 4975 03d8 77       		.byte	0x77
 4976 03d9 1A040000 		.4byte	0x41a
 4977 03dd 0E       		.uleb128 0xe
 4978 03de 5A020000 		.4byte	.LASF66
 4979 03e2 05       		.byte	0x5
 4980 03e3 7A       		.byte	0x7a
 4981 03e4 A2000000 		.4byte	0xa2
 4982 03e8 00       		.byte	0
 4983 03e9 0E       		.uleb128 0xe
 4984 03ea 6F090000 		.4byte	.LASF67
 4985 03ee 05       		.byte	0x5
 4986 03ef 7D       		.byte	0x7d
 4987 03f0 A2000000 		.4byte	0xa2
 4988 03f4 02       		.byte	0x2
 4989 03f5 0E       		.uleb128 0xe
 4990 03f6 E8010000 		.4byte	.LASF68
 4991 03fa 05       		.byte	0x5
 4992 03fb 80       		.byte	0x80
 4993 03fc A2000000 		.4byte	0xa2
 4994 0400 04       		.byte	0x4
 4995 0401 0E       		.uleb128 0xe
 4996 0402 5A080000 		.4byte	.LASF69
 4997 0406 05       		.byte	0x5
 4998 0407 83       		.byte	0x83
 4999 0408 A2000000 		.4byte	0xa2
 5000 040c 06       		.byte	0x6
 5001 040d 0E       		.uleb128 0xe
 5002 040e 8B010000 		.4byte	.LASF70
 5003 0412 05       		.byte	0x5
 5004 0413 86       		.byte	0x86
 5005 0414 A2000000 		.4byte	0xa2
 5006 0418 08       		.byte	0x8
 5007 0419 00       		.byte	0
 5008 041a 03       		.uleb128 0x3
 5009 041b FF0B0000 		.4byte	.LASF71
 5010 041f 05       		.byte	0x5
 5011 0420 88       		.byte	0x88
 5012 0421 D5030000 		.4byte	0x3d5
 5013 0425 0D       		.uleb128 0xd
 5014 0426 0E       		.byte	0xe
 5015 0427 05       		.byte	0x5
 5016 0428 8F       		.byte	0x8f
 5017 0429 82040000 		.4byte	0x482
 5018 042d 0E       		.uleb128 0xe
 5019 042e D9060000 		.4byte	.LASF72
 5020 0432 05       		.byte	0x5
ARM GAS  /var/folders/7z/kps_xzfj7sn5l5gkyq8s9db00000gn/T//ccc38Eju.s 			page 91


 5021 0433 92       		.byte	0x92
 5022 0434 A2000000 		.4byte	0xa2
 5023 0438 00       		.byte	0
 5024 0439 0E       		.uleb128 0xe
 5025 043a A70A0000 		.4byte	.LASF73
 5026 043e 05       		.byte	0x5
 5027 043f 95       		.byte	0x95
 5028 0440 A2000000 		.4byte	0xa2
 5029 0444 02       		.byte	0x2
 5030 0445 0E       		.uleb128 0xe
 5031 0446 0D0A0000 		.4byte	.LASF74
 5032 044a 05       		.byte	0x5
 5033 044b 98       		.byte	0x98
 5034 044c A2000000 		.4byte	0xa2
 5035 0450 04       		.byte	0x4
 5036 0451 0E       		.uleb128 0xe
 5037 0452 23080000 		.4byte	.LASF75
 5038 0456 05       		.byte	0x5
 5039 0457 9B       		.byte	0x9b
 5040 0458 A2000000 		.4byte	0xa2
 5041 045c 06       		.byte	0x6
 5042 045d 0E       		.uleb128 0xe
 5043 045e 09080000 		.4byte	.LASF76
 5044 0462 05       		.byte	0x5
 5045 0463 9F       		.byte	0x9f
 5046 0464 A2000000 		.4byte	0xa2
 5047 0468 08       		.byte	0x8
 5048 0469 0E       		.uleb128 0xe
 5049 046a E70C0000 		.4byte	.LASF77
 5050 046e 05       		.byte	0x5
 5051 046f A2       		.byte	0xa2
 5052 0470 A2000000 		.4byte	0xa2
 5053 0474 0A       		.byte	0xa
 5054 0475 0E       		.uleb128 0xe
 5055 0476 12070000 		.4byte	.LASF78
 5056 047a 05       		.byte	0x5
 5057 047b A5       		.byte	0xa5
 5058 047c A2000000 		.4byte	0xa2
 5059 0480 0C       		.byte	0xc
 5060 0481 00       		.byte	0
 5061 0482 03       		.uleb128 0x3
 5062 0483 AF060000 		.4byte	.LASF79
 5063 0487 05       		.byte	0x5
 5064 0488 A7       		.byte	0xa7
 5065 0489 25040000 		.4byte	0x425
 5066 048d 0F       		.uleb128 0xf
 5067 048e 840B0000 		.4byte	.LASF84
 5068 0492 01       		.byte	0x1
 5069 0493 7D0C     		.2byte	0xc7d
 5070 0495 01       		.byte	0x1
 5071 0496 E3040000 		.4byte	0x4e3
 5072 049a 10       		.uleb128 0x10
 5073 049b E7060000 		.4byte	.LASF80
 5074 049f 01       		.byte	0x1
 5075 04a0 7D0C     		.2byte	0xc7d
 5076 04a2 E3040000 		.4byte	0x4e3
 5077 04a6 10       		.uleb128 0x10
ARM GAS  /var/folders/7z/kps_xzfj7sn5l5gkyq8s9db00000gn/T//ccc38Eju.s 			page 92


 5078 04a7 6F090000 		.4byte	.LASF67
 5079 04ab 01       		.byte	0x1
 5080 04ac 7D0C     		.2byte	0xc7d
 5081 04ae A2000000 		.4byte	0xa2
 5082 04b2 10       		.uleb128 0x10
 5083 04b3 E8010000 		.4byte	.LASF68
 5084 04b7 01       		.byte	0x1
 5085 04b8 7D0C     		.2byte	0xc7d
 5086 04ba A2000000 		.4byte	0xa2
 5087 04be 10       		.uleb128 0x10
 5088 04bf 8B010000 		.4byte	.LASF70
 5089 04c3 01       		.byte	0x1
 5090 04c4 7E0C     		.2byte	0xc7e
 5091 04c6 A2000000 		.4byte	0xa2
 5092 04ca 11       		.uleb128 0x11
 5093 04cb 4E010000 		.4byte	.LASF81
 5094 04cf 01       		.byte	0x1
 5095 04d0 800C     		.2byte	0xc80
 5096 04d2 A2000000 		.4byte	0xa2
 5097 04d6 11       		.uleb128 0x11
 5098 04d7 BC050000 		.4byte	.LASF82
 5099 04db 01       		.byte	0x1
 5100 04dc 800C     		.2byte	0xc80
 5101 04de A2000000 		.4byte	0xa2
 5102 04e2 00       		.byte	0
 5103 04e3 12       		.uleb128 0x12
 5104 04e4 04       		.byte	0x4
 5105 04e5 05030000 		.4byte	0x305
 5106 04e9 13       		.uleb128 0x13
 5107 04ea 3E070000 		.4byte	.LASF86
 5108 04ee 01       		.byte	0x1
 5109 04ef 2B08     		.2byte	0x82b
 5110 04f1 01       		.byte	0x1
 5111 04f2 0F050000 		.4byte	0x50f
 5112 04f6 10       		.uleb128 0x10
 5113 04f7 E7060000 		.4byte	.LASF80
 5114 04fb 01       		.byte	0x1
 5115 04fc 2B08     		.2byte	0x82b
 5116 04fe E3040000 		.4byte	0x4e3
 5117 0502 10       		.uleb128 0x10
 5118 0503 510E0000 		.4byte	.LASF83
 5119 0507 01       		.byte	0x1
 5120 0508 2B08     		.2byte	0x82b
 5121 050a A2000000 		.4byte	0xa2
 5122 050e 00       		.byte	0
 5123 050f 0F       		.uleb128 0xf
 5124 0510 1B0B0000 		.4byte	.LASF85
 5125 0514 01       		.byte	0x1
 5126 0515 A60C     		.2byte	0xca6
 5127 0517 01       		.byte	0x1
 5128 0518 71050000 		.4byte	0x571
 5129 051c 10       		.uleb128 0x10
 5130 051d E7060000 		.4byte	.LASF80
 5131 0521 01       		.byte	0x1
 5132 0522 A60C     		.2byte	0xca6
 5133 0524 E3040000 		.4byte	0x4e3
 5134 0528 10       		.uleb128 0x10
ARM GAS  /var/folders/7z/kps_xzfj7sn5l5gkyq8s9db00000gn/T//ccc38Eju.s 			page 93


 5135 0529 6F090000 		.4byte	.LASF67
 5136 052d 01       		.byte	0x1
 5137 052e A60C     		.2byte	0xca6
 5138 0530 A2000000 		.4byte	0xa2
 5139 0534 10       		.uleb128 0x10
 5140 0535 E8010000 		.4byte	.LASF68
 5141 0539 01       		.byte	0x1
 5142 053a A60C     		.2byte	0xca6
 5143 053c A2000000 		.4byte	0xa2
 5144 0540 10       		.uleb128 0x10
 5145 0541 8B010000 		.4byte	.LASF70
 5146 0545 01       		.byte	0x1
 5147 0546 A70C     		.2byte	0xca7
 5148 0548 A2000000 		.4byte	0xa2
 5149 054c 11       		.uleb128 0x11
 5150 054d 4E010000 		.4byte	.LASF81
 5151 0551 01       		.byte	0x1
 5152 0552 A90C     		.2byte	0xca9
 5153 0554 A2000000 		.4byte	0xa2
 5154 0558 11       		.uleb128 0x11
 5155 0559 BC050000 		.4byte	.LASF82
 5156 055d 01       		.byte	0x1
 5157 055e A90C     		.2byte	0xca9
 5158 0560 A2000000 		.4byte	0xa2
 5159 0564 14       		.uleb128 0x14
 5160 0565 746D7000 		.ascii	"tmp\000"
 5161 0569 01       		.byte	0x1
 5162 056a A90C     		.2byte	0xca9
 5163 056c A2000000 		.4byte	0xa2
 5164 0570 00       		.byte	0
 5165 0571 13       		.uleb128 0x13
 5166 0572 4C0A0000 		.4byte	.LASF87
 5167 0576 01       		.byte	0x1
 5168 0577 4408     		.2byte	0x844
 5169 0579 01       		.byte	0x1
 5170 057a 97050000 		.4byte	0x597
 5171 057e 10       		.uleb128 0x10
 5172 057f E7060000 		.4byte	.LASF80
 5173 0583 01       		.byte	0x1
 5174 0584 4408     		.2byte	0x844
 5175 0586 E3040000 		.4byte	0x4e3
 5176 058a 10       		.uleb128 0x10
 5177 058b 510E0000 		.4byte	.LASF83
 5178 058f 01       		.byte	0x1
 5179 0590 4408     		.2byte	0x844
 5180 0592 A2000000 		.4byte	0xa2
 5181 0596 00       		.byte	0
 5182 0597 0F       		.uleb128 0xf
 5183 0598 61070000 		.4byte	.LASF88
 5184 059c 01       		.byte	0x1
 5185 059d D00C     		.2byte	0xcd0
 5186 059f 01       		.byte	0x1
 5187 05a0 F9050000 		.4byte	0x5f9
 5188 05a4 10       		.uleb128 0x10
 5189 05a5 E7060000 		.4byte	.LASF80
 5190 05a9 01       		.byte	0x1
 5191 05aa D00C     		.2byte	0xcd0
ARM GAS  /var/folders/7z/kps_xzfj7sn5l5gkyq8s9db00000gn/T//ccc38Eju.s 			page 94


 5192 05ac E3040000 		.4byte	0x4e3
 5193 05b0 10       		.uleb128 0x10
 5194 05b1 6F090000 		.4byte	.LASF67
 5195 05b5 01       		.byte	0x1
 5196 05b6 D00C     		.2byte	0xcd0
 5197 05b8 A2000000 		.4byte	0xa2
 5198 05bc 10       		.uleb128 0x10
 5199 05bd E8010000 		.4byte	.LASF68
 5200 05c1 01       		.byte	0x1
 5201 05c2 D00C     		.2byte	0xcd0
 5202 05c4 A2000000 		.4byte	0xa2
 5203 05c8 10       		.uleb128 0x10
 5204 05c9 8B010000 		.4byte	.LASF70
 5205 05cd 01       		.byte	0x1
 5206 05ce D10C     		.2byte	0xcd1
 5207 05d0 A2000000 		.4byte	0xa2
 5208 05d4 11       		.uleb128 0x11
 5209 05d5 57010000 		.4byte	.LASF89
 5210 05d9 01       		.byte	0x1
 5211 05da D30C     		.2byte	0xcd3
 5212 05dc A2000000 		.4byte	0xa2
 5213 05e0 11       		.uleb128 0x11
 5214 05e1 BC050000 		.4byte	.LASF82
 5215 05e5 01       		.byte	0x1
 5216 05e6 D30C     		.2byte	0xcd3
 5217 05e8 A2000000 		.4byte	0xa2
 5218 05ec 14       		.uleb128 0x14
 5219 05ed 746D7000 		.ascii	"tmp\000"
 5220 05f1 01       		.byte	0x1
 5221 05f2 D30C     		.2byte	0xcd3
 5222 05f4 A2000000 		.4byte	0xa2
 5223 05f8 00       		.byte	0
 5224 05f9 13       		.uleb128 0x13
 5225 05fa 9C0B0000 		.4byte	.LASF90
 5226 05fe 01       		.byte	0x1
 5227 05ff 5C08     		.2byte	0x85c
 5228 0601 01       		.byte	0x1
 5229 0602 1F060000 		.4byte	0x61f
 5230 0606 10       		.uleb128 0x10
 5231 0607 E7060000 		.4byte	.LASF80
 5232 060b 01       		.byte	0x1
 5233 060c 5C08     		.2byte	0x85c
 5234 060e E3040000 		.4byte	0x4e3
 5235 0612 10       		.uleb128 0x10
 5236 0613 510E0000 		.4byte	.LASF83
 5237 0617 01       		.byte	0x1
 5238 0618 5C08     		.2byte	0x85c
 5239 061a A2000000 		.4byte	0xa2
 5240 061e 00       		.byte	0
 5241 061f 0F       		.uleb128 0xf
 5242 0620 E8050000 		.4byte	.LASF91
 5243 0624 01       		.byte	0x1
 5244 0625 F90C     		.2byte	0xcf9
 5245 0627 01       		.byte	0x1
 5246 0628 81060000 		.4byte	0x681
 5247 062c 10       		.uleb128 0x10
 5248 062d E7060000 		.4byte	.LASF80
ARM GAS  /var/folders/7z/kps_xzfj7sn5l5gkyq8s9db00000gn/T//ccc38Eju.s 			page 95


 5249 0631 01       		.byte	0x1
 5250 0632 F90C     		.2byte	0xcf9
 5251 0634 E3040000 		.4byte	0x4e3
 5252 0638 10       		.uleb128 0x10
 5253 0639 6F090000 		.4byte	.LASF67
 5254 063d 01       		.byte	0x1
 5255 063e F90C     		.2byte	0xcf9
 5256 0640 A2000000 		.4byte	0xa2
 5257 0644 10       		.uleb128 0x10
 5258 0645 E8010000 		.4byte	.LASF68
 5259 0649 01       		.byte	0x1
 5260 064a F90C     		.2byte	0xcf9
 5261 064c A2000000 		.4byte	0xa2
 5262 0650 10       		.uleb128 0x10
 5263 0651 8B010000 		.4byte	.LASF70
 5264 0655 01       		.byte	0x1
 5265 0656 FA0C     		.2byte	0xcfa
 5266 0658 A2000000 		.4byte	0xa2
 5267 065c 11       		.uleb128 0x11
 5268 065d 57010000 		.4byte	.LASF89
 5269 0661 01       		.byte	0x1
 5270 0662 FC0C     		.2byte	0xcfc
 5271 0664 A2000000 		.4byte	0xa2
 5272 0668 11       		.uleb128 0x11
 5273 0669 BC050000 		.4byte	.LASF82
 5274 066d 01       		.byte	0x1
 5275 066e FC0C     		.2byte	0xcfc
 5276 0670 A2000000 		.4byte	0xa2
 5277 0674 14       		.uleb128 0x14
 5278 0675 746D7000 		.ascii	"tmp\000"
 5279 0679 01       		.byte	0x1
 5280 067a FC0C     		.2byte	0xcfc
 5281 067c A2000000 		.4byte	0xa2
 5282 0680 00       		.byte	0
 5283 0681 13       		.uleb128 0x13
 5284 0682 9B0E0000 		.4byte	.LASF92
 5285 0686 01       		.byte	0x1
 5286 0687 7408     		.2byte	0x874
 5287 0689 01       		.byte	0x1
 5288 068a A7060000 		.4byte	0x6a7
 5289 068e 10       		.uleb128 0x10
 5290 068f E7060000 		.4byte	.LASF80
 5291 0693 01       		.byte	0x1
 5292 0694 7408     		.2byte	0x874
 5293 0696 E3040000 		.4byte	0x4e3
 5294 069a 10       		.uleb128 0x10
 5295 069b 510E0000 		.4byte	.LASF83
 5296 069f 01       		.byte	0x1
 5297 06a0 7408     		.2byte	0x874
 5298 06a2 A2000000 		.4byte	0xa2
 5299 06a6 00       		.byte	0
 5300 06a7 13       		.uleb128 0x13
 5301 06a8 6F010000 		.4byte	.LASF93
 5302 06ac 01       		.byte	0x1
 5303 06ad 450B     		.2byte	0xb45
 5304 06af 01       		.byte	0x1
 5305 06b0 D9060000 		.4byte	0x6d9
ARM GAS  /var/folders/7z/kps_xzfj7sn5l5gkyq8s9db00000gn/T//ccc38Eju.s 			page 96


 5306 06b4 10       		.uleb128 0x10
 5307 06b5 E7060000 		.4byte	.LASF80
 5308 06b9 01       		.byte	0x1
 5309 06ba 450B     		.2byte	0xb45
 5310 06bc E3040000 		.4byte	0x4e3
 5311 06c0 10       		.uleb128 0x10
 5312 06c1 60000000 		.4byte	.LASF94
 5313 06c5 01       		.byte	0x1
 5314 06c6 450B     		.2byte	0xb45
 5315 06c8 A2000000 		.4byte	0xa2
 5316 06cc 11       		.uleb128 0x11
 5317 06cd A3070000 		.4byte	.LASF95
 5318 06d1 01       		.byte	0x1
 5319 06d2 470B     		.2byte	0xb47
 5320 06d4 A2000000 		.4byte	0xa2
 5321 06d8 00       		.byte	0
 5322 06d9 13       		.uleb128 0x13
 5323 06da 5B0E0000 		.4byte	.LASF96
 5324 06de 01       		.byte	0x1
 5325 06df BD0B     		.2byte	0xbbd
 5326 06e1 01       		.byte	0x1
 5327 06e2 23070000 		.4byte	0x723
 5328 06e6 10       		.uleb128 0x10
 5329 06e7 E7060000 		.4byte	.LASF80
 5330 06eb 01       		.byte	0x1
 5331 06ec BD0B     		.2byte	0xbbd
 5332 06ee E3040000 		.4byte	0x4e3
 5333 06f2 10       		.uleb128 0x10
 5334 06f3 F5070000 		.4byte	.LASF97
 5335 06f7 01       		.byte	0x1
 5336 06f8 BD0B     		.2byte	0xbbd
 5337 06fa A2000000 		.4byte	0xa2
 5338 06fe 10       		.uleb128 0x10
 5339 06ff AB070000 		.4byte	.LASF98
 5340 0703 01       		.byte	0x1
 5341 0704 BE0B     		.2byte	0xbbe
 5342 0706 A2000000 		.4byte	0xa2
 5343 070a 10       		.uleb128 0x10
 5344 070b 1B0E0000 		.4byte	.LASF99
 5345 070f 01       		.byte	0x1
 5346 0710 BE0B     		.2byte	0xbbe
 5347 0712 A2000000 		.4byte	0xa2
 5348 0716 11       		.uleb128 0x11
 5349 0717 A3070000 		.4byte	.LASF95
 5350 071b 01       		.byte	0x1
 5351 071c C00B     		.2byte	0xbc0
 5352 071e A2000000 		.4byte	0xa2
 5353 0722 00       		.byte	0
 5354 0723 15       		.uleb128 0x15
 5355 0724 690E0000 		.4byte	.LASF100
 5356 0728 01       		.byte	0x1
 5357 0729 C8       		.byte	0xc8
 5358 072a 00000000 		.4byte	.LFB111
 5359 072e B8010000 		.4byte	.LFE111-.LFB111
 5360 0732 01       		.uleb128 0x1
 5361 0733 9C       		.byte	0x9c
 5362 0734 FA090000 		.4byte	0x9fa
ARM GAS  /var/folders/7z/kps_xzfj7sn5l5gkyq8s9db00000gn/T//ccc38Eju.s 			page 97


 5363 0738 16       		.uleb128 0x16
 5364 0739 E7060000 		.4byte	.LASF80
 5365 073d 01       		.byte	0x1
 5366 073e C8       		.byte	0xc8
 5367 073f E3040000 		.4byte	0x4e3
 5368 0743 00000000 		.4byte	.LLST0
 5369 0747 17       		.uleb128 0x17
 5370 0748 66000000 		.4byte	.LVL2
 5371 074c AA240000 		.4byte	0x24aa
 5372 0750 61070000 		.4byte	0x761
 5373 0754 18       		.uleb128 0x18
 5374 0755 01       		.uleb128 0x1
 5375 0756 51       		.byte	0x51
 5376 0757 01       		.uleb128 0x1
 5377 0758 31       		.byte	0x31
 5378 0759 18       		.uleb128 0x18
 5379 075a 01       		.uleb128 0x1
 5380 075b 50       		.byte	0x50
 5381 075c 03       		.uleb128 0x3
 5382 075d 0A       		.byte	0xa
 5383 075e 0001     		.2byte	0x100
 5384 0760 00       		.byte	0
 5385 0761 19       		.uleb128 0x19
 5386 0762 74000000 		.4byte	.LVL3
 5387 0766 AA240000 		.4byte	0x24aa
 5388 076a 7B070000 		.4byte	0x77b
 5389 076e 18       		.uleb128 0x18
 5390 076f 01       		.uleb128 0x1
 5391 0770 51       		.byte	0x51
 5392 0771 01       		.uleb128 0x1
 5393 0772 30       		.byte	0x30
 5394 0773 18       		.uleb128 0x18
 5395 0774 01       		.uleb128 0x1
 5396 0775 50       		.byte	0x50
 5397 0776 03       		.uleb128 0x3
 5398 0777 0A       		.byte	0xa
 5399 0778 0001     		.2byte	0x100
 5400 077a 00       		.byte	0
 5401 077b 17       		.uleb128 0x17
 5402 077c 7C000000 		.4byte	.LVL5
 5403 0780 C1240000 		.4byte	0x24c1
 5404 0784 93070000 		.4byte	0x793
 5405 0788 18       		.uleb128 0x18
 5406 0789 01       		.uleb128 0x1
 5407 078a 51       		.byte	0x51
 5408 078b 01       		.uleb128 0x1
 5409 078c 31       		.byte	0x31
 5410 078d 18       		.uleb128 0x18
 5411 078e 01       		.uleb128 0x1
 5412 078f 50       		.byte	0x50
 5413 0790 01       		.uleb128 0x1
 5414 0791 31       		.byte	0x31
 5415 0792 00       		.byte	0
 5416 0793 19       		.uleb128 0x19
 5417 0794 88000000 		.4byte	.LVL6
 5418 0798 C1240000 		.4byte	0x24c1
 5419 079c AB070000 		.4byte	0x7ab
ARM GAS  /var/folders/7z/kps_xzfj7sn5l5gkyq8s9db00000gn/T//ccc38Eju.s 			page 98


 5420 07a0 18       		.uleb128 0x18
 5421 07a1 01       		.uleb128 0x1
 5422 07a2 51       		.byte	0x51
 5423 07a3 01       		.uleb128 0x1
 5424 07a4 30       		.byte	0x30
 5425 07a5 18       		.uleb128 0x18
 5426 07a6 01       		.uleb128 0x1
 5427 07a7 50       		.byte	0x50
 5428 07a8 01       		.uleb128 0x1
 5429 07a9 31       		.byte	0x31
 5430 07aa 00       		.byte	0
 5431 07ab 17       		.uleb128 0x17
 5432 07ac 90000000 		.4byte	.LVL8
 5433 07b0 AA240000 		.4byte	0x24aa
 5434 07b4 C3070000 		.4byte	0x7c3
 5435 07b8 18       		.uleb128 0x18
 5436 07b9 01       		.uleb128 0x1
 5437 07ba 51       		.byte	0x51
 5438 07bb 01       		.uleb128 0x1
 5439 07bc 31       		.byte	0x31
 5440 07bd 18       		.uleb128 0x18
 5441 07be 01       		.uleb128 0x1
 5442 07bf 50       		.byte	0x50
 5443 07c0 01       		.uleb128 0x1
 5444 07c1 31       		.byte	0x31
 5445 07c2 00       		.byte	0
 5446 07c3 19       		.uleb128 0x19
 5447 07c4 9C000000 		.4byte	.LVL9
 5448 07c8 AA240000 		.4byte	0x24aa
 5449 07cc DB070000 		.4byte	0x7db
 5450 07d0 18       		.uleb128 0x18
 5451 07d1 01       		.uleb128 0x1
 5452 07d2 51       		.byte	0x51
 5453 07d3 01       		.uleb128 0x1
 5454 07d4 30       		.byte	0x30
 5455 07d5 18       		.uleb128 0x18
 5456 07d6 01       		.uleb128 0x1
 5457 07d7 50       		.byte	0x50
 5458 07d8 01       		.uleb128 0x1
 5459 07d9 31       		.byte	0x31
 5460 07da 00       		.byte	0
 5461 07db 17       		.uleb128 0x17
 5462 07dc A4000000 		.4byte	.LVL11
 5463 07e0 AA240000 		.4byte	0x24aa
 5464 07e4 F3070000 		.4byte	0x7f3
 5465 07e8 18       		.uleb128 0x18
 5466 07e9 01       		.uleb128 0x1
 5467 07ea 51       		.byte	0x51
 5468 07eb 01       		.uleb128 0x1
 5469 07ec 31       		.byte	0x31
 5470 07ed 18       		.uleb128 0x18
 5471 07ee 01       		.uleb128 0x1
 5472 07ef 50       		.byte	0x50
 5473 07f0 01       		.uleb128 0x1
 5474 07f1 32       		.byte	0x32
 5475 07f2 00       		.byte	0
 5476 07f3 19       		.uleb128 0x19
ARM GAS  /var/folders/7z/kps_xzfj7sn5l5gkyq8s9db00000gn/T//ccc38Eju.s 			page 99


 5477 07f4 B0000000 		.4byte	.LVL12
 5478 07f8 AA240000 		.4byte	0x24aa
 5479 07fc 0B080000 		.4byte	0x80b
 5480 0800 18       		.uleb128 0x18
 5481 0801 01       		.uleb128 0x1
 5482 0802 51       		.byte	0x51
 5483 0803 01       		.uleb128 0x1
 5484 0804 30       		.byte	0x30
 5485 0805 18       		.uleb128 0x18
 5486 0806 01       		.uleb128 0x1
 5487 0807 50       		.byte	0x50
 5488 0808 01       		.uleb128 0x1
 5489 0809 32       		.byte	0x32
 5490 080a 00       		.byte	0
 5491 080b 17       		.uleb128 0x17
 5492 080c B8000000 		.4byte	.LVL14
 5493 0810 AA240000 		.4byte	0x24aa
 5494 0814 23080000 		.4byte	0x823
 5495 0818 18       		.uleb128 0x18
 5496 0819 01       		.uleb128 0x1
 5497 081a 51       		.byte	0x51
 5498 081b 01       		.uleb128 0x1
 5499 081c 31       		.byte	0x31
 5500 081d 18       		.uleb128 0x18
 5501 081e 01       		.uleb128 0x1
 5502 081f 50       		.byte	0x50
 5503 0820 01       		.uleb128 0x1
 5504 0821 34       		.byte	0x34
 5505 0822 00       		.byte	0
 5506 0823 19       		.uleb128 0x19
 5507 0824 C4000000 		.4byte	.LVL15
 5508 0828 AA240000 		.4byte	0x24aa
 5509 082c 3B080000 		.4byte	0x83b
 5510 0830 18       		.uleb128 0x18
 5511 0831 01       		.uleb128 0x1
 5512 0832 51       		.byte	0x51
 5513 0833 01       		.uleb128 0x1
 5514 0834 30       		.byte	0x30
 5515 0835 18       		.uleb128 0x18
 5516 0836 01       		.uleb128 0x1
 5517 0837 50       		.byte	0x50
 5518 0838 01       		.uleb128 0x1
 5519 0839 34       		.byte	0x34
 5520 083a 00       		.byte	0
 5521 083b 17       		.uleb128 0x17
 5522 083c CC000000 		.4byte	.LVL17
 5523 0840 AA240000 		.4byte	0x24aa
 5524 0844 53080000 		.4byte	0x853
 5525 0848 18       		.uleb128 0x18
 5526 0849 01       		.uleb128 0x1
 5527 084a 51       		.byte	0x51
 5528 084b 01       		.uleb128 0x1
 5529 084c 31       		.byte	0x31
 5530 084d 18       		.uleb128 0x18
 5531 084e 01       		.uleb128 0x1
 5532 084f 50       		.byte	0x50
 5533 0850 01       		.uleb128 0x1
ARM GAS  /var/folders/7z/kps_xzfj7sn5l5gkyq8s9db00000gn/T//ccc38Eju.s 			page 100


 5534 0851 38       		.byte	0x38
 5535 0852 00       		.byte	0
 5536 0853 19       		.uleb128 0x19
 5537 0854 D8000000 		.4byte	.LVL18
 5538 0858 AA240000 		.4byte	0x24aa
 5539 085c 6B080000 		.4byte	0x86b
 5540 0860 18       		.uleb128 0x18
 5541 0861 01       		.uleb128 0x1
 5542 0862 51       		.byte	0x51
 5543 0863 01       		.uleb128 0x1
 5544 0864 30       		.byte	0x30
 5545 0865 18       		.uleb128 0x18
 5546 0866 01       		.uleb128 0x1
 5547 0867 50       		.byte	0x50
 5548 0868 01       		.uleb128 0x1
 5549 0869 38       		.byte	0x38
 5550 086a 00       		.byte	0
 5551 086b 17       		.uleb128 0x17
 5552 086c E0000000 		.4byte	.LVL20
 5553 0870 AA240000 		.4byte	0x24aa
 5554 0874 83080000 		.4byte	0x883
 5555 0878 18       		.uleb128 0x18
 5556 0879 01       		.uleb128 0x1
 5557 087a 51       		.byte	0x51
 5558 087b 01       		.uleb128 0x1
 5559 087c 31       		.byte	0x31
 5560 087d 18       		.uleb128 0x18
 5561 087e 01       		.uleb128 0x1
 5562 087f 50       		.byte	0x50
 5563 0880 01       		.uleb128 0x1
 5564 0881 40       		.byte	0x40
 5565 0882 00       		.byte	0
 5566 0883 19       		.uleb128 0x19
 5567 0884 EC000000 		.4byte	.LVL21
 5568 0888 AA240000 		.4byte	0x24aa
 5569 088c 9B080000 		.4byte	0x89b
 5570 0890 18       		.uleb128 0x18
 5571 0891 01       		.uleb128 0x1
 5572 0892 51       		.byte	0x51
 5573 0893 01       		.uleb128 0x1
 5574 0894 30       		.byte	0x30
 5575 0895 18       		.uleb128 0x18
 5576 0896 01       		.uleb128 0x1
 5577 0897 50       		.byte	0x50
 5578 0898 01       		.uleb128 0x1
 5579 0899 40       		.byte	0x40
 5580 089a 00       		.byte	0
 5581 089b 17       		.uleb128 0x17
 5582 089c F4000000 		.4byte	.LVL23
 5583 08a0 AA240000 		.4byte	0x24aa
 5584 08a4 B4080000 		.4byte	0x8b4
 5585 08a8 18       		.uleb128 0x18
 5586 08a9 01       		.uleb128 0x1
 5587 08aa 51       		.byte	0x51
 5588 08ab 01       		.uleb128 0x1
 5589 08ac 31       		.byte	0x31
 5590 08ad 18       		.uleb128 0x18
ARM GAS  /var/folders/7z/kps_xzfj7sn5l5gkyq8s9db00000gn/T//ccc38Eju.s 			page 101


 5591 08ae 01       		.uleb128 0x1
 5592 08af 50       		.byte	0x50
 5593 08b0 02       		.uleb128 0x2
 5594 08b1 08       		.byte	0x8
 5595 08b2 20       		.byte	0x20
 5596 08b3 00       		.byte	0
 5597 08b4 19       		.uleb128 0x19
 5598 08b5 00010000 		.4byte	.LVL24
 5599 08b9 AA240000 		.4byte	0x24aa
 5600 08bd CD080000 		.4byte	0x8cd
 5601 08c1 18       		.uleb128 0x18
 5602 08c2 01       		.uleb128 0x1
 5603 08c3 51       		.byte	0x51
 5604 08c4 01       		.uleb128 0x1
 5605 08c5 30       		.byte	0x30
 5606 08c6 18       		.uleb128 0x18
 5607 08c7 01       		.uleb128 0x1
 5608 08c8 50       		.byte	0x50
 5609 08c9 02       		.uleb128 0x2
 5610 08ca 08       		.byte	0x8
 5611 08cb 20       		.byte	0x20
 5612 08cc 00       		.byte	0
 5613 08cd 17       		.uleb128 0x17
 5614 08ce 08010000 		.4byte	.LVL26
 5615 08d2 C1240000 		.4byte	0x24c1
 5616 08d6 E5080000 		.4byte	0x8e5
 5617 08da 18       		.uleb128 0x18
 5618 08db 01       		.uleb128 0x1
 5619 08dc 51       		.byte	0x51
 5620 08dd 01       		.uleb128 0x1
 5621 08de 31       		.byte	0x31
 5622 08df 18       		.uleb128 0x18
 5623 08e0 01       		.uleb128 0x1
 5624 08e1 50       		.byte	0x50
 5625 08e2 01       		.uleb128 0x1
 5626 08e3 32       		.byte	0x32
 5627 08e4 00       		.byte	0
 5628 08e5 19       		.uleb128 0x19
 5629 08e6 14010000 		.4byte	.LVL27
 5630 08ea C1240000 		.4byte	0x24c1
 5631 08ee FD080000 		.4byte	0x8fd
 5632 08f2 18       		.uleb128 0x18
 5633 08f3 01       		.uleb128 0x1
 5634 08f4 51       		.byte	0x51
 5635 08f5 01       		.uleb128 0x1
 5636 08f6 30       		.byte	0x30
 5637 08f7 18       		.uleb128 0x18
 5638 08f8 01       		.uleb128 0x1
 5639 08f9 50       		.byte	0x50
 5640 08fa 01       		.uleb128 0x1
 5641 08fb 32       		.byte	0x32
 5642 08fc 00       		.byte	0
 5643 08fd 17       		.uleb128 0x17
 5644 08fe 1E010000 		.4byte	.LVL29
 5645 0902 C1240000 		.4byte	0x24c1
 5646 0906 17090000 		.4byte	0x917
 5647 090a 18       		.uleb128 0x18
ARM GAS  /var/folders/7z/kps_xzfj7sn5l5gkyq8s9db00000gn/T//ccc38Eju.s 			page 102


 5648 090b 01       		.uleb128 0x1
 5649 090c 51       		.byte	0x51
 5650 090d 01       		.uleb128 0x1
 5651 090e 31       		.byte	0x31
 5652 090f 18       		.uleb128 0x18
 5653 0910 01       		.uleb128 0x1
 5654 0911 50       		.byte	0x50
 5655 0912 03       		.uleb128 0x3
 5656 0913 40       		.byte	0x40
 5657 0914 3C       		.byte	0x3c
 5658 0915 24       		.byte	0x24
 5659 0916 00       		.byte	0
 5660 0917 19       		.uleb128 0x19
 5661 0918 2C010000 		.4byte	.LVL30
 5662 091c C1240000 		.4byte	0x24c1
 5663 0920 31090000 		.4byte	0x931
 5664 0924 18       		.uleb128 0x18
 5665 0925 01       		.uleb128 0x1
 5666 0926 51       		.byte	0x51
 5667 0927 01       		.uleb128 0x1
 5668 0928 30       		.byte	0x30
 5669 0929 18       		.uleb128 0x18
 5670 092a 01       		.uleb128 0x1
 5671 092b 50       		.byte	0x50
 5672 092c 03       		.uleb128 0x3
 5673 092d 40       		.byte	0x40
 5674 092e 3C       		.byte	0x3c
 5675 092f 24       		.byte	0x24
 5676 0930 00       		.byte	0
 5677 0931 17       		.uleb128 0x17
 5678 0932 36010000 		.4byte	.LVL32
 5679 0936 C1240000 		.4byte	0x24c1
 5680 093a 4B090000 		.4byte	0x94b
 5681 093e 18       		.uleb128 0x18
 5682 093f 01       		.uleb128 0x1
 5683 0940 51       		.byte	0x51
 5684 0941 01       		.uleb128 0x1
 5685 0942 31       		.byte	0x31
 5686 0943 18       		.uleb128 0x18
 5687 0944 01       		.uleb128 0x1
 5688 0945 50       		.byte	0x50
 5689 0946 03       		.uleb128 0x3
 5690 0947 40       		.byte	0x40
 5691 0948 3D       		.byte	0x3d
 5692 0949 24       		.byte	0x24
 5693 094a 00       		.byte	0
 5694 094b 19       		.uleb128 0x19
 5695 094c 44010000 		.4byte	.LVL33
 5696 0950 C1240000 		.4byte	0x24c1
 5697 0954 65090000 		.4byte	0x965
 5698 0958 18       		.uleb128 0x18
 5699 0959 01       		.uleb128 0x1
 5700 095a 51       		.byte	0x51
 5701 095b 01       		.uleb128 0x1
 5702 095c 30       		.byte	0x30
 5703 095d 18       		.uleb128 0x18
 5704 095e 01       		.uleb128 0x1
ARM GAS  /var/folders/7z/kps_xzfj7sn5l5gkyq8s9db00000gn/T//ccc38Eju.s 			page 103


 5705 095f 50       		.byte	0x50
 5706 0960 03       		.uleb128 0x3
 5707 0961 40       		.byte	0x40
 5708 0962 3D       		.byte	0x3d
 5709 0963 24       		.byte	0x24
 5710 0964 00       		.byte	0
 5711 0965 17       		.uleb128 0x17
 5712 0966 4E010000 		.4byte	.LVL35
 5713 096a C1240000 		.4byte	0x24c1
 5714 096e 7F090000 		.4byte	0x97f
 5715 0972 18       		.uleb128 0x18
 5716 0973 01       		.uleb128 0x1
 5717 0974 51       		.byte	0x51
 5718 0975 01       		.uleb128 0x1
 5719 0976 31       		.byte	0x31
 5720 0977 18       		.uleb128 0x18
 5721 0978 01       		.uleb128 0x1
 5722 0979 50       		.byte	0x50
 5723 097a 03       		.uleb128 0x3
 5724 097b 40       		.byte	0x40
 5725 097c 3E       		.byte	0x3e
 5726 097d 24       		.byte	0x24
 5727 097e 00       		.byte	0
 5728 097f 19       		.uleb128 0x19
 5729 0980 5C010000 		.4byte	.LVL36
 5730 0984 C1240000 		.4byte	0x24c1
 5731 0988 99090000 		.4byte	0x999
 5732 098c 18       		.uleb128 0x18
 5733 098d 01       		.uleb128 0x1
 5734 098e 51       		.byte	0x51
 5735 098f 01       		.uleb128 0x1
 5736 0990 30       		.byte	0x30
 5737 0991 18       		.uleb128 0x18
 5738 0992 01       		.uleb128 0x1
 5739 0993 50       		.byte	0x50
 5740 0994 03       		.uleb128 0x3
 5741 0995 40       		.byte	0x40
 5742 0996 3E       		.byte	0x3e
 5743 0997 24       		.byte	0x24
 5744 0998 00       		.byte	0
 5745 0999 17       		.uleb128 0x17
 5746 099a 64010000 		.4byte	.LVL38
 5747 099e AA240000 		.4byte	0x24aa
 5748 09a2 B2090000 		.4byte	0x9b2
 5749 09a6 18       		.uleb128 0x18
 5750 09a7 01       		.uleb128 0x1
 5751 09a8 51       		.byte	0x51
 5752 09a9 01       		.uleb128 0x1
 5753 09aa 31       		.byte	0x31
 5754 09ab 18       		.uleb128 0x18
 5755 09ac 01       		.uleb128 0x1
 5756 09ad 50       		.byte	0x50
 5757 09ae 02       		.uleb128 0x2
 5758 09af 08       		.byte	0x8
 5759 09b0 40       		.byte	0x40
 5760 09b1 00       		.byte	0
 5761 09b2 19       		.uleb128 0x19
ARM GAS  /var/folders/7z/kps_xzfj7sn5l5gkyq8s9db00000gn/T//ccc38Eju.s 			page 104


 5762 09b3 70010000 		.4byte	.LVL39
 5763 09b7 AA240000 		.4byte	0x24aa
 5764 09bb CB090000 		.4byte	0x9cb
 5765 09bf 18       		.uleb128 0x18
 5766 09c0 01       		.uleb128 0x1
 5767 09c1 51       		.byte	0x51
 5768 09c2 01       		.uleb128 0x1
 5769 09c3 30       		.byte	0x30
 5770 09c4 18       		.uleb128 0x18
 5771 09c5 01       		.uleb128 0x1
 5772 09c6 50       		.byte	0x50
 5773 09c7 02       		.uleb128 0x2
 5774 09c8 08       		.byte	0x8
 5775 09c9 40       		.byte	0x40
 5776 09ca 00       		.byte	0
 5777 09cb 17       		.uleb128 0x17
 5778 09cc 78010000 		.4byte	.LVL41
 5779 09d0 AA240000 		.4byte	0x24aa
 5780 09d4 E4090000 		.4byte	0x9e4
 5781 09d8 18       		.uleb128 0x18
 5782 09d9 01       		.uleb128 0x1
 5783 09da 51       		.byte	0x51
 5784 09db 01       		.uleb128 0x1
 5785 09dc 31       		.byte	0x31
 5786 09dd 18       		.uleb128 0x18
 5787 09de 01       		.uleb128 0x1
 5788 09df 50       		.byte	0x50
 5789 09e0 02       		.uleb128 0x2
 5790 09e1 08       		.byte	0x8
 5791 09e2 80       		.byte	0x80
 5792 09e3 00       		.byte	0
 5793 09e4 1A       		.uleb128 0x1a
 5794 09e5 84010000 		.4byte	.LVL42
 5795 09e9 AA240000 		.4byte	0x24aa
 5796 09ed 18       		.uleb128 0x18
 5797 09ee 01       		.uleb128 0x1
 5798 09ef 51       		.byte	0x51
 5799 09f0 01       		.uleb128 0x1
 5800 09f1 30       		.byte	0x30
 5801 09f2 18       		.uleb128 0x18
 5802 09f3 01       		.uleb128 0x1
 5803 09f4 50       		.byte	0x50
 5804 09f5 02       		.uleb128 0x2
 5805 09f6 08       		.byte	0x8
 5806 09f7 80       		.byte	0x80
 5807 09f8 00       		.byte	0
 5808 09f9 00       		.byte	0
 5809 09fa 1B       		.uleb128 0x1b
 5810 09fb D40A0000 		.4byte	.LASF101
 5811 09ff 01       		.byte	0x1
 5812 0a00 2001     		.2byte	0x120
 5813 0a02 00000000 		.4byte	.LFB112
 5814 0a06 98000000 		.4byte	.LFE112-.LFB112
 5815 0a0a 01       		.uleb128 0x1
 5816 0a0b 9C       		.byte	0x9c
 5817 0a0c 3D0A0000 		.4byte	0xa3d
 5818 0a10 1C       		.uleb128 0x1c
ARM GAS  /var/folders/7z/kps_xzfj7sn5l5gkyq8s9db00000gn/T//ccc38Eju.s 			page 105


 5819 0a11 E7060000 		.4byte	.LASF80
 5820 0a15 01       		.byte	0x1
 5821 0a16 2001     		.2byte	0x120
 5822 0a18 E3040000 		.4byte	0x4e3
 5823 0a1c 01       		.uleb128 0x1
 5824 0a1d 50       		.byte	0x50
 5825 0a1e 1C       		.uleb128 0x1c
 5826 0a1f F3080000 		.4byte	.LASF102
 5827 0a23 01       		.byte	0x1
 5828 0a24 2001     		.2byte	0x120
 5829 0a26 3D0A0000 		.4byte	0xa3d
 5830 0a2a 01       		.uleb128 0x1
 5831 0a2b 51       		.byte	0x51
 5832 0a2c 1D       		.uleb128 0x1d
 5833 0a2d D1070000 		.4byte	.LASF108
 5834 0a31 01       		.byte	0x1
 5835 0a32 2201     		.2byte	0x122
 5836 0a34 A2000000 		.4byte	0xa2
 5837 0a38 66010000 		.4byte	.LLST1
 5838 0a3c 00       		.byte	0
 5839 0a3d 12       		.uleb128 0x12
 5840 0a3e 04       		.byte	0x4
 5841 0a3f 56030000 		.4byte	0x356
 5842 0a43 1B       		.uleb128 0x1b
 5843 0a44 34060000 		.4byte	.LASF103
 5844 0a48 01       		.byte	0x1
 5845 0a49 5401     		.2byte	0x154
 5846 0a4b 00000000 		.4byte	.LFB113
 5847 0a4f 12000000 		.4byte	.LFE113-.LFB113
 5848 0a53 01       		.uleb128 0x1
 5849 0a54 9C       		.byte	0x9c
 5850 0a55 680A0000 		.4byte	0xa68
 5851 0a59 1C       		.uleb128 0x1c
 5852 0a5a F3080000 		.4byte	.LASF102
 5853 0a5e 01       		.byte	0x1
 5854 0a5f 5401     		.2byte	0x154
 5855 0a61 3D0A0000 		.4byte	0xa3d
 5856 0a65 01       		.uleb128 0x1
 5857 0a66 50       		.byte	0x50
 5858 0a67 00       		.byte	0
 5859 0a68 1B       		.uleb128 0x1b
 5860 0a69 600A0000 		.4byte	.LASF104
 5861 0a6d 01       		.byte	0x1
 5862 0a6e 6801     		.2byte	0x168
 5863 0a70 00000000 		.4byte	.LFB114
 5864 0a74 06000000 		.4byte	.LFE114-.LFB114
 5865 0a78 01       		.uleb128 0x1
 5866 0a79 9C       		.byte	0x9c
 5867 0a7a A90A0000 		.4byte	0xaa9
 5868 0a7e 1C       		.uleb128 0x1c
 5869 0a7f E7060000 		.4byte	.LASF80
 5870 0a83 01       		.byte	0x1
 5871 0a84 6801     		.2byte	0x168
 5872 0a86 E3040000 		.4byte	0x4e3
 5873 0a8a 01       		.uleb128 0x1
 5874 0a8b 50       		.byte	0x50
 5875 0a8c 1C       		.uleb128 0x1c
ARM GAS  /var/folders/7z/kps_xzfj7sn5l5gkyq8s9db00000gn/T//ccc38Eju.s 			page 106


 5876 0a8d 8C0C0000 		.4byte	.LASF105
 5877 0a91 01       		.byte	0x1
 5878 0a92 6801     		.2byte	0x168
 5879 0a94 A2000000 		.4byte	0xa2
 5880 0a98 01       		.uleb128 0x1
 5881 0a99 51       		.byte	0x51
 5882 0a9a 1C       		.uleb128 0x1c
 5883 0a9b 8B070000 		.4byte	.LASF106
 5884 0a9f 01       		.byte	0x1
 5885 0aa0 6801     		.2byte	0x168
 5886 0aa2 A2000000 		.4byte	0xa2
 5887 0aa6 01       		.uleb128 0x1
 5888 0aa7 52       		.byte	0x52
 5889 0aa8 00       		.byte	0
 5890 0aa9 1B       		.uleb128 0x1b
 5891 0aaa 72020000 		.4byte	.LASF107
 5892 0aae 01       		.byte	0x1
 5893 0aaf 7F01     		.2byte	0x17f
 5894 0ab1 00000000 		.4byte	.LFB115
 5895 0ab5 10000000 		.4byte	.LFE115-.LFB115
 5896 0ab9 01       		.uleb128 0x1
 5897 0aba 9C       		.byte	0x9c
 5898 0abb EE0A0000 		.4byte	0xaee
 5899 0abf 1C       		.uleb128 0x1c
 5900 0ac0 E7060000 		.4byte	.LASF80
 5901 0ac4 01       		.byte	0x1
 5902 0ac5 7F01     		.2byte	0x17f
 5903 0ac7 E3040000 		.4byte	0x4e3
 5904 0acb 01       		.uleb128 0x1
 5905 0acc 50       		.byte	0x50
 5906 0acd 1E       		.uleb128 0x1e
 5907 0ace 86000000 		.4byte	.LASF52
 5908 0ad2 01       		.byte	0x1
 5909 0ad3 7F01     		.2byte	0x17f
 5910 0ad5 A2000000 		.4byte	0xa2
 5911 0ad9 A7010000 		.4byte	.LLST2
 5912 0add 1D       		.uleb128 0x1d
 5913 0ade D1070000 		.4byte	.LASF108
 5914 0ae2 01       		.byte	0x1
 5915 0ae3 8101     		.2byte	0x181
 5916 0ae5 A2000000 		.4byte	0xa2
 5917 0ae9 C8010000 		.4byte	.LLST3
 5918 0aed 00       		.byte	0
 5919 0aee 1B       		.uleb128 0x1b
 5920 0aef 610D0000 		.4byte	.LASF109
 5921 0af3 01       		.byte	0x1
 5922 0af4 9901     		.2byte	0x199
 5923 0af6 00000000 		.4byte	.LFB116
 5924 0afa 04000000 		.4byte	.LFE116-.LFB116
 5925 0afe 01       		.uleb128 0x1
 5926 0aff 9C       		.byte	0x9c
 5927 0b00 210B0000 		.4byte	0xb21
 5928 0b04 1C       		.uleb128 0x1c
 5929 0b05 E7060000 		.4byte	.LASF80
 5930 0b09 01       		.byte	0x1
 5931 0b0a 9901     		.2byte	0x199
 5932 0b0c E3040000 		.4byte	0x4e3
ARM GAS  /var/folders/7z/kps_xzfj7sn5l5gkyq8s9db00000gn/T//ccc38Eju.s 			page 107


 5933 0b10 01       		.uleb128 0x1
 5934 0b11 50       		.byte	0x50
 5935 0b12 1C       		.uleb128 0x1c
 5936 0b13 3E090000 		.4byte	.LASF110
 5937 0b17 01       		.byte	0x1
 5938 0b18 9901     		.2byte	0x199
 5939 0b1a B8000000 		.4byte	0xb8
 5940 0b1e 01       		.uleb128 0x1
 5941 0b1f 51       		.byte	0x51
 5942 0b20 00       		.byte	0
 5943 0b21 1B       		.uleb128 0x1b
 5944 0b22 5E030000 		.4byte	.LASF111
 5945 0b26 01       		.byte	0x1
 5946 0b27 A801     		.2byte	0x1a8
 5947 0b29 00000000 		.4byte	.LFB117
 5948 0b2d 04000000 		.4byte	.LFE117-.LFB117
 5949 0b31 01       		.uleb128 0x1
 5950 0b32 9C       		.byte	0x9c
 5951 0b33 540B0000 		.4byte	0xb54
 5952 0b37 1C       		.uleb128 0x1c
 5953 0b38 E7060000 		.4byte	.LASF80
 5954 0b3c 01       		.byte	0x1
 5955 0b3d A801     		.2byte	0x1a8
 5956 0b3f E3040000 		.4byte	0x4e3
 5957 0b43 01       		.uleb128 0x1
 5958 0b44 50       		.byte	0x50
 5959 0b45 1C       		.uleb128 0x1c
 5960 0b46 96000000 		.4byte	.LASF112
 5961 0b4a 01       		.byte	0x1
 5962 0b4b A801     		.2byte	0x1a8
 5963 0b4d B8000000 		.4byte	0xb8
 5964 0b51 01       		.uleb128 0x1
 5965 0b52 51       		.byte	0x51
 5966 0b53 00       		.byte	0
 5967 0b54 1F       		.uleb128 0x1f
 5968 0b55 25060000 		.4byte	.LASF113
 5969 0b59 01       		.byte	0x1
 5970 0b5a B601     		.2byte	0x1b6
 5971 0b5c B8000000 		.4byte	0xb8
 5972 0b60 00000000 		.4byte	.LFB118
 5973 0b64 04000000 		.4byte	.LFE118-.LFB118
 5974 0b68 01       		.uleb128 0x1
 5975 0b69 9C       		.byte	0x9c
 5976 0b6a 7F0B0000 		.4byte	0xb7f
 5977 0b6e 1E       		.uleb128 0x1e
 5978 0b6f E7060000 		.4byte	.LASF80
 5979 0b73 01       		.byte	0x1
 5980 0b74 B601     		.2byte	0x1b6
 5981 0b76 E3040000 		.4byte	0x4e3
 5982 0b7a FD010000 		.4byte	.LLST4
 5983 0b7e 00       		.byte	0
 5984 0b7f 1F       		.uleb128 0x1f
 5985 0b80 14060000 		.4byte	.LASF114
 5986 0b84 01       		.byte	0x1
 5987 0b85 C401     		.2byte	0x1c4
 5988 0b87 A2000000 		.4byte	0xa2
 5989 0b8b 00000000 		.4byte	.LFB119
ARM GAS  /var/folders/7z/kps_xzfj7sn5l5gkyq8s9db00000gn/T//ccc38Eju.s 			page 108


 5990 0b8f 06000000 		.4byte	.LFE119-.LFB119
 5991 0b93 01       		.uleb128 0x1
 5992 0b94 9C       		.byte	0x9c
 5993 0b95 AA0B0000 		.4byte	0xbaa
 5994 0b99 1E       		.uleb128 0x1e
 5995 0b9a E7060000 		.4byte	.LASF80
 5996 0b9e 01       		.byte	0x1
 5997 0b9f C401     		.2byte	0x1c4
 5998 0ba1 E3040000 		.4byte	0x4e3
 5999 0ba5 1E020000 		.4byte	.LLST5
 6000 0ba9 00       		.byte	0
 6001 0baa 1B       		.uleb128 0x1b
 6002 0bab 0C010000 		.4byte	.LASF115
 6003 0baf 01       		.byte	0x1
 6004 0bb0 D401     		.2byte	0x1d4
 6005 0bb2 00000000 		.4byte	.LFB120
 6006 0bb6 1A000000 		.4byte	.LFE120-.LFB120
 6007 0bba 01       		.uleb128 0x1
 6008 0bbb 9C       		.byte	0x9c
 6009 0bbc DD0B0000 		.4byte	0xbdd
 6010 0bc0 1C       		.uleb128 0x1c
 6011 0bc1 E7060000 		.4byte	.LASF80
 6012 0bc5 01       		.byte	0x1
 6013 0bc6 D401     		.2byte	0x1d4
 6014 0bc8 E3040000 		.4byte	0x4e3
 6015 0bcc 01       		.uleb128 0x1
 6016 0bcd 50       		.byte	0x50
 6017 0bce 1C       		.uleb128 0x1c
 6018 0bcf 0B000000 		.4byte	.LASF116
 6019 0bd3 01       		.byte	0x1
 6020 0bd4 D401     		.2byte	0x1d4
 6021 0bd6 1D010000 		.4byte	0x11d
 6022 0bda 01       		.uleb128 0x1
 6023 0bdb 51       		.byte	0x51
 6024 0bdc 00       		.byte	0
 6025 0bdd 1B       		.uleb128 0x1b
 6026 0bde 740C0000 		.4byte	.LASF117
 6027 0be2 01       		.byte	0x1
 6028 0be3 F101     		.2byte	0x1f1
 6029 0be5 00000000 		.4byte	.LFB121
 6030 0be9 1A000000 		.4byte	.LFE121-.LFB121
 6031 0bed 01       		.uleb128 0x1
 6032 0bee 9C       		.byte	0x9c
 6033 0bef 100C0000 		.4byte	0xc10
 6034 0bf3 1C       		.uleb128 0x1c
 6035 0bf4 E7060000 		.4byte	.LASF80
 6036 0bf8 01       		.byte	0x1
 6037 0bf9 F101     		.2byte	0x1f1
 6038 0bfb E3040000 		.4byte	0x4e3
 6039 0bff 01       		.uleb128 0x1
 6040 0c00 50       		.byte	0x50
 6041 0c01 1C       		.uleb128 0x1c
 6042 0c02 D0030000 		.4byte	.LASF118
 6043 0c06 01       		.byte	0x1
 6044 0c07 F101     		.2byte	0x1f1
 6045 0c09 A2000000 		.4byte	0xa2
 6046 0c0d 01       		.uleb128 0x1
ARM GAS  /var/folders/7z/kps_xzfj7sn5l5gkyq8s9db00000gn/T//ccc38Eju.s 			page 109


 6047 0c0e 51       		.byte	0x51
 6048 0c0f 00       		.byte	0
 6049 0c10 1B       		.uleb128 0x1b
 6050 0c11 C6010000 		.4byte	.LASF119
 6051 0c15 01       		.byte	0x1
 6052 0c16 0A02     		.2byte	0x20a
 6053 0c18 00000000 		.4byte	.LFB122
 6054 0c1c 1A000000 		.4byte	.LFE122-.LFB122
 6055 0c20 01       		.uleb128 0x1
 6056 0c21 9C       		.byte	0x9c
 6057 0c22 430C0000 		.4byte	0xc43
 6058 0c26 1C       		.uleb128 0x1c
 6059 0c27 E7060000 		.4byte	.LASF80
 6060 0c2b 01       		.byte	0x1
 6061 0c2c 0A02     		.2byte	0x20a
 6062 0c2e E3040000 		.4byte	0x4e3
 6063 0c32 01       		.uleb128 0x1
 6064 0c33 50       		.byte	0x50
 6065 0c34 1C       		.uleb128 0x1c
 6066 0c35 0B000000 		.4byte	.LASF116
 6067 0c39 01       		.byte	0x1
 6068 0c3a 0A02     		.2byte	0x20a
 6069 0c3c 1D010000 		.4byte	0x11d
 6070 0c40 01       		.uleb128 0x1
 6071 0c41 51       		.byte	0x51
 6072 0c42 00       		.byte	0
 6073 0c43 1B       		.uleb128 0x1b
 6074 0c44 28000000 		.4byte	.LASF120
 6075 0c48 01       		.byte	0x1
 6076 0c49 2502     		.2byte	0x225
 6077 0c4b 00000000 		.4byte	.LFB123
 6078 0c4f 16000000 		.4byte	.LFE123-.LFB123
 6079 0c53 01       		.uleb128 0x1
 6080 0c54 9C       		.byte	0x9c
 6081 0c55 780C0000 		.4byte	0xc78
 6082 0c59 1C       		.uleb128 0x1c
 6083 0c5a E7060000 		.4byte	.LASF80
 6084 0c5e 01       		.byte	0x1
 6085 0c5f 2502     		.2byte	0x225
 6086 0c61 E3040000 		.4byte	0x4e3
 6087 0c65 01       		.uleb128 0x1
 6088 0c66 50       		.byte	0x50
 6089 0c67 1E       		.uleb128 0x1e
 6090 0c68 00000000 		.4byte	.LASF121
 6091 0c6c 01       		.byte	0x1
 6092 0c6d 2502     		.2byte	0x225
 6093 0c6f A2000000 		.4byte	0xa2
 6094 0c73 3F020000 		.4byte	.LLST6
 6095 0c77 00       		.byte	0
 6096 0c78 1B       		.uleb128 0x1b
 6097 0c79 21090000 		.4byte	.LASF122
 6098 0c7d 01       		.byte	0x1
 6099 0c7e 3C02     		.2byte	0x23c
 6100 0c80 00000000 		.4byte	.LFB124
 6101 0c84 16000000 		.4byte	.LFE124-.LFB124
 6102 0c88 01       		.uleb128 0x1
 6103 0c89 9C       		.byte	0x9c
ARM GAS  /var/folders/7z/kps_xzfj7sn5l5gkyq8s9db00000gn/T//ccc38Eju.s 			page 110


 6104 0c8a AD0C0000 		.4byte	0xcad
 6105 0c8e 1C       		.uleb128 0x1c
 6106 0c8f E7060000 		.4byte	.LASF80
 6107 0c93 01       		.byte	0x1
 6108 0c94 3C02     		.2byte	0x23c
 6109 0c96 E3040000 		.4byte	0x4e3
 6110 0c9a 01       		.uleb128 0x1
 6111 0c9b 50       		.byte	0x50
 6112 0c9c 1E       		.uleb128 0x1e
 6113 0c9d 56030000 		.4byte	.LASF123
 6114 0ca1 01       		.byte	0x1
 6115 0ca2 3C02     		.2byte	0x23c
 6116 0ca4 A2000000 		.4byte	0xa2
 6117 0ca8 60020000 		.4byte	.LLST7
 6118 0cac 00       		.byte	0
 6119 0cad 1B       		.uleb128 0x1b
 6120 0cae 8F0B0000 		.4byte	.LASF124
 6121 0cb2 01       		.byte	0x1
 6122 0cb3 5002     		.2byte	0x250
 6123 0cb5 00000000 		.4byte	.LFB125
 6124 0cb9 1A000000 		.4byte	.LFE125-.LFB125
 6125 0cbd 01       		.uleb128 0x1
 6126 0cbe 9C       		.byte	0x9c
 6127 0cbf E00C0000 		.4byte	0xce0
 6128 0cc3 1C       		.uleb128 0x1c
 6129 0cc4 E7060000 		.4byte	.LASF80
 6130 0cc8 01       		.byte	0x1
 6131 0cc9 5002     		.2byte	0x250
 6132 0ccb E3040000 		.4byte	0x4e3
 6133 0ccf 01       		.uleb128 0x1
 6134 0cd0 50       		.byte	0x50
 6135 0cd1 1C       		.uleb128 0x1c
 6136 0cd2 0B000000 		.4byte	.LASF116
 6137 0cd6 01       		.byte	0x1
 6138 0cd7 5002     		.2byte	0x250
 6139 0cd9 1D010000 		.4byte	0x11d
 6140 0cdd 01       		.uleb128 0x1
 6141 0cde 51       		.byte	0x51
 6142 0cdf 00       		.byte	0
 6143 0ce0 1B       		.uleb128 0x1b
 6144 0ce1 B00D0000 		.4byte	.LASF125
 6145 0ce5 01       		.byte	0x1
 6146 0ce6 9F02     		.2byte	0x29f
 6147 0ce8 00000000 		.4byte	.LFB126
 6148 0cec 84000000 		.4byte	.LFE126-.LFB126
 6149 0cf0 01       		.uleb128 0x1
 6150 0cf1 9C       		.byte	0x9c
 6151 0cf2 450D0000 		.4byte	0xd45
 6152 0cf6 1C       		.uleb128 0x1c
 6153 0cf7 E7060000 		.4byte	.LASF80
 6154 0cfb 01       		.byte	0x1
 6155 0cfc 9F02     		.2byte	0x29f
 6156 0cfe E3040000 		.4byte	0x4e3
 6157 0d02 01       		.uleb128 0x1
 6158 0d03 50       		.byte	0x50
 6159 0d04 1E       		.uleb128 0x1e
 6160 0d05 C3060000 		.4byte	.LASF126
ARM GAS  /var/folders/7z/kps_xzfj7sn5l5gkyq8s9db00000gn/T//ccc38Eju.s 			page 111


 6161 0d09 01       		.byte	0x1
 6162 0d0a 9F02     		.2byte	0x29f
 6163 0d0c 450D0000 		.4byte	0xd45
 6164 0d10 81020000 		.4byte	.LLST8
 6165 0d14 1D       		.uleb128 0x1d
 6166 0d15 31030000 		.4byte	.LASF127
 6167 0d19 01       		.byte	0x1
 6168 0d1a A102     		.2byte	0x2a1
 6169 0d1c A2000000 		.4byte	0xa2
 6170 0d20 AD020000 		.4byte	.LLST9
 6171 0d24 1D       		.uleb128 0x1d
 6172 0d25 BC050000 		.4byte	.LASF82
 6173 0d29 01       		.byte	0x1
 6174 0d2a A102     		.2byte	0x2a1
 6175 0d2c A2000000 		.4byte	0xa2
 6176 0d30 CC020000 		.4byte	.LLST10
 6177 0d34 1D       		.uleb128 0x1d
 6178 0d35 68010000 		.4byte	.LASF128
 6179 0d39 01       		.byte	0x1
 6180 0d3a A102     		.2byte	0x2a1
 6181 0d3c A2000000 		.4byte	0xa2
 6182 0d40 F6020000 		.4byte	.LLST11
 6183 0d44 00       		.byte	0
 6184 0d45 12       		.uleb128 0x12
 6185 0d46 04       		.byte	0x4
 6186 0d47 CA030000 		.4byte	0x3ca
 6187 0d4b 1B       		.uleb128 0x1b
 6188 0d4c B00B0000 		.4byte	.LASF129
 6189 0d50 01       		.byte	0x1
 6190 0d51 F002     		.2byte	0x2f0
 6191 0d53 00000000 		.4byte	.LFB127
 6192 0d57 90000000 		.4byte	.LFE127-.LFB127
 6193 0d5b 01       		.uleb128 0x1
 6194 0d5c 9C       		.byte	0x9c
 6195 0d5d AE0D0000 		.4byte	0xdae
 6196 0d61 1C       		.uleb128 0x1c
 6197 0d62 E7060000 		.4byte	.LASF80
 6198 0d66 01       		.byte	0x1
 6199 0d67 F002     		.2byte	0x2f0
 6200 0d69 E3040000 		.4byte	0x4e3
 6201 0d6d 01       		.uleb128 0x1
 6202 0d6e 50       		.byte	0x50
 6203 0d6f 1C       		.uleb128 0x1c
 6204 0d70 C3060000 		.4byte	.LASF126
 6205 0d74 01       		.byte	0x1
 6206 0d75 F002     		.2byte	0x2f0
 6207 0d77 450D0000 		.4byte	0xd45
 6208 0d7b 01       		.uleb128 0x1
 6209 0d7c 51       		.byte	0x51
 6210 0d7d 1D       		.uleb128 0x1d
 6211 0d7e 31030000 		.4byte	.LASF127
 6212 0d82 01       		.byte	0x1
 6213 0d83 F202     		.2byte	0x2f2
 6214 0d85 A2000000 		.4byte	0xa2
 6215 0d89 20030000 		.4byte	.LLST12
 6216 0d8d 1D       		.uleb128 0x1d
 6217 0d8e BC050000 		.4byte	.LASF82
ARM GAS  /var/folders/7z/kps_xzfj7sn5l5gkyq8s9db00000gn/T//ccc38Eju.s 			page 112


 6218 0d92 01       		.byte	0x1
 6219 0d93 F202     		.2byte	0x2f2
 6220 0d95 A2000000 		.4byte	0xa2
 6221 0d99 3F030000 		.4byte	.LLST13
 6222 0d9d 1D       		.uleb128 0x1d
 6223 0d9e 68010000 		.4byte	.LASF128
 6224 0da2 01       		.byte	0x1
 6225 0da3 F202     		.2byte	0x2f2
 6226 0da5 A2000000 		.4byte	0xa2
 6227 0da9 9B030000 		.4byte	.LLST14
 6228 0dad 00       		.byte	0
 6229 0dae 1B       		.uleb128 0x1b
 6230 0daf B1030000 		.4byte	.LASF130
 6231 0db3 01       		.byte	0x1
 6232 0db4 4103     		.2byte	0x341
 6233 0db6 00000000 		.4byte	.LFB128
 6234 0dba 90000000 		.4byte	.LFE128-.LFB128
 6235 0dbe 01       		.uleb128 0x1
 6236 0dbf 9C       		.byte	0x9c
 6237 0dc0 110E0000 		.4byte	0xe11
 6238 0dc4 1C       		.uleb128 0x1c
 6239 0dc5 E7060000 		.4byte	.LASF80
 6240 0dc9 01       		.byte	0x1
 6241 0dca 4103     		.2byte	0x341
 6242 0dcc E3040000 		.4byte	0x4e3
 6243 0dd0 01       		.uleb128 0x1
 6244 0dd1 50       		.byte	0x50
 6245 0dd2 1C       		.uleb128 0x1c
 6246 0dd3 C3060000 		.4byte	.LASF126
 6247 0dd7 01       		.byte	0x1
 6248 0dd8 4103     		.2byte	0x341
 6249 0dda 450D0000 		.4byte	0xd45
 6250 0dde 01       		.uleb128 0x1
 6251 0ddf 51       		.byte	0x51
 6252 0de0 1D       		.uleb128 0x1d
 6253 0de1 31030000 		.4byte	.LASF127
 6254 0de5 01       		.byte	0x1
 6255 0de6 4303     		.2byte	0x343
 6256 0de8 A2000000 		.4byte	0xa2
 6257 0dec C5030000 		.4byte	.LLST15
 6258 0df0 1D       		.uleb128 0x1d
 6259 0df1 BC050000 		.4byte	.LASF82
 6260 0df5 01       		.byte	0x1
 6261 0df6 4303     		.2byte	0x343
 6262 0df8 A2000000 		.4byte	0xa2
 6263 0dfc EF030000 		.4byte	.LLST16
 6264 0e00 1D       		.uleb128 0x1d
 6265 0e01 68010000 		.4byte	.LASF128
 6266 0e05 01       		.byte	0x1
 6267 0e06 4303     		.2byte	0x343
 6268 0e08 A2000000 		.4byte	0xa2
 6269 0e0c 4B040000 		.4byte	.LLST17
 6270 0e10 00       		.byte	0
 6271 0e11 1B       		.uleb128 0x1b
 6272 0e12 110C0000 		.4byte	.LASF131
 6273 0e16 01       		.byte	0x1
 6274 0e17 9103     		.2byte	0x391
ARM GAS  /var/folders/7z/kps_xzfj7sn5l5gkyq8s9db00000gn/T//ccc38Eju.s 			page 113


 6275 0e19 00000000 		.4byte	.LFB129
 6276 0e1d 74000000 		.4byte	.LFE129-.LFB129
 6277 0e21 01       		.uleb128 0x1
 6278 0e22 9C       		.byte	0x9c
 6279 0e23 760E0000 		.4byte	0xe76
 6280 0e27 1C       		.uleb128 0x1c
 6281 0e28 E7060000 		.4byte	.LASF80
 6282 0e2c 01       		.byte	0x1
 6283 0e2d 9103     		.2byte	0x391
 6284 0e2f E3040000 		.4byte	0x4e3
 6285 0e33 01       		.uleb128 0x1
 6286 0e34 50       		.byte	0x50
 6287 0e35 1E       		.uleb128 0x1e
 6288 0e36 C3060000 		.4byte	.LASF126
 6289 0e3a 01       		.byte	0x1
 6290 0e3b 9103     		.2byte	0x391
 6291 0e3d 450D0000 		.4byte	0xd45
 6292 0e41 75040000 		.4byte	.LLST18
 6293 0e45 1D       		.uleb128 0x1d
 6294 0e46 31030000 		.4byte	.LASF127
 6295 0e4a 01       		.byte	0x1
 6296 0e4b 9303     		.2byte	0x393
 6297 0e4d A2000000 		.4byte	0xa2
 6298 0e51 A1040000 		.4byte	.LLST19
 6299 0e55 1D       		.uleb128 0x1d
 6300 0e56 BC050000 		.4byte	.LASF82
 6301 0e5a 01       		.byte	0x1
 6302 0e5b 9303     		.2byte	0x393
 6303 0e5d A2000000 		.4byte	0xa2
 6304 0e61 C0040000 		.4byte	.LLST20
 6305 0e65 1D       		.uleb128 0x1d
 6306 0e66 68010000 		.4byte	.LASF128
 6307 0e6a 01       		.byte	0x1
 6308 0e6b 9303     		.2byte	0x393
 6309 0e6d A2000000 		.4byte	0xa2
 6310 0e71 EA040000 		.4byte	.LLST21
 6311 0e75 00       		.byte	0
 6312 0e76 1B       		.uleb128 0x1b
 6313 0e77 7A070000 		.4byte	.LASF132
 6314 0e7b 01       		.byte	0x1
 6315 0e7c D003     		.2byte	0x3d0
 6316 0e7e 00000000 		.4byte	.LFB130
 6317 0e82 14000000 		.4byte	.LFE130-.LFB130
 6318 0e86 01       		.uleb128 0x1
 6319 0e87 9C       		.byte	0x9c
 6320 0e88 9B0E0000 		.4byte	0xe9b
 6321 0e8c 1C       		.uleb128 0x1c
 6322 0e8d C3060000 		.4byte	.LASF126
 6323 0e91 01       		.byte	0x1
 6324 0e92 D003     		.2byte	0x3d0
 6325 0e94 450D0000 		.4byte	0xd45
 6326 0e98 01       		.uleb128 0x1
 6327 0e99 50       		.byte	0x50
 6328 0e9a 00       		.byte	0
 6329 0e9b 1B       		.uleb128 0x1b
 6330 0e9c 100D0000 		.4byte	.LASF133
 6331 0ea0 01       		.byte	0x1
ARM GAS  /var/folders/7z/kps_xzfj7sn5l5gkyq8s9db00000gn/T//ccc38Eju.s 			page 114


 6332 0ea1 F403     		.2byte	0x3f4
 6333 0ea3 00000000 		.4byte	.LFB131
 6334 0ea7 50000000 		.4byte	.LFE131-.LFB131
 6335 0eab 01       		.uleb128 0x1
 6336 0eac 9C       		.byte	0x9c
 6337 0ead 020F0000 		.4byte	0xf02
 6338 0eb1 1E       		.uleb128 0x1e
 6339 0eb2 E7060000 		.4byte	.LASF80
 6340 0eb6 01       		.byte	0x1
 6341 0eb7 F403     		.2byte	0x3f4
 6342 0eb9 E3040000 		.4byte	0x4e3
 6343 0ebd 29050000 		.4byte	.LLST22
 6344 0ec1 1E       		.uleb128 0x1e
 6345 0ec2 5A020000 		.4byte	.LASF66
 6346 0ec6 01       		.byte	0x1
 6347 0ec7 F403     		.2byte	0x3f4
 6348 0ec9 A2000000 		.4byte	0xa2
 6349 0ecd 49050000 		.4byte	.LLST23
 6350 0ed1 1E       		.uleb128 0x1e
 6351 0ed2 CC0C0000 		.4byte	.LASF57
 6352 0ed6 01       		.byte	0x1
 6353 0ed7 F403     		.2byte	0x3f4
 6354 0ed9 A2000000 		.4byte	0xa2
 6355 0edd 83050000 		.4byte	.LLST24
 6356 0ee1 20       		.uleb128 0x20
 6357 0ee2 746D7000 		.ascii	"tmp\000"
 6358 0ee6 01       		.byte	0x1
 6359 0ee7 F603     		.2byte	0x3f6
 6360 0ee9 B8000000 		.4byte	0xb8
 6361 0eed BD050000 		.4byte	.LLST25
 6362 0ef1 1D       		.uleb128 0x1d
 6363 0ef2 F8010000 		.4byte	.LASF134
 6364 0ef6 01       		.byte	0x1
 6365 0ef7 F703     		.2byte	0x3f7
 6366 0ef9 A2000000 		.4byte	0xa2
 6367 0efd 2C060000 		.4byte	.LLST26
 6368 0f01 00       		.byte	0
 6369 0f02 1B       		.uleb128 0x1b
 6370 0f03 EC000000 		.4byte	.LASF135
 6371 0f07 01       		.byte	0x1
 6372 0f08 2204     		.2byte	0x422
 6373 0f0a 00000000 		.4byte	.LFB132
 6374 0f0e 04000000 		.4byte	.LFE132-.LFB132
 6375 0f12 01       		.uleb128 0x1
 6376 0f13 9C       		.byte	0x9c
 6377 0f14 350F0000 		.4byte	0xf35
 6378 0f18 1C       		.uleb128 0x1c
 6379 0f19 E7060000 		.4byte	.LASF80
 6380 0f1d 01       		.byte	0x1
 6381 0f1e 2204     		.2byte	0x422
 6382 0f20 E3040000 		.4byte	0x4e3
 6383 0f24 01       		.uleb128 0x1
 6384 0f25 50       		.byte	0x50
 6385 0f26 1C       		.uleb128 0x1c
 6386 0f27 E3000000 		.4byte	.LASF136
 6387 0f2b 01       		.byte	0x1
 6388 0f2c 2204     		.2byte	0x422
ARM GAS  /var/folders/7z/kps_xzfj7sn5l5gkyq8s9db00000gn/T//ccc38Eju.s 			page 115


 6389 0f2e B8000000 		.4byte	0xb8
 6390 0f32 01       		.uleb128 0x1
 6391 0f33 51       		.byte	0x51
 6392 0f34 00       		.byte	0
 6393 0f35 1B       		.uleb128 0x1b
 6394 0f36 B9080000 		.4byte	.LASF137
 6395 0f3a 01       		.byte	0x1
 6396 0f3b 3204     		.2byte	0x432
 6397 0f3d 00000000 		.4byte	.LFB133
 6398 0f41 04000000 		.4byte	.LFE133-.LFB133
 6399 0f45 01       		.uleb128 0x1
 6400 0f46 9C       		.byte	0x9c
 6401 0f47 680F0000 		.4byte	0xf68
 6402 0f4b 1C       		.uleb128 0x1c
 6403 0f4c E7060000 		.4byte	.LASF80
 6404 0f50 01       		.byte	0x1
 6405 0f51 3204     		.2byte	0x432
 6406 0f53 E3040000 		.4byte	0x4e3
 6407 0f57 01       		.uleb128 0x1
 6408 0f58 50       		.byte	0x50
 6409 0f59 1C       		.uleb128 0x1c
 6410 0f5a 46090000 		.4byte	.LASF138
 6411 0f5e 01       		.byte	0x1
 6412 0f5f 3204     		.2byte	0x432
 6413 0f61 B8000000 		.4byte	0xb8
 6414 0f65 01       		.uleb128 0x1
 6415 0f66 51       		.byte	0x51
 6416 0f67 00       		.byte	0
 6417 0f68 1B       		.uleb128 0x1b
 6418 0f69 9E050000 		.4byte	.LASF139
 6419 0f6d 01       		.byte	0x1
 6420 0f6e 4104     		.2byte	0x441
 6421 0f70 00000000 		.4byte	.LFB134
 6422 0f74 04000000 		.4byte	.LFE134-.LFB134
 6423 0f78 01       		.uleb128 0x1
 6424 0f79 9C       		.byte	0x9c
 6425 0f7a 9B0F0000 		.4byte	0xf9b
 6426 0f7e 1C       		.uleb128 0x1c
 6427 0f7f E7060000 		.4byte	.LASF80
 6428 0f83 01       		.byte	0x1
 6429 0f84 4104     		.2byte	0x441
 6430 0f86 E3040000 		.4byte	0x4e3
 6431 0f8a 01       		.uleb128 0x1
 6432 0f8b 50       		.byte	0x50
 6433 0f8c 1C       		.uleb128 0x1c
 6434 0f8d 24010000 		.4byte	.LASF140
 6435 0f91 01       		.byte	0x1
 6436 0f92 4104     		.2byte	0x441
 6437 0f94 B8000000 		.4byte	0xb8
 6438 0f98 01       		.uleb128 0x1
 6439 0f99 51       		.byte	0x51
 6440 0f9a 00       		.byte	0
 6441 0f9b 1B       		.uleb128 0x1b
 6442 0f9c 280C0000 		.4byte	.LASF141
 6443 0fa0 01       		.byte	0x1
 6444 0fa1 5004     		.2byte	0x450
 6445 0fa3 00000000 		.4byte	.LFB135
ARM GAS  /var/folders/7z/kps_xzfj7sn5l5gkyq8s9db00000gn/T//ccc38Eju.s 			page 116


 6446 0fa7 04000000 		.4byte	.LFE135-.LFB135
 6447 0fab 01       		.uleb128 0x1
 6448 0fac 9C       		.byte	0x9c
 6449 0fad CE0F0000 		.4byte	0xfce
 6450 0fb1 1C       		.uleb128 0x1c
 6451 0fb2 E7060000 		.4byte	.LASF80
 6452 0fb6 01       		.byte	0x1
 6453 0fb7 5004     		.2byte	0x450
 6454 0fb9 E3040000 		.4byte	0x4e3
 6455 0fbd 01       		.uleb128 0x1
 6456 0fbe 50       		.byte	0x50
 6457 0fbf 1C       		.uleb128 0x1c
 6458 0fc0 76080000 		.4byte	.LASF142
 6459 0fc4 01       		.byte	0x1
 6460 0fc5 5004     		.2byte	0x450
 6461 0fc7 B8000000 		.4byte	0xb8
 6462 0fcb 01       		.uleb128 0x1
 6463 0fcc 51       		.byte	0x51
 6464 0fcd 00       		.byte	0
 6465 0fce 1B       		.uleb128 0x1b
 6466 0fcf D8070000 		.4byte	.LASF143
 6467 0fd3 01       		.byte	0x1
 6468 0fd4 6204     		.2byte	0x462
 6469 0fd6 00000000 		.4byte	.LFB136
 6470 0fda 10000000 		.4byte	.LFE136-.LFB136
 6471 0fde 01       		.uleb128 0x1
 6472 0fdf 9C       		.byte	0x9c
 6473 0fe0 13100000 		.4byte	0x1013
 6474 0fe4 1C       		.uleb128 0x1c
 6475 0fe5 E7060000 		.4byte	.LASF80
 6476 0fe9 01       		.byte	0x1
 6477 0fea 6204     		.2byte	0x462
 6478 0fec E3040000 		.4byte	0x4e3
 6479 0ff0 01       		.uleb128 0x1
 6480 0ff1 50       		.byte	0x50
 6481 0ff2 1E       		.uleb128 0x1e
 6482 0ff3 4F000000 		.4byte	.LASF144
 6483 0ff7 01       		.byte	0x1
 6484 0ff8 6204     		.2byte	0x462
 6485 0ffa A2000000 		.4byte	0xa2
 6486 0ffe 40060000 		.4byte	.LLST27
 6487 1002 1D       		.uleb128 0x1d
 6488 1003 4E010000 		.4byte	.LASF81
 6489 1007 01       		.byte	0x1
 6490 1008 6404     		.2byte	0x464
 6491 100a A2000000 		.4byte	0xa2
 6492 100e 61060000 		.4byte	.LLST28
 6493 1012 00       		.byte	0
 6494 1013 1B       		.uleb128 0x1b
 6495 1014 14000000 		.4byte	.LASF145
 6496 1018 01       		.byte	0x1
 6497 1019 7F04     		.2byte	0x47f
 6498 101b 00000000 		.4byte	.LFB137
 6499 101f 14000000 		.4byte	.LFE137-.LFB137
 6500 1023 01       		.uleb128 0x1
 6501 1024 9C       		.byte	0x9c
 6502 1025 58100000 		.4byte	0x1058
ARM GAS  /var/folders/7z/kps_xzfj7sn5l5gkyq8s9db00000gn/T//ccc38Eju.s 			page 117


 6503 1029 1C       		.uleb128 0x1c
 6504 102a E7060000 		.4byte	.LASF80
 6505 102e 01       		.byte	0x1
 6506 102f 7F04     		.2byte	0x47f
 6507 1031 E3040000 		.4byte	0x4e3
 6508 1035 01       		.uleb128 0x1
 6509 1036 50       		.byte	0x50
 6510 1037 1E       		.uleb128 0x1e
 6511 1038 4F000000 		.4byte	.LASF144
 6512 103c 01       		.byte	0x1
 6513 103d 7F04     		.2byte	0x47f
 6514 103f A2000000 		.4byte	0xa2
 6515 1043 96060000 		.4byte	.LLST29
 6516 1047 1D       		.uleb128 0x1d
 6517 1048 4E010000 		.4byte	.LASF81
 6518 104c 01       		.byte	0x1
 6519 104d 8104     		.2byte	0x481
 6520 104f A2000000 		.4byte	0xa2
 6521 1053 B7060000 		.4byte	.LLST30
 6522 1057 00       		.byte	0
 6523 1058 1B       		.uleb128 0x1b
 6524 1059 46080000 		.4byte	.LASF146
 6525 105d 01       		.byte	0x1
 6526 105e 9B04     		.2byte	0x49b
 6527 1060 00000000 		.4byte	.LFB138
 6528 1064 10000000 		.4byte	.LFE138-.LFB138
 6529 1068 01       		.uleb128 0x1
 6530 1069 9C       		.byte	0x9c
 6531 106a 9D100000 		.4byte	0x109d
 6532 106e 1C       		.uleb128 0x1c
 6533 106f E7060000 		.4byte	.LASF80
 6534 1073 01       		.byte	0x1
 6535 1074 9B04     		.2byte	0x49b
 6536 1076 E3040000 		.4byte	0x4e3
 6537 107a 01       		.uleb128 0x1
 6538 107b 50       		.byte	0x50
 6539 107c 1E       		.uleb128 0x1e
 6540 107d 4F000000 		.4byte	.LASF144
 6541 1081 01       		.byte	0x1
 6542 1082 9B04     		.2byte	0x49b
 6543 1084 A2000000 		.4byte	0xa2
 6544 1088 EC060000 		.4byte	.LLST31
 6545 108c 1D       		.uleb128 0x1d
 6546 108d 57010000 		.4byte	.LASF89
 6547 1091 01       		.byte	0x1
 6548 1092 9D04     		.2byte	0x49d
 6549 1094 A2000000 		.4byte	0xa2
 6550 1098 0D070000 		.4byte	.LLST32
 6551 109c 00       		.byte	0
 6552 109d 1B       		.uleb128 0x1b
 6553 109e A1000000 		.4byte	.LASF147
 6554 10a2 01       		.byte	0x1
 6555 10a3 B804     		.2byte	0x4b8
 6556 10a5 00000000 		.4byte	.LFB139
 6557 10a9 14000000 		.4byte	.LFE139-.LFB139
 6558 10ad 01       		.uleb128 0x1
 6559 10ae 9C       		.byte	0x9c
ARM GAS  /var/folders/7z/kps_xzfj7sn5l5gkyq8s9db00000gn/T//ccc38Eju.s 			page 118


 6560 10af E2100000 		.4byte	0x10e2
 6561 10b3 1C       		.uleb128 0x1c
 6562 10b4 E7060000 		.4byte	.LASF80
 6563 10b8 01       		.byte	0x1
 6564 10b9 B804     		.2byte	0x4b8
 6565 10bb E3040000 		.4byte	0x4e3
 6566 10bf 01       		.uleb128 0x1
 6567 10c0 50       		.byte	0x50
 6568 10c1 1E       		.uleb128 0x1e
 6569 10c2 4F000000 		.4byte	.LASF144
 6570 10c6 01       		.byte	0x1
 6571 10c7 B804     		.2byte	0x4b8
 6572 10c9 A2000000 		.4byte	0xa2
 6573 10cd 42070000 		.4byte	.LLST33
 6574 10d1 1D       		.uleb128 0x1d
 6575 10d2 57010000 		.4byte	.LASF89
 6576 10d6 01       		.byte	0x1
 6577 10d7 BA04     		.2byte	0x4ba
 6578 10d9 A2000000 		.4byte	0xa2
 6579 10dd 63070000 		.4byte	.LLST34
 6580 10e1 00       		.byte	0
 6581 10e2 1B       		.uleb128 0x1b
 6582 10e3 1C040000 		.4byte	.LASF148
 6583 10e7 01       		.byte	0x1
 6584 10e8 D404     		.2byte	0x4d4
 6585 10ea 00000000 		.4byte	.LFB140
 6586 10ee 10000000 		.4byte	.LFE140-.LFB140
 6587 10f2 01       		.uleb128 0x1
 6588 10f3 9C       		.byte	0x9c
 6589 10f4 27110000 		.4byte	0x1127
 6590 10f8 1C       		.uleb128 0x1c
 6591 10f9 E7060000 		.4byte	.LASF80
 6592 10fd 01       		.byte	0x1
 6593 10fe D404     		.2byte	0x4d4
 6594 1100 E3040000 		.4byte	0x4e3
 6595 1104 01       		.uleb128 0x1
 6596 1105 50       		.byte	0x50
 6597 1106 1E       		.uleb128 0x1e
 6598 1107 C4020000 		.4byte	.LASF149
 6599 110b 01       		.byte	0x1
 6600 110c D404     		.2byte	0x4d4
 6601 110e A2000000 		.4byte	0xa2
 6602 1112 98070000 		.4byte	.LLST35
 6603 1116 1D       		.uleb128 0x1d
 6604 1117 4E010000 		.4byte	.LASF81
 6605 111b 01       		.byte	0x1
 6606 111c D604     		.2byte	0x4d6
 6607 111e A2000000 		.4byte	0xa2
 6608 1122 B9070000 		.4byte	.LLST36
 6609 1126 00       		.byte	0
 6610 1127 1B       		.uleb128 0x1b
 6611 1128 18020000 		.4byte	.LASF150
 6612 112c 01       		.byte	0x1
 6613 112d F204     		.2byte	0x4f2
 6614 112f 00000000 		.4byte	.LFB141
 6615 1133 14000000 		.4byte	.LFE141-.LFB141
 6616 1137 01       		.uleb128 0x1
ARM GAS  /var/folders/7z/kps_xzfj7sn5l5gkyq8s9db00000gn/T//ccc38Eju.s 			page 119


 6617 1138 9C       		.byte	0x9c
 6618 1139 6C110000 		.4byte	0x116c
 6619 113d 1C       		.uleb128 0x1c
 6620 113e E7060000 		.4byte	.LASF80
 6621 1142 01       		.byte	0x1
 6622 1143 F204     		.2byte	0x4f2
 6623 1145 E3040000 		.4byte	0x4e3
 6624 1149 01       		.uleb128 0x1
 6625 114a 50       		.byte	0x50
 6626 114b 1E       		.uleb128 0x1e
 6627 114c C4020000 		.4byte	.LASF149
 6628 1150 01       		.byte	0x1
 6629 1151 F204     		.2byte	0x4f2
 6630 1153 A2000000 		.4byte	0xa2
 6631 1157 EE070000 		.4byte	.LLST37
 6632 115b 1D       		.uleb128 0x1d
 6633 115c 4E010000 		.4byte	.LASF81
 6634 1160 01       		.byte	0x1
 6635 1161 F404     		.2byte	0x4f4
 6636 1163 A2000000 		.4byte	0xa2
 6637 1167 0F080000 		.4byte	.LLST38
 6638 116b 00       		.byte	0
 6639 116c 1B       		.uleb128 0x1b
 6640 116d 860E0000 		.4byte	.LASF151
 6641 1171 01       		.byte	0x1
 6642 1172 0F05     		.2byte	0x50f
 6643 1174 00000000 		.4byte	.LFB142
 6644 1178 10000000 		.4byte	.LFE142-.LFB142
 6645 117c 01       		.uleb128 0x1
 6646 117d 9C       		.byte	0x9c
 6647 117e B1110000 		.4byte	0x11b1
 6648 1182 1C       		.uleb128 0x1c
 6649 1183 E7060000 		.4byte	.LASF80
 6650 1187 01       		.byte	0x1
 6651 1188 0F05     		.2byte	0x50f
 6652 118a E3040000 		.4byte	0x4e3
 6653 118e 01       		.uleb128 0x1
 6654 118f 50       		.byte	0x50
 6655 1190 1E       		.uleb128 0x1e
 6656 1191 C4020000 		.4byte	.LASF149
 6657 1195 01       		.byte	0x1
 6658 1196 0F05     		.2byte	0x50f
 6659 1198 A2000000 		.4byte	0xa2
 6660 119c 44080000 		.4byte	.LLST39
 6661 11a0 1D       		.uleb128 0x1d
 6662 11a1 57010000 		.4byte	.LASF89
 6663 11a5 01       		.byte	0x1
 6664 11a6 1105     		.2byte	0x511
 6665 11a8 A2000000 		.4byte	0xa2
 6666 11ac 65080000 		.4byte	.LLST40
 6667 11b0 00       		.byte	0
 6668 11b1 1B       		.uleb128 0x1b
 6669 11b2 960C0000 		.4byte	.LASF152
 6670 11b6 01       		.byte	0x1
 6671 11b7 2C05     		.2byte	0x52c
 6672 11b9 00000000 		.4byte	.LFB143
 6673 11bd 14000000 		.4byte	.LFE143-.LFB143
ARM GAS  /var/folders/7z/kps_xzfj7sn5l5gkyq8s9db00000gn/T//ccc38Eju.s 			page 120


 6674 11c1 01       		.uleb128 0x1
 6675 11c2 9C       		.byte	0x9c
 6676 11c3 F6110000 		.4byte	0x11f6
 6677 11c7 1C       		.uleb128 0x1c
 6678 11c8 E7060000 		.4byte	.LASF80
 6679 11cc 01       		.byte	0x1
 6680 11cd 2C05     		.2byte	0x52c
 6681 11cf E3040000 		.4byte	0x4e3
 6682 11d3 01       		.uleb128 0x1
 6683 11d4 50       		.byte	0x50
 6684 11d5 1E       		.uleb128 0x1e
 6685 11d6 C4020000 		.4byte	.LASF149
 6686 11da 01       		.byte	0x1
 6687 11db 2C05     		.2byte	0x52c
 6688 11dd A2000000 		.4byte	0xa2
 6689 11e1 9A080000 		.4byte	.LLST41
 6690 11e5 1D       		.uleb128 0x1d
 6691 11e6 57010000 		.4byte	.LASF89
 6692 11ea 01       		.byte	0x1
 6693 11eb 2E05     		.2byte	0x52e
 6694 11ed A2000000 		.4byte	0xa2
 6695 11f1 BB080000 		.4byte	.LLST42
 6696 11f5 00       		.byte	0
 6697 11f6 1B       		.uleb128 0x1b
 6698 11f7 AF0E0000 		.4byte	.LASF153
 6699 11fb 01       		.byte	0x1
 6700 11fc 4905     		.2byte	0x549
 6701 11fe 00000000 		.4byte	.LFB144
 6702 1202 10000000 		.4byte	.LFE144-.LFB144
 6703 1206 01       		.uleb128 0x1
 6704 1207 9C       		.byte	0x9c
 6705 1208 3B120000 		.4byte	0x123b
 6706 120c 1C       		.uleb128 0x1c
 6707 120d E7060000 		.4byte	.LASF80
 6708 1211 01       		.byte	0x1
 6709 1212 4905     		.2byte	0x549
 6710 1214 E3040000 		.4byte	0x4e3
 6711 1218 01       		.uleb128 0x1
 6712 1219 50       		.byte	0x50
 6713 121a 1E       		.uleb128 0x1e
 6714 121b 4F020000 		.4byte	.LASF154
 6715 121f 01       		.byte	0x1
 6716 1220 4905     		.2byte	0x549
 6717 1222 A2000000 		.4byte	0xa2
 6718 1226 F0080000 		.4byte	.LLST43
 6719 122a 1D       		.uleb128 0x1d
 6720 122b 4E010000 		.4byte	.LASF81
 6721 122f 01       		.byte	0x1
 6722 1230 4B05     		.2byte	0x54b
 6723 1232 A2000000 		.4byte	0xa2
 6724 1236 11090000 		.4byte	.LLST44
 6725 123a 00       		.byte	0
 6726 123b 1B       		.uleb128 0x1b
 6727 123c 260B0000 		.4byte	.LASF155
 6728 1240 01       		.byte	0x1
 6729 1241 6805     		.2byte	0x568
 6730 1243 00000000 		.4byte	.LFB145
ARM GAS  /var/folders/7z/kps_xzfj7sn5l5gkyq8s9db00000gn/T//ccc38Eju.s 			page 121


 6731 1247 14000000 		.4byte	.LFE145-.LFB145
 6732 124b 01       		.uleb128 0x1
 6733 124c 9C       		.byte	0x9c
 6734 124d 80120000 		.4byte	0x1280
 6735 1251 1C       		.uleb128 0x1c
 6736 1252 E7060000 		.4byte	.LASF80
 6737 1256 01       		.byte	0x1
 6738 1257 6805     		.2byte	0x568
 6739 1259 E3040000 		.4byte	0x4e3
 6740 125d 01       		.uleb128 0x1
 6741 125e 50       		.byte	0x50
 6742 125f 1E       		.uleb128 0x1e
 6743 1260 4F020000 		.4byte	.LASF154
 6744 1264 01       		.byte	0x1
 6745 1265 6805     		.2byte	0x568
 6746 1267 A2000000 		.4byte	0xa2
 6747 126b 46090000 		.4byte	.LLST45
 6748 126f 1D       		.uleb128 0x1d
 6749 1270 4E010000 		.4byte	.LASF81
 6750 1274 01       		.byte	0x1
 6751 1275 6A05     		.2byte	0x56a
 6752 1277 A2000000 		.4byte	0xa2
 6753 127b 67090000 		.4byte	.LLST46
 6754 127f 00       		.byte	0
 6755 1280 1B       		.uleb128 0x1b
 6756 1281 740E0000 		.4byte	.LASF156
 6757 1285 01       		.byte	0x1
 6758 1286 8605     		.2byte	0x586
 6759 1288 00000000 		.4byte	.LFB146
 6760 128c 10000000 		.4byte	.LFE146-.LFB146
 6761 1290 01       		.uleb128 0x1
 6762 1291 9C       		.byte	0x9c
 6763 1292 C5120000 		.4byte	0x12c5
 6764 1296 1C       		.uleb128 0x1c
 6765 1297 E7060000 		.4byte	.LASF80
 6766 129b 01       		.byte	0x1
 6767 129c 8605     		.2byte	0x586
 6768 129e E3040000 		.4byte	0x4e3
 6769 12a2 01       		.uleb128 0x1
 6770 12a3 50       		.byte	0x50
 6771 12a4 1E       		.uleb128 0x1e
 6772 12a5 4F020000 		.4byte	.LASF154
 6773 12a9 01       		.byte	0x1
 6774 12aa 8605     		.2byte	0x586
 6775 12ac A2000000 		.4byte	0xa2
 6776 12b0 9C090000 		.4byte	.LLST47
 6777 12b4 1D       		.uleb128 0x1d
 6778 12b5 57010000 		.4byte	.LASF89
 6779 12b9 01       		.byte	0x1
 6780 12ba 8805     		.2byte	0x588
 6781 12bc A2000000 		.4byte	0xa2
 6782 12c0 BD090000 		.4byte	.LLST48
 6783 12c4 00       		.byte	0
 6784 12c5 1B       		.uleb128 0x1b
 6785 12c6 380B0000 		.4byte	.LASF157
 6786 12ca 01       		.byte	0x1
 6787 12cb A405     		.2byte	0x5a4
ARM GAS  /var/folders/7z/kps_xzfj7sn5l5gkyq8s9db00000gn/T//ccc38Eju.s 			page 122


 6788 12cd 00000000 		.4byte	.LFB147
 6789 12d1 14000000 		.4byte	.LFE147-.LFB147
 6790 12d5 01       		.uleb128 0x1
 6791 12d6 9C       		.byte	0x9c
 6792 12d7 0A130000 		.4byte	0x130a
 6793 12db 1C       		.uleb128 0x1c
 6794 12dc E7060000 		.4byte	.LASF80
 6795 12e0 01       		.byte	0x1
 6796 12e1 A405     		.2byte	0x5a4
 6797 12e3 E3040000 		.4byte	0x4e3
 6798 12e7 01       		.uleb128 0x1
 6799 12e8 50       		.byte	0x50
 6800 12e9 1E       		.uleb128 0x1e
 6801 12ea 4F020000 		.4byte	.LASF154
 6802 12ee 01       		.byte	0x1
 6803 12ef A405     		.2byte	0x5a4
 6804 12f1 A2000000 		.4byte	0xa2
 6805 12f5 F2090000 		.4byte	.LLST49
 6806 12f9 1D       		.uleb128 0x1d
 6807 12fa 57010000 		.4byte	.LASF89
 6808 12fe 01       		.byte	0x1
 6809 12ff A605     		.2byte	0x5a6
 6810 1301 A2000000 		.4byte	0xa2
 6811 1305 130A0000 		.4byte	.LLST50
 6812 1309 00       		.byte	0
 6813 130a 1B       		.uleb128 0x1b
 6814 130b B5000000 		.4byte	.LASF158
 6815 130f 01       		.byte	0x1
 6816 1310 C205     		.2byte	0x5c2
 6817 1312 00000000 		.4byte	.LFB148
 6818 1316 10000000 		.4byte	.LFE148-.LFB148
 6819 131a 01       		.uleb128 0x1
 6820 131b 9C       		.byte	0x9c
 6821 131c 4F130000 		.4byte	0x134f
 6822 1320 1C       		.uleb128 0x1c
 6823 1321 E7060000 		.4byte	.LASF80
 6824 1325 01       		.byte	0x1
 6825 1326 C205     		.2byte	0x5c2
 6826 1328 E3040000 		.4byte	0x4e3
 6827 132c 01       		.uleb128 0x1
 6828 132d 50       		.byte	0x50
 6829 132e 1E       		.uleb128 0x1e
 6830 132f 450E0000 		.4byte	.LASF159
 6831 1333 01       		.byte	0x1
 6832 1334 C205     		.2byte	0x5c2
 6833 1336 A2000000 		.4byte	0xa2
 6834 133a 480A0000 		.4byte	.LLST51
 6835 133e 1D       		.uleb128 0x1d
 6836 133f 4E010000 		.4byte	.LASF81
 6837 1343 01       		.byte	0x1
 6838 1344 C405     		.2byte	0x5c4
 6839 1346 A2000000 		.4byte	0xa2
 6840 134a 690A0000 		.4byte	.LLST52
 6841 134e 00       		.byte	0
 6842 134f 1B       		.uleb128 0x1b
 6843 1350 0B0E0000 		.4byte	.LASF160
 6844 1354 01       		.byte	0x1
ARM GAS  /var/folders/7z/kps_xzfj7sn5l5gkyq8s9db00000gn/T//ccc38Eju.s 			page 123


 6845 1355 E005     		.2byte	0x5e0
 6846 1357 00000000 		.4byte	.LFB149
 6847 135b 10000000 		.4byte	.LFE149-.LFB149
 6848 135f 01       		.uleb128 0x1
 6849 1360 9C       		.byte	0x9c
 6850 1361 94130000 		.4byte	0x1394
 6851 1365 1C       		.uleb128 0x1c
 6852 1366 E7060000 		.4byte	.LASF80
 6853 136a 01       		.byte	0x1
 6854 136b E005     		.2byte	0x5e0
 6855 136d E3040000 		.4byte	0x4e3
 6856 1371 01       		.uleb128 0x1
 6857 1372 50       		.byte	0x50
 6858 1373 1E       		.uleb128 0x1e
 6859 1374 450E0000 		.4byte	.LASF159
 6860 1378 01       		.byte	0x1
 6861 1379 E005     		.2byte	0x5e0
 6862 137b A2000000 		.4byte	0xa2
 6863 137f 9E0A0000 		.4byte	.LLST53
 6864 1383 1D       		.uleb128 0x1d
 6865 1384 4E010000 		.4byte	.LASF81
 6866 1388 01       		.byte	0x1
 6867 1389 E205     		.2byte	0x5e2
 6868 138b A2000000 		.4byte	0xa2
 6869 138f BF0A0000 		.4byte	.LLST54
 6870 1393 00       		.byte	0
 6871 1394 1B       		.uleb128 0x1b
 6872 1395 13080000 		.4byte	.LASF161
 6873 1399 01       		.byte	0x1
 6874 139a FD05     		.2byte	0x5fd
 6875 139c 00000000 		.4byte	.LFB150
 6876 13a0 10000000 		.4byte	.LFE150-.LFB150
 6877 13a4 01       		.uleb128 0x1
 6878 13a5 9C       		.byte	0x9c
 6879 13a6 D9130000 		.4byte	0x13d9
 6880 13aa 1C       		.uleb128 0x1c
 6881 13ab E7060000 		.4byte	.LASF80
 6882 13af 01       		.byte	0x1
 6883 13b0 FD05     		.2byte	0x5fd
 6884 13b2 E3040000 		.4byte	0x4e3
 6885 13b6 01       		.uleb128 0x1
 6886 13b7 50       		.byte	0x50
 6887 13b8 1E       		.uleb128 0x1e
 6888 13b9 450E0000 		.4byte	.LASF159
 6889 13bd 01       		.byte	0x1
 6890 13be FD05     		.2byte	0x5fd
 6891 13c0 A2000000 		.4byte	0xa2
 6892 13c4 E90A0000 		.4byte	.LLST55
 6893 13c8 1D       		.uleb128 0x1d
 6894 13c9 57010000 		.4byte	.LASF89
 6895 13cd 01       		.byte	0x1
 6896 13ce FF05     		.2byte	0x5ff
 6897 13d0 A2000000 		.4byte	0xa2
 6898 13d4 0A0B0000 		.4byte	.LLST56
 6899 13d8 00       		.byte	0
 6900 13d9 1B       		.uleb128 0x1b
 6901 13da D70C0000 		.4byte	.LASF162
ARM GAS  /var/folders/7z/kps_xzfj7sn5l5gkyq8s9db00000gn/T//ccc38Eju.s 			page 124


 6902 13de 01       		.byte	0x1
 6903 13df 1A06     		.2byte	0x61a
 6904 13e1 00000000 		.4byte	.LFB151
 6905 13e5 10000000 		.4byte	.LFE151-.LFB151
 6906 13e9 01       		.uleb128 0x1
 6907 13ea 9C       		.byte	0x9c
 6908 13eb 1E140000 		.4byte	0x141e
 6909 13ef 1C       		.uleb128 0x1c
 6910 13f0 E7060000 		.4byte	.LASF80
 6911 13f4 01       		.byte	0x1
 6912 13f5 1A06     		.2byte	0x61a
 6913 13f7 E3040000 		.4byte	0x4e3
 6914 13fb 01       		.uleb128 0x1
 6915 13fc 50       		.byte	0x50
 6916 13fd 1E       		.uleb128 0x1e
 6917 13fe 450E0000 		.4byte	.LASF159
 6918 1402 01       		.byte	0x1
 6919 1403 1A06     		.2byte	0x61a
 6920 1405 A2000000 		.4byte	0xa2
 6921 1409 3F0B0000 		.4byte	.LLST57
 6922 140d 1D       		.uleb128 0x1d
 6923 140e 57010000 		.4byte	.LASF89
 6924 1412 01       		.byte	0x1
 6925 1413 1C06     		.2byte	0x61c
 6926 1415 A2000000 		.4byte	0xa2
 6927 1419 600B0000 		.4byte	.LLST58
 6928 141d 00       		.byte	0
 6929 141e 1B       		.uleb128 0x1b
 6930 141f 30080000 		.4byte	.LASF163
 6931 1423 01       		.byte	0x1
 6932 1424 3706     		.2byte	0x637
 6933 1426 00000000 		.4byte	.LFB152
 6934 142a 10000000 		.4byte	.LFE152-.LFB152
 6935 142e 01       		.uleb128 0x1
 6936 142f 9C       		.byte	0x9c
 6937 1430 63140000 		.4byte	0x1463
 6938 1434 1C       		.uleb128 0x1c
 6939 1435 E7060000 		.4byte	.LASF80
 6940 1439 01       		.byte	0x1
 6941 143a 3706     		.2byte	0x637
 6942 143c E3040000 		.4byte	0x4e3
 6943 1440 01       		.uleb128 0x1
 6944 1441 50       		.byte	0x50
 6945 1442 1E       		.uleb128 0x1e
 6946 1443 F3050000 		.4byte	.LASF61
 6947 1447 01       		.byte	0x1
 6948 1448 3706     		.2byte	0x637
 6949 144a A2000000 		.4byte	0xa2
 6950 144e 8A0B0000 		.4byte	.LLST59
 6951 1452 1D       		.uleb128 0x1d
 6952 1453 BC050000 		.4byte	.LASF82
 6953 1457 01       		.byte	0x1
 6954 1458 3906     		.2byte	0x639
 6955 145a A2000000 		.4byte	0xa2
 6956 145e AB0B0000 		.4byte	.LLST60
 6957 1462 00       		.byte	0
 6958 1463 1B       		.uleb128 0x1b
ARM GAS  /var/folders/7z/kps_xzfj7sn5l5gkyq8s9db00000gn/T//ccc38Eju.s 			page 125


 6959 1464 F90C0000 		.4byte	.LASF164
 6960 1468 01       		.byte	0x1
 6961 1469 5206     		.2byte	0x652
 6962 146b 00000000 		.4byte	.LFB153
 6963 146f 10000000 		.4byte	.LFE153-.LFB153
 6964 1473 01       		.uleb128 0x1
 6965 1474 9C       		.byte	0x9c
 6966 1475 A8140000 		.4byte	0x14a8
 6967 1479 1C       		.uleb128 0x1c
 6968 147a E7060000 		.4byte	.LASF80
 6969 147e 01       		.byte	0x1
 6970 147f 5206     		.2byte	0x652
 6971 1481 E3040000 		.4byte	0x4e3
 6972 1485 01       		.uleb128 0x1
 6973 1486 50       		.byte	0x50
 6974 1487 1E       		.uleb128 0x1e
 6975 1488 5C0B0000 		.4byte	.LASF62
 6976 148c 01       		.byte	0x1
 6977 148d 5206     		.2byte	0x652
 6978 148f A2000000 		.4byte	0xa2
 6979 1493 E00B0000 		.4byte	.LLST61
 6980 1497 1D       		.uleb128 0x1d
 6981 1498 BC050000 		.4byte	.LASF82
 6982 149c 01       		.byte	0x1
 6983 149d 5406     		.2byte	0x654
 6984 149f A2000000 		.4byte	0xa2
 6985 14a3 010C0000 		.4byte	.LLST62
 6986 14a7 00       		.byte	0
 6987 14a8 1B       		.uleb128 0x1b
 6988 14a9 B0010000 		.4byte	.LASF165
 6989 14ad 01       		.byte	0x1
 6990 14ae 6D06     		.2byte	0x66d
 6991 14b0 00000000 		.4byte	.LFB154
 6992 14b4 14000000 		.4byte	.LFE154-.LFB154
 6993 14b8 01       		.uleb128 0x1
 6994 14b9 9C       		.byte	0x9c
 6995 14ba ED140000 		.4byte	0x14ed
 6996 14be 1C       		.uleb128 0x1c
 6997 14bf E7060000 		.4byte	.LASF80
 6998 14c3 01       		.byte	0x1
 6999 14c4 6D06     		.2byte	0x66d
 7000 14c6 E3040000 		.4byte	0x4e3
 7001 14ca 01       		.uleb128 0x1
 7002 14cb 50       		.byte	0x50
 7003 14cc 1E       		.uleb128 0x1e
 7004 14cd F3050000 		.4byte	.LASF61
 7005 14d1 01       		.byte	0x1
 7006 14d2 6D06     		.2byte	0x66d
 7007 14d4 A2000000 		.4byte	0xa2
 7008 14d8 360C0000 		.4byte	.LLST63
 7009 14dc 1D       		.uleb128 0x1d
 7010 14dd BC050000 		.4byte	.LASF82
 7011 14e1 01       		.byte	0x1
 7012 14e2 6F06     		.2byte	0x66f
 7013 14e4 A2000000 		.4byte	0xa2
 7014 14e8 570C0000 		.4byte	.LLST64
 7015 14ec 00       		.byte	0
ARM GAS  /var/folders/7z/kps_xzfj7sn5l5gkyq8s9db00000gn/T//ccc38Eju.s 			page 126


 7016 14ed 1B       		.uleb128 0x1b
 7017 14ee C4050000 		.4byte	.LASF166
 7018 14f2 01       		.byte	0x1
 7019 14f3 8806     		.2byte	0x688
 7020 14f5 00000000 		.4byte	.LFB155
 7021 14f9 14000000 		.4byte	.LFE155-.LFB155
 7022 14fd 01       		.uleb128 0x1
 7023 14fe 9C       		.byte	0x9c
 7024 14ff 32150000 		.4byte	0x1532
 7025 1503 1C       		.uleb128 0x1c
 7026 1504 E7060000 		.4byte	.LASF80
 7027 1508 01       		.byte	0x1
 7028 1509 8806     		.2byte	0x688
 7029 150b E3040000 		.4byte	0x4e3
 7030 150f 01       		.uleb128 0x1
 7031 1510 50       		.byte	0x50
 7032 1511 1E       		.uleb128 0x1e
 7033 1512 5C0B0000 		.4byte	.LASF62
 7034 1516 01       		.byte	0x1
 7035 1517 8806     		.2byte	0x688
 7036 1519 A2000000 		.4byte	0xa2
 7037 151d 8C0C0000 		.4byte	.LLST65
 7038 1521 1D       		.uleb128 0x1d
 7039 1522 BC050000 		.4byte	.LASF82
 7040 1526 01       		.byte	0x1
 7041 1527 8A06     		.2byte	0x68a
 7042 1529 A2000000 		.4byte	0xa2
 7043 152d AD0C0000 		.4byte	.LLST66
 7044 1531 00       		.byte	0
 7045 1532 1B       		.uleb128 0x1b
 7046 1533 810D0000 		.4byte	.LASF167
 7047 1537 01       		.byte	0x1
 7048 1538 A306     		.2byte	0x6a3
 7049 153a 00000000 		.4byte	.LFB156
 7050 153e 14000000 		.4byte	.LFE156-.LFB156
 7051 1542 01       		.uleb128 0x1
 7052 1543 9C       		.byte	0x9c
 7053 1544 77150000 		.4byte	0x1577
 7054 1548 1C       		.uleb128 0x1c
 7055 1549 E7060000 		.4byte	.LASF80
 7056 154d 01       		.byte	0x1
 7057 154e A306     		.2byte	0x6a3
 7058 1550 E3040000 		.4byte	0x4e3
 7059 1554 01       		.uleb128 0x1
 7060 1555 50       		.byte	0x50
 7061 1556 1E       		.uleb128 0x1e
 7062 1557 F3050000 		.4byte	.LASF61
 7063 155b 01       		.byte	0x1
 7064 155c A306     		.2byte	0x6a3
 7065 155e A2000000 		.4byte	0xa2
 7066 1562 E20C0000 		.4byte	.LLST67
 7067 1566 1D       		.uleb128 0x1d
 7068 1567 BC050000 		.4byte	.LASF82
 7069 156b 01       		.byte	0x1
 7070 156c A506     		.2byte	0x6a5
 7071 156e A2000000 		.4byte	0xa2
 7072 1572 030D0000 		.4byte	.LLST68
ARM GAS  /var/folders/7z/kps_xzfj7sn5l5gkyq8s9db00000gn/T//ccc38Eju.s 			page 127


 7073 1576 00       		.byte	0
 7074 1577 1B       		.uleb128 0x1b
 7075 1578 900A0000 		.4byte	.LASF168
 7076 157c 01       		.byte	0x1
 7077 157d BE06     		.2byte	0x6be
 7078 157f 00000000 		.4byte	.LFB157
 7079 1583 14000000 		.4byte	.LFE157-.LFB157
 7080 1587 01       		.uleb128 0x1
 7081 1588 9C       		.byte	0x9c
 7082 1589 BC150000 		.4byte	0x15bc
 7083 158d 1C       		.uleb128 0x1c
 7084 158e E7060000 		.4byte	.LASF80
 7085 1592 01       		.byte	0x1
 7086 1593 BE06     		.2byte	0x6be
 7087 1595 E3040000 		.4byte	0x4e3
 7088 1599 01       		.uleb128 0x1
 7089 159a 50       		.byte	0x50
 7090 159b 1E       		.uleb128 0x1e
 7091 159c 5C0B0000 		.4byte	.LASF62
 7092 15a0 01       		.byte	0x1
 7093 15a1 BE06     		.2byte	0x6be
 7094 15a3 A2000000 		.4byte	0xa2
 7095 15a7 380D0000 		.4byte	.LLST69
 7096 15ab 1D       		.uleb128 0x1d
 7097 15ac BC050000 		.4byte	.LASF82
 7098 15b0 01       		.byte	0x1
 7099 15b1 C006     		.2byte	0x6c0
 7100 15b3 A2000000 		.4byte	0xa2
 7101 15b7 590D0000 		.4byte	.LLST70
 7102 15bb 00       		.byte	0
 7103 15bc 1B       		.uleb128 0x1b
 7104 15bd FC060000 		.4byte	.LASF169
 7105 15c1 01       		.byte	0x1
 7106 15c2 D906     		.2byte	0x6d9
 7107 15c4 00000000 		.4byte	.LFB158
 7108 15c8 14000000 		.4byte	.LFE158-.LFB158
 7109 15cc 01       		.uleb128 0x1
 7110 15cd 9C       		.byte	0x9c
 7111 15ce 01160000 		.4byte	0x1601
 7112 15d2 1C       		.uleb128 0x1c
 7113 15d3 E7060000 		.4byte	.LASF80
 7114 15d7 01       		.byte	0x1
 7115 15d8 D906     		.2byte	0x6d9
 7116 15da E3040000 		.4byte	0x4e3
 7117 15de 01       		.uleb128 0x1
 7118 15df 50       		.byte	0x50
 7119 15e0 1E       		.uleb128 0x1e
 7120 15e1 F3050000 		.4byte	.LASF61
 7121 15e5 01       		.byte	0x1
 7122 15e6 D906     		.2byte	0x6d9
 7123 15e8 A2000000 		.4byte	0xa2
 7124 15ec 8E0D0000 		.4byte	.LLST71
 7125 15f0 1D       		.uleb128 0x1d
 7126 15f1 BC050000 		.4byte	.LASF82
 7127 15f5 01       		.byte	0x1
 7128 15f6 DB06     		.2byte	0x6db
 7129 15f8 A2000000 		.4byte	0xa2
ARM GAS  /var/folders/7z/kps_xzfj7sn5l5gkyq8s9db00000gn/T//ccc38Eju.s 			page 128


 7130 15fc AF0D0000 		.4byte	.LLST72
 7131 1600 00       		.byte	0
 7132 1601 1B       		.uleb128 0x1b
 7133 1602 A2020000 		.4byte	.LASF170
 7134 1606 01       		.byte	0x1
 7135 1607 F806     		.2byte	0x6f8
 7136 1609 00000000 		.4byte	.LFB159
 7137 160d 20000000 		.4byte	.LFE159-.LFB159
 7138 1611 01       		.uleb128 0x1
 7139 1612 9C       		.byte	0x9c
 7140 1613 50160000 		.4byte	0x1650
 7141 1617 1C       		.uleb128 0x1c
 7142 1618 E7060000 		.4byte	.LASF80
 7143 161c 01       		.byte	0x1
 7144 161d F806     		.2byte	0x6f8
 7145 161f E3040000 		.4byte	0x4e3
 7146 1623 01       		.uleb128 0x1
 7147 1624 50       		.byte	0x50
 7148 1625 1C       		.uleb128 0x1c
 7149 1626 5A020000 		.4byte	.LASF66
 7150 162a 01       		.byte	0x1
 7151 162b F806     		.2byte	0x6f8
 7152 162d A2000000 		.4byte	0xa2
 7153 1631 01       		.uleb128 0x1
 7154 1632 51       		.byte	0x51
 7155 1633 1E       		.uleb128 0x1e
 7156 1634 36090000 		.4byte	.LASF171
 7157 1638 01       		.byte	0x1
 7158 1639 F806     		.2byte	0x6f8
 7159 163b A2000000 		.4byte	0xa2
 7160 163f E40D0000 		.4byte	.LLST73
 7161 1643 14       		.uleb128 0x14
 7162 1644 746D7000 		.ascii	"tmp\000"
 7163 1648 01       		.byte	0x1
 7164 1649 FA06     		.2byte	0x6fa
 7165 164b A2000000 		.4byte	0xa2
 7166 164f 00       		.byte	0
 7167 1650 1B       		.uleb128 0x1b
 7168 1651 6A080000 		.4byte	.LASF172
 7169 1655 01       		.byte	0x1
 7170 1656 1607     		.2byte	0x716
 7171 1658 00000000 		.4byte	.LFB160
 7172 165c 20000000 		.4byte	.LFE160-.LFB160
 7173 1660 01       		.uleb128 0x1
 7174 1661 9C       		.byte	0x9c
 7175 1662 9F160000 		.4byte	0x169f
 7176 1666 1C       		.uleb128 0x1c
 7177 1667 E7060000 		.4byte	.LASF80
 7178 166b 01       		.byte	0x1
 7179 166c 1607     		.2byte	0x716
 7180 166e E3040000 		.4byte	0x4e3
 7181 1672 01       		.uleb128 0x1
 7182 1673 50       		.byte	0x50
 7183 1674 1C       		.uleb128 0x1c
 7184 1675 5A020000 		.4byte	.LASF66
 7185 1679 01       		.byte	0x1
 7186 167a 1607     		.2byte	0x716
ARM GAS  /var/folders/7z/kps_xzfj7sn5l5gkyq8s9db00000gn/T//ccc38Eju.s 			page 129


 7187 167c A2000000 		.4byte	0xa2
 7188 1680 01       		.uleb128 0x1
 7189 1681 51       		.byte	0x51
 7190 1682 1E       		.uleb128 0x1e
 7191 1683 E1030000 		.4byte	.LASF173
 7192 1687 01       		.byte	0x1
 7193 1688 1607     		.2byte	0x716
 7194 168a A2000000 		.4byte	0xa2
 7195 168e 050E0000 		.4byte	.LLST74
 7196 1692 14       		.uleb128 0x14
 7197 1693 746D7000 		.ascii	"tmp\000"
 7198 1697 01       		.byte	0x1
 7199 1698 1807     		.2byte	0x718
 7200 169a A2000000 		.4byte	0xa2
 7201 169e 00       		.byte	0
 7202 169f 1B       		.uleb128 0x1b
 7203 16a0 1D0C0000 		.4byte	.LASF174
 7204 16a4 01       		.byte	0x1
 7205 16a5 6807     		.2byte	0x768
 7206 16a7 00000000 		.4byte	.LFB161
 7207 16ab 68010000 		.4byte	.LFE161-.LFB161
 7208 16af 01       		.uleb128 0x1
 7209 16b0 9C       		.byte	0x9c
 7210 16b1 C3180000 		.4byte	0x18c3
 7211 16b5 1C       		.uleb128 0x1c
 7212 16b6 E7060000 		.4byte	.LASF80
 7213 16ba 01       		.byte	0x1
 7214 16bb 6807     		.2byte	0x768
 7215 16bd E3040000 		.4byte	0x4e3
 7216 16c1 01       		.uleb128 0x1
 7217 16c2 50       		.byte	0x50
 7218 16c3 1E       		.uleb128 0x1e
 7219 16c4 E70D0000 		.4byte	.LASF175
 7220 16c8 01       		.byte	0x1
 7221 16c9 6807     		.2byte	0x768
 7222 16cb C3180000 		.4byte	0x18c3
 7223 16cf 260E0000 		.4byte	.LLST75
 7224 16d3 21       		.uleb128 0x21
 7225 16d4 1F060000 		.4byte	0x61f
 7226 16d8 12000000 		.4byte	.LBB46
 7227 16dc 00000000 		.4byte	.Ldebug_ranges0+0
 7228 16e0 01       		.byte	0x1
 7229 16e1 9207     		.2byte	0x792
 7230 16e3 2D170000 		.4byte	0x172d
 7231 16e7 22       		.uleb128 0x22
 7232 16e8 50060000 		.4byte	0x650
 7233 16ec 920E0000 		.4byte	.LLST76
 7234 16f0 22       		.uleb128 0x22
 7235 16f1 44060000 		.4byte	0x644
 7236 16f5 A50E0000 		.4byte	.LLST77
 7237 16f9 22       		.uleb128 0x22
 7238 16fa 38060000 		.4byte	0x638
 7239 16fe B80E0000 		.4byte	.LLST78
 7240 1702 22       		.uleb128 0x22
 7241 1703 2C060000 		.4byte	0x62c
 7242 1707 CB0E0000 		.4byte	.LLST79
 7243 170b 23       		.uleb128 0x23
ARM GAS  /var/folders/7z/kps_xzfj7sn5l5gkyq8s9db00000gn/T//ccc38Eju.s 			page 130


 7244 170c 00000000 		.4byte	.Ldebug_ranges0+0
 7245 1710 24       		.uleb128 0x24
 7246 1711 5C060000 		.4byte	0x65c
 7247 1715 DE0E0000 		.4byte	.LLST80
 7248 1719 24       		.uleb128 0x24
 7249 171a 68060000 		.4byte	0x668
 7250 171e 2F0F0000 		.4byte	.LLST81
 7251 1722 24       		.uleb128 0x24
 7252 1723 74060000 		.4byte	0x674
 7253 1727 590F0000 		.4byte	.LLST82
 7254 172b 00       		.byte	0
 7255 172c 00       		.byte	0
 7256 172d 25       		.uleb128 0x25
 7257 172e 81060000 		.4byte	0x681
 7258 1732 54000000 		.4byte	.LBB50
 7259 1736 1A000000 		.4byte	.LBE50-.LBB50
 7260 173a 01       		.byte	0x1
 7261 173b 9607     		.2byte	0x796
 7262 173d 54170000 		.4byte	0x1754
 7263 1741 22       		.uleb128 0x22
 7264 1742 9A060000 		.4byte	0x69a
 7265 1746 7C0F0000 		.4byte	.LLST83
 7266 174a 22       		.uleb128 0x22
 7267 174b 8E060000 		.4byte	0x68e
 7268 174f 8F0F0000 		.4byte	.LLST84
 7269 1753 00       		.byte	0
 7270 1754 21       		.uleb128 0x21
 7271 1755 8D040000 		.4byte	0x48d
 7272 1759 6E000000 		.4byte	.LBB52
 7273 175d 18000000 		.4byte	.Ldebug_ranges0+0x18
 7274 1761 01       		.byte	0x1
 7275 1762 7407     		.2byte	0x774
 7276 1764 A5170000 		.4byte	0x17a5
 7277 1768 22       		.uleb128 0x22
 7278 1769 BE040000 		.4byte	0x4be
 7279 176d A20F0000 		.4byte	.LLST85
 7280 1771 22       		.uleb128 0x22
 7281 1772 B2040000 		.4byte	0x4b2
 7282 1776 C40F0000 		.4byte	.LLST86
 7283 177a 22       		.uleb128 0x22
 7284 177b A6040000 		.4byte	0x4a6
 7285 177f D70F0000 		.4byte	.LLST87
 7286 1783 22       		.uleb128 0x22
 7287 1784 9A040000 		.4byte	0x49a
 7288 1788 EA0F0000 		.4byte	.LLST88
 7289 178c 23       		.uleb128 0x23
 7290 178d 18000000 		.4byte	.Ldebug_ranges0+0x18
 7291 1791 24       		.uleb128 0x24
 7292 1792 CA040000 		.4byte	0x4ca
 7293 1796 FD0F0000 		.4byte	.LLST89
 7294 179a 24       		.uleb128 0x24
 7295 179b D6040000 		.4byte	0x4d6
 7296 179f 2D100000 		.4byte	.LLST90
 7297 17a3 00       		.byte	0
 7298 17a4 00       		.byte	0
 7299 17a5 25       		.uleb128 0x25
 7300 17a6 E9040000 		.4byte	0x4e9
ARM GAS  /var/folders/7z/kps_xzfj7sn5l5gkyq8s9db00000gn/T//ccc38Eju.s 			page 131


 7301 17aa A6000000 		.4byte	.LBB56
 7302 17ae 16000000 		.4byte	.LBE56-.LBB56
 7303 17b2 01       		.byte	0x1
 7304 17b3 7807     		.2byte	0x778
 7305 17b5 CC170000 		.4byte	0x17cc
 7306 17b9 22       		.uleb128 0x22
 7307 17ba 02050000 		.4byte	0x502
 7308 17be 57100000 		.4byte	.LLST91
 7309 17c2 22       		.uleb128 0x22
 7310 17c3 F6040000 		.4byte	0x4f6
 7311 17c7 79100000 		.4byte	.LLST92
 7312 17cb 00       		.byte	0
 7313 17cc 21       		.uleb128 0x21
 7314 17cd 0F050000 		.4byte	0x50f
 7315 17d1 BC000000 		.4byte	.LBB58
 7316 17d5 30000000 		.4byte	.Ldebug_ranges0+0x30
 7317 17d9 01       		.byte	0x1
 7318 17da 7E07     		.2byte	0x77e
 7319 17dc 26180000 		.4byte	0x1826
 7320 17e0 22       		.uleb128 0x22
 7321 17e1 40050000 		.4byte	0x540
 7322 17e5 8C100000 		.4byte	.LLST93
 7323 17e9 22       		.uleb128 0x22
 7324 17ea 34050000 		.4byte	0x534
 7325 17ee 9F100000 		.4byte	.LLST94
 7326 17f2 22       		.uleb128 0x22
 7327 17f3 28050000 		.4byte	0x528
 7328 17f7 B2100000 		.4byte	.LLST95
 7329 17fb 22       		.uleb128 0x22
 7330 17fc 1C050000 		.4byte	0x51c
 7331 1800 C5100000 		.4byte	.LLST96
 7332 1804 23       		.uleb128 0x23
 7333 1805 30000000 		.4byte	.Ldebug_ranges0+0x30
 7334 1809 24       		.uleb128 0x24
 7335 180a 4C050000 		.4byte	0x54c
 7336 180e D8100000 		.4byte	.LLST97
 7337 1812 24       		.uleb128 0x24
 7338 1813 58050000 		.4byte	0x558
 7339 1817 18110000 		.4byte	.LLST98
 7340 181b 24       		.uleb128 0x24
 7341 181c 64050000 		.4byte	0x564
 7342 1820 5E110000 		.4byte	.LLST99
 7343 1824 00       		.byte	0
 7344 1825 00       		.byte	0
 7345 1826 25       		.uleb128 0x25
 7346 1827 71050000 		.4byte	0x571
 7347 182b FE000000 		.4byte	.LBB62
 7348 182f 1A000000 		.4byte	.LBE62-.LBB62
 7349 1833 01       		.byte	0x1
 7350 1834 8207     		.2byte	0x782
 7351 1836 4D180000 		.4byte	0x184d
 7352 183a 22       		.uleb128 0x22
 7353 183b 8A050000 		.4byte	0x58a
 7354 183f 81110000 		.4byte	.LLST100
 7355 1843 22       		.uleb128 0x22
 7356 1844 7E050000 		.4byte	0x57e
 7357 1848 94110000 		.4byte	.LLST101
ARM GAS  /var/folders/7z/kps_xzfj7sn5l5gkyq8s9db00000gn/T//ccc38Eju.s 			page 132


 7358 184c 00       		.byte	0
 7359 184d 21       		.uleb128 0x21
 7360 184e 97050000 		.4byte	0x597
 7361 1852 18010000 		.4byte	.LBB64
 7362 1856 48000000 		.4byte	.Ldebug_ranges0+0x48
 7363 185a 01       		.byte	0x1
 7364 185b 8807     		.2byte	0x788
 7365 185d A1180000 		.4byte	0x18a1
 7366 1861 22       		.uleb128 0x22
 7367 1862 C8050000 		.4byte	0x5c8
 7368 1866 A7110000 		.4byte	.LLST102
 7369 186a 26       		.uleb128 0x26
 7370 186b BC050000 		.4byte	0x5bc
 7371 186f 01       		.uleb128 0x1
 7372 1870 55       		.byte	0x55
 7373 1871 26       		.uleb128 0x26
 7374 1872 B0050000 		.4byte	0x5b0
 7375 1876 01       		.uleb128 0x1
 7376 1877 57       		.byte	0x57
 7377 1878 26       		.uleb128 0x26
 7378 1879 A4050000 		.4byte	0x5a4
 7379 187d 01       		.uleb128 0x1
 7380 187e 50       		.byte	0x50
 7381 187f 23       		.uleb128 0x23
 7382 1880 48000000 		.4byte	.Ldebug_ranges0+0x48
 7383 1884 24       		.uleb128 0x24
 7384 1885 D4050000 		.4byte	0x5d4
 7385 1889 C9110000 		.4byte	.LLST103
 7386 188d 24       		.uleb128 0x24
 7387 188e E0050000 		.4byte	0x5e0
 7388 1892 04120000 		.4byte	.LLST104
 7389 1896 24       		.uleb128 0x24
 7390 1897 EC050000 		.4byte	0x5ec
 7391 189b 3A120000 		.4byte	.LLST105
 7392 189f 00       		.byte	0
 7393 18a0 00       		.byte	0
 7394 18a1 27       		.uleb128 0x27
 7395 18a2 F9050000 		.4byte	0x5f9
 7396 18a6 52010000 		.4byte	.LBB68
 7397 18aa 16000000 		.4byte	.LBE68-.LBB68
 7398 18ae 01       		.byte	0x1
 7399 18af 8C07     		.2byte	0x78c
 7400 18b1 22       		.uleb128 0x22
 7401 18b2 12060000 		.4byte	0x612
 7402 18b6 5D120000 		.4byte	.LLST106
 7403 18ba 26       		.uleb128 0x26
 7404 18bb 06060000 		.4byte	0x606
 7405 18bf 01       		.uleb128 0x1
 7406 18c0 50       		.byte	0x50
 7407 18c1 00       		.byte	0
 7408 18c2 00       		.byte	0
 7409 18c3 12       		.uleb128 0x12
 7410 18c4 04       		.byte	0x4
 7411 18c5 1A040000 		.4byte	0x41a
 7412 18c9 1B       		.uleb128 0x1b
 7413 18ca 70030000 		.4byte	.LASF176
 7414 18ce 01       		.byte	0x1
ARM GAS  /var/folders/7z/kps_xzfj7sn5l5gkyq8s9db00000gn/T//ccc38Eju.s 			page 133


 7415 18cf A007     		.2byte	0x7a0
 7416 18d1 00000000 		.4byte	.LFB162
 7417 18d5 10000000 		.4byte	.LFE162-.LFB162
 7418 18d9 01       		.uleb128 0x1
 7419 18da 9C       		.byte	0x9c
 7420 18db EE180000 		.4byte	0x18ee
 7421 18df 1C       		.uleb128 0x1c
 7422 18e0 E70D0000 		.4byte	.LASF175
 7423 18e4 01       		.byte	0x1
 7424 18e5 A007     		.2byte	0x7a0
 7425 18e7 C3180000 		.4byte	0x18c3
 7426 18eb 01       		.uleb128 0x1
 7427 18ec 50       		.byte	0x50
 7428 18ed 00       		.byte	0
 7429 18ee 1B       		.uleb128 0x1b
 7430 18ef 52070000 		.4byte	.LASF177
 7431 18f3 01       		.byte	0x1
 7432 18f4 B307     		.2byte	0x7b3
 7433 18f6 00000000 		.4byte	.LFB163
 7434 18fa 56010000 		.4byte	.LFE163-.LFB163
 7435 18fe 01       		.uleb128 0x1
 7436 18ff 9C       		.byte	0x9c
 7437 1900 2B1B0000 		.4byte	0x1b2b
 7438 1904 1C       		.uleb128 0x1c
 7439 1905 E7060000 		.4byte	.LASF80
 7440 1909 01       		.byte	0x1
 7441 190a B307     		.2byte	0x7b3
 7442 190c E3040000 		.4byte	0x4e3
 7443 1910 01       		.uleb128 0x1
 7444 1911 50       		.byte	0x50
 7445 1912 1E       		.uleb128 0x1e
 7446 1913 E70D0000 		.4byte	.LASF175
 7447 1917 01       		.byte	0x1
 7448 1918 B307     		.2byte	0x7b3
 7449 191a C3180000 		.4byte	0x18c3
 7450 191e 7F120000 		.4byte	.LLST107
 7451 1922 1D       		.uleb128 0x1d
 7452 1923 BD030000 		.4byte	.LASF178
 7453 1927 01       		.byte	0x1
 7454 1928 B507     		.2byte	0x7b5
 7455 192a A2000000 		.4byte	0xa2
 7456 192e B9120000 		.4byte	.LLST108
 7457 1932 1D       		.uleb128 0x1d
 7458 1933 A5080000 		.4byte	.LASF179
 7459 1937 01       		.byte	0x1
 7460 1938 B607     		.2byte	0x7b6
 7461 193a A2000000 		.4byte	0xa2
 7462 193e E3120000 		.4byte	.LLST109
 7463 1942 21       		.uleb128 0x21
 7464 1943 0F050000 		.4byte	0x50f
 7465 1947 24000000 		.4byte	.LBB70
 7466 194b 60000000 		.4byte	.Ldebug_ranges0+0x60
 7467 194f 01       		.byte	0x1
 7468 1950 DC07     		.2byte	0x7dc
 7469 1952 9C190000 		.4byte	0x199c
 7470 1956 22       		.uleb128 0x22
 7471 1957 40050000 		.4byte	0x540
ARM GAS  /var/folders/7z/kps_xzfj7sn5l5gkyq8s9db00000gn/T//ccc38Eju.s 			page 134


 7472 195b 02130000 		.4byte	.LLST110
 7473 195f 22       		.uleb128 0x22
 7474 1960 34050000 		.4byte	0x534
 7475 1964 24130000 		.4byte	.LLST111
 7476 1968 22       		.uleb128 0x22
 7477 1969 28050000 		.4byte	0x528
 7478 196d 37130000 		.4byte	.LLST112
 7479 1971 22       		.uleb128 0x22
 7480 1972 1C050000 		.4byte	0x51c
 7481 1976 4A130000 		.4byte	.LLST113
 7482 197a 23       		.uleb128 0x23
 7483 197b 60000000 		.4byte	.Ldebug_ranges0+0x60
 7484 197f 24       		.uleb128 0x24
 7485 1980 4C050000 		.4byte	0x54c
 7486 1984 5D130000 		.4byte	.LLST114
 7487 1988 24       		.uleb128 0x24
 7488 1989 58050000 		.4byte	0x558
 7489 198d 9D130000 		.4byte	.LLST115
 7490 1991 24       		.uleb128 0x24
 7491 1992 64050000 		.4byte	0x564
 7492 1996 03140000 		.4byte	.LLST116
 7493 199a 00       		.byte	0
 7494 199b 00       		.byte	0
 7495 199c 25       		.uleb128 0x25
 7496 199d 71050000 		.4byte	0x571
 7497 19a1 60000000 		.4byte	.LBB74
 7498 19a5 18000000 		.4byte	.LBE74-.LBB74
 7499 19a9 01       		.byte	0x1
 7500 19aa DF07     		.2byte	0x7df
 7501 19ac C3190000 		.4byte	0x19c3
 7502 19b0 22       		.uleb128 0x22
 7503 19b1 8A050000 		.4byte	0x58a
 7504 19b5 26140000 		.4byte	.LLST117
 7505 19b9 22       		.uleb128 0x22
 7506 19ba 7E050000 		.4byte	0x57e
 7507 19be 48140000 		.4byte	.LLST118
 7508 19c2 00       		.byte	0
 7509 19c3 25       		.uleb128 0x25
 7510 19c4 8D040000 		.4byte	0x48d
 7511 19c8 78000000 		.4byte	.LBB76
 7512 19cc 2E000000 		.4byte	.LBE76-.LBB76
 7513 19d0 01       		.byte	0x1
 7514 19d1 E107     		.2byte	0x7e1
 7515 19d3 181A0000 		.4byte	0x1a18
 7516 19d7 22       		.uleb128 0x22
 7517 19d8 BE040000 		.4byte	0x4be
 7518 19dc 5B140000 		.4byte	.LLST119
 7519 19e0 22       		.uleb128 0x22
 7520 19e1 B2040000 		.4byte	0x4b2
 7521 19e5 7D140000 		.4byte	.LLST120
 7522 19e9 22       		.uleb128 0x22
 7523 19ea A6040000 		.4byte	0x4a6
 7524 19ee 90140000 		.4byte	.LLST121
 7525 19f2 22       		.uleb128 0x22
 7526 19f3 9A040000 		.4byte	0x49a
 7527 19f7 A3140000 		.4byte	.LLST122
 7528 19fb 28       		.uleb128 0x28
ARM GAS  /var/folders/7z/kps_xzfj7sn5l5gkyq8s9db00000gn/T//ccc38Eju.s 			page 135


 7529 19fc 78000000 		.4byte	.LBB77
 7530 1a00 2E000000 		.4byte	.LBE77-.LBB77
 7531 1a04 24       		.uleb128 0x24
 7532 1a05 CA040000 		.4byte	0x4ca
 7533 1a09 B6140000 		.4byte	.LLST123
 7534 1a0d 24       		.uleb128 0x24
 7535 1a0e D6040000 		.4byte	0x4d6
 7536 1a12 E0140000 		.4byte	.LLST124
 7537 1a16 00       		.byte	0
 7538 1a17 00       		.byte	0
 7539 1a18 25       		.uleb128 0x25
 7540 1a19 E9040000 		.4byte	0x4e9
 7541 1a1d A6000000 		.4byte	.LBB78
 7542 1a21 16000000 		.4byte	.LBE78-.LBB78
 7543 1a25 01       		.byte	0x1
 7544 1a26 E307     		.2byte	0x7e3
 7545 1a28 3F1A0000 		.4byte	0x1a3f
 7546 1a2c 22       		.uleb128 0x22
 7547 1a2d 02050000 		.4byte	0x502
 7548 1a31 0A150000 		.4byte	.LLST125
 7549 1a35 22       		.uleb128 0x22
 7550 1a36 F6040000 		.4byte	0x4f6
 7551 1a3a 2C150000 		.4byte	.LLST126
 7552 1a3e 00       		.byte	0
 7553 1a3f 21       		.uleb128 0x21
 7554 1a40 8D040000 		.4byte	0x48d
 7555 1a44 BC000000 		.4byte	.LBB80
 7556 1a48 78000000 		.4byte	.Ldebug_ranges0+0x78
 7557 1a4c 01       		.byte	0x1
 7558 1a4d D007     		.2byte	0x7d0
 7559 1a4f 8A1A0000 		.4byte	0x1a8a
 7560 1a53 26       		.uleb128 0x26
 7561 1a54 BE040000 		.4byte	0x4be
 7562 1a58 01       		.uleb128 0x1
 7563 1a59 57       		.byte	0x57
 7564 1a5a 22       		.uleb128 0x22
 7565 1a5b B2040000 		.4byte	0x4b2
 7566 1a5f 3F150000 		.4byte	.LLST127
 7567 1a63 26       		.uleb128 0x26
 7568 1a64 A6040000 		.4byte	0x4a6
 7569 1a68 01       		.uleb128 0x1
 7570 1a69 5C       		.byte	0x5c
 7571 1a6a 26       		.uleb128 0x26
 7572 1a6b 9A040000 		.4byte	0x49a
 7573 1a6f 01       		.uleb128 0x1
 7574 1a70 50       		.byte	0x50
 7575 1a71 23       		.uleb128 0x23
 7576 1a72 78000000 		.4byte	.Ldebug_ranges0+0x78
 7577 1a76 24       		.uleb128 0x24
 7578 1a77 CA040000 		.4byte	0x4ca
 7579 1a7b 52150000 		.4byte	.LLST128
 7580 1a7f 24       		.uleb128 0x24
 7581 1a80 D6040000 		.4byte	0x4d6
 7582 1a84 82150000 		.4byte	.LLST129
 7583 1a88 00       		.byte	0
 7584 1a89 00       		.byte	0
 7585 1a8a 25       		.uleb128 0x25
ARM GAS  /var/folders/7z/kps_xzfj7sn5l5gkyq8s9db00000gn/T//ccc38Eju.s 			page 136


 7586 1a8b E9040000 		.4byte	0x4e9
 7587 1a8f F4000000 		.4byte	.LBB84
 7588 1a93 14000000 		.4byte	.LBE84-.LBB84
 7589 1a97 01       		.byte	0x1
 7590 1a98 D307     		.2byte	0x7d3
 7591 1a9a AF1A0000 		.4byte	0x1aaf
 7592 1a9e 22       		.uleb128 0x22
 7593 1a9f 02050000 		.4byte	0x502
 7594 1aa3 B8150000 		.4byte	.LLST130
 7595 1aa7 26       		.uleb128 0x26
 7596 1aa8 F6040000 		.4byte	0x4f6
 7597 1aac 01       		.uleb128 0x1
 7598 1aad 50       		.byte	0x50
 7599 1aae 00       		.byte	0
 7600 1aaf 25       		.uleb128 0x25
 7601 1ab0 0F050000 		.4byte	0x50f
 7602 1ab4 08010000 		.4byte	.LBB86
 7603 1ab8 34000000 		.4byte	.LBE86-.LBB86
 7604 1abc 01       		.byte	0x1
 7605 1abd D507     		.2byte	0x7d5
 7606 1abf 091B0000 		.4byte	0x1b09
 7607 1ac3 26       		.uleb128 0x26
 7608 1ac4 40050000 		.4byte	0x540
 7609 1ac8 01       		.uleb128 0x1
 7610 1ac9 57       		.byte	0x57
 7611 1aca 22       		.uleb128 0x22
 7612 1acb 34050000 		.4byte	0x534
 7613 1acf DA150000 		.4byte	.LLST131
 7614 1ad3 22       		.uleb128 0x22
 7615 1ad4 28050000 		.4byte	0x528
 7616 1ad8 ED150000 		.4byte	.LLST132
 7617 1adc 26       		.uleb128 0x26
 7618 1add 1C050000 		.4byte	0x51c
 7619 1ae1 01       		.uleb128 0x1
 7620 1ae2 50       		.byte	0x50
 7621 1ae3 28       		.uleb128 0x28
 7622 1ae4 08010000 		.4byte	.LBB87
 7623 1ae8 34000000 		.4byte	.LBE87-.LBB87
 7624 1aec 24       		.uleb128 0x24
 7625 1aed 4C050000 		.4byte	0x54c
 7626 1af1 00160000 		.4byte	.LLST133
 7627 1af5 24       		.uleb128 0x24
 7628 1af6 58050000 		.4byte	0x558
 7629 1afa 40160000 		.4byte	.LLST134
 7630 1afe 24       		.uleb128 0x24
 7631 1aff 64050000 		.4byte	0x564
 7632 1b03 86160000 		.4byte	.LLST135
 7633 1b07 00       		.byte	0
 7634 1b08 00       		.byte	0
 7635 1b09 27       		.uleb128 0x27
 7636 1b0a 71050000 		.4byte	0x571
 7637 1b0e 3C010000 		.4byte	.LBB88
 7638 1b12 1A000000 		.4byte	.LBE88-.LBB88
 7639 1b16 01       		.byte	0x1
 7640 1b17 D707     		.2byte	0x7d7
 7641 1b19 22       		.uleb128 0x22
 7642 1b1a 8A050000 		.4byte	0x58a
ARM GAS  /var/folders/7z/kps_xzfj7sn5l5gkyq8s9db00000gn/T//ccc38Eju.s 			page 137


 7643 1b1e A9160000 		.4byte	.LLST136
 7644 1b22 26       		.uleb128 0x26
 7645 1b23 7E050000 		.4byte	0x57e
 7646 1b27 01       		.uleb128 0x1
 7647 1b28 50       		.byte	0x50
 7648 1b29 00       		.byte	0
 7649 1b2a 00       		.byte	0
 7650 1b2b 1F       		.uleb128 0x1f
 7651 1b2c 4B060000 		.4byte	.LASF180
 7652 1b30 01       		.byte	0x1
 7653 1b31 EC07     		.2byte	0x7ec
 7654 1b33 B8000000 		.4byte	0xb8
 7655 1b37 00000000 		.4byte	.LFB164
 7656 1b3b 04000000 		.4byte	.LFE164-.LFB164
 7657 1b3f 01       		.uleb128 0x1
 7658 1b40 9C       		.byte	0x9c
 7659 1b41 561B0000 		.4byte	0x1b56
 7660 1b45 1E       		.uleb128 0x1e
 7661 1b46 E7060000 		.4byte	.LASF80
 7662 1b4a 01       		.byte	0x1
 7663 1b4b EC07     		.2byte	0x7ec
 7664 1b4d E3040000 		.4byte	0x4e3
 7665 1b51 CB160000 		.4byte	.LLST137
 7666 1b55 00       		.byte	0
 7667 1b56 1F       		.uleb128 0x1f
 7668 1b57 81030000 		.4byte	.LASF181
 7669 1b5b 01       		.byte	0x1
 7670 1b5c FB07     		.2byte	0x7fb
 7671 1b5e B8000000 		.4byte	0xb8
 7672 1b62 00000000 		.4byte	.LFB165
 7673 1b66 04000000 		.4byte	.LFE165-.LFB165
 7674 1b6a 01       		.uleb128 0x1
 7675 1b6b 9C       		.byte	0x9c
 7676 1b6c 811B0000 		.4byte	0x1b81
 7677 1b70 1E       		.uleb128 0x1e
 7678 1b71 E7060000 		.4byte	.LASF80
 7679 1b75 01       		.byte	0x1
 7680 1b76 FB07     		.2byte	0x7fb
 7681 1b78 E3040000 		.4byte	0x4e3
 7682 1b7c EC160000 		.4byte	.LLST138
 7683 1b80 00       		.byte	0
 7684 1b81 1F       		.uleb128 0x1f
 7685 1b82 91030000 		.4byte	.LASF182
 7686 1b86 01       		.byte	0x1
 7687 1b87 0908     		.2byte	0x809
 7688 1b89 B8000000 		.4byte	0xb8
 7689 1b8d 00000000 		.4byte	.LFB166
 7690 1b91 04000000 		.4byte	.LFE166-.LFB166
 7691 1b95 01       		.uleb128 0x1
 7692 1b96 9C       		.byte	0x9c
 7693 1b97 AC1B0000 		.4byte	0x1bac
 7694 1b9b 1E       		.uleb128 0x1e
 7695 1b9c E7060000 		.4byte	.LASF80
 7696 1ba0 01       		.byte	0x1
 7697 1ba1 0908     		.2byte	0x809
 7698 1ba3 E3040000 		.4byte	0x4e3
 7699 1ba7 0D170000 		.4byte	.LLST139
ARM GAS  /var/folders/7z/kps_xzfj7sn5l5gkyq8s9db00000gn/T//ccc38Eju.s 			page 138


 7700 1bab 00       		.byte	0
 7701 1bac 1F       		.uleb128 0x1f
 7702 1bad A1030000 		.4byte	.LASF183
 7703 1bb1 01       		.byte	0x1
 7704 1bb2 1708     		.2byte	0x817
 7705 1bb4 B8000000 		.4byte	0xb8
 7706 1bb8 00000000 		.4byte	.LFB167
 7707 1bbc 04000000 		.4byte	.LFE167-.LFB167
 7708 1bc0 01       		.uleb128 0x1
 7709 1bc1 9C       		.byte	0x9c
 7710 1bc2 D71B0000 		.4byte	0x1bd7
 7711 1bc6 1E       		.uleb128 0x1e
 7712 1bc7 E7060000 		.4byte	.LASF80
 7713 1bcb 01       		.byte	0x1
 7714 1bcc 1708     		.2byte	0x817
 7715 1bce E3040000 		.4byte	0x4e3
 7716 1bd2 2E170000 		.4byte	.LLST140
 7717 1bd6 00       		.byte	0
 7718 1bd7 29       		.uleb128 0x29
 7719 1bd8 E9040000 		.4byte	0x4e9
 7720 1bdc 00000000 		.4byte	.LFB168
 7721 1be0 16000000 		.4byte	.LFE168-.LFB168
 7722 1be4 01       		.uleb128 0x1
 7723 1be5 9C       		.byte	0x9c
 7724 1be6 FB1B0000 		.4byte	0x1bfb
 7725 1bea 26       		.uleb128 0x26
 7726 1beb F6040000 		.4byte	0x4f6
 7727 1bef 01       		.uleb128 0x1
 7728 1bf0 50       		.byte	0x50
 7729 1bf1 22       		.uleb128 0x22
 7730 1bf2 02050000 		.4byte	0x502
 7731 1bf6 4F170000 		.4byte	.LLST141
 7732 1bfa 00       		.byte	0
 7733 1bfb 29       		.uleb128 0x29
 7734 1bfc 71050000 		.4byte	0x571
 7735 1c00 00000000 		.4byte	.LFB169
 7736 1c04 1A000000 		.4byte	.LFE169-.LFB169
 7737 1c08 01       		.uleb128 0x1
 7738 1c09 9C       		.byte	0x9c
 7739 1c0a 1F1C0000 		.4byte	0x1c1f
 7740 1c0e 26       		.uleb128 0x26
 7741 1c0f 7E050000 		.4byte	0x57e
 7742 1c13 01       		.uleb128 0x1
 7743 1c14 50       		.byte	0x50
 7744 1c15 22       		.uleb128 0x22
 7745 1c16 8A050000 		.4byte	0x58a
 7746 1c1a 70170000 		.4byte	.LLST142
 7747 1c1e 00       		.byte	0
 7748 1c1f 29       		.uleb128 0x29
 7749 1c20 F9050000 		.4byte	0x5f9
 7750 1c24 00000000 		.4byte	.LFB170
 7751 1c28 16000000 		.4byte	.LFE170-.LFB170
 7752 1c2c 01       		.uleb128 0x1
 7753 1c2d 9C       		.byte	0x9c
 7754 1c2e 431C0000 		.4byte	0x1c43
 7755 1c32 26       		.uleb128 0x26
 7756 1c33 06060000 		.4byte	0x606
ARM GAS  /var/folders/7z/kps_xzfj7sn5l5gkyq8s9db00000gn/T//ccc38Eju.s 			page 139


 7757 1c37 01       		.uleb128 0x1
 7758 1c38 50       		.byte	0x50
 7759 1c39 22       		.uleb128 0x22
 7760 1c3a 12060000 		.4byte	0x612
 7761 1c3e 91170000 		.4byte	.LLST143
 7762 1c42 00       		.byte	0
 7763 1c43 29       		.uleb128 0x29
 7764 1c44 81060000 		.4byte	0x681
 7765 1c48 00000000 		.4byte	.LFB171
 7766 1c4c 1A000000 		.4byte	.LFE171-.LFB171
 7767 1c50 01       		.uleb128 0x1
 7768 1c51 9C       		.byte	0x9c
 7769 1c52 671C0000 		.4byte	0x1c67
 7770 1c56 26       		.uleb128 0x26
 7771 1c57 8E060000 		.4byte	0x68e
 7772 1c5b 01       		.uleb128 0x1
 7773 1c5c 50       		.byte	0x50
 7774 1c5d 22       		.uleb128 0x22
 7775 1c5e 9A060000 		.4byte	0x69a
 7776 1c62 B2170000 		.4byte	.LLST144
 7777 1c66 00       		.byte	0
 7778 1c67 1B       		.uleb128 0x1b
 7779 1c68 2E0A0000 		.4byte	.LASF184
 7780 1c6c 01       		.byte	0x1
 7781 1c6d A908     		.2byte	0x8a9
 7782 1c6f 00000000 		.4byte	.LFB172
 7783 1c73 28000000 		.4byte	.LFE172-.LFB172
 7784 1c77 01       		.uleb128 0x1
 7785 1c78 9C       		.byte	0x9c
 7786 1c79 9A1C0000 		.4byte	0x1c9a
 7787 1c7d 1C       		.uleb128 0x1c
 7788 1c7e E7060000 		.4byte	.LASF80
 7789 1c82 01       		.byte	0x1
 7790 1c83 A908     		.2byte	0x8a9
 7791 1c85 E3040000 		.4byte	0x4e3
 7792 1c89 01       		.uleb128 0x1
 7793 1c8a 50       		.byte	0x50
 7794 1c8b 1C       		.uleb128 0x1c
 7795 1c8c 080B0000 		.4byte	.LASF185
 7796 1c90 01       		.byte	0x1
 7797 1c91 A908     		.2byte	0x8a9
 7798 1c93 9A1C0000 		.4byte	0x1c9a
 7799 1c97 01       		.uleb128 0x1
 7800 1c98 51       		.byte	0x51
 7801 1c99 00       		.byte	0
 7802 1c9a 12       		.uleb128 0x12
 7803 1c9b 04       		.byte	0x4
 7804 1c9c 82040000 		.4byte	0x482
 7805 1ca0 1B       		.uleb128 0x1b
 7806 1ca1 BE070000 		.4byte	.LASF186
 7807 1ca5 01       		.byte	0x1
 7808 1ca6 C208     		.2byte	0x8c2
 7809 1ca8 00000000 		.4byte	.LFB173
 7810 1cac 12000000 		.4byte	.LFE173-.LFB173
 7811 1cb0 01       		.uleb128 0x1
 7812 1cb1 9C       		.byte	0x9c
 7813 1cb2 C51C0000 		.4byte	0x1cc5
ARM GAS  /var/folders/7z/kps_xzfj7sn5l5gkyq8s9db00000gn/T//ccc38Eju.s 			page 140


 7814 1cb6 1C       		.uleb128 0x1c
 7815 1cb7 080B0000 		.4byte	.LASF185
 7816 1cbb 01       		.byte	0x1
 7817 1cbc C208     		.2byte	0x8c2
 7818 1cbe 9A1C0000 		.4byte	0x1c9a
 7819 1cc2 01       		.uleb128 0x1
 7820 1cc3 50       		.byte	0x50
 7821 1cc4 00       		.byte	0
 7822 1cc5 1B       		.uleb128 0x1b
 7823 1cc6 1B0A0000 		.4byte	.LASF187
 7824 1cca 01       		.byte	0x1
 7825 1ccb D508     		.2byte	0x8d5
 7826 1ccd 00000000 		.4byte	.LFB174
 7827 1cd1 20000000 		.4byte	.LFE174-.LFB174
 7828 1cd5 01       		.uleb128 0x1
 7829 1cd6 9C       		.byte	0x9c
 7830 1cd7 F81C0000 		.4byte	0x1cf8
 7831 1cdb 1C       		.uleb128 0x1c
 7832 1cdc E7060000 		.4byte	.LASF80
 7833 1ce0 01       		.byte	0x1
 7834 1ce1 D508     		.2byte	0x8d5
 7835 1ce3 E3040000 		.4byte	0x4e3
 7836 1ce7 01       		.uleb128 0x1
 7837 1ce8 50       		.byte	0x50
 7838 1ce9 1C       		.uleb128 0x1c
 7839 1cea 0B000000 		.4byte	.LASF116
 7840 1cee 01       		.byte	0x1
 7841 1cef D508     		.2byte	0x8d5
 7842 1cf1 1D010000 		.4byte	0x11d
 7843 1cf5 01       		.uleb128 0x1
 7844 1cf6 51       		.byte	0x51
 7845 1cf7 00       		.byte	0
 7846 1cf8 1B       		.uleb128 0x1b
 7847 1cf9 AE050000 		.4byte	.LASF188
 7848 1cfd 01       		.byte	0x1
 7849 1cfe EE08     		.2byte	0x8ee
 7850 1d00 00000000 		.4byte	.LFB175
 7851 1d04 1A000000 		.4byte	.LFE175-.LFB175
 7852 1d08 01       		.uleb128 0x1
 7853 1d09 9C       		.byte	0x9c
 7854 1d0a 2B1D0000 		.4byte	0x1d2b
 7855 1d0e 1C       		.uleb128 0x1c
 7856 1d0f E7060000 		.4byte	.LASF80
 7857 1d13 01       		.byte	0x1
 7858 1d14 EE08     		.2byte	0x8ee
 7859 1d16 E3040000 		.4byte	0x4e3
 7860 1d1a 01       		.uleb128 0x1
 7861 1d1b 50       		.byte	0x50
 7862 1d1c 1C       		.uleb128 0x1c
 7863 1d1d 0B000000 		.4byte	.LASF116
 7864 1d21 01       		.byte	0x1
 7865 1d22 EE08     		.2byte	0x8ee
 7866 1d24 1D010000 		.4byte	0x11d
 7867 1d28 01       		.uleb128 0x1
 7868 1d29 51       		.byte	0x51
 7869 1d2a 00       		.byte	0
 7870 1d2b 1B       		.uleb128 0x1b
ARM GAS  /var/folders/7z/kps_xzfj7sn5l5gkyq8s9db00000gn/T//ccc38Eju.s 			page 141


 7871 1d2c B50A0000 		.4byte	.LASF189
 7872 1d30 01       		.byte	0x1
 7873 1d31 0709     		.2byte	0x907
 7874 1d33 00000000 		.4byte	.LFB176
 7875 1d37 1A000000 		.4byte	.LFE176-.LFB176
 7876 1d3b 01       		.uleb128 0x1
 7877 1d3c 9C       		.byte	0x9c
 7878 1d3d 5E1D0000 		.4byte	0x1d5e
 7879 1d41 1C       		.uleb128 0x1c
 7880 1d42 E7060000 		.4byte	.LASF80
 7881 1d46 01       		.byte	0x1
 7882 1d47 0709     		.2byte	0x907
 7883 1d49 E3040000 		.4byte	0x4e3
 7884 1d4d 01       		.uleb128 0x1
 7885 1d4e 50       		.byte	0x50
 7886 1d4f 1C       		.uleb128 0x1c
 7887 1d50 0B000000 		.4byte	.LASF116
 7888 1d54 01       		.byte	0x1
 7889 1d55 0709     		.2byte	0x907
 7890 1d57 1D010000 		.4byte	0x11d
 7891 1d5b 01       		.uleb128 0x1
 7892 1d5c 51       		.byte	0x51
 7893 1d5d 00       		.byte	0
 7894 1d5e 1B       		.uleb128 0x1b
 7895 1d5f 280E0000 		.4byte	.LASF190
 7896 1d63 01       		.byte	0x1
 7897 1d64 4009     		.2byte	0x940
 7898 1d66 00000000 		.4byte	.LFB177
 7899 1d6a 14000000 		.4byte	.LFE177-.LFB177
 7900 1d6e 01       		.uleb128 0x1
 7901 1d6f 9C       		.byte	0x9c
 7902 1d70 A11D0000 		.4byte	0x1da1
 7903 1d74 1C       		.uleb128 0x1c
 7904 1d75 E7060000 		.4byte	.LASF80
 7905 1d79 01       		.byte	0x1
 7906 1d7a 4009     		.2byte	0x940
 7907 1d7c E3040000 		.4byte	0x4e3
 7908 1d80 01       		.uleb128 0x1
 7909 1d81 50       		.byte	0x50
 7910 1d82 1E       		.uleb128 0x1e
 7911 1d83 09030000 		.4byte	.LASF191
 7912 1d87 01       		.byte	0x1
 7913 1d88 4009     		.2byte	0x940
 7914 1d8a A2000000 		.4byte	0xa2
 7915 1d8e D3170000 		.4byte	.LLST145
 7916 1d92 1C       		.uleb128 0x1c
 7917 1d93 0B000000 		.4byte	.LASF116
 7918 1d97 01       		.byte	0x1
 7919 1d98 4009     		.2byte	0x940
 7920 1d9a 1D010000 		.4byte	0x11d
 7921 1d9e 01       		.uleb128 0x1
 7922 1d9f 52       		.byte	0x52
 7923 1da0 00       		.byte	0
 7924 1da1 1B       		.uleb128 0x1b
 7925 1da2 2D020000 		.4byte	.LASF192
 7926 1da6 01       		.byte	0x1
 7927 1da7 6609     		.2byte	0x966
ARM GAS  /var/folders/7z/kps_xzfj7sn5l5gkyq8s9db00000gn/T//ccc38Eju.s 			page 142


 7928 1da9 00000000 		.4byte	.LFB178
 7929 1dad 04000000 		.4byte	.LFE178-.LFB178
 7930 1db1 01       		.uleb128 0x1
 7931 1db2 9C       		.byte	0x9c
 7932 1db3 D41D0000 		.4byte	0x1dd4
 7933 1db7 1C       		.uleb128 0x1c
 7934 1db8 E7060000 		.4byte	.LASF80
 7935 1dbc 01       		.byte	0x1
 7936 1dbd 6609     		.2byte	0x966
 7937 1dbf E3040000 		.4byte	0x4e3
 7938 1dc3 01       		.uleb128 0x1
 7939 1dc4 50       		.byte	0x50
 7940 1dc5 1C       		.uleb128 0x1c
 7941 1dc6 5F090000 		.4byte	.LASF193
 7942 1dca 01       		.byte	0x1
 7943 1dcb 6609     		.2byte	0x966
 7944 1dcd A2000000 		.4byte	0xa2
 7945 1dd1 01       		.uleb128 0x1
 7946 1dd2 51       		.byte	0x51
 7947 1dd3 00       		.byte	0
 7948 1dd4 1F       		.uleb128 0x1f
 7949 1dd5 9D060000 		.4byte	.LASF194
 7950 1dd9 01       		.byte	0x1
 7951 1dda 8709     		.2byte	0x987
 7952 1ddc EF000000 		.4byte	0xef
 7953 1de0 00000000 		.4byte	.LFB179
 7954 1de4 0C000000 		.4byte	.LFE179-.LFB179
 7955 1de8 01       		.uleb128 0x1
 7956 1de9 9C       		.byte	0x9c
 7957 1dea 1D1E0000 		.4byte	0x1e1d
 7958 1dee 1E       		.uleb128 0x1e
 7959 1def E7060000 		.4byte	.LASF80
 7960 1df3 01       		.byte	0x1
 7961 1df4 8709     		.2byte	0x987
 7962 1df6 E3040000 		.4byte	0x4e3
 7963 1dfa 0D180000 		.4byte	.LLST146
 7964 1dfe 1C       		.uleb128 0x1c
 7965 1dff DA000000 		.4byte	.LASF195
 7966 1e03 01       		.byte	0x1
 7967 1e04 8709     		.2byte	0x987
 7968 1e06 A2000000 		.4byte	0xa2
 7969 1e0a 01       		.uleb128 0x1
 7970 1e0b 51       		.byte	0x51
 7971 1e0c 1D       		.uleb128 0x1d
 7972 1e0d F80D0000 		.4byte	.LASF196
 7973 1e11 01       		.byte	0x1
 7974 1e12 8909     		.2byte	0x989
 7975 1e14 FB000000 		.4byte	0xfb
 7976 1e18 2E180000 		.4byte	.LLST147
 7977 1e1c 00       		.byte	0
 7978 1e1d 1B       		.uleb128 0x1b
 7979 1e1e 68050000 		.4byte	.LASF197
 7980 1e22 01       		.byte	0x1
 7981 1e23 B109     		.2byte	0x9b1
 7982 1e25 00000000 		.4byte	.LFB180
 7983 1e29 08000000 		.4byte	.LFE180-.LFB180
 7984 1e2d 01       		.uleb128 0x1
ARM GAS  /var/folders/7z/kps_xzfj7sn5l5gkyq8s9db00000gn/T//ccc38Eju.s 			page 143


 7985 1e2e 9C       		.byte	0x9c
 7986 1e2f 521E0000 		.4byte	0x1e52
 7987 1e33 1C       		.uleb128 0x1c
 7988 1e34 E7060000 		.4byte	.LASF80
 7989 1e38 01       		.byte	0x1
 7990 1e39 B109     		.2byte	0x9b1
 7991 1e3b E3040000 		.4byte	0x4e3
 7992 1e3f 01       		.uleb128 0x1
 7993 1e40 50       		.byte	0x50
 7994 1e41 1E       		.uleb128 0x1e
 7995 1e42 DA000000 		.4byte	.LASF195
 7996 1e46 01       		.byte	0x1
 7997 1e47 B109     		.2byte	0x9b1
 7998 1e49 A2000000 		.4byte	0xa2
 7999 1e4d 56180000 		.4byte	.LLST148
 8000 1e51 00       		.byte	0
 8001 1e52 1F       		.uleb128 0x1f
 8002 1e53 E3080000 		.4byte	.LASF198
 8003 1e57 01       		.byte	0x1
 8004 1e58 CD09     		.2byte	0x9cd
 8005 1e5a FB000000 		.4byte	0xfb
 8006 1e5e 00000000 		.4byte	.LFB181
 8007 1e62 16000000 		.4byte	.LFE181-.LFB181
 8008 1e66 01       		.uleb128 0x1
 8009 1e67 9C       		.byte	0x9c
 8010 1e68 BB1E0000 		.4byte	0x1ebb
 8011 1e6c 1E       		.uleb128 0x1e
 8012 1e6d E7060000 		.4byte	.LASF80
 8013 1e71 01       		.byte	0x1
 8014 1e72 CD09     		.2byte	0x9cd
 8015 1e74 E3040000 		.4byte	0x4e3
 8016 1e78 77180000 		.4byte	.LLST149
 8017 1e7c 1C       		.uleb128 0x1c
 8018 1e7d 09030000 		.4byte	.LASF191
 8019 1e81 01       		.byte	0x1
 8020 1e82 CD09     		.2byte	0x9cd
 8021 1e84 A2000000 		.4byte	0xa2
 8022 1e88 01       		.uleb128 0x1
 8023 1e89 51       		.byte	0x51
 8024 1e8a 1D       		.uleb128 0x1d
 8025 1e8b F80D0000 		.4byte	.LASF196
 8026 1e8f 01       		.byte	0x1
 8027 1e90 CF09     		.2byte	0x9cf
 8028 1e92 FB000000 		.4byte	0xfb
 8029 1e96 98180000 		.4byte	.LLST150
 8030 1e9a 1D       		.uleb128 0x1d
 8031 1e9b 90080000 		.4byte	.LASF199
 8032 1e9f 01       		.byte	0x1
 8033 1ea0 D009     		.2byte	0x9d0
 8034 1ea2 A2000000 		.4byte	0xa2
 8035 1ea6 B7180000 		.4byte	.LLST151
 8036 1eaa 1D       		.uleb128 0x1d
 8037 1eab 700D0000 		.4byte	.LASF200
 8038 1eaf 01       		.byte	0x1
 8039 1eb0 D009     		.2byte	0x9d0
 8040 1eb2 A2000000 		.4byte	0xa2
 8041 1eb6 DB180000 		.4byte	.LLST152
ARM GAS  /var/folders/7z/kps_xzfj7sn5l5gkyq8s9db00000gn/T//ccc38Eju.s 			page 144


 8042 1eba 00       		.byte	0
 8043 1ebb 1B       		.uleb128 0x1b
 8044 1ebc DF0B0000 		.4byte	.LASF201
 8045 1ec0 01       		.byte	0x1
 8046 1ec1 F609     		.2byte	0x9f6
 8047 1ec3 00000000 		.4byte	.LFB182
 8048 1ec7 08000000 		.4byte	.LFE182-.LFB182
 8049 1ecb 01       		.uleb128 0x1
 8050 1ecc 9C       		.byte	0x9c
 8051 1ecd F01E0000 		.4byte	0x1ef0
 8052 1ed1 1C       		.uleb128 0x1c
 8053 1ed2 E7060000 		.4byte	.LASF80
 8054 1ed6 01       		.byte	0x1
 8055 1ed7 F609     		.2byte	0x9f6
 8056 1ed9 E3040000 		.4byte	0x4e3
 8057 1edd 01       		.uleb128 0x1
 8058 1ede 50       		.byte	0x50
 8059 1edf 1E       		.uleb128 0x1e
 8060 1ee0 09030000 		.4byte	.LASF191
 8061 1ee4 01       		.byte	0x1
 8062 1ee5 F609     		.2byte	0x9f6
 8063 1ee7 A2000000 		.4byte	0xa2
 8064 1eeb FF180000 		.4byte	.LLST153
 8065 1eef 00       		.byte	0
 8066 1ef0 1B       		.uleb128 0x1b
 8067 1ef1 94020000 		.4byte	.LASF202
 8068 1ef5 01       		.byte	0x1
 8069 1ef6 1B0A     		.2byte	0xa1b
 8070 1ef8 00000000 		.4byte	.LFB183
 8071 1efc 08000000 		.4byte	.LFE183-.LFB183
 8072 1f00 01       		.uleb128 0x1
 8073 1f01 9C       		.byte	0x9c
 8074 1f02 331F0000 		.4byte	0x1f33
 8075 1f06 1C       		.uleb128 0x1c
 8076 1f07 E7060000 		.4byte	.LASF80
 8077 1f0b 01       		.byte	0x1
 8078 1f0c 1B0A     		.2byte	0xa1b
 8079 1f0e E3040000 		.4byte	0x4e3
 8080 1f12 01       		.uleb128 0x1
 8081 1f13 50       		.byte	0x50
 8082 1f14 1C       		.uleb128 0x1c
 8083 1f15 99080000 		.4byte	.LASF203
 8084 1f19 01       		.byte	0x1
 8085 1f1a 1B0A     		.2byte	0xa1b
 8086 1f1c A2000000 		.4byte	0xa2
 8087 1f20 01       		.uleb128 0x1
 8088 1f21 51       		.byte	0x51
 8089 1f22 1E       		.uleb128 0x1e
 8090 1f23 31040000 		.4byte	.LASF204
 8091 1f27 01       		.byte	0x1
 8092 1f28 1B0A     		.2byte	0xa1b
 8093 1f2a A2000000 		.4byte	0xa2
 8094 1f2e 20190000 		.4byte	.LLST154
 8095 1f32 00       		.byte	0
 8096 1f33 1B       		.uleb128 0x1b
 8097 1f34 3F000000 		.4byte	.LASF205
 8098 1f38 01       		.byte	0x1
ARM GAS  /var/folders/7z/kps_xzfj7sn5l5gkyq8s9db00000gn/T//ccc38Eju.s 			page 145


 8099 1f39 360A     		.2byte	0xa36
 8100 1f3b 00000000 		.4byte	.LFB184
 8101 1f3f 14000000 		.4byte	.LFE184-.LFB184
 8102 1f43 01       		.uleb128 0x1
 8103 1f44 9C       		.byte	0x9c
 8104 1f45 761F0000 		.4byte	0x1f76
 8105 1f49 1C       		.uleb128 0x1c
 8106 1f4a E7060000 		.4byte	.LASF80
 8107 1f4e 01       		.byte	0x1
 8108 1f4f 360A     		.2byte	0xa36
 8109 1f51 E3040000 		.4byte	0x4e3
 8110 1f55 01       		.uleb128 0x1
 8111 1f56 50       		.byte	0x50
 8112 1f57 1E       		.uleb128 0x1e
 8113 1f58 6C070000 		.4byte	.LASF206
 8114 1f5c 01       		.byte	0x1
 8115 1f5d 360A     		.2byte	0xa36
 8116 1f5f A2000000 		.4byte	0xa2
 8117 1f63 41190000 		.4byte	.LLST155
 8118 1f67 1C       		.uleb128 0x1c
 8119 1f68 0B000000 		.4byte	.LASF116
 8120 1f6c 01       		.byte	0x1
 8121 1f6d 360A     		.2byte	0xa36
 8122 1f6f 1D010000 		.4byte	0x11d
 8123 1f73 01       		.uleb128 0x1
 8124 1f74 52       		.byte	0x52
 8125 1f75 00       		.byte	0
 8126 1f76 1B       		.uleb128 0x1b
 8127 1f77 EA030000 		.4byte	.LASF207
 8128 1f7b 01       		.byte	0x1
 8129 1f7c 500A     		.2byte	0xa50
 8130 1f7e 00000000 		.4byte	.LFB185
 8131 1f82 1A000000 		.4byte	.LFE185-.LFB185
 8132 1f86 01       		.uleb128 0x1
 8133 1f87 9C       		.byte	0x9c
 8134 1f88 A91F0000 		.4byte	0x1fa9
 8135 1f8c 1C       		.uleb128 0x1c
 8136 1f8d E7060000 		.4byte	.LASF80
 8137 1f91 01       		.byte	0x1
 8138 1f92 500A     		.2byte	0xa50
 8139 1f94 E3040000 		.4byte	0x4e3
 8140 1f98 01       		.uleb128 0x1
 8141 1f99 50       		.byte	0x50
 8142 1f9a 1C       		.uleb128 0x1c
 8143 1f9b 0B000000 		.4byte	.LASF116
 8144 1f9f 01       		.byte	0x1
 8145 1fa0 500A     		.2byte	0xa50
 8146 1fa2 1D010000 		.4byte	0x11d
 8147 1fa6 01       		.uleb128 0x1
 8148 1fa7 51       		.byte	0x51
 8149 1fa8 00       		.byte	0
 8150 1fa9 1B       		.uleb128 0x1b
 8151 1faa 98010000 		.4byte	.LASF208
 8152 1fae 01       		.byte	0x1
 8153 1faf 770A     		.2byte	0xa77
 8154 1fb1 00000000 		.4byte	.LFB186
 8155 1fb5 0E000000 		.4byte	.LFE186-.LFB186
ARM GAS  /var/folders/7z/kps_xzfj7sn5l5gkyq8s9db00000gn/T//ccc38Eju.s 			page 146


 8156 1fb9 01       		.uleb128 0x1
 8157 1fba 9C       		.byte	0x9c
 8158 1fbb CE1F0000 		.4byte	0x1fce
 8159 1fbf 1C       		.uleb128 0x1c
 8160 1fc0 E7060000 		.4byte	.LASF80
 8161 1fc4 01       		.byte	0x1
 8162 1fc5 770A     		.2byte	0xa77
 8163 1fc7 E3040000 		.4byte	0x4e3
 8164 1fcb 01       		.uleb128 0x1
 8165 1fcc 50       		.byte	0x50
 8166 1fcd 00       		.byte	0
 8167 1fce 1B       		.uleb128 0x1b
 8168 1fcf 740A0000 		.4byte	.LASF209
 8169 1fd3 01       		.byte	0x1
 8170 1fd4 8C0A     		.2byte	0xa8c
 8171 1fd6 00000000 		.4byte	.LFB187
 8172 1fda 1A000000 		.4byte	.LFE187-.LFB187
 8173 1fde 01       		.uleb128 0x1
 8174 1fdf 9C       		.byte	0x9c
 8175 1fe0 37200000 		.4byte	0x2037
 8176 1fe4 1C       		.uleb128 0x1c
 8177 1fe5 E7060000 		.4byte	.LASF80
 8178 1fe9 01       		.byte	0x1
 8179 1fea 8C0A     		.2byte	0xa8c
 8180 1fec E3040000 		.4byte	0x4e3
 8181 1ff0 01       		.uleb128 0x1
 8182 1ff1 50       		.byte	0x50
 8183 1ff2 1E       		.uleb128 0x1e
 8184 1ff3 60000000 		.4byte	.LASF94
 8185 1ff7 01       		.byte	0x1
 8186 1ff8 8C0A     		.2byte	0xa8c
 8187 1ffa A2000000 		.4byte	0xa2
 8188 1ffe 7B190000 		.4byte	.LLST156
 8189 2002 27       		.uleb128 0x27
 8190 2003 A7060000 		.4byte	0x6a7
 8191 2007 00000000 		.4byte	.LBB90
 8192 200b 0E000000 		.4byte	.LBE90-.LBB90
 8193 200f 01       		.byte	0x1
 8194 2010 930A     		.2byte	0xa93
 8195 2012 22       		.uleb128 0x22
 8196 2013 C0060000 		.4byte	0x6c0
 8197 2017 7B190000 		.4byte	.LLST156
 8198 201b 26       		.uleb128 0x26
 8199 201c B4060000 		.4byte	0x6b4
 8200 2020 01       		.uleb128 0x1
 8201 2021 50       		.byte	0x50
 8202 2022 28       		.uleb128 0x28
 8203 2023 00000000 		.4byte	.LBB91
 8204 2027 0E000000 		.4byte	.LBE91-.LBB91
 8205 202b 24       		.uleb128 0x24
 8206 202c CC060000 		.4byte	0x6cc
 8207 2030 9C190000 		.4byte	.LLST158
 8208 2034 00       		.byte	0
 8209 2035 00       		.byte	0
 8210 2036 00       		.byte	0
 8211 2037 1B       		.uleb128 0x1b
 8212 2038 DC090000 		.4byte	.LASF210
ARM GAS  /var/folders/7z/kps_xzfj7sn5l5gkyq8s9db00000gn/T//ccc38Eju.s 			page 147


 8213 203c 01       		.byte	0x1
 8214 203d AA0A     		.2byte	0xaaa
 8215 203f 00000000 		.4byte	.LFB188
 8216 2043 88000000 		.4byte	.LFE188-.LFB188
 8217 2047 01       		.uleb128 0x1
 8218 2048 9C       		.byte	0x9c
 8219 2049 6A210000 		.4byte	0x216a
 8220 204d 1C       		.uleb128 0x1c
 8221 204e E7060000 		.4byte	.LASF80
 8222 2052 01       		.byte	0x1
 8223 2053 AA0A     		.2byte	0xaaa
 8224 2055 E3040000 		.4byte	0x4e3
 8225 2059 01       		.uleb128 0x1
 8226 205a 50       		.byte	0x50
 8227 205b 1C       		.uleb128 0x1c
 8228 205c E50A0000 		.4byte	.LASF211
 8229 2060 01       		.byte	0x1
 8230 2061 AA0A     		.2byte	0xaaa
 8231 2063 A2000000 		.4byte	0xa2
 8232 2067 01       		.uleb128 0x1
 8233 2068 51       		.byte	0x51
 8234 2069 1E       		.uleb128 0x1e
 8235 206a 6F090000 		.4byte	.LASF67
 8236 206e 01       		.byte	0x1
 8237 206f AB0A     		.2byte	0xaab
 8238 2071 A2000000 		.4byte	0xa2
 8239 2075 D1190000 		.4byte	.LLST159
 8240 2079 1E       		.uleb128 0x1e
 8241 207a 020E0000 		.4byte	.LASF212
 8242 207e 01       		.byte	0x1
 8243 207f AB0A     		.2byte	0xaab
 8244 2081 A2000000 		.4byte	0xa2
 8245 2085 0B1A0000 		.4byte	.LLST160
 8246 2089 21       		.uleb128 0x21
 8247 208a 0F050000 		.4byte	0x50f
 8248 208e 04000000 		.4byte	.LBB92
 8249 2092 90000000 		.4byte	.Ldebug_ranges0+0x90
 8250 2096 01       		.byte	0x1
 8251 2097 B50A     		.2byte	0xab5
 8252 2099 DE200000 		.4byte	0x20de
 8253 209d 22       		.uleb128 0x22
 8254 209e 40050000 		.4byte	0x540
 8255 20a2 451A0000 		.4byte	.LLST161
 8256 20a6 2A       		.uleb128 0x2a
 8257 20a7 34050000 		.4byte	0x534
 8258 20ab 01       		.byte	0x1
 8259 20ac 22       		.uleb128 0x22
 8260 20ad 28050000 		.4byte	0x528
 8261 20b1 661A0000 		.4byte	.LLST162
 8262 20b5 26       		.uleb128 0x26
 8263 20b6 1C050000 		.4byte	0x51c
 8264 20ba 01       		.uleb128 0x1
 8265 20bb 50       		.byte	0x50
 8266 20bc 23       		.uleb128 0x23
 8267 20bd 90000000 		.4byte	.Ldebug_ranges0+0x90
 8268 20c1 24       		.uleb128 0x24
 8269 20c2 4C050000 		.4byte	0x54c
ARM GAS  /var/folders/7z/kps_xzfj7sn5l5gkyq8s9db00000gn/T//ccc38Eju.s 			page 148


 8270 20c6 871A0000 		.4byte	.LLST163
 8271 20ca 24       		.uleb128 0x24
 8272 20cb 58050000 		.4byte	0x558
 8273 20cf B11A0000 		.4byte	.LLST164
 8274 20d3 24       		.uleb128 0x24
 8275 20d4 64050000 		.4byte	0x564
 8276 20d8 DB1A0000 		.4byte	.LLST165
 8277 20dc 00       		.byte	0
 8278 20dd 00       		.byte	0
 8279 20de 25       		.uleb128 0x25
 8280 20df 8D040000 		.4byte	0x48d
 8281 20e3 08000000 		.4byte	.LBB95
 8282 20e7 2E000000 		.4byte	.LBE95-.LBB95
 8283 20eb 01       		.byte	0x1
 8284 20ec B90A     		.2byte	0xab9
 8285 20ee 33210000 		.4byte	0x2133
 8286 20f2 22       		.uleb128 0x22
 8287 20f3 BE040000 		.4byte	0x4be
 8288 20f7 0E1B0000 		.4byte	.LLST166
 8289 20fb 22       		.uleb128 0x22
 8290 20fc B2040000 		.4byte	0x4b2
 8291 2100 2F1B0000 		.4byte	.LLST167
 8292 2104 22       		.uleb128 0x22
 8293 2105 A6040000 		.4byte	0x4a6
 8294 2109 431B0000 		.4byte	.LLST168
 8295 210d 22       		.uleb128 0x22
 8296 210e 9A040000 		.4byte	0x49a
 8297 2112 641B0000 		.4byte	.LLST169
 8298 2116 28       		.uleb128 0x28
 8299 2117 08000000 		.4byte	.LBB96
 8300 211b 2E000000 		.4byte	.LBE96-.LBB96
 8301 211f 24       		.uleb128 0x24
 8302 2120 CA040000 		.4byte	0x4ca
 8303 2124 771B0000 		.4byte	.LLST170
 8304 2128 24       		.uleb128 0x24
 8305 2129 D6040000 		.4byte	0x4d6
 8306 212d A11B0000 		.4byte	.LLST171
 8307 2131 00       		.byte	0
 8308 2132 00       		.byte	0
 8309 2133 27       		.uleb128 0x27
 8310 2134 A7060000 		.4byte	0x6a7
 8311 2138 36000000 		.4byte	.LBB97
 8312 213c 0E000000 		.4byte	.LBE97-.LBB97
 8313 2140 01       		.byte	0x1
 8314 2141 BC0A     		.2byte	0xabc
 8315 2143 22       		.uleb128 0x22
 8316 2144 C0060000 		.4byte	0x6c0
 8317 2148 CB1B0000 		.4byte	.LLST172
 8318 214c 22       		.uleb128 0x22
 8319 214d B4060000 		.4byte	0x6b4
 8320 2151 DE1B0000 		.4byte	.LLST173
 8321 2155 28       		.uleb128 0x28
 8322 2156 36000000 		.4byte	.LBB98
 8323 215a 0E000000 		.4byte	.LBE98-.LBB98
 8324 215e 24       		.uleb128 0x24
 8325 215f CC060000 		.4byte	0x6cc
 8326 2163 F11B0000 		.4byte	.LLST174
ARM GAS  /var/folders/7z/kps_xzfj7sn5l5gkyq8s9db00000gn/T//ccc38Eju.s 			page 149


 8327 2167 00       		.byte	0
 8328 2168 00       		.byte	0
 8329 2169 00       		.byte	0
 8330 216a 1B       		.uleb128 0x1b
 8331 216b 2D0D0000 		.4byte	.LASF213
 8332 216f 01       		.byte	0x1
 8333 2170 D20A     		.2byte	0xad2
 8334 2172 00000000 		.4byte	.LFB189
 8335 2176 28000000 		.4byte	.LFE189-.LFB189
 8336 217a 01       		.uleb128 0x1
 8337 217b 9C       		.byte	0x9c
 8338 217c 11220000 		.4byte	0x2211
 8339 2180 1C       		.uleb128 0x1c
 8340 2181 E7060000 		.4byte	.LASF80
 8341 2185 01       		.byte	0x1
 8342 2186 D20A     		.2byte	0xad2
 8343 2188 E3040000 		.4byte	0x4e3
 8344 218c 01       		.uleb128 0x1
 8345 218d 50       		.byte	0x50
 8346 218e 1E       		.uleb128 0x1e
 8347 218f F5070000 		.4byte	.LASF97
 8348 2193 01       		.byte	0x1
 8349 2194 D20A     		.2byte	0xad2
 8350 2196 A2000000 		.4byte	0xa2
 8351 219a 271C0000 		.4byte	.LLST175
 8352 219e 1C       		.uleb128 0x1c
 8353 219f AB070000 		.4byte	.LASF98
 8354 21a3 01       		.byte	0x1
 8355 21a4 D30A     		.2byte	0xad3
 8356 21a6 A2000000 		.4byte	0xa2
 8357 21aa 01       		.uleb128 0x1
 8358 21ab 52       		.byte	0x52
 8359 21ac 1E       		.uleb128 0x1e
 8360 21ad 1B0E0000 		.4byte	.LASF99
 8361 21b1 01       		.byte	0x1
 8362 21b2 D30A     		.2byte	0xad3
 8363 21b4 A2000000 		.4byte	0xa2
 8364 21b8 481C0000 		.4byte	.LLST176
 8365 21bc 1D       		.uleb128 0x1d
 8366 21bd A3070000 		.4byte	.LASF95
 8367 21c1 01       		.byte	0x1
 8368 21c2 D50A     		.2byte	0xad5
 8369 21c4 A2000000 		.4byte	0xa2
 8370 21c8 691C0000 		.4byte	.LLST177
 8371 21cc 27       		.uleb128 0x27
 8372 21cd D9060000 		.4byte	0x6d9
 8373 21d1 02000000 		.4byte	.LBB100
 8374 21d5 10000000 		.4byte	.LBE100-.LBB100
 8375 21d9 01       		.byte	0x1
 8376 21da DD0A     		.2byte	0xadd
 8377 21dc 22       		.uleb128 0x22
 8378 21dd 0A070000 		.4byte	0x70a
 8379 21e1 481C0000 		.4byte	.LLST176
 8380 21e5 26       		.uleb128 0x26
 8381 21e6 FE060000 		.4byte	0x6fe
 8382 21ea 01       		.uleb128 0x1
 8383 21eb 52       		.byte	0x52
ARM GAS  /var/folders/7z/kps_xzfj7sn5l5gkyq8s9db00000gn/T//ccc38Eju.s 			page 150


 8384 21ec 22       		.uleb128 0x22
 8385 21ed F2060000 		.4byte	0x6f2
 8386 21f1 271C0000 		.4byte	.LLST175
 8387 21f5 26       		.uleb128 0x26
 8388 21f6 E6060000 		.4byte	0x6e6
 8389 21fa 01       		.uleb128 0x1
 8390 21fb 50       		.byte	0x50
 8391 21fc 28       		.uleb128 0x28
 8392 21fd 02000000 		.4byte	.LBB101
 8393 2201 10000000 		.4byte	.LBE101-.LBB101
 8394 2205 24       		.uleb128 0x24
 8395 2206 16070000 		.4byte	0x716
 8396 220a A61C0000 		.4byte	.LLST180
 8397 220e 00       		.byte	0
 8398 220f 00       		.byte	0
 8399 2210 00       		.byte	0
 8400 2211 1B       		.uleb128 0x1b
 8401 2212 6C0B0000 		.4byte	.LASF214
 8402 2216 01       		.byte	0x1
 8403 2217 010B     		.2byte	0xb01
 8404 2219 00000000 		.4byte	.LFB190
 8405 221d 22000000 		.4byte	.LFE190-.LFB190
 8406 2221 01       		.uleb128 0x1
 8407 2222 9C       		.byte	0x9c
 8408 2223 A8220000 		.4byte	0x22a8
 8409 2227 1C       		.uleb128 0x1c
 8410 2228 E7060000 		.4byte	.LASF80
 8411 222c 01       		.byte	0x1
 8412 222d 010B     		.2byte	0xb01
 8413 222f E3040000 		.4byte	0x4e3
 8414 2233 01       		.uleb128 0x1
 8415 2234 50       		.byte	0x50
 8416 2235 1E       		.uleb128 0x1e
 8417 2236 F5070000 		.4byte	.LASF97
 8418 223a 01       		.byte	0x1
 8419 223b 010B     		.2byte	0xb01
 8420 223d A2000000 		.4byte	0xa2
 8421 2241 D51C0000 		.4byte	.LLST181
 8422 2245 1C       		.uleb128 0x1c
 8423 2246 AB070000 		.4byte	.LASF98
 8424 224a 01       		.byte	0x1
 8425 224b 020B     		.2byte	0xb02
 8426 224d A2000000 		.4byte	0xa2
 8427 2251 01       		.uleb128 0x1
 8428 2252 52       		.byte	0x52
 8429 2253 1E       		.uleb128 0x1e
 8430 2254 1B0E0000 		.4byte	.LASF99
 8431 2258 01       		.byte	0x1
 8432 2259 020B     		.2byte	0xb02
 8433 225b A2000000 		.4byte	0xa2
 8434 225f F61C0000 		.4byte	.LLST182
 8435 2263 27       		.uleb128 0x27
 8436 2264 D9060000 		.4byte	0x6d9
 8437 2268 02000000 		.4byte	.LBB102
 8438 226c 10000000 		.4byte	.LBE102-.LBB102
 8439 2270 01       		.byte	0x1
 8440 2271 0B0B     		.2byte	0xb0b
ARM GAS  /var/folders/7z/kps_xzfj7sn5l5gkyq8s9db00000gn/T//ccc38Eju.s 			page 151


 8441 2273 22       		.uleb128 0x22
 8442 2274 0A070000 		.4byte	0x70a
 8443 2278 F61C0000 		.4byte	.LLST182
 8444 227c 26       		.uleb128 0x26
 8445 227d FE060000 		.4byte	0x6fe
 8446 2281 01       		.uleb128 0x1
 8447 2282 52       		.byte	0x52
 8448 2283 22       		.uleb128 0x22
 8449 2284 F2060000 		.4byte	0x6f2
 8450 2288 D51C0000 		.4byte	.LLST181
 8451 228c 26       		.uleb128 0x26
 8452 228d E6060000 		.4byte	0x6e6
 8453 2291 01       		.uleb128 0x1
 8454 2292 50       		.byte	0x50
 8455 2293 28       		.uleb128 0x28
 8456 2294 02000000 		.4byte	.LBB103
 8457 2298 10000000 		.4byte	.LBE103-.LBB103
 8458 229c 24       		.uleb128 0x24
 8459 229d 16070000 		.4byte	0x716
 8460 22a1 171D0000 		.4byte	.LLST185
 8461 22a5 00       		.byte	0
 8462 22a6 00       		.byte	0
 8463 22a7 00       		.byte	0
 8464 22a8 29       		.uleb128 0x29
 8465 22a9 A7060000 		.4byte	0x6a7
 8466 22ad 00000000 		.4byte	.LFB191
 8467 22b1 10000000 		.4byte	.LFE191-.LFB191
 8468 22b5 01       		.uleb128 0x1
 8469 22b6 9C       		.byte	0x9c
 8470 22b7 D5220000 		.4byte	0x22d5
 8471 22bb 26       		.uleb128 0x26
 8472 22bc B4060000 		.4byte	0x6b4
 8473 22c0 01       		.uleb128 0x1
 8474 22c1 50       		.byte	0x50
 8475 22c2 22       		.uleb128 0x22
 8476 22c3 C0060000 		.4byte	0x6c0
 8477 22c7 461D0000 		.4byte	.LLST186
 8478 22cb 24       		.uleb128 0x24
 8479 22cc CC060000 		.4byte	0x6cc
 8480 22d0 671D0000 		.4byte	.LLST187
 8481 22d4 00       		.byte	0
 8482 22d5 1B       		.uleb128 0x1b
 8483 22d6 26070000 		.4byte	.LASF215
 8484 22da 01       		.byte	0x1
 8485 22db 700B     		.2byte	0xb70
 8486 22dd 00000000 		.4byte	.LFB192
 8487 22e1 16000000 		.4byte	.LFE192-.LFB192
 8488 22e5 01       		.uleb128 0x1
 8489 22e6 9C       		.byte	0x9c
 8490 22e7 0A230000 		.4byte	0x230a
 8491 22eb 1C       		.uleb128 0x1c
 8492 22ec E7060000 		.4byte	.LASF80
 8493 22f0 01       		.byte	0x1
 8494 22f1 700B     		.2byte	0xb70
 8495 22f3 E3040000 		.4byte	0x4e3
 8496 22f7 01       		.uleb128 0x1
 8497 22f8 50       		.byte	0x50
ARM GAS  /var/folders/7z/kps_xzfj7sn5l5gkyq8s9db00000gn/T//ccc38Eju.s 			page 152


 8498 22f9 1E       		.uleb128 0x1e
 8499 22fa 77000000 		.4byte	.LASF216
 8500 22fe 01       		.byte	0x1
 8501 22ff 700B     		.2byte	0xb70
 8502 2301 A2000000 		.4byte	0xa2
 8503 2305 9C1D0000 		.4byte	.LLST188
 8504 2309 00       		.byte	0
 8505 230a 1B       		.uleb128 0x1b
 8506 230b 6F060000 		.4byte	.LASF217
 8507 230f 01       		.byte	0x1
 8508 2310 880B     		.2byte	0xb88
 8509 2312 00000000 		.4byte	.LFB193
 8510 2316 16000000 		.4byte	.LFE193-.LFB193
 8511 231a 01       		.uleb128 0x1
 8512 231b 9C       		.byte	0x9c
 8513 231c 3F230000 		.4byte	0x233f
 8514 2320 1C       		.uleb128 0x1c
 8515 2321 E7060000 		.4byte	.LASF80
 8516 2325 01       		.byte	0x1
 8517 2326 880B     		.2byte	0xb88
 8518 2328 E3040000 		.4byte	0x4e3
 8519 232c 01       		.uleb128 0x1
 8520 232d 50       		.byte	0x50
 8521 232e 1E       		.uleb128 0x1e
 8522 232f BE0C0000 		.4byte	.LASF218
 8523 2333 01       		.byte	0x1
 8524 2334 880B     		.2byte	0xb88
 8525 2336 A2000000 		.4byte	0xa2
 8526 233a BD1D0000 		.4byte	.LLST189
 8527 233e 00       		.byte	0
 8528 233f 1B       		.uleb128 0x1b
 8529 2340 83060000 		.4byte	.LASF219
 8530 2344 01       		.byte	0x1
 8531 2345 9F0B     		.2byte	0xb9f
 8532 2347 00000000 		.4byte	.LFB194
 8533 234b 16000000 		.4byte	.LFE194-.LFB194
 8534 234f 01       		.uleb128 0x1
 8535 2350 9C       		.byte	0x9c
 8536 2351 74230000 		.4byte	0x2374
 8537 2355 1C       		.uleb128 0x1c
 8538 2356 E7060000 		.4byte	.LASF80
 8539 235a 01       		.byte	0x1
 8540 235b 9F0B     		.2byte	0xb9f
 8541 235d E3040000 		.4byte	0x4e3
 8542 2361 01       		.uleb128 0x1
 8543 2362 50       		.byte	0x50
 8544 2363 1E       		.uleb128 0x1e
 8545 2364 5B060000 		.4byte	.LASF220
 8546 2368 01       		.byte	0x1
 8547 2369 9F0B     		.2byte	0xb9f
 8548 236b A2000000 		.4byte	0xa2
 8549 236f DE1D0000 		.4byte	.LLST190
 8550 2373 00       		.byte	0
 8551 2374 29       		.uleb128 0x29
 8552 2375 D9060000 		.4byte	0x6d9
 8553 2379 00000000 		.4byte	.LFB195
 8554 237d 18000000 		.4byte	.LFE195-.LFB195
ARM GAS  /var/folders/7z/kps_xzfj7sn5l5gkyq8s9db00000gn/T//ccc38Eju.s 			page 153


 8555 2381 01       		.uleb128 0x1
 8556 2382 9C       		.byte	0x9c
 8557 2383 B3230000 		.4byte	0x23b3
 8558 2387 26       		.uleb128 0x26
 8559 2388 E6060000 		.4byte	0x6e6
 8560 238c 01       		.uleb128 0x1
 8561 238d 50       		.byte	0x50
 8562 238e 22       		.uleb128 0x22
 8563 238f F2060000 		.4byte	0x6f2
 8564 2393 FF1D0000 		.4byte	.LLST191
 8565 2397 22       		.uleb128 0x22
 8566 2398 FE060000 		.4byte	0x6fe
 8567 239c 201E0000 		.4byte	.LLST192
 8568 23a0 22       		.uleb128 0x22
 8569 23a1 0A070000 		.4byte	0x70a
 8570 23a5 411E0000 		.4byte	.LLST193
 8571 23a9 24       		.uleb128 0x24
 8572 23aa 16070000 		.4byte	0x716
 8573 23ae 621E0000 		.4byte	.LLST194
 8574 23b2 00       		.byte	0
 8575 23b3 1B       		.uleb128 0x1b
 8576 23b4 FD010000 		.4byte	.LASF221
 8577 23b8 01       		.byte	0x1
 8578 23b9 F70B     		.2byte	0xbf7
 8579 23bb 00000000 		.4byte	.LFB196
 8580 23bf 3E000000 		.4byte	.LFE196-.LFB196
 8581 23c3 01       		.uleb128 0x1
 8582 23c4 9C       		.byte	0x9c
 8583 23c5 38240000 		.4byte	0x2438
 8584 23c9 1C       		.uleb128 0x1c
 8585 23ca E7060000 		.4byte	.LASF80
 8586 23ce 01       		.byte	0x1
 8587 23cf F70B     		.2byte	0xbf7
 8588 23d1 E3040000 		.4byte	0x4e3
 8589 23d5 01       		.uleb128 0x1
 8590 23d6 50       		.byte	0x50
 8591 23d7 1E       		.uleb128 0x1e
 8592 23d8 EC060000 		.4byte	.LASF222
 8593 23dc 01       		.byte	0x1
 8594 23dd F70B     		.2byte	0xbf7
 8595 23df A2000000 		.4byte	0xa2
 8596 23e3 911E0000 		.4byte	.LLST195
 8597 23e7 1E       		.uleb128 0x1e
 8598 23e8 3F020000 		.4byte	.LASF223
 8599 23ec 01       		.byte	0x1
 8600 23ed F80B     		.2byte	0xbf8
 8601 23ef A2000000 		.4byte	0xa2
 8602 23f3 B21E0000 		.4byte	.LLST196
 8603 23f7 1E       		.uleb128 0x1e
 8604 23f8 FC000000 		.4byte	.LASF224
 8605 23fc 01       		.byte	0x1
 8606 23fd F80B     		.2byte	0xbf8
 8607 23ff A2000000 		.4byte	0xa2
 8608 2403 D31E0000 		.4byte	.LLST197
 8609 2407 1D       		.uleb128 0x1d
 8610 2408 A3070000 		.4byte	.LASF95
 8611 240c 01       		.byte	0x1
ARM GAS  /var/folders/7z/kps_xzfj7sn5l5gkyq8s9db00000gn/T//ccc38Eju.s 			page 154


 8612 240d FA0B     		.2byte	0xbfa
 8613 240f A2000000 		.4byte	0xa2
 8614 2413 F41E0000 		.4byte	.LLST198
 8615 2417 1D       		.uleb128 0x1d
 8616 2418 4E010000 		.4byte	.LASF81
 8617 241c 01       		.byte	0x1
 8618 241d FB0B     		.2byte	0xbfb
 8619 241f A2000000 		.4byte	0xa2
 8620 2423 291F0000 		.4byte	.LLST199
 8621 2427 1D       		.uleb128 0x1d
 8622 2428 BC050000 		.4byte	.LASF82
 8623 242c 01       		.byte	0x1
 8624 242d FC0B     		.2byte	0xbfc
 8625 242f A2000000 		.4byte	0xa2
 8626 2433 531F0000 		.4byte	.LLST200
 8627 2437 00       		.byte	0
 8628 2438 1B       		.uleb128 0x1b
 8629 2439 D20D0000 		.4byte	.LASF225
 8630 243d 01       		.byte	0x1
 8631 243e 2B0C     		.2byte	0xc2b
 8632 2440 00000000 		.4byte	.LFB197
 8633 2444 1A000000 		.4byte	.LFE197-.LFB197
 8634 2448 01       		.uleb128 0x1
 8635 2449 9C       		.byte	0x9c
 8636 244a 6B240000 		.4byte	0x246b
 8637 244e 1C       		.uleb128 0x1c
 8638 244f E7060000 		.4byte	.LASF80
 8639 2453 01       		.byte	0x1
 8640 2454 2B0C     		.2byte	0xc2b
 8641 2456 E3040000 		.4byte	0x4e3
 8642 245a 01       		.uleb128 0x1
 8643 245b 50       		.byte	0x50
 8644 245c 1C       		.uleb128 0x1c
 8645 245d 0B000000 		.4byte	.LASF116
 8646 2461 01       		.byte	0x1
 8647 2462 2B0C     		.2byte	0xc2b
 8648 2464 1D010000 		.4byte	0x11d
 8649 2468 01       		.uleb128 0x1
 8650 2469 51       		.byte	0x51
 8651 246a 00       		.byte	0
 8652 246b 1B       		.uleb128 0x1b
 8653 246c 970D0000 		.4byte	.LASF226
 8654 2470 01       		.byte	0x1
 8655 2471 5E0C     		.2byte	0xc5e
 8656 2473 00000000 		.4byte	.LFB198
 8657 2477 06000000 		.4byte	.LFE198-.LFB198
 8658 247b 01       		.uleb128 0x1
 8659 247c 9C       		.byte	0x9c
 8660 247d 9E240000 		.4byte	0x249e
 8661 2481 1C       		.uleb128 0x1c
 8662 2482 E7060000 		.4byte	.LASF80
 8663 2486 01       		.byte	0x1
 8664 2487 5E0C     		.2byte	0xc5e
 8665 2489 E3040000 		.4byte	0x4e3
 8666 248d 01       		.uleb128 0x1
 8667 248e 50       		.byte	0x50
 8668 248f 1C       		.uleb128 0x1c
ARM GAS  /var/folders/7z/kps_xzfj7sn5l5gkyq8s9db00000gn/T//ccc38Eju.s 			page 155


 8669 2490 D9080000 		.4byte	.LASF227
 8670 2494 01       		.byte	0x1
 8671 2495 5E0C     		.2byte	0xc5e
 8672 2497 A2000000 		.4byte	0xa2
 8673 249b 01       		.uleb128 0x1
 8674 249c 51       		.byte	0x51
 8675 249d 00       		.byte	0
 8676 249e 2B       		.uleb128 0x2b
 8677 249f DB010000 		.4byte	.LASF232
 8678 24a3 07       		.byte	0x7
 8679 24a4 9806     		.2byte	0x698
 8680 24a6 D4000000 		.4byte	0xd4
 8681 24aa 2C       		.uleb128 0x2c
 8682 24ab 37010000 		.4byte	.LASF228
 8683 24af 06       		.byte	0x6
 8684 24b0 E601     		.2byte	0x1e6
 8685 24b2 C1240000 		.4byte	0x24c1
 8686 24b6 2D       		.uleb128 0x2d
 8687 24b7 B8000000 		.4byte	0xb8
 8688 24bb 2D       		.uleb128 0x2d
 8689 24bc 1D010000 		.4byte	0x11d
 8690 24c0 00       		.byte	0
 8691 24c1 2E       		.uleb128 0x2e
 8692 24c2 0A090000 		.4byte	.LASF233
 8693 24c6 06       		.byte	0x6
 8694 24c7 E701     		.2byte	0x1e7
 8695 24c9 2D       		.uleb128 0x2d
 8696 24ca B8000000 		.4byte	0xb8
 8697 24ce 2D       		.uleb128 0x2d
 8698 24cf 1D010000 		.4byte	0x11d
 8699 24d3 00       		.byte	0
 8700 24d4 00       		.byte	0
 8701              		.section	.debug_abbrev,"",%progbits
 8702              	.Ldebug_abbrev0:
 8703 0000 01       		.uleb128 0x1
 8704 0001 11       		.uleb128 0x11
 8705 0002 01       		.byte	0x1
 8706 0003 25       		.uleb128 0x25
 8707 0004 0E       		.uleb128 0xe
 8708 0005 13       		.uleb128 0x13
 8709 0006 0B       		.uleb128 0xb
 8710 0007 03       		.uleb128 0x3
 8711 0008 0E       		.uleb128 0xe
 8712 0009 1B       		.uleb128 0x1b
 8713 000a 0E       		.uleb128 0xe
 8714 000b 55       		.uleb128 0x55
 8715 000c 17       		.uleb128 0x17
 8716 000d 11       		.uleb128 0x11
 8717 000e 01       		.uleb128 0x1
 8718 000f 10       		.uleb128 0x10
 8719 0010 17       		.uleb128 0x17
 8720 0011 00       		.byte	0
 8721 0012 00       		.byte	0
 8722 0013 02       		.uleb128 0x2
 8723 0014 24       		.uleb128 0x24
 8724 0015 00       		.byte	0
 8725 0016 0B       		.uleb128 0xb
ARM GAS  /var/folders/7z/kps_xzfj7sn5l5gkyq8s9db00000gn/T//ccc38Eju.s 			page 156


 8726 0017 0B       		.uleb128 0xb
 8727 0018 3E       		.uleb128 0x3e
 8728 0019 0B       		.uleb128 0xb
 8729 001a 03       		.uleb128 0x3
 8730 001b 0E       		.uleb128 0xe
 8731 001c 00       		.byte	0
 8732 001d 00       		.byte	0
 8733 001e 03       		.uleb128 0x3
 8734 001f 16       		.uleb128 0x16
 8735 0020 00       		.byte	0
 8736 0021 03       		.uleb128 0x3
 8737 0022 0E       		.uleb128 0xe
 8738 0023 3A       		.uleb128 0x3a
 8739 0024 0B       		.uleb128 0xb
 8740 0025 3B       		.uleb128 0x3b
 8741 0026 0B       		.uleb128 0xb
 8742 0027 49       		.uleb128 0x49
 8743 0028 13       		.uleb128 0x13
 8744 0029 00       		.byte	0
 8745 002a 00       		.byte	0
 8746 002b 04       		.uleb128 0x4
 8747 002c 24       		.uleb128 0x24
 8748 002d 00       		.byte	0
 8749 002e 0B       		.uleb128 0xb
 8750 002f 0B       		.uleb128 0xb
 8751 0030 3E       		.uleb128 0x3e
 8752 0031 0B       		.uleb128 0xb
 8753 0032 03       		.uleb128 0x3
 8754 0033 08       		.uleb128 0x8
 8755 0034 00       		.byte	0
 8756 0035 00       		.byte	0
 8757 0036 05       		.uleb128 0x5
 8758 0037 35       		.uleb128 0x35
 8759 0038 00       		.byte	0
 8760 0039 49       		.uleb128 0x49
 8761 003a 13       		.uleb128 0x13
 8762 003b 00       		.byte	0
 8763 003c 00       		.byte	0
 8764 003d 06       		.uleb128 0x6
 8765 003e 04       		.uleb128 0x4
 8766 003f 01       		.byte	0x1
 8767 0040 0B       		.uleb128 0xb
 8768 0041 0B       		.uleb128 0xb
 8769 0042 3A       		.uleb128 0x3a
 8770 0043 0B       		.uleb128 0xb
 8771 0044 3B       		.uleb128 0x3b
 8772 0045 05       		.uleb128 0x5
 8773 0046 01       		.uleb128 0x1
 8774 0047 13       		.uleb128 0x13
 8775 0048 00       		.byte	0
 8776 0049 00       		.byte	0
 8777 004a 07       		.uleb128 0x7
 8778 004b 28       		.uleb128 0x28
 8779 004c 00       		.byte	0
 8780 004d 03       		.uleb128 0x3
 8781 004e 0E       		.uleb128 0xe
 8782 004f 1C       		.uleb128 0x1c
ARM GAS  /var/folders/7z/kps_xzfj7sn5l5gkyq8s9db00000gn/T//ccc38Eju.s 			page 157


 8783 0050 0D       		.uleb128 0xd
 8784 0051 00       		.byte	0
 8785 0052 00       		.byte	0
 8786 0053 08       		.uleb128 0x8
 8787 0054 28       		.uleb128 0x28
 8788 0055 00       		.byte	0
 8789 0056 03       		.uleb128 0x3
 8790 0057 08       		.uleb128 0x8
 8791 0058 1C       		.uleb128 0x1c
 8792 0059 0D       		.uleb128 0xd
 8793 005a 00       		.byte	0
 8794 005b 00       		.byte	0
 8795 005c 09       		.uleb128 0x9
 8796 005d 16       		.uleb128 0x16
 8797 005e 00       		.byte	0
 8798 005f 03       		.uleb128 0x3
 8799 0060 0E       		.uleb128 0xe
 8800 0061 3A       		.uleb128 0x3a
 8801 0062 0B       		.uleb128 0xb
 8802 0063 3B       		.uleb128 0x3b
 8803 0064 05       		.uleb128 0x5
 8804 0065 49       		.uleb128 0x49
 8805 0066 13       		.uleb128 0x13
 8806 0067 00       		.byte	0
 8807 0068 00       		.byte	0
 8808 0069 0A       		.uleb128 0xa
 8809 006a 13       		.uleb128 0x13
 8810 006b 01       		.byte	0x1
 8811 006c 0B       		.uleb128 0xb
 8812 006d 0B       		.uleb128 0xb
 8813 006e 3A       		.uleb128 0x3a
 8814 006f 0B       		.uleb128 0xb
 8815 0070 3B       		.uleb128 0x3b
 8816 0071 05       		.uleb128 0x5
 8817 0072 01       		.uleb128 0x1
 8818 0073 13       		.uleb128 0x13
 8819 0074 00       		.byte	0
 8820 0075 00       		.byte	0
 8821 0076 0B       		.uleb128 0xb
 8822 0077 0D       		.uleb128 0xd
 8823 0078 00       		.byte	0
 8824 0079 03       		.uleb128 0x3
 8825 007a 08       		.uleb128 0x8
 8826 007b 3A       		.uleb128 0x3a
 8827 007c 0B       		.uleb128 0xb
 8828 007d 3B       		.uleb128 0x3b
 8829 007e 05       		.uleb128 0x5
 8830 007f 49       		.uleb128 0x49
 8831 0080 13       		.uleb128 0x13
 8832 0081 38       		.uleb128 0x38
 8833 0082 0B       		.uleb128 0xb
 8834 0083 00       		.byte	0
 8835 0084 00       		.byte	0
 8836 0085 0C       		.uleb128 0xc
 8837 0086 0D       		.uleb128 0xd
 8838 0087 00       		.byte	0
 8839 0088 03       		.uleb128 0x3
ARM GAS  /var/folders/7z/kps_xzfj7sn5l5gkyq8s9db00000gn/T//ccc38Eju.s 			page 158


 8840 0089 0E       		.uleb128 0xe
 8841 008a 3A       		.uleb128 0x3a
 8842 008b 0B       		.uleb128 0xb
 8843 008c 3B       		.uleb128 0x3b
 8844 008d 05       		.uleb128 0x5
 8845 008e 49       		.uleb128 0x49
 8846 008f 13       		.uleb128 0x13
 8847 0090 38       		.uleb128 0x38
 8848 0091 0B       		.uleb128 0xb
 8849 0092 00       		.byte	0
 8850 0093 00       		.byte	0
 8851 0094 0D       		.uleb128 0xd
 8852 0095 13       		.uleb128 0x13
 8853 0096 01       		.byte	0x1
 8854 0097 0B       		.uleb128 0xb
 8855 0098 0B       		.uleb128 0xb
 8856 0099 3A       		.uleb128 0x3a
 8857 009a 0B       		.uleb128 0xb
 8858 009b 3B       		.uleb128 0x3b
 8859 009c 0B       		.uleb128 0xb
 8860 009d 01       		.uleb128 0x1
 8861 009e 13       		.uleb128 0x13
 8862 009f 00       		.byte	0
 8863 00a0 00       		.byte	0
 8864 00a1 0E       		.uleb128 0xe
 8865 00a2 0D       		.uleb128 0xd
 8866 00a3 00       		.byte	0
 8867 00a4 03       		.uleb128 0x3
 8868 00a5 0E       		.uleb128 0xe
 8869 00a6 3A       		.uleb128 0x3a
 8870 00a7 0B       		.uleb128 0xb
 8871 00a8 3B       		.uleb128 0x3b
 8872 00a9 0B       		.uleb128 0xb
 8873 00aa 49       		.uleb128 0x49
 8874 00ab 13       		.uleb128 0x13
 8875 00ac 38       		.uleb128 0x38
 8876 00ad 0B       		.uleb128 0xb
 8877 00ae 00       		.byte	0
 8878 00af 00       		.byte	0
 8879 00b0 0F       		.uleb128 0xf
 8880 00b1 2E       		.uleb128 0x2e
 8881 00b2 01       		.byte	0x1
 8882 00b3 03       		.uleb128 0x3
 8883 00b4 0E       		.uleb128 0xe
 8884 00b5 3A       		.uleb128 0x3a
 8885 00b6 0B       		.uleb128 0xb
 8886 00b7 3B       		.uleb128 0x3b
 8887 00b8 05       		.uleb128 0x5
 8888 00b9 27       		.uleb128 0x27
 8889 00ba 19       		.uleb128 0x19
 8890 00bb 20       		.uleb128 0x20
 8891 00bc 0B       		.uleb128 0xb
 8892 00bd 01       		.uleb128 0x1
 8893 00be 13       		.uleb128 0x13
 8894 00bf 00       		.byte	0
 8895 00c0 00       		.byte	0
 8896 00c1 10       		.uleb128 0x10
ARM GAS  /var/folders/7z/kps_xzfj7sn5l5gkyq8s9db00000gn/T//ccc38Eju.s 			page 159


 8897 00c2 05       		.uleb128 0x5
 8898 00c3 00       		.byte	0
 8899 00c4 03       		.uleb128 0x3
 8900 00c5 0E       		.uleb128 0xe
 8901 00c6 3A       		.uleb128 0x3a
 8902 00c7 0B       		.uleb128 0xb
 8903 00c8 3B       		.uleb128 0x3b
 8904 00c9 05       		.uleb128 0x5
 8905 00ca 49       		.uleb128 0x49
 8906 00cb 13       		.uleb128 0x13
 8907 00cc 00       		.byte	0
 8908 00cd 00       		.byte	0
 8909 00ce 11       		.uleb128 0x11
 8910 00cf 34       		.uleb128 0x34
 8911 00d0 00       		.byte	0
 8912 00d1 03       		.uleb128 0x3
 8913 00d2 0E       		.uleb128 0xe
 8914 00d3 3A       		.uleb128 0x3a
 8915 00d4 0B       		.uleb128 0xb
 8916 00d5 3B       		.uleb128 0x3b
 8917 00d6 05       		.uleb128 0x5
 8918 00d7 49       		.uleb128 0x49
 8919 00d8 13       		.uleb128 0x13
 8920 00d9 00       		.byte	0
 8921 00da 00       		.byte	0
 8922 00db 12       		.uleb128 0x12
 8923 00dc 0F       		.uleb128 0xf
 8924 00dd 00       		.byte	0
 8925 00de 0B       		.uleb128 0xb
 8926 00df 0B       		.uleb128 0xb
 8927 00e0 49       		.uleb128 0x49
 8928 00e1 13       		.uleb128 0x13
 8929 00e2 00       		.byte	0
 8930 00e3 00       		.byte	0
 8931 00e4 13       		.uleb128 0x13
 8932 00e5 2E       		.uleb128 0x2e
 8933 00e6 01       		.byte	0x1
 8934 00e7 3F       		.uleb128 0x3f
 8935 00e8 19       		.uleb128 0x19
 8936 00e9 03       		.uleb128 0x3
 8937 00ea 0E       		.uleb128 0xe
 8938 00eb 3A       		.uleb128 0x3a
 8939 00ec 0B       		.uleb128 0xb
 8940 00ed 3B       		.uleb128 0x3b
 8941 00ee 05       		.uleb128 0x5
 8942 00ef 27       		.uleb128 0x27
 8943 00f0 19       		.uleb128 0x19
 8944 00f1 20       		.uleb128 0x20
 8945 00f2 0B       		.uleb128 0xb
 8946 00f3 01       		.uleb128 0x1
 8947 00f4 13       		.uleb128 0x13
 8948 00f5 00       		.byte	0
 8949 00f6 00       		.byte	0
 8950 00f7 14       		.uleb128 0x14
 8951 00f8 34       		.uleb128 0x34
 8952 00f9 00       		.byte	0
 8953 00fa 03       		.uleb128 0x3
ARM GAS  /var/folders/7z/kps_xzfj7sn5l5gkyq8s9db00000gn/T//ccc38Eju.s 			page 160


 8954 00fb 08       		.uleb128 0x8
 8955 00fc 3A       		.uleb128 0x3a
 8956 00fd 0B       		.uleb128 0xb
 8957 00fe 3B       		.uleb128 0x3b
 8958 00ff 05       		.uleb128 0x5
 8959 0100 49       		.uleb128 0x49
 8960 0101 13       		.uleb128 0x13
 8961 0102 00       		.byte	0
 8962 0103 00       		.byte	0
 8963 0104 15       		.uleb128 0x15
 8964 0105 2E       		.uleb128 0x2e
 8965 0106 01       		.byte	0x1
 8966 0107 3F       		.uleb128 0x3f
 8967 0108 19       		.uleb128 0x19
 8968 0109 03       		.uleb128 0x3
 8969 010a 0E       		.uleb128 0xe
 8970 010b 3A       		.uleb128 0x3a
 8971 010c 0B       		.uleb128 0xb
 8972 010d 3B       		.uleb128 0x3b
 8973 010e 0B       		.uleb128 0xb
 8974 010f 27       		.uleb128 0x27
 8975 0110 19       		.uleb128 0x19
 8976 0111 11       		.uleb128 0x11
 8977 0112 01       		.uleb128 0x1
 8978 0113 12       		.uleb128 0x12
 8979 0114 06       		.uleb128 0x6
 8980 0115 40       		.uleb128 0x40
 8981 0116 18       		.uleb128 0x18
 8982 0117 9742     		.uleb128 0x2117
 8983 0119 19       		.uleb128 0x19
 8984 011a 01       		.uleb128 0x1
 8985 011b 13       		.uleb128 0x13
 8986 011c 00       		.byte	0
 8987 011d 00       		.byte	0
 8988 011e 16       		.uleb128 0x16
 8989 011f 05       		.uleb128 0x5
 8990 0120 00       		.byte	0
 8991 0121 03       		.uleb128 0x3
 8992 0122 0E       		.uleb128 0xe
 8993 0123 3A       		.uleb128 0x3a
 8994 0124 0B       		.uleb128 0xb
 8995 0125 3B       		.uleb128 0x3b
 8996 0126 0B       		.uleb128 0xb
 8997 0127 49       		.uleb128 0x49
 8998 0128 13       		.uleb128 0x13
 8999 0129 02       		.uleb128 0x2
 9000 012a 17       		.uleb128 0x17
 9001 012b 00       		.byte	0
 9002 012c 00       		.byte	0
 9003 012d 17       		.uleb128 0x17
 9004 012e 898201   		.uleb128 0x4109
 9005 0131 01       		.byte	0x1
 9006 0132 11       		.uleb128 0x11
 9007 0133 01       		.uleb128 0x1
 9008 0134 31       		.uleb128 0x31
 9009 0135 13       		.uleb128 0x13
 9010 0136 01       		.uleb128 0x1
ARM GAS  /var/folders/7z/kps_xzfj7sn5l5gkyq8s9db00000gn/T//ccc38Eju.s 			page 161


 9011 0137 13       		.uleb128 0x13
 9012 0138 00       		.byte	0
 9013 0139 00       		.byte	0
 9014 013a 18       		.uleb128 0x18
 9015 013b 8A8201   		.uleb128 0x410a
 9016 013e 00       		.byte	0
 9017 013f 02       		.uleb128 0x2
 9018 0140 18       		.uleb128 0x18
 9019 0141 9142     		.uleb128 0x2111
 9020 0143 18       		.uleb128 0x18
 9021 0144 00       		.byte	0
 9022 0145 00       		.byte	0
 9023 0146 19       		.uleb128 0x19
 9024 0147 898201   		.uleb128 0x4109
 9025 014a 01       		.byte	0x1
 9026 014b 11       		.uleb128 0x11
 9027 014c 01       		.uleb128 0x1
 9028 014d 9542     		.uleb128 0x2115
 9029 014f 19       		.uleb128 0x19
 9030 0150 31       		.uleb128 0x31
 9031 0151 13       		.uleb128 0x13
 9032 0152 01       		.uleb128 0x1
 9033 0153 13       		.uleb128 0x13
 9034 0154 00       		.byte	0
 9035 0155 00       		.byte	0
 9036 0156 1A       		.uleb128 0x1a
 9037 0157 898201   		.uleb128 0x4109
 9038 015a 01       		.byte	0x1
 9039 015b 11       		.uleb128 0x11
 9040 015c 01       		.uleb128 0x1
 9041 015d 9542     		.uleb128 0x2115
 9042 015f 19       		.uleb128 0x19
 9043 0160 31       		.uleb128 0x31
 9044 0161 13       		.uleb128 0x13
 9045 0162 00       		.byte	0
 9046 0163 00       		.byte	0
 9047 0164 1B       		.uleb128 0x1b
 9048 0165 2E       		.uleb128 0x2e
 9049 0166 01       		.byte	0x1
 9050 0167 3F       		.uleb128 0x3f
 9051 0168 19       		.uleb128 0x19
 9052 0169 03       		.uleb128 0x3
 9053 016a 0E       		.uleb128 0xe
 9054 016b 3A       		.uleb128 0x3a
 9055 016c 0B       		.uleb128 0xb
 9056 016d 3B       		.uleb128 0x3b
 9057 016e 05       		.uleb128 0x5
 9058 016f 27       		.uleb128 0x27
 9059 0170 19       		.uleb128 0x19
 9060 0171 11       		.uleb128 0x11
 9061 0172 01       		.uleb128 0x1
 9062 0173 12       		.uleb128 0x12
 9063 0174 06       		.uleb128 0x6
 9064 0175 40       		.uleb128 0x40
 9065 0176 18       		.uleb128 0x18
 9066 0177 9742     		.uleb128 0x2117
 9067 0179 19       		.uleb128 0x19
ARM GAS  /var/folders/7z/kps_xzfj7sn5l5gkyq8s9db00000gn/T//ccc38Eju.s 			page 162


 9068 017a 01       		.uleb128 0x1
 9069 017b 13       		.uleb128 0x13
 9070 017c 00       		.byte	0
 9071 017d 00       		.byte	0
 9072 017e 1C       		.uleb128 0x1c
 9073 017f 05       		.uleb128 0x5
 9074 0180 00       		.byte	0
 9075 0181 03       		.uleb128 0x3
 9076 0182 0E       		.uleb128 0xe
 9077 0183 3A       		.uleb128 0x3a
 9078 0184 0B       		.uleb128 0xb
 9079 0185 3B       		.uleb128 0x3b
 9080 0186 05       		.uleb128 0x5
 9081 0187 49       		.uleb128 0x49
 9082 0188 13       		.uleb128 0x13
 9083 0189 02       		.uleb128 0x2
 9084 018a 18       		.uleb128 0x18
 9085 018b 00       		.byte	0
 9086 018c 00       		.byte	0
 9087 018d 1D       		.uleb128 0x1d
 9088 018e 34       		.uleb128 0x34
 9089 018f 00       		.byte	0
 9090 0190 03       		.uleb128 0x3
 9091 0191 0E       		.uleb128 0xe
 9092 0192 3A       		.uleb128 0x3a
 9093 0193 0B       		.uleb128 0xb
 9094 0194 3B       		.uleb128 0x3b
 9095 0195 05       		.uleb128 0x5
 9096 0196 49       		.uleb128 0x49
 9097 0197 13       		.uleb128 0x13
 9098 0198 02       		.uleb128 0x2
 9099 0199 17       		.uleb128 0x17
 9100 019a 00       		.byte	0
 9101 019b 00       		.byte	0
 9102 019c 1E       		.uleb128 0x1e
 9103 019d 05       		.uleb128 0x5
 9104 019e 00       		.byte	0
 9105 019f 03       		.uleb128 0x3
 9106 01a0 0E       		.uleb128 0xe
 9107 01a1 3A       		.uleb128 0x3a
 9108 01a2 0B       		.uleb128 0xb
 9109 01a3 3B       		.uleb128 0x3b
 9110 01a4 05       		.uleb128 0x5
 9111 01a5 49       		.uleb128 0x49
 9112 01a6 13       		.uleb128 0x13
 9113 01a7 02       		.uleb128 0x2
 9114 01a8 17       		.uleb128 0x17
 9115 01a9 00       		.byte	0
 9116 01aa 00       		.byte	0
 9117 01ab 1F       		.uleb128 0x1f
 9118 01ac 2E       		.uleb128 0x2e
 9119 01ad 01       		.byte	0x1
 9120 01ae 3F       		.uleb128 0x3f
 9121 01af 19       		.uleb128 0x19
 9122 01b0 03       		.uleb128 0x3
 9123 01b1 0E       		.uleb128 0xe
 9124 01b2 3A       		.uleb128 0x3a
ARM GAS  /var/folders/7z/kps_xzfj7sn5l5gkyq8s9db00000gn/T//ccc38Eju.s 			page 163


 9125 01b3 0B       		.uleb128 0xb
 9126 01b4 3B       		.uleb128 0x3b
 9127 01b5 05       		.uleb128 0x5
 9128 01b6 27       		.uleb128 0x27
 9129 01b7 19       		.uleb128 0x19
 9130 01b8 49       		.uleb128 0x49
 9131 01b9 13       		.uleb128 0x13
 9132 01ba 11       		.uleb128 0x11
 9133 01bb 01       		.uleb128 0x1
 9134 01bc 12       		.uleb128 0x12
 9135 01bd 06       		.uleb128 0x6
 9136 01be 40       		.uleb128 0x40
 9137 01bf 18       		.uleb128 0x18
 9138 01c0 9742     		.uleb128 0x2117
 9139 01c2 19       		.uleb128 0x19
 9140 01c3 01       		.uleb128 0x1
 9141 01c4 13       		.uleb128 0x13
 9142 01c5 00       		.byte	0
 9143 01c6 00       		.byte	0
 9144 01c7 20       		.uleb128 0x20
 9145 01c8 34       		.uleb128 0x34
 9146 01c9 00       		.byte	0
 9147 01ca 03       		.uleb128 0x3
 9148 01cb 08       		.uleb128 0x8
 9149 01cc 3A       		.uleb128 0x3a
 9150 01cd 0B       		.uleb128 0xb
 9151 01ce 3B       		.uleb128 0x3b
 9152 01cf 05       		.uleb128 0x5
 9153 01d0 49       		.uleb128 0x49
 9154 01d1 13       		.uleb128 0x13
 9155 01d2 02       		.uleb128 0x2
 9156 01d3 17       		.uleb128 0x17
 9157 01d4 00       		.byte	0
 9158 01d5 00       		.byte	0
 9159 01d6 21       		.uleb128 0x21
 9160 01d7 1D       		.uleb128 0x1d
 9161 01d8 01       		.byte	0x1
 9162 01d9 31       		.uleb128 0x31
 9163 01da 13       		.uleb128 0x13
 9164 01db 52       		.uleb128 0x52
 9165 01dc 01       		.uleb128 0x1
 9166 01dd 55       		.uleb128 0x55
 9167 01de 17       		.uleb128 0x17
 9168 01df 58       		.uleb128 0x58
 9169 01e0 0B       		.uleb128 0xb
 9170 01e1 59       		.uleb128 0x59
 9171 01e2 05       		.uleb128 0x5
 9172 01e3 01       		.uleb128 0x1
 9173 01e4 13       		.uleb128 0x13
 9174 01e5 00       		.byte	0
 9175 01e6 00       		.byte	0
 9176 01e7 22       		.uleb128 0x22
 9177 01e8 05       		.uleb128 0x5
 9178 01e9 00       		.byte	0
 9179 01ea 31       		.uleb128 0x31
 9180 01eb 13       		.uleb128 0x13
 9181 01ec 02       		.uleb128 0x2
ARM GAS  /var/folders/7z/kps_xzfj7sn5l5gkyq8s9db00000gn/T//ccc38Eju.s 			page 164


 9182 01ed 17       		.uleb128 0x17
 9183 01ee 00       		.byte	0
 9184 01ef 00       		.byte	0
 9185 01f0 23       		.uleb128 0x23
 9186 01f1 0B       		.uleb128 0xb
 9187 01f2 01       		.byte	0x1
 9188 01f3 55       		.uleb128 0x55
 9189 01f4 17       		.uleb128 0x17
 9190 01f5 00       		.byte	0
 9191 01f6 00       		.byte	0
 9192 01f7 24       		.uleb128 0x24
 9193 01f8 34       		.uleb128 0x34
 9194 01f9 00       		.byte	0
 9195 01fa 31       		.uleb128 0x31
 9196 01fb 13       		.uleb128 0x13
 9197 01fc 02       		.uleb128 0x2
 9198 01fd 17       		.uleb128 0x17
 9199 01fe 00       		.byte	0
 9200 01ff 00       		.byte	0
 9201 0200 25       		.uleb128 0x25
 9202 0201 1D       		.uleb128 0x1d
 9203 0202 01       		.byte	0x1
 9204 0203 31       		.uleb128 0x31
 9205 0204 13       		.uleb128 0x13
 9206 0205 11       		.uleb128 0x11
 9207 0206 01       		.uleb128 0x1
 9208 0207 12       		.uleb128 0x12
 9209 0208 06       		.uleb128 0x6
 9210 0209 58       		.uleb128 0x58
 9211 020a 0B       		.uleb128 0xb
 9212 020b 59       		.uleb128 0x59
 9213 020c 05       		.uleb128 0x5
 9214 020d 01       		.uleb128 0x1
 9215 020e 13       		.uleb128 0x13
 9216 020f 00       		.byte	0
 9217 0210 00       		.byte	0
 9218 0211 26       		.uleb128 0x26
 9219 0212 05       		.uleb128 0x5
 9220 0213 00       		.byte	0
 9221 0214 31       		.uleb128 0x31
 9222 0215 13       		.uleb128 0x13
 9223 0216 02       		.uleb128 0x2
 9224 0217 18       		.uleb128 0x18
 9225 0218 00       		.byte	0
 9226 0219 00       		.byte	0
 9227 021a 27       		.uleb128 0x27
 9228 021b 1D       		.uleb128 0x1d
 9229 021c 01       		.byte	0x1
 9230 021d 31       		.uleb128 0x31
 9231 021e 13       		.uleb128 0x13
 9232 021f 11       		.uleb128 0x11
 9233 0220 01       		.uleb128 0x1
 9234 0221 12       		.uleb128 0x12
 9235 0222 06       		.uleb128 0x6
 9236 0223 58       		.uleb128 0x58
 9237 0224 0B       		.uleb128 0xb
 9238 0225 59       		.uleb128 0x59
ARM GAS  /var/folders/7z/kps_xzfj7sn5l5gkyq8s9db00000gn/T//ccc38Eju.s 			page 165


 9239 0226 05       		.uleb128 0x5
 9240 0227 00       		.byte	0
 9241 0228 00       		.byte	0
 9242 0229 28       		.uleb128 0x28
 9243 022a 0B       		.uleb128 0xb
 9244 022b 01       		.byte	0x1
 9245 022c 11       		.uleb128 0x11
 9246 022d 01       		.uleb128 0x1
 9247 022e 12       		.uleb128 0x12
 9248 022f 06       		.uleb128 0x6
 9249 0230 00       		.byte	0
 9250 0231 00       		.byte	0
 9251 0232 29       		.uleb128 0x29
 9252 0233 2E       		.uleb128 0x2e
 9253 0234 01       		.byte	0x1
 9254 0235 31       		.uleb128 0x31
 9255 0236 13       		.uleb128 0x13
 9256 0237 11       		.uleb128 0x11
 9257 0238 01       		.uleb128 0x1
 9258 0239 12       		.uleb128 0x12
 9259 023a 06       		.uleb128 0x6
 9260 023b 40       		.uleb128 0x40
 9261 023c 18       		.uleb128 0x18
 9262 023d 9742     		.uleb128 0x2117
 9263 023f 19       		.uleb128 0x19
 9264 0240 01       		.uleb128 0x1
 9265 0241 13       		.uleb128 0x13
 9266 0242 00       		.byte	0
 9267 0243 00       		.byte	0
 9268 0244 2A       		.uleb128 0x2a
 9269 0245 05       		.uleb128 0x5
 9270 0246 00       		.byte	0
 9271 0247 31       		.uleb128 0x31
 9272 0248 13       		.uleb128 0x13
 9273 0249 1C       		.uleb128 0x1c
 9274 024a 0B       		.uleb128 0xb
 9275 024b 00       		.byte	0
 9276 024c 00       		.byte	0
 9277 024d 2B       		.uleb128 0x2b
 9278 024e 34       		.uleb128 0x34
 9279 024f 00       		.byte	0
 9280 0250 03       		.uleb128 0x3
 9281 0251 0E       		.uleb128 0xe
 9282 0252 3A       		.uleb128 0x3a
 9283 0253 0B       		.uleb128 0xb
 9284 0254 3B       		.uleb128 0x3b
 9285 0255 05       		.uleb128 0x5
 9286 0256 49       		.uleb128 0x49
 9287 0257 13       		.uleb128 0x13
 9288 0258 3F       		.uleb128 0x3f
 9289 0259 19       		.uleb128 0x19
 9290 025a 3C       		.uleb128 0x3c
 9291 025b 19       		.uleb128 0x19
 9292 025c 00       		.byte	0
 9293 025d 00       		.byte	0
 9294 025e 2C       		.uleb128 0x2c
 9295 025f 2E       		.uleb128 0x2e
ARM GAS  /var/folders/7z/kps_xzfj7sn5l5gkyq8s9db00000gn/T//ccc38Eju.s 			page 166


 9296 0260 01       		.byte	0x1
 9297 0261 3F       		.uleb128 0x3f
 9298 0262 19       		.uleb128 0x19
 9299 0263 03       		.uleb128 0x3
 9300 0264 0E       		.uleb128 0xe
 9301 0265 3A       		.uleb128 0x3a
 9302 0266 0B       		.uleb128 0xb
 9303 0267 3B       		.uleb128 0x3b
 9304 0268 05       		.uleb128 0x5
 9305 0269 27       		.uleb128 0x27
 9306 026a 19       		.uleb128 0x19
 9307 026b 3C       		.uleb128 0x3c
 9308 026c 19       		.uleb128 0x19
 9309 026d 01       		.uleb128 0x1
 9310 026e 13       		.uleb128 0x13
 9311 026f 00       		.byte	0
 9312 0270 00       		.byte	0
 9313 0271 2D       		.uleb128 0x2d
 9314 0272 05       		.uleb128 0x5
 9315 0273 00       		.byte	0
 9316 0274 49       		.uleb128 0x49
 9317 0275 13       		.uleb128 0x13
 9318 0276 00       		.byte	0
 9319 0277 00       		.byte	0
 9320 0278 2E       		.uleb128 0x2e
 9321 0279 2E       		.uleb128 0x2e
 9322 027a 01       		.byte	0x1
 9323 027b 3F       		.uleb128 0x3f
 9324 027c 19       		.uleb128 0x19
 9325 027d 03       		.uleb128 0x3
 9326 027e 0E       		.uleb128 0xe
 9327 027f 3A       		.uleb128 0x3a
 9328 0280 0B       		.uleb128 0xb
 9329 0281 3B       		.uleb128 0x3b
 9330 0282 05       		.uleb128 0x5
 9331 0283 27       		.uleb128 0x27
 9332 0284 19       		.uleb128 0x19
 9333 0285 3C       		.uleb128 0x3c
 9334 0286 19       		.uleb128 0x19
 9335 0287 00       		.byte	0
 9336 0288 00       		.byte	0
 9337 0289 00       		.byte	0
 9338              		.section	.debug_loc,"",%progbits
 9339              	.Ldebug_loc0:
 9340              	.LLST0:
 9341 0000 00000000 		.4byte	.LVL0
 9342 0004 60000000 		.4byte	.LVL1
 9343 0008 0100     		.2byte	0x1
 9344 000a 50       		.byte	0x50
 9345 000b 60000000 		.4byte	.LVL1
 9346 000f 74000000 		.4byte	.LVL3
 9347 0013 0400     		.2byte	0x4
 9348 0015 F3       		.byte	0xf3
 9349 0016 01       		.uleb128 0x1
 9350 0017 50       		.byte	0x50
 9351 0018 9F       		.byte	0x9f
 9352 0019 74000000 		.4byte	.LVL3
ARM GAS  /var/folders/7z/kps_xzfj7sn5l5gkyq8s9db00000gn/T//ccc38Eju.s 			page 167


 9353 001d 76000000 		.4byte	.LVL4
 9354 0021 0100     		.2byte	0x1
 9355 0023 50       		.byte	0x50
 9356 0024 76000000 		.4byte	.LVL4
 9357 0028 88000000 		.4byte	.LVL6
 9358 002c 0400     		.2byte	0x4
 9359 002e F3       		.byte	0xf3
 9360 002f 01       		.uleb128 0x1
 9361 0030 50       		.byte	0x50
 9362 0031 9F       		.byte	0x9f
 9363 0032 88000000 		.4byte	.LVL6
 9364 0036 8A000000 		.4byte	.LVL7
 9365 003a 0100     		.2byte	0x1
 9366 003c 50       		.byte	0x50
 9367 003d 8A000000 		.4byte	.LVL7
 9368 0041 9C000000 		.4byte	.LVL9
 9369 0045 0400     		.2byte	0x4
 9370 0047 F3       		.byte	0xf3
 9371 0048 01       		.uleb128 0x1
 9372 0049 50       		.byte	0x50
 9373 004a 9F       		.byte	0x9f
 9374 004b 9C000000 		.4byte	.LVL9
 9375 004f 9E000000 		.4byte	.LVL10
 9376 0053 0100     		.2byte	0x1
 9377 0055 50       		.byte	0x50
 9378 0056 9E000000 		.4byte	.LVL10
 9379 005a B0000000 		.4byte	.LVL12
 9380 005e 0400     		.2byte	0x4
 9381 0060 F3       		.byte	0xf3
 9382 0061 01       		.uleb128 0x1
 9383 0062 50       		.byte	0x50
 9384 0063 9F       		.byte	0x9f
 9385 0064 B0000000 		.4byte	.LVL12
 9386 0068 B2000000 		.4byte	.LVL13
 9387 006c 0100     		.2byte	0x1
 9388 006e 50       		.byte	0x50
 9389 006f B2000000 		.4byte	.LVL13
 9390 0073 C4000000 		.4byte	.LVL15
 9391 0077 0400     		.2byte	0x4
 9392 0079 F3       		.byte	0xf3
 9393 007a 01       		.uleb128 0x1
 9394 007b 50       		.byte	0x50
 9395 007c 9F       		.byte	0x9f
 9396 007d C4000000 		.4byte	.LVL15
 9397 0081 C6000000 		.4byte	.LVL16
 9398 0085 0100     		.2byte	0x1
 9399 0087 50       		.byte	0x50
 9400 0088 C6000000 		.4byte	.LVL16
 9401 008c D8000000 		.4byte	.LVL18
 9402 0090 0400     		.2byte	0x4
 9403 0092 F3       		.byte	0xf3
 9404 0093 01       		.uleb128 0x1
 9405 0094 50       		.byte	0x50
 9406 0095 9F       		.byte	0x9f
 9407 0096 D8000000 		.4byte	.LVL18
 9408 009a DA000000 		.4byte	.LVL19
 9409 009e 0100     		.2byte	0x1
ARM GAS  /var/folders/7z/kps_xzfj7sn5l5gkyq8s9db00000gn/T//ccc38Eju.s 			page 168


 9410 00a0 50       		.byte	0x50
 9411 00a1 DA000000 		.4byte	.LVL19
 9412 00a5 EC000000 		.4byte	.LVL21
 9413 00a9 0400     		.2byte	0x4
 9414 00ab F3       		.byte	0xf3
 9415 00ac 01       		.uleb128 0x1
 9416 00ad 50       		.byte	0x50
 9417 00ae 9F       		.byte	0x9f
 9418 00af EC000000 		.4byte	.LVL21
 9419 00b3 EE000000 		.4byte	.LVL22
 9420 00b7 0100     		.2byte	0x1
 9421 00b9 50       		.byte	0x50
 9422 00ba EE000000 		.4byte	.LVL22
 9423 00be 00010000 		.4byte	.LVL24
 9424 00c2 0400     		.2byte	0x4
 9425 00c4 F3       		.byte	0xf3
 9426 00c5 01       		.uleb128 0x1
 9427 00c6 50       		.byte	0x50
 9428 00c7 9F       		.byte	0x9f
 9429 00c8 00010000 		.4byte	.LVL24
 9430 00cc 02010000 		.4byte	.LVL25
 9431 00d0 0100     		.2byte	0x1
 9432 00d2 50       		.byte	0x50
 9433 00d3 02010000 		.4byte	.LVL25
 9434 00d7 14010000 		.4byte	.LVL27
 9435 00db 0400     		.2byte	0x4
 9436 00dd F3       		.byte	0xf3
 9437 00de 01       		.uleb128 0x1
 9438 00df 50       		.byte	0x50
 9439 00e0 9F       		.byte	0x9f
 9440 00e1 14010000 		.4byte	.LVL27
 9441 00e5 18010000 		.4byte	.LVL28
 9442 00e9 0100     		.2byte	0x1
 9443 00eb 50       		.byte	0x50
 9444 00ec 18010000 		.4byte	.LVL28
 9445 00f0 2C010000 		.4byte	.LVL30
 9446 00f4 0400     		.2byte	0x4
 9447 00f6 F3       		.byte	0xf3
 9448 00f7 01       		.uleb128 0x1
 9449 00f8 50       		.byte	0x50
 9450 00f9 9F       		.byte	0x9f
 9451 00fa 2C010000 		.4byte	.LVL30
 9452 00fe 30010000 		.4byte	.LVL31
 9453 0102 0100     		.2byte	0x1
 9454 0104 50       		.byte	0x50
 9455 0105 30010000 		.4byte	.LVL31
 9456 0109 44010000 		.4byte	.LVL33
 9457 010d 0400     		.2byte	0x4
 9458 010f F3       		.byte	0xf3
 9459 0110 01       		.uleb128 0x1
 9460 0111 50       		.byte	0x50
 9461 0112 9F       		.byte	0x9f
 9462 0113 44010000 		.4byte	.LVL33
 9463 0117 48010000 		.4byte	.LVL34
 9464 011b 0100     		.2byte	0x1
 9465 011d 50       		.byte	0x50
 9466 011e 48010000 		.4byte	.LVL34
ARM GAS  /var/folders/7z/kps_xzfj7sn5l5gkyq8s9db00000gn/T//ccc38Eju.s 			page 169


 9467 0122 5C010000 		.4byte	.LVL36
 9468 0126 0400     		.2byte	0x4
 9469 0128 F3       		.byte	0xf3
 9470 0129 01       		.uleb128 0x1
 9471 012a 50       		.byte	0x50
 9472 012b 9F       		.byte	0x9f
 9473 012c 5C010000 		.4byte	.LVL36
 9474 0130 5E010000 		.4byte	.LVL37
 9475 0134 0100     		.2byte	0x1
 9476 0136 50       		.byte	0x50
 9477 0137 5E010000 		.4byte	.LVL37
 9478 013b 70010000 		.4byte	.LVL39
 9479 013f 0400     		.2byte	0x4
 9480 0141 F3       		.byte	0xf3
 9481 0142 01       		.uleb128 0x1
 9482 0143 50       		.byte	0x50
 9483 0144 9F       		.byte	0x9f
 9484 0145 70010000 		.4byte	.LVL39
 9485 0149 72010000 		.4byte	.LVL40
 9486 014d 0100     		.2byte	0x1
 9487 014f 50       		.byte	0x50
 9488 0150 72010000 		.4byte	.LVL40
 9489 0154 B8010000 		.4byte	.LFE111
 9490 0158 0400     		.2byte	0x4
 9491 015a F3       		.byte	0xf3
 9492 015b 01       		.uleb128 0x1
 9493 015c 50       		.byte	0x50
 9494 015d 9F       		.byte	0x9f
 9495 015e 00000000 		.4byte	0
 9496 0162 00000000 		.4byte	0
 9497              	.LLST1:
 9498 0166 00000000 		.4byte	.LVL43
 9499 016a 08000000 		.4byte	.LVL44
 9500 016e 0200     		.2byte	0x2
 9501 0170 30       		.byte	0x30
 9502 0171 9F       		.byte	0x9f
 9503 0172 08000000 		.4byte	.LVL44
 9504 0176 4E000000 		.4byte	.LVL47
 9505 017a 0100     		.2byte	0x1
 9506 017c 53       		.byte	0x53
 9507 017d 56000000 		.4byte	.LVL48
 9508 0181 62000000 		.4byte	.LVL50
 9509 0185 0100     		.2byte	0x1
 9510 0187 53       		.byte	0x53
 9511 0188 7C000000 		.4byte	.LVL51
 9512 018c 80000000 		.4byte	.LVL52
 9513 0190 0100     		.2byte	0x1
 9514 0192 53       		.byte	0x53
 9515 0193 80000000 		.4byte	.LVL52
 9516 0197 84000000 		.4byte	.LVL53
 9517 019b 0200     		.2byte	0x2
 9518 019d 70       		.byte	0x70
 9519 019e 00       		.sleb128 0
 9520 019f 00000000 		.4byte	0
 9521 01a3 00000000 		.4byte	0
 9522              	.LLST2:
 9523 01a7 00000000 		.4byte	.LVL56
ARM GAS  /var/folders/7z/kps_xzfj7sn5l5gkyq8s9db00000gn/T//ccc38Eju.s 			page 170


 9524 01ab 0C000000 		.4byte	.LVL60
 9525 01af 0100     		.2byte	0x1
 9526 01b1 51       		.byte	0x51
 9527 01b2 0C000000 		.4byte	.LVL60
 9528 01b6 10000000 		.4byte	.LFE115
 9529 01ba 0400     		.2byte	0x4
 9530 01bc F3       		.byte	0xf3
 9531 01bd 01       		.uleb128 0x1
 9532 01be 51       		.byte	0x51
 9533 01bf 9F       		.byte	0x9f
 9534 01c0 00000000 		.4byte	0
 9535 01c4 00000000 		.4byte	0
 9536              	.LLST3:
 9537 01c8 00000000 		.4byte	.LVL56
 9538 01cc 02000000 		.4byte	.LVL57
 9539 01d0 0200     		.2byte	0x2
 9540 01d2 30       		.byte	0x30
 9541 01d3 9F       		.byte	0x9f
 9542 01d4 02000000 		.4byte	.LVL57
 9543 01d8 06000000 		.4byte	.LVL58
 9544 01dc 0100     		.2byte	0x1
 9545 01de 53       		.byte	0x53
 9546 01df 0A000000 		.4byte	.LVL59
 9547 01e3 0C000000 		.4byte	.LVL60
 9548 01e7 0100     		.2byte	0x1
 9549 01e9 53       		.byte	0x53
 9550 01ea 0C000000 		.4byte	.LVL60
 9551 01ee 10000000 		.4byte	.LFE115
 9552 01f2 0100     		.2byte	0x1
 9553 01f4 51       		.byte	0x51
 9554 01f5 00000000 		.4byte	0
 9555 01f9 00000000 		.4byte	0
 9556              	.LLST4:
 9557 01fd 00000000 		.4byte	.LVL63
 9558 0201 02000000 		.4byte	.LVL64
 9559 0205 0100     		.2byte	0x1
 9560 0207 50       		.byte	0x50
 9561 0208 02000000 		.4byte	.LVL64
 9562 020c 04000000 		.4byte	.LFE118
 9563 0210 0400     		.2byte	0x4
 9564 0212 F3       		.byte	0xf3
 9565 0213 01       		.uleb128 0x1
 9566 0214 50       		.byte	0x50
 9567 0215 9F       		.byte	0x9f
 9568 0216 00000000 		.4byte	0
 9569 021a 00000000 		.4byte	0
 9570              	.LLST5:
 9571 021e 00000000 		.4byte	.LVL65
 9572 0222 02000000 		.4byte	.LVL66
 9573 0226 0100     		.2byte	0x1
 9574 0228 50       		.byte	0x50
 9575 0229 02000000 		.4byte	.LVL66
 9576 022d 06000000 		.4byte	.LFE119
 9577 0231 0400     		.2byte	0x4
 9578 0233 F3       		.byte	0xf3
 9579 0234 01       		.uleb128 0x1
 9580 0235 50       		.byte	0x50
ARM GAS  /var/folders/7z/kps_xzfj7sn5l5gkyq8s9db00000gn/T//ccc38Eju.s 			page 171


 9581 0236 9F       		.byte	0x9f
 9582 0237 00000000 		.4byte	0
 9583 023b 00000000 		.4byte	0
 9584              	.LLST6:
 9585 023f 00000000 		.4byte	.LVL70
 9586 0243 12000000 		.4byte	.LVL71
 9587 0247 0100     		.2byte	0x1
 9588 0249 51       		.byte	0x51
 9589 024a 12000000 		.4byte	.LVL71
 9590 024e 16000000 		.4byte	.LFE123
 9591 0252 0400     		.2byte	0x4
 9592 0254 F3       		.byte	0xf3
 9593 0255 01       		.uleb128 0x1
 9594 0256 51       		.byte	0x51
 9595 0257 9F       		.byte	0x9f
 9596 0258 00000000 		.4byte	0
 9597 025c 00000000 		.4byte	0
 9598              	.LLST7:
 9599 0260 00000000 		.4byte	.LVL72
 9600 0264 12000000 		.4byte	.LVL73
 9601 0268 0100     		.2byte	0x1
 9602 026a 51       		.byte	0x51
 9603 026b 12000000 		.4byte	.LVL73
 9604 026f 16000000 		.4byte	.LFE124
 9605 0273 0400     		.2byte	0x4
 9606 0275 F3       		.byte	0xf3
 9607 0276 01       		.uleb128 0x1
 9608 0277 51       		.byte	0x51
 9609 0278 9F       		.byte	0x9f
 9610 0279 00000000 		.4byte	0
 9611 027d 00000000 		.4byte	0
 9612              	.LLST8:
 9613 0281 00000000 		.4byte	.LVL75
 9614 0285 4C000000 		.4byte	.LVL80
 9615 0289 0100     		.2byte	0x1
 9616 028b 51       		.byte	0x51
 9617 028c 4C000000 		.4byte	.LVL80
 9618 0290 56000000 		.4byte	.LVL81
 9619 0294 0400     		.2byte	0x4
 9620 0296 F3       		.byte	0xf3
 9621 0297 01       		.uleb128 0x1
 9622 0298 51       		.byte	0x51
 9623 0299 9F       		.byte	0x9f
 9624 029a 56000000 		.4byte	.LVL81
 9625 029e 84000000 		.4byte	.LFE126
 9626 02a2 0100     		.2byte	0x1
 9627 02a4 51       		.byte	0x51
 9628 02a5 00000000 		.4byte	0
 9629 02a9 00000000 		.4byte	0
 9630              	.LLST9:
 9631 02ad 00000000 		.4byte	.LVL75
 9632 02b1 3E000000 		.4byte	.LVL78
 9633 02b5 0200     		.2byte	0x2
 9634 02b7 30       		.byte	0x30
 9635 02b8 9F       		.byte	0x9f
 9636 02b9 3E000000 		.4byte	.LVL78
 9637 02bd 84000000 		.4byte	.LFE126
ARM GAS  /var/folders/7z/kps_xzfj7sn5l5gkyq8s9db00000gn/T//ccc38Eju.s 			page 172


 9638 02c1 0100     		.2byte	0x1
 9639 02c3 52       		.byte	0x52
 9640 02c4 00000000 		.4byte	0
 9641 02c8 00000000 		.4byte	0
 9642              	.LLST10:
 9643 02cc 00000000 		.4byte	.LVL75
 9644 02d0 1A000000 		.4byte	.LVL76
 9645 02d4 0200     		.2byte	0x2
 9646 02d6 30       		.byte	0x30
 9647 02d7 9F       		.byte	0x9f
 9648 02d8 1A000000 		.4byte	.LVL76
 9649 02dc 24000000 		.4byte	.LVL77
 9650 02e0 0100     		.2byte	0x1
 9651 02e2 55       		.byte	0x55
 9652 02e3 42000000 		.4byte	.LVL79
 9653 02e7 84000000 		.4byte	.LFE126
 9654 02eb 0100     		.2byte	0x1
 9655 02ed 53       		.byte	0x53
 9656 02ee 00000000 		.4byte	0
 9657 02f2 00000000 		.4byte	0
 9658              	.LLST11:
 9659 02f6 00000000 		.4byte	.LVL75
 9660 02fa 3E000000 		.4byte	.LVL78
 9661 02fe 0200     		.2byte	0x2
 9662 0300 30       		.byte	0x30
 9663 0301 9F       		.byte	0x9f
 9664 0302 3E000000 		.4byte	.LVL78
 9665 0306 68000000 		.4byte	.LVL83
 9666 030a 0100     		.2byte	0x1
 9667 030c 54       		.byte	0x54
 9668 030d 78000000 		.4byte	.LVL87
 9669 0311 84000000 		.4byte	.LFE126
 9670 0315 0100     		.2byte	0x1
 9671 0317 54       		.byte	0x54
 9672 0318 00000000 		.4byte	0
 9673 031c 00000000 		.4byte	0
 9674              	.LLST12:
 9675 0320 00000000 		.4byte	.LVL88
 9676 0324 42000000 		.4byte	.LVL91
 9677 0328 0200     		.2byte	0x2
 9678 032a 30       		.byte	0x30
 9679 032b 9F       		.byte	0x9f
 9680 032c 44000000 		.4byte	.LVL92
 9681 0330 90000000 		.4byte	.LFE127
 9682 0334 0100     		.2byte	0x1
 9683 0336 54       		.byte	0x54
 9684 0337 00000000 		.4byte	0
 9685 033b 00000000 		.4byte	0
 9686              	.LLST13:
 9687 033f 00000000 		.4byte	.LVL88
 9688 0343 1C000000 		.4byte	.LVL89
 9689 0347 0200     		.2byte	0x2
 9690 0349 30       		.byte	0x30
 9691 034a 9F       		.byte	0x9f
 9692 034b 1C000000 		.4byte	.LVL89
 9693 034f 2A000000 		.4byte	.LVL90
 9694 0353 0100     		.2byte	0x1
ARM GAS  /var/folders/7z/kps_xzfj7sn5l5gkyq8s9db00000gn/T//ccc38Eju.s 			page 173


 9695 0355 52       		.byte	0x52
 9696 0356 44000000 		.4byte	.LVL92
 9697 035a 5E000000 		.4byte	.LVL94
 9698 035e 0100     		.2byte	0x1
 9699 0360 53       		.byte	0x53
 9700 0361 68000000 		.4byte	.LVL95
 9701 0365 76000000 		.4byte	.LVL98
 9702 0369 0100     		.2byte	0x1
 9703 036b 52       		.byte	0x52
 9704 036c 76000000 		.4byte	.LVL98
 9705 0370 7E000000 		.4byte	.LVL99
 9706 0374 0100     		.2byte	0x1
 9707 0376 53       		.byte	0x53
 9708 0377 7E000000 		.4byte	.LVL99
 9709 037b 84000000 		.4byte	.LVL100
 9710 037f 0700     		.2byte	0x7
 9711 0381 72       		.byte	0x72
 9712 0382 00       		.sleb128 0
 9713 0383 0A       		.byte	0xa
 9714 0384 BFFF     		.2byte	0xffbf
 9715 0386 1A       		.byte	0x1a
 9716 0387 9F       		.byte	0x9f
 9717 0388 84000000 		.4byte	.LVL100
 9718 038c 90000000 		.4byte	.LFE127
 9719 0390 0100     		.2byte	0x1
 9720 0392 53       		.byte	0x53
 9721 0393 00000000 		.4byte	0
 9722 0397 00000000 		.4byte	0
 9723              	.LLST14:
 9724 039b 00000000 		.4byte	.LVL88
 9725 039f 42000000 		.4byte	.LVL91
 9726 03a3 0200     		.2byte	0x2
 9727 03a5 30       		.byte	0x30
 9728 03a6 9F       		.byte	0x9f
 9729 03a7 42000000 		.4byte	.LVL91
 9730 03ab 70000000 		.4byte	.LVL97
 9731 03af 0100     		.2byte	0x1
 9732 03b1 55       		.byte	0x55
 9733 03b2 86000000 		.4byte	.LVL101
 9734 03b6 90000000 		.4byte	.LFE127
 9735 03ba 0100     		.2byte	0x1
 9736 03bc 55       		.byte	0x55
 9737 03bd 00000000 		.4byte	0
 9738 03c1 00000000 		.4byte	0
 9739              	.LLST15:
 9740 03c5 00000000 		.4byte	.LVL102
 9741 03c9 3E000000 		.4byte	.LVL105
 9742 03cd 0200     		.2byte	0x2
 9743 03cf 30       		.byte	0x30
 9744 03d0 9F       		.byte	0x9f
 9745 03d1 3E000000 		.4byte	.LVL105
 9746 03d5 42000000 		.4byte	.LVL106
 9747 03d9 0100     		.2byte	0x1
 9748 03db 52       		.byte	0x52
 9749 03dc 42000000 		.4byte	.LVL106
 9750 03e0 90000000 		.4byte	.LFE128
 9751 03e4 0100     		.2byte	0x1
ARM GAS  /var/folders/7z/kps_xzfj7sn5l5gkyq8s9db00000gn/T//ccc38Eju.s 			page 174


 9752 03e6 54       		.byte	0x54
 9753 03e7 00000000 		.4byte	0
 9754 03eb 00000000 		.4byte	0
 9755              	.LLST16:
 9756 03ef 00000000 		.4byte	.LVL102
 9757 03f3 1C000000 		.4byte	.LVL103
 9758 03f7 0200     		.2byte	0x2
 9759 03f9 30       		.byte	0x30
 9760 03fa 9F       		.byte	0x9f
 9761 03fb 1C000000 		.4byte	.LVL103
 9762 03ff 2A000000 		.4byte	.LVL104
 9763 0403 0100     		.2byte	0x1
 9764 0405 52       		.byte	0x52
 9765 0406 42000000 		.4byte	.LVL106
 9766 040a 5C000000 		.4byte	.LVL108
 9767 040e 0100     		.2byte	0x1
 9768 0410 53       		.byte	0x53
 9769 0411 66000000 		.4byte	.LVL109
 9770 0415 74000000 		.4byte	.LVL112
 9771 0419 0100     		.2byte	0x1
 9772 041b 52       		.byte	0x52
 9773 041c 74000000 		.4byte	.LVL112
 9774 0420 7C000000 		.4byte	.LVL113
 9775 0424 0100     		.2byte	0x1
 9776 0426 53       		.byte	0x53
 9777 0427 7C000000 		.4byte	.LVL113
 9778 042b 82000000 		.4byte	.LVL114
 9779 042f 0700     		.2byte	0x7
 9780 0431 72       		.byte	0x72
 9781 0432 00       		.sleb128 0
 9782 0433 0A       		.byte	0xa
 9783 0434 FFFB     		.2byte	0xfbff
 9784 0436 1A       		.byte	0x1a
 9785 0437 9F       		.byte	0x9f
 9786 0438 82000000 		.4byte	.LVL114
 9787 043c 90000000 		.4byte	.LFE128
 9788 0440 0100     		.2byte	0x1
 9789 0442 53       		.byte	0x53
 9790 0443 00000000 		.4byte	0
 9791 0447 00000000 		.4byte	0
 9792              	.LLST17:
 9793 044b 00000000 		.4byte	.LVL102
 9794 044f 3E000000 		.4byte	.LVL105
 9795 0453 0200     		.2byte	0x2
 9796 0455 30       		.byte	0x30
 9797 0456 9F       		.byte	0x9f
 9798 0457 3E000000 		.4byte	.LVL105
 9799 045b 6E000000 		.4byte	.LVL111
 9800 045f 0100     		.2byte	0x1
 9801 0461 55       		.byte	0x55
 9802 0462 84000000 		.4byte	.LVL115
 9803 0466 90000000 		.4byte	.LFE128
 9804 046a 0100     		.2byte	0x1
 9805 046c 55       		.byte	0x55
 9806 046d 00000000 		.4byte	0
 9807 0471 00000000 		.4byte	0
 9808              	.LLST18:
ARM GAS  /var/folders/7z/kps_xzfj7sn5l5gkyq8s9db00000gn/T//ccc38Eju.s 			page 175


 9809 0475 00000000 		.4byte	.LVL116
 9810 0479 52000000 		.4byte	.LVL120
 9811 047d 0100     		.2byte	0x1
 9812 047f 51       		.byte	0x51
 9813 0480 52000000 		.4byte	.LVL120
 9814 0484 5E000000 		.4byte	.LVL121
 9815 0488 0400     		.2byte	0x4
 9816 048a F3       		.byte	0xf3
 9817 048b 01       		.uleb128 0x1
 9818 048c 51       		.byte	0x51
 9819 048d 9F       		.byte	0x9f
 9820 048e 5E000000 		.4byte	.LVL121
 9821 0492 74000000 		.4byte	.LFE129
 9822 0496 0100     		.2byte	0x1
 9823 0498 51       		.byte	0x51
 9824 0499 00000000 		.4byte	0
 9825 049d 00000000 		.4byte	0
 9826              	.LLST19:
 9827 04a1 00000000 		.4byte	.LVL116
 9828 04a5 46000000 		.4byte	.LVL118
 9829 04a9 0200     		.2byte	0x2
 9830 04ab 30       		.byte	0x30
 9831 04ac 9F       		.byte	0x9f
 9832 04ad 48000000 		.4byte	.LVL119
 9833 04b1 74000000 		.4byte	.LFE129
 9834 04b5 0100     		.2byte	0x1
 9835 04b7 53       		.byte	0x53
 9836 04b8 00000000 		.4byte	0
 9837 04bc 00000000 		.4byte	0
 9838              	.LLST20:
 9839 04c0 00000000 		.4byte	.LVL116
 9840 04c4 1E000000 		.4byte	.LVL117
 9841 04c8 0200     		.2byte	0x2
 9842 04ca 30       		.byte	0x30
 9843 04cb 9F       		.byte	0x9f
 9844 04cc 1E000000 		.4byte	.LVL117
 9845 04d0 48000000 		.4byte	.LVL119
 9846 04d4 0100     		.2byte	0x1
 9847 04d6 55       		.byte	0x55
 9848 04d7 48000000 		.4byte	.LVL119
 9849 04db 74000000 		.4byte	.LFE129
 9850 04df 0100     		.2byte	0x1
 9851 04e1 54       		.byte	0x54
 9852 04e2 00000000 		.4byte	0
 9853 04e6 00000000 		.4byte	0
 9854              	.LLST21:
 9855 04ea 00000000 		.4byte	.LVL116
 9856 04ee 46000000 		.4byte	.LVL118
 9857 04f2 0200     		.2byte	0x2
 9858 04f4 30       		.byte	0x30
 9859 04f5 9F       		.byte	0x9f
 9860 04f6 46000000 		.4byte	.LVL118
 9861 04fa 68000000 		.4byte	.LVL123
 9862 04fe 0100     		.2byte	0x1
 9863 0500 52       		.byte	0x52
 9864 0501 68000000 		.4byte	.LVL123
 9865 0505 6A000000 		.4byte	.LVL124
ARM GAS  /var/folders/7z/kps_xzfj7sn5l5gkyq8s9db00000gn/T//ccc38Eju.s 			page 176


 9866 0509 0B00     		.2byte	0xb
 9867 050b 77       		.byte	0x77
 9868 050c 00       		.sleb128 0
 9869 050d 0A       		.byte	0xa
 9870 050e FFFF     		.2byte	0xffff
 9871 0510 1A       		.byte	0x1a
 9872 0511 0B       		.byte	0xb
 9873 0512 FFBF     		.2byte	0xbfff
 9874 0514 1A       		.byte	0x1a
 9875 0515 9F       		.byte	0x9f
 9876 0516 6A000000 		.4byte	.LVL124
 9877 051a 74000000 		.4byte	.LFE129
 9878 051e 0100     		.2byte	0x1
 9879 0520 52       		.byte	0x52
 9880 0521 00000000 		.4byte	0
 9881 0525 00000000 		.4byte	0
 9882              	.LLST22:
 9883 0529 00000000 		.4byte	.LVL126
 9884 052d 16000000 		.4byte	.LVL127
 9885 0531 0100     		.2byte	0x1
 9886 0533 50       		.byte	0x50
 9887 0534 16000000 		.4byte	.LVL127
 9888 0538 50000000 		.4byte	.LFE131
 9889 053c 0300     		.2byte	0x3
 9890 053e 70       		.byte	0x70
 9891 053f 68       		.sleb128 -24
 9892 0540 9F       		.byte	0x9f
 9893 0541 00000000 		.4byte	0
 9894 0545 00000000 		.4byte	0
 9895              	.LLST23:
 9896 0549 00000000 		.4byte	.LVL126
 9897 054d 1A000000 		.4byte	.LVL129
 9898 0551 0100     		.2byte	0x1
 9899 0553 51       		.byte	0x51
 9900 0554 1A000000 		.4byte	.LVL129
 9901 0558 38000000 		.4byte	.LVL131
 9902 055c 0400     		.2byte	0x4
 9903 055e F3       		.byte	0xf3
 9904 055f 01       		.uleb128 0x1
 9905 0560 51       		.byte	0x51
 9906 0561 9F       		.byte	0x9f
 9907 0562 38000000 		.4byte	.LVL131
 9908 0566 3A000000 		.4byte	.LVL132
 9909 056a 0100     		.2byte	0x1
 9910 056c 51       		.byte	0x51
 9911 056d 3A000000 		.4byte	.LVL132
 9912 0571 50000000 		.4byte	.LFE131
 9913 0575 0400     		.2byte	0x4
 9914 0577 F3       		.byte	0xf3
 9915 0578 01       		.uleb128 0x1
 9916 0579 51       		.byte	0x51
 9917 057a 9F       		.byte	0x9f
 9918 057b 00000000 		.4byte	0
 9919 057f 00000000 		.4byte	0
 9920              	.LLST24:
 9921 0583 00000000 		.4byte	.LVL126
 9922 0587 2A000000 		.4byte	.LVL130
ARM GAS  /var/folders/7z/kps_xzfj7sn5l5gkyq8s9db00000gn/T//ccc38Eju.s 			page 177


 9923 058b 0100     		.2byte	0x1
 9924 058d 52       		.byte	0x52
 9925 058e 2A000000 		.4byte	.LVL130
 9926 0592 38000000 		.4byte	.LVL131
 9927 0596 0400     		.2byte	0x4
 9928 0598 F3       		.byte	0xf3
 9929 0599 01       		.uleb128 0x1
 9930 059a 52       		.byte	0x52
 9931 059b 9F       		.byte	0x9f
 9932 059c 38000000 		.4byte	.LVL131
 9933 05a0 4C000000 		.4byte	.LVL133
 9934 05a4 0100     		.2byte	0x1
 9935 05a6 52       		.byte	0x52
 9936 05a7 4C000000 		.4byte	.LVL133
 9937 05ab 50000000 		.4byte	.LFE131
 9938 05af 0400     		.2byte	0x4
 9939 05b1 F3       		.byte	0xf3
 9940 05b2 01       		.uleb128 0x1
 9941 05b3 52       		.byte	0x52
 9942 05b4 9F       		.byte	0x9f
 9943 05b5 00000000 		.4byte	0
 9944 05b9 00000000 		.4byte	0
 9945              	.LLST25:
 9946 05bd 00000000 		.4byte	.LVL126
 9947 05c1 18000000 		.4byte	.LVL128
 9948 05c5 0100     		.2byte	0x1
 9949 05c7 50       		.byte	0x50
 9950 05c8 18000000 		.4byte	.LVL128
 9951 05cc 1A000000 		.4byte	.LVL129
 9952 05d0 0C00     		.2byte	0xc
 9953 05d2 71       		.byte	0x71
 9954 05d3 7C       		.sleb128 -4
 9955 05d4 31       		.byte	0x31
 9956 05d5 25       		.byte	0x25
 9957 05d6 0A       		.byte	0xa
 9958 05d7 FFFF     		.2byte	0xffff
 9959 05d9 1A       		.byte	0x1a
 9960 05da 70       		.byte	0x70
 9961 05db 00       		.sleb128 0
 9962 05dc 22       		.byte	0x22
 9963 05dd 9F       		.byte	0x9f
 9964 05de 1A000000 		.4byte	.LVL129
 9965 05e2 38000000 		.4byte	.LVL131
 9966 05e6 0F00     		.2byte	0xf
 9967 05e8 F3       		.byte	0xf3
 9968 05e9 01       		.uleb128 0x1
 9969 05ea 51       		.byte	0x51
 9970 05eb 34       		.byte	0x34
 9971 05ec 1C       		.byte	0x1c
 9972 05ed 31       		.byte	0x31
 9973 05ee 25       		.byte	0x25
 9974 05ef 0A       		.byte	0xa
 9975 05f0 FFFF     		.2byte	0xffff
 9976 05f2 1A       		.byte	0x1a
 9977 05f3 70       		.byte	0x70
 9978 05f4 00       		.sleb128 0
 9979 05f5 22       		.byte	0x22
ARM GAS  /var/folders/7z/kps_xzfj7sn5l5gkyq8s9db00000gn/T//ccc38Eju.s 			page 178


 9980 05f6 9F       		.byte	0x9f
 9981 05f7 38000000 		.4byte	.LVL131
 9982 05fb 3A000000 		.4byte	.LVL132
 9983 05ff 0C00     		.2byte	0xc
 9984 0601 71       		.byte	0x71
 9985 0602 00       		.sleb128 0
 9986 0603 31       		.byte	0x31
 9987 0604 25       		.byte	0x25
 9988 0605 0A       		.byte	0xa
 9989 0606 FFFF     		.2byte	0xffff
 9990 0608 1A       		.byte	0x1a
 9991 0609 70       		.byte	0x70
 9992 060a 00       		.sleb128 0
 9993 060b 22       		.byte	0x22
 9994 060c 9F       		.byte	0x9f
 9995 060d 3A000000 		.4byte	.LVL132
 9996 0611 50000000 		.4byte	.LFE131
 9997 0615 0D00     		.2byte	0xd
 9998 0617 F3       		.byte	0xf3
 9999 0618 01       		.uleb128 0x1
 10000 0619 51       		.byte	0x51
 10001 061a 31       		.byte	0x31
 10002 061b 25       		.byte	0x25
 10003 061c 0A       		.byte	0xa
 10004 061d FFFF     		.2byte	0xffff
 10005 061f 1A       		.byte	0x1a
 10006 0620 70       		.byte	0x70
 10007 0621 00       		.sleb128 0
 10008 0622 22       		.byte	0x22
 10009 0623 9F       		.byte	0x9f
 10010 0624 00000000 		.4byte	0
 10011 0628 00000000 		.4byte	0
 10012              	.LLST26:
 10013 062c 00000000 		.4byte	.LVL126
 10014 0630 16000000 		.4byte	.LVL127
 10015 0634 0200     		.2byte	0x2
 10016 0636 30       		.byte	0x30
 10017 0637 9F       		.byte	0x9f
 10018 0638 00000000 		.4byte	0
 10019 063c 00000000 		.4byte	0
 10020              	.LLST27:
 10021 0640 00000000 		.4byte	.LVL138
 10022 0644 0C000000 		.4byte	.LVL142
 10023 0648 0100     		.2byte	0x1
 10024 064a 51       		.byte	0x51
 10025 064b 0C000000 		.4byte	.LVL142
 10026 064f 10000000 		.4byte	.LFE136
 10027 0653 0400     		.2byte	0x4
 10028 0655 F3       		.byte	0xf3
 10029 0656 01       		.uleb128 0x1
 10030 0657 51       		.byte	0x51
 10031 0658 9F       		.byte	0x9f
 10032 0659 00000000 		.4byte	0
 10033 065d 00000000 		.4byte	0
 10034              	.LLST28:
 10035 0661 00000000 		.4byte	.LVL138
 10036 0665 02000000 		.4byte	.LVL139
ARM GAS  /var/folders/7z/kps_xzfj7sn5l5gkyq8s9db00000gn/T//ccc38Eju.s 			page 179


 10037 0669 0200     		.2byte	0x2
 10038 066b 30       		.byte	0x30
 10039 066c 9F       		.byte	0x9f
 10040 066d 02000000 		.4byte	.LVL139
 10041 0671 06000000 		.4byte	.LVL140
 10042 0675 0100     		.2byte	0x1
 10043 0677 53       		.byte	0x53
 10044 0678 0A000000 		.4byte	.LVL141
 10045 067c 0C000000 		.4byte	.LVL142
 10046 0680 0100     		.2byte	0x1
 10047 0682 53       		.byte	0x53
 10048 0683 0C000000 		.4byte	.LVL142
 10049 0687 10000000 		.4byte	.LFE136
 10050 068b 0100     		.2byte	0x1
 10051 068d 51       		.byte	0x51
 10052 068e 00000000 		.4byte	0
 10053 0692 00000000 		.4byte	0
 10054              	.LLST29:
 10055 0696 00000000 		.4byte	.LVL143
 10056 069a 0E000000 		.4byte	.LVL147
 10057 069e 0100     		.2byte	0x1
 10058 06a0 51       		.byte	0x51
 10059 06a1 0E000000 		.4byte	.LVL147
 10060 06a5 14000000 		.4byte	.LFE137
 10061 06a9 0400     		.2byte	0x4
 10062 06ab F3       		.byte	0xf3
 10063 06ac 01       		.uleb128 0x1
 10064 06ad 51       		.byte	0x51
 10065 06ae 9F       		.byte	0x9f
 10066 06af 00000000 		.4byte	0
 10067 06b3 00000000 		.4byte	0
 10068              	.LLST30:
 10069 06b7 00000000 		.4byte	.LVL143
 10070 06bb 02000000 		.4byte	.LVL144
 10071 06bf 0200     		.2byte	0x2
 10072 06c1 30       		.byte	0x30
 10073 06c2 9F       		.byte	0x9f
 10074 06c3 02000000 		.4byte	.LVL144
 10075 06c7 06000000 		.4byte	.LVL145
 10076 06cb 0100     		.2byte	0x1
 10077 06cd 53       		.byte	0x53
 10078 06ce 0A000000 		.4byte	.LVL146
 10079 06d2 10000000 		.4byte	.LVL148
 10080 06d6 0100     		.2byte	0x1
 10081 06d8 53       		.byte	0x53
 10082 06d9 10000000 		.4byte	.LVL148
 10083 06dd 14000000 		.4byte	.LFE137
 10084 06e1 0100     		.2byte	0x1
 10085 06e3 51       		.byte	0x51
 10086 06e4 00000000 		.4byte	0
 10087 06e8 00000000 		.4byte	0
 10088              	.LLST31:
 10089 06ec 00000000 		.4byte	.LVL149
 10090 06f0 0C000000 		.4byte	.LVL153
 10091 06f4 0100     		.2byte	0x1
 10092 06f6 51       		.byte	0x51
 10093 06f7 0C000000 		.4byte	.LVL153
ARM GAS  /var/folders/7z/kps_xzfj7sn5l5gkyq8s9db00000gn/T//ccc38Eju.s 			page 180


 10094 06fb 10000000 		.4byte	.LFE138
 10095 06ff 0400     		.2byte	0x4
 10096 0701 F3       		.byte	0xf3
 10097 0702 01       		.uleb128 0x1
 10098 0703 51       		.byte	0x51
 10099 0704 9F       		.byte	0x9f
 10100 0705 00000000 		.4byte	0
 10101 0709 00000000 		.4byte	0
 10102              	.LLST32:
 10103 070d 00000000 		.4byte	.LVL149
 10104 0711 02000000 		.4byte	.LVL150
 10105 0715 0200     		.2byte	0x2
 10106 0717 30       		.byte	0x30
 10107 0718 9F       		.byte	0x9f
 10108 0719 02000000 		.4byte	.LVL150
 10109 071d 06000000 		.4byte	.LVL151
 10110 0721 0100     		.2byte	0x1
 10111 0723 53       		.byte	0x53
 10112 0724 0A000000 		.4byte	.LVL152
 10113 0728 0C000000 		.4byte	.LVL153
 10114 072c 0100     		.2byte	0x1
 10115 072e 53       		.byte	0x53
 10116 072f 0C000000 		.4byte	.LVL153
 10117 0733 10000000 		.4byte	.LFE138
 10118 0737 0100     		.2byte	0x1
 10119 0739 51       		.byte	0x51
 10120 073a 00000000 		.4byte	0
 10121 073e 00000000 		.4byte	0
 10122              	.LLST33:
 10123 0742 00000000 		.4byte	.LVL154
 10124 0746 0E000000 		.4byte	.LVL158
 10125 074a 0100     		.2byte	0x1
 10126 074c 51       		.byte	0x51
 10127 074d 0E000000 		.4byte	.LVL158
 10128 0751 14000000 		.4byte	.LFE139
 10129 0755 0400     		.2byte	0x4
 10130 0757 F3       		.byte	0xf3
 10131 0758 01       		.uleb128 0x1
 10132 0759 51       		.byte	0x51
 10133 075a 9F       		.byte	0x9f
 10134 075b 00000000 		.4byte	0
 10135 075f 00000000 		.4byte	0
 10136              	.LLST34:
 10137 0763 00000000 		.4byte	.LVL154
 10138 0767 02000000 		.4byte	.LVL155
 10139 076b 0200     		.2byte	0x2
 10140 076d 30       		.byte	0x30
 10141 076e 9F       		.byte	0x9f
 10142 076f 02000000 		.4byte	.LVL155
 10143 0773 06000000 		.4byte	.LVL156
 10144 0777 0100     		.2byte	0x1
 10145 0779 53       		.byte	0x53
 10146 077a 0A000000 		.4byte	.LVL157
 10147 077e 10000000 		.4byte	.LVL159
 10148 0782 0100     		.2byte	0x1
 10149 0784 53       		.byte	0x53
 10150 0785 10000000 		.4byte	.LVL159
ARM GAS  /var/folders/7z/kps_xzfj7sn5l5gkyq8s9db00000gn/T//ccc38Eju.s 			page 181


 10151 0789 14000000 		.4byte	.LFE139
 10152 078d 0100     		.2byte	0x1
 10153 078f 51       		.byte	0x51
 10154 0790 00000000 		.4byte	0
 10155 0794 00000000 		.4byte	0
 10156              	.LLST35:
 10157 0798 00000000 		.4byte	.LVL160
 10158 079c 0C000000 		.4byte	.LVL164
 10159 07a0 0100     		.2byte	0x1
 10160 07a2 51       		.byte	0x51
 10161 07a3 0C000000 		.4byte	.LVL164
 10162 07a7 10000000 		.4byte	.LFE140
 10163 07ab 0400     		.2byte	0x4
 10164 07ad F3       		.byte	0xf3
 10165 07ae 01       		.uleb128 0x1
 10166 07af 51       		.byte	0x51
 10167 07b0 9F       		.byte	0x9f
 10168 07b1 00000000 		.4byte	0
 10169 07b5 00000000 		.4byte	0
 10170              	.LLST36:
 10171 07b9 00000000 		.4byte	.LVL160
 10172 07bd 02000000 		.4byte	.LVL161
 10173 07c1 0200     		.2byte	0x2
 10174 07c3 30       		.byte	0x30
 10175 07c4 9F       		.byte	0x9f
 10176 07c5 02000000 		.4byte	.LVL161
 10177 07c9 06000000 		.4byte	.LVL162
 10178 07cd 0100     		.2byte	0x1
 10179 07cf 53       		.byte	0x53
 10180 07d0 0A000000 		.4byte	.LVL163
 10181 07d4 0C000000 		.4byte	.LVL164
 10182 07d8 0100     		.2byte	0x1
 10183 07da 53       		.byte	0x53
 10184 07db 0C000000 		.4byte	.LVL164
 10185 07df 10000000 		.4byte	.LFE140
 10186 07e3 0100     		.2byte	0x1
 10187 07e5 51       		.byte	0x51
 10188 07e6 00000000 		.4byte	0
 10189 07ea 00000000 		.4byte	0
 10190              	.LLST37:
 10191 07ee 00000000 		.4byte	.LVL165
 10192 07f2 0E000000 		.4byte	.LVL169
 10193 07f6 0100     		.2byte	0x1
 10194 07f8 51       		.byte	0x51
 10195 07f9 0E000000 		.4byte	.LVL169
 10196 07fd 14000000 		.4byte	.LFE141
 10197 0801 0400     		.2byte	0x4
 10198 0803 F3       		.byte	0xf3
 10199 0804 01       		.uleb128 0x1
 10200 0805 51       		.byte	0x51
 10201 0806 9F       		.byte	0x9f
 10202 0807 00000000 		.4byte	0
 10203 080b 00000000 		.4byte	0
 10204              	.LLST38:
 10205 080f 00000000 		.4byte	.LVL165
 10206 0813 02000000 		.4byte	.LVL166
 10207 0817 0200     		.2byte	0x2
ARM GAS  /var/folders/7z/kps_xzfj7sn5l5gkyq8s9db00000gn/T//ccc38Eju.s 			page 182


 10208 0819 30       		.byte	0x30
 10209 081a 9F       		.byte	0x9f
 10210 081b 02000000 		.4byte	.LVL166
 10211 081f 06000000 		.4byte	.LVL167
 10212 0823 0100     		.2byte	0x1
 10213 0825 53       		.byte	0x53
 10214 0826 0A000000 		.4byte	.LVL168
 10215 082a 10000000 		.4byte	.LVL170
 10216 082e 0100     		.2byte	0x1
 10217 0830 53       		.byte	0x53
 10218 0831 10000000 		.4byte	.LVL170
 10219 0835 14000000 		.4byte	.LFE141
 10220 0839 0100     		.2byte	0x1
 10221 083b 51       		.byte	0x51
 10222 083c 00000000 		.4byte	0
 10223 0840 00000000 		.4byte	0
 10224              	.LLST39:
 10225 0844 00000000 		.4byte	.LVL171
 10226 0848 0C000000 		.4byte	.LVL175
 10227 084c 0100     		.2byte	0x1
 10228 084e 51       		.byte	0x51
 10229 084f 0C000000 		.4byte	.LVL175
 10230 0853 10000000 		.4byte	.LFE142
 10231 0857 0400     		.2byte	0x4
 10232 0859 F3       		.byte	0xf3
 10233 085a 01       		.uleb128 0x1
 10234 085b 51       		.byte	0x51
 10235 085c 9F       		.byte	0x9f
 10236 085d 00000000 		.4byte	0
 10237 0861 00000000 		.4byte	0
 10238              	.LLST40:
 10239 0865 00000000 		.4byte	.LVL171
 10240 0869 02000000 		.4byte	.LVL172
 10241 086d 0200     		.2byte	0x2
 10242 086f 30       		.byte	0x30
 10243 0870 9F       		.byte	0x9f
 10244 0871 02000000 		.4byte	.LVL172
 10245 0875 06000000 		.4byte	.LVL173
 10246 0879 0100     		.2byte	0x1
 10247 087b 53       		.byte	0x53
 10248 087c 0A000000 		.4byte	.LVL174
 10249 0880 0C000000 		.4byte	.LVL175
 10250 0884 0100     		.2byte	0x1
 10251 0886 53       		.byte	0x53
 10252 0887 0C000000 		.4byte	.LVL175
 10253 088b 10000000 		.4byte	.LFE142
 10254 088f 0100     		.2byte	0x1
 10255 0891 51       		.byte	0x51
 10256 0892 00000000 		.4byte	0
 10257 0896 00000000 		.4byte	0
 10258              	.LLST41:
 10259 089a 00000000 		.4byte	.LVL176
 10260 089e 0E000000 		.4byte	.LVL180
 10261 08a2 0100     		.2byte	0x1
 10262 08a4 51       		.byte	0x51
 10263 08a5 0E000000 		.4byte	.LVL180
 10264 08a9 14000000 		.4byte	.LFE143
ARM GAS  /var/folders/7z/kps_xzfj7sn5l5gkyq8s9db00000gn/T//ccc38Eju.s 			page 183


 10265 08ad 0400     		.2byte	0x4
 10266 08af F3       		.byte	0xf3
 10267 08b0 01       		.uleb128 0x1
 10268 08b1 51       		.byte	0x51
 10269 08b2 9F       		.byte	0x9f
 10270 08b3 00000000 		.4byte	0
 10271 08b7 00000000 		.4byte	0
 10272              	.LLST42:
 10273 08bb 00000000 		.4byte	.LVL176
 10274 08bf 02000000 		.4byte	.LVL177
 10275 08c3 0200     		.2byte	0x2
 10276 08c5 30       		.byte	0x30
 10277 08c6 9F       		.byte	0x9f
 10278 08c7 02000000 		.4byte	.LVL177
 10279 08cb 06000000 		.4byte	.LVL178
 10280 08cf 0100     		.2byte	0x1
 10281 08d1 53       		.byte	0x53
 10282 08d2 0A000000 		.4byte	.LVL179
 10283 08d6 10000000 		.4byte	.LVL181
 10284 08da 0100     		.2byte	0x1
 10285 08dc 53       		.byte	0x53
 10286 08dd 10000000 		.4byte	.LVL181
 10287 08e1 14000000 		.4byte	.LFE143
 10288 08e5 0100     		.2byte	0x1
 10289 08e7 51       		.byte	0x51
 10290 08e8 00000000 		.4byte	0
 10291 08ec 00000000 		.4byte	0
 10292              	.LLST43:
 10293 08f0 00000000 		.4byte	.LVL182
 10294 08f4 0C000000 		.4byte	.LVL186
 10295 08f8 0100     		.2byte	0x1
 10296 08fa 51       		.byte	0x51
 10297 08fb 0C000000 		.4byte	.LVL186
 10298 08ff 10000000 		.4byte	.LFE144
 10299 0903 0400     		.2byte	0x4
 10300 0905 F3       		.byte	0xf3
 10301 0906 01       		.uleb128 0x1
 10302 0907 51       		.byte	0x51
 10303 0908 9F       		.byte	0x9f
 10304 0909 00000000 		.4byte	0
 10305 090d 00000000 		.4byte	0
 10306              	.LLST44:
 10307 0911 00000000 		.4byte	.LVL182
 10308 0915 02000000 		.4byte	.LVL183
 10309 0919 0200     		.2byte	0x2
 10310 091b 30       		.byte	0x30
 10311 091c 9F       		.byte	0x9f
 10312 091d 02000000 		.4byte	.LVL183
 10313 0921 06000000 		.4byte	.LVL184
 10314 0925 0100     		.2byte	0x1
 10315 0927 53       		.byte	0x53
 10316 0928 0A000000 		.4byte	.LVL185
 10317 092c 0C000000 		.4byte	.LVL186
 10318 0930 0100     		.2byte	0x1
 10319 0932 53       		.byte	0x53
 10320 0933 0C000000 		.4byte	.LVL186
 10321 0937 10000000 		.4byte	.LFE144
ARM GAS  /var/folders/7z/kps_xzfj7sn5l5gkyq8s9db00000gn/T//ccc38Eju.s 			page 184


 10322 093b 0100     		.2byte	0x1
 10323 093d 51       		.byte	0x51
 10324 093e 00000000 		.4byte	0
 10325 0942 00000000 		.4byte	0
 10326              	.LLST45:
 10327 0946 00000000 		.4byte	.LVL187
 10328 094a 0E000000 		.4byte	.LVL191
 10329 094e 0100     		.2byte	0x1
 10330 0950 51       		.byte	0x51
 10331 0951 0E000000 		.4byte	.LVL191
 10332 0955 14000000 		.4byte	.LFE145
 10333 0959 0400     		.2byte	0x4
 10334 095b F3       		.byte	0xf3
 10335 095c 01       		.uleb128 0x1
 10336 095d 51       		.byte	0x51
 10337 095e 9F       		.byte	0x9f
 10338 095f 00000000 		.4byte	0
 10339 0963 00000000 		.4byte	0
 10340              	.LLST46:
 10341 0967 00000000 		.4byte	.LVL187
 10342 096b 02000000 		.4byte	.LVL188
 10343 096f 0200     		.2byte	0x2
 10344 0971 30       		.byte	0x30
 10345 0972 9F       		.byte	0x9f
 10346 0973 02000000 		.4byte	.LVL188
 10347 0977 06000000 		.4byte	.LVL189
 10348 097b 0100     		.2byte	0x1
 10349 097d 53       		.byte	0x53
 10350 097e 0A000000 		.4byte	.LVL190
 10351 0982 10000000 		.4byte	.LVL192
 10352 0986 0100     		.2byte	0x1
 10353 0988 53       		.byte	0x53
 10354 0989 10000000 		.4byte	.LVL192
 10355 098d 14000000 		.4byte	.LFE145
 10356 0991 0100     		.2byte	0x1
 10357 0993 51       		.byte	0x51
 10358 0994 00000000 		.4byte	0
 10359 0998 00000000 		.4byte	0
 10360              	.LLST47:
 10361 099c 00000000 		.4byte	.LVL193
 10362 09a0 0C000000 		.4byte	.LVL197
 10363 09a4 0100     		.2byte	0x1
 10364 09a6 51       		.byte	0x51
 10365 09a7 0C000000 		.4byte	.LVL197
 10366 09ab 10000000 		.4byte	.LFE146
 10367 09af 0400     		.2byte	0x4
 10368 09b1 F3       		.byte	0xf3
 10369 09b2 01       		.uleb128 0x1
 10370 09b3 51       		.byte	0x51
 10371 09b4 9F       		.byte	0x9f
 10372 09b5 00000000 		.4byte	0
 10373 09b9 00000000 		.4byte	0
 10374              	.LLST48:
 10375 09bd 00000000 		.4byte	.LVL193
 10376 09c1 02000000 		.4byte	.LVL194
 10377 09c5 0200     		.2byte	0x2
 10378 09c7 30       		.byte	0x30
ARM GAS  /var/folders/7z/kps_xzfj7sn5l5gkyq8s9db00000gn/T//ccc38Eju.s 			page 185


 10379 09c8 9F       		.byte	0x9f
 10380 09c9 02000000 		.4byte	.LVL194
 10381 09cd 06000000 		.4byte	.LVL195
 10382 09d1 0100     		.2byte	0x1
 10383 09d3 53       		.byte	0x53
 10384 09d4 0A000000 		.4byte	.LVL196
 10385 09d8 0C000000 		.4byte	.LVL197
 10386 09dc 0100     		.2byte	0x1
 10387 09de 53       		.byte	0x53
 10388 09df 0C000000 		.4byte	.LVL197
 10389 09e3 10000000 		.4byte	.LFE146
 10390 09e7 0100     		.2byte	0x1
 10391 09e9 51       		.byte	0x51
 10392 09ea 00000000 		.4byte	0
 10393 09ee 00000000 		.4byte	0
 10394              	.LLST49:
 10395 09f2 00000000 		.4byte	.LVL198
 10396 09f6 0E000000 		.4byte	.LVL202
 10397 09fa 0100     		.2byte	0x1
 10398 09fc 51       		.byte	0x51
 10399 09fd 0E000000 		.4byte	.LVL202
 10400 0a01 14000000 		.4byte	.LFE147
 10401 0a05 0400     		.2byte	0x4
 10402 0a07 F3       		.byte	0xf3
 10403 0a08 01       		.uleb128 0x1
 10404 0a09 51       		.byte	0x51
 10405 0a0a 9F       		.byte	0x9f
 10406 0a0b 00000000 		.4byte	0
 10407 0a0f 00000000 		.4byte	0
 10408              	.LLST50:
 10409 0a13 00000000 		.4byte	.LVL198
 10410 0a17 02000000 		.4byte	.LVL199
 10411 0a1b 0200     		.2byte	0x2
 10412 0a1d 30       		.byte	0x30
 10413 0a1e 9F       		.byte	0x9f
 10414 0a1f 02000000 		.4byte	.LVL199
 10415 0a23 06000000 		.4byte	.LVL200
 10416 0a27 0100     		.2byte	0x1
 10417 0a29 53       		.byte	0x53
 10418 0a2a 0A000000 		.4byte	.LVL201
 10419 0a2e 10000000 		.4byte	.LVL203
 10420 0a32 0100     		.2byte	0x1
 10421 0a34 53       		.byte	0x53
 10422 0a35 10000000 		.4byte	.LVL203
 10423 0a39 14000000 		.4byte	.LFE147
 10424 0a3d 0100     		.2byte	0x1
 10425 0a3f 51       		.byte	0x51
 10426 0a40 00000000 		.4byte	0
 10427 0a44 00000000 		.4byte	0
 10428              	.LLST51:
 10429 0a48 00000000 		.4byte	.LVL204
 10430 0a4c 0C000000 		.4byte	.LVL208
 10431 0a50 0100     		.2byte	0x1
 10432 0a52 51       		.byte	0x51
 10433 0a53 0C000000 		.4byte	.LVL208
 10434 0a57 10000000 		.4byte	.LFE148
 10435 0a5b 0400     		.2byte	0x4
ARM GAS  /var/folders/7z/kps_xzfj7sn5l5gkyq8s9db00000gn/T//ccc38Eju.s 			page 186


 10436 0a5d F3       		.byte	0xf3
 10437 0a5e 01       		.uleb128 0x1
 10438 0a5f 51       		.byte	0x51
 10439 0a60 9F       		.byte	0x9f
 10440 0a61 00000000 		.4byte	0
 10441 0a65 00000000 		.4byte	0
 10442              	.LLST52:
 10443 0a69 00000000 		.4byte	.LVL204
 10444 0a6d 02000000 		.4byte	.LVL205
 10445 0a71 0200     		.2byte	0x2
 10446 0a73 30       		.byte	0x30
 10447 0a74 9F       		.byte	0x9f
 10448 0a75 02000000 		.4byte	.LVL205
 10449 0a79 06000000 		.4byte	.LVL206
 10450 0a7d 0100     		.2byte	0x1
 10451 0a7f 53       		.byte	0x53
 10452 0a80 0A000000 		.4byte	.LVL207
 10453 0a84 0C000000 		.4byte	.LVL208
 10454 0a88 0100     		.2byte	0x1
 10455 0a8a 53       		.byte	0x53
 10456 0a8b 0C000000 		.4byte	.LVL208
 10457 0a8f 10000000 		.4byte	.LFE148
 10458 0a93 0100     		.2byte	0x1
 10459 0a95 51       		.byte	0x51
 10460 0a96 00000000 		.4byte	0
 10461 0a9a 00000000 		.4byte	0
 10462              	.LLST53:
 10463 0a9e 00000000 		.4byte	.LVL209
 10464 0aa2 0A000000 		.4byte	.LVL212
 10465 0aa6 0100     		.2byte	0x1
 10466 0aa8 51       		.byte	0x51
 10467 0aa9 0A000000 		.4byte	.LVL212
 10468 0aad 10000000 		.4byte	.LFE149
 10469 0ab1 0400     		.2byte	0x4
 10470 0ab3 F3       		.byte	0xf3
 10471 0ab4 01       		.uleb128 0x1
 10472 0ab5 51       		.byte	0x51
 10473 0ab6 9F       		.byte	0x9f
 10474 0ab7 00000000 		.4byte	0
 10475 0abb 00000000 		.4byte	0
 10476              	.LLST54:
 10477 0abf 00000000 		.4byte	.LVL209
 10478 0ac3 02000000 		.4byte	.LVL210
 10479 0ac7 0200     		.2byte	0x2
 10480 0ac9 30       		.byte	0x30
 10481 0aca 9F       		.byte	0x9f
 10482 0acb 02000000 		.4byte	.LVL210
 10483 0acf 0C000000 		.4byte	.LVL213
 10484 0ad3 0100     		.2byte	0x1
 10485 0ad5 53       		.byte	0x53
 10486 0ad6 0C000000 		.4byte	.LVL213
 10487 0ada 10000000 		.4byte	.LFE149
 10488 0ade 0100     		.2byte	0x1
 10489 0ae0 51       		.byte	0x51
 10490 0ae1 00000000 		.4byte	0
 10491 0ae5 00000000 		.4byte	0
 10492              	.LLST55:
ARM GAS  /var/folders/7z/kps_xzfj7sn5l5gkyq8s9db00000gn/T//ccc38Eju.s 			page 187


 10493 0ae9 00000000 		.4byte	.LVL214
 10494 0aed 0C000000 		.4byte	.LVL218
 10495 0af1 0100     		.2byte	0x1
 10496 0af3 51       		.byte	0x51
 10497 0af4 0C000000 		.4byte	.LVL218
 10498 0af8 10000000 		.4byte	.LFE150
 10499 0afc 0400     		.2byte	0x4
 10500 0afe F3       		.byte	0xf3
 10501 0aff 01       		.uleb128 0x1
 10502 0b00 51       		.byte	0x51
 10503 0b01 9F       		.byte	0x9f
 10504 0b02 00000000 		.4byte	0
 10505 0b06 00000000 		.4byte	0
 10506              	.LLST56:
 10507 0b0a 00000000 		.4byte	.LVL214
 10508 0b0e 02000000 		.4byte	.LVL215
 10509 0b12 0200     		.2byte	0x2
 10510 0b14 30       		.byte	0x30
 10511 0b15 9F       		.byte	0x9f
 10512 0b16 02000000 		.4byte	.LVL215
 10513 0b1a 06000000 		.4byte	.LVL216
 10514 0b1e 0100     		.2byte	0x1
 10515 0b20 53       		.byte	0x53
 10516 0b21 0A000000 		.4byte	.LVL217
 10517 0b25 0C000000 		.4byte	.LVL218
 10518 0b29 0100     		.2byte	0x1
 10519 0b2b 53       		.byte	0x53
 10520 0b2c 0C000000 		.4byte	.LVL218
 10521 0b30 10000000 		.4byte	.LFE150
 10522 0b34 0100     		.2byte	0x1
 10523 0b36 51       		.byte	0x51
 10524 0b37 00000000 		.4byte	0
 10525 0b3b 00000000 		.4byte	0
 10526              	.LLST57:
 10527 0b3f 00000000 		.4byte	.LVL219
 10528 0b43 0A000000 		.4byte	.LVL222
 10529 0b47 0100     		.2byte	0x1
 10530 0b49 51       		.byte	0x51
 10531 0b4a 0A000000 		.4byte	.LVL222
 10532 0b4e 10000000 		.4byte	.LFE151
 10533 0b52 0400     		.2byte	0x4
 10534 0b54 F3       		.byte	0xf3
 10535 0b55 01       		.uleb128 0x1
 10536 0b56 51       		.byte	0x51
 10537 0b57 9F       		.byte	0x9f
 10538 0b58 00000000 		.4byte	0
 10539 0b5c 00000000 		.4byte	0
 10540              	.LLST58:
 10541 0b60 00000000 		.4byte	.LVL219
 10542 0b64 02000000 		.4byte	.LVL220
 10543 0b68 0200     		.2byte	0x2
 10544 0b6a 30       		.byte	0x30
 10545 0b6b 9F       		.byte	0x9f
 10546 0b6c 02000000 		.4byte	.LVL220
 10547 0b70 0C000000 		.4byte	.LVL223
 10548 0b74 0100     		.2byte	0x1
 10549 0b76 53       		.byte	0x53
ARM GAS  /var/folders/7z/kps_xzfj7sn5l5gkyq8s9db00000gn/T//ccc38Eju.s 			page 188


 10550 0b77 0C000000 		.4byte	.LVL223
 10551 0b7b 10000000 		.4byte	.LFE151
 10552 0b7f 0100     		.2byte	0x1
 10553 0b81 51       		.byte	0x51
 10554 0b82 00000000 		.4byte	0
 10555 0b86 00000000 		.4byte	0
 10556              	.LLST59:
 10557 0b8a 00000000 		.4byte	.LVL224
 10558 0b8e 0C000000 		.4byte	.LVL228
 10559 0b92 0100     		.2byte	0x1
 10560 0b94 51       		.byte	0x51
 10561 0b95 0C000000 		.4byte	.LVL228
 10562 0b99 10000000 		.4byte	.LFE152
 10563 0b9d 0400     		.2byte	0x4
 10564 0b9f F3       		.byte	0xf3
 10565 0ba0 01       		.uleb128 0x1
 10566 0ba1 51       		.byte	0x51
 10567 0ba2 9F       		.byte	0x9f
 10568 0ba3 00000000 		.4byte	0
 10569 0ba7 00000000 		.4byte	0
 10570              	.LLST60:
 10571 0bab 00000000 		.4byte	.LVL224
 10572 0baf 02000000 		.4byte	.LVL225
 10573 0bb3 0200     		.2byte	0x2
 10574 0bb5 30       		.byte	0x30
 10575 0bb6 9F       		.byte	0x9f
 10576 0bb7 02000000 		.4byte	.LVL225
 10577 0bbb 06000000 		.4byte	.LVL226
 10578 0bbf 0100     		.2byte	0x1
 10579 0bc1 53       		.byte	0x53
 10580 0bc2 0A000000 		.4byte	.LVL227
 10581 0bc6 0C000000 		.4byte	.LVL228
 10582 0bca 0100     		.2byte	0x1
 10583 0bcc 53       		.byte	0x53
 10584 0bcd 0C000000 		.4byte	.LVL228
 10585 0bd1 10000000 		.4byte	.LFE152
 10586 0bd5 0100     		.2byte	0x1
 10587 0bd7 51       		.byte	0x51
 10588 0bd8 00000000 		.4byte	0
 10589 0bdc 00000000 		.4byte	0
 10590              	.LLST61:
 10591 0be0 00000000 		.4byte	.LVL229
 10592 0be4 0C000000 		.4byte	.LVL233
 10593 0be8 0100     		.2byte	0x1
 10594 0bea 51       		.byte	0x51
 10595 0beb 0C000000 		.4byte	.LVL233
 10596 0bef 10000000 		.4byte	.LFE153
 10597 0bf3 0400     		.2byte	0x4
 10598 0bf5 F3       		.byte	0xf3
 10599 0bf6 01       		.uleb128 0x1
 10600 0bf7 51       		.byte	0x51
 10601 0bf8 9F       		.byte	0x9f
 10602 0bf9 00000000 		.4byte	0
 10603 0bfd 00000000 		.4byte	0
 10604              	.LLST62:
 10605 0c01 00000000 		.4byte	.LVL229
 10606 0c05 02000000 		.4byte	.LVL230
ARM GAS  /var/folders/7z/kps_xzfj7sn5l5gkyq8s9db00000gn/T//ccc38Eju.s 			page 189


 10607 0c09 0200     		.2byte	0x2
 10608 0c0b 30       		.byte	0x30
 10609 0c0c 9F       		.byte	0x9f
 10610 0c0d 02000000 		.4byte	.LVL230
 10611 0c11 06000000 		.4byte	.LVL231
 10612 0c15 0100     		.2byte	0x1
 10613 0c17 53       		.byte	0x53
 10614 0c18 0A000000 		.4byte	.LVL232
 10615 0c1c 0C000000 		.4byte	.LVL233
 10616 0c20 0100     		.2byte	0x1
 10617 0c22 53       		.byte	0x53
 10618 0c23 0C000000 		.4byte	.LVL233
 10619 0c27 10000000 		.4byte	.LFE153
 10620 0c2b 0100     		.2byte	0x1
 10621 0c2d 51       		.byte	0x51
 10622 0c2e 00000000 		.4byte	0
 10623 0c32 00000000 		.4byte	0
 10624              	.LLST63:
 10625 0c36 00000000 		.4byte	.LVL234
 10626 0c3a 0E000000 		.4byte	.LVL238
 10627 0c3e 0100     		.2byte	0x1
 10628 0c40 51       		.byte	0x51
 10629 0c41 0E000000 		.4byte	.LVL238
 10630 0c45 14000000 		.4byte	.LFE154
 10631 0c49 0400     		.2byte	0x4
 10632 0c4b F3       		.byte	0xf3
 10633 0c4c 01       		.uleb128 0x1
 10634 0c4d 51       		.byte	0x51
 10635 0c4e 9F       		.byte	0x9f
 10636 0c4f 00000000 		.4byte	0
 10637 0c53 00000000 		.4byte	0
 10638              	.LLST64:
 10639 0c57 00000000 		.4byte	.LVL234
 10640 0c5b 02000000 		.4byte	.LVL235
 10641 0c5f 0200     		.2byte	0x2
 10642 0c61 30       		.byte	0x30
 10643 0c62 9F       		.byte	0x9f
 10644 0c63 02000000 		.4byte	.LVL235
 10645 0c67 06000000 		.4byte	.LVL236
 10646 0c6b 0100     		.2byte	0x1
 10647 0c6d 53       		.byte	0x53
 10648 0c6e 0A000000 		.4byte	.LVL237
 10649 0c72 10000000 		.4byte	.LVL239
 10650 0c76 0100     		.2byte	0x1
 10651 0c78 53       		.byte	0x53
 10652 0c79 10000000 		.4byte	.LVL239
 10653 0c7d 14000000 		.4byte	.LFE154
 10654 0c81 0100     		.2byte	0x1
 10655 0c83 51       		.byte	0x51
 10656 0c84 00000000 		.4byte	0
 10657 0c88 00000000 		.4byte	0
 10658              	.LLST65:
 10659 0c8c 00000000 		.4byte	.LVL240
 10660 0c90 0E000000 		.4byte	.LVL244
 10661 0c94 0100     		.2byte	0x1
 10662 0c96 51       		.byte	0x51
 10663 0c97 0E000000 		.4byte	.LVL244
ARM GAS  /var/folders/7z/kps_xzfj7sn5l5gkyq8s9db00000gn/T//ccc38Eju.s 			page 190


 10664 0c9b 14000000 		.4byte	.LFE155
 10665 0c9f 0400     		.2byte	0x4
 10666 0ca1 F3       		.byte	0xf3
 10667 0ca2 01       		.uleb128 0x1
 10668 0ca3 51       		.byte	0x51
 10669 0ca4 9F       		.byte	0x9f
 10670 0ca5 00000000 		.4byte	0
 10671 0ca9 00000000 		.4byte	0
 10672              	.LLST66:
 10673 0cad 00000000 		.4byte	.LVL240
 10674 0cb1 02000000 		.4byte	.LVL241
 10675 0cb5 0200     		.2byte	0x2
 10676 0cb7 30       		.byte	0x30
 10677 0cb8 9F       		.byte	0x9f
 10678 0cb9 02000000 		.4byte	.LVL241
 10679 0cbd 06000000 		.4byte	.LVL242
 10680 0cc1 0100     		.2byte	0x1
 10681 0cc3 53       		.byte	0x53
 10682 0cc4 0A000000 		.4byte	.LVL243
 10683 0cc8 10000000 		.4byte	.LVL245
 10684 0ccc 0100     		.2byte	0x1
 10685 0cce 53       		.byte	0x53
 10686 0ccf 10000000 		.4byte	.LVL245
 10687 0cd3 14000000 		.4byte	.LFE155
 10688 0cd7 0100     		.2byte	0x1
 10689 0cd9 51       		.byte	0x51
 10690 0cda 00000000 		.4byte	0
 10691 0cde 00000000 		.4byte	0
 10692              	.LLST67:
 10693 0ce2 00000000 		.4byte	.LVL246
 10694 0ce6 0E000000 		.4byte	.LVL250
 10695 0cea 0100     		.2byte	0x1
 10696 0cec 51       		.byte	0x51
 10697 0ced 0E000000 		.4byte	.LVL250
 10698 0cf1 14000000 		.4byte	.LFE156
 10699 0cf5 0400     		.2byte	0x4
 10700 0cf7 F3       		.byte	0xf3
 10701 0cf8 01       		.uleb128 0x1
 10702 0cf9 51       		.byte	0x51
 10703 0cfa 9F       		.byte	0x9f
 10704 0cfb 00000000 		.4byte	0
 10705 0cff 00000000 		.4byte	0
 10706              	.LLST68:
 10707 0d03 00000000 		.4byte	.LVL246
 10708 0d07 02000000 		.4byte	.LVL247
 10709 0d0b 0200     		.2byte	0x2
 10710 0d0d 30       		.byte	0x30
 10711 0d0e 9F       		.byte	0x9f
 10712 0d0f 02000000 		.4byte	.LVL247
 10713 0d13 06000000 		.4byte	.LVL248
 10714 0d17 0100     		.2byte	0x1
 10715 0d19 53       		.byte	0x53
 10716 0d1a 0A000000 		.4byte	.LVL249
 10717 0d1e 10000000 		.4byte	.LVL251
 10718 0d22 0100     		.2byte	0x1
 10719 0d24 53       		.byte	0x53
 10720 0d25 10000000 		.4byte	.LVL251
ARM GAS  /var/folders/7z/kps_xzfj7sn5l5gkyq8s9db00000gn/T//ccc38Eju.s 			page 191


 10721 0d29 14000000 		.4byte	.LFE156
 10722 0d2d 0100     		.2byte	0x1
 10723 0d2f 51       		.byte	0x51
 10724 0d30 00000000 		.4byte	0
 10725 0d34 00000000 		.4byte	0
 10726              	.LLST69:
 10727 0d38 00000000 		.4byte	.LVL252
 10728 0d3c 0E000000 		.4byte	.LVL256
 10729 0d40 0100     		.2byte	0x1
 10730 0d42 51       		.byte	0x51
 10731 0d43 0E000000 		.4byte	.LVL256
 10732 0d47 14000000 		.4byte	.LFE157
 10733 0d4b 0400     		.2byte	0x4
 10734 0d4d F3       		.byte	0xf3
 10735 0d4e 01       		.uleb128 0x1
 10736 0d4f 51       		.byte	0x51
 10737 0d50 9F       		.byte	0x9f
 10738 0d51 00000000 		.4byte	0
 10739 0d55 00000000 		.4byte	0
 10740              	.LLST70:
 10741 0d59 00000000 		.4byte	.LVL252
 10742 0d5d 02000000 		.4byte	.LVL253
 10743 0d61 0200     		.2byte	0x2
 10744 0d63 30       		.byte	0x30
 10745 0d64 9F       		.byte	0x9f
 10746 0d65 02000000 		.4byte	.LVL253
 10747 0d69 06000000 		.4byte	.LVL254
 10748 0d6d 0100     		.2byte	0x1
 10749 0d6f 53       		.byte	0x53
 10750 0d70 0A000000 		.4byte	.LVL255
 10751 0d74 10000000 		.4byte	.LVL257
 10752 0d78 0100     		.2byte	0x1
 10753 0d7a 53       		.byte	0x53
 10754 0d7b 10000000 		.4byte	.LVL257
 10755 0d7f 14000000 		.4byte	.LFE157
 10756 0d83 0100     		.2byte	0x1
 10757 0d85 51       		.byte	0x51
 10758 0d86 00000000 		.4byte	0
 10759 0d8a 00000000 		.4byte	0
 10760              	.LLST71:
 10761 0d8e 00000000 		.4byte	.LVL258
 10762 0d92 0E000000 		.4byte	.LVL262
 10763 0d96 0100     		.2byte	0x1
 10764 0d98 51       		.byte	0x51
 10765 0d99 0E000000 		.4byte	.LVL262
 10766 0d9d 14000000 		.4byte	.LFE158
 10767 0da1 0400     		.2byte	0x4
 10768 0da3 F3       		.byte	0xf3
 10769 0da4 01       		.uleb128 0x1
 10770 0da5 51       		.byte	0x51
 10771 0da6 9F       		.byte	0x9f
 10772 0da7 00000000 		.4byte	0
 10773 0dab 00000000 		.4byte	0
 10774              	.LLST72:
 10775 0daf 00000000 		.4byte	.LVL258
 10776 0db3 02000000 		.4byte	.LVL259
 10777 0db7 0200     		.2byte	0x2
ARM GAS  /var/folders/7z/kps_xzfj7sn5l5gkyq8s9db00000gn/T//ccc38Eju.s 			page 192


 10778 0db9 30       		.byte	0x30
 10779 0dba 9F       		.byte	0x9f
 10780 0dbb 02000000 		.4byte	.LVL259
 10781 0dbf 06000000 		.4byte	.LVL260
 10782 0dc3 0100     		.2byte	0x1
 10783 0dc5 53       		.byte	0x53
 10784 0dc6 0A000000 		.4byte	.LVL261
 10785 0dca 10000000 		.4byte	.LVL263
 10786 0dce 0100     		.2byte	0x1
 10787 0dd0 53       		.byte	0x53
 10788 0dd1 10000000 		.4byte	.LVL263
 10789 0dd5 14000000 		.4byte	.LFE158
 10790 0dd9 0100     		.2byte	0x1
 10791 0ddb 51       		.byte	0x51
 10792 0ddc 00000000 		.4byte	0
 10793 0de0 00000000 		.4byte	0
 10794              	.LLST73:
 10795 0de4 00000000 		.4byte	.LVL264
 10796 0de8 18000000 		.4byte	.LVL265
 10797 0dec 0100     		.2byte	0x1
 10798 0dee 52       		.byte	0x52
 10799 0def 18000000 		.4byte	.LVL265
 10800 0df3 20000000 		.4byte	.LFE159
 10801 0df7 0400     		.2byte	0x4
 10802 0df9 F3       		.byte	0xf3
 10803 0dfa 01       		.uleb128 0x1
 10804 0dfb 52       		.byte	0x52
 10805 0dfc 9F       		.byte	0x9f
 10806 0dfd 00000000 		.4byte	0
 10807 0e01 00000000 		.4byte	0
 10808              	.LLST74:
 10809 0e05 00000000 		.4byte	.LVL266
 10810 0e09 18000000 		.4byte	.LVL267
 10811 0e0d 0100     		.2byte	0x1
 10812 0e0f 52       		.byte	0x52
 10813 0e10 18000000 		.4byte	.LVL267
 10814 0e14 20000000 		.4byte	.LFE160
 10815 0e18 0400     		.2byte	0x4
 10816 0e1a F3       		.byte	0xf3
 10817 0e1b 01       		.uleb128 0x1
 10818 0e1c 52       		.byte	0x52
 10819 0e1d 9F       		.byte	0x9f
 10820 0e1e 00000000 		.4byte	0
 10821 0e22 00000000 		.4byte	0
 10822              	.LLST75:
 10823 0e26 00000000 		.4byte	.LVL268
 10824 0e2a 30000000 		.4byte	.LVL272
 10825 0e2e 0100     		.2byte	0x1
 10826 0e30 51       		.byte	0x51
 10827 0e31 30000000 		.4byte	.LVL272
 10828 0e35 6E000000 		.4byte	.LVL278
 10829 0e39 0400     		.2byte	0x4
 10830 0e3b F3       		.byte	0xf3
 10831 0e3c 01       		.uleb128 0x1
 10832 0e3d 51       		.byte	0x51
 10833 0e3e 9F       		.byte	0x9f
 10834 0e3f 6E000000 		.4byte	.LVL278
ARM GAS  /var/folders/7z/kps_xzfj7sn5l5gkyq8s9db00000gn/T//ccc38Eju.s 			page 193


 10835 0e43 86000000 		.4byte	.LVL280
 10836 0e47 0100     		.2byte	0x1
 10837 0e49 51       		.byte	0x51
 10838 0e4a 86000000 		.4byte	.LVL280
 10839 0e4e BC000000 		.4byte	.LVL289
 10840 0e52 0400     		.2byte	0x4
 10841 0e54 F3       		.byte	0xf3
 10842 0e55 01       		.uleb128 0x1
 10843 0e56 51       		.byte	0x51
 10844 0e57 9F       		.byte	0x9f
 10845 0e58 BC000000 		.4byte	.LVL289
 10846 0e5c CC000000 		.4byte	.LVL291
 10847 0e60 0100     		.2byte	0x1
 10848 0e62 51       		.byte	0x51
 10849 0e63 CC000000 		.4byte	.LVL291
 10850 0e67 18010000 		.4byte	.LVL301
 10851 0e6b 0400     		.2byte	0x4
 10852 0e6d F3       		.byte	0xf3
 10853 0e6e 01       		.uleb128 0x1
 10854 0e6f 51       		.byte	0x51
 10855 0e70 9F       		.byte	0x9f
 10856 0e71 18010000 		.4byte	.LVL301
 10857 0e75 26010000 		.4byte	.LVL303
 10858 0e79 0100     		.2byte	0x1
 10859 0e7b 51       		.byte	0x51
 10860 0e7c 26010000 		.4byte	.LVL303
 10861 0e80 68010000 		.4byte	.LFE161
 10862 0e84 0400     		.2byte	0x4
 10863 0e86 F3       		.byte	0xf3
 10864 0e87 01       		.uleb128 0x1
 10865 0e88 51       		.byte	0x51
 10866 0e89 9F       		.byte	0x9f
 10867 0e8a 00000000 		.4byte	0
 10868 0e8e 00000000 		.4byte	0
 10869              	.LLST76:
 10870 0e92 1C000000 		.4byte	.LVL269
 10871 0e96 6E000000 		.4byte	.LVL278
 10872 0e9a 0100     		.2byte	0x1
 10873 0e9c 56       		.byte	0x56
 10874 0e9d 00000000 		.4byte	0
 10875 0ea1 00000000 		.4byte	0
 10876              	.LLST77:
 10877 0ea5 1C000000 		.4byte	.LVL269
 10878 0ea9 6E000000 		.4byte	.LVL278
 10879 0ead 0100     		.2byte	0x1
 10880 0eaf 5E       		.byte	0x5e
 10881 0eb0 00000000 		.4byte	0
 10882 0eb4 00000000 		.4byte	0
 10883              	.LLST78:
 10884 0eb8 1C000000 		.4byte	.LVL269
 10885 0ebc 6E000000 		.4byte	.LVL278
 10886 0ec0 0100     		.2byte	0x1
 10887 0ec2 57       		.byte	0x57
 10888 0ec3 00000000 		.4byte	0
 10889 0ec7 00000000 		.4byte	0
 10890              	.LLST79:
 10891 0ecb 1C000000 		.4byte	.LVL269
ARM GAS  /var/folders/7z/kps_xzfj7sn5l5gkyq8s9db00000gn/T//ccc38Eju.s 			page 194


 10892 0ecf 6E000000 		.4byte	.LVL278
 10893 0ed3 0100     		.2byte	0x1
 10894 0ed5 50       		.byte	0x50
 10895 0ed6 00000000 		.4byte	0
 10896 0eda 00000000 		.4byte	0
 10897              	.LLST80:
 10898 0ede 1C000000 		.4byte	.LVL269
 10899 0ee2 2A000000 		.4byte	.LVL270
 10900 0ee6 0200     		.2byte	0x2
 10901 0ee8 30       		.byte	0x30
 10902 0ee9 9F       		.byte	0x9f
 10903 0eea 2A000000 		.4byte	.LVL270
 10904 0eee 3A000000 		.4byte	.LVL273
 10905 0ef2 0100     		.2byte	0x1
 10906 0ef4 54       		.byte	0x54
 10907 0ef5 3A000000 		.4byte	.LVL273
 10908 0ef9 48000000 		.4byte	.LVL275
 10909 0efd 0100     		.2byte	0x1
 10910 0eff 51       		.byte	0x51
 10911 0f00 48000000 		.4byte	.LVL275
 10912 0f04 50000000 		.4byte	.LVL276
 10913 0f08 1200     		.2byte	0x12
 10914 0f0a 7E       		.byte	0x7e
 10915 0f0b 00       		.sleb128 0
 10916 0f0c 38       		.byte	0x38
 10917 0f0d 24       		.byte	0x24
 10918 0f0e 74       		.byte	0x74
 10919 0f0f 00       		.sleb128 0
 10920 0f10 0C       		.byte	0xc
 10921 0f11 FFFCFFFF 		.4byte	0xfffffcff
 10922 0f15 1A       		.byte	0x1a
 10923 0f16 44       		.byte	0x44
 10924 0f17 24       		.byte	0x24
 10925 0f18 44       		.byte	0x44
 10926 0f19 25       		.byte	0x25
 10927 0f1a 21       		.byte	0x21
 10928 0f1b 9F       		.byte	0x9f
 10929 0f1c 50000000 		.4byte	.LVL276
 10930 0f20 6E000000 		.4byte	.LVL278
 10931 0f24 0100     		.2byte	0x1
 10932 0f26 51       		.byte	0x51
 10933 0f27 00000000 		.4byte	0
 10934 0f2b 00000000 		.4byte	0
 10935              	.LLST81:
 10936 0f2f 1C000000 		.4byte	.LVL269
 10937 0f33 2C000000 		.4byte	.LVL271
 10938 0f37 0200     		.2byte	0x2
 10939 0f39 30       		.byte	0x30
 10940 0f3a 9F       		.byte	0x9f
 10941 0f3b 2C000000 		.4byte	.LVL271
 10942 0f3f 50000000 		.4byte	.LVL276
 10943 0f43 0100     		.2byte	0x1
 10944 0f45 52       		.byte	0x52
 10945 0f46 50000000 		.4byte	.LVL276
 10946 0f4a 62000000 		.4byte	.LVL277
 10947 0f4e 0100     		.2byte	0x1
 10948 0f50 53       		.byte	0x53
ARM GAS  /var/folders/7z/kps_xzfj7sn5l5gkyq8s9db00000gn/T//ccc38Eju.s 			page 195


 10949 0f51 00000000 		.4byte	0
 10950 0f55 00000000 		.4byte	0
 10951              	.LLST82:
 10952 0f59 1C000000 		.4byte	.LVL269
 10953 0f5d 2C000000 		.4byte	.LVL271
 10954 0f61 0200     		.2byte	0x2
 10955 0f63 30       		.byte	0x30
 10956 0f64 9F       		.byte	0x9f
 10957 0f65 2C000000 		.4byte	.LVL271
 10958 0f69 6E000000 		.4byte	.LVL278
 10959 0f6d 0500     		.2byte	0x5
 10960 0f6f 77       		.byte	0x77
 10961 0f70 00       		.sleb128 0
 10962 0f71 3C       		.byte	0x3c
 10963 0f72 24       		.byte	0x24
 10964 0f73 9F       		.byte	0x9f
 10965 0f74 00000000 		.4byte	0
 10966 0f78 00000000 		.4byte	0
 10967              	.LLST83:
 10968 0f7c 50000000 		.4byte	.LVL276
 10969 0f80 6E000000 		.4byte	.LVL278
 10970 0f84 0100     		.2byte	0x1
 10971 0f86 55       		.byte	0x55
 10972 0f87 00000000 		.4byte	0
 10973 0f8b 00000000 		.4byte	0
 10974              	.LLST84:
 10975 0f8f 50000000 		.4byte	.LVL276
 10976 0f93 6E000000 		.4byte	.LVL278
 10977 0f97 0100     		.2byte	0x1
 10978 0f99 50       		.byte	0x50
 10979 0f9a 00000000 		.4byte	0
 10980 0f9e 00000000 		.4byte	0
 10981              	.LLST85:
 10982 0fa2 76000000 		.4byte	.LVL279
 10983 0fa6 94000000 		.4byte	.LVL284
 10984 0faa 0100     		.2byte	0x1
 10985 0fac 53       		.byte	0x53
 10986 0fad 94000000 		.4byte	.LVL284
 10987 0fb1 BC000000 		.4byte	.LVL289
 10988 0fb5 0500     		.2byte	0x5
 10989 0fb7 F3       		.byte	0xf3
 10990 0fb8 01       		.uleb128 0x1
 10991 0fb9 51       		.byte	0x51
 10992 0fba 23       		.byte	0x23
 10993 0fbb 08       		.uleb128 0x8
 10994 0fbc 00000000 		.4byte	0
 10995 0fc0 00000000 		.4byte	0
 10996              	.LLST86:
 10997 0fc4 76000000 		.4byte	.LVL279
 10998 0fc8 BC000000 		.4byte	.LVL289
 10999 0fcc 0100     		.2byte	0x1
 11000 0fce 55       		.byte	0x55
 11001 0fcf 00000000 		.4byte	0
 11002 0fd3 00000000 		.4byte	0
 11003              	.LLST87:
 11004 0fd7 76000000 		.4byte	.LVL279
 11005 0fdb BC000000 		.4byte	.LVL289
ARM GAS  /var/folders/7z/kps_xzfj7sn5l5gkyq8s9db00000gn/T//ccc38Eju.s 			page 196


 11006 0fdf 0100     		.2byte	0x1
 11007 0fe1 56       		.byte	0x56
 11008 0fe2 00000000 		.4byte	0
 11009 0fe6 00000000 		.4byte	0
 11010              	.LLST88:
 11011 0fea 76000000 		.4byte	.LVL279
 11012 0fee BC000000 		.4byte	.LVL289
 11013 0ff2 0100     		.2byte	0x1
 11014 0ff4 50       		.byte	0x50
 11015 0ff5 00000000 		.4byte	0
 11016 0ff9 00000000 		.4byte	0
 11017              	.LLST89:
 11018 0ffd 76000000 		.4byte	.LVL279
 11019 1001 88000000 		.4byte	.LVL281
 11020 1005 0200     		.2byte	0x2
 11021 1007 30       		.byte	0x30
 11022 1008 9F       		.byte	0x9f
 11023 1009 88000000 		.4byte	.LVL281
 11024 100d 8C000000 		.4byte	.LVL282
 11025 1011 0700     		.2byte	0x7
 11026 1013 72       		.byte	0x72
 11027 1014 00       		.sleb128 0
 11028 1015 0B       		.byte	0xb
 11029 1016 0CFF     		.2byte	0xff0c
 11030 1018 1A       		.byte	0x1a
 11031 1019 9F       		.byte	0x9f
 11032 101a A0000000 		.4byte	.LVL285
 11033 101e A8000000 		.4byte	.LVL287
 11034 1022 0100     		.2byte	0x1
 11035 1024 53       		.byte	0x53
 11036 1025 00000000 		.4byte	0
 11037 1029 00000000 		.4byte	0
 11038              	.LLST90:
 11039 102d 76000000 		.4byte	.LVL279
 11040 1031 88000000 		.4byte	.LVL281
 11041 1035 0200     		.2byte	0x2
 11042 1037 30       		.byte	0x30
 11043 1038 9F       		.byte	0x9f
 11044 1039 88000000 		.4byte	.LVL281
 11045 103d 90000000 		.4byte	.LVL283
 11046 1041 0100     		.2byte	0x1
 11047 1043 51       		.byte	0x51
 11048 1044 A0000000 		.4byte	.LVL285
 11049 1048 BC000000 		.4byte	.LVL289
 11050 104c 0100     		.2byte	0x1
 11051 104e 51       		.byte	0x51
 11052 104f 00000000 		.4byte	0
 11053 1053 00000000 		.4byte	0
 11054              	.LLST91:
 11055 1057 A2000000 		.4byte	.LVL286
 11056 105b B8000000 		.4byte	.LVL288
 11057 105f 0100     		.2byte	0x1
 11058 1061 54       		.byte	0x54
 11059 1062 B8000000 		.4byte	.LVL288
 11060 1066 BC000000 		.4byte	.LVL289
 11061 106a 0500     		.2byte	0x5
 11062 106c F3       		.byte	0xf3
ARM GAS  /var/folders/7z/kps_xzfj7sn5l5gkyq8s9db00000gn/T//ccc38Eju.s 			page 197


 11063 106d 01       		.uleb128 0x1
 11064 106e 51       		.byte	0x51
 11065 106f 23       		.byte	0x23
 11066 1070 06       		.uleb128 0x6
 11067 1071 00000000 		.4byte	0
 11068 1075 00000000 		.4byte	0
 11069              	.LLST92:
 11070 1079 A2000000 		.4byte	.LVL286
 11071 107d BC000000 		.4byte	.LVL289
 11072 1081 0100     		.2byte	0x1
 11073 1083 50       		.byte	0x50
 11074 1084 00000000 		.4byte	0
 11075 1088 00000000 		.4byte	0
 11076              	.LLST93:
 11077 108c C6000000 		.4byte	.LVL290
 11078 1090 18010000 		.4byte	.LVL301
 11079 1094 0100     		.2byte	0x1
 11080 1096 5E       		.byte	0x5e
 11081 1097 00000000 		.4byte	0
 11082 109b 00000000 		.4byte	0
 11083              	.LLST94:
 11084 109f C6000000 		.4byte	.LVL290
 11085 10a3 18010000 		.4byte	.LVL301
 11086 10a7 0100     		.2byte	0x1
 11087 10a9 56       		.byte	0x56
 11088 10aa 00000000 		.4byte	0
 11089 10ae 00000000 		.4byte	0
 11090              	.LLST95:
 11091 10b2 C6000000 		.4byte	.LVL290
 11092 10b6 18010000 		.4byte	.LVL301
 11093 10ba 0100     		.2byte	0x1
 11094 10bc 57       		.byte	0x57
 11095 10bd 00000000 		.4byte	0
 11096 10c1 00000000 		.4byte	0
 11097              	.LLST96:
 11098 10c5 C6000000 		.4byte	.LVL290
 11099 10c9 18010000 		.4byte	.LVL301
 11100 10cd 0100     		.2byte	0x1
 11101 10cf 50       		.byte	0x50
 11102 10d0 00000000 		.4byte	0
 11103 10d4 00000000 		.4byte	0
 11104              	.LLST97:
 11105 10d8 C6000000 		.4byte	.LVL290
 11106 10dc D4000000 		.4byte	.LVL292
 11107 10e0 0200     		.2byte	0x2
 11108 10e2 30       		.byte	0x30
 11109 10e3 9F       		.byte	0x9f
 11110 10e4 D4000000 		.4byte	.LVL292
 11111 10e8 E0000000 		.4byte	.LVL293
 11112 10ec 0100     		.2byte	0x1
 11113 10ee 52       		.byte	0x52
 11114 10ef E0000000 		.4byte	.LVL293
 11115 10f3 E4000000 		.4byte	.LVL294
 11116 10f7 0100     		.2byte	0x1
 11117 10f9 53       		.byte	0x53
 11118 10fa EA000000 		.4byte	.LVL296
 11119 10fe F2000000 		.4byte	.LVL297
ARM GAS  /var/folders/7z/kps_xzfj7sn5l5gkyq8s9db00000gn/T//ccc38Eju.s 			page 198


 11120 1102 0100     		.2byte	0x1
 11121 1104 53       		.byte	0x53
 11122 1105 F6000000 		.4byte	.LVL298
 11123 1109 00010000 		.4byte	.LVL300
 11124 110d 0100     		.2byte	0x1
 11125 110f 53       		.byte	0x53
 11126 1110 00000000 		.4byte	0
 11127 1114 00000000 		.4byte	0
 11128              	.LLST98:
 11129 1118 C6000000 		.4byte	.LVL290
 11130 111c E0000000 		.4byte	.LVL293
 11131 1120 0200     		.2byte	0x2
 11132 1122 30       		.byte	0x30
 11133 1123 9F       		.byte	0x9f
 11134 1124 E0000000 		.4byte	.LVL293
 11135 1128 E8000000 		.4byte	.LVL295
 11136 112c 0100     		.2byte	0x1
 11137 112e 52       		.byte	0x52
 11138 112f E8000000 		.4byte	.LVL295
 11139 1133 F6000000 		.4byte	.LVL298
 11140 1137 0100     		.2byte	0x1
 11141 1139 51       		.byte	0x51
 11142 113a F6000000 		.4byte	.LVL298
 11143 113e FA000000 		.4byte	.LVL299
 11144 1142 0700     		.2byte	0x7
 11145 1144 71       		.byte	0x71
 11146 1145 00       		.sleb128 0
 11147 1146 0B       		.byte	0xb
 11148 1147 5FFF     		.2byte	0xff5f
 11149 1149 1A       		.byte	0x1a
 11150 114a 9F       		.byte	0x9f
 11151 114b FA000000 		.4byte	.LVL299
 11152 114f 18010000 		.4byte	.LVL301
 11153 1153 0100     		.2byte	0x1
 11154 1155 52       		.byte	0x52
 11155 1156 00000000 		.4byte	0
 11156 115a 00000000 		.4byte	0
 11157              	.LLST99:
 11158 115e C6000000 		.4byte	.LVL290
 11159 1162 E0000000 		.4byte	.LVL293
 11160 1166 0200     		.2byte	0x2
 11161 1168 30       		.byte	0x30
 11162 1169 9F       		.byte	0x9f
 11163 116a E0000000 		.4byte	.LVL293
 11164 116e 18010000 		.4byte	.LVL301
 11165 1172 0500     		.2byte	0x5
 11166 1174 77       		.byte	0x77
 11167 1175 00       		.sleb128 0
 11168 1176 34       		.byte	0x34
 11169 1177 24       		.byte	0x24
 11170 1178 9F       		.byte	0x9f
 11171 1179 00000000 		.4byte	0
 11172 117d 00000000 		.4byte	0
 11173              	.LLST100:
 11174 1181 FA000000 		.4byte	.LVL299
 11175 1185 18010000 		.4byte	.LVL301
 11176 1189 0100     		.2byte	0x1
ARM GAS  /var/folders/7z/kps_xzfj7sn5l5gkyq8s9db00000gn/T//ccc38Eju.s 			page 199


 11177 118b 54       		.byte	0x54
 11178 118c 00000000 		.4byte	0
 11179 1190 00000000 		.4byte	0
 11180              	.LLST101:
 11181 1194 FA000000 		.4byte	.LVL299
 11182 1198 18010000 		.4byte	.LVL301
 11183 119c 0100     		.2byte	0x1
 11184 119e 50       		.byte	0x50
 11185 119f 00000000 		.4byte	0
 11186 11a3 00000000 		.4byte	0
 11187              	.LLST102:
 11188 11a7 20010000 		.4byte	.LVL302
 11189 11ab 40010000 		.4byte	.LVL308
 11190 11af 0100     		.2byte	0x1
 11191 11b1 52       		.byte	0x52
 11192 11b2 40010000 		.4byte	.LVL308
 11193 11b6 68010000 		.4byte	.LFE161
 11194 11ba 0500     		.2byte	0x5
 11195 11bc F3       		.byte	0xf3
 11196 11bd 01       		.uleb128 0x1
 11197 11be 51       		.byte	0x51
 11198 11bf 23       		.byte	0x23
 11199 11c0 08       		.uleb128 0x8
 11200 11c1 00000000 		.4byte	0
 11201 11c5 00000000 		.4byte	0
 11202              	.LLST103:
 11203 11c9 20010000 		.4byte	.LVL302
 11204 11cd 32010000 		.4byte	.LVL304
 11205 11d1 0200     		.2byte	0x2
 11206 11d3 30       		.byte	0x30
 11207 11d4 9F       		.byte	0x9f
 11208 11d5 32010000 		.4byte	.LVL304
 11209 11d9 34010000 		.4byte	.LVL305
 11210 11dd 0100     		.2byte	0x1
 11211 11df 51       		.byte	0x51
 11212 11e0 34010000 		.4byte	.LVL305
 11213 11e4 38010000 		.4byte	.LVL306
 11214 11e8 0700     		.2byte	0x7
 11215 11ea 71       		.byte	0x71
 11216 11eb 00       		.sleb128 0
 11217 11ec 0B       		.byte	0xb
 11218 11ed 0CFF     		.2byte	0xff0c
 11219 11ef 1A       		.byte	0x1a
 11220 11f0 9F       		.byte	0x9f
 11221 11f1 4E010000 		.4byte	.LVL309
 11222 11f5 68010000 		.4byte	.LFE161
 11223 11f9 0100     		.2byte	0x1
 11224 11fb 52       		.byte	0x52
 11225 11fc 00000000 		.4byte	0
 11226 1200 00000000 		.4byte	0
 11227              	.LLST104:
 11228 1204 20010000 		.4byte	.LVL302
 11229 1208 34010000 		.4byte	.LVL305
 11230 120c 0200     		.2byte	0x2
 11231 120e 30       		.byte	0x30
 11232 120f 9F       		.byte	0x9f
 11233 1210 34010000 		.4byte	.LVL305
ARM GAS  /var/folders/7z/kps_xzfj7sn5l5gkyq8s9db00000gn/T//ccc38Eju.s 			page 200


 11234 1214 3C010000 		.4byte	.LVL307
 11235 1218 0100     		.2byte	0x1
 11236 121a 53       		.byte	0x53
 11237 121b 4E010000 		.4byte	.LVL309
 11238 121f 54010000 		.4byte	.LVL310
 11239 1223 0100     		.2byte	0x1
 11240 1225 53       		.byte	0x53
 11241 1226 54010000 		.4byte	.LVL310
 11242 122a 5E010000 		.4byte	.LVL311
 11243 122e 0200     		.2byte	0x2
 11244 1230 70       		.byte	0x70
 11245 1231 20       		.sleb128 32
 11246 1232 00000000 		.4byte	0
 11247 1236 00000000 		.4byte	0
 11248              	.LLST105:
 11249 123a 20010000 		.4byte	.LVL302
 11250 123e 34010000 		.4byte	.LVL305
 11251 1242 0200     		.2byte	0x2
 11252 1244 30       		.byte	0x30
 11253 1245 9F       		.byte	0x9f
 11254 1246 34010000 		.4byte	.LVL305
 11255 124a 68010000 		.4byte	.LFE161
 11256 124e 0500     		.2byte	0x5
 11257 1250 77       		.byte	0x77
 11258 1251 00       		.sleb128 0
 11259 1252 38       		.byte	0x38
 11260 1253 24       		.byte	0x24
 11261 1254 9F       		.byte	0x9f
 11262 1255 00000000 		.4byte	0
 11263 1259 00000000 		.4byte	0
 11264              	.LLST106:
 11265 125d 4E010000 		.4byte	.LVL309
 11266 1261 64010000 		.4byte	.LVL312
 11267 1265 0100     		.2byte	0x1
 11268 1267 54       		.byte	0x54
 11269 1268 64010000 		.4byte	.LVL312
 11270 126c 68010000 		.4byte	.LFE161
 11271 1270 0500     		.2byte	0x5
 11272 1272 F3       		.byte	0xf3
 11273 1273 01       		.uleb128 0x1
 11274 1274 51       		.byte	0x51
 11275 1275 23       		.byte	0x23
 11276 1276 06       		.uleb128 0x6
 11277 1277 00000000 		.4byte	0
 11278 127b 00000000 		.4byte	0
 11279              	.LLST107:
 11280 127f 00000000 		.4byte	.LVL314
 11281 1283 2A000000 		.4byte	.LVL318
 11282 1287 0100     		.2byte	0x1
 11283 1289 51       		.byte	0x51
 11284 128a 2A000000 		.4byte	.LVL318
 11285 128e BC000000 		.4byte	.LVL338
 11286 1292 0400     		.2byte	0x4
 11287 1294 F3       		.byte	0xf3
 11288 1295 01       		.uleb128 0x1
 11289 1296 51       		.byte	0x51
 11290 1297 9F       		.byte	0x9f
ARM GAS  /var/folders/7z/kps_xzfj7sn5l5gkyq8s9db00000gn/T//ccc38Eju.s 			page 201


 11291 1298 BC000000 		.4byte	.LVL338
 11292 129c CE000000 		.4byte	.LVL340
 11293 12a0 0100     		.2byte	0x1
 11294 12a2 51       		.byte	0x51
 11295 12a3 CE000000 		.4byte	.LVL340
 11296 12a7 56010000 		.4byte	.LFE163
 11297 12ab 0400     		.2byte	0x4
 11298 12ad F3       		.byte	0xf3
 11299 12ae 01       		.uleb128 0x1
 11300 12af 51       		.byte	0x51
 11301 12b0 9F       		.byte	0x9f
 11302 12b1 00000000 		.4byte	0
 11303 12b5 00000000 		.4byte	0
 11304              	.LLST108:
 11305 12b9 00000000 		.4byte	.LVL314
 11306 12bd 16000000 		.4byte	.LVL315
 11307 12c1 0200     		.2byte	0x2
 11308 12c3 30       		.byte	0x30
 11309 12c4 9F       		.byte	0x9f
 11310 12c5 16000000 		.4byte	.LVL315
 11311 12c9 A0000000 		.4byte	.LVL334
 11312 12cd 0100     		.2byte	0x1
 11313 12cf 54       		.byte	0x54
 11314 12d0 BC000000 		.4byte	.LVL338
 11315 12d4 38010000 		.4byte	.LVL354
 11316 12d8 0100     		.2byte	0x1
 11317 12da 54       		.byte	0x54
 11318 12db 00000000 		.4byte	0
 11319 12df 00000000 		.4byte	0
 11320              	.LLST109:
 11321 12e3 00000000 		.4byte	.LVL314
 11322 12e7 20000000 		.4byte	.LVL316
 11323 12eb 0200     		.2byte	0x2
 11324 12ed 31       		.byte	0x31
 11325 12ee 9F       		.byte	0x9f
 11326 12ef 20000000 		.4byte	.LVL316
 11327 12f3 34010000 		.4byte	.LVL353
 11328 12f7 0100     		.2byte	0x1
 11329 12f9 55       		.byte	0x55
 11330 12fa 00000000 		.4byte	0
 11331 12fe 00000000 		.4byte	0
 11332              	.LLST110:
 11333 1302 28000000 		.4byte	.LVL317
 11334 1306 94000000 		.4byte	.LVL333
 11335 130a 0100     		.2byte	0x1
 11336 130c 56       		.byte	0x56
 11337 130d 94000000 		.4byte	.LVL333
 11338 1311 BC000000 		.4byte	.LVL338
 11339 1315 0500     		.2byte	0x5
 11340 1317 F3       		.byte	0xf3
 11341 1318 01       		.uleb128 0x1
 11342 1319 51       		.byte	0x51
 11343 131a 23       		.byte	0x23
 11344 131b 08       		.uleb128 0x8
 11345 131c 00000000 		.4byte	0
 11346 1320 00000000 		.4byte	0
 11347              	.LLST111:
ARM GAS  /var/folders/7z/kps_xzfj7sn5l5gkyq8s9db00000gn/T//ccc38Eju.s 			page 202


 11348 1324 28000000 		.4byte	.LVL317
 11349 1328 BC000000 		.4byte	.LVL338
 11350 132c 0100     		.2byte	0x1
 11351 132e 5E       		.byte	0x5e
 11352 132f 00000000 		.4byte	0
 11353 1333 00000000 		.4byte	0
 11354              	.LLST112:
 11355 1337 28000000 		.4byte	.LVL317
 11356 133b BC000000 		.4byte	.LVL338
 11357 133f 0100     		.2byte	0x1
 11358 1341 5C       		.byte	0x5c
 11359 1342 00000000 		.4byte	0
 11360 1346 00000000 		.4byte	0
 11361              	.LLST113:
 11362 134a 28000000 		.4byte	.LVL317
 11363 134e BC000000 		.4byte	.LVL338
 11364 1352 0100     		.2byte	0x1
 11365 1354 50       		.byte	0x50
 11366 1355 00000000 		.4byte	0
 11367 1359 00000000 		.4byte	0
 11368              	.LLST114:
 11369 135d 28000000 		.4byte	.LVL317
 11370 1361 36000000 		.4byte	.LVL319
 11371 1365 0200     		.2byte	0x2
 11372 1367 30       		.byte	0x30
 11373 1368 9F       		.byte	0x9f
 11374 1369 36000000 		.4byte	.LVL319
 11375 136d 42000000 		.4byte	.LVL320
 11376 1371 0100     		.2byte	0x1
 11377 1373 52       		.byte	0x52
 11378 1374 42000000 		.4byte	.LVL320
 11379 1378 46000000 		.4byte	.LVL321
 11380 137c 0100     		.2byte	0x1
 11381 137e 53       		.byte	0x53
 11382 137f 4C000000 		.4byte	.LVL323
 11383 1383 54000000 		.4byte	.LVL324
 11384 1387 0100     		.2byte	0x1
 11385 1389 53       		.byte	0x53
 11386 138a 58000000 		.4byte	.LVL325
 11387 138e 62000000 		.4byte	.LVL327
 11388 1392 0100     		.2byte	0x1
 11389 1394 53       		.byte	0x53
 11390 1395 00000000 		.4byte	0
 11391 1399 00000000 		.4byte	0
 11392              	.LLST115:
 11393 139d 28000000 		.4byte	.LVL317
 11394 13a1 42000000 		.4byte	.LVL320
 11395 13a5 0200     		.2byte	0x2
 11396 13a7 30       		.byte	0x30
 11397 13a8 9F       		.byte	0x9f
 11398 13a9 42000000 		.4byte	.LVL320
 11399 13ad 4A000000 		.4byte	.LVL322
 11400 13b1 0100     		.2byte	0x1
 11401 13b3 52       		.byte	0x52
 11402 13b4 4A000000 		.4byte	.LVL322
 11403 13b8 58000000 		.4byte	.LVL325
 11404 13bc 0100     		.2byte	0x1
ARM GAS  /var/folders/7z/kps_xzfj7sn5l5gkyq8s9db00000gn/T//ccc38Eju.s 			page 203


 11405 13be 57       		.byte	0x57
 11406 13bf 58000000 		.4byte	.LVL325
 11407 13c3 5C000000 		.4byte	.LVL326
 11408 13c7 0700     		.2byte	0x7
 11409 13c9 77       		.byte	0x77
 11410 13ca 00       		.sleb128 0
 11411 13cb 0B       		.byte	0xb
 11412 13cc 5FFF     		.2byte	0xff5f
 11413 13ce 1A       		.byte	0x1a
 11414 13cf 9F       		.byte	0x9f
 11415 13d0 5C000000 		.4byte	.LVL326
 11416 13d4 88000000 		.4byte	.LVL329
 11417 13d8 0100     		.2byte	0x1
 11418 13da 52       		.byte	0x52
 11419 13db 88000000 		.4byte	.LVL329
 11420 13df BC000000 		.4byte	.LVL338
 11421 13e3 1600     		.2byte	0x16
 11422 13e5 77       		.byte	0x77
 11423 13e6 00       		.sleb128 0
 11424 13e7 0A       		.byte	0xa
 11425 13e8 FFFF     		.2byte	0xffff
 11426 13ea 1A       		.byte	0x1a
 11427 13eb 0B       		.byte	0xb
 11428 13ec 5FFF     		.2byte	0xff5f
 11429 13ee 1A       		.byte	0x1a
 11430 13ef 7C       		.byte	0x7c
 11431 13f0 00       		.sleb128 0
 11432 13f1 34       		.byte	0x34
 11433 13f2 24       		.byte	0x24
 11434 13f3 21       		.byte	0x21
 11435 13f4 0A       		.byte	0xa
 11436 13f5 FFFF     		.2byte	0xffff
 11437 13f7 1A       		.byte	0x1a
 11438 13f8 40       		.byte	0x40
 11439 13f9 21       		.byte	0x21
 11440 13fa 9F       		.byte	0x9f
 11441 13fb 00000000 		.4byte	0
 11442 13ff 00000000 		.4byte	0
 11443              	.LLST116:
 11444 1403 28000000 		.4byte	.LVL317
 11445 1407 42000000 		.4byte	.LVL320
 11446 140b 0200     		.2byte	0x2
 11447 140d 30       		.byte	0x30
 11448 140e 9F       		.byte	0x9f
 11449 140f 42000000 		.4byte	.LVL320
 11450 1413 BC000000 		.4byte	.LVL338
 11451 1417 0500     		.2byte	0x5
 11452 1419 7C       		.byte	0x7c
 11453 141a 00       		.sleb128 0
 11454 141b 34       		.byte	0x34
 11455 141c 24       		.byte	0x24
 11456 141d 9F       		.byte	0x9f
 11457 141e 00000000 		.4byte	0
 11458 1422 00000000 		.4byte	0
 11459              	.LLST117:
 11460 1426 5C000000 		.4byte	.LVL326
 11461 142a B8000000 		.4byte	.LVL337
ARM GAS  /var/folders/7z/kps_xzfj7sn5l5gkyq8s9db00000gn/T//ccc38Eju.s 			page 204


 11462 142e 0100     		.2byte	0x1
 11463 1430 51       		.byte	0x51
 11464 1431 B8000000 		.4byte	.LVL337
 11465 1435 BC000000 		.4byte	.LVL338
 11466 1439 0500     		.2byte	0x5
 11467 143b F3       		.byte	0xf3
 11468 143c 01       		.uleb128 0x1
 11469 143d 51       		.byte	0x51
 11470 143e 23       		.byte	0x23
 11471 143f 06       		.uleb128 0x6
 11472 1440 00000000 		.4byte	0
 11473 1444 00000000 		.4byte	0
 11474              	.LLST118:
 11475 1448 5C000000 		.4byte	.LVL326
 11476 144c BC000000 		.4byte	.LVL338
 11477 1450 0100     		.2byte	0x1
 11478 1452 50       		.byte	0x50
 11479 1453 00000000 		.4byte	0
 11480 1457 00000000 		.4byte	0
 11481              	.LLST119:
 11482 145b 78000000 		.4byte	.LVL328
 11483 145f 94000000 		.4byte	.LVL333
 11484 1463 0100     		.2byte	0x1
 11485 1465 56       		.byte	0x56
 11486 1466 94000000 		.4byte	.LVL333
 11487 146a BC000000 		.4byte	.LVL338
 11488 146e 0500     		.2byte	0x5
 11489 1470 F3       		.byte	0xf3
 11490 1471 01       		.uleb128 0x1
 11491 1472 51       		.byte	0x51
 11492 1473 23       		.byte	0x23
 11493 1474 08       		.uleb128 0x8
 11494 1475 00000000 		.4byte	0
 11495 1479 00000000 		.4byte	0
 11496              	.LLST120:
 11497 147d 78000000 		.4byte	.LVL328
 11498 1481 BC000000 		.4byte	.LVL338
 11499 1485 0100     		.2byte	0x1
 11500 1487 55       		.byte	0x55
 11501 1488 00000000 		.4byte	0
 11502 148c 00000000 		.4byte	0
 11503              	.LLST121:
 11504 1490 78000000 		.4byte	.LVL328
 11505 1494 A0000000 		.4byte	.LVL334
 11506 1498 0100     		.2byte	0x1
 11507 149a 54       		.byte	0x54
 11508 149b 00000000 		.4byte	0
 11509 149f 00000000 		.4byte	0
 11510              	.LLST122:
 11511 14a3 78000000 		.4byte	.LVL328
 11512 14a7 BC000000 		.4byte	.LVL338
 11513 14ab 0100     		.2byte	0x1
 11514 14ad 50       		.byte	0x50
 11515 14ae 00000000 		.4byte	0
 11516 14b2 00000000 		.4byte	0
 11517              	.LLST123:
 11518 14b6 78000000 		.4byte	.LVL328
ARM GAS  /var/folders/7z/kps_xzfj7sn5l5gkyq8s9db00000gn/T//ccc38Eju.s 			page 205


 11519 14ba 8A000000 		.4byte	.LVL330
 11520 14be 0200     		.2byte	0x2
 11521 14c0 30       		.byte	0x30
 11522 14c1 9F       		.byte	0x9f
 11523 14c2 8A000000 		.4byte	.LVL330
 11524 14c6 8E000000 		.4byte	.LVL331
 11525 14ca 0100     		.2byte	0x1
 11526 14cc 53       		.byte	0x53
 11527 14cd A2000000 		.4byte	.LVL335
 11528 14d1 BC000000 		.4byte	.LVL338
 11529 14d5 0100     		.2byte	0x1
 11530 14d7 56       		.byte	0x56
 11531 14d8 00000000 		.4byte	0
 11532 14dc 00000000 		.4byte	0
 11533              	.LLST124:
 11534 14e0 78000000 		.4byte	.LVL328
 11535 14e4 90000000 		.4byte	.LVL332
 11536 14e8 0200     		.2byte	0x2
 11537 14ea 30       		.byte	0x30
 11538 14eb 9F       		.byte	0x9f
 11539 14ec 90000000 		.4byte	.LVL332
 11540 14f0 A2000000 		.4byte	.LVL335
 11541 14f4 0100     		.2byte	0x1
 11542 14f6 52       		.byte	0x52
 11543 14f7 A2000000 		.4byte	.LVL335
 11544 14fb BC000000 		.4byte	.LVL338
 11545 14ff 0100     		.2byte	0x1
 11546 1501 54       		.byte	0x54
 11547 1502 00000000 		.4byte	0
 11548 1506 00000000 		.4byte	0
 11549              	.LLST125:
 11550 150a A6000000 		.4byte	.LVL336
 11551 150e B8000000 		.4byte	.LVL337
 11552 1512 0100     		.2byte	0x1
 11553 1514 51       		.byte	0x51
 11554 1515 B8000000 		.4byte	.LVL337
 11555 1519 BC000000 		.4byte	.LVL338
 11556 151d 0500     		.2byte	0x5
 11557 151f F3       		.byte	0xf3
 11558 1520 01       		.uleb128 0x1
 11559 1521 51       		.byte	0x51
 11560 1522 23       		.byte	0x23
 11561 1523 06       		.uleb128 0x6
 11562 1524 00000000 		.4byte	0
 11563 1528 00000000 		.4byte	0
 11564              	.LLST126:
 11565 152c A6000000 		.4byte	.LVL336
 11566 1530 BC000000 		.4byte	.LVL338
 11567 1534 0100     		.2byte	0x1
 11568 1536 50       		.byte	0x50
 11569 1537 00000000 		.4byte	0
 11570 153b 00000000 		.4byte	0
 11571              	.LLST127:
 11572 153f C0000000 		.4byte	.LVL339
 11573 1543 EE000000 		.4byte	.LVL344
 11574 1547 0100     		.2byte	0x1
 11575 1549 5E       		.byte	0x5e
ARM GAS  /var/folders/7z/kps_xzfj7sn5l5gkyq8s9db00000gn/T//ccc38Eju.s 			page 206


 11576 154a 00000000 		.4byte	0
 11577 154e 00000000 		.4byte	0
 11578              	.LLST128:
 11579 1552 C0000000 		.4byte	.LVL339
 11580 1556 D2000000 		.4byte	.LVL341
 11581 155a 0200     		.2byte	0x2
 11582 155c 30       		.byte	0x30
 11583 155d 9F       		.byte	0x9f
 11584 155e D2000000 		.4byte	.LVL341
 11585 1562 D6000000 		.4byte	.LVL342
 11586 1566 0700     		.2byte	0x7
 11587 1568 71       		.byte	0x71
 11588 1569 00       		.sleb128 0
 11589 156a 0B       		.byte	0xb
 11590 156b 0CFF     		.2byte	0xff0c
 11591 156d 1A       		.byte	0x1a
 11592 156e 9F       		.byte	0x9f
 11593 156f EE000000 		.4byte	.LVL344
 11594 1573 56010000 		.4byte	.LFE163
 11595 1577 0100     		.2byte	0x1
 11596 1579 5E       		.byte	0x5e
 11597 157a 00000000 		.4byte	0
 11598 157e 00000000 		.4byte	0
 11599              	.LLST129:
 11600 1582 C0000000 		.4byte	.LVL339
 11601 1586 D2000000 		.4byte	.LVL341
 11602 158a 0200     		.2byte	0x2
 11603 158c 30       		.byte	0x30
 11604 158d 9F       		.byte	0x9f
 11605 158e D2000000 		.4byte	.LVL341
 11606 1592 DA000000 		.4byte	.LVL343
 11607 1596 0100     		.2byte	0x1
 11608 1598 53       		.byte	0x53
 11609 1599 EE000000 		.4byte	.LVL344
 11610 159d F6000000 		.4byte	.LVL345
 11611 15a1 0100     		.2byte	0x1
 11612 15a3 53       		.byte	0x53
 11613 15a4 F6000000 		.4byte	.LVL345
 11614 15a8 00010000 		.4byte	.LVL346
 11615 15ac 0200     		.2byte	0x2
 11616 15ae 70       		.byte	0x70
 11617 15af 20       		.sleb128 32
 11618 15b0 00000000 		.4byte	0
 11619 15b4 00000000 		.4byte	0
 11620              	.LLST130:
 11621 15b8 EE000000 		.4byte	.LVL344
 11622 15bc 50010000 		.4byte	.LVL356
 11623 15c0 0100     		.2byte	0x1
 11624 15c2 56       		.byte	0x56
 11625 15c3 50010000 		.4byte	.LVL356
 11626 15c7 56010000 		.4byte	.LFE163
 11627 15cb 0500     		.2byte	0x5
 11628 15cd F3       		.byte	0xf3
 11629 15ce 01       		.uleb128 0x1
 11630 15cf 51       		.byte	0x51
 11631 15d0 23       		.byte	0x23
 11632 15d1 06       		.uleb128 0x6
ARM GAS  /var/folders/7z/kps_xzfj7sn5l5gkyq8s9db00000gn/T//ccc38Eju.s 			page 207


 11633 15d2 00000000 		.4byte	0
 11634 15d6 00000000 		.4byte	0
 11635              	.LLST131:
 11636 15da 08010000 		.4byte	.LVL347
 11637 15de 34010000 		.4byte	.LVL353
 11638 15e2 0100     		.2byte	0x1
 11639 15e4 55       		.byte	0x55
 11640 15e5 00000000 		.4byte	0
 11641 15e9 00000000 		.4byte	0
 11642              	.LLST132:
 11643 15ed 08010000 		.4byte	.LVL347
 11644 15f1 38010000 		.4byte	.LVL354
 11645 15f5 0100     		.2byte	0x1
 11646 15f7 54       		.byte	0x54
 11647 15f8 00000000 		.4byte	0
 11648 15fc 00000000 		.4byte	0
 11649              	.LLST133:
 11650 1600 08010000 		.4byte	.LVL347
 11651 1604 16010000 		.4byte	.LVL348
 11652 1608 0200     		.2byte	0x2
 11653 160a 30       		.byte	0x30
 11654 160b 9F       		.byte	0x9f
 11655 160c 16010000 		.4byte	.LVL348
 11656 1610 22010000 		.4byte	.LVL349
 11657 1614 0100     		.2byte	0x1
 11658 1616 52       		.byte	0x52
 11659 1617 22010000 		.4byte	.LVL349
 11660 161b 26010000 		.4byte	.LVL350
 11661 161f 0100     		.2byte	0x1
 11662 1621 53       		.byte	0x53
 11663 1622 2C010000 		.4byte	.LVL352
 11664 1626 34010000 		.4byte	.LVL353
 11665 162a 0100     		.2byte	0x1
 11666 162c 53       		.byte	0x53
 11667 162d 34010000 		.4byte	.LVL353
 11668 1631 56010000 		.4byte	.LFE163
 11669 1635 0100     		.2byte	0x1
 11670 1637 55       		.byte	0x55
 11671 1638 00000000 		.4byte	0
 11672 163c 00000000 		.4byte	0
 11673              	.LLST134:
 11674 1640 08010000 		.4byte	.LVL347
 11675 1644 22010000 		.4byte	.LVL349
 11676 1648 0200     		.2byte	0x2
 11677 164a 30       		.byte	0x30
 11678 164b 9F       		.byte	0x9f
 11679 164c 22010000 		.4byte	.LVL349
 11680 1650 2A010000 		.4byte	.LVL351
 11681 1654 0100     		.2byte	0x1
 11682 1656 52       		.byte	0x52
 11683 1657 2A010000 		.4byte	.LVL351
 11684 165b 34010000 		.4byte	.LVL353
 11685 165f 0100     		.2byte	0x1
 11686 1661 51       		.byte	0x51
 11687 1662 34010000 		.4byte	.LVL353
 11688 1666 38010000 		.4byte	.LVL354
 11689 166a 0700     		.2byte	0x7
ARM GAS  /var/folders/7z/kps_xzfj7sn5l5gkyq8s9db00000gn/T//ccc38Eju.s 			page 208


 11690 166c 71       		.byte	0x71
 11691 166d 00       		.sleb128 0
 11692 166e 0B       		.byte	0xb
 11693 166f 5FFF     		.2byte	0xff5f
 11694 1671 1A       		.byte	0x1a
 11695 1672 9F       		.byte	0x9f
 11696 1673 38010000 		.4byte	.LVL354
 11697 1677 56010000 		.4byte	.LFE163
 11698 167b 0100     		.2byte	0x1
 11699 167d 54       		.byte	0x54
 11700 167e 00000000 		.4byte	0
 11701 1682 00000000 		.4byte	0
 11702              	.LLST135:
 11703 1686 08010000 		.4byte	.LVL347
 11704 168a 22010000 		.4byte	.LVL349
 11705 168e 0200     		.2byte	0x2
 11706 1690 30       		.byte	0x30
 11707 1691 9F       		.byte	0x9f
 11708 1692 22010000 		.4byte	.LVL349
 11709 1696 38010000 		.4byte	.LVL354
 11710 169a 0500     		.2byte	0x5
 11711 169c 74       		.byte	0x74
 11712 169d 00       		.sleb128 0
 11713 169e 34       		.byte	0x34
 11714 169f 24       		.byte	0x24
 11715 16a0 9F       		.byte	0x9f
 11716 16a1 00000000 		.4byte	0
 11717 16a5 00000000 		.4byte	0
 11718              	.LLST136:
 11719 16a9 3C010000 		.4byte	.LVL355
 11720 16ad 50010000 		.4byte	.LVL356
 11721 16b1 0100     		.2byte	0x1
 11722 16b3 56       		.byte	0x56
 11723 16b4 50010000 		.4byte	.LVL356
 11724 16b8 56010000 		.4byte	.LFE163
 11725 16bc 0500     		.2byte	0x5
 11726 16be F3       		.byte	0xf3
 11727 16bf 01       		.uleb128 0x1
 11728 16c0 51       		.byte	0x51
 11729 16c1 23       		.byte	0x23
 11730 16c2 06       		.uleb128 0x6
 11731 16c3 00000000 		.4byte	0
 11732 16c7 00000000 		.4byte	0
 11733              	.LLST137:
 11734 16cb 00000000 		.4byte	.LVL357
 11735 16cf 02000000 		.4byte	.LVL358
 11736 16d3 0100     		.2byte	0x1
 11737 16d5 50       		.byte	0x50
 11738 16d6 02000000 		.4byte	.LVL358
 11739 16da 04000000 		.4byte	.LFE164
 11740 16de 0400     		.2byte	0x4
 11741 16e0 F3       		.byte	0xf3
 11742 16e1 01       		.uleb128 0x1
 11743 16e2 50       		.byte	0x50
 11744 16e3 9F       		.byte	0x9f
 11745 16e4 00000000 		.4byte	0
 11746 16e8 00000000 		.4byte	0
ARM GAS  /var/folders/7z/kps_xzfj7sn5l5gkyq8s9db00000gn/T//ccc38Eju.s 			page 209


 11747              	.LLST138:
 11748 16ec 00000000 		.4byte	.LVL359
 11749 16f0 02000000 		.4byte	.LVL360
 11750 16f4 0100     		.2byte	0x1
 11751 16f6 50       		.byte	0x50
 11752 16f7 02000000 		.4byte	.LVL360
 11753 16fb 04000000 		.4byte	.LFE165
 11754 16ff 0400     		.2byte	0x4
 11755 1701 F3       		.byte	0xf3
 11756 1702 01       		.uleb128 0x1
 11757 1703 50       		.byte	0x50
 11758 1704 9F       		.byte	0x9f
 11759 1705 00000000 		.4byte	0
 11760 1709 00000000 		.4byte	0
 11761              	.LLST139:
 11762 170d 00000000 		.4byte	.LVL361
 11763 1711 02000000 		.4byte	.LVL362
 11764 1715 0100     		.2byte	0x1
 11765 1717 50       		.byte	0x50
 11766 1718 02000000 		.4byte	.LVL362
 11767 171c 04000000 		.4byte	.LFE166
 11768 1720 0400     		.2byte	0x4
 11769 1722 F3       		.byte	0xf3
 11770 1723 01       		.uleb128 0x1
 11771 1724 50       		.byte	0x50
 11772 1725 9F       		.byte	0x9f
 11773 1726 00000000 		.4byte	0
 11774 172a 00000000 		.4byte	0
 11775              	.LLST140:
 11776 172e 00000000 		.4byte	.LVL363
 11777 1732 02000000 		.4byte	.LVL364
 11778 1736 0100     		.2byte	0x1
 11779 1738 50       		.byte	0x50
 11780 1739 02000000 		.4byte	.LVL364
 11781 173d 04000000 		.4byte	.LFE167
 11782 1741 0400     		.2byte	0x4
 11783 1743 F3       		.byte	0xf3
 11784 1744 01       		.uleb128 0x1
 11785 1745 50       		.byte	0x50
 11786 1746 9F       		.byte	0x9f
 11787 1747 00000000 		.4byte	0
 11788 174b 00000000 		.4byte	0
 11789              	.LLST141:
 11790 174f 00000000 		.4byte	.LVL365
 11791 1753 12000000 		.4byte	.LVL366
 11792 1757 0100     		.2byte	0x1
 11793 1759 51       		.byte	0x51
 11794 175a 12000000 		.4byte	.LVL366
 11795 175e 16000000 		.4byte	.LFE168
 11796 1762 0400     		.2byte	0x4
 11797 1764 F3       		.byte	0xf3
 11798 1765 01       		.uleb128 0x1
 11799 1766 51       		.byte	0x51
 11800 1767 9F       		.byte	0x9f
 11801 1768 00000000 		.4byte	0
 11802 176c 00000000 		.4byte	0
 11803              	.LLST142:
ARM GAS  /var/folders/7z/kps_xzfj7sn5l5gkyq8s9db00000gn/T//ccc38Eju.s 			page 210


 11804 1770 00000000 		.4byte	.LVL367
 11805 1774 14000000 		.4byte	.LVL368
 11806 1778 0100     		.2byte	0x1
 11807 177a 51       		.byte	0x51
 11808 177b 14000000 		.4byte	.LVL368
 11809 177f 1A000000 		.4byte	.LFE169
 11810 1783 0400     		.2byte	0x4
 11811 1785 F3       		.byte	0xf3
 11812 1786 01       		.uleb128 0x1
 11813 1787 51       		.byte	0x51
 11814 1788 9F       		.byte	0x9f
 11815 1789 00000000 		.4byte	0
 11816 178d 00000000 		.4byte	0
 11817              	.LLST143:
 11818 1791 00000000 		.4byte	.LVL369
 11819 1795 12000000 		.4byte	.LVL370
 11820 1799 0100     		.2byte	0x1
 11821 179b 51       		.byte	0x51
 11822 179c 12000000 		.4byte	.LVL370
 11823 17a0 16000000 		.4byte	.LFE170
 11824 17a4 0400     		.2byte	0x4
 11825 17a6 F3       		.byte	0xf3
 11826 17a7 01       		.uleb128 0x1
 11827 17a8 51       		.byte	0x51
 11828 17a9 9F       		.byte	0x9f
 11829 17aa 00000000 		.4byte	0
 11830 17ae 00000000 		.4byte	0
 11831              	.LLST144:
 11832 17b2 00000000 		.4byte	.LVL371
 11833 17b6 14000000 		.4byte	.LVL372
 11834 17ba 0100     		.2byte	0x1
 11835 17bc 51       		.byte	0x51
 11836 17bd 14000000 		.4byte	.LVL372
 11837 17c1 1A000000 		.4byte	.LFE171
 11838 17c5 0400     		.2byte	0x4
 11839 17c7 F3       		.byte	0xf3
 11840 17c8 01       		.uleb128 0x1
 11841 17c9 51       		.byte	0x51
 11842 17ca 9F       		.byte	0x9f
 11843 17cb 00000000 		.4byte	0
 11844 17cf 00000000 		.4byte	0
 11845              	.LLST145:
 11846 17d3 00000000 		.4byte	.LVL378
 11847 17d7 0A000000 		.4byte	.LVL379
 11848 17db 0100     		.2byte	0x1
 11849 17dd 51       		.byte	0x51
 11850 17de 0A000000 		.4byte	.LVL379
 11851 17e2 0E000000 		.4byte	.LVL380
 11852 17e6 0400     		.2byte	0x4
 11853 17e8 F3       		.byte	0xf3
 11854 17e9 01       		.uleb128 0x1
 11855 17ea 51       		.byte	0x51
 11856 17eb 9F       		.byte	0x9f
 11857 17ec 0E000000 		.4byte	.LVL380
 11858 17f0 10000000 		.4byte	.LVL381
 11859 17f4 0100     		.2byte	0x1
 11860 17f6 51       		.byte	0x51
ARM GAS  /var/folders/7z/kps_xzfj7sn5l5gkyq8s9db00000gn/T//ccc38Eju.s 			page 211


 11861 17f7 10000000 		.4byte	.LVL381
 11862 17fb 14000000 		.4byte	.LFE177
 11863 17ff 0400     		.2byte	0x4
 11864 1801 F3       		.byte	0xf3
 11865 1802 01       		.uleb128 0x1
 11866 1803 51       		.byte	0x51
 11867 1804 9F       		.byte	0x9f
 11868 1805 00000000 		.4byte	0
 11869 1809 00000000 		.4byte	0
 11870              	.LLST146:
 11871 180d 00000000 		.4byte	.LVL383
 11872 1811 08000000 		.4byte	.LVL385
 11873 1815 0100     		.2byte	0x1
 11874 1817 50       		.byte	0x50
 11875 1818 08000000 		.4byte	.LVL385
 11876 181c 0C000000 		.4byte	.LFE179
 11877 1820 0400     		.2byte	0x4
 11878 1822 F3       		.byte	0xf3
 11879 1823 01       		.uleb128 0x1
 11880 1824 50       		.byte	0x50
 11881 1825 9F       		.byte	0x9f
 11882 1826 00000000 		.4byte	0
 11883 182a 00000000 		.4byte	0
 11884              	.LLST147:
 11885 182e 00000000 		.4byte	.LVL383
 11886 1832 02000000 		.4byte	.LVL384
 11887 1836 0200     		.2byte	0x2
 11888 1838 30       		.byte	0x30
 11889 1839 9F       		.byte	0x9f
 11890 183a 02000000 		.4byte	.LVL384
 11891 183e 0C000000 		.4byte	.LFE179
 11892 1842 0A00     		.2byte	0xa
 11893 1844 71       		.byte	0x71
 11894 1845 00       		.sleb128 0
 11895 1846 73       		.byte	0x73
 11896 1847 00       		.sleb128 0
 11897 1848 1A       		.byte	0x1a
 11898 1849 40       		.byte	0x40
 11899 184a 24       		.byte	0x24
 11900 184b 30       		.byte	0x30
 11901 184c 2E       		.byte	0x2e
 11902 184d 9F       		.byte	0x9f
 11903 184e 00000000 		.4byte	0
 11904 1852 00000000 		.4byte	0
 11905              	.LLST148:
 11906 1856 00000000 		.4byte	.LVL386
 11907 185a 02000000 		.4byte	.LVL387
 11908 185e 0100     		.2byte	0x1
 11909 1860 51       		.byte	0x51
 11910 1861 02000000 		.4byte	.LVL387
 11911 1865 08000000 		.4byte	.LFE180
 11912 1869 0400     		.2byte	0x4
 11913 186b F3       		.byte	0xf3
 11914 186c 01       		.uleb128 0x1
 11915 186d 51       		.byte	0x51
 11916 186e 9F       		.byte	0x9f
 11917 186f 00000000 		.4byte	0
ARM GAS  /var/folders/7z/kps_xzfj7sn5l5gkyq8s9db00000gn/T//ccc38Eju.s 			page 212


 11918 1873 00000000 		.4byte	0
 11919              	.LLST149:
 11920 1877 00000000 		.4byte	.LVL388
 11921 187b 08000000 		.4byte	.LVL390
 11922 187f 0100     		.2byte	0x1
 11923 1881 50       		.byte	0x50
 11924 1882 08000000 		.4byte	.LVL390
 11925 1886 16000000 		.4byte	.LFE181
 11926 188a 0400     		.2byte	0x4
 11927 188c F3       		.byte	0xf3
 11928 188d 01       		.uleb128 0x1
 11929 188e 50       		.byte	0x50
 11930 188f 9F       		.byte	0x9f
 11931 1890 00000000 		.4byte	0
 11932 1894 00000000 		.4byte	0
 11933              	.LLST150:
 11934 1898 00000000 		.4byte	.LVL388
 11935 189c 14000000 		.4byte	.LVL392
 11936 18a0 0200     		.2byte	0x2
 11937 18a2 30       		.byte	0x30
 11938 18a3 9F       		.byte	0x9f
 11939 18a4 14000000 		.4byte	.LVL392
 11940 18a8 16000000 		.4byte	.LFE181
 11941 18ac 0100     		.2byte	0x1
 11942 18ae 50       		.byte	0x50
 11943 18af 00000000 		.4byte	0
 11944 18b3 00000000 		.4byte	0
 11945              	.LLST151:
 11946 18b7 00000000 		.4byte	.LVL388
 11947 18bb 02000000 		.4byte	.LVL389
 11948 18bf 0200     		.2byte	0x2
 11949 18c1 30       		.byte	0x30
 11950 18c2 9F       		.byte	0x9f
 11951 18c3 02000000 		.4byte	.LVL389
 11952 18c7 16000000 		.4byte	.LFE181
 11953 18cb 0600     		.2byte	0x6
 11954 18cd 73       		.byte	0x73
 11955 18ce 00       		.sleb128 0
 11956 18cf 71       		.byte	0x71
 11957 18d0 00       		.sleb128 0
 11958 18d1 1A       		.byte	0x1a
 11959 18d2 9F       		.byte	0x9f
 11960 18d3 00000000 		.4byte	0
 11961 18d7 00000000 		.4byte	0
 11962              	.LLST152:
 11963 18db 00000000 		.4byte	.LVL388
 11964 18df 0A000000 		.4byte	.LVL391
 11965 18e3 0200     		.2byte	0x2
 11966 18e5 30       		.byte	0x30
 11967 18e6 9F       		.byte	0x9f
 11968 18e7 0A000000 		.4byte	.LVL391
 11969 18eb 16000000 		.4byte	.LFE181
 11970 18ef 0600     		.2byte	0x6
 11971 18f1 71       		.byte	0x71
 11972 18f2 00       		.sleb128 0
 11973 18f3 72       		.byte	0x72
 11974 18f4 00       		.sleb128 0
ARM GAS  /var/folders/7z/kps_xzfj7sn5l5gkyq8s9db00000gn/T//ccc38Eju.s 			page 213


 11975 18f5 1A       		.byte	0x1a
 11976 18f6 9F       		.byte	0x9f
 11977 18f7 00000000 		.4byte	0
 11978 18fb 00000000 		.4byte	0
 11979              	.LLST153:
 11980 18ff 00000000 		.4byte	.LVL393
 11981 1903 02000000 		.4byte	.LVL394
 11982 1907 0100     		.2byte	0x1
 11983 1909 51       		.byte	0x51
 11984 190a 02000000 		.4byte	.LVL394
 11985 190e 08000000 		.4byte	.LFE182
 11986 1912 0400     		.2byte	0x4
 11987 1914 F3       		.byte	0xf3
 11988 1915 01       		.uleb128 0x1
 11989 1916 51       		.byte	0x51
 11990 1917 9F       		.byte	0x9f
 11991 1918 00000000 		.4byte	0
 11992 191c 00000000 		.4byte	0
 11993              	.LLST154:
 11994 1920 00000000 		.4byte	.LVL395
 11995 1924 02000000 		.4byte	.LVL396
 11996 1928 0100     		.2byte	0x1
 11997 192a 52       		.byte	0x52
 11998 192b 02000000 		.4byte	.LVL396
 11999 192f 08000000 		.4byte	.LFE183
 12000 1933 0400     		.2byte	0x4
 12001 1935 F3       		.byte	0xf3
 12002 1936 01       		.uleb128 0x1
 12003 1937 52       		.byte	0x52
 12004 1938 9F       		.byte	0x9f
 12005 1939 00000000 		.4byte	0
 12006 193d 00000000 		.4byte	0
 12007              	.LLST155:
 12008 1941 00000000 		.4byte	.LVL397
 12009 1945 0A000000 		.4byte	.LVL398
 12010 1949 0100     		.2byte	0x1
 12011 194b 51       		.byte	0x51
 12012 194c 0A000000 		.4byte	.LVL398
 12013 1950 0E000000 		.4byte	.LVL399
 12014 1954 0400     		.2byte	0x4
 12015 1956 F3       		.byte	0xf3
 12016 1957 01       		.uleb128 0x1
 12017 1958 51       		.byte	0x51
 12018 1959 9F       		.byte	0x9f
 12019 195a 0E000000 		.4byte	.LVL399
 12020 195e 10000000 		.4byte	.LVL400
 12021 1962 0100     		.2byte	0x1
 12022 1964 51       		.byte	0x51
 12023 1965 10000000 		.4byte	.LVL400
 12024 1969 14000000 		.4byte	.LFE184
 12025 196d 0400     		.2byte	0x4
 12026 196f F3       		.byte	0xf3
 12027 1970 01       		.uleb128 0x1
 12028 1971 51       		.byte	0x51
 12029 1972 9F       		.byte	0x9f
 12030 1973 00000000 		.4byte	0
 12031 1977 00000000 		.4byte	0
ARM GAS  /var/folders/7z/kps_xzfj7sn5l5gkyq8s9db00000gn/T//ccc38Eju.s 			page 214


 12032              	.LLST156:
 12033 197b 00000000 		.4byte	.LVL403
 12034 197f 0C000000 		.4byte	.LVL407
 12035 1983 0100     		.2byte	0x1
 12036 1985 51       		.byte	0x51
 12037 1986 0C000000 		.4byte	.LVL407
 12038 198a 1A000000 		.4byte	.LFE187
 12039 198e 0400     		.2byte	0x4
 12040 1990 F3       		.byte	0xf3
 12041 1991 01       		.uleb128 0x1
 12042 1992 51       		.byte	0x51
 12043 1993 9F       		.byte	0x9f
 12044 1994 00000000 		.4byte	0
 12045 1998 00000000 		.4byte	0
 12046              	.LLST158:
 12047 199c 00000000 		.4byte	.LVL403
 12048 19a0 02000000 		.4byte	.LVL404
 12049 19a4 0200     		.2byte	0x2
 12050 19a6 30       		.byte	0x30
 12051 19a7 9F       		.byte	0x9f
 12052 19a8 02000000 		.4byte	.LVL404
 12053 19ac 06000000 		.4byte	.LVL405
 12054 19b0 0100     		.2byte	0x1
 12055 19b2 53       		.byte	0x53
 12056 19b3 0A000000 		.4byte	.LVL406
 12057 19b7 0C000000 		.4byte	.LVL407
 12058 19bb 0100     		.2byte	0x1
 12059 19bd 53       		.byte	0x53
 12060 19be 0C000000 		.4byte	.LVL407
 12061 19c2 1A000000 		.4byte	.LFE187
 12062 19c6 0100     		.2byte	0x1
 12063 19c8 51       		.byte	0x51
 12064 19c9 00000000 		.4byte	0
 12065 19cd 00000000 		.4byte	0
 12066              	.LLST159:
 12067 19d1 00000000 		.4byte	.LVL408
 12068 19d5 32000000 		.4byte	.LVL416
 12069 19d9 0100     		.2byte	0x1
 12070 19db 52       		.byte	0x52
 12071 19dc 32000000 		.4byte	.LVL416
 12072 19e0 52000000 		.4byte	.LVL424
 12073 19e4 0400     		.2byte	0x4
 12074 19e6 F3       		.byte	0xf3
 12075 19e7 01       		.uleb128 0x1
 12076 19e8 52       		.byte	0x52
 12077 19e9 9F       		.byte	0x9f
 12078 19ea 52000000 		.4byte	.LVL424
 12079 19ee 7E000000 		.4byte	.LVL430
 12080 19f2 0100     		.2byte	0x1
 12081 19f4 52       		.byte	0x52
 12082 19f5 7E000000 		.4byte	.LVL430
 12083 19f9 88000000 		.4byte	.LFE188
 12084 19fd 0400     		.2byte	0x4
 12085 19ff F3       		.byte	0xf3
 12086 1a00 01       		.uleb128 0x1
 12087 1a01 52       		.byte	0x52
 12088 1a02 9F       		.byte	0x9f
ARM GAS  /var/folders/7z/kps_xzfj7sn5l5gkyq8s9db00000gn/T//ccc38Eju.s 			page 215


 12089 1a03 00000000 		.4byte	0
 12090 1a07 00000000 		.4byte	0
 12091              	.LLST160:
 12092 1a0b 00000000 		.4byte	.LVL408
 12093 1a0f 2A000000 		.4byte	.LVL414
 12094 1a13 0100     		.2byte	0x1
 12095 1a15 53       		.byte	0x53
 12096 1a16 2A000000 		.4byte	.LVL414
 12097 1a1a 52000000 		.4byte	.LVL424
 12098 1a1e 0400     		.2byte	0x4
 12099 1a20 F3       		.byte	0xf3
 12100 1a21 01       		.uleb128 0x1
 12101 1a22 53       		.byte	0x53
 12102 1a23 9F       		.byte	0x9f
 12103 1a24 52000000 		.4byte	.LVL424
 12104 1a28 7A000000 		.4byte	.LVL429
 12105 1a2c 0100     		.2byte	0x1
 12106 1a2e 53       		.byte	0x53
 12107 1a2f 7A000000 		.4byte	.LVL429
 12108 1a33 88000000 		.4byte	.LFE188
 12109 1a37 0400     		.2byte	0x4
 12110 1a39 F3       		.byte	0xf3
 12111 1a3a 01       		.uleb128 0x1
 12112 1a3b 53       		.byte	0x53
 12113 1a3c 9F       		.byte	0x9f
 12114 1a3d 00000000 		.4byte	0
 12115 1a41 00000000 		.4byte	0
 12116              	.LLST161:
 12117 1a45 52000000 		.4byte	.LVL424
 12118 1a49 7A000000 		.4byte	.LVL429
 12119 1a4d 0100     		.2byte	0x1
 12120 1a4f 53       		.byte	0x53
 12121 1a50 7A000000 		.4byte	.LVL429
 12122 1a54 88000000 		.4byte	.LFE188
 12123 1a58 0400     		.2byte	0x4
 12124 1a5a F3       		.byte	0xf3
 12125 1a5b 01       		.uleb128 0x1
 12126 1a5c 53       		.byte	0x53
 12127 1a5d 9F       		.byte	0x9f
 12128 1a5e 00000000 		.4byte	0
 12129 1a62 00000000 		.4byte	0
 12130              	.LLST162:
 12131 1a66 52000000 		.4byte	.LVL424
 12132 1a6a 7E000000 		.4byte	.LVL430
 12133 1a6e 0100     		.2byte	0x1
 12134 1a70 52       		.byte	0x52
 12135 1a71 7E000000 		.4byte	.LVL430
 12136 1a75 88000000 		.4byte	.LFE188
 12137 1a79 0400     		.2byte	0x4
 12138 1a7b F3       		.byte	0xf3
 12139 1a7c 01       		.uleb128 0x1
 12140 1a7d 52       		.byte	0x52
 12141 1a7e 9F       		.byte	0x9f
 12142 1a7f 00000000 		.4byte	0
 12143 1a83 00000000 		.4byte	0
 12144              	.LLST163:
 12145 1a87 52000000 		.4byte	.LVL424
ARM GAS  /var/folders/7z/kps_xzfj7sn5l5gkyq8s9db00000gn/T//ccc38Eju.s 			page 216


 12146 1a8b 5E000000 		.4byte	.LVL425
 12147 1a8f 0200     		.2byte	0x2
 12148 1a91 30       		.byte	0x30
 12149 1a92 9F       		.byte	0x9f
 12150 1a93 5E000000 		.4byte	.LVL425
 12151 1a97 64000000 		.4byte	.LVL426
 12152 1a9b 0100     		.2byte	0x1
 12153 1a9d 54       		.byte	0x54
 12154 1a9e 80000000 		.4byte	.LVL431
 12155 1aa2 88000000 		.4byte	.LFE188
 12156 1aa6 0100     		.2byte	0x1
 12157 1aa8 53       		.byte	0x53
 12158 1aa9 00000000 		.4byte	0
 12159 1aad 00000000 		.4byte	0
 12160              	.LLST164:
 12161 1ab1 52000000 		.4byte	.LVL424
 12162 1ab5 68000000 		.4byte	.LVL427
 12163 1ab9 0200     		.2byte	0x2
 12164 1abb 30       		.byte	0x30
 12165 1abc 9F       		.byte	0x9f
 12166 1abd 68000000 		.4byte	.LVL427
 12167 1ac1 6E000000 		.4byte	.LVL428
 12168 1ac5 0100     		.2byte	0x1
 12169 1ac7 55       		.byte	0x55
 12170 1ac8 82000000 		.4byte	.LVL432
 12171 1acc 88000000 		.4byte	.LFE188
 12172 1ad0 0100     		.2byte	0x1
 12173 1ad2 52       		.byte	0x52
 12174 1ad3 00000000 		.4byte	0
 12175 1ad7 00000000 		.4byte	0
 12176              	.LLST165:
 12177 1adb 52000000 		.4byte	.LVL424
 12178 1adf 68000000 		.4byte	.LVL427
 12179 1ae3 0200     		.2byte	0x2
 12180 1ae5 30       		.byte	0x30
 12181 1ae6 9F       		.byte	0x9f
 12182 1ae7 68000000 		.4byte	.LVL427
 12183 1aeb 7E000000 		.4byte	.LVL430
 12184 1aef 0500     		.2byte	0x5
 12185 1af1 72       		.byte	0x72
 12186 1af2 00       		.sleb128 0
 12187 1af3 34       		.byte	0x34
 12188 1af4 24       		.byte	0x24
 12189 1af5 9F       		.byte	0x9f
 12190 1af6 7E000000 		.4byte	.LVL430
 12191 1afa 88000000 		.4byte	.LFE188
 12192 1afe 0600     		.2byte	0x6
 12193 1b00 F3       		.byte	0xf3
 12194 1b01 01       		.uleb128 0x1
 12195 1b02 52       		.byte	0x52
 12196 1b03 34       		.byte	0x34
 12197 1b04 24       		.byte	0x24
 12198 1b05 9F       		.byte	0x9f
 12199 1b06 00000000 		.4byte	0
 12200 1b0a 00000000 		.4byte	0
 12201              	.LLST166:
 12202 1b0e 08000000 		.4byte	.LVL409
ARM GAS  /var/folders/7z/kps_xzfj7sn5l5gkyq8s9db00000gn/T//ccc38Eju.s 			page 217


 12203 1b12 2A000000 		.4byte	.LVL414
 12204 1b16 0100     		.2byte	0x1
 12205 1b18 53       		.byte	0x53
 12206 1b19 2A000000 		.4byte	.LVL414
 12207 1b1d 36000000 		.4byte	.LVL417
 12208 1b21 0400     		.2byte	0x4
 12209 1b23 F3       		.byte	0xf3
 12210 1b24 01       		.uleb128 0x1
 12211 1b25 53       		.byte	0x53
 12212 1b26 9F       		.byte	0x9f
 12213 1b27 00000000 		.4byte	0
 12214 1b2b 00000000 		.4byte	0
 12215              	.LLST167:
 12216 1b2f 08000000 		.4byte	.LVL409
 12217 1b33 36000000 		.4byte	.LVL417
 12218 1b37 0200     		.2byte	0x2
 12219 1b39 31       		.byte	0x31
 12220 1b3a 9F       		.byte	0x9f
 12221 1b3b 00000000 		.4byte	0
 12222 1b3f 00000000 		.4byte	0
 12223              	.LLST168:
 12224 1b43 08000000 		.4byte	.LVL409
 12225 1b47 32000000 		.4byte	.LVL416
 12226 1b4b 0100     		.2byte	0x1
 12227 1b4d 52       		.byte	0x52
 12228 1b4e 32000000 		.4byte	.LVL416
 12229 1b52 36000000 		.4byte	.LVL417
 12230 1b56 0400     		.2byte	0x4
 12231 1b58 F3       		.byte	0xf3
 12232 1b59 01       		.uleb128 0x1
 12233 1b5a 52       		.byte	0x52
 12234 1b5b 9F       		.byte	0x9f
 12235 1b5c 00000000 		.4byte	0
 12236 1b60 00000000 		.4byte	0
 12237              	.LLST169:
 12238 1b64 08000000 		.4byte	.LVL409
 12239 1b68 36000000 		.4byte	.LVL417
 12240 1b6c 0100     		.2byte	0x1
 12241 1b6e 50       		.byte	0x50
 12242 1b6f 00000000 		.4byte	0
 12243 1b73 00000000 		.4byte	0
 12244              	.LLST170:
 12245 1b77 08000000 		.4byte	.LVL409
 12246 1b7b 18000000 		.4byte	.LVL410
 12247 1b7f 0200     		.2byte	0x2
 12248 1b81 30       		.byte	0x30
 12249 1b82 9F       		.byte	0x9f
 12250 1b83 18000000 		.4byte	.LVL410
 12251 1b87 1C000000 		.4byte	.LVL411
 12252 1b8b 0100     		.2byte	0x1
 12253 1b8d 54       		.byte	0x54
 12254 1b8e 30000000 		.4byte	.LVL415
 12255 1b92 36000000 		.4byte	.LVL417
 12256 1b96 0100     		.2byte	0x1
 12257 1b98 53       		.byte	0x53
 12258 1b99 00000000 		.4byte	0
 12259 1b9d 00000000 		.4byte	0
ARM GAS  /var/folders/7z/kps_xzfj7sn5l5gkyq8s9db00000gn/T//ccc38Eju.s 			page 218


 12260              	.LLST171:
 12261 1ba1 08000000 		.4byte	.LVL409
 12262 1ba5 1E000000 		.4byte	.LVL412
 12263 1ba9 0200     		.2byte	0x2
 12264 1bab 30       		.byte	0x30
 12265 1bac 9F       		.byte	0x9f
 12266 1bad 1E000000 		.4byte	.LVL412
 12267 1bb1 26000000 		.4byte	.LVL413
 12268 1bb5 0100     		.2byte	0x1
 12269 1bb7 55       		.byte	0x55
 12270 1bb8 32000000 		.4byte	.LVL416
 12271 1bbc 36000000 		.4byte	.LVL417
 12272 1bc0 0100     		.2byte	0x1
 12273 1bc2 52       		.byte	0x52
 12274 1bc3 00000000 		.4byte	0
 12275 1bc7 00000000 		.4byte	0
 12276              	.LLST172:
 12277 1bcb 36000000 		.4byte	.LVL417
 12278 1bcf 52000000 		.4byte	.LVL424
 12279 1bd3 0100     		.2byte	0x1
 12280 1bd5 51       		.byte	0x51
 12281 1bd6 00000000 		.4byte	0
 12282 1bda 00000000 		.4byte	0
 12283              	.LLST173:
 12284 1bde 36000000 		.4byte	.LVL417
 12285 1be2 52000000 		.4byte	.LVL424
 12286 1be6 0100     		.2byte	0x1
 12287 1be8 50       		.byte	0x50
 12288 1be9 00000000 		.4byte	0
 12289 1bed 00000000 		.4byte	0
 12290              	.LLST174:
 12291 1bf1 36000000 		.4byte	.LVL417
 12292 1bf5 38000000 		.4byte	.LVL418
 12293 1bf9 0200     		.2byte	0x2
 12294 1bfb 30       		.byte	0x30
 12295 1bfc 9F       		.byte	0x9f
 12296 1bfd 38000000 		.4byte	.LVL418
 12297 1c01 3C000000 		.4byte	.LVL419
 12298 1c05 0100     		.2byte	0x1
 12299 1c07 53       		.byte	0x53
 12300 1c08 40000000 		.4byte	.LVL420
 12301 1c0c 46000000 		.4byte	.LVL422
 12302 1c10 0100     		.2byte	0x1
 12303 1c12 53       		.byte	0x53
 12304 1c13 46000000 		.4byte	.LVL422
 12305 1c17 4E000000 		.4byte	.LVL423
 12306 1c1b 0200     		.2byte	0x2
 12307 1c1d 70       		.byte	0x70
 12308 1c1e 08       		.sleb128 8
 12309 1c1f 00000000 		.4byte	0
 12310 1c23 00000000 		.4byte	0
 12311              	.LLST175:
 12312 1c27 00000000 		.4byte	.LVL433
 12313 1c2b 10000000 		.4byte	.LVL437
 12314 1c2f 0100     		.2byte	0x1
 12315 1c31 51       		.byte	0x51
 12316 1c32 10000000 		.4byte	.LVL437
ARM GAS  /var/folders/7z/kps_xzfj7sn5l5gkyq8s9db00000gn/T//ccc38Eju.s 			page 219


 12317 1c36 28000000 		.4byte	.LFE189
 12318 1c3a 0400     		.2byte	0x4
 12319 1c3c F3       		.byte	0xf3
 12320 1c3d 01       		.uleb128 0x1
 12321 1c3e 51       		.byte	0x51
 12322 1c3f 9F       		.byte	0x9f
 12323 1c40 00000000 		.4byte	0
 12324 1c44 00000000 		.4byte	0
 12325              	.LLST176:
 12326 1c48 00000000 		.4byte	.LVL433
 12327 1c4c 08000000 		.4byte	.LVL435
 12328 1c50 0100     		.2byte	0x1
 12329 1c52 53       		.byte	0x53
 12330 1c53 08000000 		.4byte	.LVL435
 12331 1c57 28000000 		.4byte	.LFE189
 12332 1c5b 0400     		.2byte	0x4
 12333 1c5d F3       		.byte	0xf3
 12334 1c5e 01       		.uleb128 0x1
 12335 1c5f 53       		.byte	0x53
 12336 1c60 9F       		.byte	0x9f
 12337 1c61 00000000 		.4byte	0
 12338 1c65 00000000 		.4byte	0
 12339              	.LLST177:
 12340 1c69 00000000 		.4byte	.LVL433
 12341 1c6d 14000000 		.4byte	.LVL438
 12342 1c71 0200     		.2byte	0x2
 12343 1c73 30       		.byte	0x30
 12344 1c74 9F       		.byte	0x9f
 12345 1c75 14000000 		.4byte	.LVL438
 12346 1c79 1C000000 		.4byte	.LVL439
 12347 1c7d 0500     		.2byte	0x5
 12348 1c7f 73       		.byte	0x73
 12349 1c80 00       		.sleb128 0
 12350 1c81 37       		.byte	0x37
 12351 1c82 21       		.byte	0x21
 12352 1c83 9F       		.byte	0x9f
 12353 1c84 20000000 		.4byte	.LVL440
 12354 1c88 24000000 		.4byte	.LVL441
 12355 1c8c 0500     		.2byte	0x5
 12356 1c8e 73       		.byte	0x73
 12357 1c8f 00       		.sleb128 0
 12358 1c90 37       		.byte	0x37
 12359 1c91 21       		.byte	0x21
 12360 1c92 9F       		.byte	0x9f
 12361 1c93 24000000 		.4byte	.LVL441
 12362 1c97 28000000 		.4byte	.LFE189
 12363 1c9b 0100     		.2byte	0x1
 12364 1c9d 53       		.byte	0x53
 12365 1c9e 00000000 		.4byte	0
 12366 1ca2 00000000 		.4byte	0
 12367              	.LLST180:
 12368 1ca6 00000000 		.4byte	.LVL433
 12369 1caa 04000000 		.4byte	.LVL434
 12370 1cae 0200     		.2byte	0x2
 12371 1cb0 30       		.byte	0x30
 12372 1cb1 9F       		.byte	0x9f
 12373 1cb2 04000000 		.4byte	.LVL434
ARM GAS  /var/folders/7z/kps_xzfj7sn5l5gkyq8s9db00000gn/T//ccc38Eju.s 			page 220


 12374 1cb6 0A000000 		.4byte	.LVL436
 12375 1cba 0600     		.2byte	0x6
 12376 1cbc 74       		.byte	0x74
 12377 1cbd 00       		.sleb128 0
 12378 1cbe 08       		.byte	0x8
 12379 1cbf FF       		.byte	0xff
 12380 1cc0 1A       		.byte	0x1a
 12381 1cc1 9F       		.byte	0x9f
 12382 1cc2 10000000 		.4byte	.LVL437
 12383 1cc6 28000000 		.4byte	.LFE189
 12384 1cca 0100     		.2byte	0x1
 12385 1ccc 51       		.byte	0x51
 12386 1ccd 00000000 		.4byte	0
 12387 1cd1 00000000 		.4byte	0
 12388              	.LLST181:
 12389 1cd5 00000000 		.4byte	.LVL442
 12390 1cd9 10000000 		.4byte	.LVL446
 12391 1cdd 0100     		.2byte	0x1
 12392 1cdf 51       		.byte	0x51
 12393 1ce0 10000000 		.4byte	.LVL446
 12394 1ce4 22000000 		.4byte	.LFE190
 12395 1ce8 0400     		.2byte	0x4
 12396 1cea F3       		.byte	0xf3
 12397 1ceb 01       		.uleb128 0x1
 12398 1cec 51       		.byte	0x51
 12399 1ced 9F       		.byte	0x9f
 12400 1cee 00000000 		.4byte	0
 12401 1cf2 00000000 		.4byte	0
 12402              	.LLST182:
 12403 1cf6 00000000 		.4byte	.LVL442
 12404 1cfa 08000000 		.4byte	.LVL444
 12405 1cfe 0100     		.2byte	0x1
 12406 1d00 53       		.byte	0x53
 12407 1d01 08000000 		.4byte	.LVL444
 12408 1d05 22000000 		.4byte	.LFE190
 12409 1d09 0400     		.2byte	0x4
 12410 1d0b F3       		.byte	0xf3
 12411 1d0c 01       		.uleb128 0x1
 12412 1d0d 53       		.byte	0x53
 12413 1d0e 9F       		.byte	0x9f
 12414 1d0f 00000000 		.4byte	0
 12415 1d13 00000000 		.4byte	0
 12416              	.LLST185:
 12417 1d17 00000000 		.4byte	.LVL442
 12418 1d1b 04000000 		.4byte	.LVL443
 12419 1d1f 0200     		.2byte	0x2
 12420 1d21 30       		.byte	0x30
 12421 1d22 9F       		.byte	0x9f
 12422 1d23 04000000 		.4byte	.LVL443
 12423 1d27 0A000000 		.4byte	.LVL445
 12424 1d2b 0600     		.2byte	0x6
 12425 1d2d 74       		.byte	0x74
 12426 1d2e 00       		.sleb128 0
 12427 1d2f 08       		.byte	0x8
 12428 1d30 FF       		.byte	0xff
 12429 1d31 1A       		.byte	0x1a
 12430 1d32 9F       		.byte	0x9f
ARM GAS  /var/folders/7z/kps_xzfj7sn5l5gkyq8s9db00000gn/T//ccc38Eju.s 			page 221


 12431 1d33 10000000 		.4byte	.LVL446
 12432 1d37 22000000 		.4byte	.LFE190
 12433 1d3b 0100     		.2byte	0x1
 12434 1d3d 51       		.byte	0x51
 12435 1d3e 00000000 		.4byte	0
 12436 1d42 00000000 		.4byte	0
 12437              	.LLST186:
 12438 1d46 00000000 		.4byte	.LVL447
 12439 1d4a 0C000000 		.4byte	.LVL451
 12440 1d4e 0100     		.2byte	0x1
 12441 1d50 51       		.byte	0x51
 12442 1d51 0C000000 		.4byte	.LVL451
 12443 1d55 10000000 		.4byte	.LFE191
 12444 1d59 0400     		.2byte	0x4
 12445 1d5b F3       		.byte	0xf3
 12446 1d5c 01       		.uleb128 0x1
 12447 1d5d 51       		.byte	0x51
 12448 1d5e 9F       		.byte	0x9f
 12449 1d5f 00000000 		.4byte	0
 12450 1d63 00000000 		.4byte	0
 12451              	.LLST187:
 12452 1d67 00000000 		.4byte	.LVL447
 12453 1d6b 02000000 		.4byte	.LVL448
 12454 1d6f 0200     		.2byte	0x2
 12455 1d71 30       		.byte	0x30
 12456 1d72 9F       		.byte	0x9f
 12457 1d73 02000000 		.4byte	.LVL448
 12458 1d77 06000000 		.4byte	.LVL449
 12459 1d7b 0100     		.2byte	0x1
 12460 1d7d 53       		.byte	0x53
 12461 1d7e 0A000000 		.4byte	.LVL450
 12462 1d82 0C000000 		.4byte	.LVL451
 12463 1d86 0100     		.2byte	0x1
 12464 1d88 53       		.byte	0x53
 12465 1d89 0C000000 		.4byte	.LVL451
 12466 1d8d 10000000 		.4byte	.LFE191
 12467 1d91 0100     		.2byte	0x1
 12468 1d93 51       		.byte	0x51
 12469 1d94 00000000 		.4byte	0
 12470 1d98 00000000 		.4byte	0
 12471              	.LLST188:
 12472 1d9c 00000000 		.4byte	.LVL452
 12473 1da0 12000000 		.4byte	.LVL453
 12474 1da4 0100     		.2byte	0x1
 12475 1da6 51       		.byte	0x51
 12476 1da7 12000000 		.4byte	.LVL453
 12477 1dab 16000000 		.4byte	.LFE192
 12478 1daf 0400     		.2byte	0x4
 12479 1db1 F3       		.byte	0xf3
 12480 1db2 01       		.uleb128 0x1
 12481 1db3 51       		.byte	0x51
 12482 1db4 9F       		.byte	0x9f
 12483 1db5 00000000 		.4byte	0
 12484 1db9 00000000 		.4byte	0
 12485              	.LLST189:
 12486 1dbd 00000000 		.4byte	.LVL454
 12487 1dc1 12000000 		.4byte	.LVL455
ARM GAS  /var/folders/7z/kps_xzfj7sn5l5gkyq8s9db00000gn/T//ccc38Eju.s 			page 222


 12488 1dc5 0100     		.2byte	0x1
 12489 1dc7 51       		.byte	0x51
 12490 1dc8 12000000 		.4byte	.LVL455
 12491 1dcc 16000000 		.4byte	.LFE193
 12492 1dd0 0400     		.2byte	0x4
 12493 1dd2 F3       		.byte	0xf3
 12494 1dd3 01       		.uleb128 0x1
 12495 1dd4 51       		.byte	0x51
 12496 1dd5 9F       		.byte	0x9f
 12497 1dd6 00000000 		.4byte	0
 12498 1dda 00000000 		.4byte	0
 12499              	.LLST190:
 12500 1dde 00000000 		.4byte	.LVL456
 12501 1de2 12000000 		.4byte	.LVL457
 12502 1de6 0100     		.2byte	0x1
 12503 1de8 51       		.byte	0x51
 12504 1de9 12000000 		.4byte	.LVL457
 12505 1ded 16000000 		.4byte	.LFE194
 12506 1df1 0400     		.2byte	0x4
 12507 1df3 F3       		.byte	0xf3
 12508 1df4 01       		.uleb128 0x1
 12509 1df5 51       		.byte	0x51
 12510 1df6 9F       		.byte	0x9f
 12511 1df7 00000000 		.4byte	0
 12512 1dfb 00000000 		.4byte	0
 12513              	.LLST191:
 12514 1dff 00000000 		.4byte	.LVL458
 12515 1e03 08000000 		.4byte	.LVL461
 12516 1e07 0100     		.2byte	0x1
 12517 1e09 51       		.byte	0x51
 12518 1e0a 08000000 		.4byte	.LVL461
 12519 1e0e 18000000 		.4byte	.LFE195
 12520 1e12 0400     		.2byte	0x4
 12521 1e14 F3       		.byte	0xf3
 12522 1e15 01       		.uleb128 0x1
 12523 1e16 51       		.byte	0x51
 12524 1e17 9F       		.byte	0x9f
 12525 1e18 00000000 		.4byte	0
 12526 1e1c 00000000 		.4byte	0
 12527              	.LLST192:
 12528 1e20 00000000 		.4byte	.LVL458
 12529 1e24 0A000000 		.4byte	.LVL462
 12530 1e28 0100     		.2byte	0x1
 12531 1e2a 52       		.byte	0x52
 12532 1e2b 0A000000 		.4byte	.LVL462
 12533 1e2f 18000000 		.4byte	.LFE195
 12534 1e33 0400     		.2byte	0x4
 12535 1e35 F3       		.byte	0xf3
 12536 1e36 01       		.uleb128 0x1
 12537 1e37 52       		.byte	0x52
 12538 1e38 9F       		.byte	0x9f
 12539 1e39 00000000 		.4byte	0
 12540 1e3d 00000000 		.4byte	0
 12541              	.LLST193:
 12542 1e41 00000000 		.4byte	.LVL458
 12543 1e45 0E000000 		.4byte	.LVL463
 12544 1e49 0100     		.2byte	0x1
ARM GAS  /var/folders/7z/kps_xzfj7sn5l5gkyq8s9db00000gn/T//ccc38Eju.s 			page 223


 12545 1e4b 53       		.byte	0x53
 12546 1e4c 0E000000 		.4byte	.LVL463
 12547 1e50 18000000 		.4byte	.LFE195
 12548 1e54 0400     		.2byte	0x4
 12549 1e56 F3       		.byte	0xf3
 12550 1e57 01       		.uleb128 0x1
 12551 1e58 53       		.byte	0x53
 12552 1e59 9F       		.byte	0x9f
 12553 1e5a 00000000 		.4byte	0
 12554 1e5e 00000000 		.4byte	0
 12555              	.LLST194:
 12556 1e62 00000000 		.4byte	.LVL458
 12557 1e66 04000000 		.4byte	.LVL459
 12558 1e6a 0200     		.2byte	0x2
 12559 1e6c 30       		.byte	0x30
 12560 1e6d 9F       		.byte	0x9f
 12561 1e6e 04000000 		.4byte	.LVL459
 12562 1e72 06000000 		.4byte	.LVL460
 12563 1e76 0600     		.2byte	0x6
 12564 1e78 74       		.byte	0x74
 12565 1e79 00       		.sleb128 0
 12566 1e7a 08       		.byte	0x8
 12567 1e7b FF       		.byte	0xff
 12568 1e7c 1A       		.byte	0x1a
 12569 1e7d 9F       		.byte	0x9f
 12570 1e7e 10000000 		.4byte	.LVL464
 12571 1e82 18000000 		.4byte	.LFE195
 12572 1e86 0100     		.2byte	0x1
 12573 1e88 51       		.byte	0x51
 12574 1e89 00000000 		.4byte	0
 12575 1e8d 00000000 		.4byte	0
 12576              	.LLST195:
 12577 1e91 00000000 		.4byte	.LVL465
 12578 1e95 2E000000 		.4byte	.LVL475
 12579 1e99 0100     		.2byte	0x1
 12580 1e9b 51       		.byte	0x51
 12581 1e9c 2E000000 		.4byte	.LVL475
 12582 1ea0 3E000000 		.4byte	.LFE196
 12583 1ea4 0400     		.2byte	0x4
 12584 1ea6 F3       		.byte	0xf3
 12585 1ea7 01       		.uleb128 0x1
 12586 1ea8 51       		.byte	0x51
 12587 1ea9 9F       		.byte	0x9f
 12588 1eaa 00000000 		.4byte	0
 12589 1eae 00000000 		.4byte	0
 12590              	.LLST196:
 12591 1eb2 00000000 		.4byte	.LVL465
 12592 1eb6 1E000000 		.4byte	.LVL472
 12593 1eba 0100     		.2byte	0x1
 12594 1ebc 52       		.byte	0x52
 12595 1ebd 1E000000 		.4byte	.LVL472
 12596 1ec1 3E000000 		.4byte	.LFE196
 12597 1ec5 0400     		.2byte	0x4
 12598 1ec7 F3       		.byte	0xf3
 12599 1ec8 01       		.uleb128 0x1
 12600 1ec9 52       		.byte	0x52
 12601 1eca 9F       		.byte	0x9f
ARM GAS  /var/folders/7z/kps_xzfj7sn5l5gkyq8s9db00000gn/T//ccc38Eju.s 			page 224


 12602 1ecb 00000000 		.4byte	0
 12603 1ecf 00000000 		.4byte	0
 12604              	.LLST197:
 12605 1ed3 00000000 		.4byte	.LVL465
 12606 1ed7 2C000000 		.4byte	.LVL474
 12607 1edb 0100     		.2byte	0x1
 12608 1edd 53       		.byte	0x53
 12609 1ede 2C000000 		.4byte	.LVL474
 12610 1ee2 3E000000 		.4byte	.LFE196
 12611 1ee6 0400     		.2byte	0x4
 12612 1ee8 F3       		.byte	0xf3
 12613 1ee9 01       		.uleb128 0x1
 12614 1eea 53       		.byte	0x53
 12615 1eeb 9F       		.byte	0x9f
 12616 1eec 00000000 		.4byte	0
 12617 1ef0 00000000 		.4byte	0
 12618              	.LLST198:
 12619 1ef4 00000000 		.4byte	.LVL465
 12620 1ef8 04000000 		.4byte	.LVL466
 12621 1efc 0200     		.2byte	0x2
 12622 1efe 30       		.byte	0x30
 12623 1eff 9F       		.byte	0x9f
 12624 1f00 04000000 		.4byte	.LVL466
 12625 1f04 1A000000 		.4byte	.LVL471
 12626 1f08 0100     		.2byte	0x1
 12627 1f0a 56       		.byte	0x56
 12628 1f0b 24000000 		.4byte	.LVL473
 12629 1f0f 2E000000 		.4byte	.LVL475
 12630 1f13 0100     		.2byte	0x1
 12631 1f15 56       		.byte	0x56
 12632 1f16 2E000000 		.4byte	.LVL475
 12633 1f1a 3E000000 		.4byte	.LFE196
 12634 1f1e 0100     		.2byte	0x1
 12635 1f20 51       		.byte	0x51
 12636 1f21 00000000 		.4byte	0
 12637 1f25 00000000 		.4byte	0
 12638              	.LLST199:
 12639 1f29 00000000 		.4byte	.LVL465
 12640 1f2d 06000000 		.4byte	.LVL467
 12641 1f31 0200     		.2byte	0x2
 12642 1f33 30       		.byte	0x30
 12643 1f34 9F       		.byte	0x9f
 12644 1f35 06000000 		.4byte	.LVL467
 12645 1f39 0C000000 		.4byte	.LVL468
 12646 1f3d 0100     		.2byte	0x1
 12647 1f3f 54       		.byte	0x54
 12648 1f40 32000000 		.4byte	.LVL476
 12649 1f44 3C000000 		.4byte	.LVL478
 12650 1f48 0100     		.2byte	0x1
 12651 1f4a 54       		.byte	0x54
 12652 1f4b 00000000 		.4byte	0
 12653 1f4f 00000000 		.4byte	0
 12654              	.LLST200:
 12655 1f53 00000000 		.4byte	.LVL465
 12656 1f57 12000000 		.4byte	.LVL469
 12657 1f5b 0200     		.2byte	0x2
 12658 1f5d 30       		.byte	0x30
ARM GAS  /var/folders/7z/kps_xzfj7sn5l5gkyq8s9db00000gn/T//ccc38Eju.s 			page 225


 12659 1f5e 9F       		.byte	0x9f
 12660 1f5f 12000000 		.4byte	.LVL469
 12661 1f63 16000000 		.4byte	.LVL470
 12662 1f67 0100     		.2byte	0x1
 12663 1f69 55       		.byte	0x55
 12664 1f6a 34000000 		.4byte	.LVL477
 12665 1f6e 3E000000 		.4byte	.LFE196
 12666 1f72 0100     		.2byte	0x1
 12667 1f74 52       		.byte	0x52
 12668 1f75 00000000 		.4byte	0
 12669 1f79 00000000 		.4byte	0
 12670              		.section	.debug_aranges,"",%progbits
 12671 0000 D4020000 		.4byte	0x2d4
 12672 0004 0200     		.2byte	0x2
 12673 0006 00000000 		.4byte	.Ldebug_info0
 12674 000a 04       		.byte	0x4
 12675 000b 00       		.byte	0
 12676 000c 0000     		.2byte	0
 12677 000e 0000     		.2byte	0
 12678 0010 00000000 		.4byte	.LFB111
 12679 0014 B8010000 		.4byte	.LFE111-.LFB111
 12680 0018 00000000 		.4byte	.LFB112
 12681 001c 98000000 		.4byte	.LFE112-.LFB112
 12682 0020 00000000 		.4byte	.LFB113
 12683 0024 12000000 		.4byte	.LFE113-.LFB113
 12684 0028 00000000 		.4byte	.LFB114
 12685 002c 06000000 		.4byte	.LFE114-.LFB114
 12686 0030 00000000 		.4byte	.LFB115
 12687 0034 10000000 		.4byte	.LFE115-.LFB115
 12688 0038 00000000 		.4byte	.LFB116
 12689 003c 04000000 		.4byte	.LFE116-.LFB116
 12690 0040 00000000 		.4byte	.LFB117
 12691 0044 04000000 		.4byte	.LFE117-.LFB117
 12692 0048 00000000 		.4byte	.LFB118
 12693 004c 04000000 		.4byte	.LFE118-.LFB118
 12694 0050 00000000 		.4byte	.LFB119
 12695 0054 06000000 		.4byte	.LFE119-.LFB119
 12696 0058 00000000 		.4byte	.LFB120
 12697 005c 1A000000 		.4byte	.LFE120-.LFB120
 12698 0060 00000000 		.4byte	.LFB121
 12699 0064 1A000000 		.4byte	.LFE121-.LFB121
 12700 0068 00000000 		.4byte	.LFB122
 12701 006c 1A000000 		.4byte	.LFE122-.LFB122
 12702 0070 00000000 		.4byte	.LFB123
 12703 0074 16000000 		.4byte	.LFE123-.LFB123
 12704 0078 00000000 		.4byte	.LFB124
 12705 007c 16000000 		.4byte	.LFE124-.LFB124
 12706 0080 00000000 		.4byte	.LFB125
 12707 0084 1A000000 		.4byte	.LFE125-.LFB125
 12708 0088 00000000 		.4byte	.LFB126
 12709 008c 84000000 		.4byte	.LFE126-.LFB126
 12710 0090 00000000 		.4byte	.LFB127
 12711 0094 90000000 		.4byte	.LFE127-.LFB127
 12712 0098 00000000 		.4byte	.LFB128
 12713 009c 90000000 		.4byte	.LFE128-.LFB128
 12714 00a0 00000000 		.4byte	.LFB129
 12715 00a4 74000000 		.4byte	.LFE129-.LFB129
ARM GAS  /var/folders/7z/kps_xzfj7sn5l5gkyq8s9db00000gn/T//ccc38Eju.s 			page 226


 12716 00a8 00000000 		.4byte	.LFB130
 12717 00ac 14000000 		.4byte	.LFE130-.LFB130
 12718 00b0 00000000 		.4byte	.LFB131
 12719 00b4 50000000 		.4byte	.LFE131-.LFB131
 12720 00b8 00000000 		.4byte	.LFB132
 12721 00bc 04000000 		.4byte	.LFE132-.LFB132
 12722 00c0 00000000 		.4byte	.LFB133
 12723 00c4 04000000 		.4byte	.LFE133-.LFB133
 12724 00c8 00000000 		.4byte	.LFB134
 12725 00cc 04000000 		.4byte	.LFE134-.LFB134
 12726 00d0 00000000 		.4byte	.LFB135
 12727 00d4 04000000 		.4byte	.LFE135-.LFB135
 12728 00d8 00000000 		.4byte	.LFB136
 12729 00dc 10000000 		.4byte	.LFE136-.LFB136
 12730 00e0 00000000 		.4byte	.LFB137
 12731 00e4 14000000 		.4byte	.LFE137-.LFB137
 12732 00e8 00000000 		.4byte	.LFB138
 12733 00ec 10000000 		.4byte	.LFE138-.LFB138
 12734 00f0 00000000 		.4byte	.LFB139
 12735 00f4 14000000 		.4byte	.LFE139-.LFB139
 12736 00f8 00000000 		.4byte	.LFB140
 12737 00fc 10000000 		.4byte	.LFE140-.LFB140
 12738 0100 00000000 		.4byte	.LFB141
 12739 0104 14000000 		.4byte	.LFE141-.LFB141
 12740 0108 00000000 		.4byte	.LFB142
 12741 010c 10000000 		.4byte	.LFE142-.LFB142
 12742 0110 00000000 		.4byte	.LFB143
 12743 0114 14000000 		.4byte	.LFE143-.LFB143
 12744 0118 00000000 		.4byte	.LFB144
 12745 011c 10000000 		.4byte	.LFE144-.LFB144
 12746 0120 00000000 		.4byte	.LFB145
 12747 0124 14000000 		.4byte	.LFE145-.LFB145
 12748 0128 00000000 		.4byte	.LFB146
 12749 012c 10000000 		.4byte	.LFE146-.LFB146
 12750 0130 00000000 		.4byte	.LFB147
 12751 0134 14000000 		.4byte	.LFE147-.LFB147
 12752 0138 00000000 		.4byte	.LFB148
 12753 013c 10000000 		.4byte	.LFE148-.LFB148
 12754 0140 00000000 		.4byte	.LFB149
 12755 0144 10000000 		.4byte	.LFE149-.LFB149
 12756 0148 00000000 		.4byte	.LFB150
 12757 014c 10000000 		.4byte	.LFE150-.LFB150
 12758 0150 00000000 		.4byte	.LFB151
 12759 0154 10000000 		.4byte	.LFE151-.LFB151
 12760 0158 00000000 		.4byte	.LFB152
 12761 015c 10000000 		.4byte	.LFE152-.LFB152
 12762 0160 00000000 		.4byte	.LFB153
 12763 0164 10000000 		.4byte	.LFE153-.LFB153
 12764 0168 00000000 		.4byte	.LFB154
 12765 016c 14000000 		.4byte	.LFE154-.LFB154
 12766 0170 00000000 		.4byte	.LFB155
 12767 0174 14000000 		.4byte	.LFE155-.LFB155
 12768 0178 00000000 		.4byte	.LFB156
 12769 017c 14000000 		.4byte	.LFE156-.LFB156
 12770 0180 00000000 		.4byte	.LFB157
 12771 0184 14000000 		.4byte	.LFE157-.LFB157
 12772 0188 00000000 		.4byte	.LFB158
ARM GAS  /var/folders/7z/kps_xzfj7sn5l5gkyq8s9db00000gn/T//ccc38Eju.s 			page 227


 12773 018c 14000000 		.4byte	.LFE158-.LFB158
 12774 0190 00000000 		.4byte	.LFB159
 12775 0194 20000000 		.4byte	.LFE159-.LFB159
 12776 0198 00000000 		.4byte	.LFB160
 12777 019c 20000000 		.4byte	.LFE160-.LFB160
 12778 01a0 00000000 		.4byte	.LFB161
 12779 01a4 68010000 		.4byte	.LFE161-.LFB161
 12780 01a8 00000000 		.4byte	.LFB162
 12781 01ac 10000000 		.4byte	.LFE162-.LFB162
 12782 01b0 00000000 		.4byte	.LFB163
 12783 01b4 56010000 		.4byte	.LFE163-.LFB163
 12784 01b8 00000000 		.4byte	.LFB164
 12785 01bc 04000000 		.4byte	.LFE164-.LFB164
 12786 01c0 00000000 		.4byte	.LFB165
 12787 01c4 04000000 		.4byte	.LFE165-.LFB165
 12788 01c8 00000000 		.4byte	.LFB166
 12789 01cc 04000000 		.4byte	.LFE166-.LFB166
 12790 01d0 00000000 		.4byte	.LFB167
 12791 01d4 04000000 		.4byte	.LFE167-.LFB167
 12792 01d8 00000000 		.4byte	.LFB168
 12793 01dc 16000000 		.4byte	.LFE168-.LFB168
 12794 01e0 00000000 		.4byte	.LFB169
 12795 01e4 1A000000 		.4byte	.LFE169-.LFB169
 12796 01e8 00000000 		.4byte	.LFB170
 12797 01ec 16000000 		.4byte	.LFE170-.LFB170
 12798 01f0 00000000 		.4byte	.LFB171
 12799 01f4 1A000000 		.4byte	.LFE171-.LFB171
 12800 01f8 00000000 		.4byte	.LFB172
 12801 01fc 28000000 		.4byte	.LFE172-.LFB172
 12802 0200 00000000 		.4byte	.LFB173
 12803 0204 12000000 		.4byte	.LFE173-.LFB173
 12804 0208 00000000 		.4byte	.LFB174
 12805 020c 20000000 		.4byte	.LFE174-.LFB174
 12806 0210 00000000 		.4byte	.LFB175
 12807 0214 1A000000 		.4byte	.LFE175-.LFB175
 12808 0218 00000000 		.4byte	.LFB176
 12809 021c 1A000000 		.4byte	.LFE176-.LFB176
 12810 0220 00000000 		.4byte	.LFB177
 12811 0224 14000000 		.4byte	.LFE177-.LFB177
 12812 0228 00000000 		.4byte	.LFB178
 12813 022c 04000000 		.4byte	.LFE178-.LFB178
 12814 0230 00000000 		.4byte	.LFB179
 12815 0234 0C000000 		.4byte	.LFE179-.LFB179
 12816 0238 00000000 		.4byte	.LFB180
 12817 023c 08000000 		.4byte	.LFE180-.LFB180
 12818 0240 00000000 		.4byte	.LFB181
 12819 0244 16000000 		.4byte	.LFE181-.LFB181
 12820 0248 00000000 		.4byte	.LFB182
 12821 024c 08000000 		.4byte	.LFE182-.LFB182
 12822 0250 00000000 		.4byte	.LFB183
 12823 0254 08000000 		.4byte	.LFE183-.LFB183
 12824 0258 00000000 		.4byte	.LFB184
 12825 025c 14000000 		.4byte	.LFE184-.LFB184
 12826 0260 00000000 		.4byte	.LFB185
 12827 0264 1A000000 		.4byte	.LFE185-.LFB185
 12828 0268 00000000 		.4byte	.LFB186
 12829 026c 0E000000 		.4byte	.LFE186-.LFB186
ARM GAS  /var/folders/7z/kps_xzfj7sn5l5gkyq8s9db00000gn/T//ccc38Eju.s 			page 228


 12830 0270 00000000 		.4byte	.LFB187
 12831 0274 1A000000 		.4byte	.LFE187-.LFB187
 12832 0278 00000000 		.4byte	.LFB188
 12833 027c 88000000 		.4byte	.LFE188-.LFB188
 12834 0280 00000000 		.4byte	.LFB189
 12835 0284 28000000 		.4byte	.LFE189-.LFB189
 12836 0288 00000000 		.4byte	.LFB190
 12837 028c 22000000 		.4byte	.LFE190-.LFB190
 12838 0290 00000000 		.4byte	.LFB191
 12839 0294 10000000 		.4byte	.LFE191-.LFB191
 12840 0298 00000000 		.4byte	.LFB192
 12841 029c 16000000 		.4byte	.LFE192-.LFB192
 12842 02a0 00000000 		.4byte	.LFB193
 12843 02a4 16000000 		.4byte	.LFE193-.LFB193
 12844 02a8 00000000 		.4byte	.LFB194
 12845 02ac 16000000 		.4byte	.LFE194-.LFB194
 12846 02b0 00000000 		.4byte	.LFB195
 12847 02b4 18000000 		.4byte	.LFE195-.LFB195
 12848 02b8 00000000 		.4byte	.LFB196
 12849 02bc 3E000000 		.4byte	.LFE196-.LFB196
 12850 02c0 00000000 		.4byte	.LFB197
 12851 02c4 1A000000 		.4byte	.LFE197-.LFB197
 12852 02c8 00000000 		.4byte	.LFB198
 12853 02cc 06000000 		.4byte	.LFE198-.LFB198
 12854 02d0 00000000 		.4byte	0
 12855 02d4 00000000 		.4byte	0
 12856              		.section	.debug_ranges,"",%progbits
 12857              	.Ldebug_ranges0:
 12858 0000 12000000 		.4byte	.LBB46
 12859 0004 14000000 		.4byte	.LBE46
 12860 0008 1E000000 		.4byte	.LBB49
 12861 000c 54000000 		.4byte	.LBE49
 12862 0010 00000000 		.4byte	0
 12863 0014 00000000 		.4byte	0
 12864 0018 6E000000 		.4byte	.LBB52
 12865 001c 70000000 		.4byte	.LBE52
 12866 0020 78000000 		.4byte	.LBB55
 12867 0024 A6000000 		.4byte	.LBE55
 12868 0028 00000000 		.4byte	0
 12869 002c 00000000 		.4byte	0
 12870 0030 BC000000 		.4byte	.LBB58
 12871 0034 BE000000 		.4byte	.LBE58
 12872 0038 C8000000 		.4byte	.LBB61
 12873 003c FE000000 		.4byte	.LBE61
 12874 0040 00000000 		.4byte	0
 12875 0044 00000000 		.4byte	0
 12876 0048 18010000 		.4byte	.LBB64
 12877 004c 1A010000 		.4byte	.LBE64
 12878 0050 22010000 		.4byte	.LBB67
 12879 0054 52010000 		.4byte	.LBE67
 12880 0058 00000000 		.4byte	0
 12881 005c 00000000 		.4byte	0
 12882 0060 24000000 		.4byte	.LBB70
 12883 0064 26000000 		.4byte	.LBE70
 12884 0068 2A000000 		.4byte	.LBB73
 12885 006c 60000000 		.4byte	.LBE73
 12886 0070 00000000 		.4byte	0
ARM GAS  /var/folders/7z/kps_xzfj7sn5l5gkyq8s9db00000gn/T//ccc38Eju.s 			page 229


 12887 0074 00000000 		.4byte	0
 12888 0078 BC000000 		.4byte	.LBB80
 12889 007c BE000000 		.4byte	.LBE80
 12890 0080 C2000000 		.4byte	.LBB83
 12891 0084 F4000000 		.4byte	.LBE83
 12892 0088 00000000 		.4byte	0
 12893 008c 00000000 		.4byte	0
 12894 0090 04000000 		.4byte	.LBB92
 12895 0094 06000000 		.4byte	.LBE92
 12896 0098 52000000 		.4byte	.LBB99
 12897 009c 88000000 		.4byte	.LBE99
 12898 00a0 00000000 		.4byte	0
 12899 00a4 00000000 		.4byte	0
 12900 00a8 00000000 		.4byte	.LFB111
 12901 00ac B8010000 		.4byte	.LFE111
 12902 00b0 00000000 		.4byte	.LFB112
 12903 00b4 98000000 		.4byte	.LFE112
 12904 00b8 00000000 		.4byte	.LFB113
 12905 00bc 12000000 		.4byte	.LFE113
 12906 00c0 00000000 		.4byte	.LFB114
 12907 00c4 06000000 		.4byte	.LFE114
 12908 00c8 00000000 		.4byte	.LFB115
 12909 00cc 10000000 		.4byte	.LFE115
 12910 00d0 00000000 		.4byte	.LFB116
 12911 00d4 04000000 		.4byte	.LFE116
 12912 00d8 00000000 		.4byte	.LFB117
 12913 00dc 04000000 		.4byte	.LFE117
 12914 00e0 00000000 		.4byte	.LFB118
 12915 00e4 04000000 		.4byte	.LFE118
 12916 00e8 00000000 		.4byte	.LFB119
 12917 00ec 06000000 		.4byte	.LFE119
 12918 00f0 00000000 		.4byte	.LFB120
 12919 00f4 1A000000 		.4byte	.LFE120
 12920 00f8 00000000 		.4byte	.LFB121
 12921 00fc 1A000000 		.4byte	.LFE121
 12922 0100 00000000 		.4byte	.LFB122
 12923 0104 1A000000 		.4byte	.LFE122
 12924 0108 00000000 		.4byte	.LFB123
 12925 010c 16000000 		.4byte	.LFE123
 12926 0110 00000000 		.4byte	.LFB124
 12927 0114 16000000 		.4byte	.LFE124
 12928 0118 00000000 		.4byte	.LFB125
 12929 011c 1A000000 		.4byte	.LFE125
 12930 0120 00000000 		.4byte	.LFB126
 12931 0124 84000000 		.4byte	.LFE126
 12932 0128 00000000 		.4byte	.LFB127
 12933 012c 90000000 		.4byte	.LFE127
 12934 0130 00000000 		.4byte	.LFB128
 12935 0134 90000000 		.4byte	.LFE128
 12936 0138 00000000 		.4byte	.LFB129
 12937 013c 74000000 		.4byte	.LFE129
 12938 0140 00000000 		.4byte	.LFB130
 12939 0144 14000000 		.4byte	.LFE130
 12940 0148 00000000 		.4byte	.LFB131
 12941 014c 50000000 		.4byte	.LFE131
 12942 0150 00000000 		.4byte	.LFB132
 12943 0154 04000000 		.4byte	.LFE132
ARM GAS  /var/folders/7z/kps_xzfj7sn5l5gkyq8s9db00000gn/T//ccc38Eju.s 			page 230


 12944 0158 00000000 		.4byte	.LFB133
 12945 015c 04000000 		.4byte	.LFE133
 12946 0160 00000000 		.4byte	.LFB134
 12947 0164 04000000 		.4byte	.LFE134
 12948 0168 00000000 		.4byte	.LFB135
 12949 016c 04000000 		.4byte	.LFE135
 12950 0170 00000000 		.4byte	.LFB136
 12951 0174 10000000 		.4byte	.LFE136
 12952 0178 00000000 		.4byte	.LFB137
 12953 017c 14000000 		.4byte	.LFE137
 12954 0180 00000000 		.4byte	.LFB138
 12955 0184 10000000 		.4byte	.LFE138
 12956 0188 00000000 		.4byte	.LFB139
 12957 018c 14000000 		.4byte	.LFE139
 12958 0190 00000000 		.4byte	.LFB140
 12959 0194 10000000 		.4byte	.LFE140
 12960 0198 00000000 		.4byte	.LFB141
 12961 019c 14000000 		.4byte	.LFE141
 12962 01a0 00000000 		.4byte	.LFB142
 12963 01a4 10000000 		.4byte	.LFE142
 12964 01a8 00000000 		.4byte	.LFB143
 12965 01ac 14000000 		.4byte	.LFE143
 12966 01b0 00000000 		.4byte	.LFB144
 12967 01b4 10000000 		.4byte	.LFE144
 12968 01b8 00000000 		.4byte	.LFB145
 12969 01bc 14000000 		.4byte	.LFE145
 12970 01c0 00000000 		.4byte	.LFB146
 12971 01c4 10000000 		.4byte	.LFE146
 12972 01c8 00000000 		.4byte	.LFB147
 12973 01cc 14000000 		.4byte	.LFE147
 12974 01d0 00000000 		.4byte	.LFB148
 12975 01d4 10000000 		.4byte	.LFE148
 12976 01d8 00000000 		.4byte	.LFB149
 12977 01dc 10000000 		.4byte	.LFE149
 12978 01e0 00000000 		.4byte	.LFB150
 12979 01e4 10000000 		.4byte	.LFE150
 12980 01e8 00000000 		.4byte	.LFB151
 12981 01ec 10000000 		.4byte	.LFE151
 12982 01f0 00000000 		.4byte	.LFB152
 12983 01f4 10000000 		.4byte	.LFE152
 12984 01f8 00000000 		.4byte	.LFB153
 12985 01fc 10000000 		.4byte	.LFE153
 12986 0200 00000000 		.4byte	.LFB154
 12987 0204 14000000 		.4byte	.LFE154
 12988 0208 00000000 		.4byte	.LFB155
 12989 020c 14000000 		.4byte	.LFE155
 12990 0210 00000000 		.4byte	.LFB156
 12991 0214 14000000 		.4byte	.LFE156
 12992 0218 00000000 		.4byte	.LFB157
 12993 021c 14000000 		.4byte	.LFE157
 12994 0220 00000000 		.4byte	.LFB158
 12995 0224 14000000 		.4byte	.LFE158
 12996 0228 00000000 		.4byte	.LFB159
 12997 022c 20000000 		.4byte	.LFE159
 12998 0230 00000000 		.4byte	.LFB160
 12999 0234 20000000 		.4byte	.LFE160
 13000 0238 00000000 		.4byte	.LFB161
ARM GAS  /var/folders/7z/kps_xzfj7sn5l5gkyq8s9db00000gn/T//ccc38Eju.s 			page 231


 13001 023c 68010000 		.4byte	.LFE161
 13002 0240 00000000 		.4byte	.LFB162
 13003 0244 10000000 		.4byte	.LFE162
 13004 0248 00000000 		.4byte	.LFB163
 13005 024c 56010000 		.4byte	.LFE163
 13006 0250 00000000 		.4byte	.LFB164
 13007 0254 04000000 		.4byte	.LFE164
 13008 0258 00000000 		.4byte	.LFB165
 13009 025c 04000000 		.4byte	.LFE165
 13010 0260 00000000 		.4byte	.LFB166
 13011 0264 04000000 		.4byte	.LFE166
 13012 0268 00000000 		.4byte	.LFB167
 13013 026c 04000000 		.4byte	.LFE167
 13014 0270 00000000 		.4byte	.LFB168
 13015 0274 16000000 		.4byte	.LFE168
 13016 0278 00000000 		.4byte	.LFB169
 13017 027c 1A000000 		.4byte	.LFE169
 13018 0280 00000000 		.4byte	.LFB170
 13019 0284 16000000 		.4byte	.LFE170
 13020 0288 00000000 		.4byte	.LFB171
 13021 028c 1A000000 		.4byte	.LFE171
 13022 0290 00000000 		.4byte	.LFB172
 13023 0294 28000000 		.4byte	.LFE172
 13024 0298 00000000 		.4byte	.LFB173
 13025 029c 12000000 		.4byte	.LFE173
 13026 02a0 00000000 		.4byte	.LFB174
 13027 02a4 20000000 		.4byte	.LFE174
 13028 02a8 00000000 		.4byte	.LFB175
 13029 02ac 1A000000 		.4byte	.LFE175
 13030 02b0 00000000 		.4byte	.LFB176
 13031 02b4 1A000000 		.4byte	.LFE176
 13032 02b8 00000000 		.4byte	.LFB177
 13033 02bc 14000000 		.4byte	.LFE177
 13034 02c0 00000000 		.4byte	.LFB178
 13035 02c4 04000000 		.4byte	.LFE178
 13036 02c8 00000000 		.4byte	.LFB179
 13037 02cc 0C000000 		.4byte	.LFE179
 13038 02d0 00000000 		.4byte	.LFB180
 13039 02d4 08000000 		.4byte	.LFE180
 13040 02d8 00000000 		.4byte	.LFB181
 13041 02dc 16000000 		.4byte	.LFE181
 13042 02e0 00000000 		.4byte	.LFB182
 13043 02e4 08000000 		.4byte	.LFE182
 13044 02e8 00000000 		.4byte	.LFB183
 13045 02ec 08000000 		.4byte	.LFE183
 13046 02f0 00000000 		.4byte	.LFB184
 13047 02f4 14000000 		.4byte	.LFE184
 13048 02f8 00000000 		.4byte	.LFB185
 13049 02fc 1A000000 		.4byte	.LFE185
 13050 0300 00000000 		.4byte	.LFB186
 13051 0304 0E000000 		.4byte	.LFE186
 13052 0308 00000000 		.4byte	.LFB187
 13053 030c 1A000000 		.4byte	.LFE187
 13054 0310 00000000 		.4byte	.LFB188
 13055 0314 88000000 		.4byte	.LFE188
 13056 0318 00000000 		.4byte	.LFB189
 13057 031c 28000000 		.4byte	.LFE189
ARM GAS  /var/folders/7z/kps_xzfj7sn5l5gkyq8s9db00000gn/T//ccc38Eju.s 			page 232


 13058 0320 00000000 		.4byte	.LFB190
 13059 0324 22000000 		.4byte	.LFE190
 13060 0328 00000000 		.4byte	.LFB191
 13061 032c 10000000 		.4byte	.LFE191
 13062 0330 00000000 		.4byte	.LFB192
 13063 0334 16000000 		.4byte	.LFE192
 13064 0338 00000000 		.4byte	.LFB193
 13065 033c 16000000 		.4byte	.LFE193
 13066 0340 00000000 		.4byte	.LFB194
 13067 0344 16000000 		.4byte	.LFE194
 13068 0348 00000000 		.4byte	.LFB195
 13069 034c 18000000 		.4byte	.LFE195
 13070 0350 00000000 		.4byte	.LFB196
 13071 0354 3E000000 		.4byte	.LFE196
 13072 0358 00000000 		.4byte	.LFB197
 13073 035c 1A000000 		.4byte	.LFE197
 13074 0360 00000000 		.4byte	.LFB198
 13075 0364 06000000 		.4byte	.LFE198
 13076 0368 00000000 		.4byte	0
 13077 036c 00000000 		.4byte	0
 13078              		.section	.debug_line,"",%progbits
 13079              	.Ldebug_line0:
 13080 0000 090C0000 		.section	.debug_str,"MS",%progbits,1
 13080      0200B701 
 13080      00000201 
 13080      FB0E0D00 
 13080      01010101 
 13081              	.LASF121:
 13082 0000 54494D5F 		.ascii	"TIM_OPMode\000"
 13082      4F504D6F 
 13082      646500
 13083              	.LASF116:
 13084 000b 4E657753 		.ascii	"NewState\000"
 13084      74617465 
 13084      00
 13085              	.LASF145:
 13086 0014 54494D5F 		.ascii	"TIM_ForcedOC2Config\000"
 13086      466F7263 
 13086      65644F43 
 13086      32436F6E 
 13086      66696700 
 13087              	.LASF120:
 13088 0028 54494D5F 		.ascii	"TIM_SelectOnePulseMode\000"
 13088      53656C65 
 13088      63744F6E 
 13088      6550756C 
 13088      73654D6F 
 13089              	.LASF205:
 13090 003f 54494D5F 		.ascii	"TIM_DMACmd\000"
 13090      444D4143 
 13090      6D6400
 13091              	.LASF28:
 13092 004a 44494552 		.ascii	"DIER\000"
 13092      00
 13093              	.LASF144:
 13094 004f 54494D5F 		.ascii	"TIM_ForcedAction\000"
 13094      466F7263 
ARM GAS  /var/folders/7z/kps_xzfj7sn5l5gkyq8s9db00000gn/T//ccc38Eju.s 			page 233


 13094      65644163 
 13094      74696F6E 
 13094      00
 13095              	.LASF94:
 13096 0060 54494D5F 		.ascii	"TIM_InputTriggerSource\000"
 13096      496E7075 
 13096      74547269 
 13096      67676572 
 13096      536F7572 
 13097              	.LASF216:
 13098 0077 54494D5F 		.ascii	"TIM_TRGOSource\000"
 13098      5452474F 
 13098      536F7572 
 13098      636500
 13099              	.LASF52:
 13100 0086 54494D5F 		.ascii	"TIM_CounterMode\000"
 13100      436F756E 
 13100      7465724D 
 13100      6F646500 
 13101              	.LASF112:
 13102 0096 4175746F 		.ascii	"Autoreload\000"
 13102      72656C6F 
 13102      616400
 13103              	.LASF147:
 13104 00a1 54494D5F 		.ascii	"TIM_ForcedOC4Config\000"
 13104      466F7263 
 13104      65644F43 
 13104      34436F6E 
 13104      66696700 
 13105              	.LASF158:
 13106 00b5 54494D5F 		.ascii	"TIM_ClearOC1Ref\000"
 13106      436C6561 
 13106      724F4331 
 13106      52656600 
 13107              	.LASF19:
 13108 00c5 466C6167 		.ascii	"FlagStatus\000"
 13108      53746174 
 13108      757300
 13109              	.LASF3:
 13110 00d0 5F5F7569 		.ascii	"__uint8_t\000"
 13110      6E74385F 
 13110      7400
 13111              	.LASF195:
 13112 00da 54494D5F 		.ascii	"TIM_FLAG\000"
 13112      464C4147 
 13112      00
 13113              	.LASF136:
 13114 00e3 436F6D70 		.ascii	"Compare1\000"
 13114      61726531 
 13114      00
 13115              	.LASF135:
 13116 00ec 54494D5F 		.ascii	"TIM_SetCompare1\000"
 13116      53657443 
 13116      6F6D7061 
 13116      72653100 
 13117              	.LASF224:
 13118 00fc 54494D5F 		.ascii	"TIM_IC2Polarity\000"
ARM GAS  /var/folders/7z/kps_xzfj7sn5l5gkyq8s9db00000gn/T//ccc38Eju.s 			page 234


 13118      49433250 
 13118      6F6C6172 
 13118      69747900 
 13119              	.LASF115:
 13120 010c 54494D5F 		.ascii	"TIM_UpdateDisableConfig\000"
 13120      55706461 
 13120      74654469 
 13120      7361626C 
 13120      65436F6E 
 13121              	.LASF140:
 13122 0124 436F6D70 		.ascii	"Compare3\000"
 13122      61726533 
 13122      00
 13123              	.LASF60:
 13124 012d 54494D5F 		.ascii	"TIM_Pulse\000"
 13124      50756C73 
 13124      6500
 13125              	.LASF228:
 13126 0137 5243435F 		.ascii	"RCC_APB1PeriphResetCmd\000"
 13126      41504231 
 13126      50657269 
 13126      70685265 
 13126      73657443 
 13127              	.LASF81:
 13128 014e 746D7063 		.ascii	"tmpccmr1\000"
 13128      636D7231 
 13128      00
 13129              	.LASF89:
 13130 0157 746D7063 		.ascii	"tmpccmr2\000"
 13130      636D7232 
 13130      00
 13131              	.LASF21:
 13132 0160 44495341 		.ascii	"DISABLE\000"
 13132      424C4500 
 13133              	.LASF128:
 13134 0168 746D7063 		.ascii	"tmpcr2\000"
 13134      723200
 13135              	.LASF93:
 13136 016f 54494D5F 		.ascii	"TIM_SelectInputTrigger\000"
 13136      53656C65 
 13136      6374496E 
 13136      70757454 
 13136      72696767 
 13137              	.LASF41:
 13138 0186 43435232 		.ascii	"CCR2\000"
 13138      00
 13139              	.LASF70:
 13140 018b 54494D5F 		.ascii	"TIM_ICFilter\000"
 13140      49434669 
 13140      6C746572 
 13140      00
 13141              	.LASF208:
 13142 0198 54494D5F 		.ascii	"TIM_InternalClockConfig\000"
 13142      496E7465 
 13142      726E616C 
 13142      436C6F63 
 13142      6B436F6E 
ARM GAS  /var/folders/7z/kps_xzfj7sn5l5gkyq8s9db00000gn/T//ccc38Eju.s 			page 235


 13143              	.LASF165:
 13144 01b0 54494D5F 		.ascii	"TIM_OC2PolarityConfig\000"
 13144      4F433250 
 13144      6F6C6172 
 13144      69747943 
 13144      6F6E6669 
 13145              	.LASF119:
 13146 01c6 54494D5F 		.ascii	"TIM_ARRPreloadConfig\000"
 13146      41525250 
 13146      72656C6F 
 13146      6164436F 
 13146      6E666967 
 13147              	.LASF232:
 13148 01db 49544D5F 		.ascii	"ITM_RxBuffer\000"
 13148      52784275 
 13148      66666572 
 13148      00
 13149              	.LASF68:
 13150 01e8 54494D5F 		.ascii	"TIM_ICSelection\000"
 13150      49435365 
 13150      6C656374 
 13150      696F6E00 
 13151              	.LASF134:
 13152 01f8 746D7031 		.ascii	"tmp1\000"
 13152      00
 13153              	.LASF221:
 13154 01fd 54494D5F 		.ascii	"TIM_EncoderInterfaceConfig\000"
 13154      456E636F 
 13154      64657249 
 13154      6E746572 
 13154      66616365 
 13155              	.LASF150:
 13156 0218 54494D5F 		.ascii	"TIM_OC2PreloadConfig\000"
 13156      4F433250 
 13156      72656C6F 
 13156      6164436F 
 13156      6E666967 
 13157              	.LASF192:
 13158 022d 54494D5F 		.ascii	"TIM_GenerateEvent\000"
 13158      47656E65 
 13158      72617465 
 13158      4576656E 
 13158      7400
 13159              	.LASF223:
 13160 023f 54494D5F 		.ascii	"TIM_IC1Polarity\000"
 13160      49433150 
 13160      6F6C6172 
 13160      69747900 
 13161              	.LASF154:
 13162 024f 54494D5F 		.ascii	"TIM_OCFast\000"
 13162      4F434661 
 13162      737400
 13163              	.LASF66:
 13164 025a 54494D5F 		.ascii	"TIM_Channel\000"
 13164      4368616E 
 13164      6E656C00 
 13165              	.LASF32:
ARM GAS  /var/folders/7z/kps_xzfj7sn5l5gkyq8s9db00000gn/T//ccc38Eju.s 			page 236


 13166 0266 43434D52 		.ascii	"CCMR1\000"
 13166      3100
 13167              	.LASF34:
 13168 026c 43434D52 		.ascii	"CCMR2\000"
 13168      3200
 13169              	.LASF107:
 13170 0272 54494D5F 		.ascii	"TIM_CounterModeConfig\000"
 13170      436F756E 
 13170      7465724D 
 13170      6F646543 
 13170      6F6E6669 
 13171              	.LASF0:
 13172 0288 7369676E 		.ascii	"signed char\000"
 13172      65642063 
 13172      68617200 
 13173              	.LASF202:
 13174 0294 54494D5F 		.ascii	"TIM_DMAConfig\000"
 13174      444D4143 
 13174      6F6E6669 
 13174      6700
 13175              	.LASF170:
 13176 02a2 54494D5F 		.ascii	"TIM_CCxCmd\000"
 13176      43437843 
 13176      6D6400
 13177              	.LASF11:
 13178 02ad 6C6F6E67 		.ascii	"long long unsigned int\000"
 13178      206C6F6E 
 13178      6720756E 
 13178      7369676E 
 13178      65642069 
 13179              	.LASF149:
 13180 02c4 54494D5F 		.ascii	"TIM_OCPreload\000"
 13180      4F435072 
 13180      656C6F61 
 13180      6400
 13181              	.LASF39:
 13182 02d2 52455345 		.ascii	"RESERVED10\000"
 13182      52564544 
 13182      313000
 13183              	.LASF45:
 13184 02dd 52455345 		.ascii	"RESERVED11\000"
 13184      52564544 
 13184      313100
 13185              	.LASF46:
 13186 02e8 52455345 		.ascii	"RESERVED12\000"
 13186      52564544 
 13186      313200
 13187              	.LASF48:
 13188 02f3 52455345 		.ascii	"RESERVED13\000"
 13188      52564544 
 13188      313300
 13189              	.LASF49:
 13190 02fe 52455345 		.ascii	"RESERVED14\000"
 13190      52564544 
 13190      313400
 13191              	.LASF191:
 13192 0309 54494D5F 		.ascii	"TIM_IT\000"
ARM GAS  /var/folders/7z/kps_xzfj7sn5l5gkyq8s9db00000gn/T//ccc38Eju.s 			page 237


 13192      495400
 13193              	.LASF7:
 13194 0310 6C6F6E67 		.ascii	"long int\000"
 13194      20696E74 
 13194      00
 13195              	.LASF59:
 13196 0319 54494D5F 		.ascii	"TIM_OutputNState\000"
 13196      4F757470 
 13196      75744E53 
 13196      74617465 
 13196      00
 13197              	.LASF22:
 13198 032a 454E4142 		.ascii	"ENABLE\000"
 13198      4C4500
 13199              	.LASF127:
 13200 0331 746D7063 		.ascii	"tmpccmrx\000"
 13200      636D7278 
 13200      00
 13201              	.LASF36:
 13202 033a 43434552 		.ascii	"CCER\000"
 13202      00
 13203              	.LASF10:
 13204 033f 6C6F6E67 		.ascii	"long long int\000"
 13204      206C6F6E 
 13204      6720696E 
 13204      7400
 13205              	.LASF14:
 13206 034d 75696E74 		.ascii	"uint16_t\000"
 13206      31365F74 
 13206      00
 13207              	.LASF123:
 13208 0356 54494D5F 		.ascii	"TIM_CKD\000"
 13208      434B4400 
 13209              	.LASF111:
 13210 035e 54494D5F 		.ascii	"TIM_SetAutoreload\000"
 13210      53657441 
 13210      75746F72 
 13210      656C6F61 
 13210      6400
 13211              	.LASF176:
 13212 0370 54494D5F 		.ascii	"TIM_ICStructInit\000"
 13212      49435374 
 13212      72756374 
 13212      496E6974 
 13212      00
 13213              	.LASF181:
 13214 0381 54494D5F 		.ascii	"TIM_GetCapture2\000"
 13214      47657443 
 13214      61707475 
 13214      72653200 
 13215              	.LASF182:
 13216 0391 54494D5F 		.ascii	"TIM_GetCapture3\000"
 13216      47657443 
 13216      61707475 
 13216      72653300 
 13217              	.LASF183:
 13218 03a1 54494D5F 		.ascii	"TIM_GetCapture4\000"
ARM GAS  /var/folders/7z/kps_xzfj7sn5l5gkyq8s9db00000gn/T//ccc38Eju.s 			page 238


 13218      47657443 
 13218      61707475 
 13218      72653400 
 13219              	.LASF130:
 13220 03b1 54494D5F 		.ascii	"TIM_OC3Init\000"
 13220      4F433349 
 13220      6E697400 
 13221              	.LASF178:
 13222 03bd 69636F70 		.ascii	"icoppositepolarity\000"
 13222      706F7369 
 13222      7465706F 
 13222      6C617269 
 13222      747900
 13223              	.LASF118:
 13224 03d0 54494D5F 		.ascii	"TIM_UpdateSource\000"
 13224      55706461 
 13224      7465536F 
 13224      75726365 
 13224      00
 13225              	.LASF173:
 13226 03e1 54494D5F 		.ascii	"TIM_CCxN\000"
 13226      4343784E 
 13226      00
 13227              	.LASF207:
 13228 03ea 54494D5F 		.ascii	"TIM_SelectCCDMA\000"
 13228      53656C65 
 13228      63744343 
 13228      444D4100 
 13229              	.LASF4:
 13230 03fa 5F5F7569 		.ascii	"__uint16_t\000"
 13230      6E743136 
 13230      5F7400
 13231              	.LASF50:
 13232 0405 54494D5F 		.ascii	"TIM_TypeDef\000"
 13232      54797065 
 13232      44656600 
 13233              	.LASF8:
 13234 0411 5F5F7569 		.ascii	"__uint32_t\000"
 13234      6E743332 
 13234      5F7400
 13235              	.LASF148:
 13236 041c 54494D5F 		.ascii	"TIM_OC1PreloadConfig\000"
 13236      4F433150 
 13236      72656C6F 
 13236      6164436F 
 13236      6E666967 
 13237              	.LASF204:
 13238 0431 54494D5F 		.ascii	"TIM_DMABurstLength\000"
 13238      444D4142 
 13238      75727374 
 13238      4C656E67 
 13238      746800
 13239              	.LASF229:
 13240 0444 474E5520 		.ascii	"GNU C 4.9.3 20150303 (release) [ARM/embedded-4_9-br"
 13240      4320342E 
 13240      392E3320 
 13240      32303135 
ARM GAS  /var/folders/7z/kps_xzfj7sn5l5gkyq8s9db00000gn/T//ccc38Eju.s 			page 239


 13240      30333033 
 13241 0477 616E6368 		.ascii	"anch revision 221220] -mcpu=cortex-m4 -mfloat-abi=h"
 13241      20726576 
 13241      6973696F 
 13241      6E203232 
 13241      31323230 
 13242 04aa 61726420 		.ascii	"ard -mfpu=fpv4-sp-d16 -mno-thumb-interwork -mthumb "
 13242      2D6D6670 
 13242      753D6670 
 13242      76342D73 
 13242      702D6431 
 13243 04dd 2D676764 		.ascii	"-ggdb -O2 -std=gnu99 -fomit-frame-pointer -falign-f"
 13243      62202D4F 
 13243      32202D73 
 13243      74643D67 
 13243      6E753939 
 13244 0510 756E6374 		.ascii	"unctions=16 -ffunction-sections -fdata-sections -fn"
 13244      696F6E73 
 13244      3D313620 
 13244      2D666675 
 13244      6E637469 
 13245 0543 6F2D636F 		.ascii	"o-common -fsingle-precision-constant\000"
 13245      6D6D6F6E 
 13245      202D6673 
 13245      696E676C 
 13245      652D7072 
 13246              	.LASF197:
 13247 0568 54494D5F 		.ascii	"TIM_ClearFlag\000"
 13247      436C6561 
 13247      72466C61 
 13247      6700
 13248              	.LASF231:
 13249 0576 2F557365 		.ascii	"/Users/Baram/oroca_bldc_dev/oroca_bldc/\000"
 13249      72732F42 
 13249      6172616D 
 13249      2F6F726F 
 13249      63615F62 
 13250              	.LASF139:
 13251 059e 54494D5F 		.ascii	"TIM_SetCompare3\000"
 13251      53657443 
 13251      6F6D7061 
 13251      72653300 
 13252              	.LASF188:
 13253 05ae 54494D5F 		.ascii	"TIM_SelectCOM\000"
 13253      53656C65 
 13253      6374434F 
 13253      4D00
 13254              	.LASF82:
 13255 05bc 746D7063 		.ascii	"tmpccer\000"
 13255      63657200 
 13256              	.LASF166:
 13257 05c4 54494D5F 		.ascii	"TIM_OC2NPolarityConfig\000"
 13257      4F43324E 
 13257      506F6C61 
 13257      72697479 
 13257      436F6E66 
 13258              	.LASF12:
ARM GAS  /var/folders/7z/kps_xzfj7sn5l5gkyq8s9db00000gn/T//ccc38Eju.s 			page 240


 13259 05db 756E7369 		.ascii	"unsigned int\000"
 13259      676E6564 
 13259      20696E74 
 13259      00
 13260              	.LASF91:
 13261 05e8 5449345F 		.ascii	"TI4_Config\000"
 13261      436F6E66 
 13261      696700
 13262              	.LASF61:
 13263 05f3 54494D5F 		.ascii	"TIM_OCPolarity\000"
 13263      4F43506F 
 13263      6C617269 
 13263      747900
 13264              	.LASF54:
 13265 0602 54494D5F 		.ascii	"TIM_ClockDivision\000"
 13265      436C6F63 
 13265      6B446976 
 13265      6973696F 
 13265      6E00
 13266              	.LASF114:
 13267 0614 54494D5F 		.ascii	"TIM_GetPrescaler\000"
 13267      47657450 
 13267      72657363 
 13267      616C6572 
 13267      00
 13268              	.LASF113:
 13269 0625 54494D5F 		.ascii	"TIM_GetCounter\000"
 13269      47657443 
 13269      6F756E74 
 13269      657200
 13270              	.LASF103:
 13271 0634 54494D5F 		.ascii	"TIM_TimeBaseStructInit\000"
 13271      54696D65 
 13271      42617365 
 13271      53747275 
 13271      6374496E 
 13272              	.LASF180:
 13273 064b 54494D5F 		.ascii	"TIM_GetCapture1\000"
 13273      47657443 
 13273      61707475 
 13273      72653100 
 13274              	.LASF220:
 13275 065b 54494D5F 		.ascii	"TIM_MasterSlaveMode\000"
 13275      4D617374 
 13275      6572536C 
 13275      6176654D 
 13275      6F646500 
 13276              	.LASF217:
 13277 066f 54494D5F 		.ascii	"TIM_SelectSlaveMode\000"
 13277      53656C65 
 13277      6374536C 
 13277      6176654D 
 13277      6F646500 
 13278              	.LASF219:
 13279 0683 54494D5F 		.ascii	"TIM_SelectMasterSlaveMode\000"
 13279      53656C65 
 13279      63744D61 
ARM GAS  /var/folders/7z/kps_xzfj7sn5l5gkyq8s9db00000gn/T//ccc38Eju.s 			page 241


 13279      73746572 
 13279      536C6176 
 13280              	.LASF194:
 13281 069d 54494D5F 		.ascii	"TIM_GetFlagStatus\000"
 13281      47657446 
 13281      6C616753 
 13281      74617475 
 13281      7300
 13282              	.LASF79:
 13283 06af 54494D5F 		.ascii	"TIM_BDTRInitTypeDef\000"
 13283      42445452 
 13283      496E6974 
 13283      54797065 
 13283      44656600 
 13284              	.LASF126:
 13285 06c3 54494D5F 		.ascii	"TIM_OCInitStruct\000"
 13285      4F43496E 
 13285      69745374 
 13285      72756374 
 13285      00
 13286              	.LASF26:
 13287 06d4 534D4352 		.ascii	"SMCR\000"
 13287      00
 13288              	.LASF72:
 13289 06d9 54494D5F 		.ascii	"TIM_OSSRState\000"
 13289      4F535352 
 13289      53746174 
 13289      6500
 13290              	.LASF80:
 13291 06e7 54494D78 		.ascii	"TIMx\000"
 13291      00
 13292              	.LASF222:
 13293 06ec 54494D5F 		.ascii	"TIM_EncoderMode\000"
 13293      456E636F 
 13293      6465724D 
 13293      6F646500 
 13294              	.LASF169:
 13295 06fc 54494D5F 		.ascii	"TIM_OC4PolarityConfig\000"
 13295      4F433450 
 13295      6F6C6172 
 13295      69747943 
 13295      6F6E6669 
 13296              	.LASF78:
 13297 0712 54494D5F 		.ascii	"TIM_AutomaticOutput\000"
 13297      4175746F 
 13297      6D617469 
 13297      634F7574 
 13297      70757400 
 13298              	.LASF215:
 13299 0726 54494D5F 		.ascii	"TIM_SelectOutputTrigger\000"
 13299      53656C65 
 13299      63744F75 
 13299      74707574 
 13299      54726967 
 13300              	.LASF86:
 13301 073e 54494D5F 		.ascii	"TIM_SetIC1Prescaler\000"
 13301      53657449 
ARM GAS  /var/folders/7z/kps_xzfj7sn5l5gkyq8s9db00000gn/T//ccc38Eju.s 			page 242


 13301      43315072 
 13301      65736361 
 13301      6C657200 
 13302              	.LASF177:
 13303 0752 54494D5F 		.ascii	"TIM_PWMIConfig\000"
 13303      50574D49 
 13303      436F6E66 
 13303      696700
 13304              	.LASF88:
 13305 0761 5449335F 		.ascii	"TI3_Config\000"
 13305      436F6E66 
 13305      696700
 13306              	.LASF206:
 13307 076c 54494D5F 		.ascii	"TIM_DMASource\000"
 13307      444D4153 
 13307      6F757263 
 13307      6500
 13308              	.LASF132:
 13309 077a 54494D5F 		.ascii	"TIM_OCStructInit\000"
 13309      4F435374 
 13309      72756374 
 13309      496E6974 
 13309      00
 13310              	.LASF106:
 13311 078b 54494D5F 		.ascii	"TIM_PSCReloadMode\000"
 13311      50534352 
 13311      656C6F61 
 13311      644D6F64 
 13311      6500
 13312              	.LASF18:
 13313 079d 52455345 		.ascii	"RESET\000"
 13313      5400
 13314              	.LASF95:
 13315 07a3 746D7073 		.ascii	"tmpsmcr\000"
 13315      6D637200 
 13316              	.LASF98:
 13317 07ab 54494D5F 		.ascii	"TIM_ExtTRGPolarity\000"
 13317      45787454 
 13317      5247506F 
 13317      6C617269 
 13317      747900
 13318              	.LASF186:
 13319 07be 54494D5F 		.ascii	"TIM_BDTRStructInit\000"
 13319      42445452 
 13319      53747275 
 13319      6374496E 
 13319      697400
 13320              	.LASF108:
 13321 07d1 746D7063 		.ascii	"tmpcr1\000"
 13321      723100
 13322              	.LASF143:
 13323 07d8 54494D5F 		.ascii	"TIM_ForcedOC1Config\000"
 13323      466F7263 
 13323      65644F43 
 13323      31436F6E 
 13323      66696700 
 13324              	.LASF17:
ARM GAS  /var/folders/7z/kps_xzfj7sn5l5gkyq8s9db00000gn/T//ccc38Eju.s 			page 243


 13325 07ec 73697A65 		.ascii	"sizetype\000"
 13325      74797065 
 13325      00
 13326              	.LASF97:
 13327 07f5 54494D5F 		.ascii	"TIM_ExtTRGPrescaler\000"
 13327      45787454 
 13327      52475072 
 13327      65736361 
 13327      6C657200 
 13328              	.LASF76:
 13329 0809 54494D5F 		.ascii	"TIM_Break\000"
 13329      42726561 
 13329      6B00
 13330              	.LASF161:
 13331 0813 54494D5F 		.ascii	"TIM_ClearOC3Ref\000"
 13331      436C6561 
 13331      724F4333 
 13331      52656600 
 13332              	.LASF75:
 13333 0823 54494D5F 		.ascii	"TIM_DeadTime\000"
 13333      44656164 
 13333      54696D65 
 13333      00
 13334              	.LASF163:
 13335 0830 54494D5F 		.ascii	"TIM_OC1PolarityConfig\000"
 13335      4F433150 
 13335      6F6C6172 
 13335      69747943 
 13335      6F6E6669 
 13336              	.LASF146:
 13337 0846 54494D5F 		.ascii	"TIM_ForcedOC3Config\000"
 13337      466F7263 
 13337      65644F43 
 13337      33436F6E 
 13337      66696700 
 13338              	.LASF69:
 13339 085a 54494D5F 		.ascii	"TIM_ICPrescaler\000"
 13339      49435072 
 13339      65736361 
 13339      6C657200 
 13340              	.LASF172:
 13341 086a 54494D5F 		.ascii	"TIM_CCxNCmd\000"
 13341      4343784E 
 13341      436D6400 
 13342              	.LASF142:
 13343 0876 436F6D70 		.ascii	"Compare4\000"
 13343      61726534 
 13343      00
 13344              	.LASF64:
 13345 087f 54494D5F 		.ascii	"TIM_OCNIdleState\000"
 13345      4F434E49 
 13345      646C6553 
 13345      74617465 
 13345      00
 13346              	.LASF199:
 13347 0890 69747374 		.ascii	"itstatus\000"
 13347      61747573 
ARM GAS  /var/folders/7z/kps_xzfj7sn5l5gkyq8s9db00000gn/T//ccc38Eju.s 			page 244


 13347      00
 13348              	.LASF203:
 13349 0899 54494D5F 		.ascii	"TIM_DMABase\000"
 13349      444D4142 
 13349      61736500 
 13350              	.LASF179:
 13351 08a5 69636F70 		.ascii	"icoppositeselection\000"
 13351      706F7369 
 13351      74657365 
 13351      6C656374 
 13351      696F6E00 
 13352              	.LASF137:
 13353 08b9 54494D5F 		.ascii	"TIM_SetCompare2\000"
 13353      53657443 
 13353      6F6D7061 
 13353      72653200 
 13354              	.LASF23:
 13355 08c9 46756E63 		.ascii	"FunctionalState\000"
 13355      74696F6E 
 13355      616C5374 
 13355      61746500 
 13356              	.LASF227:
 13357 08d9 54494D5F 		.ascii	"TIM_Remap\000"
 13357      52656D61 
 13357      7000
 13358              	.LASF198:
 13359 08e3 54494D5F 		.ascii	"TIM_GetITStatus\000"
 13359      47657449 
 13359      54537461 
 13359      74757300 
 13360              	.LASF102:
 13361 08f3 54494D5F 		.ascii	"TIM_TimeBaseInitStruct\000"
 13361      54696D65 
 13361      42617365 
 13361      496E6974 
 13361      53747275 
 13362              	.LASF233:
 13363 090a 5243435F 		.ascii	"RCC_APB2PeriphResetCmd\000"
 13363      41504232 
 13363      50657269 
 13363      70685265 
 13363      73657443 
 13364              	.LASF122:
 13365 0921 54494D5F 		.ascii	"TIM_SetClockDivision\000"
 13365      53657443 
 13365      6C6F636B 
 13365      44697669 
 13365      73696F6E 
 13366              	.LASF171:
 13367 0936 54494D5F 		.ascii	"TIM_CCx\000"
 13367      43437800 
 13368              	.LASF110:
 13369 093e 436F756E 		.ascii	"Counter\000"
 13369      74657200 
 13370              	.LASF138:
 13371 0946 436F6D70 		.ascii	"Compare2\000"
 13371      61726532 
ARM GAS  /var/folders/7z/kps_xzfj7sn5l5gkyq8s9db00000gn/T//ccc38Eju.s 			page 245


 13371      00
 13372              	.LASF58:
 13373 094f 54494D5F 		.ascii	"TIM_OutputState\000"
 13373      4F757470 
 13373      75745374 
 13373      61746500 
 13374              	.LASF193:
 13375 095f 54494D5F 		.ascii	"TIM_EventSource\000"
 13375      4576656E 
 13375      74536F75 
 13375      72636500 
 13376              	.LASF67:
 13377 096f 54494D5F 		.ascii	"TIM_ICPolarity\000"
 13377      4943506F 
 13377      6C617269 
 13377      747900
 13378              	.LASF25:
 13379 097e 52455345 		.ascii	"RESERVED1\000"
 13379      52564544 
 13379      3100
 13380              	.LASF27:
 13381 0988 52455345 		.ascii	"RESERVED2\000"
 13381      52564544 
 13381      3200
 13382              	.LASF29:
 13383 0992 52455345 		.ascii	"RESERVED3\000"
 13383      52564544 
 13383      3300
 13384              	.LASF30:
 13385 099c 52455345 		.ascii	"RESERVED4\000"
 13385      52564544 
 13385      3400
 13386              	.LASF31:
 13387 09a6 52455345 		.ascii	"RESERVED5\000"
 13387      52564544 
 13387      3500
 13388              	.LASF33:
 13389 09b0 52455345 		.ascii	"RESERVED6\000"
 13389      52564544 
 13389      3600
 13390              	.LASF37:
 13391 09ba 52455345 		.ascii	"RESERVED8\000"
 13391      52564544 
 13391      3800
 13392              	.LASF38:
 13393 09c4 52455345 		.ascii	"RESERVED9\000"
 13393      52564544 
 13393      3900
 13394              	.LASF51:
 13395 09ce 54494D5F 		.ascii	"TIM_Prescaler\000"
 13395      50726573 
 13395      63616C65 
 13395      7200
 13396              	.LASF210:
 13397 09dc 54494D5F 		.ascii	"TIM_TIxExternalClockConfig\000"
 13397      54497845 
 13397      78746572 
ARM GAS  /var/folders/7z/kps_xzfj7sn5l5gkyq8s9db00000gn/T//ccc38Eju.s 			page 246


 13397      6E616C43 
 13397      6C6F636B 
 13398              	.LASF15:
 13399 09f7 696E7433 		.ascii	"int32_t\000"
 13399      325F7400 
 13400              	.LASF1:
 13401 09ff 756E7369 		.ascii	"unsigned char\000"
 13401      676E6564 
 13401      20636861 
 13401      7200
 13402              	.LASF74:
 13403 0a0d 54494D5F 		.ascii	"TIM_LOCKLevel\000"
 13403      4C4F434B 
 13403      4C657665 
 13403      6C00
 13404              	.LASF187:
 13405 0a1b 54494D5F 		.ascii	"TIM_CtrlPWMOutputs\000"
 13405      4374726C 
 13405      50574D4F 
 13405      75747075 
 13405      747300
 13406              	.LASF184:
 13407 0a2e 54494D5F 		.ascii	"TIM_BDTRConfig\000"
 13407      42445452 
 13407      436F6E66 
 13407      696700
 13408              	.LASF2:
 13409 0a3d 73686F72 		.ascii	"short int\000"
 13409      7420696E 
 13409      7400
 13410              	.LASF44:
 13411 0a47 42445452 		.ascii	"BDTR\000"
 13411      00
 13412              	.LASF87:
 13413 0a4c 54494D5F 		.ascii	"TIM_SetIC2Prescaler\000"
 13413      53657449 
 13413      43325072 
 13413      65736361 
 13413      6C657200 
 13414              	.LASF104:
 13415 0a60 54494D5F 		.ascii	"TIM_PrescalerConfig\000"
 13415      50726573 
 13415      63616C65 
 13415      72436F6E 
 13415      66696700 
 13416              	.LASF209:
 13417 0a74 54494D5F 		.ascii	"TIM_ITRxExternalClockConfig\000"
 13417      49545278 
 13417      45787465 
 13417      726E616C 
 13417      436C6F63 
 13418              	.LASF168:
 13419 0a90 54494D5F 		.ascii	"TIM_OC3NPolarityConfig\000"
 13419      4F43334E 
 13419      506F6C61 
 13419      72697479 
 13419      436F6E66 
ARM GAS  /var/folders/7z/kps_xzfj7sn5l5gkyq8s9db00000gn/T//ccc38Eju.s 			page 247


 13420              	.LASF73:
 13421 0aa7 54494D5F 		.ascii	"TIM_OSSIState\000"
 13421      4F535349 
 13421      53746174 
 13421      6500
 13422              	.LASF189:
 13423 0ab5 54494D5F 		.ascii	"TIM_CCPreloadControl\000"
 13423      43435072 
 13423      656C6F61 
 13423      64436F6E 
 13423      74726F6C 
 13424              	.LASF24:
 13425 0aca 52455345 		.ascii	"RESERVED0\000"
 13425      52564544 
 13425      3000
 13426              	.LASF101:
 13427 0ad4 54494D5F 		.ascii	"TIM_TimeBaseInit\000"
 13427      54696D65 
 13427      42617365 
 13427      496E6974 
 13427      00
 13428              	.LASF211:
 13429 0ae5 54494D5F 		.ascii	"TIM_TIxExternalCLKSource\000"
 13429      54497845 
 13429      78746572 
 13429      6E616C43 
 13429      4C4B536F 
 13430              	.LASF35:
 13431 0afe 52455345 		.ascii	"RESERVED7\000"
 13431      52564544 
 13431      3700
 13432              	.LASF185:
 13433 0b08 54494D5F 		.ascii	"TIM_BDTRInitStruct\000"
 13433      42445452 
 13433      496E6974 
 13433      53747275 
 13433      637400
 13434              	.LASF85:
 13435 0b1b 5449325F 		.ascii	"TI2_Config\000"
 13435      436F6E66 
 13435      696700
 13436              	.LASF155:
 13437 0b26 54494D5F 		.ascii	"TIM_OC2FastConfig\000"
 13437      4F433246 
 13437      61737443 
 13437      6F6E6669 
 13437      6700
 13438              	.LASF157:
 13439 0b38 54494D5F 		.ascii	"TIM_OC4FastConfig\000"
 13439      4F433446 
 13439      61737443 
 13439      6F6E6669 
 13439      6700
 13440              	.LASF9:
 13441 0b4a 6C6F6E67 		.ascii	"long unsigned int\000"
 13441      20756E73 
 13441      69676E65 
ARM GAS  /var/folders/7z/kps_xzfj7sn5l5gkyq8s9db00000gn/T//ccc38Eju.s 			page 248


 13441      6420696E 
 13441      7400
 13442              	.LASF62:
 13443 0b5c 54494D5F 		.ascii	"TIM_OCNPolarity\000"
 13443      4F434E50 
 13443      6F6C6172 
 13443      69747900 
 13444              	.LASF214:
 13445 0b6c 54494D5F 		.ascii	"TIM_ETRClockMode2Config\000"
 13445      45545243 
 13445      6C6F636B 
 13445      4D6F6465 
 13445      32436F6E 
 13446              	.LASF84:
 13447 0b84 5449315F 		.ascii	"TI1_Config\000"
 13447      436F6E66 
 13447      696700
 13448              	.LASF124:
 13449 0b8f 54494D5F 		.ascii	"TIM_Cmd\000"
 13449      436D6400 
 13450              	.LASF47:
 13451 0b97 444D4152 		.ascii	"DMAR\000"
 13451      00
 13452              	.LASF90:
 13453 0b9c 54494D5F 		.ascii	"TIM_SetIC3Prescaler\000"
 13453      53657449 
 13453      43335072 
 13453      65736361 
 13453      6C657200 
 13454              	.LASF129:
 13455 0bb0 54494D5F 		.ascii	"TIM_OC2Init\000"
 13455      4F433249 
 13455      6E697400 
 13456              	.LASF53:
 13457 0bbc 54494D5F 		.ascii	"TIM_Period\000"
 13457      50657269 
 13457      6F6400
 13458              	.LASF56:
 13459 0bc7 54494D5F 		.ascii	"TIM_TimeBaseInitTypeDef\000"
 13459      54696D65 
 13459      42617365 
 13459      496E6974 
 13459      54797065 
 13460              	.LASF201:
 13461 0bdf 54494D5F 		.ascii	"TIM_ClearITPendingBit\000"
 13461      436C6561 
 13461      72495450 
 13461      656E6469 
 13461      6E674269 
 13462              	.LASF6:
 13463 0bf5 5F5F696E 		.ascii	"__int32_t\000"
 13463      7433325F 
 13463      7400
 13464              	.LASF71:
 13465 0bff 54494D5F 		.ascii	"TIM_ICInitTypeDef\000"
 13465      4943496E 
 13465      69745479 
ARM GAS  /var/folders/7z/kps_xzfj7sn5l5gkyq8s9db00000gn/T//ccc38Eju.s 			page 249


 13465      70654465 
 13465      6600
 13466              	.LASF131:
 13467 0c11 54494D5F 		.ascii	"TIM_OC4Init\000"
 13467      4F433449 
 13467      6E697400 
 13468              	.LASF174:
 13469 0c1d 54494D5F 		.ascii	"TIM_ICInit\000"
 13469      4943496E 
 13469      697400
 13470              	.LASF141:
 13471 0c28 54494D5F 		.ascii	"TIM_SetCompare4\000"
 13471      53657443 
 13471      6F6D7061 
 13471      72653400 
 13472              	.LASF230:
 13473 0c38 6C69622F 		.ascii	"lib/ChibiOS_2.6.6/ext/stdperiph_stm32f4/src/stm32f4"
 13473      43686962 
 13473      694F535F 
 13473      322E362E 
 13473      362F6578 
 13474 0c6b 78785F74 		.ascii	"xx_tim.c\000"
 13474      696D2E63 
 13474      00
 13475              	.LASF117:
 13476 0c74 54494D5F 		.ascii	"TIM_UpdateRequestConfig\000"
 13476      55706461 
 13476      74655265 
 13476      71756573 
 13476      74436F6E 
 13477              	.LASF105:
 13478 0c8c 50726573 		.ascii	"Prescaler\000"
 13478      63616C65 
 13478      7200
 13479              	.LASF152:
 13480 0c96 54494D5F 		.ascii	"TIM_OC4PreloadConfig\000"
 13480      4F433450 
 13480      72656C6F 
 13480      6164436F 
 13480      6E666967 
 13481              	.LASF5:
 13482 0cab 73686F72 		.ascii	"short unsigned int\000"
 13482      7420756E 
 13482      7369676E 
 13482      65642069 
 13482      6E7400
 13483              	.LASF218:
 13484 0cbe 54494D5F 		.ascii	"TIM_SlaveMode\000"
 13484      536C6176 
 13484      654D6F64 
 13484      6500
 13485              	.LASF57:
 13486 0ccc 54494D5F 		.ascii	"TIM_OCMode\000"
 13486      4F434D6F 
 13486      646500
 13487              	.LASF162:
 13488 0cd7 54494D5F 		.ascii	"TIM_ClearOC4Ref\000"
ARM GAS  /var/folders/7z/kps_xzfj7sn5l5gkyq8s9db00000gn/T//ccc38Eju.s 			page 250


 13488      436C6561 
 13488      724F4334 
 13488      52656600 
 13489              	.LASF77:
 13490 0ce7 54494D5F 		.ascii	"TIM_BreakPolarity\000"
 13490      42726561 
 13490      6B506F6C 
 13490      61726974 
 13490      7900
 13491              	.LASF164:
 13492 0cf9 54494D5F 		.ascii	"TIM_OC1NPolarityConfig\000"
 13492      4F43314E 
 13492      506F6C61 
 13492      72697479 
 13492      436F6E66 
 13493              	.LASF133:
 13494 0d10 54494D5F 		.ascii	"TIM_SelectOCxM\000"
 13494      53656C65 
 13494      63744F43 
 13494      784D00
 13495              	.LASF16:
 13496 0d1f 75696E74 		.ascii	"uint32_t\000"
 13496      33325F74 
 13496      00
 13497              	.LASF40:
 13498 0d28 43435231 		.ascii	"CCR1\000"
 13498      00
 13499              	.LASF213:
 13500 0d2d 54494D5F 		.ascii	"TIM_ETRClockMode1Config\000"
 13500      45545243 
 13500      6C6F636B 
 13500      4D6F6465 
 13500      31436F6E 
 13501              	.LASF42:
 13502 0d45 43435233 		.ascii	"CCR3\000"
 13502      00
 13503              	.LASF43:
 13504 0d4a 43435234 		.ascii	"CCR4\000"
 13504      00
 13505              	.LASF65:
 13506 0d4f 54494D5F 		.ascii	"TIM_OCInitTypeDef\000"
 13506      4F43496E 
 13506      69745479 
 13506      70654465 
 13506      6600
 13507              	.LASF109:
 13508 0d61 54494D5F 		.ascii	"TIM_SetCounter\000"
 13508      53657443 
 13508      6F756E74 
 13508      657200
 13509              	.LASF200:
 13510 0d70 6974656E 		.ascii	"itenable\000"
 13510      61626C65 
 13510      00
 13511              	.LASF13:
 13512 0d79 75696E74 		.ascii	"uint8_t\000"
 13512      385F7400 
ARM GAS  /var/folders/7z/kps_xzfj7sn5l5gkyq8s9db00000gn/T//ccc38Eju.s 			page 251


 13513              	.LASF167:
 13514 0d81 54494D5F 		.ascii	"TIM_OC3PolarityConfig\000"
 13514      4F433350 
 13514      6F6C6172 
 13514      69747943 
 13514      6F6E6669 
 13515              	.LASF226:
 13516 0d97 54494D5F 		.ascii	"TIM_RemapConfig\000"
 13516      52656D61 
 13516      70436F6E 
 13516      66696700 
 13517              	.LASF20:
 13518 0da7 49545374 		.ascii	"ITStatus\000"
 13518      61747573 
 13518      00
 13519              	.LASF125:
 13520 0db0 54494D5F 		.ascii	"TIM_OC1Init\000"
 13520      4F433149 
 13520      6E697400 
 13521              	.LASF55:
 13522 0dbc 54494D5F 		.ascii	"TIM_RepetitionCounter\000"
 13522      52657065 
 13522      74697469 
 13522      6F6E436F 
 13522      756E7465 
 13523              	.LASF225:
 13524 0dd2 54494D5F 		.ascii	"TIM_SelectHallSensor\000"
 13524      53656C65 
 13524      63744861 
 13524      6C6C5365 
 13524      6E736F72 
 13525              	.LASF175:
 13526 0de7 54494D5F 		.ascii	"TIM_ICInitStruct\000"
 13526      4943496E 
 13526      69745374 
 13526      72756374 
 13526      00
 13527              	.LASF196:
 13528 0df8 62697473 		.ascii	"bitstatus\000"
 13528      74617475 
 13528      7300
 13529              	.LASF212:
 13530 0e02 49434669 		.ascii	"ICFilter\000"
 13530      6C746572 
 13530      00
 13531              	.LASF160:
 13532 0e0b 54494D5F 		.ascii	"TIM_ClearOC2Ref\000"
 13532      436C6561 
 13532      724F4332 
 13532      52656600 
 13533              	.LASF99:
 13534 0e1b 45787454 		.ascii	"ExtTRGFilter\000"
 13534      52474669 
 13534      6C746572 
 13534      00
 13535              	.LASF190:
 13536 0e28 54494D5F 		.ascii	"TIM_ITConfig\000"
ARM GAS  /var/folders/7z/kps_xzfj7sn5l5gkyq8s9db00000gn/T//ccc38Eju.s 			page 252


 13536      4954436F 
 13536      6E666967 
 13536      00
 13537              	.LASF63:
 13538 0e35 54494D5F 		.ascii	"TIM_OCIdleState\000"
 13538      4F434964 
 13538      6C655374 
 13538      61746500 
 13539              	.LASF159:
 13540 0e45 54494D5F 		.ascii	"TIM_OCClear\000"
 13540      4F43436C 
 13540      65617200 
 13541              	.LASF83:
 13542 0e51 54494D5F 		.ascii	"TIM_ICPSC\000"
 13542      49435053 
 13542      4300
 13543              	.LASF96:
 13544 0e5b 54494D5F 		.ascii	"TIM_ETRConfig\000"
 13544      45545243 
 13544      6F6E6669 
 13544      6700
 13545              	.LASF100:
 13546 0e69 54494D5F 		.ascii	"TIM_DeInit\000"
 13546      4465496E 
 13546      697400
 13547              	.LASF156:
 13548 0e74 54494D5F 		.ascii	"TIM_OC3FastConfig\000"
 13548      4F433346 
 13548      61737443 
 13548      6F6E6669 
 13548      6700
 13549              	.LASF151:
 13550 0e86 54494D5F 		.ascii	"TIM_OC3PreloadConfig\000"
 13550      4F433350 
 13550      72656C6F 
 13550      6164436F 
 13550      6E666967 
 13551              	.LASF92:
 13552 0e9b 54494D5F 		.ascii	"TIM_SetIC4Prescaler\000"
 13552      53657449 
 13552      43345072 
 13552      65736361 
 13552      6C657200 
 13553              	.LASF153:
 13554 0eaf 54494D5F 		.ascii	"TIM_OC1FastConfig\000"
 13554      4F433146 
 13554      61737443 
 13554      6F6E6669 
 13554      6700
 13555              		.ident	"GCC: (GNU Tools for ARM Embedded Processors) 4.9.3 20150303 (release) [ARM/embedded-4_9-br
ARM GAS  /var/folders/7z/kps_xzfj7sn5l5gkyq8s9db00000gn/T//ccc38Eju.s 			page 253


DEFINED SYMBOLS
                            *ABS*:0000000000000000 stm32f4xx_tim.c
/var/folders/7z/kps_xzfj7sn5l5gkyq8s9db00000gn/T//ccc38Eju.s:21     .text.TIM_DeInit:0000000000000000 $t
/var/folders/7z/kps_xzfj7sn5l5gkyq8s9db00000gn/T//ccc38Eju.s:27     .text.TIM_DeInit:0000000000000000 TIM_DeInit
/var/folders/7z/kps_xzfj7sn5l5gkyq8s9db00000gn/T//ccc38Eju.s:376    .text.TIM_DeInit:0000000000000184 $d
/var/folders/7z/kps_xzfj7sn5l5gkyq8s9db00000gn/T//ccc38Eju.s:393    .text.TIM_TimeBaseInit:0000000000000000 $t
/var/folders/7z/kps_xzfj7sn5l5gkyq8s9db00000gn/T//ccc38Eju.s:399    .text.TIM_TimeBaseInit:0000000000000000 TIM_TimeBaseInit
/var/folders/7z/kps_xzfj7sn5l5gkyq8s9db00000gn/T//ccc38Eju.s:539    .text.TIM_TimeBaseInit:000000000000008c $d
/var/folders/7z/kps_xzfj7sn5l5gkyq8s9db00000gn/T//ccc38Eju.s:546    .text.TIM_TimeBaseStructInit:0000000000000000 $t
/var/folders/7z/kps_xzfj7sn5l5gkyq8s9db00000gn/T//ccc38Eju.s:552    .text.TIM_TimeBaseStructInit:0000000000000000 TIM_TimeBaseStructInit
/var/folders/7z/kps_xzfj7sn5l5gkyq8s9db00000gn/T//ccc38Eju.s:578    .text.TIM_PrescalerConfig:0000000000000000 $t
/var/folders/7z/kps_xzfj7sn5l5gkyq8s9db00000gn/T//ccc38Eju.s:584    .text.TIM_PrescalerConfig:0000000000000000 TIM_PrescalerConfig
/var/folders/7z/kps_xzfj7sn5l5gkyq8s9db00000gn/T//ccc38Eju.s:601    .text.TIM_CounterModeConfig:0000000000000000 $t
/var/folders/7z/kps_xzfj7sn5l5gkyq8s9db00000gn/T//ccc38Eju.s:607    .text.TIM_CounterModeConfig:0000000000000000 TIM_CounterModeConfig
/var/folders/7z/kps_xzfj7sn5l5gkyq8s9db00000gn/T//ccc38Eju.s:634    .text.TIM_SetCounter:0000000000000000 $t
/var/folders/7z/kps_xzfj7sn5l5gkyq8s9db00000gn/T//ccc38Eju.s:640    .text.TIM_SetCounter:0000000000000000 TIM_SetCounter
/var/folders/7z/kps_xzfj7sn5l5gkyq8s9db00000gn/T//ccc38Eju.s:655    .text.TIM_SetAutoreload:0000000000000000 $t
/var/folders/7z/kps_xzfj7sn5l5gkyq8s9db00000gn/T//ccc38Eju.s:661    .text.TIM_SetAutoreload:0000000000000000 TIM_SetAutoreload
/var/folders/7z/kps_xzfj7sn5l5gkyq8s9db00000gn/T//ccc38Eju.s:676    .text.TIM_GetCounter:0000000000000000 $t
/var/folders/7z/kps_xzfj7sn5l5gkyq8s9db00000gn/T//ccc38Eju.s:682    .text.TIM_GetCounter:0000000000000000 TIM_GetCounter
/var/folders/7z/kps_xzfj7sn5l5gkyq8s9db00000gn/T//ccc38Eju.s:699    .text.TIM_GetPrescaler:0000000000000000 $t
/var/folders/7z/kps_xzfj7sn5l5gkyq8s9db00000gn/T//ccc38Eju.s:705    .text.TIM_GetPrescaler:0000000000000000 TIM_GetPrescaler
/var/folders/7z/kps_xzfj7sn5l5gkyq8s9db00000gn/T//ccc38Eju.s:723    .text.TIM_UpdateDisableConfig:0000000000000000 $t
/var/folders/7z/kps_xzfj7sn5l5gkyq8s9db00000gn/T//ccc38Eju.s:729    .text.TIM_UpdateDisableConfig:0000000000000000 TIM_UpdateDisableConfig
/var/folders/7z/kps_xzfj7sn5l5gkyq8s9db00000gn/T//ccc38Eju.s:757    .text.TIM_UpdateRequestConfig:0000000000000000 $t
/var/folders/7z/kps_xzfj7sn5l5gkyq8s9db00000gn/T//ccc38Eju.s:763    .text.TIM_UpdateRequestConfig:0000000000000000 TIM_UpdateRequestConfig
/var/folders/7z/kps_xzfj7sn5l5gkyq8s9db00000gn/T//ccc38Eju.s:791    .text.TIM_ARRPreloadConfig:0000000000000000 $t
/var/folders/7z/kps_xzfj7sn5l5gkyq8s9db00000gn/T//ccc38Eju.s:797    .text.TIM_ARRPreloadConfig:0000000000000000 TIM_ARRPreloadConfig
/var/folders/7z/kps_xzfj7sn5l5gkyq8s9db00000gn/T//ccc38Eju.s:825    .text.TIM_SelectOnePulseMode:0000000000000000 $t
/var/folders/7z/kps_xzfj7sn5l5gkyq8s9db00000gn/T//ccc38Eju.s:831    .text.TIM_SelectOnePulseMode:0000000000000000 TIM_SelectOnePulseMode
/var/folders/7z/kps_xzfj7sn5l5gkyq8s9db00000gn/T//ccc38Eju.s:856    .text.TIM_SetClockDivision:0000000000000000 $t
/var/folders/7z/kps_xzfj7sn5l5gkyq8s9db00000gn/T//ccc38Eju.s:862    .text.TIM_SetClockDivision:0000000000000000 TIM_SetClockDivision
/var/folders/7z/kps_xzfj7sn5l5gkyq8s9db00000gn/T//ccc38Eju.s:887    .text.TIM_Cmd:0000000000000000 $t
/var/folders/7z/kps_xzfj7sn5l5gkyq8s9db00000gn/T//ccc38Eju.s:893    .text.TIM_Cmd:0000000000000000 TIM_Cmd
/var/folders/7z/kps_xzfj7sn5l5gkyq8s9db00000gn/T//ccc38Eju.s:921    .text.TIM_OC1Init:0000000000000000 $t
/var/folders/7z/kps_xzfj7sn5l5gkyq8s9db00000gn/T//ccc38Eju.s:927    .text.TIM_OC1Init:0000000000000000 TIM_OC1Init
/var/folders/7z/kps_xzfj7sn5l5gkyq8s9db00000gn/T//ccc38Eju.s:1038   .text.TIM_OC1Init:000000000000007c $d
/var/folders/7z/kps_xzfj7sn5l5gkyq8s9db00000gn/T//ccc38Eju.s:1044   .text.TIM_OC2Init:0000000000000000 $t
/var/folders/7z/kps_xzfj7sn5l5gkyq8s9db00000gn/T//ccc38Eju.s:1050   .text.TIM_OC2Init:0000000000000000 TIM_OC2Init
/var/folders/7z/kps_xzfj7sn5l5gkyq8s9db00000gn/T//ccc38Eju.s:1175   .text.TIM_OC2Init:0000000000000088 $d
/var/folders/7z/kps_xzfj7sn5l5gkyq8s9db00000gn/T//ccc38Eju.s:1181   .text.TIM_OC3Init:0000000000000000 $t
/var/folders/7z/kps_xzfj7sn5l5gkyq8s9db00000gn/T//ccc38Eju.s:1187   .text.TIM_OC3Init:0000000000000000 TIM_OC3Init
/var/folders/7z/kps_xzfj7sn5l5gkyq8s9db00000gn/T//ccc38Eju.s:1310   .text.TIM_OC3Init:0000000000000088 $d
/var/folders/7z/kps_xzfj7sn5l5gkyq8s9db00000gn/T//ccc38Eju.s:1316   .text.TIM_OC4Init:0000000000000000 $t
/var/folders/7z/kps_xzfj7sn5l5gkyq8s9db00000gn/T//ccc38Eju.s:1322   .text.TIM_OC4Init:0000000000000000 TIM_OC4Init
/var/folders/7z/kps_xzfj7sn5l5gkyq8s9db00000gn/T//ccc38Eju.s:1423   .text.TIM_OC4Init:000000000000006c $d
/var/folders/7z/kps_xzfj7sn5l5gkyq8s9db00000gn/T//ccc38Eju.s:1429   .text.TIM_OCStructInit:0000000000000000 $t
/var/folders/7z/kps_xzfj7sn5l5gkyq8s9db00000gn/T//ccc38Eju.s:1435   .text.TIM_OCStructInit:0000000000000000 TIM_OCStructInit
/var/folders/7z/kps_xzfj7sn5l5gkyq8s9db00000gn/T//ccc38Eju.s:1465   .text.TIM_SelectOCxM:0000000000000000 $t
/var/folders/7z/kps_xzfj7sn5l5gkyq8s9db00000gn/T//ccc38Eju.s:1471   .text.TIM_SelectOCxM:0000000000000000 TIM_SelectOCxM
/var/folders/7z/kps_xzfj7sn5l5gkyq8s9db00000gn/T//ccc38Eju.s:1553   .text.TIM_SetCompare1:0000000000000000 $t
/var/folders/7z/kps_xzfj7sn5l5gkyq8s9db00000gn/T//ccc38Eju.s:1559   .text.TIM_SetCompare1:0000000000000000 TIM_SetCompare1
/var/folders/7z/kps_xzfj7sn5l5gkyq8s9db00000gn/T//ccc38Eju.s:1574   .text.TIM_SetCompare2:0000000000000000 $t
/var/folders/7z/kps_xzfj7sn5l5gkyq8s9db00000gn/T//ccc38Eju.s:1580   .text.TIM_SetCompare2:0000000000000000 TIM_SetCompare2
/var/folders/7z/kps_xzfj7sn5l5gkyq8s9db00000gn/T//ccc38Eju.s:1595   .text.TIM_SetCompare3:0000000000000000 $t
/var/folders/7z/kps_xzfj7sn5l5gkyq8s9db00000gn/T//ccc38Eju.s:1601   .text.TIM_SetCompare3:0000000000000000 TIM_SetCompare3
/var/folders/7z/kps_xzfj7sn5l5gkyq8s9db00000gn/T//ccc38Eju.s:1616   .text.TIM_SetCompare4:0000000000000000 $t
ARM GAS  /var/folders/7z/kps_xzfj7sn5l5gkyq8s9db00000gn/T//ccc38Eju.s 			page 254


/var/folders/7z/kps_xzfj7sn5l5gkyq8s9db00000gn/T//ccc38Eju.s:1622   .text.TIM_SetCompare4:0000000000000000 TIM_SetCompare4
/var/folders/7z/kps_xzfj7sn5l5gkyq8s9db00000gn/T//ccc38Eju.s:1637   .text.TIM_ForcedOC1Config:0000000000000000 $t
/var/folders/7z/kps_xzfj7sn5l5gkyq8s9db00000gn/T//ccc38Eju.s:1643   .text.TIM_ForcedOC1Config:0000000000000000 TIM_ForcedOC1Config
/var/folders/7z/kps_xzfj7sn5l5gkyq8s9db00000gn/T//ccc38Eju.s:1670   .text.TIM_ForcedOC2Config:0000000000000000 $t
/var/folders/7z/kps_xzfj7sn5l5gkyq8s9db00000gn/T//ccc38Eju.s:1676   .text.TIM_ForcedOC2Config:0000000000000000 TIM_ForcedOC2Config
/var/folders/7z/kps_xzfj7sn5l5gkyq8s9db00000gn/T//ccc38Eju.s:1705   .text.TIM_ForcedOC3Config:0000000000000000 $t
/var/folders/7z/kps_xzfj7sn5l5gkyq8s9db00000gn/T//ccc38Eju.s:1711   .text.TIM_ForcedOC3Config:0000000000000000 TIM_ForcedOC3Config
/var/folders/7z/kps_xzfj7sn5l5gkyq8s9db00000gn/T//ccc38Eju.s:1738   .text.TIM_ForcedOC4Config:0000000000000000 $t
/var/folders/7z/kps_xzfj7sn5l5gkyq8s9db00000gn/T//ccc38Eju.s:1744   .text.TIM_ForcedOC4Config:0000000000000000 TIM_ForcedOC4Config
/var/folders/7z/kps_xzfj7sn5l5gkyq8s9db00000gn/T//ccc38Eju.s:1773   .text.TIM_OC1PreloadConfig:0000000000000000 $t
/var/folders/7z/kps_xzfj7sn5l5gkyq8s9db00000gn/T//ccc38Eju.s:1779   .text.TIM_OC1PreloadConfig:0000000000000000 TIM_OC1PreloadConfig
/var/folders/7z/kps_xzfj7sn5l5gkyq8s9db00000gn/T//ccc38Eju.s:1806   .text.TIM_OC2PreloadConfig:0000000000000000 $t
/var/folders/7z/kps_xzfj7sn5l5gkyq8s9db00000gn/T//ccc38Eju.s:1812   .text.TIM_OC2PreloadConfig:0000000000000000 TIM_OC2PreloadConfig
/var/folders/7z/kps_xzfj7sn5l5gkyq8s9db00000gn/T//ccc38Eju.s:1841   .text.TIM_OC3PreloadConfig:0000000000000000 $t
/var/folders/7z/kps_xzfj7sn5l5gkyq8s9db00000gn/T//ccc38Eju.s:1847   .text.TIM_OC3PreloadConfig:0000000000000000 TIM_OC3PreloadConfig
/var/folders/7z/kps_xzfj7sn5l5gkyq8s9db00000gn/T//ccc38Eju.s:1874   .text.TIM_OC4PreloadConfig:0000000000000000 $t
/var/folders/7z/kps_xzfj7sn5l5gkyq8s9db00000gn/T//ccc38Eju.s:1880   .text.TIM_OC4PreloadConfig:0000000000000000 TIM_OC4PreloadConfig
/var/folders/7z/kps_xzfj7sn5l5gkyq8s9db00000gn/T//ccc38Eju.s:1909   .text.TIM_OC1FastConfig:0000000000000000 $t
/var/folders/7z/kps_xzfj7sn5l5gkyq8s9db00000gn/T//ccc38Eju.s:1915   .text.TIM_OC1FastConfig:0000000000000000 TIM_OC1FastConfig
/var/folders/7z/kps_xzfj7sn5l5gkyq8s9db00000gn/T//ccc38Eju.s:1942   .text.TIM_OC2FastConfig:0000000000000000 $t
/var/folders/7z/kps_xzfj7sn5l5gkyq8s9db00000gn/T//ccc38Eju.s:1948   .text.TIM_OC2FastConfig:0000000000000000 TIM_OC2FastConfig
/var/folders/7z/kps_xzfj7sn5l5gkyq8s9db00000gn/T//ccc38Eju.s:1977   .text.TIM_OC3FastConfig:0000000000000000 $t
/var/folders/7z/kps_xzfj7sn5l5gkyq8s9db00000gn/T//ccc38Eju.s:1983   .text.TIM_OC3FastConfig:0000000000000000 TIM_OC3FastConfig
/var/folders/7z/kps_xzfj7sn5l5gkyq8s9db00000gn/T//ccc38Eju.s:2010   .text.TIM_OC4FastConfig:0000000000000000 $t
/var/folders/7z/kps_xzfj7sn5l5gkyq8s9db00000gn/T//ccc38Eju.s:2016   .text.TIM_OC4FastConfig:0000000000000000 TIM_OC4FastConfig
/var/folders/7z/kps_xzfj7sn5l5gkyq8s9db00000gn/T//ccc38Eju.s:2045   .text.TIM_ClearOC1Ref:0000000000000000 $t
/var/folders/7z/kps_xzfj7sn5l5gkyq8s9db00000gn/T//ccc38Eju.s:2051   .text.TIM_ClearOC1Ref:0000000000000000 TIM_ClearOC1Ref
/var/folders/7z/kps_xzfj7sn5l5gkyq8s9db00000gn/T//ccc38Eju.s:2078   .text.TIM_ClearOC2Ref:0000000000000000 $t
/var/folders/7z/kps_xzfj7sn5l5gkyq8s9db00000gn/T//ccc38Eju.s:2084   .text.TIM_ClearOC2Ref:0000000000000000 TIM_ClearOC2Ref
/var/folders/7z/kps_xzfj7sn5l5gkyq8s9db00000gn/T//ccc38Eju.s:2110   .text.TIM_ClearOC3Ref:0000000000000000 $t
/var/folders/7z/kps_xzfj7sn5l5gkyq8s9db00000gn/T//ccc38Eju.s:2116   .text.TIM_ClearOC3Ref:0000000000000000 TIM_ClearOC3Ref
/var/folders/7z/kps_xzfj7sn5l5gkyq8s9db00000gn/T//ccc38Eju.s:2143   .text.TIM_ClearOC4Ref:0000000000000000 $t
/var/folders/7z/kps_xzfj7sn5l5gkyq8s9db00000gn/T//ccc38Eju.s:2149   .text.TIM_ClearOC4Ref:0000000000000000 TIM_ClearOC4Ref
/var/folders/7z/kps_xzfj7sn5l5gkyq8s9db00000gn/T//ccc38Eju.s:2175   .text.TIM_OC1PolarityConfig:0000000000000000 $t
/var/folders/7z/kps_xzfj7sn5l5gkyq8s9db00000gn/T//ccc38Eju.s:2181   .text.TIM_OC1PolarityConfig:0000000000000000 TIM_OC1PolarityConfig
/var/folders/7z/kps_xzfj7sn5l5gkyq8s9db00000gn/T//ccc38Eju.s:2208   .text.TIM_OC1NPolarityConfig:0000000000000000 $t
/var/folders/7z/kps_xzfj7sn5l5gkyq8s9db00000gn/T//ccc38Eju.s:2214   .text.TIM_OC1NPolarityConfig:0000000000000000 TIM_OC1NPolarityConfig
/var/folders/7z/kps_xzfj7sn5l5gkyq8s9db00000gn/T//ccc38Eju.s:2241   .text.TIM_OC2PolarityConfig:0000000000000000 $t
/var/folders/7z/kps_xzfj7sn5l5gkyq8s9db00000gn/T//ccc38Eju.s:2247   .text.TIM_OC2PolarityConfig:0000000000000000 TIM_OC2PolarityConfig
/var/folders/7z/kps_xzfj7sn5l5gkyq8s9db00000gn/T//ccc38Eju.s:2276   .text.TIM_OC2NPolarityConfig:0000000000000000 $t
/var/folders/7z/kps_xzfj7sn5l5gkyq8s9db00000gn/T//ccc38Eju.s:2282   .text.TIM_OC2NPolarityConfig:0000000000000000 TIM_OC2NPolarityConfig
/var/folders/7z/kps_xzfj7sn5l5gkyq8s9db00000gn/T//ccc38Eju.s:2311   .text.TIM_OC3PolarityConfig:0000000000000000 $t
/var/folders/7z/kps_xzfj7sn5l5gkyq8s9db00000gn/T//ccc38Eju.s:2317   .text.TIM_OC3PolarityConfig:0000000000000000 TIM_OC3PolarityConfig
/var/folders/7z/kps_xzfj7sn5l5gkyq8s9db00000gn/T//ccc38Eju.s:2346   .text.TIM_OC3NPolarityConfig:0000000000000000 $t
/var/folders/7z/kps_xzfj7sn5l5gkyq8s9db00000gn/T//ccc38Eju.s:2352   .text.TIM_OC3NPolarityConfig:0000000000000000 TIM_OC3NPolarityConfig
/var/folders/7z/kps_xzfj7sn5l5gkyq8s9db00000gn/T//ccc38Eju.s:2381   .text.TIM_OC4PolarityConfig:0000000000000000 $t
/var/folders/7z/kps_xzfj7sn5l5gkyq8s9db00000gn/T//ccc38Eju.s:2387   .text.TIM_OC4PolarityConfig:0000000000000000 TIM_OC4PolarityConfig
/var/folders/7z/kps_xzfj7sn5l5gkyq8s9db00000gn/T//ccc38Eju.s:2416   .text.TIM_CCxCmd:0000000000000000 $t
/var/folders/7z/kps_xzfj7sn5l5gkyq8s9db00000gn/T//ccc38Eju.s:2422   .text.TIM_CCxCmd:0000000000000000 TIM_CCxCmd
/var/folders/7z/kps_xzfj7sn5l5gkyq8s9db00000gn/T//ccc38Eju.s:2462   .text.TIM_CCxNCmd:0000000000000000 $t
/var/folders/7z/kps_xzfj7sn5l5gkyq8s9db00000gn/T//ccc38Eju.s:2468   .text.TIM_CCxNCmd:0000000000000000 TIM_CCxNCmd
/var/folders/7z/kps_xzfj7sn5l5gkyq8s9db00000gn/T//ccc38Eju.s:2508   .text.TIM_ICInit:0000000000000000 $t
/var/folders/7z/kps_xzfj7sn5l5gkyq8s9db00000gn/T//ccc38Eju.s:2514   .text.TIM_ICInit:0000000000000000 TIM_ICInit
/var/folders/7z/kps_xzfj7sn5l5gkyq8s9db00000gn/T//ccc38Eju.s:2849   .text.TIM_ICStructInit:0000000000000000 $t
/var/folders/7z/kps_xzfj7sn5l5gkyq8s9db00000gn/T//ccc38Eju.s:2855   .text.TIM_ICStructInit:0000000000000000 TIM_ICStructInit
/var/folders/7z/kps_xzfj7sn5l5gkyq8s9db00000gn/T//ccc38Eju.s:2881   .text.TIM_PWMIConfig:0000000000000000 $t
/var/folders/7z/kps_xzfj7sn5l5gkyq8s9db00000gn/T//ccc38Eju.s:2887   .text.TIM_PWMIConfig:0000000000000000 TIM_PWMIConfig
ARM GAS  /var/folders/7z/kps_xzfj7sn5l5gkyq8s9db00000gn/T//ccc38Eju.s 			page 255


/var/folders/7z/kps_xzfj7sn5l5gkyq8s9db00000gn/T//ccc38Eju.s:3193   .text.TIM_GetCapture1:0000000000000000 $t
/var/folders/7z/kps_xzfj7sn5l5gkyq8s9db00000gn/T//ccc38Eju.s:3199   .text.TIM_GetCapture1:0000000000000000 TIM_GetCapture1
/var/folders/7z/kps_xzfj7sn5l5gkyq8s9db00000gn/T//ccc38Eju.s:3216   .text.TIM_GetCapture2:0000000000000000 $t
/var/folders/7z/kps_xzfj7sn5l5gkyq8s9db00000gn/T//ccc38Eju.s:3222   .text.TIM_GetCapture2:0000000000000000 TIM_GetCapture2
/var/folders/7z/kps_xzfj7sn5l5gkyq8s9db00000gn/T//ccc38Eju.s:3239   .text.TIM_GetCapture3:0000000000000000 $t
/var/folders/7z/kps_xzfj7sn5l5gkyq8s9db00000gn/T//ccc38Eju.s:3245   .text.TIM_GetCapture3:0000000000000000 TIM_GetCapture3
/var/folders/7z/kps_xzfj7sn5l5gkyq8s9db00000gn/T//ccc38Eju.s:3262   .text.TIM_GetCapture4:0000000000000000 $t
/var/folders/7z/kps_xzfj7sn5l5gkyq8s9db00000gn/T//ccc38Eju.s:3268   .text.TIM_GetCapture4:0000000000000000 TIM_GetCapture4
/var/folders/7z/kps_xzfj7sn5l5gkyq8s9db00000gn/T//ccc38Eju.s:3285   .text.TIM_SetIC1Prescaler:0000000000000000 $t
/var/folders/7z/kps_xzfj7sn5l5gkyq8s9db00000gn/T//ccc38Eju.s:3291   .text.TIM_SetIC1Prescaler:0000000000000000 TIM_SetIC1Prescaler
/var/folders/7z/kps_xzfj7sn5l5gkyq8s9db00000gn/T//ccc38Eju.s:3316   .text.TIM_SetIC2Prescaler:0000000000000000 $t
/var/folders/7z/kps_xzfj7sn5l5gkyq8s9db00000gn/T//ccc38Eju.s:3322   .text.TIM_SetIC2Prescaler:0000000000000000 TIM_SetIC2Prescaler
/var/folders/7z/kps_xzfj7sn5l5gkyq8s9db00000gn/T//ccc38Eju.s:3348   .text.TIM_SetIC3Prescaler:0000000000000000 $t
/var/folders/7z/kps_xzfj7sn5l5gkyq8s9db00000gn/T//ccc38Eju.s:3354   .text.TIM_SetIC3Prescaler:0000000000000000 TIM_SetIC3Prescaler
/var/folders/7z/kps_xzfj7sn5l5gkyq8s9db00000gn/T//ccc38Eju.s:3379   .text.TIM_SetIC4Prescaler:0000000000000000 $t
/var/folders/7z/kps_xzfj7sn5l5gkyq8s9db00000gn/T//ccc38Eju.s:3385   .text.TIM_SetIC4Prescaler:0000000000000000 TIM_SetIC4Prescaler
/var/folders/7z/kps_xzfj7sn5l5gkyq8s9db00000gn/T//ccc38Eju.s:3411   .text.TIM_BDTRConfig:0000000000000000 $t
/var/folders/7z/kps_xzfj7sn5l5gkyq8s9db00000gn/T//ccc38Eju.s:3417   .text.TIM_BDTRConfig:0000000000000000 TIM_BDTRConfig
/var/folders/7z/kps_xzfj7sn5l5gkyq8s9db00000gn/T//ccc38Eju.s:3452   .text.TIM_BDTRStructInit:0000000000000000 $t
/var/folders/7z/kps_xzfj7sn5l5gkyq8s9db00000gn/T//ccc38Eju.s:3458   .text.TIM_BDTRStructInit:0000000000000000 TIM_BDTRStructInit
/var/folders/7z/kps_xzfj7sn5l5gkyq8s9db00000gn/T//ccc38Eju.s:3486   .text.TIM_CtrlPWMOutputs:0000000000000000 $t
/var/folders/7z/kps_xzfj7sn5l5gkyq8s9db00000gn/T//ccc38Eju.s:3492   .text.TIM_CtrlPWMOutputs:0000000000000000 TIM_CtrlPWMOutputs
/var/folders/7z/kps_xzfj7sn5l5gkyq8s9db00000gn/T//ccc38Eju.s:3519   .text.TIM_SelectCOM:0000000000000000 $t
/var/folders/7z/kps_xzfj7sn5l5gkyq8s9db00000gn/T//ccc38Eju.s:3525   .text.TIM_SelectCOM:0000000000000000 TIM_SelectCOM
/var/folders/7z/kps_xzfj7sn5l5gkyq8s9db00000gn/T//ccc38Eju.s:3553   .text.TIM_CCPreloadControl:0000000000000000 $t
/var/folders/7z/kps_xzfj7sn5l5gkyq8s9db00000gn/T//ccc38Eju.s:3559   .text.TIM_CCPreloadControl:0000000000000000 TIM_CCPreloadControl
/var/folders/7z/kps_xzfj7sn5l5gkyq8s9db00000gn/T//ccc38Eju.s:3587   .text.TIM_ITConfig:0000000000000000 $t
/var/folders/7z/kps_xzfj7sn5l5gkyq8s9db00000gn/T//ccc38Eju.s:3593   .text.TIM_ITConfig:0000000000000000 TIM_ITConfig
/var/folders/7z/kps_xzfj7sn5l5gkyq8s9db00000gn/T//ccc38Eju.s:3622   .text.TIM_GenerateEvent:0000000000000000 $t
/var/folders/7z/kps_xzfj7sn5l5gkyq8s9db00000gn/T//ccc38Eju.s:3628   .text.TIM_GenerateEvent:0000000000000000 TIM_GenerateEvent
/var/folders/7z/kps_xzfj7sn5l5gkyq8s9db00000gn/T//ccc38Eju.s:3643   .text.TIM_GetFlagStatus:0000000000000000 $t
/var/folders/7z/kps_xzfj7sn5l5gkyq8s9db00000gn/T//ccc38Eju.s:3649   .text.TIM_GetFlagStatus:0000000000000000 TIM_GetFlagStatus
/var/folders/7z/kps_xzfj7sn5l5gkyq8s9db00000gn/T//ccc38Eju.s:3671   .text.TIM_ClearFlag:0000000000000000 $t
/var/folders/7z/kps_xzfj7sn5l5gkyq8s9db00000gn/T//ccc38Eju.s:3677   .text.TIM_ClearFlag:0000000000000000 TIM_ClearFlag
/var/folders/7z/kps_xzfj7sn5l5gkyq8s9db00000gn/T//ccc38Eju.s:3695   .text.TIM_GetITStatus:0000000000000000 $t
/var/folders/7z/kps_xzfj7sn5l5gkyq8s9db00000gn/T//ccc38Eju.s:3701   .text.TIM_GetITStatus:0000000000000000 TIM_GetITStatus
/var/folders/7z/kps_xzfj7sn5l5gkyq8s9db00000gn/T//ccc38Eju.s:3736   .text.TIM_ClearITPendingBit:0000000000000000 $t
/var/folders/7z/kps_xzfj7sn5l5gkyq8s9db00000gn/T//ccc38Eju.s:3742   .text.TIM_ClearITPendingBit:0000000000000000 TIM_ClearITPendingBit
/var/folders/7z/kps_xzfj7sn5l5gkyq8s9db00000gn/T//ccc38Eju.s:3760   .text.TIM_DMAConfig:0000000000000000 $t
/var/folders/7z/kps_xzfj7sn5l5gkyq8s9db00000gn/T//ccc38Eju.s:3766   .text.TIM_DMAConfig:0000000000000000 TIM_DMAConfig
/var/folders/7z/kps_xzfj7sn5l5gkyq8s9db00000gn/T//ccc38Eju.s:3783   .text.TIM_DMACmd:0000000000000000 $t
/var/folders/7z/kps_xzfj7sn5l5gkyq8s9db00000gn/T//ccc38Eju.s:3789   .text.TIM_DMACmd:0000000000000000 TIM_DMACmd
/var/folders/7z/kps_xzfj7sn5l5gkyq8s9db00000gn/T//ccc38Eju.s:3818   .text.TIM_SelectCCDMA:0000000000000000 $t
/var/folders/7z/kps_xzfj7sn5l5gkyq8s9db00000gn/T//ccc38Eju.s:3824   .text.TIM_SelectCCDMA:0000000000000000 TIM_SelectCCDMA
/var/folders/7z/kps_xzfj7sn5l5gkyq8s9db00000gn/T//ccc38Eju.s:3852   .text.TIM_InternalClockConfig:0000000000000000 $t
/var/folders/7z/kps_xzfj7sn5l5gkyq8s9db00000gn/T//ccc38Eju.s:3858   .text.TIM_InternalClockConfig:0000000000000000 TIM_InternalClockConfig
/var/folders/7z/kps_xzfj7sn5l5gkyq8s9db00000gn/T//ccc38Eju.s:3877   .text.TIM_ITRxExternalClockConfig:0000000000000000 $t
/var/folders/7z/kps_xzfj7sn5l5gkyq8s9db00000gn/T//ccc38Eju.s:3883   .text.TIM_ITRxExternalClockConfig:0000000000000000 TIM_ITRxExternalClockConfig
/var/folders/7z/kps_xzfj7sn5l5gkyq8s9db00000gn/T//ccc38Eju.s:3919   .text.TIM_TIxExternalClockConfig:0000000000000000 $t
/var/folders/7z/kps_xzfj7sn5l5gkyq8s9db00000gn/T//ccc38Eju.s:3925   .text.TIM_TIxExternalClockConfig:0000000000000000 TIM_TIxExternalClockConfig
/var/folders/7z/kps_xzfj7sn5l5gkyq8s9db00000gn/T//ccc38Eju.s:4074   .text.TIM_ETRClockMode1Config:0000000000000000 $t
/var/folders/7z/kps_xzfj7sn5l5gkyq8s9db00000gn/T//ccc38Eju.s:4080   .text.TIM_ETRClockMode1Config:0000000000000000 TIM_ETRClockMode1Config
/var/folders/7z/kps_xzfj7sn5l5gkyq8s9db00000gn/T//ccc38Eju.s:4135   .text.TIM_ETRClockMode2Config:0000000000000000 $t
/var/folders/7z/kps_xzfj7sn5l5gkyq8s9db00000gn/T//ccc38Eju.s:4141   .text.TIM_ETRClockMode2Config:0000000000000000 TIM_ETRClockMode2Config
/var/folders/7z/kps_xzfj7sn5l5gkyq8s9db00000gn/T//ccc38Eju.s:4188   .text.TIM_SelectInputTrigger:0000000000000000 $t
/var/folders/7z/kps_xzfj7sn5l5gkyq8s9db00000gn/T//ccc38Eju.s:4194   .text.TIM_SelectInputTrigger:0000000000000000 TIM_SelectInputTrigger
/var/folders/7z/kps_xzfj7sn5l5gkyq8s9db00000gn/T//ccc38Eju.s:4221   .text.TIM_SelectOutputTrigger:0000000000000000 $t
ARM GAS  /var/folders/7z/kps_xzfj7sn5l5gkyq8s9db00000gn/T//ccc38Eju.s 			page 256


/var/folders/7z/kps_xzfj7sn5l5gkyq8s9db00000gn/T//ccc38Eju.s:4227   .text.TIM_SelectOutputTrigger:0000000000000000 TIM_SelectOutputTrigger
/var/folders/7z/kps_xzfj7sn5l5gkyq8s9db00000gn/T//ccc38Eju.s:4252   .text.TIM_SelectSlaveMode:0000000000000000 $t
/var/folders/7z/kps_xzfj7sn5l5gkyq8s9db00000gn/T//ccc38Eju.s:4258   .text.TIM_SelectSlaveMode:0000000000000000 TIM_SelectSlaveMode
/var/folders/7z/kps_xzfj7sn5l5gkyq8s9db00000gn/T//ccc38Eju.s:4283   .text.TIM_SelectMasterSlaveMode:0000000000000000 $t
/var/folders/7z/kps_xzfj7sn5l5gkyq8s9db00000gn/T//ccc38Eju.s:4289   .text.TIM_SelectMasterSlaveMode:0000000000000000 TIM_SelectMasterSlaveMode
/var/folders/7z/kps_xzfj7sn5l5gkyq8s9db00000gn/T//ccc38Eju.s:4314   .text.TIM_ETRConfig:0000000000000000 $t
/var/folders/7z/kps_xzfj7sn5l5gkyq8s9db00000gn/T//ccc38Eju.s:4320   .text.TIM_ETRConfig:0000000000000000 TIM_ETRConfig
/var/folders/7z/kps_xzfj7sn5l5gkyq8s9db00000gn/T//ccc38Eju.s:4357   .text.TIM_EncoderInterfaceConfig:0000000000000000 $t
/var/folders/7z/kps_xzfj7sn5l5gkyq8s9db00000gn/T//ccc38Eju.s:4363   .text.TIM_EncoderInterfaceConfig:0000000000000000 TIM_EncoderInterfaceConfig
/var/folders/7z/kps_xzfj7sn5l5gkyq8s9db00000gn/T//ccc38Eju.s:4440   .text.TIM_SelectHallSensor:0000000000000000 $t
/var/folders/7z/kps_xzfj7sn5l5gkyq8s9db00000gn/T//ccc38Eju.s:4446   .text.TIM_SelectHallSensor:0000000000000000 TIM_SelectHallSensor
/var/folders/7z/kps_xzfj7sn5l5gkyq8s9db00000gn/T//ccc38Eju.s:4474   .text.TIM_RemapConfig:0000000000000000 $t
/var/folders/7z/kps_xzfj7sn5l5gkyq8s9db00000gn/T//ccc38Eju.s:4480   .text.TIM_RemapConfig:0000000000000000 TIM_RemapConfig
                     .debug_frame:0000000000000010 $d
/var/folders/7z/kps_xzfj7sn5l5gkyq8s9db00000gn/T//ccc38Eju.s:392    .text.TIM_DeInit:00000000000001b8 $t
/var/folders/7z/kps_xzfj7sn5l5gkyq8s9db00000gn/T//ccc38Eju.s:545    .text.TIM_TimeBaseInit:0000000000000098 $t
/var/folders/7z/kps_xzfj7sn5l5gkyq8s9db00000gn/T//ccc38Eju.s:1043   .text.TIM_OC1Init:0000000000000084 $t
/var/folders/7z/kps_xzfj7sn5l5gkyq8s9db00000gn/T//ccc38Eju.s:1428   .text.TIM_OC4Init:0000000000000074 $t

UNDEFINED SYMBOLS
RCC_APB1PeriphResetCmd
RCC_APB2PeriphResetCmd
