ARM GAS  /var/folders/7z/kps_xzfj7sn5l5gkyq8s9db00000gn/T//ccxQbMtW.s 			page 1


   1              		.syntax unified
   2              		.cpu cortex-m4
   3              		.eabi_attribute 27, 1
   4              		.eabi_attribute 28, 1
   5              		.fpu fpv4-sp-d16
   6              		.eabi_attribute 20, 1
   7              		.eabi_attribute 21, 1
   8              		.eabi_attribute 23, 3
   9              		.eabi_attribute 24, 1
  10              		.eabi_attribute 25, 1
  11              		.eabi_attribute 26, 1
  12              		.eabi_attribute 30, 2
  13              		.eabi_attribute 34, 1
  14              		.eabi_attribute 18, 4
  15              		.thumb
  16              		.file	"stm32f4xx_spi.c"
  17              		.text
  18              	.Ltext0:
  19              		.cfi_sections	.debug_frame
  20              		.section	.text.SPI_I2S_DeInit,"ax",%progbits
  21              		.align	2
  22              		.p2align 4,,15
  23              		.global	SPI_I2S_DeInit
  24              		.thumb
  25              		.thumb_func
  26              		.type	SPI_I2S_DeInit, %function
  27              	SPI_I2S_DeInit:
  28              	.LFB111:
  29              		.file 1 "lib/ChibiOS_2.6.6/ext/stdperiph_stm32f4/src/stm32f4xx_spi.c"
  30              		.loc 1 225 0
  31              		.cfi_startproc
  32              		@ args = 0, pretend = 0, frame = 0
  33              		@ frame_needed = 0, uses_anonymous_args = 0
  34              	.LVL0:
  35 0000 08B5     		push	{r3, lr}
  36              		.cfi_def_cfa_offset 8
  37              		.cfi_offset 3, -8
  38              		.cfi_offset 14, -4
  39              		.loc 1 229 0
  40 0002 174B     		ldr	r3, .L10
  41 0004 9842     		cmp	r0, r3
  42 0006 12D0     		beq	.L7
  43              		.loc 1 236 0
  44 0008 164B     		ldr	r3, .L10+4
  45 000a 9842     		cmp	r0, r3
  46 000c 1BD0     		beq	.L8
  47              		.loc 1 245 0
  48 000e 164B     		ldr	r3, .L10+8
  49 0010 9842     		cmp	r0, r3
  50 0012 00D0     		beq	.L9
  51 0014 08BD     		pop	{r3, pc}
  52              	.L9:
  53              		.loc 1 248 0
  54 0016 4FF40040 		mov	r0, #32768
  55              	.LVL1:
  56 001a 0121     		movs	r1, #1
  57 001c FFF7FEFF 		bl	RCC_APB1PeriphResetCmd
ARM GAS  /var/folders/7z/kps_xzfj7sn5l5gkyq8s9db00000gn/T//ccxQbMtW.s 			page 2


  58              	.LVL2:
  59              		.loc 1 250 0
  60 0020 4FF40040 		mov	r0, #32768
  61 0024 0021     		movs	r1, #0
  62              		.loc 1 253 0
  63 0026 BDE80840 		pop	{r3, lr}
  64              		.cfi_remember_state
  65              		.cfi_restore 14
  66              		.cfi_restore 3
  67              		.cfi_def_cfa_offset 0
  68              		.loc 1 250 0
  69 002a FFF7FEBF 		b	RCC_APB1PeriphResetCmd
  70              	.LVL3:
  71              	.L7:
  72              		.cfi_restore_state
  73              		.loc 1 232 0
  74 002e 4FF48050 		mov	r0, #4096
  75              	.LVL4:
  76 0032 0121     		movs	r1, #1
  77 0034 FFF7FEFF 		bl	RCC_APB2PeriphResetCmd
  78              	.LVL5:
  79              		.loc 1 234 0
  80 0038 4FF48050 		mov	r0, #4096
  81 003c 0021     		movs	r1, #0
  82              		.loc 1 253 0
  83 003e BDE80840 		pop	{r3, lr}
  84              		.cfi_remember_state
  85              		.cfi_restore 14
  86              		.cfi_restore 3
  87              		.cfi_def_cfa_offset 0
  88              		.loc 1 234 0
  89 0042 FFF7FEBF 		b	RCC_APB2PeriphResetCmd
  90              	.LVL6:
  91              	.L8:
  92              		.cfi_restore_state
  93              		.loc 1 239 0
  94 0046 4FF48040 		mov	r0, #16384
  95              	.LVL7:
  96 004a 0121     		movs	r1, #1
  97 004c FFF7FEFF 		bl	RCC_APB1PeriphResetCmd
  98              	.LVL8:
  99              		.loc 1 241 0
 100 0050 4FF48040 		mov	r0, #16384
 101 0054 0021     		movs	r1, #0
 102              		.loc 1 253 0
 103 0056 BDE80840 		pop	{r3, lr}
 104              		.cfi_restore 14
 105              		.cfi_restore 3
 106              		.cfi_def_cfa_offset 0
 107              		.loc 1 241 0
 108 005a FFF7FEBF 		b	RCC_APB1PeriphResetCmd
 109              	.LVL9:
 110              	.L11:
 111 005e 00BF     		.align	2
 112              	.L10:
 113 0060 00300140 		.word	1073819648
 114 0064 00380040 		.word	1073756160
ARM GAS  /var/folders/7z/kps_xzfj7sn5l5gkyq8s9db00000gn/T//ccxQbMtW.s 			page 3


 115 0068 003C0040 		.word	1073757184
 116              		.cfi_endproc
 117              	.LFE111:
 118              		.size	SPI_I2S_DeInit, .-SPI_I2S_DeInit
 119 006c AFF30080 		.section	.text.SPI_Init,"ax",%progbits
 120              		.align	2
 121              		.p2align 4,,15
 122              		.global	SPI_Init
 123              		.thumb
 124              		.thumb_func
 125              		.type	SPI_Init, %function
 126              	SPI_Init:
 127              	.LFB112:
 128              		.loc 1 264 0
 129              		.cfi_startproc
 130              		@ args = 0, pretend = 0, frame = 0
 131              		@ frame_needed = 0, uses_anonymous_args = 0
 132              	.LVL10:
 133 0000 2DE9F041 		push	{r4, r5, r6, r7, r8, lr}
 134              		.cfi_def_cfa_offset 24
 135              		.cfi_offset 4, -24
 136              		.cfi_offset 5, -20
 137              		.cfi_offset 6, -16
 138              		.cfi_offset 7, -12
 139              		.cfi_offset 8, -8
 140              		.cfi_offset 14, -4
 141              		.loc 1 294 0
 142 0004 0B88     		ldrh	r3, [r1]
 143 0006 B1F80280 		ldrh	r8, [r1, #2]
 144 000a B1F804C0 		ldrh	ip, [r1, #4]
 145 000e CA88     		ldrh	r2, [r1, #6]
 146 0010 B1F808E0 		ldrh	lr, [r1, #8]
 147 0014 4F89     		ldrh	r7, [r1, #10]
 148 0016 8E89     		ldrh	r6, [r1, #12]
 149 0018 CC89     		ldrh	r4, [r1, #14]
 150              		.loc 1 283 0
 151 001a 0588     		ldrh	r5, [r0]
 152              	.LVL11:
 153              		.loc 1 305 0
 154 001c 098A     		ldrh	r1, [r1, #16]
 155              	.LVL12:
 156              		.loc 1 294 0
 157 001e 48EA0303 		orr	r3, r8, r3
 158 0022 43EA0C03 		orr	r3, r3, ip
 159 0026 1343     		orrs	r3, r3, r2
 160 0028 43EA0E03 		orr	r3, r3, lr
 161 002c 3B43     		orrs	r3, r3, r7
 162 002e 3343     		orrs	r3, r3, r6
 163 0030 43EA0402 		orr	r2, r3, r4
 164              		.loc 1 285 0
 165 0034 05F44153 		and	r3, r5, #12352
 166              	.LVL13:
 167              		.loc 1 294 0
 168 0038 1343     		orrs	r3, r3, r2
 169              	.LVL14:
 170 003a 9BB2     		uxth	r3, r3
 171              	.LVL15:
ARM GAS  /var/folders/7z/kps_xzfj7sn5l5gkyq8s9db00000gn/T//ccxQbMtW.s 			page 4


 172              		.loc 1 299 0
 173 003c 0380     		strh	r3, [r0]	@ movhi
 174              		.loc 1 302 0
 175 003e 838B     		ldrh	r3, [r0, #28]
 176              	.LVL16:
 177 0040 23F40063 		bic	r3, r3, #2048
 178 0044 1B04     		lsls	r3, r3, #16
 179 0046 1B0C     		lsrs	r3, r3, #16
 180 0048 8383     		strh	r3, [r0, #28]	@ movhi
 181              	.LVL17:
 182              		.loc 1 305 0
 183 004a 0182     		strh	r1, [r0, #16]	@ movhi
 184 004c BDE8F081 		pop	{r4, r5, r6, r7, r8, pc}
 185              		.cfi_endproc
 186              	.LFE112:
 187              		.size	SPI_Init, .-SPI_Init
 188              		.section	.text.I2S_Init,"ax",%progbits
 189              		.align	2
 190              		.p2align 4,,15
 191              		.global	I2S_Init
 192              		.thumb
 193              		.thumb_func
 194              		.type	I2S_Init, %function
 195              	I2S_Init:
 196              	.LFB113:
 197              		.loc 1 328 0
 198              		.cfi_startproc
 199              		@ args = 0, pretend = 0, frame = 0
 200              		@ frame_needed = 0, uses_anonymous_args = 0
 201              	.LVL18:
 202              		.loc 1 346 0
 203 0000 828B     		ldrh	r2, [r0, #28]
 204              		.loc 1 353 0
 205 0002 8B68     		ldr	r3, [r1, #8]
 206              		.loc 1 346 0
 207 0004 22F47B62 		bic	r2, r2, #4016
 208 0008 22F00F02 		bic	r2, r2, #15
 209 000c 1204     		lsls	r2, r2, #16
 210              		.loc 1 328 0
 211 000e 2DE9F043 		push	{r4, r5, r6, r7, r8, r9, lr}
 212              		.cfi_def_cfa_offset 28
 213              		.cfi_offset 4, -28
 214              		.cfi_offset 5, -24
 215              		.cfi_offset 6, -20
 216              		.cfi_offset 7, -16
 217              		.cfi_offset 8, -12
 218              		.cfi_offset 9, -8
 219              		.cfi_offset 14, -4
 220              		.loc 1 346 0
 221 0012 120C     		lsrs	r2, r2, #16
 222              		.loc 1 347 0
 223 0014 0224     		movs	r4, #2
 224              		.loc 1 346 0
 225 0016 8283     		strh	r2, [r0, #28]	@ movhi
 226              		.loc 1 347 0
 227 0018 0484     		strh	r4, [r0, #32]	@ movhi
 228              		.loc 1 350 0
ARM GAS  /var/folders/7z/kps_xzfj7sn5l5gkyq8s9db00000gn/T//ccxQbMtW.s 			page 5


 229 001a B0F81CE0 		ldrh	lr, [r0, #28]
 230              		.loc 1 353 0
 231 001e A342     		cmp	r3, r4
 232              		.loc 1 350 0
 233 0020 1FFA8EFE 		uxth	lr, lr
 234              	.LVL19:
 235              		.loc 1 353 0
 236 0024 51D0     		beq	.L28
 237              		.loc 1 389 0
 238 0026 2F4A     		ldr	r2, .L31
 239              		.loc 1 362 0
 240 0028 8F88     		ldrh	r7, [r1, #4]
 241              		.loc 1 389 0
 242 002a 9468     		ldr	r4, [r2, #8]
 243              		.loc 1 365 0
 244 002c 002F     		cmp	r7, #0
 245 002e 14BF     		ite	ne
 246 0030 4FF0020C 		movne	ip, #2
 247 0034 4FF0010C 		moveq	ip, #1
 248              	.LVL20:
 249              		.loc 1 389 0
 250 0038 2402     		lsls	r4, r4, #8
 251 003a 41D4     		bmi	.L29
 252              	.L18:
 253              		.loc 1 395 0
 254 003c 294A     		ldr	r2, .L31
 255              		.loc 1 410 0
 256 003e CE88     		ldrh	r6, [r1, #6]
 257              		.loc 1 395 0
 258 0040 D2F88450 		ldr	r5, [r2, #132]
 259              	.LVL21:
 260              		.loc 1 399 0
 261 0044 D2F88440 		ldr	r4, [r2, #132]
 262              	.LVL22:
 263              		.loc 1 403 0
 264 0048 5268     		ldr	r2, [r2, #4]
 265              	.LVL23:
 266              		.loc 1 406 0
 267 004a DFF8A080 		ldr	r8, .L31+8
 268              		.loc 1 395 0
 269 004e C5F38815 		ubfx	r5, r5, #6, #9
 270              	.LVL24:
 271              		.loc 1 410 0
 272 0052 B6F5007F 		cmp	r6, #512
 273              		.loc 1 403 0
 274 0056 02F03F09 		and	r9, r2, #63
 275              	.LVL25:
 276              		.loc 1 399 0
 277 005a C4F30272 		ubfx	r2, r4, #28, #3
 278              		.loc 1 406 0
 279 005e B8FBF9F4 		udiv	r4, r8, r9
 280              	.LVL26:
 281 0062 05FB04F4 		mul	r4, r5, r4
 282 0066 B4FBF2F4 		udiv	r4, r4, r2
 283              	.LVL27:
 284              		.loc 1 410 0
 285 006a 31D0     		beq	.L30
ARM GAS  /var/folders/7z/kps_xzfj7sn5l5gkyq8s9db00000gn/T//ccxQbMtW.s 			page 6


 286              		.loc 1 418 0
 287 006c 4FEA4C12 		lsl	r2, ip, #5
 288 0070 B4FBF2F2 		udiv	r2, r4, r2
 289 0074 02EB8202 		add	r2, r2, r2, lsl #2
 290 0078 5200     		lsls	r2, r2, #1
 291 007a B2FBF3F3 		udiv	r3, r2, r3
 292 007e 0533     		adds	r3, r3, #5
 293 0080 9AB2     		uxth	r2, r3
 294              	.LVL28:
 295              	.L20:
 296              		.loc 1 422 0
 297 0082 194B     		ldr	r3, .L31+4
 298 0084 A3FB0223 		umull	r2, r3, r3, r2
 299              	.LVL29:
 300 0088 DB08     		lsrs	r3, r3, #3
 301              	.LVL30:
 302              		.loc 1 428 0
 303 008a 5A08     		lsrs	r2, r3, #1
 304              		.loc 1 435 0
 305 008c 941E     		subs	r4, r2, #2
 306              		.loc 1 428 0
 307 008e 03F00103 		and	r3, r3, #1
 308              	.LVL31:
 309              		.loc 1 435 0
 310 0092 FD2C     		cmp	r4, #253
 311 0094 94BF     		ite	ls
 312 0096 42EA0323 		orrls	r3, r2, r3, lsl #8
 313              	.LVL32:
 314 009a 0223     		movhi	r3, #2
 315              	.LVL33:
 316              	.L21:
 317 009c 0C88     		ldrh	r4, [r1]
 318 009e 4A88     		ldrh	r2, [r1, #2]
 319 00a0 8989     		ldrh	r1, [r1, #12]
 320              	.LVL34:
 321 00a2 4EEA040E 		orr	lr, lr, r4
 322              	.LVL35:
 323 00a6 4EF4006E 		orr	lr, lr, #2048
 324 00aa 4EEA0202 		orr	r2, lr, r2
 325 00ae 0A43     		orrs	r2, r2, r1
 326              		.loc 1 443 0
 327 00b0 3343     		orrs	r3, r3, r6
 328 00b2 92B2     		uxth	r2, r2
 329 00b4 9BB2     		uxth	r3, r3
 330              		.loc 1 446 0
 331 00b6 1743     		orrs	r7, r7, r2
 332              	.LVL36:
 333              		.loc 1 443 0
 334 00b8 0384     		strh	r3, [r0, #32]	@ movhi
 335              		.loc 1 451 0
 336 00ba 8783     		strh	r7, [r0, #28]	@ movhi
 337 00bc BDE8F083 		pop	{r4, r5, r6, r7, r8, r9, pc}
 338              	.LVL37:
 339              	.L29:
 340              		.loc 1 391 0
 341 00c0 9468     		ldr	r4, [r2, #8]
 342 00c2 24F40004 		bic	r4, r4, #8388608
ARM GAS  /var/folders/7z/kps_xzfj7sn5l5gkyq8s9db00000gn/T//ccxQbMtW.s 			page 7


 343 00c6 9460     		str	r4, [r2, #8]
 344 00c8 B8E7     		b	.L18
 345              	.LVL38:
 346              	.L28:
 347 00ca 8F88     		ldrh	r7, [r1, #4]
 348 00cc CE88     		ldrh	r6, [r1, #6]
 349 00ce E5E7     		b	.L21
 350              	.LVL39:
 351              	.L30:
 352              		.loc 1 413 0
 353 00d0 240A     		lsrs	r4, r4, #8
 354              	.LVL40:
 355 00d2 04EB8404 		add	r4, r4, r4, lsl #2
 356 00d6 6400     		lsls	r4, r4, #1
 357 00d8 B4FBF3F3 		udiv	r3, r4, r3
 358 00dc 0533     		adds	r3, r3, #5
 359 00de 9AB2     		uxth	r2, r3
 360              	.LVL41:
 361 00e0 CFE7     		b	.L20
 362              	.L32:
 363 00e2 00BF     		.align	2
 364              	.L31:
 365 00e4 00380240 		.word	1073887232
 366 00e8 CDCCCCCC 		.word	-858993459
 367 00ec 00127A00 		.word	8000000
 368              		.cfi_endproc
 369              	.LFE113:
 370              		.size	I2S_Init, .-I2S_Init
 371              		.section	.text.SPI_StructInit,"ax",%progbits
 372              		.align	2
 373              		.p2align 4,,15
 374              		.global	SPI_StructInit
 375              		.thumb
 376              		.thumb_func
 377              		.type	SPI_StructInit, %function
 378              	SPI_StructInit:
 379              	.LFB114:
 380              		.loc 1 460 0
 381              		.cfi_startproc
 382              		@ args = 0, pretend = 0, frame = 0
 383              		@ frame_needed = 0, uses_anonymous_args = 0
 384              		@ link register save eliminated.
 385              	.LVL42:
 386              		.loc 1 463 0
 387 0000 0023     		movs	r3, #0
 388              		.loc 1 479 0
 389 0002 0722     		movs	r2, #7
 390 0004 0282     		strh	r2, [r0, #16]	@ movhi
 391              		.loc 1 463 0
 392 0006 0380     		strh	r3, [r0]	@ movhi
 393              		.loc 1 465 0
 394 0008 4380     		strh	r3, [r0, #2]	@ movhi
 395              		.loc 1 467 0
 396 000a 8380     		strh	r3, [r0, #4]	@ movhi
 397              		.loc 1 469 0
 398 000c C380     		strh	r3, [r0, #6]	@ movhi
 399              		.loc 1 471 0
ARM GAS  /var/folders/7z/kps_xzfj7sn5l5gkyq8s9db00000gn/T//ccxQbMtW.s 			page 8


 400 000e 0381     		strh	r3, [r0, #8]	@ movhi
 401              		.loc 1 473 0
 402 0010 4381     		strh	r3, [r0, #10]	@ movhi
 403              		.loc 1 475 0
 404 0012 8381     		strh	r3, [r0, #12]	@ movhi
 405              		.loc 1 477 0
 406 0014 C381     		strh	r3, [r0, #14]	@ movhi
 407 0016 7047     		bx	lr
 408              		.cfi_endproc
 409              	.LFE114:
 410              		.size	SPI_StructInit, .-SPI_StructInit
 411 0018 AFF30080 		.section	.text.I2S_StructInit,"ax",%progbits
 411      AFF30080 
 412              		.align	2
 413              		.p2align 4,,15
 414              		.global	I2S_StructInit
 415              		.thumb
 416              		.thumb_func
 417              		.type	I2S_StructInit, %function
 418              	I2S_StructInit:
 419              	.LFB115:
 420              		.loc 1 488 0
 421              		.cfi_startproc
 422              		@ args = 0, pretend = 0, frame = 0
 423              		@ frame_needed = 0, uses_anonymous_args = 0
 424              		@ link register save eliminated.
 425              	.LVL43:
 426              		.loc 1 491 0
 427 0000 0023     		movs	r3, #0
 428              		.loc 1 503 0
 429 0002 0222     		movs	r2, #2
 430 0004 8260     		str	r2, [r0, #8]
 431              		.loc 1 491 0
 432 0006 0380     		strh	r3, [r0]	@ movhi
 433              		.loc 1 494 0
 434 0008 4380     		strh	r3, [r0, #2]	@ movhi
 435              		.loc 1 497 0
 436 000a 8380     		strh	r3, [r0, #4]	@ movhi
 437              		.loc 1 500 0
 438 000c C380     		strh	r3, [r0, #6]	@ movhi
 439              		.loc 1 506 0
 440 000e 8381     		strh	r3, [r0, #12]	@ movhi
 441 0010 7047     		bx	lr
 442              		.cfi_endproc
 443              	.LFE115:
 444              		.size	I2S_StructInit, .-I2S_StructInit
 445 0012 00BFAFF3 		.section	.text.SPI_Cmd,"ax",%progbits
 445      0080AFF3 
 445      0080AFF3 
 445      0080
 446              		.align	2
 447              		.p2align 4,,15
 448              		.global	SPI_Cmd
 449              		.thumb
 450              		.thumb_func
 451              		.type	SPI_Cmd, %function
 452              	SPI_Cmd:
ARM GAS  /var/folders/7z/kps_xzfj7sn5l5gkyq8s9db00000gn/T//ccxQbMtW.s 			page 9


 453              	.LFB116:
 454              		.loc 1 517 0
 455              		.cfi_startproc
 456              		@ args = 0, pretend = 0, frame = 0
 457              		@ frame_needed = 0, uses_anonymous_args = 0
 458              		@ link register save eliminated.
 459              	.LVL44:
 460              		.loc 1 524 0
 461 0000 0388     		ldrh	r3, [r0]
 462              		.loc 1 521 0
 463 0002 29B9     		cbnz	r1, .L38
 464              		.loc 1 529 0
 465 0004 23F04003 		bic	r3, r3, #64
 466 0008 1B04     		lsls	r3, r3, #16
 467 000a 1B0C     		lsrs	r3, r3, #16
 468 000c 0380     		strh	r3, [r0]	@ movhi
 469 000e 7047     		bx	lr
 470              	.L38:
 471              		.loc 1 524 0
 472 0010 9BB2     		uxth	r3, r3
 473 0012 43F04003 		orr	r3, r3, #64
 474 0016 0380     		strh	r3, [r0]	@ movhi
 475 0018 7047     		bx	lr
 476              		.cfi_endproc
 477              	.LFE116:
 478              		.size	SPI_Cmd, .-SPI_Cmd
 479 001a 00BFAFF3 		.section	.text.I2S_Cmd,"ax",%progbits
 479      0080
 480              		.align	2
 481              		.p2align 4,,15
 482              		.global	I2S_Cmd
 483              		.thumb
 484              		.thumb_func
 485              		.type	I2S_Cmd, %function
 486              	I2S_Cmd:
 487              	.LFB117:
 488              		.loc 1 542 0
 489              		.cfi_startproc
 490              		@ args = 0, pretend = 0, frame = 0
 491              		@ frame_needed = 0, uses_anonymous_args = 0
 492              		@ link register save eliminated.
 493              	.LVL45:
 494              		.loc 1 550 0
 495 0000 838B     		ldrh	r3, [r0, #28]
 496              		.loc 1 547 0
 497 0002 29B9     		cbnz	r1, .L42
 498              		.loc 1 555 0
 499 0004 23F48063 		bic	r3, r3, #1024
 500 0008 1B04     		lsls	r3, r3, #16
 501 000a 1B0C     		lsrs	r3, r3, #16
 502 000c 8383     		strh	r3, [r0, #28]	@ movhi
 503 000e 7047     		bx	lr
 504              	.L42:
 505              		.loc 1 550 0
 506 0010 9BB2     		uxth	r3, r3
 507 0012 43F48063 		orr	r3, r3, #1024
 508 0016 8383     		strh	r3, [r0, #28]	@ movhi
ARM GAS  /var/folders/7z/kps_xzfj7sn5l5gkyq8s9db00000gn/T//ccxQbMtW.s 			page 10


 509 0018 7047     		bx	lr
 510              		.cfi_endproc
 511              	.LFE117:
 512              		.size	I2S_Cmd, .-I2S_Cmd
 513 001a 00BFAFF3 		.section	.text.SPI_DataSizeConfig,"ax",%progbits
 513      0080
 514              		.align	2
 515              		.p2align 4,,15
 516              		.global	SPI_DataSizeConfig
 517              		.thumb
 518              		.thumb_func
 519              		.type	SPI_DataSizeConfig, %function
 520              	SPI_DataSizeConfig:
 521              	.LFB118:
 522              		.loc 1 569 0
 523              		.cfi_startproc
 524              		@ args = 0, pretend = 0, frame = 0
 525              		@ frame_needed = 0, uses_anonymous_args = 0
 526              		@ link register save eliminated.
 527              	.LVL46:
 528              		.loc 1 574 0
 529 0000 0388     		ldrh	r3, [r0]
 530 0002 23F40063 		bic	r3, r3, #2048
 531 0006 1B04     		lsls	r3, r3, #16
 532 0008 1B0C     		lsrs	r3, r3, #16
 533 000a 0380     		strh	r3, [r0]	@ movhi
 534              		.loc 1 576 0
 535 000c 0388     		ldrh	r3, [r0]
 536 000e 9BB2     		uxth	r3, r3
 537 0010 1943     		orrs	r1, r1, r3
 538              	.LVL47:
 539 0012 0180     		strh	r1, [r0]	@ movhi
 540 0014 7047     		bx	lr
 541              		.cfi_endproc
 542              	.LFE118:
 543              		.size	SPI_DataSizeConfig, .-SPI_DataSizeConfig
 544 0016 00BFAFF3 		.section	.text.SPI_BiDirectionalLineConfig,"ax",%progbits
 544      0080AFF3 
 544      0080
 545              		.align	2
 546              		.p2align 4,,15
 547              		.global	SPI_BiDirectionalLineConfig
 548              		.thumb
 549              		.thumb_func
 550              		.type	SPI_BiDirectionalLineConfig, %function
 551              	SPI_BiDirectionalLineConfig:
 552              	.LFB119:
 553              		.loc 1 589 0
 554              		.cfi_startproc
 555              		@ args = 0, pretend = 0, frame = 0
 556              		@ frame_needed = 0, uses_anonymous_args = 0
 557              		@ link register save eliminated.
 558              	.LVL48:
 559              		.loc 1 593 0
 560 0000 B1F5804F 		cmp	r1, #16384
 561              		.loc 1 596 0
 562 0004 0388     		ldrh	r3, [r0]
ARM GAS  /var/folders/7z/kps_xzfj7sn5l5gkyq8s9db00000gn/T//ccxQbMtW.s 			page 11


 563              		.loc 1 593 0
 564 0006 05D0     		beq	.L47
 565              		.loc 1 601 0
 566 0008 23F48043 		bic	r3, r3, #16384
 567 000c 1B04     		lsls	r3, r3, #16
 568 000e 1B0C     		lsrs	r3, r3, #16
 569 0010 0380     		strh	r3, [r0]	@ movhi
 570 0012 7047     		bx	lr
 571              	.L47:
 572              		.loc 1 596 0
 573 0014 9BB2     		uxth	r3, r3
 574 0016 43F48043 		orr	r3, r3, #16384
 575 001a 0380     		strh	r3, [r0]	@ movhi
 576 001c 7047     		bx	lr
 577              		.cfi_endproc
 578              	.LFE119:
 579              		.size	SPI_BiDirectionalLineConfig, .-SPI_BiDirectionalLineConfig
 580              		.section	.text.SPI_NSSInternalSoftwareConfig,"ax",%progbits
 581              		.align	2
 582              		.p2align 4,,15
 583              		.global	SPI_NSSInternalSoftwareConfig
 584              		.thumb
 585              		.thumb_func
 586              		.type	SPI_NSSInternalSoftwareConfig, %function
 587              	SPI_NSSInternalSoftwareConfig:
 588              	.LFB120:
 589              		.loc 1 615 0
 590              		.cfi_startproc
 591              		@ args = 0, pretend = 0, frame = 0
 592              		@ frame_needed = 0, uses_anonymous_args = 0
 593              		@ link register save eliminated.
 594              	.LVL49:
 595              		.loc 1 619 0
 596 0000 4FF6FF63 		movw	r3, #65279
 597 0004 9942     		cmp	r1, r3
 598              		.loc 1 622 0
 599 0006 0388     		ldrh	r3, [r0]
 600              		.loc 1 619 0
 601 0008 04D0     		beq	.L49
 602              		.loc 1 622 0
 603 000a 9BB2     		uxth	r3, r3
 604 000c 43F48073 		orr	r3, r3, #256
 605 0010 0380     		strh	r3, [r0]	@ movhi
 606 0012 7047     		bx	lr
 607              	.L49:
 608              		.loc 1 627 0
 609 0014 23F48073 		bic	r3, r3, #256
 610 0018 1B04     		lsls	r3, r3, #16
 611 001a 1B0C     		lsrs	r3, r3, #16
 612 001c 0380     		strh	r3, [r0]	@ movhi
 613 001e 7047     		bx	lr
 614              		.cfi_endproc
 615              	.LFE120:
 616              		.size	SPI_NSSInternalSoftwareConfig, .-SPI_NSSInternalSoftwareConfig
 617              		.section	.text.SPI_SSOutputCmd,"ax",%progbits
 618              		.align	2
 619              		.p2align 4,,15
ARM GAS  /var/folders/7z/kps_xzfj7sn5l5gkyq8s9db00000gn/T//ccxQbMtW.s 			page 12


 620              		.global	SPI_SSOutputCmd
 621              		.thumb
 622              		.thumb_func
 623              		.type	SPI_SSOutputCmd, %function
 624              	SPI_SSOutputCmd:
 625              	.LFB121:
 626              		.loc 1 639 0
 627              		.cfi_startproc
 628              		@ args = 0, pretend = 0, frame = 0
 629              		@ frame_needed = 0, uses_anonymous_args = 0
 630              		@ link register save eliminated.
 631              	.LVL50:
 632              		.loc 1 646 0
 633 0000 8388     		ldrh	r3, [r0, #4]
 634              		.loc 1 643 0
 635 0002 29B9     		cbnz	r1, .L54
 636              		.loc 1 651 0
 637 0004 23F00403 		bic	r3, r3, #4
 638 0008 1B04     		lsls	r3, r3, #16
 639 000a 1B0C     		lsrs	r3, r3, #16
 640 000c 8380     		strh	r3, [r0, #4]	@ movhi
 641 000e 7047     		bx	lr
 642              	.L54:
 643              		.loc 1 646 0
 644 0010 9BB2     		uxth	r3, r3
 645 0012 43F00403 		orr	r3, r3, #4
 646 0016 8380     		strh	r3, [r0, #4]	@ movhi
 647 0018 7047     		bx	lr
 648              		.cfi_endproc
 649              	.LFE121:
 650              		.size	SPI_SSOutputCmd, .-SPI_SSOutputCmd
 651 001a 00BFAFF3 		.section	.text.SPI_TIModeCmd,"ax",%progbits
 651      0080
 652              		.align	2
 653              		.p2align 4,,15
 654              		.global	SPI_TIModeCmd
 655              		.thumb
 656              		.thumb_func
 657              		.type	SPI_TIModeCmd, %function
 658              	SPI_TIModeCmd:
 659              	.LFB122:
 660              		.loc 1 670 0
 661              		.cfi_startproc
 662              		@ args = 0, pretend = 0, frame = 0
 663              		@ frame_needed = 0, uses_anonymous_args = 0
 664              		@ link register save eliminated.
 665              	.LVL51:
 666              		.loc 1 678 0
 667 0000 8388     		ldrh	r3, [r0, #4]
 668              		.loc 1 675 0
 669 0002 29B9     		cbnz	r1, .L58
 670              		.loc 1 683 0
 671 0004 23F01003 		bic	r3, r3, #16
 672 0008 1B04     		lsls	r3, r3, #16
 673 000a 1B0C     		lsrs	r3, r3, #16
 674 000c 8380     		strh	r3, [r0, #4]	@ movhi
 675 000e 7047     		bx	lr
ARM GAS  /var/folders/7z/kps_xzfj7sn5l5gkyq8s9db00000gn/T//ccxQbMtW.s 			page 13


 676              	.L58:
 677              		.loc 1 678 0
 678 0010 9BB2     		uxth	r3, r3
 679 0012 43F01003 		orr	r3, r3, #16
 680 0016 8380     		strh	r3, [r0, #4]	@ movhi
 681 0018 7047     		bx	lr
 682              		.cfi_endproc
 683              	.LFE122:
 684              		.size	SPI_TIModeCmd, .-SPI_TIModeCmd
 685 001a 00BFAFF3 		.section	.text.I2S_FullDuplexConfig,"ax",%progbits
 685      0080
 686              		.align	2
 687              		.p2align 4,,15
 688              		.global	I2S_FullDuplexConfig
 689              		.thumb
 690              		.thumb_func
 691              		.type	I2S_FullDuplexConfig, %function
 692              	I2S_FullDuplexConfig:
 693              	.LFB123:
 694              		.loc 1 707 0
 695              		.cfi_startproc
 696              		@ args = 0, pretend = 0, frame = 0
 697              		@ frame_needed = 0, uses_anonymous_args = 0
 698              		@ link register save eliminated.
 699              	.LVL52:
 700              		.loc 1 719 0
 701 0000 838B     		ldrh	r3, [r0, #28]
 702 0002 23F47B63 		bic	r3, r3, #4016
 703 0006 23F00F03 		bic	r3, r3, #15
 704 000a 1B04     		lsls	r3, r3, #16
 705              		.loc 1 720 0
 706 000c 0222     		movs	r2, #2
 707              		.loc 1 719 0
 708 000e 1B0C     		lsrs	r3, r3, #16
 709 0010 8383     		strh	r3, [r0, #28]	@ movhi
 710              		.loc 1 720 0
 711 0012 0284     		strh	r2, [r0, #32]	@ movhi
 712              		.loc 1 723 0
 713 0014 838B     		ldrh	r3, [r0, #28]
 714 0016 8A89     		ldrh	r2, [r1, #12]
 715              		.loc 1 707 0
 716 0018 70B4     		push	{r4, r5, r6}
 717              		.cfi_def_cfa_offset 12
 718              		.cfi_offset 4, -12
 719              		.cfi_offset 5, -8
 720              		.cfi_offset 6, -4
 721 001a 4D88     		ldrh	r5, [r1, #2]
 722              		.loc 1 726 0
 723 001c 0C88     		ldrh	r4, [r1]
 724 001e 8E88     		ldrh	r6, [r1, #4]
 725              		.loc 1 723 0
 726 0020 9BB2     		uxth	r3, r3
 727              	.LVL53:
 728 0022 2B43     		orrs	r3, r3, r5
 729              	.LVL54:
 730              		.loc 1 726 0
 731 0024 24F40071 		bic	r1, r4, #512
ARM GAS  /var/folders/7z/kps_xzfj7sn5l5gkyq8s9db00000gn/T//ccxQbMtW.s 			page 14


 732              	.LVL55:
 733 0028 43F40063 		orr	r3, r3, #2048
 734 002c 3343     		orrs	r3, r3, r6
 735 002e 89B2     		uxth	r1, r1
 736 0030 1343     		orrs	r3, r3, r2
 737 0032 0029     		cmp	r1, #0
 738 0034 9BB2     		uxth	r3, r3
 739              		.loc 1 734 0
 740 0036 0CBF     		ite	eq
 741 0038 4FF48072 		moveq	r2, #256
 742 003c 0022     		movne	r2, #0
 743              	.LVL56:
 744              		.loc 1 740 0
 745 003e 1343     		orrs	r3, r3, r2
 746              	.LVL57:
 747              		.loc 1 745 0
 748 0040 8383     		strh	r3, [r0, #28]	@ movhi
 749              		.loc 1 746 0
 750 0042 70BC     		pop	{r4, r5, r6}
 751              		.cfi_restore 6
 752              		.cfi_restore 5
 753              		.cfi_restore 4
 754              		.cfi_def_cfa_offset 0
 755 0044 7047     		bx	lr
 756              		.cfi_endproc
 757              	.LFE123:
 758              		.size	I2S_FullDuplexConfig, .-I2S_FullDuplexConfig
 759 0046 00BFAFF3 		.section	.text.SPI_I2S_ReceiveData,"ax",%progbits
 759      0080AFF3 
 759      0080
 760              		.align	2
 761              		.p2align 4,,15
 762              		.global	SPI_I2S_ReceiveData
 763              		.thumb
 764              		.thumb_func
 765              		.type	SPI_I2S_ReceiveData, %function
 766              	SPI_I2S_ReceiveData:
 767              	.LFB124:
 768              		.loc 1 782 0
 769              		.cfi_startproc
 770              		@ args = 0, pretend = 0, frame = 0
 771              		@ frame_needed = 0, uses_anonymous_args = 0
 772              		@ link register save eliminated.
 773              	.LVL58:
 774              		.loc 1 787 0
 775 0000 8089     		ldrh	r0, [r0, #12]
 776              	.LVL59:
 777              		.loc 1 788 0
 778 0002 80B2     		uxth	r0, r0
 779 0004 7047     		bx	lr
 780              		.cfi_endproc
 781              	.LFE124:
 782              		.size	SPI_I2S_ReceiveData, .-SPI_I2S_ReceiveData
 783 0006 00BFAFF3 		.section	.text.SPI_I2S_SendData,"ax",%progbits
 783      0080AFF3 
 783      0080
 784              		.align	2
ARM GAS  /var/folders/7z/kps_xzfj7sn5l5gkyq8s9db00000gn/T//ccxQbMtW.s 			page 15


 785              		.p2align 4,,15
 786              		.global	SPI_I2S_SendData
 787              		.thumb
 788              		.thumb_func
 789              		.type	SPI_I2S_SendData, %function
 790              	SPI_I2S_SendData:
 791              	.LFB125:
 792              		.loc 1 798 0
 793              		.cfi_startproc
 794              		@ args = 0, pretend = 0, frame = 0
 795              		@ frame_needed = 0, uses_anonymous_args = 0
 796              		@ link register save eliminated.
 797              	.LVL60:
 798              		.loc 1 803 0
 799 0000 8181     		strh	r1, [r0, #12]	@ movhi
 800 0002 7047     		bx	lr
 801              		.cfi_endproc
 802              	.LFE125:
 803              		.size	SPI_I2S_SendData, .-SPI_I2S_SendData
 804 0004 AFF30080 		.section	.text.SPI_CalculateCRC,"ax",%progbits
 804      AFF30080 
 804      AFF30080 
 805              		.align	2
 806              		.p2align 4,,15
 807              		.global	SPI_CalculateCRC
 808              		.thumb
 809              		.thumb_func
 810              		.type	SPI_CalculateCRC, %function
 811              	SPI_CalculateCRC:
 812              	.LFB126:
 813              		.loc 1 887 0
 814              		.cfi_startproc
 815              		@ args = 0, pretend = 0, frame = 0
 816              		@ frame_needed = 0, uses_anonymous_args = 0
 817              		@ link register save eliminated.
 818              	.LVL61:
 819              		.loc 1 894 0
 820 0000 0388     		ldrh	r3, [r0]
 821              		.loc 1 891 0
 822 0002 29B9     		cbnz	r1, .L68
 823              		.loc 1 899 0
 824 0004 23F40053 		bic	r3, r3, #8192
 825 0008 1B04     		lsls	r3, r3, #16
 826 000a 1B0C     		lsrs	r3, r3, #16
 827 000c 0380     		strh	r3, [r0]	@ movhi
 828 000e 7047     		bx	lr
 829              	.L68:
 830              		.loc 1 894 0
 831 0010 9BB2     		uxth	r3, r3
 832 0012 43F40053 		orr	r3, r3, #8192
 833 0016 0380     		strh	r3, [r0]	@ movhi
 834 0018 7047     		bx	lr
 835              		.cfi_endproc
 836              	.LFE126:
 837              		.size	SPI_CalculateCRC, .-SPI_CalculateCRC
 838 001a 00BFAFF3 		.section	.text.SPI_TransmitCRC,"ax",%progbits
 838      0080
ARM GAS  /var/folders/7z/kps_xzfj7sn5l5gkyq8s9db00000gn/T//ccxQbMtW.s 			page 16


 839              		.align	2
 840              		.p2align 4,,15
 841              		.global	SPI_TransmitCRC
 842              		.thumb
 843              		.thumb_func
 844              		.type	SPI_TransmitCRC, %function
 845              	SPI_TransmitCRC:
 846              	.LFB127:
 847              		.loc 1 909 0
 848              		.cfi_startproc
 849              		@ args = 0, pretend = 0, frame = 0
 850              		@ frame_needed = 0, uses_anonymous_args = 0
 851              		@ link register save eliminated.
 852              	.LVL62:
 853              		.loc 1 914 0
 854 0000 0388     		ldrh	r3, [r0]
 855 0002 9BB2     		uxth	r3, r3
 856 0004 43F48053 		orr	r3, r3, #4096
 857 0008 0380     		strh	r3, [r0]	@ movhi
 858 000a 7047     		bx	lr
 859              		.cfi_endproc
 860              	.LFE127:
 861              		.size	SPI_TransmitCRC, .-SPI_TransmitCRC
 862 000c AFF30080 		.section	.text.SPI_GetCRC,"ax",%progbits
 863              		.align	2
 864              		.p2align 4,,15
 865              		.global	SPI_GetCRC
 866              		.thumb
 867              		.thumb_func
 868              		.type	SPI_GetCRC, %function
 869              	SPI_GetCRC:
 870              	.LFB128:
 871              		.loc 1 927 0
 872              		.cfi_startproc
 873              		@ args = 0, pretend = 0, frame = 0
 874              		@ frame_needed = 0, uses_anonymous_args = 0
 875              		@ link register save eliminated.
 876              	.LVL63:
 877              		.loc 1 932 0
 878 0000 0129     		cmp	r1, #1
 879              		.loc 1 935 0
 880 0002 14BF     		ite	ne
 881 0004 008B     		ldrhne	r0, [r0, #24]
 882              	.LVL64:
 883              		.loc 1 940 0
 884 0006 808A     		ldrheq	r0, [r0, #20]
 885 0008 80B2     		uxth	r0, r0
 886              	.LVL65:
 887              		.loc 1 944 0
 888 000a 7047     		bx	lr
 889              		.cfi_endproc
 890              	.LFE128:
 891              		.size	SPI_GetCRC, .-SPI_GetCRC
 892 000c AFF30080 		.section	.text.SPI_GetCRCPolynomial,"ax",%progbits
 893              		.align	2
 894              		.p2align 4,,15
 895              		.global	SPI_GetCRCPolynomial
ARM GAS  /var/folders/7z/kps_xzfj7sn5l5gkyq8s9db00000gn/T//ccxQbMtW.s 			page 17


 896              		.thumb
 897              		.thumb_func
 898              		.type	SPI_GetCRCPolynomial, %function
 899              	SPI_GetCRCPolynomial:
 900              	.LFB129:
 901              		.loc 1 952 0
 902              		.cfi_startproc
 903              		@ args = 0, pretend = 0, frame = 0
 904              		@ frame_needed = 0, uses_anonymous_args = 0
 905              		@ link register save eliminated.
 906              	.LVL66:
 907              		.loc 1 957 0
 908 0000 008A     		ldrh	r0, [r0, #16]
 909              	.LVL67:
 910              		.loc 1 958 0
 911 0002 80B2     		uxth	r0, r0
 912 0004 7047     		bx	lr
 913              		.cfi_endproc
 914              	.LFE129:
 915              		.size	SPI_GetCRCPolynomial, .-SPI_GetCRCPolynomial
 916 0006 00BFAFF3 		.section	.text.SPI_I2S_DMACmd,"ax",%progbits
 916      0080AFF3 
 916      0080
 917              		.align	2
 918              		.p2align 4,,15
 919              		.global	SPI_I2S_DMACmd
 920              		.thumb
 921              		.thumb_func
 922              		.type	SPI_I2S_DMACmd, %function
 923              	SPI_I2S_DMACmd:
 924              	.LFB130:
 925              		.loc 1 989 0
 926              		.cfi_startproc
 927              		@ args = 0, pretend = 0, frame = 0
 928              		@ frame_needed = 0, uses_anonymous_args = 0
 929              		@ link register save eliminated.
 930              	.LVL68:
 931              		.loc 1 998 0
 932 0000 8388     		ldrh	r3, [r0, #4]
 933 0002 9BB2     		uxth	r3, r3
 934              		.loc 1 995 0
 935 0004 1AB9     		cbnz	r2, .L77
 936              		.loc 1 1003 0
 937 0006 23EA0101 		bic	r1, r3, r1
 938              	.LVL69:
 939 000a 8180     		strh	r1, [r0, #4]	@ movhi
 940 000c 7047     		bx	lr
 941              	.LVL70:
 942              	.L77:
 943              		.loc 1 998 0
 944 000e 1943     		orrs	r1, r1, r3
 945              	.LVL71:
 946 0010 8180     		strh	r1, [r0, #4]	@ movhi
 947 0012 7047     		bx	lr
 948              		.cfi_endproc
 949              	.LFE130:
 950              		.size	SPI_I2S_DMACmd, .-SPI_I2S_DMACmd
ARM GAS  /var/folders/7z/kps_xzfj7sn5l5gkyq8s9db00000gn/T//ccxQbMtW.s 			page 18


 951 0014 AFF30080 		.section	.text.SPI_I2S_ITConfig,"ax",%progbits
 951      AFF30080 
 951      AFF30080 
 952              		.align	2
 953              		.p2align 4,,15
 954              		.global	SPI_I2S_ITConfig
 955              		.thumb
 956              		.thumb_func
 957              		.type	SPI_I2S_ITConfig, %function
 958              	SPI_I2S_ITConfig:
 959              	.LFB131:
 960              		.loc 1 1098 0
 961              		.cfi_startproc
 962              		@ args = 0, pretend = 0, frame = 0
 963              		@ frame_needed = 0, uses_anonymous_args = 0
 964              		@ link register save eliminated.
 965              	.LVL72:
 966              		.loc 1 1110 0
 967 0000 0909     		lsrs	r1, r1, #4
 968              	.LVL73:
 969 0002 0123     		movs	r3, #1
 970 0004 8B40     		lsls	r3, r3, r1
 971 0006 9BB2     		uxth	r3, r3
 972              	.LVL74:
 973              		.loc 1 1112 0
 974 0008 2AB9     		cbnz	r2, .L81
 975              		.loc 1 1120 0
 976 000a 8288     		ldrh	r2, [r0, #4]
 977              	.LVL75:
 978 000c 92B2     		uxth	r2, r2
 979 000e 22EA0303 		bic	r3, r2, r3
 980              	.LVL76:
 981 0012 8380     		strh	r3, [r0, #4]	@ movhi
 982 0014 7047     		bx	lr
 983              	.LVL77:
 984              	.L81:
 985              		.loc 1 1115 0
 986 0016 8288     		ldrh	r2, [r0, #4]
 987              	.LVL78:
 988 0018 92B2     		uxth	r2, r2
 989 001a 1343     		orrs	r3, r3, r2
 990              	.LVL79:
 991 001c 8380     		strh	r3, [r0, #4]	@ movhi
 992 001e 7047     		bx	lr
 993              		.cfi_endproc
 994              	.LFE131:
 995              		.size	SPI_I2S_ITConfig, .-SPI_I2S_ITConfig
 996              		.section	.text.SPI_I2S_GetFlagStatus,"ax",%progbits
 997              		.align	2
 998              		.p2align 4,,15
 999              		.global	SPI_I2S_GetFlagStatus
 1000              		.thumb
 1001              		.thumb_func
 1002              		.type	SPI_I2S_GetFlagStatus, %function
 1003              	SPI_I2S_GetFlagStatus:
 1004              	.LFB132:
 1005              		.loc 1 1142 0
ARM GAS  /var/folders/7z/kps_xzfj7sn5l5gkyq8s9db00000gn/T//ccxQbMtW.s 			page 19


 1006              		.cfi_startproc
 1007              		@ args = 0, pretend = 0, frame = 0
 1008              		@ frame_needed = 0, uses_anonymous_args = 0
 1009              		@ link register save eliminated.
 1010              	.LVL80:
 1011              		.loc 1 1149 0
 1012 0000 0389     		ldrh	r3, [r0, #8]
 1013              	.LVL81:
 1014 0002 1942     		tst	r1, r3
 1015              		.loc 1 1161 0
 1016 0004 14BF     		ite	ne
 1017 0006 0120     		movne	r0, #1
 1018              	.LVL82:
 1019 0008 0020     		moveq	r0, #0
 1020 000a 7047     		bx	lr
 1021              		.cfi_endproc
 1022              	.LFE132:
 1023              		.size	SPI_I2S_GetFlagStatus, .-SPI_I2S_GetFlagStatus
 1024 000c AFF30080 		.section	.text.SPI_I2S_ClearFlag,"ax",%progbits
 1025              		.align	2
 1026              		.p2align 4,,15
 1027              		.global	SPI_I2S_ClearFlag
 1028              		.thumb
 1029              		.thumb_func
 1030              		.type	SPI_I2S_ClearFlag, %function
 1031              	SPI_I2S_ClearFlag:
 1032              	.LFB133:
 1033              		.loc 1 1183 0
 1034              		.cfi_startproc
 1035              		@ args = 0, pretend = 0, frame = 0
 1036              		@ frame_needed = 0, uses_anonymous_args = 0
 1037              		@ link register save eliminated.
 1038              	.LVL83:
 1039              		.loc 1 1189 0
 1040 0000 C943     		mvns	r1, r1
 1041              	.LVL84:
 1042 0002 89B2     		uxth	r1, r1
 1043 0004 0181     		strh	r1, [r0, #8]	@ movhi
 1044 0006 7047     		bx	lr
 1045              		.cfi_endproc
 1046              	.LFE133:
 1047              		.size	SPI_I2S_ClearFlag, .-SPI_I2S_ClearFlag
 1048 0008 AFF30080 		.section	.text.SPI_I2S_GetITStatus,"ax",%progbits
 1048      AFF30080 
 1049              		.align	2
 1050              		.p2align 4,,15
 1051              		.global	SPI_I2S_GetITStatus
 1052              		.thumb
 1053              		.thumb_func
 1054              		.type	SPI_I2S_GetITStatus, %function
 1055              	SPI_I2S_GetITStatus:
 1056              	.LFB134:
 1057              		.loc 1 1208 0
 1058              		.cfi_startproc
 1059              		@ args = 0, pretend = 0, frame = 0
 1060              		@ frame_needed = 0, uses_anonymous_args = 0
 1061              		@ link register save eliminated.
ARM GAS  /var/folders/7z/kps_xzfj7sn5l5gkyq8s9db00000gn/T//ccxQbMtW.s 			page 20


 1062              	.LVL85:
 1063 0000 10B4     		push	{r4}
 1064              		.cfi_def_cfa_offset 4
 1065              		.cfi_offset 4, -4
 1066              		.loc 1 1226 0
 1067 0002 8488     		ldrh	r4, [r0, #4]
 1068              		.loc 1 1229 0
 1069 0004 0389     		ldrh	r3, [r0, #8]
 1070              		.loc 1 1217 0
 1071 0006 0122     		movs	r2, #1
 1072 0008 01F00F00 		and	r0, r1, #15
 1073              	.LVL86:
 1074              		.loc 1 1229 0
 1075 000c 9BB2     		uxth	r3, r3
 1076              		.loc 1 1217 0
 1077 000e 02FA00F0 		lsl	r0, r2, r0
 1078              		.loc 1 1229 0
 1079 0012 1840     		ands	r0, r3, r0
 1080              		.loc 1 1226 0
 1081 0014 A4B2     		uxth	r4, r4
 1082              	.LVL87:
 1083              		.loc 1 1229 0
 1084 0016 05D0     		beq	.L85
 1085              		.loc 1 1223 0 discriminator 1
 1086 0018 0909     		lsrs	r1, r1, #4
 1087              	.LVL88:
 1088 001a 8A40     		lsls	r2, r2, r1
 1089              		.loc 1 1229 0 discriminator 1
 1090 001c 1442     		tst	r4, r2
 1091              		.loc 1 1232 0 discriminator 1
 1092 001e 14BF     		ite	ne
 1093 0020 0120     		movne	r0, #1
 1094 0022 0020     		moveq	r0, #0
 1095              	.L85:
 1096              	.LVL89:
 1097              		.loc 1 1241 0
 1098 0024 5DF8044B 		ldr	r4, [sp], #4
 1099              		.cfi_restore 4
 1100              		.cfi_def_cfa_offset 0
 1101              	.LVL90:
 1102 0028 7047     		bx	lr
 1103              		.cfi_endproc
 1104              	.LFE134:
 1105              		.size	SPI_I2S_GetITStatus, .-SPI_I2S_GetITStatus
 1106 002a 00BFAFF3 		.section	.text.SPI_I2S_ClearITPendingBit,"ax",%progbits
 1106      0080
 1107              		.align	2
 1108              		.p2align 4,,15
 1109              		.global	SPI_I2S_ClearITPendingBit
 1110              		.thumb
 1111              		.thumb_func
 1112              		.type	SPI_I2S_ClearITPendingBit, %function
 1113              	SPI_I2S_ClearITPendingBit:
 1114              	.LFB135:
 1115              		.loc 1 1263 0
 1116              		.cfi_startproc
 1117              		@ args = 0, pretend = 0, frame = 0
ARM GAS  /var/folders/7z/kps_xzfj7sn5l5gkyq8s9db00000gn/T//ccxQbMtW.s 			page 21


 1118              		@ frame_needed = 0, uses_anonymous_args = 0
 1119              		@ link register save eliminated.
 1120              	.LVL91:
 1121              		.loc 1 1270 0
 1122 0000 01F00F01 		and	r1, r1, #15
 1123              	.LVL92:
 1124 0004 0123     		movs	r3, #1
 1125 0006 8B40     		lsls	r3, r3, r1
 1126              		.loc 1 1273 0
 1127 0008 DB43     		mvns	r3, r3
 1128 000a 9BB2     		uxth	r3, r3
 1129 000c 0381     		strh	r3, [r0, #8]	@ movhi
 1130 000e 7047     		bx	lr
 1131              		.cfi_endproc
 1132              	.LFE135:
 1133              		.size	SPI_I2S_ClearITPendingBit, .-SPI_I2S_ClearITPendingBit
 1134              		.text
 1135              	.Letext0:
 1136              		.file 2 "/Users/Baram/gcc-arm-none-eabi/arm-none-eabi/include/machine/_default_types.h"
 1137              		.file 3 "/Users/Baram/gcc-arm-none-eabi/arm-none-eabi/include/stdint.h"
 1138              		.file 4 "lib/ChibiOS_2.6.6/os/hal/platforms/STM32F4xx/stm32f4xx.h"
 1139              		.file 5 "lib/ChibiOS_2.6.6/ext/stdperiph_stm32f4/inc/stm32f4xx_spi.h"
 1140              		.file 6 "lib/ChibiOS_2.6.6/os/ports/common/ARMCMx/CMSIS/include/core_cm4.h"
 1141              		.file 7 "lib/ChibiOS_2.6.6/ext/stdperiph_stm32f4/inc/stm32f4xx_rcc.h"