ARM GAS  /var/folders/7z/kps_xzfj7sn5l5gkyq8s9db00000gn/T//ccxQbMtW.s 			page 1


   1              		.syntax unified
   2              		.cpu cortex-m4
   3              		.eabi_attribute 27, 1
   4              		.eabi_attribute 28, 1
   5              		.fpu fpv4-sp-d16
   6              		.eabi_attribute 20, 1
   7              		.eabi_attribute 21, 1
   8              		.eabi_attribute 23, 3
   9              		.eabi_attribute 24, 1
  10              		.eabi_attribute 25, 1
  11              		.eabi_attribute 26, 1
  12              		.eabi_attribute 30, 2
  13              		.eabi_attribute 34, 1
  14              		.eabi_attribute 18, 4
  15              		.thumb
  16              		.file	"stm32f4xx_spi.c"
  17              		.text
  18              	.Ltext0:
  19              		.cfi_sections	.debug_frame
  20              		.section	.text.SPI_I2S_DeInit,"ax",%progbits
  21              		.align	2
  22              		.p2align 4,,15
  23              		.global	SPI_I2S_DeInit
  24              		.thumb
  25              		.thumb_func
  26              		.type	SPI_I2S_DeInit, %function
  27              	SPI_I2S_DeInit:
  28              	.LFB111:
  29              		.file 1 "lib/ChibiOS_2.6.6/ext/stdperiph_stm32f4/src/stm32f4xx_spi.c"
  30              		.loc 1 225 0
  31              		.cfi_startproc
  32              		@ args = 0, pretend = 0, frame = 0
  33              		@ frame_needed = 0, uses_anonymous_args = 0
  34              	.LVL0:
  35 0000 08B5     		push	{r3, lr}
  36              		.cfi_def_cfa_offset 8
  37              		.cfi_offset 3, -8
  38              		.cfi_offset 14, -4
  39              		.loc 1 229 0
  40 0002 174B     		ldr	r3, .L10
  41 0004 9842     		cmp	r0, r3
  42 0006 12D0     		beq	.L7
  43              		.loc 1 236 0
  44 0008 164B     		ldr	r3, .L10+4
  45 000a 9842     		cmp	r0, r3
  46 000c 1BD0     		beq	.L8
  47              		.loc 1 245 0
  48 000e 164B     		ldr	r3, .L10+8
  49 0010 9842     		cmp	r0, r3
  50 0012 00D0     		beq	.L9
  51 0014 08BD     		pop	{r3, pc}
  52              	.L9:
  53              		.loc 1 248 0
  54 0016 4FF40040 		mov	r0, #32768
  55              	.LVL1:
  56 001a 0121     		movs	r1, #1
  57 001c FFF7FEFF 		bl	RCC_APB1PeriphResetCmd
ARM GAS  /var/folders/7z/kps_xzfj7sn5l5gkyq8s9db00000gn/T//ccxQbMtW.s 			page 2


  58              	.LVL2:
  59              		.loc 1 250 0
  60 0020 4FF40040 		mov	r0, #32768
  61 0024 0021     		movs	r1, #0
  62              		.loc 1 253 0
  63 0026 BDE80840 		pop	{r3, lr}
  64              		.cfi_remember_state
  65              		.cfi_restore 14
  66              		.cfi_restore 3
  67              		.cfi_def_cfa_offset 0
  68              		.loc 1 250 0
  69 002a FFF7FEBF 		b	RCC_APB1PeriphResetCmd
  70              	.LVL3:
  71              	.L7:
  72              		.cfi_restore_state
  73              		.loc 1 232 0
  74 002e 4FF48050 		mov	r0, #4096
  75              	.LVL4:
  76 0032 0121     		movs	r1, #1
  77 0034 FFF7FEFF 		bl	RCC_APB2PeriphResetCmd
  78              	.LVL5:
  79              		.loc 1 234 0
  80 0038 4FF48050 		mov	r0, #4096
  81 003c 0021     		movs	r1, #0
  82              		.loc 1 253 0
  83 003e BDE80840 		pop	{r3, lr}
  84              		.cfi_remember_state
  85              		.cfi_restore 14
  86              		.cfi_restore 3
  87              		.cfi_def_cfa_offset 0
  88              		.loc 1 234 0
  89 0042 FFF7FEBF 		b	RCC_APB2PeriphResetCmd
  90              	.LVL6:
  91              	.L8:
  92              		.cfi_restore_state
  93              		.loc 1 239 0
  94 0046 4FF48040 		mov	r0, #16384
  95              	.LVL7:
  96 004a 0121     		movs	r1, #1
  97 004c FFF7FEFF 		bl	RCC_APB1PeriphResetCmd
  98              	.LVL8:
  99              		.loc 1 241 0
 100 0050 4FF48040 		mov	r0, #16384
 101 0054 0021     		movs	r1, #0
 102              		.loc 1 253 0
 103 0056 BDE80840 		pop	{r3, lr}
 104              		.cfi_restore 14
 105              		.cfi_restore 3
 106              		.cfi_def_cfa_offset 0
 107              		.loc 1 241 0
 108 005a FFF7FEBF 		b	RCC_APB1PeriphResetCmd
 109              	.LVL9:
 110              	.L11:
 111 005e 00BF     		.align	2
 112              	.L10:
 113 0060 00300140 		.word	1073819648
 114 0064 00380040 		.word	1073756160
ARM GAS  /var/folders/7z/kps_xzfj7sn5l5gkyq8s9db00000gn/T//ccxQbMtW.s 			page 3


 115 0068 003C0040 		.word	1073757184
 116              		.cfi_endproc
 117              	.LFE111:
 118              		.size	SPI_I2S_DeInit, .-SPI_I2S_DeInit
 119 006c AFF30080 		.section	.text.SPI_Init,"ax",%progbits
 120              		.align	2
 121              		.p2align 4,,15
 122              		.global	SPI_Init
 123              		.thumb
 124              		.thumb_func
 125              		.type	SPI_Init, %function
 126              	SPI_Init:
 127              	.LFB112:
 128              		.loc 1 264 0
 129              		.cfi_startproc
 130              		@ args = 0, pretend = 0, frame = 0
 131              		@ frame_needed = 0, uses_anonymous_args = 0
 132              	.LVL10:
 133 0000 2DE9F041 		push	{r4, r5, r6, r7, r8, lr}
 134              		.cfi_def_cfa_offset 24
 135              		.cfi_offset 4, -24
 136              		.cfi_offset 5, -20
 137              		.cfi_offset 6, -16
 138              		.cfi_offset 7, -12
 139              		.cfi_offset 8, -8
 140              		.cfi_offset 14, -4
 141              		.loc 1 294 0
 142 0004 0B88     		ldrh	r3, [r1]
 143 0006 B1F80280 		ldrh	r8, [r1, #2]
 144 000a B1F804C0 		ldrh	ip, [r1, #4]
 145 000e CA88     		ldrh	r2, [r1, #6]
 146 0010 B1F808E0 		ldrh	lr, [r1, #8]
 147 0014 4F89     		ldrh	r7, [r1, #10]
 148 0016 8E89     		ldrh	r6, [r1, #12]
 149 0018 CC89     		ldrh	r4, [r1, #14]
 150              		.loc 1 283 0
 151 001a 0588     		ldrh	r5, [r0]
 152              	.LVL11:
 153              		.loc 1 305 0
 154 001c 098A     		ldrh	r1, [r1, #16]
 155              	.LVL12:
 156              		.loc 1 294 0
 157 001e 48EA0303 		orr	r3, r8, r3
 158 0022 43EA0C03 		orr	r3, r3, ip
 159 0026 1343     		orrs	r3, r3, r2
 160 0028 43EA0E03 		orr	r3, r3, lr
 161 002c 3B43     		orrs	r3, r3, r7
 162 002e 3343     		orrs	r3, r3, r6
 163 0030 43EA0402 		orr	r2, r3, r4
 164              		.loc 1 285 0
 165 0034 05F44153 		and	r3, r5, #12352
 166              	.LVL13:
 167              		.loc 1 294 0
 168 0038 1343     		orrs	r3, r3, r2
 169              	.LVL14:
 170 003a 9BB2     		uxth	r3, r3
 171              	.LVL15:
ARM GAS  /var/folders/7z/kps_xzfj7sn5l5gkyq8s9db00000gn/T//ccxQbMtW.s 			page 4


 172              		.loc 1 299 0
 173 003c 0380     		strh	r3, [r0]	@ movhi
 174              		.loc 1 302 0
 175 003e 838B     		ldrh	r3, [r0, #28]
 176              	.LVL16:
 177 0040 23F40063 		bic	r3, r3, #2048
 178 0044 1B04     		lsls	r3, r3, #16
 179 0046 1B0C     		lsrs	r3, r3, #16
 180 0048 8383     		strh	r3, [r0, #28]	@ movhi
 181              	.LVL17:
 182              		.loc 1 305 0
 183 004a 0182     		strh	r1, [r0, #16]	@ movhi
 184 004c BDE8F081 		pop	{r4, r5, r6, r7, r8, pc}
 185              		.cfi_endproc
 186              	.LFE112:
 187              		.size	SPI_Init, .-SPI_Init
 188              		.section	.text.I2S_Init,"ax",%progbits
 189              		.align	2
 190              		.p2align 4,,15
 191              		.global	I2S_Init
 192              		.thumb
 193              		.thumb_func
 194              		.type	I2S_Init, %function
 195              	I2S_Init:
 196              	.LFB113:
 197              		.loc 1 328 0
 198              		.cfi_startproc
 199              		@ args = 0, pretend = 0, frame = 0
 200              		@ frame_needed = 0, uses_anonymous_args = 0
 201              	.LVL18:
 202              		.loc 1 346 0
 203 0000 828B     		ldrh	r2, [r0, #28]
 204              		.loc 1 353 0
 205 0002 8B68     		ldr	r3, [r1, #8]
 206              		.loc 1 346 0
 207 0004 22F47B62 		bic	r2, r2, #4016
 208 0008 22F00F02 		bic	r2, r2, #15
 209 000c 1204     		lsls	r2, r2, #16
 210              		.loc 1 328 0
 211 000e 2DE9F043 		push	{r4, r5, r6, r7, r8, r9, lr}
 212              		.cfi_def_cfa_offset 28
 213              		.cfi_offset 4, -28
 214              		.cfi_offset 5, -24
 215              		.cfi_offset 6, -20
 216              		.cfi_offset 7, -16
 217              		.cfi_offset 8, -12
 218              		.cfi_offset 9, -8
 219              		.cfi_offset 14, -4
 220              		.loc 1 346 0
 221 0012 120C     		lsrs	r2, r2, #16
 222              		.loc 1 347 0
 223 0014 0224     		movs	r4, #2
 224              		.loc 1 346 0
 225 0016 8283     		strh	r2, [r0, #28]	@ movhi
 226              		.loc 1 347 0
 227 0018 0484     		strh	r4, [r0, #32]	@ movhi
 228              		.loc 1 350 0
ARM GAS  /var/folders/7z/kps_xzfj7sn5l5gkyq8s9db00000gn/T//ccxQbMtW.s 			page 5


 229 001a B0F81CE0 		ldrh	lr, [r0, #28]
 230              		.loc 1 353 0
 231 001e A342     		cmp	r3, r4
 232              		.loc 1 350 0
 233 0020 1FFA8EFE 		uxth	lr, lr
 234              	.LVL19:
 235              		.loc 1 353 0
 236 0024 51D0     		beq	.L28
 237              		.loc 1 389 0
 238 0026 2F4A     		ldr	r2, .L31
 239              		.loc 1 362 0
 240 0028 8F88     		ldrh	r7, [r1, #4]
 241              		.loc 1 389 0
 242 002a 9468     		ldr	r4, [r2, #8]
 243              		.loc 1 365 0
 244 002c 002F     		cmp	r7, #0
 245 002e 14BF     		ite	ne
 246 0030 4FF0020C 		movne	ip, #2
 247 0034 4FF0010C 		moveq	ip, #1
 248              	.LVL20:
 249              		.loc 1 389 0
 250 0038 2402     		lsls	r4, r4, #8
 251 003a 41D4     		bmi	.L29
 252              	.L18:
 253              		.loc 1 395 0
 254 003c 294A     		ldr	r2, .L31
 255              		.loc 1 410 0
 256 003e CE88     		ldrh	r6, [r1, #6]
 257              		.loc 1 395 0
 258 0040 D2F88450 		ldr	r5, [r2, #132]
 259              	.LVL21:
 260              		.loc 1 399 0
 261 0044 D2F88440 		ldr	r4, [r2, #132]
 262              	.LVL22:
 263              		.loc 1 403 0
 264 0048 5268     		ldr	r2, [r2, #4]
 265              	.LVL23:
 266              		.loc 1 406 0
 267 004a DFF8A080 		ldr	r8, .L31+8
 268              		.loc 1 395 0
 269 004e C5F38815 		ubfx	r5, r5, #6, #9
 270              	.LVL24:
 271              		.loc 1 410 0
 272 0052 B6F5007F 		cmp	r6, #512
 273              		.loc 1 403 0
 274 0056 02F03F09 		and	r9, r2, #63
 275              	.LVL25:
 276              		.loc 1 399 0
 277 005a C4F30272 		ubfx	r2, r4, #28, #3
 278              		.loc 1 406 0
 279 005e B8FBF9F4 		udiv	r4, r8, r9
 280              	.LVL26:
 281 0062 05FB04F4 		mul	r4, r5, r4
 282 0066 B4FBF2F4 		udiv	r4, r4, r2
 283              	.LVL27:
 284              		.loc 1 410 0
 285 006a 31D0     		beq	.L30
ARM GAS  /var/folders/7z/kps_xzfj7sn5l5gkyq8s9db00000gn/T//ccxQbMtW.s 			page 6


 286              		.loc 1 418 0
 287 006c 4FEA4C12 		lsl	r2, ip, #5
 288 0070 B4FBF2F2 		udiv	r2, r4, r2
 289 0074 02EB8202 		add	r2, r2, r2, lsl #2
 290 0078 5200     		lsls	r2, r2, #1
 291 007a B2FBF3F3 		udiv	r3, r2, r3
 292 007e 0533     		adds	r3, r3, #5
 293 0080 9AB2     		uxth	r2, r3
 294              	.LVL28:
 295              	.L20:
 296              		.loc 1 422 0
 297 0082 194B     		ldr	r3, .L31+4
 298 0084 A3FB0223 		umull	r2, r3, r3, r2
 299              	.LVL29:
 300 0088 DB08     		lsrs	r3, r3, #3
 301              	.LVL30:
 302              		.loc 1 428 0
 303 008a 5A08     		lsrs	r2, r3, #1
 304              		.loc 1 435 0
 305 008c 941E     		subs	r4, r2, #2
 306              		.loc 1 428 0
 307 008e 03F00103 		and	r3, r3, #1
 308              	.LVL31:
 309              		.loc 1 435 0
 310 0092 FD2C     		cmp	r4, #253
 311 0094 94BF     		ite	ls
 312 0096 42EA0323 		orrls	r3, r2, r3, lsl #8
 313              	.LVL32:
 314 009a 0223     		movhi	r3, #2
 315              	.LVL33:
 316              	.L21:
 317 009c 0C88     		ldrh	r4, [r1]
 318 009e 4A88     		ldrh	r2, [r1, #2]
 319 00a0 8989     		ldrh	r1, [r1, #12]
 320              	.LVL34:
 321 00a2 4EEA040E 		orr	lr, lr, r4
 322              	.LVL35:
 323 00a6 4EF4006E 		orr	lr, lr, #2048
 324 00aa 4EEA0202 		orr	r2, lr, r2
 325 00ae 0A43     		orrs	r2, r2, r1
 326              		.loc 1 443 0
 327 00b0 3343     		orrs	r3, r3, r6
 328 00b2 92B2     		uxth	r2, r2
 329 00b4 9BB2     		uxth	r3, r3
 330              		.loc 1 446 0
 331 00b6 1743     		orrs	r7, r7, r2
 332              	.LVL36:
 333              		.loc 1 443 0
 334 00b8 0384     		strh	r3, [r0, #32]	@ movhi
 335              		.loc 1 451 0
 336 00ba 8783     		strh	r7, [r0, #28]	@ movhi
 337 00bc BDE8F083 		pop	{r4, r5, r6, r7, r8, r9, pc}
 338              	.LVL37:
 339              	.L29:
 340              		.loc 1 391 0
 341 00c0 9468     		ldr	r4, [r2, #8]
 342 00c2 24F40004 		bic	r4, r4, #8388608
ARM GAS  /var/folders/7z/kps_xzfj7sn5l5gkyq8s9db00000gn/T//ccxQbMtW.s 			page 7


 343 00c6 9460     		str	r4, [r2, #8]
 344 00c8 B8E7     		b	.L18
 345              	.LVL38:
 346              	.L28:
 347 00ca 8F88     		ldrh	r7, [r1, #4]
 348 00cc CE88     		ldrh	r6, [r1, #6]
 349 00ce E5E7     		b	.L21
 350              	.LVL39:
 351              	.L30:
 352              		.loc 1 413 0
 353 00d0 240A     		lsrs	r4, r4, #8
 354              	.LVL40:
 355 00d2 04EB8404 		add	r4, r4, r4, lsl #2
 356 00d6 6400     		lsls	r4, r4, #1
 357 00d8 B4FBF3F3 		udiv	r3, r4, r3
 358 00dc 0533     		adds	r3, r3, #5
 359 00de 9AB2     		uxth	r2, r3
 360              	.LVL41:
 361 00e0 CFE7     		b	.L20
 362              	.L32:
 363 00e2 00BF     		.align	2
 364              	.L31:
 365 00e4 00380240 		.word	1073887232
 366 00e8 CDCCCCCC 		.word	-858993459
 367 00ec 00127A00 		.word	8000000
 368              		.cfi_endproc
 369              	.LFE113:
 370              		.size	I2S_Init, .-I2S_Init
 371              		.section	.text.SPI_StructInit,"ax",%progbits
 372              		.align	2
 373              		.p2align 4,,15
 374              		.global	SPI_StructInit
 375              		.thumb
 376              		.thumb_func
 377              		.type	SPI_StructInit, %function
 378              	SPI_StructInit:
 379              	.LFB114:
 380              		.loc 1 460 0
 381              		.cfi_startproc
 382              		@ args = 0, pretend = 0, frame = 0
 383              		@ frame_needed = 0, uses_anonymous_args = 0
 384              		@ link register save eliminated.
 385              	.LVL42:
 386              		.loc 1 463 0
 387 0000 0023     		movs	r3, #0
 388              		.loc 1 479 0
 389 0002 0722     		movs	r2, #7
 390 0004 0282     		strh	r2, [r0, #16]	@ movhi
 391              		.loc 1 463 0
 392 0006 0380     		strh	r3, [r0]	@ movhi
 393              		.loc 1 465 0
 394 0008 4380     		strh	r3, [r0, #2]	@ movhi
 395              		.loc 1 467 0
 396 000a 8380     		strh	r3, [r0, #4]	@ movhi
 397              		.loc 1 469 0
 398 000c C380     		strh	r3, [r0, #6]	@ movhi
 399              		.loc 1 471 0
ARM GAS  /var/folders/7z/kps_xzfj7sn5l5gkyq8s9db00000gn/T//ccxQbMtW.s 			page 8


 400 000e 0381     		strh	r3, [r0, #8]	@ movhi
 401              		.loc 1 473 0
 402 0010 4381     		strh	r3, [r0, #10]	@ movhi
 403              		.loc 1 475 0
 404 0012 8381     		strh	r3, [r0, #12]	@ movhi
 405              		.loc 1 477 0
 406 0014 C381     		strh	r3, [r0, #14]	@ movhi
 407 0016 7047     		bx	lr
 408              		.cfi_endproc
 409              	.LFE114:
 410              		.size	SPI_StructInit, .-SPI_StructInit
 411 0018 AFF30080 		.section	.text.I2S_StructInit,"ax",%progbits
 411      AFF30080 
 412              		.align	2
 413              		.p2align 4,,15
 414              		.global	I2S_StructInit
 415              		.thumb
 416              		.thumb_func
 417              		.type	I2S_StructInit, %function
 418              	I2S_StructInit:
 419              	.LFB115:
 420              		.loc 1 488 0
 421              		.cfi_startproc
 422              		@ args = 0, pretend = 0, frame = 0
 423              		@ frame_needed = 0, uses_anonymous_args = 0
 424              		@ link register save eliminated.
 425              	.LVL43:
 426              		.loc 1 491 0
 427 0000 0023     		movs	r3, #0
 428              		.loc 1 503 0
 429 0002 0222     		movs	r2, #2
 430 0004 8260     		str	r2, [r0, #8]
 431              		.loc 1 491 0
 432 0006 0380     		strh	r3, [r0]	@ movhi
 433              		.loc 1 494 0
 434 0008 4380     		strh	r3, [r0, #2]	@ movhi
 435              		.loc 1 497 0
 436 000a 8380     		strh	r3, [r0, #4]	@ movhi
 437              		.loc 1 500 0
 438 000c C380     		strh	r3, [r0, #6]	@ movhi
 439              		.loc 1 506 0
 440 000e 8381     		strh	r3, [r0, #12]	@ movhi
 441 0010 7047     		bx	lr
 442              		.cfi_endproc
 443              	.LFE115:
 444              		.size	I2S_StructInit, .-I2S_StructInit
 445 0012 00BFAFF3 		.section	.text.SPI_Cmd,"ax",%progbits
 445      0080AFF3 
 445      0080AFF3 
 445      0080
 446              		.align	2
 447              		.p2align 4,,15
 448              		.global	SPI_Cmd
 449              		.thumb
 450              		.thumb_func
 451              		.type	SPI_Cmd, %function
 452              	SPI_Cmd:
ARM GAS  /var/folders/7z/kps_xzfj7sn5l5gkyq8s9db00000gn/T//ccxQbMtW.s 			page 9


 453              	.LFB116:
 454              		.loc 1 517 0
 455              		.cfi_startproc
 456              		@ args = 0, pretend = 0, frame = 0
 457              		@ frame_needed = 0, uses_anonymous_args = 0
 458              		@ link register save eliminated.
 459              	.LVL44:
 460              		.loc 1 524 0
 461 0000 0388     		ldrh	r3, [r0]
 462              		.loc 1 521 0
 463 0002 29B9     		cbnz	r1, .L38
 464              		.loc 1 529 0
 465 0004 23F04003 		bic	r3, r3, #64
 466 0008 1B04     		lsls	r3, r3, #16
 467 000a 1B0C     		lsrs	r3, r3, #16
 468 000c 0380     		strh	r3, [r0]	@ movhi
 469 000e 7047     		bx	lr
 470              	.L38:
 471              		.loc 1 524 0
 472 0010 9BB2     		uxth	r3, r3
 473 0012 43F04003 		orr	r3, r3, #64
 474 0016 0380     		strh	r3, [r0]	@ movhi
 475 0018 7047     		bx	lr
 476              		.cfi_endproc
 477              	.LFE116:
 478              		.size	SPI_Cmd, .-SPI_Cmd
 479 001a 00BFAFF3 		.section	.text.I2S_Cmd,"ax",%progbits
 479      0080
 480              		.align	2
 481              		.p2align 4,,15
 482              		.global	I2S_Cmd
 483              		.thumb
 484              		.thumb_func
 485              		.type	I2S_Cmd, %function
 486              	I2S_Cmd:
 487              	.LFB117:
 488              		.loc 1 542 0
 489              		.cfi_startproc
 490              		@ args = 0, pretend = 0, frame = 0
 491              		@ frame_needed = 0, uses_anonymous_args = 0
 492              		@ link register save eliminated.
 493              	.LVL45:
 494              		.loc 1 550 0
 495 0000 838B     		ldrh	r3, [r0, #28]
 496              		.loc 1 547 0
 497 0002 29B9     		cbnz	r1, .L42
 498              		.loc 1 555 0
 499 0004 23F48063 		bic	r3, r3, #1024
 500 0008 1B04     		lsls	r3, r3, #16
 501 000a 1B0C     		lsrs	r3, r3, #16
 502 000c 8383     		strh	r3, [r0, #28]	@ movhi
 503 000e 7047     		bx	lr
 504              	.L42:
 505              		.loc 1 550 0
 506 0010 9BB2     		uxth	r3, r3
 507 0012 43F48063 		orr	r3, r3, #1024
 508 0016 8383     		strh	r3, [r0, #28]	@ movhi
ARM GAS  /var/folders/7z/kps_xzfj7sn5l5gkyq8s9db00000gn/T//ccxQbMtW.s 			page 10


 509 0018 7047     		bx	lr
 510              		.cfi_endproc
 511              	.LFE117:
 512              		.size	I2S_Cmd, .-I2S_Cmd
 513 001a 00BFAFF3 		.section	.text.SPI_DataSizeConfig,"ax",%progbits
 513      0080
 514              		.align	2
 515              		.p2align 4,,15
 516              		.global	SPI_DataSizeConfig
 517              		.thumb
 518              		.thumb_func
 519              		.type	SPI_DataSizeConfig, %function
 520              	SPI_DataSizeConfig:
 521              	.LFB118:
 522              		.loc 1 569 0
 523              		.cfi_startproc
 524              		@ args = 0, pretend = 0, frame = 0
 525              		@ frame_needed = 0, uses_anonymous_args = 0
 526              		@ link register save eliminated.
 527              	.LVL46:
 528              		.loc 1 574 0
 529 0000 0388     		ldrh	r3, [r0]
 530 0002 23F40063 		bic	r3, r3, #2048
 531 0006 1B04     		lsls	r3, r3, #16
 532 0008 1B0C     		lsrs	r3, r3, #16
 533 000a 0380     		strh	r3, [r0]	@ movhi
 534              		.loc 1 576 0
 535 000c 0388     		ldrh	r3, [r0]
 536 000e 9BB2     		uxth	r3, r3
 537 0010 1943     		orrs	r1, r1, r3
 538              	.LVL47:
 539 0012 0180     		strh	r1, [r0]	@ movhi
 540 0014 7047     		bx	lr
 541              		.cfi_endproc
 542              	.LFE118:
 543              		.size	SPI_DataSizeConfig, .-SPI_DataSizeConfig
 544 0016 00BFAFF3 		.section	.text.SPI_BiDirectionalLineConfig,"ax",%progbits
 544      0080AFF3 
 544      0080
 545              		.align	2
 546              		.p2align 4,,15
 547              		.global	SPI_BiDirectionalLineConfig
 548              		.thumb
 549              		.thumb_func
 550              		.type	SPI_BiDirectionalLineConfig, %function
 551              	SPI_BiDirectionalLineConfig:
 552              	.LFB119:
 553              		.loc 1 589 0
 554              		.cfi_startproc
 555              		@ args = 0, pretend = 0, frame = 0
 556              		@ frame_needed = 0, uses_anonymous_args = 0
 557              		@ link register save eliminated.
 558              	.LVL48:
 559              		.loc 1 593 0
 560 0000 B1F5804F 		cmp	r1, #16384
 561              		.loc 1 596 0
 562 0004 0388     		ldrh	r3, [r0]
ARM GAS  /var/folders/7z/kps_xzfj7sn5l5gkyq8s9db00000gn/T//ccxQbMtW.s 			page 11


 563              		.loc 1 593 0
 564 0006 05D0     		beq	.L47
 565              		.loc 1 601 0
 566 0008 23F48043 		bic	r3, r3, #16384
 567 000c 1B04     		lsls	r3, r3, #16
 568 000e 1B0C     		lsrs	r3, r3, #16
 569 0010 0380     		strh	r3, [r0]	@ movhi
 570 0012 7047     		bx	lr
 571              	.L47:
 572              		.loc 1 596 0
 573 0014 9BB2     		uxth	r3, r3
 574 0016 43F48043 		orr	r3, r3, #16384
 575 001a 0380     		strh	r3, [r0]	@ movhi
 576 001c 7047     		bx	lr
 577              		.cfi_endproc
 578              	.LFE119:
 579              		.size	SPI_BiDirectionalLineConfig, .-SPI_BiDirectionalLineConfig
 580              		.section	.text.SPI_NSSInternalSoftwareConfig,"ax",%progbits
 581              		.align	2
 582              		.p2align 4,,15
 583              		.global	SPI_NSSInternalSoftwareConfig
 584              		.thumb
 585              		.thumb_func
 586              		.type	SPI_NSSInternalSoftwareConfig, %function
 587              	SPI_NSSInternalSoftwareConfig:
 588              	.LFB120:
 589              		.loc 1 615 0
 590              		.cfi_startproc
 591              		@ args = 0, pretend = 0, frame = 0
 592              		@ frame_needed = 0, uses_anonymous_args = 0
 593              		@ link register save eliminated.
 594              	.LVL49:
 595              		.loc 1 619 0
 596 0000 4FF6FF63 		movw	r3, #65279
 597 0004 9942     		cmp	r1, r3
 598              		.loc 1 622 0
 599 0006 0388     		ldrh	r3, [r0]
 600              		.loc 1 619 0
 601 0008 04D0     		beq	.L49
 602              		.loc 1 622 0
 603 000a 9BB2     		uxth	r3, r3
 604 000c 43F48073 		orr	r3, r3, #256
 605 0010 0380     		strh	r3, [r0]	@ movhi
 606 0012 7047     		bx	lr
 607              	.L49:
 608              		.loc 1 627 0
 609 0014 23F48073 		bic	r3, r3, #256
 610 0018 1B04     		lsls	r3, r3, #16
 611 001a 1B0C     		lsrs	r3, r3, #16
 612 001c 0380     		strh	r3, [r0]	@ movhi
 613 001e 7047     		bx	lr
 614              		.cfi_endproc
 615              	.LFE120:
 616              		.size	SPI_NSSInternalSoftwareConfig, .-SPI_NSSInternalSoftwareConfig
 617              		.section	.text.SPI_SSOutputCmd,"ax",%progbits
 618              		.align	2
 619              		.p2align 4,,15
ARM GAS  /var/folders/7z/kps_xzfj7sn5l5gkyq8s9db00000gn/T//ccxQbMtW.s 			page 12


 620              		.global	SPI_SSOutputCmd
 621              		.thumb
 622              		.thumb_func
 623              		.type	SPI_SSOutputCmd, %function
 624              	SPI_SSOutputCmd:
 625              	.LFB121:
 626              		.loc 1 639 0
 627              		.cfi_startproc
 628              		@ args = 0, pretend = 0, frame = 0
 629              		@ frame_needed = 0, uses_anonymous_args = 0
 630              		@ link register save eliminated.
 631              	.LVL50:
 632              		.loc 1 646 0
 633 0000 8388     		ldrh	r3, [r0, #4]
 634              		.loc 1 643 0
 635 0002 29B9     		cbnz	r1, .L54
 636              		.loc 1 651 0
 637 0004 23F00403 		bic	r3, r3, #4
 638 0008 1B04     		lsls	r3, r3, #16
 639 000a 1B0C     		lsrs	r3, r3, #16
 640 000c 8380     		strh	r3, [r0, #4]	@ movhi
 641 000e 7047     		bx	lr
 642              	.L54:
 643              		.loc 1 646 0
 644 0010 9BB2     		uxth	r3, r3
 645 0012 43F00403 		orr	r3, r3, #4
 646 0016 8380     		strh	r3, [r0, #4]	@ movhi
 647 0018 7047     		bx	lr
 648              		.cfi_endproc
 649              	.LFE121:
 650              		.size	SPI_SSOutputCmd, .-SPI_SSOutputCmd
 651 001a 00BFAFF3 		.section	.text.SPI_TIModeCmd,"ax",%progbits
 651      0080
 652              		.align	2
 653              		.p2align 4,,15
 654              		.global	SPI_TIModeCmd
 655              		.thumb
 656              		.thumb_func
 657              		.type	SPI_TIModeCmd, %function
 658              	SPI_TIModeCmd:
 659              	.LFB122:
 660              		.loc 1 670 0
 661              		.cfi_startproc
 662              		@ args = 0, pretend = 0, frame = 0
 663              		@ frame_needed = 0, uses_anonymous_args = 0
 664              		@ link register save eliminated.
 665              	.LVL51:
 666              		.loc 1 678 0
 667 0000 8388     		ldrh	r3, [r0, #4]
 668              		.loc 1 675 0
 669 0002 29B9     		cbnz	r1, .L58
 670              		.loc 1 683 0
 671 0004 23F01003 		bic	r3, r3, #16
 672 0008 1B04     		lsls	r3, r3, #16
 673 000a 1B0C     		lsrs	r3, r3, #16
 674 000c 8380     		strh	r3, [r0, #4]	@ movhi
 675 000e 7047     		bx	lr
ARM GAS  /var/folders/7z/kps_xzfj7sn5l5gkyq8s9db00000gn/T//ccxQbMtW.s 			page 13


 676              	.L58:
 677              		.loc 1 678 0
 678 0010 9BB2     		uxth	r3, r3
 679 0012 43F01003 		orr	r3, r3, #16
 680 0016 8380     		strh	r3, [r0, #4]	@ movhi
 681 0018 7047     		bx	lr
 682              		.cfi_endproc
 683              	.LFE122:
 684              		.size	SPI_TIModeCmd, .-SPI_TIModeCmd
 685 001a 00BFAFF3 		.section	.text.I2S_FullDuplexConfig,"ax",%progbits
 685      0080
 686              		.align	2
 687              		.p2align 4,,15
 688              		.global	I2S_FullDuplexConfig
 689              		.thumb
 690              		.thumb_func
 691              		.type	I2S_FullDuplexConfig, %function
 692              	I2S_FullDuplexConfig:
 693              	.LFB123:
 694              		.loc 1 707 0
 695              		.cfi_startproc
 696              		@ args = 0, pretend = 0, frame = 0
 697              		@ frame_needed = 0, uses_anonymous_args = 0
 698              		@ link register save eliminated.
 699              	.LVL52:
 700              		.loc 1 719 0
 701 0000 838B     		ldrh	r3, [r0, #28]
 702 0002 23F47B63 		bic	r3, r3, #4016
 703 0006 23F00F03 		bic	r3, r3, #15
 704 000a 1B04     		lsls	r3, r3, #16
 705              		.loc 1 720 0
 706 000c 0222     		movs	r2, #2
 707              		.loc 1 719 0
 708 000e 1B0C     		lsrs	r3, r3, #16
 709 0010 8383     		strh	r3, [r0, #28]	@ movhi
 710              		.loc 1 720 0
 711 0012 0284     		strh	r2, [r0, #32]	@ movhi
 712              		.loc 1 723 0
 713 0014 838B     		ldrh	r3, [r0, #28]
 714 0016 8A89     		ldrh	r2, [r1, #12]
 715              		.loc 1 707 0
 716 0018 70B4     		push	{r4, r5, r6}
 717              		.cfi_def_cfa_offset 12
 718              		.cfi_offset 4, -12
 719              		.cfi_offset 5, -8
 720              		.cfi_offset 6, -4
 721 001a 4D88     		ldrh	r5, [r1, #2]
 722              		.loc 1 726 0
 723 001c 0C88     		ldrh	r4, [r1]
 724 001e 8E88     		ldrh	r6, [r1, #4]
 725              		.loc 1 723 0
 726 0020 9BB2     		uxth	r3, r3
 727              	.LVL53:
 728 0022 2B43     		orrs	r3, r3, r5
 729              	.LVL54:
 730              		.loc 1 726 0
 731 0024 24F40071 		bic	r1, r4, #512
ARM GAS  /var/folders/7z/kps_xzfj7sn5l5gkyq8s9db00000gn/T//ccxQbMtW.s 			page 14


 732              	.LVL55:
 733 0028 43F40063 		orr	r3, r3, #2048
 734 002c 3343     		orrs	r3, r3, r6
 735 002e 89B2     		uxth	r1, r1
 736 0030 1343     		orrs	r3, r3, r2
 737 0032 0029     		cmp	r1, #0
 738 0034 9BB2     		uxth	r3, r3
 739              		.loc 1 734 0
 740 0036 0CBF     		ite	eq
 741 0038 4FF48072 		moveq	r2, #256
 742 003c 0022     		movne	r2, #0
 743              	.LVL56:
 744              		.loc 1 740 0
 745 003e 1343     		orrs	r3, r3, r2
 746              	.LVL57:
 747              		.loc 1 745 0
 748 0040 8383     		strh	r3, [r0, #28]	@ movhi
 749              		.loc 1 746 0
 750 0042 70BC     		pop	{r4, r5, r6}
 751              		.cfi_restore 6
 752              		.cfi_restore 5
 753              		.cfi_restore 4
 754              		.cfi_def_cfa_offset 0
 755 0044 7047     		bx	lr
 756              		.cfi_endproc
 757              	.LFE123:
 758              		.size	I2S_FullDuplexConfig, .-I2S_FullDuplexConfig
 759 0046 00BFAFF3 		.section	.text.SPI_I2S_ReceiveData,"ax",%progbits
 759      0080AFF3 
 759      0080
 760              		.align	2
 761              		.p2align 4,,15
 762              		.global	SPI_I2S_ReceiveData
 763              		.thumb
 764              		.thumb_func
 765              		.type	SPI_I2S_ReceiveData, %function
 766              	SPI_I2S_ReceiveData:
 767              	.LFB124:
 768              		.loc 1 782 0
 769              		.cfi_startproc
 770              		@ args = 0, pretend = 0, frame = 0
 771              		@ frame_needed = 0, uses_anonymous_args = 0
 772              		@ link register save eliminated.
 773              	.LVL58:
 774              		.loc 1 787 0
 775 0000 8089     		ldrh	r0, [r0, #12]
 776              	.LVL59:
 777              		.loc 1 788 0
 778 0002 80B2     		uxth	r0, r0
 779 0004 7047     		bx	lr
 780              		.cfi_endproc
 781              	.LFE124:
 782              		.size	SPI_I2S_ReceiveData, .-SPI_I2S_ReceiveData
 783 0006 00BFAFF3 		.section	.text.SPI_I2S_SendData,"ax",%progbits
 783      0080AFF3 
 783      0080
 784              		.align	2
ARM GAS  /var/folders/7z/kps_xzfj7sn5l5gkyq8s9db00000gn/T//ccxQbMtW.s 			page 15


 785              		.p2align 4,,15
 786              		.global	SPI_I2S_SendData
 787              		.thumb
 788              		.thumb_func
 789              		.type	SPI_I2S_SendData, %function
 790              	SPI_I2S_SendData:
 791              	.LFB125:
 792              		.loc 1 798 0
 793              		.cfi_startproc
 794              		@ args = 0, pretend = 0, frame = 0
 795              		@ frame_needed = 0, uses_anonymous_args = 0
 796              		@ link register save eliminated.
 797              	.LVL60:
 798              		.loc 1 803 0
 799 0000 8181     		strh	r1, [r0, #12]	@ movhi
 800 0002 7047     		bx	lr
 801              		.cfi_endproc
 802              	.LFE125:
 803              		.size	SPI_I2S_SendData, .-SPI_I2S_SendData
 804 0004 AFF30080 		.section	.text.SPI_CalculateCRC,"ax",%progbits
 804      AFF30080 
 804      AFF30080 
 805              		.align	2
 806              		.p2align 4,,15
 807              		.global	SPI_CalculateCRC
 808              		.thumb
 809              		.thumb_func
 810              		.type	SPI_CalculateCRC, %function
 811              	SPI_CalculateCRC:
 812              	.LFB126:
 813              		.loc 1 887 0
 814              		.cfi_startproc
 815              		@ args = 0, pretend = 0, frame = 0
 816              		@ frame_needed = 0, uses_anonymous_args = 0
 817              		@ link register save eliminated.
 818              	.LVL61:
 819              		.loc 1 894 0
 820 0000 0388     		ldrh	r3, [r0]
 821              		.loc 1 891 0
 822 0002 29B9     		cbnz	r1, .L68
 823              		.loc 1 899 0
 824 0004 23F40053 		bic	r3, r3, #8192
 825 0008 1B04     		lsls	r3, r3, #16
 826 000a 1B0C     		lsrs	r3, r3, #16
 827 000c 0380     		strh	r3, [r0]	@ movhi
 828 000e 7047     		bx	lr
 829              	.L68:
 830              		.loc 1 894 0
 831 0010 9BB2     		uxth	r3, r3
 832 0012 43F40053 		orr	r3, r3, #8192
 833 0016 0380     		strh	r3, [r0]	@ movhi
 834 0018 7047     		bx	lr
 835              		.cfi_endproc
 836              	.LFE126:
 837              		.size	SPI_CalculateCRC, .-SPI_CalculateCRC
 838 001a 00BFAFF3 		.section	.text.SPI_TransmitCRC,"ax",%progbits
 838      0080
ARM GAS  /var/folders/7z/kps_xzfj7sn5l5gkyq8s9db00000gn/T//ccxQbMtW.s 			page 16


 839              		.align	2
 840              		.p2align 4,,15
 841              		.global	SPI_TransmitCRC
 842              		.thumb
 843              		.thumb_func
 844              		.type	SPI_TransmitCRC, %function
 845              	SPI_TransmitCRC:
 846              	.LFB127:
 847              		.loc 1 909 0
 848              		.cfi_startproc
 849              		@ args = 0, pretend = 0, frame = 0
 850              		@ frame_needed = 0, uses_anonymous_args = 0
 851              		@ link register save eliminated.
 852              	.LVL62:
 853              		.loc 1 914 0
 854 0000 0388     		ldrh	r3, [r0]
 855 0002 9BB2     		uxth	r3, r3
 856 0004 43F48053 		orr	r3, r3, #4096
 857 0008 0380     		strh	r3, [r0]	@ movhi
 858 000a 7047     		bx	lr
 859              		.cfi_endproc
 860              	.LFE127:
 861              		.size	SPI_TransmitCRC, .-SPI_TransmitCRC
 862 000c AFF30080 		.section	.text.SPI_GetCRC,"ax",%progbits
 863              		.align	2
 864              		.p2align 4,,15
 865              		.global	SPI_GetCRC
 866              		.thumb
 867              		.thumb_func
 868              		.type	SPI_GetCRC, %function
 869              	SPI_GetCRC:
 870              	.LFB128:
 871              		.loc 1 927 0
 872              		.cfi_startproc
 873              		@ args = 0, pretend = 0, frame = 0
 874              		@ frame_needed = 0, uses_anonymous_args = 0
 875              		@ link register save eliminated.
 876              	.LVL63:
 877              		.loc 1 932 0
 878 0000 0129     		cmp	r1, #1
 879              		.loc 1 935 0
 880 0002 14BF     		ite	ne
 881 0004 008B     		ldrhne	r0, [r0, #24]
 882              	.LVL64:
 883              		.loc 1 940 0
 884 0006 808A     		ldrheq	r0, [r0, #20]
 885 0008 80B2     		uxth	r0, r0
 886              	.LVL65:
 887              		.loc 1 944 0
 888 000a 7047     		bx	lr
 889              		.cfi_endproc
 890              	.LFE128:
 891              		.size	SPI_GetCRC, .-SPI_GetCRC
 892 000c AFF30080 		.section	.text.SPI_GetCRCPolynomial,"ax",%progbits
 893              		.align	2
 894              		.p2align 4,,15
 895              		.global	SPI_GetCRCPolynomial
ARM GAS  /var/folders/7z/kps_xzfj7sn5l5gkyq8s9db00000gn/T//ccxQbMtW.s 			page 17


 896              		.thumb
 897              		.thumb_func
 898              		.type	SPI_GetCRCPolynomial, %function
 899              	SPI_GetCRCPolynomial:
 900              	.LFB129:
 901              		.loc 1 952 0
 902              		.cfi_startproc
 903              		@ args = 0, pretend = 0, frame = 0
 904              		@ frame_needed = 0, uses_anonymous_args = 0
 905              		@ link register save eliminated.
 906              	.LVL66:
 907              		.loc 1 957 0
 908 0000 008A     		ldrh	r0, [r0, #16]
 909              	.LVL67:
 910              		.loc 1 958 0
 911 0002 80B2     		uxth	r0, r0
 912 0004 7047     		bx	lr
 913              		.cfi_endproc
 914              	.LFE129:
 915              		.size	SPI_GetCRCPolynomial, .-SPI_GetCRCPolynomial
 916 0006 00BFAFF3 		.section	.text.SPI_I2S_DMACmd,"ax",%progbits
 916      0080AFF3 
 916      0080
 917              		.align	2
 918              		.p2align 4,,15
 919              		.global	SPI_I2S_DMACmd
 920              		.thumb
 921              		.thumb_func
 922              		.type	SPI_I2S_DMACmd, %function
 923              	SPI_I2S_DMACmd:
 924              	.LFB130:
 925              		.loc 1 989 0
 926              		.cfi_startproc
 927              		@ args = 0, pretend = 0, frame = 0
 928              		@ frame_needed = 0, uses_anonymous_args = 0
 929              		@ link register save eliminated.
 930              	.LVL68:
 931              		.loc 1 998 0
 932 0000 8388     		ldrh	r3, [r0, #4]
 933 0002 9BB2     		uxth	r3, r3
 934              		.loc 1 995 0
 935 0004 1AB9     		cbnz	r2, .L77
 936              		.loc 1 1003 0
 937 0006 23EA0101 		bic	r1, r3, r1
 938              	.LVL69:
 939 000a 8180     		strh	r1, [r0, #4]	@ movhi
 940 000c 7047     		bx	lr
 941              	.LVL70:
 942              	.L77:
 943              		.loc 1 998 0
 944 000e 1943     		orrs	r1, r1, r3
 945              	.LVL71:
 946 0010 8180     		strh	r1, [r0, #4]	@ movhi
 947 0012 7047     		bx	lr
 948              		.cfi_endproc
 949              	.LFE130:
 950              		.size	SPI_I2S_DMACmd, .-SPI_I2S_DMACmd
ARM GAS  /var/folders/7z/kps_xzfj7sn5l5gkyq8s9db00000gn/T//ccxQbMtW.s 			page 18


 951 0014 AFF30080 		.section	.text.SPI_I2S_ITConfig,"ax",%progbits
 951      AFF30080 
 951      AFF30080 
 952              		.align	2
 953              		.p2align 4,,15
 954              		.global	SPI_I2S_ITConfig
 955              		.thumb
 956              		.thumb_func
 957              		.type	SPI_I2S_ITConfig, %function
 958              	SPI_I2S_ITConfig:
 959              	.LFB131:
 960              		.loc 1 1098 0
 961              		.cfi_startproc
 962              		@ args = 0, pretend = 0, frame = 0
 963              		@ frame_needed = 0, uses_anonymous_args = 0
 964              		@ link register save eliminated.
 965              	.LVL72:
 966              		.loc 1 1110 0
 967 0000 0909     		lsrs	r1, r1, #4
 968              	.LVL73:
 969 0002 0123     		movs	r3, #1
 970 0004 8B40     		lsls	r3, r3, r1
 971 0006 9BB2     		uxth	r3, r3
 972              	.LVL74:
 973              		.loc 1 1112 0
 974 0008 2AB9     		cbnz	r2, .L81
 975              		.loc 1 1120 0
 976 000a 8288     		ldrh	r2, [r0, #4]
 977              	.LVL75:
 978 000c 92B2     		uxth	r2, r2
 979 000e 22EA0303 		bic	r3, r2, r3
 980              	.LVL76:
 981 0012 8380     		strh	r3, [r0, #4]	@ movhi
 982 0014 7047     		bx	lr
 983              	.LVL77:
 984              	.L81:
 985              		.loc 1 1115 0
 986 0016 8288     		ldrh	r2, [r0, #4]
 987              	.LVL78:
 988 0018 92B2     		uxth	r2, r2
 989 001a 1343     		orrs	r3, r3, r2
 990              	.LVL79:
 991 001c 8380     		strh	r3, [r0, #4]	@ movhi
 992 001e 7047     		bx	lr
 993              		.cfi_endproc
 994              	.LFE131:
 995              		.size	SPI_I2S_ITConfig, .-SPI_I2S_ITConfig
 996              		.section	.text.SPI_I2S_GetFlagStatus,"ax",%progbits
 997              		.align	2
 998              		.p2align 4,,15
 999              		.global	SPI_I2S_GetFlagStatus
 1000              		.thumb
 1001              		.thumb_func
 1002              		.type	SPI_I2S_GetFlagStatus, %function
 1003              	SPI_I2S_GetFlagStatus:
 1004              	.LFB132:
 1005              		.loc 1 1142 0
ARM GAS  /var/folders/7z/kps_xzfj7sn5l5gkyq8s9db00000gn/T//ccxQbMtW.s 			page 19


 1006              		.cfi_startproc
 1007              		@ args = 0, pretend = 0, frame = 0
 1008              		@ frame_needed = 0, uses_anonymous_args = 0
 1009              		@ link register save eliminated.
 1010              	.LVL80:
 1011              		.loc 1 1149 0
 1012 0000 0389     		ldrh	r3, [r0, #8]
 1013              	.LVL81:
 1014 0002 1942     		tst	r1, r3
 1015              		.loc 1 1161 0
 1016 0004 14BF     		ite	ne
 1017 0006 0120     		movne	r0, #1
 1018              	.LVL82:
 1019 0008 0020     		moveq	r0, #0
 1020 000a 7047     		bx	lr
 1021              		.cfi_endproc
 1022              	.LFE132:
 1023              		.size	SPI_I2S_GetFlagStatus, .-SPI_I2S_GetFlagStatus
 1024 000c AFF30080 		.section	.text.SPI_I2S_ClearFlag,"ax",%progbits
 1025              		.align	2
 1026              		.p2align 4,,15
 1027              		.global	SPI_I2S_ClearFlag
 1028              		.thumb
 1029              		.thumb_func
 1030              		.type	SPI_I2S_ClearFlag, %function
 1031              	SPI_I2S_ClearFlag:
 1032              	.LFB133:
 1033              		.loc 1 1183 0
 1034              		.cfi_startproc
 1035              		@ args = 0, pretend = 0, frame = 0
 1036              		@ frame_needed = 0, uses_anonymous_args = 0
 1037              		@ link register save eliminated.
 1038              	.LVL83:
 1039              		.loc 1 1189 0
 1040 0000 C943     		mvns	r1, r1
 1041              	.LVL84:
 1042 0002 89B2     		uxth	r1, r1
 1043 0004 0181     		strh	r1, [r0, #8]	@ movhi
 1044 0006 7047     		bx	lr
 1045              		.cfi_endproc
 1046              	.LFE133:
 1047              		.size	SPI_I2S_ClearFlag, .-SPI_I2S_ClearFlag
 1048 0008 AFF30080 		.section	.text.SPI_I2S_GetITStatus,"ax",%progbits
 1048      AFF30080 
 1049              		.align	2
 1050              		.p2align 4,,15
 1051              		.global	SPI_I2S_GetITStatus
 1052              		.thumb
 1053              		.thumb_func
 1054              		.type	SPI_I2S_GetITStatus, %function
 1055              	SPI_I2S_GetITStatus:
 1056              	.LFB134:
 1057              		.loc 1 1208 0
 1058              		.cfi_startproc
 1059              		@ args = 0, pretend = 0, frame = 0
 1060              		@ frame_needed = 0, uses_anonymous_args = 0
 1061              		@ link register save eliminated.
ARM GAS  /var/folders/7z/kps_xzfj7sn5l5gkyq8s9db00000gn/T//ccxQbMtW.s 			page 20


 1062              	.LVL85:
 1063 0000 10B4     		push	{r4}
 1064              		.cfi_def_cfa_offset 4
 1065              		.cfi_offset 4, -4
 1066              		.loc 1 1226 0
 1067 0002 8488     		ldrh	r4, [r0, #4]
 1068              		.loc 1 1229 0
 1069 0004 0389     		ldrh	r3, [r0, #8]
 1070              		.loc 1 1217 0
 1071 0006 0122     		movs	r2, #1
 1072 0008 01F00F00 		and	r0, r1, #15
 1073              	.LVL86:
 1074              		.loc 1 1229 0
 1075 000c 9BB2     		uxth	r3, r3
 1076              		.loc 1 1217 0
 1077 000e 02FA00F0 		lsl	r0, r2, r0
 1078              		.loc 1 1229 0
 1079 0012 1840     		ands	r0, r3, r0
 1080              		.loc 1 1226 0
 1081 0014 A4B2     		uxth	r4, r4
 1082              	.LVL87:
 1083              		.loc 1 1229 0
 1084 0016 05D0     		beq	.L85
 1085              		.loc 1 1223 0 discriminator 1
 1086 0018 0909     		lsrs	r1, r1, #4
 1087              	.LVL88:
 1088 001a 8A40     		lsls	r2, r2, r1
 1089              		.loc 1 1229 0 discriminator 1
 1090 001c 1442     		tst	r4, r2
 1091              		.loc 1 1232 0 discriminator 1
 1092 001e 14BF     		ite	ne
 1093 0020 0120     		movne	r0, #1
 1094 0022 0020     		moveq	r0, #0
 1095              	.L85:
 1096              	.LVL89:
 1097              		.loc 1 1241 0
 1098 0024 5DF8044B 		ldr	r4, [sp], #4
 1099              		.cfi_restore 4
 1100              		.cfi_def_cfa_offset 0
 1101              	.LVL90:
 1102 0028 7047     		bx	lr
 1103              		.cfi_endproc
 1104              	.LFE134:
 1105              		.size	SPI_I2S_GetITStatus, .-SPI_I2S_GetITStatus
 1106 002a 00BFAFF3 		.section	.text.SPI_I2S_ClearITPendingBit,"ax",%progbits
 1106      0080
 1107              		.align	2
 1108              		.p2align 4,,15
 1109              		.global	SPI_I2S_ClearITPendingBit
 1110              		.thumb
 1111              		.thumb_func
 1112              		.type	SPI_I2S_ClearITPendingBit, %function
 1113              	SPI_I2S_ClearITPendingBit:
 1114              	.LFB135:
 1115              		.loc 1 1263 0
 1116              		.cfi_startproc
 1117              		@ args = 0, pretend = 0, frame = 0
ARM GAS  /var/folders/7z/kps_xzfj7sn5l5gkyq8s9db00000gn/T//ccxQbMtW.s 			page 21


 1118              		@ frame_needed = 0, uses_anonymous_args = 0
 1119              		@ link register save eliminated.
 1120              	.LVL91:
 1121              		.loc 1 1270 0
 1122 0000 01F00F01 		and	r1, r1, #15
 1123              	.LVL92:
 1124 0004 0123     		movs	r3, #1
 1125 0006 8B40     		lsls	r3, r3, r1
 1126              		.loc 1 1273 0
 1127 0008 DB43     		mvns	r3, r3
 1128 000a 9BB2     		uxth	r3, r3
 1129 000c 0381     		strh	r3, [r0, #8]	@ movhi
 1130 000e 7047     		bx	lr
 1131              		.cfi_endproc
 1132              	.LFE135:
 1133              		.size	SPI_I2S_ClearITPendingBit, .-SPI_I2S_ClearITPendingBit
 1134              		.text
 1135              	.Letext0:
 1136              		.file 2 "/Users/Baram/gcc-arm-none-eabi/arm-none-eabi/include/machine/_default_types.h"
 1137              		.file 3 "/Users/Baram/gcc-arm-none-eabi/arm-none-eabi/include/stdint.h"
 1138              		.file 4 "lib/ChibiOS_2.6.6/os/hal/platforms/STM32F4xx/stm32f4xx.h"
 1139              		.file 5 "lib/ChibiOS_2.6.6/ext/stdperiph_stm32f4/inc/stm32f4xx_spi.h"
 1140              		.file 6 "lib/ChibiOS_2.6.6/os/ports/common/ARMCMx/CMSIS/include/core_cm4.h"
 1141              		.file 7 "lib/ChibiOS_2.6.6/ext/stdperiph_stm32f4/inc/stm32f4xx_rcc.h"
 1142              		.section	.debug_info,"",%progbits
 1143              	.Ldebug_info0:
 1144 0000 E20B0000 		.4byte	0xbe2
 1145 0004 0400     		.2byte	0x4
 1146 0006 00000000 		.4byte	.Ldebug_abbrev0
 1147 000a 04       		.byte	0x4
 1148 000b 01       		.uleb128 0x1
 1149 000c F4020000 		.4byte	.LASF128
 1150 0010 01       		.byte	0x1
 1151 0011 17010000 		.4byte	.LASF129
 1152 0015 74020000 		.4byte	.LASF130
 1153 0019 00000000 		.4byte	.Ldebug_ranges0+0
 1154 001d 00000000 		.4byte	0
 1155 0021 00000000 		.4byte	.Ldebug_line0
 1156 0025 02       		.uleb128 0x2
 1157 0026 04       		.byte	0x4
 1158 0027 07       		.byte	0x7
 1159 0028 A5020000 		.4byte	.LASF0
 1160 002c 02       		.uleb128 0x2
 1161 002d 01       		.byte	0x1
 1162 002e 06       		.byte	0x6
 1163 002f 69010000 		.4byte	.LASF1
 1164 0033 03       		.uleb128 0x3
 1165 0034 38000000 		.4byte	.LASF4
 1166 0038 02       		.byte	0x2
 1167 0039 1D       		.byte	0x1d
 1168 003a 3E000000 		.4byte	0x3e
 1169 003e 02       		.uleb128 0x2
 1170 003f 01       		.byte	0x1
 1171 0040 08       		.byte	0x8
 1172 0041 F4050000 		.4byte	.LASF2
 1173 0045 02       		.uleb128 0x2
 1174 0046 02       		.byte	0x2
ARM GAS  /var/folders/7z/kps_xzfj7sn5l5gkyq8s9db00000gn/T//ccxQbMtW.s 			page 22


 1175 0047 05       		.byte	0x5
 1176 0048 0A060000 		.4byte	.LASF3
 1177 004c 03       		.uleb128 0x3
 1178 004d 8F060000 		.4byte	.LASF5
 1179 0051 02       		.byte	0x2
 1180 0052 2B       		.byte	0x2b
 1181 0053 57000000 		.4byte	0x57
 1182 0057 02       		.uleb128 0x2
 1183 0058 02       		.byte	0x2
 1184 0059 07       		.byte	0x7
 1185 005a 34040000 		.4byte	.LASF6
 1186 005e 03       		.uleb128 0x3
 1187 005f C1060000 		.4byte	.LASF7
 1188 0063 02       		.byte	0x2
 1189 0064 3F       		.byte	0x3f
 1190 0065 69000000 		.4byte	0x69
 1191 0069 02       		.uleb128 0x2
 1192 006a 04       		.byte	0x4
 1193 006b 05       		.byte	0x5
 1194 006c D5010000 		.4byte	.LASF8
 1195 0070 03       		.uleb128 0x3
 1196 0071 57020000 		.4byte	.LASF9
 1197 0075 02       		.byte	0x2
 1198 0076 41       		.byte	0x41
 1199 0077 7B000000 		.4byte	0x7b
 1200 007b 02       		.uleb128 0x2
 1201 007c 04       		.byte	0x4
 1202 007d 07       		.byte	0x7
 1203 007e C6020000 		.4byte	.LASF10
 1204 0082 02       		.uleb128 0x2
 1205 0083 08       		.byte	0x8
 1206 0084 05       		.byte	0x5
 1207 0085 5B010000 		.4byte	.LASF11
 1208 0089 02       		.uleb128 0x2
 1209 008a 08       		.byte	0x8
 1210 008b 07       		.byte	0x7
 1211 008c 75000000 		.4byte	.LASF12
 1212 0090 04       		.uleb128 0x4
 1213 0091 04       		.byte	0x4
 1214 0092 05       		.byte	0x5
 1215 0093 696E7400 		.ascii	"int\000"
 1216 0097 03       		.uleb128 0x3
 1217 0098 34070000 		.4byte	.LASF13
 1218 009c 03       		.byte	0x3
 1219 009d 15       		.byte	0x15
 1220 009e 33000000 		.4byte	0x33
 1221 00a2 03       		.uleb128 0x3
 1222 00a3 13020000 		.4byte	.LASF14
 1223 00a7 03       		.byte	0x3
 1224 00a8 21       		.byte	0x21
 1225 00a9 4C000000 		.4byte	0x4c
 1226 00ad 03       		.uleb128 0x3
 1227 00ae EC050000 		.4byte	.LASF15
 1228 00b2 03       		.byte	0x3
 1229 00b3 2C       		.byte	0x2c
 1230 00b4 5E000000 		.4byte	0x5e
 1231 00b8 03       		.uleb128 0x3
ARM GAS  /var/folders/7z/kps_xzfj7sn5l5gkyq8s9db00000gn/T//ccxQbMtW.s 			page 23


 1232 00b9 63060000 		.4byte	.LASF16
 1233 00bd 03       		.byte	0x3
 1234 00be 2D       		.byte	0x2d
 1235 00bf 70000000 		.4byte	0x70
 1236 00c3 02       		.uleb128 0x2
 1237 00c4 04       		.byte	0x4
 1238 00c5 07       		.byte	0x7
 1239 00c6 F5040000 		.4byte	.LASF17
 1240 00ca 05       		.uleb128 0x5
 1241 00cb B8000000 		.4byte	0xb8
 1242 00cf 06       		.uleb128 0x6
 1243 00d0 B8000000 		.4byte	0xb8
 1244 00d4 DF000000 		.4byte	0xdf
 1245 00d8 07       		.uleb128 0x7
 1246 00d9 C3000000 		.4byte	0xc3
 1247 00dd 01       		.byte	0x1
 1248 00de 00       		.byte	0
 1249 00df 05       		.uleb128 0x5
 1250 00e0 A2000000 		.4byte	0xa2
 1251 00e4 05       		.uleb128 0x5
 1252 00e5 AD000000 		.4byte	0xad
 1253 00e9 08       		.uleb128 0x8
 1254 00ea 01       		.byte	0x1
 1255 00eb 04       		.byte	0x4
 1256 00ec F701     		.2byte	0x1f7
 1257 00ee FF000000 		.4byte	0xff
 1258 00f2 09       		.uleb128 0x9
 1259 00f3 CC040000 		.4byte	.LASF18
 1260 00f7 00       		.sleb128 0
 1261 00f8 0A       		.uleb128 0xa
 1262 00f9 53455400 		.ascii	"SET\000"
 1263 00fd 01       		.sleb128 1
 1264 00fe 00       		.byte	0
 1265 00ff 0B       		.uleb128 0xb
 1266 0100 1A000000 		.4byte	.LASF19
 1267 0104 04       		.byte	0x4
 1268 0105 F701     		.2byte	0x1f7
 1269 0107 E9000000 		.4byte	0xe9
 1270 010b 0B       		.uleb128 0xb
 1271 010c 9C020000 		.4byte	.LASF20
 1272 0110 04       		.byte	0x4
 1273 0111 F701     		.2byte	0x1f7
 1274 0113 E9000000 		.4byte	0xe9
 1275 0117 08       		.uleb128 0x8
 1276 0118 01       		.byte	0x1
 1277 0119 04       		.byte	0x4
 1278 011a F901     		.2byte	0x1f9
 1279 011c 2D010000 		.4byte	0x12d
 1280 0120 09       		.uleb128 0x9
 1281 0121 6D000000 		.4byte	.LASF21
 1282 0125 00       		.sleb128 0
 1283 0126 09       		.uleb128 0x9
 1284 0127 0C020000 		.4byte	.LASF22
 1285 012b 01       		.sleb128 1
 1286 012c 00       		.byte	0
 1287 012d 0B       		.uleb128 0xb
 1288 012e 21050000 		.4byte	.LASF23
ARM GAS  /var/folders/7z/kps_xzfj7sn5l5gkyq8s9db00000gn/T//ccxQbMtW.s 			page 24


 1289 0132 04       		.byte	0x4
 1290 0133 F901     		.2byte	0x1f9
 1291 0135 17010000 		.4byte	0x117
 1292 0139 0C       		.uleb128 0xc
 1293 013a 90       		.byte	0x90
 1294 013b 04       		.byte	0x4
 1295 013c 5804     		.2byte	0x458
 1296 013e E2020000 		.4byte	0x2e2
 1297 0142 0D       		.uleb128 0xd
 1298 0143 435200   		.ascii	"CR\000"
 1299 0146 04       		.byte	0x4
 1300 0147 5A04     		.2byte	0x45a
 1301 0149 CA000000 		.4byte	0xca
 1302 014d 00       		.byte	0
 1303 014e 0E       		.uleb128 0xe
 1304 014f 34020000 		.4byte	.LASF24
 1305 0153 04       		.byte	0x4
 1306 0154 5B04     		.2byte	0x45b
 1307 0156 CA000000 		.4byte	0xca
 1308 015a 04       		.byte	0x4
 1309 015b 0E       		.uleb128 0xe
 1310 015c 5D070000 		.4byte	.LASF25
 1311 0160 04       		.byte	0x4
 1312 0161 5C04     		.2byte	0x45c
 1313 0163 CA000000 		.4byte	0xca
 1314 0167 08       		.byte	0x8
 1315 0168 0D       		.uleb128 0xd
 1316 0169 43495200 		.ascii	"CIR\000"
 1317 016d 04       		.byte	0x4
 1318 016e 5D04     		.2byte	0x45d
 1319 0170 CA000000 		.4byte	0xca
 1320 0174 0C       		.byte	0xc
 1321 0175 0E       		.uleb128 0xe
 1322 0176 75010000 		.4byte	.LASF26
 1323 017a 04       		.byte	0x4
 1324 017b 5E04     		.2byte	0x45e
 1325 017d CA000000 		.4byte	0xca
 1326 0181 10       		.byte	0x10
 1327 0182 0E       		.uleb128 0xe
 1328 0183 9A060000 		.4byte	.LASF27
 1329 0187 04       		.byte	0x4
 1330 0188 5F04     		.2byte	0x45f
 1331 018a CA000000 		.4byte	0xca
 1332 018e 14       		.byte	0x14
 1333 018f 0E       		.uleb128 0xe
 1334 0190 5D040000 		.4byte	.LASF28
 1335 0194 04       		.byte	0x4
 1336 0195 6004     		.2byte	0x460
 1337 0197 CA000000 		.4byte	0xca
 1338 019b 18       		.byte	0x18
 1339 019c 0E       		.uleb128 0xe
 1340 019d 89050000 		.4byte	.LASF29
 1341 01a1 04       		.byte	0x4
 1342 01a2 6104     		.2byte	0x461
 1343 01a4 B8000000 		.4byte	0xb8
 1344 01a8 1C       		.byte	0x1c
 1345 01a9 0E       		.uleb128 0xe
ARM GAS  /var/folders/7z/kps_xzfj7sn5l5gkyq8s9db00000gn/T//ccxQbMtW.s 			page 25


 1346 01aa 1E070000 		.4byte	.LASF30
 1347 01ae 04       		.byte	0x4
 1348 01af 6204     		.2byte	0x462
 1349 01b1 CA000000 		.4byte	0xca
 1350 01b5 20       		.byte	0x20
 1351 01b6 0E       		.uleb128 0xe
 1352 01b7 ED010000 		.4byte	.LASF31
 1353 01bb 04       		.byte	0x4
 1354 01bc 6304     		.2byte	0x463
 1355 01be CA000000 		.4byte	0xca
 1356 01c2 24       		.byte	0x24
 1357 01c3 0E       		.uleb128 0xe
 1358 01c4 93050000 		.4byte	.LASF32
 1359 01c8 04       		.byte	0x4
 1360 01c9 6404     		.2byte	0x464
 1361 01cb CF000000 		.4byte	0xcf
 1362 01cf 28       		.byte	0x28
 1363 01d0 0E       		.uleb128 0xe
 1364 01d1 48070000 		.4byte	.LASF33
 1365 01d5 04       		.byte	0x4
 1366 01d6 6504     		.2byte	0x465
 1367 01d8 CA000000 		.4byte	0xca
 1368 01dc 30       		.byte	0x30
 1369 01dd 0E       		.uleb128 0xe
 1370 01de E3060000 		.4byte	.LASF34
 1371 01e2 04       		.byte	0x4
 1372 01e3 6604     		.2byte	0x466
 1373 01e5 CA000000 		.4byte	0xca
 1374 01e9 34       		.byte	0x34
 1375 01ea 0E       		.uleb128 0xe
 1376 01eb FE040000 		.4byte	.LASF35
 1377 01ef 04       		.byte	0x4
 1378 01f0 6704     		.2byte	0x467
 1379 01f2 CA000000 		.4byte	0xca
 1380 01f6 38       		.byte	0x38
 1381 01f7 0E       		.uleb128 0xe
 1382 01f8 9D050000 		.4byte	.LASF36
 1383 01fc 04       		.byte	0x4
 1384 01fd 6804     		.2byte	0x468
 1385 01ff B8000000 		.4byte	0xb8
 1386 0203 3C       		.byte	0x3c
 1387 0204 0E       		.uleb128 0xe
 1388 0205 D6060000 		.4byte	.LASF37
 1389 0209 04       		.byte	0x4
 1390 020a 6904     		.2byte	0x469
 1391 020c CA000000 		.4byte	0xca
 1392 0210 40       		.byte	0x40
 1393 0211 0E       		.uleb128 0xe
 1394 0212 34060000 		.4byte	.LASF38
 1395 0216 04       		.byte	0x4
 1396 0217 6A04     		.2byte	0x46a
 1397 0219 CA000000 		.4byte	0xca
 1398 021d 44       		.byte	0x44
 1399 021e 0E       		.uleb128 0xe
 1400 021f A7050000 		.4byte	.LASF39
 1401 0223 04       		.byte	0x4
 1402 0224 6B04     		.2byte	0x46b
ARM GAS  /var/folders/7z/kps_xzfj7sn5l5gkyq8s9db00000gn/T//ccxQbMtW.s 			page 26


 1403 0226 CF000000 		.4byte	0xcf
 1404 022a 48       		.byte	0x48
 1405 022b 0E       		.uleb128 0xe
 1406 022c F8000000 		.4byte	.LASF40
 1407 0230 04       		.byte	0x4
 1408 0231 6C04     		.2byte	0x46c
 1409 0233 CA000000 		.4byte	0xca
 1410 0237 50       		.byte	0x50
 1411 0238 0E       		.uleb128 0xe
 1412 0239 17050000 		.4byte	.LASF41
 1413 023d 04       		.byte	0x4
 1414 023e 6D04     		.2byte	0x46d
 1415 0240 CA000000 		.4byte	0xca
 1416 0244 54       		.byte	0x54
 1417 0245 0E       		.uleb128 0xe
 1418 0246 14060000 		.4byte	.LASF42
 1419 024a 04       		.byte	0x4
 1420 024b 6E04     		.2byte	0x46e
 1421 024d CA000000 		.4byte	0xca
 1422 0251 58       		.byte	0x58
 1423 0252 0E       		.uleb128 0xe
 1424 0253 B1050000 		.4byte	.LASF43
 1425 0257 04       		.byte	0x4
 1426 0258 6F04     		.2byte	0x46f
 1427 025a B8000000 		.4byte	0xb8
 1428 025e 5C       		.byte	0x5c
 1429 025f 0E       		.uleb128 0xe
 1430 0260 09000000 		.4byte	.LASF44
 1431 0264 04       		.byte	0x4
 1432 0265 7004     		.2byte	0x470
 1433 0267 CA000000 		.4byte	0xca
 1434 026b 60       		.byte	0x60
 1435 026c 0E       		.uleb128 0xe
 1436 026d A4040000 		.4byte	.LASF45
 1437 0271 04       		.byte	0x4
 1438 0272 7104     		.2byte	0x471
 1439 0274 CA000000 		.4byte	0xca
 1440 0278 64       		.byte	0x64
 1441 0279 0E       		.uleb128 0xe
 1442 027a BB050000 		.4byte	.LASF46
 1443 027e 04       		.byte	0x4
 1444 027f 7204     		.2byte	0x472
 1445 0281 CF000000 		.4byte	0xcf
 1446 0285 68       		.byte	0x68
 1447 0286 0E       		.uleb128 0xe
 1448 0287 DE060000 		.4byte	.LASF47
 1449 028b 04       		.byte	0x4
 1450 028c 7304     		.2byte	0x473
 1451 028e CA000000 		.4byte	0xca
 1452 0292 70       		.byte	0x70
 1453 0293 0D       		.uleb128 0xd
 1454 0294 43535200 		.ascii	"CSR\000"
 1455 0298 04       		.byte	0x4
 1456 0299 7404     		.2byte	0x474
 1457 029b CA000000 		.4byte	0xca
 1458 029f 74       		.byte	0x74
 1459 02a0 0E       		.uleb128 0xe
ARM GAS  /var/folders/7z/kps_xzfj7sn5l5gkyq8s9db00000gn/T//ccxQbMtW.s 			page 27


 1460 02a1 C5050000 		.4byte	.LASF48
 1461 02a5 04       		.byte	0x4
 1462 02a6 7504     		.2byte	0x475
 1463 02a8 CF000000 		.4byte	0xcf
 1464 02ac 78       		.byte	0x78
 1465 02ad 0E       		.uleb128 0xe
 1466 02ae 18070000 		.4byte	.LASF49
 1467 02b2 04       		.byte	0x4
 1468 02b3 7604     		.2byte	0x476
 1469 02b5 CA000000 		.4byte	0xca
 1470 02b9 80       		.byte	0x80
 1471 02ba 0E       		.uleb128 0xe
 1472 02bb 47040000 		.4byte	.LASF50
 1473 02bf 04       		.byte	0x4
 1474 02c0 7704     		.2byte	0x477
 1475 02c2 CA000000 		.4byte	0xca
 1476 02c6 84       		.byte	0x84
 1477 02c7 0E       		.uleb128 0xe
 1478 02c8 70050000 		.4byte	.LASF51
 1479 02cc 04       		.byte	0x4
 1480 02cd 7804     		.2byte	0x478
 1481 02cf CA000000 		.4byte	0xca
 1482 02d3 88       		.byte	0x88
 1483 02d4 0E       		.uleb128 0xe
 1484 02d5 53010000 		.4byte	.LASF52
 1485 02d9 04       		.byte	0x4
 1486 02da 7904     		.2byte	0x479
 1487 02dc CA000000 		.4byte	0xca
 1488 02e0 8C       		.byte	0x8c
 1489 02e1 00       		.byte	0
 1490 02e2 0B       		.uleb128 0xb
 1491 02e3 E8020000 		.4byte	.LASF53
 1492 02e7 04       		.byte	0x4
 1493 02e8 7B04     		.2byte	0x47b
 1494 02ea 39010000 		.4byte	0x139
 1495 02ee 0C       		.uleb128 0xc
 1496 02ef 24       		.byte	0x24
 1497 02f0 04       		.byte	0x4
 1498 02f1 E304     		.2byte	0x4e3
 1499 02f3 E0030000 		.4byte	0x3e0
 1500 02f7 0D       		.uleb128 0xd
 1501 02f8 43523100 		.ascii	"CR1\000"
 1502 02fc 04       		.byte	0x4
 1503 02fd E504     		.2byte	0x4e5
 1504 02ff DF000000 		.4byte	0xdf
 1505 0303 00       		.byte	0
 1506 0304 0E       		.uleb128 0xe
 1507 0305 89050000 		.4byte	.LASF29
 1508 0309 04       		.byte	0x4
 1509 030a E604     		.2byte	0x4e6
 1510 030c A2000000 		.4byte	0xa2
 1511 0310 02       		.byte	0x2
 1512 0311 0D       		.uleb128 0xd
 1513 0312 43523200 		.ascii	"CR2\000"
 1514 0316 04       		.byte	0x4
 1515 0317 E704     		.2byte	0x4e7
 1516 0319 DF000000 		.4byte	0xdf
ARM GAS  /var/folders/7z/kps_xzfj7sn5l5gkyq8s9db00000gn/T//ccxQbMtW.s 			page 28


 1517 031d 04       		.byte	0x4
 1518 031e 0E       		.uleb128 0xe
 1519 031f 93050000 		.4byte	.LASF32
 1520 0323 04       		.byte	0x4
 1521 0324 E804     		.2byte	0x4e8
 1522 0326 A2000000 		.4byte	0xa2
 1523 032a 06       		.byte	0x6
 1524 032b 0D       		.uleb128 0xd
 1525 032c 535200   		.ascii	"SR\000"
 1526 032f 04       		.byte	0x4
 1527 0330 E904     		.2byte	0x4e9
 1528 0332 DF000000 		.4byte	0xdf
 1529 0336 08       		.byte	0x8
 1530 0337 0E       		.uleb128 0xe
 1531 0338 9D050000 		.4byte	.LASF36
 1532 033c 04       		.byte	0x4
 1533 033d EA04     		.2byte	0x4ea
 1534 033f A2000000 		.4byte	0xa2
 1535 0343 0A       		.byte	0xa
 1536 0344 0D       		.uleb128 0xd
 1537 0345 445200   		.ascii	"DR\000"
 1538 0348 04       		.byte	0x4
 1539 0349 EB04     		.2byte	0x4eb
 1540 034b DF000000 		.4byte	0xdf
 1541 034f 0C       		.byte	0xc
 1542 0350 0E       		.uleb128 0xe
 1543 0351 A7050000 		.4byte	.LASF39
 1544 0355 04       		.byte	0x4
 1545 0356 EC04     		.2byte	0x4ec
 1546 0358 A2000000 		.4byte	0xa2
 1547 035c 0E       		.byte	0xe
 1548 035d 0E       		.uleb128 0xe
 1549 035e 8C000000 		.4byte	.LASF54
 1550 0362 04       		.byte	0x4
 1551 0363 ED04     		.2byte	0x4ed
 1552 0365 DF000000 		.4byte	0xdf
 1553 0369 10       		.byte	0x10
 1554 036a 0E       		.uleb128 0xe
 1555 036b B1050000 		.4byte	.LASF43
 1556 036f 04       		.byte	0x4
 1557 0370 EE04     		.2byte	0x4ee
 1558 0372 A2000000 		.4byte	0xa2
 1559 0376 12       		.byte	0x12
 1560 0377 0E       		.uleb128 0xe
 1561 0378 13000000 		.4byte	.LASF55
 1562 037c 04       		.byte	0x4
 1563 037d EF04     		.2byte	0x4ef
 1564 037f DF000000 		.4byte	0xdf
 1565 0383 14       		.byte	0x14
 1566 0384 0E       		.uleb128 0xe
 1567 0385 BB050000 		.4byte	.LASF46
 1568 0389 04       		.byte	0x4
 1569 038a F004     		.2byte	0x4f0
 1570 038c A2000000 		.4byte	0xa2
 1571 0390 16       		.byte	0x16
 1572 0391 0E       		.uleb128 0xe
 1573 0392 42020000 		.4byte	.LASF56
ARM GAS  /var/folders/7z/kps_xzfj7sn5l5gkyq8s9db00000gn/T//ccxQbMtW.s 			page 29


 1574 0396 04       		.byte	0x4
 1575 0397 F104     		.2byte	0x4f1
 1576 0399 DF000000 		.4byte	0xdf
 1577 039d 18       		.byte	0x18
 1578 039e 0E       		.uleb128 0xe
 1579 039f C5050000 		.4byte	.LASF48
 1580 03a3 04       		.byte	0x4
 1581 03a4 F204     		.2byte	0x4f2
 1582 03a6 A2000000 		.4byte	0xa2
 1583 03aa 1A       		.byte	0x1a
 1584 03ab 0E       		.uleb128 0xe
 1585 03ac 7E010000 		.4byte	.LASF57
 1586 03b0 04       		.byte	0x4
 1587 03b1 F304     		.2byte	0x4f3
 1588 03b3 DF000000 		.4byte	0xdf
 1589 03b7 1C       		.byte	0x1c
 1590 03b8 0E       		.uleb128 0xe
 1591 03b9 CF050000 		.4byte	.LASF58
 1592 03bd 04       		.byte	0x4
 1593 03be F404     		.2byte	0x4f4
 1594 03c0 A2000000 		.4byte	0xa2
 1595 03c4 1E       		.byte	0x1e
 1596 03c5 0E       		.uleb128 0xe
 1597 03c6 EF040000 		.4byte	.LASF59
 1598 03ca 04       		.byte	0x4
 1599 03cb F504     		.2byte	0x4f5
 1600 03cd DF000000 		.4byte	0xdf
 1601 03d1 20       		.byte	0x20
 1602 03d2 0E       		.uleb128 0xe
 1603 03d3 D9050000 		.4byte	.LASF60
 1604 03d7 04       		.byte	0x4
 1605 03d8 F604     		.2byte	0x4f6
 1606 03da A2000000 		.4byte	0xa2
 1607 03de 22       		.byte	0x22
 1608 03df 00       		.byte	0
 1609 03e0 0B       		.uleb128 0xb
 1610 03e1 57060000 		.4byte	.LASF61
 1611 03e5 04       		.byte	0x4
 1612 03e6 F704     		.2byte	0x4f7
 1613 03e8 EE020000 		.4byte	0x2ee
 1614 03ec 0F       		.uleb128 0xf
 1615 03ed 12       		.byte	0x12
 1616 03ee 05       		.byte	0x5
 1617 03ef 36       		.byte	0x36
 1618 03f0 61040000 		.4byte	0x461
 1619 03f4 10       		.uleb128 0x10
 1620 03f5 49020000 		.4byte	.LASF62
 1621 03f9 05       		.byte	0x5
 1622 03fa 38       		.byte	0x38
 1623 03fb A2000000 		.4byte	0xa2
 1624 03ff 00       		.byte	0
 1625 0400 10       		.uleb128 0x10
 1626 0401 6C060000 		.4byte	.LASF63
 1627 0405 05       		.byte	0x5
 1628 0406 3B       		.byte	0x3b
 1629 0407 A2000000 		.4byte	0xa2
 1630 040b 02       		.byte	0x2
ARM GAS  /var/folders/7z/kps_xzfj7sn5l5gkyq8s9db00000gn/T//ccxQbMtW.s 			page 30


 1631 040c 10       		.uleb128 0x10
 1632 040d 27070000 		.4byte	.LASF64
 1633 0411 05       		.byte	0x5
 1634 0412 3E       		.byte	0x3e
 1635 0413 A2000000 		.4byte	0xa2
 1636 0417 04       		.byte	0x4
 1637 0418 10       		.uleb128 0x10
 1638 0419 E3050000 		.4byte	.LASF65
 1639 041d 05       		.byte	0x5
 1640 041e 41       		.byte	0x41
 1641 041f A2000000 		.4byte	0xa2
 1642 0423 06       		.byte	0x6
 1643 0424 10       		.uleb128 0x10
 1644 0425 2B060000 		.4byte	.LASF66
 1645 0429 05       		.byte	0x5
 1646 042a 44       		.byte	0x44
 1647 042b A2000000 		.4byte	0xa2
 1648 042f 08       		.byte	0x8
 1649 0430 10       		.uleb128 0x10
 1650 0431 87060000 		.4byte	.LASF67
 1651 0435 05       		.byte	0x5
 1652 0436 47       		.byte	0x47
 1653 0437 A2000000 		.4byte	0xa2
 1654 043b 0A       		.byte	0xa
 1655 043c 10       		.uleb128 0x10
 1656 043d 41060000 		.4byte	.LASF68
 1657 0441 05       		.byte	0x5
 1658 0442 4B       		.byte	0x4b
 1659 0443 A2000000 		.4byte	0xa2
 1660 0447 0C       		.byte	0xc
 1661 0448 10       		.uleb128 0x10
 1662 0449 1E060000 		.4byte	.LASF69
 1663 044d 05       		.byte	0x5
 1664 044e 51       		.byte	0x51
 1665 044f A2000000 		.4byte	0xa2
 1666 0453 0E       		.byte	0xe
 1667 0454 10       		.uleb128 0x10
 1668 0455 79040000 		.4byte	.LASF70
 1669 0459 05       		.byte	0x5
 1670 045a 54       		.byte	0x54
 1671 045b A2000000 		.4byte	0xa2
 1672 045f 10       		.byte	0x10
 1673 0460 00       		.byte	0
 1674 0461 03       		.uleb128 0x3
 1675 0462 94040000 		.4byte	.LASF71
 1676 0466 05       		.byte	0x5
 1677 0467 55       		.byte	0x55
 1678 0468 EC030000 		.4byte	0x3ec
 1679 046c 0F       		.uleb128 0xf
 1680 046d 10       		.byte	0x10
 1681 046e 05       		.byte	0x5
 1682 046f 5B       		.byte	0x5b
 1683 0470 BD040000 		.4byte	0x4bd
 1684 0474 10       		.uleb128 0x10
 1685 0475 0E050000 		.4byte	.LASF72
 1686 0479 05       		.byte	0x5
 1687 047a 5E       		.byte	0x5e
ARM GAS  /var/folders/7z/kps_xzfj7sn5l5gkyq8s9db00000gn/T//ccxQbMtW.s 			page 31


 1688 047b A2000000 		.4byte	0xa2
 1689 047f 00       		.byte	0
 1690 0480 10       		.uleb128 0x10
 1691 0481 CF000000 		.4byte	.LASF73
 1692 0485 05       		.byte	0x5
 1693 0486 61       		.byte	0x61
 1694 0487 A2000000 		.4byte	0xa2
 1695 048b 02       		.byte	0x2
 1696 048c 10       		.uleb128 0x10
 1697 048d E0040000 		.4byte	.LASF74
 1698 0491 05       		.byte	0x5
 1699 0492 64       		.byte	0x64
 1700 0493 A2000000 		.4byte	0xa2
 1701 0497 04       		.byte	0x4
 1702 0498 10       		.uleb128 0x10
 1703 0499 18040000 		.4byte	.LASF75
 1704 049d 05       		.byte	0x5
 1705 049e 67       		.byte	0x67
 1706 049f A2000000 		.4byte	0xa2
 1707 04a3 06       		.byte	0x6
 1708 04a4 10       		.uleb128 0x10
 1709 04a5 7B050000 		.4byte	.LASF76
 1710 04a9 05       		.byte	0x5
 1711 04aa 6A       		.byte	0x6a
 1712 04ab B8000000 		.4byte	0xb8
 1713 04af 08       		.byte	0x8
 1714 04b0 10       		.uleb128 0x10
 1715 04b1 8B040000 		.4byte	.LASF77
 1716 04b5 05       		.byte	0x5
 1717 04b6 6D       		.byte	0x6d
 1718 04b7 A2000000 		.4byte	0xa2
 1719 04bb 0C       		.byte	0xc
 1720 04bc 00       		.byte	0
 1721 04bd 03       		.uleb128 0x3
 1722 04be A3000000 		.4byte	.LASF78
 1723 04c2 05       		.byte	0x5
 1724 04c3 6F       		.byte	0x6f
 1725 04c4 6C040000 		.4byte	0x46c
 1726 04c8 11       		.uleb128 0x11
 1727 04c9 C0000000 		.4byte	.LASF79
 1728 04cd 01       		.byte	0x1
 1729 04ce E0       		.byte	0xe0
 1730 04cf 00000000 		.4byte	.LFB111
 1731 04d3 6C000000 		.4byte	.LFE111-.LFB111
 1732 04d7 01       		.uleb128 0x1
 1733 04d8 9C       		.byte	0x9c
 1734 04d9 85050000 		.4byte	0x585
 1735 04dd 12       		.uleb128 0x12
 1736 04de 3C060000 		.4byte	.LASF81
 1737 04e2 01       		.byte	0x1
 1738 04e3 E0       		.byte	0xe0
 1739 04e4 85050000 		.4byte	0x585
 1740 04e8 00000000 		.4byte	.LLST0
 1741 04ec 13       		.uleb128 0x13
 1742 04ed 20000000 		.4byte	.LVL2
 1743 04f1 BB0B0000 		.4byte	0xbbb
 1744 04f5 06050000 		.4byte	0x506
ARM GAS  /var/folders/7z/kps_xzfj7sn5l5gkyq8s9db00000gn/T//ccxQbMtW.s 			page 32


 1745 04f9 14       		.uleb128 0x14
 1746 04fa 01       		.uleb128 0x1
 1747 04fb 51       		.byte	0x51
 1748 04fc 01       		.uleb128 0x1
 1749 04fd 31       		.byte	0x31
 1750 04fe 14       		.uleb128 0x14
 1751 04ff 01       		.uleb128 0x1
 1752 0500 50       		.byte	0x50
 1753 0501 03       		.uleb128 0x3
 1754 0502 0A       		.byte	0xa
 1755 0503 0080     		.2byte	0x8000
 1756 0505 00       		.byte	0
 1757 0506 15       		.uleb128 0x15
 1758 0507 2E000000 		.4byte	.LVL3
 1759 050b BB0B0000 		.4byte	0xbbb
 1760 050f 20050000 		.4byte	0x520
 1761 0513 14       		.uleb128 0x14
 1762 0514 01       		.uleb128 0x1
 1763 0515 51       		.byte	0x51
 1764 0516 01       		.uleb128 0x1
 1765 0517 30       		.byte	0x30
 1766 0518 14       		.uleb128 0x14
 1767 0519 01       		.uleb128 0x1
 1768 051a 50       		.byte	0x50
 1769 051b 03       		.uleb128 0x3
 1770 051c 0A       		.byte	0xa
 1771 051d 0080     		.2byte	0x8000
 1772 051f 00       		.byte	0
 1773 0520 13       		.uleb128 0x13
 1774 0521 38000000 		.4byte	.LVL5
 1775 0525 D20B0000 		.4byte	0xbd2
 1776 0529 3A050000 		.4byte	0x53a
 1777 052d 14       		.uleb128 0x14
 1778 052e 01       		.uleb128 0x1
 1779 052f 51       		.byte	0x51
 1780 0530 01       		.uleb128 0x1
 1781 0531 31       		.byte	0x31
 1782 0532 14       		.uleb128 0x14
 1783 0533 01       		.uleb128 0x1
 1784 0534 50       		.byte	0x50
 1785 0535 03       		.uleb128 0x3
 1786 0536 0A       		.byte	0xa
 1787 0537 0010     		.2byte	0x1000
 1788 0539 00       		.byte	0
 1789 053a 15       		.uleb128 0x15
 1790 053b 46000000 		.4byte	.LVL6
 1791 053f D20B0000 		.4byte	0xbd2
 1792 0543 54050000 		.4byte	0x554
 1793 0547 14       		.uleb128 0x14
 1794 0548 01       		.uleb128 0x1
 1795 0549 51       		.byte	0x51
 1796 054a 01       		.uleb128 0x1
 1797 054b 30       		.byte	0x30
 1798 054c 14       		.uleb128 0x14
 1799 054d 01       		.uleb128 0x1
 1800 054e 50       		.byte	0x50
 1801 054f 03       		.uleb128 0x3
ARM GAS  /var/folders/7z/kps_xzfj7sn5l5gkyq8s9db00000gn/T//ccxQbMtW.s 			page 33


 1802 0550 0A       		.byte	0xa
 1803 0551 0010     		.2byte	0x1000
 1804 0553 00       		.byte	0
 1805 0554 13       		.uleb128 0x13
 1806 0555 50000000 		.4byte	.LVL8
 1807 0559 BB0B0000 		.4byte	0xbbb
 1808 055d 6E050000 		.4byte	0x56e
 1809 0561 14       		.uleb128 0x14
 1810 0562 01       		.uleb128 0x1
 1811 0563 51       		.byte	0x51
 1812 0564 01       		.uleb128 0x1
 1813 0565 31       		.byte	0x31
 1814 0566 14       		.uleb128 0x14
 1815 0567 01       		.uleb128 0x1
 1816 0568 50       		.byte	0x50
 1817 0569 03       		.uleb128 0x3
 1818 056a 0A       		.byte	0xa
 1819 056b 0040     		.2byte	0x4000
 1820 056d 00       		.byte	0
 1821 056e 16       		.uleb128 0x16
 1822 056f 5E000000 		.4byte	.LVL9
 1823 0573 BB0B0000 		.4byte	0xbbb
 1824 0577 14       		.uleb128 0x14
 1825 0578 01       		.uleb128 0x1
 1826 0579 51       		.byte	0x51
 1827 057a 01       		.uleb128 0x1
 1828 057b 30       		.byte	0x30
 1829 057c 14       		.uleb128 0x14
 1830 057d 01       		.uleb128 0x1
 1831 057e 50       		.byte	0x50
 1832 057f 03       		.uleb128 0x3
 1833 0580 0A       		.byte	0xa
 1834 0581 0040     		.2byte	0x4000
 1835 0583 00       		.byte	0
 1836 0584 00       		.byte	0
 1837 0585 17       		.uleb128 0x17
 1838 0586 04       		.byte	0x4
 1839 0587 E0030000 		.4byte	0x3e0
 1840 058b 18       		.uleb128 0x18
 1841 058c 2F000000 		.4byte	.LASF80
 1842 0590 01       		.byte	0x1
 1843 0591 0701     		.2byte	0x107
 1844 0593 00000000 		.4byte	.LFB112
 1845 0597 50000000 		.4byte	.LFE112-.LFB112
 1846 059b 01       		.uleb128 0x1
 1847 059c 9C       		.byte	0x9c
 1848 059d D0050000 		.4byte	0x5d0
 1849 05a1 19       		.uleb128 0x19
 1850 05a2 3C060000 		.4byte	.LASF81
 1851 05a6 01       		.byte	0x1
 1852 05a7 0701     		.2byte	0x107
 1853 05a9 85050000 		.4byte	0x585
 1854 05ad 01       		.uleb128 0x1
 1855 05ae 50       		.byte	0x50
 1856 05af 1A       		.uleb128 0x1a
 1857 05b0 BD040000 		.4byte	.LASF82
 1858 05b4 01       		.byte	0x1
ARM GAS  /var/folders/7z/kps_xzfj7sn5l5gkyq8s9db00000gn/T//ccxQbMtW.s 			page 34


 1859 05b5 0701     		.2byte	0x107
 1860 05b7 D0050000 		.4byte	0x5d0
 1861 05bb 53000000 		.4byte	.LLST1
 1862 05bf 1B       		.uleb128 0x1b
 1863 05c0 9C010000 		.4byte	.LASF85
 1864 05c4 01       		.byte	0x1
 1865 05c5 0901     		.2byte	0x109
 1866 05c7 A2000000 		.4byte	0xa2
 1867 05cb 74000000 		.4byte	.LLST2
 1868 05cf 00       		.byte	0
 1869 05d0 17       		.uleb128 0x17
 1870 05d1 04       		.byte	0x4
 1871 05d2 61040000 		.4byte	0x461
 1872 05d6 18       		.uleb128 0x18
 1873 05d7 FA060000 		.4byte	.LASF83
 1874 05db 01       		.byte	0x1
 1875 05dc 4701     		.2byte	0x147
 1876 05de 00000000 		.4byte	.LFB113
 1877 05e2 F0000000 		.4byte	.LFE113-.LFB113
 1878 05e6 01       		.uleb128 0x1
 1879 05e7 9C       		.byte	0x9c
 1880 05e8 9B060000 		.4byte	0x69b
 1881 05ec 19       		.uleb128 0x19
 1882 05ed 3C060000 		.4byte	.LASF81
 1883 05f1 01       		.byte	0x1
 1884 05f2 4701     		.2byte	0x147
 1885 05f4 85050000 		.4byte	0x585
 1886 05f8 01       		.uleb128 0x1
 1887 05f9 50       		.byte	0x50
 1888 05fa 1A       		.uleb128 0x1a
 1889 05fb 5E000000 		.4byte	.LASF84
 1890 05ff 01       		.byte	0x1
 1891 0600 4701     		.2byte	0x147
 1892 0602 9B060000 		.4byte	0x69b
 1893 0606 DA000000 		.4byte	.LLST3
 1894 060a 1B       		.uleb128 0x1b
 1895 060b 9C010000 		.4byte	.LASF85
 1896 060f 01       		.byte	0x1
 1897 0610 4901     		.2byte	0x149
 1898 0612 A2000000 		.4byte	0xa2
 1899 0616 06010000 		.4byte	.LLST4
 1900 061a 1B       		.uleb128 0x1b
 1901 061b 69050000 		.4byte	.LASF86
 1902 061f 01       		.byte	0x1
 1903 0620 4901     		.2byte	0x149
 1904 0622 A2000000 		.4byte	0xa2
 1905 0626 3B010000 		.4byte	.LLST5
 1906 062a 1B       		.uleb128 0x1b
 1907 062b 41070000 		.4byte	.LASF87
 1908 062f 01       		.byte	0x1
 1909 0630 4901     		.2byte	0x149
 1910 0632 A2000000 		.4byte	0xa2
 1911 0636 66010000 		.4byte	.LLST6
 1912 063a 1B       		.uleb128 0x1b
 1913 063b 50070000 		.4byte	.LASF88
 1914 063f 01       		.byte	0x1
 1915 0640 4901     		.2byte	0x149
ARM GAS  /var/folders/7z/kps_xzfj7sn5l5gkyq8s9db00000gn/T//ccxQbMtW.s 			page 35


 1916 0642 A2000000 		.4byte	0xa2
 1917 0646 A4010000 		.4byte	.LLST7
 1918 064a 1C       		.uleb128 0x1c
 1919 064b 746D7000 		.ascii	"tmp\000"
 1920 064f 01       		.byte	0x1
 1921 0650 4A01     		.2byte	0x14a
 1922 0652 B8000000 		.4byte	0xb8
 1923 0656 E5010000 		.4byte	.LLST8
 1924 065a 1B       		.uleb128 0x1b
 1925 065b 87070000 		.4byte	.LASF89
 1926 065f 01       		.byte	0x1
 1927 0660 4A01     		.2byte	0x14a
 1928 0662 B8000000 		.4byte	0xb8
 1929 0666 26020000 		.4byte	.LLST9
 1930 066a 1B       		.uleb128 0x1b
 1931 066b 25000000 		.4byte	.LASF90
 1932 066f 01       		.byte	0x1
 1933 0670 4C01     		.2byte	0x14c
 1934 0672 B8000000 		.4byte	0xb8
 1935 0676 7E020000 		.4byte	.LLST10
 1936 067a 1B       		.uleb128 0x1b
 1937 067b 2A000000 		.4byte	.LASF91
 1938 067f 01       		.byte	0x1
 1939 0680 4C01     		.2byte	0x14c
 1940 0682 B8000000 		.4byte	0xb8
 1941 0686 C4020000 		.4byte	.LLST11
 1942 068a 1B       		.uleb128 0x1b
 1943 068b 42000000 		.4byte	.LASF92
 1944 068f 01       		.byte	0x1
 1945 0690 4C01     		.2byte	0x14c
 1946 0692 B8000000 		.4byte	0xb8
 1947 0696 F7020000 		.4byte	.LLST12
 1948 069a 00       		.byte	0
 1949 069b 17       		.uleb128 0x17
 1950 069c 04       		.byte	0x4
 1951 069d BD040000 		.4byte	0x4bd
 1952 06a1 18       		.uleb128 0x18
 1953 06a2 DE010000 		.4byte	.LASF93
 1954 06a6 01       		.byte	0x1
 1955 06a7 CB01     		.2byte	0x1cb
 1956 06a9 00000000 		.4byte	.LFB114
 1957 06ad 18000000 		.4byte	.LFE114-.LFB114
 1958 06b1 01       		.uleb128 0x1
 1959 06b2 9C       		.byte	0x9c
 1960 06b3 C6060000 		.4byte	0x6c6
 1961 06b7 19       		.uleb128 0x19
 1962 06b8 BD040000 		.4byte	.LASF82
 1963 06bc 01       		.byte	0x1
 1964 06bd CB01     		.2byte	0x1cb
 1965 06bf D0050000 		.4byte	0x5d0
 1966 06c3 01       		.uleb128 0x1
 1967 06c4 50       		.byte	0x50
 1968 06c5 00       		.byte	0
 1969 06c6 18       		.uleb128 0x18
 1970 06c7 EB060000 		.4byte	.LASF94
 1971 06cb 01       		.byte	0x1
 1972 06cc E701     		.2byte	0x1e7
ARM GAS  /var/folders/7z/kps_xzfj7sn5l5gkyq8s9db00000gn/T//ccxQbMtW.s 			page 36


 1973 06ce 00000000 		.4byte	.LFB115
 1974 06d2 12000000 		.4byte	.LFE115-.LFB115
 1975 06d6 01       		.uleb128 0x1
 1976 06d7 9C       		.byte	0x9c
 1977 06d8 EB060000 		.4byte	0x6eb
 1978 06dc 19       		.uleb128 0x19
 1979 06dd 5E000000 		.4byte	.LASF84
 1980 06e1 01       		.byte	0x1
 1981 06e2 E701     		.2byte	0x1e7
 1982 06e4 9B060000 		.4byte	0x69b
 1983 06e8 01       		.uleb128 0x1
 1984 06e9 50       		.byte	0x50
 1985 06ea 00       		.byte	0
 1986 06eb 18       		.uleb128 0x18
 1987 06ec 06050000 		.4byte	.LASF95
 1988 06f0 01       		.byte	0x1
 1989 06f1 0402     		.2byte	0x204
 1990 06f3 00000000 		.4byte	.LFB116
 1991 06f7 1A000000 		.4byte	.LFE116-.LFB116
 1992 06fb 01       		.uleb128 0x1
 1993 06fc 9C       		.byte	0x9c
 1994 06fd 1E070000 		.4byte	0x71e
 1995 0701 19       		.uleb128 0x19
 1996 0702 3C060000 		.4byte	.LASF81
 1997 0706 01       		.byte	0x1
 1998 0707 0402     		.2byte	0x204
 1999 0709 85050000 		.4byte	0x585
 2000 070d 01       		.uleb128 0x1
 2001 070e 50       		.byte	0x50
 2002 070f 19       		.uleb128 0x19
 2003 0710 00000000 		.4byte	.LASF96
 2004 0714 01       		.byte	0x1
 2005 0715 0402     		.2byte	0x204
 2006 0717 2D010000 		.4byte	0x12d
 2007 071b 01       		.uleb128 0x1
 2008 071c 51       		.byte	0x51
 2009 071d 00       		.byte	0
 2010 071e 18       		.uleb128 0x18
 2011 071f 02060000 		.4byte	.LASF97
 2012 0723 01       		.byte	0x1
 2013 0724 1D02     		.2byte	0x21d
 2014 0726 00000000 		.4byte	.LFB117
 2015 072a 1A000000 		.4byte	.LFE117-.LFB117
 2016 072e 01       		.uleb128 0x1
 2017 072f 9C       		.byte	0x9c
 2018 0730 51070000 		.4byte	0x751
 2019 0734 19       		.uleb128 0x19
 2020 0735 3C060000 		.4byte	.LASF81
 2021 0739 01       		.byte	0x1
 2022 073a 1D02     		.2byte	0x21d
 2023 073c 85050000 		.4byte	0x585
 2024 0740 01       		.uleb128 0x1
 2025 0741 50       		.byte	0x50
 2026 0742 19       		.uleb128 0x19
 2027 0743 00000000 		.4byte	.LASF96
 2028 0747 01       		.byte	0x1
 2029 0748 1D02     		.2byte	0x21d
ARM GAS  /var/folders/7z/kps_xzfj7sn5l5gkyq8s9db00000gn/T//ccxQbMtW.s 			page 37


 2030 074a 2D010000 		.4byte	0x12d
 2031 074e 01       		.uleb128 0x1
 2032 074f 51       		.byte	0x51
 2033 0750 00       		.byte	0
 2034 0751 18       		.uleb128 0x18
 2035 0752 66040000 		.4byte	.LASF98
 2036 0756 01       		.byte	0x1
 2037 0757 3802     		.2byte	0x238
 2038 0759 00000000 		.4byte	.LFB118
 2039 075d 16000000 		.4byte	.LFE118-.LFB118
 2040 0761 01       		.uleb128 0x1
 2041 0762 9C       		.byte	0x9c
 2042 0763 86070000 		.4byte	0x786
 2043 0767 19       		.uleb128 0x19
 2044 0768 3C060000 		.4byte	.LASF81
 2045 076c 01       		.byte	0x1
 2046 076d 3802     		.2byte	0x238
 2047 076f 85050000 		.4byte	0x585
 2048 0773 01       		.uleb128 0x1
 2049 0774 50       		.byte	0x50
 2050 0775 1A       		.uleb128 0x1a
 2051 0776 27070000 		.4byte	.LASF64
 2052 077a 01       		.byte	0x1
 2053 077b 3802     		.2byte	0x238
 2054 077d A2000000 		.4byte	0xa2
 2055 0781 2A030000 		.4byte	.LLST13
 2056 0785 00       		.byte	0
 2057 0786 18       		.uleb128 0x18
 2058 0787 DC000000 		.4byte	.LASF99
 2059 078b 01       		.byte	0x1
 2060 078c 4C02     		.2byte	0x24c
 2061 078e 00000000 		.4byte	.LFB119
 2062 0792 1E000000 		.4byte	.LFE119-.LFB119
 2063 0796 01       		.uleb128 0x1
 2064 0797 9C       		.byte	0x9c
 2065 0798 B9070000 		.4byte	0x7b9
 2066 079c 19       		.uleb128 0x19
 2067 079d 3C060000 		.4byte	.LASF81
 2068 07a1 01       		.byte	0x1
 2069 07a2 4C02     		.2byte	0x24c
 2070 07a4 85050000 		.4byte	0x585
 2071 07a8 01       		.uleb128 0x1
 2072 07a9 50       		.byte	0x50
 2073 07aa 19       		.uleb128 0x19
 2074 07ab 49020000 		.4byte	.LASF62
 2075 07af 01       		.byte	0x1
 2076 07b0 4C02     		.2byte	0x24c
 2077 07b2 A2000000 		.4byte	0xa2
 2078 07b6 01       		.uleb128 0x1
 2079 07b7 51       		.byte	0x51
 2080 07b8 00       		.byte	0
 2081 07b9 18       		.uleb128 0x18
 2082 07ba B7010000 		.4byte	.LASF100
 2083 07be 01       		.byte	0x1
 2084 07bf 6602     		.2byte	0x266
 2085 07c1 00000000 		.4byte	.LFB120
 2086 07c5 20000000 		.4byte	.LFE120-.LFB120
ARM GAS  /var/folders/7z/kps_xzfj7sn5l5gkyq8s9db00000gn/T//ccxQbMtW.s 			page 38


 2087 07c9 01       		.uleb128 0x1
 2088 07ca 9C       		.byte	0x9c
 2089 07cb EC070000 		.4byte	0x7ec
 2090 07cf 19       		.uleb128 0x19
 2091 07d0 3C060000 		.4byte	.LASF81
 2092 07d4 01       		.byte	0x1
 2093 07d5 6602     		.2byte	0x266
 2094 07d7 85050000 		.4byte	0x585
 2095 07db 01       		.uleb128 0x1
 2096 07dc 50       		.byte	0x50
 2097 07dd 19       		.uleb128 0x19
 2098 07de B2020000 		.4byte	.LASF101
 2099 07e2 01       		.byte	0x1
 2100 07e3 6602     		.2byte	0x266
 2101 07e5 A2000000 		.4byte	0xa2
 2102 07e9 01       		.uleb128 0x1
 2103 07ea 51       		.byte	0x51
 2104 07eb 00       		.byte	0
 2105 07ec 18       		.uleb128 0x18
 2106 07ed 1C020000 		.4byte	.LASF102
 2107 07f1 01       		.byte	0x1
 2108 07f2 7E02     		.2byte	0x27e
 2109 07f4 00000000 		.4byte	.LFB121
 2110 07f8 1A000000 		.4byte	.LFE121-.LFB121
 2111 07fc 01       		.uleb128 0x1
 2112 07fd 9C       		.byte	0x9c
 2113 07fe 1F080000 		.4byte	0x81f
 2114 0802 19       		.uleb128 0x19
 2115 0803 3C060000 		.4byte	.LASF81
 2116 0807 01       		.byte	0x1
 2117 0808 7E02     		.2byte	0x27e
 2118 080a 85050000 		.4byte	0x585
 2119 080e 01       		.uleb128 0x1
 2120 080f 50       		.byte	0x50
 2121 0810 19       		.uleb128 0x19
 2122 0811 00000000 		.4byte	.LASF96
 2123 0815 01       		.byte	0x1
 2124 0816 7E02     		.2byte	0x27e
 2125 0818 2D010000 		.4byte	0x12d
 2126 081c 01       		.uleb128 0x1
 2127 081d 51       		.byte	0x51
 2128 081e 00       		.byte	0
 2129 081f 18       		.uleb128 0x18
 2130 0820 D2040000 		.4byte	.LASF103
 2131 0824 01       		.byte	0x1
 2132 0825 9D02     		.2byte	0x29d
 2133 0827 00000000 		.4byte	.LFB122
 2134 082b 1A000000 		.4byte	.LFE122-.LFB122
 2135 082f 01       		.uleb128 0x1
 2136 0830 9C       		.byte	0x9c
 2137 0831 52080000 		.4byte	0x852
 2138 0835 19       		.uleb128 0x19
 2139 0836 3C060000 		.4byte	.LASF81
 2140 083a 01       		.byte	0x1
 2141 083b 9D02     		.2byte	0x29d
 2142 083d 85050000 		.4byte	0x585
 2143 0841 01       		.uleb128 0x1
ARM GAS  /var/folders/7z/kps_xzfj7sn5l5gkyq8s9db00000gn/T//ccxQbMtW.s 			page 39


 2144 0842 50       		.byte	0x50
 2145 0843 19       		.uleb128 0x19
 2146 0844 00000000 		.4byte	.LASF96
 2147 0848 01       		.byte	0x1
 2148 0849 9D02     		.2byte	0x29d
 2149 084b 2D010000 		.4byte	0x12d
 2150 084f 01       		.uleb128 0x1
 2151 0850 51       		.byte	0x51
 2152 0851 00       		.byte	0
 2153 0852 18       		.uleb128 0x18
 2154 0853 03070000 		.4byte	.LASF104
 2155 0857 01       		.byte	0x1
 2156 0858 C202     		.2byte	0x2c2
 2157 085a 00000000 		.4byte	.LFB123
 2158 085e 46000000 		.4byte	.LFE123-.LFB123
 2159 0862 01       		.uleb128 0x1
 2160 0863 9C       		.byte	0x9c
 2161 0864 A7080000 		.4byte	0x8a7
 2162 0868 19       		.uleb128 0x19
 2163 0869 2C020000 		.4byte	.LASF105
 2164 086d 01       		.byte	0x1
 2165 086e C202     		.2byte	0x2c2
 2166 0870 85050000 		.4byte	0x585
 2167 0874 01       		.uleb128 0x1
 2168 0875 50       		.byte	0x50
 2169 0876 1A       		.uleb128 0x1a
 2170 0877 5E000000 		.4byte	.LASF84
 2171 087b 01       		.byte	0x1
 2172 087c C202     		.2byte	0x2c2
 2173 087e 9B060000 		.4byte	0x69b
 2174 0882 4B030000 		.4byte	.LLST14
 2175 0886 1B       		.uleb128 0x1b
 2176 0887 9C010000 		.4byte	.LASF85
 2177 088b 01       		.byte	0x1
 2178 088c C402     		.2byte	0x2c4
 2179 088e A2000000 		.4byte	0xa2
 2180 0892 6C030000 		.4byte	.LLST15
 2181 0896 1C       		.uleb128 0x1c
 2182 0897 746D7000 		.ascii	"tmp\000"
 2183 089b 01       		.byte	0x1
 2184 089c C402     		.2byte	0x2c4
 2185 089e A2000000 		.4byte	0xa2
 2186 08a2 96030000 		.4byte	.LLST16
 2187 08a6 00       		.byte	0
 2188 08a7 1D       		.uleb128 0x1d
 2189 08a8 73070000 		.4byte	.LASF110
 2190 08ac 01       		.byte	0x1
 2191 08ad 0D03     		.2byte	0x30d
 2192 08af A2000000 		.4byte	0xa2
 2193 08b3 00000000 		.4byte	.LFB124
 2194 08b7 06000000 		.4byte	.LFE124-.LFB124
 2195 08bb 01       		.uleb128 0x1
 2196 08bc 9C       		.byte	0x9c
 2197 08bd D2080000 		.4byte	0x8d2
 2198 08c1 1A       		.uleb128 0x1a
 2199 08c2 3C060000 		.4byte	.LASF81
 2200 08c6 01       		.byte	0x1
ARM GAS  /var/folders/7z/kps_xzfj7sn5l5gkyq8s9db00000gn/T//ccxQbMtW.s 			page 40


 2201 08c7 0D03     		.2byte	0x30d
 2202 08c9 85050000 		.4byte	0x585
 2203 08cd B5030000 		.4byte	.LLST17
 2204 08d1 00       		.byte	0
 2205 08d2 18       		.uleb128 0x18
 2206 08d3 62070000 		.4byte	.LASF106
 2207 08d7 01       		.byte	0x1
 2208 08d8 1D03     		.2byte	0x31d
 2209 08da 00000000 		.4byte	.LFB125
 2210 08de 04000000 		.4byte	.LFE125-.LFB125
 2211 08e2 01       		.uleb128 0x1
 2212 08e3 9C       		.byte	0x9c
 2213 08e4 05090000 		.4byte	0x905
 2214 08e8 19       		.uleb128 0x19
 2215 08e9 3C060000 		.4byte	.LASF81
 2216 08ed 01       		.byte	0x1
 2217 08ee 1D03     		.2byte	0x31d
 2218 08f0 85050000 		.4byte	0x585
 2219 08f4 01       		.uleb128 0x1
 2220 08f5 50       		.byte	0x50
 2221 08f6 19       		.uleb128 0x19
 2222 08f7 3C070000 		.4byte	.LASF107
 2223 08fb 01       		.byte	0x1
 2224 08fc 1D03     		.2byte	0x31d
 2225 08fe A2000000 		.4byte	0xa2
 2226 0902 01       		.uleb128 0x1
 2227 0903 51       		.byte	0x51
 2228 0904 00       		.byte	0
 2229 0905 18       		.uleb128 0x18
 2230 0906 B0060000 		.4byte	.LASF108
 2231 090a 01       		.byte	0x1
 2232 090b 7603     		.2byte	0x376
 2233 090d 00000000 		.4byte	.LFB126
 2234 0911 1A000000 		.4byte	.LFE126-.LFB126
 2235 0915 01       		.uleb128 0x1
 2236 0916 9C       		.byte	0x9c
 2237 0917 38090000 		.4byte	0x938
 2238 091b 19       		.uleb128 0x19
 2239 091c 3C060000 		.4byte	.LASF81
 2240 0920 01       		.byte	0x1
 2241 0921 7603     		.2byte	0x376
 2242 0923 85050000 		.4byte	0x585
 2243 0927 01       		.uleb128 0x1
 2244 0928 50       		.byte	0x50
 2245 0929 19       		.uleb128 0x19
 2246 092a 00000000 		.4byte	.LASF96
 2247 092e 01       		.byte	0x1
 2248 092f 7603     		.2byte	0x376
 2249 0931 2D010000 		.4byte	0x12d
 2250 0935 01       		.uleb128 0x1
 2251 0936 51       		.byte	0x51
 2252 0937 00       		.byte	0
 2253 0938 18       		.uleb128 0x18
 2254 0939 D8020000 		.4byte	.LASF109
 2255 093d 01       		.byte	0x1
 2256 093e 8C03     		.2byte	0x38c
 2257 0940 00000000 		.4byte	.LFB127
ARM GAS  /var/folders/7z/kps_xzfj7sn5l5gkyq8s9db00000gn/T//ccxQbMtW.s 			page 41


 2258 0944 0C000000 		.4byte	.LFE127-.LFB127
 2259 0948 01       		.uleb128 0x1
 2260 0949 9C       		.byte	0x9c
 2261 094a 5D090000 		.4byte	0x95d
 2262 094e 19       		.uleb128 0x19
 2263 094f 3C060000 		.4byte	.LASF81
 2264 0953 01       		.byte	0x1
 2265 0954 8C03     		.2byte	0x38c
 2266 0956 85050000 		.4byte	0x585
 2267 095a 01       		.uleb128 0x1
 2268 095b 50       		.byte	0x50
 2269 095c 00       		.byte	0
 2270 095d 1D       		.uleb128 0x1d
 2271 095e CB060000 		.4byte	.LASF111
 2272 0962 01       		.byte	0x1
 2273 0963 9E03     		.2byte	0x39e
 2274 0965 A2000000 		.4byte	0xa2
 2275 0969 00000000 		.4byte	.LFB128
 2276 096d 0C000000 		.4byte	.LFE128-.LFB128
 2277 0971 01       		.uleb128 0x1
 2278 0972 9C       		.byte	0x9c
 2279 0973 A6090000 		.4byte	0x9a6
 2280 0977 1A       		.uleb128 0x1a
 2281 0978 3C060000 		.4byte	.LASF81
 2282 097c 01       		.byte	0x1
 2283 097d 9E03     		.2byte	0x39e
 2284 097f 85050000 		.4byte	0x585
 2285 0983 D6030000 		.4byte	.LLST18
 2286 0987 19       		.uleb128 0x19
 2287 0988 62020000 		.4byte	.LASF112
 2288 098c 01       		.byte	0x1
 2289 098d 9E03     		.2byte	0x39e
 2290 098f 97000000 		.4byte	0x97
 2291 0993 01       		.uleb128 0x1
 2292 0994 51       		.byte	0x51
 2293 0995 1B       		.uleb128 0x1b
 2294 0996 86010000 		.4byte	.LASF113
 2295 099a 01       		.byte	0x1
 2296 099b A003     		.2byte	0x3a0
 2297 099d A2000000 		.4byte	0xa2
 2298 09a1 F7030000 		.4byte	.LLST19
 2299 09a5 00       		.byte	0
 2300 09a6 1D       		.uleb128 0x1d
 2301 09a7 02010000 		.4byte	.LASF114
 2302 09ab 01       		.byte	0x1
 2303 09ac B703     		.2byte	0x3b7
 2304 09ae A2000000 		.4byte	0xa2
 2305 09b2 00000000 		.4byte	.LFB129
 2306 09b6 06000000 		.4byte	.LFE129-.LFB129
 2307 09ba 01       		.uleb128 0x1
 2308 09bb 9C       		.byte	0x9c
 2309 09bc D1090000 		.4byte	0x9d1
 2310 09c0 1A       		.uleb128 0x1a
 2311 09c1 3C060000 		.4byte	.LASF81
 2312 09c5 01       		.byte	0x1
 2313 09c6 B703     		.2byte	0x3b7
 2314 09c8 85050000 		.4byte	0x585
ARM GAS  /var/folders/7z/kps_xzfj7sn5l5gkyq8s9db00000gn/T//ccxQbMtW.s 			page 42


 2315 09cc 16040000 		.4byte	.LLST20
 2316 09d0 00       		.byte	0
 2317 09d1 18       		.uleb128 0x18
 2318 09d2 8D010000 		.4byte	.LASF115
 2319 09d6 01       		.byte	0x1
 2320 09d7 DC03     		.2byte	0x3dc
 2321 09d9 00000000 		.4byte	.LFB130
 2322 09dd 14000000 		.4byte	.LFE130-.LFB130
 2323 09e1 01       		.uleb128 0x1
 2324 09e2 9C       		.byte	0x9c
 2325 09e3 140A0000 		.4byte	0xa14
 2326 09e7 19       		.uleb128 0x19
 2327 09e8 3C060000 		.4byte	.LASF81
 2328 09ec 01       		.byte	0x1
 2329 09ed DC03     		.2byte	0x3dc
 2330 09ef 85050000 		.4byte	0x585
 2331 09f3 01       		.uleb128 0x1
 2332 09f4 50       		.byte	0x50
 2333 09f5 1A       		.uleb128 0x1a
 2334 09f6 AE040000 		.4byte	.LASF116
 2335 09fa 01       		.byte	0x1
 2336 09fb DC03     		.2byte	0x3dc
 2337 09fd A2000000 		.4byte	0xa2
 2338 0a01 37040000 		.4byte	.LLST21
 2339 0a05 19       		.uleb128 0x19
 2340 0a06 00000000 		.4byte	.LASF96
 2341 0a0a 01       		.byte	0x1
 2342 0a0b DC03     		.2byte	0x3dc
 2343 0a0d 2D010000 		.4byte	0x12d
 2344 0a11 01       		.uleb128 0x1
 2345 0a12 52       		.byte	0x52
 2346 0a13 00       		.byte	0
 2347 0a14 18       		.uleb128 0x18
 2348 0a15 92000000 		.4byte	.LASF117
 2349 0a19 01       		.byte	0x1
 2350 0a1a 4904     		.2byte	0x449
 2351 0a1c 00000000 		.4byte	.LFB131
 2352 0a20 20000000 		.4byte	.LFE131-.LFB131
 2353 0a24 01       		.uleb128 0x1
 2354 0a25 9C       		.byte	0x9c
 2355 0a26 790A0000 		.4byte	0xa79
 2356 0a2a 19       		.uleb128 0x19
 2357 0a2b 3C060000 		.4byte	.LASF81
 2358 0a2f 01       		.byte	0x1
 2359 0a30 4904     		.2byte	0x449
 2360 0a32 85050000 		.4byte	0x585
 2361 0a36 01       		.uleb128 0x1
 2362 0a37 50       		.byte	0x50
 2363 0a38 1A       		.uleb128 0x1a
 2364 0a39 52040000 		.4byte	.LASF118
 2365 0a3d 01       		.byte	0x1
 2366 0a3e 4904     		.2byte	0x449
 2367 0a40 97000000 		.4byte	0x97
 2368 0a44 71040000 		.4byte	.LLST22
 2369 0a48 1A       		.uleb128 0x1a
 2370 0a49 00000000 		.4byte	.LASF96
 2371 0a4d 01       		.byte	0x1
ARM GAS  /var/folders/7z/kps_xzfj7sn5l5gkyq8s9db00000gn/T//ccxQbMtW.s 			page 43


 2372 0a4e 4904     		.2byte	0x449
 2373 0a50 2D010000 		.4byte	0x12d
 2374 0a54 92040000 		.4byte	.LLST23
 2375 0a58 1B       		.uleb128 0x1b
 2376 0a59 3C020000 		.4byte	.LASF119
 2377 0a5d 01       		.byte	0x1
 2378 0a5e 4B04     		.2byte	0x44b
 2379 0a60 A2000000 		.4byte	0xa2
 2380 0a64 CC040000 		.4byte	.LLST24
 2381 0a68 1B       		.uleb128 0x1b
 2382 0a69 48050000 		.4byte	.LASF120
 2383 0a6d 01       		.byte	0x1
 2384 0a6e 4B04     		.2byte	0x44b
 2385 0a70 A2000000 		.4byte	0xa2
 2386 0a74 F9040000 		.4byte	.LLST25
 2387 0a78 00       		.byte	0
 2388 0a79 1D       		.uleb128 0x1d
 2389 0a7a F6010000 		.4byte	.LASF121
 2390 0a7e 01       		.byte	0x1
 2391 0a7f 7504     		.2byte	0x475
 2392 0a81 FF000000 		.4byte	0xff
 2393 0a85 00000000 		.4byte	.LFB132
 2394 0a89 0C000000 		.4byte	.LFE132-.LFB132
 2395 0a8d 01       		.uleb128 0x1
 2396 0a8e 9C       		.byte	0x9c
 2397 0a8f C20A0000 		.4byte	0xac2
 2398 0a93 1A       		.uleb128 0x1a
 2399 0a94 3C060000 		.4byte	.LASF81
 2400 0a98 01       		.byte	0x1
 2401 0a99 7504     		.2byte	0x475
 2402 0a9b 85050000 		.4byte	0x585
 2403 0a9f 41050000 		.4byte	.LLST26
 2404 0aa3 19       		.uleb128 0x19
 2405 0aa4 27040000 		.4byte	.LASF122
 2406 0aa8 01       		.byte	0x1
 2407 0aa9 7504     		.2byte	0x475
 2408 0aab A2000000 		.4byte	0xa2
 2409 0aaf 01       		.uleb128 0x1
 2410 0ab0 51       		.byte	0x51
 2411 0ab1 1B       		.uleb128 0x1b
 2412 0ab2 6A020000 		.4byte	.LASF123
 2413 0ab6 01       		.byte	0x1
 2414 0ab7 7704     		.2byte	0x477
 2415 0ab9 FF000000 		.4byte	0xff
 2416 0abd 62050000 		.4byte	.LLST27
 2417 0ac1 00       		.byte	0
 2418 0ac2 18       		.uleb128 0x18
 2419 0ac3 75060000 		.4byte	.LASF124
 2420 0ac7 01       		.byte	0x1
 2421 0ac8 9E04     		.2byte	0x49e
 2422 0aca 00000000 		.4byte	.LFB133
 2423 0ace 08000000 		.4byte	.LFE133-.LFB133
 2424 0ad2 01       		.uleb128 0x1
 2425 0ad3 9C       		.byte	0x9c
 2426 0ad4 F70A0000 		.4byte	0xaf7
 2427 0ad8 19       		.uleb128 0x19
 2428 0ad9 3C060000 		.4byte	.LASF81
ARM GAS  /var/folders/7z/kps_xzfj7sn5l5gkyq8s9db00000gn/T//ccxQbMtW.s 			page 44


 2429 0add 01       		.byte	0x1
 2430 0ade 9E04     		.2byte	0x49e
 2431 0ae0 85050000 		.4byte	0x585
 2432 0ae4 01       		.uleb128 0x1
 2433 0ae5 50       		.byte	0x50
 2434 0ae6 1A       		.uleb128 0x1a
 2435 0ae7 27040000 		.4byte	.LASF122
 2436 0aeb 01       		.byte	0x1
 2437 0aec 9E04     		.2byte	0x49e
 2438 0aee A2000000 		.4byte	0xa2
 2439 0af2 8A050000 		.4byte	.LLST28
 2440 0af6 00       		.byte	0
 2441 0af7 1D       		.uleb128 0x1d
 2442 0af8 A3010000 		.4byte	.LASF125
 2443 0afc 01       		.byte	0x1
 2444 0afd B704     		.2byte	0x4b7
 2445 0aff 0B010000 		.4byte	0x10b
 2446 0b03 00000000 		.4byte	.LFB134
 2447 0b07 2A000000 		.4byte	.LFE134-.LFB134
 2448 0b0b 01       		.uleb128 0x1
 2449 0b0c 9C       		.byte	0x9c
 2450 0b0d 6E0B0000 		.4byte	0xb6e
 2451 0b11 1A       		.uleb128 0x1a
 2452 0b12 3C060000 		.4byte	.LASF81
 2453 0b16 01       		.byte	0x1
 2454 0b17 B704     		.2byte	0x4b7
 2455 0b19 85050000 		.4byte	0x585
 2456 0b1d AB050000 		.4byte	.LLST29
 2457 0b21 1A       		.uleb128 0x1a
 2458 0b22 52040000 		.4byte	.LASF118
 2459 0b26 01       		.byte	0x1
 2460 0b27 B704     		.2byte	0x4b7
 2461 0b29 97000000 		.4byte	0x97
 2462 0b2d CC050000 		.4byte	.LLST30
 2463 0b31 1B       		.uleb128 0x1b
 2464 0b32 6A020000 		.4byte	.LASF123
 2465 0b36 01       		.byte	0x1
 2466 0b37 B904     		.2byte	0x4b9
 2467 0b39 0B010000 		.4byte	0x10b
 2468 0b3d ED050000 		.4byte	.LLST31
 2469 0b41 1E       		.uleb128 0x1e
 2470 0b42 3C020000 		.4byte	.LASF119
 2471 0b46 01       		.byte	0x1
 2472 0b47 BA04     		.2byte	0x4ba
 2473 0b49 A2000000 		.4byte	0xa2
 2474 0b4d 1B       		.uleb128 0x1b
 2475 0b4e 48050000 		.4byte	.LASF120
 2476 0b52 01       		.byte	0x1
 2477 0b53 BA04     		.2byte	0x4ba
 2478 0b55 A2000000 		.4byte	0xa2
 2479 0b59 0C060000 		.4byte	.LLST32
 2480 0b5d 1B       		.uleb128 0x1b
 2481 0b5e A3060000 		.4byte	.LASF126
 2482 0b62 01       		.byte	0x1
 2483 0b63 BA04     		.2byte	0x4ba
 2484 0b65 A2000000 		.4byte	0xa2
 2485 0b69 3D060000 		.4byte	.LLST33
ARM GAS  /var/folders/7z/kps_xzfj7sn5l5gkyq8s9db00000gn/T//ccxQbMtW.s 			page 45


 2486 0b6d 00       		.byte	0
 2487 0b6e 18       		.uleb128 0x18
 2488 0b6f 4F050000 		.4byte	.LASF127
 2489 0b73 01       		.byte	0x1
 2490 0b74 EE04     		.2byte	0x4ee
 2491 0b76 00000000 		.4byte	.LFB135
 2492 0b7a 10000000 		.4byte	.LFE135-.LFB135
 2493 0b7e 01       		.uleb128 0x1
 2494 0b7f 9C       		.byte	0x9c
 2495 0b80 AF0B0000 		.4byte	0xbaf
 2496 0b84 19       		.uleb128 0x19
 2497 0b85 3C060000 		.4byte	.LASF81
 2498 0b89 01       		.byte	0x1
 2499 0b8a EE04     		.2byte	0x4ee
 2500 0b8c 85050000 		.4byte	0x585
 2501 0b90 01       		.uleb128 0x1
 2502 0b91 50       		.byte	0x50
 2503 0b92 1A       		.uleb128 0x1a
 2504 0b93 52040000 		.4byte	.LASF118
 2505 0b97 01       		.byte	0x1
 2506 0b98 EE04     		.2byte	0x4ee
 2507 0b9a 97000000 		.4byte	0x97
 2508 0b9e 80060000 		.4byte	.LLST34
 2509 0ba2 1E       		.uleb128 0x1e
 2510 0ba3 3C020000 		.4byte	.LASF119
 2511 0ba7 01       		.byte	0x1
 2512 0ba8 F004     		.2byte	0x4f0
 2513 0baa A2000000 		.4byte	0xa2
 2514 0bae 00       		.byte	0
 2515 0baf 1F       		.uleb128 0x1f
 2516 0bb0 B3000000 		.4byte	.LASF131
 2517 0bb4 06       		.byte	0x6
 2518 0bb5 9806     		.2byte	0x698
 2519 0bb7 E4000000 		.4byte	0xe4
 2520 0bbb 20       		.uleb128 0x20
 2521 0bbc 47000000 		.4byte	.LASF132
 2522 0bc0 07       		.byte	0x7
 2523 0bc1 E601     		.2byte	0x1e6
 2524 0bc3 D20B0000 		.4byte	0xbd2
 2525 0bc7 21       		.uleb128 0x21
 2526 0bc8 B8000000 		.4byte	0xb8
 2527 0bcc 21       		.uleb128 0x21
 2528 0bcd 2D010000 		.4byte	0x12d
 2529 0bd1 00       		.byte	0
 2530 0bd2 22       		.uleb128 0x22
 2531 0bd3 31050000 		.4byte	.LASF133
 2532 0bd7 07       		.byte	0x7
 2533 0bd8 E701     		.2byte	0x1e7
 2534 0bda 21       		.uleb128 0x21
 2535 0bdb B8000000 		.4byte	0xb8
 2536 0bdf 21       		.uleb128 0x21
 2537 0be0 2D010000 		.4byte	0x12d
 2538 0be4 00       		.byte	0
 2539 0be5 00       		.byte	0
 2540              		.section	.debug_abbrev,"",%progbits
 2541              	.Ldebug_abbrev0:
 2542 0000 01       		.uleb128 0x1
ARM GAS  /var/folders/7z/kps_xzfj7sn5l5gkyq8s9db00000gn/T//ccxQbMtW.s 			page 46


 2543 0001 11       		.uleb128 0x11
 2544 0002 01       		.byte	0x1
 2545 0003 25       		.uleb128 0x25
 2546 0004 0E       		.uleb128 0xe
 2547 0005 13       		.uleb128 0x13
 2548 0006 0B       		.uleb128 0xb
 2549 0007 03       		.uleb128 0x3
 2550 0008 0E       		.uleb128 0xe
 2551 0009 1B       		.uleb128 0x1b
 2552 000a 0E       		.uleb128 0xe
 2553 000b 55       		.uleb128 0x55
 2554 000c 17       		.uleb128 0x17
 2555 000d 11       		.uleb128 0x11
 2556 000e 01       		.uleb128 0x1
 2557 000f 10       		.uleb128 0x10
 2558 0010 17       		.uleb128 0x17
 2559 0011 00       		.byte	0
 2560 0012 00       		.byte	0
 2561 0013 02       		.uleb128 0x2
 2562 0014 24       		.uleb128 0x24
 2563 0015 00       		.byte	0
 2564 0016 0B       		.uleb128 0xb
 2565 0017 0B       		.uleb128 0xb
 2566 0018 3E       		.uleb128 0x3e
 2567 0019 0B       		.uleb128 0xb
 2568 001a 03       		.uleb128 0x3
 2569 001b 0E       		.uleb128 0xe
 2570 001c 00       		.byte	0
 2571 001d 00       		.byte	0
 2572 001e 03       		.uleb128 0x3
 2573 001f 16       		.uleb128 0x16
 2574 0020 00       		.byte	0
 2575 0021 03       		.uleb128 0x3
 2576 0022 0E       		.uleb128 0xe
 2577 0023 3A       		.uleb128 0x3a
 2578 0024 0B       		.uleb128 0xb
 2579 0025 3B       		.uleb128 0x3b
 2580 0026 0B       		.uleb128 0xb
 2581 0027 49       		.uleb128 0x49
 2582 0028 13       		.uleb128 0x13
 2583 0029 00       		.byte	0
 2584 002a 00       		.byte	0
 2585 002b 04       		.uleb128 0x4
 2586 002c 24       		.uleb128 0x24
 2587 002d 00       		.byte	0
 2588 002e 0B       		.uleb128 0xb
 2589 002f 0B       		.uleb128 0xb
 2590 0030 3E       		.uleb128 0x3e
 2591 0031 0B       		.uleb128 0xb
 2592 0032 03       		.uleb128 0x3
 2593 0033 08       		.uleb128 0x8
 2594 0034 00       		.byte	0
 2595 0035 00       		.byte	0
 2596 0036 05       		.uleb128 0x5
 2597 0037 35       		.uleb128 0x35
 2598 0038 00       		.byte	0
 2599 0039 49       		.uleb128 0x49
ARM GAS  /var/folders/7z/kps_xzfj7sn5l5gkyq8s9db00000gn/T//ccxQbMtW.s 			page 47


 2600 003a 13       		.uleb128 0x13
 2601 003b 00       		.byte	0
 2602 003c 00       		.byte	0
 2603 003d 06       		.uleb128 0x6
 2604 003e 01       		.uleb128 0x1
 2605 003f 01       		.byte	0x1
 2606 0040 49       		.uleb128 0x49
 2607 0041 13       		.uleb128 0x13
 2608 0042 01       		.uleb128 0x1
 2609 0043 13       		.uleb128 0x13
 2610 0044 00       		.byte	0
 2611 0045 00       		.byte	0
 2612 0046 07       		.uleb128 0x7
 2613 0047 21       		.uleb128 0x21
 2614 0048 00       		.byte	0
 2615 0049 49       		.uleb128 0x49
 2616 004a 13       		.uleb128 0x13
 2617 004b 2F       		.uleb128 0x2f
 2618 004c 0B       		.uleb128 0xb
 2619 004d 00       		.byte	0
 2620 004e 00       		.byte	0
 2621 004f 08       		.uleb128 0x8
 2622 0050 04       		.uleb128 0x4
 2623 0051 01       		.byte	0x1
 2624 0052 0B       		.uleb128 0xb
 2625 0053 0B       		.uleb128 0xb
 2626 0054 3A       		.uleb128 0x3a
 2627 0055 0B       		.uleb128 0xb
 2628 0056 3B       		.uleb128 0x3b
 2629 0057 05       		.uleb128 0x5
 2630 0058 01       		.uleb128 0x1
 2631 0059 13       		.uleb128 0x13
 2632 005a 00       		.byte	0
 2633 005b 00       		.byte	0
 2634 005c 09       		.uleb128 0x9
 2635 005d 28       		.uleb128 0x28
 2636 005e 00       		.byte	0
 2637 005f 03       		.uleb128 0x3
 2638 0060 0E       		.uleb128 0xe
 2639 0061 1C       		.uleb128 0x1c
 2640 0062 0D       		.uleb128 0xd
 2641 0063 00       		.byte	0
 2642 0064 00       		.byte	0
 2643 0065 0A       		.uleb128 0xa
 2644 0066 28       		.uleb128 0x28
 2645 0067 00       		.byte	0
 2646 0068 03       		.uleb128 0x3
 2647 0069 08       		.uleb128 0x8
 2648 006a 1C       		.uleb128 0x1c
 2649 006b 0D       		.uleb128 0xd
 2650 006c 00       		.byte	0
 2651 006d 00       		.byte	0
 2652 006e 0B       		.uleb128 0xb
 2653 006f 16       		.uleb128 0x16
 2654 0070 00       		.byte	0
 2655 0071 03       		.uleb128 0x3
 2656 0072 0E       		.uleb128 0xe
ARM GAS  /var/folders/7z/kps_xzfj7sn5l5gkyq8s9db00000gn/T//ccxQbMtW.s 			page 48


 2657 0073 3A       		.uleb128 0x3a
 2658 0074 0B       		.uleb128 0xb
 2659 0075 3B       		.uleb128 0x3b
 2660 0076 05       		.uleb128 0x5
 2661 0077 49       		.uleb128 0x49
 2662 0078 13       		.uleb128 0x13
 2663 0079 00       		.byte	0
 2664 007a 00       		.byte	0
 2665 007b 0C       		.uleb128 0xc
 2666 007c 13       		.uleb128 0x13
 2667 007d 01       		.byte	0x1
 2668 007e 0B       		.uleb128 0xb
 2669 007f 0B       		.uleb128 0xb
 2670 0080 3A       		.uleb128 0x3a
 2671 0081 0B       		.uleb128 0xb
 2672 0082 3B       		.uleb128 0x3b
 2673 0083 05       		.uleb128 0x5
 2674 0084 01       		.uleb128 0x1
 2675 0085 13       		.uleb128 0x13
 2676 0086 00       		.byte	0
 2677 0087 00       		.byte	0
 2678 0088 0D       		.uleb128 0xd
 2679 0089 0D       		.uleb128 0xd
 2680 008a 00       		.byte	0
 2681 008b 03       		.uleb128 0x3
 2682 008c 08       		.uleb128 0x8
 2683 008d 3A       		.uleb128 0x3a
 2684 008e 0B       		.uleb128 0xb
 2685 008f 3B       		.uleb128 0x3b
 2686 0090 05       		.uleb128 0x5
 2687 0091 49       		.uleb128 0x49
 2688 0092 13       		.uleb128 0x13
 2689 0093 38       		.uleb128 0x38
 2690 0094 0B       		.uleb128 0xb
 2691 0095 00       		.byte	0
 2692 0096 00       		.byte	0
 2693 0097 0E       		.uleb128 0xe
 2694 0098 0D       		.uleb128 0xd
 2695 0099 00       		.byte	0
 2696 009a 03       		.uleb128 0x3
 2697 009b 0E       		.uleb128 0xe
 2698 009c 3A       		.uleb128 0x3a
 2699 009d 0B       		.uleb128 0xb
 2700 009e 3B       		.uleb128 0x3b
 2701 009f 05       		.uleb128 0x5
 2702 00a0 49       		.uleb128 0x49
 2703 00a1 13       		.uleb128 0x13
 2704 00a2 38       		.uleb128 0x38
 2705 00a3 0B       		.uleb128 0xb
 2706 00a4 00       		.byte	0
 2707 00a5 00       		.byte	0
 2708 00a6 0F       		.uleb128 0xf
 2709 00a7 13       		.uleb128 0x13
 2710 00a8 01       		.byte	0x1
 2711 00a9 0B       		.uleb128 0xb
 2712 00aa 0B       		.uleb128 0xb
 2713 00ab 3A       		.uleb128 0x3a
ARM GAS  /var/folders/7z/kps_xzfj7sn5l5gkyq8s9db00000gn/T//ccxQbMtW.s 			page 49


 2714 00ac 0B       		.uleb128 0xb
 2715 00ad 3B       		.uleb128 0x3b
 2716 00ae 0B       		.uleb128 0xb
 2717 00af 01       		.uleb128 0x1
 2718 00b0 13       		.uleb128 0x13
 2719 00b1 00       		.byte	0
 2720 00b2 00       		.byte	0
 2721 00b3 10       		.uleb128 0x10
 2722 00b4 0D       		.uleb128 0xd
 2723 00b5 00       		.byte	0
 2724 00b6 03       		.uleb128 0x3
 2725 00b7 0E       		.uleb128 0xe
 2726 00b8 3A       		.uleb128 0x3a
 2727 00b9 0B       		.uleb128 0xb
 2728 00ba 3B       		.uleb128 0x3b
 2729 00bb 0B       		.uleb128 0xb
 2730 00bc 49       		.uleb128 0x49
 2731 00bd 13       		.uleb128 0x13
 2732 00be 38       		.uleb128 0x38
 2733 00bf 0B       		.uleb128 0xb
 2734 00c0 00       		.byte	0
 2735 00c1 00       		.byte	0
 2736 00c2 11       		.uleb128 0x11
 2737 00c3 2E       		.uleb128 0x2e
 2738 00c4 01       		.byte	0x1
 2739 00c5 3F       		.uleb128 0x3f
 2740 00c6 19       		.uleb128 0x19
 2741 00c7 03       		.uleb128 0x3
 2742 00c8 0E       		.uleb128 0xe
 2743 00c9 3A       		.uleb128 0x3a
 2744 00ca 0B       		.uleb128 0xb
 2745 00cb 3B       		.uleb128 0x3b
 2746 00cc 0B       		.uleb128 0xb
 2747 00cd 27       		.uleb128 0x27
 2748 00ce 19       		.uleb128 0x19
 2749 00cf 11       		.uleb128 0x11
 2750 00d0 01       		.uleb128 0x1
 2751 00d1 12       		.uleb128 0x12
 2752 00d2 06       		.uleb128 0x6
 2753 00d3 40       		.uleb128 0x40
 2754 00d4 18       		.uleb128 0x18
 2755 00d5 9742     		.uleb128 0x2117
 2756 00d7 19       		.uleb128 0x19
 2757 00d8 01       		.uleb128 0x1
 2758 00d9 13       		.uleb128 0x13
 2759 00da 00       		.byte	0
 2760 00db 00       		.byte	0
 2761 00dc 12       		.uleb128 0x12
 2762 00dd 05       		.uleb128 0x5
 2763 00de 00       		.byte	0
 2764 00df 03       		.uleb128 0x3
 2765 00e0 0E       		.uleb128 0xe
 2766 00e1 3A       		.uleb128 0x3a
 2767 00e2 0B       		.uleb128 0xb
 2768 00e3 3B       		.uleb128 0x3b
 2769 00e4 0B       		.uleb128 0xb
 2770 00e5 49       		.uleb128 0x49
ARM GAS  /var/folders/7z/kps_xzfj7sn5l5gkyq8s9db00000gn/T//ccxQbMtW.s 			page 50


 2771 00e6 13       		.uleb128 0x13
 2772 00e7 02       		.uleb128 0x2
 2773 00e8 17       		.uleb128 0x17
 2774 00e9 00       		.byte	0
 2775 00ea 00       		.byte	0
 2776 00eb 13       		.uleb128 0x13
 2777 00ec 898201   		.uleb128 0x4109
 2778 00ef 01       		.byte	0x1
 2779 00f0 11       		.uleb128 0x11
 2780 00f1 01       		.uleb128 0x1
 2781 00f2 31       		.uleb128 0x31
 2782 00f3 13       		.uleb128 0x13
 2783 00f4 01       		.uleb128 0x1
 2784 00f5 13       		.uleb128 0x13
 2785 00f6 00       		.byte	0
 2786 00f7 00       		.byte	0
 2787 00f8 14       		.uleb128 0x14
 2788 00f9 8A8201   		.uleb128 0x410a
 2789 00fc 00       		.byte	0
 2790 00fd 02       		.uleb128 0x2
 2791 00fe 18       		.uleb128 0x18
 2792 00ff 9142     		.uleb128 0x2111
 2793 0101 18       		.uleb128 0x18
 2794 0102 00       		.byte	0
 2795 0103 00       		.byte	0
 2796 0104 15       		.uleb128 0x15
 2797 0105 898201   		.uleb128 0x4109
 2798 0108 01       		.byte	0x1
 2799 0109 11       		.uleb128 0x11
 2800 010a 01       		.uleb128 0x1
 2801 010b 9542     		.uleb128 0x2115
 2802 010d 19       		.uleb128 0x19
 2803 010e 31       		.uleb128 0x31
 2804 010f 13       		.uleb128 0x13
 2805 0110 01       		.uleb128 0x1
 2806 0111 13       		.uleb128 0x13
 2807 0112 00       		.byte	0
 2808 0113 00       		.byte	0
 2809 0114 16       		.uleb128 0x16
 2810 0115 898201   		.uleb128 0x4109
 2811 0118 01       		.byte	0x1
 2812 0119 11       		.uleb128 0x11
 2813 011a 01       		.uleb128 0x1
 2814 011b 9542     		.uleb128 0x2115
 2815 011d 19       		.uleb128 0x19
 2816 011e 31       		.uleb128 0x31
 2817 011f 13       		.uleb128 0x13
 2818 0120 00       		.byte	0
 2819 0121 00       		.byte	0
 2820 0122 17       		.uleb128 0x17
 2821 0123 0F       		.uleb128 0xf
 2822 0124 00       		.byte	0
 2823 0125 0B       		.uleb128 0xb
 2824 0126 0B       		.uleb128 0xb
 2825 0127 49       		.uleb128 0x49
 2826 0128 13       		.uleb128 0x13
 2827 0129 00       		.byte	0
ARM GAS  /var/folders/7z/kps_xzfj7sn5l5gkyq8s9db00000gn/T//ccxQbMtW.s 			page 51


 2828 012a 00       		.byte	0
 2829 012b 18       		.uleb128 0x18
 2830 012c 2E       		.uleb128 0x2e
 2831 012d 01       		.byte	0x1
 2832 012e 3F       		.uleb128 0x3f
 2833 012f 19       		.uleb128 0x19
 2834 0130 03       		.uleb128 0x3
 2835 0131 0E       		.uleb128 0xe
 2836 0132 3A       		.uleb128 0x3a
 2837 0133 0B       		.uleb128 0xb
 2838 0134 3B       		.uleb128 0x3b
 2839 0135 05       		.uleb128 0x5
 2840 0136 27       		.uleb128 0x27
 2841 0137 19       		.uleb128 0x19
 2842 0138 11       		.uleb128 0x11
 2843 0139 01       		.uleb128 0x1
 2844 013a 12       		.uleb128 0x12
 2845 013b 06       		.uleb128 0x6
 2846 013c 40       		.uleb128 0x40
 2847 013d 18       		.uleb128 0x18
 2848 013e 9742     		.uleb128 0x2117
 2849 0140 19       		.uleb128 0x19
 2850 0141 01       		.uleb128 0x1
 2851 0142 13       		.uleb128 0x13
 2852 0143 00       		.byte	0
 2853 0144 00       		.byte	0
 2854 0145 19       		.uleb128 0x19
 2855 0146 05       		.uleb128 0x5
 2856 0147 00       		.byte	0
 2857 0148 03       		.uleb128 0x3
 2858 0149 0E       		.uleb128 0xe
 2859 014a 3A       		.uleb128 0x3a
 2860 014b 0B       		.uleb128 0xb
 2861 014c 3B       		.uleb128 0x3b
 2862 014d 05       		.uleb128 0x5
 2863 014e 49       		.uleb128 0x49
 2864 014f 13       		.uleb128 0x13
 2865 0150 02       		.uleb128 0x2
 2866 0151 18       		.uleb128 0x18
 2867 0152 00       		.byte	0
 2868 0153 00       		.byte	0
 2869 0154 1A       		.uleb128 0x1a
 2870 0155 05       		.uleb128 0x5
 2871 0156 00       		.byte	0
 2872 0157 03       		.uleb128 0x3
 2873 0158 0E       		.uleb128 0xe
 2874 0159 3A       		.uleb128 0x3a
 2875 015a 0B       		.uleb128 0xb
 2876 015b 3B       		.uleb128 0x3b
 2877 015c 05       		.uleb128 0x5
 2878 015d 49       		.uleb128 0x49
 2879 015e 13       		.uleb128 0x13
 2880 015f 02       		.uleb128 0x2
 2881 0160 17       		.uleb128 0x17
 2882 0161 00       		.byte	0
 2883 0162 00       		.byte	0
 2884 0163 1B       		.uleb128 0x1b
ARM GAS  /var/folders/7z/kps_xzfj7sn5l5gkyq8s9db00000gn/T//ccxQbMtW.s 			page 52


 2885 0164 34       		.uleb128 0x34
 2886 0165 00       		.byte	0
 2887 0166 03       		.uleb128 0x3
 2888 0167 0E       		.uleb128 0xe
 2889 0168 3A       		.uleb128 0x3a
 2890 0169 0B       		.uleb128 0xb
 2891 016a 3B       		.uleb128 0x3b
 2892 016b 05       		.uleb128 0x5
 2893 016c 49       		.uleb128 0x49
 2894 016d 13       		.uleb128 0x13
 2895 016e 02       		.uleb128 0x2
 2896 016f 17       		.uleb128 0x17
 2897 0170 00       		.byte	0
 2898 0171 00       		.byte	0
 2899 0172 1C       		.uleb128 0x1c
 2900 0173 34       		.uleb128 0x34
 2901 0174 00       		.byte	0
 2902 0175 03       		.uleb128 0x3
 2903 0176 08       		.uleb128 0x8
 2904 0177 3A       		.uleb128 0x3a
 2905 0178 0B       		.uleb128 0xb
 2906 0179 3B       		.uleb128 0x3b
 2907 017a 05       		.uleb128 0x5
 2908 017b 49       		.uleb128 0x49
 2909 017c 13       		.uleb128 0x13
 2910 017d 02       		.uleb128 0x2
 2911 017e 17       		.uleb128 0x17
 2912 017f 00       		.byte	0
 2913 0180 00       		.byte	0
 2914 0181 1D       		.uleb128 0x1d
 2915 0182 2E       		.uleb128 0x2e
 2916 0183 01       		.byte	0x1
 2917 0184 3F       		.uleb128 0x3f
 2918 0185 19       		.uleb128 0x19
 2919 0186 03       		.uleb128 0x3
 2920 0187 0E       		.uleb128 0xe
 2921 0188 3A       		.uleb128 0x3a
 2922 0189 0B       		.uleb128 0xb
 2923 018a 3B       		.uleb128 0x3b
 2924 018b 05       		.uleb128 0x5
 2925 018c 27       		.uleb128 0x27
 2926 018d 19       		.uleb128 0x19
 2927 018e 49       		.uleb128 0x49
 2928 018f 13       		.uleb128 0x13
 2929 0190 11       		.uleb128 0x11
 2930 0191 01       		.uleb128 0x1
 2931 0192 12       		.uleb128 0x12
 2932 0193 06       		.uleb128 0x6
 2933 0194 40       		.uleb128 0x40
 2934 0195 18       		.uleb128 0x18
 2935 0196 9742     		.uleb128 0x2117
 2936 0198 19       		.uleb128 0x19
 2937 0199 01       		.uleb128 0x1
 2938 019a 13       		.uleb128 0x13
 2939 019b 00       		.byte	0
 2940 019c 00       		.byte	0
 2941 019d 1E       		.uleb128 0x1e
ARM GAS  /var/folders/7z/kps_xzfj7sn5l5gkyq8s9db00000gn/T//ccxQbMtW.s 			page 53


 2942 019e 34       		.uleb128 0x34
 2943 019f 00       		.byte	0
 2944 01a0 03       		.uleb128 0x3
 2945 01a1 0E       		.uleb128 0xe
 2946 01a2 3A       		.uleb128 0x3a
 2947 01a3 0B       		.uleb128 0xb
 2948 01a4 3B       		.uleb128 0x3b
 2949 01a5 05       		.uleb128 0x5
 2950 01a6 49       		.uleb128 0x49
 2951 01a7 13       		.uleb128 0x13
 2952 01a8 00       		.byte	0
 2953 01a9 00       		.byte	0
 2954 01aa 1F       		.uleb128 0x1f
 2955 01ab 34       		.uleb128 0x34
 2956 01ac 00       		.byte	0
 2957 01ad 03       		.uleb128 0x3
 2958 01ae 0E       		.uleb128 0xe
 2959 01af 3A       		.uleb128 0x3a
 2960 01b0 0B       		.uleb128 0xb
 2961 01b1 3B       		.uleb128 0x3b
 2962 01b2 05       		.uleb128 0x5
 2963 01b3 49       		.uleb128 0x49
 2964 01b4 13       		.uleb128 0x13
 2965 01b5 3F       		.uleb128 0x3f
 2966 01b6 19       		.uleb128 0x19
 2967 01b7 3C       		.uleb128 0x3c
 2968 01b8 19       		.uleb128 0x19
 2969 01b9 00       		.byte	0
 2970 01ba 00       		.byte	0
 2971 01bb 20       		.uleb128 0x20
 2972 01bc 2E       		.uleb128 0x2e
 2973 01bd 01       		.byte	0x1
 2974 01be 3F       		.uleb128 0x3f
 2975 01bf 19       		.uleb128 0x19
 2976 01c0 03       		.uleb128 0x3
 2977 01c1 0E       		.uleb128 0xe
 2978 01c2 3A       		.uleb128 0x3a
 2979 01c3 0B       		.uleb128 0xb
 2980 01c4 3B       		.uleb128 0x3b
 2981 01c5 05       		.uleb128 0x5
 2982 01c6 27       		.uleb128 0x27
 2983 01c7 19       		.uleb128 0x19
 2984 01c8 3C       		.uleb128 0x3c
 2985 01c9 19       		.uleb128 0x19
 2986 01ca 01       		.uleb128 0x1
 2987 01cb 13       		.uleb128 0x13
 2988 01cc 00       		.byte	0
 2989 01cd 00       		.byte	0
 2990 01ce 21       		.uleb128 0x21
 2991 01cf 05       		.uleb128 0x5
 2992 01d0 00       		.byte	0
 2993 01d1 49       		.uleb128 0x49
 2994 01d2 13       		.uleb128 0x13
 2995 01d3 00       		.byte	0
 2996 01d4 00       		.byte	0
 2997 01d5 22       		.uleb128 0x22
 2998 01d6 2E       		.uleb128 0x2e
ARM GAS  /var/folders/7z/kps_xzfj7sn5l5gkyq8s9db00000gn/T//ccxQbMtW.s 			page 54


 2999 01d7 01       		.byte	0x1
 3000 01d8 3F       		.uleb128 0x3f
 3001 01d9 19       		.uleb128 0x19
 3002 01da 03       		.uleb128 0x3
 3003 01db 0E       		.uleb128 0xe
 3004 01dc 3A       		.uleb128 0x3a
 3005 01dd 0B       		.uleb128 0xb
 3006 01de 3B       		.uleb128 0x3b
 3007 01df 05       		.uleb128 0x5
 3008 01e0 27       		.uleb128 0x27
 3009 01e1 19       		.uleb128 0x19
 3010 01e2 3C       		.uleb128 0x3c
 3011 01e3 19       		.uleb128 0x19
 3012 01e4 00       		.byte	0
 3013 01e5 00       		.byte	0
 3014 01e6 00       		.byte	0
 3015              		.section	.debug_loc,"",%progbits
 3016              	.Ldebug_loc0:
 3017              	.LLST0:
 3018 0000 00000000 		.4byte	.LVL0
 3019 0004 1A000000 		.4byte	.LVL1
 3020 0008 0100     		.2byte	0x1
 3021 000a 50       		.byte	0x50
 3022 000b 1A000000 		.4byte	.LVL1
 3023 000f 2E000000 		.4byte	.LVL3
 3024 0013 0400     		.2byte	0x4
 3025 0015 F3       		.byte	0xf3
 3026 0016 01       		.uleb128 0x1
 3027 0017 50       		.byte	0x50
 3028 0018 9F       		.byte	0x9f
 3029 0019 2E000000 		.4byte	.LVL3
 3030 001d 32000000 		.4byte	.LVL4
 3031 0021 0100     		.2byte	0x1
 3032 0023 50       		.byte	0x50
 3033 0024 32000000 		.4byte	.LVL4
 3034 0028 46000000 		.4byte	.LVL6
 3035 002c 0400     		.2byte	0x4
 3036 002e F3       		.byte	0xf3
 3037 002f 01       		.uleb128 0x1
 3038 0030 50       		.byte	0x50
 3039 0031 9F       		.byte	0x9f
 3040 0032 46000000 		.4byte	.LVL6
 3041 0036 4A000000 		.4byte	.LVL7
 3042 003a 0100     		.2byte	0x1
 3043 003c 50       		.byte	0x50
 3044 003d 4A000000 		.4byte	.LVL7
 3045 0041 6C000000 		.4byte	.LFE111
 3046 0045 0400     		.2byte	0x4
 3047 0047 F3       		.byte	0xf3
 3048 0048 01       		.uleb128 0x1
 3049 0049 50       		.byte	0x50
 3050 004a 9F       		.byte	0x9f
 3051 004b 00000000 		.4byte	0
 3052 004f 00000000 		.4byte	0
 3053              	.LLST1:
 3054 0053 00000000 		.4byte	.LVL10
 3055 0057 1E000000 		.4byte	.LVL12
ARM GAS  /var/folders/7z/kps_xzfj7sn5l5gkyq8s9db00000gn/T//ccxQbMtW.s 			page 55


 3056 005b 0100     		.2byte	0x1
 3057 005d 51       		.byte	0x51
 3058 005e 1E000000 		.4byte	.LVL12
 3059 0062 50000000 		.4byte	.LFE112
 3060 0066 0400     		.2byte	0x4
 3061 0068 F3       		.byte	0xf3
 3062 0069 01       		.uleb128 0x1
 3063 006a 51       		.byte	0x51
 3064 006b 9F       		.byte	0x9f
 3065 006c 00000000 		.4byte	0
 3066 0070 00000000 		.4byte	0
 3067              	.LLST2:
 3068 0074 00000000 		.4byte	.LVL10
 3069 0078 1C000000 		.4byte	.LVL11
 3070 007c 0200     		.2byte	0x2
 3071 007e 30       		.byte	0x30
 3072 007f 9F       		.byte	0x9f
 3073 0080 1C000000 		.4byte	.LVL11
 3074 0084 38000000 		.4byte	.LVL13
 3075 0088 0100     		.2byte	0x1
 3076 008a 55       		.byte	0x55
 3077 008b 38000000 		.4byte	.LVL13
 3078 008f 3A000000 		.4byte	.LVL14
 3079 0093 0100     		.2byte	0x1
 3080 0095 53       		.byte	0x53
 3081 0096 3A000000 		.4byte	.LVL14
 3082 009a 3C000000 		.4byte	.LVL15
 3083 009e 0700     		.2byte	0x7
 3084 00a0 75       		.byte	0x75
 3085 00a1 00       		.sleb128 0
 3086 00a2 0A       		.byte	0xa
 3087 00a3 4030     		.2byte	0x3040
 3088 00a5 1A       		.byte	0x1a
 3089 00a6 9F       		.byte	0x9f
 3090 00a7 3C000000 		.4byte	.LVL15
 3091 00ab 40000000 		.4byte	.LVL16
 3092 00af 0100     		.2byte	0x1
 3093 00b1 53       		.byte	0x53
 3094 00b2 40000000 		.4byte	.LVL16
 3095 00b6 4A000000 		.4byte	.LVL17
 3096 00ba 0200     		.2byte	0x2
 3097 00bc 70       		.byte	0x70
 3098 00bd 00       		.sleb128 0
 3099 00be 4A000000 		.4byte	.LVL17
 3100 00c2 50000000 		.4byte	.LFE112
 3101 00c6 0A00     		.2byte	0xa
 3102 00c8 75       		.byte	0x75
 3103 00c9 00       		.sleb128 0
 3104 00ca 0A       		.byte	0xa
 3105 00cb 4030     		.2byte	0x3040
 3106 00cd 1A       		.byte	0x1a
 3107 00ce 72       		.byte	0x72
 3108 00cf 00       		.sleb128 0
 3109 00d0 21       		.byte	0x21
 3110 00d1 9F       		.byte	0x9f
 3111 00d2 00000000 		.4byte	0
 3112 00d6 00000000 		.4byte	0
ARM GAS  /var/folders/7z/kps_xzfj7sn5l5gkyq8s9db00000gn/T//ccxQbMtW.s 			page 56


 3113              	.LLST3:
 3114 00da 00000000 		.4byte	.LVL18
 3115 00de A2000000 		.4byte	.LVL34
 3116 00e2 0100     		.2byte	0x1
 3117 00e4 51       		.byte	0x51
 3118 00e5 A2000000 		.4byte	.LVL34
 3119 00e9 C0000000 		.4byte	.LVL37
 3120 00ed 0400     		.2byte	0x4
 3121 00ef F3       		.byte	0xf3
 3122 00f0 01       		.uleb128 0x1
 3123 00f1 51       		.byte	0x51
 3124 00f2 9F       		.byte	0x9f
 3125 00f3 C0000000 		.4byte	.LVL37
 3126 00f7 F0000000 		.4byte	.LFE113
 3127 00fb 0100     		.2byte	0x1
 3128 00fd 51       		.byte	0x51
 3129 00fe 00000000 		.4byte	0
 3130 0102 00000000 		.4byte	0
 3131              	.LLST4:
 3132 0106 00000000 		.4byte	.LVL18
 3133 010a 24000000 		.4byte	.LVL19
 3134 010e 0200     		.2byte	0x2
 3135 0110 30       		.byte	0x30
 3136 0111 9F       		.byte	0x9f
 3137 0112 24000000 		.4byte	.LVL19
 3138 0116 A6000000 		.4byte	.LVL35
 3139 011a 0100     		.2byte	0x1
 3140 011c 5E       		.byte	0x5e
 3141 011d B8000000 		.4byte	.LVL36
 3142 0121 C0000000 		.4byte	.LVL37
 3143 0125 0100     		.2byte	0x1
 3144 0127 57       		.byte	0x57
 3145 0128 C0000000 		.4byte	.LVL37
 3146 012c F0000000 		.4byte	.LFE113
 3147 0130 0100     		.2byte	0x1
 3148 0132 5E       		.byte	0x5e
 3149 0133 00000000 		.4byte	0
 3150 0137 00000000 		.4byte	0
 3151              	.LLST5:
 3152 013b 00000000 		.4byte	.LVL18
 3153 013f 92000000 		.4byte	.LVL31
 3154 0143 0200     		.2byte	0x2
 3155 0145 32       		.byte	0x32
 3156 0146 9F       		.byte	0x9f
 3157 0147 92000000 		.4byte	.LVL31
 3158 014b 9A000000 		.4byte	.LVL32
 3159 014f 0100     		.2byte	0x1
 3160 0151 52       		.byte	0x52
 3161 0152 C0000000 		.4byte	.LVL37
 3162 0156 F0000000 		.4byte	.LFE113
 3163 015a 0200     		.2byte	0x2
 3164 015c 32       		.byte	0x32
 3165 015d 9F       		.byte	0x9f
 3166 015e 00000000 		.4byte	0
 3167 0162 00000000 		.4byte	0
 3168              	.LLST6:
 3169 0166 00000000 		.4byte	.LVL18
ARM GAS  /var/folders/7z/kps_xzfj7sn5l5gkyq8s9db00000gn/T//ccxQbMtW.s 			page 57


 3170 016a 8A000000 		.4byte	.LVL30
 3171 016e 0200     		.2byte	0x2
 3172 0170 30       		.byte	0x30
 3173 0171 9F       		.byte	0x9f
 3174 0172 8A000000 		.4byte	.LVL30
 3175 0176 92000000 		.4byte	.LVL31
 3176 017a 0500     		.2byte	0x5
 3177 017c 73       		.byte	0x73
 3178 017d 00       		.sleb128 0
 3179 017e 31       		.byte	0x31
 3180 017f 1A       		.byte	0x1a
 3181 0180 9F       		.byte	0x9f
 3182 0181 92000000 		.4byte	.LVL31
 3183 0185 9A000000 		.4byte	.LVL32
 3184 0189 0500     		.2byte	0x5
 3185 018b 73       		.byte	0x73
 3186 018c 00       		.sleb128 0
 3187 018d 38       		.byte	0x38
 3188 018e 24       		.byte	0x24
 3189 018f 9F       		.byte	0x9f
 3190 0190 C0000000 		.4byte	.LVL37
 3191 0194 F0000000 		.4byte	.LFE113
 3192 0198 0200     		.2byte	0x2
 3193 019a 30       		.byte	0x30
 3194 019b 9F       		.byte	0x9f
 3195 019c 00000000 		.4byte	0
 3196 01a0 00000000 		.4byte	0
 3197              	.LLST7:
 3198 01a4 00000000 		.4byte	.LVL18
 3199 01a8 38000000 		.4byte	.LVL20
 3200 01ac 0200     		.2byte	0x2
 3201 01ae 31       		.byte	0x31
 3202 01af 9F       		.byte	0x9f
 3203 01b0 38000000 		.4byte	.LVL20
 3204 01b4 9C000000 		.4byte	.LVL33
 3205 01b8 0100     		.2byte	0x1
 3206 01ba 5C       		.byte	0x5c
 3207 01bb C0000000 		.4byte	.LVL37
 3208 01bf CA000000 		.4byte	.LVL38
 3209 01c3 0100     		.2byte	0x1
 3210 01c5 5C       		.byte	0x5c
 3211 01c6 CA000000 		.4byte	.LVL38
 3212 01ca D0000000 		.4byte	.LVL39
 3213 01ce 0200     		.2byte	0x2
 3214 01d0 31       		.byte	0x31
 3215 01d1 9F       		.byte	0x9f
 3216 01d2 D0000000 		.4byte	.LVL39
 3217 01d6 F0000000 		.4byte	.LFE113
 3218 01da 0100     		.2byte	0x1
 3219 01dc 5C       		.byte	0x5c
 3220 01dd 00000000 		.4byte	0
 3221 01e1 00000000 		.4byte	0
 3222              	.LLST8:
 3223 01e5 00000000 		.4byte	.LVL18
 3224 01e9 82000000 		.4byte	.LVL28
 3225 01ed 0200     		.2byte	0x2
 3226 01ef 30       		.byte	0x30
ARM GAS  /var/folders/7z/kps_xzfj7sn5l5gkyq8s9db00000gn/T//ccxQbMtW.s 			page 58


 3227 01f0 9F       		.byte	0x9f
 3228 01f1 82000000 		.4byte	.LVL28
 3229 01f5 88000000 		.4byte	.LVL29
 3230 01f9 0100     		.2byte	0x1
 3231 01fb 52       		.byte	0x52
 3232 01fc 8A000000 		.4byte	.LVL30
 3233 0200 92000000 		.4byte	.LVL31
 3234 0204 0100     		.2byte	0x1
 3235 0206 53       		.byte	0x53
 3236 0207 C0000000 		.4byte	.LVL37
 3237 020b E0000000 		.4byte	.LVL41
 3238 020f 0200     		.2byte	0x2
 3239 0211 30       		.byte	0x30
 3240 0212 9F       		.byte	0x9f
 3241 0213 E0000000 		.4byte	.LVL41
 3242 0217 F0000000 		.4byte	.LFE113
 3243 021b 0100     		.2byte	0x1
 3244 021d 52       		.byte	0x52
 3245 021e 00000000 		.4byte	0
 3246 0222 00000000 		.4byte	0
 3247              	.LLST9:
 3248 0226 00000000 		.4byte	.LVL18
 3249 022a 6A000000 		.4byte	.LVL27
 3250 022e 0200     		.2byte	0x2
 3251 0230 30       		.byte	0x30
 3252 0231 9F       		.byte	0x9f
 3253 0232 6A000000 		.4byte	.LVL27
 3254 0236 82000000 		.4byte	.LVL28
 3255 023a 0100     		.2byte	0x1
 3256 023c 54       		.byte	0x54
 3257 023d C0000000 		.4byte	.LVL37
 3258 0241 D0000000 		.4byte	.LVL39
 3259 0245 0200     		.2byte	0x2
 3260 0247 30       		.byte	0x30
 3261 0248 9F       		.byte	0x9f
 3262 0249 D0000000 		.4byte	.LVL39
 3263 024d D2000000 		.4byte	.LVL40
 3264 0251 0100     		.2byte	0x1
 3265 0253 54       		.byte	0x54
 3266 0254 D2000000 		.4byte	.LVL40
 3267 0258 E0000000 		.4byte	.LVL41
 3268 025c 1800     		.2byte	0x18
 3269 025e 78       		.byte	0x78
 3270 025f 00       		.sleb128 0
 3271 0260 F7       		.byte	0xf7
 3272 0261 25       		.uleb128 0x25
 3273 0262 79       		.byte	0x79
 3274 0263 00       		.sleb128 0
 3275 0264 F7       		.byte	0xf7
 3276 0265 25       		.uleb128 0x25
 3277 0266 1B       		.byte	0x1b
 3278 0267 F7       		.byte	0xf7
 3279 0268 00       		.uleb128 0
 3280 0269 75       		.byte	0x75
 3281 026a 00       		.sleb128 0
 3282 026b 1E       		.byte	0x1e
 3283 026c F7       		.byte	0xf7
ARM GAS  /var/folders/7z/kps_xzfj7sn5l5gkyq8s9db00000gn/T//ccxQbMtW.s 			page 59


 3284 026d 25       		.uleb128 0x25
 3285 026e 72       		.byte	0x72
 3286 026f 00       		.sleb128 0
 3287 0270 F7       		.byte	0xf7
 3288 0271 25       		.uleb128 0x25
 3289 0272 1B       		.byte	0x1b
 3290 0273 F7       		.byte	0xf7
 3291 0274 00       		.uleb128 0
 3292 0275 9F       		.byte	0x9f
 3293 0276 00000000 		.4byte	0
 3294 027a 00000000 		.4byte	0
 3295              	.LLST10:
 3296 027e 00000000 		.4byte	.LVL18
 3297 0282 4A000000 		.4byte	.LVL23
 3298 0286 0200     		.2byte	0x2
 3299 0288 30       		.byte	0x30
 3300 0289 9F       		.byte	0x9f
 3301 028a 4A000000 		.4byte	.LVL23
 3302 028e 5A000000 		.4byte	.LVL25
 3303 0292 0600     		.2byte	0x6
 3304 0294 72       		.byte	0x72
 3305 0295 00       		.sleb128 0
 3306 0296 08       		.byte	0x8
 3307 0297 3F       		.byte	0x3f
 3308 0298 1A       		.byte	0x1a
 3309 0299 9F       		.byte	0x9f
 3310 029a 5A000000 		.4byte	.LVL25
 3311 029e 9C000000 		.4byte	.LVL33
 3312 02a2 0100     		.2byte	0x1
 3313 02a4 59       		.byte	0x59
 3314 02a5 C0000000 		.4byte	.LVL37
 3315 02a9 D0000000 		.4byte	.LVL39
 3316 02ad 0200     		.2byte	0x2
 3317 02af 30       		.byte	0x30
 3318 02b0 9F       		.byte	0x9f
 3319 02b1 D0000000 		.4byte	.LVL39
 3320 02b5 F0000000 		.4byte	.LFE113
 3321 02b9 0100     		.2byte	0x1
 3322 02bb 59       		.byte	0x59
 3323 02bc 00000000 		.4byte	0
 3324 02c0 00000000 		.4byte	0
 3325              	.LLST11:
 3326 02c4 00000000 		.4byte	.LVL18
 3327 02c8 44000000 		.4byte	.LVL21
 3328 02cc 0200     		.2byte	0x2
 3329 02ce 30       		.byte	0x30
 3330 02cf 9F       		.byte	0x9f
 3331 02d0 44000000 		.4byte	.LVL21
 3332 02d4 52000000 		.4byte	.LVL24
 3333 02d8 0900     		.2byte	0x9
 3334 02da 75       		.byte	0x75
 3335 02db 00       		.sleb128 0
 3336 02dc 0A       		.byte	0xa
 3337 02dd C07F     		.2byte	0x7fc0
 3338 02df 1A       		.byte	0x1a
 3339 02e0 36       		.byte	0x36
 3340 02e1 25       		.byte	0x25
ARM GAS  /var/folders/7z/kps_xzfj7sn5l5gkyq8s9db00000gn/T//ccxQbMtW.s 			page 60


 3341 02e2 9F       		.byte	0x9f
 3342 02e3 C0000000 		.4byte	.LVL37
 3343 02e7 D0000000 		.4byte	.LVL39
 3344 02eb 0200     		.2byte	0x2
 3345 02ed 30       		.byte	0x30
 3346 02ee 9F       		.byte	0x9f
 3347 02ef 00000000 		.4byte	0
 3348 02f3 00000000 		.4byte	0
 3349              	.LLST12:
 3350 02f7 00000000 		.4byte	.LVL18
 3351 02fb 48000000 		.4byte	.LVL22
 3352 02ff 0200     		.2byte	0x2
 3353 0301 30       		.byte	0x30
 3354 0302 9F       		.byte	0x9f
 3355 0303 48000000 		.4byte	.LVL22
 3356 0307 62000000 		.4byte	.LVL26
 3357 030b 0900     		.2byte	0x9
 3358 030d 74       		.byte	0x74
 3359 030e 00       		.sleb128 0
 3360 030f 4C       		.byte	0x4c
 3361 0310 4A       		.byte	0x4a
 3362 0311 24       		.byte	0x24
 3363 0312 1A       		.byte	0x1a
 3364 0313 4C       		.byte	0x4c
 3365 0314 25       		.byte	0x25
 3366 0315 9F       		.byte	0x9f
 3367 0316 C0000000 		.4byte	.LVL37
 3368 031a D0000000 		.4byte	.LVL39
 3369 031e 0200     		.2byte	0x2
 3370 0320 30       		.byte	0x30
 3371 0321 9F       		.byte	0x9f
 3372 0322 00000000 		.4byte	0
 3373 0326 00000000 		.4byte	0
 3374              	.LLST13:
 3375 032a 00000000 		.4byte	.LVL46
 3376 032e 12000000 		.4byte	.LVL47
 3377 0332 0100     		.2byte	0x1
 3378 0334 51       		.byte	0x51
 3379 0335 12000000 		.4byte	.LVL47
 3380 0339 16000000 		.4byte	.LFE118
 3381 033d 0400     		.2byte	0x4
 3382 033f F3       		.byte	0xf3
 3383 0340 01       		.uleb128 0x1
 3384 0341 51       		.byte	0x51
 3385 0342 9F       		.byte	0x9f
 3386 0343 00000000 		.4byte	0
 3387 0347 00000000 		.4byte	0
 3388              	.LLST14:
 3389 034b 00000000 		.4byte	.LVL52
 3390 034f 28000000 		.4byte	.LVL55
 3391 0353 0100     		.2byte	0x1
 3392 0355 51       		.byte	0x51
 3393 0356 28000000 		.4byte	.LVL55
 3394 035a 46000000 		.4byte	.LFE123
 3395 035e 0400     		.2byte	0x4
 3396 0360 F3       		.byte	0xf3
 3397 0361 01       		.uleb128 0x1
ARM GAS  /var/folders/7z/kps_xzfj7sn5l5gkyq8s9db00000gn/T//ccxQbMtW.s 			page 61


 3398 0362 51       		.byte	0x51
 3399 0363 9F       		.byte	0x9f
 3400 0364 00000000 		.4byte	0
 3401 0368 00000000 		.4byte	0
 3402              	.LLST15:
 3403 036c 00000000 		.4byte	.LVL52
 3404 0370 22000000 		.4byte	.LVL53
 3405 0374 0200     		.2byte	0x2
 3406 0376 30       		.byte	0x30
 3407 0377 9F       		.byte	0x9f
 3408 0378 22000000 		.4byte	.LVL53
 3409 037c 24000000 		.4byte	.LVL54
 3410 0380 0100     		.2byte	0x1
 3411 0382 53       		.byte	0x53
 3412 0383 40000000 		.4byte	.LVL57
 3413 0387 46000000 		.4byte	.LFE123
 3414 038b 0100     		.2byte	0x1
 3415 038d 53       		.byte	0x53
 3416 038e 00000000 		.4byte	0
 3417 0392 00000000 		.4byte	0
 3418              	.LLST16:
 3419 0396 00000000 		.4byte	.LVL52
 3420 039a 3E000000 		.4byte	.LVL56
 3421 039e 0200     		.2byte	0x2
 3422 03a0 30       		.byte	0x30
 3423 03a1 9F       		.byte	0x9f
 3424 03a2 3E000000 		.4byte	.LVL56
 3425 03a6 46000000 		.4byte	.LFE123
 3426 03aa 0100     		.2byte	0x1
 3427 03ac 52       		.byte	0x52
 3428 03ad 00000000 		.4byte	0
 3429 03b1 00000000 		.4byte	0
 3430              	.LLST17:
 3431 03b5 00000000 		.4byte	.LVL58
 3432 03b9 02000000 		.4byte	.LVL59
 3433 03bd 0100     		.2byte	0x1
 3434 03bf 50       		.byte	0x50
 3435 03c0 02000000 		.4byte	.LVL59
 3436 03c4 06000000 		.4byte	.LFE124
 3437 03c8 0400     		.2byte	0x4
 3438 03ca F3       		.byte	0xf3
 3439 03cb 01       		.uleb128 0x1
 3440 03cc 50       		.byte	0x50
 3441 03cd 9F       		.byte	0x9f
 3442 03ce 00000000 		.4byte	0
 3443 03d2 00000000 		.4byte	0
 3444              	.LLST18:
 3445 03d6 00000000 		.4byte	.LVL63
 3446 03da 06000000 		.4byte	.LVL64
 3447 03de 0100     		.2byte	0x1
 3448 03e0 50       		.byte	0x50
 3449 03e1 06000000 		.4byte	.LVL64
 3450 03e5 0C000000 		.4byte	.LFE128
 3451 03e9 0400     		.2byte	0x4
 3452 03eb F3       		.byte	0xf3
 3453 03ec 01       		.uleb128 0x1
 3454 03ed 50       		.byte	0x50
ARM GAS  /var/folders/7z/kps_xzfj7sn5l5gkyq8s9db00000gn/T//ccxQbMtW.s 			page 62


 3455 03ee 9F       		.byte	0x9f
 3456 03ef 00000000 		.4byte	0
 3457 03f3 00000000 		.4byte	0
 3458              	.LLST19:
 3459 03f7 00000000 		.4byte	.LVL63
 3460 03fb 0A000000 		.4byte	.LVL65
 3461 03ff 0200     		.2byte	0x2
 3462 0401 30       		.byte	0x30
 3463 0402 9F       		.byte	0x9f
 3464 0403 0A000000 		.4byte	.LVL65
 3465 0407 0C000000 		.4byte	.LFE128
 3466 040b 0100     		.2byte	0x1
 3467 040d 50       		.byte	0x50
 3468 040e 00000000 		.4byte	0
 3469 0412 00000000 		.4byte	0
 3470              	.LLST20:
 3471 0416 00000000 		.4byte	.LVL66
 3472 041a 02000000 		.4byte	.LVL67
 3473 041e 0100     		.2byte	0x1
 3474 0420 50       		.byte	0x50
 3475 0421 02000000 		.4byte	.LVL67
 3476 0425 06000000 		.4byte	.LFE129
 3477 0429 0400     		.2byte	0x4
 3478 042b F3       		.byte	0xf3
 3479 042c 01       		.uleb128 0x1
 3480 042d 50       		.byte	0x50
 3481 042e 9F       		.byte	0x9f
 3482 042f 00000000 		.4byte	0
 3483 0433 00000000 		.4byte	0
 3484              	.LLST21:
 3485 0437 00000000 		.4byte	.LVL68
 3486 043b 0A000000 		.4byte	.LVL69
 3487 043f 0100     		.2byte	0x1
 3488 0441 51       		.byte	0x51
 3489 0442 0A000000 		.4byte	.LVL69
 3490 0446 0E000000 		.4byte	.LVL70
 3491 044a 0400     		.2byte	0x4
 3492 044c F3       		.byte	0xf3
 3493 044d 01       		.uleb128 0x1
 3494 044e 51       		.byte	0x51
 3495 044f 9F       		.byte	0x9f
 3496 0450 0E000000 		.4byte	.LVL70
 3497 0454 10000000 		.4byte	.LVL71
 3498 0458 0100     		.2byte	0x1
 3499 045a 51       		.byte	0x51
 3500 045b 10000000 		.4byte	.LVL71
 3501 045f 14000000 		.4byte	.LFE130
 3502 0463 0400     		.2byte	0x4
 3503 0465 F3       		.byte	0xf3
 3504 0466 01       		.uleb128 0x1
 3505 0467 51       		.byte	0x51
 3506 0468 9F       		.byte	0x9f
 3507 0469 00000000 		.4byte	0
 3508 046d 00000000 		.4byte	0
 3509              	.LLST22:
 3510 0471 00000000 		.4byte	.LVL72
 3511 0475 02000000 		.4byte	.LVL73
ARM GAS  /var/folders/7z/kps_xzfj7sn5l5gkyq8s9db00000gn/T//ccxQbMtW.s 			page 63


 3512 0479 0100     		.2byte	0x1
 3513 047b 51       		.byte	0x51
 3514 047c 02000000 		.4byte	.LVL73
 3515 0480 20000000 		.4byte	.LFE131
 3516 0484 0400     		.2byte	0x4
 3517 0486 F3       		.byte	0xf3
 3518 0487 01       		.uleb128 0x1
 3519 0488 51       		.byte	0x51
 3520 0489 9F       		.byte	0x9f
 3521 048a 00000000 		.4byte	0
 3522 048e 00000000 		.4byte	0
 3523              	.LLST23:
 3524 0492 00000000 		.4byte	.LVL72
 3525 0496 0C000000 		.4byte	.LVL75
 3526 049a 0100     		.2byte	0x1
 3527 049c 52       		.byte	0x52
 3528 049d 0C000000 		.4byte	.LVL75
 3529 04a1 16000000 		.4byte	.LVL77
 3530 04a5 0400     		.2byte	0x4
 3531 04a7 F3       		.byte	0xf3
 3532 04a8 01       		.uleb128 0x1
 3533 04a9 52       		.byte	0x52
 3534 04aa 9F       		.byte	0x9f
 3535 04ab 16000000 		.4byte	.LVL77
 3536 04af 18000000 		.4byte	.LVL78
 3537 04b3 0100     		.2byte	0x1
 3538 04b5 52       		.byte	0x52
 3539 04b6 18000000 		.4byte	.LVL78
 3540 04ba 20000000 		.4byte	.LFE131
 3541 04be 0400     		.2byte	0x4
 3542 04c0 F3       		.byte	0xf3
 3543 04c1 01       		.uleb128 0x1
 3544 04c2 52       		.byte	0x52
 3545 04c3 9F       		.byte	0x9f
 3546 04c4 00000000 		.4byte	0
 3547 04c8 00000000 		.4byte	0
 3548              	.LLST24:
 3549 04cc 00000000 		.4byte	.LVL72
 3550 04d0 02000000 		.4byte	.LVL73
 3551 04d4 0800     		.2byte	0x8
 3552 04d6 71       		.byte	0x71
 3553 04d7 00       		.sleb128 0
 3554 04d8 34       		.byte	0x34
 3555 04d9 25       		.byte	0x25
 3556 04da 08       		.byte	0x8
 3557 04db FF       		.byte	0xff
 3558 04dc 1A       		.byte	0x1a
 3559 04dd 9F       		.byte	0x9f
 3560 04de 02000000 		.4byte	.LVL73
 3561 04e2 20000000 		.4byte	.LFE131
 3562 04e6 0900     		.2byte	0x9
 3563 04e8 F3       		.byte	0xf3
 3564 04e9 01       		.uleb128 0x1
 3565 04ea 51       		.byte	0x51
 3566 04eb 34       		.byte	0x34
 3567 04ec 25       		.byte	0x25
 3568 04ed 08       		.byte	0x8
ARM GAS  /var/folders/7z/kps_xzfj7sn5l5gkyq8s9db00000gn/T//ccxQbMtW.s 			page 64


 3569 04ee FF       		.byte	0xff
 3570 04ef 1A       		.byte	0x1a
 3571 04f0 9F       		.byte	0x9f
 3572 04f1 00000000 		.4byte	0
 3573 04f5 00000000 		.4byte	0
 3574              	.LLST25:
 3575 04f9 00000000 		.4byte	.LVL72
 3576 04fd 08000000 		.4byte	.LVL74
 3577 0501 0200     		.2byte	0x2
 3578 0503 30       		.byte	0x30
 3579 0504 9F       		.byte	0x9f
 3580 0505 08000000 		.4byte	.LVL74
 3581 0509 12000000 		.4byte	.LVL76
 3582 050d 0100     		.2byte	0x1
 3583 050f 53       		.byte	0x53
 3584 0510 12000000 		.4byte	.LVL76
 3585 0514 16000000 		.4byte	.LVL77
 3586 0518 0500     		.2byte	0x5
 3587 051a 31       		.byte	0x31
 3588 051b 71       		.byte	0x71
 3589 051c 00       		.sleb128 0
 3590 051d 24       		.byte	0x24
 3591 051e 9F       		.byte	0x9f
 3592 051f 16000000 		.4byte	.LVL77
 3593 0523 1C000000 		.4byte	.LVL79
 3594 0527 0100     		.2byte	0x1
 3595 0529 53       		.byte	0x53
 3596 052a 1C000000 		.4byte	.LVL79
 3597 052e 20000000 		.4byte	.LFE131
 3598 0532 0500     		.2byte	0x5
 3599 0534 31       		.byte	0x31
 3600 0535 71       		.byte	0x71
 3601 0536 00       		.sleb128 0
 3602 0537 24       		.byte	0x24
 3603 0538 9F       		.byte	0x9f
 3604 0539 00000000 		.4byte	0
 3605 053d 00000000 		.4byte	0
 3606              	.LLST26:
 3607 0541 00000000 		.4byte	.LVL80
 3608 0545 08000000 		.4byte	.LVL82
 3609 0549 0100     		.2byte	0x1
 3610 054b 50       		.byte	0x50
 3611 054c 08000000 		.4byte	.LVL82
 3612 0550 0C000000 		.4byte	.LFE132
 3613 0554 0400     		.2byte	0x4
 3614 0556 F3       		.byte	0xf3
 3615 0557 01       		.uleb128 0x1
 3616 0558 50       		.byte	0x50
 3617 0559 9F       		.byte	0x9f
 3618 055a 00000000 		.4byte	0
 3619 055e 00000000 		.4byte	0
 3620              	.LLST27:
 3621 0562 00000000 		.4byte	.LVL80
 3622 0566 02000000 		.4byte	.LVL81
 3623 056a 0200     		.2byte	0x2
 3624 056c 30       		.byte	0x30
 3625 056d 9F       		.byte	0x9f
ARM GAS  /var/folders/7z/kps_xzfj7sn5l5gkyq8s9db00000gn/T//ccxQbMtW.s 			page 65


 3626 056e 02000000 		.4byte	.LVL81
 3627 0572 0C000000 		.4byte	.LFE132
 3628 0576 0A00     		.2byte	0xa
 3629 0578 71       		.byte	0x71
 3630 0579 00       		.sleb128 0
 3631 057a 73       		.byte	0x73
 3632 057b 00       		.sleb128 0
 3633 057c 1A       		.byte	0x1a
 3634 057d 40       		.byte	0x40
 3635 057e 24       		.byte	0x24
 3636 057f 30       		.byte	0x30
 3637 0580 2E       		.byte	0x2e
 3638 0581 9F       		.byte	0x9f
 3639 0582 00000000 		.4byte	0
 3640 0586 00000000 		.4byte	0
 3641              	.LLST28:
 3642 058a 00000000 		.4byte	.LVL83
 3643 058e 02000000 		.4byte	.LVL84
 3644 0592 0100     		.2byte	0x1
 3645 0594 51       		.byte	0x51
 3646 0595 02000000 		.4byte	.LVL84
 3647 0599 08000000 		.4byte	.LFE133
 3648 059d 0400     		.2byte	0x4
 3649 059f F3       		.byte	0xf3
 3650 05a0 01       		.uleb128 0x1
 3651 05a1 51       		.byte	0x51
 3652 05a2 9F       		.byte	0x9f
 3653 05a3 00000000 		.4byte	0
 3654 05a7 00000000 		.4byte	0
 3655              	.LLST29:
 3656 05ab 00000000 		.4byte	.LVL85
 3657 05af 0C000000 		.4byte	.LVL86
 3658 05b3 0100     		.2byte	0x1
 3659 05b5 50       		.byte	0x50
 3660 05b6 0C000000 		.4byte	.LVL86
 3661 05ba 2A000000 		.4byte	.LFE134
 3662 05be 0400     		.2byte	0x4
 3663 05c0 F3       		.byte	0xf3
 3664 05c1 01       		.uleb128 0x1
 3665 05c2 50       		.byte	0x50
 3666 05c3 9F       		.byte	0x9f
 3667 05c4 00000000 		.4byte	0
 3668 05c8 00000000 		.4byte	0
 3669              	.LLST30:
 3670 05cc 00000000 		.4byte	.LVL85
 3671 05d0 1A000000 		.4byte	.LVL88
 3672 05d4 0100     		.2byte	0x1
 3673 05d6 51       		.byte	0x51
 3674 05d7 1A000000 		.4byte	.LVL88
 3675 05db 2A000000 		.4byte	.LFE134
 3676 05df 0400     		.2byte	0x4
 3677 05e1 F3       		.byte	0xf3
 3678 05e2 01       		.uleb128 0x1
 3679 05e3 51       		.byte	0x51
 3680 05e4 9F       		.byte	0x9f
 3681 05e5 00000000 		.4byte	0
 3682 05e9 00000000 		.4byte	0
ARM GAS  /var/folders/7z/kps_xzfj7sn5l5gkyq8s9db00000gn/T//ccxQbMtW.s 			page 66


 3683              	.LLST31:
 3684 05ed 00000000 		.4byte	.LVL85
 3685 05f1 24000000 		.4byte	.LVL89
 3686 05f5 0200     		.2byte	0x2
 3687 05f7 30       		.byte	0x30
 3688 05f8 9F       		.byte	0x9f
 3689 05f9 24000000 		.4byte	.LVL89
 3690 05fd 2A000000 		.4byte	.LFE134
 3691 0601 0100     		.2byte	0x1
 3692 0603 50       		.byte	0x50
 3693 0604 00000000 		.4byte	0
 3694 0608 00000000 		.4byte	0
 3695              	.LLST32:
 3696 060c 00000000 		.4byte	.LVL85
 3697 0610 1A000000 		.4byte	.LVL88
 3698 0614 0A00     		.2byte	0xa
 3699 0616 31       		.byte	0x31
 3700 0617 71       		.byte	0x71
 3701 0618 00       		.sleb128 0
 3702 0619 34       		.byte	0x34
 3703 061a 25       		.byte	0x25
 3704 061b 08       		.byte	0x8
 3705 061c FF       		.byte	0xff
 3706 061d 1A       		.byte	0x1a
 3707 061e 24       		.byte	0x24
 3708 061f 9F       		.byte	0x9f
 3709 0620 1A000000 		.4byte	.LVL88
 3710 0624 2A000000 		.4byte	.LFE134
 3711 0628 0B00     		.2byte	0xb
 3712 062a 31       		.byte	0x31
 3713 062b F3       		.byte	0xf3
 3714 062c 01       		.uleb128 0x1
 3715 062d 51       		.byte	0x51
 3716 062e 34       		.byte	0x34
 3717 062f 25       		.byte	0x25
 3718 0630 08       		.byte	0x8
 3719 0631 FF       		.byte	0xff
 3720 0632 1A       		.byte	0x1a
 3721 0633 24       		.byte	0x24
 3722 0634 9F       		.byte	0x9f
 3723 0635 00000000 		.4byte	0
 3724 0639 00000000 		.4byte	0
 3725              	.LLST33:
 3726 063d 00000000 		.4byte	.LVL85
 3727 0641 16000000 		.4byte	.LVL87
 3728 0645 0200     		.2byte	0x2
 3729 0647 30       		.byte	0x30
 3730 0648 9F       		.byte	0x9f
 3731 0649 16000000 		.4byte	.LVL87
 3732 064d 1A000000 		.4byte	.LVL88
 3733 0651 0D00     		.2byte	0xd
 3734 0653 31       		.byte	0x31
 3735 0654 71       		.byte	0x71
 3736 0655 00       		.sleb128 0
 3737 0656 34       		.byte	0x34
 3738 0657 25       		.byte	0x25
 3739 0658 08       		.byte	0x8
ARM GAS  /var/folders/7z/kps_xzfj7sn5l5gkyq8s9db00000gn/T//ccxQbMtW.s 			page 67


 3740 0659 FF       		.byte	0xff
 3741 065a 1A       		.byte	0x1a
 3742 065b 24       		.byte	0x24
 3743 065c 74       		.byte	0x74
 3744 065d 00       		.sleb128 0
 3745 065e 1A       		.byte	0x1a
 3746 065f 9F       		.byte	0x9f
 3747 0660 1A000000 		.4byte	.LVL88
 3748 0664 28000000 		.4byte	.LVL90
 3749 0668 0E00     		.2byte	0xe
 3750 066a 31       		.byte	0x31
 3751 066b F3       		.byte	0xf3
 3752 066c 01       		.uleb128 0x1
 3753 066d 51       		.byte	0x51
 3754 066e 34       		.byte	0x34
 3755 066f 25       		.byte	0x25
 3756 0670 08       		.byte	0x8
 3757 0671 FF       		.byte	0xff
 3758 0672 1A       		.byte	0x1a
 3759 0673 24       		.byte	0x24
 3760 0674 74       		.byte	0x74
 3761 0675 00       		.sleb128 0
 3762 0676 1A       		.byte	0x1a
 3763 0677 9F       		.byte	0x9f
 3764 0678 00000000 		.4byte	0
 3765 067c 00000000 		.4byte	0
 3766              	.LLST34:
 3767 0680 00000000 		.4byte	.LVL91
 3768 0684 04000000 		.4byte	.LVL92
 3769 0688 0100     		.2byte	0x1
 3770 068a 51       		.byte	0x51
 3771 068b 04000000 		.4byte	.LVL92
 3772 068f 10000000 		.4byte	.LFE135
 3773 0693 0400     		.2byte	0x4
 3774 0695 F3       		.byte	0xf3
 3775 0696 01       		.uleb128 0x1
 3776 0697 51       		.byte	0x51
 3777 0698 9F       		.byte	0x9f
 3778 0699 00000000 		.4byte	0
 3779 069d 00000000 		.4byte	0
 3780              		.section	.debug_aranges,"",%progbits
 3781 0000 DC000000 		.4byte	0xdc
 3782 0004 0200     		.2byte	0x2
 3783 0006 00000000 		.4byte	.Ldebug_info0
 3784 000a 04       		.byte	0x4
 3785 000b 00       		.byte	0
 3786 000c 0000     		.2byte	0
 3787 000e 0000     		.2byte	0
 3788 0010 00000000 		.4byte	.LFB111
 3789 0014 6C000000 		.4byte	.LFE111-.LFB111
 3790 0018 00000000 		.4byte	.LFB112
 3791 001c 50000000 		.4byte	.LFE112-.LFB112
 3792 0020 00000000 		.4byte	.LFB113
 3793 0024 F0000000 		.4byte	.LFE113-.LFB113
 3794 0028 00000000 		.4byte	.LFB114
 3795 002c 18000000 		.4byte	.LFE114-.LFB114
 3796 0030 00000000 		.4byte	.LFB115
ARM GAS  /var/folders/7z/kps_xzfj7sn5l5gkyq8s9db00000gn/T//ccxQbMtW.s 			page 68


 3797 0034 12000000 		.4byte	.LFE115-.LFB115
 3798 0038 00000000 		.4byte	.LFB116
 3799 003c 1A000000 		.4byte	.LFE116-.LFB116
 3800 0040 00000000 		.4byte	.LFB117
 3801 0044 1A000000 		.4byte	.LFE117-.LFB117
 3802 0048 00000000 		.4byte	.LFB118
 3803 004c 16000000 		.4byte	.LFE118-.LFB118
 3804 0050 00000000 		.4byte	.LFB119
 3805 0054 1E000000 		.4byte	.LFE119-.LFB119
 3806 0058 00000000 		.4byte	.LFB120
 3807 005c 20000000 		.4byte	.LFE120-.LFB120
 3808 0060 00000000 		.4byte	.LFB121
 3809 0064 1A000000 		.4byte	.LFE121-.LFB121
 3810 0068 00000000 		.4byte	.LFB122
 3811 006c 1A000000 		.4byte	.LFE122-.LFB122
 3812 0070 00000000 		.4byte	.LFB123
 3813 0074 46000000 		.4byte	.LFE123-.LFB123
 3814 0078 00000000 		.4byte	.LFB124
 3815 007c 06000000 		.4byte	.LFE124-.LFB124
 3816 0080 00000000 		.4byte	.LFB125
 3817 0084 04000000 		.4byte	.LFE125-.LFB125
 3818 0088 00000000 		.4byte	.LFB126
 3819 008c 1A000000 		.4byte	.LFE126-.LFB126
 3820 0090 00000000 		.4byte	.LFB127
 3821 0094 0C000000 		.4byte	.LFE127-.LFB127
 3822 0098 00000000 		.4byte	.LFB128
 3823 009c 0C000000 		.4byte	.LFE128-.LFB128
 3824 00a0 00000000 		.4byte	.LFB129
 3825 00a4 06000000 		.4byte	.LFE129-.LFB129
 3826 00a8 00000000 		.4byte	.LFB130
 3827 00ac 14000000 		.4byte	.LFE130-.LFB130
 3828 00b0 00000000 		.4byte	.LFB131
 3829 00b4 20000000 		.4byte	.LFE131-.LFB131
 3830 00b8 00000000 		.4byte	.LFB132
 3831 00bc 0C000000 		.4byte	.LFE132-.LFB132
 3832 00c0 00000000 		.4byte	.LFB133
 3833 00c4 08000000 		.4byte	.LFE133-.LFB133
 3834 00c8 00000000 		.4byte	.LFB134
 3835 00cc 2A000000 		.4byte	.LFE134-.LFB134
 3836 00d0 00000000 		.4byte	.LFB135
 3837 00d4 10000000 		.4byte	.LFE135-.LFB135
 3838 00d8 00000000 		.4byte	0
 3839 00dc 00000000 		.4byte	0
 3840              		.section	.debug_ranges,"",%progbits
 3841              	.Ldebug_ranges0:
 3842 0000 00000000 		.4byte	.LFB111
 3843 0004 6C000000 		.4byte	.LFE111
 3844 0008 00000000 		.4byte	.LFB112
 3845 000c 50000000 		.4byte	.LFE112
 3846 0010 00000000 		.4byte	.LFB113
 3847 0014 F0000000 		.4byte	.LFE113
 3848 0018 00000000 		.4byte	.LFB114
 3849 001c 18000000 		.4byte	.LFE114
 3850 0020 00000000 		.4byte	.LFB115
 3851 0024 12000000 		.4byte	.LFE115
 3852 0028 00000000 		.4byte	.LFB116
 3853 002c 1A000000 		.4byte	.LFE116
ARM GAS  /var/folders/7z/kps_xzfj7sn5l5gkyq8s9db00000gn/T//ccxQbMtW.s 			page 69


 3854 0030 00000000 		.4byte	.LFB117
 3855 0034 1A000000 		.4byte	.LFE117
 3856 0038 00000000 		.4byte	.LFB118
 3857 003c 16000000 		.4byte	.LFE118
 3858 0040 00000000 		.4byte	.LFB119
 3859 0044 1E000000 		.4byte	.LFE119
 3860 0048 00000000 		.4byte	.LFB120
 3861 004c 20000000 		.4byte	.LFE120
 3862 0050 00000000 		.4byte	.LFB121
 3863 0054 1A000000 		.4byte	.LFE121
 3864 0058 00000000 		.4byte	.LFB122
 3865 005c 1A000000 		.4byte	.LFE122
 3866 0060 00000000 		.4byte	.LFB123
 3867 0064 46000000 		.4byte	.LFE123
 3868 0068 00000000 		.4byte	.LFB124
 3869 006c 06000000 		.4byte	.LFE124
 3870 0070 00000000 		.4byte	.LFB125
 3871 0074 04000000 		.4byte	.LFE125
 3872 0078 00000000 		.4byte	.LFB126
 3873 007c 1A000000 		.4byte	.LFE126
 3874 0080 00000000 		.4byte	.LFB127
 3875 0084 0C000000 		.4byte	.LFE127
 3876 0088 00000000 		.4byte	.LFB128
 3877 008c 0C000000 		.4byte	.LFE128
 3878 0090 00000000 		.4byte	.LFB129
 3879 0094 06000000 		.4byte	.LFE129
 3880 0098 00000000 		.4byte	.LFB130
 3881 009c 14000000 		.4byte	.LFE130
 3882 00a0 00000000 		.4byte	.LFB131
 3883 00a4 20000000 		.4byte	.LFE131
 3884 00a8 00000000 		.4byte	.LFB132
 3885 00ac 0C000000 		.4byte	.LFE132
 3886 00b0 00000000 		.4byte	.LFB133
 3887 00b4 08000000 		.4byte	.LFE133
 3888 00b8 00000000 		.4byte	.LFB134
 3889 00bc 2A000000 		.4byte	.LFE134
 3890 00c0 00000000 		.4byte	.LFB135
 3891 00c4 10000000 		.4byte	.LFE135
 3892 00c8 00000000 		.4byte	0
 3893 00cc 00000000 		.4byte	0
 3894              		.section	.debug_line,"",%progbits
 3895              	.Ldebug_line0:
 3896 0000 57040000 		.section	.debug_str,"MS",%progbits,1
 3896      0200B701 
 3896      00000201 
 3896      FB0E0D00 
 3896      01010101 
 3897              	.LASF96:
 3898 0000 4E657753 		.ascii	"NewState\000"
 3898      74617465 
 3898      00
 3899              	.LASF44:
 3900 0009 41504231 		.ascii	"APB1LPENR\000"
 3900      4C50454E 
 3900      5200
 3901              	.LASF55:
 3902 0013 52584352 		.ascii	"RXCRCR\000"
ARM GAS  /var/folders/7z/kps_xzfj7sn5l5gkyq8s9db00000gn/T//ccxQbMtW.s 			page 70


 3902      435200
 3903              	.LASF19:
 3904 001a 466C6167 		.ascii	"FlagStatus\000"
 3904      53746174 
 3904      757300
 3905              	.LASF90:
 3906 0025 706C6C6D 		.ascii	"pllm\000"
 3906      00
 3907              	.LASF91:
 3908 002a 706C6C6E 		.ascii	"plln\000"
 3908      00
 3909              	.LASF80:
 3910 002f 5350495F 		.ascii	"SPI_Init\000"
 3910      496E6974 
 3910      00
 3911              	.LASF4:
 3912 0038 5F5F7569 		.ascii	"__uint8_t\000"
 3912      6E74385F 
 3912      7400
 3913              	.LASF92:
 3914 0042 706C6C72 		.ascii	"pllr\000"
 3914      00
 3915              	.LASF132:
 3916 0047 5243435F 		.ascii	"RCC_APB1PeriphResetCmd\000"
 3916      41504231 
 3916      50657269 
 3916      70685265 
 3916      73657443 
 3917              	.LASF84:
 3918 005e 4932535F 		.ascii	"I2S_InitStruct\000"
 3918      496E6974 
 3918      53747275 
 3918      637400
 3919              	.LASF21:
 3920 006d 44495341 		.ascii	"DISABLE\000"
 3920      424C4500 
 3921              	.LASF12:
 3922 0075 6C6F6E67 		.ascii	"long long unsigned int\000"
 3922      206C6F6E 
 3922      6720756E 
 3922      7369676E 
 3922      65642069 
 3923              	.LASF54:
 3924 008c 43524350 		.ascii	"CRCPR\000"
 3924      5200
 3925              	.LASF117:
 3926 0092 5350495F 		.ascii	"SPI_I2S_ITConfig\000"
 3926      4932535F 
 3926      4954436F 
 3926      6E666967 
 3926      00
 3927              	.LASF78:
 3928 00a3 4932535F 		.ascii	"I2S_InitTypeDef\000"
 3928      496E6974 
 3928      54797065 
 3928      44656600 
 3929              	.LASF131:
ARM GAS  /var/folders/7z/kps_xzfj7sn5l5gkyq8s9db00000gn/T//ccxQbMtW.s 			page 71


 3930 00b3 49544D5F 		.ascii	"ITM_RxBuffer\000"
 3930      52784275 
 3930      66666572 
 3930      00
 3931              	.LASF79:
 3932 00c0 5350495F 		.ascii	"SPI_I2S_DeInit\000"
 3932      4932535F 
 3932      4465496E 
 3932      697400
 3933              	.LASF73:
 3934 00cf 4932535F 		.ascii	"I2S_Standard\000"
 3934      5374616E 
 3934      64617264 
 3934      00
 3935              	.LASF99:
 3936 00dc 5350495F 		.ascii	"SPI_BiDirectionalLineConfig\000"
 3936      42694469 
 3936      72656374 
 3936      696F6E61 
 3936      6C4C696E 
 3937              	.LASF40:
 3938 00f8 41484231 		.ascii	"AHB1LPENR\000"
 3938      4C50454E 
 3938      5200
 3939              	.LASF114:
 3940 0102 5350495F 		.ascii	"SPI_GetCRCPolynomial\000"
 3940      47657443 
 3940      5243506F 
 3940      6C796E6F 
 3940      6D69616C 
 3941              	.LASF129:
 3942 0117 6C69622F 		.ascii	"lib/ChibiOS_2.6.6/ext/stdperiph_stm32f4/src/stm32f4"
 3942      43686962 
 3942      694F535F 
 3942      322E362E 
 3942      362F6578 
 3943 014a 78785F73 		.ascii	"xx_spi.c\000"
 3943      70692E63 
 3943      00
 3944              	.LASF52:
 3945 0153 44434B43 		.ascii	"DCKCFGR\000"
 3945      46475200 
 3946              	.LASF11:
 3947 015b 6C6F6E67 		.ascii	"long long int\000"
 3947      206C6F6E 
 3947      6720696E 
 3947      7400
 3948              	.LASF1:
 3949 0169 7369676E 		.ascii	"signed char\000"
 3949      65642063 
 3949      68617200 
 3950              	.LASF26:
 3951 0175 41484231 		.ascii	"AHB1RSTR\000"
 3951      52535452 
 3951      00
 3952              	.LASF57:
 3953 017e 49325343 		.ascii	"I2SCFGR\000"
ARM GAS  /var/folders/7z/kps_xzfj7sn5l5gkyq8s9db00000gn/T//ccxQbMtW.s 			page 72


 3953      46475200 
 3954              	.LASF113:
 3955 0186 63726372 		.ascii	"crcreg\000"
 3955      656700
 3956              	.LASF115:
 3957 018d 5350495F 		.ascii	"SPI_I2S_DMACmd\000"
 3957      4932535F 
 3957      444D4143 
 3957      6D6400
 3958              	.LASF85:
 3959 019c 746D7072 		.ascii	"tmpreg\000"
 3959      656700
 3960              	.LASF125:
 3961 01a3 5350495F 		.ascii	"SPI_I2S_GetITStatus\000"
 3961      4932535F 
 3961      47657449 
 3961      54537461 
 3961      74757300 
 3962              	.LASF100:
 3963 01b7 5350495F 		.ascii	"SPI_NSSInternalSoftwareConfig\000"
 3963      4E535349 
 3963      6E746572 
 3963      6E616C53 
 3963      6F667477 
 3964              	.LASF8:
 3965 01d5 6C6F6E67 		.ascii	"long int\000"
 3965      20696E74 
 3965      00
 3966              	.LASF93:
 3967 01de 5350495F 		.ascii	"SPI_StructInit\000"
 3967      53747275 
 3967      6374496E 
 3967      697400
 3968              	.LASF31:
 3969 01ed 41504232 		.ascii	"APB2RSTR\000"
 3969      52535452 
 3969      00
 3970              	.LASF121:
 3971 01f6 5350495F 		.ascii	"SPI_I2S_GetFlagStatus\000"
 3971      4932535F 
 3971      47657446 
 3971      6C616753 
 3971      74617475 
 3972              	.LASF22:
 3973 020c 454E4142 		.ascii	"ENABLE\000"
 3973      4C4500
 3974              	.LASF14:
 3975 0213 75696E74 		.ascii	"uint16_t\000"
 3975      31365F74 
 3975      00
 3976              	.LASF102:
 3977 021c 5350495F 		.ascii	"SPI_SSOutputCmd\000"
 3977      53534F75 
 3977      74707574 
 3977      436D6400 
 3978              	.LASF105:
 3979 022c 49325378 		.ascii	"I2Sxext\000"
ARM GAS  /var/folders/7z/kps_xzfj7sn5l5gkyq8s9db00000gn/T//ccxQbMtW.s 			page 73


 3979      65787400 
 3980              	.LASF24:
 3981 0234 504C4C43 		.ascii	"PLLCFGR\000"
 3981      46475200 
 3982              	.LASF119:
 3983 023c 6974706F 		.ascii	"itpos\000"
 3983      7300
 3984              	.LASF56:
 3985 0242 54584352 		.ascii	"TXCRCR\000"
 3985      435200
 3986              	.LASF62:
 3987 0249 5350495F 		.ascii	"SPI_Direction\000"
 3987      44697265 
 3987      6374696F 
 3987      6E00
 3988              	.LASF9:
 3989 0257 5F5F7569 		.ascii	"__uint32_t\000"
 3989      6E743332 
 3989      5F7400
 3990              	.LASF112:
 3991 0262 5350495F 		.ascii	"SPI_CRC\000"
 3991      43524300 
 3992              	.LASF123:
 3993 026a 62697473 		.ascii	"bitstatus\000"
 3993      74617475 
 3993      7300
 3994              	.LASF130:
 3995 0274 2F557365 		.ascii	"/Users/Baram/oroca_bldc_dev/oroca_bldc/\000"
 3995      72732F42 
 3995      6172616D 
 3995      2F6F726F 
 3995      63615F62 
 3996              	.LASF20:
 3997 029c 49545374 		.ascii	"ITStatus\000"
 3997      61747573 
 3997      00
 3998              	.LASF0:
 3999 02a5 756E7369 		.ascii	"unsigned int\000"
 3999      676E6564 
 3999      20696E74 
 3999      00
 4000              	.LASF101:
 4001 02b2 5350495F 		.ascii	"SPI_NSSInternalSoft\000"
 4001      4E535349 
 4001      6E746572 
 4001      6E616C53 
 4001      6F667400 
 4002              	.LASF10:
 4003 02c6 6C6F6E67 		.ascii	"long unsigned int\000"
 4003      20756E73 
 4003      69676E65 
 4003      6420696E 
 4003      7400
 4004              	.LASF109:
 4005 02d8 5350495F 		.ascii	"SPI_TransmitCRC\000"
 4005      5472616E 
 4005      736D6974 
ARM GAS  /var/folders/7z/kps_xzfj7sn5l5gkyq8s9db00000gn/T//ccxQbMtW.s 			page 74


 4005      43524300 
 4006              	.LASF53:
 4007 02e8 5243435F 		.ascii	"RCC_TypeDef\000"
 4007      54797065 
 4007      44656600 
 4008              	.LASF128:
 4009 02f4 474E5520 		.ascii	"GNU C 4.9.3 20150303 (release) [ARM/embedded-4_9-br"
 4009      4320342E 
 4009      392E3320 
 4009      32303135 
 4009      30333033 
 4010 0327 616E6368 		.ascii	"anch revision 221220] -mcpu=cortex-m4 -mfloat-abi=h"
 4010      20726576 
 4010      6973696F 
 4010      6E203232 
 4010      31323230 
 4011 035a 61726420 		.ascii	"ard -mfpu=fpv4-sp-d16 -mno-thumb-interwork -mthumb "
 4011      2D6D6670 
 4011      753D6670 
 4011      76342D73 
 4011      702D6431 
 4012 038d 2D676764 		.ascii	"-ggdb -O2 -std=gnu99 -fomit-frame-pointer -falign-f"
 4012      62202D4F 
 4012      32202D73 
 4012      74643D67 
 4012      6E753939 
 4013 03c0 756E6374 		.ascii	"unctions=16 -ffunction-sections -fdata-sections -fn"
 4013      696F6E73 
 4013      3D313620 
 4013      2D666675 
 4013      6E637469 
 4014 03f3 6F2D636F 		.ascii	"o-common -fsingle-precision-constant\000"
 4014      6D6D6F6E 
 4014      202D6673 
 4014      696E676C 
 4014      652D7072 
 4015              	.LASF75:
 4016 0418 4932535F 		.ascii	"I2S_MCLKOutput\000"
 4016      4D434C4B 
 4016      4F757470 
 4016      757400
 4017              	.LASF122:
 4018 0427 5350495F 		.ascii	"SPI_I2S_FLAG\000"
 4018      4932535F 
 4018      464C4147 
 4018      00
 4019              	.LASF6:
 4020 0434 73686F72 		.ascii	"short unsigned int\000"
 4020      7420756E 
 4020      7369676E 
 4020      65642069 
 4020      6E7400
 4021              	.LASF50:
 4022 0447 504C4C49 		.ascii	"PLLI2SCFGR\000"
 4022      32534346 
 4022      475200
 4023              	.LASF118:
ARM GAS  /var/folders/7z/kps_xzfj7sn5l5gkyq8s9db00000gn/T//ccxQbMtW.s 			page 75


 4024 0452 5350495F 		.ascii	"SPI_I2S_IT\000"
 4024      4932535F 
 4024      495400
 4025              	.LASF28:
 4026 045d 41484233 		.ascii	"AHB3RSTR\000"
 4026      52535452 
 4026      00
 4027              	.LASF98:
 4028 0466 5350495F 		.ascii	"SPI_DataSizeConfig\000"
 4028      44617461 
 4028      53697A65 
 4028      436F6E66 
 4028      696700
 4029              	.LASF70:
 4030 0479 5350495F 		.ascii	"SPI_CRCPolynomial\000"
 4030      43524350 
 4030      6F6C796E 
 4030      6F6D6961 
 4030      6C00
 4031              	.LASF77:
 4032 048b 4932535F 		.ascii	"I2S_CPOL\000"
 4032      43504F4C 
 4032      00
 4033              	.LASF71:
 4034 0494 5350495F 		.ascii	"SPI_InitTypeDef\000"
 4034      496E6974 
 4034      54797065 
 4034      44656600 
 4035              	.LASF45:
 4036 04a4 41504232 		.ascii	"APB2LPENR\000"
 4036      4C50454E 
 4036      5200
 4037              	.LASF116:
 4038 04ae 5350495F 		.ascii	"SPI_I2S_DMAReq\000"
 4038      4932535F 
 4038      444D4152 
 4038      657100
 4039              	.LASF82:
 4040 04bd 5350495F 		.ascii	"SPI_InitStruct\000"
 4040      496E6974 
 4040      53747275 
 4040      637400
 4041              	.LASF18:
 4042 04cc 52455345 		.ascii	"RESET\000"
 4042      5400
 4043              	.LASF103:
 4044 04d2 5350495F 		.ascii	"SPI_TIModeCmd\000"
 4044      54494D6F 
 4044      6465436D 
 4044      6400
 4045              	.LASF74:
 4046 04e0 4932535F 		.ascii	"I2S_DataFormat\000"
 4046      44617461 
 4046      466F726D 
 4046      617400
 4047              	.LASF59:
 4048 04ef 49325350 		.ascii	"I2SPR\000"
ARM GAS  /var/folders/7z/kps_xzfj7sn5l5gkyq8s9db00000gn/T//ccxQbMtW.s 			page 76


 4048      5200
 4049              	.LASF17:
 4050 04f5 73697A65 		.ascii	"sizetype\000"
 4050      74797065 
 4050      00
 4051              	.LASF35:
 4052 04fe 41484233 		.ascii	"AHB3ENR\000"
 4052      454E5200 
 4053              	.LASF95:
 4054 0506 5350495F 		.ascii	"SPI_Cmd\000"
 4054      436D6400 
 4055              	.LASF72:
 4056 050e 4932535F 		.ascii	"I2S_Mode\000"
 4056      4D6F6465 
 4056      00
 4057              	.LASF41:
 4058 0517 41484232 		.ascii	"AHB2LPENR\000"
 4058      4C50454E 
 4058      5200
 4059              	.LASF23:
 4060 0521 46756E63 		.ascii	"FunctionalState\000"
 4060      74696F6E 
 4060      616C5374 
 4060      61746500 
 4061              	.LASF133:
 4062 0531 5243435F 		.ascii	"RCC_APB2PeriphResetCmd\000"
 4062      41504232 
 4062      50657269 
 4062      70685265 
 4062      73657443 
 4063              	.LASF120:
 4064 0548 69746D61 		.ascii	"itmask\000"
 4064      736B00
 4065              	.LASF127:
 4066 054f 5350495F 		.ascii	"SPI_I2S_ClearITPendingBit\000"
 4066      4932535F 
 4066      436C6561 
 4066      72495450 
 4066      656E6469 
 4067              	.LASF86:
 4068 0569 69327364 		.ascii	"i2sdiv\000"
 4068      697600
 4069              	.LASF51:
 4070 0570 504C4C53 		.ascii	"PLLSAICFGR\000"
 4070      41494346 
 4070      475200
 4071              	.LASF76:
 4072 057b 4932535F 		.ascii	"I2S_AudioFreq\000"
 4072      41756469 
 4072      6F467265 
 4072      7100
 4073              	.LASF29:
 4074 0589 52455345 		.ascii	"RESERVED0\000"
 4074      52564544 
 4074      3000
 4075              	.LASF32:
 4076 0593 52455345 		.ascii	"RESERVED1\000"
ARM GAS  /var/folders/7z/kps_xzfj7sn5l5gkyq8s9db00000gn/T//ccxQbMtW.s 			page 77


 4076      52564544 
 4076      3100
 4077              	.LASF36:
 4078 059d 52455345 		.ascii	"RESERVED2\000"
 4078      52564544 
 4078      3200
 4079              	.LASF39:
 4080 05a7 52455345 		.ascii	"RESERVED3\000"
 4080      52564544 
 4080      3300
 4081              	.LASF43:
 4082 05b1 52455345 		.ascii	"RESERVED4\000"
 4082      52564544 
 4082      3400
 4083              	.LASF46:
 4084 05bb 52455345 		.ascii	"RESERVED5\000"
 4084      52564544 
 4084      3500
 4085              	.LASF48:
 4086 05c5 52455345 		.ascii	"RESERVED6\000"
 4086      52564544 
 4086      3600
 4087              	.LASF58:
 4088 05cf 52455345 		.ascii	"RESERVED7\000"
 4088      52564544 
 4088      3700
 4089              	.LASF60:
 4090 05d9 52455345 		.ascii	"RESERVED8\000"
 4090      52564544 
 4090      3800
 4091              	.LASF65:
 4092 05e3 5350495F 		.ascii	"SPI_CPOL\000"
 4092      43504F4C 
 4092      00
 4093              	.LASF15:
 4094 05ec 696E7433 		.ascii	"int32_t\000"
 4094      325F7400 
 4095              	.LASF2:
 4096 05f4 756E7369 		.ascii	"unsigned char\000"
 4096      676E6564 
 4096      20636861 
 4096      7200
 4097              	.LASF97:
 4098 0602 4932535F 		.ascii	"I2S_Cmd\000"
 4098      436D6400 
 4099              	.LASF3:
 4100 060a 73686F72 		.ascii	"short int\000"
 4100      7420696E 
 4100      7400
 4101              	.LASF42:
 4102 0614 41484233 		.ascii	"AHB3LPENR\000"
 4102      4C50454E 
 4102      5200
 4103              	.LASF69:
 4104 061e 5350495F 		.ascii	"SPI_FirstBit\000"
 4104      46697273 
 4104      74426974 
ARM GAS  /var/folders/7z/kps_xzfj7sn5l5gkyq8s9db00000gn/T//ccxQbMtW.s 			page 78


 4104      00
 4105              	.LASF66:
 4106 062b 5350495F 		.ascii	"SPI_CPHA\000"
 4106      43504841 
 4106      00
 4107              	.LASF38:
 4108 0634 41504232 		.ascii	"APB2ENR\000"
 4108      454E5200 
 4109              	.LASF81:
 4110 063c 53504978 		.ascii	"SPIx\000"
 4110      00
 4111              	.LASF68:
 4112 0641 5350495F 		.ascii	"SPI_BaudRatePrescaler\000"
 4112      42617564 
 4112      52617465 
 4112      50726573 
 4112      63616C65 
 4113              	.LASF61:
 4114 0657 5350495F 		.ascii	"SPI_TypeDef\000"
 4114      54797065 
 4114      44656600 
 4115              	.LASF16:
 4116 0663 75696E74 		.ascii	"uint32_t\000"
 4116      33325F74 
 4116      00
 4117              	.LASF63:
 4118 066c 5350495F 		.ascii	"SPI_Mode\000"
 4118      4D6F6465 
 4118      00
 4119              	.LASF124:
 4120 0675 5350495F 		.ascii	"SPI_I2S_ClearFlag\000"
 4120      4932535F 
 4120      436C6561 
 4120      72466C61 
 4120      6700
 4121              	.LASF67:
 4122 0687 5350495F 		.ascii	"SPI_NSS\000"
 4122      4E535300 
 4123              	.LASF5:
 4124 068f 5F5F7569 		.ascii	"__uint16_t\000"
 4124      6E743136 
 4124      5F7400
 4125              	.LASF27:
 4126 069a 41484232 		.ascii	"AHB2RSTR\000"
 4126      52535452 
 4126      00
 4127              	.LASF126:
 4128 06a3 656E6162 		.ascii	"enablestatus\000"
 4128      6C657374 
 4128      61747573 
 4128      00
 4129              	.LASF108:
 4130 06b0 5350495F 		.ascii	"SPI_CalculateCRC\000"
 4130      43616C63 
 4130      756C6174 
 4130      65435243 
 4130      00
ARM GAS  /var/folders/7z/kps_xzfj7sn5l5gkyq8s9db00000gn/T//ccxQbMtW.s 			page 79


 4131              	.LASF7:
 4132 06c1 5F5F696E 		.ascii	"__int32_t\000"
 4132      7433325F 
 4132      7400
 4133              	.LASF111:
 4134 06cb 5350495F 		.ascii	"SPI_GetCRC\000"
 4134      47657443 
 4134      524300
 4135              	.LASF37:
 4136 06d6 41504231 		.ascii	"APB1ENR\000"
 4136      454E5200 
 4137              	.LASF47:
 4138 06de 42444352 		.ascii	"BDCR\000"
 4138      00
 4139              	.LASF34:
 4140 06e3 41484232 		.ascii	"AHB2ENR\000"
 4140      454E5200 
 4141              	.LASF94:
 4142 06eb 4932535F 		.ascii	"I2S_StructInit\000"
 4142      53747275 
 4142      6374496E 
 4142      697400
 4143              	.LASF83:
 4144 06fa 4932535F 		.ascii	"I2S_Init\000"
 4144      496E6974 
 4144      00
 4145              	.LASF104:
 4146 0703 4932535F 		.ascii	"I2S_FullDuplexConfig\000"
 4146      46756C6C 
 4146      4475706C 
 4146      6578436F 
 4146      6E666967 
 4147              	.LASF49:
 4148 0718 53534347 		.ascii	"SSCGR\000"
 4148      5200
 4149              	.LASF30:
 4150 071e 41504231 		.ascii	"APB1RSTR\000"
 4150      52535452 
 4150      00
 4151              	.LASF64:
 4152 0727 5350495F 		.ascii	"SPI_DataSize\000"
 4152      44617461 
 4152      53697A65 
 4152      00
 4153              	.LASF13:
 4154 0734 75696E74 		.ascii	"uint8_t\000"
 4154      385F7400 
 4155              	.LASF107:
 4156 073c 44617461 		.ascii	"Data\000"
 4156      00
 4157              	.LASF87:
 4158 0741 6932736F 		.ascii	"i2sodd\000"
 4158      646400
 4159              	.LASF33:
 4160 0748 41484231 		.ascii	"AHB1ENR\000"
 4160      454E5200 
 4161              	.LASF88:
ARM GAS  /var/folders/7z/kps_xzfj7sn5l5gkyq8s9db00000gn/T//ccxQbMtW.s 			page 80


 4162 0750 7061636B 		.ascii	"packetlength\000"
 4162      65746C65 
 4162      6E677468 
 4162      00
 4163              	.LASF25:
 4164 075d 43464752 		.ascii	"CFGR\000"
 4164      00
 4165              	.LASF106:
 4166 0762 5350495F 		.ascii	"SPI_I2S_SendData\000"
 4166      4932535F 
 4166      53656E64 
 4166      44617461 
 4166      00
 4167              	.LASF110:
 4168 0773 5350495F 		.ascii	"SPI_I2S_ReceiveData\000"
 4168      4932535F 
 4168      52656365 
 4168      69766544 
 4168      61746100 
 4169              	.LASF89:
 4170 0787 69327363 		.ascii	"i2sclk\000"
 4170      6C6B00
 4171              		.ident	"GCC: (GNU Tools for ARM Embedded Processors) 4.9.3 20150303 (release) [ARM/embedded-4_9-br
ARM GAS  /var/folders/7z/kps_xzfj7sn5l5gkyq8s9db00000gn/T//ccxQbMtW.s 			page 81


DEFINED SYMBOLS
                            *ABS*:0000000000000000 stm32f4xx_spi.c
/var/folders/7z/kps_xzfj7sn5l5gkyq8s9db00000gn/T//ccxQbMtW.s:21     .text.SPI_I2S_DeInit:0000000000000000 $t
/var/folders/7z/kps_xzfj7sn5l5gkyq8s9db00000gn/T//ccxQbMtW.s:27     .text.SPI_I2S_DeInit:0000000000000000 SPI_I2S_DeInit
/var/folders/7z/kps_xzfj7sn5l5gkyq8s9db00000gn/T//ccxQbMtW.s:113    .text.SPI_I2S_DeInit:0000000000000060 $d
/var/folders/7z/kps_xzfj7sn5l5gkyq8s9db00000gn/T//ccxQbMtW.s:120    .text.SPI_Init:0000000000000000 $t
/var/folders/7z/kps_xzfj7sn5l5gkyq8s9db00000gn/T//ccxQbMtW.s:126    .text.SPI_Init:0000000000000000 SPI_Init
/var/folders/7z/kps_xzfj7sn5l5gkyq8s9db00000gn/T//ccxQbMtW.s:189    .text.I2S_Init:0000000000000000 $t
/var/folders/7z/kps_xzfj7sn5l5gkyq8s9db00000gn/T//ccxQbMtW.s:195    .text.I2S_Init:0000000000000000 I2S_Init
/var/folders/7z/kps_xzfj7sn5l5gkyq8s9db00000gn/T//ccxQbMtW.s:365    .text.I2S_Init:00000000000000e4 $d
/var/folders/7z/kps_xzfj7sn5l5gkyq8s9db00000gn/T//ccxQbMtW.s:372    .text.SPI_StructInit:0000000000000000 $t
/var/folders/7z/kps_xzfj7sn5l5gkyq8s9db00000gn/T//ccxQbMtW.s:378    .text.SPI_StructInit:0000000000000000 SPI_StructInit
/var/folders/7z/kps_xzfj7sn5l5gkyq8s9db00000gn/T//ccxQbMtW.s:412    .text.I2S_StructInit:0000000000000000 $t
/var/folders/7z/kps_xzfj7sn5l5gkyq8s9db00000gn/T//ccxQbMtW.s:418    .text.I2S_StructInit:0000000000000000 I2S_StructInit
/var/folders/7z/kps_xzfj7sn5l5gkyq8s9db00000gn/T//ccxQbMtW.s:446    .text.SPI_Cmd:0000000000000000 $t
/var/folders/7z/kps_xzfj7sn5l5gkyq8s9db00000gn/T//ccxQbMtW.s:452    .text.SPI_Cmd:0000000000000000 SPI_Cmd
/var/folders/7z/kps_xzfj7sn5l5gkyq8s9db00000gn/T//ccxQbMtW.s:480    .text.I2S_Cmd:0000000000000000 $t
/var/folders/7z/kps_xzfj7sn5l5gkyq8s9db00000gn/T//ccxQbMtW.s:486    .text.I2S_Cmd:0000000000000000 I2S_Cmd
/var/folders/7z/kps_xzfj7sn5l5gkyq8s9db00000gn/T//ccxQbMtW.s:514    .text.SPI_DataSizeConfig:0000000000000000 $t
/var/folders/7z/kps_xzfj7sn5l5gkyq8s9db00000gn/T//ccxQbMtW.s:520    .text.SPI_DataSizeConfig:0000000000000000 SPI_DataSizeConfig
/var/folders/7z/kps_xzfj7sn5l5gkyq8s9db00000gn/T//ccxQbMtW.s:545    .text.SPI_BiDirectionalLineConfig:0000000000000000 $t
/var/folders/7z/kps_xzfj7sn5l5gkyq8s9db00000gn/T//ccxQbMtW.s:551    .text.SPI_BiDirectionalLineConfig:0000000000000000 SPI_BiDirectionalLineConfig
/var/folders/7z/kps_xzfj7sn5l5gkyq8s9db00000gn/T//ccxQbMtW.s:581    .text.SPI_NSSInternalSoftwareConfig:0000000000000000 $t
/var/folders/7z/kps_xzfj7sn5l5gkyq8s9db00000gn/T//ccxQbMtW.s:587    .text.SPI_NSSInternalSoftwareConfig:0000000000000000 SPI_NSSInternalSoftwareConfig
/var/folders/7z/kps_xzfj7sn5l5gkyq8s9db00000gn/T//ccxQbMtW.s:618    .text.SPI_SSOutputCmd:0000000000000000 $t
/var/folders/7z/kps_xzfj7sn5l5gkyq8s9db00000gn/T//ccxQbMtW.s:624    .text.SPI_SSOutputCmd:0000000000000000 SPI_SSOutputCmd
/var/folders/7z/kps_xzfj7sn5l5gkyq8s9db00000gn/T//ccxQbMtW.s:652    .text.SPI_TIModeCmd:0000000000000000 $t
/var/folders/7z/kps_xzfj7sn5l5gkyq8s9db00000gn/T//ccxQbMtW.s:658    .text.SPI_TIModeCmd:0000000000000000 SPI_TIModeCmd
/var/folders/7z/kps_xzfj7sn5l5gkyq8s9db00000gn/T//ccxQbMtW.s:686    .text.I2S_FullDuplexConfig:0000000000000000 $t
/var/folders/7z/kps_xzfj7sn5l5gkyq8s9db00000gn/T//ccxQbMtW.s:692    .text.I2S_FullDuplexConfig:0000000000000000 I2S_FullDuplexConfig
/var/folders/7z/kps_xzfj7sn5l5gkyq8s9db00000gn/T//ccxQbMtW.s:760    .text.SPI_I2S_ReceiveData:0000000000000000 $t
/var/folders/7z/kps_xzfj7sn5l5gkyq8s9db00000gn/T//ccxQbMtW.s:766    .text.SPI_I2S_ReceiveData:0000000000000000 SPI_I2S_ReceiveData
/var/folders/7z/kps_xzfj7sn5l5gkyq8s9db00000gn/T//ccxQbMtW.s:784    .text.SPI_I2S_SendData:0000000000000000 $t
/var/folders/7z/kps_xzfj7sn5l5gkyq8s9db00000gn/T//ccxQbMtW.s:790    .text.SPI_I2S_SendData:0000000000000000 SPI_I2S_SendData
/var/folders/7z/kps_xzfj7sn5l5gkyq8s9db00000gn/T//ccxQbMtW.s:805    .text.SPI_CalculateCRC:0000000000000000 $t
/var/folders/7z/kps_xzfj7sn5l5gkyq8s9db00000gn/T//ccxQbMtW.s:811    .text.SPI_CalculateCRC:0000000000000000 SPI_CalculateCRC
/var/folders/7z/kps_xzfj7sn5l5gkyq8s9db00000gn/T//ccxQbMtW.s:839    .text.SPI_TransmitCRC:0000000000000000 $t
/var/folders/7z/kps_xzfj7sn5l5gkyq8s9db00000gn/T//ccxQbMtW.s:845    .text.SPI_TransmitCRC:0000000000000000 SPI_TransmitCRC
/var/folders/7z/kps_xzfj7sn5l5gkyq8s9db00000gn/T//ccxQbMtW.s:863    .text.SPI_GetCRC:0000000000000000 $t
/var/folders/7z/kps_xzfj7sn5l5gkyq8s9db00000gn/T//ccxQbMtW.s:869    .text.SPI_GetCRC:0000000000000000 SPI_GetCRC
/var/folders/7z/kps_xzfj7sn5l5gkyq8s9db00000gn/T//ccxQbMtW.s:893    .text.SPI_GetCRCPolynomial:0000000000000000 $t
/var/folders/7z/kps_xzfj7sn5l5gkyq8s9db00000gn/T//ccxQbMtW.s:899    .text.SPI_GetCRCPolynomial:0000000000000000 SPI_GetCRCPolynomial
/var/folders/7z/kps_xzfj7sn5l5gkyq8s9db00000gn/T//ccxQbMtW.s:917    .text.SPI_I2S_DMACmd:0000000000000000 $t
/var/folders/7z/kps_xzfj7sn5l5gkyq8s9db00000gn/T//ccxQbMtW.s:923    .text.SPI_I2S_DMACmd:0000000000000000 SPI_I2S_DMACmd
/var/folders/7z/kps_xzfj7sn5l5gkyq8s9db00000gn/T//ccxQbMtW.s:952    .text.SPI_I2S_ITConfig:0000000000000000 $t
/var/folders/7z/kps_xzfj7sn5l5gkyq8s9db00000gn/T//ccxQbMtW.s:958    .text.SPI_I2S_ITConfig:0000000000000000 SPI_I2S_ITConfig
/var/folders/7z/kps_xzfj7sn5l5gkyq8s9db00000gn/T//ccxQbMtW.s:997    .text.SPI_I2S_GetFlagStatus:0000000000000000 $t
/var/folders/7z/kps_xzfj7sn5l5gkyq8s9db00000gn/T//ccxQbMtW.s:1003   .text.SPI_I2S_GetFlagStatus:0000000000000000 SPI_I2S_GetFlagStatus
/var/folders/7z/kps_xzfj7sn5l5gkyq8s9db00000gn/T//ccxQbMtW.s:1025   .text.SPI_I2S_ClearFlag:0000000000000000 $t
/var/folders/7z/kps_xzfj7sn5l5gkyq8s9db00000gn/T//ccxQbMtW.s:1031   .text.SPI_I2S_ClearFlag:0000000000000000 SPI_I2S_ClearFlag
/var/folders/7z/kps_xzfj7sn5l5gkyq8s9db00000gn/T//ccxQbMtW.s:1049   .text.SPI_I2S_GetITStatus:0000000000000000 $t
/var/folders/7z/kps_xzfj7sn5l5gkyq8s9db00000gn/T//ccxQbMtW.s:1055   .text.SPI_I2S_GetITStatus:0000000000000000 SPI_I2S_GetITStatus
/var/folders/7z/kps_xzfj7sn5l5gkyq8s9db00000gn/T//ccxQbMtW.s:1107   .text.SPI_I2S_ClearITPendingBit:0000000000000000 $t
/var/folders/7z/kps_xzfj7sn5l5gkyq8s9db00000gn/T//ccxQbMtW.s:1113   .text.SPI_I2S_ClearITPendingBit:0000000000000000 SPI_I2S_ClearITPendingBit
                     .debug_frame:0000000000000010 $d
/var/folders/7z/kps_xzfj7sn5l5gkyq8s9db00000gn/T//ccxQbMtW.s:119    .text.SPI_I2S_DeInit:000000000000006c $t

ARM GAS  /var/folders/7z/kps_xzfj7sn5l5gkyq8s9db00000gn/T//ccxQbMtW.s 			page 82


UNDEFINED SYMBOLS
RCC_APB1PeriphResetCmd
RCC_APB2PeriphResetCmd
