ARM GAS  /var/folders/bz/nn5481rn5xq59rb0mbj7x0880000gn/T//cckDT4Uq.s 			page 1


   1              		.syntax unified
   2              		.cpu cortex-m4
   3              		.eabi_attribute 27, 1
   4              		.eabi_attribute 28, 1
   5              		.fpu fpv4-sp-d16
   6              		.eabi_attribute 20, 1
   7              		.eabi_attribute 21, 1
   8              		.eabi_attribute 23, 3
   9              		.eabi_attribute 24, 1
  10              		.eabi_attribute 25, 1
  11              		.eabi_attribute 26, 1
  12              		.eabi_attribute 30, 2
  13              		.eabi_attribute 34, 1
  14              		.eabi_attribute 18, 4
  15              		.thumb
  16              		.file	"stm32f4xx_syscfg.c"
  17              		.text
  18              	.Ltext0:
  19              		.cfi_sections	.debug_frame
  20              		.section	.text.SYSCFG_DeInit,"ax",%progbits
  21              		.align	2
  22              		.p2align 4,,15
  23              		.global	SYSCFG_DeInit
  24              		.thumb
  25              		.thumb_func
  26              		.type	SYSCFG_DeInit, %function
  27              	SYSCFG_DeInit:
  28              	.LFB111:
  29              		.file 1 "lib/ChibiOS_2.6.6/ext/stdperiph_stm32f4/src/stm32f4xx_syscfg.c"
  30              		.loc 1 93 0
  31              		.cfi_startproc
  32              		@ args = 0, pretend = 0, frame = 0
  33              		@ frame_needed = 0, uses_anonymous_args = 0
  34 0000 08B5     		push	{r3, lr}
  35              		.cfi_def_cfa_offset 8
  36              		.cfi_offset 3, -8
  37              		.cfi_offset 14, -4
  38              		.loc 1 94 0
  39 0002 4FF48040 		mov	r0, #16384
  40 0006 0121     		movs	r1, #1
  41 0008 FFF7FEFF 		bl	RCC_APB2PeriphResetCmd
  42              	.LVL0:
  43              		.loc 1 95 0
  44 000c 4FF48040 		mov	r0, #16384
  45 0010 0021     		movs	r1, #0
  46              		.loc 1 96 0
  47 0012 BDE80840 		pop	{r3, lr}
  48              		.cfi_restore 14
  49              		.cfi_restore 3
  50              		.cfi_def_cfa_offset 0
  51              		.loc 1 95 0
  52 0016 FFF7FEBF 		b	RCC_APB2PeriphResetCmd
  53              	.LVL1:
  54              		.cfi_endproc
  55              	.LFE111:
  56              		.size	SYSCFG_DeInit, .-SYSCFG_DeInit
  57 001a 00BF     		.section	.text.SYSCFG_MemoryRemapConfig,"ax",%progbits
ARM GAS  /var/folders/bz/nn5481rn5xq59rb0mbj7x0880000gn/T//cckDT4Uq.s 			page 2


  58              		.align	2
  59              		.p2align 4,,15
  60              		.global	SYSCFG_MemoryRemapConfig
  61              		.thumb
  62              		.thumb_func
  63              		.type	SYSCFG_MemoryRemapConfig, %function
  64              	SYSCFG_MemoryRemapConfig:
  65              	.LFB112:
  66              		.loc 1 109 0
  67              		.cfi_startproc
  68              		@ args = 0, pretend = 0, frame = 0
  69              		@ frame_needed = 0, uses_anonymous_args = 0
  70              		@ link register save eliminated.
  71              	.LVL2:
  72              		.loc 1 113 0
  73 0000 014B     		ldr	r3, .L4
  74 0002 1860     		str	r0, [r3]
  75 0004 7047     		bx	lr
  76              	.L5:
  77 0006 00BF     		.align	2
  78              	.L4:
  79 0008 00380140 		.word	1073821696
  80              		.cfi_endproc
  81              	.LFE112:
  82              		.size	SYSCFG_MemoryRemapConfig, .-SYSCFG_MemoryRemapConfig
  83              		.section	.text.SYSCFG_EXTILineConfig,"ax",%progbits
  84              		.align	2
  85              		.p2align 4,,15
  86              		.global	SYSCFG_EXTILineConfig
  87              		.thumb
  88              		.thumb_func
  89              		.type	SYSCFG_EXTILineConfig, %function
  90              	SYSCFG_EXTILineConfig:
  91              	.LFB113:
  92              		.loc 1 126 0
  93              		.cfi_startproc
  94              		@ args = 0, pretend = 0, frame = 0
  95              		@ frame_needed = 0, uses_anonymous_args = 0
  96              		@ link register save eliminated.
  97              	.LVL3:
  98 0000 01F0FC03 		and	r3, r1, #252
  99 0004 03F18043 		add	r3, r3, #1073741824
 100 0008 03F59C33 		add	r3, r3, #79872
 101              		.loc 1 133 0
 102 000c 01F00301 		and	r1, r1, #3
 103              	.LVL4:
 104              		.loc 1 126 0
 105 0010 10B4     		push	{r4}
 106              		.cfi_def_cfa_offset 4
 107              		.cfi_offset 4, -4
 108              		.loc 1 133 0
 109 0012 8900     		lsls	r1, r1, #2
 110              	.LVL5:
 111              		.loc 1 134 0
 112 0014 9C68     		ldr	r4, [r3, #8]
 113              		.loc 1 133 0
 114 0016 0F22     		movs	r2, #15
ARM GAS  /var/folders/bz/nn5481rn5xq59rb0mbj7x0880000gn/T//cckDT4Uq.s 			page 3


 115 0018 8A40     		lsls	r2, r2, r1
 116              	.LVL6:
 117              		.loc 1 134 0
 118 001a 24EA0202 		bic	r2, r4, r2
 119              	.LVL7:
 120 001e 9A60     		str	r2, [r3, #8]
 121              		.loc 1 135 0
 122 0020 9A68     		ldr	r2, [r3, #8]
 123              		.loc 1 136 0
 124 0022 5DF8044B 		ldr	r4, [sp], #4
 125              		.cfi_restore 4
 126              		.cfi_def_cfa_offset 0
 127              		.loc 1 135 0
 128 0026 8840     		lsls	r0, r0, r1
 129              	.LVL8:
 130 0028 0243     		orrs	r2, r2, r0
 131 002a 9A60     		str	r2, [r3, #8]
 132              		.loc 1 136 0
 133 002c 7047     		bx	lr
 134              		.cfi_endproc
 135              	.LFE113:
 136              		.size	SYSCFG_EXTILineConfig, .-SYSCFG_EXTILineConfig
 137 002e 00BF     		.section	.text.SYSCFG_ETH_MediaInterfaceConfig,"ax",%progbits
 138              		.align	2
 139              		.p2align 4,,15
 140              		.global	SYSCFG_ETH_MediaInterfaceConfig
 141              		.thumb
 142              		.thumb_func
 143              		.type	SYSCFG_ETH_MediaInterfaceConfig, %function
 144              	SYSCFG_ETH_MediaInterfaceConfig:
 145              	.LFB114:
 146              		.loc 1 147 0
 147              		.cfi_startproc
 148              		@ args = 0, pretend = 0, frame = 0
 149              		@ frame_needed = 0, uses_anonymous_args = 0
 150              		@ link register save eliminated.
 151              	.LVL9:
 152              		.loc 1 150 0
 153 0000 014B     		ldr	r3, .L9
 154 0002 1860     		str	r0, [r3]
 155 0004 7047     		bx	lr
 156              	.L10:
 157 0006 00BF     		.align	2
 158              	.L9:
 159 0008 DC002742 		.word	1109852380
 160              		.cfi_endproc
 161              	.LFE114:
 162              		.size	SYSCFG_ETH_MediaInterfaceConfig, .-SYSCFG_ETH_MediaInterfaceConfig
 163              		.section	.text.SYSCFG_CompensationCellCmd,"ax",%progbits
 164              		.align	2
 165              		.p2align 4,,15
 166              		.global	SYSCFG_CompensationCellCmd
 167              		.thumb
 168              		.thumb_func
 169              		.type	SYSCFG_CompensationCellCmd, %function
 170              	SYSCFG_CompensationCellCmd:
 171              	.LFB115:
ARM GAS  /var/folders/bz/nn5481rn5xq59rb0mbj7x0880000gn/T//cckDT4Uq.s 			page 4


 172              		.loc 1 164 0
 173              		.cfi_startproc
 174              		@ args = 0, pretend = 0, frame = 0
 175              		@ frame_needed = 0, uses_anonymous_args = 0
 176              		@ link register save eliminated.
 177              	.LVL10:
 178              		.loc 1 168 0
 179 0000 014B     		ldr	r3, .L12
 180 0002 1860     		str	r0, [r3]
 181 0004 7047     		bx	lr
 182              	.L13:
 183 0006 00BF     		.align	2
 184              	.L12:
 185 0008 00042742 		.word	1109853184
 186              		.cfi_endproc
 187              	.LFE115:
 188              		.size	SYSCFG_CompensationCellCmd, .-SYSCFG_CompensationCellCmd
 189              		.section	.text.SYSCFG_GetCompensationCellStatus,"ax",%progbits
 190              		.align	2
 191              		.p2align 4,,15
 192              		.global	SYSCFG_GetCompensationCellStatus
 193              		.thumb
 194              		.thumb_func
 195              		.type	SYSCFG_GetCompensationCellStatus, %function
 196              	SYSCFG_GetCompensationCellStatus:
 197              	.LFB116:
 198              		.loc 1 177 0
 199              		.cfi_startproc
 200              		@ args = 0, pretend = 0, frame = 0
 201              		@ frame_needed = 0, uses_anonymous_args = 0
 202              		@ link register save eliminated.
 203              	.LVL11:
 204              		.loc 1 180 0
 205 0000 024B     		ldr	r3, .L15
 206 0002 186A     		ldr	r0, [r3, #32]
 207              	.LVL12:
 208              		.loc 1 189 0
 209 0004 C0F30020 		ubfx	r0, r0, #8, #1
 210              	.LVL13:
 211 0008 7047     		bx	lr
 212              	.L16:
 213 000a 00BF     		.align	2
 214              	.L15:
 215 000c 00380140 		.word	1073821696
 216              		.cfi_endproc
 217              	.LFE116:
 218              		.size	SYSCFG_GetCompensationCellStatus, .-SYSCFG_GetCompensationCellStatus
 219              		.text
 220              	.Letext0:
 221              		.file 2 "/Users/imac/Downloads/gcc-arm-none-eabi-4_9-2015q2/arm-none-eabi/include/machine/_default
 222              		.file 3 "/Users/imac/Downloads/gcc-arm-none-eabi-4_9-2015q2/arm-none-eabi/include/sys/_stdint.h"
 223              		.file 4 "lib/ChibiOS_2.6.6/os/hal/platforms/STM32F4xx/stm32f4xx.h"
 224              		.file 5 "lib/ChibiOS_2.6.6/os/ports/common/ARMCMx/CMSIS/include/core_cm4.h"
 225              		.file 6 "lib/ChibiOS_2.6.6/ext/stdperiph_stm32f4/inc/stm32f4xx_rcc.h"
 226              		.section	.debug_info,"",%progbits
 227              	.Ldebug_info0:
 228 0000 B5020000 		.4byte	0x2b5
ARM GAS  /var/folders/bz/nn5481rn5xq59rb0mbj7x0880000gn/T//cckDT4Uq.s 			page 5


 229 0004 0400     		.2byte	0x4
 230 0006 00000000 		.4byte	.Ldebug_abbrev0
 231 000a 04       		.byte	0x4
 232 000b 01       		.uleb128 0x1
 233 000c 41010000 		.4byte	.LASF37
 234 0010 01       		.byte	0x1
 235 0011 63030000 		.4byte	.LASF38
 236 0015 E0020000 		.4byte	.LASF39
 237 0019 00000000 		.4byte	.Ldebug_ranges0+0
 238 001d 00000000 		.4byte	0
 239 0021 00000000 		.4byte	.Ldebug_line0
 240 0025 02       		.uleb128 0x2
 241 0026 01       		.byte	0x1
 242 0027 06       		.byte	0x6
 243 0028 A2030000 		.4byte	.LASF0
 244 002c 03       		.uleb128 0x3
 245 002d 00000000 		.4byte	.LASF4
 246 0031 02       		.byte	0x2
 247 0032 1D       		.byte	0x1d
 248 0033 37000000 		.4byte	0x37
 249 0037 02       		.uleb128 0x2
 250 0038 01       		.byte	0x1
 251 0039 08       		.byte	0x8
 252 003a AE000000 		.4byte	.LASF1
 253 003e 02       		.uleb128 0x2
 254 003f 02       		.byte	0x2
 255 0040 05       		.byte	0x5
 256 0041 1A030000 		.4byte	.LASF2
 257 0045 02       		.uleb128 0x2
 258 0046 02       		.byte	0x2
 259 0047 07       		.byte	0x7
 260 0048 39000000 		.4byte	.LASF3
 261 004c 03       		.uleb128 0x3
 262 004d 14000000 		.4byte	.LASF5
 263 0051 02       		.byte	0x2
 264 0052 3F       		.byte	0x3f
 265 0053 57000000 		.4byte	0x57
 266 0057 02       		.uleb128 0x2
 267 0058 04       		.byte	0x4
 268 0059 05       		.byte	0x5
 269 005a 5A030000 		.4byte	.LASF6
 270 005e 03       		.uleb128 0x3
 271 005f FF000000 		.4byte	.LASF7
 272 0063 02       		.byte	0x2
 273 0064 41       		.byte	0x41
 274 0065 69000000 		.4byte	0x69
 275 0069 02       		.uleb128 0x2
 276 006a 04       		.byte	0x4
 277 006b 07       		.byte	0x7
 278 006c C7000000 		.4byte	.LASF8
 279 0070 02       		.uleb128 0x2
 280 0071 08       		.byte	0x8
 281 0072 05       		.byte	0x5
 282 0073 D2020000 		.4byte	.LASF9
 283 0077 02       		.uleb128 0x2
 284 0078 08       		.byte	0x8
 285 0079 07       		.byte	0x7
ARM GAS  /var/folders/bz/nn5481rn5xq59rb0mbj7x0880000gn/T//cckDT4Uq.s 			page 6


 286 007a 65020000 		.4byte	.LASF10
 287 007e 04       		.uleb128 0x4
 288 007f 04       		.byte	0x4
 289 0080 05       		.byte	0x5
 290 0081 696E7400 		.ascii	"int\000"
 291 0085 02       		.uleb128 0x2
 292 0086 04       		.byte	0x4
 293 0087 07       		.byte	0x7
 294 0088 34010000 		.4byte	.LASF11
 295 008c 03       		.uleb128 0x3
 296 008d 7C020000 		.4byte	.LASF12
 297 0091 03       		.byte	0x3
 298 0092 14       		.byte	0x14
 299 0093 2C000000 		.4byte	0x2c
 300 0097 03       		.uleb128 0x3
 301 0098 C1020000 		.4byte	.LASF13
 302 009c 03       		.byte	0x3
 303 009d 1F       		.byte	0x1f
 304 009e 4C000000 		.4byte	0x4c
 305 00a2 03       		.uleb128 0x3
 306 00a3 51030000 		.4byte	.LASF14
 307 00a7 03       		.byte	0x3
 308 00a8 20       		.byte	0x20
 309 00a9 5E000000 		.4byte	0x5e
 310 00ad 02       		.uleb128 0x2
 311 00ae 04       		.byte	0x4
 312 00af 07       		.byte	0x7
 313 00b0 C9020000 		.4byte	.LASF15
 314 00b4 05       		.uleb128 0x5
 315 00b5 A2000000 		.4byte	0xa2
 316 00b9 06       		.uleb128 0x6
 317 00ba A2000000 		.4byte	0xa2
 318 00be C9000000 		.4byte	0xc9
 319 00c2 07       		.uleb128 0x7
 320 00c3 AD000000 		.4byte	0xad
 321 00c7 01       		.byte	0x1
 322 00c8 00       		.byte	0
 323 00c9 06       		.uleb128 0x6
 324 00ca A2000000 		.4byte	0xa2
 325 00ce D9000000 		.4byte	0xd9
 326 00d2 07       		.uleb128 0x7
 327 00d3 AD000000 		.4byte	0xad
 328 00d7 03       		.byte	0x3
 329 00d8 00       		.byte	0
 330 00d9 05       		.uleb128 0x5
 331 00da 97000000 		.4byte	0x97
 332 00de 08       		.uleb128 0x8
 333 00df 01       		.byte	0x1
 334 00e0 04       		.byte	0x4
 335 00e1 F701     		.2byte	0x1f7
 336 00e3 F4000000 		.4byte	0xf4
 337 00e7 09       		.uleb128 0x9
 338 00e8 AE030000 		.4byte	.LASF16
 339 00ec 00       		.sleb128 0
 340 00ed 0A       		.uleb128 0xa
 341 00ee 53455400 		.ascii	"SET\000"
 342 00f2 01       		.sleb128 1
ARM GAS  /var/folders/bz/nn5481rn5xq59rb0mbj7x0880000gn/T//cckDT4Uq.s 			page 7


 343 00f3 00       		.byte	0
 344 00f4 0B       		.uleb128 0xb
 345 00f5 BC000000 		.4byte	.LASF17
 346 00f9 04       		.byte	0x4
 347 00fa F701     		.2byte	0x1f7
 348 00fc DE000000 		.4byte	0xde
 349 0100 08       		.uleb128 0x8
 350 0101 01       		.byte	0x1
 351 0102 04       		.byte	0x4
 352 0103 F901     		.2byte	0x1f9
 353 0105 16010000 		.4byte	0x116
 354 0109 09       		.uleb128 0x9
 355 010a F7000000 		.4byte	.LASF18
 356 010e 00       		.sleb128 0
 357 010f 09       		.uleb128 0x9
 358 0110 8B000000 		.4byte	.LASF19
 359 0114 01       		.sleb128 1
 360 0115 00       		.byte	0
 361 0116 0B       		.uleb128 0xb
 362 0117 6D000000 		.4byte	.LASF20
 363 011b 04       		.byte	0x4
 364 011c F901     		.2byte	0x1f9
 365 011e 00010000 		.4byte	0x100
 366 0122 0C       		.uleb128 0xc
 367 0123 24       		.byte	0x24
 368 0124 04       		.byte	0x4
 369 0125 E903     		.2byte	0x3e9
 370 0127 6D010000 		.4byte	0x16d
 371 012b 0D       		.uleb128 0xd
 372 012c D9000000 		.4byte	.LASF21
 373 0130 04       		.byte	0x4
 374 0131 EB03     		.2byte	0x3eb
 375 0133 B4000000 		.4byte	0xb4
 376 0137 00       		.byte	0
 377 0138 0E       		.uleb128 0xe
 378 0139 504D4300 		.ascii	"PMC\000"
 379 013d 04       		.byte	0x4
 380 013e EC03     		.2byte	0x3ec
 381 0140 B4000000 		.4byte	0xb4
 382 0144 04       		.byte	0x4
 383 0145 0D       		.uleb128 0xd
 384 0146 2D010000 		.4byte	.LASF22
 385 014a 04       		.byte	0x4
 386 014b ED03     		.2byte	0x3ed
 387 014d 6D010000 		.4byte	0x16d
 388 0151 08       		.byte	0x8
 389 0152 0D       		.uleb128 0xd
 390 0153 24010000 		.4byte	.LASF23
 391 0157 04       		.byte	0x4
 392 0158 EE03     		.2byte	0x3ee
 393 015a B9000000 		.4byte	0xb9
 394 015e 18       		.byte	0x18
 395 015f 0D       		.uleb128 0xd
 396 0160 A8000000 		.4byte	.LASF24
 397 0164 04       		.byte	0x4
 398 0165 EF03     		.2byte	0x3ef
 399 0167 B4000000 		.4byte	0xb4
ARM GAS  /var/folders/bz/nn5481rn5xq59rb0mbj7x0880000gn/T//cckDT4Uq.s 			page 8


 400 016b 20       		.byte	0x20
 401 016c 00       		.byte	0
 402 016d 05       		.uleb128 0x5
 403 016e C9000000 		.4byte	0xc9
 404 0172 0B       		.uleb128 0xb
 405 0173 2D030000 		.4byte	.LASF25
 406 0177 04       		.byte	0x4
 407 0178 F003     		.2byte	0x3f0
 408 017a 22010000 		.4byte	0x122
 409 017e 0F       		.uleb128 0xf
 410 017f 7D000000 		.4byte	.LASF26
 411 0183 01       		.byte	0x1
 412 0184 5C       		.byte	0x5c
 413 0185 00000000 		.4byte	.LFB111
 414 0189 1A000000 		.4byte	.LFE111-.LFB111
 415 018d 01       		.uleb128 0x1
 416 018e 9C       		.byte	0x9c
 417 018f C4010000 		.4byte	0x1c4
 418 0193 10       		.uleb128 0x10
 419 0194 0C000000 		.4byte	.LVL0
 420 0198 A5020000 		.4byte	0x2a5
 421 019c AD010000 		.4byte	0x1ad
 422 01a0 11       		.uleb128 0x11
 423 01a1 01       		.uleb128 0x1
 424 01a2 51       		.byte	0x51
 425 01a3 01       		.uleb128 0x1
 426 01a4 31       		.byte	0x31
 427 01a5 11       		.uleb128 0x11
 428 01a6 01       		.uleb128 0x1
 429 01a7 50       		.byte	0x50
 430 01a8 03       		.uleb128 0x3
 431 01a9 0A       		.byte	0xa
 432 01aa 0040     		.2byte	0x4000
 433 01ac 00       		.byte	0
 434 01ad 12       		.uleb128 0x12
 435 01ae 1A000000 		.4byte	.LVL1
 436 01b2 A5020000 		.4byte	0x2a5
 437 01b6 11       		.uleb128 0x11
 438 01b7 01       		.uleb128 0x1
 439 01b8 51       		.byte	0x51
 440 01b9 01       		.uleb128 0x1
 441 01ba 30       		.byte	0x30
 442 01bb 11       		.uleb128 0x11
 443 01bc 01       		.uleb128 0x1
 444 01bd 50       		.byte	0x50
 445 01be 03       		.uleb128 0x3
 446 01bf 0A       		.byte	0xa
 447 01c0 0040     		.2byte	0x4000
 448 01c2 00       		.byte	0
 449 01c3 00       		.byte	0
 450 01c4 0F       		.uleb128 0xf
 451 01c5 B4030000 		.4byte	.LASF27
 452 01c9 01       		.byte	0x1
 453 01ca 6C       		.byte	0x6c
 454 01cb 00000000 		.4byte	.LFB112
 455 01cf 0C000000 		.4byte	.LFE112-.LFB112
 456 01d3 01       		.uleb128 0x1
ARM GAS  /var/folders/bz/nn5481rn5xq59rb0mbj7x0880000gn/T//cckDT4Uq.s 			page 9


 457 01d4 9C       		.byte	0x9c
 458 01d5 E7010000 		.4byte	0x1e7
 459 01d9 13       		.uleb128 0x13
 460 01da 07030000 		.4byte	.LASF29
 461 01de 01       		.byte	0x1
 462 01df 6C       		.byte	0x6c
 463 01e0 8C000000 		.4byte	0x8c
 464 01e4 01       		.uleb128 0x1
 465 01e5 50       		.byte	0x50
 466 01e6 00       		.byte	0
 467 01e7 0F       		.uleb128 0xf
 468 01e8 92000000 		.4byte	.LASF28
 469 01ec 01       		.byte	0x1
 470 01ed 7D       		.byte	0x7d
 471 01ee 00000000 		.4byte	.LFB113
 472 01f2 2E000000 		.4byte	.LFE113-.LFB113
 473 01f6 01       		.uleb128 0x1
 474 01f7 9C       		.byte	0x9c
 475 01f8 2A020000 		.4byte	0x22a
 476 01fc 14       		.uleb128 0x14
 477 01fd 3C030000 		.4byte	.LASF30
 478 0201 01       		.byte	0x1
 479 0202 7D       		.byte	0x7d
 480 0203 8C000000 		.4byte	0x8c
 481 0207 00000000 		.4byte	.LLST0
 482 020b 14       		.uleb128 0x14
 483 020c 84020000 		.4byte	.LASF31
 484 0210 01       		.byte	0x1
 485 0211 7D       		.byte	0x7d
 486 0212 8C000000 		.4byte	0x8c
 487 0216 21000000 		.4byte	.LLST1
 488 021a 15       		.uleb128 0x15
 489 021b 746D7000 		.ascii	"tmp\000"
 490 021f 01       		.byte	0x1
 491 0220 7F       		.byte	0x7f
 492 0221 A2000000 		.4byte	0xa2
 493 0225 42000000 		.4byte	.LLST2
 494 0229 00       		.byte	0
 495 022a 0F       		.uleb128 0xf
 496 022b 94020000 		.4byte	.LASF32
 497 022f 01       		.byte	0x1
 498 0230 92       		.byte	0x92
 499 0231 00000000 		.4byte	.LFB114
 500 0235 0C000000 		.4byte	.LFE114-.LFB114
 501 0239 01       		.uleb128 0x1
 502 023a 9C       		.byte	0x9c
 503 023b 4D020000 		.4byte	0x24d
 504 023f 13       		.uleb128 0x13
 505 0240 0A010000 		.4byte	.LASF33
 506 0244 01       		.byte	0x1
 507 0245 92       		.byte	0x92
 508 0246 A2000000 		.4byte	0xa2
 509 024a 01       		.uleb128 0x1
 510 024b 50       		.byte	0x50
 511 024c 00       		.byte	0
 512 024d 0F       		.uleb128 0xf
 513 024e 1E000000 		.4byte	.LASF34
ARM GAS  /var/folders/bz/nn5481rn5xq59rb0mbj7x0880000gn/T//cckDT4Uq.s 			page 10


 514 0252 01       		.byte	0x1
 515 0253 A3       		.byte	0xa3
 516 0254 00000000 		.4byte	.LFB115
 517 0258 0C000000 		.4byte	.LFE115-.LFB115
 518 025c 01       		.uleb128 0x1
 519 025d 9C       		.byte	0x9c
 520 025e 70020000 		.4byte	0x270
 521 0262 13       		.uleb128 0x13
 522 0263 24030000 		.4byte	.LASF35
 523 0267 01       		.byte	0x1
 524 0268 A3       		.byte	0xa3
 525 0269 16010000 		.4byte	0x116
 526 026d 01       		.uleb128 0x1
 527 026e 50       		.byte	0x50
 528 026f 00       		.byte	0
 529 0270 16       		.uleb128 0x16
 530 0271 4C000000 		.4byte	.LASF40
 531 0275 01       		.byte	0x1
 532 0276 B0       		.byte	0xb0
 533 0277 F4000000 		.4byte	0xf4
 534 027b 00000000 		.4byte	.LFB116
 535 027f 10000000 		.4byte	.LFE116-.LFB116
 536 0283 01       		.uleb128 0x1
 537 0284 9C       		.byte	0x9c
 538 0285 99020000 		.4byte	0x299
 539 0289 17       		.uleb128 0x17
 540 028a 0A000000 		.4byte	.LASF36
 541 028e 01       		.byte	0x1
 542 028f B2       		.byte	0xb2
 543 0290 F4000000 		.4byte	0xf4
 544 0294 7F000000 		.4byte	.LLST3
 545 0298 00       		.byte	0
 546 0299 18       		.uleb128 0x18
 547 029a B4020000 		.4byte	.LASF41
 548 029e 05       		.byte	0x5
 549 029f 9806     		.2byte	0x698
 550 02a1 D9000000 		.4byte	0xd9
 551 02a5 19       		.uleb128 0x19
 552 02a6 E0000000 		.4byte	.LASF42
 553 02aa 06       		.byte	0x6
 554 02ab E701     		.2byte	0x1e7
 555 02ad 1A       		.uleb128 0x1a
 556 02ae A2000000 		.4byte	0xa2
 557 02b2 1A       		.uleb128 0x1a
 558 02b3 16010000 		.4byte	0x116
 559 02b7 00       		.byte	0
 560 02b8 00       		.byte	0
 561              		.section	.debug_abbrev,"",%progbits
 562              	.Ldebug_abbrev0:
 563 0000 01       		.uleb128 0x1
 564 0001 11       		.uleb128 0x11
 565 0002 01       		.byte	0x1
 566 0003 25       		.uleb128 0x25
 567 0004 0E       		.uleb128 0xe
 568 0005 13       		.uleb128 0x13
 569 0006 0B       		.uleb128 0xb
 570 0007 03       		.uleb128 0x3
ARM GAS  /var/folders/bz/nn5481rn5xq59rb0mbj7x0880000gn/T//cckDT4Uq.s 			page 11


 571 0008 0E       		.uleb128 0xe
 572 0009 1B       		.uleb128 0x1b
 573 000a 0E       		.uleb128 0xe
 574 000b 55       		.uleb128 0x55
 575 000c 17       		.uleb128 0x17
 576 000d 11       		.uleb128 0x11
 577 000e 01       		.uleb128 0x1
 578 000f 10       		.uleb128 0x10
 579 0010 17       		.uleb128 0x17
 580 0011 00       		.byte	0
 581 0012 00       		.byte	0
 582 0013 02       		.uleb128 0x2
 583 0014 24       		.uleb128 0x24
 584 0015 00       		.byte	0
 585 0016 0B       		.uleb128 0xb
 586 0017 0B       		.uleb128 0xb
 587 0018 3E       		.uleb128 0x3e
 588 0019 0B       		.uleb128 0xb
 589 001a 03       		.uleb128 0x3
 590 001b 0E       		.uleb128 0xe
 591 001c 00       		.byte	0
 592 001d 00       		.byte	0
 593 001e 03       		.uleb128 0x3
 594 001f 16       		.uleb128 0x16
 595 0020 00       		.byte	0
 596 0021 03       		.uleb128 0x3
 597 0022 0E       		.uleb128 0xe
 598 0023 3A       		.uleb128 0x3a
 599 0024 0B       		.uleb128 0xb
 600 0025 3B       		.uleb128 0x3b
 601 0026 0B       		.uleb128 0xb
 602 0027 49       		.uleb128 0x49
 603 0028 13       		.uleb128 0x13
 604 0029 00       		.byte	0
 605 002a 00       		.byte	0
 606 002b 04       		.uleb128 0x4
 607 002c 24       		.uleb128 0x24
 608 002d 00       		.byte	0
 609 002e 0B       		.uleb128 0xb
 610 002f 0B       		.uleb128 0xb
 611 0030 3E       		.uleb128 0x3e
 612 0031 0B       		.uleb128 0xb
 613 0032 03       		.uleb128 0x3
 614 0033 08       		.uleb128 0x8
 615 0034 00       		.byte	0
 616 0035 00       		.byte	0
 617 0036 05       		.uleb128 0x5
 618 0037 35       		.uleb128 0x35
 619 0038 00       		.byte	0
 620 0039 49       		.uleb128 0x49
 621 003a 13       		.uleb128 0x13
 622 003b 00       		.byte	0
 623 003c 00       		.byte	0
 624 003d 06       		.uleb128 0x6
 625 003e 01       		.uleb128 0x1
 626 003f 01       		.byte	0x1
 627 0040 49       		.uleb128 0x49
ARM GAS  /var/folders/bz/nn5481rn5xq59rb0mbj7x0880000gn/T//cckDT4Uq.s 			page 12


 628 0041 13       		.uleb128 0x13
 629 0042 01       		.uleb128 0x1
 630 0043 13       		.uleb128 0x13
 631 0044 00       		.byte	0
 632 0045 00       		.byte	0
 633 0046 07       		.uleb128 0x7
 634 0047 21       		.uleb128 0x21
 635 0048 00       		.byte	0
 636 0049 49       		.uleb128 0x49
 637 004a 13       		.uleb128 0x13
 638 004b 2F       		.uleb128 0x2f
 639 004c 0B       		.uleb128 0xb
 640 004d 00       		.byte	0
 641 004e 00       		.byte	0
 642 004f 08       		.uleb128 0x8
 643 0050 04       		.uleb128 0x4
 644 0051 01       		.byte	0x1
 645 0052 0B       		.uleb128 0xb
 646 0053 0B       		.uleb128 0xb
 647 0054 3A       		.uleb128 0x3a
 648 0055 0B       		.uleb128 0xb
 649 0056 3B       		.uleb128 0x3b
 650 0057 05       		.uleb128 0x5
 651 0058 01       		.uleb128 0x1
 652 0059 13       		.uleb128 0x13
 653 005a 00       		.byte	0
 654 005b 00       		.byte	0
 655 005c 09       		.uleb128 0x9
 656 005d 28       		.uleb128 0x28
 657 005e 00       		.byte	0
 658 005f 03       		.uleb128 0x3
 659 0060 0E       		.uleb128 0xe
 660 0061 1C       		.uleb128 0x1c
 661 0062 0D       		.uleb128 0xd
 662 0063 00       		.byte	0
 663 0064 00       		.byte	0
 664 0065 0A       		.uleb128 0xa
 665 0066 28       		.uleb128 0x28
 666 0067 00       		.byte	0
 667 0068 03       		.uleb128 0x3
 668 0069 08       		.uleb128 0x8
 669 006a 1C       		.uleb128 0x1c
 670 006b 0D       		.uleb128 0xd
 671 006c 00       		.byte	0
 672 006d 00       		.byte	0
 673 006e 0B       		.uleb128 0xb
 674 006f 16       		.uleb128 0x16
 675 0070 00       		.byte	0
 676 0071 03       		.uleb128 0x3
 677 0072 0E       		.uleb128 0xe
 678 0073 3A       		.uleb128 0x3a
 679 0074 0B       		.uleb128 0xb
 680 0075 3B       		.uleb128 0x3b
 681 0076 05       		.uleb128 0x5
 682 0077 49       		.uleb128 0x49
 683 0078 13       		.uleb128 0x13
 684 0079 00       		.byte	0
ARM GAS  /var/folders/bz/nn5481rn5xq59rb0mbj7x0880000gn/T//cckDT4Uq.s 			page 13


 685 007a 00       		.byte	0
 686 007b 0C       		.uleb128 0xc
 687 007c 13       		.uleb128 0x13
 688 007d 01       		.byte	0x1
 689 007e 0B       		.uleb128 0xb
 690 007f 0B       		.uleb128 0xb
 691 0080 3A       		.uleb128 0x3a
 692 0081 0B       		.uleb128 0xb
 693 0082 3B       		.uleb128 0x3b
 694 0083 05       		.uleb128 0x5
 695 0084 01       		.uleb128 0x1
 696 0085 13       		.uleb128 0x13
 697 0086 00       		.byte	0
 698 0087 00       		.byte	0
 699 0088 0D       		.uleb128 0xd
 700 0089 0D       		.uleb128 0xd
 701 008a 00       		.byte	0
 702 008b 03       		.uleb128 0x3
 703 008c 0E       		.uleb128 0xe
 704 008d 3A       		.uleb128 0x3a
 705 008e 0B       		.uleb128 0xb
 706 008f 3B       		.uleb128 0x3b
 707 0090 05       		.uleb128 0x5
 708 0091 49       		.uleb128 0x49
 709 0092 13       		.uleb128 0x13
 710 0093 38       		.uleb128 0x38
 711 0094 0B       		.uleb128 0xb
 712 0095 00       		.byte	0
 713 0096 00       		.byte	0
 714 0097 0E       		.uleb128 0xe
 715 0098 0D       		.uleb128 0xd
 716 0099 00       		.byte	0
 717 009a 03       		.uleb128 0x3
 718 009b 08       		.uleb128 0x8
 719 009c 3A       		.uleb128 0x3a
 720 009d 0B       		.uleb128 0xb
 721 009e 3B       		.uleb128 0x3b
 722 009f 05       		.uleb128 0x5
 723 00a0 49       		.uleb128 0x49
 724 00a1 13       		.uleb128 0x13
 725 00a2 38       		.uleb128 0x38
 726 00a3 0B       		.uleb128 0xb
 727 00a4 00       		.byte	0
 728 00a5 00       		.byte	0
 729 00a6 0F       		.uleb128 0xf
 730 00a7 2E       		.uleb128 0x2e
 731 00a8 01       		.byte	0x1
 732 00a9 3F       		.uleb128 0x3f
 733 00aa 19       		.uleb128 0x19
 734 00ab 03       		.uleb128 0x3
 735 00ac 0E       		.uleb128 0xe
 736 00ad 3A       		.uleb128 0x3a
 737 00ae 0B       		.uleb128 0xb
 738 00af 3B       		.uleb128 0x3b
 739 00b0 0B       		.uleb128 0xb
 740 00b1 27       		.uleb128 0x27
 741 00b2 19       		.uleb128 0x19
ARM GAS  /var/folders/bz/nn5481rn5xq59rb0mbj7x0880000gn/T//cckDT4Uq.s 			page 14


 742 00b3 11       		.uleb128 0x11
 743 00b4 01       		.uleb128 0x1
 744 00b5 12       		.uleb128 0x12
 745 00b6 06       		.uleb128 0x6
 746 00b7 40       		.uleb128 0x40
 747 00b8 18       		.uleb128 0x18
 748 00b9 9742     		.uleb128 0x2117
 749 00bb 19       		.uleb128 0x19
 750 00bc 01       		.uleb128 0x1
 751 00bd 13       		.uleb128 0x13
 752 00be 00       		.byte	0
 753 00bf 00       		.byte	0
 754 00c0 10       		.uleb128 0x10
 755 00c1 898201   		.uleb128 0x4109
 756 00c4 01       		.byte	0x1
 757 00c5 11       		.uleb128 0x11
 758 00c6 01       		.uleb128 0x1
 759 00c7 31       		.uleb128 0x31
 760 00c8 13       		.uleb128 0x13
 761 00c9 01       		.uleb128 0x1
 762 00ca 13       		.uleb128 0x13
 763 00cb 00       		.byte	0
 764 00cc 00       		.byte	0
 765 00cd 11       		.uleb128 0x11
 766 00ce 8A8201   		.uleb128 0x410a
 767 00d1 00       		.byte	0
 768 00d2 02       		.uleb128 0x2
 769 00d3 18       		.uleb128 0x18
 770 00d4 9142     		.uleb128 0x2111
 771 00d6 18       		.uleb128 0x18
 772 00d7 00       		.byte	0
 773 00d8 00       		.byte	0
 774 00d9 12       		.uleb128 0x12
 775 00da 898201   		.uleb128 0x4109
 776 00dd 01       		.byte	0x1
 777 00de 11       		.uleb128 0x11
 778 00df 01       		.uleb128 0x1
 779 00e0 9542     		.uleb128 0x2115
 780 00e2 19       		.uleb128 0x19
 781 00e3 31       		.uleb128 0x31
 782 00e4 13       		.uleb128 0x13
 783 00e5 00       		.byte	0
 784 00e6 00       		.byte	0
 785 00e7 13       		.uleb128 0x13
 786 00e8 05       		.uleb128 0x5
 787 00e9 00       		.byte	0
 788 00ea 03       		.uleb128 0x3
 789 00eb 0E       		.uleb128 0xe
 790 00ec 3A       		.uleb128 0x3a
 791 00ed 0B       		.uleb128 0xb
 792 00ee 3B       		.uleb128 0x3b
 793 00ef 0B       		.uleb128 0xb
 794 00f0 49       		.uleb128 0x49
 795 00f1 13       		.uleb128 0x13
 796 00f2 02       		.uleb128 0x2
 797 00f3 18       		.uleb128 0x18
 798 00f4 00       		.byte	0
ARM GAS  /var/folders/bz/nn5481rn5xq59rb0mbj7x0880000gn/T//cckDT4Uq.s 			page 15


 799 00f5 00       		.byte	0
 800 00f6 14       		.uleb128 0x14
 801 00f7 05       		.uleb128 0x5
 802 00f8 00       		.byte	0
 803 00f9 03       		.uleb128 0x3
 804 00fa 0E       		.uleb128 0xe
 805 00fb 3A       		.uleb128 0x3a
 806 00fc 0B       		.uleb128 0xb
 807 00fd 3B       		.uleb128 0x3b
 808 00fe 0B       		.uleb128 0xb
 809 00ff 49       		.uleb128 0x49
 810 0100 13       		.uleb128 0x13
 811 0101 02       		.uleb128 0x2
 812 0102 17       		.uleb128 0x17
 813 0103 00       		.byte	0
 814 0104 00       		.byte	0
 815 0105 15       		.uleb128 0x15
 816 0106 34       		.uleb128 0x34
 817 0107 00       		.byte	0
 818 0108 03       		.uleb128 0x3
 819 0109 08       		.uleb128 0x8
 820 010a 3A       		.uleb128 0x3a
 821 010b 0B       		.uleb128 0xb
 822 010c 3B       		.uleb128 0x3b
 823 010d 0B       		.uleb128 0xb
 824 010e 49       		.uleb128 0x49
 825 010f 13       		.uleb128 0x13
 826 0110 02       		.uleb128 0x2
 827 0111 17       		.uleb128 0x17
 828 0112 00       		.byte	0
 829 0113 00       		.byte	0
 830 0114 16       		.uleb128 0x16
 831 0115 2E       		.uleb128 0x2e
 832 0116 01       		.byte	0x1
 833 0117 3F       		.uleb128 0x3f
 834 0118 19       		.uleb128 0x19
 835 0119 03       		.uleb128 0x3
 836 011a 0E       		.uleb128 0xe
 837 011b 3A       		.uleb128 0x3a
 838 011c 0B       		.uleb128 0xb
 839 011d 3B       		.uleb128 0x3b
 840 011e 0B       		.uleb128 0xb
 841 011f 27       		.uleb128 0x27
 842 0120 19       		.uleb128 0x19
 843 0121 49       		.uleb128 0x49
 844 0122 13       		.uleb128 0x13
 845 0123 11       		.uleb128 0x11
 846 0124 01       		.uleb128 0x1
 847 0125 12       		.uleb128 0x12
 848 0126 06       		.uleb128 0x6
 849 0127 40       		.uleb128 0x40
 850 0128 18       		.uleb128 0x18
 851 0129 9742     		.uleb128 0x2117
 852 012b 19       		.uleb128 0x19
 853 012c 01       		.uleb128 0x1
 854 012d 13       		.uleb128 0x13
 855 012e 00       		.byte	0
ARM GAS  /var/folders/bz/nn5481rn5xq59rb0mbj7x0880000gn/T//cckDT4Uq.s 			page 16


 856 012f 00       		.byte	0
 857 0130 17       		.uleb128 0x17
 858 0131 34       		.uleb128 0x34
 859 0132 00       		.byte	0
 860 0133 03       		.uleb128 0x3
 861 0134 0E       		.uleb128 0xe
 862 0135 3A       		.uleb128 0x3a
 863 0136 0B       		.uleb128 0xb
 864 0137 3B       		.uleb128 0x3b
 865 0138 0B       		.uleb128 0xb
 866 0139 49       		.uleb128 0x49
 867 013a 13       		.uleb128 0x13
 868 013b 02       		.uleb128 0x2
 869 013c 17       		.uleb128 0x17
 870 013d 00       		.byte	0
 871 013e 00       		.byte	0
 872 013f 18       		.uleb128 0x18
 873 0140 34       		.uleb128 0x34
 874 0141 00       		.byte	0
 875 0142 03       		.uleb128 0x3
 876 0143 0E       		.uleb128 0xe
 877 0144 3A       		.uleb128 0x3a
 878 0145 0B       		.uleb128 0xb
 879 0146 3B       		.uleb128 0x3b
 880 0147 05       		.uleb128 0x5
 881 0148 49       		.uleb128 0x49
 882 0149 13       		.uleb128 0x13
 883 014a 3F       		.uleb128 0x3f
 884 014b 19       		.uleb128 0x19
 885 014c 3C       		.uleb128 0x3c
 886 014d 19       		.uleb128 0x19
 887 014e 00       		.byte	0
 888 014f 00       		.byte	0
 889 0150 19       		.uleb128 0x19
 890 0151 2E       		.uleb128 0x2e
 891 0152 01       		.byte	0x1
 892 0153 3F       		.uleb128 0x3f
 893 0154 19       		.uleb128 0x19
 894 0155 03       		.uleb128 0x3
 895 0156 0E       		.uleb128 0xe
 896 0157 3A       		.uleb128 0x3a
 897 0158 0B       		.uleb128 0xb
 898 0159 3B       		.uleb128 0x3b
 899 015a 05       		.uleb128 0x5
 900 015b 27       		.uleb128 0x27
 901 015c 19       		.uleb128 0x19
 902 015d 3C       		.uleb128 0x3c
 903 015e 19       		.uleb128 0x19
 904 015f 00       		.byte	0
 905 0160 00       		.byte	0
 906 0161 1A       		.uleb128 0x1a
 907 0162 05       		.uleb128 0x5
 908 0163 00       		.byte	0
 909 0164 49       		.uleb128 0x49
 910 0165 13       		.uleb128 0x13
 911 0166 00       		.byte	0
 912 0167 00       		.byte	0
ARM GAS  /var/folders/bz/nn5481rn5xq59rb0mbj7x0880000gn/T//cckDT4Uq.s 			page 17


 913 0168 00       		.byte	0
 914              		.section	.debug_loc,"",%progbits
 915              	.Ldebug_loc0:
 916              	.LLST0:
 917 0000 00000000 		.4byte	.LVL3
 918 0004 28000000 		.4byte	.LVL8
 919 0008 0100     		.2byte	0x1
 920 000a 50       		.byte	0x50
 921 000b 28000000 		.4byte	.LVL8
 922 000f 2E000000 		.4byte	.LFE113
 923 0013 0400     		.2byte	0x4
 924 0015 F3       		.byte	0xf3
 925 0016 01       		.uleb128 0x1
 926 0017 50       		.byte	0x50
 927 0018 9F       		.byte	0x9f
 928 0019 00000000 		.4byte	0
 929 001d 00000000 		.4byte	0
 930              	.LLST1:
 931 0021 00000000 		.4byte	.LVL3
 932 0025 10000000 		.4byte	.LVL4
 933 0029 0100     		.2byte	0x1
 934 002b 51       		.byte	0x51
 935 002c 10000000 		.4byte	.LVL4
 936 0030 2E000000 		.4byte	.LFE113
 937 0034 0400     		.2byte	0x4
 938 0036 F3       		.byte	0xf3
 939 0037 01       		.uleb128 0x1
 940 0038 51       		.byte	0x51
 941 0039 9F       		.byte	0x9f
 942 003a 00000000 		.4byte	0
 943 003e 00000000 		.4byte	0
 944              	.LLST2:
 945 0042 00000000 		.4byte	.LVL3
 946 0046 14000000 		.4byte	.LVL5
 947 004a 0200     		.2byte	0x2
 948 004c 30       		.byte	0x30
 949 004d 9F       		.byte	0x9f
 950 004e 14000000 		.4byte	.LVL5
 951 0052 1A000000 		.4byte	.LVL6
 952 0056 0500     		.2byte	0x5
 953 0058 3F       		.byte	0x3f
 954 0059 71       		.byte	0x71
 955 005a 00       		.sleb128 0
 956 005b 24       		.byte	0x24
 957 005c 9F       		.byte	0x9f
 958 005d 1A000000 		.4byte	.LVL6
 959 0061 1E000000 		.4byte	.LVL7
 960 0065 0100     		.2byte	0x1
 961 0067 52       		.byte	0x52
 962 0068 1E000000 		.4byte	.LVL7
 963 006c 2E000000 		.4byte	.LFE113
 964 0070 0500     		.2byte	0x5
 965 0072 3F       		.byte	0x3f
 966 0073 71       		.byte	0x71
 967 0074 00       		.sleb128 0
 968 0075 24       		.byte	0x24
 969 0076 9F       		.byte	0x9f
ARM GAS  /var/folders/bz/nn5481rn5xq59rb0mbj7x0880000gn/T//cckDT4Uq.s 			page 18


 970 0077 00000000 		.4byte	0
 971 007b 00000000 		.4byte	0
 972              	.LLST3:
 973 007f 00000000 		.4byte	.LVL11
 974 0083 04000000 		.4byte	.LVL12
 975 0087 0200     		.2byte	0x2
 976 0089 30       		.byte	0x30
 977 008a 9F       		.byte	0x9f
 978 008b 04000000 		.4byte	.LVL12
 979 008f 08000000 		.4byte	.LVL13
 980 0093 0900     		.2byte	0x9
 981 0095 70       		.byte	0x70
 982 0096 00       		.sleb128 0
 983 0097 0A       		.byte	0xa
 984 0098 0001     		.2byte	0x100
 985 009a 1A       		.byte	0x1a
 986 009b 30       		.byte	0x30
 987 009c 2E       		.byte	0x2e
 988 009d 9F       		.byte	0x9f
 989 009e 00000000 		.4byte	0
 990 00a2 00000000 		.4byte	0
 991              		.section	.debug_aranges,"",%progbits
 992 0000 44000000 		.4byte	0x44
 993 0004 0200     		.2byte	0x2
 994 0006 00000000 		.4byte	.Ldebug_info0
 995 000a 04       		.byte	0x4
 996 000b 00       		.byte	0
 997 000c 0000     		.2byte	0
 998 000e 0000     		.2byte	0
 999 0010 00000000 		.4byte	.LFB111
 1000 0014 1A000000 		.4byte	.LFE111-.LFB111
 1001 0018 00000000 		.4byte	.LFB112
 1002 001c 0C000000 		.4byte	.LFE112-.LFB112
 1003 0020 00000000 		.4byte	.LFB113
 1004 0024 2E000000 		.4byte	.LFE113-.LFB113
 1005 0028 00000000 		.4byte	.LFB114
 1006 002c 0C000000 		.4byte	.LFE114-.LFB114
 1007 0030 00000000 		.4byte	.LFB115
 1008 0034 0C000000 		.4byte	.LFE115-.LFB115
 1009 0038 00000000 		.4byte	.LFB116
 1010 003c 10000000 		.4byte	.LFE116-.LFB116
 1011 0040 00000000 		.4byte	0
 1012 0044 00000000 		.4byte	0
 1013              		.section	.debug_ranges,"",%progbits
 1014              	.Ldebug_ranges0:
 1015 0000 00000000 		.4byte	.LFB111
 1016 0004 1A000000 		.4byte	.LFE111
 1017 0008 00000000 		.4byte	.LFB112
 1018 000c 0C000000 		.4byte	.LFE112
 1019 0010 00000000 		.4byte	.LFB113
 1020 0014 2E000000 		.4byte	.LFE113
 1021 0018 00000000 		.4byte	.LFB114
 1022 001c 0C000000 		.4byte	.LFE114
 1023 0020 00000000 		.4byte	.LFB115
 1024 0024 0C000000 		.4byte	.LFE115
 1025 0028 00000000 		.4byte	.LFB116
 1026 002c 10000000 		.4byte	.LFE116
ARM GAS  /var/folders/bz/nn5481rn5xq59rb0mbj7x0880000gn/T//cckDT4Uq.s 			page 19


 1027 0030 00000000 		.4byte	0
 1028 0034 00000000 		.4byte	0
 1029              		.section	.debug_line,"",%progbits
 1030              	.Ldebug_line0:
 1031 0000 51020000 		.section	.debug_str,"MS",%progbits,1
 1031      0200D401 
 1031      00000201 
 1031      FB0E0D00 
 1031      01010101 
 1032              	.LASF4:
 1033 0000 5F5F7569 		.ascii	"__uint8_t\000"
 1033      6E74385F 
 1033      7400
 1034              	.LASF36:
 1035 000a 62697473 		.ascii	"bitstatus\000"
 1035      74617475 
 1035      7300
 1036              	.LASF5:
 1037 0014 5F5F696E 		.ascii	"__int32_t\000"
 1037      7433325F 
 1037      7400
 1038              	.LASF34:
 1039 001e 53595343 		.ascii	"SYSCFG_CompensationCellCmd\000"
 1039      46475F43 
 1039      6F6D7065 
 1039      6E736174 
 1039      696F6E43 
 1040              	.LASF3:
 1041 0039 73686F72 		.ascii	"short unsigned int\000"
 1041      7420756E 
 1041      7369676E 
 1041      65642069 
 1041      6E7400
 1042              	.LASF40:
 1043 004c 53595343 		.ascii	"SYSCFG_GetCompensationCellStatus\000"
 1043      46475F47 
 1043      6574436F 
 1043      6D70656E 
 1043      73617469 
 1044              	.LASF20:
 1045 006d 46756E63 		.ascii	"FunctionalState\000"
 1045      74696F6E 
 1045      616C5374 
 1045      61746500 
 1046              	.LASF26:
 1047 007d 53595343 		.ascii	"SYSCFG_DeInit\000"
 1047      46475F44 
 1047      65496E69 
 1047      7400
 1048              	.LASF19:
 1049 008b 454E4142 		.ascii	"ENABLE\000"
 1049      4C4500
 1050              	.LASF28:
 1051 0092 53595343 		.ascii	"SYSCFG_EXTILineConfig\000"
 1051      46475F45 
 1051      5854494C 
 1051      696E6543 
ARM GAS  /var/folders/bz/nn5481rn5xq59rb0mbj7x0880000gn/T//cckDT4Uq.s 			page 20


 1051      6F6E6669 
 1052              	.LASF24:
 1053 00a8 434D5043 		.ascii	"CMPCR\000"
 1053      5200
 1054              	.LASF1:
 1055 00ae 756E7369 		.ascii	"unsigned char\000"
 1055      676E6564 
 1055      20636861 
 1055      7200
 1056              	.LASF17:
 1057 00bc 466C6167 		.ascii	"FlagStatus\000"
 1057      53746174 
 1057      757300
 1058              	.LASF8:
 1059 00c7 6C6F6E67 		.ascii	"long unsigned int\000"
 1059      20756E73 
 1059      69676E65 
 1059      6420696E 
 1059      7400
 1060              	.LASF21:
 1061 00d9 4D454D52 		.ascii	"MEMRMP\000"
 1061      4D5000
 1062              	.LASF42:
 1063 00e0 5243435F 		.ascii	"RCC_APB2PeriphResetCmd\000"
 1063      41504232 
 1063      50657269 
 1063      70685265 
 1063      73657443 
 1064              	.LASF18:
 1065 00f7 44495341 		.ascii	"DISABLE\000"
 1065      424C4500 
 1066              	.LASF7:
 1067 00ff 5F5F7569 		.ascii	"__uint32_t\000"
 1067      6E743332 
 1067      5F7400
 1068              	.LASF33:
 1069 010a 53595343 		.ascii	"SYSCFG_ETH_MediaInterface\000"
 1069      46475F45 
 1069      54485F4D 
 1069      65646961 
 1069      496E7465 
 1070              	.LASF23:
 1071 0124 52455345 		.ascii	"RESERVED\000"
 1071      52564544 
 1071      00
 1072              	.LASF22:
 1073 012d 45585449 		.ascii	"EXTICR\000"
 1073      435200
 1074              	.LASF11:
 1075 0134 756E7369 		.ascii	"unsigned int\000"
 1075      676E6564 
 1075      20696E74 
 1075      00
 1076              	.LASF37:
 1077 0141 474E5520 		.ascii	"GNU C 4.9.3 20150529 (release) [ARM/embedded-4_9-br"
 1077      4320342E 
 1077      392E3320 
ARM GAS  /var/folders/bz/nn5481rn5xq59rb0mbj7x0880000gn/T//cckDT4Uq.s 			page 21


 1077      32303135 
 1077      30353239 
 1078 0174 616E6368 		.ascii	"anch revision 224288] -mcpu=cortex-m4 -mfloat-abi=h"
 1078      20726576 
 1078      6973696F 
 1078      6E203232 
 1078      34323838 
 1079 01a7 61726420 		.ascii	"ard -mfpu=fpv4-sp-d16 -mno-thumb-interwork -mthumb "
 1079      2D6D6670 
 1079      753D6670 
 1079      76342D73 
 1079      702D6431 
 1080 01da 2D676764 		.ascii	"-ggdb -O2 -std=gnu99 -fomit-frame-pointer -falign-f"
 1080      62202D4F 
 1080      32202D73 
 1080      74643D67 
 1080      6E753939 
 1081 020d 756E6374 		.ascii	"unctions=16 -ffunction-sections -fdata-sections -fn"
 1081      696F6E73 
 1081      3D313620 
 1081      2D666675 
 1081      6E637469 
 1082 0240 6F2D636F 		.ascii	"o-common -fsingle-precision-constant\000"
 1082      6D6D6F6E 
 1082      202D6673 
 1082      696E676C 
 1082      652D7072 
 1083              	.LASF10:
 1084 0265 6C6F6E67 		.ascii	"long long unsigned int\000"
 1084      206C6F6E 
 1084      6720756E 
 1084      7369676E 
 1084      65642069 
 1085              	.LASF12:
 1086 027c 75696E74 		.ascii	"uint8_t\000"
 1086      385F7400 
 1087              	.LASF31:
 1088 0284 45585449 		.ascii	"EXTI_PinSourcex\000"
 1088      5F50696E 
 1088      536F7572 
 1088      63657800 
 1089              	.LASF32:
 1090 0294 53595343 		.ascii	"SYSCFG_ETH_MediaInterfaceConfig\000"
 1090      46475F45 
 1090      54485F4D 
 1090      65646961 
 1090      496E7465 
 1091              	.LASF41:
 1092 02b4 49544D5F 		.ascii	"ITM_RxBuffer\000"
 1092      52784275 
 1092      66666572 
 1092      00
 1093              	.LASF13:
 1094 02c1 696E7433 		.ascii	"int32_t\000"
 1094      325F7400 
 1095              	.LASF15:
 1096 02c9 73697A65 		.ascii	"sizetype\000"
ARM GAS  /var/folders/bz/nn5481rn5xq59rb0mbj7x0880000gn/T//cckDT4Uq.s 			page 22


 1096      74797065 
 1096      00
 1097              	.LASF9:
 1098 02d2 6C6F6E67 		.ascii	"long long int\000"
 1098      206C6F6E 
 1098      6720696E 
 1098      7400
 1099              	.LASF39:
 1100 02e0 2F557365 		.ascii	"/Users/imac/oroca_bldc_dev/oroca_bldc/\000"
 1100      72732F69 
 1100      6D61632F 
 1100      6F726F63 
 1100      615F626C 
 1101              	.LASF29:
 1102 0307 53595343 		.ascii	"SYSCFG_MemoryRemap\000"
 1102      46475F4D 
 1102      656D6F72 
 1102      7952656D 
 1102      617000
 1103              	.LASF2:
 1104 031a 73686F72 		.ascii	"short int\000"
 1104      7420696E 
 1104      7400
 1105              	.LASF35:
 1106 0324 4E657753 		.ascii	"NewState\000"
 1106      74617465 
 1106      00
 1107              	.LASF25:
 1108 032d 53595343 		.ascii	"SYSCFG_TypeDef\000"
 1108      46475F54 
 1108      79706544 
 1108      656600
 1109              	.LASF30:
 1110 033c 45585449 		.ascii	"EXTI_PortSourceGPIOx\000"
 1110      5F506F72 
 1110      74536F75 
 1110      72636547 
 1110      50494F78 
 1111              	.LASF14:
 1112 0351 75696E74 		.ascii	"uint32_t\000"
 1112      33325F74 
 1112      00
 1113              	.LASF6:
 1114 035a 6C6F6E67 		.ascii	"long int\000"
 1114      20696E74 
 1114      00
 1115              	.LASF38:
 1116 0363 6C69622F 		.ascii	"lib/ChibiOS_2.6.6/ext/stdperiph_stm32f4/src/stm32f4"
 1116      43686962 
 1116      694F535F 
 1116      322E362E 
 1116      362F6578 
 1117 0396 78785F73 		.ascii	"xx_syscfg.c\000"
 1117      79736366 
 1117      672E6300 
 1118              	.LASF0:
 1119 03a2 7369676E 		.ascii	"signed char\000"
ARM GAS  /var/folders/bz/nn5481rn5xq59rb0mbj7x0880000gn/T//cckDT4Uq.s 			page 23


 1119      65642063 
 1119      68617200 
 1120              	.LASF16:
 1121 03ae 52455345 		.ascii	"RESET\000"
 1121      5400
 1122              	.LASF27:
 1123 03b4 53595343 		.ascii	"SYSCFG_MemoryRemapConfig\000"
 1123      46475F4D 
 1123      656D6F72 
 1123      7952656D 
 1123      6170436F 
 1124              		.ident	"GCC: (GNU Tools for ARM Embedded Processors) 4.9.3 20150529 (release) [ARM/embedded-4_9-br
ARM GAS  /var/folders/bz/nn5481rn5xq59rb0mbj7x0880000gn/T//cckDT4Uq.s 			page 24


DEFINED SYMBOLS
                            *ABS*:0000000000000000 stm32f4xx_syscfg.c
/var/folders/bz/nn5481rn5xq59rb0mbj7x0880000gn/T//cckDT4Uq.s:21     .text.SYSCFG_DeInit:0000000000000000 $t
/var/folders/bz/nn5481rn5xq59rb0mbj7x0880000gn/T//cckDT4Uq.s:27     .text.SYSCFG_DeInit:0000000000000000 SYSCFG_DeInit
/var/folders/bz/nn5481rn5xq59rb0mbj7x0880000gn/T//cckDT4Uq.s:58     .text.SYSCFG_MemoryRemapConfig:0000000000000000 $t
/var/folders/bz/nn5481rn5xq59rb0mbj7x0880000gn/T//cckDT4Uq.s:64     .text.SYSCFG_MemoryRemapConfig:0000000000000000 SYSCFG_MemoryRemapConfig
/var/folders/bz/nn5481rn5xq59rb0mbj7x0880000gn/T//cckDT4Uq.s:79     .text.SYSCFG_MemoryRemapConfig:0000000000000008 $d
/var/folders/bz/nn5481rn5xq59rb0mbj7x0880000gn/T//cckDT4Uq.s:84     .text.SYSCFG_EXTILineConfig:0000000000000000 $t
/var/folders/bz/nn5481rn5xq59rb0mbj7x0880000gn/T//cckDT4Uq.s:90     .text.SYSCFG_EXTILineConfig:0000000000000000 SYSCFG_EXTILineConfig
/var/folders/bz/nn5481rn5xq59rb0mbj7x0880000gn/T//cckDT4Uq.s:138    .text.SYSCFG_ETH_MediaInterfaceConfig:0000000000000000 $t
/var/folders/bz/nn5481rn5xq59rb0mbj7x0880000gn/T//cckDT4Uq.s:144    .text.SYSCFG_ETH_MediaInterfaceConfig:0000000000000000 SYSCFG_ETH_MediaInterfaceConfig
/var/folders/bz/nn5481rn5xq59rb0mbj7x0880000gn/T//cckDT4Uq.s:159    .text.SYSCFG_ETH_MediaInterfaceConfig:0000000000000008 $d
/var/folders/bz/nn5481rn5xq59rb0mbj7x0880000gn/T//cckDT4Uq.s:164    .text.SYSCFG_CompensationCellCmd:0000000000000000 $t
/var/folders/bz/nn5481rn5xq59rb0mbj7x0880000gn/T//cckDT4Uq.s:170    .text.SYSCFG_CompensationCellCmd:0000000000000000 SYSCFG_CompensationCellCmd
/var/folders/bz/nn5481rn5xq59rb0mbj7x0880000gn/T//cckDT4Uq.s:185    .text.SYSCFG_CompensationCellCmd:0000000000000008 $d
/var/folders/bz/nn5481rn5xq59rb0mbj7x0880000gn/T//cckDT4Uq.s:190    .text.SYSCFG_GetCompensationCellStatus:0000000000000000 $t
/var/folders/bz/nn5481rn5xq59rb0mbj7x0880000gn/T//cckDT4Uq.s:196    .text.SYSCFG_GetCompensationCellStatus:0000000000000000 SYSCFG_GetCompensationCellStatus
/var/folders/bz/nn5481rn5xq59rb0mbj7x0880000gn/T//cckDT4Uq.s:215    .text.SYSCFG_GetCompensationCellStatus:000000000000000c $d
                     .debug_frame:0000000000000010 $d

UNDEFINED SYMBOLS
RCC_APB2PeriphResetCmd
