ARM GAS  /var/folders/7z/kps_xzfj7sn5l5gkyq8s9db00000gn/T//cc5x5WYY.s 			page 1


   1              		.syntax unified
   2              		.cpu cortex-m4
   3              		.eabi_attribute 27, 1
   4              		.eabi_attribute 28, 1
   5              		.fpu fpv4-sp-d16
   6              		.eabi_attribute 20, 1
   7              		.eabi_attribute 21, 1
   8              		.eabi_attribute 23, 3
   9              		.eabi_attribute 24, 1
  10              		.eabi_attribute 25, 1
  11              		.eabi_attribute 26, 1
  12              		.eabi_attribute 30, 2
  13              		.eabi_attribute 34, 1
  14              		.eabi_attribute 18, 4
  15              		.thumb
  16              		.file	"stm32f4xx_hash.c"
  17              		.text
  18              	.Ltext0:
  19              		.cfi_sections	.debug_frame
  20              		.section	.text.HASH_DeInit,"ax",%progbits
  21              		.align	2
  22              		.p2align 4,,15
  23              		.global	HASH_DeInit
  24              		.thumb
  25              		.thumb_func
  26              		.type	HASH_DeInit, %function
  27              	HASH_DeInit:
  28              	.LFB111:
  29              		.file 1 "lib/ChibiOS_2.6.6/ext/stdperiph_stm32f4/src/stm32f4xx_hash.c"
  30              		.loc 1 178 0
  31              		.cfi_startproc
  32              		@ args = 0, pretend = 0, frame = 0
  33              		@ frame_needed = 0, uses_anonymous_args = 0
  34 0000 08B5     		push	{r3, lr}
  35              		.cfi_def_cfa_offset 8
  36              		.cfi_offset 3, -8
  37              		.cfi_offset 14, -4
  38              		.loc 1 180 0
  39 0002 2020     		movs	r0, #32
  40 0004 0121     		movs	r1, #1
  41 0006 FFF7FEFF 		bl	RCC_AHB2PeriphResetCmd
  42              	.LVL0:
  43              		.loc 1 182 0
  44 000a 2020     		movs	r0, #32
  45 000c 0021     		movs	r1, #0
  46              		.loc 1 183 0
  47 000e BDE80840 		pop	{r3, lr}
  48              		.cfi_restore 14
  49              		.cfi_restore 3
  50              		.cfi_def_cfa_offset 0
  51              		.loc 1 182 0
  52 0012 FFF7FEBF 		b	RCC_AHB2PeriphResetCmd
  53              	.LVL1:
  54              		.cfi_endproc
  55              	.LFE111:
  56              		.size	HASH_DeInit, .-HASH_DeInit
  57 0016 00BFAFF3 		.section	.text.HASH_Init,"ax",%progbits
ARM GAS  /var/folders/7z/kps_xzfj7sn5l5gkyq8s9db00000gn/T//cc5x5WYY.s 			page 2


  57      0080AFF3 
  57      0080
  58              		.align	2
  59              		.p2align 4,,15
  60              		.global	HASH_Init
  61              		.thumb
  62              		.thumb_func
  63              		.type	HASH_Init, %function
  64              	HASH_Init:
  65              	.LFB112:
  66              		.loc 1 198 0
  67              		.cfi_startproc
  68              		@ args = 0, pretend = 0, frame = 0
  69              		@ frame_needed = 0, uses_anonymous_args = 0
  70              		@ link register save eliminated.
  71              	.LVL2:
  72              		.loc 1 205 0
  73 0000 104B     		ldr	r3, .L7
  74 0002 1A68     		ldr	r2, [r3]
  75 0004 22F48022 		bic	r2, r2, #262144
  76 0008 22F0F002 		bic	r2, r2, #240
  77              		.loc 1 198 0
  78 000c 30B4     		push	{r4, r5}
  79              		.cfi_def_cfa_offset 8
  80              		.cfi_offset 4, -8
  81              		.cfi_offset 5, -4
  82              		.loc 1 205 0
  83 000e 1A60     		str	r2, [r3]
  84              		.loc 1 206 0
  85 0010 1D68     		ldr	r5, [r3]
  86 0012 0168     		ldr	r1, [r0]
  87 0014 8268     		ldr	r2, [r0, #8]
  88              		.loc 1 208 0
  89 0016 4468     		ldr	r4, [r0, #4]
  90 0018 2943     		orrs	r1, r1, r5
  91 001a 0A43     		orrs	r2, r2, r1
  92              		.loc 1 206 0
  93 001c 2243     		orrs	r2, r2, r4
  94              		.loc 1 211 0
  95 001e 402C     		cmp	r4, #64
  96              		.loc 1 206 0
  97 0020 1A60     		str	r2, [r3]
  98              		.loc 1 211 0
  99 0022 07D1     		bne	.L4
 100              		.loc 1 214 0
 101 0024 1A68     		ldr	r2, [r3]
 102 0026 22F48032 		bic	r2, r2, #65536
 103 002a 1A60     		str	r2, [r3]
 104              		.loc 1 215 0
 105 002c C268     		ldr	r2, [r0, #12]
 106 002e 1968     		ldr	r1, [r3]
 107 0030 0A43     		orrs	r2, r2, r1
 108 0032 1A60     		str	r2, [r3]
 109              	.L4:
 110              		.loc 1 220 0
 111 0034 034A     		ldr	r2, .L7
 112 0036 1368     		ldr	r3, [r2]
ARM GAS  /var/folders/7z/kps_xzfj7sn5l5gkyq8s9db00000gn/T//cc5x5WYY.s 			page 3


 113 0038 43F00403 		orr	r3, r3, #4
 114 003c 1360     		str	r3, [r2]
 115              		.loc 1 221 0
 116 003e 30BC     		pop	{r4, r5}
 117              		.cfi_restore 5
 118              		.cfi_restore 4
 119              		.cfi_def_cfa_offset 0
 120 0040 7047     		bx	lr
 121              	.L8:
 122 0042 00BF     		.align	2
 123              	.L7:
 124 0044 00040650 		.word	1342571520
 125              		.cfi_endproc
 126              	.LFE112:
 127              		.size	HASH_Init, .-HASH_Init
 128 0048 AFF30080 		.section	.text.HASH_StructInit,"ax",%progbits
 128      AFF30080 
 129              		.align	2
 130              		.p2align 4,,15
 131              		.global	HASH_StructInit
 132              		.thumb
 133              		.thumb_func
 134              		.type	HASH_StructInit, %function
 135              	HASH_StructInit:
 136              	.LFB113:
 137              		.loc 1 232 0
 138              		.cfi_startproc
 139              		@ args = 0, pretend = 0, frame = 0
 140              		@ frame_needed = 0, uses_anonymous_args = 0
 141              		@ link register save eliminated.
 142              	.LVL3:
 143              		.loc 1 234 0
 144 0000 0023     		movs	r3, #0
 145 0002 0360     		str	r3, [r0]
 146              		.loc 1 237 0
 147 0004 4360     		str	r3, [r0, #4]
 148              		.loc 1 240 0
 149 0006 8360     		str	r3, [r0, #8]
 150              		.loc 1 243 0
 151 0008 C360     		str	r3, [r0, #12]
 152 000a 7047     		bx	lr
 153              		.cfi_endproc
 154              	.LFE113:
 155              		.size	HASH_StructInit, .-HASH_StructInit
 156 000c AFF30080 		.section	.text.HASH_Reset,"ax",%progbits
 157              		.align	2
 158              		.p2align 4,,15
 159              		.global	HASH_Reset
 160              		.thumb
 161              		.thumb_func
 162              		.type	HASH_Reset, %function
 163              	HASH_Reset:
 164              	.LFB114:
 165              		.loc 1 256 0
 166              		.cfi_startproc
 167              		@ args = 0, pretend = 0, frame = 0
 168              		@ frame_needed = 0, uses_anonymous_args = 0
ARM GAS  /var/folders/7z/kps_xzfj7sn5l5gkyq8s9db00000gn/T//cc5x5WYY.s 			page 4


 169              		@ link register save eliminated.
 170              		.loc 1 258 0
 171 0000 024A     		ldr	r2, .L11
 172 0002 1368     		ldr	r3, [r2]
 173 0004 43F00403 		orr	r3, r3, #4
 174 0008 1360     		str	r3, [r2]
 175 000a 7047     		bx	lr
 176              	.L12:
 177              		.align	2
 178              	.L11:
 179 000c 00040650 		.word	1342571520
 180              		.cfi_endproc
 181              	.LFE114:
 182              		.size	HASH_Reset, .-HASH_Reset
 183              		.section	.text.HASH_SetLastWordValidBitsNbr,"ax",%progbits
 184              		.align	2
 185              		.p2align 4,,15
 186              		.global	HASH_SetLastWordValidBitsNbr
 187              		.thumb
 188              		.thumb_func
 189              		.type	HASH_SetLastWordValidBitsNbr, %function
 190              	HASH_SetLastWordValidBitsNbr:
 191              	.LFB115:
 192              		.loc 1 298 0
 193              		.cfi_startproc
 194              		@ args = 0, pretend = 0, frame = 0
 195              		@ frame_needed = 0, uses_anonymous_args = 0
 196              		@ link register save eliminated.
 197              	.LVL4:
 198              		.loc 1 303 0
 199 0000 044B     		ldr	r3, .L14
 200 0002 9A68     		ldr	r2, [r3, #8]
 201 0004 22F01F02 		bic	r2, r2, #31
 202 0008 9A60     		str	r2, [r3, #8]
 203              		.loc 1 304 0
 204 000a 9A68     		ldr	r2, [r3, #8]
 205 000c 1043     		orrs	r0, r0, r2
 206              	.LVL5:
 207 000e 9860     		str	r0, [r3, #8]
 208 0010 7047     		bx	lr
 209              	.L15:
 210 0012 00BF     		.align	2
 211              	.L14:
 212 0014 00040650 		.word	1342571520
 213              		.cfi_endproc
 214              	.LFE115:
 215              		.size	HASH_SetLastWordValidBitsNbr, .-HASH_SetLastWordValidBitsNbr
 216 0018 AFF30080 		.section	.text.HASH_DataIn,"ax",%progbits
 216      AFF30080 
 217              		.align	2
 218              		.p2align 4,,15
 219              		.global	HASH_DataIn
 220              		.thumb
 221              		.thumb_func
 222              		.type	HASH_DataIn, %function
 223              	HASH_DataIn:
 224              	.LFB116:
ARM GAS  /var/folders/7z/kps_xzfj7sn5l5gkyq8s9db00000gn/T//cc5x5WYY.s 			page 5


 225              		.loc 1 313 0
 226              		.cfi_startproc
 227              		@ args = 0, pretend = 0, frame = 0
 228              		@ frame_needed = 0, uses_anonymous_args = 0
 229              		@ link register save eliminated.
 230              	.LVL6:
 231              		.loc 1 315 0
 232 0000 014B     		ldr	r3, .L17
 233 0002 5860     		str	r0, [r3, #4]
 234 0004 7047     		bx	lr
 235              	.L18:
 236 0006 00BF     		.align	2
 237              	.L17:
 238 0008 00040650 		.word	1342571520
 239              		.cfi_endproc
 240              	.LFE116:
 241              		.size	HASH_DataIn, .-HASH_DataIn
 242 000c AFF30080 		.section	.text.HASH_GetInFIFOWordsNbr,"ax",%progbits
 243              		.align	2
 244              		.p2align 4,,15
 245              		.global	HASH_GetInFIFOWordsNbr
 246              		.thumb
 247              		.thumb_func
 248              		.type	HASH_GetInFIFOWordsNbr, %function
 249              	HASH_GetInFIFOWordsNbr:
 250              	.LFB117:
 251              		.loc 1 324 0
 252              		.cfi_startproc
 253              		@ args = 0, pretend = 0, frame = 0
 254              		@ frame_needed = 0, uses_anonymous_args = 0
 255              		@ link register save eliminated.
 256              		.loc 1 326 0
 257 0000 024B     		ldr	r3, .L20
 258 0002 1868     		ldr	r0, [r3]
 259              		.loc 1 327 0
 260 0004 C0F30320 		ubfx	r0, r0, #8, #4
 261 0008 7047     		bx	lr
 262              	.L21:
 263 000a 00BF     		.align	2
 264              	.L20:
 265 000c 00040650 		.word	1342571520
 266              		.cfi_endproc
 267              	.LFE117:
 268              		.size	HASH_GetInFIFOWordsNbr, .-HASH_GetInFIFOWordsNbr
 269              		.section	.text.HASH_GetDigest,"ax",%progbits
 270              		.align	2
 271              		.p2align 4,,15
 272              		.global	HASH_GetDigest
 273              		.thumb
 274              		.thumb_func
 275              		.type	HASH_GetDigest, %function
 276              	HASH_GetDigest:
 277              	.LFB118:
 278              		.loc 1 338 0
 279              		.cfi_startproc
 280              		@ args = 0, pretend = 0, frame = 0
 281              		@ frame_needed = 0, uses_anonymous_args = 0
ARM GAS  /var/folders/7z/kps_xzfj7sn5l5gkyq8s9db00000gn/T//cc5x5WYY.s 			page 6


 282              		@ link register save eliminated.
 283              	.LVL7:
 284              		.loc 1 340 0
 285 0000 054B     		ldr	r3, .L23
 286 0002 DA68     		ldr	r2, [r3, #12]
 287 0004 0260     		str	r2, [r0]
 288              		.loc 1 341 0
 289 0006 1A69     		ldr	r2, [r3, #16]
 290 0008 4260     		str	r2, [r0, #4]
 291              		.loc 1 342 0
 292 000a 5A69     		ldr	r2, [r3, #20]
 293 000c 8260     		str	r2, [r0, #8]
 294              		.loc 1 343 0
 295 000e 9A69     		ldr	r2, [r3, #24]
 296 0010 C260     		str	r2, [r0, #12]
 297              		.loc 1 344 0
 298 0012 DB69     		ldr	r3, [r3, #28]
 299 0014 0361     		str	r3, [r0, #16]
 300 0016 7047     		bx	lr
 301              	.L24:
 302              		.align	2
 303              	.L23:
 304 0018 00040650 		.word	1342571520
 305              		.cfi_endproc
 306              	.LFE118:
 307              		.size	HASH_GetDigest, .-HASH_GetDigest
 308 001c AFF30080 		.section	.text.HASH_StartDigest,"ax",%progbits
 309              		.align	2
 310              		.p2align 4,,15
 311              		.global	HASH_StartDigest
 312              		.thumb
 313              		.thumb_func
 314              		.type	HASH_StartDigest, %function
 315              	HASH_StartDigest:
 316              	.LFB119:
 317              		.loc 1 353 0
 318              		.cfi_startproc
 319              		@ args = 0, pretend = 0, frame = 0
 320              		@ frame_needed = 0, uses_anonymous_args = 0
 321              		@ link register save eliminated.
 322              		.loc 1 355 0
 323 0000 024A     		ldr	r2, .L26
 324 0002 9368     		ldr	r3, [r2, #8]
 325 0004 43F48073 		orr	r3, r3, #256
 326 0008 9360     		str	r3, [r2, #8]
 327 000a 7047     		bx	lr
 328              	.L27:
 329              		.align	2
 330              	.L26:
 331 000c 00040650 		.word	1342571520
 332              		.cfi_endproc
 333              	.LFE119:
 334              		.size	HASH_StartDigest, .-HASH_StartDigest
 335              		.section	.text.HASH_SaveContext,"ax",%progbits
 336              		.align	2
 337              		.p2align 4,,15
 338              		.global	HASH_SaveContext
ARM GAS  /var/folders/7z/kps_xzfj7sn5l5gkyq8s9db00000gn/T//cc5x5WYY.s 			page 7


 339              		.thumb
 340              		.thumb_func
 341              		.type	HASH_SaveContext, %function
 342              	HASH_SaveContext:
 343              	.LFB120:
 344              		.loc 1 396 0
 345              		.cfi_startproc
 346              		@ args = 0, pretend = 0, frame = 0
 347              		@ frame_needed = 0, uses_anonymous_args = 0
 348              		@ link register save eliminated.
 349              	.LVL8:
 350              		.loc 1 400 0
 351 0000 0949     		ldr	r1, .L31
 352 0002 0B6A     		ldr	r3, [r1, #32]
 353 0004 0360     		str	r3, [r0]
 354              		.loc 1 401 0
 355 0006 8B68     		ldr	r3, [r1, #8]
 356 0008 4360     		str	r3, [r0, #4]
 357              		.loc 1 402 0
 358 000a 0B68     		ldr	r3, [r1]
 359 000c 40F8083F 		str	r3, [r0, #8]!
 360              	.LVL9:
 361 0010 0023     		movs	r3, #0
 362              	.LVL10:
 363              	.L29:
 364              		.loc 1 405 0 discriminator 3
 365 0012 03F13E02 		add	r2, r3, #62
 366 0016 0133     		adds	r3, r3, #1
 367              	.LVL11:
 368 0018 51F82220 		ldr	r2, [r1, r2, lsl #2]
 369 001c 40F8042F 		str	r2, [r0, #4]!
 370              		.loc 1 403 0 discriminator 3
 371 0020 332B     		cmp	r3, #51
 372 0022 F6D1     		bne	.L29
 373              		.loc 1 407 0
 374 0024 7047     		bx	lr
 375              	.L32:
 376 0026 00BF     		.align	2
 377              	.L31:
 378 0028 00040650 		.word	1342571520
 379              		.cfi_endproc
 380              	.LFE120:
 381              		.size	HASH_SaveContext, .-HASH_SaveContext
 382 002c AFF30080 		.section	.text.HASH_RestoreContext,"ax",%progbits
 383              		.align	2
 384              		.p2align 4,,15
 385              		.global	HASH_RestoreContext
 386              		.thumb
 387              		.thumb_func
 388              		.type	HASH_RestoreContext, %function
 389              	HASH_RestoreContext:
 390              	.LFB121:
 391              		.loc 1 418 0
 392              		.cfi_startproc
 393              		@ args = 0, pretend = 0, frame = 0
 394              		@ frame_needed = 0, uses_anonymous_args = 0
 395              		@ link register save eliminated.
ARM GAS  /var/folders/7z/kps_xzfj7sn5l5gkyq8s9db00000gn/T//cc5x5WYY.s 			page 8


 396              	.LVL12:
 397              		.loc 1 422 0
 398 0000 0D4B     		ldr	r3, .L37
 399 0002 0268     		ldr	r2, [r0]
 400              		.loc 1 418 0
 401 0004 10B4     		push	{r4}
 402              		.cfi_def_cfa_offset 4
 403              		.cfi_offset 4, -4
 404              		.loc 1 422 0
 405 0006 1A62     		str	r2, [r3, #32]
 406              		.loc 1 423 0
 407 0008 4268     		ldr	r2, [r0, #4]
 408 000a 9A60     		str	r2, [r3, #8]
 409              		.loc 1 424 0
 410 000c 50F8082F 		ldr	r2, [r0, #8]!
 411              	.LVL13:
 412 0010 1A60     		str	r2, [r3]
 413              		.loc 1 427 0
 414 0012 1A68     		ldr	r2, [r3]
 415 0014 42F00402 		orr	r2, r2, #4
 416              		.loc 1 432 0
 417 0018 1C46     		mov	r4, r3
 418              		.loc 1 427 0
 419 001a 1A60     		str	r2, [r3]
 420 001c 0023     		movs	r3, #0
 421              	.LVL14:
 422              	.L34:
 423              		.loc 1 432 0 discriminator 3
 424 001e 03F13E02 		add	r2, r3, #62
 425 0022 0133     		adds	r3, r3, #1
 426              	.LVL15:
 427 0024 50F8041F 		ldr	r1, [r0, #4]!
 428 0028 44F82210 		str	r1, [r4, r2, lsl #2]
 429              		.loc 1 430 0 discriminator 3
 430 002c 332B     		cmp	r3, #51
 431 002e F6D1     		bne	.L34
 432              		.loc 1 434 0
 433 0030 5DF8044B 		ldr	r4, [sp], #4
 434              		.cfi_restore 4
 435              		.cfi_def_cfa_offset 0
 436 0034 7047     		bx	lr
 437              	.L38:
 438 0036 00BF     		.align	2
 439              	.L37:
 440 0038 00040650 		.word	1342571520
 441              		.cfi_endproc
 442              	.LFE121:
 443              		.size	HASH_RestoreContext, .-HASH_RestoreContext
 444 003c AFF30080 		.section	.text.HASH_DMACmd,"ax",%progbits
 445              		.align	2
 446              		.p2align 4,,15
 447              		.global	HASH_DMACmd
 448              		.thumb
 449              		.thumb_func
 450              		.type	HASH_DMACmd, %function
 451              	HASH_DMACmd:
 452              	.LFB122:
ARM GAS  /var/folders/7z/kps_xzfj7sn5l5gkyq8s9db00000gn/T//cc5x5WYY.s 			page 9


 453              		.loc 1 467 0
 454              		.cfi_startproc
 455              		@ args = 0, pretend = 0, frame = 0
 456              		@ frame_needed = 0, uses_anonymous_args = 0
 457              		@ link register save eliminated.
 458              	.LVL16:
 459              		.loc 1 474 0
 460 0000 054A     		ldr	r2, .L43
 461 0002 1368     		ldr	r3, [r2]
 462              		.loc 1 471 0
 463 0004 18B9     		cbnz	r0, .L42
 464              		.loc 1 479 0
 465 0006 23F00803 		bic	r3, r3, #8
 466 000a 1360     		str	r3, [r2]
 467 000c 7047     		bx	lr
 468              	.L42:
 469              		.loc 1 474 0
 470 000e 43F00803 		orr	r3, r3, #8
 471 0012 1360     		str	r3, [r2]
 472 0014 7047     		bx	lr
 473              	.L44:
 474 0016 00BF     		.align	2
 475              	.L43:
 476 0018 00040650 		.word	1342571520
 477              		.cfi_endproc
 478              	.LFE122:
 479              		.size	HASH_DMACmd, .-HASH_DMACmd
 480 001c AFF30080 		.section	.text.HASH_ITConfig,"ax",%progbits
 481              		.align	2
 482              		.p2align 4,,15
 483              		.global	HASH_ITConfig
 484              		.thumb
 485              		.thumb_func
 486              		.type	HASH_ITConfig, %function
 487              	HASH_ITConfig:
 488              	.LFB123:
 489              		.loc 1 562 0
 490              		.cfi_startproc
 491              		@ args = 0, pretend = 0, frame = 0
 492              		@ frame_needed = 0, uses_anonymous_args = 0
 493              		@ link register save eliminated.
 494              	.LVL17:
 495              		.loc 1 570 0
 496 0000 054A     		ldr	r2, .L49
 497 0002 136A     		ldr	r3, [r2, #32]
 498              		.loc 1 567 0
 499 0004 29B9     		cbnz	r1, .L48
 500              		.loc 1 575 0
 501 0006 23EA0000 		bic	r0, r3, r0
 502              	.LVL18:
 503 000a 00F0FF00 		and	r0, r0, #255
 504 000e 1062     		str	r0, [r2, #32]
 505 0010 7047     		bx	lr
 506              	.LVL19:
 507              	.L48:
 508              		.loc 1 570 0
 509 0012 1843     		orrs	r0, r0, r3
ARM GAS  /var/folders/7z/kps_xzfj7sn5l5gkyq8s9db00000gn/T//cc5x5WYY.s 			page 10


 510              	.LVL20:
 511 0014 1062     		str	r0, [r2, #32]
 512 0016 7047     		bx	lr
 513              	.L50:
 514              		.align	2
 515              	.L49:
 516 0018 00040650 		.word	1342571520
 517              		.cfi_endproc
 518              	.LFE123:
 519              		.size	HASH_ITConfig, .-HASH_ITConfig
 520 001c AFF30080 		.section	.text.HASH_GetFlagStatus,"ax",%progbits
 521              		.align	2
 522              		.p2align 4,,15
 523              		.global	HASH_GetFlagStatus
 524              		.thumb
 525              		.thumb_func
 526              		.type	HASH_GetFlagStatus, %function
 527              	HASH_GetFlagStatus:
 528              	.LFB124:
 529              		.loc 1 591 0
 530              		.cfi_startproc
 531              		@ args = 0, pretend = 0, frame = 0
 532              		@ frame_needed = 0, uses_anonymous_args = 0
 533              		@ link register save eliminated.
 534              	.LVL21:
 535              		.loc 1 601 0
 536 0000 044B     		ldr	r3, .L54
 537              		.loc 1 599 0
 538 0002 C204     		lsls	r2, r0, #19
 539              		.loc 1 601 0
 540 0004 4CBF     		ite	mi
 541 0006 1B68     		ldrmi	r3, [r3]
 542              	.LVL22:
 543              		.loc 1 605 0
 544 0008 5B6A     		ldrpl	r3, [r3, #36]
 545              	.LVL23:
 546              		.loc 1 609 0
 547 000a 0342     		tst	r3, r0
 548              		.loc 1 622 0
 549 000c 14BF     		ite	ne
 550 000e 0120     		movne	r0, #1
 551              	.LVL24:
 552 0010 0020     		moveq	r0, #0
 553 0012 7047     		bx	lr
 554              	.L55:
 555              		.align	2
 556              	.L54:
 557 0014 00040650 		.word	1342571520
 558              		.cfi_endproc
 559              	.LFE124:
 560              		.size	HASH_GetFlagStatus, .-HASH_GetFlagStatus
 561 0018 AFF30080 		.section	.text.HASH_ClearFlag,"ax",%progbits
 561      AFF30080 
 562              		.align	2
 563              		.p2align 4,,15
 564              		.global	HASH_ClearFlag
 565              		.thumb
ARM GAS  /var/folders/7z/kps_xzfj7sn5l5gkyq8s9db00000gn/T//cc5x5WYY.s 			page 11


 566              		.thumb_func
 567              		.type	HASH_ClearFlag, %function
 568              	HASH_ClearFlag:
 569              	.LFB125:
 570              		.loc 1 632 0
 571              		.cfi_startproc
 572              		@ args = 0, pretend = 0, frame = 0
 573              		@ frame_needed = 0, uses_anonymous_args = 0
 574              		@ link register save eliminated.
 575              	.LVL25:
 576              		.loc 1 637 0
 577 0000 014B     		ldr	r3, .L57
 578 0002 C043     		mvns	r0, r0
 579              	.LVL26:
 580 0004 5862     		str	r0, [r3, #36]
 581 0006 7047     		bx	lr
 582              	.L58:
 583              		.align	2
 584              	.L57:
 585 0008 00040650 		.word	1342571520
 586              		.cfi_endproc
 587              	.LFE125:
 588              		.size	HASH_ClearFlag, .-HASH_ClearFlag
 589 000c AFF30080 		.section	.text.HASH_GetITStatus,"ax",%progbits
 590              		.align	2
 591              		.p2align 4,,15
 592              		.global	HASH_GetITStatus
 593              		.thumb
 594              		.thumb_func
 595              		.type	HASH_GetITStatus, %function
 596              	HASH_GetITStatus:
 597              	.LFB126:
 598              		.loc 1 648 0
 599              		.cfi_startproc
 600              		@ args = 0, pretend = 0, frame = 0
 601              		@ frame_needed = 0, uses_anonymous_args = 0
 602              		@ link register save eliminated.
 603              	.LVL27:
 604              		.loc 1 657 0
 605 0000 044A     		ldr	r2, .L60
 606 0002 536A     		ldr	r3, [r2, #36]
 607              	.LVL28:
 608              		.loc 1 659 0
 609 0004 126A     		ldr	r2, [r2, #32]
 610              	.LVL29:
 611 0006 1340     		ands	r3, r3, r2
 612              	.LVL30:
 613 0008 0342     		tst	r3, r0
 614              		.loc 1 671 0
 615 000a 14BF     		ite	ne
 616 000c 0120     		movne	r0, #1
 617              	.LVL31:
 618 000e 0020     		moveq	r0, #0
 619 0010 7047     		bx	lr
 620              	.L61:
 621 0012 00BF     		.align	2
 622              	.L60:
ARM GAS  /var/folders/7z/kps_xzfj7sn5l5gkyq8s9db00000gn/T//cc5x5WYY.s 			page 12


 623 0014 00040650 		.word	1342571520
 624              		.cfi_endproc
 625              	.LFE126:
 626              		.size	HASH_GetITStatus, .-HASH_GetITStatus
 627 0018 AFF30080 		.section	.text.HASH_ClearITPendingBit,"ax",%progbits
 627      AFF30080 
 628              		.align	2
 629              		.p2align 4,,15
 630              		.global	HASH_ClearITPendingBit
 631              		.thumb
 632              		.thumb_func
 633              		.type	HASH_ClearITPendingBit, %function
 634              	HASH_ClearITPendingBit:
 635              	.LFB127:
 636              		.loc 1 682 0
 637              		.cfi_startproc
 638              		@ args = 0, pretend = 0, frame = 0
 639              		@ frame_needed = 0, uses_anonymous_args = 0
 640              		@ link register save eliminated.
 641              	.LVL32:
 642              		.loc 1 687 0
 643 0000 C043     		mvns	r0, r0
 644              	.LVL33:
 645 0002 024B     		ldr	r3, .L63
 646 0004 C0B2     		uxtb	r0, r0
 647 0006 5862     		str	r0, [r3, #36]
 648 0008 7047     		bx	lr
 649              	.L64:
 650 000a 00BF     		.align	2
 651              	.L63:
 652 000c 00040650 		.word	1342571520
 653              		.cfi_endproc
 654              	.LFE127:
 655              		.size	HASH_ClearITPendingBit, .-HASH_ClearITPendingBit
 656              		.text
 657              	.Letext0:
 658              		.file 2 "/Users/Baram/gcc-arm-none-eabi/arm-none-eabi/include/machine/_default_types.h"
 659              		.file 3 "/Users/Baram/gcc-arm-none-eabi/arm-none-eabi/include/stdint.h"
 660              		.file 4 "lib/ChibiOS_2.6.6/os/hal/platforms/STM32F4xx/stm32f4xx.h"
 661              		.file 5 "lib/ChibiOS_2.6.6/ext/stdperiph_stm32f4/inc/stm32f4xx_hash.h"
 662              		.file 6 "lib/ChibiOS_2.6.6/os/ports/common/ARMCMx/CMSIS/include/core_cm4.h"
 663              		.file 7 "lib/ChibiOS_2.6.6/ext/stdperiph_stm32f4/inc/stm32f4xx_rcc.h"