ARM GAS  /var/folders/bz/nn5481rn5xq59rb0mbj7x0880000gn/T//ccawvLfz.s 			page 1


   1              		.syntax unified
   2              		.cpu cortex-m4
   3              		.eabi_attribute 27, 1
   4              		.eabi_attribute 28, 1
   5              		.fpu fpv4-sp-d16
   6              		.eabi_attribute 20, 1
   7              		.eabi_attribute 21, 1
   8              		.eabi_attribute 23, 3
   9              		.eabi_attribute 24, 1
  10              		.eabi_attribute 25, 1
  11              		.eabi_attribute 26, 1
  12              		.eabi_attribute 30, 2
  13              		.eabi_attribute 34, 1
  14              		.eabi_attribute 18, 4
  15              		.thumb
  16              		.file	"stm32f4xx_rng.c"
  17              		.text
  18              	.Ltext0:
  19              		.cfi_sections	.debug_frame
  20              		.section	.text.RNG_DeInit,"ax",%progbits
  21              		.align	2
  22              		.p2align 4,,15
  23              		.global	RNG_DeInit
  24              		.thumb
  25              		.thumb_func
  26              		.type	RNG_DeInit, %function
  27              	RNG_DeInit:
  28              	.LFB111:
  29              		.file 1 "lib/ChibiOS_2.6.6/ext/stdperiph_stm32f4/src/stm32f4xx_rng.c"
  30              		.loc 1 101 0
  31              		.cfi_startproc
  32              		@ args = 0, pretend = 0, frame = 0
  33              		@ frame_needed = 0, uses_anonymous_args = 0
  34 0000 08B5     		push	{r3, lr}
  35              		.cfi_def_cfa_offset 8
  36              		.cfi_offset 3, -8
  37              		.cfi_offset 14, -4
  38              		.loc 1 103 0
  39 0002 4020     		movs	r0, #64
  40 0004 0121     		movs	r1, #1
  41 0006 FFF7FEFF 		bl	RCC_AHB2PeriphResetCmd
  42              	.LVL0:
  43              		.loc 1 106 0
  44 000a 4020     		movs	r0, #64
  45 000c 0021     		movs	r1, #0
  46              		.loc 1 107 0
  47 000e BDE80840 		pop	{r3, lr}
  48              		.cfi_restore 14
  49              		.cfi_restore 3
  50              		.cfi_def_cfa_offset 0
  51              		.loc 1 106 0
  52 0012 FFF7FEBF 		b	RCC_AHB2PeriphResetCmd
  53              	.LVL1:
  54              		.cfi_endproc
  55              	.LFE111:
  56              		.size	RNG_DeInit, .-RNG_DeInit
  57 0016 00BF     		.section	.text.RNG_Cmd,"ax",%progbits
ARM GAS  /var/folders/bz/nn5481rn5xq59rb0mbj7x0880000gn/T//ccawvLfz.s 			page 2


  58              		.align	2
  59              		.p2align 4,,15
  60              		.global	RNG_Cmd
  61              		.thumb
  62              		.thumb_func
  63              		.type	RNG_Cmd, %function
  64              	RNG_Cmd:
  65              	.LFB112:
  66              		.loc 1 116 0
  67              		.cfi_startproc
  68              		@ args = 0, pretend = 0, frame = 0
  69              		@ frame_needed = 0, uses_anonymous_args = 0
  70              		@ link register save eliminated.
  71              	.LVL2:
  72              		.loc 1 123 0
  73 0000 054A     		ldr	r2, .L8
  74 0002 1368     		ldr	r3, [r2]
  75              		.loc 1 120 0
  76 0004 18B9     		cbnz	r0, .L7
  77              		.loc 1 128 0
  78 0006 23F00403 		bic	r3, r3, #4
  79 000a 1360     		str	r3, [r2]
  80 000c 7047     		bx	lr
  81              	.L7:
  82              		.loc 1 123 0
  83 000e 43F00403 		orr	r3, r3, #4
  84 0012 1360     		str	r3, [r2]
  85 0014 7047     		bx	lr
  86              	.L9:
  87 0016 00BF     		.align	2
  88              	.L8:
  89 0018 00080650 		.word	1342572544
  90              		.cfi_endproc
  91              	.LFE112:
  92              		.size	RNG_Cmd, .-RNG_Cmd
  93              		.section	.text.RNG_GetRandomNumber,"ax",%progbits
  94              		.align	2
  95              		.p2align 4,,15
  96              		.global	RNG_GetRandomNumber
  97              		.thumb
  98              		.thumb_func
  99              		.type	RNG_GetRandomNumber, %function
 100              	RNG_GetRandomNumber:
 101              	.LFB113:
 102              		.loc 1 178 0
 103              		.cfi_startproc
 104              		@ args = 0, pretend = 0, frame = 0
 105              		@ frame_needed = 0, uses_anonymous_args = 0
 106              		@ link register save eliminated.
 107              		.loc 1 180 0
 108 0000 014B     		ldr	r3, .L11
 109 0002 9868     		ldr	r0, [r3, #8]
 110              		.loc 1 181 0
 111 0004 7047     		bx	lr
 112              	.L12:
 113 0006 00BF     		.align	2
 114              	.L11:
ARM GAS  /var/folders/bz/nn5481rn5xq59rb0mbj7x0880000gn/T//ccawvLfz.s 			page 3


 115 0008 00080650 		.word	1342572544
 116              		.cfi_endproc
 117              	.LFE113:
 118              		.size	RNG_GetRandomNumber, .-RNG_GetRandomNumber
 119              		.section	.text.RNG_ITConfig,"ax",%progbits
 120              		.align	2
 121              		.p2align 4,,15
 122              		.global	RNG_ITConfig
 123              		.thumb
 124              		.thumb_func
 125              		.type	RNG_ITConfig, %function
 126              	RNG_ITConfig:
 127              	.LFB114:
 128              		.loc 1 275 0
 129              		.cfi_startproc
 130              		@ args = 0, pretend = 0, frame = 0
 131              		@ frame_needed = 0, uses_anonymous_args = 0
 132              		@ link register save eliminated.
 133              	.LVL3:
 134              		.loc 1 282 0
 135 0000 054A     		ldr	r2, .L17
 136 0002 1368     		ldr	r3, [r2]
 137              		.loc 1 279 0
 138 0004 18B9     		cbnz	r0, .L16
 139              		.loc 1 287 0
 140 0006 23F00803 		bic	r3, r3, #8
 141 000a 1360     		str	r3, [r2]
 142 000c 7047     		bx	lr
 143              	.L16:
 144              		.loc 1 282 0
 145 000e 43F00803 		orr	r3, r3, #8
 146 0012 1360     		str	r3, [r2]
 147 0014 7047     		bx	lr
 148              	.L18:
 149 0016 00BF     		.align	2
 150              	.L17:
 151 0018 00080650 		.word	1342572544
 152              		.cfi_endproc
 153              	.LFE114:
 154              		.size	RNG_ITConfig, .-RNG_ITConfig
 155              		.section	.text.RNG_GetFlagStatus,"ax",%progbits
 156              		.align	2
 157              		.p2align 4,,15
 158              		.global	RNG_GetFlagStatus
 159              		.thumb
 160              		.thumb_func
 161              		.type	RNG_GetFlagStatus, %function
 162              	RNG_GetFlagStatus:
 163              	.LFB115:
 164              		.loc 1 301 0
 165              		.cfi_startproc
 166              		@ args = 0, pretend = 0, frame = 0
 167              		@ frame_needed = 0, uses_anonymous_args = 0
 168              		@ link register save eliminated.
 169              	.LVL4:
 170              		.loc 1 307 0
 171 0000 034B     		ldr	r3, .L20
ARM GAS  /var/folders/bz/nn5481rn5xq59rb0mbj7x0880000gn/T//ccawvLfz.s 			page 4


 172 0002 5B68     		ldr	r3, [r3, #4]
 173              	.LVL5:
 174 0004 1842     		tst	r0, r3
 175              		.loc 1 319 0
 176 0006 14BF     		ite	ne
 177 0008 0120     		movne	r0, #1
 178              	.LVL6:
 179 000a 0020     		moveq	r0, #0
 180 000c 7047     		bx	lr
 181              	.L21:
 182 000e 00BF     		.align	2
 183              	.L20:
 184 0010 00080650 		.word	1342572544
 185              		.cfi_endproc
 186              	.LFE115:
 187              		.size	RNG_GetFlagStatus, .-RNG_GetFlagStatus
 188              		.section	.text.RNG_ClearFlag,"ax",%progbits
 189              		.align	2
 190              		.p2align 4,,15
 191              		.global	RNG_ClearFlag
 192              		.thumb
 193              		.thumb_func
 194              		.type	RNG_ClearFlag, %function
 195              	RNG_ClearFlag:
 196              	.LFB116:
 197              		.loc 1 334 0
 198              		.cfi_startproc
 199              		@ args = 0, pretend = 0, frame = 0
 200              		@ frame_needed = 0, uses_anonymous_args = 0
 201              		@ link register save eliminated.
 202              	.LVL7:
 203              		.loc 1 338 0
 204 0000 024B     		ldr	r3, .L23
 205 0002 6FEA0010 		mvn	r0, r0, lsl #4
 206              	.LVL8:
 207 0006 5860     		str	r0, [r3, #4]
 208 0008 7047     		bx	lr
 209              	.L24:
 210 000a 00BF     		.align	2
 211              	.L23:
 212 000c 00080650 		.word	1342572544
 213              		.cfi_endproc
 214              	.LFE116:
 215              		.size	RNG_ClearFlag, .-RNG_ClearFlag
 216              		.section	.text.RNG_GetITStatus,"ax",%progbits
 217              		.align	2
 218              		.p2align 4,,15
 219              		.global	RNG_GetITStatus
 220              		.thumb
 221              		.thumb_func
 222              		.type	RNG_GetITStatus, %function
 223              	RNG_GetITStatus:
 224              	.LFB117:
 225              		.loc 1 350 0
 226              		.cfi_startproc
 227              		@ args = 0, pretend = 0, frame = 0
 228              		@ frame_needed = 0, uses_anonymous_args = 0
ARM GAS  /var/folders/bz/nn5481rn5xq59rb0mbj7x0880000gn/T//ccawvLfz.s 			page 5


 229              		@ link register save eliminated.
 230              	.LVL9:
 231              		.loc 1 356 0
 232 0000 034B     		ldr	r3, .L26
 233 0002 5B68     		ldr	r3, [r3, #4]
 234              	.LVL10:
 235 0004 1842     		tst	r0, r3
 236              		.loc 1 368 0
 237 0006 14BF     		ite	ne
 238 0008 0120     		movne	r0, #1
 239              	.LVL11:
 240 000a 0020     		moveq	r0, #0
 241 000c 7047     		bx	lr
 242              	.L27:
 243 000e 00BF     		.align	2
 244              	.L26:
 245 0010 00080650 		.word	1342572544
 246              		.cfi_endproc
 247              	.LFE117:
 248              		.size	RNG_GetITStatus, .-RNG_GetITStatus
 249              		.section	.text.RNG_ClearITPendingBit,"ax",%progbits
 250              		.align	2
 251              		.p2align 4,,15
 252              		.global	RNG_ClearITPendingBit
 253              		.thumb
 254              		.thumb_func
 255              		.type	RNG_ClearITPendingBit, %function
 256              	RNG_ClearITPendingBit:
 257              	.LFB118:
 258              		.loc 1 380 0
 259              		.cfi_startproc
 260              		@ args = 0, pretend = 0, frame = 0
 261              		@ frame_needed = 0, uses_anonymous_args = 0
 262              		@ link register save eliminated.
 263              	.LVL12:
 264              		.loc 1 385 0
 265 0000 C043     		mvns	r0, r0
 266              	.LVL13:
 267 0002 024B     		ldr	r3, .L29
 268 0004 C0B2     		uxtb	r0, r0
 269 0006 5860     		str	r0, [r3, #4]
 270 0008 7047     		bx	lr
 271              	.L30:
 272 000a 00BF     		.align	2
 273              	.L29:
 274 000c 00080650 		.word	1342572544
 275              		.cfi_endproc
 276              	.LFE118:
 277              		.size	RNG_ClearITPendingBit, .-RNG_ClearITPendingBit
 278              		.text
 279              	.Letext0:
 280              		.file 2 "/Users/imac/Downloads/gcc-arm-none-eabi-4_9-2015q2/arm-none-eabi/include/machine/_default
 281              		.file 3 "/Users/imac/Downloads/gcc-arm-none-eabi-4_9-2015q2/arm-none-eabi/include/sys/_stdint.h"
 282              		.file 4 "lib/ChibiOS_2.6.6/os/hal/platforms/STM32F4xx/stm32f4xx.h"
 283              		.file 5 "lib/ChibiOS_2.6.6/os/ports/common/ARMCMx/CMSIS/include/core_cm4.h"
 284              		.file 6 "lib/ChibiOS_2.6.6/ext/stdperiph_stm32f4/inc/stm32f4xx_rcc.h"
 285              		.section	.debug_info,"",%progbits
ARM GAS  /var/folders/bz/nn5481rn5xq59rb0mbj7x0880000gn/T//ccawvLfz.s 			page 6


 286              	.Ldebug_info0:
 287 0000 C9020000 		.4byte	0x2c9
 288 0004 0400     		.2byte	0x4
 289 0006 00000000 		.4byte	.Ldebug_abbrev0
 290 000a 04       		.byte	0x4
 291 000b 01       		.uleb128 0x1
 292 000c 13000000 		.4byte	.LASF34
 293 0010 01       		.byte	0x1
 294 0011 0D020000 		.4byte	.LASF35
 295 0015 B4020000 		.4byte	.LASF36
 296 0019 00000000 		.4byte	.Ldebug_ranges0+0
 297 001d 00000000 		.4byte	0
 298 0021 00000000 		.4byte	.Ldebug_line0
 299 0025 02       		.uleb128 0x2
 300 0026 01       		.byte	0x1
 301 0027 06       		.byte	0x6
 302 0028 1E030000 		.4byte	.LASF0
 303 002c 03       		.uleb128 0x3
 304 002d 00000000 		.4byte	.LASF4
 305 0031 02       		.byte	0x2
 306 0032 1D       		.byte	0x1d
 307 0033 37000000 		.4byte	0x37
 308 0037 02       		.uleb128 0x2
 309 0038 01       		.byte	0x1
 310 0039 08       		.byte	0x8
 311 003a A8010000 		.4byte	.LASF1
 312 003e 02       		.uleb128 0x2
 313 003f 02       		.byte	0x2
 314 0040 05       		.byte	0x5
 315 0041 DB020000 		.4byte	.LASF2
 316 0045 02       		.uleb128 0x2
 317 0046 02       		.byte	0x2
 318 0047 07       		.byte	0x7
 319 0048 58010000 		.4byte	.LASF3
 320 004c 03       		.uleb128 0x3
 321 004d 4E010000 		.4byte	.LASF5
 322 0051 02       		.byte	0x2
 323 0052 3F       		.byte	0x3f
 324 0053 57000000 		.4byte	0x57
 325 0057 02       		.uleb128 0x2
 326 0058 04       		.byte	0x4
 327 0059 05       		.byte	0x5
 328 005a 15030000 		.4byte	.LASF6
 329 005e 03       		.uleb128 0x3
 330 005f 49020000 		.4byte	.LASF7
 331 0063 02       		.byte	0x2
 332 0064 41       		.byte	0x41
 333 0065 69000000 		.4byte	0x69
 334 0069 02       		.uleb128 0x2
 335 006a 04       		.byte	0x4
 336 006b 07       		.byte	0x7
 337 006c D5010000 		.4byte	.LASF8
 338 0070 02       		.uleb128 0x2
 339 0071 08       		.byte	0x8
 340 0072 05       		.byte	0x5
 341 0073 A6020000 		.4byte	.LASF9
 342 0077 02       		.uleb128 0x2
ARM GAS  /var/folders/bz/nn5481rn5xq59rb0mbj7x0880000gn/T//ccawvLfz.s 			page 7


 343 0078 08       		.byte	0x8
 344 0079 07       		.byte	0x7
 345 007a 76020000 		.4byte	.LASF10
 346 007e 04       		.uleb128 0x4
 347 007f 04       		.byte	0x4
 348 0080 05       		.byte	0x5
 349 0081 696E7400 		.ascii	"int\000"
 350 0085 02       		.uleb128 0x2
 351 0086 04       		.byte	0x4
 352 0087 07       		.byte	0x7
 353 0088 60020000 		.4byte	.LASF11
 354 008c 03       		.uleb128 0x3
 355 008d 8D020000 		.4byte	.LASF12
 356 0091 03       		.byte	0x3
 357 0092 14       		.byte	0x14
 358 0093 2C000000 		.4byte	0x2c
 359 0097 03       		.uleb128 0x3
 360 0098 95020000 		.4byte	.LASF13
 361 009c 03       		.byte	0x3
 362 009d 1F       		.byte	0x1f
 363 009e 4C000000 		.4byte	0x4c
 364 00a2 03       		.uleb128 0x3
 365 00a3 0C030000 		.4byte	.LASF14
 366 00a7 03       		.byte	0x3
 367 00a8 20       		.byte	0x20
 368 00a9 5E000000 		.4byte	0x5e
 369 00ad 02       		.uleb128 0x2
 370 00ae 04       		.byte	0x4
 371 00af 07       		.byte	0x7
 372 00b0 9D020000 		.4byte	.LASF15
 373 00b4 05       		.uleb128 0x5
 374 00b5 A2000000 		.4byte	0xa2
 375 00b9 05       		.uleb128 0x5
 376 00ba 97000000 		.4byte	0x97
 377 00be 06       		.uleb128 0x6
 378 00bf 01       		.byte	0x1
 379 00c0 04       		.byte	0x4
 380 00c1 F701     		.2byte	0x1f7
 381 00c3 D4000000 		.4byte	0xd4
 382 00c7 07       		.uleb128 0x7
 383 00c8 F2010000 		.4byte	.LASF16
 384 00cc 00       		.sleb128 0
 385 00cd 08       		.uleb128 0x8
 386 00ce 53455400 		.ascii	"SET\000"
 387 00d2 01       		.sleb128 1
 388 00d3 00       		.byte	0
 389 00d4 09       		.uleb128 0x9
 390 00d5 B6010000 		.4byte	.LASF17
 391 00d9 04       		.byte	0x4
 392 00da F701     		.2byte	0x1f7
 393 00dc BE000000 		.4byte	0xbe
 394 00e0 09       		.uleb128 0x9
 395 00e1 0A000000 		.4byte	.LASF18
 396 00e5 04       		.byte	0x4
 397 00e6 F701     		.2byte	0x1f7
 398 00e8 BE000000 		.4byte	0xbe
 399 00ec 06       		.uleb128 0x6
ARM GAS  /var/folders/bz/nn5481rn5xq59rb0mbj7x0880000gn/T//ccawvLfz.s 			page 8


 400 00ed 01       		.byte	0x1
 401 00ee 04       		.byte	0x4
 402 00ef F901     		.2byte	0x1f9
 403 00f1 02010000 		.4byte	0x102
 404 00f5 07       		.uleb128 0x7
 405 00f6 F8010000 		.4byte	.LASF19
 406 00fa 00       		.sleb128 0
 407 00fb 07       		.uleb128 0x7
 408 00fc A1010000 		.4byte	.LASF20
 409 0100 01       		.sleb128 1
 410 0101 00       		.byte	0
 411 0102 09       		.uleb128 0x9
 412 0103 6B010000 		.4byte	.LASF21
 413 0107 04       		.byte	0x4
 414 0108 F901     		.2byte	0x1f9
 415 010a EC000000 		.4byte	0xec
 416 010e 0A       		.uleb128 0xa
 417 010f 0C       		.byte	0xc
 418 0110 04       		.byte	0x4
 419 0111 8F05     		.2byte	0x58f
 420 0113 3C010000 		.4byte	0x13c
 421 0117 0B       		.uleb128 0xb
 422 0118 435200   		.ascii	"CR\000"
 423 011b 04       		.byte	0x4
 424 011c 9105     		.2byte	0x591
 425 011e B4000000 		.4byte	0xb4
 426 0122 00       		.byte	0
 427 0123 0B       		.uleb128 0xb
 428 0124 535200   		.ascii	"SR\000"
 429 0127 04       		.byte	0x4
 430 0128 9205     		.2byte	0x592
 431 012a B4000000 		.4byte	0xb4
 432 012e 04       		.byte	0x4
 433 012f 0B       		.uleb128 0xb
 434 0130 445200   		.ascii	"DR\000"
 435 0133 04       		.byte	0x4
 436 0134 9305     		.2byte	0x593
 437 0136 B4000000 		.4byte	0xb4
 438 013a 08       		.byte	0x8
 439 013b 00       		.byte	0
 440 013c 09       		.uleb128 0x9
 441 013d 54020000 		.4byte	.LASF22
 442 0141 04       		.byte	0x4
 443 0142 9405     		.2byte	0x594
 444 0144 0E010000 		.4byte	0x10e
 445 0148 0C       		.uleb128 0xc
 446 0149 E7010000 		.4byte	.LASF23
 447 014d 01       		.byte	0x1
 448 014e 64       		.byte	0x64
 449 014f 00000000 		.4byte	.LFB111
 450 0153 16000000 		.4byte	.LFE111-.LFB111
 451 0157 01       		.uleb128 0x1
 452 0158 9C       		.byte	0x9c
 453 0159 8C010000 		.4byte	0x18c
 454 015d 0D       		.uleb128 0xd
 455 015e 0A000000 		.4byte	.LVL0
 456 0162 B9020000 		.4byte	0x2b9
ARM GAS  /var/folders/bz/nn5481rn5xq59rb0mbj7x0880000gn/T//ccawvLfz.s 			page 9


 457 0166 76010000 		.4byte	0x176
 458 016a 0E       		.uleb128 0xe
 459 016b 01       		.uleb128 0x1
 460 016c 51       		.byte	0x51
 461 016d 01       		.uleb128 0x1
 462 016e 31       		.byte	0x31
 463 016f 0E       		.uleb128 0xe
 464 0170 01       		.uleb128 0x1
 465 0171 50       		.byte	0x50
 466 0172 02       		.uleb128 0x2
 467 0173 08       		.byte	0x8
 468 0174 40       		.byte	0x40
 469 0175 00       		.byte	0
 470 0176 0F       		.uleb128 0xf
 471 0177 16000000 		.4byte	.LVL1
 472 017b B9020000 		.4byte	0x2b9
 473 017f 0E       		.uleb128 0xe
 474 0180 01       		.uleb128 0x1
 475 0181 51       		.byte	0x51
 476 0182 01       		.uleb128 0x1
 477 0183 30       		.byte	0x30
 478 0184 0E       		.uleb128 0xe
 479 0185 01       		.uleb128 0x1
 480 0186 50       		.byte	0x50
 481 0187 02       		.uleb128 0x2
 482 0188 08       		.byte	0x8
 483 0189 40       		.byte	0x40
 484 018a 00       		.byte	0
 485 018b 00       		.byte	0
 486 018c 0C       		.uleb128 0xc
 487 018d 88010000 		.4byte	.LASF24
 488 0191 01       		.byte	0x1
 489 0192 73       		.byte	0x73
 490 0193 00000000 		.4byte	.LFB112
 491 0197 1C000000 		.4byte	.LFE112-.LFB112
 492 019b 01       		.uleb128 0x1
 493 019c 9C       		.byte	0x9c
 494 019d AF010000 		.4byte	0x1af
 495 01a1 10       		.uleb128 0x10
 496 01a2 F3020000 		.4byte	.LASF26
 497 01a6 01       		.byte	0x1
 498 01a7 73       		.byte	0x73
 499 01a8 02010000 		.4byte	0x102
 500 01ac 01       		.uleb128 0x1
 501 01ad 50       		.byte	0x50
 502 01ae 00       		.byte	0
 503 01af 11       		.uleb128 0x11
 504 01b0 C1010000 		.4byte	.LASF37
 505 01b4 01       		.byte	0x1
 506 01b5 B1       		.byte	0xb1
 507 01b6 A2000000 		.4byte	0xa2
 508 01ba 00000000 		.4byte	.LFB113
 509 01be 0C000000 		.4byte	.LFE113-.LFB113
 510 01c2 01       		.uleb128 0x1
 511 01c3 9C       		.byte	0x9c
 512 01c4 12       		.uleb128 0x12
 513 01c5 7B010000 		.4byte	.LASF25
ARM GAS  /var/folders/bz/nn5481rn5xq59rb0mbj7x0880000gn/T//ccawvLfz.s 			page 10


 514 01c9 01       		.byte	0x1
 515 01ca 1201     		.2byte	0x112
 516 01cc 00000000 		.4byte	.LFB114
 517 01d0 1C000000 		.4byte	.LFE114-.LFB114
 518 01d4 01       		.uleb128 0x1
 519 01d5 9C       		.byte	0x9c
 520 01d6 E9010000 		.4byte	0x1e9
 521 01da 13       		.uleb128 0x13
 522 01db F3020000 		.4byte	.LASF26
 523 01df 01       		.byte	0x1
 524 01e0 1201     		.2byte	0x112
 525 01e2 02010000 		.4byte	0x102
 526 01e6 01       		.uleb128 0x1
 527 01e7 50       		.byte	0x50
 528 01e8 00       		.byte	0
 529 01e9 14       		.uleb128 0x14
 530 01ea 40030000 		.4byte	.LASF29
 531 01ee 01       		.byte	0x1
 532 01ef 2C01     		.2byte	0x12c
 533 01f1 D4000000 		.4byte	0xd4
 534 01f5 00000000 		.4byte	.LFB115
 535 01f9 14000000 		.4byte	.LFE115-.LFB115
 536 01fd 01       		.uleb128 0x1
 537 01fe 9C       		.byte	0x9c
 538 01ff 24020000 		.4byte	0x224
 539 0203 15       		.uleb128 0x15
 540 0204 6D020000 		.4byte	.LASF27
 541 0208 01       		.byte	0x1
 542 0209 2C01     		.2byte	0x12c
 543 020b 8C000000 		.4byte	0x8c
 544 020f 00000000 		.4byte	.LLST0
 545 0213 16       		.uleb128 0x16
 546 0214 90010000 		.4byte	.LASF32
 547 0218 01       		.byte	0x1
 548 0219 2E01     		.2byte	0x12e
 549 021b D4000000 		.4byte	0xd4
 550 021f 21000000 		.4byte	.LLST1
 551 0223 00       		.byte	0
 552 0224 12       		.uleb128 0x12
 553 0225 E5020000 		.4byte	.LASF28
 554 0229 01       		.byte	0x1
 555 022a 4D01     		.2byte	0x14d
 556 022c 00000000 		.4byte	.LFB116
 557 0230 10000000 		.4byte	.LFE116-.LFB116
 558 0234 01       		.uleb128 0x1
 559 0235 9C       		.byte	0x9c
 560 0236 4B020000 		.4byte	0x24b
 561 023a 15       		.uleb128 0x15
 562 023b 6D020000 		.4byte	.LASF27
 563 023f 01       		.byte	0x1
 564 0240 4D01     		.2byte	0x14d
 565 0242 8C000000 		.4byte	0x8c
 566 0246 60000000 		.4byte	.LLST2
 567 024a 00       		.byte	0
 568 024b 14       		.uleb128 0x14
 569 024c FC020000 		.4byte	.LASF30
 570 0250 01       		.byte	0x1
ARM GAS  /var/folders/bz/nn5481rn5xq59rb0mbj7x0880000gn/T//ccawvLfz.s 			page 11


 571 0251 5D01     		.2byte	0x15d
 572 0253 E0000000 		.4byte	0xe0
 573 0257 00000000 		.4byte	.LFB117
 574 025b 14000000 		.4byte	.LFE117-.LFB117
 575 025f 01       		.uleb128 0x1
 576 0260 9C       		.byte	0x9c
 577 0261 86020000 		.4byte	0x286
 578 0265 15       		.uleb128 0x15
 579 0266 9A010000 		.4byte	.LASF31
 580 026a 01       		.byte	0x1
 581 026b 5D01     		.2byte	0x15d
 582 026d 8C000000 		.4byte	0x8c
 583 0271 81000000 		.4byte	.LLST3
 584 0275 16       		.uleb128 0x16
 585 0276 90010000 		.4byte	.LASF32
 586 027a 01       		.byte	0x1
 587 027b 5F01     		.2byte	0x15f
 588 027d E0000000 		.4byte	0xe0
 589 0281 A2000000 		.4byte	.LLST4
 590 0285 00       		.byte	0
 591 0286 12       		.uleb128 0x12
 592 0287 2A030000 		.4byte	.LASF33
 593 028b 01       		.byte	0x1
 594 028c 7B01     		.2byte	0x17b
 595 028e 00000000 		.4byte	.LFB118
 596 0292 10000000 		.4byte	.LFE118-.LFB118
 597 0296 01       		.uleb128 0x1
 598 0297 9C       		.byte	0x9c
 599 0298 AD020000 		.4byte	0x2ad
 600 029c 15       		.uleb128 0x15
 601 029d 9A010000 		.4byte	.LASF31
 602 02a1 01       		.byte	0x1
 603 02a2 7B01     		.2byte	0x17b
 604 02a4 8C000000 		.4byte	0x8c
 605 02a8 E1000000 		.4byte	.LLST5
 606 02ac 00       		.byte	0
 607 02ad 17       		.uleb128 0x17
 608 02ae 00020000 		.4byte	.LASF38
 609 02b2 05       		.byte	0x5
 610 02b3 9806     		.2byte	0x698
 611 02b5 B9000000 		.4byte	0xb9
 612 02b9 18       		.uleb128 0x18
 613 02ba 37010000 		.4byte	.LASF39
 614 02be 06       		.byte	0x6
 615 02bf E401     		.2byte	0x1e4
 616 02c1 19       		.uleb128 0x19
 617 02c2 A2000000 		.4byte	0xa2
 618 02c6 19       		.uleb128 0x19
 619 02c7 02010000 		.4byte	0x102
 620 02cb 00       		.byte	0
 621 02cc 00       		.byte	0
 622              		.section	.debug_abbrev,"",%progbits
 623              	.Ldebug_abbrev0:
 624 0000 01       		.uleb128 0x1
 625 0001 11       		.uleb128 0x11
 626 0002 01       		.byte	0x1
 627 0003 25       		.uleb128 0x25
ARM GAS  /var/folders/bz/nn5481rn5xq59rb0mbj7x0880000gn/T//ccawvLfz.s 			page 12


 628 0004 0E       		.uleb128 0xe
 629 0005 13       		.uleb128 0x13
 630 0006 0B       		.uleb128 0xb
 631 0007 03       		.uleb128 0x3
 632 0008 0E       		.uleb128 0xe
 633 0009 1B       		.uleb128 0x1b
 634 000a 0E       		.uleb128 0xe
 635 000b 55       		.uleb128 0x55
 636 000c 17       		.uleb128 0x17
 637 000d 11       		.uleb128 0x11
 638 000e 01       		.uleb128 0x1
 639 000f 10       		.uleb128 0x10
 640 0010 17       		.uleb128 0x17
 641 0011 00       		.byte	0
 642 0012 00       		.byte	0
 643 0013 02       		.uleb128 0x2
 644 0014 24       		.uleb128 0x24
 645 0015 00       		.byte	0
 646 0016 0B       		.uleb128 0xb
 647 0017 0B       		.uleb128 0xb
 648 0018 3E       		.uleb128 0x3e
 649 0019 0B       		.uleb128 0xb
 650 001a 03       		.uleb128 0x3
 651 001b 0E       		.uleb128 0xe
 652 001c 00       		.byte	0
 653 001d 00       		.byte	0
 654 001e 03       		.uleb128 0x3
 655 001f 16       		.uleb128 0x16
 656 0020 00       		.byte	0
 657 0021 03       		.uleb128 0x3
 658 0022 0E       		.uleb128 0xe
 659 0023 3A       		.uleb128 0x3a
 660 0024 0B       		.uleb128 0xb
 661 0025 3B       		.uleb128 0x3b
 662 0026 0B       		.uleb128 0xb
 663 0027 49       		.uleb128 0x49
 664 0028 13       		.uleb128 0x13
 665 0029 00       		.byte	0
 666 002a 00       		.byte	0
 667 002b 04       		.uleb128 0x4
 668 002c 24       		.uleb128 0x24
 669 002d 00       		.byte	0
 670 002e 0B       		.uleb128 0xb
 671 002f 0B       		.uleb128 0xb
 672 0030 3E       		.uleb128 0x3e
 673 0031 0B       		.uleb128 0xb
 674 0032 03       		.uleb128 0x3
 675 0033 08       		.uleb128 0x8
 676 0034 00       		.byte	0
 677 0035 00       		.byte	0
 678 0036 05       		.uleb128 0x5
 679 0037 35       		.uleb128 0x35
 680 0038 00       		.byte	0
 681 0039 49       		.uleb128 0x49
 682 003a 13       		.uleb128 0x13
 683 003b 00       		.byte	0
 684 003c 00       		.byte	0
ARM GAS  /var/folders/bz/nn5481rn5xq59rb0mbj7x0880000gn/T//ccawvLfz.s 			page 13


 685 003d 06       		.uleb128 0x6
 686 003e 04       		.uleb128 0x4
 687 003f 01       		.byte	0x1
 688 0040 0B       		.uleb128 0xb
 689 0041 0B       		.uleb128 0xb
 690 0042 3A       		.uleb128 0x3a
 691 0043 0B       		.uleb128 0xb
 692 0044 3B       		.uleb128 0x3b
 693 0045 05       		.uleb128 0x5
 694 0046 01       		.uleb128 0x1
 695 0047 13       		.uleb128 0x13
 696 0048 00       		.byte	0
 697 0049 00       		.byte	0
 698 004a 07       		.uleb128 0x7
 699 004b 28       		.uleb128 0x28
 700 004c 00       		.byte	0
 701 004d 03       		.uleb128 0x3
 702 004e 0E       		.uleb128 0xe
 703 004f 1C       		.uleb128 0x1c
 704 0050 0D       		.uleb128 0xd
 705 0051 00       		.byte	0
 706 0052 00       		.byte	0
 707 0053 08       		.uleb128 0x8
 708 0054 28       		.uleb128 0x28
 709 0055 00       		.byte	0
 710 0056 03       		.uleb128 0x3
 711 0057 08       		.uleb128 0x8
 712 0058 1C       		.uleb128 0x1c
 713 0059 0D       		.uleb128 0xd
 714 005a 00       		.byte	0
 715 005b 00       		.byte	0
 716 005c 09       		.uleb128 0x9
 717 005d 16       		.uleb128 0x16
 718 005e 00       		.byte	0
 719 005f 03       		.uleb128 0x3
 720 0060 0E       		.uleb128 0xe
 721 0061 3A       		.uleb128 0x3a
 722 0062 0B       		.uleb128 0xb
 723 0063 3B       		.uleb128 0x3b
 724 0064 05       		.uleb128 0x5
 725 0065 49       		.uleb128 0x49
 726 0066 13       		.uleb128 0x13
 727 0067 00       		.byte	0
 728 0068 00       		.byte	0
 729 0069 0A       		.uleb128 0xa
 730 006a 13       		.uleb128 0x13
 731 006b 01       		.byte	0x1
 732 006c 0B       		.uleb128 0xb
 733 006d 0B       		.uleb128 0xb
 734 006e 3A       		.uleb128 0x3a
 735 006f 0B       		.uleb128 0xb
 736 0070 3B       		.uleb128 0x3b
 737 0071 05       		.uleb128 0x5
 738 0072 01       		.uleb128 0x1
 739 0073 13       		.uleb128 0x13
 740 0074 00       		.byte	0
 741 0075 00       		.byte	0
ARM GAS  /var/folders/bz/nn5481rn5xq59rb0mbj7x0880000gn/T//ccawvLfz.s 			page 14


 742 0076 0B       		.uleb128 0xb
 743 0077 0D       		.uleb128 0xd
 744 0078 00       		.byte	0
 745 0079 03       		.uleb128 0x3
 746 007a 08       		.uleb128 0x8
 747 007b 3A       		.uleb128 0x3a
 748 007c 0B       		.uleb128 0xb
 749 007d 3B       		.uleb128 0x3b
 750 007e 05       		.uleb128 0x5
 751 007f 49       		.uleb128 0x49
 752 0080 13       		.uleb128 0x13
 753 0081 38       		.uleb128 0x38
 754 0082 0B       		.uleb128 0xb
 755 0083 00       		.byte	0
 756 0084 00       		.byte	0
 757 0085 0C       		.uleb128 0xc
 758 0086 2E       		.uleb128 0x2e
 759 0087 01       		.byte	0x1
 760 0088 3F       		.uleb128 0x3f
 761 0089 19       		.uleb128 0x19
 762 008a 03       		.uleb128 0x3
 763 008b 0E       		.uleb128 0xe
 764 008c 3A       		.uleb128 0x3a
 765 008d 0B       		.uleb128 0xb
 766 008e 3B       		.uleb128 0x3b
 767 008f 0B       		.uleb128 0xb
 768 0090 27       		.uleb128 0x27
 769 0091 19       		.uleb128 0x19
 770 0092 11       		.uleb128 0x11
 771 0093 01       		.uleb128 0x1
 772 0094 12       		.uleb128 0x12
 773 0095 06       		.uleb128 0x6
 774 0096 40       		.uleb128 0x40
 775 0097 18       		.uleb128 0x18
 776 0098 9742     		.uleb128 0x2117
 777 009a 19       		.uleb128 0x19
 778 009b 01       		.uleb128 0x1
 779 009c 13       		.uleb128 0x13
 780 009d 00       		.byte	0
 781 009e 00       		.byte	0
 782 009f 0D       		.uleb128 0xd
 783 00a0 898201   		.uleb128 0x4109
 784 00a3 01       		.byte	0x1
 785 00a4 11       		.uleb128 0x11
 786 00a5 01       		.uleb128 0x1
 787 00a6 31       		.uleb128 0x31
 788 00a7 13       		.uleb128 0x13
 789 00a8 01       		.uleb128 0x1
 790 00a9 13       		.uleb128 0x13
 791 00aa 00       		.byte	0
 792 00ab 00       		.byte	0
 793 00ac 0E       		.uleb128 0xe
 794 00ad 8A8201   		.uleb128 0x410a
 795 00b0 00       		.byte	0
 796 00b1 02       		.uleb128 0x2
 797 00b2 18       		.uleb128 0x18
 798 00b3 9142     		.uleb128 0x2111
ARM GAS  /var/folders/bz/nn5481rn5xq59rb0mbj7x0880000gn/T//ccawvLfz.s 			page 15


 799 00b5 18       		.uleb128 0x18
 800 00b6 00       		.byte	0
 801 00b7 00       		.byte	0
 802 00b8 0F       		.uleb128 0xf
 803 00b9 898201   		.uleb128 0x4109
 804 00bc 01       		.byte	0x1
 805 00bd 11       		.uleb128 0x11
 806 00be 01       		.uleb128 0x1
 807 00bf 9542     		.uleb128 0x2115
 808 00c1 19       		.uleb128 0x19
 809 00c2 31       		.uleb128 0x31
 810 00c3 13       		.uleb128 0x13
 811 00c4 00       		.byte	0
 812 00c5 00       		.byte	0
 813 00c6 10       		.uleb128 0x10
 814 00c7 05       		.uleb128 0x5
 815 00c8 00       		.byte	0
 816 00c9 03       		.uleb128 0x3
 817 00ca 0E       		.uleb128 0xe
 818 00cb 3A       		.uleb128 0x3a
 819 00cc 0B       		.uleb128 0xb
 820 00cd 3B       		.uleb128 0x3b
 821 00ce 0B       		.uleb128 0xb
 822 00cf 49       		.uleb128 0x49
 823 00d0 13       		.uleb128 0x13
 824 00d1 02       		.uleb128 0x2
 825 00d2 18       		.uleb128 0x18
 826 00d3 00       		.byte	0
 827 00d4 00       		.byte	0
 828 00d5 11       		.uleb128 0x11
 829 00d6 2E       		.uleb128 0x2e
 830 00d7 00       		.byte	0
 831 00d8 3F       		.uleb128 0x3f
 832 00d9 19       		.uleb128 0x19
 833 00da 03       		.uleb128 0x3
 834 00db 0E       		.uleb128 0xe
 835 00dc 3A       		.uleb128 0x3a
 836 00dd 0B       		.uleb128 0xb
 837 00de 3B       		.uleb128 0x3b
 838 00df 0B       		.uleb128 0xb
 839 00e0 27       		.uleb128 0x27
 840 00e1 19       		.uleb128 0x19
 841 00e2 49       		.uleb128 0x49
 842 00e3 13       		.uleb128 0x13
 843 00e4 11       		.uleb128 0x11
 844 00e5 01       		.uleb128 0x1
 845 00e6 12       		.uleb128 0x12
 846 00e7 06       		.uleb128 0x6
 847 00e8 40       		.uleb128 0x40
 848 00e9 18       		.uleb128 0x18
 849 00ea 9742     		.uleb128 0x2117
 850 00ec 19       		.uleb128 0x19
 851 00ed 00       		.byte	0
 852 00ee 00       		.byte	0
 853 00ef 12       		.uleb128 0x12
 854 00f0 2E       		.uleb128 0x2e
 855 00f1 01       		.byte	0x1
ARM GAS  /var/folders/bz/nn5481rn5xq59rb0mbj7x0880000gn/T//ccawvLfz.s 			page 16


 856 00f2 3F       		.uleb128 0x3f
 857 00f3 19       		.uleb128 0x19
 858 00f4 03       		.uleb128 0x3
 859 00f5 0E       		.uleb128 0xe
 860 00f6 3A       		.uleb128 0x3a
 861 00f7 0B       		.uleb128 0xb
 862 00f8 3B       		.uleb128 0x3b
 863 00f9 05       		.uleb128 0x5
 864 00fa 27       		.uleb128 0x27
 865 00fb 19       		.uleb128 0x19
 866 00fc 11       		.uleb128 0x11
 867 00fd 01       		.uleb128 0x1
 868 00fe 12       		.uleb128 0x12
 869 00ff 06       		.uleb128 0x6
 870 0100 40       		.uleb128 0x40
 871 0101 18       		.uleb128 0x18
 872 0102 9742     		.uleb128 0x2117
 873 0104 19       		.uleb128 0x19
 874 0105 01       		.uleb128 0x1
 875 0106 13       		.uleb128 0x13
 876 0107 00       		.byte	0
 877 0108 00       		.byte	0
 878 0109 13       		.uleb128 0x13
 879 010a 05       		.uleb128 0x5
 880 010b 00       		.byte	0
 881 010c 03       		.uleb128 0x3
 882 010d 0E       		.uleb128 0xe
 883 010e 3A       		.uleb128 0x3a
 884 010f 0B       		.uleb128 0xb
 885 0110 3B       		.uleb128 0x3b
 886 0111 05       		.uleb128 0x5
 887 0112 49       		.uleb128 0x49
 888 0113 13       		.uleb128 0x13
 889 0114 02       		.uleb128 0x2
 890 0115 18       		.uleb128 0x18
 891 0116 00       		.byte	0
 892 0117 00       		.byte	0
 893 0118 14       		.uleb128 0x14
 894 0119 2E       		.uleb128 0x2e
 895 011a 01       		.byte	0x1
 896 011b 3F       		.uleb128 0x3f
 897 011c 19       		.uleb128 0x19
 898 011d 03       		.uleb128 0x3
 899 011e 0E       		.uleb128 0xe
 900 011f 3A       		.uleb128 0x3a
 901 0120 0B       		.uleb128 0xb
 902 0121 3B       		.uleb128 0x3b
 903 0122 05       		.uleb128 0x5
 904 0123 27       		.uleb128 0x27
 905 0124 19       		.uleb128 0x19
 906 0125 49       		.uleb128 0x49
 907 0126 13       		.uleb128 0x13
 908 0127 11       		.uleb128 0x11
 909 0128 01       		.uleb128 0x1
 910 0129 12       		.uleb128 0x12
 911 012a 06       		.uleb128 0x6
 912 012b 40       		.uleb128 0x40
ARM GAS  /var/folders/bz/nn5481rn5xq59rb0mbj7x0880000gn/T//ccawvLfz.s 			page 17


 913 012c 18       		.uleb128 0x18
 914 012d 9742     		.uleb128 0x2117
 915 012f 19       		.uleb128 0x19
 916 0130 01       		.uleb128 0x1
 917 0131 13       		.uleb128 0x13
 918 0132 00       		.byte	0
 919 0133 00       		.byte	0
 920 0134 15       		.uleb128 0x15
 921 0135 05       		.uleb128 0x5
 922 0136 00       		.byte	0
 923 0137 03       		.uleb128 0x3
 924 0138 0E       		.uleb128 0xe
 925 0139 3A       		.uleb128 0x3a
 926 013a 0B       		.uleb128 0xb
 927 013b 3B       		.uleb128 0x3b
 928 013c 05       		.uleb128 0x5
 929 013d 49       		.uleb128 0x49
 930 013e 13       		.uleb128 0x13
 931 013f 02       		.uleb128 0x2
 932 0140 17       		.uleb128 0x17
 933 0141 00       		.byte	0
 934 0142 00       		.byte	0
 935 0143 16       		.uleb128 0x16
 936 0144 34       		.uleb128 0x34
 937 0145 00       		.byte	0
 938 0146 03       		.uleb128 0x3
 939 0147 0E       		.uleb128 0xe
 940 0148 3A       		.uleb128 0x3a
 941 0149 0B       		.uleb128 0xb
 942 014a 3B       		.uleb128 0x3b
 943 014b 05       		.uleb128 0x5
 944 014c 49       		.uleb128 0x49
 945 014d 13       		.uleb128 0x13
 946 014e 02       		.uleb128 0x2
 947 014f 17       		.uleb128 0x17
 948 0150 00       		.byte	0
 949 0151 00       		.byte	0
 950 0152 17       		.uleb128 0x17
 951 0153 34       		.uleb128 0x34
 952 0154 00       		.byte	0
 953 0155 03       		.uleb128 0x3
 954 0156 0E       		.uleb128 0xe
 955 0157 3A       		.uleb128 0x3a
 956 0158 0B       		.uleb128 0xb
 957 0159 3B       		.uleb128 0x3b
 958 015a 05       		.uleb128 0x5
 959 015b 49       		.uleb128 0x49
 960 015c 13       		.uleb128 0x13
 961 015d 3F       		.uleb128 0x3f
 962 015e 19       		.uleb128 0x19
 963 015f 3C       		.uleb128 0x3c
 964 0160 19       		.uleb128 0x19
 965 0161 00       		.byte	0
 966 0162 00       		.byte	0
 967 0163 18       		.uleb128 0x18
 968 0164 2E       		.uleb128 0x2e
 969 0165 01       		.byte	0x1
ARM GAS  /var/folders/bz/nn5481rn5xq59rb0mbj7x0880000gn/T//ccawvLfz.s 			page 18


 970 0166 3F       		.uleb128 0x3f
 971 0167 19       		.uleb128 0x19
 972 0168 03       		.uleb128 0x3
 973 0169 0E       		.uleb128 0xe
 974 016a 3A       		.uleb128 0x3a
 975 016b 0B       		.uleb128 0xb
 976 016c 3B       		.uleb128 0x3b
 977 016d 05       		.uleb128 0x5
 978 016e 27       		.uleb128 0x27
 979 016f 19       		.uleb128 0x19
 980 0170 3C       		.uleb128 0x3c
 981 0171 19       		.uleb128 0x19
 982 0172 00       		.byte	0
 983 0173 00       		.byte	0
 984 0174 19       		.uleb128 0x19
 985 0175 05       		.uleb128 0x5
 986 0176 00       		.byte	0
 987 0177 49       		.uleb128 0x49
 988 0178 13       		.uleb128 0x13
 989 0179 00       		.byte	0
 990 017a 00       		.byte	0
 991 017b 00       		.byte	0
 992              		.section	.debug_loc,"",%progbits
 993              	.Ldebug_loc0:
 994              	.LLST0:
 995 0000 00000000 		.4byte	.LVL4
 996 0004 0A000000 		.4byte	.LVL6
 997 0008 0100     		.2byte	0x1
 998 000a 50       		.byte	0x50
 999 000b 0A000000 		.4byte	.LVL6
 1000 000f 14000000 		.4byte	.LFE115
 1001 0013 0400     		.2byte	0x4
 1002 0015 F3       		.byte	0xf3
 1003 0016 01       		.uleb128 0x1
 1004 0017 50       		.byte	0x50
 1005 0018 9F       		.byte	0x9f
 1006 0019 00000000 		.4byte	0
 1007 001d 00000000 		.4byte	0
 1008              	.LLST1:
 1009 0021 00000000 		.4byte	.LVL4
 1010 0025 04000000 		.4byte	.LVL5
 1011 0029 0200     		.2byte	0x2
 1012 002b 30       		.byte	0x30
 1013 002c 9F       		.byte	0x9f
 1014 002d 04000000 		.4byte	.LVL5
 1015 0031 0A000000 		.4byte	.LVL6
 1016 0035 0B00     		.2byte	0xb
 1017 0037 70       		.byte	0x70
 1018 0038 00       		.sleb128 0
 1019 0039 08       		.byte	0x8
 1020 003a FF       		.byte	0xff
 1021 003b 1A       		.byte	0x1a
 1022 003c 73       		.byte	0x73
 1023 003d 00       		.sleb128 0
 1024 003e 1A       		.byte	0x1a
 1025 003f 30       		.byte	0x30
 1026 0040 2E       		.byte	0x2e
ARM GAS  /var/folders/bz/nn5481rn5xq59rb0mbj7x0880000gn/T//ccawvLfz.s 			page 19


 1027 0041 9F       		.byte	0x9f
 1028 0042 0A000000 		.4byte	.LVL6
 1029 0046 14000000 		.4byte	.LFE115
 1030 004a 0C00     		.2byte	0xc
 1031 004c F3       		.byte	0xf3
 1032 004d 01       		.uleb128 0x1
 1033 004e 50       		.byte	0x50
 1034 004f 08       		.byte	0x8
 1035 0050 FF       		.byte	0xff
 1036 0051 1A       		.byte	0x1a
 1037 0052 73       		.byte	0x73
 1038 0053 00       		.sleb128 0
 1039 0054 1A       		.byte	0x1a
 1040 0055 30       		.byte	0x30
 1041 0056 2E       		.byte	0x2e
 1042 0057 9F       		.byte	0x9f
 1043 0058 00000000 		.4byte	0
 1044 005c 00000000 		.4byte	0
 1045              	.LLST2:
 1046 0060 00000000 		.4byte	.LVL7
 1047 0064 06000000 		.4byte	.LVL8
 1048 0068 0100     		.2byte	0x1
 1049 006a 50       		.byte	0x50
 1050 006b 06000000 		.4byte	.LVL8
 1051 006f 10000000 		.4byte	.LFE116
 1052 0073 0400     		.2byte	0x4
 1053 0075 F3       		.byte	0xf3
 1054 0076 01       		.uleb128 0x1
 1055 0077 50       		.byte	0x50
 1056 0078 9F       		.byte	0x9f
 1057 0079 00000000 		.4byte	0
 1058 007d 00000000 		.4byte	0
 1059              	.LLST3:
 1060 0081 00000000 		.4byte	.LVL9
 1061 0085 0A000000 		.4byte	.LVL11
 1062 0089 0100     		.2byte	0x1
 1063 008b 50       		.byte	0x50
 1064 008c 0A000000 		.4byte	.LVL11
 1065 0090 14000000 		.4byte	.LFE117
 1066 0094 0400     		.2byte	0x4
 1067 0096 F3       		.byte	0xf3
 1068 0097 01       		.uleb128 0x1
 1069 0098 50       		.byte	0x50
 1070 0099 9F       		.byte	0x9f
 1071 009a 00000000 		.4byte	0
 1072 009e 00000000 		.4byte	0
 1073              	.LLST4:
 1074 00a2 00000000 		.4byte	.LVL9
 1075 00a6 04000000 		.4byte	.LVL10
 1076 00aa 0200     		.2byte	0x2
 1077 00ac 30       		.byte	0x30
 1078 00ad 9F       		.byte	0x9f
 1079 00ae 04000000 		.4byte	.LVL10
 1080 00b2 0A000000 		.4byte	.LVL11
 1081 00b6 0B00     		.2byte	0xb
 1082 00b8 70       		.byte	0x70
 1083 00b9 00       		.sleb128 0
ARM GAS  /var/folders/bz/nn5481rn5xq59rb0mbj7x0880000gn/T//ccawvLfz.s 			page 20


 1084 00ba 08       		.byte	0x8
 1085 00bb FF       		.byte	0xff
 1086 00bc 1A       		.byte	0x1a
 1087 00bd 73       		.byte	0x73
 1088 00be 00       		.sleb128 0
 1089 00bf 1A       		.byte	0x1a
 1090 00c0 30       		.byte	0x30
 1091 00c1 2E       		.byte	0x2e
 1092 00c2 9F       		.byte	0x9f
 1093 00c3 0A000000 		.4byte	.LVL11
 1094 00c7 14000000 		.4byte	.LFE117
 1095 00cb 0C00     		.2byte	0xc
 1096 00cd F3       		.byte	0xf3
 1097 00ce 01       		.uleb128 0x1
 1098 00cf 50       		.byte	0x50
 1099 00d0 08       		.byte	0x8
 1100 00d1 FF       		.byte	0xff
 1101 00d2 1A       		.byte	0x1a
 1102 00d3 73       		.byte	0x73
 1103 00d4 00       		.sleb128 0
 1104 00d5 1A       		.byte	0x1a
 1105 00d6 30       		.byte	0x30
 1106 00d7 2E       		.byte	0x2e
 1107 00d8 9F       		.byte	0x9f
 1108 00d9 00000000 		.4byte	0
 1109 00dd 00000000 		.4byte	0
 1110              	.LLST5:
 1111 00e1 00000000 		.4byte	.LVL12
 1112 00e5 02000000 		.4byte	.LVL13
 1113 00e9 0100     		.2byte	0x1
 1114 00eb 50       		.byte	0x50
 1115 00ec 02000000 		.4byte	.LVL13
 1116 00f0 10000000 		.4byte	.LFE118
 1117 00f4 0400     		.2byte	0x4
 1118 00f6 F3       		.byte	0xf3
 1119 00f7 01       		.uleb128 0x1
 1120 00f8 50       		.byte	0x50
 1121 00f9 9F       		.byte	0x9f
 1122 00fa 00000000 		.4byte	0
 1123 00fe 00000000 		.4byte	0
 1124              		.section	.debug_aranges,"",%progbits
 1125 0000 54000000 		.4byte	0x54
 1126 0004 0200     		.2byte	0x2
 1127 0006 00000000 		.4byte	.Ldebug_info0
 1128 000a 04       		.byte	0x4
 1129 000b 00       		.byte	0
 1130 000c 0000     		.2byte	0
 1131 000e 0000     		.2byte	0
 1132 0010 00000000 		.4byte	.LFB111
 1133 0014 16000000 		.4byte	.LFE111-.LFB111
 1134 0018 00000000 		.4byte	.LFB112
 1135 001c 1C000000 		.4byte	.LFE112-.LFB112
 1136 0020 00000000 		.4byte	.LFB113
 1137 0024 0C000000 		.4byte	.LFE113-.LFB113
 1138 0028 00000000 		.4byte	.LFB114
 1139 002c 1C000000 		.4byte	.LFE114-.LFB114
 1140 0030 00000000 		.4byte	.LFB115
ARM GAS  /var/folders/bz/nn5481rn5xq59rb0mbj7x0880000gn/T//ccawvLfz.s 			page 21


 1141 0034 14000000 		.4byte	.LFE115-.LFB115
 1142 0038 00000000 		.4byte	.LFB116
 1143 003c 10000000 		.4byte	.LFE116-.LFB116
 1144 0040 00000000 		.4byte	.LFB117
 1145 0044 14000000 		.4byte	.LFE117-.LFB117
 1146 0048 00000000 		.4byte	.LFB118
 1147 004c 10000000 		.4byte	.LFE118-.LFB118
 1148 0050 00000000 		.4byte	0
 1149 0054 00000000 		.4byte	0
 1150              		.section	.debug_ranges,"",%progbits
 1151              	.Ldebug_ranges0:
 1152 0000 00000000 		.4byte	.LFB111
 1153 0004 16000000 		.4byte	.LFE111
 1154 0008 00000000 		.4byte	.LFB112
 1155 000c 1C000000 		.4byte	.LFE112
 1156 0010 00000000 		.4byte	.LFB113
 1157 0014 0C000000 		.4byte	.LFE113
 1158 0018 00000000 		.4byte	.LFB114
 1159 001c 1C000000 		.4byte	.LFE114
 1160 0020 00000000 		.4byte	.LFB115
 1161 0024 14000000 		.4byte	.LFE115
 1162 0028 00000000 		.4byte	.LFB116
 1163 002c 10000000 		.4byte	.LFE116
 1164 0030 00000000 		.4byte	.LFB117
 1165 0034 14000000 		.4byte	.LFE117
 1166 0038 00000000 		.4byte	.LFB118
 1167 003c 10000000 		.4byte	.LFE118
 1168 0040 00000000 		.4byte	0
 1169 0044 00000000 		.4byte	0
 1170              		.section	.debug_line,"",%progbits
 1171              	.Ldebug_line0:
 1172 0000 6F020000 		.section	.debug_str,"MS",%progbits,1
 1172      0200D101 
 1172      00000201 
 1172      FB0E0D00 
 1172      01010101 
 1173              	.LASF4:
 1174 0000 5F5F7569 		.ascii	"__uint8_t\000"
 1174      6E74385F 
 1174      7400
 1175              	.LASF18:
 1176 000a 49545374 		.ascii	"ITStatus\000"
 1176      61747573 
 1176      00
 1177              	.LASF34:
 1178 0013 474E5520 		.ascii	"GNU C 4.9.3 20150529 (release) [ARM/embedded-4_9-br"
 1178      4320342E 
 1178      392E3320 
 1178      32303135 
 1178      30353239 
 1179 0046 616E6368 		.ascii	"anch revision 224288] -mcpu=cortex-m4 -mfloat-abi=h"
 1179      20726576 
 1179      6973696F 
 1179      6E203232 
 1179      34323838 
 1180 0079 61726420 		.ascii	"ard -mfpu=fpv4-sp-d16 -mno-thumb-interwork -mthumb "
 1180      2D6D6670 
ARM GAS  /var/folders/bz/nn5481rn5xq59rb0mbj7x0880000gn/T//ccawvLfz.s 			page 22


 1180      753D6670 
 1180      76342D73 
 1180      702D6431 
 1181 00ac 2D676764 		.ascii	"-ggdb -O2 -std=gnu99 -fomit-frame-pointer -falign-f"
 1181      62202D4F 
 1181      32202D73 
 1181      74643D67 
 1181      6E753939 
 1182 00df 756E6374 		.ascii	"unctions=16 -ffunction-sections -fdata-sections -fn"
 1182      696F6E73 
 1182      3D313620 
 1182      2D666675 
 1182      6E637469 
 1183 0112 6F2D636F 		.ascii	"o-common -fsingle-precision-constant\000"
 1183      6D6D6F6E 
 1183      202D6673 
 1183      696E676C 
 1183      652D7072 
 1184              	.LASF39:
 1185 0137 5243435F 		.ascii	"RCC_AHB2PeriphResetCmd\000"
 1185      41484232 
 1185      50657269 
 1185      70685265 
 1185      73657443 
 1186              	.LASF5:
 1187 014e 5F5F696E 		.ascii	"__int32_t\000"
 1187      7433325F 
 1187      7400
 1188              	.LASF3:
 1189 0158 73686F72 		.ascii	"short unsigned int\000"
 1189      7420756E 
 1189      7369676E 
 1189      65642069 
 1189      6E7400
 1190              	.LASF21:
 1191 016b 46756E63 		.ascii	"FunctionalState\000"
 1191      74696F6E 
 1191      616C5374 
 1191      61746500 
 1192              	.LASF25:
 1193 017b 524E475F 		.ascii	"RNG_ITConfig\000"
 1193      4954436F 
 1193      6E666967 
 1193      00
 1194              	.LASF24:
 1195 0188 524E475F 		.ascii	"RNG_Cmd\000"
 1195      436D6400 
 1196              	.LASF32:
 1197 0190 62697473 		.ascii	"bitstatus\000"
 1197      74617475 
 1197      7300
 1198              	.LASF31:
 1199 019a 524E475F 		.ascii	"RNG_IT\000"
 1199      495400
 1200              	.LASF20:
 1201 01a1 454E4142 		.ascii	"ENABLE\000"
 1201      4C4500
ARM GAS  /var/folders/bz/nn5481rn5xq59rb0mbj7x0880000gn/T//ccawvLfz.s 			page 23


 1202              	.LASF1:
 1203 01a8 756E7369 		.ascii	"unsigned char\000"
 1203      676E6564 
 1203      20636861 
 1203      7200
 1204              	.LASF17:
 1205 01b6 466C6167 		.ascii	"FlagStatus\000"
 1205      53746174 
 1205      757300
 1206              	.LASF37:
 1207 01c1 524E475F 		.ascii	"RNG_GetRandomNumber\000"
 1207      47657452 
 1207      616E646F 
 1207      6D4E756D 
 1207      62657200 
 1208              	.LASF8:
 1209 01d5 6C6F6E67 		.ascii	"long unsigned int\000"
 1209      20756E73 
 1209      69676E65 
 1209      6420696E 
 1209      7400
 1210              	.LASF23:
 1211 01e7 524E475F 		.ascii	"RNG_DeInit\000"
 1211      4465496E 
 1211      697400
 1212              	.LASF16:
 1213 01f2 52455345 		.ascii	"RESET\000"
 1213      5400
 1214              	.LASF19:
 1215 01f8 44495341 		.ascii	"DISABLE\000"
 1215      424C4500 
 1216              	.LASF38:
 1217 0200 49544D5F 		.ascii	"ITM_RxBuffer\000"
 1217      52784275 
 1217      66666572 
 1217      00
 1218              	.LASF35:
 1219 020d 6C69622F 		.ascii	"lib/ChibiOS_2.6.6/ext/stdperiph_stm32f4/src/stm32f4"
 1219      43686962 
 1219      694F535F 
 1219      322E362E 
 1219      362F6578 
 1220 0240 78785F72 		.ascii	"xx_rng.c\000"
 1220      6E672E63 
 1220      00
 1221              	.LASF7:
 1222 0249 5F5F7569 		.ascii	"__uint32_t\000"
 1222      6E743332 
 1222      5F7400
 1223              	.LASF22:
 1224 0254 524E475F 		.ascii	"RNG_TypeDef\000"
 1224      54797065 
 1224      44656600 
 1225              	.LASF11:
 1226 0260 756E7369 		.ascii	"unsigned int\000"
 1226      676E6564 
 1226      20696E74 
ARM GAS  /var/folders/bz/nn5481rn5xq59rb0mbj7x0880000gn/T//ccawvLfz.s 			page 24


 1226      00
 1227              	.LASF27:
 1228 026d 524E475F 		.ascii	"RNG_FLAG\000"
 1228      464C4147 
 1228      00
 1229              	.LASF10:
 1230 0276 6C6F6E67 		.ascii	"long long unsigned int\000"
 1230      206C6F6E 
 1230      6720756E 
 1230      7369676E 
 1230      65642069 
 1231              	.LASF12:
 1232 028d 75696E74 		.ascii	"uint8_t\000"
 1232      385F7400 
 1233              	.LASF13:
 1234 0295 696E7433 		.ascii	"int32_t\000"
 1234      325F7400 
 1235              	.LASF15:
 1236 029d 73697A65 		.ascii	"sizetype\000"
 1236      74797065 
 1236      00
 1237              	.LASF9:
 1238 02a6 6C6F6E67 		.ascii	"long long int\000"
 1238      206C6F6E 
 1238      6720696E 
 1238      7400
 1239              	.LASF36:
 1240 02b4 2F557365 		.ascii	"/Users/imac/oroca_bldc_dev/oroca_bldc/\000"
 1240      72732F69 
 1240      6D61632F 
 1240      6F726F63 
 1240      615F626C 
 1241              	.LASF2:
 1242 02db 73686F72 		.ascii	"short int\000"
 1242      7420696E 
 1242      7400
 1243              	.LASF28:
 1244 02e5 524E475F 		.ascii	"RNG_ClearFlag\000"
 1244      436C6561 
 1244      72466C61 
 1244      6700
 1245              	.LASF26:
 1246 02f3 4E657753 		.ascii	"NewState\000"
 1246      74617465 
 1246      00
 1247              	.LASF30:
 1248 02fc 524E475F 		.ascii	"RNG_GetITStatus\000"
 1248      47657449 
 1248      54537461 
 1248      74757300 
 1249              	.LASF14:
 1250 030c 75696E74 		.ascii	"uint32_t\000"
 1250      33325F74 
 1250      00
 1251              	.LASF6:
 1252 0315 6C6F6E67 		.ascii	"long int\000"
 1252      20696E74 
ARM GAS  /var/folders/bz/nn5481rn5xq59rb0mbj7x0880000gn/T//ccawvLfz.s 			page 25


 1252      00
 1253              	.LASF0:
 1254 031e 7369676E 		.ascii	"signed char\000"
 1254      65642063 
 1254      68617200 
 1255              	.LASF33:
 1256 032a 524E475F 		.ascii	"RNG_ClearITPendingBit\000"
 1256      436C6561 
 1256      72495450 
 1256      656E6469 
 1256      6E674269 
 1257              	.LASF29:
 1258 0340 524E475F 		.ascii	"RNG_GetFlagStatus\000"
 1258      47657446 
 1258      6C616753 
 1258      74617475 
 1258      7300
 1259              		.ident	"GCC: (GNU Tools for ARM Embedded Processors) 4.9.3 20150529 (release) [ARM/embedded-4_9-br
ARM GAS  /var/folders/bz/nn5481rn5xq59rb0mbj7x0880000gn/T//ccawvLfz.s 			page 26


DEFINED SYMBOLS
                            *ABS*:0000000000000000 stm32f4xx_rng.c
/var/folders/bz/nn5481rn5xq59rb0mbj7x0880000gn/T//ccawvLfz.s:21     .text.RNG_DeInit:0000000000000000 $t
/var/folders/bz/nn5481rn5xq59rb0mbj7x0880000gn/T//ccawvLfz.s:27     .text.RNG_DeInit:0000000000000000 RNG_DeInit
/var/folders/bz/nn5481rn5xq59rb0mbj7x0880000gn/T//ccawvLfz.s:58     .text.RNG_Cmd:0000000000000000 $t
/var/folders/bz/nn5481rn5xq59rb0mbj7x0880000gn/T//ccawvLfz.s:64     .text.RNG_Cmd:0000000000000000 RNG_Cmd
/var/folders/bz/nn5481rn5xq59rb0mbj7x0880000gn/T//ccawvLfz.s:89     .text.RNG_Cmd:0000000000000018 $d
/var/folders/bz/nn5481rn5xq59rb0mbj7x0880000gn/T//ccawvLfz.s:94     .text.RNG_GetRandomNumber:0000000000000000 $t
/var/folders/bz/nn5481rn5xq59rb0mbj7x0880000gn/T//ccawvLfz.s:100    .text.RNG_GetRandomNumber:0000000000000000 RNG_GetRandomNumber
/var/folders/bz/nn5481rn5xq59rb0mbj7x0880000gn/T//ccawvLfz.s:115    .text.RNG_GetRandomNumber:0000000000000008 $d
/var/folders/bz/nn5481rn5xq59rb0mbj7x0880000gn/T//ccawvLfz.s:120    .text.RNG_ITConfig:0000000000000000 $t
/var/folders/bz/nn5481rn5xq59rb0mbj7x0880000gn/T//ccawvLfz.s:126    .text.RNG_ITConfig:0000000000000000 RNG_ITConfig
/var/folders/bz/nn5481rn5xq59rb0mbj7x0880000gn/T//ccawvLfz.s:151    .text.RNG_ITConfig:0000000000000018 $d
/var/folders/bz/nn5481rn5xq59rb0mbj7x0880000gn/T//ccawvLfz.s:156    .text.RNG_GetFlagStatus:0000000000000000 $t
/var/folders/bz/nn5481rn5xq59rb0mbj7x0880000gn/T//ccawvLfz.s:162    .text.RNG_GetFlagStatus:0000000000000000 RNG_GetFlagStatus
/var/folders/bz/nn5481rn5xq59rb0mbj7x0880000gn/T//ccawvLfz.s:184    .text.RNG_GetFlagStatus:0000000000000010 $d
/var/folders/bz/nn5481rn5xq59rb0mbj7x0880000gn/T//ccawvLfz.s:189    .text.RNG_ClearFlag:0000000000000000 $t
/var/folders/bz/nn5481rn5xq59rb0mbj7x0880000gn/T//ccawvLfz.s:195    .text.RNG_ClearFlag:0000000000000000 RNG_ClearFlag
/var/folders/bz/nn5481rn5xq59rb0mbj7x0880000gn/T//ccawvLfz.s:212    .text.RNG_ClearFlag:000000000000000c $d
/var/folders/bz/nn5481rn5xq59rb0mbj7x0880000gn/T//ccawvLfz.s:217    .text.RNG_GetITStatus:0000000000000000 $t
/var/folders/bz/nn5481rn5xq59rb0mbj7x0880000gn/T//ccawvLfz.s:223    .text.RNG_GetITStatus:0000000000000000 RNG_GetITStatus
/var/folders/bz/nn5481rn5xq59rb0mbj7x0880000gn/T//ccawvLfz.s:245    .text.RNG_GetITStatus:0000000000000010 $d
/var/folders/bz/nn5481rn5xq59rb0mbj7x0880000gn/T//ccawvLfz.s:250    .text.RNG_ClearITPendingBit:0000000000000000 $t
/var/folders/bz/nn5481rn5xq59rb0mbj7x0880000gn/T//ccawvLfz.s:256    .text.RNG_ClearITPendingBit:0000000000000000 RNG_ClearITPendingBit
/var/folders/bz/nn5481rn5xq59rb0mbj7x0880000gn/T//ccawvLfz.s:274    .text.RNG_ClearITPendingBit:000000000000000c $d
                     .debug_frame:0000000000000010 $d

UNDEFINED SYMBOLS
RCC_AHB2PeriphResetCmd
