ARM GAS  /var/folders/bz/nn5481rn5xq59rb0mbj7x0880000gn/T//ccTH9v2C.s 			page 1


   1              		.syntax unified
   2              		.cpu cortex-m4
   3              		.eabi_attribute 27, 1
   4              		.eabi_attribute 28, 1
   5              		.fpu fpv4-sp-d16
   6              		.eabi_attribute 20, 1
   7              		.eabi_attribute 21, 1
   8              		.eabi_attribute 23, 3
   9              		.eabi_attribute 24, 1
  10              		.eabi_attribute 25, 1
  11              		.eabi_attribute 26, 1
  12              		.eabi_attribute 30, 2
  13              		.eabi_attribute 34, 1
  14              		.eabi_attribute 18, 4
  15              		.thumb
  16              		.file	"stm32f4xx_dcmi.c"
  17              		.text
  18              	.Ltext0:
  19              		.cfi_sections	.debug_frame
  20              		.section	.text.DCMI_DeInit,"ax",%progbits
  21              		.align	2
  22              		.p2align 4,,15
  23              		.global	DCMI_DeInit
  24              		.thumb
  25              		.thumb_func
  26              		.type	DCMI_DeInit, %function
  27              	DCMI_DeInit:
  28              	.LFB111:
  29              		.file 1 "lib/ChibiOS_2.6.6/ext/stdperiph_stm32f4/src/stm32f4xx_dcmi.c"
  30              		.loc 1 129 0
  31              		.cfi_startproc
  32              		@ args = 0, pretend = 0, frame = 0
  33              		@ frame_needed = 0, uses_anonymous_args = 0
  34              		@ link register save eliminated.
  35              		.loc 1 130 0
  36 0000 054B     		ldr	r3, .L2
  37 0002 0022     		movs	r2, #0
  38              		.loc 1 132 0
  39 0004 1F21     		movs	r1, #31
  40              		.loc 1 130 0
  41 0006 1A60     		str	r2, [r3]
  42              		.loc 1 131 0
  43 0008 DA60     		str	r2, [r3, #12]
  44              		.loc 1 132 0
  45 000a 5961     		str	r1, [r3, #20]
  46              		.loc 1 133 0
  47 000c 9A61     		str	r2, [r3, #24]
  48              		.loc 1 134 0
  49 000e DA61     		str	r2, [r3, #28]
  50              		.loc 1 135 0
  51 0010 1A62     		str	r2, [r3, #32]
  52              		.loc 1 136 0
  53 0012 5A62     		str	r2, [r3, #36]
  54 0014 7047     		bx	lr
  55              	.L3:
  56 0016 00BF     		.align	2
  57              	.L2:
ARM GAS  /var/folders/bz/nn5481rn5xq59rb0mbj7x0880000gn/T//ccTH9v2C.s 			page 2


  58 0018 00000550 		.word	1342504960
  59              		.cfi_endproc
  60              	.LFE111:
  61              		.size	DCMI_DeInit, .-DCMI_DeInit
  62              		.section	.text.DCMI_Init,"ax",%progbits
  63              		.align	2
  64              		.p2align 4,,15
  65              		.global	DCMI_Init
  66              		.thumb
  67              		.thumb_func
  68              		.type	DCMI_Init, %function
  69              	DCMI_Init:
  70              	.LFB112:
  71              		.loc 1 146 0
  72              		.cfi_startproc
  73              		@ args = 0, pretend = 0, frame = 0
  74              		@ frame_needed = 0, uses_anonymous_args = 0
  75              	.LVL0:
  76 0000 F0B5     		push	{r4, r5, r6, r7, lr}
  77              		.cfi_def_cfa_offset 20
  78              		.cfi_offset 4, -20
  79              		.cfi_offset 5, -16
  80              		.cfi_offset 6, -12
  81              		.cfi_offset 7, -8
  82              		.cfi_offset 14, -4
  83              		.loc 1 160 0
  84 0002 104D     		ldr	r5, .L6
  85              		.loc 1 175 0
  86 0004 B0F802C0 		ldrh	ip, [r0, #2]
  87 0008 0288     		ldrh	r2, [r0]
  88              		.loc 1 160 0
  89 000a 2C68     		ldr	r4, [r5]
  90              		.loc 1 175 0
  91 000c B0F804E0 		ldrh	lr, [r0, #4]
  92 0010 0389     		ldrh	r3, [r0, #8]
  93 0012 C788     		ldrh	r7, [r0, #6]
  94 0014 4689     		ldrh	r6, [r0, #10]
  95 0016 8189     		ldrh	r1, [r0, #12]
  96 0018 4CEA0202 		orr	r2, ip, r2
  97              		.loc 1 160 0
  98 001c 24F48040 		bic	r0, r4, #16384
  99              	.LVL1:
 100              		.loc 1 175 0
 101 0020 42EA0E02 		orr	r2, r2, lr
 102              		.loc 1 160 0
 103 0024 20F00100 		bic	r0, r0, #1
 104 0028 2860     		str	r0, [r5]
 105              		.loc 1 175 0
 106 002a 3A43     		orrs	r2, r2, r7
 107 002c 1A43     		orrs	r2, r2, r3
 108              		.loc 1 163 0
 109 002e 2B68     		ldr	r3, [r5]
 110              	.LVL2:
 111              		.loc 1 175 0
 112 0030 3243     		orrs	r2, r2, r6
 113 0032 0A43     		orrs	r2, r2, r1
 114              		.loc 1 165 0
ARM GAS  /var/folders/bz/nn5481rn5xq59rb0mbj7x0880000gn/T//ccTH9v2C.s 			page 3


 115 0034 23F47F63 		bic	r3, r3, #4080
 116              	.LVL3:
 117              		.loc 1 175 0
 118 0038 92B2     		uxth	r2, r2
 119              		.loc 1 165 0
 120 003a 23F00203 		bic	r3, r3, #2
 121              	.LVL4:
 122              		.loc 1 170 0
 123 003e 1343     		orrs	r3, r3, r2
 124              	.LVL5:
 125              		.loc 1 178 0
 126 0040 2B60     		str	r3, [r5]
 127 0042 F0BD     		pop	{r4, r5, r6, r7, pc}
 128              	.L7:
 129              		.align	2
 130              	.L6:
 131 0044 00000550 		.word	1342504960
 132              		.cfi_endproc
 133              	.LFE112:
 134              		.size	DCMI_Init, .-DCMI_Init
 135              		.section	.text.DCMI_StructInit,"ax",%progbits
 136              		.align	2
 137              		.p2align 4,,15
 138              		.global	DCMI_StructInit
 139              		.thumb
 140              		.thumb_func
 141              		.type	DCMI_StructInit, %function
 142              	DCMI_StructInit:
 143              	.LFB113:
 144              		.loc 1 188 0
 145              		.cfi_startproc
 146              		@ args = 0, pretend = 0, frame = 0
 147              		@ frame_needed = 0, uses_anonymous_args = 0
 148              		@ link register save eliminated.
 149              	.LVL6:
 150              		.loc 1 190 0
 151 0000 0023     		movs	r3, #0
 152 0002 0380     		strh	r3, [r0]	@ movhi
 153              		.loc 1 191 0
 154 0004 4380     		strh	r3, [r0, #2]	@ movhi
 155              		.loc 1 192 0
 156 0006 8380     		strh	r3, [r0, #4]	@ movhi
 157              		.loc 1 193 0
 158 0008 C380     		strh	r3, [r0, #6]	@ movhi
 159              		.loc 1 194 0
 160 000a 0381     		strh	r3, [r0, #8]	@ movhi
 161              		.loc 1 195 0
 162 000c 4381     		strh	r3, [r0, #10]	@ movhi
 163              		.loc 1 196 0
 164 000e 8381     		strh	r3, [r0, #12]	@ movhi
 165 0010 7047     		bx	lr
 166              		.cfi_endproc
 167              	.LFE113:
 168              		.size	DCMI_StructInit, .-DCMI_StructInit
 169 0012 00BF     		.section	.text.DCMI_CROPConfig,"ax",%progbits
 170              		.align	2
 171              		.p2align 4,,15
ARM GAS  /var/folders/bz/nn5481rn5xq59rb0mbj7x0880000gn/T//ccTH9v2C.s 			page 4


 172              		.global	DCMI_CROPConfig
 173              		.thumb
 174              		.thumb_func
 175              		.type	DCMI_CROPConfig, %function
 176              	DCMI_CROPConfig:
 177              	.LFB114:
 178              		.loc 1 208 0
 179              		.cfi_startproc
 180              		@ args = 0, pretend = 0, frame = 0
 181              		@ frame_needed = 0, uses_anonymous_args = 0
 182              		@ link register save eliminated.
 183              	.LVL7:
 184 0000 30B4     		push	{r4, r5}
 185              		.cfi_def_cfa_offset 8
 186              		.cfi_offset 4, -8
 187              		.cfi_offset 5, -4
 188              		.loc 1 210 0
 189 0002 4288     		ldrh	r2, [r0, #2]
 190              		.loc 1 211 0
 191 0004 0588     		ldrh	r5, [r0]
 192              		.loc 1 215 0
 193 0006 8488     		ldrh	r4, [r0, #4]
 194              		.loc 1 214 0
 195 0008 C388     		ldrh	r3, [r0, #6]
 196              		.loc 1 210 0
 197 000a 0449     		ldr	r1, .L11
 198 000c 42EA0542 		orr	r2, r2, r5, lsl #16
 199              		.loc 1 214 0
 200 0010 43EA0443 		orr	r3, r3, r4, lsl #16
 201              		.loc 1 210 0
 202 0014 0A62     		str	r2, [r1, #32]
 203              		.loc 1 216 0
 204 0016 30BC     		pop	{r4, r5}
 205              		.cfi_restore 5
 206              		.cfi_restore 4
 207              		.cfi_def_cfa_offset 0
 208              		.loc 1 214 0
 209 0018 4B62     		str	r3, [r1, #36]
 210              		.loc 1 216 0
 211 001a 7047     		bx	lr
 212              	.L12:
 213              		.align	2
 214              	.L11:
 215 001c 00000550 		.word	1342504960
 216              		.cfi_endproc
 217              	.LFE114:
 218              		.size	DCMI_CROPConfig, .-DCMI_CROPConfig
 219              		.section	.text.DCMI_CROPCmd,"ax",%progbits
 220              		.align	2
 221              		.p2align 4,,15
 222              		.global	DCMI_CROPCmd
 223              		.thumb
 224              		.thumb_func
 225              		.type	DCMI_CROPCmd, %function
 226              	DCMI_CROPCmd:
 227              	.LFB115:
 228              		.loc 1 226 0
ARM GAS  /var/folders/bz/nn5481rn5xq59rb0mbj7x0880000gn/T//ccTH9v2C.s 			page 5


 229              		.cfi_startproc
 230              		@ args = 0, pretend = 0, frame = 0
 231              		@ frame_needed = 0, uses_anonymous_args = 0
 232              		@ link register save eliminated.
 233              	.LVL8:
 234              		.loc 1 233 0
 235 0000 054A     		ldr	r2, .L18
 236 0002 1368     		ldr	r3, [r2]
 237              		.loc 1 230 0
 238 0004 18B9     		cbnz	r0, .L17
 239              		.loc 1 238 0
 240 0006 23F00403 		bic	r3, r3, #4
 241 000a 1360     		str	r3, [r2]
 242 000c 7047     		bx	lr
 243              	.L17:
 244              		.loc 1 233 0
 245 000e 43F00403 		orr	r3, r3, #4
 246 0012 1360     		str	r3, [r2]
 247 0014 7047     		bx	lr
 248              	.L19:
 249 0016 00BF     		.align	2
 250              	.L18:
 251 0018 00000550 		.word	1342504960
 252              		.cfi_endproc
 253              	.LFE115:
 254              		.size	DCMI_CROPCmd, .-DCMI_CROPCmd
 255              		.section	.text.DCMI_SetEmbeddedSynchroCodes,"ax",%progbits
 256              		.align	2
 257              		.p2align 4,,15
 258              		.global	DCMI_SetEmbeddedSynchroCodes
 259              		.thumb
 260              		.thumb_func
 261              		.type	DCMI_SetEmbeddedSynchroCodes, %function
 262              	DCMI_SetEmbeddedSynchroCodes:
 263              	.LFB116:
 264              		.loc 1 249 0
 265              		.cfi_startproc
 266              		@ args = 0, pretend = 0, frame = 0
 267              		@ frame_needed = 0, uses_anonymous_args = 0
 268              		@ link register save eliminated.
 269              	.LVL9:
 270 0000 10B4     		push	{r4}
 271              		.cfi_def_cfa_offset 4
 272              		.cfi_offset 4, -4
 273              		.loc 1 252 0
 274 0002 8178     		ldrb	r1, [r0, #2]	@ zero_extendqisi2
 275              		.loc 1 251 0
 276 0004 4378     		ldrb	r3, [r0, #1]	@ zero_extendqisi2
 277              		.loc 1 250 0
 278 0006 0278     		ldrb	r2, [r0]	@ zero_extendqisi2
 279              		.loc 1 253 0
 280 0008 C078     		ldrb	r0, [r0, #3]	@ zero_extendqisi2
 281              	.LVL10:
 282              		.loc 1 250 0
 283 000a 054C     		ldr	r4, .L22
 284              		.loc 1 252 0
 285 000c 0904     		lsls	r1, r1, #16
ARM GAS  /var/folders/bz/nn5481rn5xq59rb0mbj7x0880000gn/T//ccTH9v2C.s 			page 6


 286 000e 41EA0323 		orr	r3, r1, r3, lsl #8
 287              		.loc 1 251 0
 288 0012 1343     		orrs	r3, r3, r2
 289              		.loc 1 250 0
 290 0014 43EA0063 		orr	r3, r3, r0, lsl #24
 291 0018 A361     		str	r3, [r4, #24]
 292              		.loc 1 254 0
 293 001a 5DF8044B 		ldr	r4, [sp], #4
 294              		.cfi_restore 4
 295              		.cfi_def_cfa_offset 0
 296 001e 7047     		bx	lr
 297              	.L23:
 298              		.align	2
 299              	.L22:
 300 0020 00000550 		.word	1342504960
 301              		.cfi_endproc
 302              	.LFE116:
 303              		.size	DCMI_SetEmbeddedSynchroCodes, .-DCMI_SetEmbeddedSynchroCodes
 304              		.section	.text.DCMI_JPEGCmd,"ax",%progbits
 305              		.align	2
 306              		.p2align 4,,15
 307              		.global	DCMI_JPEGCmd
 308              		.thumb
 309              		.thumb_func
 310              		.type	DCMI_JPEGCmd, %function
 311              	DCMI_JPEGCmd:
 312              	.LFB117:
 313              		.loc 1 264 0
 314              		.cfi_startproc
 315              		@ args = 0, pretend = 0, frame = 0
 316              		@ frame_needed = 0, uses_anonymous_args = 0
 317              		@ link register save eliminated.
 318              	.LVL11:
 319              		.loc 1 271 0
 320 0000 054A     		ldr	r2, .L28
 321 0002 1368     		ldr	r3, [r2]
 322              		.loc 1 268 0
 323 0004 18B9     		cbnz	r0, .L27
 324              		.loc 1 276 0
 325 0006 23F00803 		bic	r3, r3, #8
 326 000a 1360     		str	r3, [r2]
 327 000c 7047     		bx	lr
 328              	.L27:
 329              		.loc 1 271 0
 330 000e 43F00803 		orr	r3, r3, #8
 331 0012 1360     		str	r3, [r2]
 332 0014 7047     		bx	lr
 333              	.L29:
 334 0016 00BF     		.align	2
 335              	.L28:
 336 0018 00000550 		.word	1342504960
 337              		.cfi_endproc
 338              	.LFE117:
 339              		.size	DCMI_JPEGCmd, .-DCMI_JPEGCmd
 340              		.section	.text.DCMI_Cmd,"ax",%progbits
 341              		.align	2
 342              		.p2align 4,,15
ARM GAS  /var/folders/bz/nn5481rn5xq59rb0mbj7x0880000gn/T//ccTH9v2C.s 			page 7


 343              		.global	DCMI_Cmd
 344              		.thumb
 345              		.thumb_func
 346              		.type	DCMI_Cmd, %function
 347              	DCMI_Cmd:
 348              	.LFB118:
 349              		.loc 1 302 0
 350              		.cfi_startproc
 351              		@ args = 0, pretend = 0, frame = 0
 352              		@ frame_needed = 0, uses_anonymous_args = 0
 353              		@ link register save eliminated.
 354              	.LVL12:
 355              		.loc 1 309 0
 356 0000 054A     		ldr	r2, .L34
 357 0002 1368     		ldr	r3, [r2]
 358              		.loc 1 306 0
 359 0004 18B9     		cbnz	r0, .L33
 360              		.loc 1 314 0
 361 0006 23F48043 		bic	r3, r3, #16384
 362 000a 1360     		str	r3, [r2]
 363 000c 7047     		bx	lr
 364              	.L33:
 365              		.loc 1 309 0
 366 000e 43F48043 		orr	r3, r3, #16384
 367 0012 1360     		str	r3, [r2]
 368 0014 7047     		bx	lr
 369              	.L35:
 370 0016 00BF     		.align	2
 371              	.L34:
 372 0018 00000550 		.word	1342504960
 373              		.cfi_endproc
 374              	.LFE118:
 375              		.size	DCMI_Cmd, .-DCMI_Cmd
 376              		.section	.text.DCMI_CaptureCmd,"ax",%progbits
 377              		.align	2
 378              		.p2align 4,,15
 379              		.global	DCMI_CaptureCmd
 380              		.thumb
 381              		.thumb_func
 382              		.type	DCMI_CaptureCmd, %function
 383              	DCMI_CaptureCmd:
 384              	.LFB119:
 385              		.loc 1 325 0
 386              		.cfi_startproc
 387              		@ args = 0, pretend = 0, frame = 0
 388              		@ frame_needed = 0, uses_anonymous_args = 0
 389              		@ link register save eliminated.
 390              	.LVL13:
 391              		.loc 1 332 0
 392 0000 054A     		ldr	r2, .L40
 393 0002 1368     		ldr	r3, [r2]
 394              		.loc 1 329 0
 395 0004 18B9     		cbnz	r0, .L39
 396              		.loc 1 337 0
 397 0006 23F00103 		bic	r3, r3, #1
 398 000a 1360     		str	r3, [r2]
 399 000c 7047     		bx	lr
ARM GAS  /var/folders/bz/nn5481rn5xq59rb0mbj7x0880000gn/T//ccTH9v2C.s 			page 8


 400              	.L39:
 401              		.loc 1 332 0
 402 000e 43F00103 		orr	r3, r3, #1
 403 0012 1360     		str	r3, [r2]
 404 0014 7047     		bx	lr
 405              	.L41:
 406 0016 00BF     		.align	2
 407              	.L40:
 408 0018 00000550 		.word	1342504960
 409              		.cfi_endproc
 410              	.LFE119:
 411              		.size	DCMI_CaptureCmd, .-DCMI_CaptureCmd
 412              		.section	.text.DCMI_ReadData,"ax",%progbits
 413              		.align	2
 414              		.p2align 4,,15
 415              		.global	DCMI_ReadData
 416              		.thumb
 417              		.thumb_func
 418              		.type	DCMI_ReadData, %function
 419              	DCMI_ReadData:
 420              	.LFB120:
 421              		.loc 1 347 0
 422              		.cfi_startproc
 423              		@ args = 0, pretend = 0, frame = 0
 424              		@ frame_needed = 0, uses_anonymous_args = 0
 425              		@ link register save eliminated.
 426              		.loc 1 348 0
 427 0000 014B     		ldr	r3, .L43
 428 0002 986A     		ldr	r0, [r3, #40]
 429              		.loc 1 349 0
 430 0004 7047     		bx	lr
 431              	.L44:
 432 0006 00BF     		.align	2
 433              	.L43:
 434 0008 00000550 		.word	1342504960
 435              		.cfi_endproc
 436              	.LFE120:
 437              		.size	DCMI_ReadData, .-DCMI_ReadData
 438              		.section	.text.DCMI_ITConfig,"ax",%progbits
 439              		.align	2
 440              		.p2align 4,,15
 441              		.global	DCMI_ITConfig
 442              		.thumb
 443              		.thumb_func
 444              		.type	DCMI_ITConfig, %function
 445              	DCMI_ITConfig:
 446              	.LFB121:
 447              		.loc 1 380 0
 448              		.cfi_startproc
 449              		@ args = 0, pretend = 0, frame = 0
 450              		@ frame_needed = 0, uses_anonymous_args = 0
 451              		@ link register save eliminated.
 452              	.LVL14:
 453              		.loc 1 388 0
 454 0000 054A     		ldr	r2, .L49
 455              		.loc 1 385 0
 456 0002 29B9     		cbnz	r1, .L48
ARM GAS  /var/folders/bz/nn5481rn5xq59rb0mbj7x0880000gn/T//ccTH9v2C.s 			page 9


 457              		.loc 1 393 0
 458 0004 D368     		ldr	r3, [r2, #12]
 459 0006 C043     		mvns	r0, r0
 460              	.LVL15:
 461 0008 80B2     		uxth	r0, r0
 462 000a 1840     		ands	r0, r0, r3
 463 000c D060     		str	r0, [r2, #12]
 464 000e 7047     		bx	lr
 465              	.LVL16:
 466              	.L48:
 467              		.loc 1 388 0
 468 0010 D368     		ldr	r3, [r2, #12]
 469 0012 1843     		orrs	r0, r0, r3
 470              	.LVL17:
 471 0014 D060     		str	r0, [r2, #12]
 472 0016 7047     		bx	lr
 473              	.L50:
 474              		.align	2
 475              	.L49:
 476 0018 00000550 		.word	1342504960
 477              		.cfi_endproc
 478              	.LFE121:
 479              		.size	DCMI_ITConfig, .-DCMI_ITConfig
 480              		.section	.text.DCMI_GetFlagStatus,"ax",%progbits
 481              		.align	2
 482              		.p2align 4,,15
 483              		.global	DCMI_GetFlagStatus
 484              		.thumb
 485              		.thumb_func
 486              		.type	DCMI_GetFlagStatus, %function
 487              	DCMI_GetFlagStatus:
 488              	.LFB122:
 489              		.loc 1 417 0
 490              		.cfi_startproc
 491              		@ args = 0, pretend = 0, frame = 0
 492              		@ frame_needed = 0, uses_anonymous_args = 0
 493              		@ link register save eliminated.
 494              	.LVL18:
 495              		.loc 1 427 0
 496 0000 030B     		lsrs	r3, r0, #12
 497              	.LVL19:
 498 0002 06D1     		bne	.L52
 499              		.loc 1 429 0
 500 0004 064B     		ldr	r3, .L55
 501              	.LVL20:
 502 0006 9B68     		ldr	r3, [r3, #8]
 503              	.LVL21:
 504              	.L53:
 505              		.loc 1 440 0
 506 0008 0342     		tst	r3, r0
 507              		.loc 1 450 0
 508 000a 14BF     		ite	ne
 509 000c 0120     		movne	r0, #1
 510              	.LVL22:
 511 000e 0020     		moveq	r0, #0
 512 0010 7047     		bx	lr
 513              	.LVL23:
ARM GAS  /var/folders/bz/nn5481rn5xq59rb0mbj7x0880000gn/T//ccTH9v2C.s 			page 10


 514              	.L52:
 515              		.loc 1 431 0
 516 0012 022B     		cmp	r3, #2
 517              		.loc 1 433 0
 518 0014 024B     		ldr	r3, .L55
 519              	.LVL24:
 520 0016 0CBF     		ite	eq
 521 0018 5B68     		ldreq	r3, [r3, #4]
 522              	.LVL25:
 523              		.loc 1 437 0
 524 001a 1B69     		ldrne	r3, [r3, #16]
 525              	.LVL26:
 526 001c F4E7     		b	.L53
 527              	.L56:
 528 001e 00BF     		.align	2
 529              	.L55:
 530 0020 00000550 		.word	1342504960
 531              		.cfi_endproc
 532              	.LFE122:
 533              		.size	DCMI_GetFlagStatus, .-DCMI_GetFlagStatus
 534              		.section	.text.DCMI_ClearFlag,"ax",%progbits
 535              		.align	2
 536              		.p2align 4,,15
 537              		.global	DCMI_ClearFlag
 538              		.thumb
 539              		.thumb_func
 540              		.type	DCMI_ClearFlag, %function
 541              	DCMI_ClearFlag:
 542              	.LFB123:
 543              		.loc 1 464 0
 544              		.cfi_startproc
 545              		@ args = 0, pretend = 0, frame = 0
 546              		@ frame_needed = 0, uses_anonymous_args = 0
 547              		@ link register save eliminated.
 548              	.LVL27:
 549              		.loc 1 471 0
 550 0000 014B     		ldr	r3, .L58
 551 0002 5861     		str	r0, [r3, #20]
 552 0004 7047     		bx	lr
 553              	.L59:
 554 0006 00BF     		.align	2
 555              	.L58:
 556 0008 00000550 		.word	1342504960
 557              		.cfi_endproc
 558              	.LFE123:
 559              		.size	DCMI_ClearFlag, .-DCMI_ClearFlag
 560              		.section	.text.DCMI_GetITStatus,"ax",%progbits
 561              		.align	2
 562              		.p2align 4,,15
 563              		.global	DCMI_GetITStatus
 564              		.thumb
 565              		.thumb_func
 566              		.type	DCMI_GetITStatus, %function
 567              	DCMI_GetITStatus:
 568              	.LFB124:
 569              		.loc 1 486 0
 570              		.cfi_startproc
ARM GAS  /var/folders/bz/nn5481rn5xq59rb0mbj7x0880000gn/T//ccTH9v2C.s 			page 11


 571              		@ args = 0, pretend = 0, frame = 0
 572              		@ frame_needed = 0, uses_anonymous_args = 0
 573              		@ link register save eliminated.
 574              	.LVL28:
 575              		.loc 1 493 0
 576 0000 034B     		ldr	r3, .L61
 577 0002 1B69     		ldr	r3, [r3, #16]
 578              	.LVL29:
 579              		.loc 1 495 0
 580 0004 1842     		tst	r0, r3
 581              		.loc 1 504 0
 582 0006 14BF     		ite	ne
 583 0008 0120     		movne	r0, #1
 584              	.LVL30:
 585 000a 0020     		moveq	r0, #0
 586 000c 7047     		bx	lr
 587              	.L62:
 588 000e 00BF     		.align	2
 589              	.L61:
 590 0010 00000550 		.word	1342504960
 591              		.cfi_endproc
 592              	.LFE124:
 593              		.size	DCMI_GetITStatus, .-DCMI_GetITStatus
 594              		.section	.text.DCMI_ClearITPendingBit,"ax",%progbits
 595              		.align	2
 596              		.p2align 4,,15
 597              		.global	DCMI_ClearITPendingBit
 598              		.thumb
 599              		.thumb_func
 600              		.type	DCMI_ClearITPendingBit, %function
 601              	DCMI_ClearITPendingBit:
 602              	.LFB125:
 603              		.loc 1 518 0
 604              		.cfi_startproc
 605              		@ args = 0, pretend = 0, frame = 0
 606              		@ frame_needed = 0, uses_anonymous_args = 0
 607              		@ link register save eliminated.
 608              	.LVL31:
 609              		.loc 1 522 0
 610 0000 014B     		ldr	r3, .L64
 611 0002 5861     		str	r0, [r3, #20]
 612 0004 7047     		bx	lr
 613              	.L65:
 614 0006 00BF     		.align	2
 615              	.L64:
 616 0008 00000550 		.word	1342504960
 617              		.cfi_endproc
 618              	.LFE125:
 619              		.size	DCMI_ClearITPendingBit, .-DCMI_ClearITPendingBit
 620              		.text
 621              	.Letext0:
 622              		.file 2 "/Users/imac/Downloads/gcc-arm-none-eabi-4_9-2015q2/arm-none-eabi/include/machine/_default
 623              		.file 3 "/Users/imac/Downloads/gcc-arm-none-eabi-4_9-2015q2/arm-none-eabi/include/sys/_stdint.h"
 624              		.file 4 "lib/ChibiOS_2.6.6/os/hal/platforms/STM32F4xx/stm32f4xx.h"
 625              		.file 5 "lib/ChibiOS_2.6.6/ext/stdperiph_stm32f4/inc/stm32f4xx_dcmi.h"
 626              		.file 6 "lib/ChibiOS_2.6.6/os/ports/common/ARMCMx/CMSIS/include/core_cm4.h"
 627              		.section	.debug_info,"",%progbits
ARM GAS  /var/folders/bz/nn5481rn5xq59rb0mbj7x0880000gn/T//ccTH9v2C.s 			page 12


 628              	.Ldebug_info0:
 629 0000 4E050000 		.4byte	0x54e
 630 0004 0400     		.2byte	0x4
 631 0006 00000000 		.4byte	.Ldebug_abbrev0
 632 000a 04       		.byte	0x4
 633 000b 01       		.uleb128 0x1
 634 000c 47020000 		.4byte	.LASF73
 635 0010 01       		.byte	0x1
 636 0011 00020000 		.4byte	.LASF74
 637 0015 BF040000 		.4byte	.LASF75
 638 0019 00000000 		.4byte	.Ldebug_ranges0+0
 639 001d 00000000 		.4byte	0
 640 0021 00000000 		.4byte	.Ldebug_line0
 641 0025 02       		.uleb128 0x2
 642 0026 01       		.byte	0x1
 643 0027 06       		.byte	0x6
 644 0028 99030000 		.4byte	.LASF0
 645 002c 03       		.uleb128 0x3
 646 002d D2010000 		.4byte	.LASF3
 647 0031 02       		.byte	0x2
 648 0032 1D       		.byte	0x1d
 649 0033 37000000 		.4byte	0x37
 650 0037 02       		.uleb128 0x2
 651 0038 01       		.byte	0x1
 652 0039 08       		.byte	0x8
 653 003a 6B030000 		.4byte	.LASF1
 654 003e 02       		.uleb128 0x2
 655 003f 02       		.byte	0x2
 656 0040 05       		.byte	0x5
 657 0041 D9000000 		.4byte	.LASF2
 658 0045 03       		.uleb128 0x3
 659 0046 A6000000 		.4byte	.LASF4
 660 004a 02       		.byte	0x2
 661 004b 2B       		.byte	0x2b
 662 004c 50000000 		.4byte	0x50
 663 0050 02       		.uleb128 0x2
 664 0051 02       		.byte	0x2
 665 0052 07       		.byte	0x7
 666 0053 17040000 		.4byte	.LASF5
 667 0057 03       		.uleb128 0x3
 668 0058 E6040000 		.4byte	.LASF6
 669 005c 02       		.byte	0x2
 670 005d 3F       		.byte	0x3f
 671 005e 62000000 		.4byte	0x62
 672 0062 02       		.uleb128 0x2
 673 0063 04       		.byte	0x4
 674 0064 05       		.byte	0x5
 675 0065 AE010000 		.4byte	.LASF7
 676 0069 03       		.uleb128 0x3
 677 006a 8B000000 		.4byte	.LASF8
 678 006e 02       		.byte	0x2
 679 006f 41       		.byte	0x41
 680 0070 74000000 		.4byte	0x74
 681 0074 02       		.uleb128 0x2
 682 0075 04       		.byte	0x4
 683 0076 07       		.byte	0x7
 684 0077 7C040000 		.4byte	.LASF9
ARM GAS  /var/folders/bz/nn5481rn5xq59rb0mbj7x0880000gn/T//ccTH9v2C.s 			page 13


 685 007b 02       		.uleb128 0x2
 686 007c 08       		.byte	0x8
 687 007d 05       		.byte	0x5
 688 007e 7B010000 		.4byte	.LASF10
 689 0082 02       		.uleb128 0x2
 690 0083 08       		.byte	0x8
 691 0084 07       		.byte	0x7
 692 0085 A5030000 		.4byte	.LASF11
 693 0089 04       		.uleb128 0x4
 694 008a 04       		.byte	0x4
 695 008b 05       		.byte	0x5
 696 008c 696E7400 		.ascii	"int\000"
 697 0090 02       		.uleb128 0x2
 698 0091 04       		.byte	0x4
 699 0092 07       		.byte	0x7
 700 0093 64050000 		.4byte	.LASF12
 701 0097 03       		.uleb128 0x3
 702 0098 10010000 		.4byte	.LASF13
 703 009c 03       		.byte	0x3
 704 009d 14       		.byte	0x14
 705 009e 2C000000 		.4byte	0x2c
 706 00a2 03       		.uleb128 0x3
 707 00a3 F4030000 		.4byte	.LASF14
 708 00a7 03       		.byte	0x3
 709 00a8 1A       		.byte	0x1a
 710 00a9 45000000 		.4byte	0x45
 711 00ad 03       		.uleb128 0x3
 712 00ae 2A040000 		.4byte	.LASF15
 713 00b2 03       		.byte	0x3
 714 00b3 1F       		.byte	0x1f
 715 00b4 57000000 		.4byte	0x57
 716 00b8 03       		.uleb128 0x3
 717 00b9 CA030000 		.4byte	.LASF16
 718 00bd 03       		.byte	0x3
 719 00be 20       		.byte	0x20
 720 00bf 69000000 		.4byte	0x69
 721 00c3 02       		.uleb128 0x2
 722 00c4 04       		.byte	0x4
 723 00c5 07       		.byte	0x7
 724 00c6 50000000 		.4byte	.LASF17
 725 00ca 05       		.uleb128 0x5
 726 00cb B8000000 		.4byte	0xb8
 727 00cf 05       		.uleb128 0x5
 728 00d0 AD000000 		.4byte	0xad
 729 00d4 06       		.uleb128 0x6
 730 00d5 01       		.byte	0x1
 731 00d6 04       		.byte	0x4
 732 00d7 F701     		.2byte	0x1f7
 733 00d9 EA000000 		.4byte	0xea
 734 00dd 07       		.uleb128 0x7
 735 00de F0040000 		.4byte	.LASF18
 736 00e2 00       		.sleb128 0
 737 00e3 08       		.uleb128 0x8
 738 00e4 53455400 		.ascii	"SET\000"
 739 00e8 01       		.sleb128 1
 740 00e9 00       		.byte	0
 741 00ea 09       		.uleb128 0x9
ARM GAS  /var/folders/bz/nn5481rn5xq59rb0mbj7x0880000gn/T//ccTH9v2C.s 			page 14


 742 00eb 9B000000 		.4byte	.LASF19
 743 00ef 04       		.byte	0x4
 744 00f0 F701     		.2byte	0x1f7
 745 00f2 D4000000 		.4byte	0xd4
 746 00f6 09       		.uleb128 0x9
 747 00f7 9B010000 		.4byte	.LASF20
 748 00fb 04       		.byte	0x4
 749 00fc F701     		.2byte	0x1f7
 750 00fe D4000000 		.4byte	0xd4
 751 0102 06       		.uleb128 0x6
 752 0103 01       		.byte	0x1
 753 0104 04       		.byte	0x4
 754 0105 F901     		.2byte	0x1f9
 755 0107 18010000 		.4byte	0x118
 756 010b 07       		.uleb128 0x7
 757 010c 47010000 		.4byte	.LASF21
 758 0110 00       		.sleb128 0
 759 0111 07       		.uleb128 0x7
 760 0112 8B050000 		.4byte	.LASF22
 761 0116 01       		.sleb128 1
 762 0117 00       		.byte	0
 763 0118 09       		.uleb128 0x9
 764 0119 9E040000 		.4byte	.LASF23
 765 011d 04       		.byte	0x4
 766 011e F901     		.2byte	0x1f9
 767 0120 02010000 		.4byte	0x102
 768 0124 0A       		.uleb128 0xa
 769 0125 2C       		.byte	0x2c
 770 0126 04       		.byte	0x4
 771 0127 9E02     		.2byte	0x29e
 772 0129 BA010000 		.4byte	0x1ba
 773 012d 0B       		.uleb128 0xb
 774 012e 435200   		.ascii	"CR\000"
 775 0131 04       		.byte	0x4
 776 0132 A002     		.2byte	0x2a0
 777 0134 CA000000 		.4byte	0xca
 778 0138 00       		.byte	0
 779 0139 0B       		.uleb128 0xb
 780 013a 535200   		.ascii	"SR\000"
 781 013d 04       		.byte	0x4
 782 013e A102     		.2byte	0x2a1
 783 0140 CA000000 		.4byte	0xca
 784 0144 04       		.byte	0x4
 785 0145 0C       		.uleb128 0xc
 786 0146 71050000 		.4byte	.LASF24
 787 014a 04       		.byte	0x4
 788 014b A202     		.2byte	0x2a2
 789 014d CA000000 		.4byte	0xca
 790 0151 08       		.byte	0x8
 791 0152 0B       		.uleb128 0xb
 792 0153 49455200 		.ascii	"IER\000"
 793 0157 04       		.byte	0x4
 794 0158 A302     		.2byte	0x2a3
 795 015a CA000000 		.4byte	0xca
 796 015e 0C       		.byte	0xc
 797 015f 0C       		.uleb128 0xc
 798 0160 96000000 		.4byte	.LASF25
ARM GAS  /var/folders/bz/nn5481rn5xq59rb0mbj7x0880000gn/T//ccTH9v2C.s 			page 15


 799 0164 04       		.byte	0x4
 800 0165 A402     		.2byte	0x2a4
 801 0167 CA000000 		.4byte	0xca
 802 016b 10       		.byte	0x10
 803 016c 0B       		.uleb128 0xb
 804 016d 49435200 		.ascii	"ICR\000"
 805 0171 04       		.byte	0x4
 806 0172 A502     		.2byte	0x2a5
 807 0174 CA000000 		.4byte	0xca
 808 0178 14       		.byte	0x14
 809 0179 0C       		.uleb128 0xc
 810 017a 12040000 		.4byte	.LASF26
 811 017e 04       		.byte	0x4
 812 017f A602     		.2byte	0x2a6
 813 0181 CA000000 		.4byte	0xca
 814 0185 18       		.byte	0x18
 815 0186 0C       		.uleb128 0xc
 816 0187 76050000 		.4byte	.LASF27
 817 018b 04       		.byte	0x4
 818 018c A702     		.2byte	0x2a7
 819 018e CA000000 		.4byte	0xca
 820 0192 1C       		.byte	0x1c
 821 0193 0C       		.uleb128 0xc
 822 0194 4F050000 		.4byte	.LASF28
 823 0198 04       		.byte	0x4
 824 0199 A802     		.2byte	0x2a8
 825 019b CA000000 		.4byte	0xca
 826 019f 20       		.byte	0x20
 827 01a0 0C       		.uleb128 0xc
 828 01a1 63000000 		.4byte	.LASF29
 829 01a5 04       		.byte	0x4
 830 01a6 A902     		.2byte	0x2a9
 831 01a8 CA000000 		.4byte	0xca
 832 01ac 24       		.byte	0x24
 833 01ad 0B       		.uleb128 0xb
 834 01ae 445200   		.ascii	"DR\000"
 835 01b1 04       		.byte	0x4
 836 01b2 AA02     		.2byte	0x2aa
 837 01b4 CA000000 		.4byte	0xca
 838 01b8 28       		.byte	0x28
 839 01b9 00       		.byte	0
 840 01ba 09       		.uleb128 0x9
 841 01bb D3030000 		.4byte	.LASF30
 842 01bf 04       		.byte	0x4
 843 01c0 AB02     		.2byte	0x2ab
 844 01c2 24010000 		.4byte	0x124
 845 01c6 0D       		.uleb128 0xd
 846 01c7 0E       		.byte	0xe
 847 01c8 05       		.byte	0x5
 848 01c9 33       		.byte	0x33
 849 01ca 23020000 		.4byte	0x223
 850 01ce 0E       		.uleb128 0xe
 851 01cf 0C000000 		.4byte	.LASF31
 852 01d3 05       		.byte	0x5
 853 01d4 35       		.byte	0x35
 854 01d5 A2000000 		.4byte	0xa2
 855 01d9 00       		.byte	0
ARM GAS  /var/folders/bz/nn5481rn5xq59rb0mbj7x0880000gn/T//ccTH9v2C.s 			page 16


 856 01da 0E       		.uleb128 0xe
 857 01db 2D010000 		.4byte	.LASF32
 858 01df 05       		.byte	0x5
 859 01e0 38       		.byte	0x38
 860 01e1 A2000000 		.4byte	0xa2
 861 01e5 02       		.byte	0x2
 862 01e6 0E       		.uleb128 0xe
 863 01e7 1D000000 		.4byte	.LASF33
 864 01eb 05       		.byte	0x5
 865 01ec 3B       		.byte	0x3b
 866 01ed A2000000 		.4byte	0xa2
 867 01f1 04       		.byte	0x4
 868 01f2 0E       		.uleb128 0xe
 869 01f3 40000000 		.4byte	.LASF34
 870 01f7 05       		.byte	0x5
 871 01f8 3E       		.byte	0x3e
 872 01f9 A2000000 		.4byte	0xa2
 873 01fd 06       		.byte	0x6
 874 01fe 0E       		.uleb128 0xe
 875 01ff 7B050000 		.4byte	.LASF35
 876 0203 05       		.byte	0x5
 877 0204 41       		.byte	0x41
 878 0205 A2000000 		.4byte	0xa2
 879 0209 08       		.byte	0x8
 880 020a 0E       		.uleb128 0xe
 881 020b EB000000 		.4byte	.LASF36
 882 020f 05       		.byte	0x5
 883 0210 44       		.byte	0x44
 884 0211 A2000000 		.4byte	0xa2
 885 0215 0A       		.byte	0xa
 886 0216 0E       		.uleb128 0xe
 887 0217 5C010000 		.4byte	.LASF37
 888 021b 05       		.byte	0x5
 889 021c 47       		.byte	0x47
 890 021d A2000000 		.4byte	0xa2
 891 0221 0C       		.byte	0xc
 892 0222 00       		.byte	0
 893 0223 03       		.uleb128 0x3
 894 0224 AE040000 		.4byte	.LASF38
 895 0228 05       		.byte	0x5
 896 0229 49       		.byte	0x49
 897 022a C6010000 		.4byte	0x1c6
 898 022e 0D       		.uleb128 0xd
 899 022f 08       		.byte	0x8
 900 0230 05       		.byte	0x5
 901 0231 4E       		.byte	0x4e
 902 0232 67020000 		.4byte	0x267
 903 0236 0E       		.uleb128 0xe
 904 0237 B1000000 		.4byte	.LASF39
 905 023b 05       		.byte	0x5
 906 023c 50       		.byte	0x50
 907 023d A2000000 		.4byte	0xa2
 908 0241 00       		.byte	0
 909 0242 0E       		.uleb128 0xe
 910 0243 B7010000 		.4byte	.LASF40
 911 0247 05       		.byte	0x5
 912 0248 53       		.byte	0x53
ARM GAS  /var/folders/bz/nn5481rn5xq59rb0mbj7x0880000gn/T//ccTH9v2C.s 			page 17


 913 0249 A2000000 		.4byte	0xa2
 914 024d 02       		.byte	0x2
 915 024e 0E       		.uleb128 0xe
 916 024f 40040000 		.4byte	.LASF41
 917 0253 05       		.byte	0x5
 918 0254 56       		.byte	0x56
 919 0255 A2000000 		.4byte	0xa2
 920 0259 04       		.byte	0x4
 921 025a 0E       		.uleb128 0xe
 922 025b 2E000000 		.4byte	.LASF42
 923 025f 05       		.byte	0x5
 924 0260 59       		.byte	0x59
 925 0261 A2000000 		.4byte	0xa2
 926 0265 06       		.byte	0x6
 927 0266 00       		.byte	0
 928 0267 03       		.uleb128 0x3
 929 0268 EB010000 		.4byte	.LASF43
 930 026c 05       		.byte	0x5
 931 026d 5C       		.byte	0x5c
 932 026e 2E020000 		.4byte	0x22e
 933 0272 0D       		.uleb128 0xd
 934 0273 04       		.byte	0x4
 935 0274 05       		.byte	0x5
 936 0275 61       		.byte	0x61
 937 0276 AB020000 		.4byte	0x2ab
 938 027a 0E       		.uleb128 0xe
 939 027b FC000000 		.4byte	.LASF44
 940 027f 05       		.byte	0x5
 941 0280 63       		.byte	0x63
 942 0281 97000000 		.4byte	0x97
 943 0285 00       		.byte	0
 944 0286 0E       		.uleb128 0xe
 945 0287 34050000 		.4byte	.LASF45
 946 028b 05       		.byte	0x5
 947 028c 64       		.byte	0x64
 948 028d 97000000 		.4byte	0x97
 949 0291 01       		.byte	0x1
 950 0292 0E       		.uleb128 0xe
 951 0293 C8000000 		.4byte	.LASF46
 952 0297 05       		.byte	0x5
 953 0298 65       		.byte	0x65
 954 0299 97000000 		.4byte	0x97
 955 029d 02       		.byte	0x2
 956 029e 0E       		.uleb128 0xe
 957 029f 89010000 		.4byte	.LASF47
 958 02a3 05       		.byte	0x5
 959 02a4 66       		.byte	0x66
 960 02a5 97000000 		.4byte	0x97
 961 02a9 03       		.byte	0x3
 962 02aa 00       		.byte	0
 963 02ab 03       		.uleb128 0x3
 964 02ac F6040000 		.4byte	.LASF48
 965 02b0 05       		.byte	0x5
 966 02b1 67       		.byte	0x67
 967 02b2 72020000 		.4byte	0x272
 968 02b6 0F       		.uleb128 0xf
 969 02b7 00000000 		.4byte	.LASF76
ARM GAS  /var/folders/bz/nn5481rn5xq59rb0mbj7x0880000gn/T//ccTH9v2C.s 			page 18


 970 02bb 01       		.byte	0x1
 971 02bc 80       		.byte	0x80
 972 02bd 00000000 		.4byte	.LFB111
 973 02c1 1C000000 		.4byte	.LFE111-.LFB111
 974 02c5 01       		.uleb128 0x1
 975 02c6 9C       		.byte	0x9c
 976 02c7 10       		.uleb128 0x10
 977 02c8 A4010000 		.4byte	.LASF49
 978 02cc 01       		.byte	0x1
 979 02cd 91       		.byte	0x91
 980 02ce 00000000 		.4byte	.LFB112
 981 02d2 48000000 		.4byte	.LFE112-.LFB112
 982 02d6 01       		.uleb128 0x1
 983 02d7 9C       		.byte	0x9c
 984 02d8 FB020000 		.4byte	0x2fb
 985 02dc 11       		.uleb128 0x11
 986 02dd 02040000 		.4byte	.LASF51
 987 02e1 01       		.byte	0x1
 988 02e2 91       		.byte	0x91
 989 02e3 FB020000 		.4byte	0x2fb
 990 02e7 00000000 		.4byte	.LLST0
 991 02eb 12       		.uleb128 0x12
 992 02ec FD030000 		.4byte	.LASF64
 993 02f0 01       		.byte	0x1
 994 02f1 93       		.byte	0x93
 995 02f2 B8000000 		.4byte	0xb8
 996 02f6 21000000 		.4byte	.LLST1
 997 02fa 00       		.byte	0
 998 02fb 13       		.uleb128 0x13
 999 02fc 04       		.byte	0x4
 1000 02fd 23020000 		.4byte	0x223
 1001 0301 10       		.uleb128 0x10
 1002 0302 6B000000 		.4byte	.LASF50
 1003 0306 01       		.byte	0x1
 1004 0307 BB       		.byte	0xbb
 1005 0308 00000000 		.4byte	.LFB113
 1006 030c 12000000 		.4byte	.LFE113-.LFB113
 1007 0310 01       		.uleb128 0x1
 1008 0311 9C       		.byte	0x9c
 1009 0312 24030000 		.4byte	0x324
 1010 0316 14       		.uleb128 0x14
 1011 0317 02040000 		.4byte	.LASF51
 1012 031b 01       		.byte	0x1
 1013 031c BB       		.byte	0xbb
 1014 031d FB020000 		.4byte	0x2fb
 1015 0321 01       		.uleb128 0x1
 1016 0322 50       		.byte	0x50
 1017 0323 00       		.byte	0
 1018 0324 10       		.uleb128 0x10
 1019 0325 8E040000 		.4byte	.LASF52
 1020 0329 01       		.byte	0x1
 1021 032a CF       		.byte	0xcf
 1022 032b 00000000 		.4byte	.LFB114
 1023 032f 20000000 		.4byte	.LFE114-.LFB114
 1024 0333 01       		.uleb128 0x1
 1025 0334 9C       		.byte	0x9c
 1026 0335 47030000 		.4byte	0x347
ARM GAS  /var/folders/bz/nn5481rn5xq59rb0mbj7x0880000gn/T//ccTH9v2C.s 			page 19


 1027 0339 14       		.uleb128 0x14
 1028 033a E0030000 		.4byte	.LASF53
 1029 033e 01       		.byte	0x1
 1030 033f CF       		.byte	0xcf
 1031 0340 47030000 		.4byte	0x347
 1032 0344 01       		.uleb128 0x1
 1033 0345 50       		.byte	0x50
 1034 0346 00       		.byte	0
 1035 0347 13       		.uleb128 0x13
 1036 0348 04       		.byte	0x4
 1037 0349 67020000 		.4byte	0x267
 1038 034d 10       		.uleb128 0x10
 1039 034e 79030000 		.4byte	.LASF54
 1040 0352 01       		.byte	0x1
 1041 0353 E1       		.byte	0xe1
 1042 0354 00000000 		.4byte	.LFB115
 1043 0358 1C000000 		.4byte	.LFE115-.LFB115
 1044 035c 01       		.uleb128 0x1
 1045 035d 9C       		.byte	0x9c
 1046 035e 70030000 		.4byte	0x370
 1047 0362 14       		.uleb128 0x14
 1048 0363 3E010000 		.4byte	.LASF55
 1049 0367 01       		.byte	0x1
 1050 0368 E1       		.byte	0xe1
 1051 0369 18010000 		.4byte	0x118
 1052 036d 01       		.uleb128 0x1
 1053 036e 50       		.byte	0x50
 1054 036f 00       		.byte	0
 1055 0370 10       		.uleb128 0x10
 1056 0371 5F040000 		.4byte	.LASF56
 1057 0375 01       		.byte	0x1
 1058 0376 F8       		.byte	0xf8
 1059 0377 00000000 		.4byte	.LFB116
 1060 037b 24000000 		.4byte	.LFE116-.LFB116
 1061 037f 01       		.uleb128 0x1
 1062 0380 9C       		.byte	0x9c
 1063 0381 95030000 		.4byte	0x395
 1064 0385 11       		.uleb128 0x11
 1065 0386 18010000 		.4byte	.LASF57
 1066 038a 01       		.byte	0x1
 1067 038b F8       		.byte	0xf8
 1068 038c 95030000 		.4byte	0x395
 1069 0390 4B000000 		.4byte	.LLST2
 1070 0394 00       		.byte	0
 1071 0395 13       		.uleb128 0x13
 1072 0396 04       		.byte	0x4
 1073 0397 AB020000 		.4byte	0x2ab
 1074 039b 15       		.uleb128 0x15
 1075 039c 4F010000 		.4byte	.LASF58
 1076 03a0 01       		.byte	0x1
 1077 03a1 0701     		.2byte	0x107
 1078 03a3 00000000 		.4byte	.LFB117
 1079 03a7 1C000000 		.4byte	.LFE117-.LFB117
 1080 03ab 01       		.uleb128 0x1
 1081 03ac 9C       		.byte	0x9c
 1082 03ad C0030000 		.4byte	0x3c0
 1083 03b1 16       		.uleb128 0x16
ARM GAS  /var/folders/bz/nn5481rn5xq59rb0mbj7x0880000gn/T//ccTH9v2C.s 			page 20


 1084 03b2 3E010000 		.4byte	.LASF55
 1085 03b6 01       		.byte	0x1
 1086 03b7 0701     		.2byte	0x107
 1087 03b9 18010000 		.4byte	0x118
 1088 03bd 01       		.uleb128 0x1
 1089 03be 50       		.byte	0x50
 1090 03bf 00       		.byte	0
 1091 03c0 15       		.uleb128 0x15
 1092 03c1 72010000 		.4byte	.LASF59
 1093 03c5 01       		.byte	0x1
 1094 03c6 2D01     		.2byte	0x12d
 1095 03c8 00000000 		.4byte	.LFB118
 1096 03cc 1C000000 		.4byte	.LFE118-.LFB118
 1097 03d0 01       		.uleb128 0x1
 1098 03d1 9C       		.byte	0x9c
 1099 03d2 E5030000 		.4byte	0x3e5
 1100 03d6 16       		.uleb128 0x16
 1101 03d7 3E010000 		.4byte	.LASF55
 1102 03db 01       		.byte	0x1
 1103 03dc 2D01     		.2byte	0x12d
 1104 03de 18010000 		.4byte	0x118
 1105 03e2 01       		.uleb128 0x1
 1106 03e3 50       		.byte	0x50
 1107 03e4 00       		.byte	0
 1108 03e5 15       		.uleb128 0x15
 1109 03e6 7B000000 		.4byte	.LASF60
 1110 03ea 01       		.byte	0x1
 1111 03eb 4401     		.2byte	0x144
 1112 03ed 00000000 		.4byte	.LFB119
 1113 03f1 1C000000 		.4byte	.LFE119-.LFB119
 1114 03f5 01       		.uleb128 0x1
 1115 03f6 9C       		.byte	0x9c
 1116 03f7 0A040000 		.4byte	0x40a
 1117 03fb 16       		.uleb128 0x16
 1118 03fc 3E010000 		.4byte	.LASF55
 1119 0400 01       		.byte	0x1
 1120 0401 4401     		.2byte	0x144
 1121 0403 18010000 		.4byte	0x118
 1122 0407 01       		.uleb128 0x1
 1123 0408 50       		.byte	0x50
 1124 0409 00       		.byte	0
 1125 040a 17       		.uleb128 0x17
 1126 040b BC030000 		.4byte	.LASF77
 1127 040f 01       		.byte	0x1
 1128 0410 5A01     		.2byte	0x15a
 1129 0412 B8000000 		.4byte	0xb8
 1130 0416 00000000 		.4byte	.LFB120
 1131 041a 0C000000 		.4byte	.LFE120-.LFB120
 1132 041e 01       		.uleb128 0x1
 1133 041f 9C       		.byte	0x9c
 1134 0420 15       		.uleb128 0x15
 1135 0421 32040000 		.4byte	.LASF61
 1136 0425 01       		.byte	0x1
 1137 0426 7B01     		.2byte	0x17b
 1138 0428 00000000 		.4byte	.LFB121
 1139 042c 1C000000 		.4byte	.LFE121-.LFB121
 1140 0430 01       		.uleb128 0x1
ARM GAS  /var/folders/bz/nn5481rn5xq59rb0mbj7x0880000gn/T//ccTH9v2C.s 			page 21


 1141 0431 9C       		.byte	0x9c
 1142 0432 55040000 		.4byte	0x455
 1143 0436 18       		.uleb128 0x18
 1144 0437 E3000000 		.4byte	.LASF62
 1145 043b 01       		.byte	0x1
 1146 043c 7B01     		.2byte	0x17b
 1147 043e A2000000 		.4byte	0xa2
 1148 0442 6C000000 		.4byte	.LLST3
 1149 0446 16       		.uleb128 0x16
 1150 0447 3E010000 		.4byte	.LASF55
 1151 044b 01       		.byte	0x1
 1152 044c 7B01     		.2byte	0x17b
 1153 044e 18010000 		.4byte	0x118
 1154 0452 01       		.uleb128 0x1
 1155 0453 51       		.byte	0x51
 1156 0454 00       		.byte	0
 1157 0455 19       		.uleb128 0x19
 1158 0456 86030000 		.4byte	.LASF69
 1159 045a 01       		.byte	0x1
 1160 045b A001     		.2byte	0x1a0
 1161 045d EA000000 		.4byte	0xea
 1162 0461 00000000 		.4byte	.LFB122
 1163 0465 24000000 		.4byte	.LFE122-.LFB122
 1164 0469 01       		.uleb128 0x1
 1165 046a 9C       		.byte	0x9c
 1166 046b B0040000 		.4byte	0x4b0
 1167 046f 18       		.uleb128 0x18
 1168 0470 59000000 		.4byte	.LASF63
 1169 0474 01       		.byte	0x1
 1170 0475 A001     		.2byte	0x1a0
 1171 0477 A2000000 		.4byte	0xa2
 1172 047b A6000000 		.4byte	.LLST4
 1173 047f 1A       		.uleb128 0x1a
 1174 0480 3D020000 		.4byte	.LASF65
 1175 0484 01       		.byte	0x1
 1176 0485 A201     		.2byte	0x1a2
 1177 0487 EA000000 		.4byte	0xea
 1178 048b D2000000 		.4byte	.LLST5
 1179 048f 1A       		.uleb128 0x1a
 1180 0490 47050000 		.4byte	.LASF66
 1181 0494 01       		.byte	0x1
 1182 0495 A301     		.2byte	0x1a3
 1183 0497 B8000000 		.4byte	0xb8
 1184 049b 1F010000 		.4byte	.LLST6
 1185 049f 1A       		.uleb128 0x1a
 1186 04a0 57040000 		.4byte	.LASF67
 1187 04a4 01       		.byte	0x1
 1188 04a5 A301     		.2byte	0x1a3
 1189 04a7 B8000000 		.4byte	0xb8
 1190 04ab 6A010000 		.4byte	.LLST7
 1191 04af 00       		.byte	0
 1192 04b0 15       		.uleb128 0x15
 1193 04b1 DC010000 		.4byte	.LASF68
 1194 04b5 01       		.byte	0x1
 1195 04b6 CF01     		.2byte	0x1cf
 1196 04b8 00000000 		.4byte	.LFB123
 1197 04bc 0C000000 		.4byte	.LFE123-.LFB123
ARM GAS  /var/folders/bz/nn5481rn5xq59rb0mbj7x0880000gn/T//ccTH9v2C.s 			page 22


 1198 04c0 01       		.uleb128 0x1
 1199 04c1 9C       		.byte	0x9c
 1200 04c2 D5040000 		.4byte	0x4d5
 1201 04c6 16       		.uleb128 0x16
 1202 04c7 59000000 		.4byte	.LASF63
 1203 04cb 01       		.byte	0x1
 1204 04cc CF01     		.2byte	0x1cf
 1205 04ce A2000000 		.4byte	0xa2
 1206 04d2 01       		.uleb128 0x1
 1207 04d3 50       		.byte	0x50
 1208 04d4 00       		.byte	0
 1209 04d5 19       		.uleb128 0x19
 1210 04d6 23050000 		.4byte	.LASF70
 1211 04da 01       		.byte	0x1
 1212 04db E501     		.2byte	0x1e5
 1213 04dd F6000000 		.4byte	0xf6
 1214 04e1 00000000 		.4byte	.LFB124
 1215 04e5 14000000 		.4byte	.LFE124-.LFB124
 1216 04e9 01       		.uleb128 0x1
 1217 04ea 9C       		.byte	0x9c
 1218 04eb 20050000 		.4byte	0x520
 1219 04ef 18       		.uleb128 0x18
 1220 04f0 E3000000 		.4byte	.LASF62
 1221 04f4 01       		.byte	0x1
 1222 04f5 E501     		.2byte	0x1e5
 1223 04f7 A2000000 		.4byte	0xa2
 1224 04fb A0010000 		.4byte	.LLST8
 1225 04ff 1A       		.uleb128 0x1a
 1226 0500 3D020000 		.4byte	.LASF65
 1227 0504 01       		.byte	0x1
 1228 0505 E701     		.2byte	0x1e7
 1229 0507 F6000000 		.4byte	0xf6
 1230 050b C1010000 		.4byte	.LLST9
 1231 050f 1A       		.uleb128 0x1a
 1232 0510 92050000 		.4byte	.LASF71
 1233 0514 01       		.byte	0x1
 1234 0515 E801     		.2byte	0x1e8
 1235 0517 B8000000 		.4byte	0xb8
 1236 051b 02020000 		.4byte	.LLST10
 1237 051f 00       		.byte	0
 1238 0520 15       		.uleb128 0x15
 1239 0521 0C050000 		.4byte	.LASF72
 1240 0525 01       		.byte	0x1
 1241 0526 0502     		.2byte	0x205
 1242 0528 00000000 		.4byte	.LFB125
 1243 052c 0C000000 		.4byte	.LFE125-.LFB125
 1244 0530 01       		.uleb128 0x1
 1245 0531 9C       		.byte	0x9c
 1246 0532 45050000 		.4byte	0x545
 1247 0536 16       		.uleb128 0x16
 1248 0537 E3000000 		.4byte	.LASF62
 1249 053b 01       		.byte	0x1
 1250 053c 0502     		.2byte	0x205
 1251 053e A2000000 		.4byte	0xa2
 1252 0542 01       		.uleb128 0x1
 1253 0543 50       		.byte	0x50
 1254 0544 00       		.byte	0
ARM GAS  /var/folders/bz/nn5481rn5xq59rb0mbj7x0880000gn/T//ccTH9v2C.s 			page 23


 1255 0545 1B       		.uleb128 0x1b
 1256 0546 57050000 		.4byte	.LASF78
 1257 054a 06       		.byte	0x6
 1258 054b 9806     		.2byte	0x698
 1259 054d CF000000 		.4byte	0xcf
 1260 0551 00       		.byte	0
 1261              		.section	.debug_abbrev,"",%progbits
 1262              	.Ldebug_abbrev0:
 1263 0000 01       		.uleb128 0x1
 1264 0001 11       		.uleb128 0x11
 1265 0002 01       		.byte	0x1
 1266 0003 25       		.uleb128 0x25
 1267 0004 0E       		.uleb128 0xe
 1268 0005 13       		.uleb128 0x13
 1269 0006 0B       		.uleb128 0xb
 1270 0007 03       		.uleb128 0x3
 1271 0008 0E       		.uleb128 0xe
 1272 0009 1B       		.uleb128 0x1b
 1273 000a 0E       		.uleb128 0xe
 1274 000b 55       		.uleb128 0x55
 1275 000c 17       		.uleb128 0x17
 1276 000d 11       		.uleb128 0x11
 1277 000e 01       		.uleb128 0x1
 1278 000f 10       		.uleb128 0x10
 1279 0010 17       		.uleb128 0x17
 1280 0011 00       		.byte	0
 1281 0012 00       		.byte	0
 1282 0013 02       		.uleb128 0x2
 1283 0014 24       		.uleb128 0x24
 1284 0015 00       		.byte	0
 1285 0016 0B       		.uleb128 0xb
 1286 0017 0B       		.uleb128 0xb
 1287 0018 3E       		.uleb128 0x3e
 1288 0019 0B       		.uleb128 0xb
 1289 001a 03       		.uleb128 0x3
 1290 001b 0E       		.uleb128 0xe
 1291 001c 00       		.byte	0
 1292 001d 00       		.byte	0
 1293 001e 03       		.uleb128 0x3
 1294 001f 16       		.uleb128 0x16
 1295 0020 00       		.byte	0
 1296 0021 03       		.uleb128 0x3
 1297 0022 0E       		.uleb128 0xe
 1298 0023 3A       		.uleb128 0x3a
 1299 0024 0B       		.uleb128 0xb
 1300 0025 3B       		.uleb128 0x3b
 1301 0026 0B       		.uleb128 0xb
 1302 0027 49       		.uleb128 0x49
 1303 0028 13       		.uleb128 0x13
 1304 0029 00       		.byte	0
 1305 002a 00       		.byte	0
 1306 002b 04       		.uleb128 0x4
 1307 002c 24       		.uleb128 0x24
 1308 002d 00       		.byte	0
 1309 002e 0B       		.uleb128 0xb
 1310 002f 0B       		.uleb128 0xb
 1311 0030 3E       		.uleb128 0x3e
ARM GAS  /var/folders/bz/nn5481rn5xq59rb0mbj7x0880000gn/T//ccTH9v2C.s 			page 24


 1312 0031 0B       		.uleb128 0xb
 1313 0032 03       		.uleb128 0x3
 1314 0033 08       		.uleb128 0x8
 1315 0034 00       		.byte	0
 1316 0035 00       		.byte	0
 1317 0036 05       		.uleb128 0x5
 1318 0037 35       		.uleb128 0x35
 1319 0038 00       		.byte	0
 1320 0039 49       		.uleb128 0x49
 1321 003a 13       		.uleb128 0x13
 1322 003b 00       		.byte	0
 1323 003c 00       		.byte	0
 1324 003d 06       		.uleb128 0x6
 1325 003e 04       		.uleb128 0x4
 1326 003f 01       		.byte	0x1
 1327 0040 0B       		.uleb128 0xb
 1328 0041 0B       		.uleb128 0xb
 1329 0042 3A       		.uleb128 0x3a
 1330 0043 0B       		.uleb128 0xb
 1331 0044 3B       		.uleb128 0x3b
 1332 0045 05       		.uleb128 0x5
 1333 0046 01       		.uleb128 0x1
 1334 0047 13       		.uleb128 0x13
 1335 0048 00       		.byte	0
 1336 0049 00       		.byte	0
 1337 004a 07       		.uleb128 0x7
 1338 004b 28       		.uleb128 0x28
 1339 004c 00       		.byte	0
 1340 004d 03       		.uleb128 0x3
 1341 004e 0E       		.uleb128 0xe
 1342 004f 1C       		.uleb128 0x1c
 1343 0050 0D       		.uleb128 0xd
 1344 0051 00       		.byte	0
 1345 0052 00       		.byte	0
 1346 0053 08       		.uleb128 0x8
 1347 0054 28       		.uleb128 0x28
 1348 0055 00       		.byte	0
 1349 0056 03       		.uleb128 0x3
 1350 0057 08       		.uleb128 0x8
 1351 0058 1C       		.uleb128 0x1c
 1352 0059 0D       		.uleb128 0xd
 1353 005a 00       		.byte	0
 1354 005b 00       		.byte	0
 1355 005c 09       		.uleb128 0x9
 1356 005d 16       		.uleb128 0x16
 1357 005e 00       		.byte	0
 1358 005f 03       		.uleb128 0x3
 1359 0060 0E       		.uleb128 0xe
 1360 0061 3A       		.uleb128 0x3a
 1361 0062 0B       		.uleb128 0xb
 1362 0063 3B       		.uleb128 0x3b
 1363 0064 05       		.uleb128 0x5
 1364 0065 49       		.uleb128 0x49
 1365 0066 13       		.uleb128 0x13
 1366 0067 00       		.byte	0
 1367 0068 00       		.byte	0
 1368 0069 0A       		.uleb128 0xa
ARM GAS  /var/folders/bz/nn5481rn5xq59rb0mbj7x0880000gn/T//ccTH9v2C.s 			page 25


 1369 006a 13       		.uleb128 0x13
 1370 006b 01       		.byte	0x1
 1371 006c 0B       		.uleb128 0xb
 1372 006d 0B       		.uleb128 0xb
 1373 006e 3A       		.uleb128 0x3a
 1374 006f 0B       		.uleb128 0xb
 1375 0070 3B       		.uleb128 0x3b
 1376 0071 05       		.uleb128 0x5
 1377 0072 01       		.uleb128 0x1
 1378 0073 13       		.uleb128 0x13
 1379 0074 00       		.byte	0
 1380 0075 00       		.byte	0
 1381 0076 0B       		.uleb128 0xb
 1382 0077 0D       		.uleb128 0xd
 1383 0078 00       		.byte	0
 1384 0079 03       		.uleb128 0x3
 1385 007a 08       		.uleb128 0x8
 1386 007b 3A       		.uleb128 0x3a
 1387 007c 0B       		.uleb128 0xb
 1388 007d 3B       		.uleb128 0x3b
 1389 007e 05       		.uleb128 0x5
 1390 007f 49       		.uleb128 0x49
 1391 0080 13       		.uleb128 0x13
 1392 0081 38       		.uleb128 0x38
 1393 0082 0B       		.uleb128 0xb
 1394 0083 00       		.byte	0
 1395 0084 00       		.byte	0
 1396 0085 0C       		.uleb128 0xc
 1397 0086 0D       		.uleb128 0xd
 1398 0087 00       		.byte	0
 1399 0088 03       		.uleb128 0x3
 1400 0089 0E       		.uleb128 0xe
 1401 008a 3A       		.uleb128 0x3a
 1402 008b 0B       		.uleb128 0xb
 1403 008c 3B       		.uleb128 0x3b
 1404 008d 05       		.uleb128 0x5
 1405 008e 49       		.uleb128 0x49
 1406 008f 13       		.uleb128 0x13
 1407 0090 38       		.uleb128 0x38
 1408 0091 0B       		.uleb128 0xb
 1409 0092 00       		.byte	0
 1410 0093 00       		.byte	0
 1411 0094 0D       		.uleb128 0xd
 1412 0095 13       		.uleb128 0x13
 1413 0096 01       		.byte	0x1
 1414 0097 0B       		.uleb128 0xb
 1415 0098 0B       		.uleb128 0xb
 1416 0099 3A       		.uleb128 0x3a
 1417 009a 0B       		.uleb128 0xb
 1418 009b 3B       		.uleb128 0x3b
 1419 009c 0B       		.uleb128 0xb
 1420 009d 01       		.uleb128 0x1
 1421 009e 13       		.uleb128 0x13
 1422 009f 00       		.byte	0
 1423 00a0 00       		.byte	0
 1424 00a1 0E       		.uleb128 0xe
 1425 00a2 0D       		.uleb128 0xd
ARM GAS  /var/folders/bz/nn5481rn5xq59rb0mbj7x0880000gn/T//ccTH9v2C.s 			page 26


 1426 00a3 00       		.byte	0
 1427 00a4 03       		.uleb128 0x3
 1428 00a5 0E       		.uleb128 0xe
 1429 00a6 3A       		.uleb128 0x3a
 1430 00a7 0B       		.uleb128 0xb
 1431 00a8 3B       		.uleb128 0x3b
 1432 00a9 0B       		.uleb128 0xb
 1433 00aa 49       		.uleb128 0x49
 1434 00ab 13       		.uleb128 0x13
 1435 00ac 38       		.uleb128 0x38
 1436 00ad 0B       		.uleb128 0xb
 1437 00ae 00       		.byte	0
 1438 00af 00       		.byte	0
 1439 00b0 0F       		.uleb128 0xf
 1440 00b1 2E       		.uleb128 0x2e
 1441 00b2 00       		.byte	0
 1442 00b3 3F       		.uleb128 0x3f
 1443 00b4 19       		.uleb128 0x19
 1444 00b5 03       		.uleb128 0x3
 1445 00b6 0E       		.uleb128 0xe
 1446 00b7 3A       		.uleb128 0x3a
 1447 00b8 0B       		.uleb128 0xb
 1448 00b9 3B       		.uleb128 0x3b
 1449 00ba 0B       		.uleb128 0xb
 1450 00bb 27       		.uleb128 0x27
 1451 00bc 19       		.uleb128 0x19
 1452 00bd 11       		.uleb128 0x11
 1453 00be 01       		.uleb128 0x1
 1454 00bf 12       		.uleb128 0x12
 1455 00c0 06       		.uleb128 0x6
 1456 00c1 40       		.uleb128 0x40
 1457 00c2 18       		.uleb128 0x18
 1458 00c3 9742     		.uleb128 0x2117
 1459 00c5 19       		.uleb128 0x19
 1460 00c6 00       		.byte	0
 1461 00c7 00       		.byte	0
 1462 00c8 10       		.uleb128 0x10
 1463 00c9 2E       		.uleb128 0x2e
 1464 00ca 01       		.byte	0x1
 1465 00cb 3F       		.uleb128 0x3f
 1466 00cc 19       		.uleb128 0x19
 1467 00cd 03       		.uleb128 0x3
 1468 00ce 0E       		.uleb128 0xe
 1469 00cf 3A       		.uleb128 0x3a
 1470 00d0 0B       		.uleb128 0xb
 1471 00d1 3B       		.uleb128 0x3b
 1472 00d2 0B       		.uleb128 0xb
 1473 00d3 27       		.uleb128 0x27
 1474 00d4 19       		.uleb128 0x19
 1475 00d5 11       		.uleb128 0x11
 1476 00d6 01       		.uleb128 0x1
 1477 00d7 12       		.uleb128 0x12
 1478 00d8 06       		.uleb128 0x6
 1479 00d9 40       		.uleb128 0x40
 1480 00da 18       		.uleb128 0x18
 1481 00db 9742     		.uleb128 0x2117
 1482 00dd 19       		.uleb128 0x19
ARM GAS  /var/folders/bz/nn5481rn5xq59rb0mbj7x0880000gn/T//ccTH9v2C.s 			page 27


 1483 00de 01       		.uleb128 0x1
 1484 00df 13       		.uleb128 0x13
 1485 00e0 00       		.byte	0
 1486 00e1 00       		.byte	0
 1487 00e2 11       		.uleb128 0x11
 1488 00e3 05       		.uleb128 0x5
 1489 00e4 00       		.byte	0
 1490 00e5 03       		.uleb128 0x3
 1491 00e6 0E       		.uleb128 0xe
 1492 00e7 3A       		.uleb128 0x3a
 1493 00e8 0B       		.uleb128 0xb
 1494 00e9 3B       		.uleb128 0x3b
 1495 00ea 0B       		.uleb128 0xb
 1496 00eb 49       		.uleb128 0x49
 1497 00ec 13       		.uleb128 0x13
 1498 00ed 02       		.uleb128 0x2
 1499 00ee 17       		.uleb128 0x17
 1500 00ef 00       		.byte	0
 1501 00f0 00       		.byte	0
 1502 00f1 12       		.uleb128 0x12
 1503 00f2 34       		.uleb128 0x34
 1504 00f3 00       		.byte	0
 1505 00f4 03       		.uleb128 0x3
 1506 00f5 0E       		.uleb128 0xe
 1507 00f6 3A       		.uleb128 0x3a
 1508 00f7 0B       		.uleb128 0xb
 1509 00f8 3B       		.uleb128 0x3b
 1510 00f9 0B       		.uleb128 0xb
 1511 00fa 49       		.uleb128 0x49
 1512 00fb 13       		.uleb128 0x13
 1513 00fc 02       		.uleb128 0x2
 1514 00fd 17       		.uleb128 0x17
 1515 00fe 00       		.byte	0
 1516 00ff 00       		.byte	0
 1517 0100 13       		.uleb128 0x13
 1518 0101 0F       		.uleb128 0xf
 1519 0102 00       		.byte	0
 1520 0103 0B       		.uleb128 0xb
 1521 0104 0B       		.uleb128 0xb
 1522 0105 49       		.uleb128 0x49
 1523 0106 13       		.uleb128 0x13
 1524 0107 00       		.byte	0
 1525 0108 00       		.byte	0
 1526 0109 14       		.uleb128 0x14
 1527 010a 05       		.uleb128 0x5
 1528 010b 00       		.byte	0
 1529 010c 03       		.uleb128 0x3
 1530 010d 0E       		.uleb128 0xe
 1531 010e 3A       		.uleb128 0x3a
 1532 010f 0B       		.uleb128 0xb
 1533 0110 3B       		.uleb128 0x3b
 1534 0111 0B       		.uleb128 0xb
 1535 0112 49       		.uleb128 0x49
 1536 0113 13       		.uleb128 0x13
 1537 0114 02       		.uleb128 0x2
 1538 0115 18       		.uleb128 0x18
 1539 0116 00       		.byte	0
ARM GAS  /var/folders/bz/nn5481rn5xq59rb0mbj7x0880000gn/T//ccTH9v2C.s 			page 28


 1540 0117 00       		.byte	0
 1541 0118 15       		.uleb128 0x15
 1542 0119 2E       		.uleb128 0x2e
 1543 011a 01       		.byte	0x1
 1544 011b 3F       		.uleb128 0x3f
 1545 011c 19       		.uleb128 0x19
 1546 011d 03       		.uleb128 0x3
 1547 011e 0E       		.uleb128 0xe
 1548 011f 3A       		.uleb128 0x3a
 1549 0120 0B       		.uleb128 0xb
 1550 0121 3B       		.uleb128 0x3b
 1551 0122 05       		.uleb128 0x5
 1552 0123 27       		.uleb128 0x27
 1553 0124 19       		.uleb128 0x19
 1554 0125 11       		.uleb128 0x11
 1555 0126 01       		.uleb128 0x1
 1556 0127 12       		.uleb128 0x12
 1557 0128 06       		.uleb128 0x6
 1558 0129 40       		.uleb128 0x40
 1559 012a 18       		.uleb128 0x18
 1560 012b 9742     		.uleb128 0x2117
 1561 012d 19       		.uleb128 0x19
 1562 012e 01       		.uleb128 0x1
 1563 012f 13       		.uleb128 0x13
 1564 0130 00       		.byte	0
 1565 0131 00       		.byte	0
 1566 0132 16       		.uleb128 0x16
 1567 0133 05       		.uleb128 0x5
 1568 0134 00       		.byte	0
 1569 0135 03       		.uleb128 0x3
 1570 0136 0E       		.uleb128 0xe
 1571 0137 3A       		.uleb128 0x3a
 1572 0138 0B       		.uleb128 0xb
 1573 0139 3B       		.uleb128 0x3b
 1574 013a 05       		.uleb128 0x5
 1575 013b 49       		.uleb128 0x49
 1576 013c 13       		.uleb128 0x13
 1577 013d 02       		.uleb128 0x2
 1578 013e 18       		.uleb128 0x18
 1579 013f 00       		.byte	0
 1580 0140 00       		.byte	0
 1581 0141 17       		.uleb128 0x17
 1582 0142 2E       		.uleb128 0x2e
 1583 0143 00       		.byte	0
 1584 0144 3F       		.uleb128 0x3f
 1585 0145 19       		.uleb128 0x19
 1586 0146 03       		.uleb128 0x3
 1587 0147 0E       		.uleb128 0xe
 1588 0148 3A       		.uleb128 0x3a
 1589 0149 0B       		.uleb128 0xb
 1590 014a 3B       		.uleb128 0x3b
 1591 014b 05       		.uleb128 0x5
 1592 014c 27       		.uleb128 0x27
 1593 014d 19       		.uleb128 0x19
 1594 014e 49       		.uleb128 0x49
 1595 014f 13       		.uleb128 0x13
 1596 0150 11       		.uleb128 0x11
ARM GAS  /var/folders/bz/nn5481rn5xq59rb0mbj7x0880000gn/T//ccTH9v2C.s 			page 29


 1597 0151 01       		.uleb128 0x1
 1598 0152 12       		.uleb128 0x12
 1599 0153 06       		.uleb128 0x6
 1600 0154 40       		.uleb128 0x40
 1601 0155 18       		.uleb128 0x18
 1602 0156 9742     		.uleb128 0x2117
 1603 0158 19       		.uleb128 0x19
 1604 0159 00       		.byte	0
 1605 015a 00       		.byte	0
 1606 015b 18       		.uleb128 0x18
 1607 015c 05       		.uleb128 0x5
 1608 015d 00       		.byte	0
 1609 015e 03       		.uleb128 0x3
 1610 015f 0E       		.uleb128 0xe
 1611 0160 3A       		.uleb128 0x3a
 1612 0161 0B       		.uleb128 0xb
 1613 0162 3B       		.uleb128 0x3b
 1614 0163 05       		.uleb128 0x5
 1615 0164 49       		.uleb128 0x49
 1616 0165 13       		.uleb128 0x13
 1617 0166 02       		.uleb128 0x2
 1618 0167 17       		.uleb128 0x17
 1619 0168 00       		.byte	0
 1620 0169 00       		.byte	0
 1621 016a 19       		.uleb128 0x19
 1622 016b 2E       		.uleb128 0x2e
 1623 016c 01       		.byte	0x1
 1624 016d 3F       		.uleb128 0x3f
 1625 016e 19       		.uleb128 0x19
 1626 016f 03       		.uleb128 0x3
 1627 0170 0E       		.uleb128 0xe
 1628 0171 3A       		.uleb128 0x3a
 1629 0172 0B       		.uleb128 0xb
 1630 0173 3B       		.uleb128 0x3b
 1631 0174 05       		.uleb128 0x5
 1632 0175 27       		.uleb128 0x27
 1633 0176 19       		.uleb128 0x19
 1634 0177 49       		.uleb128 0x49
 1635 0178 13       		.uleb128 0x13
 1636 0179 11       		.uleb128 0x11
 1637 017a 01       		.uleb128 0x1
 1638 017b 12       		.uleb128 0x12
 1639 017c 06       		.uleb128 0x6
 1640 017d 40       		.uleb128 0x40
 1641 017e 18       		.uleb128 0x18
 1642 017f 9742     		.uleb128 0x2117
 1643 0181 19       		.uleb128 0x19
 1644 0182 01       		.uleb128 0x1
 1645 0183 13       		.uleb128 0x13
 1646 0184 00       		.byte	0
 1647 0185 00       		.byte	0
 1648 0186 1A       		.uleb128 0x1a
 1649 0187 34       		.uleb128 0x34
 1650 0188 00       		.byte	0
 1651 0189 03       		.uleb128 0x3
 1652 018a 0E       		.uleb128 0xe
 1653 018b 3A       		.uleb128 0x3a
ARM GAS  /var/folders/bz/nn5481rn5xq59rb0mbj7x0880000gn/T//ccTH9v2C.s 			page 30


 1654 018c 0B       		.uleb128 0xb
 1655 018d 3B       		.uleb128 0x3b
 1656 018e 05       		.uleb128 0x5
 1657 018f 49       		.uleb128 0x49
 1658 0190 13       		.uleb128 0x13
 1659 0191 02       		.uleb128 0x2
 1660 0192 17       		.uleb128 0x17
 1661 0193 00       		.byte	0
 1662 0194 00       		.byte	0
 1663 0195 1B       		.uleb128 0x1b
 1664 0196 34       		.uleb128 0x34
 1665 0197 00       		.byte	0
 1666 0198 03       		.uleb128 0x3
 1667 0199 0E       		.uleb128 0xe
 1668 019a 3A       		.uleb128 0x3a
 1669 019b 0B       		.uleb128 0xb
 1670 019c 3B       		.uleb128 0x3b
 1671 019d 05       		.uleb128 0x5
 1672 019e 49       		.uleb128 0x49
 1673 019f 13       		.uleb128 0x13
 1674 01a0 3F       		.uleb128 0x3f
 1675 01a1 19       		.uleb128 0x19
 1676 01a2 3C       		.uleb128 0x3c
 1677 01a3 19       		.uleb128 0x19
 1678 01a4 00       		.byte	0
 1679 01a5 00       		.byte	0
 1680 01a6 00       		.byte	0
 1681              		.section	.debug_loc,"",%progbits
 1682              	.Ldebug_loc0:
 1683              	.LLST0:
 1684 0000 00000000 		.4byte	.LVL0
 1685 0004 20000000 		.4byte	.LVL1
 1686 0008 0100     		.2byte	0x1
 1687 000a 50       		.byte	0x50
 1688 000b 20000000 		.4byte	.LVL1
 1689 000f 48000000 		.4byte	.LFE112
 1690 0013 0400     		.2byte	0x4
 1691 0015 F3       		.byte	0xf3
 1692 0016 01       		.uleb128 0x1
 1693 0017 50       		.byte	0x50
 1694 0018 9F       		.byte	0x9f
 1695 0019 00000000 		.4byte	0
 1696 001d 00000000 		.4byte	0
 1697              	.LLST1:
 1698 0021 00000000 		.4byte	.LVL0
 1699 0025 30000000 		.4byte	.LVL2
 1700 0029 0200     		.2byte	0x2
 1701 002b 30       		.byte	0x30
 1702 002c 9F       		.byte	0x9f
 1703 002d 30000000 		.4byte	.LVL2
 1704 0031 38000000 		.4byte	.LVL3
 1705 0035 0100     		.2byte	0x1
 1706 0037 53       		.byte	0x53
 1707 0038 3E000000 		.4byte	.LVL4
 1708 003c 48000000 		.4byte	.LFE112
 1709 0040 0100     		.2byte	0x1
 1710 0042 53       		.byte	0x53
ARM GAS  /var/folders/bz/nn5481rn5xq59rb0mbj7x0880000gn/T//ccTH9v2C.s 			page 31


 1711 0043 00000000 		.4byte	0
 1712 0047 00000000 		.4byte	0
 1713              	.LLST2:
 1714 004b 00000000 		.4byte	.LVL9
 1715 004f 0A000000 		.4byte	.LVL10
 1716 0053 0100     		.2byte	0x1
 1717 0055 50       		.byte	0x50
 1718 0056 0A000000 		.4byte	.LVL10
 1719 005a 24000000 		.4byte	.LFE116
 1720 005e 0400     		.2byte	0x4
 1721 0060 F3       		.byte	0xf3
 1722 0061 01       		.uleb128 0x1
 1723 0062 50       		.byte	0x50
 1724 0063 9F       		.byte	0x9f
 1725 0064 00000000 		.4byte	0
 1726 0068 00000000 		.4byte	0
 1727              	.LLST3:
 1728 006c 00000000 		.4byte	.LVL14
 1729 0070 08000000 		.4byte	.LVL15
 1730 0074 0100     		.2byte	0x1
 1731 0076 50       		.byte	0x50
 1732 0077 08000000 		.4byte	.LVL15
 1733 007b 10000000 		.4byte	.LVL16
 1734 007f 0400     		.2byte	0x4
 1735 0081 F3       		.byte	0xf3
 1736 0082 01       		.uleb128 0x1
 1737 0083 50       		.byte	0x50
 1738 0084 9F       		.byte	0x9f
 1739 0085 10000000 		.4byte	.LVL16
 1740 0089 14000000 		.4byte	.LVL17
 1741 008d 0100     		.2byte	0x1
 1742 008f 50       		.byte	0x50
 1743 0090 14000000 		.4byte	.LVL17
 1744 0094 1C000000 		.4byte	.LFE121
 1745 0098 0400     		.2byte	0x4
 1746 009a F3       		.byte	0xf3
 1747 009b 01       		.uleb128 0x1
 1748 009c 50       		.byte	0x50
 1749 009d 9F       		.byte	0x9f
 1750 009e 00000000 		.4byte	0
 1751 00a2 00000000 		.4byte	0
 1752              	.LLST4:
 1753 00a6 00000000 		.4byte	.LVL18
 1754 00aa 0E000000 		.4byte	.LVL22
 1755 00ae 0100     		.2byte	0x1
 1756 00b0 50       		.byte	0x50
 1757 00b1 0E000000 		.4byte	.LVL22
 1758 00b5 12000000 		.4byte	.LVL23
 1759 00b9 0400     		.2byte	0x4
 1760 00bb F3       		.byte	0xf3
 1761 00bc 01       		.uleb128 0x1
 1762 00bd 50       		.byte	0x50
 1763 00be 9F       		.byte	0x9f
 1764 00bf 12000000 		.4byte	.LVL23
 1765 00c3 24000000 		.4byte	.LFE122
 1766 00c7 0100     		.2byte	0x1
 1767 00c9 50       		.byte	0x50
ARM GAS  /var/folders/bz/nn5481rn5xq59rb0mbj7x0880000gn/T//ccTH9v2C.s 			page 32


 1768 00ca 00000000 		.4byte	0
 1769 00ce 00000000 		.4byte	0
 1770              	.LLST5:
 1771 00d2 00000000 		.4byte	.LVL18
 1772 00d6 08000000 		.4byte	.LVL21
 1773 00da 0200     		.2byte	0x2
 1774 00dc 30       		.byte	0x30
 1775 00dd 9F       		.byte	0x9f
 1776 00de 08000000 		.4byte	.LVL21
 1777 00e2 0E000000 		.4byte	.LVL22
 1778 00e6 0C00     		.2byte	0xc
 1779 00e8 70       		.byte	0x70
 1780 00e9 00       		.sleb128 0
 1781 00ea 0A       		.byte	0xa
 1782 00eb FFFF     		.2byte	0xffff
 1783 00ed 1A       		.byte	0x1a
 1784 00ee 73       		.byte	0x73
 1785 00ef 00       		.sleb128 0
 1786 00f0 1A       		.byte	0x1a
 1787 00f1 30       		.byte	0x30
 1788 00f2 2E       		.byte	0x2e
 1789 00f3 9F       		.byte	0x9f
 1790 00f4 0E000000 		.4byte	.LVL22
 1791 00f8 12000000 		.4byte	.LVL23
 1792 00fc 0D00     		.2byte	0xd
 1793 00fe F3       		.byte	0xf3
 1794 00ff 01       		.uleb128 0x1
 1795 0100 50       		.byte	0x50
 1796 0101 0A       		.byte	0xa
 1797 0102 FFFF     		.2byte	0xffff
 1798 0104 1A       		.byte	0x1a
 1799 0105 73       		.byte	0x73
 1800 0106 00       		.sleb128 0
 1801 0107 1A       		.byte	0x1a
 1802 0108 30       		.byte	0x30
 1803 0109 2E       		.byte	0x2e
 1804 010a 9F       		.byte	0x9f
 1805 010b 12000000 		.4byte	.LVL23
 1806 010f 24000000 		.4byte	.LFE122
 1807 0113 0200     		.2byte	0x2
 1808 0115 30       		.byte	0x30
 1809 0116 9F       		.byte	0x9f
 1810 0117 00000000 		.4byte	0
 1811 011b 00000000 		.4byte	0
 1812              	.LLST6:
 1813 011f 00000000 		.4byte	.LVL18
 1814 0123 02000000 		.4byte	.LVL19
 1815 0127 0500     		.2byte	0x5
 1816 0129 70       		.byte	0x70
 1817 012a 00       		.sleb128 0
 1818 012b 3C       		.byte	0x3c
 1819 012c 25       		.byte	0x25
 1820 012d 9F       		.byte	0x9f
 1821 012e 02000000 		.4byte	.LVL19
 1822 0132 06000000 		.4byte	.LVL20
 1823 0136 0100     		.2byte	0x1
 1824 0138 53       		.byte	0x53
ARM GAS  /var/folders/bz/nn5481rn5xq59rb0mbj7x0880000gn/T//ccTH9v2C.s 			page 33


 1825 0139 06000000 		.4byte	.LVL20
 1826 013d 0E000000 		.4byte	.LVL22
 1827 0141 0500     		.2byte	0x5
 1828 0143 70       		.byte	0x70
 1829 0144 00       		.sleb128 0
 1830 0145 3C       		.byte	0x3c
 1831 0146 25       		.byte	0x25
 1832 0147 9F       		.byte	0x9f
 1833 0148 12000000 		.4byte	.LVL23
 1834 014c 16000000 		.4byte	.LVL24
 1835 0150 0100     		.2byte	0x1
 1836 0152 53       		.byte	0x53
 1837 0153 16000000 		.4byte	.LVL24
 1838 0157 24000000 		.4byte	.LFE122
 1839 015b 0500     		.2byte	0x5
 1840 015d 70       		.byte	0x70
 1841 015e 00       		.sleb128 0
 1842 015f 3C       		.byte	0x3c
 1843 0160 25       		.byte	0x25
 1844 0161 9F       		.byte	0x9f
 1845 0162 00000000 		.4byte	0
 1846 0166 00000000 		.4byte	0
 1847              	.LLST7:
 1848 016a 00000000 		.4byte	.LVL18
 1849 016e 08000000 		.4byte	.LVL21
 1850 0172 0200     		.2byte	0x2
 1851 0174 30       		.byte	0x30
 1852 0175 9F       		.byte	0x9f
 1853 0176 08000000 		.4byte	.LVL21
 1854 017a 12000000 		.4byte	.LVL23
 1855 017e 0100     		.2byte	0x1
 1856 0180 53       		.byte	0x53
 1857 0181 12000000 		.4byte	.LVL23
 1858 0185 1A000000 		.4byte	.LVL25
 1859 0189 0200     		.2byte	0x2
 1860 018b 30       		.byte	0x30
 1861 018c 9F       		.byte	0x9f
 1862 018d 1A000000 		.4byte	.LVL25
 1863 0191 24000000 		.4byte	.LFE122
 1864 0195 0100     		.2byte	0x1
 1865 0197 53       		.byte	0x53
 1866 0198 00000000 		.4byte	0
 1867 019c 00000000 		.4byte	0
 1868              	.LLST8:
 1869 01a0 00000000 		.4byte	.LVL28
 1870 01a4 0A000000 		.4byte	.LVL30
 1871 01a8 0100     		.2byte	0x1
 1872 01aa 50       		.byte	0x50
 1873 01ab 0A000000 		.4byte	.LVL30
 1874 01af 14000000 		.4byte	.LFE124
 1875 01b3 0400     		.2byte	0x4
 1876 01b5 F3       		.byte	0xf3
 1877 01b6 01       		.uleb128 0x1
 1878 01b7 50       		.byte	0x50
 1879 01b8 9F       		.byte	0x9f
 1880 01b9 00000000 		.4byte	0
 1881 01bd 00000000 		.4byte	0
ARM GAS  /var/folders/bz/nn5481rn5xq59rb0mbj7x0880000gn/T//ccTH9v2C.s 			page 34


 1882              	.LLST9:
 1883 01c1 00000000 		.4byte	.LVL28
 1884 01c5 04000000 		.4byte	.LVL29
 1885 01c9 0200     		.2byte	0x2
 1886 01cb 30       		.byte	0x30
 1887 01cc 9F       		.byte	0x9f
 1888 01cd 04000000 		.4byte	.LVL29
 1889 01d1 0A000000 		.4byte	.LVL30
 1890 01d5 0C00     		.2byte	0xc
 1891 01d7 70       		.byte	0x70
 1892 01d8 00       		.sleb128 0
 1893 01d9 0A       		.byte	0xa
 1894 01da FFFF     		.2byte	0xffff
 1895 01dc 1A       		.byte	0x1a
 1896 01dd 73       		.byte	0x73
 1897 01de 00       		.sleb128 0
 1898 01df 1A       		.byte	0x1a
 1899 01e0 30       		.byte	0x30
 1900 01e1 2E       		.byte	0x2e
 1901 01e2 9F       		.byte	0x9f
 1902 01e3 0A000000 		.4byte	.LVL30
 1903 01e7 14000000 		.4byte	.LFE124
 1904 01eb 0D00     		.2byte	0xd
 1905 01ed F3       		.byte	0xf3
 1906 01ee 01       		.uleb128 0x1
 1907 01ef 50       		.byte	0x50
 1908 01f0 0A       		.byte	0xa
 1909 01f1 FFFF     		.2byte	0xffff
 1910 01f3 1A       		.byte	0x1a
 1911 01f4 73       		.byte	0x73
 1912 01f5 00       		.sleb128 0
 1913 01f6 1A       		.byte	0x1a
 1914 01f7 30       		.byte	0x30
 1915 01f8 2E       		.byte	0x2e
 1916 01f9 9F       		.byte	0x9f
 1917 01fa 00000000 		.4byte	0
 1918 01fe 00000000 		.4byte	0
 1919              	.LLST10:
 1920 0202 00000000 		.4byte	.LVL28
 1921 0206 04000000 		.4byte	.LVL29
 1922 020a 0200     		.2byte	0x2
 1923 020c 30       		.byte	0x30
 1924 020d 9F       		.byte	0x9f
 1925 020e 04000000 		.4byte	.LVL29
 1926 0212 0A000000 		.4byte	.LVL30
 1927 0216 0A00     		.2byte	0xa
 1928 0218 70       		.byte	0x70
 1929 0219 00       		.sleb128 0
 1930 021a 0A       		.byte	0xa
 1931 021b FFFF     		.2byte	0xffff
 1932 021d 1A       		.byte	0x1a
 1933 021e 73       		.byte	0x73
 1934 021f 00       		.sleb128 0
 1935 0220 1A       		.byte	0x1a
 1936 0221 9F       		.byte	0x9f
 1937 0222 0A000000 		.4byte	.LVL30
 1938 0226 14000000 		.4byte	.LFE124
ARM GAS  /var/folders/bz/nn5481rn5xq59rb0mbj7x0880000gn/T//ccTH9v2C.s 			page 35


 1939 022a 0B00     		.2byte	0xb
 1940 022c F3       		.byte	0xf3
 1941 022d 01       		.uleb128 0x1
 1942 022e 50       		.byte	0x50
 1943 022f 0A       		.byte	0xa
 1944 0230 FFFF     		.2byte	0xffff
 1945 0232 1A       		.byte	0x1a
 1946 0233 73       		.byte	0x73
 1947 0234 00       		.sleb128 0
 1948 0235 1A       		.byte	0x1a
 1949 0236 9F       		.byte	0x9f
 1950 0237 00000000 		.4byte	0
 1951 023b 00000000 		.4byte	0
 1952              		.section	.debug_aranges,"",%progbits
 1953 0000 8C000000 		.4byte	0x8c
 1954 0004 0200     		.2byte	0x2
 1955 0006 00000000 		.4byte	.Ldebug_info0
 1956 000a 04       		.byte	0x4
 1957 000b 00       		.byte	0
 1958 000c 0000     		.2byte	0
 1959 000e 0000     		.2byte	0
 1960 0010 00000000 		.4byte	.LFB111
 1961 0014 1C000000 		.4byte	.LFE111-.LFB111
 1962 0018 00000000 		.4byte	.LFB112
 1963 001c 48000000 		.4byte	.LFE112-.LFB112
 1964 0020 00000000 		.4byte	.LFB113
 1965 0024 12000000 		.4byte	.LFE113-.LFB113
 1966 0028 00000000 		.4byte	.LFB114
 1967 002c 20000000 		.4byte	.LFE114-.LFB114
 1968 0030 00000000 		.4byte	.LFB115
 1969 0034 1C000000 		.4byte	.LFE115-.LFB115
 1970 0038 00000000 		.4byte	.LFB116
 1971 003c 24000000 		.4byte	.LFE116-.LFB116
 1972 0040 00000000 		.4byte	.LFB117
 1973 0044 1C000000 		.4byte	.LFE117-.LFB117
 1974 0048 00000000 		.4byte	.LFB118
 1975 004c 1C000000 		.4byte	.LFE118-.LFB118
 1976 0050 00000000 		.4byte	.LFB119
 1977 0054 1C000000 		.4byte	.LFE119-.LFB119
 1978 0058 00000000 		.4byte	.LFB120
 1979 005c 0C000000 		.4byte	.LFE120-.LFB120
 1980 0060 00000000 		.4byte	.LFB121
 1981 0064 1C000000 		.4byte	.LFE121-.LFB121
 1982 0068 00000000 		.4byte	.LFB122
 1983 006c 24000000 		.4byte	.LFE122-.LFB122
 1984 0070 00000000 		.4byte	.LFB123
 1985 0074 0C000000 		.4byte	.LFE123-.LFB123
 1986 0078 00000000 		.4byte	.LFB124
 1987 007c 14000000 		.4byte	.LFE124-.LFB124
 1988 0080 00000000 		.4byte	.LFB125
 1989 0084 0C000000 		.4byte	.LFE125-.LFB125
 1990 0088 00000000 		.4byte	0
 1991 008c 00000000 		.4byte	0
 1992              		.section	.debug_ranges,"",%progbits
 1993              	.Ldebug_ranges0:
 1994 0000 00000000 		.4byte	.LFB111
 1995 0004 1C000000 		.4byte	.LFE111
ARM GAS  /var/folders/bz/nn5481rn5xq59rb0mbj7x0880000gn/T//ccTH9v2C.s 			page 36


 1996 0008 00000000 		.4byte	.LFB112
 1997 000c 48000000 		.4byte	.LFE112
 1998 0010 00000000 		.4byte	.LFB113
 1999 0014 12000000 		.4byte	.LFE113
 2000 0018 00000000 		.4byte	.LFB114
 2001 001c 20000000 		.4byte	.LFE114
 2002 0020 00000000 		.4byte	.LFB115
 2003 0024 1C000000 		.4byte	.LFE115
 2004 0028 00000000 		.4byte	.LFB116
 2005 002c 24000000 		.4byte	.LFE116
 2006 0030 00000000 		.4byte	.LFB117
 2007 0034 1C000000 		.4byte	.LFE117
 2008 0038 00000000 		.4byte	.LFB118
 2009 003c 1C000000 		.4byte	.LFE118
 2010 0040 00000000 		.4byte	.LFB119
 2011 0044 1C000000 		.4byte	.LFE119
 2012 0048 00000000 		.4byte	.LFB120
 2013 004c 0C000000 		.4byte	.LFE120
 2014 0050 00000000 		.4byte	.LFB121
 2015 0054 1C000000 		.4byte	.LFE121
 2016 0058 00000000 		.4byte	.LFB122
 2017 005c 24000000 		.4byte	.LFE122
 2018 0060 00000000 		.4byte	.LFB123
 2019 0064 0C000000 		.4byte	.LFE123
 2020 0068 00000000 		.4byte	.LFB124
 2021 006c 14000000 		.4byte	.LFE124
 2022 0070 00000000 		.4byte	.LFB125
 2023 0074 0C000000 		.4byte	.LFE125
 2024 0078 00000000 		.4byte	0
 2025 007c 00000000 		.4byte	0
 2026              		.section	.debug_line,"",%progbits
 2027              	.Ldebug_line0:
 2028 0000 41030000 		.section	.debug_str,"MS",%progbits,1
 2028      0200D301 
 2028      00000201 
 2028      FB0E0D00 
 2028      01010101 
 2029              	.LASF76:
 2030 0000 44434D49 		.ascii	"DCMI_DeInit\000"
 2030      5F446549 
 2030      6E697400 
 2031              	.LASF31:
 2032 000c 44434D49 		.ascii	"DCMI_CaptureMode\000"
 2032      5F436170 
 2032      74757265 
 2032      4D6F6465 
 2032      00
 2033              	.LASF33:
 2034 001d 44434D49 		.ascii	"DCMI_PCKPolarity\000"
 2034      5F50434B 
 2034      506F6C61 
 2034      72697479 
 2034      00
 2035              	.LASF42:
 2036 002e 44434D49 		.ascii	"DCMI_CaptureCount\000"
 2036      5F436170 
 2036      74757265 
ARM GAS  /var/folders/bz/nn5481rn5xq59rb0mbj7x0880000gn/T//ccTH9v2C.s 			page 37


 2036      436F756E 
 2036      7400
 2037              	.LASF34:
 2038 0040 44434D49 		.ascii	"DCMI_VSPolarity\000"
 2038      5F565350 
 2038      6F6C6172 
 2038      69747900 
 2039              	.LASF17:
 2040 0050 73697A65 		.ascii	"sizetype\000"
 2040      74797065 
 2040      00
 2041              	.LASF63:
 2042 0059 44434D49 		.ascii	"DCMI_FLAG\000"
 2042      5F464C41 
 2042      4700
 2043              	.LASF29:
 2044 0063 43575349 		.ascii	"CWSIZER\000"
 2044      5A455200 
 2045              	.LASF50:
 2046 006b 44434D49 		.ascii	"DCMI_StructInit\000"
 2046      5F537472 
 2046      75637449 
 2046      6E697400 
 2047              	.LASF60:
 2048 007b 44434D49 		.ascii	"DCMI_CaptureCmd\000"
 2048      5F436170 
 2048      74757265 
 2048      436D6400 
 2049              	.LASF8:
 2050 008b 5F5F7569 		.ascii	"__uint32_t\000"
 2050      6E743332 
 2050      5F7400
 2051              	.LASF25:
 2052 0096 4D495352 		.ascii	"MISR\000"
 2052      00
 2053              	.LASF19:
 2054 009b 466C6167 		.ascii	"FlagStatus\000"
 2054      53746174 
 2054      757300
 2055              	.LASF4:
 2056 00a6 5F5F7569 		.ascii	"__uint16_t\000"
 2056      6E743136 
 2056      5F7400
 2057              	.LASF39:
 2058 00b1 44434D49 		.ascii	"DCMI_VerticalStartLine\000"
 2058      5F566572 
 2058      74696361 
 2058      6C537461 
 2058      72744C69 
 2059              	.LASF46:
 2060 00c8 44434D49 		.ascii	"DCMI_LineEndCode\000"
 2060      5F4C696E 
 2060      65456E64 
 2060      436F6465 
 2060      00
 2061              	.LASF2:
 2062 00d9 73686F72 		.ascii	"short int\000"
ARM GAS  /var/folders/bz/nn5481rn5xq59rb0mbj7x0880000gn/T//ccTH9v2C.s 			page 38


 2062      7420696E 
 2062      7400
 2063              	.LASF62:
 2064 00e3 44434D49 		.ascii	"DCMI_IT\000"
 2064      5F495400 
 2065              	.LASF36:
 2066 00eb 44434D49 		.ascii	"DCMI_CaptureRate\000"
 2066      5F436170 
 2066      74757265 
 2066      52617465 
 2066      00
 2067              	.LASF44:
 2068 00fc 44434D49 		.ascii	"DCMI_FrameStartCode\000"
 2068      5F467261 
 2068      6D655374 
 2068      61727443 
 2068      6F646500 
 2069              	.LASF13:
 2070 0110 75696E74 		.ascii	"uint8_t\000"
 2070      385F7400 
 2071              	.LASF57:
 2072 0118 44434D49 		.ascii	"DCMI_CodesInitStruct\000"
 2072      5F436F64 
 2072      6573496E 
 2072      69745374 
 2072      72756374 
 2073              	.LASF32:
 2074 012d 44434D49 		.ascii	"DCMI_SynchroMode\000"
 2074      5F53796E 
 2074      6368726F 
 2074      4D6F6465 
 2074      00
 2075              	.LASF55:
 2076 013e 4E657753 		.ascii	"NewState\000"
 2076      74617465 
 2076      00
 2077              	.LASF21:
 2078 0147 44495341 		.ascii	"DISABLE\000"
 2078      424C4500 
 2079              	.LASF58:
 2080 014f 44434D49 		.ascii	"DCMI_JPEGCmd\000"
 2080      5F4A5045 
 2080      47436D64 
 2080      00
 2081              	.LASF37:
 2082 015c 44434D49 		.ascii	"DCMI_ExtendedDataMode\000"
 2082      5F457874 
 2082      656E6465 
 2082      64446174 
 2082      614D6F64 
 2083              	.LASF59:
 2084 0172 44434D49 		.ascii	"DCMI_Cmd\000"
 2084      5F436D64 
 2084      00
 2085              	.LASF10:
 2086 017b 6C6F6E67 		.ascii	"long long int\000"
 2086      206C6F6E 
ARM GAS  /var/folders/bz/nn5481rn5xq59rb0mbj7x0880000gn/T//ccTH9v2C.s 			page 39


 2086      6720696E 
 2086      7400
 2087              	.LASF47:
 2088 0189 44434D49 		.ascii	"DCMI_FrameEndCode\000"
 2088      5F467261 
 2088      6D65456E 
 2088      64436F64 
 2088      6500
 2089              	.LASF20:
 2090 019b 49545374 		.ascii	"ITStatus\000"
 2090      61747573 
 2090      00
 2091              	.LASF49:
 2092 01a4 44434D49 		.ascii	"DCMI_Init\000"
 2092      5F496E69 
 2092      7400
 2093              	.LASF7:
 2094 01ae 6C6F6E67 		.ascii	"long int\000"
 2094      20696E74 
 2094      00
 2095              	.LASF40:
 2096 01b7 44434D49 		.ascii	"DCMI_HorizontalOffsetCount\000"
 2096      5F486F72 
 2096      697A6F6E 
 2096      74616C4F 
 2096      66667365 
 2097              	.LASF3:
 2098 01d2 5F5F7569 		.ascii	"__uint8_t\000"
 2098      6E74385F 
 2098      7400
 2099              	.LASF68:
 2100 01dc 44434D49 		.ascii	"DCMI_ClearFlag\000"
 2100      5F436C65 
 2100      6172466C 
 2100      616700
 2101              	.LASF43:
 2102 01eb 44434D49 		.ascii	"DCMI_CROPInitTypeDef\000"
 2102      5F43524F 
 2102      50496E69 
 2102      74547970 
 2102      65446566 
 2103              	.LASF74:
 2104 0200 6C69622F 		.ascii	"lib/ChibiOS_2.6.6/ext/stdperiph_stm32f4/src/stm32f4"
 2104      43686962 
 2104      694F535F 
 2104      322E362E 
 2104      362F6578 
 2105 0233 78785F64 		.ascii	"xx_dcmi.c\000"
 2105      636D692E 
 2105      6300
 2106              	.LASF65:
 2107 023d 62697473 		.ascii	"bitstatus\000"
 2107      74617475 
 2107      7300
 2108              	.LASF73:
 2109 0247 474E5520 		.ascii	"GNU C 4.9.3 20150529 (release) [ARM/embedded-4_9-br"
 2109      4320342E 
ARM GAS  /var/folders/bz/nn5481rn5xq59rb0mbj7x0880000gn/T//ccTH9v2C.s 			page 40


 2109      392E3320 
 2109      32303135 
 2109      30353239 
 2110 027a 616E6368 		.ascii	"anch revision 224288] -mcpu=cortex-m4 -mfloat-abi=h"
 2110      20726576 
 2110      6973696F 
 2110      6E203232 
 2110      34323838 
 2111 02ad 61726420 		.ascii	"ard -mfpu=fpv4-sp-d16 -mno-thumb-interwork -mthumb "
 2111      2D6D6670 
 2111      753D6670 
 2111      76342D73 
 2111      702D6431 
 2112 02e0 2D676764 		.ascii	"-ggdb -O2 -std=gnu99 -fomit-frame-pointer -falign-f"
 2112      62202D4F 
 2112      32202D73 
 2112      74643D67 
 2112      6E753939 
 2113 0313 756E6374 		.ascii	"unctions=16 -ffunction-sections -fdata-sections -fn"
 2113      696F6E73 
 2113      3D313620 
 2113      2D666675 
 2113      6E637469 
 2114 0346 6F2D636F 		.ascii	"o-common -fsingle-precision-constant\000"
 2114      6D6D6F6E 
 2114      202D6673 
 2114      696E676C 
 2114      652D7072 
 2115              	.LASF1:
 2116 036b 756E7369 		.ascii	"unsigned char\000"
 2116      676E6564 
 2116      20636861 
 2116      7200
 2117              	.LASF54:
 2118 0379 44434D49 		.ascii	"DCMI_CROPCmd\000"
 2118      5F43524F 
 2118      50436D64 
 2118      00
 2119              	.LASF69:
 2120 0386 44434D49 		.ascii	"DCMI_GetFlagStatus\000"
 2120      5F476574 
 2120      466C6167 
 2120      53746174 
 2120      757300
 2121              	.LASF0:
 2122 0399 7369676E 		.ascii	"signed char\000"
 2122      65642063 
 2122      68617200 
 2123              	.LASF11:
 2124 03a5 6C6F6E67 		.ascii	"long long unsigned int\000"
 2124      206C6F6E 
 2124      6720756E 
 2124      7369676E 
 2124      65642069 
 2125              	.LASF77:
 2126 03bc 44434D49 		.ascii	"DCMI_ReadData\000"
 2126      5F526561 
ARM GAS  /var/folders/bz/nn5481rn5xq59rb0mbj7x0880000gn/T//ccTH9v2C.s 			page 41


 2126      64446174 
 2126      6100
 2127              	.LASF16:
 2128 03ca 75696E74 		.ascii	"uint32_t\000"
 2128      33325F74 
 2128      00
 2129              	.LASF30:
 2130 03d3 44434D49 		.ascii	"DCMI_TypeDef\000"
 2130      5F547970 
 2130      65446566 
 2130      00
 2131              	.LASF53:
 2132 03e0 44434D49 		.ascii	"DCMI_CROPInitStruct\000"
 2132      5F43524F 
 2132      50496E69 
 2132      74537472 
 2132      75637400 
 2133              	.LASF14:
 2134 03f4 75696E74 		.ascii	"uint16_t\000"
 2134      31365F74 
 2134      00
 2135              	.LASF64:
 2136 03fd 74656D70 		.ascii	"temp\000"
 2136      00
 2137              	.LASF51:
 2138 0402 44434D49 		.ascii	"DCMI_InitStruct\000"
 2138      5F496E69 
 2138      74537472 
 2138      75637400 
 2139              	.LASF26:
 2140 0412 45534352 		.ascii	"ESCR\000"
 2140      00
 2141              	.LASF5:
 2142 0417 73686F72 		.ascii	"short unsigned int\000"
 2142      7420756E 
 2142      7369676E 
 2142      65642069 
 2142      6E7400
 2143              	.LASF15:
 2144 042a 696E7433 		.ascii	"int32_t\000"
 2144      325F7400 
 2145              	.LASF61:
 2146 0432 44434D49 		.ascii	"DCMI_ITConfig\000"
 2146      5F495443 
 2146      6F6E6669 
 2146      6700
 2147              	.LASF41:
 2148 0440 44434D49 		.ascii	"DCMI_VerticalLineCount\000"
 2148      5F566572 
 2148      74696361 
 2148      6C4C696E 
 2148      65436F75 
 2149              	.LASF67:
 2150 0457 74656D70 		.ascii	"tempreg\000"
 2150      72656700 
 2151              	.LASF56:
 2152 045f 44434D49 		.ascii	"DCMI_SetEmbeddedSynchroCodes\000"
ARM GAS  /var/folders/bz/nn5481rn5xq59rb0mbj7x0880000gn/T//ccTH9v2C.s 			page 42


 2152      5F536574 
 2152      456D6265 
 2152      64646564 
 2152      53796E63 
 2153              	.LASF9:
 2154 047c 6C6F6E67 		.ascii	"long unsigned int\000"
 2154      20756E73 
 2154      69676E65 
 2154      6420696E 
 2154      7400
 2155              	.LASF52:
 2156 048e 44434D49 		.ascii	"DCMI_CROPConfig\000"
 2156      5F43524F 
 2156      50436F6E 
 2156      66696700 
 2157              	.LASF23:
 2158 049e 46756E63 		.ascii	"FunctionalState\000"
 2158      74696F6E 
 2158      616C5374 
 2158      61746500 
 2159              	.LASF38:
 2160 04ae 44434D49 		.ascii	"DCMI_InitTypeDef\000"
 2160      5F496E69 
 2160      74547970 
 2160      65446566 
 2160      00
 2161              	.LASF75:
 2162 04bf 2F557365 		.ascii	"/Users/imac/oroca_bldc_dev/oroca_bldc/\000"
 2162      72732F69 
 2162      6D61632F 
 2162      6F726F63 
 2162      615F626C 
 2163              	.LASF6:
 2164 04e6 5F5F696E 		.ascii	"__int32_t\000"
 2164      7433325F 
 2164      7400
 2165              	.LASF18:
 2166 04f0 52455345 		.ascii	"RESET\000"
 2166      5400
 2167              	.LASF48:
 2168 04f6 44434D49 		.ascii	"DCMI_CodesInitTypeDef\000"
 2168      5F436F64 
 2168      6573496E 
 2168      69745479 
 2168      70654465 
 2169              	.LASF72:
 2170 050c 44434D49 		.ascii	"DCMI_ClearITPendingBit\000"
 2170      5F436C65 
 2170      61724954 
 2170      50656E64 
 2170      696E6742 
 2171              	.LASF70:
 2172 0523 44434D49 		.ascii	"DCMI_GetITStatus\000"
 2172      5F476574 
 2172      49545374 
 2172      61747573 
 2172      00
ARM GAS  /var/folders/bz/nn5481rn5xq59rb0mbj7x0880000gn/T//ccTH9v2C.s 			page 43


 2173              	.LASF45:
 2174 0534 44434D49 		.ascii	"DCMI_LineStartCode\000"
 2174      5F4C696E 
 2174      65537461 
 2174      7274436F 
 2174      646500
 2175              	.LASF66:
 2176 0547 64636D69 		.ascii	"dcmireg\000"
 2176      72656700 
 2177              	.LASF28:
 2178 054f 43575354 		.ascii	"CWSTRTR\000"
 2178      52545200 
 2179              	.LASF78:
 2180 0557 49544D5F 		.ascii	"ITM_RxBuffer\000"
 2180      52784275 
 2180      66666572 
 2180      00
 2181              	.LASF12:
 2182 0564 756E7369 		.ascii	"unsigned int\000"
 2182      676E6564 
 2182      20696E74 
 2182      00
 2183              	.LASF24:
 2184 0571 52495352 		.ascii	"RISR\000"
 2184      00
 2185              	.LASF27:
 2186 0576 45535552 		.ascii	"ESUR\000"
 2186      00
 2187              	.LASF35:
 2188 057b 44434D49 		.ascii	"DCMI_HSPolarity\000"
 2188      5F485350 
 2188      6F6C6172 
 2188      69747900 
 2189              	.LASF22:
 2190 058b 454E4142 		.ascii	"ENABLE\000"
 2190      4C4500
 2191              	.LASF71:
 2192 0592 69747374 		.ascii	"itstatus\000"
 2192      61747573 
 2192      00
 2193              		.ident	"GCC: (GNU Tools for ARM Embedded Processors) 4.9.3 20150529 (release) [ARM/embedded-4_9-br
ARM GAS  /var/folders/bz/nn5481rn5xq59rb0mbj7x0880000gn/T//ccTH9v2C.s 			page 44


DEFINED SYMBOLS
                            *ABS*:0000000000000000 stm32f4xx_dcmi.c
/var/folders/bz/nn5481rn5xq59rb0mbj7x0880000gn/T//ccTH9v2C.s:21     .text.DCMI_DeInit:0000000000000000 $t
/var/folders/bz/nn5481rn5xq59rb0mbj7x0880000gn/T//ccTH9v2C.s:27     .text.DCMI_DeInit:0000000000000000 DCMI_DeInit
/var/folders/bz/nn5481rn5xq59rb0mbj7x0880000gn/T//ccTH9v2C.s:58     .text.DCMI_DeInit:0000000000000018 $d
/var/folders/bz/nn5481rn5xq59rb0mbj7x0880000gn/T//ccTH9v2C.s:63     .text.DCMI_Init:0000000000000000 $t
/var/folders/bz/nn5481rn5xq59rb0mbj7x0880000gn/T//ccTH9v2C.s:69     .text.DCMI_Init:0000000000000000 DCMI_Init
/var/folders/bz/nn5481rn5xq59rb0mbj7x0880000gn/T//ccTH9v2C.s:131    .text.DCMI_Init:0000000000000044 $d
/var/folders/bz/nn5481rn5xq59rb0mbj7x0880000gn/T//ccTH9v2C.s:136    .text.DCMI_StructInit:0000000000000000 $t
/var/folders/bz/nn5481rn5xq59rb0mbj7x0880000gn/T//ccTH9v2C.s:142    .text.DCMI_StructInit:0000000000000000 DCMI_StructInit
/var/folders/bz/nn5481rn5xq59rb0mbj7x0880000gn/T//ccTH9v2C.s:170    .text.DCMI_CROPConfig:0000000000000000 $t
/var/folders/bz/nn5481rn5xq59rb0mbj7x0880000gn/T//ccTH9v2C.s:176    .text.DCMI_CROPConfig:0000000000000000 DCMI_CROPConfig
/var/folders/bz/nn5481rn5xq59rb0mbj7x0880000gn/T//ccTH9v2C.s:215    .text.DCMI_CROPConfig:000000000000001c $d
/var/folders/bz/nn5481rn5xq59rb0mbj7x0880000gn/T//ccTH9v2C.s:220    .text.DCMI_CROPCmd:0000000000000000 $t
/var/folders/bz/nn5481rn5xq59rb0mbj7x0880000gn/T//ccTH9v2C.s:226    .text.DCMI_CROPCmd:0000000000000000 DCMI_CROPCmd
/var/folders/bz/nn5481rn5xq59rb0mbj7x0880000gn/T//ccTH9v2C.s:251    .text.DCMI_CROPCmd:0000000000000018 $d
/var/folders/bz/nn5481rn5xq59rb0mbj7x0880000gn/T//ccTH9v2C.s:256    .text.DCMI_SetEmbeddedSynchroCodes:0000000000000000 $t
/var/folders/bz/nn5481rn5xq59rb0mbj7x0880000gn/T//ccTH9v2C.s:262    .text.DCMI_SetEmbeddedSynchroCodes:0000000000000000 DCMI_SetEmbeddedSynchroCodes
/var/folders/bz/nn5481rn5xq59rb0mbj7x0880000gn/T//ccTH9v2C.s:300    .text.DCMI_SetEmbeddedSynchroCodes:0000000000000020 $d
/var/folders/bz/nn5481rn5xq59rb0mbj7x0880000gn/T//ccTH9v2C.s:305    .text.DCMI_JPEGCmd:0000000000000000 $t
/var/folders/bz/nn5481rn5xq59rb0mbj7x0880000gn/T//ccTH9v2C.s:311    .text.DCMI_JPEGCmd:0000000000000000 DCMI_JPEGCmd
/var/folders/bz/nn5481rn5xq59rb0mbj7x0880000gn/T//ccTH9v2C.s:336    .text.DCMI_JPEGCmd:0000000000000018 $d
/var/folders/bz/nn5481rn5xq59rb0mbj7x0880000gn/T//ccTH9v2C.s:341    .text.DCMI_Cmd:0000000000000000 $t
/var/folders/bz/nn5481rn5xq59rb0mbj7x0880000gn/T//ccTH9v2C.s:347    .text.DCMI_Cmd:0000000000000000 DCMI_Cmd
/var/folders/bz/nn5481rn5xq59rb0mbj7x0880000gn/T//ccTH9v2C.s:372    .text.DCMI_Cmd:0000000000000018 $d
/var/folders/bz/nn5481rn5xq59rb0mbj7x0880000gn/T//ccTH9v2C.s:377    .text.DCMI_CaptureCmd:0000000000000000 $t
/var/folders/bz/nn5481rn5xq59rb0mbj7x0880000gn/T//ccTH9v2C.s:383    .text.DCMI_CaptureCmd:0000000000000000 DCMI_CaptureCmd
/var/folders/bz/nn5481rn5xq59rb0mbj7x0880000gn/T//ccTH9v2C.s:408    .text.DCMI_CaptureCmd:0000000000000018 $d
/var/folders/bz/nn5481rn5xq59rb0mbj7x0880000gn/T//ccTH9v2C.s:413    .text.DCMI_ReadData:0000000000000000 $t
/var/folders/bz/nn5481rn5xq59rb0mbj7x0880000gn/T//ccTH9v2C.s:419    .text.DCMI_ReadData:0000000000000000 DCMI_ReadData
/var/folders/bz/nn5481rn5xq59rb0mbj7x0880000gn/T//ccTH9v2C.s:434    .text.DCMI_ReadData:0000000000000008 $d
/var/folders/bz/nn5481rn5xq59rb0mbj7x0880000gn/T//ccTH9v2C.s:439    .text.DCMI_ITConfig:0000000000000000 $t
/var/folders/bz/nn5481rn5xq59rb0mbj7x0880000gn/T//ccTH9v2C.s:445    .text.DCMI_ITConfig:0000000000000000 DCMI_ITConfig
/var/folders/bz/nn5481rn5xq59rb0mbj7x0880000gn/T//ccTH9v2C.s:476    .text.DCMI_ITConfig:0000000000000018 $d
/var/folders/bz/nn5481rn5xq59rb0mbj7x0880000gn/T//ccTH9v2C.s:481    .text.DCMI_GetFlagStatus:0000000000000000 $t
/var/folders/bz/nn5481rn5xq59rb0mbj7x0880000gn/T//ccTH9v2C.s:487    .text.DCMI_GetFlagStatus:0000000000000000 DCMI_GetFlagStatus
/var/folders/bz/nn5481rn5xq59rb0mbj7x0880000gn/T//ccTH9v2C.s:530    .text.DCMI_GetFlagStatus:0000000000000020 $d
/var/folders/bz/nn5481rn5xq59rb0mbj7x0880000gn/T//ccTH9v2C.s:535    .text.DCMI_ClearFlag:0000000000000000 $t
/var/folders/bz/nn5481rn5xq59rb0mbj7x0880000gn/T//ccTH9v2C.s:541    .text.DCMI_ClearFlag:0000000000000000 DCMI_ClearFlag
/var/folders/bz/nn5481rn5xq59rb0mbj7x0880000gn/T//ccTH9v2C.s:556    .text.DCMI_ClearFlag:0000000000000008 $d
/var/folders/bz/nn5481rn5xq59rb0mbj7x0880000gn/T//ccTH9v2C.s:561    .text.DCMI_GetITStatus:0000000000000000 $t
/var/folders/bz/nn5481rn5xq59rb0mbj7x0880000gn/T//ccTH9v2C.s:567    .text.DCMI_GetITStatus:0000000000000000 DCMI_GetITStatus
/var/folders/bz/nn5481rn5xq59rb0mbj7x0880000gn/T//ccTH9v2C.s:590    .text.DCMI_GetITStatus:0000000000000010 $d
/var/folders/bz/nn5481rn5xq59rb0mbj7x0880000gn/T//ccTH9v2C.s:595    .text.DCMI_ClearITPendingBit:0000000000000000 $t
/var/folders/bz/nn5481rn5xq59rb0mbj7x0880000gn/T//ccTH9v2C.s:601    .text.DCMI_ClearITPendingBit:0000000000000000 DCMI_ClearITPendingBit
/var/folders/bz/nn5481rn5xq59rb0mbj7x0880000gn/T//ccTH9v2C.s:616    .text.DCMI_ClearITPendingBit:0000000000000008 $d
                     .debug_frame:0000000000000010 $d

NO UNDEFINED SYMBOLS
