ARM GAS  /var/folders/bz/nn5481rn5xq59rb0mbj7x0880000gn/T//cc0D5T23.s 			page 1


   1              		.syntax unified
   2              		.cpu cortex-m4
   3              		.eabi_attribute 27, 1
   4              		.eabi_attribute 28, 1
   5              		.fpu fpv4-sp-d16
   6              		.eabi_attribute 20, 1
   7              		.eabi_attribute 21, 1
   8              		.eabi_attribute 23, 3
   9              		.eabi_attribute 24, 1
  10              		.eabi_attribute 25, 1
  11              		.eabi_attribute 26, 1
  12              		.eabi_attribute 30, 2
  13              		.eabi_attribute 34, 1
  14              		.eabi_attribute 18, 4
  15              		.thumb
  16              		.file	"stm32f4xx_dbgmcu.c"
  17              		.text
  18              	.Ltext0:
  19              		.cfi_sections	.debug_frame
  20              		.section	.text.DBGMCU_GetREVID,"ax",%progbits
  21              		.align	2
  22              		.p2align 4,,15
  23              		.global	DBGMCU_GetREVID
  24              		.thumb
  25              		.thumb_func
  26              		.type	DBGMCU_GetREVID, %function
  27              	DBGMCU_GetREVID:
  28              	.LFB111:
  29              		.file 1 "lib/ChibiOS_2.6.6/ext/stdperiph_stm32f4/src/stm32f4xx_dbgmcu.c"
  30              		.loc 1 59 0
  31              		.cfi_startproc
  32              		@ args = 0, pretend = 0, frame = 0
  33              		@ frame_needed = 0, uses_anonymous_args = 0
  34              		@ link register save eliminated.
  35              		.loc 1 60 0
  36 0000 014B     		ldr	r3, .L2
  37 0002 1868     		ldr	r0, [r3]
  38              		.loc 1 61 0
  39 0004 000C     		lsrs	r0, r0, #16
  40 0006 7047     		bx	lr
  41              	.L3:
  42              		.align	2
  43              	.L2:
  44 0008 002004E0 		.word	-536600576
  45              		.cfi_endproc
  46              	.LFE111:
  47              		.size	DBGMCU_GetREVID, .-DBGMCU_GetREVID
  48              		.section	.text.DBGMCU_GetDEVID,"ax",%progbits
  49              		.align	2
  50              		.p2align 4,,15
  51              		.global	DBGMCU_GetDEVID
  52              		.thumb
  53              		.thumb_func
  54              		.type	DBGMCU_GetDEVID, %function
  55              	DBGMCU_GetDEVID:
  56              	.LFB112:
  57              		.loc 1 69 0
ARM GAS  /var/folders/bz/nn5481rn5xq59rb0mbj7x0880000gn/T//cc0D5T23.s 			page 2


  58              		.cfi_startproc
  59              		@ args = 0, pretend = 0, frame = 0
  60              		@ frame_needed = 0, uses_anonymous_args = 0
  61              		@ link register save eliminated.
  62              		.loc 1 70 0
  63 0000 024B     		ldr	r3, .L5
  64 0002 1868     		ldr	r0, [r3]
  65              		.loc 1 71 0
  66 0004 C0F30B00 		ubfx	r0, r0, #0, #12
  67 0008 7047     		bx	lr
  68              	.L6:
  69 000a 00BF     		.align	2
  70              	.L5:
  71 000c 002004E0 		.word	-536600576
  72              		.cfi_endproc
  73              	.LFE112:
  74              		.size	DBGMCU_GetDEVID, .-DBGMCU_GetDEVID
  75              		.section	.text.DBGMCU_Config,"ax",%progbits
  76              		.align	2
  77              		.p2align 4,,15
  78              		.global	DBGMCU_Config
  79              		.thumb
  80              		.thumb_func
  81              		.type	DBGMCU_Config, %function
  82              	DBGMCU_Config:
  83              	.LFB113:
  84              		.loc 1 85 0
  85              		.cfi_startproc
  86              		@ args = 0, pretend = 0, frame = 0
  87              		@ frame_needed = 0, uses_anonymous_args = 0
  88              		@ link register save eliminated.
  89              	.LVL0:
  90              		.loc 1 91 0
  91 0000 044A     		ldr	r2, .L12
  92 0002 5368     		ldr	r3, [r2, #4]
  93              		.loc 1 89 0
  94 0004 19B9     		cbnz	r1, .L11
  95              		.loc 1 95 0
  96 0006 23EA0000 		bic	r0, r3, r0
  97              	.LVL1:
  98 000a 5060     		str	r0, [r2, #4]
  99 000c 7047     		bx	lr
 100              	.LVL2:
 101              	.L11:
 102              		.loc 1 91 0
 103 000e 1843     		orrs	r0, r0, r3
 104              	.LVL3:
 105 0010 5060     		str	r0, [r2, #4]
 106 0012 7047     		bx	lr
 107              	.L13:
 108              		.align	2
 109              	.L12:
 110 0014 002004E0 		.word	-536600576
 111              		.cfi_endproc
 112              	.LFE113:
 113              		.size	DBGMCU_Config, .-DBGMCU_Config
 114              		.section	.text.DBGMCU_APB1PeriphConfig,"ax",%progbits
ARM GAS  /var/folders/bz/nn5481rn5xq59rb0mbj7x0880000gn/T//cc0D5T23.s 			page 3


 115              		.align	2
 116              		.p2align 4,,15
 117              		.global	DBGMCU_APB1PeriphConfig
 118              		.thumb
 119              		.thumb_func
 120              		.type	DBGMCU_APB1PeriphConfig, %function
 121              	DBGMCU_APB1PeriphConfig:
 122              	.LFB114:
 123              		.loc 1 124 0
 124              		.cfi_startproc
 125              		@ args = 0, pretend = 0, frame = 0
 126              		@ frame_needed = 0, uses_anonymous_args = 0
 127              		@ link register save eliminated.
 128              	.LVL4:
 129              		.loc 1 131 0
 130 0000 044A     		ldr	r2, .L18
 131 0002 9368     		ldr	r3, [r2, #8]
 132              		.loc 1 129 0
 133 0004 19B9     		cbnz	r1, .L17
 134              		.loc 1 135 0
 135 0006 23EA0000 		bic	r0, r3, r0
 136              	.LVL5:
 137 000a 9060     		str	r0, [r2, #8]
 138 000c 7047     		bx	lr
 139              	.LVL6:
 140              	.L17:
 141              		.loc 1 131 0
 142 000e 1843     		orrs	r0, r0, r3
 143              	.LVL7:
 144 0010 9060     		str	r0, [r2, #8]
 145 0012 7047     		bx	lr
 146              	.L19:
 147              		.align	2
 148              	.L18:
 149 0014 002004E0 		.word	-536600576
 150              		.cfi_endproc
 151              	.LFE114:
 152              		.size	DBGMCU_APB1PeriphConfig, .-DBGMCU_APB1PeriphConfig
 153              		.section	.text.DBGMCU_APB2PeriphConfig,"ax",%progbits
 154              		.align	2
 155              		.p2align 4,,15
 156              		.global	DBGMCU_APB2PeriphConfig
 157              		.thumb
 158              		.thumb_func
 159              		.type	DBGMCU_APB2PeriphConfig, %function
 160              	DBGMCU_APB2PeriphConfig:
 161              	.LFB115:
 162              		.loc 1 153 0
 163              		.cfi_startproc
 164              		@ args = 0, pretend = 0, frame = 0
 165              		@ frame_needed = 0, uses_anonymous_args = 0
 166              		@ link register save eliminated.
 167              	.LVL8:
 168              		.loc 1 160 0
 169 0000 044A     		ldr	r2, .L24
 170 0002 D368     		ldr	r3, [r2, #12]
 171              		.loc 1 158 0
ARM GAS  /var/folders/bz/nn5481rn5xq59rb0mbj7x0880000gn/T//cc0D5T23.s 			page 4


 172 0004 19B9     		cbnz	r1, .L23
 173              		.loc 1 164 0
 174 0006 23EA0000 		bic	r0, r3, r0
 175              	.LVL9:
 176 000a D060     		str	r0, [r2, #12]
 177 000c 7047     		bx	lr
 178              	.LVL10:
 179              	.L23:
 180              		.loc 1 160 0
 181 000e 1843     		orrs	r0, r0, r3
 182              	.LVL11:
 183 0010 D060     		str	r0, [r2, #12]
 184 0012 7047     		bx	lr
 185              	.L25:
 186              		.align	2
 187              	.L24:
 188 0014 002004E0 		.word	-536600576
 189              		.cfi_endproc
 190              	.LFE115:
 191              		.size	DBGMCU_APB2PeriphConfig, .-DBGMCU_APB2PeriphConfig
 192              		.text
 193              	.Letext0:
 194              		.file 2 "/Users/imac/Downloads/gcc-arm-none-eabi-4_9-2015q2/arm-none-eabi/include/machine/_default
 195              		.file 3 "/Users/imac/Downloads/gcc-arm-none-eabi-4_9-2015q2/arm-none-eabi/include/sys/_stdint.h"
 196              		.file 4 "lib/ChibiOS_2.6.6/os/hal/platforms/STM32F4xx/stm32f4xx.h"
 197              		.file 5 "lib/ChibiOS_2.6.6/os/ports/common/ARMCMx/CMSIS/include/core_cm4.h"