ARM GAS  /var/folders/7z/kps_xzfj7sn5l5gkyq8s9db00000gn/T//ccIUdE2N.s 			page 1


   1              		.syntax unified
   2              		.cpu cortex-m4
   3              		.eabi_attribute 27, 1
   4              		.eabi_attribute 28, 1
   5              		.fpu fpv4-sp-d16
   6              		.eabi_attribute 20, 1
   7              		.eabi_attribute 21, 1
   8              		.eabi_attribute 23, 3
   9              		.eabi_attribute 24, 1
  10              		.eabi_attribute 25, 1
  11              		.eabi_attribute 26, 1
  12              		.eabi_attribute 30, 2
  13              		.eabi_attribute 34, 1
  14              		.eabi_attribute 18, 4
  15              		.thumb
  16              		.file	"stm32f4xx_dac.c"
  17              		.text
  18              	.Ltext0:
  19              		.cfi_sections	.debug_frame
  20              		.section	.text.DAC_DeInit,"ax",%progbits
  21              		.align	2
  22              		.p2align 4,,15
  23              		.global	DAC_DeInit
  24              		.thumb
  25              		.thumb_func
  26              		.type	DAC_DeInit, %function
  27              	DAC_DeInit:
  28              	.LFB111:
  29              		.file 1 "lib/ChibiOS_2.6.6/ext/stdperiph_stm32f4/src/stm32f4xx_dac.c"
  30              		.loc 1 181 0
  31              		.cfi_startproc
  32              		@ args = 0, pretend = 0, frame = 0
  33              		@ frame_needed = 0, uses_anonymous_args = 0
  34 0000 08B5     		push	{r3, lr}
  35              		.cfi_def_cfa_offset 8
  36              		.cfi_offset 3, -8
  37              		.cfi_offset 14, -4
  38              		.loc 1 183 0
  39 0002 4FF00050 		mov	r0, #536870912
  40 0006 0121     		movs	r1, #1
  41 0008 FFF7FEFF 		bl	RCC_APB1PeriphResetCmd
  42              	.LVL0:
  43              		.loc 1 185 0
  44 000c 4FF00050 		mov	r0, #536870912
  45 0010 0021     		movs	r1, #0
  46              		.loc 1 186 0
  47 0012 BDE80840 		pop	{r3, lr}
  48              		.cfi_restore 14
  49              		.cfi_restore 3
  50              		.cfi_def_cfa_offset 0
  51              		.loc 1 185 0
  52 0016 FFF7FEBF 		b	RCC_APB1PeriphResetCmd
  53              	.LVL1:
  54              		.cfi_endproc
  55              	.LFE111:
  56              		.size	DAC_DeInit, .-DAC_DeInit
  57 001a 00BFAFF3 		.section	.text.DAC_Init,"ax",%progbits
ARM GAS  /var/folders/7z/kps_xzfj7sn5l5gkyq8s9db00000gn/T//ccIUdE2N.s 			page 2


  57      0080
  58              		.align	2
  59              		.p2align 4,,15
  60              		.global	DAC_Init
  61              		.thumb
  62              		.thumb_func
  63              		.type	DAC_Init, %function
  64              	DAC_Init:
  65              	.LFB112:
  66              		.loc 1 200 0
  67              		.cfi_startproc
  68              		@ args = 0, pretend = 0, frame = 0
  69              		@ frame_needed = 0, uses_anonymous_args = 0
  70              		@ link register save eliminated.
  71              	.LVL2:
  72 0000 F0B4     		push	{r4, r5, r6, r7}
  73              		.cfi_def_cfa_offset 16
  74              		.cfi_offset 4, -16
  75              		.cfi_offset 5, -12
  76              		.cfi_offset 6, -8
  77              		.cfi_offset 7, -4
  78              		.loc 1 220 0
  79 0002 91E8C000 		ldmia	r1, {r6, r7}
  80              		.loc 1 211 0
  81 0006 094D     		ldr	r5, .L5
  82              		.loc 1 220 0
  83 0008 8C68     		ldr	r4, [r1, #8]
  84 000a CB68     		ldr	r3, [r1, #12]
  85              		.loc 1 211 0
  86 000c 2A68     		ldr	r2, [r5]
  87              	.LVL3:
  88              		.loc 1 220 0
  89 000e 47EA0601 		orr	r1, r7, r6
  90              	.LVL4:
  91 0012 0C43     		orrs	r4, r4, r1
  92              		.loc 1 213 0
  93 0014 40F6FE71 		movw	r1, #4094
  94              		.loc 1 220 0
  95 0018 2343     		orrs	r3, r3, r4
  96              		.loc 1 213 0
  97 001a 8140     		lsls	r1, r1, r0
  98              		.loc 1 224 0
  99 001c 8340     		lsls	r3, r3, r0
 100              		.loc 1 213 0
 101 001e 22EA0102 		bic	r2, r2, r1
 102              	.LVL5:
 103              		.loc 1 224 0
 104 0022 1343     		orrs	r3, r3, r2
 105              	.LVL6:
 106              		.loc 1 226 0
 107 0024 2B60     		str	r3, [r5]
 108              	.LVL7:
 109              		.loc 1 227 0
 110 0026 F0BC     		pop	{r4, r5, r6, r7}
 111              		.cfi_restore 7
 112              		.cfi_restore 6
 113              		.cfi_restore 5
ARM GAS  /var/folders/7z/kps_xzfj7sn5l5gkyq8s9db00000gn/T//ccIUdE2N.s 			page 3


 114              		.cfi_restore 4
 115              		.cfi_def_cfa_offset 0
 116 0028 7047     		bx	lr
 117              	.L6:
 118 002a 00BF     		.align	2
 119              	.L5:
 120 002c 00740040 		.word	1073771520
 121              		.cfi_endproc
 122              	.LFE112:
 123              		.size	DAC_Init, .-DAC_Init
 124              		.section	.text.DAC_StructInit,"ax",%progbits
 125              		.align	2
 126              		.p2align 4,,15
 127              		.global	DAC_StructInit
 128              		.thumb
 129              		.thumb_func
 130              		.type	DAC_StructInit, %function
 131              	DAC_StructInit:
 132              	.LFB113:
 133              		.loc 1 236 0
 134              		.cfi_startproc
 135              		@ args = 0, pretend = 0, frame = 0
 136              		@ frame_needed = 0, uses_anonymous_args = 0
 137              		@ link register save eliminated.
 138              	.LVL8:
 139              		.loc 1 239 0
 140 0000 0023     		movs	r3, #0
 141 0002 0360     		str	r3, [r0]
 142              		.loc 1 241 0
 143 0004 4360     		str	r3, [r0, #4]
 144              		.loc 1 243 0
 145 0006 8360     		str	r3, [r0, #8]
 146              		.loc 1 245 0
 147 0008 C360     		str	r3, [r0, #12]
 148 000a 7047     		bx	lr
 149              		.cfi_endproc
 150              	.LFE113:
 151              		.size	DAC_StructInit, .-DAC_StructInit
 152 000c AFF30080 		.section	.text.DAC_Cmd,"ax",%progbits
 153              		.align	2
 154              		.p2align 4,,15
 155              		.global	DAC_Cmd
 156              		.thumb
 157              		.thumb_func
 158              		.type	DAC_Cmd, %function
 159              	DAC_Cmd:
 160              	.LFB114:
 161              		.loc 1 260 0
 162              		.cfi_startproc
 163              		@ args = 0, pretend = 0, frame = 0
 164              		@ frame_needed = 0, uses_anonymous_args = 0
 165              		@ link register save eliminated.
 166              	.LVL9:
 167              		.loc 1 265 0
 168 0000 39B9     		cbnz	r1, .L12
 169              		.loc 1 273 0
 170 0002 0749     		ldr	r1, .L13
ARM GAS  /var/folders/7z/kps_xzfj7sn5l5gkyq8s9db00000gn/T//ccIUdE2N.s 			page 4


 171              	.LVL10:
 172 0004 0123     		movs	r3, #1
 173 0006 0A68     		ldr	r2, [r1]
 174 0008 8340     		lsls	r3, r3, r0
 175 000a 22EA0303 		bic	r3, r2, r3
 176 000e 0B60     		str	r3, [r1]
 177 0010 7047     		bx	lr
 178              	.LVL11:
 179              	.L12:
 180              		.loc 1 268 0
 181 0012 0349     		ldr	r1, .L13
 182              	.LVL12:
 183 0014 0123     		movs	r3, #1
 184 0016 0A68     		ldr	r2, [r1]
 185 0018 8340     		lsls	r3, r3, r0
 186 001a 1343     		orrs	r3, r3, r2
 187 001c 0B60     		str	r3, [r1]
 188 001e 7047     		bx	lr
 189              	.L14:
 190              		.align	2
 191              	.L13:
 192 0020 00740040 		.word	1073771520
 193              		.cfi_endproc
 194              	.LFE114:
 195              		.size	DAC_Cmd, .-DAC_Cmd
 196 0024 AFF30080 		.section	.text.DAC_SoftwareTriggerCmd,"ax",%progbits
 196      AFF30080 
 196      AFF30080 
 197              		.align	2
 198              		.p2align 4,,15
 199              		.global	DAC_SoftwareTriggerCmd
 200              		.thumb
 201              		.thumb_func
 202              		.type	DAC_SoftwareTriggerCmd, %function
 203              	DAC_SoftwareTriggerCmd:
 204              	.LFB115:
 205              		.loc 1 288 0
 206              		.cfi_startproc
 207              		@ args = 0, pretend = 0, frame = 0
 208              		@ frame_needed = 0, uses_anonymous_args = 0
 209              		@ link register save eliminated.
 210              	.LVL13:
 211              		.loc 1 293 0
 212 0000 41B9     		cbnz	r1, .L18
 213              		.loc 1 301 0
 214 0002 0849     		ldr	r1, .L19
 215              	.LVL14:
 216 0004 0009     		lsrs	r0, r0, #4
 217              	.LVL15:
 218 0006 4A68     		ldr	r2, [r1, #4]
 219 0008 0123     		movs	r3, #1
 220 000a 8340     		lsls	r3, r3, r0
 221 000c 22EA0303 		bic	r3, r2, r3
 222 0010 4B60     		str	r3, [r1, #4]
 223 0012 7047     		bx	lr
 224              	.LVL16:
 225              	.L18:
ARM GAS  /var/folders/7z/kps_xzfj7sn5l5gkyq8s9db00000gn/T//ccIUdE2N.s 			page 5


 226              		.loc 1 296 0
 227 0014 0349     		ldr	r1, .L19
 228              	.LVL17:
 229 0016 0009     		lsrs	r0, r0, #4
 230              	.LVL18:
 231 0018 4A68     		ldr	r2, [r1, #4]
 232 001a 0123     		movs	r3, #1
 233 001c 8340     		lsls	r3, r3, r0
 234 001e 1343     		orrs	r3, r3, r2
 235 0020 4B60     		str	r3, [r1, #4]
 236 0022 7047     		bx	lr
 237              	.L20:
 238              		.align	2
 239              	.L19:
 240 0024 00740040 		.word	1073771520
 241              		.cfi_endproc
 242              	.LFE115:
 243              		.size	DAC_SoftwareTriggerCmd, .-DAC_SoftwareTriggerCmd
 244 0028 AFF30080 		.section	.text.DAC_DualSoftwareTriggerCmd,"ax",%progbits
 244      AFF30080 
 245              		.align	2
 246              		.p2align 4,,15
 247              		.global	DAC_DualSoftwareTriggerCmd
 248              		.thumb
 249              		.thumb_func
 250              		.type	DAC_DualSoftwareTriggerCmd, %function
 251              	DAC_DualSoftwareTriggerCmd:
 252              	.LFB116:
 253              		.loc 1 312 0
 254              		.cfi_startproc
 255              		@ args = 0, pretend = 0, frame = 0
 256              		@ frame_needed = 0, uses_anonymous_args = 0
 257              		@ link register save eliminated.
 258              	.LVL19:
 259              		.loc 1 319 0
 260 0000 054A     		ldr	r2, .L25
 261 0002 5368     		ldr	r3, [r2, #4]
 262              		.loc 1 316 0
 263 0004 18B9     		cbnz	r0, .L24
 264              		.loc 1 324 0
 265 0006 23F00303 		bic	r3, r3, #3
 266 000a 5360     		str	r3, [r2, #4]
 267 000c 7047     		bx	lr
 268              	.L24:
 269              		.loc 1 319 0
 270 000e 43F00303 		orr	r3, r3, #3
 271 0012 5360     		str	r3, [r2, #4]
 272 0014 7047     		bx	lr
 273              	.L26:
 274 0016 00BF     		.align	2
 275              	.L25:
 276 0018 00740040 		.word	1073771520
 277              		.cfi_endproc
 278              	.LFE116:
 279              		.size	DAC_DualSoftwareTriggerCmd, .-DAC_DualSoftwareTriggerCmd
 280 001c AFF30080 		.section	.text.DAC_WaveGenerationCmd,"ax",%progbits
 281              		.align	2
ARM GAS  /var/folders/7z/kps_xzfj7sn5l5gkyq8s9db00000gn/T//ccIUdE2N.s 			page 6


 282              		.p2align 4,,15
 283              		.global	DAC_WaveGenerationCmd
 284              		.thumb
 285              		.thumb_func
 286              		.type	DAC_WaveGenerationCmd, %function
 287              	DAC_WaveGenerationCmd:
 288              	.LFB117:
 289              		.loc 1 343 0
 290              		.cfi_startproc
 291              		@ args = 0, pretend = 0, frame = 0
 292              		@ frame_needed = 0, uses_anonymous_args = 0
 293              		@ link register save eliminated.
 294              	.LVL20:
 295              		.loc 1 349 0
 296 0000 32B9     		cbnz	r2, .L30
 297              		.loc 1 357 0
 298 0002 064A     		ldr	r2, .L31
 299              	.LVL21:
 300 0004 1368     		ldr	r3, [r2]
 301 0006 8140     		lsls	r1, r1, r0
 302              	.LVL22:
 303 0008 23EA0101 		bic	r1, r3, r1
 304 000c 1160     		str	r1, [r2]
 305 000e 7047     		bx	lr
 306              	.LVL23:
 307              	.L30:
 308              		.loc 1 352 0
 309 0010 024A     		ldr	r2, .L31
 310              	.LVL24:
 311 0012 1368     		ldr	r3, [r2]
 312 0014 8140     		lsls	r1, r1, r0
 313              	.LVL25:
 314 0016 1943     		orrs	r1, r1, r3
 315 0018 1160     		str	r1, [r2]
 316 001a 7047     		bx	lr
 317              	.L32:
 318              		.align	2
 319              	.L31:
 320 001c 00740040 		.word	1073771520
 321              		.cfi_endproc
 322              	.LFE117:
 323              		.size	DAC_WaveGenerationCmd, .-DAC_WaveGenerationCmd
 324              		.section	.text.DAC_SetChannel1Data,"ax",%progbits
 325              		.align	2
 326              		.p2align 4,,15
 327              		.global	DAC_SetChannel1Data
 328              		.thumb
 329              		.thumb_func
 330              		.type	DAC_SetChannel1Data, %function
 331              	DAC_SetChannel1Data:
 332              	.LFB118:
 333              		.loc 1 372 0
 334              		.cfi_startproc
 335              		@ args = 0, pretend = 0, frame = 8
 336              		@ frame_needed = 0, uses_anonymous_args = 0
 337              		@ link register save eliminated.
 338              	.LVL26:
ARM GAS  /var/folders/7z/kps_xzfj7sn5l5gkyq8s9db00000gn/T//ccIUdE2N.s 			page 7


 339 0000 82B0     		sub	sp, sp, #8
 340              		.cfi_def_cfa_offset 8
 341              		.loc 1 373 0
 342 0002 0022     		movs	r2, #0
 343              		.loc 1 379 0
 344 0004 054B     		ldr	r3, .L35
 345              		.loc 1 373 0
 346 0006 0192     		str	r2, [sp, #4]
 347              		.loc 1 379 0
 348 0008 0193     		str	r3, [sp, #4]
 349              		.loc 1 380 0
 350 000a 019B     		ldr	r3, [sp, #4]
 351 000c 0833     		adds	r3, r3, #8
 352 000e 1844     		add	r0, r0, r3
 353              	.LVL27:
 354 0010 0190     		str	r0, [sp, #4]
 355              		.loc 1 383 0
 356 0012 019B     		ldr	r3, [sp, #4]
 357 0014 1960     		str	r1, [r3]
 358              		.loc 1 384 0
 359 0016 02B0     		add	sp, sp, #8
 360              		.cfi_def_cfa_offset 0
 361              		@ sp needed
 362 0018 7047     		bx	lr
 363              	.L36:
 364 001a 00BF     		.align	2
 365              	.L35:
 366 001c 00740040 		.word	1073771520
 367              		.cfi_endproc
 368              	.LFE118:
 369              		.size	DAC_SetChannel1Data, .-DAC_SetChannel1Data
 370              		.section	.text.DAC_SetChannel2Data,"ax",%progbits
 371              		.align	2
 372              		.p2align 4,,15
 373              		.global	DAC_SetChannel2Data
 374              		.thumb
 375              		.thumb_func
 376              		.type	DAC_SetChannel2Data, %function
 377              	DAC_SetChannel2Data:
 378              	.LFB119:
 379              		.loc 1 397 0
 380              		.cfi_startproc
 381              		@ args = 0, pretend = 0, frame = 8
 382              		@ frame_needed = 0, uses_anonymous_args = 0
 383              		@ link register save eliminated.
 384              	.LVL28:
 385 0000 82B0     		sub	sp, sp, #8
 386              		.cfi_def_cfa_offset 8
 387              		.loc 1 398 0
 388 0002 0022     		movs	r2, #0
 389              		.loc 1 404 0
 390 0004 054B     		ldr	r3, .L39
 391              		.loc 1 398 0
 392 0006 0192     		str	r2, [sp, #4]
 393              		.loc 1 404 0
 394 0008 0193     		str	r3, [sp, #4]
 395              		.loc 1 405 0
ARM GAS  /var/folders/7z/kps_xzfj7sn5l5gkyq8s9db00000gn/T//ccIUdE2N.s 			page 8


 396 000a 019B     		ldr	r3, [sp, #4]
 397 000c 1433     		adds	r3, r3, #20
 398 000e 1844     		add	r0, r0, r3
 399              	.LVL29:
 400 0010 0190     		str	r0, [sp, #4]
 401              		.loc 1 408 0
 402 0012 019B     		ldr	r3, [sp, #4]
 403 0014 1960     		str	r1, [r3]
 404              		.loc 1 409 0
 405 0016 02B0     		add	sp, sp, #8
 406              		.cfi_def_cfa_offset 0
 407              		@ sp needed
 408 0018 7047     		bx	lr
 409              	.L40:
 410 001a 00BF     		.align	2
 411              	.L39:
 412 001c 00740040 		.word	1073771520
 413              		.cfi_endproc
 414              	.LFE119:
 415              		.size	DAC_SetChannel2Data, .-DAC_SetChannel2Data
 416              		.section	.text.DAC_SetDualChannelData,"ax",%progbits
 417              		.align	2
 418              		.p2align 4,,15
 419              		.global	DAC_SetDualChannelData
 420              		.thumb
 421              		.thumb_func
 422              		.type	DAC_SetDualChannelData, %function
 423              	DAC_SetDualChannelData:
 424              	.LFB120:
 425              		.loc 1 425 0
 426              		.cfi_startproc
 427              		@ args = 0, pretend = 0, frame = 0
 428              		@ frame_needed = 0, uses_anonymous_args = 0
 429              		@ link register save eliminated.
 430              	.LVL30:
 431              		.loc 1 434 0
 432 0000 0828     		cmp	r0, #8
 433              		.loc 1 444 0
 434 0002 044B     		ldr	r3, .L44
 435              		.loc 1 436 0
 436 0004 0CBF     		ite	eq
 437 0006 42EA0122 		orreq	r2, r2, r1, lsl #8
 438              	.LVL31:
 439              		.loc 1 440 0
 440 000a 42EA0142 		orrne	r2, r2, r1, lsl #16
 441              	.LVL32:
 442              		.loc 1 447 0
 443 000e C250     		str	r2, [r0, r3]
 444 0010 7047     		bx	lr
 445              	.L45:
 446 0012 00BF     		.align	2
 447              	.L44:
 448 0014 20740040 		.word	1073771552
 449              		.cfi_endproc
 450              	.LFE120:
 451              		.size	DAC_SetDualChannelData, .-DAC_SetDualChannelData
 452 0018 AFF30080 		.section	.text.DAC_GetDataOutputValue,"ax",%progbits
ARM GAS  /var/folders/7z/kps_xzfj7sn5l5gkyq8s9db00000gn/T//ccIUdE2N.s 			page 9


 452      AFF30080 
 453              		.align	2
 454              		.p2align 4,,15
 455              		.global	DAC_GetDataOutputValue
 456              		.thumb
 457              		.thumb_func
 458              		.type	DAC_GetDataOutputValue, %function
 459              	DAC_GetDataOutputValue:
 460              	.LFB121:
 461              		.loc 1 459 0
 462              		.cfi_startproc
 463              		@ args = 0, pretend = 0, frame = 8
 464              		@ frame_needed = 0, uses_anonymous_args = 0
 465              		@ link register save eliminated.
 466              	.LVL33:
 467 0000 82B0     		sub	sp, sp, #8
 468              		.cfi_def_cfa_offset 8
 469              		.loc 1 460 0
 470 0002 0022     		movs	r2, #0
 471              		.loc 1 465 0
 472 0004 064B     		ldr	r3, .L48
 473              		.loc 1 460 0
 474 0006 0192     		str	r2, [sp, #4]
 475              		.loc 1 465 0
 476 0008 0193     		str	r3, [sp, #4]
 477              		.loc 1 466 0
 478 000a 019B     		ldr	r3, [sp, #4]
 479 000c 2C33     		adds	r3, r3, #44
 480 000e 03EB9000 		add	r0, r3, r0, lsr #2
 481              	.LVL34:
 482 0012 0190     		str	r0, [sp, #4]
 483              		.loc 1 469 0
 484 0014 019B     		ldr	r3, [sp, #4]
 485 0016 1868     		ldr	r0, [r3]
 486              		.loc 1 470 0
 487 0018 80B2     		uxth	r0, r0
 488 001a 02B0     		add	sp, sp, #8
 489              		.cfi_def_cfa_offset 0
 490              		@ sp needed
 491 001c 7047     		bx	lr
 492              	.L49:
 493 001e 00BF     		.align	2
 494              	.L48:
 495 0020 00740040 		.word	1073771520
 496              		.cfi_endproc
 497              	.LFE121:
 498              		.size	DAC_GetDataOutputValue, .-DAC_GetDataOutputValue
 499 0024 AFF30080 		.section	.text.DAC_DMACmd,"ax",%progbits
 499      AFF30080 
 499      AFF30080 
 500              		.align	2
 501              		.p2align 4,,15
 502              		.global	DAC_DMACmd
 503              		.thumb
 504              		.thumb_func
 505              		.type	DAC_DMACmd, %function
 506              	DAC_DMACmd:
ARM GAS  /var/folders/7z/kps_xzfj7sn5l5gkyq8s9db00000gn/T//ccIUdE2N.s 			page 10


 507              	.LFB122:
 508              		.loc 1 504 0
 509              		.cfi_startproc
 510              		@ args = 0, pretend = 0, frame = 0
 511              		@ frame_needed = 0, uses_anonymous_args = 0
 512              		@ link register save eliminated.
 513              	.LVL35:
 514              		.loc 1 509 0
 515 0000 41B9     		cbnz	r1, .L53
 516              		.loc 1 517 0
 517 0002 0849     		ldr	r1, .L54
 518              	.LVL36:
 519 0004 4FF48053 		mov	r3, #4096
 520 0008 0A68     		ldr	r2, [r1]
 521 000a 8340     		lsls	r3, r3, r0
 522 000c 22EA0303 		bic	r3, r2, r3
 523 0010 0B60     		str	r3, [r1]
 524 0012 7047     		bx	lr
 525              	.LVL37:
 526              	.L53:
 527              		.loc 1 512 0
 528 0014 0349     		ldr	r1, .L54
 529              	.LVL38:
 530 0016 4FF48053 		mov	r3, #4096
 531 001a 0A68     		ldr	r2, [r1]
 532 001c 8340     		lsls	r3, r3, r0
 533 001e 1343     		orrs	r3, r3, r2
 534 0020 0B60     		str	r3, [r1]
 535 0022 7047     		bx	lr
 536              	.L55:
 537              		.align	2
 538              	.L54:
 539 0024 00740040 		.word	1073771520
 540              		.cfi_endproc
 541              	.LFE122:
 542              		.size	DAC_DMACmd, .-DAC_DMACmd
 543 0028 AFF30080 		.section	.text.DAC_ITConfig,"ax",%progbits
 543      AFF30080 
 544              		.align	2
 545              		.p2align 4,,15
 546              		.global	DAC_ITConfig
 547              		.thumb
 548              		.thumb_func
 549              		.type	DAC_ITConfig, %function
 550              	DAC_ITConfig:
 551              	.LFB123:
 552              		.loc 1 552 0
 553              		.cfi_startproc
 554              		@ args = 0, pretend = 0, frame = 0
 555              		@ frame_needed = 0, uses_anonymous_args = 0
 556              		@ link register save eliminated.
 557              	.LVL39:
 558              		.loc 1 558 0
 559 0000 32B9     		cbnz	r2, .L59
 560              		.loc 1 566 0
 561 0002 064A     		ldr	r2, .L60
 562              	.LVL40:
ARM GAS  /var/folders/7z/kps_xzfj7sn5l5gkyq8s9db00000gn/T//ccIUdE2N.s 			page 11


 563 0004 1368     		ldr	r3, [r2]
 564 0006 8140     		lsls	r1, r1, r0
 565              	.LVL41:
 566 0008 23EA0101 		bic	r1, r3, r1
 567 000c 1160     		str	r1, [r2]
 568 000e 7047     		bx	lr
 569              	.LVL42:
 570              	.L59:
 571              		.loc 1 561 0
 572 0010 024A     		ldr	r2, .L60
 573              	.LVL43:
 574 0012 1368     		ldr	r3, [r2]
 575 0014 8140     		lsls	r1, r1, r0
 576              	.LVL44:
 577 0016 1943     		orrs	r1, r1, r3
 578 0018 1160     		str	r1, [r2]
 579 001a 7047     		bx	lr
 580              	.L61:
 581              		.align	2
 582              	.L60:
 583 001c 00740040 		.word	1073771520
 584              		.cfi_endproc
 585              	.LFE123:
 586              		.size	DAC_ITConfig, .-DAC_ITConfig
 587              		.section	.text.DAC_GetFlagStatus,"ax",%progbits
 588              		.align	2
 589              		.p2align 4,,15
 590              		.global	DAC_GetFlagStatus
 591              		.thumb
 592              		.thumb_func
 593              		.type	DAC_GetFlagStatus, %function
 594              	DAC_GetFlagStatus:
 595              	.LFB124:
 596              		.loc 1 584 0
 597              		.cfi_startproc
 598              		@ args = 0, pretend = 0, frame = 0
 599              		@ frame_needed = 0, uses_anonymous_args = 0
 600              		@ link register save eliminated.
 601              	.LVL45:
 602              		.loc 1 591 0
 603 0000 034B     		ldr	r3, .L63
 604 0002 5B6B     		ldr	r3, [r3, #52]
 605              	.LVL46:
 606 0004 8140     		lsls	r1, r1, r0
 607              	.LVL47:
 608 0006 1942     		tst	r1, r3
 609              		.loc 1 603 0
 610 0008 14BF     		ite	ne
 611 000a 0120     		movne	r0, #1
 612              	.LVL48:
 613 000c 0020     		moveq	r0, #0
 614 000e 7047     		bx	lr
 615              	.L64:
 616              		.align	2
 617              	.L63:
 618 0010 00740040 		.word	1073771520
 619              		.cfi_endproc
ARM GAS  /var/folders/7z/kps_xzfj7sn5l5gkyq8s9db00000gn/T//ccIUdE2N.s 			page 12


 620              	.LFE124:
 621              		.size	DAC_GetFlagStatus, .-DAC_GetFlagStatus
 622 0014 AFF30080 		.section	.text.DAC_ClearFlag,"ax",%progbits
 622      AFF30080 
 622      AFF30080 
 623              		.align	2
 624              		.p2align 4,,15
 625              		.global	DAC_ClearFlag
 626              		.thumb
 627              		.thumb_func
 628              		.type	DAC_ClearFlag, %function
 629              	DAC_ClearFlag:
 630              	.LFB125:
 631              		.loc 1 619 0
 632              		.cfi_startproc
 633              		@ args = 0, pretend = 0, frame = 0
 634              		@ frame_needed = 0, uses_anonymous_args = 0
 635              		@ link register save eliminated.
 636              	.LVL49:
 637              		.loc 1 625 0
 638 0000 014B     		ldr	r3, .L66
 639 0002 8140     		lsls	r1, r1, r0
 640              	.LVL50:
 641 0004 5963     		str	r1, [r3, #52]
 642 0006 7047     		bx	lr
 643              	.L67:
 644              		.align	2
 645              	.L66:
 646 0008 00740040 		.word	1073771520
 647              		.cfi_endproc
 648              	.LFE125:
 649              		.size	DAC_ClearFlag, .-DAC_ClearFlag
 650 000c AFF30080 		.section	.text.DAC_GetITStatus,"ax",%progbits
 651              		.align	2
 652              		.p2align 4,,15
 653              		.global	DAC_GetITStatus
 654              		.thumb
 655              		.thumb_func
 656              		.type	DAC_GetITStatus, %function
 657              	DAC_GetITStatus:
 658              	.LFB126:
 659              		.loc 1 642 0
 660              		.cfi_startproc
 661              		@ args = 0, pretend = 0, frame = 0
 662              		@ frame_needed = 0, uses_anonymous_args = 0
 663              		@ link register save eliminated.
 664              	.LVL51:
 665              		.loc 1 651 0
 666 0000 054B     		ldr	r3, .L71
 667 0002 1A68     		ldr	r2, [r3]
 668              		.loc 1 654 0
 669 0004 5B6B     		ldr	r3, [r3, #52]
 670              		.loc 1 651 0
 671 0006 8140     		lsls	r1, r1, r0
 672              	.LVL52:
 673              		.loc 1 654 0
 674 0008 11EA0300 		ands	r0, r1, r3
ARM GAS  /var/folders/7z/kps_xzfj7sn5l5gkyq8s9db00000gn/T//ccIUdE2N.s 			page 13


 675              	.LVL53:
 676 000c 03D0     		beq	.L69
 677              		.loc 1 654 0 is_stmt 0 discriminator 1
 678 000e 1142     		tst	r1, r2
 679              		.loc 1 657 0 is_stmt 1 discriminator 1
 680 0010 14BF     		ite	ne
 681 0012 0120     		movne	r0, #1
 682 0014 0020     		moveq	r0, #0
 683              	.L69:
 684              	.LVL54:
 685              		.loc 1 666 0
 686 0016 7047     		bx	lr
 687              	.L72:
 688              		.align	2
 689              	.L71:
 690 0018 00740040 		.word	1073771520
 691              		.cfi_endproc
 692              	.LFE126:
 693              		.size	DAC_GetITStatus, .-DAC_GetITStatus
 694 001c AFF30080 		.section	.text.DAC_ClearITPendingBit,"ax",%progbits
 695              		.align	2
 696              		.p2align 4,,15
 697              		.global	DAC_ClearITPendingBit
 698              		.thumb
 699              		.thumb_func
 700              		.type	DAC_ClearITPendingBit, %function
 701              	DAC_ClearITPendingBit:
 702              	.LFB127:
 703              		.loc 1 682 0
 704              		.cfi_startproc
 705              		@ args = 0, pretend = 0, frame = 0
 706              		@ frame_needed = 0, uses_anonymous_args = 0
 707              		@ link register save eliminated.
 708              	.LVL55:
 709              		.loc 1 688 0
 710 0000 014B     		ldr	r3, .L74
 711 0002 8140     		lsls	r1, r1, r0
 712              	.LVL56:
 713 0004 5963     		str	r1, [r3, #52]
 714 0006 7047     		bx	lr
 715              	.L75:
 716              		.align	2
 717              	.L74:
 718 0008 00740040 		.word	1073771520
 719              		.cfi_endproc
 720              	.LFE127:
 721              		.size	DAC_ClearITPendingBit, .-DAC_ClearITPendingBit
 722 000c AFF30080 		.text
 723              	.Letext0:
 724              		.file 2 "/Users/Baram/gcc-arm-none-eabi/arm-none-eabi/include/machine/_default_types.h"
 725              		.file 3 "/Users/Baram/gcc-arm-none-eabi/arm-none-eabi/include/stdint.h"
 726              		.file 4 "lib/ChibiOS_2.6.6/os/hal/platforms/STM32F4xx/stm32f4xx.h"
 727              		.file 5 "lib/ChibiOS_2.6.6/ext/stdperiph_stm32f4/inc/stm32f4xx_dac.h"
 728              		.file 6 "lib/ChibiOS_2.6.6/os/ports/common/ARMCMx/CMSIS/include/core_cm4.h"
 729              		.file 7 "lib/ChibiOS_2.6.6/ext/stdperiph_stm32f4/inc/stm32f4xx_rcc.h"