ARM GAS  /var/folders/bz/nn5481rn5xq59rb0mbj7x0880000gn/T//cc0D5T23.s 			page 1


   1              		.syntax unified
   2              		.cpu cortex-m4
   3              		.eabi_attribute 27, 1
   4              		.eabi_attribute 28, 1
   5              		.fpu fpv4-sp-d16
   6              		.eabi_attribute 20, 1
   7              		.eabi_attribute 21, 1
   8              		.eabi_attribute 23, 3
   9              		.eabi_attribute 24, 1
  10              		.eabi_attribute 25, 1
  11              		.eabi_attribute 26, 1
  12              		.eabi_attribute 30, 2
  13              		.eabi_attribute 34, 1
  14              		.eabi_attribute 18, 4
  15              		.thumb
  16              		.file	"stm32f4xx_dbgmcu.c"
  17              		.text
  18              	.Ltext0:
  19              		.cfi_sections	.debug_frame
  20              		.section	.text.DBGMCU_GetREVID,"ax",%progbits
  21              		.align	2
  22              		.p2align 4,,15
  23              		.global	DBGMCU_GetREVID
  24              		.thumb
  25              		.thumb_func
  26              		.type	DBGMCU_GetREVID, %function
  27              	DBGMCU_GetREVID:
  28              	.LFB111:
  29              		.file 1 "lib/ChibiOS_2.6.6/ext/stdperiph_stm32f4/src/stm32f4xx_dbgmcu.c"
  30              		.loc 1 59 0
  31              		.cfi_startproc
  32              		@ args = 0, pretend = 0, frame = 0
  33              		@ frame_needed = 0, uses_anonymous_args = 0
  34              		@ link register save eliminated.
  35              		.loc 1 60 0
  36 0000 014B     		ldr	r3, .L2
  37 0002 1868     		ldr	r0, [r3]
  38              		.loc 1 61 0
  39 0004 000C     		lsrs	r0, r0, #16
  40 0006 7047     		bx	lr
  41              	.L3:
  42              		.align	2
  43              	.L2:
  44 0008 002004E0 		.word	-536600576
  45              		.cfi_endproc
  46              	.LFE111:
  47              		.size	DBGMCU_GetREVID, .-DBGMCU_GetREVID
  48              		.section	.text.DBGMCU_GetDEVID,"ax",%progbits
  49              		.align	2
  50              		.p2align 4,,15
  51              		.global	DBGMCU_GetDEVID
  52              		.thumb
  53              		.thumb_func
  54              		.type	DBGMCU_GetDEVID, %function
  55              	DBGMCU_GetDEVID:
  56              	.LFB112:
  57              		.loc 1 69 0
ARM GAS  /var/folders/bz/nn5481rn5xq59rb0mbj7x0880000gn/T//cc0D5T23.s 			page 2


  58              		.cfi_startproc
  59              		@ args = 0, pretend = 0, frame = 0
  60              		@ frame_needed = 0, uses_anonymous_args = 0
  61              		@ link register save eliminated.
  62              		.loc 1 70 0
  63 0000 024B     		ldr	r3, .L5
  64 0002 1868     		ldr	r0, [r3]
  65              		.loc 1 71 0
  66 0004 C0F30B00 		ubfx	r0, r0, #0, #12
  67 0008 7047     		bx	lr
  68              	.L6:
  69 000a 00BF     		.align	2
  70              	.L5:
  71 000c 002004E0 		.word	-536600576
  72              		.cfi_endproc
  73              	.LFE112:
  74              		.size	DBGMCU_GetDEVID, .-DBGMCU_GetDEVID
  75              		.section	.text.DBGMCU_Config,"ax",%progbits
  76              		.align	2
  77              		.p2align 4,,15
  78              		.global	DBGMCU_Config
  79              		.thumb
  80              		.thumb_func
  81              		.type	DBGMCU_Config, %function
  82              	DBGMCU_Config:
  83              	.LFB113:
  84              		.loc 1 85 0
  85              		.cfi_startproc
  86              		@ args = 0, pretend = 0, frame = 0
  87              		@ frame_needed = 0, uses_anonymous_args = 0
  88              		@ link register save eliminated.
  89              	.LVL0:
  90              		.loc 1 91 0
  91 0000 044A     		ldr	r2, .L12
  92 0002 5368     		ldr	r3, [r2, #4]
  93              		.loc 1 89 0
  94 0004 19B9     		cbnz	r1, .L11
  95              		.loc 1 95 0
  96 0006 23EA0000 		bic	r0, r3, r0
  97              	.LVL1:
  98 000a 5060     		str	r0, [r2, #4]
  99 000c 7047     		bx	lr
 100              	.LVL2:
 101              	.L11:
 102              		.loc 1 91 0
 103 000e 1843     		orrs	r0, r0, r3
 104              	.LVL3:
 105 0010 5060     		str	r0, [r2, #4]
 106 0012 7047     		bx	lr
 107              	.L13:
 108              		.align	2
 109              	.L12:
 110 0014 002004E0 		.word	-536600576
 111              		.cfi_endproc
 112              	.LFE113:
 113              		.size	DBGMCU_Config, .-DBGMCU_Config
 114              		.section	.text.DBGMCU_APB1PeriphConfig,"ax",%progbits
ARM GAS  /var/folders/bz/nn5481rn5xq59rb0mbj7x0880000gn/T//cc0D5T23.s 			page 3


 115              		.align	2
 116              		.p2align 4,,15
 117              		.global	DBGMCU_APB1PeriphConfig
 118              		.thumb
 119              		.thumb_func
 120              		.type	DBGMCU_APB1PeriphConfig, %function
 121              	DBGMCU_APB1PeriphConfig:
 122              	.LFB114:
 123              		.loc 1 124 0
 124              		.cfi_startproc
 125              		@ args = 0, pretend = 0, frame = 0
 126              		@ frame_needed = 0, uses_anonymous_args = 0
 127              		@ link register save eliminated.
 128              	.LVL4:
 129              		.loc 1 131 0
 130 0000 044A     		ldr	r2, .L18
 131 0002 9368     		ldr	r3, [r2, #8]
 132              		.loc 1 129 0
 133 0004 19B9     		cbnz	r1, .L17
 134              		.loc 1 135 0
 135 0006 23EA0000 		bic	r0, r3, r0
 136              	.LVL5:
 137 000a 9060     		str	r0, [r2, #8]
 138 000c 7047     		bx	lr
 139              	.LVL6:
 140              	.L17:
 141              		.loc 1 131 0
 142 000e 1843     		orrs	r0, r0, r3
 143              	.LVL7:
 144 0010 9060     		str	r0, [r2, #8]
 145 0012 7047     		bx	lr
 146              	.L19:
 147              		.align	2
 148              	.L18:
 149 0014 002004E0 		.word	-536600576
 150              		.cfi_endproc
 151              	.LFE114:
 152              		.size	DBGMCU_APB1PeriphConfig, .-DBGMCU_APB1PeriphConfig
 153              		.section	.text.DBGMCU_APB2PeriphConfig,"ax",%progbits
 154              		.align	2
 155              		.p2align 4,,15
 156              		.global	DBGMCU_APB2PeriphConfig
 157              		.thumb
 158              		.thumb_func
 159              		.type	DBGMCU_APB2PeriphConfig, %function
 160              	DBGMCU_APB2PeriphConfig:
 161              	.LFB115:
 162              		.loc 1 153 0
 163              		.cfi_startproc
 164              		@ args = 0, pretend = 0, frame = 0
 165              		@ frame_needed = 0, uses_anonymous_args = 0
 166              		@ link register save eliminated.
 167              	.LVL8:
 168              		.loc 1 160 0
 169 0000 044A     		ldr	r2, .L24
 170 0002 D368     		ldr	r3, [r2, #12]
 171              		.loc 1 158 0
ARM GAS  /var/folders/bz/nn5481rn5xq59rb0mbj7x0880000gn/T//cc0D5T23.s 			page 4


 172 0004 19B9     		cbnz	r1, .L23
 173              		.loc 1 164 0
 174 0006 23EA0000 		bic	r0, r3, r0
 175              	.LVL9:
 176 000a D060     		str	r0, [r2, #12]
 177 000c 7047     		bx	lr
 178              	.LVL10:
 179              	.L23:
 180              		.loc 1 160 0
 181 000e 1843     		orrs	r0, r0, r3
 182              	.LVL11:
 183 0010 D060     		str	r0, [r2, #12]
 184 0012 7047     		bx	lr
 185              	.L25:
 186              		.align	2
 187              	.L24:
 188 0014 002004E0 		.word	-536600576
 189              		.cfi_endproc
 190              	.LFE115:
 191              		.size	DBGMCU_APB2PeriphConfig, .-DBGMCU_APB2PeriphConfig
 192              		.text
 193              	.Letext0:
 194              		.file 2 "/Users/imac/Downloads/gcc-arm-none-eabi-4_9-2015q2/arm-none-eabi/include/machine/_default
 195              		.file 3 "/Users/imac/Downloads/gcc-arm-none-eabi-4_9-2015q2/arm-none-eabi/include/sys/_stdint.h"
 196              		.file 4 "lib/ChibiOS_2.6.6/os/hal/platforms/STM32F4xx/stm32f4xx.h"
 197              		.file 5 "lib/ChibiOS_2.6.6/os/ports/common/ARMCMx/CMSIS/include/core_cm4.h"
 198              		.section	.debug_info,"",%progbits
 199              	.Ldebug_info0:
 200 0000 DC010000 		.4byte	0x1dc
 201 0004 0400     		.2byte	0x4
 202 0006 00000000 		.4byte	.Ldebug_abbrev0
 203 000a 04       		.byte	0x4
 204 000b 01       		.uleb128 0x1
 205 000c 0E000000 		.4byte	.LASF28
 206 0010 01       		.byte	0x1
 207 0011 00020000 		.4byte	.LASF29
 208 0015 9C020000 		.4byte	.LASF30
 209 0019 00000000 		.4byte	.Ldebug_ranges0+0
 210 001d 00000000 		.4byte	0
 211 0021 00000000 		.4byte	.Ldebug_line0
 212 0025 02       		.uleb128 0x2
 213 0026 01       		.byte	0x1
 214 0027 06       		.byte	0x6
 215 0028 EF020000 		.4byte	.LASF0
 216 002c 02       		.uleb128 0x2
 217 002d 01       		.byte	0x1
 218 002e 08       		.byte	0x8
 219 002f 72010000 		.4byte	.LASF1
 220 0033 02       		.uleb128 0x2
 221 0034 02       		.byte	0x2
 222 0035 05       		.byte	0x5
 223 0036 C3020000 		.4byte	.LASF2
 224 003a 02       		.uleb128 0x2
 225 003b 02       		.byte	0x2
 226 003c 07       		.byte	0x7
 227 003d A2010000 		.4byte	.LASF3
 228 0041 03       		.uleb128 0x3
ARM GAS  /var/folders/bz/nn5481rn5xq59rb0mbj7x0880000gn/T//cc0D5T23.s 			page 5


 229 0042 32010000 		.4byte	.LASF5
 230 0046 02       		.byte	0x2
 231 0047 3F       		.byte	0x3f
 232 0048 4C000000 		.4byte	0x4c
 233 004c 02       		.uleb128 0x2
 234 004d 04       		.byte	0x4
 235 004e 05       		.byte	0x5
 236 004f E6020000 		.4byte	.LASF4
 237 0053 03       		.uleb128 0x3
 238 0054 3F020000 		.4byte	.LASF6
 239 0058 02       		.byte	0x2
 240 0059 41       		.byte	0x41
 241 005a 5E000000 		.4byte	0x5e
 242 005e 02       		.uleb128 0x2
 243 005f 04       		.byte	0x4
 244 0060 07       		.byte	0x7
 245 0061 90010000 		.4byte	.LASF7
 246 0065 02       		.uleb128 0x2
 247 0066 08       		.byte	0x8
 248 0067 05       		.byte	0x5
 249 0068 8E020000 		.4byte	.LASF8
 250 006c 02       		.uleb128 0x2
 251 006d 08       		.byte	0x8
 252 006e 07       		.byte	0x7
 253 006f 66020000 		.4byte	.LASF9
 254 0073 04       		.uleb128 0x4
 255 0074 04       		.byte	0x4
 256 0075 05       		.byte	0x5
 257 0076 696E7400 		.ascii	"int\000"
 258 007a 02       		.uleb128 0x2
 259 007b 04       		.byte	0x4
 260 007c 07       		.byte	0x7
 261 007d 59020000 		.4byte	.LASF10
 262 0081 03       		.uleb128 0x3
 263 0082 7D020000 		.4byte	.LASF11
 264 0086 03       		.byte	0x3
 265 0087 1F       		.byte	0x1f
 266 0088 41000000 		.4byte	0x41
 267 008c 03       		.uleb128 0x3
 268 008d DD020000 		.4byte	.LASF12
 269 0091 03       		.byte	0x3
 270 0092 20       		.byte	0x20
 271 0093 53000000 		.4byte	0x53
 272 0097 02       		.uleb128 0x2
 273 0098 04       		.byte	0x4
 274 0099 07       		.byte	0x7
 275 009a 85020000 		.4byte	.LASF13
 276 009e 05       		.uleb128 0x5
 277 009f 8C000000 		.4byte	0x8c
 278 00a3 05       		.uleb128 0x5
 279 00a4 81000000 		.4byte	0x81
 280 00a8 06       		.uleb128 0x6
 281 00a9 01       		.byte	0x1
 282 00aa 04       		.byte	0x4
 283 00ab F901     		.2byte	0x1f9
 284 00ad BE000000 		.4byte	0xbe
 285 00b1 07       		.uleb128 0x7
ARM GAS  /var/folders/bz/nn5481rn5xq59rb0mbj7x0880000gn/T//cc0D5T23.s 			page 6


 286 00b2 D3010000 		.4byte	.LASF14
 287 00b6 00       		.sleb128 0
 288 00b7 07       		.uleb128 0x7
 289 00b8 6B010000 		.4byte	.LASF15
 290 00bc 01       		.sleb128 1
 291 00bd 00       		.byte	0
 292 00be 08       		.uleb128 0x8
 293 00bf 3C010000 		.4byte	.LASF16
 294 00c3 04       		.byte	0x4
 295 00c4 F901     		.2byte	0x1f9
 296 00c6 A8000000 		.4byte	0xa8
 297 00ca 09       		.uleb128 0x9
 298 00cb 10       		.byte	0x10
 299 00cc 04       		.byte	0x4
 300 00cd 9202     		.2byte	0x292
 301 00cf 07010000 		.4byte	0x107
 302 00d3 0A       		.uleb128 0xa
 303 00d4 D6020000 		.4byte	.LASF17
 304 00d8 04       		.byte	0x4
 305 00d9 9402     		.2byte	0x294
 306 00db 9E000000 		.4byte	0x9e
 307 00df 00       		.byte	0
 308 00e0 0B       		.uleb128 0xb
 309 00e1 435200   		.ascii	"CR\000"
 310 00e4 04       		.byte	0x4
 311 00e5 9502     		.2byte	0x295
 312 00e7 9E000000 		.4byte	0x9e
 313 00eb 04       		.byte	0x4
 314 00ec 0A       		.uleb128 0xa
 315 00ed FB020000 		.4byte	.LASF18
 316 00f1 04       		.byte	0x4
 317 00f2 9602     		.2byte	0x296
 318 00f4 9E000000 		.4byte	0x9e
 319 00f8 08       		.byte	0x8
 320 00f9 0A       		.uleb128 0xa
 321 00fa 64010000 		.4byte	.LASF19
 322 00fe 04       		.byte	0x4
 323 00ff 9702     		.2byte	0x297
 324 0101 9E000000 		.4byte	0x9e
 325 0105 0C       		.byte	0xc
 326 0106 00       		.byte	0
 327 0107 08       		.uleb128 0x8
 328 0108 4A020000 		.4byte	.LASF20
 329 010c 04       		.byte	0x4
 330 010d 9802     		.2byte	0x298
 331 010f CA000000 		.4byte	0xca
 332 0113 0C       		.uleb128 0xc
 333 0114 80010000 		.4byte	.LASF21
 334 0118 01       		.byte	0x1
 335 0119 3A       		.byte	0x3a
 336 011a 8C000000 		.4byte	0x8c
 337 011e 00000000 		.4byte	.LFB111
 338 0122 0C000000 		.4byte	.LFE111-.LFB111
 339 0126 01       		.uleb128 0x1
 340 0127 9C       		.byte	0x9c
 341 0128 0C       		.uleb128 0xc
 342 0129 B5010000 		.4byte	.LASF22
ARM GAS  /var/folders/bz/nn5481rn5xq59rb0mbj7x0880000gn/T//cc0D5T23.s 			page 7


 343 012d 01       		.byte	0x1
 344 012e 44       		.byte	0x44
 345 012f 8C000000 		.4byte	0x8c
 346 0133 00000000 		.4byte	.LFB112
 347 0137 10000000 		.4byte	.LFE112-.LFB112
 348 013b 01       		.uleb128 0x1
 349 013c 9C       		.byte	0x9c
 350 013d 0D       		.uleb128 0xd
 351 013e C5010000 		.4byte	.LASF25
 352 0142 01       		.byte	0x1
 353 0143 54       		.byte	0x54
 354 0144 00000000 		.4byte	.LFB113
 355 0148 18000000 		.4byte	.LFE113-.LFB113
 356 014c 01       		.uleb128 0x1
 357 014d 9C       		.byte	0x9c
 358 014e 6F010000 		.4byte	0x16f
 359 0152 0E       		.uleb128 0xe
 360 0153 00000000 		.4byte	.LASF23
 361 0157 01       		.byte	0x1
 362 0158 54       		.byte	0x54
 363 0159 8C000000 		.4byte	0x8c
 364 015d 00000000 		.4byte	.LLST0
 365 0161 0F       		.uleb128 0xf
 366 0162 CD020000 		.4byte	.LASF24
 367 0166 01       		.byte	0x1
 368 0167 54       		.byte	0x54
 369 0168 BE000000 		.4byte	0xbe
 370 016c 01       		.uleb128 0x1
 371 016d 51       		.byte	0x51
 372 016e 00       		.byte	0
 373 016f 0D       		.uleb128 0xd
 374 0170 4C010000 		.4byte	.LASF26
 375 0174 01       		.byte	0x1
 376 0175 7B       		.byte	0x7b
 377 0176 00000000 		.4byte	.LFB114
 378 017a 18000000 		.4byte	.LFE114-.LFB114
 379 017e 01       		.uleb128 0x1
 380 017f 9C       		.byte	0x9c
 381 0180 A1010000 		.4byte	0x1a1
 382 0184 0E       		.uleb128 0xe
 383 0185 00000000 		.4byte	.LASF23
 384 0189 01       		.byte	0x1
 385 018a 7B       		.byte	0x7b
 386 018b 8C000000 		.4byte	0x8c
 387 018f 3A000000 		.4byte	.LLST1
 388 0193 0F       		.uleb128 0xf
 389 0194 CD020000 		.4byte	.LASF24
 390 0198 01       		.byte	0x1
 391 0199 7B       		.byte	0x7b
 392 019a BE000000 		.4byte	0xbe
 393 019e 01       		.uleb128 0x1
 394 019f 51       		.byte	0x51
 395 01a0 00       		.byte	0
 396 01a1 0D       		.uleb128 0xd
 397 01a2 E8010000 		.4byte	.LASF27
 398 01a6 01       		.byte	0x1
 399 01a7 98       		.byte	0x98
ARM GAS  /var/folders/bz/nn5481rn5xq59rb0mbj7x0880000gn/T//cc0D5T23.s 			page 8


 400 01a8 00000000 		.4byte	.LFB115
 401 01ac 18000000 		.4byte	.LFE115-.LFB115
 402 01b0 01       		.uleb128 0x1
 403 01b1 9C       		.byte	0x9c
 404 01b2 D3010000 		.4byte	0x1d3
 405 01b6 0E       		.uleb128 0xe
 406 01b7 00000000 		.4byte	.LASF23
 407 01bb 01       		.byte	0x1
 408 01bc 98       		.byte	0x98
 409 01bd 8C000000 		.4byte	0x8c
 410 01c1 74000000 		.4byte	.LLST2
 411 01c5 0F       		.uleb128 0xf
 412 01c6 CD020000 		.4byte	.LASF24
 413 01ca 01       		.byte	0x1
 414 01cb 98       		.byte	0x98
 415 01cc BE000000 		.4byte	0xbe
 416 01d0 01       		.uleb128 0x1
 417 01d1 51       		.byte	0x51
 418 01d2 00       		.byte	0
 419 01d3 10       		.uleb128 0x10
 420 01d4 DB010000 		.4byte	.LASF31
 421 01d8 05       		.byte	0x5
 422 01d9 9806     		.2byte	0x698
 423 01db A3000000 		.4byte	0xa3
 424 01df 00       		.byte	0
 425              		.section	.debug_abbrev,"",%progbits
 426              	.Ldebug_abbrev0:
 427 0000 01       		.uleb128 0x1
 428 0001 11       		.uleb128 0x11
 429 0002 01       		.byte	0x1
 430 0003 25       		.uleb128 0x25
 431 0004 0E       		.uleb128 0xe
 432 0005 13       		.uleb128 0x13
 433 0006 0B       		.uleb128 0xb
 434 0007 03       		.uleb128 0x3
 435 0008 0E       		.uleb128 0xe
 436 0009 1B       		.uleb128 0x1b
 437 000a 0E       		.uleb128 0xe
 438 000b 55       		.uleb128 0x55
 439 000c 17       		.uleb128 0x17
 440 000d 11       		.uleb128 0x11
 441 000e 01       		.uleb128 0x1
 442 000f 10       		.uleb128 0x10
 443 0010 17       		.uleb128 0x17
 444 0011 00       		.byte	0
 445 0012 00       		.byte	0
 446 0013 02       		.uleb128 0x2
 447 0014 24       		.uleb128 0x24
 448 0015 00       		.byte	0
 449 0016 0B       		.uleb128 0xb
 450 0017 0B       		.uleb128 0xb
 451 0018 3E       		.uleb128 0x3e
 452 0019 0B       		.uleb128 0xb
 453 001a 03       		.uleb128 0x3
 454 001b 0E       		.uleb128 0xe
 455 001c 00       		.byte	0
 456 001d 00       		.byte	0
ARM GAS  /var/folders/bz/nn5481rn5xq59rb0mbj7x0880000gn/T//cc0D5T23.s 			page 9


 457 001e 03       		.uleb128 0x3
 458 001f 16       		.uleb128 0x16
 459 0020 00       		.byte	0
 460 0021 03       		.uleb128 0x3
 461 0022 0E       		.uleb128 0xe
 462 0023 3A       		.uleb128 0x3a
 463 0024 0B       		.uleb128 0xb
 464 0025 3B       		.uleb128 0x3b
 465 0026 0B       		.uleb128 0xb
 466 0027 49       		.uleb128 0x49
 467 0028 13       		.uleb128 0x13
 468 0029 00       		.byte	0
 469 002a 00       		.byte	0
 470 002b 04       		.uleb128 0x4
 471 002c 24       		.uleb128 0x24
 472 002d 00       		.byte	0
 473 002e 0B       		.uleb128 0xb
 474 002f 0B       		.uleb128 0xb
 475 0030 3E       		.uleb128 0x3e
 476 0031 0B       		.uleb128 0xb
 477 0032 03       		.uleb128 0x3
 478 0033 08       		.uleb128 0x8
 479 0034 00       		.byte	0
 480 0035 00       		.byte	0
 481 0036 05       		.uleb128 0x5
 482 0037 35       		.uleb128 0x35
 483 0038 00       		.byte	0
 484 0039 49       		.uleb128 0x49
 485 003a 13       		.uleb128 0x13
 486 003b 00       		.byte	0
 487 003c 00       		.byte	0
 488 003d 06       		.uleb128 0x6
 489 003e 04       		.uleb128 0x4
 490 003f 01       		.byte	0x1
 491 0040 0B       		.uleb128 0xb
 492 0041 0B       		.uleb128 0xb
 493 0042 3A       		.uleb128 0x3a
 494 0043 0B       		.uleb128 0xb
 495 0044 3B       		.uleb128 0x3b
 496 0045 05       		.uleb128 0x5
 497 0046 01       		.uleb128 0x1
 498 0047 13       		.uleb128 0x13
 499 0048 00       		.byte	0
 500 0049 00       		.byte	0
 501 004a 07       		.uleb128 0x7
 502 004b 28       		.uleb128 0x28
 503 004c 00       		.byte	0
 504 004d 03       		.uleb128 0x3
 505 004e 0E       		.uleb128 0xe
 506 004f 1C       		.uleb128 0x1c
 507 0050 0D       		.uleb128 0xd
 508 0051 00       		.byte	0
 509 0052 00       		.byte	0
 510 0053 08       		.uleb128 0x8
 511 0054 16       		.uleb128 0x16
 512 0055 00       		.byte	0
 513 0056 03       		.uleb128 0x3
ARM GAS  /var/folders/bz/nn5481rn5xq59rb0mbj7x0880000gn/T//cc0D5T23.s 			page 10


 514 0057 0E       		.uleb128 0xe
 515 0058 3A       		.uleb128 0x3a
 516 0059 0B       		.uleb128 0xb
 517 005a 3B       		.uleb128 0x3b
 518 005b 05       		.uleb128 0x5
 519 005c 49       		.uleb128 0x49
 520 005d 13       		.uleb128 0x13
 521 005e 00       		.byte	0
 522 005f 00       		.byte	0
 523 0060 09       		.uleb128 0x9
 524 0061 13       		.uleb128 0x13
 525 0062 01       		.byte	0x1
 526 0063 0B       		.uleb128 0xb
 527 0064 0B       		.uleb128 0xb
 528 0065 3A       		.uleb128 0x3a
 529 0066 0B       		.uleb128 0xb
 530 0067 3B       		.uleb128 0x3b
 531 0068 05       		.uleb128 0x5
 532 0069 01       		.uleb128 0x1
 533 006a 13       		.uleb128 0x13
 534 006b 00       		.byte	0
 535 006c 00       		.byte	0
 536 006d 0A       		.uleb128 0xa
 537 006e 0D       		.uleb128 0xd
 538 006f 00       		.byte	0
 539 0070 03       		.uleb128 0x3
 540 0071 0E       		.uleb128 0xe
 541 0072 3A       		.uleb128 0x3a
 542 0073 0B       		.uleb128 0xb
 543 0074 3B       		.uleb128 0x3b
 544 0075 05       		.uleb128 0x5
 545 0076 49       		.uleb128 0x49
 546 0077 13       		.uleb128 0x13
 547 0078 38       		.uleb128 0x38
 548 0079 0B       		.uleb128 0xb
 549 007a 00       		.byte	0
 550 007b 00       		.byte	0
 551 007c 0B       		.uleb128 0xb
 552 007d 0D       		.uleb128 0xd
 553 007e 00       		.byte	0
 554 007f 03       		.uleb128 0x3
 555 0080 08       		.uleb128 0x8
 556 0081 3A       		.uleb128 0x3a
 557 0082 0B       		.uleb128 0xb
 558 0083 3B       		.uleb128 0x3b
 559 0084 05       		.uleb128 0x5
 560 0085 49       		.uleb128 0x49
 561 0086 13       		.uleb128 0x13
 562 0087 38       		.uleb128 0x38
 563 0088 0B       		.uleb128 0xb
 564 0089 00       		.byte	0
 565 008a 00       		.byte	0
 566 008b 0C       		.uleb128 0xc
 567 008c 2E       		.uleb128 0x2e
 568 008d 00       		.byte	0
 569 008e 3F       		.uleb128 0x3f
 570 008f 19       		.uleb128 0x19
ARM GAS  /var/folders/bz/nn5481rn5xq59rb0mbj7x0880000gn/T//cc0D5T23.s 			page 11


 571 0090 03       		.uleb128 0x3
 572 0091 0E       		.uleb128 0xe
 573 0092 3A       		.uleb128 0x3a
 574 0093 0B       		.uleb128 0xb
 575 0094 3B       		.uleb128 0x3b
 576 0095 0B       		.uleb128 0xb
 577 0096 27       		.uleb128 0x27
 578 0097 19       		.uleb128 0x19
 579 0098 49       		.uleb128 0x49
 580 0099 13       		.uleb128 0x13
 581 009a 11       		.uleb128 0x11
 582 009b 01       		.uleb128 0x1
 583 009c 12       		.uleb128 0x12
 584 009d 06       		.uleb128 0x6
 585 009e 40       		.uleb128 0x40
 586 009f 18       		.uleb128 0x18
 587 00a0 9742     		.uleb128 0x2117
 588 00a2 19       		.uleb128 0x19
 589 00a3 00       		.byte	0
 590 00a4 00       		.byte	0
 591 00a5 0D       		.uleb128 0xd
 592 00a6 2E       		.uleb128 0x2e
 593 00a7 01       		.byte	0x1
 594 00a8 3F       		.uleb128 0x3f
 595 00a9 19       		.uleb128 0x19
 596 00aa 03       		.uleb128 0x3
 597 00ab 0E       		.uleb128 0xe
 598 00ac 3A       		.uleb128 0x3a
 599 00ad 0B       		.uleb128 0xb
 600 00ae 3B       		.uleb128 0x3b
 601 00af 0B       		.uleb128 0xb
 602 00b0 27       		.uleb128 0x27
 603 00b1 19       		.uleb128 0x19
 604 00b2 11       		.uleb128 0x11
 605 00b3 01       		.uleb128 0x1
 606 00b4 12       		.uleb128 0x12
 607 00b5 06       		.uleb128 0x6
 608 00b6 40       		.uleb128 0x40
 609 00b7 18       		.uleb128 0x18
 610 00b8 9742     		.uleb128 0x2117
 611 00ba 19       		.uleb128 0x19
 612 00bb 01       		.uleb128 0x1
 613 00bc 13       		.uleb128 0x13
 614 00bd 00       		.byte	0
 615 00be 00       		.byte	0
 616 00bf 0E       		.uleb128 0xe
 617 00c0 05       		.uleb128 0x5
 618 00c1 00       		.byte	0
 619 00c2 03       		.uleb128 0x3
 620 00c3 0E       		.uleb128 0xe
 621 00c4 3A       		.uleb128 0x3a
 622 00c5 0B       		.uleb128 0xb
 623 00c6 3B       		.uleb128 0x3b
 624 00c7 0B       		.uleb128 0xb
 625 00c8 49       		.uleb128 0x49
 626 00c9 13       		.uleb128 0x13
 627 00ca 02       		.uleb128 0x2
ARM GAS  /var/folders/bz/nn5481rn5xq59rb0mbj7x0880000gn/T//cc0D5T23.s 			page 12


 628 00cb 17       		.uleb128 0x17
 629 00cc 00       		.byte	0
 630 00cd 00       		.byte	0
 631 00ce 0F       		.uleb128 0xf
 632 00cf 05       		.uleb128 0x5
 633 00d0 00       		.byte	0
 634 00d1 03       		.uleb128 0x3
 635 00d2 0E       		.uleb128 0xe
 636 00d3 3A       		.uleb128 0x3a
 637 00d4 0B       		.uleb128 0xb
 638 00d5 3B       		.uleb128 0x3b
 639 00d6 0B       		.uleb128 0xb
 640 00d7 49       		.uleb128 0x49
 641 00d8 13       		.uleb128 0x13
 642 00d9 02       		.uleb128 0x2
 643 00da 18       		.uleb128 0x18
 644 00db 00       		.byte	0
 645 00dc 00       		.byte	0
 646 00dd 10       		.uleb128 0x10
 647 00de 34       		.uleb128 0x34
 648 00df 00       		.byte	0
 649 00e0 03       		.uleb128 0x3
 650 00e1 0E       		.uleb128 0xe
 651 00e2 3A       		.uleb128 0x3a
 652 00e3 0B       		.uleb128 0xb
 653 00e4 3B       		.uleb128 0x3b
 654 00e5 05       		.uleb128 0x5
 655 00e6 49       		.uleb128 0x49
 656 00e7 13       		.uleb128 0x13
 657 00e8 3F       		.uleb128 0x3f
 658 00e9 19       		.uleb128 0x19
 659 00ea 3C       		.uleb128 0x3c
 660 00eb 19       		.uleb128 0x19
 661 00ec 00       		.byte	0
 662 00ed 00       		.byte	0
 663 00ee 00       		.byte	0
 664              		.section	.debug_loc,"",%progbits
 665              	.Ldebug_loc0:
 666              	.LLST0:
 667 0000 00000000 		.4byte	.LVL0
 668 0004 0A000000 		.4byte	.LVL1
 669 0008 0100     		.2byte	0x1
 670 000a 50       		.byte	0x50
 671 000b 0A000000 		.4byte	.LVL1
 672 000f 0E000000 		.4byte	.LVL2
 673 0013 0400     		.2byte	0x4
 674 0015 F3       		.byte	0xf3
 675 0016 01       		.uleb128 0x1
 676 0017 50       		.byte	0x50
 677 0018 9F       		.byte	0x9f
 678 0019 0E000000 		.4byte	.LVL2
 679 001d 10000000 		.4byte	.LVL3
 680 0021 0100     		.2byte	0x1
 681 0023 50       		.byte	0x50
 682 0024 10000000 		.4byte	.LVL3
 683 0028 18000000 		.4byte	.LFE113
 684 002c 0400     		.2byte	0x4
ARM GAS  /var/folders/bz/nn5481rn5xq59rb0mbj7x0880000gn/T//cc0D5T23.s 			page 13


 685 002e F3       		.byte	0xf3
 686 002f 01       		.uleb128 0x1
 687 0030 50       		.byte	0x50
 688 0031 9F       		.byte	0x9f
 689 0032 00000000 		.4byte	0
 690 0036 00000000 		.4byte	0
 691              	.LLST1:
 692 003a 00000000 		.4byte	.LVL4
 693 003e 0A000000 		.4byte	.LVL5
 694 0042 0100     		.2byte	0x1
 695 0044 50       		.byte	0x50
 696 0045 0A000000 		.4byte	.LVL5
 697 0049 0E000000 		.4byte	.LVL6
 698 004d 0400     		.2byte	0x4
 699 004f F3       		.byte	0xf3
 700 0050 01       		.uleb128 0x1
 701 0051 50       		.byte	0x50
 702 0052 9F       		.byte	0x9f
 703 0053 0E000000 		.4byte	.LVL6
 704 0057 10000000 		.4byte	.LVL7
 705 005b 0100     		.2byte	0x1
 706 005d 50       		.byte	0x50
 707 005e 10000000 		.4byte	.LVL7
 708 0062 18000000 		.4byte	.LFE114
 709 0066 0400     		.2byte	0x4
 710 0068 F3       		.byte	0xf3
 711 0069 01       		.uleb128 0x1
 712 006a 50       		.byte	0x50
 713 006b 9F       		.byte	0x9f
 714 006c 00000000 		.4byte	0
 715 0070 00000000 		.4byte	0
 716              	.LLST2:
 717 0074 00000000 		.4byte	.LVL8
 718 0078 0A000000 		.4byte	.LVL9
 719 007c 0100     		.2byte	0x1
 720 007e 50       		.byte	0x50
 721 007f 0A000000 		.4byte	.LVL9
 722 0083 0E000000 		.4byte	.LVL10
 723 0087 0400     		.2byte	0x4
 724 0089 F3       		.byte	0xf3
 725 008a 01       		.uleb128 0x1
 726 008b 50       		.byte	0x50
 727 008c 9F       		.byte	0x9f
 728 008d 0E000000 		.4byte	.LVL10
 729 0091 10000000 		.4byte	.LVL11
 730 0095 0100     		.2byte	0x1
 731 0097 50       		.byte	0x50
 732 0098 10000000 		.4byte	.LVL11
 733 009c 18000000 		.4byte	.LFE115
 734 00a0 0400     		.2byte	0x4
 735 00a2 F3       		.byte	0xf3
 736 00a3 01       		.uleb128 0x1
 737 00a4 50       		.byte	0x50
 738 00a5 9F       		.byte	0x9f
 739 00a6 00000000 		.4byte	0
 740 00aa 00000000 		.4byte	0
 741              		.section	.debug_aranges,"",%progbits
ARM GAS  /var/folders/bz/nn5481rn5xq59rb0mbj7x0880000gn/T//cc0D5T23.s 			page 14


 742 0000 3C000000 		.4byte	0x3c
 743 0004 0200     		.2byte	0x2
 744 0006 00000000 		.4byte	.Ldebug_info0
 745 000a 04       		.byte	0x4
 746 000b 00       		.byte	0
 747 000c 0000     		.2byte	0
 748 000e 0000     		.2byte	0
 749 0010 00000000 		.4byte	.LFB111
 750 0014 0C000000 		.4byte	.LFE111-.LFB111
 751 0018 00000000 		.4byte	.LFB112
 752 001c 10000000 		.4byte	.LFE112-.LFB112
 753 0020 00000000 		.4byte	.LFB113
 754 0024 18000000 		.4byte	.LFE113-.LFB113
 755 0028 00000000 		.4byte	.LFB114
 756 002c 18000000 		.4byte	.LFE114-.LFB114
 757 0030 00000000 		.4byte	.LFB115
 758 0034 18000000 		.4byte	.LFE115-.LFB115
 759 0038 00000000 		.4byte	0
 760 003c 00000000 		.4byte	0
 761              		.section	.debug_ranges,"",%progbits
 762              	.Ldebug_ranges0:
 763 0000 00000000 		.4byte	.LFB111
 764 0004 0C000000 		.4byte	.LFE111
 765 0008 00000000 		.4byte	.LFB112
 766 000c 10000000 		.4byte	.LFE112
 767 0010 00000000 		.4byte	.LFB113
 768 0014 18000000 		.4byte	.LFE113
 769 0018 00000000 		.4byte	.LFB114
 770 001c 18000000 		.4byte	.LFE114
 771 0020 00000000 		.4byte	.LFB115
 772 0024 18000000 		.4byte	.LFE115
 773 0028 00000000 		.4byte	0
 774 002c 00000000 		.4byte	0
 775              		.section	.debug_line,"",%progbits
 776              	.Ldebug_line0:
 777 0000 FA010000 		.section	.debug_str,"MS",%progbits,1
 777      02009501 
 777      00000201 
 777      FB0E0D00 
 777      01010101 
 778              	.LASF23:
 779 0000 4442474D 		.ascii	"DBGMCU_Periph\000"
 779      43555F50 
 779      65726970 
 779      6800
 780              	.LASF28:
 781 000e 474E5520 		.ascii	"GNU C 4.9.3 20150529 (release) [ARM/embedded-4_9-br"
 781      4320342E 
 781      392E3320 
 781      32303135 
 781      30353239 
 782 0041 616E6368 		.ascii	"anch revision 224288] -mcpu=cortex-m4 -mfloat-abi=h"
 782      20726576 
 782      6973696F 
 782      6E203232 
 782      34323838 
 783 0074 61726420 		.ascii	"ard -mfpu=fpv4-sp-d16 -mno-thumb-interwork -mthumb "
ARM GAS  /var/folders/bz/nn5481rn5xq59rb0mbj7x0880000gn/T//cc0D5T23.s 			page 15


 783      2D6D6670 
 783      753D6670 
 783      76342D73 
 783      702D6431 
 784 00a7 2D676764 		.ascii	"-ggdb -O2 -std=gnu99 -fomit-frame-pointer -falign-f"
 784      62202D4F 
 784      32202D73 
 784      74643D67 
 784      6E753939 
 785 00da 756E6374 		.ascii	"unctions=16 -ffunction-sections -fdata-sections -fn"
 785      696F6E73 
 785      3D313620 
 785      2D666675 
 785      6E637469 
 786 010d 6F2D636F 		.ascii	"o-common -fsingle-precision-constant\000"
 786      6D6D6F6E 
 786      202D6673 
 786      696E676C 
 786      652D7072 
 787              	.LASF5:
 788 0132 5F5F696E 		.ascii	"__int32_t\000"
 788      7433325F 
 788      7400
 789              	.LASF16:
 790 013c 46756E63 		.ascii	"FunctionalState\000"
 790      74696F6E 
 790      616C5374 
 790      61746500 
 791              	.LASF26:
 792 014c 4442474D 		.ascii	"DBGMCU_APB1PeriphConfig\000"
 792      43555F41 
 792      50423150 
 792      65726970 
 792      68436F6E 
 793              	.LASF19:
 794 0164 41504232 		.ascii	"APB2FZ\000"
 794      465A00
 795              	.LASF15:
 796 016b 454E4142 		.ascii	"ENABLE\000"
 796      4C4500
 797              	.LASF1:
 798 0172 756E7369 		.ascii	"unsigned char\000"
 798      676E6564 
 798      20636861 
 798      7200
 799              	.LASF21:
 800 0180 4442474D 		.ascii	"DBGMCU_GetREVID\000"
 800      43555F47 
 800      65745245 
 800      56494400 
 801              	.LASF7:
 802 0190 6C6F6E67 		.ascii	"long unsigned int\000"
 802      20756E73 
 802      69676E65 
 802      6420696E 
 802      7400
 803              	.LASF3:
ARM GAS  /var/folders/bz/nn5481rn5xq59rb0mbj7x0880000gn/T//cc0D5T23.s 			page 16


 804 01a2 73686F72 		.ascii	"short unsigned int\000"
 804      7420756E 
 804      7369676E 
 804      65642069 
 804      6E7400
 805              	.LASF22:
 806 01b5 4442474D 		.ascii	"DBGMCU_GetDEVID\000"
 806      43555F47 
 806      65744445 
 806      56494400 
 807              	.LASF25:
 808 01c5 4442474D 		.ascii	"DBGMCU_Config\000"
 808      43555F43 
 808      6F6E6669 
 808      6700
 809              	.LASF14:
 810 01d3 44495341 		.ascii	"DISABLE\000"
 810      424C4500 
 811              	.LASF31:
 812 01db 49544D5F 		.ascii	"ITM_RxBuffer\000"
 812      52784275 
 812      66666572 
 812      00
 813              	.LASF27:
 814 01e8 4442474D 		.ascii	"DBGMCU_APB2PeriphConfig\000"
 814      43555F41 
 814      50423250 
 814      65726970 
 814      68436F6E 
 815              	.LASF29:
 816 0200 6C69622F 		.ascii	"lib/ChibiOS_2.6.6/ext/stdperiph_stm32f4/src/stm32f4"
 816      43686962 
 816      694F535F 
 816      322E362E 
 816      362F6578 
 817 0233 78785F64 		.ascii	"xx_dbgmcu.c\000"
 817      62676D63 
 817      752E6300 
 818              	.LASF6:
 819 023f 5F5F7569 		.ascii	"__uint32_t\000"
 819      6E743332 
 819      5F7400
 820              	.LASF20:
 821 024a 4442474D 		.ascii	"DBGMCU_TypeDef\000"
 821      43555F54 
 821      79706544 
 821      656600
 822              	.LASF10:
 823 0259 756E7369 		.ascii	"unsigned int\000"
 823      676E6564 
 823      20696E74 
 823      00
 824              	.LASF9:
 825 0266 6C6F6E67 		.ascii	"long long unsigned int\000"
 825      206C6F6E 
 825      6720756E 
 825      7369676E 
ARM GAS  /var/folders/bz/nn5481rn5xq59rb0mbj7x0880000gn/T//cc0D5T23.s 			page 17


 825      65642069 
 826              	.LASF11:
 827 027d 696E7433 		.ascii	"int32_t\000"
 827      325F7400 
 828              	.LASF13:
 829 0285 73697A65 		.ascii	"sizetype\000"
 829      74797065 
 829      00
 830              	.LASF8:
 831 028e 6C6F6E67 		.ascii	"long long int\000"
 831      206C6F6E 
 831      6720696E 
 831      7400
 832              	.LASF30:
 833 029c 2F557365 		.ascii	"/Users/imac/oroca_bldc_dev/oroca_bldc/\000"
 833      72732F69 
 833      6D61632F 
 833      6F726F63 
 833      615F626C 
 834              	.LASF2:
 835 02c3 73686F72 		.ascii	"short int\000"
 835      7420696E 
 835      7400
 836              	.LASF24:
 837 02cd 4E657753 		.ascii	"NewState\000"
 837      74617465 
 837      00
 838              	.LASF17:
 839 02d6 4944434F 		.ascii	"IDCODE\000"
 839      444500
 840              	.LASF12:
 841 02dd 75696E74 		.ascii	"uint32_t\000"
 841      33325F74 
 841      00
 842              	.LASF4:
 843 02e6 6C6F6E67 		.ascii	"long int\000"
 843      20696E74 
 843      00
 844              	.LASF0:
 845 02ef 7369676E 		.ascii	"signed char\000"
 845      65642063 
 845      68617200 
 846              	.LASF18:
 847 02fb 41504231 		.ascii	"APB1FZ\000"
 847      465A00
 848              		.ident	"GCC: (GNU Tools for ARM Embedded Processors) 4.9.3 20150529 (release) [ARM/embedded-4_9-br
ARM GAS  /var/folders/bz/nn5481rn5xq59rb0mbj7x0880000gn/T//cc0D5T23.s 			page 18


DEFINED SYMBOLS
                            *ABS*:0000000000000000 stm32f4xx_dbgmcu.c
/var/folders/bz/nn5481rn5xq59rb0mbj7x0880000gn/T//cc0D5T23.s:21     .text.DBGMCU_GetREVID:0000000000000000 $t
/var/folders/bz/nn5481rn5xq59rb0mbj7x0880000gn/T//cc0D5T23.s:27     .text.DBGMCU_GetREVID:0000000000000000 DBGMCU_GetREVID
/var/folders/bz/nn5481rn5xq59rb0mbj7x0880000gn/T//cc0D5T23.s:44     .text.DBGMCU_GetREVID:0000000000000008 $d
/var/folders/bz/nn5481rn5xq59rb0mbj7x0880000gn/T//cc0D5T23.s:49     .text.DBGMCU_GetDEVID:0000000000000000 $t
/var/folders/bz/nn5481rn5xq59rb0mbj7x0880000gn/T//cc0D5T23.s:55     .text.DBGMCU_GetDEVID:0000000000000000 DBGMCU_GetDEVID
/var/folders/bz/nn5481rn5xq59rb0mbj7x0880000gn/T//cc0D5T23.s:71     .text.DBGMCU_GetDEVID:000000000000000c $d
/var/folders/bz/nn5481rn5xq59rb0mbj7x0880000gn/T//cc0D5T23.s:76     .text.DBGMCU_Config:0000000000000000 $t
/var/folders/bz/nn5481rn5xq59rb0mbj7x0880000gn/T//cc0D5T23.s:82     .text.DBGMCU_Config:0000000000000000 DBGMCU_Config
/var/folders/bz/nn5481rn5xq59rb0mbj7x0880000gn/T//cc0D5T23.s:110    .text.DBGMCU_Config:0000000000000014 $d
/var/folders/bz/nn5481rn5xq59rb0mbj7x0880000gn/T//cc0D5T23.s:115    .text.DBGMCU_APB1PeriphConfig:0000000000000000 $t
/var/folders/bz/nn5481rn5xq59rb0mbj7x0880000gn/T//cc0D5T23.s:121    .text.DBGMCU_APB1PeriphConfig:0000000000000000 DBGMCU_APB1PeriphConfig
/var/folders/bz/nn5481rn5xq59rb0mbj7x0880000gn/T//cc0D5T23.s:149    .text.DBGMCU_APB1PeriphConfig:0000000000000014 $d
/var/folders/bz/nn5481rn5xq59rb0mbj7x0880000gn/T//cc0D5T23.s:154    .text.DBGMCU_APB2PeriphConfig:0000000000000000 $t
/var/folders/bz/nn5481rn5xq59rb0mbj7x0880000gn/T//cc0D5T23.s:160    .text.DBGMCU_APB2PeriphConfig:0000000000000000 DBGMCU_APB2PeriphConfig
/var/folders/bz/nn5481rn5xq59rb0mbj7x0880000gn/T//cc0D5T23.s:188    .text.DBGMCU_APB2PeriphConfig:0000000000000014 $d
                     .debug_frame:0000000000000010 $d

NO UNDEFINED SYMBOLS
