ARM GAS  /var/folders/7z/kps_xzfj7sn5l5gkyq8s9db00000gn/T//ccIUdE2N.s 			page 1


   1              		.syntax unified
   2              		.cpu cortex-m4
   3              		.eabi_attribute 27, 1
   4              		.eabi_attribute 28, 1
   5              		.fpu fpv4-sp-d16
   6              		.eabi_attribute 20, 1
   7              		.eabi_attribute 21, 1
   8              		.eabi_attribute 23, 3
   9              		.eabi_attribute 24, 1
  10              		.eabi_attribute 25, 1
  11              		.eabi_attribute 26, 1
  12              		.eabi_attribute 30, 2
  13              		.eabi_attribute 34, 1
  14              		.eabi_attribute 18, 4
  15              		.thumb
  16              		.file	"stm32f4xx_dac.c"
  17              		.text
  18              	.Ltext0:
  19              		.cfi_sections	.debug_frame
  20              		.section	.text.DAC_DeInit,"ax",%progbits
  21              		.align	2
  22              		.p2align 4,,15
  23              		.global	DAC_DeInit
  24              		.thumb
  25              		.thumb_func
  26              		.type	DAC_DeInit, %function
  27              	DAC_DeInit:
  28              	.LFB111:
  29              		.file 1 "lib/ChibiOS_2.6.6/ext/stdperiph_stm32f4/src/stm32f4xx_dac.c"
  30              		.loc 1 181 0
  31              		.cfi_startproc
  32              		@ args = 0, pretend = 0, frame = 0
  33              		@ frame_needed = 0, uses_anonymous_args = 0
  34 0000 08B5     		push	{r3, lr}
  35              		.cfi_def_cfa_offset 8
  36              		.cfi_offset 3, -8
  37              		.cfi_offset 14, -4
  38              		.loc 1 183 0
  39 0002 4FF00050 		mov	r0, #536870912
  40 0006 0121     		movs	r1, #1
  41 0008 FFF7FEFF 		bl	RCC_APB1PeriphResetCmd
  42              	.LVL0:
  43              		.loc 1 185 0
  44 000c 4FF00050 		mov	r0, #536870912
  45 0010 0021     		movs	r1, #0
  46              		.loc 1 186 0
  47 0012 BDE80840 		pop	{r3, lr}
  48              		.cfi_restore 14
  49              		.cfi_restore 3
  50              		.cfi_def_cfa_offset 0
  51              		.loc 1 185 0
  52 0016 FFF7FEBF 		b	RCC_APB1PeriphResetCmd
  53              	.LVL1:
  54              		.cfi_endproc
  55              	.LFE111:
  56              		.size	DAC_DeInit, .-DAC_DeInit
  57 001a 00BFAFF3 		.section	.text.DAC_Init,"ax",%progbits
ARM GAS  /var/folders/7z/kps_xzfj7sn5l5gkyq8s9db00000gn/T//ccIUdE2N.s 			page 2


  57      0080
  58              		.align	2
  59              		.p2align 4,,15
  60              		.global	DAC_Init
  61              		.thumb
  62              		.thumb_func
  63              		.type	DAC_Init, %function
  64              	DAC_Init:
  65              	.LFB112:
  66              		.loc 1 200 0
  67              		.cfi_startproc
  68              		@ args = 0, pretend = 0, frame = 0
  69              		@ frame_needed = 0, uses_anonymous_args = 0
  70              		@ link register save eliminated.
  71              	.LVL2:
  72 0000 F0B4     		push	{r4, r5, r6, r7}
  73              		.cfi_def_cfa_offset 16
  74              		.cfi_offset 4, -16
  75              		.cfi_offset 5, -12
  76              		.cfi_offset 6, -8
  77              		.cfi_offset 7, -4
  78              		.loc 1 220 0
  79 0002 91E8C000 		ldmia	r1, {r6, r7}
  80              		.loc 1 211 0
  81 0006 094D     		ldr	r5, .L5
  82              		.loc 1 220 0
  83 0008 8C68     		ldr	r4, [r1, #8]
  84 000a CB68     		ldr	r3, [r1, #12]
  85              		.loc 1 211 0
  86 000c 2A68     		ldr	r2, [r5]
  87              	.LVL3:
  88              		.loc 1 220 0
  89 000e 47EA0601 		orr	r1, r7, r6
  90              	.LVL4:
  91 0012 0C43     		orrs	r4, r4, r1
  92              		.loc 1 213 0
  93 0014 40F6FE71 		movw	r1, #4094
  94              		.loc 1 220 0
  95 0018 2343     		orrs	r3, r3, r4
  96              		.loc 1 213 0
  97 001a 8140     		lsls	r1, r1, r0
  98              		.loc 1 224 0
  99 001c 8340     		lsls	r3, r3, r0
 100              		.loc 1 213 0
 101 001e 22EA0102 		bic	r2, r2, r1
 102              	.LVL5:
 103              		.loc 1 224 0
 104 0022 1343     		orrs	r3, r3, r2
 105              	.LVL6:
 106              		.loc 1 226 0
 107 0024 2B60     		str	r3, [r5]
 108              	.LVL7:
 109              		.loc 1 227 0
 110 0026 F0BC     		pop	{r4, r5, r6, r7}
 111              		.cfi_restore 7
 112              		.cfi_restore 6
 113              		.cfi_restore 5
ARM GAS  /var/folders/7z/kps_xzfj7sn5l5gkyq8s9db00000gn/T//ccIUdE2N.s 			page 3


 114              		.cfi_restore 4
 115              		.cfi_def_cfa_offset 0
 116 0028 7047     		bx	lr
 117              	.L6:
 118 002a 00BF     		.align	2
 119              	.L5:
 120 002c 00740040 		.word	1073771520
 121              		.cfi_endproc
 122              	.LFE112:
 123              		.size	DAC_Init, .-DAC_Init
 124              		.section	.text.DAC_StructInit,"ax",%progbits
 125              		.align	2
 126              		.p2align 4,,15
 127              		.global	DAC_StructInit
 128              		.thumb
 129              		.thumb_func
 130              		.type	DAC_StructInit, %function
 131              	DAC_StructInit:
 132              	.LFB113:
 133              		.loc 1 236 0
 134              		.cfi_startproc
 135              		@ args = 0, pretend = 0, frame = 0
 136              		@ frame_needed = 0, uses_anonymous_args = 0
 137              		@ link register save eliminated.
 138              	.LVL8:
 139              		.loc 1 239 0
 140 0000 0023     		movs	r3, #0
 141 0002 0360     		str	r3, [r0]
 142              		.loc 1 241 0
 143 0004 4360     		str	r3, [r0, #4]
 144              		.loc 1 243 0
 145 0006 8360     		str	r3, [r0, #8]
 146              		.loc 1 245 0
 147 0008 C360     		str	r3, [r0, #12]
 148 000a 7047     		bx	lr
 149              		.cfi_endproc
 150              	.LFE113:
 151              		.size	DAC_StructInit, .-DAC_StructInit
 152 000c AFF30080 		.section	.text.DAC_Cmd,"ax",%progbits
 153              		.align	2
 154              		.p2align 4,,15
 155              		.global	DAC_Cmd
 156              		.thumb
 157              		.thumb_func
 158              		.type	DAC_Cmd, %function
 159              	DAC_Cmd:
 160              	.LFB114:
 161              		.loc 1 260 0
 162              		.cfi_startproc
 163              		@ args = 0, pretend = 0, frame = 0
 164              		@ frame_needed = 0, uses_anonymous_args = 0
 165              		@ link register save eliminated.
 166              	.LVL9:
 167              		.loc 1 265 0
 168 0000 39B9     		cbnz	r1, .L12
 169              		.loc 1 273 0
 170 0002 0749     		ldr	r1, .L13
ARM GAS  /var/folders/7z/kps_xzfj7sn5l5gkyq8s9db00000gn/T//ccIUdE2N.s 			page 4


 171              	.LVL10:
 172 0004 0123     		movs	r3, #1
 173 0006 0A68     		ldr	r2, [r1]
 174 0008 8340     		lsls	r3, r3, r0
 175 000a 22EA0303 		bic	r3, r2, r3
 176 000e 0B60     		str	r3, [r1]
 177 0010 7047     		bx	lr
 178              	.LVL11:
 179              	.L12:
 180              		.loc 1 268 0
 181 0012 0349     		ldr	r1, .L13
 182              	.LVL12:
 183 0014 0123     		movs	r3, #1
 184 0016 0A68     		ldr	r2, [r1]
 185 0018 8340     		lsls	r3, r3, r0
 186 001a 1343     		orrs	r3, r3, r2
 187 001c 0B60     		str	r3, [r1]
 188 001e 7047     		bx	lr
 189              	.L14:
 190              		.align	2
 191              	.L13:
 192 0020 00740040 		.word	1073771520
 193              		.cfi_endproc
 194              	.LFE114:
 195              		.size	DAC_Cmd, .-DAC_Cmd
 196 0024 AFF30080 		.section	.text.DAC_SoftwareTriggerCmd,"ax",%progbits
 196      AFF30080 
 196      AFF30080 
 197              		.align	2
 198              		.p2align 4,,15
 199              		.global	DAC_SoftwareTriggerCmd
 200              		.thumb
 201              		.thumb_func
 202              		.type	DAC_SoftwareTriggerCmd, %function
 203              	DAC_SoftwareTriggerCmd:
 204              	.LFB115:
 205              		.loc 1 288 0
 206              		.cfi_startproc
 207              		@ args = 0, pretend = 0, frame = 0
 208              		@ frame_needed = 0, uses_anonymous_args = 0
 209              		@ link register save eliminated.
 210              	.LVL13:
 211              		.loc 1 293 0
 212 0000 41B9     		cbnz	r1, .L18
 213              		.loc 1 301 0
 214 0002 0849     		ldr	r1, .L19
 215              	.LVL14:
 216 0004 0009     		lsrs	r0, r0, #4
 217              	.LVL15:
 218 0006 4A68     		ldr	r2, [r1, #4]
 219 0008 0123     		movs	r3, #1
 220 000a 8340     		lsls	r3, r3, r0
 221 000c 22EA0303 		bic	r3, r2, r3
 222 0010 4B60     		str	r3, [r1, #4]
 223 0012 7047     		bx	lr
 224              	.LVL16:
 225              	.L18:
ARM GAS  /var/folders/7z/kps_xzfj7sn5l5gkyq8s9db00000gn/T//ccIUdE2N.s 			page 5


 226              		.loc 1 296 0
 227 0014 0349     		ldr	r1, .L19
 228              	.LVL17:
 229 0016 0009     		lsrs	r0, r0, #4
 230              	.LVL18:
 231 0018 4A68     		ldr	r2, [r1, #4]
 232 001a 0123     		movs	r3, #1
 233 001c 8340     		lsls	r3, r3, r0
 234 001e 1343     		orrs	r3, r3, r2
 235 0020 4B60     		str	r3, [r1, #4]
 236 0022 7047     		bx	lr
 237              	.L20:
 238              		.align	2
 239              	.L19:
 240 0024 00740040 		.word	1073771520
 241              		.cfi_endproc
 242              	.LFE115:
 243              		.size	DAC_SoftwareTriggerCmd, .-DAC_SoftwareTriggerCmd
 244 0028 AFF30080 		.section	.text.DAC_DualSoftwareTriggerCmd,"ax",%progbits
 244      AFF30080 
 245              		.align	2
 246              		.p2align 4,,15
 247              		.global	DAC_DualSoftwareTriggerCmd
 248              		.thumb
 249              		.thumb_func
 250              		.type	DAC_DualSoftwareTriggerCmd, %function
 251              	DAC_DualSoftwareTriggerCmd:
 252              	.LFB116:
 253              		.loc 1 312 0
 254              		.cfi_startproc
 255              		@ args = 0, pretend = 0, frame = 0
 256              		@ frame_needed = 0, uses_anonymous_args = 0
 257              		@ link register save eliminated.
 258              	.LVL19:
 259              		.loc 1 319 0
 260 0000 054A     		ldr	r2, .L25
 261 0002 5368     		ldr	r3, [r2, #4]
 262              		.loc 1 316 0
 263 0004 18B9     		cbnz	r0, .L24
 264              		.loc 1 324 0
 265 0006 23F00303 		bic	r3, r3, #3
 266 000a 5360     		str	r3, [r2, #4]
 267 000c 7047     		bx	lr
 268              	.L24:
 269              		.loc 1 319 0
 270 000e 43F00303 		orr	r3, r3, #3
 271 0012 5360     		str	r3, [r2, #4]
 272 0014 7047     		bx	lr
 273              	.L26:
 274 0016 00BF     		.align	2
 275              	.L25:
 276 0018 00740040 		.word	1073771520
 277              		.cfi_endproc
 278              	.LFE116:
 279              		.size	DAC_DualSoftwareTriggerCmd, .-DAC_DualSoftwareTriggerCmd
 280 001c AFF30080 		.section	.text.DAC_WaveGenerationCmd,"ax",%progbits
 281              		.align	2
ARM GAS  /var/folders/7z/kps_xzfj7sn5l5gkyq8s9db00000gn/T//ccIUdE2N.s 			page 6


 282              		.p2align 4,,15
 283              		.global	DAC_WaveGenerationCmd
 284              		.thumb
 285              		.thumb_func
 286              		.type	DAC_WaveGenerationCmd, %function
 287              	DAC_WaveGenerationCmd:
 288              	.LFB117:
 289              		.loc 1 343 0
 290              		.cfi_startproc
 291              		@ args = 0, pretend = 0, frame = 0
 292              		@ frame_needed = 0, uses_anonymous_args = 0
 293              		@ link register save eliminated.
 294              	.LVL20:
 295              		.loc 1 349 0
 296 0000 32B9     		cbnz	r2, .L30
 297              		.loc 1 357 0
 298 0002 064A     		ldr	r2, .L31
 299              	.LVL21:
 300 0004 1368     		ldr	r3, [r2]
 301 0006 8140     		lsls	r1, r1, r0
 302              	.LVL22:
 303 0008 23EA0101 		bic	r1, r3, r1
 304 000c 1160     		str	r1, [r2]
 305 000e 7047     		bx	lr
 306              	.LVL23:
 307              	.L30:
 308              		.loc 1 352 0
 309 0010 024A     		ldr	r2, .L31
 310              	.LVL24:
 311 0012 1368     		ldr	r3, [r2]
 312 0014 8140     		lsls	r1, r1, r0
 313              	.LVL25:
 314 0016 1943     		orrs	r1, r1, r3
 315 0018 1160     		str	r1, [r2]
 316 001a 7047     		bx	lr
 317              	.L32:
 318              		.align	2
 319              	.L31:
 320 001c 00740040 		.word	1073771520
 321              		.cfi_endproc
 322              	.LFE117:
 323              		.size	DAC_WaveGenerationCmd, .-DAC_WaveGenerationCmd
 324              		.section	.text.DAC_SetChannel1Data,"ax",%progbits
 325              		.align	2
 326              		.p2align 4,,15
 327              		.global	DAC_SetChannel1Data
 328              		.thumb
 329              		.thumb_func
 330              		.type	DAC_SetChannel1Data, %function
 331              	DAC_SetChannel1Data:
 332              	.LFB118:
 333              		.loc 1 372 0
 334              		.cfi_startproc
 335              		@ args = 0, pretend = 0, frame = 8
 336              		@ frame_needed = 0, uses_anonymous_args = 0
 337              		@ link register save eliminated.
 338              	.LVL26:
ARM GAS  /var/folders/7z/kps_xzfj7sn5l5gkyq8s9db00000gn/T//ccIUdE2N.s 			page 7


 339 0000 82B0     		sub	sp, sp, #8
 340              		.cfi_def_cfa_offset 8
 341              		.loc 1 373 0
 342 0002 0022     		movs	r2, #0
 343              		.loc 1 379 0
 344 0004 054B     		ldr	r3, .L35
 345              		.loc 1 373 0
 346 0006 0192     		str	r2, [sp, #4]
 347              		.loc 1 379 0
 348 0008 0193     		str	r3, [sp, #4]
 349              		.loc 1 380 0
 350 000a 019B     		ldr	r3, [sp, #4]
 351 000c 0833     		adds	r3, r3, #8
 352 000e 1844     		add	r0, r0, r3
 353              	.LVL27:
 354 0010 0190     		str	r0, [sp, #4]
 355              		.loc 1 383 0
 356 0012 019B     		ldr	r3, [sp, #4]
 357 0014 1960     		str	r1, [r3]
 358              		.loc 1 384 0
 359 0016 02B0     		add	sp, sp, #8
 360              		.cfi_def_cfa_offset 0
 361              		@ sp needed
 362 0018 7047     		bx	lr
 363              	.L36:
 364 001a 00BF     		.align	2
 365              	.L35:
 366 001c 00740040 		.word	1073771520
 367              		.cfi_endproc
 368              	.LFE118:
 369              		.size	DAC_SetChannel1Data, .-DAC_SetChannel1Data
 370              		.section	.text.DAC_SetChannel2Data,"ax",%progbits
 371              		.align	2
 372              		.p2align 4,,15
 373              		.global	DAC_SetChannel2Data
 374              		.thumb
 375              		.thumb_func
 376              		.type	DAC_SetChannel2Data, %function
 377              	DAC_SetChannel2Data:
 378              	.LFB119:
 379              		.loc 1 397 0
 380              		.cfi_startproc
 381              		@ args = 0, pretend = 0, frame = 8
 382              		@ frame_needed = 0, uses_anonymous_args = 0
 383              		@ link register save eliminated.
 384              	.LVL28:
 385 0000 82B0     		sub	sp, sp, #8
 386              		.cfi_def_cfa_offset 8
 387              		.loc 1 398 0
 388 0002 0022     		movs	r2, #0
 389              		.loc 1 404 0
 390 0004 054B     		ldr	r3, .L39
 391              		.loc 1 398 0
 392 0006 0192     		str	r2, [sp, #4]
 393              		.loc 1 404 0
 394 0008 0193     		str	r3, [sp, #4]
 395              		.loc 1 405 0
ARM GAS  /var/folders/7z/kps_xzfj7sn5l5gkyq8s9db00000gn/T//ccIUdE2N.s 			page 8


 396 000a 019B     		ldr	r3, [sp, #4]
 397 000c 1433     		adds	r3, r3, #20
 398 000e 1844     		add	r0, r0, r3
 399              	.LVL29:
 400 0010 0190     		str	r0, [sp, #4]
 401              		.loc 1 408 0
 402 0012 019B     		ldr	r3, [sp, #4]
 403 0014 1960     		str	r1, [r3]
 404              		.loc 1 409 0
 405 0016 02B0     		add	sp, sp, #8
 406              		.cfi_def_cfa_offset 0
 407              		@ sp needed
 408 0018 7047     		bx	lr
 409              	.L40:
 410 001a 00BF     		.align	2
 411              	.L39:
 412 001c 00740040 		.word	1073771520
 413              		.cfi_endproc
 414              	.LFE119:
 415              		.size	DAC_SetChannel2Data, .-DAC_SetChannel2Data
 416              		.section	.text.DAC_SetDualChannelData,"ax",%progbits
 417              		.align	2
 418              		.p2align 4,,15
 419              		.global	DAC_SetDualChannelData
 420              		.thumb
 421              		.thumb_func
 422              		.type	DAC_SetDualChannelData, %function
 423              	DAC_SetDualChannelData:
 424              	.LFB120:
 425              		.loc 1 425 0
 426              		.cfi_startproc
 427              		@ args = 0, pretend = 0, frame = 0
 428              		@ frame_needed = 0, uses_anonymous_args = 0
 429              		@ link register save eliminated.
 430              	.LVL30:
 431              		.loc 1 434 0
 432 0000 0828     		cmp	r0, #8
 433              		.loc 1 444 0
 434 0002 044B     		ldr	r3, .L44
 435              		.loc 1 436 0
 436 0004 0CBF     		ite	eq
 437 0006 42EA0122 		orreq	r2, r2, r1, lsl #8
 438              	.LVL31:
 439              		.loc 1 440 0
 440 000a 42EA0142 		orrne	r2, r2, r1, lsl #16
 441              	.LVL32:
 442              		.loc 1 447 0
 443 000e C250     		str	r2, [r0, r3]
 444 0010 7047     		bx	lr
 445              	.L45:
 446 0012 00BF     		.align	2
 447              	.L44:
 448 0014 20740040 		.word	1073771552
 449              		.cfi_endproc
 450              	.LFE120:
 451              		.size	DAC_SetDualChannelData, .-DAC_SetDualChannelData
 452 0018 AFF30080 		.section	.text.DAC_GetDataOutputValue,"ax",%progbits
ARM GAS  /var/folders/7z/kps_xzfj7sn5l5gkyq8s9db00000gn/T//ccIUdE2N.s 			page 9


 452      AFF30080 
 453              		.align	2
 454              		.p2align 4,,15
 455              		.global	DAC_GetDataOutputValue
 456              		.thumb
 457              		.thumb_func
 458              		.type	DAC_GetDataOutputValue, %function
 459              	DAC_GetDataOutputValue:
 460              	.LFB121:
 461              		.loc 1 459 0
 462              		.cfi_startproc
 463              		@ args = 0, pretend = 0, frame = 8
 464              		@ frame_needed = 0, uses_anonymous_args = 0
 465              		@ link register save eliminated.
 466              	.LVL33:
 467 0000 82B0     		sub	sp, sp, #8
 468              		.cfi_def_cfa_offset 8
 469              		.loc 1 460 0
 470 0002 0022     		movs	r2, #0
 471              		.loc 1 465 0
 472 0004 064B     		ldr	r3, .L48
 473              		.loc 1 460 0
 474 0006 0192     		str	r2, [sp, #4]
 475              		.loc 1 465 0
 476 0008 0193     		str	r3, [sp, #4]
 477              		.loc 1 466 0
 478 000a 019B     		ldr	r3, [sp, #4]
 479 000c 2C33     		adds	r3, r3, #44
 480 000e 03EB9000 		add	r0, r3, r0, lsr #2
 481              	.LVL34:
 482 0012 0190     		str	r0, [sp, #4]
 483              		.loc 1 469 0
 484 0014 019B     		ldr	r3, [sp, #4]
 485 0016 1868     		ldr	r0, [r3]
 486              		.loc 1 470 0
 487 0018 80B2     		uxth	r0, r0
 488 001a 02B0     		add	sp, sp, #8
 489              		.cfi_def_cfa_offset 0
 490              		@ sp needed
 491 001c 7047     		bx	lr
 492              	.L49:
 493 001e 00BF     		.align	2
 494              	.L48:
 495 0020 00740040 		.word	1073771520
 496              		.cfi_endproc
 497              	.LFE121:
 498              		.size	DAC_GetDataOutputValue, .-DAC_GetDataOutputValue
 499 0024 AFF30080 		.section	.text.DAC_DMACmd,"ax",%progbits
 499      AFF30080 
 499      AFF30080 
 500              		.align	2
 501              		.p2align 4,,15
 502              		.global	DAC_DMACmd
 503              		.thumb
 504              		.thumb_func
 505              		.type	DAC_DMACmd, %function
 506              	DAC_DMACmd:
ARM GAS  /var/folders/7z/kps_xzfj7sn5l5gkyq8s9db00000gn/T//ccIUdE2N.s 			page 10


 507              	.LFB122:
 508              		.loc 1 504 0
 509              		.cfi_startproc
 510              		@ args = 0, pretend = 0, frame = 0
 511              		@ frame_needed = 0, uses_anonymous_args = 0
 512              		@ link register save eliminated.
 513              	.LVL35:
 514              		.loc 1 509 0
 515 0000 41B9     		cbnz	r1, .L53
 516              		.loc 1 517 0
 517 0002 0849     		ldr	r1, .L54
 518              	.LVL36:
 519 0004 4FF48053 		mov	r3, #4096
 520 0008 0A68     		ldr	r2, [r1]
 521 000a 8340     		lsls	r3, r3, r0
 522 000c 22EA0303 		bic	r3, r2, r3
 523 0010 0B60     		str	r3, [r1]
 524 0012 7047     		bx	lr
 525              	.LVL37:
 526              	.L53:
 527              		.loc 1 512 0
 528 0014 0349     		ldr	r1, .L54
 529              	.LVL38:
 530 0016 4FF48053 		mov	r3, #4096
 531 001a 0A68     		ldr	r2, [r1]
 532 001c 8340     		lsls	r3, r3, r0
 533 001e 1343     		orrs	r3, r3, r2
 534 0020 0B60     		str	r3, [r1]
 535 0022 7047     		bx	lr
 536              	.L55:
 537              		.align	2
 538              	.L54:
 539 0024 00740040 		.word	1073771520
 540              		.cfi_endproc
 541              	.LFE122:
 542              		.size	DAC_DMACmd, .-DAC_DMACmd
 543 0028 AFF30080 		.section	.text.DAC_ITConfig,"ax",%progbits
 543      AFF30080 
 544              		.align	2
 545              		.p2align 4,,15
 546              		.global	DAC_ITConfig
 547              		.thumb
 548              		.thumb_func
 549              		.type	DAC_ITConfig, %function
 550              	DAC_ITConfig:
 551              	.LFB123:
 552              		.loc 1 552 0
 553              		.cfi_startproc
 554              		@ args = 0, pretend = 0, frame = 0
 555              		@ frame_needed = 0, uses_anonymous_args = 0
 556              		@ link register save eliminated.
 557              	.LVL39:
 558              		.loc 1 558 0
 559 0000 32B9     		cbnz	r2, .L59
 560              		.loc 1 566 0
 561 0002 064A     		ldr	r2, .L60
 562              	.LVL40:
ARM GAS  /var/folders/7z/kps_xzfj7sn5l5gkyq8s9db00000gn/T//ccIUdE2N.s 			page 11


 563 0004 1368     		ldr	r3, [r2]
 564 0006 8140     		lsls	r1, r1, r0
 565              	.LVL41:
 566 0008 23EA0101 		bic	r1, r3, r1
 567 000c 1160     		str	r1, [r2]
 568 000e 7047     		bx	lr
 569              	.LVL42:
 570              	.L59:
 571              		.loc 1 561 0
 572 0010 024A     		ldr	r2, .L60
 573              	.LVL43:
 574 0012 1368     		ldr	r3, [r2]
 575 0014 8140     		lsls	r1, r1, r0
 576              	.LVL44:
 577 0016 1943     		orrs	r1, r1, r3
 578 0018 1160     		str	r1, [r2]
 579 001a 7047     		bx	lr
 580              	.L61:
 581              		.align	2
 582              	.L60:
 583 001c 00740040 		.word	1073771520
 584              		.cfi_endproc
 585              	.LFE123:
 586              		.size	DAC_ITConfig, .-DAC_ITConfig
 587              		.section	.text.DAC_GetFlagStatus,"ax",%progbits
 588              		.align	2
 589              		.p2align 4,,15
 590              		.global	DAC_GetFlagStatus
 591              		.thumb
 592              		.thumb_func
 593              		.type	DAC_GetFlagStatus, %function
 594              	DAC_GetFlagStatus:
 595              	.LFB124:
 596              		.loc 1 584 0
 597              		.cfi_startproc
 598              		@ args = 0, pretend = 0, frame = 0
 599              		@ frame_needed = 0, uses_anonymous_args = 0
 600              		@ link register save eliminated.
 601              	.LVL45:
 602              		.loc 1 591 0
 603 0000 034B     		ldr	r3, .L63
 604 0002 5B6B     		ldr	r3, [r3, #52]
 605              	.LVL46:
 606 0004 8140     		lsls	r1, r1, r0
 607              	.LVL47:
 608 0006 1942     		tst	r1, r3
 609              		.loc 1 603 0
 610 0008 14BF     		ite	ne
 611 000a 0120     		movne	r0, #1
 612              	.LVL48:
 613 000c 0020     		moveq	r0, #0
 614 000e 7047     		bx	lr
 615              	.L64:
 616              		.align	2
 617              	.L63:
 618 0010 00740040 		.word	1073771520
 619              		.cfi_endproc
ARM GAS  /var/folders/7z/kps_xzfj7sn5l5gkyq8s9db00000gn/T//ccIUdE2N.s 			page 12


 620              	.LFE124:
 621              		.size	DAC_GetFlagStatus, .-DAC_GetFlagStatus
 622 0014 AFF30080 		.section	.text.DAC_ClearFlag,"ax",%progbits
 622      AFF30080 
 622      AFF30080 
 623              		.align	2
 624              		.p2align 4,,15
 625              		.global	DAC_ClearFlag
 626              		.thumb
 627              		.thumb_func
 628              		.type	DAC_ClearFlag, %function
 629              	DAC_ClearFlag:
 630              	.LFB125:
 631              		.loc 1 619 0
 632              		.cfi_startproc
 633              		@ args = 0, pretend = 0, frame = 0
 634              		@ frame_needed = 0, uses_anonymous_args = 0
 635              		@ link register save eliminated.
 636              	.LVL49:
 637              		.loc 1 625 0
 638 0000 014B     		ldr	r3, .L66
 639 0002 8140     		lsls	r1, r1, r0
 640              	.LVL50:
 641 0004 5963     		str	r1, [r3, #52]
 642 0006 7047     		bx	lr
 643              	.L67:
 644              		.align	2
 645              	.L66:
 646 0008 00740040 		.word	1073771520
 647              		.cfi_endproc
 648              	.LFE125:
 649              		.size	DAC_ClearFlag, .-DAC_ClearFlag
 650 000c AFF30080 		.section	.text.DAC_GetITStatus,"ax",%progbits
 651              		.align	2
 652              		.p2align 4,,15
 653              		.global	DAC_GetITStatus
 654              		.thumb
 655              		.thumb_func
 656              		.type	DAC_GetITStatus, %function
 657              	DAC_GetITStatus:
 658              	.LFB126:
 659              		.loc 1 642 0
 660              		.cfi_startproc
 661              		@ args = 0, pretend = 0, frame = 0
 662              		@ frame_needed = 0, uses_anonymous_args = 0
 663              		@ link register save eliminated.
 664              	.LVL51:
 665              		.loc 1 651 0
 666 0000 054B     		ldr	r3, .L71
 667 0002 1A68     		ldr	r2, [r3]
 668              		.loc 1 654 0
 669 0004 5B6B     		ldr	r3, [r3, #52]
 670              		.loc 1 651 0
 671 0006 8140     		lsls	r1, r1, r0
 672              	.LVL52:
 673              		.loc 1 654 0
 674 0008 11EA0300 		ands	r0, r1, r3
ARM GAS  /var/folders/7z/kps_xzfj7sn5l5gkyq8s9db00000gn/T//ccIUdE2N.s 			page 13


 675              	.LVL53:
 676 000c 03D0     		beq	.L69
 677              		.loc 1 654 0 is_stmt 0 discriminator 1
 678 000e 1142     		tst	r1, r2
 679              		.loc 1 657 0 is_stmt 1 discriminator 1
 680 0010 14BF     		ite	ne
 681 0012 0120     		movne	r0, #1
 682 0014 0020     		moveq	r0, #0
 683              	.L69:
 684              	.LVL54:
 685              		.loc 1 666 0
 686 0016 7047     		bx	lr
 687              	.L72:
 688              		.align	2
 689              	.L71:
 690 0018 00740040 		.word	1073771520
 691              		.cfi_endproc
 692              	.LFE126:
 693              		.size	DAC_GetITStatus, .-DAC_GetITStatus
 694 001c AFF30080 		.section	.text.DAC_ClearITPendingBit,"ax",%progbits
 695              		.align	2
 696              		.p2align 4,,15
 697              		.global	DAC_ClearITPendingBit
 698              		.thumb
 699              		.thumb_func
 700              		.type	DAC_ClearITPendingBit, %function
 701              	DAC_ClearITPendingBit:
 702              	.LFB127:
 703              		.loc 1 682 0
 704              		.cfi_startproc
 705              		@ args = 0, pretend = 0, frame = 0
 706              		@ frame_needed = 0, uses_anonymous_args = 0
 707              		@ link register save eliminated.
 708              	.LVL55:
 709              		.loc 1 688 0
 710 0000 014B     		ldr	r3, .L74
 711 0002 8140     		lsls	r1, r1, r0
 712              	.LVL56:
 713 0004 5963     		str	r1, [r3, #52]
 714 0006 7047     		bx	lr
 715              	.L75:
 716              		.align	2
 717              	.L74:
 718 0008 00740040 		.word	1073771520
 719              		.cfi_endproc
 720              	.LFE127:
 721              		.size	DAC_ClearITPendingBit, .-DAC_ClearITPendingBit
 722 000c AFF30080 		.text
 723              	.Letext0:
 724              		.file 2 "/Users/Baram/gcc-arm-none-eabi/arm-none-eabi/include/machine/_default_types.h"
 725              		.file 3 "/Users/Baram/gcc-arm-none-eabi/arm-none-eabi/include/stdint.h"
 726              		.file 4 "lib/ChibiOS_2.6.6/os/hal/platforms/STM32F4xx/stm32f4xx.h"
 727              		.file 5 "lib/ChibiOS_2.6.6/ext/stdperiph_stm32f4/inc/stm32f4xx_dac.h"
 728              		.file 6 "lib/ChibiOS_2.6.6/os/ports/common/ARMCMx/CMSIS/include/core_cm4.h"
 729              		.file 7 "lib/ChibiOS_2.6.6/ext/stdperiph_stm32f4/inc/stm32f4xx_rcc.h"
 730              		.section	.debug_info,"",%progbits
 731              	.Ldebug_info0:
ARM GAS  /var/folders/7z/kps_xzfj7sn5l5gkyq8s9db00000gn/T//ccIUdE2N.s 			page 14


 732 0000 92060000 		.4byte	0x692
 733 0004 0400     		.2byte	0x4
 734 0006 00000000 		.4byte	.Ldebug_abbrev0
 735 000a 04       		.byte	0x4
 736 000b 01       		.uleb128 0x1
 737 000c 26000000 		.4byte	.LASF74
 738 0010 01       		.byte	0x1
 739 0011 15020000 		.4byte	.LASF75
 740 0015 6C040000 		.4byte	.LASF76
 741 0019 00000000 		.4byte	.Ldebug_ranges0+0
 742 001d 00000000 		.4byte	0
 743 0021 00000000 		.4byte	.Ldebug_line0
 744 0025 02       		.uleb128 0x2
 745 0026 01       		.byte	0x1
 746 0027 06       		.byte	0x6
 747 0028 18030000 		.4byte	.LASF0
 748 002c 03       		.uleb128 0x3
 749 002d B5020000 		.4byte	.LASF3
 750 0031 02       		.byte	0x2
 751 0032 1D       		.byte	0x1d
 752 0033 37000000 		.4byte	0x37
 753 0037 02       		.uleb128 0x2
 754 0038 01       		.byte	0x1
 755 0039 08       		.byte	0x8
 756 003a F1020000 		.4byte	.LASF1
 757 003e 02       		.uleb128 0x2
 758 003f 02       		.byte	0x2
 759 0040 05       		.byte	0x5
 760 0041 DA010000 		.4byte	.LASF2
 761 0045 03       		.uleb128 0x3
 762 0046 CF010000 		.4byte	.LASF4
 763 004a 02       		.byte	0x2
 764 004b 2B       		.byte	0x2b
 765 004c 50000000 		.4byte	0x50
 766 0050 02       		.uleb128 0x2
 767 0051 02       		.byte	0x2
 768 0052 07       		.byte	0x7
 769 0053 83030000 		.4byte	.LASF5
 770 0057 03       		.uleb128 0x3
 771 0058 FF020000 		.4byte	.LASF6
 772 005c 02       		.byte	0x2
 773 005d 3F       		.byte	0x3f
 774 005e 62000000 		.4byte	0x62
 775 0062 02       		.uleb128 0x2
 776 0063 04       		.byte	0x4
 777 0064 05       		.byte	0x5
 778 0065 8C020000 		.4byte	.LASF7
 779 0069 03       		.uleb128 0x3
 780 006a B3010000 		.4byte	.LASF8
 781 006e 02       		.byte	0x2
 782 006f 41       		.byte	0x41
 783 0070 74000000 		.4byte	0x74
 784 0074 02       		.uleb128 0x2
 785 0075 04       		.byte	0x4
 786 0076 07       		.byte	0x7
 787 0077 26040000 		.4byte	.LASF9
 788 007b 02       		.uleb128 0x2
ARM GAS  /var/folders/7z/kps_xzfj7sn5l5gkyq8s9db00000gn/T//ccIUdE2N.s 			page 15


 789 007c 08       		.byte	0x8
 790 007d 05       		.byte	0x5
 791 007e 5E020000 		.4byte	.LASF10
 792 0082 02       		.uleb128 0x2
 793 0083 08       		.byte	0x8
 794 0084 07       		.byte	0x7
 795 0085 24030000 		.4byte	.LASF11
 796 0089 04       		.uleb128 0x4
 797 008a 04       		.byte	0x4
 798 008b 05       		.byte	0x5
 799 008c 696E7400 		.ascii	"int\000"
 800 0090 02       		.uleb128 0x2
 801 0091 04       		.byte	0x4
 802 0092 07       		.byte	0x7
 803 0093 E0040000 		.4byte	.LASF12
 804 0097 03       		.uleb128 0x3
 805 0098 B0040000 		.4byte	.LASF13
 806 009c 03       		.byte	0x3
 807 009d 15       		.byte	0x15
 808 009e 2C000000 		.4byte	0x2c
 809 00a2 03       		.uleb128 0x3
 810 00a3 50030000 		.4byte	.LASF14
 811 00a7 03       		.byte	0x3
 812 00a8 21       		.byte	0x21
 813 00a9 45000000 		.4byte	0x45
 814 00ad 03       		.uleb128 0x3
 815 00ae DA030000 		.4byte	.LASF15
 816 00b2 03       		.byte	0x3
 817 00b3 2C       		.byte	0x2c
 818 00b4 57000000 		.4byte	0x57
 819 00b8 03       		.uleb128 0x3
 820 00b9 3B030000 		.4byte	.LASF16
 821 00bd 03       		.byte	0x3
 822 00be 2D       		.byte	0x2d
 823 00bf 69000000 		.4byte	0x69
 824 00c3 02       		.uleb128 0x2
 825 00c4 04       		.byte	0x4
 826 00c5 07       		.byte	0x7
 827 00c6 87010000 		.4byte	.LASF17
 828 00ca 05       		.uleb128 0x5
 829 00cb B8000000 		.4byte	0xb8
 830 00cf 05       		.uleb128 0x5
 831 00d0 AD000000 		.4byte	0xad
 832 00d4 06       		.uleb128 0x6
 833 00d5 01       		.byte	0x1
 834 00d6 04       		.byte	0x4
 835 00d7 F701     		.2byte	0x1f7
 836 00d9 EA000000 		.4byte	0xea
 837 00dd 07       		.uleb128 0x7
 838 00de AA040000 		.4byte	.LASF18
 839 00e2 00       		.sleb128 0
 840 00e3 08       		.uleb128 0x8
 841 00e4 53455400 		.ascii	"SET\000"
 842 00e8 01       		.sleb128 1
 843 00e9 00       		.byte	0
 844 00ea 09       		.uleb128 0x9
 845 00eb 1B050000 		.4byte	.LASF19
ARM GAS  /var/folders/7z/kps_xzfj7sn5l5gkyq8s9db00000gn/T//ccIUdE2N.s 			page 16


 846 00ef 04       		.byte	0x4
 847 00f0 F701     		.2byte	0x1f7
 848 00f2 D4000000 		.4byte	0xd4
 849 00f6 09       		.uleb128 0x9
 850 00f7 83020000 		.4byte	.LASF20
 851 00fb 04       		.byte	0x4
 852 00fc F701     		.2byte	0x1f7
 853 00fe D4000000 		.4byte	0xd4
 854 0102 06       		.uleb128 0x6
 855 0103 01       		.byte	0x1
 856 0104 04       		.byte	0x4
 857 0105 F901     		.2byte	0x1f9
 858 0107 18010000 		.4byte	0x118
 859 010b 07       		.uleb128 0x7
 860 010c FF010000 		.4byte	.LASF21
 861 0110 00       		.sleb128 0
 862 0111 07       		.uleb128 0x7
 863 0112 26050000 		.4byte	.LASF22
 864 0116 01       		.sleb128 1
 865 0117 00       		.byte	0
 866 0118 09       		.uleb128 0x9
 867 0119 38040000 		.4byte	.LASF23
 868 011d 04       		.byte	0x4
 869 011e F901     		.2byte	0x1f9
 870 0120 02010000 		.4byte	0x102
 871 0124 0A       		.uleb128 0xa
 872 0125 38       		.byte	0x38
 873 0126 04       		.byte	0x4
 874 0127 7C02     		.2byte	0x27c
 875 0129 E2010000 		.4byte	0x1e2
 876 012d 0B       		.uleb128 0xb
 877 012e 435200   		.ascii	"CR\000"
 878 0131 04       		.byte	0x4
 879 0132 7E02     		.2byte	0x27e
 880 0134 CA000000 		.4byte	0xca
 881 0138 00       		.byte	0
 882 0139 0C       		.uleb128 0xc
 883 013a 7B030000 		.4byte	.LASF24
 884 013e 04       		.byte	0x4
 885 013f 7F02     		.2byte	0x27f
 886 0141 CA000000 		.4byte	0xca
 887 0145 04       		.byte	0x4
 888 0146 0C       		.uleb128 0xc
 889 0147 EC030000 		.4byte	.LASF25
 890 014b 04       		.byte	0x4
 891 014c 8002     		.2byte	0x280
 892 014e CA000000 		.4byte	0xca
 893 0152 08       		.byte	0x8
 894 0153 0C       		.uleb128 0xc
 895 0154 61010000 		.4byte	.LASF26
 896 0158 04       		.byte	0x4
 897 0159 8102     		.2byte	0x281
 898 015b CA000000 		.4byte	0xca
 899 015f 0C       		.byte	0xc
 900 0160 0C       		.uleb128 0xc
 901 0161 FA040000 		.4byte	.LASF27
 902 0165 04       		.byte	0x4
ARM GAS  /var/folders/7z/kps_xzfj7sn5l5gkyq8s9db00000gn/T//ccIUdE2N.s 			page 17


 903 0166 8202     		.2byte	0x282
 904 0168 CA000000 		.4byte	0xca
 905 016c 10       		.byte	0x10
 906 016d 0C       		.uleb128 0xc
 907 016e F4030000 		.4byte	.LASF28
 908 0172 04       		.byte	0x4
 909 0173 8302     		.2byte	0x283
 910 0175 CA000000 		.4byte	0xca
 911 0179 14       		.byte	0x14
 912 017a 0C       		.uleb128 0xc
 913 017b 69010000 		.4byte	.LASF29
 914 017f 04       		.byte	0x4
 915 0180 8402     		.2byte	0x284
 916 0182 CA000000 		.4byte	0xca
 917 0186 18       		.byte	0x18
 918 0187 0C       		.uleb128 0xc
 919 0188 01050000 		.4byte	.LASF30
 920 018c 04       		.byte	0x4
 921 018d 8502     		.2byte	0x285
 922 018f CA000000 		.4byte	0xca
 923 0193 1C       		.byte	0x1c
 924 0194 0C       		.uleb128 0xc
 925 0195 1E040000 		.4byte	.LASF31
 926 0199 04       		.byte	0x4
 927 019a 8602     		.2byte	0x286
 928 019c CA000000 		.4byte	0xca
 929 01a0 20       		.byte	0x20
 930 01a1 0C       		.uleb128 0xc
 931 01a2 90010000 		.4byte	.LASF32
 932 01a6 04       		.byte	0x4
 933 01a7 8702     		.2byte	0x287
 934 01a9 CA000000 		.4byte	0xca
 935 01ad 24       		.byte	0x24
 936 01ae 0C       		.uleb128 0xc
 937 01af 1F000000 		.4byte	.LASF33
 938 01b3 04       		.byte	0x4
 939 01b4 8802     		.2byte	0x288
 940 01b6 CA000000 		.4byte	0xca
 941 01ba 28       		.byte	0x28
 942 01bb 0C       		.uleb128 0xc
 943 01bc EC010000 		.4byte	.LASF34
 944 01c0 04       		.byte	0x4
 945 01c1 8902     		.2byte	0x289
 946 01c3 CA000000 		.4byte	0xca
 947 01c7 2C       		.byte	0x2c
 948 01c8 0C       		.uleb128 0xc
 949 01c9 F1010000 		.4byte	.LASF35
 950 01cd 04       		.byte	0x4
 951 01ce 8A02     		.2byte	0x28a
 952 01d0 CA000000 		.4byte	0xca
 953 01d4 30       		.byte	0x30
 954 01d5 0B       		.uleb128 0xb
 955 01d6 535200   		.ascii	"SR\000"
 956 01d9 04       		.byte	0x4
 957 01da 8B02     		.2byte	0x28b
 958 01dc CA000000 		.4byte	0xca
 959 01e0 34       		.byte	0x34
ARM GAS  /var/folders/7z/kps_xzfj7sn5l5gkyq8s9db00000gn/T//ccIUdE2N.s 			page 18


 960 01e1 00       		.byte	0
 961 01e2 09       		.uleb128 0x9
 962 01e3 D4040000 		.4byte	.LASF36
 963 01e7 04       		.byte	0x4
 964 01e8 8C02     		.2byte	0x28c
 965 01ea 24010000 		.4byte	0x124
 966 01ee 0D       		.uleb128 0xd
 967 01ef 10       		.byte	0x10
 968 01f0 05       		.byte	0x5
 969 01f1 36       		.byte	0x36
 970 01f2 27020000 		.4byte	0x227
 971 01f6 0E       		.uleb128 0xe
 972 01f7 44030000 		.4byte	.LASF37
 973 01fb 05       		.byte	0x5
 974 01fc 38       		.byte	0x38
 975 01fd B8000000 		.4byte	0xb8
 976 0201 00       		.byte	0
 977 0202 0E       		.uleb128 0xe
 978 0203 08050000 		.4byte	.LASF38
 979 0207 05       		.byte	0x5
 980 0208 3B       		.byte	0x3b
 981 0209 B8000000 		.4byte	0xb8
 982 020d 04       		.byte	0x4
 983 020e 0E       		.uleb128 0xe
 984 020f B9030000 		.4byte	.LASF39
 985 0213 05       		.byte	0x5
 986 0214 3F       		.byte	0x3f
 987 0215 B8000000 		.4byte	0xb8
 988 0219 08       		.byte	0x8
 989 021a 0E       		.uleb128 0xe
 990 021b BE010000 		.4byte	.LASF40
 991 021f 05       		.byte	0x5
 992 0220 43       		.byte	0x43
 993 0221 B8000000 		.4byte	0xb8
 994 0225 0C       		.byte	0xc
 995 0226 00       		.byte	0
 996 0227 03       		.uleb128 0x3
 997 0228 03040000 		.4byte	.LASF41
 998 022c 05       		.byte	0x5
 999 022d 45       		.byte	0x45
 1000 022e EE010000 		.4byte	0x1ee
 1001 0232 0F       		.uleb128 0xf
 1002 0233 70030000 		.4byte	.LASF42
 1003 0237 01       		.byte	0x1
 1004 0238 B4       		.byte	0xb4
 1005 0239 00000000 		.4byte	.LFB111
 1006 023d 1A000000 		.4byte	.LFE111-.LFB111
 1007 0241 01       		.uleb128 0x1
 1008 0242 9C       		.byte	0x9c
 1009 0243 78020000 		.4byte	0x278
 1010 0247 10       		.uleb128 0x10
 1011 0248 0C000000 		.4byte	.LVL0
 1012 024c 82060000 		.4byte	0x682
 1013 0250 61020000 		.4byte	0x261
 1014 0254 11       		.uleb128 0x11
 1015 0255 01       		.uleb128 0x1
 1016 0256 51       		.byte	0x51
ARM GAS  /var/folders/7z/kps_xzfj7sn5l5gkyq8s9db00000gn/T//ccIUdE2N.s 			page 19


 1017 0257 01       		.uleb128 0x1
 1018 0258 31       		.byte	0x31
 1019 0259 11       		.uleb128 0x11
 1020 025a 01       		.uleb128 0x1
 1021 025b 50       		.byte	0x50
 1022 025c 03       		.uleb128 0x3
 1023 025d 40       		.byte	0x40
 1024 025e 49       		.byte	0x49
 1025 025f 24       		.byte	0x24
 1026 0260 00       		.byte	0
 1027 0261 12       		.uleb128 0x12
 1028 0262 1A000000 		.4byte	.LVL1
 1029 0266 82060000 		.4byte	0x682
 1030 026a 11       		.uleb128 0x11
 1031 026b 01       		.uleb128 0x1
 1032 026c 51       		.byte	0x51
 1033 026d 01       		.uleb128 0x1
 1034 026e 30       		.byte	0x30
 1035 026f 11       		.uleb128 0x11
 1036 0270 01       		.uleb128 0x1
 1037 0271 50       		.byte	0x50
 1038 0272 03       		.uleb128 0x3
 1039 0273 40       		.byte	0x40
 1040 0274 49       		.byte	0x49
 1041 0275 24       		.byte	0x24
 1042 0276 00       		.byte	0
 1043 0277 00       		.byte	0
 1044 0278 0F       		.uleb128 0xf
 1045 0279 B8040000 		.4byte	.LASF43
 1046 027d 01       		.byte	0x1
 1047 027e C7       		.byte	0xc7
 1048 027f 00000000 		.4byte	.LFB112
 1049 0283 30000000 		.4byte	.LFE112-.LFB112
 1050 0287 01       		.uleb128 0x1
 1051 0288 9C       		.byte	0x9c
 1052 0289 C8020000 		.4byte	0x2c8
 1053 028d 13       		.uleb128 0x13
 1054 028e 64030000 		.4byte	.LASF44
 1055 0292 01       		.byte	0x1
 1056 0293 C7       		.byte	0xc7
 1057 0294 B8000000 		.4byte	0xb8
 1058 0298 01       		.uleb128 0x1
 1059 0299 50       		.byte	0x50
 1060 029a 14       		.uleb128 0x14
 1061 029b E2020000 		.4byte	.LASF45
 1062 029f 01       		.byte	0x1
 1063 02a0 C7       		.byte	0xc7
 1064 02a1 C8020000 		.4byte	0x2c8
 1065 02a5 00000000 		.4byte	.LLST0
 1066 02a9 15       		.uleb128 0x15
 1067 02aa 00000000 		.4byte	.LASF46
 1068 02ae 01       		.byte	0x1
 1069 02af C9       		.byte	0xc9
 1070 02b0 B8000000 		.4byte	0xb8
 1071 02b4 21000000 		.4byte	.LLST1
 1072 02b8 15       		.uleb128 0x15
 1073 02b9 B1030000 		.4byte	.LASF47
ARM GAS  /var/folders/7z/kps_xzfj7sn5l5gkyq8s9db00000gn/T//ccIUdE2N.s 			page 20


 1074 02bd 01       		.byte	0x1
 1075 02be C9       		.byte	0xc9
 1076 02bf B8000000 		.4byte	0xb8
 1077 02c3 4B000000 		.4byte	.LLST2
 1078 02c7 00       		.byte	0
 1079 02c8 16       		.uleb128 0x16
 1080 02c9 04       		.byte	0x4
 1081 02ca 27020000 		.4byte	0x227
 1082 02ce 0F       		.uleb128 0xf
 1083 02cf 09030000 		.4byte	.LASF48
 1084 02d3 01       		.byte	0x1
 1085 02d4 EB       		.byte	0xeb
 1086 02d5 00000000 		.4byte	.LFB113
 1087 02d9 0C000000 		.4byte	.LFE113-.LFB113
 1088 02dd 01       		.uleb128 0x1
 1089 02de 9C       		.byte	0x9c
 1090 02df F1020000 		.4byte	0x2f1
 1091 02e3 13       		.uleb128 0x13
 1092 02e4 E2020000 		.4byte	.LASF45
 1093 02e8 01       		.byte	0x1
 1094 02e9 EB       		.byte	0xeb
 1095 02ea C8020000 		.4byte	0x2c8
 1096 02ee 01       		.uleb128 0x1
 1097 02ef 50       		.byte	0x50
 1098 02f0 00       		.byte	0
 1099 02f1 17       		.uleb128 0x17
 1100 02f2 E4010000 		.4byte	.LASF49
 1101 02f6 01       		.byte	0x1
 1102 02f7 0301     		.2byte	0x103
 1103 02f9 00000000 		.4byte	.LFB114
 1104 02fd 24000000 		.4byte	.LFE114-.LFB114
 1105 0301 01       		.uleb128 0x1
 1106 0302 9C       		.byte	0x9c
 1107 0303 26030000 		.4byte	0x326
 1108 0307 18       		.uleb128 0x18
 1109 0308 64030000 		.4byte	.LASF44
 1110 030c 01       		.byte	0x1
 1111 030d 0301     		.2byte	0x103
 1112 030f B8000000 		.4byte	0xb8
 1113 0313 01       		.uleb128 0x1
 1114 0314 50       		.byte	0x50
 1115 0315 19       		.uleb128 0x19
 1116 0316 F6010000 		.4byte	.LASF50
 1117 031a 01       		.byte	0x1
 1118 031b 0301     		.2byte	0x103
 1119 031d 18010000 		.4byte	0x118
 1120 0321 83000000 		.4byte	.LLST3
 1121 0325 00       		.byte	0
 1122 0326 17       		.uleb128 0x17
 1123 0327 4A010000 		.4byte	.LASF51
 1124 032b 01       		.byte	0x1
 1125 032c 1F01     		.2byte	0x11f
 1126 032e 00000000 		.4byte	.LFB115
 1127 0332 28000000 		.4byte	.LFE115-.LFB115
 1128 0336 01       		.uleb128 0x1
 1129 0337 9C       		.byte	0x9c
 1130 0338 5D030000 		.4byte	0x35d
ARM GAS  /var/folders/7z/kps_xzfj7sn5l5gkyq8s9db00000gn/T//ccIUdE2N.s 			page 21


 1131 033c 19       		.uleb128 0x19
 1132 033d 64030000 		.4byte	.LASF44
 1133 0341 01       		.byte	0x1
 1134 0342 1F01     		.2byte	0x11f
 1135 0344 B8000000 		.4byte	0xb8
 1136 0348 BD000000 		.4byte	.LLST4
 1137 034c 19       		.uleb128 0x19
 1138 034d F6010000 		.4byte	.LASF50
 1139 0351 01       		.byte	0x1
 1140 0352 1F01     		.2byte	0x11f
 1141 0354 18010000 		.4byte	0x118
 1142 0358 F7000000 		.4byte	.LLST5
 1143 035c 00       		.byte	0
 1144 035d 17       		.uleb128 0x17
 1145 035e 96030000 		.4byte	.LASF52
 1146 0362 01       		.byte	0x1
 1147 0363 3701     		.2byte	0x137
 1148 0365 00000000 		.4byte	.LFB116
 1149 0369 1C000000 		.4byte	.LFE116-.LFB116
 1150 036d 01       		.uleb128 0x1
 1151 036e 9C       		.byte	0x9c
 1152 036f 82030000 		.4byte	0x382
 1153 0373 18       		.uleb128 0x18
 1154 0374 F6010000 		.4byte	.LASF50
 1155 0378 01       		.byte	0x1
 1156 0379 3701     		.2byte	0x137
 1157 037b 18010000 		.4byte	0x118
 1158 037f 01       		.uleb128 0x1
 1159 0380 50       		.byte	0x50
 1160 0381 00       		.byte	0
 1161 0382 17       		.uleb128 0x17
 1162 0383 71010000 		.4byte	.LASF53
 1163 0387 01       		.byte	0x1
 1164 0388 5601     		.2byte	0x156
 1165 038a 00000000 		.4byte	.LFB117
 1166 038e 20000000 		.4byte	.LFE117-.LFB117
 1167 0392 01       		.uleb128 0x1
 1168 0393 9C       		.byte	0x9c
 1169 0394 C7030000 		.4byte	0x3c7
 1170 0398 18       		.uleb128 0x18
 1171 0399 64030000 		.4byte	.LASF44
 1172 039d 01       		.byte	0x1
 1173 039e 5601     		.2byte	0x156
 1174 03a0 B8000000 		.4byte	0xb8
 1175 03a4 01       		.uleb128 0x1
 1176 03a5 50       		.byte	0x50
 1177 03a6 19       		.uleb128 0x19
 1178 03a7 AC020000 		.4byte	.LASF54
 1179 03ab 01       		.byte	0x1
 1180 03ac 5601     		.2byte	0x156
 1181 03ae B8000000 		.4byte	0xb8
 1182 03b2 31010000 		.4byte	.LLST6
 1183 03b6 19       		.uleb128 0x19
 1184 03b7 F6010000 		.4byte	.LASF50
 1185 03bb 01       		.byte	0x1
 1186 03bc 5601     		.2byte	0x156
 1187 03be 18010000 		.4byte	0x118
ARM GAS  /var/folders/7z/kps_xzfj7sn5l5gkyq8s9db00000gn/T//ccIUdE2N.s 			page 22


 1188 03c2 6B010000 		.4byte	.LLST7
 1189 03c6 00       		.byte	0
 1190 03c7 17       		.uleb128 0x17
 1191 03c8 C4020000 		.4byte	.LASF55
 1192 03cc 01       		.byte	0x1
 1193 03cd 7301     		.2byte	0x173
 1194 03cf 00000000 		.4byte	.LFB118
 1195 03d3 20000000 		.4byte	.LFE118-.LFB118
 1196 03d7 01       		.uleb128 0x1
 1197 03d8 9C       		.byte	0x9c
 1198 03d9 0B040000 		.4byte	0x40b
 1199 03dd 19       		.uleb128 0x19
 1200 03de E2030000 		.4byte	.LASF56
 1201 03e2 01       		.byte	0x1
 1202 03e3 7301     		.2byte	0x173
 1203 03e5 B8000000 		.4byte	0xb8
 1204 03e9 A5010000 		.4byte	.LLST8
 1205 03ed 18       		.uleb128 0x18
 1206 03ee BF020000 		.4byte	.LASF57
 1207 03f2 01       		.byte	0x1
 1208 03f3 7301     		.2byte	0x173
 1209 03f5 A2000000 		.4byte	0xa2
 1210 03f9 01       		.uleb128 0x1
 1211 03fa 51       		.byte	0x51
 1212 03fb 1A       		.uleb128 0x1a
 1213 03fc 746D7000 		.ascii	"tmp\000"
 1214 0400 01       		.byte	0x1
 1215 0401 7501     		.2byte	0x175
 1216 0403 CA000000 		.4byte	0xca
 1217 0407 02       		.uleb128 0x2
 1218 0408 91       		.byte	0x91
 1219 0409 7C       		.sleb128 -4
 1220 040a 00       		.byte	0
 1221 040b 17       		.uleb128 0x17
 1222 040c 58040000 		.4byte	.LASF58
 1223 0410 01       		.byte	0x1
 1224 0411 8C01     		.2byte	0x18c
 1225 0413 00000000 		.4byte	.LFB119
 1226 0417 20000000 		.4byte	.LFE119-.LFB119
 1227 041b 01       		.uleb128 0x1
 1228 041c 9C       		.byte	0x9c
 1229 041d 4F040000 		.4byte	0x44f
 1230 0421 19       		.uleb128 0x19
 1231 0422 E2030000 		.4byte	.LASF56
 1232 0426 01       		.byte	0x1
 1233 0427 8C01     		.2byte	0x18c
 1234 0429 B8000000 		.4byte	0xb8
 1235 042d C6010000 		.4byte	.LLST9
 1236 0431 18       		.uleb128 0x18
 1237 0432 BF020000 		.4byte	.LASF57
 1238 0436 01       		.byte	0x1
 1239 0437 8C01     		.2byte	0x18c
 1240 0439 A2000000 		.4byte	0xa2
 1241 043d 01       		.uleb128 0x1
 1242 043e 51       		.byte	0x51
 1243 043f 1A       		.uleb128 0x1a
 1244 0440 746D7000 		.ascii	"tmp\000"
ARM GAS  /var/folders/7z/kps_xzfj7sn5l5gkyq8s9db00000gn/T//ccIUdE2N.s 			page 23


 1245 0444 01       		.byte	0x1
 1246 0445 8E01     		.2byte	0x18e
 1247 0447 CA000000 		.4byte	0xca
 1248 044b 02       		.uleb128 0x2
 1249 044c 91       		.byte	0x91
 1250 044d 7C       		.sleb128 -4
 1251 044e 00       		.byte	0
 1252 044f 17       		.uleb128 0x17
 1253 0450 95020000 		.4byte	.LASF59
 1254 0454 01       		.byte	0x1
 1255 0455 A801     		.2byte	0x1a8
 1256 0457 00000000 		.4byte	.LFB120
 1257 045b 18000000 		.4byte	.LFE120-.LFB120
 1258 045f 01       		.uleb128 0x1
 1259 0460 9C       		.byte	0x9c
 1260 0461 B2040000 		.4byte	0x4b2
 1261 0465 18       		.uleb128 0x18
 1262 0466 E2030000 		.4byte	.LASF56
 1263 046a 01       		.byte	0x1
 1264 046b A801     		.2byte	0x1a8
 1265 046d B8000000 		.4byte	0xb8
 1266 0471 01       		.uleb128 0x1
 1267 0472 50       		.byte	0x50
 1268 0473 18       		.uleb128 0x18
 1269 0474 13040000 		.4byte	.LASF60
 1270 0478 01       		.byte	0x1
 1271 0479 A801     		.2byte	0x1a8
 1272 047b A2000000 		.4byte	0xa2
 1273 047f 01       		.uleb128 0x1
 1274 0480 51       		.byte	0x51
 1275 0481 19       		.uleb128 0x19
 1276 0482 C1040000 		.4byte	.LASF61
 1277 0486 01       		.byte	0x1
 1278 0487 A801     		.2byte	0x1a8
 1279 0489 A2000000 		.4byte	0xa2
 1280 048d E7010000 		.4byte	.LLST10
 1281 0491 1B       		.uleb128 0x1b
 1282 0492 19040000 		.4byte	.LASF62
 1283 0496 01       		.byte	0x1
 1284 0497 AA01     		.2byte	0x1aa
 1285 0499 B8000000 		.4byte	0xb8
 1286 049d 08020000 		.4byte	.LLST11
 1287 04a1 1C       		.uleb128 0x1c
 1288 04a2 746D7000 		.ascii	"tmp\000"
 1289 04a6 01       		.byte	0x1
 1290 04a7 AA01     		.2byte	0x1aa
 1291 04a9 B8000000 		.4byte	0xb8
 1292 04ad 27020000 		.4byte	.LLST12
 1293 04b1 00       		.byte	0
 1294 04b2 1D       		.uleb128 0x1d
 1295 04b3 08000000 		.4byte	.LASF66
 1296 04b7 01       		.byte	0x1
 1297 04b8 CA01     		.2byte	0x1ca
 1298 04ba A2000000 		.4byte	0xa2
 1299 04be 00000000 		.4byte	.LFB121
 1300 04c2 24000000 		.4byte	.LFE121-.LFB121
 1301 04c6 01       		.uleb128 0x1
ARM GAS  /var/folders/7z/kps_xzfj7sn5l5gkyq8s9db00000gn/T//ccIUdE2N.s 			page 24


 1302 04c7 9C       		.byte	0x9c
 1303 04c8 EC040000 		.4byte	0x4ec
 1304 04cc 19       		.uleb128 0x19
 1305 04cd 64030000 		.4byte	.LASF44
 1306 04d1 01       		.byte	0x1
 1307 04d2 CA01     		.2byte	0x1ca
 1308 04d4 B8000000 		.4byte	0xb8
 1309 04d8 4C020000 		.4byte	.LLST13
 1310 04dc 1A       		.uleb128 0x1a
 1311 04dd 746D7000 		.ascii	"tmp\000"
 1312 04e1 01       		.byte	0x1
 1313 04e2 CC01     		.2byte	0x1cc
 1314 04e4 CA000000 		.4byte	0xca
 1315 04e8 02       		.uleb128 0x2
 1316 04e9 91       		.byte	0x91
 1317 04ea 7C       		.sleb128 -4
 1318 04eb 00       		.byte	0
 1319 04ec 17       		.uleb128 0x17
 1320 04ed 59030000 		.4byte	.LASF63
 1321 04f1 01       		.byte	0x1
 1322 04f2 F701     		.2byte	0x1f7
 1323 04f4 00000000 		.4byte	.LFB122
 1324 04f8 28000000 		.4byte	.LFE122-.LFB122
 1325 04fc 01       		.uleb128 0x1
 1326 04fd 9C       		.byte	0x9c
 1327 04fe 21050000 		.4byte	0x521
 1328 0502 18       		.uleb128 0x18
 1329 0503 64030000 		.4byte	.LASF44
 1330 0507 01       		.byte	0x1
 1331 0508 F701     		.2byte	0x1f7
 1332 050a B8000000 		.4byte	0xb8
 1333 050e 01       		.uleb128 0x1
 1334 050f 50       		.byte	0x50
 1335 0510 19       		.uleb128 0x19
 1336 0511 F6010000 		.4byte	.LASF50
 1337 0515 01       		.byte	0x1
 1338 0516 F701     		.2byte	0x1f7
 1339 0518 18010000 		.4byte	0x118
 1340 051c 6D020000 		.4byte	.LLST14
 1341 0520 00       		.byte	0
 1342 0521 17       		.uleb128 0x17
 1343 0522 ED040000 		.4byte	.LASF64
 1344 0526 01       		.byte	0x1
 1345 0527 2702     		.2byte	0x227
 1346 0529 00000000 		.4byte	.LFB123
 1347 052d 20000000 		.4byte	.LFE123-.LFB123
 1348 0531 01       		.uleb128 0x1
 1349 0532 9C       		.byte	0x9c
 1350 0533 66050000 		.4byte	0x566
 1351 0537 18       		.uleb128 0x18
 1352 0538 64030000 		.4byte	.LASF44
 1353 053c 01       		.byte	0x1
 1354 053d 2702     		.2byte	0x227
 1355 053f B8000000 		.4byte	0xb8
 1356 0543 01       		.uleb128 0x1
 1357 0544 50       		.byte	0x50
 1358 0545 19       		.uleb128 0x19
ARM GAS  /var/folders/7z/kps_xzfj7sn5l5gkyq8s9db00000gn/T//ccIUdE2N.s 			page 25


 1359 0546 FC030000 		.4byte	.LASF65
 1360 054a 01       		.byte	0x1
 1361 054b 2702     		.2byte	0x227
 1362 054d B8000000 		.4byte	0xb8
 1363 0551 A7020000 		.4byte	.LLST15
 1364 0555 19       		.uleb128 0x19
 1365 0556 F6010000 		.4byte	.LASF50
 1366 055a 01       		.byte	0x1
 1367 055b 2702     		.2byte	0x227
 1368 055d 18010000 		.4byte	0x118
 1369 0561 E1020000 		.4byte	.LLST16
 1370 0565 00       		.byte	0
 1371 0566 1D       		.uleb128 0x1d
 1372 0567 A1010000 		.4byte	.LASF67
 1373 056b 01       		.byte	0x1
 1374 056c 4702     		.2byte	0x247
 1375 056e EA000000 		.4byte	0xea
 1376 0572 00000000 		.4byte	.LFB124
 1377 0576 14000000 		.4byte	.LFE124-.LFB124
 1378 057a 01       		.uleb128 0x1
 1379 057b 9C       		.byte	0x9c
 1380 057c B1050000 		.4byte	0x5b1
 1381 0580 19       		.uleb128 0x19
 1382 0581 64030000 		.4byte	.LASF44
 1383 0585 01       		.byte	0x1
 1384 0586 4702     		.2byte	0x247
 1385 0588 B8000000 		.4byte	0xb8
 1386 058c 1B030000 		.4byte	.LLST17
 1387 0590 19       		.uleb128 0x19
 1388 0591 98010000 		.4byte	.LASF68
 1389 0595 01       		.byte	0x1
 1390 0596 4702     		.2byte	0x247
 1391 0598 B8000000 		.4byte	0xb8
 1392 059c 3C030000 		.4byte	.LLST18
 1393 05a0 1B       		.uleb128 0x1b
 1394 05a1 D8020000 		.4byte	.LASF69
 1395 05a5 01       		.byte	0x1
 1396 05a6 4902     		.2byte	0x249
 1397 05a8 EA000000 		.4byte	0xea
 1398 05ac 5D030000 		.4byte	.LLST19
 1399 05b0 00       		.byte	0
 1400 05b1 17       		.uleb128 0x17
 1401 05b2 07020000 		.4byte	.LASF70
 1402 05b6 01       		.byte	0x1
 1403 05b7 6A02     		.2byte	0x26a
 1404 05b9 00000000 		.4byte	.LFB125
 1405 05bd 0C000000 		.4byte	.LFE125-.LFB125
 1406 05c1 01       		.uleb128 0x1
 1407 05c2 9C       		.byte	0x9c
 1408 05c3 E6050000 		.4byte	0x5e6
 1409 05c7 18       		.uleb128 0x18
 1410 05c8 64030000 		.4byte	.LASF44
 1411 05cc 01       		.byte	0x1
 1412 05cd 6A02     		.2byte	0x26a
 1413 05cf B8000000 		.4byte	0xb8
 1414 05d3 01       		.uleb128 0x1
 1415 05d4 50       		.byte	0x50
ARM GAS  /var/folders/7z/kps_xzfj7sn5l5gkyq8s9db00000gn/T//ccIUdE2N.s 			page 26


 1416 05d5 19       		.uleb128 0x19
 1417 05d6 98010000 		.4byte	.LASF68
 1418 05da 01       		.byte	0x1
 1419 05db 6A02     		.2byte	0x26a
 1420 05dd B8000000 		.4byte	0xb8
 1421 05e1 B3030000 		.4byte	.LLST20
 1422 05e5 00       		.byte	0
 1423 05e6 1D       		.uleb128 0x1d
 1424 05e7 48040000 		.4byte	.LASF71
 1425 05eb 01       		.byte	0x1
 1426 05ec 8102     		.2byte	0x281
 1427 05ee F6000000 		.4byte	0xf6
 1428 05f2 00000000 		.4byte	.LFB126
 1429 05f6 1C000000 		.4byte	.LFE126-.LFB126
 1430 05fa 01       		.uleb128 0x1
 1431 05fb 9C       		.byte	0x9c
 1432 05fc 41060000 		.4byte	0x641
 1433 0600 19       		.uleb128 0x19
 1434 0601 64030000 		.4byte	.LASF44
 1435 0605 01       		.byte	0x1
 1436 0606 8102     		.2byte	0x281
 1437 0608 B8000000 		.4byte	0xb8
 1438 060c D4030000 		.4byte	.LLST21
 1439 0610 19       		.uleb128 0x19
 1440 0611 FC030000 		.4byte	.LASF65
 1441 0615 01       		.byte	0x1
 1442 0616 8102     		.2byte	0x281
 1443 0618 B8000000 		.4byte	0xb8
 1444 061c F5030000 		.4byte	.LLST22
 1445 0620 1B       		.uleb128 0x1b
 1446 0621 D8020000 		.4byte	.LASF69
 1447 0625 01       		.byte	0x1
 1448 0626 8302     		.2byte	0x283
 1449 0628 F6000000 		.4byte	0xf6
 1450 062c 16040000 		.4byte	.LLST23
 1451 0630 1B       		.uleb128 0x1b
 1452 0631 51020000 		.4byte	.LASF72
 1453 0635 01       		.byte	0x1
 1454 0636 8402     		.2byte	0x284
 1455 0638 B8000000 		.4byte	0xb8
 1456 063c 35040000 		.4byte	.LLST24
 1457 0640 00       		.byte	0
 1458 0641 17       		.uleb128 0x17
 1459 0642 94040000 		.4byte	.LASF73
 1460 0646 01       		.byte	0x1
 1461 0647 A902     		.2byte	0x2a9
 1462 0649 00000000 		.4byte	.LFB127
 1463 064d 0C000000 		.4byte	.LFE127-.LFB127
 1464 0651 01       		.uleb128 0x1
 1465 0652 9C       		.byte	0x9c
 1466 0653 76060000 		.4byte	0x676
 1467 0657 18       		.uleb128 0x18
 1468 0658 64030000 		.4byte	.LASF44
 1469 065c 01       		.byte	0x1
 1470 065d A902     		.2byte	0x2a9
 1471 065f B8000000 		.4byte	0xb8
 1472 0663 01       		.uleb128 0x1
ARM GAS  /var/folders/7z/kps_xzfj7sn5l5gkyq8s9db00000gn/T//ccIUdE2N.s 			page 27


 1473 0664 50       		.byte	0x50
 1474 0665 19       		.uleb128 0x19
 1475 0666 FC030000 		.4byte	.LASF65
 1476 066a 01       		.byte	0x1
 1477 066b A902     		.2byte	0x2a9
 1478 066d B8000000 		.4byte	0xb8
 1479 0671 59040000 		.4byte	.LLST25
 1480 0675 00       		.byte	0
 1481 0676 1E       		.uleb128 0x1e
 1482 0677 C7040000 		.4byte	.LASF77
 1483 067b 06       		.byte	0x6
 1484 067c 9806     		.2byte	0x698
 1485 067e CF000000 		.4byte	0xcf
 1486 0682 1F       		.uleb128 0x1f
 1487 0683 6C020000 		.4byte	.LASF78
 1488 0687 07       		.byte	0x7
 1489 0688 E601     		.2byte	0x1e6
 1490 068a 20       		.uleb128 0x20
 1491 068b B8000000 		.4byte	0xb8
 1492 068f 20       		.uleb128 0x20
 1493 0690 18010000 		.4byte	0x118
 1494 0694 00       		.byte	0
 1495 0695 00       		.byte	0
 1496              		.section	.debug_abbrev,"",%progbits
 1497              	.Ldebug_abbrev0:
 1498 0000 01       		.uleb128 0x1
 1499 0001 11       		.uleb128 0x11
 1500 0002 01       		.byte	0x1
 1501 0003 25       		.uleb128 0x25
 1502 0004 0E       		.uleb128 0xe
 1503 0005 13       		.uleb128 0x13
 1504 0006 0B       		.uleb128 0xb
 1505 0007 03       		.uleb128 0x3
 1506 0008 0E       		.uleb128 0xe
 1507 0009 1B       		.uleb128 0x1b
 1508 000a 0E       		.uleb128 0xe
 1509 000b 55       		.uleb128 0x55
 1510 000c 17       		.uleb128 0x17
 1511 000d 11       		.uleb128 0x11
 1512 000e 01       		.uleb128 0x1
 1513 000f 10       		.uleb128 0x10
 1514 0010 17       		.uleb128 0x17
 1515 0011 00       		.byte	0
 1516 0012 00       		.byte	0
 1517 0013 02       		.uleb128 0x2
 1518 0014 24       		.uleb128 0x24
 1519 0015 00       		.byte	0
 1520 0016 0B       		.uleb128 0xb
 1521 0017 0B       		.uleb128 0xb
 1522 0018 3E       		.uleb128 0x3e
 1523 0019 0B       		.uleb128 0xb
 1524 001a 03       		.uleb128 0x3
 1525 001b 0E       		.uleb128 0xe
 1526 001c 00       		.byte	0
 1527 001d 00       		.byte	0
 1528 001e 03       		.uleb128 0x3
 1529 001f 16       		.uleb128 0x16
ARM GAS  /var/folders/7z/kps_xzfj7sn5l5gkyq8s9db00000gn/T//ccIUdE2N.s 			page 28


 1530 0020 00       		.byte	0
 1531 0021 03       		.uleb128 0x3
 1532 0022 0E       		.uleb128 0xe
 1533 0023 3A       		.uleb128 0x3a
 1534 0024 0B       		.uleb128 0xb
 1535 0025 3B       		.uleb128 0x3b
 1536 0026 0B       		.uleb128 0xb
 1537 0027 49       		.uleb128 0x49
 1538 0028 13       		.uleb128 0x13
 1539 0029 00       		.byte	0
 1540 002a 00       		.byte	0
 1541 002b 04       		.uleb128 0x4
 1542 002c 24       		.uleb128 0x24
 1543 002d 00       		.byte	0
 1544 002e 0B       		.uleb128 0xb
 1545 002f 0B       		.uleb128 0xb
 1546 0030 3E       		.uleb128 0x3e
 1547 0031 0B       		.uleb128 0xb
 1548 0032 03       		.uleb128 0x3
 1549 0033 08       		.uleb128 0x8
 1550 0034 00       		.byte	0
 1551 0035 00       		.byte	0
 1552 0036 05       		.uleb128 0x5
 1553 0037 35       		.uleb128 0x35
 1554 0038 00       		.byte	0
 1555 0039 49       		.uleb128 0x49
 1556 003a 13       		.uleb128 0x13
 1557 003b 00       		.byte	0
 1558 003c 00       		.byte	0
 1559 003d 06       		.uleb128 0x6
 1560 003e 04       		.uleb128 0x4
 1561 003f 01       		.byte	0x1
 1562 0040 0B       		.uleb128 0xb
 1563 0041 0B       		.uleb128 0xb
 1564 0042 3A       		.uleb128 0x3a
 1565 0043 0B       		.uleb128 0xb
 1566 0044 3B       		.uleb128 0x3b
 1567 0045 05       		.uleb128 0x5
 1568 0046 01       		.uleb128 0x1
 1569 0047 13       		.uleb128 0x13
 1570 0048 00       		.byte	0
 1571 0049 00       		.byte	0
 1572 004a 07       		.uleb128 0x7
 1573 004b 28       		.uleb128 0x28
 1574 004c 00       		.byte	0
 1575 004d 03       		.uleb128 0x3
 1576 004e 0E       		.uleb128 0xe
 1577 004f 1C       		.uleb128 0x1c
 1578 0050 0D       		.uleb128 0xd
 1579 0051 00       		.byte	0
 1580 0052 00       		.byte	0
 1581 0053 08       		.uleb128 0x8
 1582 0054 28       		.uleb128 0x28
 1583 0055 00       		.byte	0
 1584 0056 03       		.uleb128 0x3
 1585 0057 08       		.uleb128 0x8
 1586 0058 1C       		.uleb128 0x1c
ARM GAS  /var/folders/7z/kps_xzfj7sn5l5gkyq8s9db00000gn/T//ccIUdE2N.s 			page 29


 1587 0059 0D       		.uleb128 0xd
 1588 005a 00       		.byte	0
 1589 005b 00       		.byte	0
 1590 005c 09       		.uleb128 0x9
 1591 005d 16       		.uleb128 0x16
 1592 005e 00       		.byte	0
 1593 005f 03       		.uleb128 0x3
 1594 0060 0E       		.uleb128 0xe
 1595 0061 3A       		.uleb128 0x3a
 1596 0062 0B       		.uleb128 0xb
 1597 0063 3B       		.uleb128 0x3b
 1598 0064 05       		.uleb128 0x5
 1599 0065 49       		.uleb128 0x49
 1600 0066 13       		.uleb128 0x13
 1601 0067 00       		.byte	0
 1602 0068 00       		.byte	0
 1603 0069 0A       		.uleb128 0xa
 1604 006a 13       		.uleb128 0x13
 1605 006b 01       		.byte	0x1
 1606 006c 0B       		.uleb128 0xb
 1607 006d 0B       		.uleb128 0xb
 1608 006e 3A       		.uleb128 0x3a
 1609 006f 0B       		.uleb128 0xb
 1610 0070 3B       		.uleb128 0x3b
 1611 0071 05       		.uleb128 0x5
 1612 0072 01       		.uleb128 0x1
 1613 0073 13       		.uleb128 0x13
 1614 0074 00       		.byte	0
 1615 0075 00       		.byte	0
 1616 0076 0B       		.uleb128 0xb
 1617 0077 0D       		.uleb128 0xd
 1618 0078 00       		.byte	0
 1619 0079 03       		.uleb128 0x3
 1620 007a 08       		.uleb128 0x8
 1621 007b 3A       		.uleb128 0x3a
 1622 007c 0B       		.uleb128 0xb
 1623 007d 3B       		.uleb128 0x3b
 1624 007e 05       		.uleb128 0x5
 1625 007f 49       		.uleb128 0x49
 1626 0080 13       		.uleb128 0x13
 1627 0081 38       		.uleb128 0x38
 1628 0082 0B       		.uleb128 0xb
 1629 0083 00       		.byte	0
 1630 0084 00       		.byte	0
 1631 0085 0C       		.uleb128 0xc
 1632 0086 0D       		.uleb128 0xd
 1633 0087 00       		.byte	0
 1634 0088 03       		.uleb128 0x3
 1635 0089 0E       		.uleb128 0xe
 1636 008a 3A       		.uleb128 0x3a
 1637 008b 0B       		.uleb128 0xb
 1638 008c 3B       		.uleb128 0x3b
 1639 008d 05       		.uleb128 0x5
 1640 008e 49       		.uleb128 0x49
 1641 008f 13       		.uleb128 0x13
 1642 0090 38       		.uleb128 0x38
 1643 0091 0B       		.uleb128 0xb
ARM GAS  /var/folders/7z/kps_xzfj7sn5l5gkyq8s9db00000gn/T//ccIUdE2N.s 			page 30


 1644 0092 00       		.byte	0
 1645 0093 00       		.byte	0
 1646 0094 0D       		.uleb128 0xd
 1647 0095 13       		.uleb128 0x13
 1648 0096 01       		.byte	0x1
 1649 0097 0B       		.uleb128 0xb
 1650 0098 0B       		.uleb128 0xb
 1651 0099 3A       		.uleb128 0x3a
 1652 009a 0B       		.uleb128 0xb
 1653 009b 3B       		.uleb128 0x3b
 1654 009c 0B       		.uleb128 0xb
 1655 009d 01       		.uleb128 0x1
 1656 009e 13       		.uleb128 0x13
 1657 009f 00       		.byte	0
 1658 00a0 00       		.byte	0
 1659 00a1 0E       		.uleb128 0xe
 1660 00a2 0D       		.uleb128 0xd
 1661 00a3 00       		.byte	0
 1662 00a4 03       		.uleb128 0x3
 1663 00a5 0E       		.uleb128 0xe
 1664 00a6 3A       		.uleb128 0x3a
 1665 00a7 0B       		.uleb128 0xb
 1666 00a8 3B       		.uleb128 0x3b
 1667 00a9 0B       		.uleb128 0xb
 1668 00aa 49       		.uleb128 0x49
 1669 00ab 13       		.uleb128 0x13
 1670 00ac 38       		.uleb128 0x38
 1671 00ad 0B       		.uleb128 0xb
 1672 00ae 00       		.byte	0
 1673 00af 00       		.byte	0
 1674 00b0 0F       		.uleb128 0xf
 1675 00b1 2E       		.uleb128 0x2e
 1676 00b2 01       		.byte	0x1
 1677 00b3 3F       		.uleb128 0x3f
 1678 00b4 19       		.uleb128 0x19
 1679 00b5 03       		.uleb128 0x3
 1680 00b6 0E       		.uleb128 0xe
 1681 00b7 3A       		.uleb128 0x3a
 1682 00b8 0B       		.uleb128 0xb
 1683 00b9 3B       		.uleb128 0x3b
 1684 00ba 0B       		.uleb128 0xb
 1685 00bb 27       		.uleb128 0x27
 1686 00bc 19       		.uleb128 0x19
 1687 00bd 11       		.uleb128 0x11
 1688 00be 01       		.uleb128 0x1
 1689 00bf 12       		.uleb128 0x12
 1690 00c0 06       		.uleb128 0x6
 1691 00c1 40       		.uleb128 0x40
 1692 00c2 18       		.uleb128 0x18
 1693 00c3 9742     		.uleb128 0x2117
 1694 00c5 19       		.uleb128 0x19
 1695 00c6 01       		.uleb128 0x1
 1696 00c7 13       		.uleb128 0x13
 1697 00c8 00       		.byte	0
 1698 00c9 00       		.byte	0
 1699 00ca 10       		.uleb128 0x10
 1700 00cb 898201   		.uleb128 0x4109
ARM GAS  /var/folders/7z/kps_xzfj7sn5l5gkyq8s9db00000gn/T//ccIUdE2N.s 			page 31


 1701 00ce 01       		.byte	0x1
 1702 00cf 11       		.uleb128 0x11
 1703 00d0 01       		.uleb128 0x1
 1704 00d1 31       		.uleb128 0x31
 1705 00d2 13       		.uleb128 0x13
 1706 00d3 01       		.uleb128 0x1
 1707 00d4 13       		.uleb128 0x13
 1708 00d5 00       		.byte	0
 1709 00d6 00       		.byte	0
 1710 00d7 11       		.uleb128 0x11
 1711 00d8 8A8201   		.uleb128 0x410a
 1712 00db 00       		.byte	0
 1713 00dc 02       		.uleb128 0x2
 1714 00dd 18       		.uleb128 0x18
 1715 00de 9142     		.uleb128 0x2111
 1716 00e0 18       		.uleb128 0x18
 1717 00e1 00       		.byte	0
 1718 00e2 00       		.byte	0
 1719 00e3 12       		.uleb128 0x12
 1720 00e4 898201   		.uleb128 0x4109
 1721 00e7 01       		.byte	0x1
 1722 00e8 11       		.uleb128 0x11
 1723 00e9 01       		.uleb128 0x1
 1724 00ea 9542     		.uleb128 0x2115
 1725 00ec 19       		.uleb128 0x19
 1726 00ed 31       		.uleb128 0x31
 1727 00ee 13       		.uleb128 0x13
 1728 00ef 00       		.byte	0
 1729 00f0 00       		.byte	0
 1730 00f1 13       		.uleb128 0x13
 1731 00f2 05       		.uleb128 0x5
 1732 00f3 00       		.byte	0
 1733 00f4 03       		.uleb128 0x3
 1734 00f5 0E       		.uleb128 0xe
 1735 00f6 3A       		.uleb128 0x3a
 1736 00f7 0B       		.uleb128 0xb
 1737 00f8 3B       		.uleb128 0x3b
 1738 00f9 0B       		.uleb128 0xb
 1739 00fa 49       		.uleb128 0x49
 1740 00fb 13       		.uleb128 0x13
 1741 00fc 02       		.uleb128 0x2
 1742 00fd 18       		.uleb128 0x18
 1743 00fe 00       		.byte	0
 1744 00ff 00       		.byte	0
 1745 0100 14       		.uleb128 0x14
 1746 0101 05       		.uleb128 0x5
 1747 0102 00       		.byte	0
 1748 0103 03       		.uleb128 0x3
 1749 0104 0E       		.uleb128 0xe
 1750 0105 3A       		.uleb128 0x3a
 1751 0106 0B       		.uleb128 0xb
 1752 0107 3B       		.uleb128 0x3b
 1753 0108 0B       		.uleb128 0xb
 1754 0109 49       		.uleb128 0x49
 1755 010a 13       		.uleb128 0x13
 1756 010b 02       		.uleb128 0x2
 1757 010c 17       		.uleb128 0x17
ARM GAS  /var/folders/7z/kps_xzfj7sn5l5gkyq8s9db00000gn/T//ccIUdE2N.s 			page 32


 1758 010d 00       		.byte	0
 1759 010e 00       		.byte	0
 1760 010f 15       		.uleb128 0x15
 1761 0110 34       		.uleb128 0x34
 1762 0111 00       		.byte	0
 1763 0112 03       		.uleb128 0x3
 1764 0113 0E       		.uleb128 0xe
 1765 0114 3A       		.uleb128 0x3a
 1766 0115 0B       		.uleb128 0xb
 1767 0116 3B       		.uleb128 0x3b
 1768 0117 0B       		.uleb128 0xb
 1769 0118 49       		.uleb128 0x49
 1770 0119 13       		.uleb128 0x13
 1771 011a 02       		.uleb128 0x2
 1772 011b 17       		.uleb128 0x17
 1773 011c 00       		.byte	0
 1774 011d 00       		.byte	0
 1775 011e 16       		.uleb128 0x16
 1776 011f 0F       		.uleb128 0xf
 1777 0120 00       		.byte	0
 1778 0121 0B       		.uleb128 0xb
 1779 0122 0B       		.uleb128 0xb
 1780 0123 49       		.uleb128 0x49
 1781 0124 13       		.uleb128 0x13
 1782 0125 00       		.byte	0
 1783 0126 00       		.byte	0
 1784 0127 17       		.uleb128 0x17
 1785 0128 2E       		.uleb128 0x2e
 1786 0129 01       		.byte	0x1
 1787 012a 3F       		.uleb128 0x3f
 1788 012b 19       		.uleb128 0x19
 1789 012c 03       		.uleb128 0x3
 1790 012d 0E       		.uleb128 0xe
 1791 012e 3A       		.uleb128 0x3a
 1792 012f 0B       		.uleb128 0xb
 1793 0130 3B       		.uleb128 0x3b
 1794 0131 05       		.uleb128 0x5
 1795 0132 27       		.uleb128 0x27
 1796 0133 19       		.uleb128 0x19
 1797 0134 11       		.uleb128 0x11
 1798 0135 01       		.uleb128 0x1
 1799 0136 12       		.uleb128 0x12
 1800 0137 06       		.uleb128 0x6
 1801 0138 40       		.uleb128 0x40
 1802 0139 18       		.uleb128 0x18
 1803 013a 9742     		.uleb128 0x2117
 1804 013c 19       		.uleb128 0x19
 1805 013d 01       		.uleb128 0x1
 1806 013e 13       		.uleb128 0x13
 1807 013f 00       		.byte	0
 1808 0140 00       		.byte	0
 1809 0141 18       		.uleb128 0x18
 1810 0142 05       		.uleb128 0x5
 1811 0143 00       		.byte	0
 1812 0144 03       		.uleb128 0x3
 1813 0145 0E       		.uleb128 0xe
 1814 0146 3A       		.uleb128 0x3a
ARM GAS  /var/folders/7z/kps_xzfj7sn5l5gkyq8s9db00000gn/T//ccIUdE2N.s 			page 33


 1815 0147 0B       		.uleb128 0xb
 1816 0148 3B       		.uleb128 0x3b
 1817 0149 05       		.uleb128 0x5
 1818 014a 49       		.uleb128 0x49
 1819 014b 13       		.uleb128 0x13
 1820 014c 02       		.uleb128 0x2
 1821 014d 18       		.uleb128 0x18
 1822 014e 00       		.byte	0
 1823 014f 00       		.byte	0
 1824 0150 19       		.uleb128 0x19
 1825 0151 05       		.uleb128 0x5
 1826 0152 00       		.byte	0
 1827 0153 03       		.uleb128 0x3
 1828 0154 0E       		.uleb128 0xe
 1829 0155 3A       		.uleb128 0x3a
 1830 0156 0B       		.uleb128 0xb
 1831 0157 3B       		.uleb128 0x3b
 1832 0158 05       		.uleb128 0x5
 1833 0159 49       		.uleb128 0x49
 1834 015a 13       		.uleb128 0x13
 1835 015b 02       		.uleb128 0x2
 1836 015c 17       		.uleb128 0x17
 1837 015d 00       		.byte	0
 1838 015e 00       		.byte	0
 1839 015f 1A       		.uleb128 0x1a
 1840 0160 34       		.uleb128 0x34
 1841 0161 00       		.byte	0
 1842 0162 03       		.uleb128 0x3
 1843 0163 08       		.uleb128 0x8
 1844 0164 3A       		.uleb128 0x3a
 1845 0165 0B       		.uleb128 0xb
 1846 0166 3B       		.uleb128 0x3b
 1847 0167 05       		.uleb128 0x5
 1848 0168 49       		.uleb128 0x49
 1849 0169 13       		.uleb128 0x13
 1850 016a 02       		.uleb128 0x2
 1851 016b 18       		.uleb128 0x18
 1852 016c 00       		.byte	0
 1853 016d 00       		.byte	0
 1854 016e 1B       		.uleb128 0x1b
 1855 016f 34       		.uleb128 0x34
 1856 0170 00       		.byte	0
 1857 0171 03       		.uleb128 0x3
 1858 0172 0E       		.uleb128 0xe
 1859 0173 3A       		.uleb128 0x3a
 1860 0174 0B       		.uleb128 0xb
 1861 0175 3B       		.uleb128 0x3b
 1862 0176 05       		.uleb128 0x5
 1863 0177 49       		.uleb128 0x49
 1864 0178 13       		.uleb128 0x13
 1865 0179 02       		.uleb128 0x2
 1866 017a 17       		.uleb128 0x17
 1867 017b 00       		.byte	0
 1868 017c 00       		.byte	0
 1869 017d 1C       		.uleb128 0x1c
 1870 017e 34       		.uleb128 0x34
 1871 017f 00       		.byte	0
ARM GAS  /var/folders/7z/kps_xzfj7sn5l5gkyq8s9db00000gn/T//ccIUdE2N.s 			page 34


 1872 0180 03       		.uleb128 0x3
 1873 0181 08       		.uleb128 0x8
 1874 0182 3A       		.uleb128 0x3a
 1875 0183 0B       		.uleb128 0xb
 1876 0184 3B       		.uleb128 0x3b
 1877 0185 05       		.uleb128 0x5
 1878 0186 49       		.uleb128 0x49
 1879 0187 13       		.uleb128 0x13
 1880 0188 02       		.uleb128 0x2
 1881 0189 17       		.uleb128 0x17
 1882 018a 00       		.byte	0
 1883 018b 00       		.byte	0
 1884 018c 1D       		.uleb128 0x1d
 1885 018d 2E       		.uleb128 0x2e
 1886 018e 01       		.byte	0x1
 1887 018f 3F       		.uleb128 0x3f
 1888 0190 19       		.uleb128 0x19
 1889 0191 03       		.uleb128 0x3
 1890 0192 0E       		.uleb128 0xe
 1891 0193 3A       		.uleb128 0x3a
 1892 0194 0B       		.uleb128 0xb
 1893 0195 3B       		.uleb128 0x3b
 1894 0196 05       		.uleb128 0x5
 1895 0197 27       		.uleb128 0x27
 1896 0198 19       		.uleb128 0x19
 1897 0199 49       		.uleb128 0x49
 1898 019a 13       		.uleb128 0x13
 1899 019b 11       		.uleb128 0x11
 1900 019c 01       		.uleb128 0x1
 1901 019d 12       		.uleb128 0x12
 1902 019e 06       		.uleb128 0x6
 1903 019f 40       		.uleb128 0x40
 1904 01a0 18       		.uleb128 0x18
 1905 01a1 9742     		.uleb128 0x2117
 1906 01a3 19       		.uleb128 0x19
 1907 01a4 01       		.uleb128 0x1
 1908 01a5 13       		.uleb128 0x13
 1909 01a6 00       		.byte	0
 1910 01a7 00       		.byte	0
 1911 01a8 1E       		.uleb128 0x1e
 1912 01a9 34       		.uleb128 0x34
 1913 01aa 00       		.byte	0
 1914 01ab 03       		.uleb128 0x3
 1915 01ac 0E       		.uleb128 0xe
 1916 01ad 3A       		.uleb128 0x3a
 1917 01ae 0B       		.uleb128 0xb
 1918 01af 3B       		.uleb128 0x3b
 1919 01b0 05       		.uleb128 0x5
 1920 01b1 49       		.uleb128 0x49
 1921 01b2 13       		.uleb128 0x13
 1922 01b3 3F       		.uleb128 0x3f
 1923 01b4 19       		.uleb128 0x19
 1924 01b5 3C       		.uleb128 0x3c
 1925 01b6 19       		.uleb128 0x19
 1926 01b7 00       		.byte	0
 1927 01b8 00       		.byte	0
 1928 01b9 1F       		.uleb128 0x1f
ARM GAS  /var/folders/7z/kps_xzfj7sn5l5gkyq8s9db00000gn/T//ccIUdE2N.s 			page 35


 1929 01ba 2E       		.uleb128 0x2e
 1930 01bb 01       		.byte	0x1
 1931 01bc 3F       		.uleb128 0x3f
 1932 01bd 19       		.uleb128 0x19
 1933 01be 03       		.uleb128 0x3
 1934 01bf 0E       		.uleb128 0xe
 1935 01c0 3A       		.uleb128 0x3a
 1936 01c1 0B       		.uleb128 0xb
 1937 01c2 3B       		.uleb128 0x3b
 1938 01c3 05       		.uleb128 0x5
 1939 01c4 27       		.uleb128 0x27
 1940 01c5 19       		.uleb128 0x19
 1941 01c6 3C       		.uleb128 0x3c
 1942 01c7 19       		.uleb128 0x19
 1943 01c8 00       		.byte	0
 1944 01c9 00       		.byte	0
 1945 01ca 20       		.uleb128 0x20
 1946 01cb 05       		.uleb128 0x5
 1947 01cc 00       		.byte	0
 1948 01cd 49       		.uleb128 0x49
 1949 01ce 13       		.uleb128 0x13
 1950 01cf 00       		.byte	0
 1951 01d0 00       		.byte	0
 1952 01d1 00       		.byte	0
 1953              		.section	.debug_loc,"",%progbits
 1954              	.Ldebug_loc0:
 1955              	.LLST0:
 1956 0000 00000000 		.4byte	.LVL2
 1957 0004 12000000 		.4byte	.LVL4
 1958 0008 0100     		.2byte	0x1
 1959 000a 51       		.byte	0x51
 1960 000b 12000000 		.4byte	.LVL4
 1961 000f 30000000 		.4byte	.LFE112
 1962 0013 0400     		.2byte	0x4
 1963 0015 F3       		.byte	0xf3
 1964 0016 01       		.uleb128 0x1
 1965 0017 51       		.byte	0x51
 1966 0018 9F       		.byte	0x9f
 1967 0019 00000000 		.4byte	0
 1968 001d 00000000 		.4byte	0
 1969              	.LLST1:
 1970 0021 00000000 		.4byte	.LVL2
 1971 0025 0E000000 		.4byte	.LVL3
 1972 0029 0200     		.2byte	0x2
 1973 002b 30       		.byte	0x30
 1974 002c 9F       		.byte	0x9f
 1975 002d 0E000000 		.4byte	.LVL3
 1976 0031 24000000 		.4byte	.LVL6
 1977 0035 0100     		.2byte	0x1
 1978 0037 52       		.byte	0x52
 1979 0038 24000000 		.4byte	.LVL6
 1980 003c 30000000 		.4byte	.LFE112
 1981 0040 0100     		.2byte	0x1
 1982 0042 53       		.byte	0x53
 1983 0043 00000000 		.4byte	0
 1984 0047 00000000 		.4byte	0
 1985              	.LLST2:
ARM GAS  /var/folders/7z/kps_xzfj7sn5l5gkyq8s9db00000gn/T//ccIUdE2N.s 			page 36


 1986 004b 00000000 		.4byte	.LVL2
 1987 004f 22000000 		.4byte	.LVL5
 1988 0053 0200     		.2byte	0x2
 1989 0055 30       		.byte	0x30
 1990 0056 9F       		.byte	0x9f
 1991 0057 22000000 		.4byte	.LVL5
 1992 005b 26000000 		.4byte	.LVL7
 1993 005f 1A00     		.2byte	0x1a
 1994 0061 F3       		.byte	0xf3
 1995 0062 01       		.uleb128 0x1
 1996 0063 51       		.byte	0x51
 1997 0064 23       		.byte	0x23
 1998 0065 04       		.uleb128 0x4
 1999 0066 06       		.byte	0x6
 2000 0067 F3       		.byte	0xf3
 2001 0068 01       		.uleb128 0x1
 2002 0069 51       		.byte	0x51
 2003 006a 06       		.byte	0x6
 2004 006b 21       		.byte	0x21
 2005 006c F3       		.byte	0xf3
 2006 006d 01       		.uleb128 0x1
 2007 006e 51       		.byte	0x51
 2008 006f 23       		.byte	0x23
 2009 0070 08       		.uleb128 0x8
 2010 0071 06       		.byte	0x6
 2011 0072 21       		.byte	0x21
 2012 0073 F3       		.byte	0xf3
 2013 0074 01       		.uleb128 0x1
 2014 0075 51       		.byte	0x51
 2015 0076 23       		.byte	0x23
 2016 0077 0C       		.uleb128 0xc
 2017 0078 06       		.byte	0x6
 2018 0079 21       		.byte	0x21
 2019 007a 9F       		.byte	0x9f
 2020 007b 00000000 		.4byte	0
 2021 007f 00000000 		.4byte	0
 2022              	.LLST3:
 2023 0083 00000000 		.4byte	.LVL9
 2024 0087 04000000 		.4byte	.LVL10
 2025 008b 0100     		.2byte	0x1
 2026 008d 51       		.byte	0x51
 2027 008e 04000000 		.4byte	.LVL10
 2028 0092 12000000 		.4byte	.LVL11
 2029 0096 0400     		.2byte	0x4
 2030 0098 F3       		.byte	0xf3
 2031 0099 01       		.uleb128 0x1
 2032 009a 51       		.byte	0x51
 2033 009b 9F       		.byte	0x9f
 2034 009c 12000000 		.4byte	.LVL11
 2035 00a0 14000000 		.4byte	.LVL12
 2036 00a4 0100     		.2byte	0x1
 2037 00a6 51       		.byte	0x51
 2038 00a7 14000000 		.4byte	.LVL12
 2039 00ab 24000000 		.4byte	.LFE114
 2040 00af 0400     		.2byte	0x4
 2041 00b1 F3       		.byte	0xf3
 2042 00b2 01       		.uleb128 0x1
ARM GAS  /var/folders/7z/kps_xzfj7sn5l5gkyq8s9db00000gn/T//ccIUdE2N.s 			page 37


 2043 00b3 51       		.byte	0x51
 2044 00b4 9F       		.byte	0x9f
 2045 00b5 00000000 		.4byte	0
 2046 00b9 00000000 		.4byte	0
 2047              	.LLST4:
 2048 00bd 00000000 		.4byte	.LVL13
 2049 00c1 06000000 		.4byte	.LVL15
 2050 00c5 0100     		.2byte	0x1
 2051 00c7 50       		.byte	0x50
 2052 00c8 06000000 		.4byte	.LVL15
 2053 00cc 14000000 		.4byte	.LVL16
 2054 00d0 0400     		.2byte	0x4
 2055 00d2 F3       		.byte	0xf3
 2056 00d3 01       		.uleb128 0x1
 2057 00d4 50       		.byte	0x50
 2058 00d5 9F       		.byte	0x9f
 2059 00d6 14000000 		.4byte	.LVL16
 2060 00da 18000000 		.4byte	.LVL18
 2061 00de 0100     		.2byte	0x1
 2062 00e0 50       		.byte	0x50
 2063 00e1 18000000 		.4byte	.LVL18
 2064 00e5 28000000 		.4byte	.LFE115
 2065 00e9 0400     		.2byte	0x4
 2066 00eb F3       		.byte	0xf3
 2067 00ec 01       		.uleb128 0x1
 2068 00ed 50       		.byte	0x50
 2069 00ee 9F       		.byte	0x9f
 2070 00ef 00000000 		.4byte	0
 2071 00f3 00000000 		.4byte	0
 2072              	.LLST5:
 2073 00f7 00000000 		.4byte	.LVL13
 2074 00fb 04000000 		.4byte	.LVL14
 2075 00ff 0100     		.2byte	0x1
 2076 0101 51       		.byte	0x51
 2077 0102 04000000 		.4byte	.LVL14
 2078 0106 14000000 		.4byte	.LVL16
 2079 010a 0400     		.2byte	0x4
 2080 010c F3       		.byte	0xf3
 2081 010d 01       		.uleb128 0x1
 2082 010e 51       		.byte	0x51
 2083 010f 9F       		.byte	0x9f
 2084 0110 14000000 		.4byte	.LVL16
 2085 0114 16000000 		.4byte	.LVL17
 2086 0118 0100     		.2byte	0x1
 2087 011a 51       		.byte	0x51
 2088 011b 16000000 		.4byte	.LVL17
 2089 011f 28000000 		.4byte	.LFE115
 2090 0123 0400     		.2byte	0x4
 2091 0125 F3       		.byte	0xf3
 2092 0126 01       		.uleb128 0x1
 2093 0127 51       		.byte	0x51
 2094 0128 9F       		.byte	0x9f
 2095 0129 00000000 		.4byte	0
 2096 012d 00000000 		.4byte	0
 2097              	.LLST6:
 2098 0131 00000000 		.4byte	.LVL20
 2099 0135 08000000 		.4byte	.LVL22
ARM GAS  /var/folders/7z/kps_xzfj7sn5l5gkyq8s9db00000gn/T//ccIUdE2N.s 			page 38


 2100 0139 0100     		.2byte	0x1
 2101 013b 51       		.byte	0x51
 2102 013c 08000000 		.4byte	.LVL22
 2103 0140 10000000 		.4byte	.LVL23
 2104 0144 0400     		.2byte	0x4
 2105 0146 F3       		.byte	0xf3
 2106 0147 01       		.uleb128 0x1
 2107 0148 51       		.byte	0x51
 2108 0149 9F       		.byte	0x9f
 2109 014a 10000000 		.4byte	.LVL23
 2110 014e 16000000 		.4byte	.LVL25
 2111 0152 0100     		.2byte	0x1
 2112 0154 51       		.byte	0x51
 2113 0155 16000000 		.4byte	.LVL25
 2114 0159 20000000 		.4byte	.LFE117
 2115 015d 0400     		.2byte	0x4
 2116 015f F3       		.byte	0xf3
 2117 0160 01       		.uleb128 0x1
 2118 0161 51       		.byte	0x51
 2119 0162 9F       		.byte	0x9f
 2120 0163 00000000 		.4byte	0
 2121 0167 00000000 		.4byte	0
 2122              	.LLST7:
 2123 016b 00000000 		.4byte	.LVL20
 2124 016f 04000000 		.4byte	.LVL21
 2125 0173 0100     		.2byte	0x1
 2126 0175 52       		.byte	0x52
 2127 0176 04000000 		.4byte	.LVL21
 2128 017a 10000000 		.4byte	.LVL23
 2129 017e 0400     		.2byte	0x4
 2130 0180 F3       		.byte	0xf3
 2131 0181 01       		.uleb128 0x1
 2132 0182 52       		.byte	0x52
 2133 0183 9F       		.byte	0x9f
 2134 0184 10000000 		.4byte	.LVL23
 2135 0188 12000000 		.4byte	.LVL24
 2136 018c 0100     		.2byte	0x1
 2137 018e 52       		.byte	0x52
 2138 018f 12000000 		.4byte	.LVL24
 2139 0193 20000000 		.4byte	.LFE117
 2140 0197 0400     		.2byte	0x4
 2141 0199 F3       		.byte	0xf3
 2142 019a 01       		.uleb128 0x1
 2143 019b 52       		.byte	0x52
 2144 019c 9F       		.byte	0x9f
 2145 019d 00000000 		.4byte	0
 2146 01a1 00000000 		.4byte	0
 2147              	.LLST8:
 2148 01a5 00000000 		.4byte	.LVL26
 2149 01a9 10000000 		.4byte	.LVL27
 2150 01ad 0100     		.2byte	0x1
 2151 01af 50       		.byte	0x50
 2152 01b0 10000000 		.4byte	.LVL27
 2153 01b4 20000000 		.4byte	.LFE118
 2154 01b8 0400     		.2byte	0x4
 2155 01ba F3       		.byte	0xf3
 2156 01bb 01       		.uleb128 0x1
ARM GAS  /var/folders/7z/kps_xzfj7sn5l5gkyq8s9db00000gn/T//ccIUdE2N.s 			page 39


 2157 01bc 50       		.byte	0x50
 2158 01bd 9F       		.byte	0x9f
 2159 01be 00000000 		.4byte	0
 2160 01c2 00000000 		.4byte	0
 2161              	.LLST9:
 2162 01c6 00000000 		.4byte	.LVL28
 2163 01ca 10000000 		.4byte	.LVL29
 2164 01ce 0100     		.2byte	0x1
 2165 01d0 50       		.byte	0x50
 2166 01d1 10000000 		.4byte	.LVL29
 2167 01d5 20000000 		.4byte	.LFE119
 2168 01d9 0400     		.2byte	0x4
 2169 01db F3       		.byte	0xf3
 2170 01dc 01       		.uleb128 0x1
 2171 01dd 50       		.byte	0x50
 2172 01de 9F       		.byte	0x9f
 2173 01df 00000000 		.4byte	0
 2174 01e3 00000000 		.4byte	0
 2175              	.LLST10:
 2176 01e7 00000000 		.4byte	.LVL30
 2177 01eb 0A000000 		.4byte	.LVL31
 2178 01ef 0100     		.2byte	0x1
 2179 01f1 52       		.byte	0x52
 2180 01f2 0A000000 		.4byte	.LVL31
 2181 01f6 18000000 		.4byte	.LFE120
 2182 01fa 0400     		.2byte	0x4
 2183 01fc F3       		.byte	0xf3
 2184 01fd 01       		.uleb128 0x1
 2185 01fe 52       		.byte	0x52
 2186 01ff 9F       		.byte	0x9f
 2187 0200 00000000 		.4byte	0
 2188 0204 00000000 		.4byte	0
 2189              	.LLST11:
 2190 0208 00000000 		.4byte	.LVL30
 2191 020c 0A000000 		.4byte	.LVL31
 2192 0210 0200     		.2byte	0x2
 2193 0212 30       		.byte	0x30
 2194 0213 9F       		.byte	0x9f
 2195 0214 0A000000 		.4byte	.LVL31
 2196 0218 18000000 		.4byte	.LFE120
 2197 021c 0100     		.2byte	0x1
 2198 021e 52       		.byte	0x52
 2199 021f 00000000 		.4byte	0
 2200 0223 00000000 		.4byte	0
 2201              	.LLST12:
 2202 0227 00000000 		.4byte	.LVL30
 2203 022b 0E000000 		.4byte	.LVL32
 2204 022f 0200     		.2byte	0x2
 2205 0231 30       		.byte	0x30
 2206 0232 9F       		.byte	0x9f
 2207 0233 0E000000 		.4byte	.LVL32
 2208 0237 18000000 		.4byte	.LFE120
 2209 023b 0700     		.2byte	0x7
 2210 023d 70       		.byte	0x70
 2211 023e A0E88180 		.sleb128 1073771552
 2211      04
 2212 0243 9F       		.byte	0x9f
ARM GAS  /var/folders/7z/kps_xzfj7sn5l5gkyq8s9db00000gn/T//ccIUdE2N.s 			page 40


 2213 0244 00000000 		.4byte	0
 2214 0248 00000000 		.4byte	0
 2215              	.LLST13:
 2216 024c 00000000 		.4byte	.LVL33
 2217 0250 12000000 		.4byte	.LVL34
 2218 0254 0100     		.2byte	0x1
 2219 0256 50       		.byte	0x50
 2220 0257 12000000 		.4byte	.LVL34
 2221 025b 24000000 		.4byte	.LFE121
 2222 025f 0400     		.2byte	0x4
 2223 0261 F3       		.byte	0xf3
 2224 0262 01       		.uleb128 0x1
 2225 0263 50       		.byte	0x50
 2226 0264 9F       		.byte	0x9f
 2227 0265 00000000 		.4byte	0
 2228 0269 00000000 		.4byte	0
 2229              	.LLST14:
 2230 026d 00000000 		.4byte	.LVL35
 2231 0271 04000000 		.4byte	.LVL36
 2232 0275 0100     		.2byte	0x1
 2233 0277 51       		.byte	0x51
 2234 0278 04000000 		.4byte	.LVL36
 2235 027c 14000000 		.4byte	.LVL37
 2236 0280 0400     		.2byte	0x4
 2237 0282 F3       		.byte	0xf3
 2238 0283 01       		.uleb128 0x1
 2239 0284 51       		.byte	0x51
 2240 0285 9F       		.byte	0x9f
 2241 0286 14000000 		.4byte	.LVL37
 2242 028a 16000000 		.4byte	.LVL38
 2243 028e 0100     		.2byte	0x1
 2244 0290 51       		.byte	0x51
 2245 0291 16000000 		.4byte	.LVL38
 2246 0295 28000000 		.4byte	.LFE122
 2247 0299 0400     		.2byte	0x4
 2248 029b F3       		.byte	0xf3
 2249 029c 01       		.uleb128 0x1
 2250 029d 51       		.byte	0x51
 2251 029e 9F       		.byte	0x9f
 2252 029f 00000000 		.4byte	0
 2253 02a3 00000000 		.4byte	0
 2254              	.LLST15:
 2255 02a7 00000000 		.4byte	.LVL39
 2256 02ab 08000000 		.4byte	.LVL41
 2257 02af 0100     		.2byte	0x1
 2258 02b1 51       		.byte	0x51
 2259 02b2 08000000 		.4byte	.LVL41
 2260 02b6 10000000 		.4byte	.LVL42
 2261 02ba 0400     		.2byte	0x4
 2262 02bc F3       		.byte	0xf3
 2263 02bd 01       		.uleb128 0x1
 2264 02be 51       		.byte	0x51
 2265 02bf 9F       		.byte	0x9f
 2266 02c0 10000000 		.4byte	.LVL42
 2267 02c4 16000000 		.4byte	.LVL44
 2268 02c8 0100     		.2byte	0x1
 2269 02ca 51       		.byte	0x51
ARM GAS  /var/folders/7z/kps_xzfj7sn5l5gkyq8s9db00000gn/T//ccIUdE2N.s 			page 41


 2270 02cb 16000000 		.4byte	.LVL44
 2271 02cf 20000000 		.4byte	.LFE123
 2272 02d3 0400     		.2byte	0x4
 2273 02d5 F3       		.byte	0xf3
 2274 02d6 01       		.uleb128 0x1
 2275 02d7 51       		.byte	0x51
 2276 02d8 9F       		.byte	0x9f
 2277 02d9 00000000 		.4byte	0
 2278 02dd 00000000 		.4byte	0
 2279              	.LLST16:
 2280 02e1 00000000 		.4byte	.LVL39
 2281 02e5 04000000 		.4byte	.LVL40
 2282 02e9 0100     		.2byte	0x1
 2283 02eb 52       		.byte	0x52
 2284 02ec 04000000 		.4byte	.LVL40
 2285 02f0 10000000 		.4byte	.LVL42
 2286 02f4 0400     		.2byte	0x4
 2287 02f6 F3       		.byte	0xf3
 2288 02f7 01       		.uleb128 0x1
 2289 02f8 52       		.byte	0x52
 2290 02f9 9F       		.byte	0x9f
 2291 02fa 10000000 		.4byte	.LVL42
 2292 02fe 12000000 		.4byte	.LVL43
 2293 0302 0100     		.2byte	0x1
 2294 0304 52       		.byte	0x52
 2295 0305 12000000 		.4byte	.LVL43
 2296 0309 20000000 		.4byte	.LFE123
 2297 030d 0400     		.2byte	0x4
 2298 030f F3       		.byte	0xf3
 2299 0310 01       		.uleb128 0x1
 2300 0311 52       		.byte	0x52
 2301 0312 9F       		.byte	0x9f
 2302 0313 00000000 		.4byte	0
 2303 0317 00000000 		.4byte	0
 2304              	.LLST17:
 2305 031b 00000000 		.4byte	.LVL45
 2306 031f 0C000000 		.4byte	.LVL48
 2307 0323 0100     		.2byte	0x1
 2308 0325 50       		.byte	0x50
 2309 0326 0C000000 		.4byte	.LVL48
 2310 032a 14000000 		.4byte	.LFE124
 2311 032e 0400     		.2byte	0x4
 2312 0330 F3       		.byte	0xf3
 2313 0331 01       		.uleb128 0x1
 2314 0332 50       		.byte	0x50
 2315 0333 9F       		.byte	0x9f
 2316 0334 00000000 		.4byte	0
 2317 0338 00000000 		.4byte	0
 2318              	.LLST18:
 2319 033c 00000000 		.4byte	.LVL45
 2320 0340 06000000 		.4byte	.LVL47
 2321 0344 0100     		.2byte	0x1
 2322 0346 51       		.byte	0x51
 2323 0347 06000000 		.4byte	.LVL47
 2324 034b 14000000 		.4byte	.LFE124
 2325 034f 0400     		.2byte	0x4
 2326 0351 F3       		.byte	0xf3
ARM GAS  /var/folders/7z/kps_xzfj7sn5l5gkyq8s9db00000gn/T//ccIUdE2N.s 			page 42


 2327 0352 01       		.uleb128 0x1
 2328 0353 51       		.byte	0x51
 2329 0354 9F       		.byte	0x9f
 2330 0355 00000000 		.4byte	0
 2331 0359 00000000 		.4byte	0
 2332              	.LLST19:
 2333 035d 00000000 		.4byte	.LVL45
 2334 0361 04000000 		.4byte	.LVL46
 2335 0365 0200     		.2byte	0x2
 2336 0367 30       		.byte	0x30
 2337 0368 9F       		.byte	0x9f
 2338 0369 04000000 		.4byte	.LVL46
 2339 036d 06000000 		.4byte	.LVL47
 2340 0371 0B00     		.2byte	0xb
 2341 0373 71       		.byte	0x71
 2342 0374 00       		.sleb128 0
 2343 0375 70       		.byte	0x70
 2344 0376 00       		.sleb128 0
 2345 0377 24       		.byte	0x24
 2346 0378 73       		.byte	0x73
 2347 0379 00       		.sleb128 0
 2348 037a 1A       		.byte	0x1a
 2349 037b 30       		.byte	0x30
 2350 037c 2E       		.byte	0x2e
 2351 037d 9F       		.byte	0x9f
 2352 037e 06000000 		.4byte	.LVL47
 2353 0382 0C000000 		.4byte	.LVL48
 2354 0386 0C00     		.2byte	0xc
 2355 0388 F3       		.byte	0xf3
 2356 0389 01       		.uleb128 0x1
 2357 038a 51       		.byte	0x51
 2358 038b 70       		.byte	0x70
 2359 038c 00       		.sleb128 0
 2360 038d 24       		.byte	0x24
 2361 038e 73       		.byte	0x73
 2362 038f 00       		.sleb128 0
 2363 0390 1A       		.byte	0x1a
 2364 0391 30       		.byte	0x30
 2365 0392 2E       		.byte	0x2e
 2366 0393 9F       		.byte	0x9f
 2367 0394 0C000000 		.4byte	.LVL48
 2368 0398 14000000 		.4byte	.LFE124
 2369 039c 0D00     		.2byte	0xd
 2370 039e F3       		.byte	0xf3
 2371 039f 01       		.uleb128 0x1
 2372 03a0 51       		.byte	0x51
 2373 03a1 F3       		.byte	0xf3
 2374 03a2 01       		.uleb128 0x1
 2375 03a3 50       		.byte	0x50
 2376 03a4 24       		.byte	0x24
 2377 03a5 73       		.byte	0x73
 2378 03a6 00       		.sleb128 0
 2379 03a7 1A       		.byte	0x1a
 2380 03a8 30       		.byte	0x30
 2381 03a9 2E       		.byte	0x2e
 2382 03aa 9F       		.byte	0x9f
 2383 03ab 00000000 		.4byte	0
ARM GAS  /var/folders/7z/kps_xzfj7sn5l5gkyq8s9db00000gn/T//ccIUdE2N.s 			page 43


 2384 03af 00000000 		.4byte	0
 2385              	.LLST20:
 2386 03b3 00000000 		.4byte	.LVL49
 2387 03b7 04000000 		.4byte	.LVL50
 2388 03bb 0100     		.2byte	0x1
 2389 03bd 51       		.byte	0x51
 2390 03be 04000000 		.4byte	.LVL50
 2391 03c2 0C000000 		.4byte	.LFE125
 2392 03c6 0400     		.2byte	0x4
 2393 03c8 F3       		.byte	0xf3
 2394 03c9 01       		.uleb128 0x1
 2395 03ca 51       		.byte	0x51
 2396 03cb 9F       		.byte	0x9f
 2397 03cc 00000000 		.4byte	0
 2398 03d0 00000000 		.4byte	0
 2399              	.LLST21:
 2400 03d4 00000000 		.4byte	.LVL51
 2401 03d8 0C000000 		.4byte	.LVL53
 2402 03dc 0100     		.2byte	0x1
 2403 03de 50       		.byte	0x50
 2404 03df 0C000000 		.4byte	.LVL53
 2405 03e3 1C000000 		.4byte	.LFE126
 2406 03e7 0400     		.2byte	0x4
 2407 03e9 F3       		.byte	0xf3
 2408 03ea 01       		.uleb128 0x1
 2409 03eb 50       		.byte	0x50
 2410 03ec 9F       		.byte	0x9f
 2411 03ed 00000000 		.4byte	0
 2412 03f1 00000000 		.4byte	0
 2413              	.LLST22:
 2414 03f5 00000000 		.4byte	.LVL51
 2415 03f9 08000000 		.4byte	.LVL52
 2416 03fd 0100     		.2byte	0x1
 2417 03ff 51       		.byte	0x51
 2418 0400 08000000 		.4byte	.LVL52
 2419 0404 1C000000 		.4byte	.LFE126
 2420 0408 0400     		.2byte	0x4
 2421 040a F3       		.byte	0xf3
 2422 040b 01       		.uleb128 0x1
 2423 040c 51       		.byte	0x51
 2424 040d 9F       		.byte	0x9f
 2425 040e 00000000 		.4byte	0
 2426 0412 00000000 		.4byte	0
 2427              	.LLST23:
 2428 0416 00000000 		.4byte	.LVL51
 2429 041a 16000000 		.4byte	.LVL54
 2430 041e 0200     		.2byte	0x2
 2431 0420 30       		.byte	0x30
 2432 0421 9F       		.byte	0x9f
 2433 0422 16000000 		.4byte	.LVL54
 2434 0426 1C000000 		.4byte	.LFE126
 2435 042a 0100     		.2byte	0x1
 2436 042c 50       		.byte	0x50
 2437 042d 00000000 		.4byte	0
 2438 0431 00000000 		.4byte	0
 2439              	.LLST24:
 2440 0435 00000000 		.4byte	.LVL51
ARM GAS  /var/folders/7z/kps_xzfj7sn5l5gkyq8s9db00000gn/T//ccIUdE2N.s 			page 44


 2441 0439 08000000 		.4byte	.LVL52
 2442 043d 0200     		.2byte	0x2
 2443 043f 30       		.byte	0x30
 2444 0440 9F       		.byte	0x9f
 2445 0441 08000000 		.4byte	.LVL52
 2446 0445 1C000000 		.4byte	.LFE126
 2447 0449 0600     		.2byte	0x6
 2448 044b 71       		.byte	0x71
 2449 044c 00       		.sleb128 0
 2450 044d 72       		.byte	0x72
 2451 044e 00       		.sleb128 0
 2452 044f 1A       		.byte	0x1a
 2453 0450 9F       		.byte	0x9f
 2454 0451 00000000 		.4byte	0
 2455 0455 00000000 		.4byte	0
 2456              	.LLST25:
 2457 0459 00000000 		.4byte	.LVL55
 2458 045d 04000000 		.4byte	.LVL56
 2459 0461 0100     		.2byte	0x1
 2460 0463 51       		.byte	0x51
 2461 0464 04000000 		.4byte	.LVL56
 2462 0468 0C000000 		.4byte	.LFE127
 2463 046c 0400     		.2byte	0x4
 2464 046e F3       		.byte	0xf3
 2465 046f 01       		.uleb128 0x1
 2466 0470 51       		.byte	0x51
 2467 0471 9F       		.byte	0x9f
 2468 0472 00000000 		.4byte	0
 2469 0476 00000000 		.4byte	0
 2470              		.section	.debug_aranges,"",%progbits
 2471 0000 9C000000 		.4byte	0x9c
 2472 0004 0200     		.2byte	0x2
 2473 0006 00000000 		.4byte	.Ldebug_info0
 2474 000a 04       		.byte	0x4
 2475 000b 00       		.byte	0
 2476 000c 0000     		.2byte	0
 2477 000e 0000     		.2byte	0
 2478 0010 00000000 		.4byte	.LFB111
 2479 0014 1A000000 		.4byte	.LFE111-.LFB111
 2480 0018 00000000 		.4byte	.LFB112
 2481 001c 30000000 		.4byte	.LFE112-.LFB112
 2482 0020 00000000 		.4byte	.LFB113
 2483 0024 0C000000 		.4byte	.LFE113-.LFB113
 2484 0028 00000000 		.4byte	.LFB114
 2485 002c 24000000 		.4byte	.LFE114-.LFB114
 2486 0030 00000000 		.4byte	.LFB115
 2487 0034 28000000 		.4byte	.LFE115-.LFB115
 2488 0038 00000000 		.4byte	.LFB116
 2489 003c 1C000000 		.4byte	.LFE116-.LFB116
 2490 0040 00000000 		.4byte	.LFB117
 2491 0044 20000000 		.4byte	.LFE117-.LFB117
 2492 0048 00000000 		.4byte	.LFB118
 2493 004c 20000000 		.4byte	.LFE118-.LFB118
 2494 0050 00000000 		.4byte	.LFB119
 2495 0054 20000000 		.4byte	.LFE119-.LFB119
 2496 0058 00000000 		.4byte	.LFB120
 2497 005c 18000000 		.4byte	.LFE120-.LFB120
ARM GAS  /var/folders/7z/kps_xzfj7sn5l5gkyq8s9db00000gn/T//ccIUdE2N.s 			page 45


 2498 0060 00000000 		.4byte	.LFB121
 2499 0064 24000000 		.4byte	.LFE121-.LFB121
 2500 0068 00000000 		.4byte	.LFB122
 2501 006c 28000000 		.4byte	.LFE122-.LFB122
 2502 0070 00000000 		.4byte	.LFB123
 2503 0074 20000000 		.4byte	.LFE123-.LFB123
 2504 0078 00000000 		.4byte	.LFB124
 2505 007c 14000000 		.4byte	.LFE124-.LFB124
 2506 0080 00000000 		.4byte	.LFB125
 2507 0084 0C000000 		.4byte	.LFE125-.LFB125
 2508 0088 00000000 		.4byte	.LFB126
 2509 008c 1C000000 		.4byte	.LFE126-.LFB126
 2510 0090 00000000 		.4byte	.LFB127
 2511 0094 0C000000 		.4byte	.LFE127-.LFB127
 2512 0098 00000000 		.4byte	0
 2513 009c 00000000 		.4byte	0
 2514              		.section	.debug_ranges,"",%progbits
 2515              	.Ldebug_ranges0:
 2516 0000 00000000 		.4byte	.LFB111
 2517 0004 1A000000 		.4byte	.LFE111
 2518 0008 00000000 		.4byte	.LFB112
 2519 000c 30000000 		.4byte	.LFE112
 2520 0010 00000000 		.4byte	.LFB113
 2521 0014 0C000000 		.4byte	.LFE113
 2522 0018 00000000 		.4byte	.LFB114
 2523 001c 24000000 		.4byte	.LFE114
 2524 0020 00000000 		.4byte	.LFB115
 2525 0024 28000000 		.4byte	.LFE115
 2526 0028 00000000 		.4byte	.LFB116
 2527 002c 1C000000 		.4byte	.LFE116
 2528 0030 00000000 		.4byte	.LFB117
 2529 0034 20000000 		.4byte	.LFE117
 2530 0038 00000000 		.4byte	.LFB118
 2531 003c 20000000 		.4byte	.LFE118
 2532 0040 00000000 		.4byte	.LFB119
 2533 0044 20000000 		.4byte	.LFE119
 2534 0048 00000000 		.4byte	.LFB120
 2535 004c 18000000 		.4byte	.LFE120
 2536 0050 00000000 		.4byte	.LFB121
 2537 0054 24000000 		.4byte	.LFE121
 2538 0058 00000000 		.4byte	.LFB122
 2539 005c 28000000 		.4byte	.LFE122
 2540 0060 00000000 		.4byte	.LFB123
 2541 0064 20000000 		.4byte	.LFE123
 2542 0068 00000000 		.4byte	.LFB124
 2543 006c 14000000 		.4byte	.LFE124
 2544 0070 00000000 		.4byte	.LFB125
 2545 0074 0C000000 		.4byte	.LFE125
 2546 0078 00000000 		.4byte	.LFB126
 2547 007c 1C000000 		.4byte	.LFE126
 2548 0080 00000000 		.4byte	.LFB127
 2549 0084 0C000000 		.4byte	.LFE127
 2550 0088 00000000 		.4byte	0
 2551 008c 00000000 		.4byte	0
 2552              		.section	.debug_line,"",%progbits
 2553              	.Ldebug_line0:
 2554 0000 48030000 		.section	.debug_str,"MS",%progbits,1
ARM GAS  /var/folders/7z/kps_xzfj7sn5l5gkyq8s9db00000gn/T//ccIUdE2N.s 			page 46


 2554      0200B701 
 2554      00000201 
 2554      FB0E0D00 
 2554      01010101 
 2555              	.LASF46:
 2556 0000 746D7072 		.ascii	"tmpreg1\000"
 2556      65673100 
 2557              	.LASF66:
 2558 0008 4441435F 		.ascii	"DAC_GetDataOutputValue\000"
 2558      47657444 
 2558      6174614F 
 2558      75747075 
 2558      7456616C 
 2559              	.LASF33:
 2560 001f 44485238 		.ascii	"DHR8RD\000"
 2560      524400
 2561              	.LASF74:
 2562 0026 474E5520 		.ascii	"GNU C 4.9.3 20150303 (release) [ARM/embedded-4_9-br"
 2562      4320342E 
 2562      392E3320 
 2562      32303135 
 2562      30333033 
 2563 0059 616E6368 		.ascii	"anch revision 221220] -mcpu=cortex-m4 -mfloat-abi=h"
 2563      20726576 
 2563      6973696F 
 2563      6E203232 
 2563      31323230 
 2564 008c 61726420 		.ascii	"ard -mfpu=fpv4-sp-d16 -mno-thumb-interwork -mthumb "
 2564      2D6D6670 
 2564      753D6670 
 2564      76342D73 
 2564      702D6431 
 2565 00bf 2D676764 		.ascii	"-ggdb -O2 -std=gnu99 -fomit-frame-pointer -falign-f"
 2565      62202D4F 
 2565      32202D73 
 2565      74643D67 
 2565      6E753939 
 2566 00f2 756E6374 		.ascii	"unctions=16 -ffunction-sections -fdata-sections -fn"
 2566      696F6E73 
 2566      3D313620 
 2566      2D666675 
 2566      6E637469 
 2567 0125 6F2D636F 		.ascii	"o-common -fsingle-precision-constant\000"
 2567      6D6D6F6E 
 2567      202D6673 
 2567      696E676C 
 2567      652D7072 
 2568              	.LASF51:
 2569 014a 4441435F 		.ascii	"DAC_SoftwareTriggerCmd\000"
 2569      536F6674 
 2569      77617265 
 2569      54726967 
 2569      67657243 
 2570              	.LASF26:
 2571 0161 44485231 		.ascii	"DHR12L1\000"
 2571      324C3100 
 2572              	.LASF29:
ARM GAS  /var/folders/7z/kps_xzfj7sn5l5gkyq8s9db00000gn/T//ccIUdE2N.s 			page 47


 2573 0169 44485231 		.ascii	"DHR12L2\000"
 2573      324C3200 
 2574              	.LASF53:
 2575 0171 4441435F 		.ascii	"DAC_WaveGenerationCmd\000"
 2575      57617665 
 2575      47656E65 
 2575      72617469 
 2575      6F6E436D 
 2576              	.LASF17:
 2577 0187 73697A65 		.ascii	"sizetype\000"
 2577      74797065 
 2577      00
 2578              	.LASF32:
 2579 0190 44485231 		.ascii	"DHR12LD\000"
 2579      324C4400 
 2580              	.LASF68:
 2581 0198 4441435F 		.ascii	"DAC_FLAG\000"
 2581      464C4147 
 2581      00
 2582              	.LASF67:
 2583 01a1 4441435F 		.ascii	"DAC_GetFlagStatus\000"
 2583      47657446 
 2583      6C616753 
 2583      74617475 
 2583      7300
 2584              	.LASF8:
 2585 01b3 5F5F7569 		.ascii	"__uint32_t\000"
 2585      6E743332 
 2585      5F7400
 2586              	.LASF40:
 2587 01be 4441435F 		.ascii	"DAC_OutputBuffer\000"
 2587      4F757470 
 2587      75744275 
 2587      66666572 
 2587      00
 2588              	.LASF4:
 2589 01cf 5F5F7569 		.ascii	"__uint16_t\000"
 2589      6E743136 
 2589      5F7400
 2590              	.LASF2:
 2591 01da 73686F72 		.ascii	"short int\000"
 2591      7420696E 
 2591      7400
 2592              	.LASF49:
 2593 01e4 4441435F 		.ascii	"DAC_Cmd\000"
 2593      436D6400 
 2594              	.LASF34:
 2595 01ec 444F5231 		.ascii	"DOR1\000"
 2595      00
 2596              	.LASF35:
 2597 01f1 444F5232 		.ascii	"DOR2\000"
 2597      00
 2598              	.LASF50:
 2599 01f6 4E657753 		.ascii	"NewState\000"
 2599      74617465 
 2599      00
 2600              	.LASF21:
ARM GAS  /var/folders/7z/kps_xzfj7sn5l5gkyq8s9db00000gn/T//ccIUdE2N.s 			page 48


 2601 01ff 44495341 		.ascii	"DISABLE\000"
 2601      424C4500 
 2602              	.LASF70:
 2603 0207 4441435F 		.ascii	"DAC_ClearFlag\000"
 2603      436C6561 
 2603      72466C61 
 2603      6700
 2604              	.LASF75:
 2605 0215 6C69622F 		.ascii	"lib/ChibiOS_2.6.6/ext/stdperiph_stm32f4/src/stm32f4"
 2605      43686962 
 2605      694F535F 
 2605      322E362E 
 2605      362F6578 
 2606 0248 78785F64 		.ascii	"xx_dac.c\000"
 2606      61632E63 
 2606      00
 2607              	.LASF72:
 2608 0251 656E6162 		.ascii	"enablestatus\000"
 2608      6C657374 
 2608      61747573 
 2608      00
 2609              	.LASF10:
 2610 025e 6C6F6E67 		.ascii	"long long int\000"
 2610      206C6F6E 
 2610      6720696E 
 2610      7400
 2611              	.LASF78:
 2612 026c 5243435F 		.ascii	"RCC_APB1PeriphResetCmd\000"
 2612      41504231 
 2612      50657269 
 2612      70685265 
 2612      73657443 
 2613              	.LASF20:
 2614 0283 49545374 		.ascii	"ITStatus\000"
 2614      61747573 
 2614      00
 2615              	.LASF7:
 2616 028c 6C6F6E67 		.ascii	"long int\000"
 2616      20696E74 
 2616      00
 2617              	.LASF59:
 2618 0295 4441435F 		.ascii	"DAC_SetDualChannelData\000"
 2618      53657444 
 2618      75616C43 
 2618      68616E6E 
 2618      656C4461 
 2619              	.LASF54:
 2620 02ac 4441435F 		.ascii	"DAC_Wave\000"
 2620      57617665 
 2620      00
 2621              	.LASF3:
 2622 02b5 5F5F7569 		.ascii	"__uint8_t\000"
 2622      6E74385F 
 2622      7400
 2623              	.LASF57:
 2624 02bf 44617461 		.ascii	"Data\000"
 2624      00
ARM GAS  /var/folders/7z/kps_xzfj7sn5l5gkyq8s9db00000gn/T//ccIUdE2N.s 			page 49


 2625              	.LASF55:
 2626 02c4 4441435F 		.ascii	"DAC_SetChannel1Data\000"
 2626      53657443 
 2626      68616E6E 
 2626      656C3144 
 2626      61746100 
 2627              	.LASF69:
 2628 02d8 62697473 		.ascii	"bitstatus\000"
 2628      74617475 
 2628      7300
 2629              	.LASF45:
 2630 02e2 4441435F 		.ascii	"DAC_InitStruct\000"
 2630      496E6974 
 2630      53747275 
 2630      637400
 2631              	.LASF1:
 2632 02f1 756E7369 		.ascii	"unsigned char\000"
 2632      676E6564 
 2632      20636861 
 2632      7200
 2633              	.LASF6:
 2634 02ff 5F5F696E 		.ascii	"__int32_t\000"
 2634      7433325F 
 2634      7400
 2635              	.LASF48:
 2636 0309 4441435F 		.ascii	"DAC_StructInit\000"
 2636      53747275 
 2636      6374496E 
 2636      697400
 2637              	.LASF0:
 2638 0318 7369676E 		.ascii	"signed char\000"
 2638      65642063 
 2638      68617200 
 2639              	.LASF11:
 2640 0324 6C6F6E67 		.ascii	"long long unsigned int\000"
 2640      206C6F6E 
 2640      6720756E 
 2640      7369676E 
 2640      65642069 
 2641              	.LASF16:
 2642 033b 75696E74 		.ascii	"uint32_t\000"
 2642      33325F74 
 2642      00
 2643              	.LASF37:
 2644 0344 4441435F 		.ascii	"DAC_Trigger\000"
 2644      54726967 
 2644      67657200 
 2645              	.LASF14:
 2646 0350 75696E74 		.ascii	"uint16_t\000"
 2646      31365F74 
 2646      00
 2647              	.LASF63:
 2648 0359 4441435F 		.ascii	"DAC_DMACmd\000"
 2648      444D4143 
 2648      6D6400
 2649              	.LASF44:
 2650 0364 4441435F 		.ascii	"DAC_Channel\000"
ARM GAS  /var/folders/7z/kps_xzfj7sn5l5gkyq8s9db00000gn/T//ccIUdE2N.s 			page 50


 2650      4368616E 
 2650      6E656C00 
 2651              	.LASF42:
 2652 0370 4441435F 		.ascii	"DAC_DeInit\000"
 2652      4465496E 
 2652      697400
 2653              	.LASF24:
 2654 037b 53575452 		.ascii	"SWTRIGR\000"
 2654      49475200 
 2655              	.LASF5:
 2656 0383 73686F72 		.ascii	"short unsigned int\000"
 2656      7420756E 
 2656      7369676E 
 2656      65642069 
 2656      6E7400
 2657              	.LASF52:
 2658 0396 4441435F 		.ascii	"DAC_DualSoftwareTriggerCmd\000"
 2658      4475616C 
 2658      536F6674 
 2658      77617265 
 2658      54726967 
 2659              	.LASF47:
 2660 03b1 746D7072 		.ascii	"tmpreg2\000"
 2660      65673200 
 2661              	.LASF39:
 2662 03b9 4441435F 		.ascii	"DAC_LFSRUnmask_TriangleAmplitude\000"
 2662      4C465352 
 2662      556E6D61 
 2662      736B5F54 
 2662      7269616E 
 2663              	.LASF15:
 2664 03da 696E7433 		.ascii	"int32_t\000"
 2664      325F7400 
 2665              	.LASF56:
 2666 03e2 4441435F 		.ascii	"DAC_Align\000"
 2666      416C6967 
 2666      6E00
 2667              	.LASF25:
 2668 03ec 44485231 		.ascii	"DHR12R1\000"
 2668      32523100 
 2669              	.LASF28:
 2670 03f4 44485231 		.ascii	"DHR12R2\000"
 2670      32523200 
 2671              	.LASF65:
 2672 03fc 4441435F 		.ascii	"DAC_IT\000"
 2672      495400
 2673              	.LASF41:
 2674 0403 4441435F 		.ascii	"DAC_InitTypeDef\000"
 2674      496E6974 
 2674      54797065 
 2674      44656600 
 2675              	.LASF60:
 2676 0413 44617461 		.ascii	"Data2\000"
 2676      3200
 2677              	.LASF62:
 2678 0419 64617461 		.ascii	"data\000"
 2678      00
ARM GAS  /var/folders/7z/kps_xzfj7sn5l5gkyq8s9db00000gn/T//ccIUdE2N.s 			page 51


 2679              	.LASF31:
 2680 041e 44485231 		.ascii	"DHR12RD\000"
 2680      32524400 
 2681              	.LASF9:
 2682 0426 6C6F6E67 		.ascii	"long unsigned int\000"
 2682      20756E73 
 2682      69676E65 
 2682      6420696E 
 2682      7400
 2683              	.LASF23:
 2684 0438 46756E63 		.ascii	"FunctionalState\000"
 2684      74696F6E 
 2684      616C5374 
 2684      61746500 
 2685              	.LASF71:
 2686 0448 4441435F 		.ascii	"DAC_GetITStatus\000"
 2686      47657449 
 2686      54537461 
 2686      74757300 
 2687              	.LASF58:
 2688 0458 4441435F 		.ascii	"DAC_SetChannel2Data\000"
 2688      53657443 
 2688      68616E6E 
 2688      656C3244 
 2688      61746100 
 2689              	.LASF76:
 2690 046c 2F557365 		.ascii	"/Users/Baram/oroca_bldc_dev/oroca_bldc/\000"
 2690      72732F42 
 2690      6172616D 
 2690      2F6F726F 
 2690      63615F62 
 2691              	.LASF73:
 2692 0494 4441435F 		.ascii	"DAC_ClearITPendingBit\000"
 2692      436C6561 
 2692      72495450 
 2692      656E6469 
 2692      6E674269 
 2693              	.LASF18:
 2694 04aa 52455345 		.ascii	"RESET\000"
 2694      5400
 2695              	.LASF13:
 2696 04b0 75696E74 		.ascii	"uint8_t\000"
 2696      385F7400 
 2697              	.LASF43:
 2698 04b8 4441435F 		.ascii	"DAC_Init\000"
 2698      496E6974 
 2698      00
 2699              	.LASF61:
 2700 04c1 44617461 		.ascii	"Data1\000"
 2700      3100
 2701              	.LASF77:
 2702 04c7 49544D5F 		.ascii	"ITM_RxBuffer\000"
 2702      52784275 
 2702      66666572 
 2702      00
 2703              	.LASF36:
 2704 04d4 4441435F 		.ascii	"DAC_TypeDef\000"
ARM GAS  /var/folders/7z/kps_xzfj7sn5l5gkyq8s9db00000gn/T//ccIUdE2N.s 			page 52


 2704      54797065 
 2704      44656600 
 2705              	.LASF12:
 2706 04e0 756E7369 		.ascii	"unsigned int\000"
 2706      676E6564 
 2706      20696E74 
 2706      00
 2707              	.LASF64:
 2708 04ed 4441435F 		.ascii	"DAC_ITConfig\000"
 2708      4954436F 
 2708      6E666967 
 2708      00
 2709              	.LASF27:
 2710 04fa 44485238 		.ascii	"DHR8R1\000"
 2710      523100
 2711              	.LASF30:
 2712 0501 44485238 		.ascii	"DHR8R2\000"
 2712      523200
 2713              	.LASF38:
 2714 0508 4441435F 		.ascii	"DAC_WaveGeneration\000"
 2714      57617665 
 2714      47656E65 
 2714      72617469 
 2714      6F6E00
 2715              	.LASF19:
 2716 051b 466C6167 		.ascii	"FlagStatus\000"
 2716      53746174 
 2716      757300
 2717              	.LASF22:
 2718 0526 454E4142 		.ascii	"ENABLE\000"
 2718      4C4500
 2719              		.ident	"GCC: (GNU Tools for ARM Embedded Processors) 4.9.3 20150303 (release) [ARM/embedded-4_9-br
ARM GAS  /var/folders/7z/kps_xzfj7sn5l5gkyq8s9db00000gn/T//ccIUdE2N.s 			page 53


DEFINED SYMBOLS
                            *ABS*:0000000000000000 stm32f4xx_dac.c
/var/folders/7z/kps_xzfj7sn5l5gkyq8s9db00000gn/T//ccIUdE2N.s:21     .text.DAC_DeInit:0000000000000000 $t
/var/folders/7z/kps_xzfj7sn5l5gkyq8s9db00000gn/T//ccIUdE2N.s:27     .text.DAC_DeInit:0000000000000000 DAC_DeInit
/var/folders/7z/kps_xzfj7sn5l5gkyq8s9db00000gn/T//ccIUdE2N.s:58     .text.DAC_Init:0000000000000000 $t
/var/folders/7z/kps_xzfj7sn5l5gkyq8s9db00000gn/T//ccIUdE2N.s:64     .text.DAC_Init:0000000000000000 DAC_Init
/var/folders/7z/kps_xzfj7sn5l5gkyq8s9db00000gn/T//ccIUdE2N.s:120    .text.DAC_Init:000000000000002c $d
/var/folders/7z/kps_xzfj7sn5l5gkyq8s9db00000gn/T//ccIUdE2N.s:125    .text.DAC_StructInit:0000000000000000 $t
/var/folders/7z/kps_xzfj7sn5l5gkyq8s9db00000gn/T//ccIUdE2N.s:131    .text.DAC_StructInit:0000000000000000 DAC_StructInit
/var/folders/7z/kps_xzfj7sn5l5gkyq8s9db00000gn/T//ccIUdE2N.s:153    .text.DAC_Cmd:0000000000000000 $t
/var/folders/7z/kps_xzfj7sn5l5gkyq8s9db00000gn/T//ccIUdE2N.s:159    .text.DAC_Cmd:0000000000000000 DAC_Cmd
/var/folders/7z/kps_xzfj7sn5l5gkyq8s9db00000gn/T//ccIUdE2N.s:192    .text.DAC_Cmd:0000000000000020 $d
/var/folders/7z/kps_xzfj7sn5l5gkyq8s9db00000gn/T//ccIUdE2N.s:197    .text.DAC_SoftwareTriggerCmd:0000000000000000 $t
/var/folders/7z/kps_xzfj7sn5l5gkyq8s9db00000gn/T//ccIUdE2N.s:203    .text.DAC_SoftwareTriggerCmd:0000000000000000 DAC_SoftwareTriggerCmd
/var/folders/7z/kps_xzfj7sn5l5gkyq8s9db00000gn/T//ccIUdE2N.s:240    .text.DAC_SoftwareTriggerCmd:0000000000000024 $d
/var/folders/7z/kps_xzfj7sn5l5gkyq8s9db00000gn/T//ccIUdE2N.s:245    .text.DAC_DualSoftwareTriggerCmd:0000000000000000 $t
/var/folders/7z/kps_xzfj7sn5l5gkyq8s9db00000gn/T//ccIUdE2N.s:251    .text.DAC_DualSoftwareTriggerCmd:0000000000000000 DAC_DualSoftwareTriggerCmd
/var/folders/7z/kps_xzfj7sn5l5gkyq8s9db00000gn/T//ccIUdE2N.s:276    .text.DAC_DualSoftwareTriggerCmd:0000000000000018 $d
/var/folders/7z/kps_xzfj7sn5l5gkyq8s9db00000gn/T//ccIUdE2N.s:281    .text.DAC_WaveGenerationCmd:0000000000000000 $t
/var/folders/7z/kps_xzfj7sn5l5gkyq8s9db00000gn/T//ccIUdE2N.s:287    .text.DAC_WaveGenerationCmd:0000000000000000 DAC_WaveGenerationCmd
/var/folders/7z/kps_xzfj7sn5l5gkyq8s9db00000gn/T//ccIUdE2N.s:320    .text.DAC_WaveGenerationCmd:000000000000001c $d
/var/folders/7z/kps_xzfj7sn5l5gkyq8s9db00000gn/T//ccIUdE2N.s:325    .text.DAC_SetChannel1Data:0000000000000000 $t
/var/folders/7z/kps_xzfj7sn5l5gkyq8s9db00000gn/T//ccIUdE2N.s:331    .text.DAC_SetChannel1Data:0000000000000000 DAC_SetChannel1Data
/var/folders/7z/kps_xzfj7sn5l5gkyq8s9db00000gn/T//ccIUdE2N.s:366    .text.DAC_SetChannel1Data:000000000000001c $d
/var/folders/7z/kps_xzfj7sn5l5gkyq8s9db00000gn/T//ccIUdE2N.s:371    .text.DAC_SetChannel2Data:0000000000000000 $t
/var/folders/7z/kps_xzfj7sn5l5gkyq8s9db00000gn/T//ccIUdE2N.s:377    .text.DAC_SetChannel2Data:0000000000000000 DAC_SetChannel2Data
/var/folders/7z/kps_xzfj7sn5l5gkyq8s9db00000gn/T//ccIUdE2N.s:412    .text.DAC_SetChannel2Data:000000000000001c $d
/var/folders/7z/kps_xzfj7sn5l5gkyq8s9db00000gn/T//ccIUdE2N.s:417    .text.DAC_SetDualChannelData:0000000000000000 $t
/var/folders/7z/kps_xzfj7sn5l5gkyq8s9db00000gn/T//ccIUdE2N.s:423    .text.DAC_SetDualChannelData:0000000000000000 DAC_SetDualChannelData
/var/folders/7z/kps_xzfj7sn5l5gkyq8s9db00000gn/T//ccIUdE2N.s:448    .text.DAC_SetDualChannelData:0000000000000014 $d
/var/folders/7z/kps_xzfj7sn5l5gkyq8s9db00000gn/T//ccIUdE2N.s:453    .text.DAC_GetDataOutputValue:0000000000000000 $t
/var/folders/7z/kps_xzfj7sn5l5gkyq8s9db00000gn/T//ccIUdE2N.s:459    .text.DAC_GetDataOutputValue:0000000000000000 DAC_GetDataOutputValue
/var/folders/7z/kps_xzfj7sn5l5gkyq8s9db00000gn/T//ccIUdE2N.s:495    .text.DAC_GetDataOutputValue:0000000000000020 $d
/var/folders/7z/kps_xzfj7sn5l5gkyq8s9db00000gn/T//ccIUdE2N.s:500    .text.DAC_DMACmd:0000000000000000 $t
/var/folders/7z/kps_xzfj7sn5l5gkyq8s9db00000gn/T//ccIUdE2N.s:506    .text.DAC_DMACmd:0000000000000000 DAC_DMACmd
/var/folders/7z/kps_xzfj7sn5l5gkyq8s9db00000gn/T//ccIUdE2N.s:539    .text.DAC_DMACmd:0000000000000024 $d
/var/folders/7z/kps_xzfj7sn5l5gkyq8s9db00000gn/T//ccIUdE2N.s:544    .text.DAC_ITConfig:0000000000000000 $t
/var/folders/7z/kps_xzfj7sn5l5gkyq8s9db00000gn/T//ccIUdE2N.s:550    .text.DAC_ITConfig:0000000000000000 DAC_ITConfig
/var/folders/7z/kps_xzfj7sn5l5gkyq8s9db00000gn/T//ccIUdE2N.s:583    .text.DAC_ITConfig:000000000000001c $d
/var/folders/7z/kps_xzfj7sn5l5gkyq8s9db00000gn/T//ccIUdE2N.s:588    .text.DAC_GetFlagStatus:0000000000000000 $t
/var/folders/7z/kps_xzfj7sn5l5gkyq8s9db00000gn/T//ccIUdE2N.s:594    .text.DAC_GetFlagStatus:0000000000000000 DAC_GetFlagStatus
/var/folders/7z/kps_xzfj7sn5l5gkyq8s9db00000gn/T//ccIUdE2N.s:618    .text.DAC_GetFlagStatus:0000000000000010 $d
/var/folders/7z/kps_xzfj7sn5l5gkyq8s9db00000gn/T//ccIUdE2N.s:623    .text.DAC_ClearFlag:0000000000000000 $t
/var/folders/7z/kps_xzfj7sn5l5gkyq8s9db00000gn/T//ccIUdE2N.s:629    .text.DAC_ClearFlag:0000000000000000 DAC_ClearFlag
/var/folders/7z/kps_xzfj7sn5l5gkyq8s9db00000gn/T//ccIUdE2N.s:646    .text.DAC_ClearFlag:0000000000000008 $d
/var/folders/7z/kps_xzfj7sn5l5gkyq8s9db00000gn/T//ccIUdE2N.s:651    .text.DAC_GetITStatus:0000000000000000 $t
/var/folders/7z/kps_xzfj7sn5l5gkyq8s9db00000gn/T//ccIUdE2N.s:657    .text.DAC_GetITStatus:0000000000000000 DAC_GetITStatus
/var/folders/7z/kps_xzfj7sn5l5gkyq8s9db00000gn/T//ccIUdE2N.s:690    .text.DAC_GetITStatus:0000000000000018 $d
/var/folders/7z/kps_xzfj7sn5l5gkyq8s9db00000gn/T//ccIUdE2N.s:695    .text.DAC_ClearITPendingBit:0000000000000000 $t
/var/folders/7z/kps_xzfj7sn5l5gkyq8s9db00000gn/T//ccIUdE2N.s:701    .text.DAC_ClearITPendingBit:0000000000000000 DAC_ClearITPendingBit
/var/folders/7z/kps_xzfj7sn5l5gkyq8s9db00000gn/T//ccIUdE2N.s:718    .text.DAC_ClearITPendingBit:0000000000000008 $d
                     .debug_frame:0000000000000010 $d
/var/folders/7z/kps_xzfj7sn5l5gkyq8s9db00000gn/T//ccIUdE2N.s:196    .text.DAC_Cmd:0000000000000024 $t
/var/folders/7z/kps_xzfj7sn5l5gkyq8s9db00000gn/T//ccIUdE2N.s:244    .text.DAC_SoftwareTriggerCmd:0000000000000028 $t
/var/folders/7z/kps_xzfj7sn5l5gkyq8s9db00000gn/T//ccIUdE2N.s:280    .text.DAC_DualSoftwareTriggerCmd:000000000000001c $t
/var/folders/7z/kps_xzfj7sn5l5gkyq8s9db00000gn/T//ccIUdE2N.s:452    .text.DAC_SetDualChannelData:0000000000000018 $t
/var/folders/7z/kps_xzfj7sn5l5gkyq8s9db00000gn/T//ccIUdE2N.s:499    .text.DAC_GetDataOutputValue:0000000000000024 $t
ARM GAS  /var/folders/7z/kps_xzfj7sn5l5gkyq8s9db00000gn/T//ccIUdE2N.s 			page 54


/var/folders/7z/kps_xzfj7sn5l5gkyq8s9db00000gn/T//ccIUdE2N.s:543    .text.DAC_DMACmd:0000000000000028 $t
/var/folders/7z/kps_xzfj7sn5l5gkyq8s9db00000gn/T//ccIUdE2N.s:622    .text.DAC_GetFlagStatus:0000000000000014 $t
/var/folders/7z/kps_xzfj7sn5l5gkyq8s9db00000gn/T//ccIUdE2N.s:650    .text.DAC_ClearFlag:000000000000000c $t
/var/folders/7z/kps_xzfj7sn5l5gkyq8s9db00000gn/T//ccIUdE2N.s:694    .text.DAC_GetITStatus:000000000000001c $t
/var/folders/7z/kps_xzfj7sn5l5gkyq8s9db00000gn/T//ccIUdE2N.s:722    .text.DAC_ClearITPendingBit:000000000000000c $t

UNDEFINED SYMBOLS
RCC_APB1PeriphResetCmd
