ARM GAS  /var/folders/7z/kps_xzfj7sn5l5gkyq8s9db00000gn/T//cc5x5WYY.s 			page 1


   1              		.syntax unified
   2              		.cpu cortex-m4
   3              		.eabi_attribute 27, 1
   4              		.eabi_attribute 28, 1
   5              		.fpu fpv4-sp-d16
   6              		.eabi_attribute 20, 1
   7              		.eabi_attribute 21, 1
   8              		.eabi_attribute 23, 3
   9              		.eabi_attribute 24, 1
  10              		.eabi_attribute 25, 1
  11              		.eabi_attribute 26, 1
  12              		.eabi_attribute 30, 2
  13              		.eabi_attribute 34, 1
  14              		.eabi_attribute 18, 4
  15              		.thumb
  16              		.file	"stm32f4xx_hash.c"
  17              		.text
  18              	.Ltext0:
  19              		.cfi_sections	.debug_frame
  20              		.section	.text.HASH_DeInit,"ax",%progbits
  21              		.align	2
  22              		.p2align 4,,15
  23              		.global	HASH_DeInit
  24              		.thumb
  25              		.thumb_func
  26              		.type	HASH_DeInit, %function
  27              	HASH_DeInit:
  28              	.LFB111:
  29              		.file 1 "lib/ChibiOS_2.6.6/ext/stdperiph_stm32f4/src/stm32f4xx_hash.c"
  30              		.loc 1 178 0
  31              		.cfi_startproc
  32              		@ args = 0, pretend = 0, frame = 0
  33              		@ frame_needed = 0, uses_anonymous_args = 0
  34 0000 08B5     		push	{r3, lr}
  35              		.cfi_def_cfa_offset 8
  36              		.cfi_offset 3, -8
  37              		.cfi_offset 14, -4
  38              		.loc 1 180 0
  39 0002 2020     		movs	r0, #32
  40 0004 0121     		movs	r1, #1
  41 0006 FFF7FEFF 		bl	RCC_AHB2PeriphResetCmd
  42              	.LVL0:
  43              		.loc 1 182 0
  44 000a 2020     		movs	r0, #32
  45 000c 0021     		movs	r1, #0
  46              		.loc 1 183 0
  47 000e BDE80840 		pop	{r3, lr}
  48              		.cfi_restore 14
  49              		.cfi_restore 3
  50              		.cfi_def_cfa_offset 0
  51              		.loc 1 182 0
  52 0012 FFF7FEBF 		b	RCC_AHB2PeriphResetCmd
  53              	.LVL1:
  54              		.cfi_endproc
  55              	.LFE111:
  56              		.size	HASH_DeInit, .-HASH_DeInit
  57 0016 00BFAFF3 		.section	.text.HASH_Init,"ax",%progbits
ARM GAS  /var/folders/7z/kps_xzfj7sn5l5gkyq8s9db00000gn/T//cc5x5WYY.s 			page 2


  57      0080AFF3 
  57      0080
  58              		.align	2
  59              		.p2align 4,,15
  60              		.global	HASH_Init
  61              		.thumb
  62              		.thumb_func
  63              		.type	HASH_Init, %function
  64              	HASH_Init:
  65              	.LFB112:
  66              		.loc 1 198 0
  67              		.cfi_startproc
  68              		@ args = 0, pretend = 0, frame = 0
  69              		@ frame_needed = 0, uses_anonymous_args = 0
  70              		@ link register save eliminated.
  71              	.LVL2:
  72              		.loc 1 205 0
  73 0000 104B     		ldr	r3, .L7
  74 0002 1A68     		ldr	r2, [r3]
  75 0004 22F48022 		bic	r2, r2, #262144
  76 0008 22F0F002 		bic	r2, r2, #240
  77              		.loc 1 198 0
  78 000c 30B4     		push	{r4, r5}
  79              		.cfi_def_cfa_offset 8
  80              		.cfi_offset 4, -8
  81              		.cfi_offset 5, -4
  82              		.loc 1 205 0
  83 000e 1A60     		str	r2, [r3]
  84              		.loc 1 206 0
  85 0010 1D68     		ldr	r5, [r3]
  86 0012 0168     		ldr	r1, [r0]
  87 0014 8268     		ldr	r2, [r0, #8]
  88              		.loc 1 208 0
  89 0016 4468     		ldr	r4, [r0, #4]
  90 0018 2943     		orrs	r1, r1, r5
  91 001a 0A43     		orrs	r2, r2, r1
  92              		.loc 1 206 0
  93 001c 2243     		orrs	r2, r2, r4
  94              		.loc 1 211 0
  95 001e 402C     		cmp	r4, #64
  96              		.loc 1 206 0
  97 0020 1A60     		str	r2, [r3]
  98              		.loc 1 211 0
  99 0022 07D1     		bne	.L4
 100              		.loc 1 214 0
 101 0024 1A68     		ldr	r2, [r3]
 102 0026 22F48032 		bic	r2, r2, #65536
 103 002a 1A60     		str	r2, [r3]
 104              		.loc 1 215 0
 105 002c C268     		ldr	r2, [r0, #12]
 106 002e 1968     		ldr	r1, [r3]
 107 0030 0A43     		orrs	r2, r2, r1
 108 0032 1A60     		str	r2, [r3]
 109              	.L4:
 110              		.loc 1 220 0
 111 0034 034A     		ldr	r2, .L7
 112 0036 1368     		ldr	r3, [r2]
ARM GAS  /var/folders/7z/kps_xzfj7sn5l5gkyq8s9db00000gn/T//cc5x5WYY.s 			page 3


 113 0038 43F00403 		orr	r3, r3, #4
 114 003c 1360     		str	r3, [r2]
 115              		.loc 1 221 0
 116 003e 30BC     		pop	{r4, r5}
 117              		.cfi_restore 5
 118              		.cfi_restore 4
 119              		.cfi_def_cfa_offset 0
 120 0040 7047     		bx	lr
 121              	.L8:
 122 0042 00BF     		.align	2
 123              	.L7:
 124 0044 00040650 		.word	1342571520
 125              		.cfi_endproc
 126              	.LFE112:
 127              		.size	HASH_Init, .-HASH_Init
 128 0048 AFF30080 		.section	.text.HASH_StructInit,"ax",%progbits
 128      AFF30080 
 129              		.align	2
 130              		.p2align 4,,15
 131              		.global	HASH_StructInit
 132              		.thumb
 133              		.thumb_func
 134              		.type	HASH_StructInit, %function
 135              	HASH_StructInit:
 136              	.LFB113:
 137              		.loc 1 232 0
 138              		.cfi_startproc
 139              		@ args = 0, pretend = 0, frame = 0
 140              		@ frame_needed = 0, uses_anonymous_args = 0
 141              		@ link register save eliminated.
 142              	.LVL3:
 143              		.loc 1 234 0
 144 0000 0023     		movs	r3, #0
 145 0002 0360     		str	r3, [r0]
 146              		.loc 1 237 0
 147 0004 4360     		str	r3, [r0, #4]
 148              		.loc 1 240 0
 149 0006 8360     		str	r3, [r0, #8]
 150              		.loc 1 243 0
 151 0008 C360     		str	r3, [r0, #12]
 152 000a 7047     		bx	lr
 153              		.cfi_endproc
 154              	.LFE113:
 155              		.size	HASH_StructInit, .-HASH_StructInit
 156 000c AFF30080 		.section	.text.HASH_Reset,"ax",%progbits
 157              		.align	2
 158              		.p2align 4,,15
 159              		.global	HASH_Reset
 160              		.thumb
 161              		.thumb_func
 162              		.type	HASH_Reset, %function
 163              	HASH_Reset:
 164              	.LFB114:
 165              		.loc 1 256 0
 166              		.cfi_startproc
 167              		@ args = 0, pretend = 0, frame = 0
 168              		@ frame_needed = 0, uses_anonymous_args = 0
ARM GAS  /var/folders/7z/kps_xzfj7sn5l5gkyq8s9db00000gn/T//cc5x5WYY.s 			page 4


 169              		@ link register save eliminated.
 170              		.loc 1 258 0
 171 0000 024A     		ldr	r2, .L11
 172 0002 1368     		ldr	r3, [r2]
 173 0004 43F00403 		orr	r3, r3, #4
 174 0008 1360     		str	r3, [r2]
 175 000a 7047     		bx	lr
 176              	.L12:
 177              		.align	2
 178              	.L11:
 179 000c 00040650 		.word	1342571520
 180              		.cfi_endproc
 181              	.LFE114:
 182              		.size	HASH_Reset, .-HASH_Reset
 183              		.section	.text.HASH_SetLastWordValidBitsNbr,"ax",%progbits
 184              		.align	2
 185              		.p2align 4,,15
 186              		.global	HASH_SetLastWordValidBitsNbr
 187              		.thumb
 188              		.thumb_func
 189              		.type	HASH_SetLastWordValidBitsNbr, %function
 190              	HASH_SetLastWordValidBitsNbr:
 191              	.LFB115:
 192              		.loc 1 298 0
 193              		.cfi_startproc
 194              		@ args = 0, pretend = 0, frame = 0
 195              		@ frame_needed = 0, uses_anonymous_args = 0
 196              		@ link register save eliminated.
 197              	.LVL4:
 198              		.loc 1 303 0
 199 0000 044B     		ldr	r3, .L14
 200 0002 9A68     		ldr	r2, [r3, #8]
 201 0004 22F01F02 		bic	r2, r2, #31
 202 0008 9A60     		str	r2, [r3, #8]
 203              		.loc 1 304 0
 204 000a 9A68     		ldr	r2, [r3, #8]
 205 000c 1043     		orrs	r0, r0, r2
 206              	.LVL5:
 207 000e 9860     		str	r0, [r3, #8]
 208 0010 7047     		bx	lr
 209              	.L15:
 210 0012 00BF     		.align	2
 211              	.L14:
 212 0014 00040650 		.word	1342571520
 213              		.cfi_endproc
 214              	.LFE115:
 215              		.size	HASH_SetLastWordValidBitsNbr, .-HASH_SetLastWordValidBitsNbr
 216 0018 AFF30080 		.section	.text.HASH_DataIn,"ax",%progbits
 216      AFF30080 
 217              		.align	2
 218              		.p2align 4,,15
 219              		.global	HASH_DataIn
 220              		.thumb
 221              		.thumb_func
 222              		.type	HASH_DataIn, %function
 223              	HASH_DataIn:
 224              	.LFB116:
ARM GAS  /var/folders/7z/kps_xzfj7sn5l5gkyq8s9db00000gn/T//cc5x5WYY.s 			page 5


 225              		.loc 1 313 0
 226              		.cfi_startproc
 227              		@ args = 0, pretend = 0, frame = 0
 228              		@ frame_needed = 0, uses_anonymous_args = 0
 229              		@ link register save eliminated.
 230              	.LVL6:
 231              		.loc 1 315 0
 232 0000 014B     		ldr	r3, .L17
 233 0002 5860     		str	r0, [r3, #4]
 234 0004 7047     		bx	lr
 235              	.L18:
 236 0006 00BF     		.align	2
 237              	.L17:
 238 0008 00040650 		.word	1342571520
 239              		.cfi_endproc
 240              	.LFE116:
 241              		.size	HASH_DataIn, .-HASH_DataIn
 242 000c AFF30080 		.section	.text.HASH_GetInFIFOWordsNbr,"ax",%progbits
 243              		.align	2
 244              		.p2align 4,,15
 245              		.global	HASH_GetInFIFOWordsNbr
 246              		.thumb
 247              		.thumb_func
 248              		.type	HASH_GetInFIFOWordsNbr, %function
 249              	HASH_GetInFIFOWordsNbr:
 250              	.LFB117:
 251              		.loc 1 324 0
 252              		.cfi_startproc
 253              		@ args = 0, pretend = 0, frame = 0
 254              		@ frame_needed = 0, uses_anonymous_args = 0
 255              		@ link register save eliminated.
 256              		.loc 1 326 0
 257 0000 024B     		ldr	r3, .L20
 258 0002 1868     		ldr	r0, [r3]
 259              		.loc 1 327 0
 260 0004 C0F30320 		ubfx	r0, r0, #8, #4
 261 0008 7047     		bx	lr
 262              	.L21:
 263 000a 00BF     		.align	2
 264              	.L20:
 265 000c 00040650 		.word	1342571520
 266              		.cfi_endproc
 267              	.LFE117:
 268              		.size	HASH_GetInFIFOWordsNbr, .-HASH_GetInFIFOWordsNbr
 269              		.section	.text.HASH_GetDigest,"ax",%progbits
 270              		.align	2
 271              		.p2align 4,,15
 272              		.global	HASH_GetDigest
 273              		.thumb
 274              		.thumb_func
 275              		.type	HASH_GetDigest, %function
 276              	HASH_GetDigest:
 277              	.LFB118:
 278              		.loc 1 338 0
 279              		.cfi_startproc
 280              		@ args = 0, pretend = 0, frame = 0
 281              		@ frame_needed = 0, uses_anonymous_args = 0
ARM GAS  /var/folders/7z/kps_xzfj7sn5l5gkyq8s9db00000gn/T//cc5x5WYY.s 			page 6


 282              		@ link register save eliminated.
 283              	.LVL7:
 284              		.loc 1 340 0
 285 0000 054B     		ldr	r3, .L23
 286 0002 DA68     		ldr	r2, [r3, #12]
 287 0004 0260     		str	r2, [r0]
 288              		.loc 1 341 0
 289 0006 1A69     		ldr	r2, [r3, #16]
 290 0008 4260     		str	r2, [r0, #4]
 291              		.loc 1 342 0
 292 000a 5A69     		ldr	r2, [r3, #20]
 293 000c 8260     		str	r2, [r0, #8]
 294              		.loc 1 343 0
 295 000e 9A69     		ldr	r2, [r3, #24]
 296 0010 C260     		str	r2, [r0, #12]
 297              		.loc 1 344 0
 298 0012 DB69     		ldr	r3, [r3, #28]
 299 0014 0361     		str	r3, [r0, #16]
 300 0016 7047     		bx	lr
 301              	.L24:
 302              		.align	2
 303              	.L23:
 304 0018 00040650 		.word	1342571520
 305              		.cfi_endproc
 306              	.LFE118:
 307              		.size	HASH_GetDigest, .-HASH_GetDigest
 308 001c AFF30080 		.section	.text.HASH_StartDigest,"ax",%progbits
 309              		.align	2
 310              		.p2align 4,,15
 311              		.global	HASH_StartDigest
 312              		.thumb
 313              		.thumb_func
 314              		.type	HASH_StartDigest, %function
 315              	HASH_StartDigest:
 316              	.LFB119:
 317              		.loc 1 353 0
 318              		.cfi_startproc
 319              		@ args = 0, pretend = 0, frame = 0
 320              		@ frame_needed = 0, uses_anonymous_args = 0
 321              		@ link register save eliminated.
 322              		.loc 1 355 0
 323 0000 024A     		ldr	r2, .L26
 324 0002 9368     		ldr	r3, [r2, #8]
 325 0004 43F48073 		orr	r3, r3, #256
 326 0008 9360     		str	r3, [r2, #8]
 327 000a 7047     		bx	lr
 328              	.L27:
 329              		.align	2
 330              	.L26:
 331 000c 00040650 		.word	1342571520
 332              		.cfi_endproc
 333              	.LFE119:
 334              		.size	HASH_StartDigest, .-HASH_StartDigest
 335              		.section	.text.HASH_SaveContext,"ax",%progbits
 336              		.align	2
 337              		.p2align 4,,15
 338              		.global	HASH_SaveContext
ARM GAS  /var/folders/7z/kps_xzfj7sn5l5gkyq8s9db00000gn/T//cc5x5WYY.s 			page 7


 339              		.thumb
 340              		.thumb_func
 341              		.type	HASH_SaveContext, %function
 342              	HASH_SaveContext:
 343              	.LFB120:
 344              		.loc 1 396 0
 345              		.cfi_startproc
 346              		@ args = 0, pretend = 0, frame = 0
 347              		@ frame_needed = 0, uses_anonymous_args = 0
 348              		@ link register save eliminated.
 349              	.LVL8:
 350              		.loc 1 400 0
 351 0000 0949     		ldr	r1, .L31
 352 0002 0B6A     		ldr	r3, [r1, #32]
 353 0004 0360     		str	r3, [r0]
 354              		.loc 1 401 0
 355 0006 8B68     		ldr	r3, [r1, #8]
 356 0008 4360     		str	r3, [r0, #4]
 357              		.loc 1 402 0
 358 000a 0B68     		ldr	r3, [r1]
 359 000c 40F8083F 		str	r3, [r0, #8]!
 360              	.LVL9:
 361 0010 0023     		movs	r3, #0
 362              	.LVL10:
 363              	.L29:
 364              		.loc 1 405 0 discriminator 3
 365 0012 03F13E02 		add	r2, r3, #62
 366 0016 0133     		adds	r3, r3, #1
 367              	.LVL11:
 368 0018 51F82220 		ldr	r2, [r1, r2, lsl #2]
 369 001c 40F8042F 		str	r2, [r0, #4]!
 370              		.loc 1 403 0 discriminator 3
 371 0020 332B     		cmp	r3, #51
 372 0022 F6D1     		bne	.L29
 373              		.loc 1 407 0
 374 0024 7047     		bx	lr
 375              	.L32:
 376 0026 00BF     		.align	2
 377              	.L31:
 378 0028 00040650 		.word	1342571520
 379              		.cfi_endproc
 380              	.LFE120:
 381              		.size	HASH_SaveContext, .-HASH_SaveContext
 382 002c AFF30080 		.section	.text.HASH_RestoreContext,"ax",%progbits
 383              		.align	2
 384              		.p2align 4,,15
 385              		.global	HASH_RestoreContext
 386              		.thumb
 387              		.thumb_func
 388              		.type	HASH_RestoreContext, %function
 389              	HASH_RestoreContext:
 390              	.LFB121:
 391              		.loc 1 418 0
 392              		.cfi_startproc
 393              		@ args = 0, pretend = 0, frame = 0
 394              		@ frame_needed = 0, uses_anonymous_args = 0
 395              		@ link register save eliminated.
ARM GAS  /var/folders/7z/kps_xzfj7sn5l5gkyq8s9db00000gn/T//cc5x5WYY.s 			page 8


 396              	.LVL12:
 397              		.loc 1 422 0
 398 0000 0D4B     		ldr	r3, .L37
 399 0002 0268     		ldr	r2, [r0]
 400              		.loc 1 418 0
 401 0004 10B4     		push	{r4}
 402              		.cfi_def_cfa_offset 4
 403              		.cfi_offset 4, -4
 404              		.loc 1 422 0
 405 0006 1A62     		str	r2, [r3, #32]
 406              		.loc 1 423 0
 407 0008 4268     		ldr	r2, [r0, #4]
 408 000a 9A60     		str	r2, [r3, #8]
 409              		.loc 1 424 0
 410 000c 50F8082F 		ldr	r2, [r0, #8]!
 411              	.LVL13:
 412 0010 1A60     		str	r2, [r3]
 413              		.loc 1 427 0
 414 0012 1A68     		ldr	r2, [r3]
 415 0014 42F00402 		orr	r2, r2, #4
 416              		.loc 1 432 0
 417 0018 1C46     		mov	r4, r3
 418              		.loc 1 427 0
 419 001a 1A60     		str	r2, [r3]
 420 001c 0023     		movs	r3, #0
 421              	.LVL14:
 422              	.L34:
 423              		.loc 1 432 0 discriminator 3
 424 001e 03F13E02 		add	r2, r3, #62
 425 0022 0133     		adds	r3, r3, #1
 426              	.LVL15:
 427 0024 50F8041F 		ldr	r1, [r0, #4]!
 428 0028 44F82210 		str	r1, [r4, r2, lsl #2]
 429              		.loc 1 430 0 discriminator 3
 430 002c 332B     		cmp	r3, #51
 431 002e F6D1     		bne	.L34
 432              		.loc 1 434 0
 433 0030 5DF8044B 		ldr	r4, [sp], #4
 434              		.cfi_restore 4
 435              		.cfi_def_cfa_offset 0
 436 0034 7047     		bx	lr
 437              	.L38:
 438 0036 00BF     		.align	2
 439              	.L37:
 440 0038 00040650 		.word	1342571520
 441              		.cfi_endproc
 442              	.LFE121:
 443              		.size	HASH_RestoreContext, .-HASH_RestoreContext
 444 003c AFF30080 		.section	.text.HASH_DMACmd,"ax",%progbits
 445              		.align	2
 446              		.p2align 4,,15
 447              		.global	HASH_DMACmd
 448              		.thumb
 449              		.thumb_func
 450              		.type	HASH_DMACmd, %function
 451              	HASH_DMACmd:
 452              	.LFB122:
ARM GAS  /var/folders/7z/kps_xzfj7sn5l5gkyq8s9db00000gn/T//cc5x5WYY.s 			page 9


 453              		.loc 1 467 0
 454              		.cfi_startproc
 455              		@ args = 0, pretend = 0, frame = 0
 456              		@ frame_needed = 0, uses_anonymous_args = 0
 457              		@ link register save eliminated.
 458              	.LVL16:
 459              		.loc 1 474 0
 460 0000 054A     		ldr	r2, .L43
 461 0002 1368     		ldr	r3, [r2]
 462              		.loc 1 471 0
 463 0004 18B9     		cbnz	r0, .L42
 464              		.loc 1 479 0
 465 0006 23F00803 		bic	r3, r3, #8
 466 000a 1360     		str	r3, [r2]
 467 000c 7047     		bx	lr
 468              	.L42:
 469              		.loc 1 474 0
 470 000e 43F00803 		orr	r3, r3, #8
 471 0012 1360     		str	r3, [r2]
 472 0014 7047     		bx	lr
 473              	.L44:
 474 0016 00BF     		.align	2
 475              	.L43:
 476 0018 00040650 		.word	1342571520
 477              		.cfi_endproc
 478              	.LFE122:
 479              		.size	HASH_DMACmd, .-HASH_DMACmd
 480 001c AFF30080 		.section	.text.HASH_ITConfig,"ax",%progbits
 481              		.align	2
 482              		.p2align 4,,15
 483              		.global	HASH_ITConfig
 484              		.thumb
 485              		.thumb_func
 486              		.type	HASH_ITConfig, %function
 487              	HASH_ITConfig:
 488              	.LFB123:
 489              		.loc 1 562 0
 490              		.cfi_startproc
 491              		@ args = 0, pretend = 0, frame = 0
 492              		@ frame_needed = 0, uses_anonymous_args = 0
 493              		@ link register save eliminated.
 494              	.LVL17:
 495              		.loc 1 570 0
 496 0000 054A     		ldr	r2, .L49
 497 0002 136A     		ldr	r3, [r2, #32]
 498              		.loc 1 567 0
 499 0004 29B9     		cbnz	r1, .L48
 500              		.loc 1 575 0
 501 0006 23EA0000 		bic	r0, r3, r0
 502              	.LVL18:
 503 000a 00F0FF00 		and	r0, r0, #255
 504 000e 1062     		str	r0, [r2, #32]
 505 0010 7047     		bx	lr
 506              	.LVL19:
 507              	.L48:
 508              		.loc 1 570 0
 509 0012 1843     		orrs	r0, r0, r3
ARM GAS  /var/folders/7z/kps_xzfj7sn5l5gkyq8s9db00000gn/T//cc5x5WYY.s 			page 10


 510              	.LVL20:
 511 0014 1062     		str	r0, [r2, #32]
 512 0016 7047     		bx	lr
 513              	.L50:
 514              		.align	2
 515              	.L49:
 516 0018 00040650 		.word	1342571520
 517              		.cfi_endproc
 518              	.LFE123:
 519              		.size	HASH_ITConfig, .-HASH_ITConfig
 520 001c AFF30080 		.section	.text.HASH_GetFlagStatus,"ax",%progbits
 521              		.align	2
 522              		.p2align 4,,15
 523              		.global	HASH_GetFlagStatus
 524              		.thumb
 525              		.thumb_func
 526              		.type	HASH_GetFlagStatus, %function
 527              	HASH_GetFlagStatus:
 528              	.LFB124:
 529              		.loc 1 591 0
 530              		.cfi_startproc
 531              		@ args = 0, pretend = 0, frame = 0
 532              		@ frame_needed = 0, uses_anonymous_args = 0
 533              		@ link register save eliminated.
 534              	.LVL21:
 535              		.loc 1 601 0
 536 0000 044B     		ldr	r3, .L54
 537              		.loc 1 599 0
 538 0002 C204     		lsls	r2, r0, #19
 539              		.loc 1 601 0
 540 0004 4CBF     		ite	mi
 541 0006 1B68     		ldrmi	r3, [r3]
 542              	.LVL22:
 543              		.loc 1 605 0
 544 0008 5B6A     		ldrpl	r3, [r3, #36]
 545              	.LVL23:
 546              		.loc 1 609 0
 547 000a 0342     		tst	r3, r0
 548              		.loc 1 622 0
 549 000c 14BF     		ite	ne
 550 000e 0120     		movne	r0, #1
 551              	.LVL24:
 552 0010 0020     		moveq	r0, #0
 553 0012 7047     		bx	lr
 554              	.L55:
 555              		.align	2
 556              	.L54:
 557 0014 00040650 		.word	1342571520
 558              		.cfi_endproc
 559              	.LFE124:
 560              		.size	HASH_GetFlagStatus, .-HASH_GetFlagStatus
 561 0018 AFF30080 		.section	.text.HASH_ClearFlag,"ax",%progbits
 561      AFF30080 
 562              		.align	2
 563              		.p2align 4,,15
 564              		.global	HASH_ClearFlag
 565              		.thumb
ARM GAS  /var/folders/7z/kps_xzfj7sn5l5gkyq8s9db00000gn/T//cc5x5WYY.s 			page 11


 566              		.thumb_func
 567              		.type	HASH_ClearFlag, %function
 568              	HASH_ClearFlag:
 569              	.LFB125:
 570              		.loc 1 632 0
 571              		.cfi_startproc
 572              		@ args = 0, pretend = 0, frame = 0
 573              		@ frame_needed = 0, uses_anonymous_args = 0
 574              		@ link register save eliminated.
 575              	.LVL25:
 576              		.loc 1 637 0
 577 0000 014B     		ldr	r3, .L57
 578 0002 C043     		mvns	r0, r0
 579              	.LVL26:
 580 0004 5862     		str	r0, [r3, #36]
 581 0006 7047     		bx	lr
 582              	.L58:
 583              		.align	2
 584              	.L57:
 585 0008 00040650 		.word	1342571520
 586              		.cfi_endproc
 587              	.LFE125:
 588              		.size	HASH_ClearFlag, .-HASH_ClearFlag
 589 000c AFF30080 		.section	.text.HASH_GetITStatus,"ax",%progbits
 590              		.align	2
 591              		.p2align 4,,15
 592              		.global	HASH_GetITStatus
 593              		.thumb
 594              		.thumb_func
 595              		.type	HASH_GetITStatus, %function
 596              	HASH_GetITStatus:
 597              	.LFB126:
 598              		.loc 1 648 0
 599              		.cfi_startproc
 600              		@ args = 0, pretend = 0, frame = 0
 601              		@ frame_needed = 0, uses_anonymous_args = 0
 602              		@ link register save eliminated.
 603              	.LVL27:
 604              		.loc 1 657 0
 605 0000 044A     		ldr	r2, .L60
 606 0002 536A     		ldr	r3, [r2, #36]
 607              	.LVL28:
 608              		.loc 1 659 0
 609 0004 126A     		ldr	r2, [r2, #32]
 610              	.LVL29:
 611 0006 1340     		ands	r3, r3, r2
 612              	.LVL30:
 613 0008 0342     		tst	r3, r0
 614              		.loc 1 671 0
 615 000a 14BF     		ite	ne
 616 000c 0120     		movne	r0, #1
 617              	.LVL31:
 618 000e 0020     		moveq	r0, #0
 619 0010 7047     		bx	lr
 620              	.L61:
 621 0012 00BF     		.align	2
 622              	.L60:
ARM GAS  /var/folders/7z/kps_xzfj7sn5l5gkyq8s9db00000gn/T//cc5x5WYY.s 			page 12


 623 0014 00040650 		.word	1342571520
 624              		.cfi_endproc
 625              	.LFE126:
 626              		.size	HASH_GetITStatus, .-HASH_GetITStatus
 627 0018 AFF30080 		.section	.text.HASH_ClearITPendingBit,"ax",%progbits
 627      AFF30080 
 628              		.align	2
 629              		.p2align 4,,15
 630              		.global	HASH_ClearITPendingBit
 631              		.thumb
 632              		.thumb_func
 633              		.type	HASH_ClearITPendingBit, %function
 634              	HASH_ClearITPendingBit:
 635              	.LFB127:
 636              		.loc 1 682 0
 637              		.cfi_startproc
 638              		@ args = 0, pretend = 0, frame = 0
 639              		@ frame_needed = 0, uses_anonymous_args = 0
 640              		@ link register save eliminated.
 641              	.LVL32:
 642              		.loc 1 687 0
 643 0000 C043     		mvns	r0, r0
 644              	.LVL33:
 645 0002 024B     		ldr	r3, .L63
 646 0004 C0B2     		uxtb	r0, r0
 647 0006 5862     		str	r0, [r3, #36]
 648 0008 7047     		bx	lr
 649              	.L64:
 650 000a 00BF     		.align	2
 651              	.L63:
 652 000c 00040650 		.word	1342571520
 653              		.cfi_endproc
 654              	.LFE127:
 655              		.size	HASH_ClearITPendingBit, .-HASH_ClearITPendingBit
 656              		.text
 657              	.Letext0:
 658              		.file 2 "/Users/Baram/gcc-arm-none-eabi/arm-none-eabi/include/machine/_default_types.h"
 659              		.file 3 "/Users/Baram/gcc-arm-none-eabi/arm-none-eabi/include/stdint.h"
 660              		.file 4 "lib/ChibiOS_2.6.6/os/hal/platforms/STM32F4xx/stm32f4xx.h"
 661              		.file 5 "lib/ChibiOS_2.6.6/ext/stdperiph_stm32f4/inc/stm32f4xx_hash.h"
 662              		.file 6 "lib/ChibiOS_2.6.6/os/ports/common/ARMCMx/CMSIS/include/core_cm4.h"
 663              		.file 7 "lib/ChibiOS_2.6.6/ext/stdperiph_stm32f4/inc/stm32f4xx_rcc.h"
 664              		.section	.debug_info,"",%progbits
 665              	.Ldebug_info0:
 666 0000 9C050000 		.4byte	0x59c
 667 0004 0400     		.2byte	0x4
 668 0006 00000000 		.4byte	.Ldebug_abbrev0
 669 000a 04       		.byte	0x4
 670 000b 01       		.uleb128 0x1
 671 000c 00000000 		.4byte	.LASF65
 672 0010 01       		.byte	0x1
 673 0011 3F020000 		.4byte	.LASF66
 674 0015 0F040000 		.4byte	.LASF67
 675 0019 00000000 		.4byte	.Ldebug_ranges0+0
 676 001d 00000000 		.4byte	0
 677 0021 00000000 		.4byte	.Ldebug_line0
 678 0025 02       		.uleb128 0x2
ARM GAS  /var/folders/7z/kps_xzfj7sn5l5gkyq8s9db00000gn/T//cc5x5WYY.s 			page 13


 679 0026 01       		.byte	0x1
 680 0027 06       		.byte	0x6
 681 0028 C6020000 		.4byte	.LASF0
 682 002c 03       		.uleb128 0x3
 683 002d 7C020000 		.4byte	.LASF3
 684 0031 02       		.byte	0x2
 685 0032 1D       		.byte	0x1d
 686 0033 37000000 		.4byte	0x37
 687 0037 02       		.uleb128 0x2
 688 0038 01       		.byte	0x1
 689 0039 08       		.byte	0x8
 690 003a A9020000 		.4byte	.LASF1
 691 003e 02       		.uleb128 0x2
 692 003f 02       		.byte	0x2
 693 0040 05       		.byte	0x5
 694 0041 D7010000 		.4byte	.LASF2
 695 0045 03       		.uleb128 0x3
 696 0046 7A010000 		.4byte	.LASF4
 697 004a 02       		.byte	0x2
 698 004b 2B       		.byte	0x2b
 699 004c 50000000 		.4byte	0x50
 700 0050 02       		.uleb128 0x2
 701 0051 02       		.byte	0x2
 702 0052 07       		.byte	0x7
 703 0053 4E030000 		.4byte	.LASF5
 704 0057 03       		.uleb128 0x3
 705 0058 37040000 		.4byte	.LASF6
 706 005c 02       		.byte	0x2
 707 005d 3F       		.byte	0x3f
 708 005e 62000000 		.4byte	0x62
 709 0062 02       		.uleb128 0x2
 710 0063 04       		.byte	0x4
 711 0064 05       		.byte	0x5
 712 0065 19020000 		.4byte	.LASF7
 713 0069 03       		.uleb128 0x3
 714 006a 6F010000 		.4byte	.LASF8
 715 006e 02       		.byte	0x2
 716 006f 41       		.byte	0x41
 717 0070 74000000 		.4byte	0x74
 718 0074 02       		.uleb128 0x2
 719 0075 04       		.byte	0x4
 720 0076 07       		.byte	0x7
 721 0077 D8030000 		.4byte	.LASF9
 722 007b 02       		.uleb128 0x2
 723 007c 08       		.byte	0x8
 724 007d 05       		.byte	0x5
 725 007e F2010000 		.4byte	.LASF10
 726 0082 02       		.uleb128 0x2
 727 0083 08       		.byte	0x8
 728 0084 07       		.byte	0x7
 729 0085 E5020000 		.4byte	.LASF11
 730 0089 04       		.uleb128 0x4
 731 008a 04       		.byte	0x4
 732 008b 05       		.byte	0x5
 733 008c 696E7400 		.ascii	"int\000"
 734 0090 02       		.uleb128 0x2
 735 0091 04       		.byte	0x4
ARM GAS  /var/folders/7z/kps_xzfj7sn5l5gkyq8s9db00000gn/T//cc5x5WYY.s 			page 14


 736 0092 07       		.byte	0x7
 737 0093 05030000 		.4byte	.LASF12
 738 0097 03       		.uleb128 0x3
 739 0098 B1010000 		.4byte	.LASF13
 740 009c 03       		.byte	0x3
 741 009d 15       		.byte	0x15
 742 009e 2C000000 		.4byte	0x2c
 743 00a2 03       		.uleb128 0x3
 744 00a3 12030000 		.4byte	.LASF14
 745 00a7 03       		.byte	0x3
 746 00a8 21       		.byte	0x21
 747 00a9 45000000 		.4byte	0x45
 748 00ad 03       		.uleb128 0x3
 749 00ae 72030000 		.4byte	.LASF15
 750 00b2 03       		.byte	0x3
 751 00b3 2C       		.byte	0x2c
 752 00b4 57000000 		.4byte	0x57
 753 00b8 03       		.uleb128 0x3
 754 00b9 FC020000 		.4byte	.LASF16
 755 00bd 03       		.byte	0x3
 756 00be 2D       		.byte	0x2d
 757 00bf 69000000 		.4byte	0x69
 758 00c3 02       		.uleb128 0x2
 759 00c4 04       		.byte	0x4
 760 00c5 07       		.byte	0x7
 761 00c6 52010000 		.4byte	.LASF17
 762 00ca 05       		.uleb128 0x5
 763 00cb B8000000 		.4byte	0xb8
 764 00cf 06       		.uleb128 0x6
 765 00d0 B8000000 		.4byte	0xb8
 766 00d4 DF000000 		.4byte	0xdf
 767 00d8 07       		.uleb128 0x7
 768 00d9 C3000000 		.4byte	0xc3
 769 00dd 04       		.byte	0x4
 770 00de 00       		.byte	0
 771 00df 05       		.uleb128 0x5
 772 00e0 AD000000 		.4byte	0xad
 773 00e4 08       		.uleb128 0x8
 774 00e5 01       		.byte	0x1
 775 00e6 04       		.byte	0x4
 776 00e7 F701     		.2byte	0x1f7
 777 00e9 FA000000 		.4byte	0xfa
 778 00ed 09       		.uleb128 0x9
 779 00ee 41040000 		.4byte	.LASF18
 780 00f2 00       		.sleb128 0
 781 00f3 0A       		.uleb128 0xa
 782 00f4 53455400 		.ascii	"SET\000"
 783 00f8 01       		.sleb128 1
 784 00f9 00       		.byte	0
 785 00fa 0B       		.uleb128 0xb
 786 00fb D6040000 		.4byte	.LASF19
 787 00ff 04       		.byte	0x4
 788 0100 F701     		.2byte	0x1f7
 789 0102 E4000000 		.4byte	0xe4
 790 0106 0B       		.uleb128 0xb
 791 0107 10020000 		.4byte	.LASF20
 792 010b 04       		.byte	0x4
ARM GAS  /var/folders/7z/kps_xzfj7sn5l5gkyq8s9db00000gn/T//cc5x5WYY.s 			page 15


 793 010c F701     		.2byte	0x1f7
 794 010e E4000000 		.4byte	0xe4
 795 0112 08       		.uleb128 0x8
 796 0113 01       		.byte	0x1
 797 0114 04       		.byte	0x4
 798 0115 F901     		.2byte	0x1f9
 799 0117 28010000 		.4byte	0x128
 800 011b 09       		.uleb128 0x9
 801 011c CF010000 		.4byte	.LASF21
 802 0120 00       		.sleb128 0
 803 0121 09       		.uleb128 0x9
 804 0122 E1040000 		.4byte	.LASF22
 805 0126 01       		.sleb128 1
 806 0127 00       		.byte	0
 807 0128 0B       		.uleb128 0xb
 808 0129 00020000 		.4byte	.LASF23
 809 012d 04       		.byte	0x4
 810 012e F901     		.2byte	0x1f9
 811 0130 12010000 		.4byte	0x112
 812 0134 0C       		.uleb128 0xc
 813 0135 D001     		.2byte	0x1d0
 814 0137 04       		.byte	0x4
 815 0138 7605     		.2byte	0x576
 816 013a A4010000 		.4byte	0x1a4
 817 013e 0D       		.uleb128 0xd
 818 013f 435200   		.ascii	"CR\000"
 819 0142 04       		.byte	0x4
 820 0143 7805     		.2byte	0x578
 821 0145 CA000000 		.4byte	0xca
 822 0149 00       		.byte	0
 823 014a 0D       		.uleb128 0xd
 824 014b 44494E00 		.ascii	"DIN\000"
 825 014f 04       		.byte	0x4
 826 0150 7905     		.2byte	0x579
 827 0152 CA000000 		.4byte	0xca
 828 0156 04       		.byte	0x4
 829 0157 0D       		.uleb128 0xd
 830 0158 53545200 		.ascii	"STR\000"
 831 015c 04       		.byte	0x4
 832 015d 7A05     		.2byte	0x57a
 833 015f CA000000 		.4byte	0xca
 834 0163 08       		.byte	0x8
 835 0164 0D       		.uleb128 0xd
 836 0165 485200   		.ascii	"HR\000"
 837 0168 04       		.byte	0x4
 838 0169 7B05     		.2byte	0x57b
 839 016b A4010000 		.4byte	0x1a4
 840 016f 0C       		.byte	0xc
 841 0170 0D       		.uleb128 0xd
 842 0171 494D5200 		.ascii	"IMR\000"
 843 0175 04       		.byte	0x4
 844 0176 7C05     		.2byte	0x57c
 845 0178 CA000000 		.4byte	0xca
 846 017c 20       		.byte	0x20
 847 017d 0D       		.uleb128 0xd
 848 017e 535200   		.ascii	"SR\000"
 849 0181 04       		.byte	0x4
ARM GAS  /var/folders/7z/kps_xzfj7sn5l5gkyq8s9db00000gn/T//cc5x5WYY.s 			page 16


 850 0182 7D05     		.2byte	0x57d
 851 0184 CA000000 		.4byte	0xca
 852 0188 24       		.byte	0x24
 853 0189 0E       		.uleb128 0xe
 854 018a 8D040000 		.4byte	.LASF24
 855 018e 04       		.byte	0x4
 856 018f 7E05     		.2byte	0x57e
 857 0191 A9010000 		.4byte	0x1a9
 858 0195 28       		.byte	0x28
 859 0196 0D       		.uleb128 0xd
 860 0197 43535200 		.ascii	"CSR\000"
 861 019b 04       		.byte	0x4
 862 019c 7F05     		.2byte	0x57f
 863 019e C9010000 		.4byte	0x1c9
 864 01a2 F8       		.byte	0xf8
 865 01a3 00       		.byte	0
 866 01a4 05       		.uleb128 0x5
 867 01a5 CF000000 		.4byte	0xcf
 868 01a9 06       		.uleb128 0x6
 869 01aa B8000000 		.4byte	0xb8
 870 01ae B9010000 		.4byte	0x1b9
 871 01b2 07       		.uleb128 0x7
 872 01b3 C3000000 		.4byte	0xc3
 873 01b7 33       		.byte	0x33
 874 01b8 00       		.byte	0
 875 01b9 06       		.uleb128 0x6
 876 01ba B8000000 		.4byte	0xb8
 877 01be C9010000 		.4byte	0x1c9
 878 01c2 07       		.uleb128 0x7
 879 01c3 C3000000 		.4byte	0xc3
 880 01c7 35       		.byte	0x35
 881 01c8 00       		.byte	0
 882 01c9 05       		.uleb128 0x5
 883 01ca B9010000 		.4byte	0x1b9
 884 01ce 0B       		.uleb128 0xb
 885 01cf B9010000 		.4byte	.LASF25
 886 01d3 04       		.byte	0x4
 887 01d4 8005     		.2byte	0x580
 888 01d6 34010000 		.4byte	0x134
 889 01da 0F       		.uleb128 0xf
 890 01db 10       		.byte	0x10
 891 01dc 05       		.byte	0x5
 892 01dd 35       		.byte	0x35
 893 01de 13020000 		.4byte	0x213
 894 01e2 10       		.uleb128 0x10
 895 01e3 D2020000 		.4byte	.LASF26
 896 01e7 05       		.byte	0x5
 897 01e8 37       		.byte	0x37
 898 01e9 B8000000 		.4byte	0xb8
 899 01ed 00       		.byte	0
 900 01ee 10       		.uleb128 0x10
 901 01ef EA030000 		.4byte	.LASF27
 902 01f3 05       		.byte	0x5
 903 01f4 39       		.byte	0x39
 904 01f5 B8000000 		.4byte	0xb8
 905 01f9 04       		.byte	0x4
 906 01fa 10       		.uleb128 0x10
ARM GAS  /var/folders/7z/kps_xzfj7sn5l5gkyq8s9db00000gn/T//cc5x5WYY.s 			page 17


 907 01fb 24010000 		.4byte	.LASF28
 908 01ff 05       		.byte	0x5
 909 0200 3B       		.byte	0x3b
 910 0201 B8000000 		.4byte	0xb8
 911 0205 08       		.byte	0x8
 912 0206 10       		.uleb128 0x10
 913 0207 22020000 		.4byte	.LASF29
 914 020b 05       		.byte	0x5
 915 020c 3E       		.byte	0x3e
 916 020d B8000000 		.4byte	0xb8
 917 0211 0C       		.byte	0xc
 918 0212 00       		.byte	0
 919 0213 03       		.uleb128 0x3
 920 0214 E8040000 		.4byte	.LASF30
 921 0218 05       		.byte	0x5
 922 0219 40       		.byte	0x40
 923 021a DA010000 		.4byte	0x1da
 924 021e 0F       		.uleb128 0xf
 925 021f 14       		.byte	0x14
 926 0220 05       		.byte	0x5
 927 0221 45       		.byte	0x45
 928 0222 33020000 		.4byte	0x233
 929 0226 10       		.uleb128 0x10
 930 0227 49030000 		.4byte	.LASF31
 931 022b 05       		.byte	0x5
 932 022c 47       		.byte	0x47
 933 022d CF000000 		.4byte	0xcf
 934 0231 00       		.byte	0
 935 0232 00       		.byte	0
 936 0233 03       		.uleb128 0x3
 937 0234 B7020000 		.4byte	.LASF32
 938 0238 05       		.byte	0x5
 939 0239 49       		.byte	0x49
 940 023a 1E020000 		.4byte	0x21e
 941 023e 0F       		.uleb128 0xf
 942 023f D8       		.byte	0xd8
 943 0240 05       		.byte	0x5
 944 0241 4E       		.byte	0x4e
 945 0242 77020000 		.4byte	0x277
 946 0246 10       		.uleb128 0x10
 947 0247 A6040000 		.4byte	.LASF33
 948 024b 05       		.byte	0x5
 949 024c 50       		.byte	0x50
 950 024d B8000000 		.4byte	0xb8
 951 0251 00       		.byte	0
 952 0252 10       		.uleb128 0x10
 953 0253 69030000 		.4byte	.LASF34
 954 0257 05       		.byte	0x5
 955 0258 51       		.byte	0x51
 956 0259 B8000000 		.4byte	0xb8
 957 025d 04       		.byte	0x4
 958 025e 10       		.uleb128 0x10
 959 025f 61030000 		.4byte	.LASF35
 960 0263 05       		.byte	0x5
 961 0264 52       		.byte	0x52
 962 0265 B8000000 		.4byte	0xb8
 963 0269 08       		.byte	0x8
ARM GAS  /var/folders/7z/kps_xzfj7sn5l5gkyq8s9db00000gn/T//cc5x5WYY.s 			page 18


 964 026a 10       		.uleb128 0x10
 965 026b 99010000 		.4byte	.LASF36
 966 026f 05       		.byte	0x5
 967 0270 53       		.byte	0x53
 968 0271 77020000 		.4byte	0x277
 969 0275 0C       		.byte	0xc
 970 0276 00       		.byte	0
 971 0277 06       		.uleb128 0x6
 972 0278 B8000000 		.4byte	0xb8
 973 027c 87020000 		.4byte	0x287
 974 0280 07       		.uleb128 0x7
 975 0281 C3000000 		.4byte	0xc3
 976 0285 32       		.byte	0x32
 977 0286 00       		.byte	0
 978 0287 03       		.uleb128 0x3
 979 0288 3C030000 		.4byte	.LASF37
 980 028c 05       		.byte	0x5
 981 028d 54       		.byte	0x54
 982 028e 3E020000 		.4byte	0x23e
 983 0292 11       		.uleb128 0x11
 984 0293 A4030000 		.4byte	.LASF38
 985 0297 01       		.byte	0x1
 986 0298 B1       		.byte	0xb1
 987 0299 00000000 		.4byte	.LFB111
 988 029d 16000000 		.4byte	.LFE111-.LFB111
 989 02a1 01       		.uleb128 0x1
 990 02a2 9C       		.byte	0x9c
 991 02a3 D6020000 		.4byte	0x2d6
 992 02a7 12       		.uleb128 0x12
 993 02a8 0A000000 		.4byte	.LVL0
 994 02ac 8C050000 		.4byte	0x58c
 995 02b0 C0020000 		.4byte	0x2c0
 996 02b4 13       		.uleb128 0x13
 997 02b5 01       		.uleb128 0x1
 998 02b6 51       		.byte	0x51
 999 02b7 01       		.uleb128 0x1
 1000 02b8 31       		.byte	0x31
 1001 02b9 13       		.uleb128 0x13
 1002 02ba 01       		.uleb128 0x1
 1003 02bb 50       		.byte	0x50
 1004 02bc 02       		.uleb128 0x2
 1005 02bd 08       		.byte	0x8
 1006 02be 20       		.byte	0x20
 1007 02bf 00       		.byte	0
 1008 02c0 14       		.uleb128 0x14
 1009 02c1 16000000 		.4byte	.LVL1
 1010 02c5 8C050000 		.4byte	0x58c
 1011 02c9 13       		.uleb128 0x13
 1012 02ca 01       		.uleb128 0x1
 1013 02cb 51       		.byte	0x51
 1014 02cc 01       		.uleb128 0x1
 1015 02cd 30       		.byte	0x30
 1016 02ce 13       		.uleb128 0x13
 1017 02cf 01       		.uleb128 0x1
 1018 02d0 50       		.byte	0x50
 1019 02d1 02       		.uleb128 0x2
 1020 02d2 08       		.byte	0x8
ARM GAS  /var/folders/7z/kps_xzfj7sn5l5gkyq8s9db00000gn/T//cc5x5WYY.s 			page 19


 1021 02d3 20       		.byte	0x20
 1022 02d4 00       		.byte	0
 1023 02d5 00       		.byte	0
 1024 02d6 11       		.uleb128 0x11
 1025 02d7 1B030000 		.4byte	.LASF39
 1026 02db 01       		.byte	0x1
 1027 02dc C5       		.byte	0xc5
 1028 02dd 00000000 		.4byte	.LFB112
 1029 02e1 48000000 		.4byte	.LFE112-.LFB112
 1030 02e5 01       		.uleb128 0x1
 1031 02e6 9C       		.byte	0x9c
 1032 02e7 F9020000 		.4byte	0x2f9
 1033 02eb 15       		.uleb128 0x15
 1034 02ec 96040000 		.4byte	.LASF41
 1035 02f0 01       		.byte	0x1
 1036 02f1 C5       		.byte	0xc5
 1037 02f2 F9020000 		.4byte	0x2f9
 1038 02f6 01       		.uleb128 0x1
 1039 02f7 50       		.byte	0x50
 1040 02f8 00       		.byte	0
 1041 02f9 16       		.uleb128 0x16
 1042 02fa 04       		.byte	0x4
 1043 02fb 13020000 		.4byte	0x213
 1044 02ff 11       		.uleb128 0x11
 1045 0300 C6040000 		.4byte	.LASF40
 1046 0304 01       		.byte	0x1
 1047 0305 E7       		.byte	0xe7
 1048 0306 00000000 		.4byte	.LFB113
 1049 030a 0C000000 		.4byte	.LFE113-.LFB113
 1050 030e 01       		.uleb128 0x1
 1051 030f 9C       		.byte	0x9c
 1052 0310 22030000 		.4byte	0x322
 1053 0314 15       		.uleb128 0x15
 1054 0315 96040000 		.4byte	.LASF41
 1055 0319 01       		.byte	0x1
 1056 031a E7       		.byte	0xe7
 1057 031b F9020000 		.4byte	0x2f9
 1058 031f 01       		.uleb128 0x1
 1059 0320 50       		.byte	0x50
 1060 0321 00       		.byte	0
 1061 0322 17       		.uleb128 0x17
 1062 0323 9E020000 		.4byte	.LASF47
 1063 0327 01       		.byte	0x1
 1064 0328 FF       		.byte	0xff
 1065 0329 00000000 		.4byte	.LFB114
 1066 032d 10000000 		.4byte	.LFE114-.LFB114
 1067 0331 01       		.uleb128 0x1
 1068 0332 9C       		.byte	0x9c
 1069 0333 18       		.uleb128 0x18
 1070 0334 53040000 		.4byte	.LASF42
 1071 0338 01       		.byte	0x1
 1072 0339 2901     		.2byte	0x129
 1073 033b 00000000 		.4byte	.LFB115
 1074 033f 18000000 		.4byte	.LFE115-.LFB115
 1075 0343 01       		.uleb128 0x1
 1076 0344 9C       		.byte	0x9c
 1077 0345 5A030000 		.4byte	0x35a
ARM GAS  /var/folders/7z/kps_xzfj7sn5l5gkyq8s9db00000gn/T//cc5x5WYY.s 			page 20


 1078 0349 19       		.uleb128 0x19
 1079 034a 47040000 		.4byte	.LASF43
 1080 034e 01       		.byte	0x1
 1081 034f 2901     		.2byte	0x129
 1082 0351 A2000000 		.4byte	0xa2
 1083 0355 00000000 		.4byte	.LLST0
 1084 0359 00       		.byte	0
 1085 035a 18       		.uleb128 0x18
 1086 035b 33020000 		.4byte	.LASF44
 1087 035f 01       		.byte	0x1
 1088 0360 3801     		.2byte	0x138
 1089 0362 00000000 		.4byte	.LFB116
 1090 0366 0C000000 		.4byte	.LFE116-.LFB116
 1091 036a 01       		.uleb128 0x1
 1092 036b 9C       		.byte	0x9c
 1093 036c 7F030000 		.4byte	0x37f
 1094 0370 1A       		.uleb128 0x1a
 1095 0371 49030000 		.4byte	.LASF31
 1096 0375 01       		.byte	0x1
 1097 0376 3801     		.2byte	0x138
 1098 0378 B8000000 		.4byte	0xb8
 1099 037c 01       		.uleb128 0x1
 1100 037d 50       		.byte	0x50
 1101 037e 00       		.byte	0
 1102 037f 1B       		.uleb128 0x1b
 1103 0380 25030000 		.4byte	.LASF68
 1104 0384 01       		.byte	0x1
 1105 0385 4301     		.2byte	0x143
 1106 0387 97000000 		.4byte	0x97
 1107 038b 00000000 		.4byte	.LFB117
 1108 038f 10000000 		.4byte	.LFE117-.LFB117
 1109 0393 01       		.uleb128 0x1
 1110 0394 9C       		.byte	0x9c
 1111 0395 18       		.uleb128 0x18
 1112 0396 A2010000 		.4byte	.LASF45
 1113 039a 01       		.byte	0x1
 1114 039b 5101     		.2byte	0x151
 1115 039d 00000000 		.4byte	.LFB118
 1116 03a1 1C000000 		.4byte	.LFE118-.LFB118
 1117 03a5 01       		.uleb128 0x1
 1118 03a6 9C       		.byte	0x9c
 1119 03a7 BA030000 		.4byte	0x3ba
 1120 03ab 1A       		.uleb128 0x1a
 1121 03ac 70040000 		.4byte	.LASF46
 1122 03b0 01       		.byte	0x1
 1123 03b1 5101     		.2byte	0x151
 1124 03b3 BA030000 		.4byte	0x3ba
 1125 03b7 01       		.uleb128 0x1
 1126 03b8 50       		.byte	0x50
 1127 03b9 00       		.byte	0
 1128 03ba 16       		.uleb128 0x16
 1129 03bb 04       		.byte	0x4
 1130 03bc 33020000 		.4byte	0x233
 1131 03c0 1C       		.uleb128 0x1c
 1132 03c1 B0030000 		.4byte	.LASF48
 1133 03c5 01       		.byte	0x1
 1134 03c6 6001     		.2byte	0x160
ARM GAS  /var/folders/7z/kps_xzfj7sn5l5gkyq8s9db00000gn/T//cc5x5WYY.s 			page 21


 1135 03c8 00000000 		.4byte	.LFB119
 1136 03cc 10000000 		.4byte	.LFE119-.LFB119
 1137 03d0 01       		.uleb128 0x1
 1138 03d1 9C       		.byte	0x9c
 1139 03d2 18       		.uleb128 0x18
 1140 03d3 8D020000 		.4byte	.LASF49
 1141 03d7 01       		.byte	0x1
 1142 03d8 8B01     		.2byte	0x18b
 1143 03da 00000000 		.4byte	.LFB120
 1144 03de 2C000000 		.4byte	.LFE120-.LFB120
 1145 03e2 01       		.uleb128 0x1
 1146 03e3 9C       		.byte	0x9c
 1147 03e4 07040000 		.4byte	0x407
 1148 03e8 19       		.uleb128 0x19
 1149 03e9 E1010000 		.4byte	.LASF50
 1150 03ed 01       		.byte	0x1
 1151 03ee 8B01     		.2byte	0x18b
 1152 03f0 07040000 		.4byte	0x407
 1153 03f4 21000000 		.4byte	.LLST1
 1154 03f8 1D       		.uleb128 0x1d
 1155 03f9 6900     		.ascii	"i\000"
 1156 03fb 01       		.byte	0x1
 1157 03fc 8D01     		.2byte	0x18d
 1158 03fe 97000000 		.4byte	0x97
 1159 0402 4F000000 		.4byte	.LLST2
 1160 0406 00       		.byte	0
 1161 0407 16       		.uleb128 0x16
 1162 0408 04       		.byte	0x4
 1163 0409 87020000 		.4byte	0x287
 1164 040d 18       		.uleb128 0x18
 1165 040e 5B010000 		.4byte	.LASF51
 1166 0412 01       		.byte	0x1
 1167 0413 A101     		.2byte	0x1a1
 1168 0415 00000000 		.4byte	.LFB121
 1169 0419 3C000000 		.4byte	.LFE121-.LFB121
 1170 041d 01       		.uleb128 0x1
 1171 041e 9C       		.byte	0x9c
 1172 041f 42040000 		.4byte	0x442
 1173 0423 19       		.uleb128 0x19
 1174 0424 90030000 		.4byte	.LASF52
 1175 0428 01       		.byte	0x1
 1176 0429 A101     		.2byte	0x1a1
 1177 042b 07040000 		.4byte	0x407
 1178 042f 6E000000 		.4byte	.LLST3
 1179 0433 1D       		.uleb128 0x1d
 1180 0434 6900     		.ascii	"i\000"
 1181 0436 01       		.byte	0x1
 1182 0437 A301     		.2byte	0x1a3
 1183 0439 97000000 		.4byte	0x97
 1184 043d 9C000000 		.4byte	.LLST4
 1185 0441 00       		.byte	0
 1186 0442 18       		.uleb128 0x18
 1187 0443 8D010000 		.4byte	.LASF53
 1188 0447 01       		.byte	0x1
 1189 0448 D201     		.2byte	0x1d2
 1190 044a 00000000 		.4byte	.LFB122
 1191 044e 1C000000 		.4byte	.LFE122-.LFB122
ARM GAS  /var/folders/7z/kps_xzfj7sn5l5gkyq8s9db00000gn/T//cc5x5WYY.s 			page 22


 1192 0452 01       		.uleb128 0x1
 1193 0453 9C       		.byte	0x9c
 1194 0454 67040000 		.4byte	0x467
 1195 0458 1A       		.uleb128 0x1a
 1196 0459 C6010000 		.4byte	.LASF54
 1197 045d 01       		.byte	0x1
 1198 045e D201     		.2byte	0x1d2
 1199 0460 28010000 		.4byte	0x128
 1200 0464 01       		.uleb128 0x1
 1201 0465 50       		.byte	0x50
 1202 0466 00       		.byte	0
 1203 0467 18       		.uleb128 0x18
 1204 0468 7A030000 		.4byte	.LASF55
 1205 046c 01       		.byte	0x1
 1206 046d 3102     		.2byte	0x231
 1207 046f 00000000 		.4byte	.LFB123
 1208 0473 1C000000 		.4byte	.LFE123-.LFB123
 1209 0477 01       		.uleb128 0x1
 1210 0478 9C       		.byte	0x9c
 1211 0479 9C040000 		.4byte	0x49c
 1212 047d 19       		.uleb128 0x19
 1213 047e 85010000 		.4byte	.LASF56
 1214 0482 01       		.byte	0x1
 1215 0483 3102     		.2byte	0x231
 1216 0485 97000000 		.4byte	0x97
 1217 0489 BB000000 		.4byte	.LLST5
 1218 048d 1A       		.uleb128 0x1a
 1219 048e C6010000 		.4byte	.LASF54
 1220 0492 01       		.byte	0x1
 1221 0493 3102     		.2byte	0x231
 1222 0495 28010000 		.4byte	0x128
 1223 0499 01       		.uleb128 0x1
 1224 049a 51       		.byte	0x51
 1225 049b 00       		.byte	0
 1226 049c 1E       		.uleb128 0x1e
 1227 049d F9040000 		.4byte	.LASF61
 1228 04a1 01       		.byte	0x1
 1229 04a2 4E02     		.2byte	0x24e
 1230 04a4 FA000000 		.4byte	0xfa
 1231 04a8 00000000 		.4byte	.LFB124
 1232 04ac 18000000 		.4byte	.LFE124-.LFB124
 1233 04b0 01       		.uleb128 0x1
 1234 04b1 9C       		.byte	0x9c
 1235 04b2 E7040000 		.4byte	0x4e7
 1236 04b6 19       		.uleb128 0x19
 1237 04b7 83040000 		.4byte	.LASF57
 1238 04bb 01       		.byte	0x1
 1239 04bc 4E02     		.2byte	0x24e
 1240 04be A2000000 		.4byte	0xa2
 1241 04c2 F5000000 		.4byte	.LLST6
 1242 04c6 1F       		.uleb128 0x1f
 1243 04c7 BC040000 		.4byte	.LASF58
 1244 04cb 01       		.byte	0x1
 1245 04cc 5002     		.2byte	0x250
 1246 04ce FA000000 		.4byte	0xfa
 1247 04d2 16010000 		.4byte	.LLST7
 1248 04d6 1F       		.uleb128 0x1f
ARM GAS  /var/folders/7z/kps_xzfj7sn5l5gkyq8s9db00000gn/T//cc5x5WYY.s 			page 23


 1249 04d7 88030000 		.4byte	.LASF59
 1250 04db 01       		.byte	0x1
 1251 04dc 5102     		.2byte	0x251
 1252 04de B8000000 		.4byte	0xb8
 1253 04e2 57010000 		.4byte	.LLST8
 1254 04e6 00       		.byte	0
 1255 04e7 18       		.uleb128 0x18
 1256 04e8 43010000 		.4byte	.LASF60
 1257 04ec 01       		.byte	0x1
 1258 04ed 7702     		.2byte	0x277
 1259 04ef 00000000 		.4byte	.LFB125
 1260 04f3 0C000000 		.4byte	.LFE125-.LFB125
 1261 04f7 01       		.uleb128 0x1
 1262 04f8 9C       		.byte	0x9c
 1263 04f9 0E050000 		.4byte	0x50e
 1264 04fd 19       		.uleb128 0x19
 1265 04fe 83040000 		.4byte	.LASF57
 1266 0502 01       		.byte	0x1
 1267 0503 7702     		.2byte	0x277
 1268 0505 A2000000 		.4byte	0xa2
 1269 0509 76010000 		.4byte	.LLST9
 1270 050d 00       		.byte	0
 1271 050e 1E       		.uleb128 0x1e
 1272 050f 32010000 		.4byte	.LASF62
 1273 0513 01       		.byte	0x1
 1274 0514 8702     		.2byte	0x287
 1275 0516 06010000 		.4byte	0x106
 1276 051a 00000000 		.4byte	.LFB126
 1277 051e 18000000 		.4byte	.LFE126-.LFB126
 1278 0522 01       		.uleb128 0x1
 1279 0523 9C       		.byte	0x9c
 1280 0524 59050000 		.4byte	0x559
 1281 0528 19       		.uleb128 0x19
 1282 0529 85010000 		.4byte	.LASF56
 1283 052d 01       		.byte	0x1
 1284 052e 8702     		.2byte	0x287
 1285 0530 97000000 		.4byte	0x97
 1286 0534 97010000 		.4byte	.LLST10
 1287 0538 1F       		.uleb128 0x1f
 1288 0539 BC040000 		.4byte	.LASF58
 1289 053d 01       		.byte	0x1
 1290 053e 8902     		.2byte	0x289
 1291 0540 06010000 		.4byte	0x106
 1292 0544 B8010000 		.4byte	.LLST11
 1293 0548 1F       		.uleb128 0x1f
 1294 0549 86020000 		.4byte	.LASF63
 1295 054d 01       		.byte	0x1
 1296 054e 8A02     		.2byte	0x28a
 1297 0550 B8000000 		.4byte	0xb8
 1298 0554 E4010000 		.4byte	.LLST12
 1299 0558 00       		.byte	0
 1300 0559 18       		.uleb128 0x18
 1301 055a F8030000 		.4byte	.LASF64
 1302 055e 01       		.byte	0x1
 1303 055f A902     		.2byte	0x2a9
 1304 0561 00000000 		.4byte	.LFB127
 1305 0565 10000000 		.4byte	.LFE127-.LFB127
ARM GAS  /var/folders/7z/kps_xzfj7sn5l5gkyq8s9db00000gn/T//cc5x5WYY.s 			page 24


 1306 0569 01       		.uleb128 0x1
 1307 056a 9C       		.byte	0x9c
 1308 056b 80050000 		.4byte	0x580
 1309 056f 19       		.uleb128 0x19
 1310 0570 85010000 		.4byte	.LASF56
 1311 0574 01       		.byte	0x1
 1312 0575 A902     		.2byte	0x2a9
 1313 0577 97000000 		.4byte	0x97
 1314 057b 03020000 		.4byte	.LLST13
 1315 057f 00       		.byte	0
 1316 0580 20       		.uleb128 0x20
 1317 0581 AF040000 		.4byte	.LASF69
 1318 0585 06       		.byte	0x6
 1319 0586 9806     		.2byte	0x698
 1320 0588 DF000000 		.4byte	0xdf
 1321 058c 21       		.uleb128 0x21
 1322 058d C1030000 		.4byte	.LASF70
 1323 0591 07       		.byte	0x7
 1324 0592 E401     		.2byte	0x1e4
 1325 0594 22       		.uleb128 0x22
 1326 0595 B8000000 		.4byte	0xb8
 1327 0599 22       		.uleb128 0x22
 1328 059a 28010000 		.4byte	0x128
 1329 059e 00       		.byte	0
 1330 059f 00       		.byte	0
 1331              		.section	.debug_abbrev,"",%progbits
 1332              	.Ldebug_abbrev0:
 1333 0000 01       		.uleb128 0x1
 1334 0001 11       		.uleb128 0x11
 1335 0002 01       		.byte	0x1
 1336 0003 25       		.uleb128 0x25
 1337 0004 0E       		.uleb128 0xe
 1338 0005 13       		.uleb128 0x13
 1339 0006 0B       		.uleb128 0xb
 1340 0007 03       		.uleb128 0x3
 1341 0008 0E       		.uleb128 0xe
 1342 0009 1B       		.uleb128 0x1b
 1343 000a 0E       		.uleb128 0xe
 1344 000b 55       		.uleb128 0x55
 1345 000c 17       		.uleb128 0x17
 1346 000d 11       		.uleb128 0x11
 1347 000e 01       		.uleb128 0x1
 1348 000f 10       		.uleb128 0x10
 1349 0010 17       		.uleb128 0x17
 1350 0011 00       		.byte	0
 1351 0012 00       		.byte	0
 1352 0013 02       		.uleb128 0x2
 1353 0014 24       		.uleb128 0x24
 1354 0015 00       		.byte	0
 1355 0016 0B       		.uleb128 0xb
 1356 0017 0B       		.uleb128 0xb
 1357 0018 3E       		.uleb128 0x3e
 1358 0019 0B       		.uleb128 0xb
 1359 001a 03       		.uleb128 0x3
 1360 001b 0E       		.uleb128 0xe
 1361 001c 00       		.byte	0
 1362 001d 00       		.byte	0
ARM GAS  /var/folders/7z/kps_xzfj7sn5l5gkyq8s9db00000gn/T//cc5x5WYY.s 			page 25


 1363 001e 03       		.uleb128 0x3
 1364 001f 16       		.uleb128 0x16
 1365 0020 00       		.byte	0
 1366 0021 03       		.uleb128 0x3
 1367 0022 0E       		.uleb128 0xe
 1368 0023 3A       		.uleb128 0x3a
 1369 0024 0B       		.uleb128 0xb
 1370 0025 3B       		.uleb128 0x3b
 1371 0026 0B       		.uleb128 0xb
 1372 0027 49       		.uleb128 0x49
 1373 0028 13       		.uleb128 0x13
 1374 0029 00       		.byte	0
 1375 002a 00       		.byte	0
 1376 002b 04       		.uleb128 0x4
 1377 002c 24       		.uleb128 0x24
 1378 002d 00       		.byte	0
 1379 002e 0B       		.uleb128 0xb
 1380 002f 0B       		.uleb128 0xb
 1381 0030 3E       		.uleb128 0x3e
 1382 0031 0B       		.uleb128 0xb
 1383 0032 03       		.uleb128 0x3
 1384 0033 08       		.uleb128 0x8
 1385 0034 00       		.byte	0
 1386 0035 00       		.byte	0
 1387 0036 05       		.uleb128 0x5
 1388 0037 35       		.uleb128 0x35
 1389 0038 00       		.byte	0
 1390 0039 49       		.uleb128 0x49
 1391 003a 13       		.uleb128 0x13
 1392 003b 00       		.byte	0
 1393 003c 00       		.byte	0
 1394 003d 06       		.uleb128 0x6
 1395 003e 01       		.uleb128 0x1
 1396 003f 01       		.byte	0x1
 1397 0040 49       		.uleb128 0x49
 1398 0041 13       		.uleb128 0x13
 1399 0042 01       		.uleb128 0x1
 1400 0043 13       		.uleb128 0x13
 1401 0044 00       		.byte	0
 1402 0045 00       		.byte	0
 1403 0046 07       		.uleb128 0x7
 1404 0047 21       		.uleb128 0x21
 1405 0048 00       		.byte	0
 1406 0049 49       		.uleb128 0x49
 1407 004a 13       		.uleb128 0x13
 1408 004b 2F       		.uleb128 0x2f
 1409 004c 0B       		.uleb128 0xb
 1410 004d 00       		.byte	0
 1411 004e 00       		.byte	0
 1412 004f 08       		.uleb128 0x8
 1413 0050 04       		.uleb128 0x4
 1414 0051 01       		.byte	0x1
 1415 0052 0B       		.uleb128 0xb
 1416 0053 0B       		.uleb128 0xb
 1417 0054 3A       		.uleb128 0x3a
 1418 0055 0B       		.uleb128 0xb
 1419 0056 3B       		.uleb128 0x3b
ARM GAS  /var/folders/7z/kps_xzfj7sn5l5gkyq8s9db00000gn/T//cc5x5WYY.s 			page 26


 1420 0057 05       		.uleb128 0x5
 1421 0058 01       		.uleb128 0x1
 1422 0059 13       		.uleb128 0x13
 1423 005a 00       		.byte	0
 1424 005b 00       		.byte	0
 1425 005c 09       		.uleb128 0x9
 1426 005d 28       		.uleb128 0x28
 1427 005e 00       		.byte	0
 1428 005f 03       		.uleb128 0x3
 1429 0060 0E       		.uleb128 0xe
 1430 0061 1C       		.uleb128 0x1c
 1431 0062 0D       		.uleb128 0xd
 1432 0063 00       		.byte	0
 1433 0064 00       		.byte	0
 1434 0065 0A       		.uleb128 0xa
 1435 0066 28       		.uleb128 0x28
 1436 0067 00       		.byte	0
 1437 0068 03       		.uleb128 0x3
 1438 0069 08       		.uleb128 0x8
 1439 006a 1C       		.uleb128 0x1c
 1440 006b 0D       		.uleb128 0xd
 1441 006c 00       		.byte	0
 1442 006d 00       		.byte	0
 1443 006e 0B       		.uleb128 0xb
 1444 006f 16       		.uleb128 0x16
 1445 0070 00       		.byte	0
 1446 0071 03       		.uleb128 0x3
 1447 0072 0E       		.uleb128 0xe
 1448 0073 3A       		.uleb128 0x3a
 1449 0074 0B       		.uleb128 0xb
 1450 0075 3B       		.uleb128 0x3b
 1451 0076 05       		.uleb128 0x5
 1452 0077 49       		.uleb128 0x49
 1453 0078 13       		.uleb128 0x13
 1454 0079 00       		.byte	0
 1455 007a 00       		.byte	0
 1456 007b 0C       		.uleb128 0xc
 1457 007c 13       		.uleb128 0x13
 1458 007d 01       		.byte	0x1
 1459 007e 0B       		.uleb128 0xb
 1460 007f 05       		.uleb128 0x5
 1461 0080 3A       		.uleb128 0x3a
 1462 0081 0B       		.uleb128 0xb
 1463 0082 3B       		.uleb128 0x3b
 1464 0083 05       		.uleb128 0x5
 1465 0084 01       		.uleb128 0x1
 1466 0085 13       		.uleb128 0x13
 1467 0086 00       		.byte	0
 1468 0087 00       		.byte	0
 1469 0088 0D       		.uleb128 0xd
 1470 0089 0D       		.uleb128 0xd
 1471 008a 00       		.byte	0
 1472 008b 03       		.uleb128 0x3
 1473 008c 08       		.uleb128 0x8
 1474 008d 3A       		.uleb128 0x3a
 1475 008e 0B       		.uleb128 0xb
 1476 008f 3B       		.uleb128 0x3b
ARM GAS  /var/folders/7z/kps_xzfj7sn5l5gkyq8s9db00000gn/T//cc5x5WYY.s 			page 27


 1477 0090 05       		.uleb128 0x5
 1478 0091 49       		.uleb128 0x49
 1479 0092 13       		.uleb128 0x13
 1480 0093 38       		.uleb128 0x38
 1481 0094 0B       		.uleb128 0xb
 1482 0095 00       		.byte	0
 1483 0096 00       		.byte	0
 1484 0097 0E       		.uleb128 0xe
 1485 0098 0D       		.uleb128 0xd
 1486 0099 00       		.byte	0
 1487 009a 03       		.uleb128 0x3
 1488 009b 0E       		.uleb128 0xe
 1489 009c 3A       		.uleb128 0x3a
 1490 009d 0B       		.uleb128 0xb
 1491 009e 3B       		.uleb128 0x3b
 1492 009f 05       		.uleb128 0x5
 1493 00a0 49       		.uleb128 0x49
 1494 00a1 13       		.uleb128 0x13
 1495 00a2 38       		.uleb128 0x38
 1496 00a3 0B       		.uleb128 0xb
 1497 00a4 00       		.byte	0
 1498 00a5 00       		.byte	0
 1499 00a6 0F       		.uleb128 0xf
 1500 00a7 13       		.uleb128 0x13
 1501 00a8 01       		.byte	0x1
 1502 00a9 0B       		.uleb128 0xb
 1503 00aa 0B       		.uleb128 0xb
 1504 00ab 3A       		.uleb128 0x3a
 1505 00ac 0B       		.uleb128 0xb
 1506 00ad 3B       		.uleb128 0x3b
 1507 00ae 0B       		.uleb128 0xb
 1508 00af 01       		.uleb128 0x1
 1509 00b0 13       		.uleb128 0x13
 1510 00b1 00       		.byte	0
 1511 00b2 00       		.byte	0
 1512 00b3 10       		.uleb128 0x10
 1513 00b4 0D       		.uleb128 0xd
 1514 00b5 00       		.byte	0
 1515 00b6 03       		.uleb128 0x3
 1516 00b7 0E       		.uleb128 0xe
 1517 00b8 3A       		.uleb128 0x3a
 1518 00b9 0B       		.uleb128 0xb
 1519 00ba 3B       		.uleb128 0x3b
 1520 00bb 0B       		.uleb128 0xb
 1521 00bc 49       		.uleb128 0x49
 1522 00bd 13       		.uleb128 0x13
 1523 00be 38       		.uleb128 0x38
 1524 00bf 0B       		.uleb128 0xb
 1525 00c0 00       		.byte	0
 1526 00c1 00       		.byte	0
 1527 00c2 11       		.uleb128 0x11
 1528 00c3 2E       		.uleb128 0x2e
 1529 00c4 01       		.byte	0x1
 1530 00c5 3F       		.uleb128 0x3f
 1531 00c6 19       		.uleb128 0x19
 1532 00c7 03       		.uleb128 0x3
 1533 00c8 0E       		.uleb128 0xe
ARM GAS  /var/folders/7z/kps_xzfj7sn5l5gkyq8s9db00000gn/T//cc5x5WYY.s 			page 28


 1534 00c9 3A       		.uleb128 0x3a
 1535 00ca 0B       		.uleb128 0xb
 1536 00cb 3B       		.uleb128 0x3b
 1537 00cc 0B       		.uleb128 0xb
 1538 00cd 27       		.uleb128 0x27
 1539 00ce 19       		.uleb128 0x19
 1540 00cf 11       		.uleb128 0x11
 1541 00d0 01       		.uleb128 0x1
 1542 00d1 12       		.uleb128 0x12
 1543 00d2 06       		.uleb128 0x6
 1544 00d3 40       		.uleb128 0x40
 1545 00d4 18       		.uleb128 0x18
 1546 00d5 9742     		.uleb128 0x2117
 1547 00d7 19       		.uleb128 0x19
 1548 00d8 01       		.uleb128 0x1
 1549 00d9 13       		.uleb128 0x13
 1550 00da 00       		.byte	0
 1551 00db 00       		.byte	0
 1552 00dc 12       		.uleb128 0x12
 1553 00dd 898201   		.uleb128 0x4109
 1554 00e0 01       		.byte	0x1
 1555 00e1 11       		.uleb128 0x11
 1556 00e2 01       		.uleb128 0x1
 1557 00e3 31       		.uleb128 0x31
 1558 00e4 13       		.uleb128 0x13
 1559 00e5 01       		.uleb128 0x1
 1560 00e6 13       		.uleb128 0x13
 1561 00e7 00       		.byte	0
 1562 00e8 00       		.byte	0
 1563 00e9 13       		.uleb128 0x13
 1564 00ea 8A8201   		.uleb128 0x410a
 1565 00ed 00       		.byte	0
 1566 00ee 02       		.uleb128 0x2
 1567 00ef 18       		.uleb128 0x18
 1568 00f0 9142     		.uleb128 0x2111
 1569 00f2 18       		.uleb128 0x18
 1570 00f3 00       		.byte	0
 1571 00f4 00       		.byte	0
 1572 00f5 14       		.uleb128 0x14
 1573 00f6 898201   		.uleb128 0x4109
 1574 00f9 01       		.byte	0x1
 1575 00fa 11       		.uleb128 0x11
 1576 00fb 01       		.uleb128 0x1
 1577 00fc 9542     		.uleb128 0x2115
 1578 00fe 19       		.uleb128 0x19
 1579 00ff 31       		.uleb128 0x31
 1580 0100 13       		.uleb128 0x13
 1581 0101 00       		.byte	0
 1582 0102 00       		.byte	0
 1583 0103 15       		.uleb128 0x15
 1584 0104 05       		.uleb128 0x5
 1585 0105 00       		.byte	0
 1586 0106 03       		.uleb128 0x3
 1587 0107 0E       		.uleb128 0xe
 1588 0108 3A       		.uleb128 0x3a
 1589 0109 0B       		.uleb128 0xb
 1590 010a 3B       		.uleb128 0x3b
ARM GAS  /var/folders/7z/kps_xzfj7sn5l5gkyq8s9db00000gn/T//cc5x5WYY.s 			page 29


 1591 010b 0B       		.uleb128 0xb
 1592 010c 49       		.uleb128 0x49
 1593 010d 13       		.uleb128 0x13
 1594 010e 02       		.uleb128 0x2
 1595 010f 18       		.uleb128 0x18
 1596 0110 00       		.byte	0
 1597 0111 00       		.byte	0
 1598 0112 16       		.uleb128 0x16
 1599 0113 0F       		.uleb128 0xf
 1600 0114 00       		.byte	0
 1601 0115 0B       		.uleb128 0xb
 1602 0116 0B       		.uleb128 0xb
 1603 0117 49       		.uleb128 0x49
 1604 0118 13       		.uleb128 0x13
 1605 0119 00       		.byte	0
 1606 011a 00       		.byte	0
 1607 011b 17       		.uleb128 0x17
 1608 011c 2E       		.uleb128 0x2e
 1609 011d 00       		.byte	0
 1610 011e 3F       		.uleb128 0x3f
 1611 011f 19       		.uleb128 0x19
 1612 0120 03       		.uleb128 0x3
 1613 0121 0E       		.uleb128 0xe
 1614 0122 3A       		.uleb128 0x3a
 1615 0123 0B       		.uleb128 0xb
 1616 0124 3B       		.uleb128 0x3b
 1617 0125 0B       		.uleb128 0xb
 1618 0126 27       		.uleb128 0x27
 1619 0127 19       		.uleb128 0x19
 1620 0128 11       		.uleb128 0x11
 1621 0129 01       		.uleb128 0x1
 1622 012a 12       		.uleb128 0x12
 1623 012b 06       		.uleb128 0x6
 1624 012c 40       		.uleb128 0x40
 1625 012d 18       		.uleb128 0x18
 1626 012e 9742     		.uleb128 0x2117
 1627 0130 19       		.uleb128 0x19
 1628 0131 00       		.byte	0
 1629 0132 00       		.byte	0
 1630 0133 18       		.uleb128 0x18
 1631 0134 2E       		.uleb128 0x2e
 1632 0135 01       		.byte	0x1
 1633 0136 3F       		.uleb128 0x3f
 1634 0137 19       		.uleb128 0x19
 1635 0138 03       		.uleb128 0x3
 1636 0139 0E       		.uleb128 0xe
 1637 013a 3A       		.uleb128 0x3a
 1638 013b 0B       		.uleb128 0xb
 1639 013c 3B       		.uleb128 0x3b
 1640 013d 05       		.uleb128 0x5
 1641 013e 27       		.uleb128 0x27
 1642 013f 19       		.uleb128 0x19
 1643 0140 11       		.uleb128 0x11
 1644 0141 01       		.uleb128 0x1
 1645 0142 12       		.uleb128 0x12
 1646 0143 06       		.uleb128 0x6
 1647 0144 40       		.uleb128 0x40
ARM GAS  /var/folders/7z/kps_xzfj7sn5l5gkyq8s9db00000gn/T//cc5x5WYY.s 			page 30


 1648 0145 18       		.uleb128 0x18
 1649 0146 9742     		.uleb128 0x2117
 1650 0148 19       		.uleb128 0x19
 1651 0149 01       		.uleb128 0x1
 1652 014a 13       		.uleb128 0x13
 1653 014b 00       		.byte	0
 1654 014c 00       		.byte	0
 1655 014d 19       		.uleb128 0x19
 1656 014e 05       		.uleb128 0x5
 1657 014f 00       		.byte	0
 1658 0150 03       		.uleb128 0x3
 1659 0151 0E       		.uleb128 0xe
 1660 0152 3A       		.uleb128 0x3a
 1661 0153 0B       		.uleb128 0xb
 1662 0154 3B       		.uleb128 0x3b
 1663 0155 05       		.uleb128 0x5
 1664 0156 49       		.uleb128 0x49
 1665 0157 13       		.uleb128 0x13
 1666 0158 02       		.uleb128 0x2
 1667 0159 17       		.uleb128 0x17
 1668 015a 00       		.byte	0
 1669 015b 00       		.byte	0
 1670 015c 1A       		.uleb128 0x1a
 1671 015d 05       		.uleb128 0x5
 1672 015e 00       		.byte	0
 1673 015f 03       		.uleb128 0x3
 1674 0160 0E       		.uleb128 0xe
 1675 0161 3A       		.uleb128 0x3a
 1676 0162 0B       		.uleb128 0xb
 1677 0163 3B       		.uleb128 0x3b
 1678 0164 05       		.uleb128 0x5
 1679 0165 49       		.uleb128 0x49
 1680 0166 13       		.uleb128 0x13
 1681 0167 02       		.uleb128 0x2
 1682 0168 18       		.uleb128 0x18
 1683 0169 00       		.byte	0
 1684 016a 00       		.byte	0
 1685 016b 1B       		.uleb128 0x1b
 1686 016c 2E       		.uleb128 0x2e
 1687 016d 00       		.byte	0
 1688 016e 3F       		.uleb128 0x3f
 1689 016f 19       		.uleb128 0x19
 1690 0170 03       		.uleb128 0x3
 1691 0171 0E       		.uleb128 0xe
 1692 0172 3A       		.uleb128 0x3a
 1693 0173 0B       		.uleb128 0xb
 1694 0174 3B       		.uleb128 0x3b
 1695 0175 05       		.uleb128 0x5
 1696 0176 27       		.uleb128 0x27
 1697 0177 19       		.uleb128 0x19
 1698 0178 49       		.uleb128 0x49
 1699 0179 13       		.uleb128 0x13
 1700 017a 11       		.uleb128 0x11
 1701 017b 01       		.uleb128 0x1
 1702 017c 12       		.uleb128 0x12
 1703 017d 06       		.uleb128 0x6
 1704 017e 40       		.uleb128 0x40
ARM GAS  /var/folders/7z/kps_xzfj7sn5l5gkyq8s9db00000gn/T//cc5x5WYY.s 			page 31


 1705 017f 18       		.uleb128 0x18
 1706 0180 9742     		.uleb128 0x2117
 1707 0182 19       		.uleb128 0x19
 1708 0183 00       		.byte	0
 1709 0184 00       		.byte	0
 1710 0185 1C       		.uleb128 0x1c
 1711 0186 2E       		.uleb128 0x2e
 1712 0187 00       		.byte	0
 1713 0188 3F       		.uleb128 0x3f
 1714 0189 19       		.uleb128 0x19
 1715 018a 03       		.uleb128 0x3
 1716 018b 0E       		.uleb128 0xe
 1717 018c 3A       		.uleb128 0x3a
 1718 018d 0B       		.uleb128 0xb
 1719 018e 3B       		.uleb128 0x3b
 1720 018f 05       		.uleb128 0x5
 1721 0190 27       		.uleb128 0x27
 1722 0191 19       		.uleb128 0x19
 1723 0192 11       		.uleb128 0x11
 1724 0193 01       		.uleb128 0x1
 1725 0194 12       		.uleb128 0x12
 1726 0195 06       		.uleb128 0x6
 1727 0196 40       		.uleb128 0x40
 1728 0197 18       		.uleb128 0x18
 1729 0198 9742     		.uleb128 0x2117
 1730 019a 19       		.uleb128 0x19
 1731 019b 00       		.byte	0
 1732 019c 00       		.byte	0
 1733 019d 1D       		.uleb128 0x1d
 1734 019e 34       		.uleb128 0x34
 1735 019f 00       		.byte	0
 1736 01a0 03       		.uleb128 0x3
 1737 01a1 08       		.uleb128 0x8
 1738 01a2 3A       		.uleb128 0x3a
 1739 01a3 0B       		.uleb128 0xb
 1740 01a4 3B       		.uleb128 0x3b
 1741 01a5 05       		.uleb128 0x5
 1742 01a6 49       		.uleb128 0x49
 1743 01a7 13       		.uleb128 0x13
 1744 01a8 02       		.uleb128 0x2
 1745 01a9 17       		.uleb128 0x17
 1746 01aa 00       		.byte	0
 1747 01ab 00       		.byte	0
 1748 01ac 1E       		.uleb128 0x1e
 1749 01ad 2E       		.uleb128 0x2e
 1750 01ae 01       		.byte	0x1
 1751 01af 3F       		.uleb128 0x3f
 1752 01b0 19       		.uleb128 0x19
 1753 01b1 03       		.uleb128 0x3
 1754 01b2 0E       		.uleb128 0xe
 1755 01b3 3A       		.uleb128 0x3a
 1756 01b4 0B       		.uleb128 0xb
 1757 01b5 3B       		.uleb128 0x3b
 1758 01b6 05       		.uleb128 0x5
 1759 01b7 27       		.uleb128 0x27
 1760 01b8 19       		.uleb128 0x19
 1761 01b9 49       		.uleb128 0x49
ARM GAS  /var/folders/7z/kps_xzfj7sn5l5gkyq8s9db00000gn/T//cc5x5WYY.s 			page 32


 1762 01ba 13       		.uleb128 0x13
 1763 01bb 11       		.uleb128 0x11
 1764 01bc 01       		.uleb128 0x1
 1765 01bd 12       		.uleb128 0x12
 1766 01be 06       		.uleb128 0x6
 1767 01bf 40       		.uleb128 0x40
 1768 01c0 18       		.uleb128 0x18
 1769 01c1 9742     		.uleb128 0x2117
 1770 01c3 19       		.uleb128 0x19
 1771 01c4 01       		.uleb128 0x1
 1772 01c5 13       		.uleb128 0x13
 1773 01c6 00       		.byte	0
 1774 01c7 00       		.byte	0
 1775 01c8 1F       		.uleb128 0x1f
 1776 01c9 34       		.uleb128 0x34
 1777 01ca 00       		.byte	0
 1778 01cb 03       		.uleb128 0x3
 1779 01cc 0E       		.uleb128 0xe
 1780 01cd 3A       		.uleb128 0x3a
 1781 01ce 0B       		.uleb128 0xb
 1782 01cf 3B       		.uleb128 0x3b
 1783 01d0 05       		.uleb128 0x5
 1784 01d1 49       		.uleb128 0x49
 1785 01d2 13       		.uleb128 0x13
 1786 01d3 02       		.uleb128 0x2
 1787 01d4 17       		.uleb128 0x17
 1788 01d5 00       		.byte	0
 1789 01d6 00       		.byte	0
 1790 01d7 20       		.uleb128 0x20
 1791 01d8 34       		.uleb128 0x34
 1792 01d9 00       		.byte	0
 1793 01da 03       		.uleb128 0x3
 1794 01db 0E       		.uleb128 0xe
 1795 01dc 3A       		.uleb128 0x3a
 1796 01dd 0B       		.uleb128 0xb
 1797 01de 3B       		.uleb128 0x3b
 1798 01df 05       		.uleb128 0x5
 1799 01e0 49       		.uleb128 0x49
 1800 01e1 13       		.uleb128 0x13
 1801 01e2 3F       		.uleb128 0x3f
 1802 01e3 19       		.uleb128 0x19
 1803 01e4 3C       		.uleb128 0x3c
 1804 01e5 19       		.uleb128 0x19
 1805 01e6 00       		.byte	0
 1806 01e7 00       		.byte	0
 1807 01e8 21       		.uleb128 0x21
 1808 01e9 2E       		.uleb128 0x2e
 1809 01ea 01       		.byte	0x1
 1810 01eb 3F       		.uleb128 0x3f
 1811 01ec 19       		.uleb128 0x19
 1812 01ed 03       		.uleb128 0x3
 1813 01ee 0E       		.uleb128 0xe
 1814 01ef 3A       		.uleb128 0x3a
 1815 01f0 0B       		.uleb128 0xb
 1816 01f1 3B       		.uleb128 0x3b
 1817 01f2 05       		.uleb128 0x5
 1818 01f3 27       		.uleb128 0x27
ARM GAS  /var/folders/7z/kps_xzfj7sn5l5gkyq8s9db00000gn/T//cc5x5WYY.s 			page 33


 1819 01f4 19       		.uleb128 0x19
 1820 01f5 3C       		.uleb128 0x3c
 1821 01f6 19       		.uleb128 0x19
 1822 01f7 00       		.byte	0
 1823 01f8 00       		.byte	0
 1824 01f9 22       		.uleb128 0x22
 1825 01fa 05       		.uleb128 0x5
 1826 01fb 00       		.byte	0
 1827 01fc 49       		.uleb128 0x49
 1828 01fd 13       		.uleb128 0x13
 1829 01fe 00       		.byte	0
 1830 01ff 00       		.byte	0
 1831 0200 00       		.byte	0
 1832              		.section	.debug_loc,"",%progbits
 1833              	.Ldebug_loc0:
 1834              	.LLST0:
 1835 0000 00000000 		.4byte	.LVL4
 1836 0004 0E000000 		.4byte	.LVL5
 1837 0008 0100     		.2byte	0x1
 1838 000a 50       		.byte	0x50
 1839 000b 0E000000 		.4byte	.LVL5
 1840 000f 18000000 		.4byte	.LFE115
 1841 0013 0400     		.2byte	0x4
 1842 0015 F3       		.byte	0xf3
 1843 0016 01       		.uleb128 0x1
 1844 0017 50       		.byte	0x50
 1845 0018 9F       		.byte	0x9f
 1846 0019 00000000 		.4byte	0
 1847 001d 00000000 		.4byte	0
 1848              	.LLST1:
 1849 0021 00000000 		.4byte	.LVL8
 1850 0025 10000000 		.4byte	.LVL9
 1851 0029 0100     		.2byte	0x1
 1852 002b 50       		.byte	0x50
 1853 002c 10000000 		.4byte	.LVL9
 1854 0030 12000000 		.4byte	.LVL10
 1855 0034 0300     		.2byte	0x3
 1856 0036 70       		.byte	0x70
 1857 0037 78       		.sleb128 -8
 1858 0038 9F       		.byte	0x9f
 1859 0039 12000000 		.4byte	.LVL10
 1860 003d 2C000000 		.4byte	.LFE120
 1861 0041 0400     		.2byte	0x4
 1862 0043 F3       		.byte	0xf3
 1863 0044 01       		.uleb128 0x1
 1864 0045 50       		.byte	0x50
 1865 0046 9F       		.byte	0x9f
 1866 0047 00000000 		.4byte	0
 1867 004b 00000000 		.4byte	0
 1868              	.LLST2:
 1869 004f 00000000 		.4byte	.LVL8
 1870 0053 12000000 		.4byte	.LVL10
 1871 0057 0200     		.2byte	0x2
 1872 0059 30       		.byte	0x30
 1873 005a 9F       		.byte	0x9f
 1874 005b 12000000 		.4byte	.LVL10
 1875 005f 18000000 		.4byte	.LVL11
ARM GAS  /var/folders/7z/kps_xzfj7sn5l5gkyq8s9db00000gn/T//cc5x5WYY.s 			page 34


 1876 0063 0100     		.2byte	0x1
 1877 0065 53       		.byte	0x53
 1878 0066 00000000 		.4byte	0
 1879 006a 00000000 		.4byte	0
 1880              	.LLST3:
 1881 006e 00000000 		.4byte	.LVL12
 1882 0072 10000000 		.4byte	.LVL13
 1883 0076 0100     		.2byte	0x1
 1884 0078 50       		.byte	0x50
 1885 0079 10000000 		.4byte	.LVL13
 1886 007d 1E000000 		.4byte	.LVL14
 1887 0081 0300     		.2byte	0x3
 1888 0083 70       		.byte	0x70
 1889 0084 78       		.sleb128 -8
 1890 0085 9F       		.byte	0x9f
 1891 0086 1E000000 		.4byte	.LVL14
 1892 008a 3C000000 		.4byte	.LFE121
 1893 008e 0400     		.2byte	0x4
 1894 0090 F3       		.byte	0xf3
 1895 0091 01       		.uleb128 0x1
 1896 0092 50       		.byte	0x50
 1897 0093 9F       		.byte	0x9f
 1898 0094 00000000 		.4byte	0
 1899 0098 00000000 		.4byte	0
 1900              	.LLST4:
 1901 009c 00000000 		.4byte	.LVL12
 1902 00a0 1E000000 		.4byte	.LVL14
 1903 00a4 0200     		.2byte	0x2
 1904 00a6 30       		.byte	0x30
 1905 00a7 9F       		.byte	0x9f
 1906 00a8 1E000000 		.4byte	.LVL14
 1907 00ac 24000000 		.4byte	.LVL15
 1908 00b0 0100     		.2byte	0x1
 1909 00b2 53       		.byte	0x53
 1910 00b3 00000000 		.4byte	0
 1911 00b7 00000000 		.4byte	0
 1912              	.LLST5:
 1913 00bb 00000000 		.4byte	.LVL17
 1914 00bf 0A000000 		.4byte	.LVL18
 1915 00c3 0100     		.2byte	0x1
 1916 00c5 50       		.byte	0x50
 1917 00c6 0A000000 		.4byte	.LVL18
 1918 00ca 12000000 		.4byte	.LVL19
 1919 00ce 0400     		.2byte	0x4
 1920 00d0 F3       		.byte	0xf3
 1921 00d1 01       		.uleb128 0x1
 1922 00d2 50       		.byte	0x50
 1923 00d3 9F       		.byte	0x9f
 1924 00d4 12000000 		.4byte	.LVL19
 1925 00d8 14000000 		.4byte	.LVL20
 1926 00dc 0100     		.2byte	0x1
 1927 00de 50       		.byte	0x50
 1928 00df 14000000 		.4byte	.LVL20
 1929 00e3 1C000000 		.4byte	.LFE123
 1930 00e7 0400     		.2byte	0x4
 1931 00e9 F3       		.byte	0xf3
 1932 00ea 01       		.uleb128 0x1
ARM GAS  /var/folders/7z/kps_xzfj7sn5l5gkyq8s9db00000gn/T//cc5x5WYY.s 			page 35


 1933 00eb 50       		.byte	0x50
 1934 00ec 9F       		.byte	0x9f
 1935 00ed 00000000 		.4byte	0
 1936 00f1 00000000 		.4byte	0
 1937              	.LLST6:
 1938 00f5 00000000 		.4byte	.LVL21
 1939 00f9 10000000 		.4byte	.LVL24
 1940 00fd 0100     		.2byte	0x1
 1941 00ff 50       		.byte	0x50
 1942 0100 10000000 		.4byte	.LVL24
 1943 0104 18000000 		.4byte	.LFE124
 1944 0108 0400     		.2byte	0x4
 1945 010a F3       		.byte	0xf3
 1946 010b 01       		.uleb128 0x1
 1947 010c 50       		.byte	0x50
 1948 010d 9F       		.byte	0x9f
 1949 010e 00000000 		.4byte	0
 1950 0112 00000000 		.4byte	0
 1951              	.LLST7:
 1952 0116 00000000 		.4byte	.LVL21
 1953 011a 0A000000 		.4byte	.LVL23
 1954 011e 0200     		.2byte	0x2
 1955 0120 30       		.byte	0x30
 1956 0121 9F       		.byte	0x9f
 1957 0122 0A000000 		.4byte	.LVL23
 1958 0126 10000000 		.4byte	.LVL24
 1959 012a 0C00     		.2byte	0xc
 1960 012c 70       		.byte	0x70
 1961 012d 00       		.sleb128 0
 1962 012e 0A       		.byte	0xa
 1963 012f FFFF     		.2byte	0xffff
 1964 0131 1A       		.byte	0x1a
 1965 0132 73       		.byte	0x73
 1966 0133 00       		.sleb128 0
 1967 0134 1A       		.byte	0x1a
 1968 0135 30       		.byte	0x30
 1969 0136 2E       		.byte	0x2e
 1970 0137 9F       		.byte	0x9f
 1971 0138 10000000 		.4byte	.LVL24
 1972 013c 18000000 		.4byte	.LFE124
 1973 0140 0D00     		.2byte	0xd
 1974 0142 F3       		.byte	0xf3
 1975 0143 01       		.uleb128 0x1
 1976 0144 50       		.byte	0x50
 1977 0145 0A       		.byte	0xa
 1978 0146 FFFF     		.2byte	0xffff
 1979 0148 1A       		.byte	0x1a
 1980 0149 73       		.byte	0x73
 1981 014a 00       		.sleb128 0
 1982 014b 1A       		.byte	0x1a
 1983 014c 30       		.byte	0x30
 1984 014d 2E       		.byte	0x2e
 1985 014e 9F       		.byte	0x9f
 1986 014f 00000000 		.4byte	0
 1987 0153 00000000 		.4byte	0
 1988              	.LLST8:
 1989 0157 00000000 		.4byte	.LVL21
ARM GAS  /var/folders/7z/kps_xzfj7sn5l5gkyq8s9db00000gn/T//cc5x5WYY.s 			page 36


 1990 015b 08000000 		.4byte	.LVL22
 1991 015f 0200     		.2byte	0x2
 1992 0161 30       		.byte	0x30
 1993 0162 9F       		.byte	0x9f
 1994 0163 08000000 		.4byte	.LVL22
 1995 0167 18000000 		.4byte	.LFE124
 1996 016b 0100     		.2byte	0x1
 1997 016d 53       		.byte	0x53
 1998 016e 00000000 		.4byte	0
 1999 0172 00000000 		.4byte	0
 2000              	.LLST9:
 2001 0176 00000000 		.4byte	.LVL25
 2002 017a 04000000 		.4byte	.LVL26
 2003 017e 0100     		.2byte	0x1
 2004 0180 50       		.byte	0x50
 2005 0181 04000000 		.4byte	.LVL26
 2006 0185 0C000000 		.4byte	.LFE125
 2007 0189 0400     		.2byte	0x4
 2008 018b F3       		.byte	0xf3
 2009 018c 01       		.uleb128 0x1
 2010 018d 50       		.byte	0x50
 2011 018e 9F       		.byte	0x9f
 2012 018f 00000000 		.4byte	0
 2013 0193 00000000 		.4byte	0
 2014              	.LLST10:
 2015 0197 00000000 		.4byte	.LVL27
 2016 019b 0E000000 		.4byte	.LVL31
 2017 019f 0100     		.2byte	0x1
 2018 01a1 50       		.byte	0x50
 2019 01a2 0E000000 		.4byte	.LVL31
 2020 01a6 18000000 		.4byte	.LFE126
 2021 01aa 0400     		.2byte	0x4
 2022 01ac F3       		.byte	0xf3
 2023 01ad 01       		.uleb128 0x1
 2024 01ae 50       		.byte	0x50
 2025 01af 9F       		.byte	0x9f
 2026 01b0 00000000 		.4byte	0
 2027 01b4 00000000 		.4byte	0
 2028              	.LLST11:
 2029 01b8 00000000 		.4byte	.LVL27
 2030 01bc 06000000 		.4byte	.LVL29
 2031 01c0 0200     		.2byte	0x2
 2032 01c2 30       		.byte	0x30
 2033 01c3 9F       		.byte	0x9f
 2034 01c4 06000000 		.4byte	.LVL29
 2035 01c8 08000000 		.4byte	.LVL30
 2036 01cc 0E00     		.2byte	0xe
 2037 01ce 70       		.byte	0x70
 2038 01cf 00       		.sleb128 0
 2039 01d0 08       		.byte	0x8
 2040 01d1 FF       		.byte	0xff
 2041 01d2 1A       		.byte	0x1a
 2042 01d3 72       		.byte	0x72
 2043 01d4 00       		.sleb128 0
 2044 01d5 1A       		.byte	0x1a
 2045 01d6 73       		.byte	0x73
 2046 01d7 00       		.sleb128 0
ARM GAS  /var/folders/7z/kps_xzfj7sn5l5gkyq8s9db00000gn/T//cc5x5WYY.s 			page 37


 2047 01d8 1A       		.byte	0x1a
 2048 01d9 30       		.byte	0x30
 2049 01da 2E       		.byte	0x2e
 2050 01db 9F       		.byte	0x9f
 2051 01dc 00000000 		.4byte	0
 2052 01e0 00000000 		.4byte	0
 2053              	.LLST12:
 2054 01e4 00000000 		.4byte	.LVL27
 2055 01e8 04000000 		.4byte	.LVL28
 2056 01ec 0200     		.2byte	0x2
 2057 01ee 30       		.byte	0x30
 2058 01ef 9F       		.byte	0x9f
 2059 01f0 04000000 		.4byte	.LVL28
 2060 01f4 08000000 		.4byte	.LVL30
 2061 01f8 0100     		.2byte	0x1
 2062 01fa 53       		.byte	0x53
 2063 01fb 00000000 		.4byte	0
 2064 01ff 00000000 		.4byte	0
 2065              	.LLST13:
 2066 0203 00000000 		.4byte	.LVL32
 2067 0207 02000000 		.4byte	.LVL33
 2068 020b 0100     		.2byte	0x1
 2069 020d 50       		.byte	0x50
 2070 020e 02000000 		.4byte	.LVL33
 2071 0212 10000000 		.4byte	.LFE127
 2072 0216 0400     		.2byte	0x4
 2073 0218 F3       		.byte	0xf3
 2074 0219 01       		.uleb128 0x1
 2075 021a 50       		.byte	0x50
 2076 021b 9F       		.byte	0x9f
 2077 021c 00000000 		.4byte	0
 2078 0220 00000000 		.4byte	0
 2079              		.section	.debug_aranges,"",%progbits
 2080 0000 9C000000 		.4byte	0x9c
 2081 0004 0200     		.2byte	0x2
 2082 0006 00000000 		.4byte	.Ldebug_info0
 2083 000a 04       		.byte	0x4
 2084 000b 00       		.byte	0
 2085 000c 0000     		.2byte	0
 2086 000e 0000     		.2byte	0
 2087 0010 00000000 		.4byte	.LFB111
 2088 0014 16000000 		.4byte	.LFE111-.LFB111
 2089 0018 00000000 		.4byte	.LFB112
 2090 001c 48000000 		.4byte	.LFE112-.LFB112
 2091 0020 00000000 		.4byte	.LFB113
 2092 0024 0C000000 		.4byte	.LFE113-.LFB113
 2093 0028 00000000 		.4byte	.LFB114
 2094 002c 10000000 		.4byte	.LFE114-.LFB114
 2095 0030 00000000 		.4byte	.LFB115
 2096 0034 18000000 		.4byte	.LFE115-.LFB115
 2097 0038 00000000 		.4byte	.LFB116
 2098 003c 0C000000 		.4byte	.LFE116-.LFB116
 2099 0040 00000000 		.4byte	.LFB117
 2100 0044 10000000 		.4byte	.LFE117-.LFB117
 2101 0048 00000000 		.4byte	.LFB118
 2102 004c 1C000000 		.4byte	.LFE118-.LFB118
 2103 0050 00000000 		.4byte	.LFB119
ARM GAS  /var/folders/7z/kps_xzfj7sn5l5gkyq8s9db00000gn/T//cc5x5WYY.s 			page 38


 2104 0054 10000000 		.4byte	.LFE119-.LFB119
 2105 0058 00000000 		.4byte	.LFB120
 2106 005c 2C000000 		.4byte	.LFE120-.LFB120
 2107 0060 00000000 		.4byte	.LFB121
 2108 0064 3C000000 		.4byte	.LFE121-.LFB121
 2109 0068 00000000 		.4byte	.LFB122
 2110 006c 1C000000 		.4byte	.LFE122-.LFB122
 2111 0070 00000000 		.4byte	.LFB123
 2112 0074 1C000000 		.4byte	.LFE123-.LFB123
 2113 0078 00000000 		.4byte	.LFB124
 2114 007c 18000000 		.4byte	.LFE124-.LFB124
 2115 0080 00000000 		.4byte	.LFB125
 2116 0084 0C000000 		.4byte	.LFE125-.LFB125
 2117 0088 00000000 		.4byte	.LFB126
 2118 008c 18000000 		.4byte	.LFE126-.LFB126
 2119 0090 00000000 		.4byte	.LFB127
 2120 0094 10000000 		.4byte	.LFE127-.LFB127
 2121 0098 00000000 		.4byte	0
 2122 009c 00000000 		.4byte	0
 2123              		.section	.debug_ranges,"",%progbits
 2124              	.Ldebug_ranges0:
 2125 0000 00000000 		.4byte	.LFB111
 2126 0004 16000000 		.4byte	.LFE111
 2127 0008 00000000 		.4byte	.LFB112
 2128 000c 48000000 		.4byte	.LFE112
 2129 0010 00000000 		.4byte	.LFB113
 2130 0014 0C000000 		.4byte	.LFE113
 2131 0018 00000000 		.4byte	.LFB114
 2132 001c 10000000 		.4byte	.LFE114
 2133 0020 00000000 		.4byte	.LFB115
 2134 0024 18000000 		.4byte	.LFE115
 2135 0028 00000000 		.4byte	.LFB116
 2136 002c 0C000000 		.4byte	.LFE116
 2137 0030 00000000 		.4byte	.LFB117
 2138 0034 10000000 		.4byte	.LFE117
 2139 0038 00000000 		.4byte	.LFB118
 2140 003c 1C000000 		.4byte	.LFE118
 2141 0040 00000000 		.4byte	.LFB119
 2142 0044 10000000 		.4byte	.LFE119
 2143 0048 00000000 		.4byte	.LFB120
 2144 004c 2C000000 		.4byte	.LFE120
 2145 0050 00000000 		.4byte	.LFB121
 2146 0054 3C000000 		.4byte	.LFE121
 2147 0058 00000000 		.4byte	.LFB122
 2148 005c 1C000000 		.4byte	.LFE122
 2149 0060 00000000 		.4byte	.LFB123
 2150 0064 1C000000 		.4byte	.LFE123
 2151 0068 00000000 		.4byte	.LFB124
 2152 006c 18000000 		.4byte	.LFE124
 2153 0070 00000000 		.4byte	.LFB125
 2154 0074 0C000000 		.4byte	.LFE125
 2155 0078 00000000 		.4byte	.LFB126
 2156 007c 18000000 		.4byte	.LFE126
 2157 0080 00000000 		.4byte	.LFB127
 2158 0084 10000000 		.4byte	.LFE127
 2159 0088 00000000 		.4byte	0
 2160 008c 00000000 		.4byte	0
ARM GAS  /var/folders/7z/kps_xzfj7sn5l5gkyq8s9db00000gn/T//cc5x5WYY.s 			page 39


 2161              		.section	.debug_line,"",%progbits
 2162              	.Ldebug_line0:
 2163 0000 2E030000 		.section	.debug_str,"MS",%progbits,1
 2163      0200B901 
 2163      00000201 
 2163      FB0E0D00 
 2163      01010101 
 2164              	.LASF65:
 2165 0000 474E5520 		.ascii	"GNU C 4.9.3 20150303 (release) [ARM/embedded-4_9-br"
 2165      4320342E 
 2165      392E3320 
 2165      32303135 
 2165      30333033 
 2166 0033 616E6368 		.ascii	"anch revision 221220] -mcpu=cortex-m4 -mfloat-abi=h"
 2166      20726576 
 2166      6973696F 
 2166      6E203232 
 2166      31323230 
 2167 0066 61726420 		.ascii	"ard -mfpu=fpv4-sp-d16 -mno-thumb-interwork -mthumb "
 2167      2D6D6670 
 2167      753D6670 
 2167      76342D73 
 2167      702D6431 
 2168 0099 2D676764 		.ascii	"-ggdb -O2 -std=gnu99 -fomit-frame-pointer -falign-f"
 2168      62202D4F 
 2168      32202D73 
 2168      74643D67 
 2168      6E753939 
 2169 00cc 756E6374 		.ascii	"unctions=16 -ffunction-sections -fdata-sections -fn"
 2169      696F6E73 
 2169      3D313620 
 2169      2D666675 
 2169      6E637469 
 2170 00ff 6F2D636F 		.ascii	"o-common -fsingle-precision-constant\000"
 2170      6D6D6F6E 
 2170      202D6673 
 2170      696E676C 
 2170      652D7072 
 2171              	.LASF28:
 2172 0124 48415348 		.ascii	"HASH_DataType\000"
 2172      5F446174 
 2172      61547970 
 2172      6500
 2173              	.LASF62:
 2174 0132 48415348 		.ascii	"HASH_GetITStatus\000"
 2174      5F476574 
 2174      49545374 
 2174      61747573 
 2174      00
 2175              	.LASF60:
 2176 0143 48415348 		.ascii	"HASH_ClearFlag\000"
 2176      5F436C65 
 2176      6172466C 
 2176      616700
 2177              	.LASF17:
 2178 0152 73697A65 		.ascii	"sizetype\000"
 2178      74797065 
ARM GAS  /var/folders/7z/kps_xzfj7sn5l5gkyq8s9db00000gn/T//cc5x5WYY.s 			page 40


 2178      00
 2179              	.LASF51:
 2180 015b 48415348 		.ascii	"HASH_RestoreContext\000"
 2180      5F526573 
 2180      746F7265 
 2180      436F6E74 
 2180      65787400 
 2181              	.LASF8:
 2182 016f 5F5F7569 		.ascii	"__uint32_t\000"
 2182      6E743332 
 2182      5F7400
 2183              	.LASF4:
 2184 017a 5F5F7569 		.ascii	"__uint16_t\000"
 2184      6E743136 
 2184      5F7400
 2185              	.LASF56:
 2186 0185 48415348 		.ascii	"HASH_IT\000"
 2186      5F495400 
 2187              	.LASF53:
 2188 018d 48415348 		.ascii	"HASH_DMACmd\000"
 2188      5F444D41 
 2188      436D6400 
 2189              	.LASF36:
 2190 0199 48415348 		.ascii	"HASH_CSR\000"
 2190      5F435352 
 2190      00
 2191              	.LASF45:
 2192 01a2 48415348 		.ascii	"HASH_GetDigest\000"
 2192      5F476574 
 2192      44696765 
 2192      737400
 2193              	.LASF13:
 2194 01b1 75696E74 		.ascii	"uint8_t\000"
 2194      385F7400 
 2195              	.LASF25:
 2196 01b9 48415348 		.ascii	"HASH_TypeDef\000"
 2196      5F547970 
 2196      65446566 
 2196      00
 2197              	.LASF54:
 2198 01c6 4E657753 		.ascii	"NewState\000"
 2198      74617465 
 2198      00
 2199              	.LASF21:
 2200 01cf 44495341 		.ascii	"DISABLE\000"
 2200      424C4500 
 2201              	.LASF2:
 2202 01d7 73686F72 		.ascii	"short int\000"
 2202      7420696E 
 2202      7400
 2203              	.LASF50:
 2204 01e1 48415348 		.ascii	"HASH_ContextSave\000"
 2204      5F436F6E 
 2204      74657874 
 2204      53617665 
 2204      00
 2205              	.LASF10:
ARM GAS  /var/folders/7z/kps_xzfj7sn5l5gkyq8s9db00000gn/T//cc5x5WYY.s 			page 41


 2206 01f2 6C6F6E67 		.ascii	"long long int\000"
 2206      206C6F6E 
 2206      6720696E 
 2206      7400
 2207              	.LASF23:
 2208 0200 46756E63 		.ascii	"FunctionalState\000"
 2208      74696F6E 
 2208      616C5374 
 2208      61746500 
 2209              	.LASF20:
 2210 0210 49545374 		.ascii	"ITStatus\000"
 2210      61747573 
 2210      00
 2211              	.LASF7:
 2212 0219 6C6F6E67 		.ascii	"long int\000"
 2212      20696E74 
 2212      00
 2213              	.LASF29:
 2214 0222 48415348 		.ascii	"HASH_HMACKeyType\000"
 2214      5F484D41 
 2214      434B6579 
 2214      54797065 
 2214      00
 2215              	.LASF44:
 2216 0233 48415348 		.ascii	"HASH_DataIn\000"
 2216      5F446174 
 2216      61496E00 
 2217              	.LASF66:
 2218 023f 6C69622F 		.ascii	"lib/ChibiOS_2.6.6/ext/stdperiph_stm32f4/src/stm32f4"
 2218      43686962 
 2218      694F535F 
 2218      322E362E 
 2218      362F6578 
 2219 0272 78785F68 		.ascii	"xx_hash.c\000"
 2219      6173682E 
 2219      6300
 2220              	.LASF3:
 2221 027c 5F5F7569 		.ascii	"__uint8_t\000"
 2221      6E74385F 
 2221      7400
 2222              	.LASF63:
 2223 0286 746D7072 		.ascii	"tmpreg\000"
 2223      656700
 2224              	.LASF49:
 2225 028d 48415348 		.ascii	"HASH_SaveContext\000"
 2225      5F536176 
 2225      65436F6E 
 2225      74657874 
 2225      00
 2226              	.LASF47:
 2227 029e 48415348 		.ascii	"HASH_Reset\000"
 2227      5F526573 
 2227      657400
 2228              	.LASF1:
 2229 02a9 756E7369 		.ascii	"unsigned char\000"
 2229      676E6564 
 2229      20636861 
ARM GAS  /var/folders/7z/kps_xzfj7sn5l5gkyq8s9db00000gn/T//cc5x5WYY.s 			page 42


 2229      7200
 2230              	.LASF32:
 2231 02b7 48415348 		.ascii	"HASH_MsgDigest\000"
 2231      5F4D7367 
 2231      44696765 
 2231      737400
 2232              	.LASF0:
 2233 02c6 7369676E 		.ascii	"signed char\000"
 2233      65642063 
 2233      68617200 
 2234              	.LASF26:
 2235 02d2 48415348 		.ascii	"HASH_AlgoSelection\000"
 2235      5F416C67 
 2235      6F53656C 
 2235      65637469 
 2235      6F6E00
 2236              	.LASF11:
 2237 02e5 6C6F6E67 		.ascii	"long long unsigned int\000"
 2237      206C6F6E 
 2237      6720756E 
 2237      7369676E 
 2237      65642069 
 2238              	.LASF16:
 2239 02fc 75696E74 		.ascii	"uint32_t\000"
 2239      33325F74 
 2239      00
 2240              	.LASF12:
 2241 0305 756E7369 		.ascii	"unsigned int\000"
 2241      676E6564 
 2241      20696E74 
 2241      00
 2242              	.LASF14:
 2243 0312 75696E74 		.ascii	"uint16_t\000"
 2243      31365F74 
 2243      00
 2244              	.LASF39:
 2245 031b 48415348 		.ascii	"HASH_Init\000"
 2245      5F496E69 
 2245      7400
 2246              	.LASF68:
 2247 0325 48415348 		.ascii	"HASH_GetInFIFOWordsNbr\000"
 2247      5F476574 
 2247      496E4649 
 2247      464F576F 
 2247      7264734E 
 2248              	.LASF37:
 2249 033c 48415348 		.ascii	"HASH_Context\000"
 2249      5F436F6E 
 2249      74657874 
 2249      00
 2250              	.LASF31:
 2251 0349 44617461 		.ascii	"Data\000"
 2251      00
 2252              	.LASF5:
 2253 034e 73686F72 		.ascii	"short unsigned int\000"
 2253      7420756E 
 2253      7369676E 
ARM GAS  /var/folders/7z/kps_xzfj7sn5l5gkyq8s9db00000gn/T//cc5x5WYY.s 			page 43


 2253      65642069 
 2253      6E7400
 2254              	.LASF35:
 2255 0361 48415348 		.ascii	"HASH_CR\000"
 2255      5F435200 
 2256              	.LASF34:
 2257 0369 48415348 		.ascii	"HASH_STR\000"
 2257      5F535452 
 2257      00
 2258              	.LASF15:
 2259 0372 696E7433 		.ascii	"int32_t\000"
 2259      325F7400 
 2260              	.LASF55:
 2261 037a 48415348 		.ascii	"HASH_ITConfig\000"
 2261      5F495443 
 2261      6F6E6669 
 2261      6700
 2262              	.LASF59:
 2263 0388 74656D70 		.ascii	"tempreg\000"
 2263      72656700 
 2264              	.LASF52:
 2265 0390 48415348 		.ascii	"HASH_ContextRestore\000"
 2265      5F436F6E 
 2265      74657874 
 2265      52657374 
 2265      6F726500 
 2266              	.LASF38:
 2267 03a4 48415348 		.ascii	"HASH_DeInit\000"
 2267      5F446549 
 2267      6E697400 
 2268              	.LASF48:
 2269 03b0 48415348 		.ascii	"HASH_StartDigest\000"
 2269      5F537461 
 2269      72744469 
 2269      67657374 
 2269      00
 2270              	.LASF70:
 2271 03c1 5243435F 		.ascii	"RCC_AHB2PeriphResetCmd\000"
 2271      41484232 
 2271      50657269 
 2271      70685265 
 2271      73657443 
 2272              	.LASF9:
 2273 03d8 6C6F6E67 		.ascii	"long unsigned int\000"
 2273      20756E73 
 2273      69676E65 
 2273      6420696E 
 2273      7400
 2274              	.LASF27:
 2275 03ea 48415348 		.ascii	"HASH_AlgoMode\000"
 2275      5F416C67 
 2275      6F4D6F64 
 2275      6500
 2276              	.LASF64:
 2277 03f8 48415348 		.ascii	"HASH_ClearITPendingBit\000"
 2277      5F436C65 
 2277      61724954 
ARM GAS  /var/folders/7z/kps_xzfj7sn5l5gkyq8s9db00000gn/T//cc5x5WYY.s 			page 44


 2277      50656E64 
 2277      696E6742 
 2278              	.LASF67:
 2279 040f 2F557365 		.ascii	"/Users/Baram/oroca_bldc_dev/oroca_bldc/\000"
 2279      72732F42 
 2279      6172616D 
 2279      2F6F726F 
 2279      63615F62 
 2280              	.LASF6:
 2281 0437 5F5F696E 		.ascii	"__int32_t\000"
 2281      7433325F 
 2281      7400
 2282              	.LASF18:
 2283 0441 52455345 		.ascii	"RESET\000"
 2283      5400
 2284              	.LASF43:
 2285 0447 56616C69 		.ascii	"ValidNumber\000"
 2285      644E756D 
 2285      62657200 
 2286              	.LASF42:
 2287 0453 48415348 		.ascii	"HASH_SetLastWordValidBitsNbr\000"
 2287      5F536574 
 2287      4C617374 
 2287      576F7264 
 2287      56616C69 
 2288              	.LASF46:
 2289 0470 48415348 		.ascii	"HASH_MessageDigest\000"
 2289      5F4D6573 
 2289      73616765 
 2289      44696765 
 2289      737400
 2290              	.LASF57:
 2291 0483 48415348 		.ascii	"HASH_FLAG\000"
 2291      5F464C41 
 2291      4700
 2292              	.LASF24:
 2293 048d 52455345 		.ascii	"RESERVED\000"
 2293      52564544 
 2293      00
 2294              	.LASF41:
 2295 0496 48415348 		.ascii	"HASH_InitStruct\000"
 2295      5F496E69 
 2295      74537472 
 2295      75637400 
 2296              	.LASF33:
 2297 04a6 48415348 		.ascii	"HASH_IMR\000"
 2297      5F494D52 
 2297      00
 2298              	.LASF69:
 2299 04af 49544D5F 		.ascii	"ITM_RxBuffer\000"
 2299      52784275 
 2299      66666572 
 2299      00
 2300              	.LASF58:
 2301 04bc 62697473 		.ascii	"bitstatus\000"
 2301      74617475 
 2301      7300
ARM GAS  /var/folders/7z/kps_xzfj7sn5l5gkyq8s9db00000gn/T//cc5x5WYY.s 			page 45


 2302              	.LASF40:
 2303 04c6 48415348 		.ascii	"HASH_StructInit\000"
 2303      5F537472 
 2303      75637449 
 2303      6E697400 
 2304              	.LASF19:
 2305 04d6 466C6167 		.ascii	"FlagStatus\000"
 2305      53746174 
 2305      757300
 2306              	.LASF22:
 2307 04e1 454E4142 		.ascii	"ENABLE\000"
 2307      4C4500
 2308              	.LASF30:
 2309 04e8 48415348 		.ascii	"HASH_InitTypeDef\000"
 2309      5F496E69 
 2309      74547970 
 2309      65446566 
 2309      00
 2310              	.LASF61:
 2311 04f9 48415348 		.ascii	"HASH_GetFlagStatus\000"
 2311      5F476574 
 2311      466C6167 
 2311      53746174 
 2311      757300
 2312              		.ident	"GCC: (GNU Tools for ARM Embedded Processors) 4.9.3 20150303 (release) [ARM/embedded-4_9-br
ARM GAS  /var/folders/7z/kps_xzfj7sn5l5gkyq8s9db00000gn/T//cc5x5WYY.s 			page 46


DEFINED SYMBOLS
                            *ABS*:0000000000000000 stm32f4xx_hash.c
/var/folders/7z/kps_xzfj7sn5l5gkyq8s9db00000gn/T//cc5x5WYY.s:21     .text.HASH_DeInit:0000000000000000 $t
/var/folders/7z/kps_xzfj7sn5l5gkyq8s9db00000gn/T//cc5x5WYY.s:27     .text.HASH_DeInit:0000000000000000 HASH_DeInit
/var/folders/7z/kps_xzfj7sn5l5gkyq8s9db00000gn/T//cc5x5WYY.s:58     .text.HASH_Init:0000000000000000 $t
/var/folders/7z/kps_xzfj7sn5l5gkyq8s9db00000gn/T//cc5x5WYY.s:64     .text.HASH_Init:0000000000000000 HASH_Init
/var/folders/7z/kps_xzfj7sn5l5gkyq8s9db00000gn/T//cc5x5WYY.s:124    .text.HASH_Init:0000000000000044 $d
/var/folders/7z/kps_xzfj7sn5l5gkyq8s9db00000gn/T//cc5x5WYY.s:129    .text.HASH_StructInit:0000000000000000 $t
/var/folders/7z/kps_xzfj7sn5l5gkyq8s9db00000gn/T//cc5x5WYY.s:135    .text.HASH_StructInit:0000000000000000 HASH_StructInit
/var/folders/7z/kps_xzfj7sn5l5gkyq8s9db00000gn/T//cc5x5WYY.s:157    .text.HASH_Reset:0000000000000000 $t
/var/folders/7z/kps_xzfj7sn5l5gkyq8s9db00000gn/T//cc5x5WYY.s:163    .text.HASH_Reset:0000000000000000 HASH_Reset
/var/folders/7z/kps_xzfj7sn5l5gkyq8s9db00000gn/T//cc5x5WYY.s:179    .text.HASH_Reset:000000000000000c $d
/var/folders/7z/kps_xzfj7sn5l5gkyq8s9db00000gn/T//cc5x5WYY.s:184    .text.HASH_SetLastWordValidBitsNbr:0000000000000000 $t
/var/folders/7z/kps_xzfj7sn5l5gkyq8s9db00000gn/T//cc5x5WYY.s:190    .text.HASH_SetLastWordValidBitsNbr:0000000000000000 HASH_SetLastWordValidBitsNbr
/var/folders/7z/kps_xzfj7sn5l5gkyq8s9db00000gn/T//cc5x5WYY.s:212    .text.HASH_SetLastWordValidBitsNbr:0000000000000014 $d
/var/folders/7z/kps_xzfj7sn5l5gkyq8s9db00000gn/T//cc5x5WYY.s:217    .text.HASH_DataIn:0000000000000000 $t
/var/folders/7z/kps_xzfj7sn5l5gkyq8s9db00000gn/T//cc5x5WYY.s:223    .text.HASH_DataIn:0000000000000000 HASH_DataIn
/var/folders/7z/kps_xzfj7sn5l5gkyq8s9db00000gn/T//cc5x5WYY.s:238    .text.HASH_DataIn:0000000000000008 $d
/var/folders/7z/kps_xzfj7sn5l5gkyq8s9db00000gn/T//cc5x5WYY.s:243    .text.HASH_GetInFIFOWordsNbr:0000000000000000 $t
/var/folders/7z/kps_xzfj7sn5l5gkyq8s9db00000gn/T//cc5x5WYY.s:249    .text.HASH_GetInFIFOWordsNbr:0000000000000000 HASH_GetInFIFOWordsNbr
/var/folders/7z/kps_xzfj7sn5l5gkyq8s9db00000gn/T//cc5x5WYY.s:265    .text.HASH_GetInFIFOWordsNbr:000000000000000c $d
/var/folders/7z/kps_xzfj7sn5l5gkyq8s9db00000gn/T//cc5x5WYY.s:270    .text.HASH_GetDigest:0000000000000000 $t
/var/folders/7z/kps_xzfj7sn5l5gkyq8s9db00000gn/T//cc5x5WYY.s:276    .text.HASH_GetDigest:0000000000000000 HASH_GetDigest
/var/folders/7z/kps_xzfj7sn5l5gkyq8s9db00000gn/T//cc5x5WYY.s:304    .text.HASH_GetDigest:0000000000000018 $d
/var/folders/7z/kps_xzfj7sn5l5gkyq8s9db00000gn/T//cc5x5WYY.s:309    .text.HASH_StartDigest:0000000000000000 $t
/var/folders/7z/kps_xzfj7sn5l5gkyq8s9db00000gn/T//cc5x5WYY.s:315    .text.HASH_StartDigest:0000000000000000 HASH_StartDigest
/var/folders/7z/kps_xzfj7sn5l5gkyq8s9db00000gn/T//cc5x5WYY.s:331    .text.HASH_StartDigest:000000000000000c $d
/var/folders/7z/kps_xzfj7sn5l5gkyq8s9db00000gn/T//cc5x5WYY.s:336    .text.HASH_SaveContext:0000000000000000 $t
/var/folders/7z/kps_xzfj7sn5l5gkyq8s9db00000gn/T//cc5x5WYY.s:342    .text.HASH_SaveContext:0000000000000000 HASH_SaveContext
/var/folders/7z/kps_xzfj7sn5l5gkyq8s9db00000gn/T//cc5x5WYY.s:378    .text.HASH_SaveContext:0000000000000028 $d
/var/folders/7z/kps_xzfj7sn5l5gkyq8s9db00000gn/T//cc5x5WYY.s:383    .text.HASH_RestoreContext:0000000000000000 $t
/var/folders/7z/kps_xzfj7sn5l5gkyq8s9db00000gn/T//cc5x5WYY.s:389    .text.HASH_RestoreContext:0000000000000000 HASH_RestoreContext
/var/folders/7z/kps_xzfj7sn5l5gkyq8s9db00000gn/T//cc5x5WYY.s:440    .text.HASH_RestoreContext:0000000000000038 $d
/var/folders/7z/kps_xzfj7sn5l5gkyq8s9db00000gn/T//cc5x5WYY.s:445    .text.HASH_DMACmd:0000000000000000 $t
/var/folders/7z/kps_xzfj7sn5l5gkyq8s9db00000gn/T//cc5x5WYY.s:451    .text.HASH_DMACmd:0000000000000000 HASH_DMACmd
/var/folders/7z/kps_xzfj7sn5l5gkyq8s9db00000gn/T//cc5x5WYY.s:476    .text.HASH_DMACmd:0000000000000018 $d
/var/folders/7z/kps_xzfj7sn5l5gkyq8s9db00000gn/T//cc5x5WYY.s:481    .text.HASH_ITConfig:0000000000000000 $t
/var/folders/7z/kps_xzfj7sn5l5gkyq8s9db00000gn/T//cc5x5WYY.s:487    .text.HASH_ITConfig:0000000000000000 HASH_ITConfig
/var/folders/7z/kps_xzfj7sn5l5gkyq8s9db00000gn/T//cc5x5WYY.s:516    .text.HASH_ITConfig:0000000000000018 $d
/var/folders/7z/kps_xzfj7sn5l5gkyq8s9db00000gn/T//cc5x5WYY.s:521    .text.HASH_GetFlagStatus:0000000000000000 $t
/var/folders/7z/kps_xzfj7sn5l5gkyq8s9db00000gn/T//cc5x5WYY.s:527    .text.HASH_GetFlagStatus:0000000000000000 HASH_GetFlagStatus
/var/folders/7z/kps_xzfj7sn5l5gkyq8s9db00000gn/T//cc5x5WYY.s:557    .text.HASH_GetFlagStatus:0000000000000014 $d
/var/folders/7z/kps_xzfj7sn5l5gkyq8s9db00000gn/T//cc5x5WYY.s:562    .text.HASH_ClearFlag:0000000000000000 $t
/var/folders/7z/kps_xzfj7sn5l5gkyq8s9db00000gn/T//cc5x5WYY.s:568    .text.HASH_ClearFlag:0000000000000000 HASH_ClearFlag
/var/folders/7z/kps_xzfj7sn5l5gkyq8s9db00000gn/T//cc5x5WYY.s:585    .text.HASH_ClearFlag:0000000000000008 $d
/var/folders/7z/kps_xzfj7sn5l5gkyq8s9db00000gn/T//cc5x5WYY.s:590    .text.HASH_GetITStatus:0000000000000000 $t
/var/folders/7z/kps_xzfj7sn5l5gkyq8s9db00000gn/T//cc5x5WYY.s:596    .text.HASH_GetITStatus:0000000000000000 HASH_GetITStatus
/var/folders/7z/kps_xzfj7sn5l5gkyq8s9db00000gn/T//cc5x5WYY.s:623    .text.HASH_GetITStatus:0000000000000014 $d
/var/folders/7z/kps_xzfj7sn5l5gkyq8s9db00000gn/T//cc5x5WYY.s:628    .text.HASH_ClearITPendingBit:0000000000000000 $t
/var/folders/7z/kps_xzfj7sn5l5gkyq8s9db00000gn/T//cc5x5WYY.s:634    .text.HASH_ClearITPendingBit:0000000000000000 HASH_ClearITPendingBit
/var/folders/7z/kps_xzfj7sn5l5gkyq8s9db00000gn/T//cc5x5WYY.s:652    .text.HASH_ClearITPendingBit:000000000000000c $d
                     .debug_frame:0000000000000010 $d
/var/folders/7z/kps_xzfj7sn5l5gkyq8s9db00000gn/T//cc5x5WYY.s:128    .text.HASH_Init:0000000000000048 $t
/var/folders/7z/kps_xzfj7sn5l5gkyq8s9db00000gn/T//cc5x5WYY.s:216    .text.HASH_SetLastWordValidBitsNbr:0000000000000018 $t
/var/folders/7z/kps_xzfj7sn5l5gkyq8s9db00000gn/T//cc5x5WYY.s:242    .text.HASH_DataIn:000000000000000c $t
/var/folders/7z/kps_xzfj7sn5l5gkyq8s9db00000gn/T//cc5x5WYY.s:308    .text.HASH_GetDigest:000000000000001c $t
/var/folders/7z/kps_xzfj7sn5l5gkyq8s9db00000gn/T//cc5x5WYY.s:382    .text.HASH_SaveContext:000000000000002c $t
ARM GAS  /var/folders/7z/kps_xzfj7sn5l5gkyq8s9db00000gn/T//cc5x5WYY.s 			page 47


/var/folders/7z/kps_xzfj7sn5l5gkyq8s9db00000gn/T//cc5x5WYY.s:444    .text.HASH_RestoreContext:000000000000003c $t
/var/folders/7z/kps_xzfj7sn5l5gkyq8s9db00000gn/T//cc5x5WYY.s:480    .text.HASH_DMACmd:000000000000001c $t
/var/folders/7z/kps_xzfj7sn5l5gkyq8s9db00000gn/T//cc5x5WYY.s:520    .text.HASH_ITConfig:000000000000001c $t
/var/folders/7z/kps_xzfj7sn5l5gkyq8s9db00000gn/T//cc5x5WYY.s:561    .text.HASH_GetFlagStatus:0000000000000018 $t
/var/folders/7z/kps_xzfj7sn5l5gkyq8s9db00000gn/T//cc5x5WYY.s:589    .text.HASH_ClearFlag:000000000000000c $t
/var/folders/7z/kps_xzfj7sn5l5gkyq8s9db00000gn/T//cc5x5WYY.s:627    .text.HASH_GetITStatus:0000000000000018 $t

UNDEFINED SYMBOLS
RCC_AHB2PeriphResetCmd
