ARM GAS  /var/folders/bz/nn5481rn5xq59rb0mbj7x0880000gn/T//ccTH9v2C.s 			page 1


   1              		.syntax unified
   2              		.cpu cortex-m4
   3              		.eabi_attribute 27, 1
   4              		.eabi_attribute 28, 1
   5              		.fpu fpv4-sp-d16
   6              		.eabi_attribute 20, 1
   7              		.eabi_attribute 21, 1
   8              		.eabi_attribute 23, 3
   9              		.eabi_attribute 24, 1
  10              		.eabi_attribute 25, 1
  11              		.eabi_attribute 26, 1
  12              		.eabi_attribute 30, 2
  13              		.eabi_attribute 34, 1
  14              		.eabi_attribute 18, 4
  15              		.thumb
  16              		.file	"stm32f4xx_dcmi.c"
  17              		.text
  18              	.Ltext0:
  19              		.cfi_sections	.debug_frame
  20              		.section	.text.DCMI_DeInit,"ax",%progbits
  21              		.align	2
  22              		.p2align 4,,15
  23              		.global	DCMI_DeInit
  24              		.thumb
  25              		.thumb_func
  26              		.type	DCMI_DeInit, %function
  27              	DCMI_DeInit:
  28              	.LFB111:
  29              		.file 1 "lib/ChibiOS_2.6.6/ext/stdperiph_stm32f4/src/stm32f4xx_dcmi.c"
  30              		.loc 1 129 0
  31              		.cfi_startproc
  32              		@ args = 0, pretend = 0, frame = 0
  33              		@ frame_needed = 0, uses_anonymous_args = 0
  34              		@ link register save eliminated.
  35              		.loc 1 130 0
  36 0000 054B     		ldr	r3, .L2
  37 0002 0022     		movs	r2, #0
  38              		.loc 1 132 0
  39 0004 1F21     		movs	r1, #31
  40              		.loc 1 130 0
  41 0006 1A60     		str	r2, [r3]
  42              		.loc 1 131 0
  43 0008 DA60     		str	r2, [r3, #12]
  44              		.loc 1 132 0
  45 000a 5961     		str	r1, [r3, #20]
  46              		.loc 1 133 0
  47 000c 9A61     		str	r2, [r3, #24]
  48              		.loc 1 134 0
  49 000e DA61     		str	r2, [r3, #28]
  50              		.loc 1 135 0
  51 0010 1A62     		str	r2, [r3, #32]
  52              		.loc 1 136 0
  53 0012 5A62     		str	r2, [r3, #36]
  54 0014 7047     		bx	lr
  55              	.L3:
  56 0016 00BF     		.align	2
  57              	.L2:
ARM GAS  /var/folders/bz/nn5481rn5xq59rb0mbj7x0880000gn/T//ccTH9v2C.s 			page 2


  58 0018 00000550 		.word	1342504960
  59              		.cfi_endproc
  60              	.LFE111:
  61              		.size	DCMI_DeInit, .-DCMI_DeInit
  62              		.section	.text.DCMI_Init,"ax",%progbits
  63              		.align	2
  64              		.p2align 4,,15
  65              		.global	DCMI_Init
  66              		.thumb
  67              		.thumb_func
  68              		.type	DCMI_Init, %function
  69              	DCMI_Init:
  70              	.LFB112:
  71              		.loc 1 146 0
  72              		.cfi_startproc
  73              		@ args = 0, pretend = 0, frame = 0
  74              		@ frame_needed = 0, uses_anonymous_args = 0
  75              	.LVL0:
  76 0000 F0B5     		push	{r4, r5, r6, r7, lr}
  77              		.cfi_def_cfa_offset 20
  78              		.cfi_offset 4, -20
  79              		.cfi_offset 5, -16
  80              		.cfi_offset 6, -12
  81              		.cfi_offset 7, -8
  82              		.cfi_offset 14, -4
  83              		.loc 1 160 0
  84 0002 104D     		ldr	r5, .L6
  85              		.loc 1 175 0
  86 0004 B0F802C0 		ldrh	ip, [r0, #2]
  87 0008 0288     		ldrh	r2, [r0]
  88              		.loc 1 160 0
  89 000a 2C68     		ldr	r4, [r5]
  90              		.loc 1 175 0
  91 000c B0F804E0 		ldrh	lr, [r0, #4]
  92 0010 0389     		ldrh	r3, [r0, #8]
  93 0012 C788     		ldrh	r7, [r0, #6]
  94 0014 4689     		ldrh	r6, [r0, #10]
  95 0016 8189     		ldrh	r1, [r0, #12]
  96 0018 4CEA0202 		orr	r2, ip, r2
  97              		.loc 1 160 0
  98 001c 24F48040 		bic	r0, r4, #16384
  99              	.LVL1:
 100              		.loc 1 175 0
 101 0020 42EA0E02 		orr	r2, r2, lr
 102              		.loc 1 160 0
 103 0024 20F00100 		bic	r0, r0, #1
 104 0028 2860     		str	r0, [r5]
 105              		.loc 1 175 0
 106 002a 3A43     		orrs	r2, r2, r7
 107 002c 1A43     		orrs	r2, r2, r3
 108              		.loc 1 163 0
 109 002e 2B68     		ldr	r3, [r5]
 110              	.LVL2:
 111              		.loc 1 175 0
 112 0030 3243     		orrs	r2, r2, r6
 113 0032 0A43     		orrs	r2, r2, r1
 114              		.loc 1 165 0
ARM GAS  /var/folders/bz/nn5481rn5xq59rb0mbj7x0880000gn/T//ccTH9v2C.s 			page 3


 115 0034 23F47F63 		bic	r3, r3, #4080
 116              	.LVL3:
 117              		.loc 1 175 0
 118 0038 92B2     		uxth	r2, r2
 119              		.loc 1 165 0
 120 003a 23F00203 		bic	r3, r3, #2
 121              	.LVL4:
 122              		.loc 1 170 0
 123 003e 1343     		orrs	r3, r3, r2
 124              	.LVL5:
 125              		.loc 1 178 0
 126 0040 2B60     		str	r3, [r5]
 127 0042 F0BD     		pop	{r4, r5, r6, r7, pc}
 128              	.L7:
 129              		.align	2
 130              	.L6:
 131 0044 00000550 		.word	1342504960
 132              		.cfi_endproc
 133              	.LFE112:
 134              		.size	DCMI_Init, .-DCMI_Init
 135              		.section	.text.DCMI_StructInit,"ax",%progbits
 136              		.align	2
 137              		.p2align 4,,15
 138              		.global	DCMI_StructInit
 139              		.thumb
 140              		.thumb_func
 141              		.type	DCMI_StructInit, %function
 142              	DCMI_StructInit:
 143              	.LFB113:
 144              		.loc 1 188 0
 145              		.cfi_startproc
 146              		@ args = 0, pretend = 0, frame = 0
 147              		@ frame_needed = 0, uses_anonymous_args = 0
 148              		@ link register save eliminated.
 149              	.LVL6:
 150              		.loc 1 190 0
 151 0000 0023     		movs	r3, #0
 152 0002 0380     		strh	r3, [r0]	@ movhi
 153              		.loc 1 191 0
 154 0004 4380     		strh	r3, [r0, #2]	@ movhi
 155              		.loc 1 192 0
 156 0006 8380     		strh	r3, [r0, #4]	@ movhi
 157              		.loc 1 193 0
 158 0008 C380     		strh	r3, [r0, #6]	@ movhi
 159              		.loc 1 194 0
 160 000a 0381     		strh	r3, [r0, #8]	@ movhi
 161              		.loc 1 195 0
 162 000c 4381     		strh	r3, [r0, #10]	@ movhi
 163              		.loc 1 196 0
 164 000e 8381     		strh	r3, [r0, #12]	@ movhi
 165 0010 7047     		bx	lr
 166              		.cfi_endproc
 167              	.LFE113:
 168              		.size	DCMI_StructInit, .-DCMI_StructInit
 169 0012 00BF     		.section	.text.DCMI_CROPConfig,"ax",%progbits
 170              		.align	2
 171              		.p2align 4,,15
ARM GAS  /var/folders/bz/nn5481rn5xq59rb0mbj7x0880000gn/T//ccTH9v2C.s 			page 4


 172              		.global	DCMI_CROPConfig
 173              		.thumb
 174              		.thumb_func
 175              		.type	DCMI_CROPConfig, %function
 176              	DCMI_CROPConfig:
 177              	.LFB114:
 178              		.loc 1 208 0
 179              		.cfi_startproc
 180              		@ args = 0, pretend = 0, frame = 0
 181              		@ frame_needed = 0, uses_anonymous_args = 0
 182              		@ link register save eliminated.
 183              	.LVL7:
 184 0000 30B4     		push	{r4, r5}
 185              		.cfi_def_cfa_offset 8
 186              		.cfi_offset 4, -8
 187              		.cfi_offset 5, -4
 188              		.loc 1 210 0
 189 0002 4288     		ldrh	r2, [r0, #2]
 190              		.loc 1 211 0
 191 0004 0588     		ldrh	r5, [r0]
 192              		.loc 1 215 0
 193 0006 8488     		ldrh	r4, [r0, #4]
 194              		.loc 1 214 0
 195 0008 C388     		ldrh	r3, [r0, #6]
 196              		.loc 1 210 0
 197 000a 0449     		ldr	r1, .L11
 198 000c 42EA0542 		orr	r2, r2, r5, lsl #16
 199              		.loc 1 214 0
 200 0010 43EA0443 		orr	r3, r3, r4, lsl #16
 201              		.loc 1 210 0
 202 0014 0A62     		str	r2, [r1, #32]
 203              		.loc 1 216 0
 204 0016 30BC     		pop	{r4, r5}
 205              		.cfi_restore 5
 206              		.cfi_restore 4
 207              		.cfi_def_cfa_offset 0
 208              		.loc 1 214 0
 209 0018 4B62     		str	r3, [r1, #36]
 210              		.loc 1 216 0
 211 001a 7047     		bx	lr
 212              	.L12:
 213              		.align	2
 214              	.L11:
 215 001c 00000550 		.word	1342504960
 216              		.cfi_endproc
 217              	.LFE114:
 218              		.size	DCMI_CROPConfig, .-DCMI_CROPConfig
 219              		.section	.text.DCMI_CROPCmd,"ax",%progbits
 220              		.align	2
 221              		.p2align 4,,15
 222              		.global	DCMI_CROPCmd
 223              		.thumb
 224              		.thumb_func
 225              		.type	DCMI_CROPCmd, %function
 226              	DCMI_CROPCmd:
 227              	.LFB115:
 228              		.loc 1 226 0
ARM GAS  /var/folders/bz/nn5481rn5xq59rb0mbj7x0880000gn/T//ccTH9v2C.s 			page 5


 229              		.cfi_startproc
 230              		@ args = 0, pretend = 0, frame = 0
 231              		@ frame_needed = 0, uses_anonymous_args = 0
 232              		@ link register save eliminated.
 233              	.LVL8:
 234              		.loc 1 233 0
 235 0000 054A     		ldr	r2, .L18
 236 0002 1368     		ldr	r3, [r2]
 237              		.loc 1 230 0
 238 0004 18B9     		cbnz	r0, .L17
 239              		.loc 1 238 0
 240 0006 23F00403 		bic	r3, r3, #4
 241 000a 1360     		str	r3, [r2]
 242 000c 7047     		bx	lr
 243              	.L17:
 244              		.loc 1 233 0
 245 000e 43F00403 		orr	r3, r3, #4
 246 0012 1360     		str	r3, [r2]
 247 0014 7047     		bx	lr
 248              	.L19:
 249 0016 00BF     		.align	2
 250              	.L18:
 251 0018 00000550 		.word	1342504960
 252              		.cfi_endproc
 253              	.LFE115:
 254              		.size	DCMI_CROPCmd, .-DCMI_CROPCmd
 255              		.section	.text.DCMI_SetEmbeddedSynchroCodes,"ax",%progbits
 256              		.align	2
 257              		.p2align 4,,15
 258              		.global	DCMI_SetEmbeddedSynchroCodes
 259              		.thumb
 260              		.thumb_func
 261              		.type	DCMI_SetEmbeddedSynchroCodes, %function
 262              	DCMI_SetEmbeddedSynchroCodes:
 263              	.LFB116:
 264              		.loc 1 249 0
 265              		.cfi_startproc
 266              		@ args = 0, pretend = 0, frame = 0
 267              		@ frame_needed = 0, uses_anonymous_args = 0
 268              		@ link register save eliminated.
 269              	.LVL9:
 270 0000 10B4     		push	{r4}
 271              		.cfi_def_cfa_offset 4
 272              		.cfi_offset 4, -4
 273              		.loc 1 252 0
 274 0002 8178     		ldrb	r1, [r0, #2]	@ zero_extendqisi2
 275              		.loc 1 251 0
 276 0004 4378     		ldrb	r3, [r0, #1]	@ zero_extendqisi2
 277              		.loc 1 250 0
 278 0006 0278     		ldrb	r2, [r0]	@ zero_extendqisi2
 279              		.loc 1 253 0
 280 0008 C078     		ldrb	r0, [r0, #3]	@ zero_extendqisi2
 281              	.LVL10:
 282              		.loc 1 250 0
 283 000a 054C     		ldr	r4, .L22
 284              		.loc 1 252 0
 285 000c 0904     		lsls	r1, r1, #16
ARM GAS  /var/folders/bz/nn5481rn5xq59rb0mbj7x0880000gn/T//ccTH9v2C.s 			page 6


 286 000e 41EA0323 		orr	r3, r1, r3, lsl #8
 287              		.loc 1 251 0
 288 0012 1343     		orrs	r3, r3, r2
 289              		.loc 1 250 0
 290 0014 43EA0063 		orr	r3, r3, r0, lsl #24
 291 0018 A361     		str	r3, [r4, #24]
 292              		.loc 1 254 0
 293 001a 5DF8044B 		ldr	r4, [sp], #4
 294              		.cfi_restore 4
 295              		.cfi_def_cfa_offset 0
 296 001e 7047     		bx	lr
 297              	.L23:
 298              		.align	2
 299              	.L22:
 300 0020 00000550 		.word	1342504960
 301              		.cfi_endproc
 302              	.LFE116:
 303              		.size	DCMI_SetEmbeddedSynchroCodes, .-DCMI_SetEmbeddedSynchroCodes
 304              		.section	.text.DCMI_JPEGCmd,"ax",%progbits
 305              		.align	2
 306              		.p2align 4,,15
 307              		.global	DCMI_JPEGCmd
 308              		.thumb
 309              		.thumb_func
 310              		.type	DCMI_JPEGCmd, %function
 311              	DCMI_JPEGCmd:
 312              	.LFB117:
 313              		.loc 1 264 0
 314              		.cfi_startproc
 315              		@ args = 0, pretend = 0, frame = 0
 316              		@ frame_needed = 0, uses_anonymous_args = 0
 317              		@ link register save eliminated.
 318              	.LVL11:
 319              		.loc 1 271 0
 320 0000 054A     		ldr	r2, .L28
 321 0002 1368     		ldr	r3, [r2]
 322              		.loc 1 268 0
 323 0004 18B9     		cbnz	r0, .L27
 324              		.loc 1 276 0
 325 0006 23F00803 		bic	r3, r3, #8
 326 000a 1360     		str	r3, [r2]
 327 000c 7047     		bx	lr
 328              	.L27:
 329              		.loc 1 271 0
 330 000e 43F00803 		orr	r3, r3, #8
 331 0012 1360     		str	r3, [r2]
 332 0014 7047     		bx	lr
 333              	.L29:
 334 0016 00BF     		.align	2
 335              	.L28:
 336 0018 00000550 		.word	1342504960
 337              		.cfi_endproc
 338              	.LFE117:
 339              		.size	DCMI_JPEGCmd, .-DCMI_JPEGCmd
 340              		.section	.text.DCMI_Cmd,"ax",%progbits
 341              		.align	2
 342              		.p2align 4,,15
ARM GAS  /var/folders/bz/nn5481rn5xq59rb0mbj7x0880000gn/T//ccTH9v2C.s 			page 7


 343              		.global	DCMI_Cmd
 344              		.thumb
 345              		.thumb_func
 346              		.type	DCMI_Cmd, %function
 347              	DCMI_Cmd:
 348              	.LFB118:
 349              		.loc 1 302 0
 350              		.cfi_startproc
 351              		@ args = 0, pretend = 0, frame = 0
 352              		@ frame_needed = 0, uses_anonymous_args = 0
 353              		@ link register save eliminated.
 354              	.LVL12:
 355              		.loc 1 309 0
 356 0000 054A     		ldr	r2, .L34
 357 0002 1368     		ldr	r3, [r2]
 358              		.loc 1 306 0
 359 0004 18B9     		cbnz	r0, .L33
 360              		.loc 1 314 0
 361 0006 23F48043 		bic	r3, r3, #16384
 362 000a 1360     		str	r3, [r2]
 363 000c 7047     		bx	lr
 364              	.L33:
 365              		.loc 1 309 0
 366 000e 43F48043 		orr	r3, r3, #16384
 367 0012 1360     		str	r3, [r2]
 368 0014 7047     		bx	lr
 369              	.L35:
 370 0016 00BF     		.align	2
 371              	.L34:
 372 0018 00000550 		.word	1342504960
 373              		.cfi_endproc
 374              	.LFE118:
 375              		.size	DCMI_Cmd, .-DCMI_Cmd
 376              		.section	.text.DCMI_CaptureCmd,"ax",%progbits
 377              		.align	2
 378              		.p2align 4,,15
 379              		.global	DCMI_CaptureCmd
 380              		.thumb
 381              		.thumb_func
 382              		.type	DCMI_CaptureCmd, %function
 383              	DCMI_CaptureCmd:
 384              	.LFB119:
 385              		.loc 1 325 0
 386              		.cfi_startproc
 387              		@ args = 0, pretend = 0, frame = 0
 388              		@ frame_needed = 0, uses_anonymous_args = 0
 389              		@ link register save eliminated.
 390              	.LVL13:
 391              		.loc 1 332 0
 392 0000 054A     		ldr	r2, .L40
 393 0002 1368     		ldr	r3, [r2]
 394              		.loc 1 329 0
 395 0004 18B9     		cbnz	r0, .L39
 396              		.loc 1 337 0
 397 0006 23F00103 		bic	r3, r3, #1
 398 000a 1360     		str	r3, [r2]
 399 000c 7047     		bx	lr
ARM GAS  /var/folders/bz/nn5481rn5xq59rb0mbj7x0880000gn/T//ccTH9v2C.s 			page 8


 400              	.L39:
 401              		.loc 1 332 0
 402 000e 43F00103 		orr	r3, r3, #1
 403 0012 1360     		str	r3, [r2]
 404 0014 7047     		bx	lr
 405              	.L41:
 406 0016 00BF     		.align	2
 407              	.L40:
 408 0018 00000550 		.word	1342504960
 409              		.cfi_endproc
 410              	.LFE119:
 411              		.size	DCMI_CaptureCmd, .-DCMI_CaptureCmd
 412              		.section	.text.DCMI_ReadData,"ax",%progbits
 413              		.align	2
 414              		.p2align 4,,15
 415              		.global	DCMI_ReadData
 416              		.thumb
 417              		.thumb_func
 418              		.type	DCMI_ReadData, %function
 419              	DCMI_ReadData:
 420              	.LFB120:
 421              		.loc 1 347 0
 422              		.cfi_startproc
 423              		@ args = 0, pretend = 0, frame = 0
 424              		@ frame_needed = 0, uses_anonymous_args = 0
 425              		@ link register save eliminated.
 426              		.loc 1 348 0
 427 0000 014B     		ldr	r3, .L43
 428 0002 986A     		ldr	r0, [r3, #40]
 429              		.loc 1 349 0
 430 0004 7047     		bx	lr
 431              	.L44:
 432 0006 00BF     		.align	2
 433              	.L43:
 434 0008 00000550 		.word	1342504960
 435              		.cfi_endproc
 436              	.LFE120:
 437              		.size	DCMI_ReadData, .-DCMI_ReadData
 438              		.section	.text.DCMI_ITConfig,"ax",%progbits
 439              		.align	2
 440              		.p2align 4,,15
 441              		.global	DCMI_ITConfig
 442              		.thumb
 443              		.thumb_func
 444              		.type	DCMI_ITConfig, %function
 445              	DCMI_ITConfig:
 446              	.LFB121:
 447              		.loc 1 380 0
 448              		.cfi_startproc
 449              		@ args = 0, pretend = 0, frame = 0
 450              		@ frame_needed = 0, uses_anonymous_args = 0
 451              		@ link register save eliminated.
 452              	.LVL14:
 453              		.loc 1 388 0
 454 0000 054A     		ldr	r2, .L49
 455              		.loc 1 385 0
 456 0002 29B9     		cbnz	r1, .L48
ARM GAS  /var/folders/bz/nn5481rn5xq59rb0mbj7x0880000gn/T//ccTH9v2C.s 			page 9


 457              		.loc 1 393 0
 458 0004 D368     		ldr	r3, [r2, #12]
 459 0006 C043     		mvns	r0, r0
 460              	.LVL15:
 461 0008 80B2     		uxth	r0, r0
 462 000a 1840     		ands	r0, r0, r3
 463 000c D060     		str	r0, [r2, #12]
 464 000e 7047     		bx	lr
 465              	.LVL16:
 466              	.L48:
 467              		.loc 1 388 0
 468 0010 D368     		ldr	r3, [r2, #12]
 469 0012 1843     		orrs	r0, r0, r3
 470              	.LVL17:
 471 0014 D060     		str	r0, [r2, #12]
 472 0016 7047     		bx	lr
 473              	.L50:
 474              		.align	2
 475              	.L49:
 476 0018 00000550 		.word	1342504960
 477              		.cfi_endproc
 478              	.LFE121:
 479              		.size	DCMI_ITConfig, .-DCMI_ITConfig
 480              		.section	.text.DCMI_GetFlagStatus,"ax",%progbits
 481              		.align	2
 482              		.p2align 4,,15
 483              		.global	DCMI_GetFlagStatus
 484              		.thumb
 485              		.thumb_func
 486              		.type	DCMI_GetFlagStatus, %function
 487              	DCMI_GetFlagStatus:
 488              	.LFB122:
 489              		.loc 1 417 0
 490              		.cfi_startproc
 491              		@ args = 0, pretend = 0, frame = 0
 492              		@ frame_needed = 0, uses_anonymous_args = 0
 493              		@ link register save eliminated.
 494              	.LVL18:
 495              		.loc 1 427 0
 496 0000 030B     		lsrs	r3, r0, #12
 497              	.LVL19:
 498 0002 06D1     		bne	.L52
 499              		.loc 1 429 0
 500 0004 064B     		ldr	r3, .L55
 501              	.LVL20:
 502 0006 9B68     		ldr	r3, [r3, #8]
 503              	.LVL21:
 504              	.L53:
 505              		.loc 1 440 0
 506 0008 0342     		tst	r3, r0
 507              		.loc 1 450 0
 508 000a 14BF     		ite	ne
 509 000c 0120     		movne	r0, #1
 510              	.LVL22:
 511 000e 0020     		moveq	r0, #0
 512 0010 7047     		bx	lr
 513              	.LVL23:
ARM GAS  /var/folders/bz/nn5481rn5xq59rb0mbj7x0880000gn/T//ccTH9v2C.s 			page 10


 514              	.L52:
 515              		.loc 1 431 0
 516 0012 022B     		cmp	r3, #2
 517              		.loc 1 433 0
 518 0014 024B     		ldr	r3, .L55
 519              	.LVL24:
 520 0016 0CBF     		ite	eq
 521 0018 5B68     		ldreq	r3, [r3, #4]
 522              	.LVL25:
 523              		.loc 1 437 0
 524 001a 1B69     		ldrne	r3, [r3, #16]
 525              	.LVL26:
 526 001c F4E7     		b	.L53
 527              	.L56:
 528 001e 00BF     		.align	2
 529              	.L55:
 530 0020 00000550 		.word	1342504960
 531              		.cfi_endproc
 532              	.LFE122:
 533              		.size	DCMI_GetFlagStatus, .-DCMI_GetFlagStatus
 534              		.section	.text.DCMI_ClearFlag,"ax",%progbits
 535              		.align	2
 536              		.p2align 4,,15
 537              		.global	DCMI_ClearFlag
 538              		.thumb
 539              		.thumb_func
 540              		.type	DCMI_ClearFlag, %function
 541              	DCMI_ClearFlag:
 542              	.LFB123:
 543              		.loc 1 464 0
 544              		.cfi_startproc
 545              		@ args = 0, pretend = 0, frame = 0
 546              		@ frame_needed = 0, uses_anonymous_args = 0
 547              		@ link register save eliminated.
 548              	.LVL27:
 549              		.loc 1 471 0
 550 0000 014B     		ldr	r3, .L58
 551 0002 5861     		str	r0, [r3, #20]
 552 0004 7047     		bx	lr
 553              	.L59:
 554 0006 00BF     		.align	2
 555              	.L58:
 556 0008 00000550 		.word	1342504960
 557              		.cfi_endproc
 558              	.LFE123:
 559              		.size	DCMI_ClearFlag, .-DCMI_ClearFlag
 560              		.section	.text.DCMI_GetITStatus,"ax",%progbits
 561              		.align	2
 562              		.p2align 4,,15
 563              		.global	DCMI_GetITStatus
 564              		.thumb
 565              		.thumb_func
 566              		.type	DCMI_GetITStatus, %function
 567              	DCMI_GetITStatus:
 568              	.LFB124:
 569              		.loc 1 486 0
 570              		.cfi_startproc
ARM GAS  /var/folders/bz/nn5481rn5xq59rb0mbj7x0880000gn/T//ccTH9v2C.s 			page 11


 571              		@ args = 0, pretend = 0, frame = 0
 572              		@ frame_needed = 0, uses_anonymous_args = 0
 573              		@ link register save eliminated.
 574              	.LVL28:
 575              		.loc 1 493 0
 576 0000 034B     		ldr	r3, .L61
 577 0002 1B69     		ldr	r3, [r3, #16]
 578              	.LVL29:
 579              		.loc 1 495 0
 580 0004 1842     		tst	r0, r3
 581              		.loc 1 504 0
 582 0006 14BF     		ite	ne
 583 0008 0120     		movne	r0, #1
 584              	.LVL30:
 585 000a 0020     		moveq	r0, #0
 586 000c 7047     		bx	lr
 587              	.L62:
 588 000e 00BF     		.align	2
 589              	.L61:
 590 0010 00000550 		.word	1342504960
 591              		.cfi_endproc
 592              	.LFE124:
 593              		.size	DCMI_GetITStatus, .-DCMI_GetITStatus
 594              		.section	.text.DCMI_ClearITPendingBit,"ax",%progbits
 595              		.align	2
 596              		.p2align 4,,15
 597              		.global	DCMI_ClearITPendingBit
 598              		.thumb
 599              		.thumb_func
 600              		.type	DCMI_ClearITPendingBit, %function
 601              	DCMI_ClearITPendingBit:
 602              	.LFB125:
 603              		.loc 1 518 0
 604              		.cfi_startproc
 605              		@ args = 0, pretend = 0, frame = 0
 606              		@ frame_needed = 0, uses_anonymous_args = 0
 607              		@ link register save eliminated.
 608              	.LVL31:
 609              		.loc 1 522 0
 610 0000 014B     		ldr	r3, .L64
 611 0002 5861     		str	r0, [r3, #20]
 612 0004 7047     		bx	lr
 613              	.L65:
 614 0006 00BF     		.align	2
 615              	.L64:
 616 0008 00000550 		.word	1342504960
 617              		.cfi_endproc
 618              	.LFE125:
 619              		.size	DCMI_ClearITPendingBit, .-DCMI_ClearITPendingBit
 620              		.text
 621              	.Letext0:
 622              		.file 2 "/Users/imac/Downloads/gcc-arm-none-eabi-4_9-2015q2/arm-none-eabi/include/machine/_default
 623              		.file 3 "/Users/imac/Downloads/gcc-arm-none-eabi-4_9-2015q2/arm-none-eabi/include/sys/_stdint.h"
 624              		.file 4 "lib/ChibiOS_2.6.6/os/hal/platforms/STM32F4xx/stm32f4xx.h"
 625              		.file 5 "lib/ChibiOS_2.6.6/ext/stdperiph_stm32f4/inc/stm32f4xx_dcmi.h"
 626              		.file 6 "lib/ChibiOS_2.6.6/os/ports/common/ARMCMx/CMSIS/include/core_cm4.h"