ARM GAS  /var/folders/7z/kps_xzfj7sn5l5gkyq8s9db00000gn/T//ccVy0HGQ.s 			page 1


   1              		.syntax unified
   2              		.cpu cortex-m4
   3              		.eabi_attribute 27, 1
   4              		.eabi_attribute 28, 1
   5              		.fpu fpv4-sp-d16
   6              		.eabi_attribute 20, 1
   7              		.eabi_attribute 21, 1
   8              		.eabi_attribute 23, 3
   9              		.eabi_attribute 24, 1
  10              		.eabi_attribute 25, 1
  11              		.eabi_attribute 26, 1
  12              		.eabi_attribute 30, 2
  13              		.eabi_attribute 34, 1
  14              		.eabi_attribute 18, 4
  15              		.thumb
  16              		.file	"stm32f4xx_hash_md5.c"
  17              		.text
  18              	.Ltext0:
  19              		.cfi_sections	.debug_frame
  20              		.section	.text.HASH_MD5,"ax",%progbits
  21              		.align	2
  22              		.p2align 4,,15
  23              		.global	HASH_MD5
  24              		.thumb
  25              		.thumb_func
  26              		.type	HASH_MD5, %function
  27              	HASH_MD5:
  28              	.LFB111:
  29              		.file 1 "lib/ChibiOS_2.6.6/ext/stdperiph_stm32f4/src/stm32f4xx_hash_md5.c"
  30              		.loc 1 94 0
  31              		.cfi_startproc
  32              		@ args = 0, pretend = 0, frame = 48
  33              		@ frame_needed = 0, uses_anonymous_args = 0
  34              	.LVL0:
  35 0000 F0B5     		push	{r4, r5, r6, r7, lr}
  36              		.cfi_def_cfa_offset 20
  37              		.cfi_offset 4, -20
  38              		.cfi_offset 5, -16
  39              		.cfi_offset 6, -12
  40              		.cfi_offset 7, -8
  41              		.cfi_offset 14, -4
  42              		.loc 1 107 0
  43 0002 01F00303 		and	r3, r1, #3
  44              		.loc 1 94 0
  45 0006 8DB0     		sub	sp, sp, #52
  46              		.cfi_def_cfa_offset 72
  47              		.loc 1 97 0
  48 0008 0024     		movs	r4, #0
  49              		.loc 1 107 0
  50 000a DB00     		lsls	r3, r3, #3
  51              		.loc 1 97 0
  52 000c ADF80640 		strh	r4, [sp, #6]	@ movhi
  53              	.LVL1:
  54              		.loc 1 94 0
  55 0010 0D46     		mov	r5, r1
  56 0012 0746     		mov	r7, r0
  57              		.loc 1 99 0
ARM GAS  /var/folders/7z/kps_xzfj7sn5l5gkyq8s9db00000gn/T//ccVy0HGQ.s 			page 2


  58 0014 0294     		str	r4, [sp, #8]
  59              	.LVL2:
  60              		.loc 1 94 0
  61 0016 1646     		mov	r6, r2
  62              	.LVL3:
  63              		.loc 1 107 0
  64 0018 ADF80630 		strh	r3, [sp, #6]	@ movhi
  65              		.loc 1 110 0
  66 001c FFF7FEFF 		bl	HASH_DeInit
  67              	.LVL4:
  68              		.loc 1 113 0
  69 0020 8022     		movs	r2, #128
  70              		.loc 1 115 0
  71 0022 2023     		movs	r3, #32
  72              		.loc 1 116 0
  73 0024 03A8     		add	r0, sp, #12
  74              		.loc 1 114 0
  75 0026 0494     		str	r4, [sp, #16]
  76              		.loc 1 113 0
  77 0028 0392     		str	r2, [sp, #12]
  78              		.loc 1 115 0
  79 002a 0593     		str	r3, [sp, #20]
  80              		.loc 1 116 0
  81 002c FFF7FEFF 		bl	HASH_Init
  82              	.LVL5:
  83              		.loc 1 119 0
  84 0030 BDF80600 		ldrh	r0, [sp, #6]
  85 0034 80B2     		uxth	r0, r0
  86 0036 FFF7FEFF 		bl	HASH_SetLastWordValidBitsNbr
  87              	.LVL6:
  88              		.loc 1 122 0
  89 003a 3C46     		mov	r4, r7
  90 003c 35B1     		cbz	r5, .L5
  91              	.LVL7:
  92              	.L4:
  93              		.loc 1 124 0 discriminator 3
  94 003e 54F8040B 		ldr	r0, [r4], #4
  95              	.LVL8:
  96 0042 FFF7FEFF 		bl	HASH_DataIn
  97              	.LVL9:
  98 0046 E31B     		subs	r3, r4, r7
  99              		.loc 1 122 0 discriminator 3
 100 0048 9D42     		cmp	r5, r3
 101 004a F8D8     		bhi	.L4
 102              	.LVL10:
 103              	.L5:
 104              		.loc 1 129 0
 105 004c FFF7FEFF 		bl	HASH_StartDigest
 106              	.LVL11:
 107 0050 00E0     		b	.L3
 108              	.LVL12:
 109              	.L14:
 110              		.loc 1 136 0 discriminator 1
 111 0052 68B1     		cbz	r0, .L7
 112              	.LVL13:
 113              	.L3:
 114              		.loc 1 134 0 discriminator 2
ARM GAS  /var/folders/7z/kps_xzfj7sn5l5gkyq8s9db00000gn/T//ccVy0HGQ.s 			page 3


 115 0054 0820     		movs	r0, #8
 116 0056 FFF7FEFF 		bl	HASH_GetFlagStatus
 117              	.LVL14:
 118              		.loc 1 135 0 discriminator 2
 119 005a 029B     		ldr	r3, [sp, #8]
 120 005c 0133     		adds	r3, r3, #1
 121 005e 0293     		str	r3, [sp, #8]
 122              		.loc 1 136 0 discriminator 2
 123 0060 029B     		ldr	r3, [sp, #8]
 124 0062 B3F5803F 		cmp	r3, #65536
 125 0066 F4D1     		bne	.L14
 126              		.loc 1 138 0
 127 0068 10B1     		cbz	r0, .L7
 128              		.loc 1 140 0
 129 006a 0020     		movs	r0, #0
 130              	.LVL15:
 131              		.loc 1 155 0
 132 006c 0DB0     		add	sp, sp, #52
 133              		.cfi_remember_state
 134              		.cfi_def_cfa_offset 20
 135              		@ sp needed
 136 006e F0BD     		pop	{r4, r5, r6, r7, pc}
 137              	.LVL16:
 138              	.L7:
 139              		.cfi_restore_state
 140              		.loc 1 145 0
 141 0070 07A8     		add	r0, sp, #28
 142              	.LVL17:
 143 0072 FFF7FEFF 		bl	HASH_GetDigest
 144              	.LVL18:
 145              	.LBB18:
 146              	.LBB19:
 147              		.file 2 "lib/ChibiOS_2.6.6/os/ports/common/ARMCMx/CMSIS/include/core_cmInstr.h"
 148              		.loc 2 369 0
 149 0076 079B     		ldr	r3, [sp, #28]
 150              	@ 369 "lib/ChibiOS_2.6.6/os/ports/common/ARMCMx/CMSIS/include/core_cmInstr.h" 1
 151 0078 1BBA     		rev r3, r3
 152              	@ 0 "" 2
 153              	.LVL19:
 154              		.thumb
 155              	.LBE19:
 156              	.LBE18:
 157              		.loc 1 146 0
 158 007a 3360     		str	r3, [r6]
 159              	.LVL20:
 160              	.LBB20:
 161              	.LBB21:
 162              		.loc 2 369 0
 163 007c 089B     		ldr	r3, [sp, #32]
 164              	.LVL21:
 165              	@ 369 "lib/ChibiOS_2.6.6/os/ports/common/ARMCMx/CMSIS/include/core_cmInstr.h" 1
 166 007e 1BBA     		rev r3, r3
 167              	@ 0 "" 2
 168              	.LVL22:
 169              		.thumb
 170              	.LBE21:
 171              	.LBE20:
ARM GAS  /var/folders/7z/kps_xzfj7sn5l5gkyq8s9db00000gn/T//ccVy0HGQ.s 			page 4


 172              		.loc 1 148 0
 173 0080 7360     		str	r3, [r6, #4]
 174              	.LVL23:
 175              	.LBB22:
 176              	.LBB23:
 177              		.loc 2 369 0
 178 0082 099B     		ldr	r3, [sp, #36]
 179              	.LVL24:
 180              	@ 369 "lib/ChibiOS_2.6.6/os/ports/common/ARMCMx/CMSIS/include/core_cmInstr.h" 1
 181 0084 1BBA     		rev r3, r3
 182              	@ 0 "" 2
 183              	.LVL25:
 184              		.thumb
 185              	.LBE23:
 186              	.LBE22:
 187              		.loc 1 150 0
 188 0086 B360     		str	r3, [r6, #8]
 189              	.LVL26:
 190              	.LBB24:
 191              	.LBB25:
 192              		.loc 2 369 0
 193 0088 0A9B     		ldr	r3, [sp, #40]
 194              	.LVL27:
 195              	@ 369 "lib/ChibiOS_2.6.6/os/ports/common/ARMCMx/CMSIS/include/core_cmInstr.h" 1
 196 008a 1BBA     		rev r3, r3
 197              	@ 0 "" 2
 198              	.LVL28:
 199              		.thumb
 200              	.LBE25:
 201              	.LBE24:
 202              		.loc 1 101 0
 203 008c 0120     		movs	r0, #1
 204              		.loc 1 152 0
 205 008e F360     		str	r3, [r6, #12]
 206              	.LVL29:
 207              		.loc 1 155 0
 208 0090 0DB0     		add	sp, sp, #52
 209              		.cfi_def_cfa_offset 20
 210              		@ sp needed
 211 0092 F0BD     		pop	{r4, r5, r6, r7, pc}
 212              		.cfi_endproc
 213              	.LFE111:
 214              		.size	HASH_MD5, .-HASH_MD5
 215 0094 AFF30080 		.section	.text.HMAC_MD5,"ax",%progbits
 215      AFF30080 
 215      AFF30080 
 216              		.align	2
 217              		.p2align 4,,15
 218              		.global	HMAC_MD5
 219              		.thumb
 220              		.thumb_func
 221              		.type	HMAC_MD5, %function
 222              	HMAC_MD5:
 223              	.LFB112:
 224              		.loc 1 170 0
 225              		.cfi_startproc
 226              		@ args = 4, pretend = 0, frame = 48
ARM GAS  /var/folders/7z/kps_xzfj7sn5l5gkyq8s9db00000gn/T//ccVy0HGQ.s 			page 5


 227              		@ frame_needed = 0, uses_anonymous_args = 0
 228              	.LVL30:
 229 0000 2DE9F041 		push	{r4, r5, r6, r7, r8, lr}
 230              		.cfi_def_cfa_offset 24
 231              		.cfi_offset 4, -24
 232              		.cfi_offset 5, -20
 233              		.cfi_offset 6, -16
 234              		.cfi_offset 7, -12
 235              		.cfi_offset 8, -8
 236              		.cfi_offset 14, -4
 237 0004 0D46     		mov	r5, r1
 238 0006 8CB0     		sub	sp, sp, #48
 239              		.cfi_def_cfa_offset 72
 240              		.loc 1 184 0
 241 0008 03F00301 		and	r1, r3, #3
 242              	.LVL31:
 243              		.loc 1 170 0
 244 000c 1F46     		mov	r7, r3
 245              		.loc 1 187 0
 246 000e 05F00303 		and	r3, r5, #3
 247              	.LVL32:
 248              		.loc 1 173 0
 249 0012 0024     		movs	r4, #0
 250              		.loc 1 184 0
 251 0014 C900     		lsls	r1, r1, #3
 252              		.loc 1 187 0
 253 0016 DB00     		lsls	r3, r3, #3
 254              		.loc 1 173 0
 255 0018 ADF80440 		strh	r4, [sp, #4]	@ movhi
 256              		.loc 1 170 0
 257 001c 9046     		mov	r8, r2
 258              		.loc 1 174 0
 259 001e ADF80640 		strh	r4, [sp, #6]	@ movhi
 260              	.LVL33:
 261              		.loc 1 170 0
 262 0022 0646     		mov	r6, r0
 263              		.loc 1 176 0
 264 0024 0294     		str	r4, [sp, #8]
 265              	.LVL34:
 266              		.loc 1 184 0
 267 0026 ADF80410 		strh	r1, [sp, #4]	@ movhi
 268              		.loc 1 187 0
 269 002a ADF80630 		strh	r3, [sp, #6]	@ movhi
 270              		.loc 1 190 0
 271 002e FFF7FEFF 		bl	HASH_DeInit
 272              	.LVL35:
 273              		.loc 1 194 0
 274 0032 4022     		movs	r2, #64
 275              		.loc 1 193 0
 276 0034 8021     		movs	r1, #128
 277              		.loc 1 195 0
 278 0036 2023     		movs	r3, #32
 279              		.loc 1 196 0
 280 0038 9542     		cmp	r5, r2
 281              		.loc 1 193 0
 282 003a 0391     		str	r1, [sp, #12]
 283              		.loc 1 194 0
ARM GAS  /var/folders/7z/kps_xzfj7sn5l5gkyq8s9db00000gn/T//ccVy0HGQ.s 			page 6


 284 003c 0492     		str	r2, [sp, #16]
 285              		.loc 1 195 0
 286 003e 0593     		str	r3, [sp, #20]
 287              		.loc 1 196 0
 288 0040 25D9     		bls	.L16
 289              		.loc 1 199 0
 290 0042 4FF48033 		mov	r3, #65536
 291              		.loc 1 206 0
 292 0046 03A8     		add	r0, sp, #12
 293              		.loc 1 199 0
 294 0048 0693     		str	r3, [sp, #24]
 295              		.loc 1 206 0
 296 004a FFF7FEFF 		bl	HASH_Init
 297              	.LVL36:
 298              		.loc 1 209 0
 299 004e BDF80600 		ldrh	r0, [sp, #6]
 300 0052 80B2     		uxth	r0, r0
 301 0054 FFF7FEFF 		bl	HASH_SetLastWordValidBitsNbr
 302              	.LVL37:
 303 0058 3446     		mov	r4, r6
 304              	.LVL38:
 305              	.L19:
 306              		.loc 1 214 0 discriminator 3
 307 005a 54F8040B 		ldr	r0, [r4], #4
 308              	.LVL39:
 309 005e FFF7FEFF 		bl	HASH_DataIn
 310              	.LVL40:
 311 0062 A31B     		subs	r3, r4, r6
 312              		.loc 1 212 0 discriminator 3
 313 0064 9D42     		cmp	r5, r3
 314 0066 F8D8     		bhi	.L19
 315              	.LVL41:
 316              	.L20:
 317              		.loc 1 219 0
 318 0068 FFF7FEFF 		bl	HASH_StartDigest
 319              	.LVL42:
 320 006c 00E0     		b	.L18
 321              	.LVL43:
 322              	.L48:
 323              		.loc 1 226 0 discriminator 1
 324 006e D8B1     		cbz	r0, .L22
 325              	.LVL44:
 326              	.L18:
 327              		.loc 1 224 0 discriminator 2
 328 0070 0820     		movs	r0, #8
 329 0072 FFF7FEFF 		bl	HASH_GetFlagStatus
 330              	.LVL45:
 331              		.loc 1 225 0 discriminator 2
 332 0076 029B     		ldr	r3, [sp, #8]
 333 0078 0133     		adds	r3, r3, #1
 334 007a 0293     		str	r3, [sp, #8]
 335              		.loc 1 226 0 discriminator 2
 336 007c 029B     		ldr	r3, [sp, #8]
 337 007e B3F5803F 		cmp	r3, #65536
 338 0082 F4D1     		bne	.L48
 339              		.loc 1 228 0
 340 0084 80B1     		cbz	r0, .L22
ARM GAS  /var/folders/7z/kps_xzfj7sn5l5gkyq8s9db00000gn/T//ccVy0HGQ.s 			page 7


 341              	.LVL46:
 342              	.L30:
 343              		.loc 1 230 0
 344 0086 0020     		movs	r0, #0
 345              	.LVL47:
 346              	.L23:
 347              		.loc 1 302 0
 348 0088 0CB0     		add	sp, sp, #48
 349              		.cfi_remember_state
 350              		.cfi_def_cfa_offset 24
 351              		@ sp needed
 352 008a BDE8F081 		pop	{r4, r5, r6, r7, r8, pc}
 353              	.LVL48:
 354              	.L16:
 355              		.cfi_restore_state
 356              		.loc 1 206 0
 357 008e 03A8     		add	r0, sp, #12
 358              		.loc 1 204 0
 359 0090 0694     		str	r4, [sp, #24]
 360              		.loc 1 206 0
 361 0092 FFF7FEFF 		bl	HASH_Init
 362              	.LVL49:
 363              		.loc 1 209 0
 364 0096 BDF80600 		ldrh	r0, [sp, #6]
 365 009a 80B2     		uxth	r0, r0
 366 009c FFF7FEFF 		bl	HASH_SetLastWordValidBitsNbr
 367              	.LVL50:
 368              		.loc 1 212 0
 369 00a0 002D     		cmp	r5, #0
 370 00a2 E1D0     		beq	.L20
 371 00a4 3446     		mov	r4, r6
 372 00a6 D8E7     		b	.L19
 373              	.LVL51:
 374              	.L22:
 375              		.loc 1 235 0
 376 00a8 BDF80400 		ldrh	r0, [sp, #4]
 377              	.LVL52:
 378 00ac 80B2     		uxth	r0, r0
 379 00ae FFF7FEFF 		bl	HASH_SetLastWordValidBitsNbr
 380              	.LVL53:
 381              		.loc 1 180 0
 382 00b2 4446     		mov	r4, r8
 383              		.loc 1 238 0
 384 00b4 3FB1     		cbz	r7, .L27
 385              	.LVL54:
 386              	.L26:
 387              		.loc 1 240 0 discriminator 3
 388 00b6 54F8040B 		ldr	r0, [r4], #4
 389              	.LVL55:
 390 00ba FFF7FEFF 		bl	HASH_DataIn
 391              	.LVL56:
 392 00be C8EB0403 		rsb	r3, r8, r4
 393              		.loc 1 238 0 discriminator 3
 394 00c2 9F42     		cmp	r7, r3
 395 00c4 F7D8     		bhi	.L26
 396              	.LVL57:
 397              	.L27:
ARM GAS  /var/folders/7z/kps_xzfj7sn5l5gkyq8s9db00000gn/T//ccVy0HGQ.s 			page 8


 398              		.loc 1 245 0
 399 00c6 FFF7FEFF 		bl	HASH_StartDigest
 400              	.LVL58:
 401              		.loc 1 248 0
 402 00ca 0023     		movs	r3, #0
 403 00cc 0293     		str	r3, [sp, #8]
 404 00ce 00E0     		b	.L25
 405              	.LVL59:
 406              	.L49:
 407              		.loc 1 253 0 discriminator 1
 408 00d0 58B1     		cbz	r0, .L29
 409              	.LVL60:
 410              	.L25:
 411              		.loc 1 251 0 discriminator 2
 412 00d2 0820     		movs	r0, #8
 413 00d4 FFF7FEFF 		bl	HASH_GetFlagStatus
 414              	.LVL61:
 415              		.loc 1 252 0 discriminator 2
 416 00d8 029B     		ldr	r3, [sp, #8]
 417 00da 0133     		adds	r3, r3, #1
 418 00dc 0293     		str	r3, [sp, #8]
 419              		.loc 1 253 0 discriminator 2
 420 00de 029B     		ldr	r3, [sp, #8]
 421 00e0 B3F5803F 		cmp	r3, #65536
 422 00e4 F4D1     		bne	.L49
 423              		.loc 1 255 0
 424 00e6 0028     		cmp	r0, #0
 425 00e8 CDD1     		bne	.L30
 426              	.L29:
 427              		.loc 1 262 0
 428 00ea BDF80600 		ldrh	r0, [sp, #6]
 429              	.LVL62:
 430 00ee 80B2     		uxth	r0, r0
 431 00f0 FFF7FEFF 		bl	HASH_SetLastWordValidBitsNbr
 432              	.LVL63:
 433              		.loc 1 266 0
 434 00f4 3446     		mov	r4, r6
 435 00f6 35B1     		cbz	r5, .L34
 436              	.LVL64:
 437              	.L33:
 438              		.loc 1 268 0 discriminator 3
 439 00f8 54F8040B 		ldr	r0, [r4], #4
 440              	.LVL65:
 441 00fc FFF7FEFF 		bl	HASH_DataIn
 442              	.LVL66:
 443 0100 A31B     		subs	r3, r4, r6
 444              		.loc 1 266 0 discriminator 3
 445 0102 9D42     		cmp	r5, r3
 446 0104 F8D8     		bhi	.L33
 447              	.LVL67:
 448              	.L34:
 449              		.loc 1 273 0
 450 0106 FFF7FEFF 		bl	HASH_StartDigest
 451              	.LVL68:
 452              		.loc 1 276 0
 453 010a 0023     		movs	r3, #0
 454 010c 0293     		str	r3, [sp, #8]
ARM GAS  /var/folders/7z/kps_xzfj7sn5l5gkyq8s9db00000gn/T//ccVy0HGQ.s 			page 9


 455 010e 00E0     		b	.L32
 456              	.LVL69:
 457              	.L50:
 458              		.loc 1 281 0 discriminator 1
 459 0110 58B1     		cbz	r0, .L36
 460              	.LVL70:
 461              	.L32:
 462              		.loc 1 279 0 discriminator 2
 463 0112 0820     		movs	r0, #8
 464 0114 FFF7FEFF 		bl	HASH_GetFlagStatus
 465              	.LVL71:
 466              		.loc 1 280 0 discriminator 2
 467 0118 029B     		ldr	r3, [sp, #8]
 468 011a 0133     		adds	r3, r3, #1
 469 011c 0293     		str	r3, [sp, #8]
 470              		.loc 1 281 0 discriminator 2
 471 011e 029B     		ldr	r3, [sp, #8]
 472 0120 B3F5803F 		cmp	r3, #65536
 473 0124 F4D1     		bne	.L50
 474              		.loc 1 283 0
 475 0126 0028     		cmp	r0, #0
 476 0128 ADD1     		bne	.L30
 477              	.L36:
 478              		.loc 1 290 0
 479 012a 07A8     		add	r0, sp, #28
 480              	.LVL72:
 481 012c FFF7FEFF 		bl	HASH_GetDigest
 482              	.LVL73:
 483              	.LBB26:
 484              	.LBB27:
 485              		.loc 2 369 0
 486 0130 079B     		ldr	r3, [sp, #28]
 487              	@ 369 "lib/ChibiOS_2.6.6/os/ports/common/ARMCMx/CMSIS/include/core_cmInstr.h" 1
 488 0132 1BBA     		rev r3, r3
 489              	@ 0 "" 2
 490              	.LVL74:
 491              		.thumb
 492              	.LBE27:
 493              	.LBE26:
 494              		.loc 1 291 0
 495 0134 129A     		ldr	r2, [sp, #72]
 496 0136 1360     		str	r3, [r2]
 497              	.LVL75:
 498              	.LBB28:
 499              	.LBB29:
 500              		.loc 2 369 0
 501 0138 089B     		ldr	r3, [sp, #32]
 502              	.LVL76:
 503              	@ 369 "lib/ChibiOS_2.6.6/os/ports/common/ARMCMx/CMSIS/include/core_cmInstr.h" 1
 504 013a 1BBA     		rev r3, r3
 505              	@ 0 "" 2
 506              	.LVL77:
 507              		.thumb
 508              	.LBE29:
 509              	.LBE28:
 510              		.loc 1 293 0
 511 013c 5360     		str	r3, [r2, #4]
ARM GAS  /var/folders/7z/kps_xzfj7sn5l5gkyq8s9db00000gn/T//ccVy0HGQ.s 			page 10


 512              	.LVL78:
 513              	.LBB30:
 514              	.LBB31:
 515              		.loc 2 369 0
 516 013e 099B     		ldr	r3, [sp, #36]
 517              	.LVL79:
 518              	@ 369 "lib/ChibiOS_2.6.6/os/ports/common/ARMCMx/CMSIS/include/core_cmInstr.h" 1
 519 0140 1BBA     		rev r3, r3
 520              	@ 0 "" 2
 521              	.LVL80:
 522              		.thumb
 523              	.LBE31:
 524              	.LBE30:
 525              		.loc 1 295 0
 526 0142 9360     		str	r3, [r2, #8]
 527              	.LVL81:
 528              	.LBB32:
 529              	.LBB33:
 530              		.loc 2 369 0
 531 0144 0A9B     		ldr	r3, [sp, #40]
 532              	.LVL82:
 533              	@ 369 "lib/ChibiOS_2.6.6/os/ports/common/ARMCMx/CMSIS/include/core_cmInstr.h" 1
 534 0146 1BBA     		rev r3, r3
 535              	@ 0 "" 2
 536              	.LVL83:
 537              		.thumb
 538              	.LBE33:
 539              	.LBE32:
 540              		.loc 1 178 0
 541 0148 0120     		movs	r0, #1
 542              		.loc 1 297 0
 543 014a D360     		str	r3, [r2, #12]
 544 014c 9CE7     		b	.L23
 545              		.cfi_endproc
 546              	.LFE112:
 547              		.size	HMAC_MD5, .-HMAC_MD5
 548 014e 00BF     		.text
 549              	.Letext0:
 550              		.file 3 "/Users/Baram/gcc-arm-none-eabi/arm-none-eabi/include/machine/_default_types.h"
 551              		.file 4 "/Users/Baram/gcc-arm-none-eabi/arm-none-eabi/include/stdint.h"
 552              		.file 5 "lib/ChibiOS_2.6.6/os/hal/platforms/STM32F4xx/stm32f4xx.h"
 553              		.file 6 "lib/ChibiOS_2.6.6/ext/stdperiph_stm32f4/inc/stm32f4xx_hash.h"
 554              		.file 7 "lib/ChibiOS_2.6.6/os/ports/common/ARMCMx/CMSIS/include/core_cm4.h"
 555              		.section	.debug_info,"",%progbits
 556              	.Ldebug_info0:
 557 0000 B2060000 		.4byte	0x6b2
 558 0004 0400     		.2byte	0x4
 559 0006 00000000 		.4byte	.Ldebug_abbrev0
 560 000a 04       		.byte	0x4
 561 000b 01       		.uleb128 0x1
 562 000c 0F000000 		.4byte	.LASF52
 563 0010 01       		.byte	0x1
 564 0011 A3010000 		.4byte	.LASF53
 565 0015 7B030000 		.4byte	.LASF54
 566 0019 00000000 		.4byte	.Ldebug_ranges0+0
 567 001d 00000000 		.4byte	0
 568 0021 00000000 		.4byte	.Ldebug_line0
ARM GAS  /var/folders/7z/kps_xzfj7sn5l5gkyq8s9db00000gn/T//ccVy0HGQ.s 			page 11


 569 0025 02       		.uleb128 0x2
 570 0026 01       		.byte	0x1
 571 0027 06       		.byte	0x6
 572 0028 73020000 		.4byte	.LASF0
 573 002c 03       		.uleb128 0x3
 574 002d 3C020000 		.4byte	.LASF3
 575 0031 03       		.byte	0x3
 576 0032 1D       		.byte	0x1d
 577 0033 37000000 		.4byte	0x37
 578 0037 02       		.uleb128 0x2
 579 0038 01       		.byte	0x1
 580 0039 08       		.byte	0x8
 581 003a 51020000 		.4byte	.LASF1
 582 003e 02       		.uleb128 0x2
 583 003f 02       		.byte	0x2
 584 0040 05       		.byte	0x5
 585 0041 63010000 		.4byte	.LASF2
 586 0045 03       		.uleb128 0x3
 587 0046 58010000 		.4byte	.LASF4
 588 004a 03       		.byte	0x3
 589 004b 2B       		.byte	0x2b
 590 004c 50000000 		.4byte	0x50
 591 0050 02       		.uleb128 0x2
 592 0051 02       		.byte	0x2
 593 0052 07       		.byte	0x7
 594 0053 EC020000 		.4byte	.LASF5
 595 0057 03       		.uleb128 0x3
 596 0058 A3030000 		.4byte	.LASF6
 597 005c 03       		.byte	0x3
 598 005d 3F       		.byte	0x3f
 599 005e 62000000 		.4byte	0x62
 600 0062 02       		.uleb128 0x2
 601 0063 04       		.byte	0x4
 602 0064 05       		.byte	0x5
 603 0065 FB010000 		.4byte	.LASF7
 604 0069 03       		.uleb128 0x3
 605 006a 4D010000 		.4byte	.LASF8
 606 006e 03       		.byte	0x3
 607 006f 41       		.byte	0x41
 608 0070 74000000 		.4byte	0x74
 609 0074 02       		.uleb128 0x2
 610 0075 04       		.byte	0x4
 611 0076 07       		.byte	0x7
 612 0077 50030000 		.4byte	.LASF9
 613 007b 02       		.uleb128 0x2
 614 007c 08       		.byte	0x8
 615 007d 05       		.byte	0x5
 616 007e ED010000 		.4byte	.LASF10
 617 0082 02       		.uleb128 0x2
 618 0083 08       		.byte	0x8
 619 0084 07       		.byte	0x7
 620 0085 92020000 		.4byte	.LASF11
 621 0089 04       		.uleb128 0x4
 622 008a 04       		.byte	0x4
 623 008b 05       		.byte	0x5
 624 008c 696E7400 		.ascii	"int\000"
 625 0090 02       		.uleb128 0x2
ARM GAS  /var/folders/7z/kps_xzfj7sn5l5gkyq8s9db00000gn/T//ccVy0HGQ.s 			page 12


 626 0091 04       		.byte	0x4
 627 0092 07       		.byte	0x7
 628 0093 B2020000 		.4byte	.LASF12
 629 0097 03       		.uleb128 0x3
 630 0098 82010000 		.4byte	.LASF13
 631 009c 04       		.byte	0x4
 632 009d 15       		.byte	0x15
 633 009e 2C000000 		.4byte	0x2c
 634 00a2 03       		.uleb128 0x3
 635 00a3 BF020000 		.4byte	.LASF14
 636 00a7 04       		.byte	0x4
 637 00a8 21       		.byte	0x21
 638 00a9 45000000 		.4byte	0x45
 639 00ad 03       		.uleb128 0x3
 640 00ae 06030000 		.4byte	.LASF15
 641 00b2 04       		.byte	0x4
 642 00b3 2C       		.byte	0x2c
 643 00b4 57000000 		.4byte	0x57
 644 00b8 03       		.uleb128 0x3
 645 00b9 A9020000 		.4byte	.LASF16
 646 00bd 04       		.byte	0x4
 647 00be 2D       		.byte	0x2d
 648 00bf 69000000 		.4byte	0x69
 649 00c3 02       		.uleb128 0x2
 650 00c4 04       		.byte	0x4
 651 00c5 07       		.byte	0x7
 652 00c6 44010000 		.4byte	.LASF17
 653 00ca 05       		.uleb128 0x5
 654 00cb B8000000 		.4byte	0xb8
 655 00cf 06       		.uleb128 0x6
 656 00d0 B8000000 		.4byte	0xb8
 657 00d4 DF000000 		.4byte	0xdf
 658 00d8 07       		.uleb128 0x7
 659 00d9 C3000000 		.4byte	0xc3
 660 00dd 04       		.byte	0x4
 661 00de 00       		.byte	0
 662 00df 05       		.uleb128 0x5
 663 00e0 A2000000 		.4byte	0xa2
 664 00e4 05       		.uleb128 0x5
 665 00e5 AD000000 		.4byte	0xad
 666 00e9 08       		.uleb128 0x8
 667 00ea 01       		.byte	0x1
 668 00eb 05       		.byte	0x5
 669 00ec F701     		.2byte	0x1f7
 670 00ee FF000000 		.4byte	0xff
 671 00f2 09       		.uleb128 0x9
 672 00f3 AD030000 		.4byte	.LASF18
 673 00f7 00       		.sleb128 0
 674 00f8 0A       		.uleb128 0xa
 675 00f9 53455400 		.ascii	"SET\000"
 676 00fd 01       		.sleb128 1
 677 00fe 00       		.byte	0
 678 00ff 0B       		.uleb128 0xb
 679 0100 FC030000 		.4byte	.LASF19
 680 0104 05       		.byte	0x5
 681 0105 F701     		.2byte	0x1f7
 682 0107 E9000000 		.4byte	0xe9
ARM GAS  /var/folders/7z/kps_xzfj7sn5l5gkyq8s9db00000gn/T//ccVy0HGQ.s 			page 13


 683 010b 08       		.uleb128 0x8
 684 010c 01       		.byte	0x1
 685 010d 05       		.byte	0x5
 686 010e FC01     		.2byte	0x1fc
 687 0110 21010000 		.4byte	0x121
 688 0114 09       		.uleb128 0x9
 689 0115 46020000 		.4byte	.LASF20
 690 0119 00       		.sleb128 0
 691 011a 09       		.uleb128 0x9
 692 011b D2020000 		.4byte	.LASF21
 693 011f 01       		.sleb128 1
 694 0120 00       		.byte	0
 695 0121 0B       		.uleb128 0xb
 696 0122 15020000 		.4byte	.LASF22
 697 0126 05       		.byte	0x5
 698 0127 FC01     		.2byte	0x1fc
 699 0129 0B010000 		.4byte	0x10b
 700 012d 0C       		.uleb128 0xc
 701 012e 10       		.byte	0x10
 702 012f 06       		.byte	0x6
 703 0130 35       		.byte	0x35
 704 0131 66010000 		.4byte	0x166
 705 0135 0D       		.uleb128 0xd
 706 0136 7F020000 		.4byte	.LASF23
 707 013a 06       		.byte	0x6
 708 013b 37       		.byte	0x37
 709 013c B8000000 		.4byte	0xb8
 710 0140 00       		.byte	0
 711 0141 0D       		.uleb128 0xd
 712 0142 6D030000 		.4byte	.LASF24
 713 0146 06       		.byte	0x6
 714 0147 39       		.byte	0x39
 715 0148 B8000000 		.4byte	0xb8
 716 014c 04       		.byte	0x4
 717 014d 0D       		.uleb128 0xd
 718 014e 25030000 		.4byte	.LASF25
 719 0152 06       		.byte	0x6
 720 0153 3B       		.byte	0x3b
 721 0154 B8000000 		.4byte	0xb8
 722 0158 08       		.byte	0x8
 723 0159 0D       		.uleb128 0xd
 724 015a 04020000 		.4byte	.LASF26
 725 015e 06       		.byte	0x6
 726 015f 3E       		.byte	0x3e
 727 0160 B8000000 		.4byte	0xb8
 728 0164 0C       		.byte	0xc
 729 0165 00       		.byte	0
 730 0166 03       		.uleb128 0x3
 731 0167 0E040000 		.4byte	.LASF27
 732 016b 06       		.byte	0x6
 733 016c 40       		.byte	0x40
 734 016d 2D010000 		.4byte	0x12d
 735 0171 0C       		.uleb128 0xc
 736 0172 14       		.byte	0x14
 737 0173 06       		.byte	0x6
 738 0174 45       		.byte	0x45
 739 0175 86010000 		.4byte	0x186
ARM GAS  /var/folders/7z/kps_xzfj7sn5l5gkyq8s9db00000gn/T//ccVy0HGQ.s 			page 14


 740 0179 0D       		.uleb128 0xd
 741 017a 4C020000 		.4byte	.LASF28
 742 017e 06       		.byte	0x6
 743 017f 47       		.byte	0x47
 744 0180 CF000000 		.4byte	0xcf
 745 0184 00       		.byte	0
 746 0185 00       		.byte	0
 747 0186 03       		.uleb128 0x3
 748 0187 64020000 		.4byte	.LASF29
 749 018b 06       		.byte	0x6
 750 018c 49       		.byte	0x49
 751 018d 71010000 		.4byte	0x171
 752 0191 0E       		.uleb128 0xe
 753 0192 95010000 		.4byte	.LASF55
 754 0196 02       		.byte	0x2
 755 0197 6D01     		.2byte	0x16d
 756 0199 B8000000 		.4byte	0xb8
 757 019d 03       		.byte	0x3
 758 019e BB010000 		.4byte	0x1bb
 759 01a2 0F       		.uleb128 0xf
 760 01a3 6D010000 		.4byte	.LASF56
 761 01a7 02       		.byte	0x2
 762 01a8 6D01     		.2byte	0x16d
 763 01aa B8000000 		.4byte	0xb8
 764 01ae 10       		.uleb128 0x10
 765 01af 00000000 		.4byte	.LASF57
 766 01b3 02       		.byte	0x2
 767 01b4 6F01     		.2byte	0x16f
 768 01b6 B8000000 		.4byte	0xb8
 769 01ba 00       		.byte	0
 770 01bb 11       		.uleb128 0x11
 771 01bc F3030000 		.4byte	.LASF41
 772 01c0 01       		.byte	0x1
 773 01c1 5D       		.byte	0x5d
 774 01c2 21010000 		.4byte	0x121
 775 01c6 00000000 		.4byte	.LFB111
 776 01ca 94000000 		.4byte	.LFE111-.LFB111
 777 01ce 01       		.uleb128 0x1
 778 01cf 9C       		.byte	0x9c
 779 01d0 99030000 		.4byte	0x399
 780 01d4 12       		.uleb128 0x12
 781 01d5 D0030000 		.4byte	.LASF30
 782 01d9 01       		.byte	0x1
 783 01da 5D       		.byte	0x5d
 784 01db 99030000 		.4byte	0x399
 785 01df 00000000 		.4byte	.LLST0
 786 01e3 12       		.uleb128 0x12
 787 01e4 5F020000 		.4byte	.LASF31
 788 01e8 01       		.byte	0x1
 789 01e9 5D       		.byte	0x5d
 790 01ea B8000000 		.4byte	0xb8
 791 01ee 1E000000 		.4byte	.LLST1
 792 01f2 12       		.uleb128 0x12
 793 01f3 3D010000 		.4byte	.LASF32
 794 01f7 01       		.byte	0x1
 795 01f8 5D       		.byte	0x5d
 796 01f9 99030000 		.4byte	0x399
ARM GAS  /var/folders/7z/kps_xzfj7sn5l5gkyq8s9db00000gn/T//ccVy0HGQ.s 			page 15


 797 01fd 3C000000 		.4byte	.LLST2
 798 0201 13       		.uleb128 0x13
 799 0202 0E030000 		.4byte	.LASF33
 800 0206 01       		.byte	0x1
 801 0207 5F       		.byte	0x5f
 802 0208 66010000 		.4byte	0x166
 803 020c 02       		.uleb128 0x2
 804 020d 91       		.byte	0x91
 805 020e 44       		.sleb128 -60
 806 020f 13       		.uleb128 0x13
 807 0210 DA020000 		.4byte	.LASF34
 808 0214 01       		.byte	0x1
 809 0215 60       		.byte	0x60
 810 0216 86010000 		.4byte	0x186
 811 021a 02       		.uleb128 0x2
 812 021b 91       		.byte	0x91
 813 021c 54       		.sleb128 -44
 814 021d 13       		.uleb128 0x13
 815 021e D6030000 		.4byte	.LASF35
 816 0222 01       		.byte	0x1
 817 0223 61       		.byte	0x61
 818 0224 DF000000 		.4byte	0xdf
 819 0228 03       		.uleb128 0x3
 820 0229 91       		.byte	0x91
 821 022a BE7F     		.sleb128 -66
 822 022c 14       		.uleb128 0x14
 823 022d 6900     		.ascii	"i\000"
 824 022f 01       		.byte	0x1
 825 0230 62       		.byte	0x62
 826 0231 B8000000 		.4byte	0xb8
 827 0235 5A000000 		.4byte	.LLST3
 828 0239 13       		.uleb128 0x13
 829 023a 07000000 		.4byte	.LASF36
 830 023e 01       		.byte	0x1
 831 023f 63       		.byte	0x63
 832 0240 CA000000 		.4byte	0xca
 833 0244 02       		.uleb128 0x2
 834 0245 91       		.byte	0x91
 835 0246 40       		.sleb128 -64
 836 0247 15       		.uleb128 0x15
 837 0248 62030000 		.4byte	.LASF37
 838 024c 01       		.byte	0x1
 839 024d 64       		.byte	0x64
 840 024e B8000000 		.4byte	0xb8
 841 0252 A0000000 		.4byte	.LLST4
 842 0256 15       		.uleb128 0x15
 843 0257 FF020000 		.4byte	.LASF38
 844 025b 01       		.byte	0x1
 845 025c 65       		.byte	0x65
 846 025d 21010000 		.4byte	0x121
 847 0261 D5000000 		.4byte	.LLST5
 848 0265 15       		.uleb128 0x15
 849 0266 33010000 		.4byte	.LASF39
 850 026a 01       		.byte	0x1
 851 026b 66       		.byte	0x66
 852 026c B8000000 		.4byte	0xb8
 853 0270 0B010000 		.4byte	.LLST6
ARM GAS  /var/folders/7z/kps_xzfj7sn5l5gkyq8s9db00000gn/T//ccVy0HGQ.s 			page 16


 854 0274 15       		.uleb128 0x15
 855 0275 8A010000 		.4byte	.LASF40
 856 0279 01       		.byte	0x1
 857 027a 67       		.byte	0x67
 858 027b B8000000 		.4byte	0xb8
 859 027f 4C010000 		.4byte	.LLST7
 860 0283 16       		.uleb128 0x16
 861 0284 91010000 		.4byte	0x191
 862 0288 76000000 		.4byte	.LBB18
 863 028c 04000000 		.4byte	.LBE18-.LBB18
 864 0290 01       		.byte	0x1
 865 0291 92       		.byte	0x92
 866 0292 B2020000 		.4byte	0x2b2
 867 0296 17       		.uleb128 0x17
 868 0297 A2010000 		.4byte	0x1a2
 869 029b 02       		.uleb128 0x2
 870 029c 91       		.byte	0x91
 871 029d 54       		.sleb128 -44
 872 029e 18       		.uleb128 0x18
 873 029f 76000000 		.4byte	.LBB19
 874 02a3 04000000 		.4byte	.LBE19-.LBB19
 875 02a7 19       		.uleb128 0x19
 876 02a8 AE010000 		.4byte	0x1ae
 877 02ac 91010000 		.4byte	.LLST8
 878 02b0 00       		.byte	0
 879 02b1 00       		.byte	0
 880 02b2 16       		.uleb128 0x16
 881 02b3 91010000 		.4byte	0x191
 882 02b7 7C000000 		.4byte	.LBB20
 883 02bb 04000000 		.4byte	.LBE20-.LBB20
 884 02bf 01       		.byte	0x1
 885 02c0 94       		.byte	0x94
 886 02c1 E1020000 		.4byte	0x2e1
 887 02c5 17       		.uleb128 0x17
 888 02c6 A2010000 		.4byte	0x1a2
 889 02ca 02       		.uleb128 0x2
 890 02cb 91       		.byte	0x91
 891 02cc 58       		.sleb128 -40
 892 02cd 18       		.uleb128 0x18
 893 02ce 7C000000 		.4byte	.LBB21
 894 02d2 04000000 		.4byte	.LBE21-.LBB21
 895 02d6 19       		.uleb128 0x19
 896 02d7 AE010000 		.4byte	0x1ae
 897 02db B0010000 		.4byte	.LLST9
 898 02df 00       		.byte	0
 899 02e0 00       		.byte	0
 900 02e1 16       		.uleb128 0x16
 901 02e2 91010000 		.4byte	0x191
 902 02e6 82000000 		.4byte	.LBB22
 903 02ea 04000000 		.4byte	.LBE22-.LBB22
 904 02ee 01       		.byte	0x1
 905 02ef 96       		.byte	0x96
 906 02f0 10030000 		.4byte	0x310
 907 02f4 17       		.uleb128 0x17
 908 02f5 A2010000 		.4byte	0x1a2
 909 02f9 02       		.uleb128 0x2
 910 02fa 91       		.byte	0x91
ARM GAS  /var/folders/7z/kps_xzfj7sn5l5gkyq8s9db00000gn/T//ccVy0HGQ.s 			page 17


 911 02fb 5C       		.sleb128 -36
 912 02fc 18       		.uleb128 0x18
 913 02fd 82000000 		.4byte	.LBB23
 914 0301 04000000 		.4byte	.LBE23-.LBB23
 915 0305 19       		.uleb128 0x19
 916 0306 AE010000 		.4byte	0x1ae
 917 030a CF010000 		.4byte	.LLST10
 918 030e 00       		.byte	0
 919 030f 00       		.byte	0
 920 0310 16       		.uleb128 0x16
 921 0311 91010000 		.4byte	0x191
 922 0315 88000000 		.4byte	.LBB24
 923 0319 04000000 		.4byte	.LBE24-.LBB24
 924 031d 01       		.byte	0x1
 925 031e 98       		.byte	0x98
 926 031f 3D030000 		.4byte	0x33d
 927 0323 17       		.uleb128 0x17
 928 0324 A2010000 		.4byte	0x1a2
 929 0328 02       		.uleb128 0x2
 930 0329 91       		.byte	0x91
 931 032a 60       		.sleb128 -32
 932 032b 18       		.uleb128 0x18
 933 032c 88000000 		.4byte	.LBB25
 934 0330 04000000 		.4byte	.LBE25-.LBB25
 935 0334 1A       		.uleb128 0x1a
 936 0335 AE010000 		.4byte	0x1ae
 937 0339 01       		.uleb128 0x1
 938 033a 53       		.byte	0x53
 939 033b 00       		.byte	0
 940 033c 00       		.byte	0
 941 033d 1B       		.uleb128 0x1b
 942 033e 20000000 		.4byte	.LVL4
 943 0342 42060000 		.4byte	0x642
 944 0346 1C       		.uleb128 0x1c
 945 0347 30000000 		.4byte	.LVL5
 946 034b 49060000 		.4byte	0x649
 947 034f 5A030000 		.4byte	0x35a
 948 0353 1D       		.uleb128 0x1d
 949 0354 01       		.uleb128 0x1
 950 0355 50       		.byte	0x50
 951 0356 02       		.uleb128 0x2
 952 0357 91       		.byte	0x91
 953 0358 44       		.sleb128 -60
 954 0359 00       		.byte	0
 955 035a 1B       		.uleb128 0x1b
 956 035b 3A000000 		.4byte	.LVL6
 957 035f 60060000 		.4byte	0x660
 958 0363 1B       		.uleb128 0x1b
 959 0364 46000000 		.4byte	.LVL9
 960 0368 71060000 		.4byte	0x671
 961 036c 1B       		.uleb128 0x1b
 962 036d 50000000 		.4byte	.LVL11
 963 0371 82060000 		.4byte	0x682
 964 0375 1C       		.uleb128 0x1c
 965 0376 5A000000 		.4byte	.LVL14
 966 037a 89060000 		.4byte	0x689
 967 037e 88030000 		.4byte	0x388
ARM GAS  /var/folders/7z/kps_xzfj7sn5l5gkyq8s9db00000gn/T//ccVy0HGQ.s 			page 18


 968 0382 1D       		.uleb128 0x1d
 969 0383 01       		.uleb128 0x1
 970 0384 50       		.byte	0x50
 971 0385 01       		.uleb128 0x1
 972 0386 38       		.byte	0x38
 973 0387 00       		.byte	0
 974 0388 1E       		.uleb128 0x1e
 975 0389 76000000 		.4byte	.LVL18
 976 038d 9E060000 		.4byte	0x69e
 977 0391 1D       		.uleb128 0x1d
 978 0392 01       		.uleb128 0x1
 979 0393 50       		.byte	0x50
 980 0394 02       		.uleb128 0x2
 981 0395 91       		.byte	0x91
 982 0396 54       		.sleb128 -44
 983 0397 00       		.byte	0
 984 0398 00       		.byte	0
 985 0399 1F       		.uleb128 0x1f
 986 039a 04       		.byte	0x4
 987 039b 97000000 		.4byte	0x97
 988 039f 11       		.uleb128 0x11
 989 03a0 E4010000 		.4byte	.LASF42
 990 03a4 01       		.byte	0x1
 991 03a5 A8       		.byte	0xa8
 992 03a6 21010000 		.4byte	0x121
 993 03aa 00000000 		.4byte	.LFB112
 994 03ae 4E010000 		.4byte	.LFE112-.LFB112
 995 03b2 01       		.uleb128 0x1
 996 03b3 9C       		.byte	0x9c
 997 03b4 36060000 		.4byte	0x636
 998 03b8 20       		.uleb128 0x20
 999 03b9 4B657900 		.ascii	"Key\000"
 1000 03bd 01       		.byte	0x1
 1001 03be A8       		.byte	0xa8
 1002 03bf 99030000 		.4byte	0x399
 1003 03c3 EE010000 		.4byte	.LLST11
 1004 03c7 12       		.uleb128 0x12
 1005 03c8 07040000 		.4byte	.LASF43
 1006 03cc 01       		.byte	0x1
 1007 03cd A8       		.byte	0xa8
 1008 03ce B8000000 		.4byte	0xb8
 1009 03d2 0C020000 		.4byte	.LLST12
 1010 03d6 12       		.uleb128 0x12
 1011 03d7 D0030000 		.4byte	.LASF30
 1012 03db 01       		.byte	0x1
 1013 03dc A8       		.byte	0xa8
 1014 03dd 99030000 		.4byte	0x399
 1015 03e1 2A020000 		.4byte	.LLST13
 1016 03e5 12       		.uleb128 0x12
 1017 03e6 5F020000 		.4byte	.LASF31
 1018 03ea 01       		.byte	0x1
 1019 03eb A9       		.byte	0xa9
 1020 03ec B8000000 		.4byte	0xb8
 1021 03f0 48020000 		.4byte	.LLST14
 1022 03f4 12       		.uleb128 0x12
 1023 03f5 3D010000 		.4byte	.LASF32
 1024 03f9 01       		.byte	0x1
ARM GAS  /var/folders/7z/kps_xzfj7sn5l5gkyq8s9db00000gn/T//ccVy0HGQ.s 			page 19


 1025 03fa A9       		.byte	0xa9
 1026 03fb 99030000 		.4byte	0x399
 1027 03ff 66020000 		.4byte	.LLST15
 1028 0403 13       		.uleb128 0x13
 1029 0404 0E030000 		.4byte	.LASF33
 1030 0408 01       		.byte	0x1
 1031 0409 AB       		.byte	0xab
 1032 040a 66010000 		.4byte	0x166
 1033 040e 02       		.uleb128 0x2
 1034 040f 91       		.byte	0x91
 1035 0410 44       		.sleb128 -60
 1036 0411 13       		.uleb128 0x13
 1037 0412 DA020000 		.4byte	.LASF34
 1038 0416 01       		.byte	0x1
 1039 0417 AC       		.byte	0xac
 1040 0418 86010000 		.4byte	0x186
 1041 041c 02       		.uleb128 0x2
 1042 041d 91       		.byte	0x91
 1043 041e 54       		.sleb128 -44
 1044 041f 13       		.uleb128 0x13
 1045 0420 D6030000 		.4byte	.LASF35
 1046 0424 01       		.byte	0x1
 1047 0425 AD       		.byte	0xad
 1048 0426 DF000000 		.4byte	0xdf
 1049 042a 03       		.uleb128 0x3
 1050 042b 91       		.byte	0x91
 1051 042c BC7F     		.sleb128 -68
 1052 042e 13       		.uleb128 0x13
 1053 042f 2D020000 		.4byte	.LASF44
 1054 0433 01       		.byte	0x1
 1055 0434 AE       		.byte	0xae
 1056 0435 DF000000 		.4byte	0xdf
 1057 0439 03       		.uleb128 0x3
 1058 043a 91       		.byte	0x91
 1059 043b BE7F     		.sleb128 -66
 1060 043d 14       		.uleb128 0x14
 1061 043e 6900     		.ascii	"i\000"
 1062 0440 01       		.byte	0x1
 1063 0441 AF       		.byte	0xaf
 1064 0442 B8000000 		.4byte	0xb8
 1065 0446 86020000 		.4byte	.LLST16
 1066 044a 13       		.uleb128 0x13
 1067 044b 07000000 		.4byte	.LASF36
 1068 044f 01       		.byte	0x1
 1069 0450 B0       		.byte	0xb0
 1070 0451 CA000000 		.4byte	0xca
 1071 0455 02       		.uleb128 0x2
 1072 0456 91       		.byte	0x91
 1073 0457 40       		.sleb128 -64
 1074 0458 15       		.uleb128 0x15
 1075 0459 62030000 		.4byte	.LASF37
 1076 045d 01       		.byte	0x1
 1077 045e B1       		.byte	0xb1
 1078 045f B8000000 		.4byte	0xb8
 1079 0463 54030000 		.4byte	.LLST17
 1080 0467 15       		.uleb128 0x15
 1081 0468 FF020000 		.4byte	.LASF38
ARM GAS  /var/folders/7z/kps_xzfj7sn5l5gkyq8s9db00000gn/T//ccVy0HGQ.s 			page 20


 1082 046c 01       		.byte	0x1
 1083 046d B2       		.byte	0xb2
 1084 046e 21010000 		.4byte	0x121
 1085 0472 C1030000 		.4byte	.LLST18
 1086 0476 15       		.uleb128 0x15
 1087 0477 9B010000 		.4byte	.LASF45
 1088 047b 01       		.byte	0x1
 1089 047c B3       		.byte	0xb3
 1090 047d B8000000 		.4byte	0xb8
 1091 0481 EC030000 		.4byte	.LLST19
 1092 0485 15       		.uleb128 0x15
 1093 0486 33010000 		.4byte	.LASF39
 1094 048a 01       		.byte	0x1
 1095 048b B4       		.byte	0xb4
 1096 048c B8000000 		.4byte	0xb8
 1097 0490 66040000 		.4byte	.LLST20
 1098 0494 15       		.uleb128 0x15
 1099 0495 8A010000 		.4byte	.LASF40
 1100 0499 01       		.byte	0x1
 1101 049a B5       		.byte	0xb5
 1102 049b B8000000 		.4byte	0xb8
 1103 049f B2040000 		.4byte	.LLST21
 1104 04a3 21       		.uleb128 0x21
 1105 04a4 91010000 		.4byte	0x191
 1106 04a8 30010000 		.4byte	.LBB26
 1107 04ac 04000000 		.4byte	.LBE26-.LBB26
 1108 04b0 01       		.byte	0x1
 1109 04b1 2301     		.2byte	0x123
 1110 04b3 D3040000 		.4byte	0x4d3
 1111 04b7 17       		.uleb128 0x17
 1112 04b8 A2010000 		.4byte	0x1a2
 1113 04bc 02       		.uleb128 0x2
 1114 04bd 91       		.byte	0x91
 1115 04be 54       		.sleb128 -44
 1116 04bf 18       		.uleb128 0x18
 1117 04c0 30010000 		.4byte	.LBB27
 1118 04c4 04000000 		.4byte	.LBE27-.LBB27
 1119 04c8 19       		.uleb128 0x19
 1120 04c9 AE010000 		.4byte	0x1ae
 1121 04cd F9040000 		.4byte	.LLST22
 1122 04d1 00       		.byte	0
 1123 04d2 00       		.byte	0
 1124 04d3 21       		.uleb128 0x21
 1125 04d4 91010000 		.4byte	0x191
 1126 04d8 38010000 		.4byte	.LBB28
 1127 04dc 04000000 		.4byte	.LBE28-.LBB28
 1128 04e0 01       		.byte	0x1
 1129 04e1 2501     		.2byte	0x125
 1130 04e3 03050000 		.4byte	0x503
 1131 04e7 17       		.uleb128 0x17
 1132 04e8 A2010000 		.4byte	0x1a2
 1133 04ec 02       		.uleb128 0x2
 1134 04ed 91       		.byte	0x91
 1135 04ee 58       		.sleb128 -40
 1136 04ef 18       		.uleb128 0x18
 1137 04f0 38010000 		.4byte	.LBB29
 1138 04f4 04000000 		.4byte	.LBE29-.LBB29
ARM GAS  /var/folders/7z/kps_xzfj7sn5l5gkyq8s9db00000gn/T//ccVy0HGQ.s 			page 21


 1139 04f8 19       		.uleb128 0x19
 1140 04f9 AE010000 		.4byte	0x1ae
 1141 04fd 18050000 		.4byte	.LLST23
 1142 0501 00       		.byte	0
 1143 0502 00       		.byte	0
 1144 0503 21       		.uleb128 0x21
 1145 0504 91010000 		.4byte	0x191
 1146 0508 3E010000 		.4byte	.LBB30
 1147 050c 04000000 		.4byte	.LBE30-.LBB30
 1148 0510 01       		.byte	0x1
 1149 0511 2701     		.2byte	0x127
 1150 0513 33050000 		.4byte	0x533
 1151 0517 17       		.uleb128 0x17
 1152 0518 A2010000 		.4byte	0x1a2
 1153 051c 02       		.uleb128 0x2
 1154 051d 91       		.byte	0x91
 1155 051e 5C       		.sleb128 -36
 1156 051f 18       		.uleb128 0x18
 1157 0520 3E010000 		.4byte	.LBB31
 1158 0524 04000000 		.4byte	.LBE31-.LBB31
 1159 0528 19       		.uleb128 0x19
 1160 0529 AE010000 		.4byte	0x1ae
 1161 052d 37050000 		.4byte	.LLST24
 1162 0531 00       		.byte	0
 1163 0532 00       		.byte	0
 1164 0533 21       		.uleb128 0x21
 1165 0534 91010000 		.4byte	0x191
 1166 0538 44010000 		.4byte	.LBB32
 1167 053c 04000000 		.4byte	.LBE32-.LBB32
 1168 0540 01       		.byte	0x1
 1169 0541 2901     		.2byte	0x129
 1170 0543 61050000 		.4byte	0x561
 1171 0547 17       		.uleb128 0x17
 1172 0548 A2010000 		.4byte	0x1a2
 1173 054c 02       		.uleb128 0x2
 1174 054d 91       		.byte	0x91
 1175 054e 60       		.sleb128 -32
 1176 054f 18       		.uleb128 0x18
 1177 0550 44010000 		.4byte	.LBB33
 1178 0554 04000000 		.4byte	.LBE33-.LBB33
 1179 0558 1A       		.uleb128 0x1a
 1180 0559 AE010000 		.4byte	0x1ae
 1181 055d 01       		.uleb128 0x1
 1182 055e 53       		.byte	0x53
 1183 055f 00       		.byte	0
 1184 0560 00       		.byte	0
 1185 0561 1B       		.uleb128 0x1b
 1186 0562 32000000 		.4byte	.LVL35
 1187 0566 42060000 		.4byte	0x642
 1188 056a 1C       		.uleb128 0x1c
 1189 056b 4E000000 		.4byte	.LVL36
 1190 056f 49060000 		.4byte	0x649
 1191 0573 7E050000 		.4byte	0x57e
 1192 0577 1D       		.uleb128 0x1d
 1193 0578 01       		.uleb128 0x1
 1194 0579 50       		.byte	0x50
 1195 057a 02       		.uleb128 0x2
ARM GAS  /var/folders/7z/kps_xzfj7sn5l5gkyq8s9db00000gn/T//ccVy0HGQ.s 			page 22


 1196 057b 91       		.byte	0x91
 1197 057c 44       		.sleb128 -60
 1198 057d 00       		.byte	0
 1199 057e 1B       		.uleb128 0x1b
 1200 057f 58000000 		.4byte	.LVL37
 1201 0583 60060000 		.4byte	0x660
 1202 0587 1B       		.uleb128 0x1b
 1203 0588 62000000 		.4byte	.LVL40
 1204 058c 71060000 		.4byte	0x671
 1205 0590 1B       		.uleb128 0x1b
 1206 0591 6C000000 		.4byte	.LVL42
 1207 0595 82060000 		.4byte	0x682
 1208 0599 1C       		.uleb128 0x1c
 1209 059a 76000000 		.4byte	.LVL45
 1210 059e 89060000 		.4byte	0x689
 1211 05a2 AC050000 		.4byte	0x5ac
 1212 05a6 1D       		.uleb128 0x1d
 1213 05a7 01       		.uleb128 0x1
 1214 05a8 50       		.byte	0x50
 1215 05a9 01       		.uleb128 0x1
 1216 05aa 38       		.byte	0x38
 1217 05ab 00       		.byte	0
 1218 05ac 1C       		.uleb128 0x1c
 1219 05ad 96000000 		.4byte	.LVL49
 1220 05b1 49060000 		.4byte	0x649
 1221 05b5 C0050000 		.4byte	0x5c0
 1222 05b9 1D       		.uleb128 0x1d
 1223 05ba 01       		.uleb128 0x1
 1224 05bb 50       		.byte	0x50
 1225 05bc 02       		.uleb128 0x2
 1226 05bd 91       		.byte	0x91
 1227 05be 44       		.sleb128 -60
 1228 05bf 00       		.byte	0
 1229 05c0 1B       		.uleb128 0x1b
 1230 05c1 A0000000 		.4byte	.LVL50
 1231 05c5 60060000 		.4byte	0x660
 1232 05c9 1B       		.uleb128 0x1b
 1233 05ca B2000000 		.4byte	.LVL53
 1234 05ce 60060000 		.4byte	0x660
 1235 05d2 1B       		.uleb128 0x1b
 1236 05d3 BE000000 		.4byte	.LVL56
 1237 05d7 71060000 		.4byte	0x671
 1238 05db 1B       		.uleb128 0x1b
 1239 05dc CA000000 		.4byte	.LVL58
 1240 05e0 82060000 		.4byte	0x682
 1241 05e4 1C       		.uleb128 0x1c
 1242 05e5 D8000000 		.4byte	.LVL61
 1243 05e9 89060000 		.4byte	0x689
 1244 05ed F7050000 		.4byte	0x5f7
 1245 05f1 1D       		.uleb128 0x1d
 1246 05f2 01       		.uleb128 0x1
 1247 05f3 50       		.byte	0x50
 1248 05f4 01       		.uleb128 0x1
 1249 05f5 38       		.byte	0x38
 1250 05f6 00       		.byte	0
 1251 05f7 1B       		.uleb128 0x1b
 1252 05f8 F4000000 		.4byte	.LVL63
ARM GAS  /var/folders/7z/kps_xzfj7sn5l5gkyq8s9db00000gn/T//ccVy0HGQ.s 			page 23


 1253 05fc 60060000 		.4byte	0x660
 1254 0600 1B       		.uleb128 0x1b
 1255 0601 00010000 		.4byte	.LVL66
 1256 0605 71060000 		.4byte	0x671
 1257 0609 1B       		.uleb128 0x1b
 1258 060a 0A010000 		.4byte	.LVL68
 1259 060e 82060000 		.4byte	0x682
 1260 0612 1C       		.uleb128 0x1c
 1261 0613 18010000 		.4byte	.LVL71
 1262 0617 89060000 		.4byte	0x689
 1263 061b 25060000 		.4byte	0x625
 1264 061f 1D       		.uleb128 0x1d
 1265 0620 01       		.uleb128 0x1
 1266 0621 50       		.byte	0x50
 1267 0622 01       		.uleb128 0x1
 1268 0623 38       		.byte	0x38
 1269 0624 00       		.byte	0
 1270 0625 1E       		.uleb128 0x1e
 1271 0626 30010000 		.4byte	.LVL73
 1272 062a 9E060000 		.4byte	0x69e
 1273 062e 1D       		.uleb128 0x1d
 1274 062f 01       		.uleb128 0x1
 1275 0630 50       		.byte	0x50
 1276 0631 02       		.uleb128 0x2
 1277 0632 91       		.byte	0x91
 1278 0633 54       		.sleb128 -44
 1279 0634 00       		.byte	0
 1280 0635 00       		.byte	0
 1281 0636 22       		.uleb128 0x22
 1282 0637 E6030000 		.4byte	.LASF58
 1283 063b 07       		.byte	0x7
 1284 063c 9806     		.2byte	0x698
 1285 063e E4000000 		.4byte	0xe4
 1286 0642 23       		.uleb128 0x23
 1287 0643 33030000 		.4byte	.LASF49
 1288 0647 06       		.byte	0x6
 1289 0648 C4       		.byte	0xc4
 1290 0649 24       		.uleb128 0x24
 1291 064a C8020000 		.4byte	.LASF46
 1292 064e 06       		.byte	0x6
 1293 064f C7       		.byte	0xc7
 1294 0650 5A060000 		.4byte	0x65a
 1295 0654 25       		.uleb128 0x25
 1296 0655 5A060000 		.4byte	0x65a
 1297 0659 00       		.byte	0
 1298 065a 1F       		.uleb128 0x1f
 1299 065b 04       		.byte	0x4
 1300 065c 66010000 		.4byte	0x166
 1301 0660 24       		.uleb128 0x24
 1302 0661 B3030000 		.4byte	.LASF47
 1303 0665 06       		.byte	0x6
 1304 0666 CE       		.byte	0xce
 1305 0667 71060000 		.4byte	0x671
 1306 066b 25       		.uleb128 0x25
 1307 066c A2000000 		.4byte	0xa2
 1308 0670 00       		.byte	0
 1309 0671 24       		.uleb128 0x24
ARM GAS  /var/folders/7z/kps_xzfj7sn5l5gkyq8s9db00000gn/T//ccVy0HGQ.s 			page 24


 1310 0672 21020000 		.4byte	.LASF48
 1311 0676 06       		.byte	0x6
 1312 0677 CC       		.byte	0xcc
 1313 0678 82060000 		.4byte	0x682
 1314 067c 25       		.uleb128 0x25
 1315 067d B8000000 		.4byte	0xb8
 1316 0681 00       		.byte	0
 1317 0682 23       		.uleb128 0x23
 1318 0683 3F030000 		.4byte	.LASF50
 1319 0687 06       		.byte	0x6
 1320 0688 CF       		.byte	0xcf
 1321 0689 26       		.uleb128 0x26
 1322 068a 1F040000 		.4byte	.LASF59
 1323 068e 06       		.byte	0x6
 1324 068f DB       		.byte	0xdb
 1325 0690 FF000000 		.4byte	0xff
 1326 0694 9E060000 		.4byte	0x69e
 1327 0698 25       		.uleb128 0x25
 1328 0699 A2000000 		.4byte	0xa2
 1329 069d 00       		.byte	0
 1330 069e 24       		.uleb128 0x24
 1331 069f 73010000 		.4byte	.LASF51
 1332 06a3 06       		.byte	0x6
 1333 06a4 D0       		.byte	0xd0
 1334 06a5 AF060000 		.4byte	0x6af
 1335 06a9 25       		.uleb128 0x25
 1336 06aa AF060000 		.4byte	0x6af
 1337 06ae 00       		.byte	0
 1338 06af 1F       		.uleb128 0x1f
 1339 06b0 04       		.byte	0x4
 1340 06b1 86010000 		.4byte	0x186
 1341 06b5 00       		.byte	0
 1342              		.section	.debug_abbrev,"",%progbits
 1343              	.Ldebug_abbrev0:
 1344 0000 01       		.uleb128 0x1
 1345 0001 11       		.uleb128 0x11
 1346 0002 01       		.byte	0x1
 1347 0003 25       		.uleb128 0x25
 1348 0004 0E       		.uleb128 0xe
 1349 0005 13       		.uleb128 0x13
 1350 0006 0B       		.uleb128 0xb
 1351 0007 03       		.uleb128 0x3
 1352 0008 0E       		.uleb128 0xe
 1353 0009 1B       		.uleb128 0x1b
 1354 000a 0E       		.uleb128 0xe
 1355 000b 55       		.uleb128 0x55
 1356 000c 17       		.uleb128 0x17
 1357 000d 11       		.uleb128 0x11
 1358 000e 01       		.uleb128 0x1
 1359 000f 10       		.uleb128 0x10
 1360 0010 17       		.uleb128 0x17
 1361 0011 00       		.byte	0
 1362 0012 00       		.byte	0
 1363 0013 02       		.uleb128 0x2
 1364 0014 24       		.uleb128 0x24
 1365 0015 00       		.byte	0
 1366 0016 0B       		.uleb128 0xb
ARM GAS  /var/folders/7z/kps_xzfj7sn5l5gkyq8s9db00000gn/T//ccVy0HGQ.s 			page 25


 1367 0017 0B       		.uleb128 0xb
 1368 0018 3E       		.uleb128 0x3e
 1369 0019 0B       		.uleb128 0xb
 1370 001a 03       		.uleb128 0x3
 1371 001b 0E       		.uleb128 0xe
 1372 001c 00       		.byte	0
 1373 001d 00       		.byte	0
 1374 001e 03       		.uleb128 0x3
 1375 001f 16       		.uleb128 0x16
 1376 0020 00       		.byte	0
 1377 0021 03       		.uleb128 0x3
 1378 0022 0E       		.uleb128 0xe
 1379 0023 3A       		.uleb128 0x3a
 1380 0024 0B       		.uleb128 0xb
 1381 0025 3B       		.uleb128 0x3b
 1382 0026 0B       		.uleb128 0xb
 1383 0027 49       		.uleb128 0x49
 1384 0028 13       		.uleb128 0x13
 1385 0029 00       		.byte	0
 1386 002a 00       		.byte	0
 1387 002b 04       		.uleb128 0x4
 1388 002c 24       		.uleb128 0x24
 1389 002d 00       		.byte	0
 1390 002e 0B       		.uleb128 0xb
 1391 002f 0B       		.uleb128 0xb
 1392 0030 3E       		.uleb128 0x3e
 1393 0031 0B       		.uleb128 0xb
 1394 0032 03       		.uleb128 0x3
 1395 0033 08       		.uleb128 0x8
 1396 0034 00       		.byte	0
 1397 0035 00       		.byte	0
 1398 0036 05       		.uleb128 0x5
 1399 0037 35       		.uleb128 0x35
 1400 0038 00       		.byte	0
 1401 0039 49       		.uleb128 0x49
 1402 003a 13       		.uleb128 0x13
 1403 003b 00       		.byte	0
 1404 003c 00       		.byte	0
 1405 003d 06       		.uleb128 0x6
 1406 003e 01       		.uleb128 0x1
 1407 003f 01       		.byte	0x1
 1408 0040 49       		.uleb128 0x49
 1409 0041 13       		.uleb128 0x13
 1410 0042 01       		.uleb128 0x1
 1411 0043 13       		.uleb128 0x13
 1412 0044 00       		.byte	0
 1413 0045 00       		.byte	0
 1414 0046 07       		.uleb128 0x7
 1415 0047 21       		.uleb128 0x21
 1416 0048 00       		.byte	0
 1417 0049 49       		.uleb128 0x49
 1418 004a 13       		.uleb128 0x13
 1419 004b 2F       		.uleb128 0x2f
 1420 004c 0B       		.uleb128 0xb
 1421 004d 00       		.byte	0
 1422 004e 00       		.byte	0
 1423 004f 08       		.uleb128 0x8
ARM GAS  /var/folders/7z/kps_xzfj7sn5l5gkyq8s9db00000gn/T//ccVy0HGQ.s 			page 26


 1424 0050 04       		.uleb128 0x4
 1425 0051 01       		.byte	0x1
 1426 0052 0B       		.uleb128 0xb
 1427 0053 0B       		.uleb128 0xb
 1428 0054 3A       		.uleb128 0x3a
 1429 0055 0B       		.uleb128 0xb
 1430 0056 3B       		.uleb128 0x3b
 1431 0057 05       		.uleb128 0x5
 1432 0058 01       		.uleb128 0x1
 1433 0059 13       		.uleb128 0x13
 1434 005a 00       		.byte	0
 1435 005b 00       		.byte	0
 1436 005c 09       		.uleb128 0x9
 1437 005d 28       		.uleb128 0x28
 1438 005e 00       		.byte	0
 1439 005f 03       		.uleb128 0x3
 1440 0060 0E       		.uleb128 0xe
 1441 0061 1C       		.uleb128 0x1c
 1442 0062 0D       		.uleb128 0xd
 1443 0063 00       		.byte	0
 1444 0064 00       		.byte	0
 1445 0065 0A       		.uleb128 0xa
 1446 0066 28       		.uleb128 0x28
 1447 0067 00       		.byte	0
 1448 0068 03       		.uleb128 0x3
 1449 0069 08       		.uleb128 0x8
 1450 006a 1C       		.uleb128 0x1c
 1451 006b 0D       		.uleb128 0xd
 1452 006c 00       		.byte	0
 1453 006d 00       		.byte	0
 1454 006e 0B       		.uleb128 0xb
 1455 006f 16       		.uleb128 0x16
 1456 0070 00       		.byte	0
 1457 0071 03       		.uleb128 0x3
 1458 0072 0E       		.uleb128 0xe
 1459 0073 3A       		.uleb128 0x3a
 1460 0074 0B       		.uleb128 0xb
 1461 0075 3B       		.uleb128 0x3b
 1462 0076 05       		.uleb128 0x5
 1463 0077 49       		.uleb128 0x49
 1464 0078 13       		.uleb128 0x13
 1465 0079 00       		.byte	0
 1466 007a 00       		.byte	0
 1467 007b 0C       		.uleb128 0xc
 1468 007c 13       		.uleb128 0x13
 1469 007d 01       		.byte	0x1
 1470 007e 0B       		.uleb128 0xb
 1471 007f 0B       		.uleb128 0xb
 1472 0080 3A       		.uleb128 0x3a
 1473 0081 0B       		.uleb128 0xb
 1474 0082 3B       		.uleb128 0x3b
 1475 0083 0B       		.uleb128 0xb
 1476 0084 01       		.uleb128 0x1
 1477 0085 13       		.uleb128 0x13
 1478 0086 00       		.byte	0
 1479 0087 00       		.byte	0
 1480 0088 0D       		.uleb128 0xd
ARM GAS  /var/folders/7z/kps_xzfj7sn5l5gkyq8s9db00000gn/T//ccVy0HGQ.s 			page 27


 1481 0089 0D       		.uleb128 0xd
 1482 008a 00       		.byte	0
 1483 008b 03       		.uleb128 0x3
 1484 008c 0E       		.uleb128 0xe
 1485 008d 3A       		.uleb128 0x3a
 1486 008e 0B       		.uleb128 0xb
 1487 008f 3B       		.uleb128 0x3b
 1488 0090 0B       		.uleb128 0xb
 1489 0091 49       		.uleb128 0x49
 1490 0092 13       		.uleb128 0x13
 1491 0093 38       		.uleb128 0x38
 1492 0094 0B       		.uleb128 0xb
 1493 0095 00       		.byte	0
 1494 0096 00       		.byte	0
 1495 0097 0E       		.uleb128 0xe
 1496 0098 2E       		.uleb128 0x2e
 1497 0099 01       		.byte	0x1
 1498 009a 03       		.uleb128 0x3
 1499 009b 0E       		.uleb128 0xe
 1500 009c 3A       		.uleb128 0x3a
 1501 009d 0B       		.uleb128 0xb
 1502 009e 3B       		.uleb128 0x3b
 1503 009f 05       		.uleb128 0x5
 1504 00a0 27       		.uleb128 0x27
 1505 00a1 19       		.uleb128 0x19
 1506 00a2 49       		.uleb128 0x49
 1507 00a3 13       		.uleb128 0x13
 1508 00a4 20       		.uleb128 0x20
 1509 00a5 0B       		.uleb128 0xb
 1510 00a6 01       		.uleb128 0x1
 1511 00a7 13       		.uleb128 0x13
 1512 00a8 00       		.byte	0
 1513 00a9 00       		.byte	0
 1514 00aa 0F       		.uleb128 0xf
 1515 00ab 05       		.uleb128 0x5
 1516 00ac 00       		.byte	0
 1517 00ad 03       		.uleb128 0x3
 1518 00ae 0E       		.uleb128 0xe
 1519 00af 3A       		.uleb128 0x3a
 1520 00b0 0B       		.uleb128 0xb
 1521 00b1 3B       		.uleb128 0x3b
 1522 00b2 05       		.uleb128 0x5
 1523 00b3 49       		.uleb128 0x49
 1524 00b4 13       		.uleb128 0x13
 1525 00b5 00       		.byte	0
 1526 00b6 00       		.byte	0
 1527 00b7 10       		.uleb128 0x10
 1528 00b8 34       		.uleb128 0x34
 1529 00b9 00       		.byte	0
 1530 00ba 03       		.uleb128 0x3
 1531 00bb 0E       		.uleb128 0xe
 1532 00bc 3A       		.uleb128 0x3a
 1533 00bd 0B       		.uleb128 0xb
 1534 00be 3B       		.uleb128 0x3b
 1535 00bf 05       		.uleb128 0x5
 1536 00c0 49       		.uleb128 0x49
 1537 00c1 13       		.uleb128 0x13
ARM GAS  /var/folders/7z/kps_xzfj7sn5l5gkyq8s9db00000gn/T//ccVy0HGQ.s 			page 28


 1538 00c2 00       		.byte	0
 1539 00c3 00       		.byte	0
 1540 00c4 11       		.uleb128 0x11
 1541 00c5 2E       		.uleb128 0x2e
 1542 00c6 01       		.byte	0x1
 1543 00c7 3F       		.uleb128 0x3f
 1544 00c8 19       		.uleb128 0x19
 1545 00c9 03       		.uleb128 0x3
 1546 00ca 0E       		.uleb128 0xe
 1547 00cb 3A       		.uleb128 0x3a
 1548 00cc 0B       		.uleb128 0xb
 1549 00cd 3B       		.uleb128 0x3b
 1550 00ce 0B       		.uleb128 0xb
 1551 00cf 27       		.uleb128 0x27
 1552 00d0 19       		.uleb128 0x19
 1553 00d1 49       		.uleb128 0x49
 1554 00d2 13       		.uleb128 0x13
 1555 00d3 11       		.uleb128 0x11
 1556 00d4 01       		.uleb128 0x1
 1557 00d5 12       		.uleb128 0x12
 1558 00d6 06       		.uleb128 0x6
 1559 00d7 40       		.uleb128 0x40
 1560 00d8 18       		.uleb128 0x18
 1561 00d9 9742     		.uleb128 0x2117
 1562 00db 19       		.uleb128 0x19
 1563 00dc 01       		.uleb128 0x1
 1564 00dd 13       		.uleb128 0x13
 1565 00de 00       		.byte	0
 1566 00df 00       		.byte	0
 1567 00e0 12       		.uleb128 0x12
 1568 00e1 05       		.uleb128 0x5
 1569 00e2 00       		.byte	0
 1570 00e3 03       		.uleb128 0x3
 1571 00e4 0E       		.uleb128 0xe
 1572 00e5 3A       		.uleb128 0x3a
 1573 00e6 0B       		.uleb128 0xb
 1574 00e7 3B       		.uleb128 0x3b
 1575 00e8 0B       		.uleb128 0xb
 1576 00e9 49       		.uleb128 0x49
 1577 00ea 13       		.uleb128 0x13
 1578 00eb 02       		.uleb128 0x2
 1579 00ec 17       		.uleb128 0x17
 1580 00ed 00       		.byte	0
 1581 00ee 00       		.byte	0
 1582 00ef 13       		.uleb128 0x13
 1583 00f0 34       		.uleb128 0x34
 1584 00f1 00       		.byte	0
 1585 00f2 03       		.uleb128 0x3
 1586 00f3 0E       		.uleb128 0xe
 1587 00f4 3A       		.uleb128 0x3a
 1588 00f5 0B       		.uleb128 0xb
 1589 00f6 3B       		.uleb128 0x3b
 1590 00f7 0B       		.uleb128 0xb
 1591 00f8 49       		.uleb128 0x49
 1592 00f9 13       		.uleb128 0x13
 1593 00fa 02       		.uleb128 0x2
 1594 00fb 18       		.uleb128 0x18
ARM GAS  /var/folders/7z/kps_xzfj7sn5l5gkyq8s9db00000gn/T//ccVy0HGQ.s 			page 29


 1595 00fc 00       		.byte	0
 1596 00fd 00       		.byte	0
 1597 00fe 14       		.uleb128 0x14
 1598 00ff 34       		.uleb128 0x34
 1599 0100 00       		.byte	0
 1600 0101 03       		.uleb128 0x3
 1601 0102 08       		.uleb128 0x8
 1602 0103 3A       		.uleb128 0x3a
 1603 0104 0B       		.uleb128 0xb
 1604 0105 3B       		.uleb128 0x3b
 1605 0106 0B       		.uleb128 0xb
 1606 0107 49       		.uleb128 0x49
 1607 0108 13       		.uleb128 0x13
 1608 0109 02       		.uleb128 0x2
 1609 010a 17       		.uleb128 0x17
 1610 010b 00       		.byte	0
 1611 010c 00       		.byte	0
 1612 010d 15       		.uleb128 0x15
 1613 010e 34       		.uleb128 0x34
 1614 010f 00       		.byte	0
 1615 0110 03       		.uleb128 0x3
 1616 0111 0E       		.uleb128 0xe
 1617 0112 3A       		.uleb128 0x3a
 1618 0113 0B       		.uleb128 0xb
 1619 0114 3B       		.uleb128 0x3b
 1620 0115 0B       		.uleb128 0xb
 1621 0116 49       		.uleb128 0x49
 1622 0117 13       		.uleb128 0x13
 1623 0118 02       		.uleb128 0x2
 1624 0119 17       		.uleb128 0x17
 1625 011a 00       		.byte	0
 1626 011b 00       		.byte	0
 1627 011c 16       		.uleb128 0x16
 1628 011d 1D       		.uleb128 0x1d
 1629 011e 01       		.byte	0x1
 1630 011f 31       		.uleb128 0x31
 1631 0120 13       		.uleb128 0x13
 1632 0121 11       		.uleb128 0x11
 1633 0122 01       		.uleb128 0x1
 1634 0123 12       		.uleb128 0x12
 1635 0124 06       		.uleb128 0x6
 1636 0125 58       		.uleb128 0x58
 1637 0126 0B       		.uleb128 0xb
 1638 0127 59       		.uleb128 0x59
 1639 0128 0B       		.uleb128 0xb
 1640 0129 01       		.uleb128 0x1
 1641 012a 13       		.uleb128 0x13
 1642 012b 00       		.byte	0
 1643 012c 00       		.byte	0
 1644 012d 17       		.uleb128 0x17
 1645 012e 05       		.uleb128 0x5
 1646 012f 00       		.byte	0
 1647 0130 31       		.uleb128 0x31
 1648 0131 13       		.uleb128 0x13
 1649 0132 02       		.uleb128 0x2
 1650 0133 18       		.uleb128 0x18
 1651 0134 00       		.byte	0
ARM GAS  /var/folders/7z/kps_xzfj7sn5l5gkyq8s9db00000gn/T//ccVy0HGQ.s 			page 30


 1652 0135 00       		.byte	0
 1653 0136 18       		.uleb128 0x18
 1654 0137 0B       		.uleb128 0xb
 1655 0138 01       		.byte	0x1
 1656 0139 11       		.uleb128 0x11
 1657 013a 01       		.uleb128 0x1
 1658 013b 12       		.uleb128 0x12
 1659 013c 06       		.uleb128 0x6
 1660 013d 00       		.byte	0
 1661 013e 00       		.byte	0
 1662 013f 19       		.uleb128 0x19
 1663 0140 34       		.uleb128 0x34
 1664 0141 00       		.byte	0
 1665 0142 31       		.uleb128 0x31
 1666 0143 13       		.uleb128 0x13
 1667 0144 02       		.uleb128 0x2
 1668 0145 17       		.uleb128 0x17
 1669 0146 00       		.byte	0
 1670 0147 00       		.byte	0
 1671 0148 1A       		.uleb128 0x1a
 1672 0149 34       		.uleb128 0x34
 1673 014a 00       		.byte	0
 1674 014b 31       		.uleb128 0x31
 1675 014c 13       		.uleb128 0x13
 1676 014d 02       		.uleb128 0x2
 1677 014e 18       		.uleb128 0x18
 1678 014f 00       		.byte	0
 1679 0150 00       		.byte	0
 1680 0151 1B       		.uleb128 0x1b
 1681 0152 898201   		.uleb128 0x4109
 1682 0155 00       		.byte	0
 1683 0156 11       		.uleb128 0x11
 1684 0157 01       		.uleb128 0x1
 1685 0158 31       		.uleb128 0x31
 1686 0159 13       		.uleb128 0x13
 1687 015a 00       		.byte	0
 1688 015b 00       		.byte	0
 1689 015c 1C       		.uleb128 0x1c
 1690 015d 898201   		.uleb128 0x4109
 1691 0160 01       		.byte	0x1
 1692 0161 11       		.uleb128 0x11
 1693 0162 01       		.uleb128 0x1
 1694 0163 31       		.uleb128 0x31
 1695 0164 13       		.uleb128 0x13
 1696 0165 01       		.uleb128 0x1
 1697 0166 13       		.uleb128 0x13
 1698 0167 00       		.byte	0
 1699 0168 00       		.byte	0
 1700 0169 1D       		.uleb128 0x1d
 1701 016a 8A8201   		.uleb128 0x410a
 1702 016d 00       		.byte	0
 1703 016e 02       		.uleb128 0x2
 1704 016f 18       		.uleb128 0x18
 1705 0170 9142     		.uleb128 0x2111
 1706 0172 18       		.uleb128 0x18
 1707 0173 00       		.byte	0
 1708 0174 00       		.byte	0
ARM GAS  /var/folders/7z/kps_xzfj7sn5l5gkyq8s9db00000gn/T//ccVy0HGQ.s 			page 31


 1709 0175 1E       		.uleb128 0x1e
 1710 0176 898201   		.uleb128 0x4109
 1711 0179 01       		.byte	0x1
 1712 017a 11       		.uleb128 0x11
 1713 017b 01       		.uleb128 0x1
 1714 017c 31       		.uleb128 0x31
 1715 017d 13       		.uleb128 0x13
 1716 017e 00       		.byte	0
 1717 017f 00       		.byte	0
 1718 0180 1F       		.uleb128 0x1f
 1719 0181 0F       		.uleb128 0xf
 1720 0182 00       		.byte	0
 1721 0183 0B       		.uleb128 0xb
 1722 0184 0B       		.uleb128 0xb
 1723 0185 49       		.uleb128 0x49
 1724 0186 13       		.uleb128 0x13
 1725 0187 00       		.byte	0
 1726 0188 00       		.byte	0
 1727 0189 20       		.uleb128 0x20
 1728 018a 05       		.uleb128 0x5
 1729 018b 00       		.byte	0
 1730 018c 03       		.uleb128 0x3
 1731 018d 08       		.uleb128 0x8
 1732 018e 3A       		.uleb128 0x3a
 1733 018f 0B       		.uleb128 0xb
 1734 0190 3B       		.uleb128 0x3b
 1735 0191 0B       		.uleb128 0xb
 1736 0192 49       		.uleb128 0x49
 1737 0193 13       		.uleb128 0x13
 1738 0194 02       		.uleb128 0x2
 1739 0195 17       		.uleb128 0x17
 1740 0196 00       		.byte	0
 1741 0197 00       		.byte	0
 1742 0198 21       		.uleb128 0x21
 1743 0199 1D       		.uleb128 0x1d
 1744 019a 01       		.byte	0x1
 1745 019b 31       		.uleb128 0x31
 1746 019c 13       		.uleb128 0x13
 1747 019d 11       		.uleb128 0x11
 1748 019e 01       		.uleb128 0x1
 1749 019f 12       		.uleb128 0x12
 1750 01a0 06       		.uleb128 0x6
 1751 01a1 58       		.uleb128 0x58
 1752 01a2 0B       		.uleb128 0xb
 1753 01a3 59       		.uleb128 0x59
 1754 01a4 05       		.uleb128 0x5
 1755 01a5 01       		.uleb128 0x1
 1756 01a6 13       		.uleb128 0x13
 1757 01a7 00       		.byte	0
 1758 01a8 00       		.byte	0
 1759 01a9 22       		.uleb128 0x22
 1760 01aa 34       		.uleb128 0x34
 1761 01ab 00       		.byte	0
 1762 01ac 03       		.uleb128 0x3
 1763 01ad 0E       		.uleb128 0xe
 1764 01ae 3A       		.uleb128 0x3a
 1765 01af 0B       		.uleb128 0xb
ARM GAS  /var/folders/7z/kps_xzfj7sn5l5gkyq8s9db00000gn/T//ccVy0HGQ.s 			page 32


 1766 01b0 3B       		.uleb128 0x3b
 1767 01b1 05       		.uleb128 0x5
 1768 01b2 49       		.uleb128 0x49
 1769 01b3 13       		.uleb128 0x13
 1770 01b4 3F       		.uleb128 0x3f
 1771 01b5 19       		.uleb128 0x19
 1772 01b6 3C       		.uleb128 0x3c
 1773 01b7 19       		.uleb128 0x19
 1774 01b8 00       		.byte	0
 1775 01b9 00       		.byte	0
 1776 01ba 23       		.uleb128 0x23
 1777 01bb 2E       		.uleb128 0x2e
 1778 01bc 00       		.byte	0
 1779 01bd 3F       		.uleb128 0x3f
 1780 01be 19       		.uleb128 0x19
 1781 01bf 03       		.uleb128 0x3
 1782 01c0 0E       		.uleb128 0xe
 1783 01c1 3A       		.uleb128 0x3a
 1784 01c2 0B       		.uleb128 0xb
 1785 01c3 3B       		.uleb128 0x3b
 1786 01c4 0B       		.uleb128 0xb
 1787 01c5 27       		.uleb128 0x27
 1788 01c6 19       		.uleb128 0x19
 1789 01c7 3C       		.uleb128 0x3c
 1790 01c8 19       		.uleb128 0x19
 1791 01c9 00       		.byte	0
 1792 01ca 00       		.byte	0
 1793 01cb 24       		.uleb128 0x24
 1794 01cc 2E       		.uleb128 0x2e
 1795 01cd 01       		.byte	0x1
 1796 01ce 3F       		.uleb128 0x3f
 1797 01cf 19       		.uleb128 0x19
 1798 01d0 03       		.uleb128 0x3
 1799 01d1 0E       		.uleb128 0xe
 1800 01d2 3A       		.uleb128 0x3a
 1801 01d3 0B       		.uleb128 0xb
 1802 01d4 3B       		.uleb128 0x3b
 1803 01d5 0B       		.uleb128 0xb
 1804 01d6 27       		.uleb128 0x27
 1805 01d7 19       		.uleb128 0x19
 1806 01d8 3C       		.uleb128 0x3c
 1807 01d9 19       		.uleb128 0x19
 1808 01da 01       		.uleb128 0x1
 1809 01db 13       		.uleb128 0x13
 1810 01dc 00       		.byte	0
 1811 01dd 00       		.byte	0
 1812 01de 25       		.uleb128 0x25
 1813 01df 05       		.uleb128 0x5
 1814 01e0 00       		.byte	0
 1815 01e1 49       		.uleb128 0x49
 1816 01e2 13       		.uleb128 0x13
 1817 01e3 00       		.byte	0
 1818 01e4 00       		.byte	0
 1819 01e5 26       		.uleb128 0x26
 1820 01e6 2E       		.uleb128 0x2e
 1821 01e7 01       		.byte	0x1
 1822 01e8 3F       		.uleb128 0x3f
ARM GAS  /var/folders/7z/kps_xzfj7sn5l5gkyq8s9db00000gn/T//ccVy0HGQ.s 			page 33


 1823 01e9 19       		.uleb128 0x19
 1824 01ea 03       		.uleb128 0x3
 1825 01eb 0E       		.uleb128 0xe
 1826 01ec 3A       		.uleb128 0x3a
 1827 01ed 0B       		.uleb128 0xb
 1828 01ee 3B       		.uleb128 0x3b
 1829 01ef 0B       		.uleb128 0xb
 1830 01f0 27       		.uleb128 0x27
 1831 01f1 19       		.uleb128 0x19
 1832 01f2 49       		.uleb128 0x49
 1833 01f3 13       		.uleb128 0x13
 1834 01f4 3C       		.uleb128 0x3c
 1835 01f5 19       		.uleb128 0x19
 1836 01f6 01       		.uleb128 0x1
 1837 01f7 13       		.uleb128 0x13
 1838 01f8 00       		.byte	0
 1839 01f9 00       		.byte	0
 1840 01fa 00       		.byte	0
 1841              		.section	.debug_loc,"",%progbits
 1842              	.Ldebug_loc0:
 1843              	.LLST0:
 1844 0000 00000000 		.4byte	.LVL0
 1845 0004 1F000000 		.4byte	.LVL4-1
 1846 0008 0100     		.2byte	0x1
 1847 000a 50       		.byte	0x50
 1848 000b 1F000000 		.4byte	.LVL4-1
 1849 000f 94000000 		.4byte	.LFE111
 1850 0013 0100     		.2byte	0x1
 1851 0015 57       		.byte	0x57
 1852 0016 00000000 		.4byte	0
 1853 001a 00000000 		.4byte	0
 1854              	.LLST1:
 1855 001e 00000000 		.4byte	.LVL0
 1856 0022 1F000000 		.4byte	.LVL4-1
 1857 0026 0100     		.2byte	0x1
 1858 0028 51       		.byte	0x51
 1859 0029 1F000000 		.4byte	.LVL4-1
 1860 002d 94000000 		.4byte	.LFE111
 1861 0031 0100     		.2byte	0x1
 1862 0033 55       		.byte	0x55
 1863 0034 00000000 		.4byte	0
 1864 0038 00000000 		.4byte	0
 1865              	.LLST2:
 1866 003c 00000000 		.4byte	.LVL0
 1867 0040 1F000000 		.4byte	.LVL4-1
 1868 0044 0100     		.2byte	0x1
 1869 0046 52       		.byte	0x52
 1870 0047 1F000000 		.4byte	.LVL4-1
 1871 004b 94000000 		.4byte	.LFE111
 1872 004f 0100     		.2byte	0x1
 1873 0051 56       		.byte	0x56
 1874 0052 00000000 		.4byte	0
 1875 0056 00000000 		.4byte	0
 1876              	.LLST3:
 1877 005a 10000000 		.4byte	.LVL1
 1878 005e 3E000000 		.4byte	.LVL7
 1879 0062 0200     		.2byte	0x2
ARM GAS  /var/folders/7z/kps_xzfj7sn5l5gkyq8s9db00000gn/T//ccVy0HGQ.s 			page 34


 1880 0064 30       		.byte	0x30
 1881 0065 9F       		.byte	0x9f
 1882 0066 3E000000 		.4byte	.LVL7
 1883 006a 42000000 		.4byte	.LVL8
 1884 006e 0600     		.2byte	0x6
 1885 0070 74       		.byte	0x74
 1886 0071 00       		.sleb128 0
 1887 0072 77       		.byte	0x77
 1888 0073 00       		.sleb128 0
 1889 0074 1C       		.byte	0x1c
 1890 0075 9F       		.byte	0x9f
 1891 0076 42000000 		.4byte	.LVL8
 1892 007a 46000000 		.4byte	.LVL9
 1893 007e 0800     		.2byte	0x8
 1894 0080 74       		.byte	0x74
 1895 0081 00       		.sleb128 0
 1896 0082 77       		.byte	0x77
 1897 0083 00       		.sleb128 0
 1898 0084 1C       		.byte	0x1c
 1899 0085 34       		.byte	0x34
 1900 0086 1C       		.byte	0x1c
 1901 0087 9F       		.byte	0x9f
 1902 0088 46000000 		.4byte	.LVL9
 1903 008c 4C000000 		.4byte	.LVL10
 1904 0090 0600     		.2byte	0x6
 1905 0092 74       		.byte	0x74
 1906 0093 00       		.sleb128 0
 1907 0094 77       		.byte	0x77
 1908 0095 00       		.sleb128 0
 1909 0096 1C       		.byte	0x1c
 1910 0097 9F       		.byte	0x9f
 1911 0098 00000000 		.4byte	0
 1912 009c 00000000 		.4byte	0
 1913              	.LLST4:
 1914 00a0 16000000 		.4byte	.LVL2
 1915 00a4 52000000 		.4byte	.LVL12
 1916 00a8 0200     		.2byte	0x2
 1917 00aa 30       		.byte	0x30
 1918 00ab 9F       		.byte	0x9f
 1919 00ac 52000000 		.4byte	.LVL12
 1920 00b0 54000000 		.4byte	.LVL13
 1921 00b4 0100     		.2byte	0x1
 1922 00b6 50       		.byte	0x50
 1923 00b7 5A000000 		.4byte	.LVL14
 1924 00bb 6C000000 		.4byte	.LVL15
 1925 00bf 0100     		.2byte	0x1
 1926 00c1 50       		.byte	0x50
 1927 00c2 70000000 		.4byte	.LVL16
 1928 00c6 72000000 		.4byte	.LVL17
 1929 00ca 0100     		.2byte	0x1
 1930 00cc 50       		.byte	0x50
 1931 00cd 00000000 		.4byte	0
 1932 00d1 00000000 		.4byte	0
 1933              	.LLST5:
 1934 00d5 16000000 		.4byte	.LVL2
 1935 00d9 6C000000 		.4byte	.LVL15
 1936 00dd 0200     		.2byte	0x2
ARM GAS  /var/folders/7z/kps_xzfj7sn5l5gkyq8s9db00000gn/T//ccVy0HGQ.s 			page 35


 1937 00df 31       		.byte	0x31
 1938 00e0 9F       		.byte	0x9f
 1939 00e1 6C000000 		.4byte	.LVL15
 1940 00e5 70000000 		.4byte	.LVL16
 1941 00e9 0100     		.2byte	0x1
 1942 00eb 50       		.byte	0x50
 1943 00ec 70000000 		.4byte	.LVL16
 1944 00f0 90000000 		.4byte	.LVL29
 1945 00f4 0200     		.2byte	0x2
 1946 00f6 31       		.byte	0x31
 1947 00f7 9F       		.byte	0x9f
 1948 00f8 90000000 		.4byte	.LVL29
 1949 00fc 94000000 		.4byte	.LFE111
 1950 0100 0100     		.2byte	0x1
 1951 0102 50       		.byte	0x50
 1952 0103 00000000 		.4byte	0
 1953 0107 00000000 		.4byte	0
 1954              	.LLST6:
 1955 010b 16000000 		.4byte	.LVL2
 1956 010f 1F000000 		.4byte	.LVL4-1
 1957 0113 0100     		.2byte	0x1
 1958 0115 50       		.byte	0x50
 1959 0116 1F000000 		.4byte	.LVL4-1
 1960 011a 3E000000 		.4byte	.LVL7
 1961 011e 0100     		.2byte	0x1
 1962 0120 57       		.byte	0x57
 1963 0121 3E000000 		.4byte	.LVL7
 1964 0125 42000000 		.4byte	.LVL8
 1965 0129 0100     		.2byte	0x1
 1966 012b 54       		.byte	0x54
 1967 012c 42000000 		.4byte	.LVL8
 1968 0130 46000000 		.4byte	.LVL9
 1969 0134 0300     		.2byte	0x3
 1970 0136 74       		.byte	0x74
 1971 0137 7C       		.sleb128 -4
 1972 0138 9F       		.byte	0x9f
 1973 0139 46000000 		.4byte	.LVL9
 1974 013d 94000000 		.4byte	.LFE111
 1975 0141 0100     		.2byte	0x1
 1976 0143 54       		.byte	0x54
 1977 0144 00000000 		.4byte	0
 1978 0148 00000000 		.4byte	0
 1979              	.LLST7:
 1980 014c 18000000 		.4byte	.LVL3
 1981 0150 1F000000 		.4byte	.LVL4-1
 1982 0154 0100     		.2byte	0x1
 1983 0156 52       		.byte	0x52
 1984 0157 1F000000 		.4byte	.LVL4-1
 1985 015b 7C000000 		.4byte	.LVL20
 1986 015f 0100     		.2byte	0x1
 1987 0161 56       		.byte	0x56
 1988 0162 7C000000 		.4byte	.LVL20
 1989 0166 82000000 		.4byte	.LVL23
 1990 016a 0300     		.2byte	0x3
 1991 016c 76       		.byte	0x76
 1992 016d 04       		.sleb128 4
 1993 016e 9F       		.byte	0x9f
ARM GAS  /var/folders/7z/kps_xzfj7sn5l5gkyq8s9db00000gn/T//ccVy0HGQ.s 			page 36


 1994 016f 82000000 		.4byte	.LVL23
 1995 0173 88000000 		.4byte	.LVL26
 1996 0177 0300     		.2byte	0x3
 1997 0179 76       		.byte	0x76
 1998 017a 08       		.sleb128 8
 1999 017b 9F       		.byte	0x9f
 2000 017c 88000000 		.4byte	.LVL26
 2001 0180 94000000 		.4byte	.LFE111
 2002 0184 0300     		.2byte	0x3
 2003 0186 76       		.byte	0x76
 2004 0187 0C       		.sleb128 12
 2005 0188 9F       		.byte	0x9f
 2006 0189 00000000 		.4byte	0
 2007 018d 00000000 		.4byte	0
 2008              	.LLST8:
 2009 0191 7A000000 		.4byte	.LVL19
 2010 0195 7E000000 		.4byte	.LVL21
 2011 0199 0100     		.2byte	0x1
 2012 019b 53       		.byte	0x53
 2013 019c 7E000000 		.4byte	.LVL21
 2014 01a0 94000000 		.4byte	.LFE111
 2015 01a4 0200     		.2byte	0x2
 2016 01a6 76       		.byte	0x76
 2017 01a7 00       		.sleb128 0
 2018 01a8 00000000 		.4byte	0
 2019 01ac 00000000 		.4byte	0
 2020              	.LLST9:
 2021 01b0 80000000 		.4byte	.LVL22
 2022 01b4 84000000 		.4byte	.LVL24
 2023 01b8 0100     		.2byte	0x1
 2024 01ba 53       		.byte	0x53
 2025 01bb 84000000 		.4byte	.LVL24
 2026 01bf 94000000 		.4byte	.LFE111
 2027 01c3 0200     		.2byte	0x2
 2028 01c5 76       		.byte	0x76
 2029 01c6 04       		.sleb128 4
 2030 01c7 00000000 		.4byte	0
 2031 01cb 00000000 		.4byte	0
 2032              	.LLST10:
 2033 01cf 86000000 		.4byte	.LVL25
 2034 01d3 8A000000 		.4byte	.LVL27
 2035 01d7 0100     		.2byte	0x1
 2036 01d9 53       		.byte	0x53
 2037 01da 8A000000 		.4byte	.LVL27
 2038 01de 94000000 		.4byte	.LFE111
 2039 01e2 0200     		.2byte	0x2
 2040 01e4 76       		.byte	0x76
 2041 01e5 08       		.sleb128 8
 2042 01e6 00000000 		.4byte	0
 2043 01ea 00000000 		.4byte	0
 2044              	.LLST11:
 2045 01ee 00000000 		.4byte	.LVL30
 2046 01f2 31000000 		.4byte	.LVL35-1
 2047 01f6 0100     		.2byte	0x1
 2048 01f8 50       		.byte	0x50
 2049 01f9 31000000 		.4byte	.LVL35-1
 2050 01fd 4E010000 		.4byte	.LFE112
ARM GAS  /var/folders/7z/kps_xzfj7sn5l5gkyq8s9db00000gn/T//ccVy0HGQ.s 			page 37


 2051 0201 0100     		.2byte	0x1
 2052 0203 56       		.byte	0x56
 2053 0204 00000000 		.4byte	0
 2054 0208 00000000 		.4byte	0
 2055              	.LLST12:
 2056 020c 00000000 		.4byte	.LVL30
 2057 0210 0C000000 		.4byte	.LVL31
 2058 0214 0100     		.2byte	0x1
 2059 0216 51       		.byte	0x51
 2060 0217 0C000000 		.4byte	.LVL31
 2061 021b 4E010000 		.4byte	.LFE112
 2062 021f 0100     		.2byte	0x1
 2063 0221 55       		.byte	0x55
 2064 0222 00000000 		.4byte	0
 2065 0226 00000000 		.4byte	0
 2066              	.LLST13:
 2067 022a 00000000 		.4byte	.LVL30
 2068 022e 31000000 		.4byte	.LVL35-1
 2069 0232 0100     		.2byte	0x1
 2070 0234 52       		.byte	0x52
 2071 0235 31000000 		.4byte	.LVL35-1
 2072 0239 4E010000 		.4byte	.LFE112
 2073 023d 0100     		.2byte	0x1
 2074 023f 58       		.byte	0x58
 2075 0240 00000000 		.4byte	0
 2076 0244 00000000 		.4byte	0
 2077              	.LLST14:
 2078 0248 00000000 		.4byte	.LVL30
 2079 024c 12000000 		.4byte	.LVL32
 2080 0250 0100     		.2byte	0x1
 2081 0252 53       		.byte	0x53
 2082 0253 12000000 		.4byte	.LVL32
 2083 0257 4E010000 		.4byte	.LFE112
 2084 025b 0100     		.2byte	0x1
 2085 025d 57       		.byte	0x57
 2086 025e 00000000 		.4byte	0
 2087 0262 00000000 		.4byte	0
 2088              	.LLST15:
 2089 0266 00000000 		.4byte	.LVL30
 2090 026a 8E000000 		.4byte	.LVL48
 2091 026e 0200     		.2byte	0x2
 2092 0270 91       		.byte	0x91
 2093 0271 00       		.sleb128 0
 2094 0272 8E000000 		.4byte	.LVL48
 2095 0276 4E010000 		.4byte	.LFE112
 2096 027a 0200     		.2byte	0x2
 2097 027c 91       		.byte	0x91
 2098 027d 00       		.sleb128 0
 2099 027e 00000000 		.4byte	0
 2100 0282 00000000 		.4byte	0
 2101              	.LLST16:
 2102 0286 22000000 		.4byte	.LVL33
 2103 028a 5A000000 		.4byte	.LVL38
 2104 028e 0200     		.2byte	0x2
 2105 0290 30       		.byte	0x30
 2106 0291 9F       		.byte	0x9f
 2107 0292 5A000000 		.4byte	.LVL38
ARM GAS  /var/folders/7z/kps_xzfj7sn5l5gkyq8s9db00000gn/T//ccVy0HGQ.s 			page 38


 2108 0296 5E000000 		.4byte	.LVL39
 2109 029a 0600     		.2byte	0x6
 2110 029c 74       		.byte	0x74
 2111 029d 00       		.sleb128 0
 2112 029e 76       		.byte	0x76
 2113 029f 00       		.sleb128 0
 2114 02a0 1C       		.byte	0x1c
 2115 02a1 9F       		.byte	0x9f
 2116 02a2 5E000000 		.4byte	.LVL39
 2117 02a6 62000000 		.4byte	.LVL40
 2118 02aa 0800     		.2byte	0x8
 2119 02ac 74       		.byte	0x74
 2120 02ad 00       		.sleb128 0
 2121 02ae 76       		.byte	0x76
 2122 02af 00       		.sleb128 0
 2123 02b0 1C       		.byte	0x1c
 2124 02b1 34       		.byte	0x34
 2125 02b2 1C       		.byte	0x1c
 2126 02b3 9F       		.byte	0x9f
 2127 02b4 62000000 		.4byte	.LVL40
 2128 02b8 68000000 		.4byte	.LVL41
 2129 02bc 0600     		.2byte	0x6
 2130 02be 74       		.byte	0x74
 2131 02bf 00       		.sleb128 0
 2132 02c0 76       		.byte	0x76
 2133 02c1 00       		.sleb128 0
 2134 02c2 1C       		.byte	0x1c
 2135 02c3 9F       		.byte	0x9f
 2136 02c4 8E000000 		.4byte	.LVL48
 2137 02c8 A8000000 		.4byte	.LVL51
 2138 02cc 0200     		.2byte	0x2
 2139 02ce 30       		.byte	0x30
 2140 02cf 9F       		.byte	0x9f
 2141 02d0 B2000000 		.4byte	.LVL53
 2142 02d4 B6000000 		.4byte	.LVL54
 2143 02d8 0200     		.2byte	0x2
 2144 02da 30       		.byte	0x30
 2145 02db 9F       		.byte	0x9f
 2146 02dc B6000000 		.4byte	.LVL54
 2147 02e0 BA000000 		.4byte	.LVL55
 2148 02e4 0600     		.2byte	0x6
 2149 02e6 74       		.byte	0x74
 2150 02e7 00       		.sleb128 0
 2151 02e8 78       		.byte	0x78
 2152 02e9 00       		.sleb128 0
 2153 02ea 1C       		.byte	0x1c
 2154 02eb 9F       		.byte	0x9f
 2155 02ec BA000000 		.4byte	.LVL55
 2156 02f0 BE000000 		.4byte	.LVL56
 2157 02f4 0800     		.2byte	0x8
 2158 02f6 74       		.byte	0x74
 2159 02f7 00       		.sleb128 0
 2160 02f8 78       		.byte	0x78
 2161 02f9 00       		.sleb128 0
 2162 02fa 1C       		.byte	0x1c
 2163 02fb 34       		.byte	0x34
 2164 02fc 1C       		.byte	0x1c
ARM GAS  /var/folders/7z/kps_xzfj7sn5l5gkyq8s9db00000gn/T//ccVy0HGQ.s 			page 39


 2165 02fd 9F       		.byte	0x9f
 2166 02fe BE000000 		.4byte	.LVL56
 2167 0302 C6000000 		.4byte	.LVL57
 2168 0306 0600     		.2byte	0x6
 2169 0308 74       		.byte	0x74
 2170 0309 00       		.sleb128 0
 2171 030a 78       		.byte	0x78
 2172 030b 00       		.sleb128 0
 2173 030c 1C       		.byte	0x1c
 2174 030d 9F       		.byte	0x9f
 2175 030e F4000000 		.4byte	.LVL63
 2176 0312 F8000000 		.4byte	.LVL64
 2177 0316 0200     		.2byte	0x2
 2178 0318 30       		.byte	0x30
 2179 0319 9F       		.byte	0x9f
 2180 031a F8000000 		.4byte	.LVL64
 2181 031e FC000000 		.4byte	.LVL65
 2182 0322 0600     		.2byte	0x6
 2183 0324 74       		.byte	0x74
 2184 0325 00       		.sleb128 0
 2185 0326 76       		.byte	0x76
 2186 0327 00       		.sleb128 0
 2187 0328 1C       		.byte	0x1c
 2188 0329 9F       		.byte	0x9f
 2189 032a FC000000 		.4byte	.LVL65
 2190 032e 00010000 		.4byte	.LVL66
 2191 0332 0800     		.2byte	0x8
 2192 0334 74       		.byte	0x74
 2193 0335 00       		.sleb128 0
 2194 0336 76       		.byte	0x76
 2195 0337 00       		.sleb128 0
 2196 0338 1C       		.byte	0x1c
 2197 0339 34       		.byte	0x34
 2198 033a 1C       		.byte	0x1c
 2199 033b 9F       		.byte	0x9f
 2200 033c 00010000 		.4byte	.LVL66
 2201 0340 06010000 		.4byte	.LVL67
 2202 0344 0600     		.2byte	0x6
 2203 0346 74       		.byte	0x74
 2204 0347 00       		.sleb128 0
 2205 0348 76       		.byte	0x76
 2206 0349 00       		.sleb128 0
 2207 034a 1C       		.byte	0x1c
 2208 034b 9F       		.byte	0x9f
 2209 034c 00000000 		.4byte	0
 2210 0350 00000000 		.4byte	0
 2211              	.LLST17:
 2212 0354 26000000 		.4byte	.LVL34
 2213 0358 6E000000 		.4byte	.LVL43
 2214 035c 0200     		.2byte	0x2
 2215 035e 30       		.byte	0x30
 2216 035f 9F       		.byte	0x9f
 2217 0360 6E000000 		.4byte	.LVL43
 2218 0364 70000000 		.4byte	.LVL44
 2219 0368 0100     		.2byte	0x1
 2220 036a 50       		.byte	0x50
 2221 036b 76000000 		.4byte	.LVL45
ARM GAS  /var/folders/7z/kps_xzfj7sn5l5gkyq8s9db00000gn/T//ccVy0HGQ.s 			page 40


 2222 036f 88000000 		.4byte	.LVL47
 2223 0373 0100     		.2byte	0x1
 2224 0375 50       		.byte	0x50
 2225 0376 8E000000 		.4byte	.LVL48
 2226 037a A8000000 		.4byte	.LVL51
 2227 037e 0200     		.2byte	0x2
 2228 0380 30       		.byte	0x30
 2229 0381 9F       		.byte	0x9f
 2230 0382 A8000000 		.4byte	.LVL51
 2231 0386 AC000000 		.4byte	.LVL52
 2232 038a 0100     		.2byte	0x1
 2233 038c 50       		.byte	0x50
 2234 038d D0000000 		.4byte	.LVL59
 2235 0391 D2000000 		.4byte	.LVL60
 2236 0395 0100     		.2byte	0x1
 2237 0397 50       		.byte	0x50
 2238 0398 D8000000 		.4byte	.LVL61
 2239 039c EE000000 		.4byte	.LVL62
 2240 03a0 0100     		.2byte	0x1
 2241 03a2 50       		.byte	0x50
 2242 03a3 10010000 		.4byte	.LVL69
 2243 03a7 12010000 		.4byte	.LVL70
 2244 03ab 0100     		.2byte	0x1
 2245 03ad 50       		.byte	0x50
 2246 03ae 18010000 		.4byte	.LVL71
 2247 03b2 2C010000 		.4byte	.LVL72
 2248 03b6 0100     		.2byte	0x1
 2249 03b8 50       		.byte	0x50
 2250 03b9 00000000 		.4byte	0
 2251 03bd 00000000 		.4byte	0
 2252              	.LLST18:
 2253 03c1 26000000 		.4byte	.LVL34
 2254 03c5 88000000 		.4byte	.LVL47
 2255 03c9 0200     		.2byte	0x2
 2256 03cb 31       		.byte	0x31
 2257 03cc 9F       		.byte	0x9f
 2258 03cd 88000000 		.4byte	.LVL47
 2259 03d1 8E000000 		.4byte	.LVL48
 2260 03d5 0100     		.2byte	0x1
 2261 03d7 50       		.byte	0x50
 2262 03d8 8E000000 		.4byte	.LVL48
 2263 03dc 4E010000 		.4byte	.LFE112
 2264 03e0 0200     		.2byte	0x2
 2265 03e2 31       		.byte	0x31
 2266 03e3 9F       		.byte	0x9f
 2267 03e4 00000000 		.4byte	0
 2268 03e8 00000000 		.4byte	0
 2269              	.LLST19:
 2270 03ec 26000000 		.4byte	.LVL34
 2271 03f0 31000000 		.4byte	.LVL35-1
 2272 03f4 0100     		.2byte	0x1
 2273 03f6 50       		.byte	0x50
 2274 03f7 31000000 		.4byte	.LVL35-1
 2275 03fb 5A000000 		.4byte	.LVL38
 2276 03ff 0100     		.2byte	0x1
 2277 0401 56       		.byte	0x56
 2278 0402 5A000000 		.4byte	.LVL38
ARM GAS  /var/folders/7z/kps_xzfj7sn5l5gkyq8s9db00000gn/T//ccVy0HGQ.s 			page 41


 2279 0406 5E000000 		.4byte	.LVL39
 2280 040a 0100     		.2byte	0x1
 2281 040c 54       		.byte	0x54
 2282 040d 5E000000 		.4byte	.LVL39
 2283 0411 62000000 		.4byte	.LVL40
 2284 0415 0300     		.2byte	0x3
 2285 0417 74       		.byte	0x74
 2286 0418 7C       		.sleb128 -4
 2287 0419 9F       		.byte	0x9f
 2288 041a 62000000 		.4byte	.LVL40
 2289 041e 68000000 		.4byte	.LVL41
 2290 0422 0100     		.2byte	0x1
 2291 0424 54       		.byte	0x54
 2292 0425 8E000000 		.4byte	.LVL48
 2293 0429 A8000000 		.4byte	.LVL51
 2294 042d 0100     		.2byte	0x1
 2295 042f 56       		.byte	0x56
 2296 0430 F4000000 		.4byte	.LVL63
 2297 0434 F8000000 		.4byte	.LVL64
 2298 0438 0100     		.2byte	0x1
 2299 043a 56       		.byte	0x56
 2300 043b F8000000 		.4byte	.LVL64
 2301 043f FC000000 		.4byte	.LVL65
 2302 0443 0100     		.2byte	0x1
 2303 0445 54       		.byte	0x54
 2304 0446 FC000000 		.4byte	.LVL65
 2305 044a 00010000 		.4byte	.LVL66
 2306 044e 0300     		.2byte	0x3
 2307 0450 74       		.byte	0x74
 2308 0451 7C       		.sleb128 -4
 2309 0452 9F       		.byte	0x9f
 2310 0453 00010000 		.4byte	.LVL66
 2311 0457 4E010000 		.4byte	.LFE112
 2312 045b 0100     		.2byte	0x1
 2313 045d 54       		.byte	0x54
 2314 045e 00000000 		.4byte	0
 2315 0462 00000000 		.4byte	0
 2316              	.LLST20:
 2317 0466 26000000 		.4byte	.LVL34
 2318 046a 31000000 		.4byte	.LVL35-1
 2319 046e 0100     		.2byte	0x1
 2320 0470 52       		.byte	0x52
 2321 0471 31000000 		.4byte	.LVL35-1
 2322 0475 86000000 		.4byte	.LVL46
 2323 0479 0100     		.2byte	0x1
 2324 047b 58       		.byte	0x58
 2325 047c 8E000000 		.4byte	.LVL48
 2326 0480 B6000000 		.4byte	.LVL54
 2327 0484 0100     		.2byte	0x1
 2328 0486 58       		.byte	0x58
 2329 0487 B6000000 		.4byte	.LVL54
 2330 048b BA000000 		.4byte	.LVL55
 2331 048f 0100     		.2byte	0x1
 2332 0491 54       		.byte	0x54
 2333 0492 BA000000 		.4byte	.LVL55
 2334 0496 BE000000 		.4byte	.LVL56
 2335 049a 0300     		.2byte	0x3
ARM GAS  /var/folders/7z/kps_xzfj7sn5l5gkyq8s9db00000gn/T//ccVy0HGQ.s 			page 42


 2336 049c 74       		.byte	0x74
 2337 049d 7C       		.sleb128 -4
 2338 049e 9F       		.byte	0x9f
 2339 049f BE000000 		.4byte	.LVL56
 2340 04a3 C6000000 		.4byte	.LVL57
 2341 04a7 0100     		.2byte	0x1
 2342 04a9 54       		.byte	0x54
 2343 04aa 00000000 		.4byte	0
 2344 04ae 00000000 		.4byte	0
 2345              	.LLST21:
 2346 04b2 26000000 		.4byte	.LVL34
 2347 04b6 88000000 		.4byte	.LVL47
 2348 04ba 0200     		.2byte	0x2
 2349 04bc 91       		.byte	0x91
 2350 04bd 00       		.sleb128 0
 2351 04be 8E000000 		.4byte	.LVL48
 2352 04c2 38010000 		.4byte	.LVL75
 2353 04c6 0200     		.2byte	0x2
 2354 04c8 91       		.byte	0x91
 2355 04c9 00       		.sleb128 0
 2356 04ca 38010000 		.4byte	.LVL75
 2357 04ce 3E010000 		.4byte	.LVL78
 2358 04d2 0300     		.2byte	0x3
 2359 04d4 72       		.byte	0x72
 2360 04d5 04       		.sleb128 4
 2361 04d6 9F       		.byte	0x9f
 2362 04d7 3E010000 		.4byte	.LVL78
 2363 04db 44010000 		.4byte	.LVL81
 2364 04df 0300     		.2byte	0x3
 2365 04e1 72       		.byte	0x72
 2366 04e2 08       		.sleb128 8
 2367 04e3 9F       		.byte	0x9f
 2368 04e4 44010000 		.4byte	.LVL81
 2369 04e8 4E010000 		.4byte	.LFE112
 2370 04ec 0300     		.2byte	0x3
 2371 04ee 72       		.byte	0x72
 2372 04ef 0C       		.sleb128 12
 2373 04f0 9F       		.byte	0x9f
 2374 04f1 00000000 		.4byte	0
 2375 04f5 00000000 		.4byte	0
 2376              	.LLST22:
 2377 04f9 34010000 		.4byte	.LVL74
 2378 04fd 3A010000 		.4byte	.LVL76
 2379 0501 0100     		.2byte	0x1
 2380 0503 53       		.byte	0x53
 2381 0504 3A010000 		.4byte	.LVL76
 2382 0508 4E010000 		.4byte	.LFE112
 2383 050c 0200     		.2byte	0x2
 2384 050e 72       		.byte	0x72
 2385 050f 00       		.sleb128 0
 2386 0510 00000000 		.4byte	0
 2387 0514 00000000 		.4byte	0
 2388              	.LLST23:
 2389 0518 3C010000 		.4byte	.LVL77
 2390 051c 40010000 		.4byte	.LVL79
 2391 0520 0100     		.2byte	0x1
 2392 0522 53       		.byte	0x53
ARM GAS  /var/folders/7z/kps_xzfj7sn5l5gkyq8s9db00000gn/T//ccVy0HGQ.s 			page 43


 2393 0523 40010000 		.4byte	.LVL79
 2394 0527 4E010000 		.4byte	.LFE112
 2395 052b 0200     		.2byte	0x2
 2396 052d 72       		.byte	0x72
 2397 052e 04       		.sleb128 4
 2398 052f 00000000 		.4byte	0
 2399 0533 00000000 		.4byte	0
 2400              	.LLST24:
 2401 0537 42010000 		.4byte	.LVL80
 2402 053b 46010000 		.4byte	.LVL82
 2403 053f 0100     		.2byte	0x1
 2404 0541 53       		.byte	0x53
 2405 0542 46010000 		.4byte	.LVL82
 2406 0546 4E010000 		.4byte	.LFE112
 2407 054a 0200     		.2byte	0x2
 2408 054c 72       		.byte	0x72
 2409 054d 08       		.sleb128 8
 2410 054e 00000000 		.4byte	0
 2411 0552 00000000 		.4byte	0
 2412              		.section	.debug_aranges,"",%progbits
 2413 0000 24000000 		.4byte	0x24
 2414 0004 0200     		.2byte	0x2
 2415 0006 00000000 		.4byte	.Ldebug_info0
 2416 000a 04       		.byte	0x4
 2417 000b 00       		.byte	0
 2418 000c 0000     		.2byte	0
 2419 000e 0000     		.2byte	0
 2420 0010 00000000 		.4byte	.LFB111
 2421 0014 94000000 		.4byte	.LFE111-.LFB111
 2422 0018 00000000 		.4byte	.LFB112
 2423 001c 4E010000 		.4byte	.LFE112-.LFB112
 2424 0020 00000000 		.4byte	0
 2425 0024 00000000 		.4byte	0
 2426              		.section	.debug_ranges,"",%progbits
 2427              	.Ldebug_ranges0:
 2428 0000 00000000 		.4byte	.LFB111
 2429 0004 94000000 		.4byte	.LFE111
 2430 0008 00000000 		.4byte	.LFB112
 2431 000c 4E010000 		.4byte	.LFE112
 2432 0010 00000000 		.4byte	0
 2433 0014 00000000 		.4byte	0
 2434              		.section	.debug_line,"",%progbits
 2435              	.Ldebug_line0:
 2436 0000 32030000 		.section	.debug_str,"MS",%progbits,1
 2436      0200BC01 
 2436      00000201 
 2436      FB0E0D00 
 2436      01010101 
 2437              	.LASF57:
 2438 0000 72657375 		.ascii	"result\000"
 2438      6C7400
 2439              	.LASF36:
 2440 0007 636F756E 		.ascii	"counter\000"
 2440      74657200 
 2441              	.LASF52:
 2442 000f 474E5520 		.ascii	"GNU C 4.9.3 20150303 (release) [ARM/embedded-4_9-br"
 2442      4320342E 
ARM GAS  /var/folders/7z/kps_xzfj7sn5l5gkyq8s9db00000gn/T//ccVy0HGQ.s 			page 44


 2442      392E3320 
 2442      32303135 
 2442      30333033 
 2443 0042 616E6368 		.ascii	"anch revision 221220] -mcpu=cortex-m4 -mfloat-abi=h"
 2443      20726576 
 2443      6973696F 
 2443      6E203232 
 2443      31323230 
 2444 0075 61726420 		.ascii	"ard -mfpu=fpv4-sp-d16 -mno-thumb-interwork -mthumb "
 2444      2D6D6670 
 2444      753D6670 
 2444      76342D73 
 2444      702D6431 
 2445 00a8 2D676764 		.ascii	"-ggdb -O2 -std=gnu99 -fomit-frame-pointer -falign-f"
 2445      62202D4F 
 2445      32202D73 
 2445      74643D67 
 2445      6E753939 
 2446 00db 756E6374 		.ascii	"unctions=16 -ffunction-sections -fdata-sections -fn"
 2446      696F6E73 
 2446      3D313620 
 2446      2D666675 
 2446      6E637469 
 2447 010e 6F2D636F 		.ascii	"o-common -fsingle-precision-constant\000"
 2447      6D6D6F6E 
 2447      202D6673 
 2447      696E676C 
 2447      652D7072 
 2448              	.LASF39:
 2449 0133 696E7075 		.ascii	"inputaddr\000"
 2449      74616464 
 2449      7200
 2450              	.LASF32:
 2451 013d 4F757470 		.ascii	"Output\000"
 2451      757400
 2452              	.LASF17:
 2453 0144 73697A65 		.ascii	"sizetype\000"
 2453      74797065 
 2453      00
 2454              	.LASF8:
 2455 014d 5F5F7569 		.ascii	"__uint32_t\000"
 2455      6E743332 
 2455      5F7400
 2456              	.LASF4:
 2457 0158 5F5F7569 		.ascii	"__uint16_t\000"
 2457      6E743136 
 2457      5F7400
 2458              	.LASF2:
 2459 0163 73686F72 		.ascii	"short int\000"
 2459      7420696E 
 2459      7400
 2460              	.LASF56:
 2461 016d 76616C75 		.ascii	"value\000"
 2461      6500
 2462              	.LASF51:
 2463 0173 48415348 		.ascii	"HASH_GetDigest\000"
 2463      5F476574 
ARM GAS  /var/folders/7z/kps_xzfj7sn5l5gkyq8s9db00000gn/T//ccVy0HGQ.s 			page 45


 2463      44696765 
 2463      737400
 2464              	.LASF13:
 2465 0182 75696E74 		.ascii	"uint8_t\000"
 2465      385F7400 
 2466              	.LASF40:
 2467 018a 6F757470 		.ascii	"outputaddr\000"
 2467      75746164 
 2467      647200
 2468              	.LASF55:
 2469 0195 5F5F5245 		.ascii	"__REV\000"
 2469      5600
 2470              	.LASF45:
 2471 019b 6B657961 		.ascii	"keyaddr\000"
 2471      64647200 
 2472              	.LASF53:
 2473 01a3 6C69622F 		.ascii	"lib/ChibiOS_2.6.6/ext/stdperiph_stm32f4/src/stm32f4"
 2473      43686962 
 2473      694F535F 
 2473      322E362E 
 2473      362F6578 
 2474 01d6 78785F68 		.ascii	"xx_hash_md5.c\000"
 2474      6173685F 
 2474      6D64352E 
 2474      6300
 2475              	.LASF42:
 2476 01e4 484D4143 		.ascii	"HMAC_MD5\000"
 2476      5F4D4435 
 2476      00
 2477              	.LASF10:
 2478 01ed 6C6F6E67 		.ascii	"long long int\000"
 2478      206C6F6E 
 2478      6720696E 
 2478      7400
 2479              	.LASF7:
 2480 01fb 6C6F6E67 		.ascii	"long int\000"
 2480      20696E74 
 2480      00
 2481              	.LASF26:
 2482 0204 48415348 		.ascii	"HASH_HMACKeyType\000"
 2482      5F484D41 
 2482      434B6579 
 2482      54797065 
 2482      00
 2483              	.LASF22:
 2484 0215 4572726F 		.ascii	"ErrorStatus\000"
 2484      72537461 
 2484      74757300 
 2485              	.LASF48:
 2486 0221 48415348 		.ascii	"HASH_DataIn\000"
 2486      5F446174 
 2486      61496E00 
 2487              	.LASF44:
 2488 022d 6E627661 		.ascii	"nbvalidbitskey\000"
 2488      6C696462 
 2488      6974736B 
 2488      657900
ARM GAS  /var/folders/7z/kps_xzfj7sn5l5gkyq8s9db00000gn/T//ccVy0HGQ.s 			page 46


 2489              	.LASF3:
 2490 023c 5F5F7569 		.ascii	"__uint8_t\000"
 2490      6E74385F 
 2490      7400
 2491              	.LASF20:
 2492 0246 4552524F 		.ascii	"ERROR\000"
 2492      5200
 2493              	.LASF28:
 2494 024c 44617461 		.ascii	"Data\000"
 2494      00
 2495              	.LASF1:
 2496 0251 756E7369 		.ascii	"unsigned char\000"
 2496      676E6564 
 2496      20636861 
 2496      7200
 2497              	.LASF31:
 2498 025f 496C656E 		.ascii	"Ilen\000"
 2498      00
 2499              	.LASF29:
 2500 0264 48415348 		.ascii	"HASH_MsgDigest\000"
 2500      5F4D7367 
 2500      44696765 
 2500      737400
 2501              	.LASF0:
 2502 0273 7369676E 		.ascii	"signed char\000"
 2502      65642063 
 2502      68617200 
 2503              	.LASF23:
 2504 027f 48415348 		.ascii	"HASH_AlgoSelection\000"
 2504      5F416C67 
 2504      6F53656C 
 2504      65637469 
 2504      6F6E00
 2505              	.LASF11:
 2506 0292 6C6F6E67 		.ascii	"long long unsigned int\000"
 2506      206C6F6E 
 2506      6720756E 
 2506      7369676E 
 2506      65642069 
 2507              	.LASF16:
 2508 02a9 75696E74 		.ascii	"uint32_t\000"
 2508      33325F74 
 2508      00
 2509              	.LASF12:
 2510 02b2 756E7369 		.ascii	"unsigned int\000"
 2510      676E6564 
 2510      20696E74 
 2510      00
 2511              	.LASF14:
 2512 02bf 75696E74 		.ascii	"uint16_t\000"
 2512      31365F74 
 2512      00
 2513              	.LASF46:
 2514 02c8 48415348 		.ascii	"HASH_Init\000"
 2514      5F496E69 
 2514      7400
 2515              	.LASF21:
ARM GAS  /var/folders/7z/kps_xzfj7sn5l5gkyq8s9db00000gn/T//ccVy0HGQ.s 			page 47


 2516 02d2 53554343 		.ascii	"SUCCESS\000"
 2516      45535300 
 2517              	.LASF34:
 2518 02da 4D44355F 		.ascii	"MD5_MessageDigest\000"
 2518      4D657373 
 2518      61676544 
 2518      69676573 
 2518      7400
 2519              	.LASF5:
 2520 02ec 73686F72 		.ascii	"short unsigned int\000"
 2520      7420756E 
 2520      7369676E 
 2520      65642069 
 2520      6E7400
 2521              	.LASF38:
 2522 02ff 73746174 		.ascii	"status\000"
 2522      757300
 2523              	.LASF15:
 2524 0306 696E7433 		.ascii	"int32_t\000"
 2524      325F7400 
 2525              	.LASF33:
 2526 030e 4D44355F 		.ascii	"MD5_HASH_InitStructure\000"
 2526      48415348 
 2526      5F496E69 
 2526      74537472 
 2526      75637475 
 2527              	.LASF25:
 2528 0325 48415348 		.ascii	"HASH_DataType\000"
 2528      5F446174 
 2528      61547970 
 2528      6500
 2529              	.LASF49:
 2530 0333 48415348 		.ascii	"HASH_DeInit\000"
 2530      5F446549 
 2530      6E697400 
 2531              	.LASF50:
 2532 033f 48415348 		.ascii	"HASH_StartDigest\000"
 2532      5F537461 
 2532      72744469 
 2532      67657374 
 2532      00
 2533              	.LASF9:
 2534 0350 6C6F6E67 		.ascii	"long unsigned int\000"
 2534      20756E73 
 2534      69676E65 
 2534      6420696E 
 2534      7400
 2535              	.LASF37:
 2536 0362 62757379 		.ascii	"busystatus\000"
 2536      73746174 
 2536      757300
 2537              	.LASF24:
 2538 036d 48415348 		.ascii	"HASH_AlgoMode\000"
 2538      5F416C67 
 2538      6F4D6F64 
 2538      6500
 2539              	.LASF54:
ARM GAS  /var/folders/7z/kps_xzfj7sn5l5gkyq8s9db00000gn/T//ccVy0HGQ.s 			page 48


 2540 037b 2F557365 		.ascii	"/Users/Baram/oroca_bldc_dev/oroca_bldc/\000"
 2540      72732F42 
 2540      6172616D 
 2540      2F6F726F 
 2540      63615F62 
 2541              	.LASF6:
 2542 03a3 5F5F696E 		.ascii	"__int32_t\000"
 2542      7433325F 
 2542      7400
 2543              	.LASF18:
 2544 03ad 52455345 		.ascii	"RESET\000"
 2544      5400
 2545              	.LASF47:
 2546 03b3 48415348 		.ascii	"HASH_SetLastWordValidBitsNbr\000"
 2546      5F536574 
 2546      4C617374 
 2546      576F7264 
 2546      56616C69 
 2547              	.LASF30:
 2548 03d0 496E7075 		.ascii	"Input\000"
 2548      7400
 2549              	.LASF35:
 2550 03d6 6E627661 		.ascii	"nbvalidbitsdata\000"
 2550      6C696462 
 2550      69747364 
 2550      61746100 
 2551              	.LASF58:
 2552 03e6 49544D5F 		.ascii	"ITM_RxBuffer\000"
 2552      52784275 
 2552      66666572 
 2552      00
 2553              	.LASF41:
 2554 03f3 48415348 		.ascii	"HASH_MD5\000"
 2554      5F4D4435 
 2554      00
 2555              	.LASF19:
 2556 03fc 466C6167 		.ascii	"FlagStatus\000"
 2556      53746174 
 2556      757300
 2557              	.LASF43:
 2558 0407 4B65796C 		.ascii	"Keylen\000"
 2558      656E00
 2559              	.LASF27:
 2560 040e 48415348 		.ascii	"HASH_InitTypeDef\000"
 2560      5F496E69 
 2560      74547970 
 2560      65446566 
 2560      00
 2561              	.LASF59:
 2562 041f 48415348 		.ascii	"HASH_GetFlagStatus\000"
 2562      5F476574 
 2562      466C6167 
 2562      53746174 
 2562      757300
 2563              		.ident	"GCC: (GNU Tools for ARM Embedded Processors) 4.9.3 20150303 (release) [ARM/embedded-4_9-br
ARM GAS  /var/folders/7z/kps_xzfj7sn5l5gkyq8s9db00000gn/T//ccVy0HGQ.s 			page 49


DEFINED SYMBOLS
                            *ABS*:0000000000000000 stm32f4xx_hash_md5.c
/var/folders/7z/kps_xzfj7sn5l5gkyq8s9db00000gn/T//ccVy0HGQ.s:21     .text.HASH_MD5:0000000000000000 $t
/var/folders/7z/kps_xzfj7sn5l5gkyq8s9db00000gn/T//ccVy0HGQ.s:27     .text.HASH_MD5:0000000000000000 HASH_MD5
/var/folders/7z/kps_xzfj7sn5l5gkyq8s9db00000gn/T//ccVy0HGQ.s:216    .text.HMAC_MD5:0000000000000000 $t
/var/folders/7z/kps_xzfj7sn5l5gkyq8s9db00000gn/T//ccVy0HGQ.s:222    .text.HMAC_MD5:0000000000000000 HMAC_MD5
                     .debug_frame:0000000000000010 $d

UNDEFINED SYMBOLS
HASH_DeInit
HASH_Init
HASH_SetLastWordValidBitsNbr
HASH_DataIn
HASH_StartDigest
HASH_GetFlagStatus
HASH_GetDigest
