ARM GAS  /var/folders/7z/kps_xzfj7sn5l5gkyq8s9db00000gn/T//cc2C97ap.s 			page 1


   1              		.syntax unified
   2              		.cpu cortex-m4
   3              		.eabi_attribute 27, 1
   4              		.eabi_attribute 28, 1
   5              		.fpu fpv4-sp-d16
   6              		.eabi_attribute 20, 1
   7              		.eabi_attribute 21, 1
   8              		.eabi_attribute 23, 3
   9              		.eabi_attribute 24, 1
  10              		.eabi_attribute 25, 1
  11              		.eabi_attribute 26, 1
  12              		.eabi_attribute 30, 2
  13              		.eabi_attribute 34, 1
  14              		.eabi_attribute 18, 4
  15              		.thumb
  16              		.file	"stm32f4xx_adc.c"
  17              		.text
  18              	.Ltext0:
  19              		.cfi_sections	.debug_frame
  20              		.section	.text.ADC_DeInit,"ax",%progbits
  21              		.align	2
  22              		.p2align 4,,15
  23              		.global	ADC_DeInit
  24              		.thumb
  25              		.thumb_func
  26              		.type	ADC_DeInit, %function
  27              	ADC_DeInit:
  28              	.LFB111:
  29              		.file 1 "lib/ChibiOS_2.6.6/ext/stdperiph_stm32f4/src/stm32f4xx_adc.c"
  30              		.loc 1 213 0
  31              		.cfi_startproc
  32              		@ args = 0, pretend = 0, frame = 0
  33              		@ frame_needed = 0, uses_anonymous_args = 0
  34 0000 08B5     		push	{r3, lr}
  35              		.cfi_def_cfa_offset 8
  36              		.cfi_offset 3, -8
  37              		.cfi_offset 14, -4
  38              		.loc 1 215 0
  39 0002 4FF48070 		mov	r0, #256
  40 0006 0121     		movs	r1, #1
  41 0008 FFF7FEFF 		bl	RCC_APB2PeriphResetCmd
  42              	.LVL0:
  43              		.loc 1 218 0
  44 000c 4FF48070 		mov	r0, #256
  45 0010 0021     		movs	r1, #0
  46              		.loc 1 219 0
  47 0012 BDE80840 		pop	{r3, lr}
  48              		.cfi_restore 14
  49              		.cfi_restore 3
  50              		.cfi_def_cfa_offset 0
  51              		.loc 1 218 0
  52 0016 FFF7FEBF 		b	RCC_APB2PeriphResetCmd
  53              	.LVL1:
  54              		.cfi_endproc
  55              	.LFE111:
  56              		.size	ADC_DeInit, .-ADC_DeInit
  57 001a 00BFAFF3 		.section	.text.ADC_Init,"ax",%progbits
ARM GAS  /var/folders/7z/kps_xzfj7sn5l5gkyq8s9db00000gn/T//cc2C97ap.s 			page 2


  57      0080
  58              		.align	2
  59              		.p2align 4,,15
  60              		.global	ADC_Init
  61              		.thumb
  62              		.thumb_func
  63              		.type	ADC_Init, %function
  64              	ADC_Init:
  65              	.LFB112:
  66              		.loc 1 235 0
  67              		.cfi_startproc
  68              		@ args = 0, pretend = 0, frame = 0
  69              		@ frame_needed = 0, uses_anonymous_args = 0
  70              	.LVL2:
  71 0000 F0B5     		push	{r4, r5, r6, r7, lr}
  72              		.cfi_def_cfa_offset 20
  73              		.cfi_offset 4, -20
  74              		.cfi_offset 5, -16
  75              		.cfi_offset 6, -12
  76              		.cfi_offset 7, -8
  77              		.cfi_offset 14, -4
  78              		.loc 1 250 0
  79 0002 4468     		ldr	r4, [r0, #4]
  80              	.LVL3:
  81 0004 0A68     		ldr	r2, [r1]
  82              		.loc 1 258 0
  83 0006 91F804C0 		ldrb	ip, [r1, #4]	@ zero_extendqisi2
  84 000a D1F80CE0 		ldr	lr, [r1, #12]
  85 000e 0E69     		ldr	r6, [r1, #16]
  86 0010 8D68     		ldr	r5, [r1, #8]
  87              		.loc 1 278 0
  88 0012 4F79     		ldrb	r7, [r1, #5]	@ zero_extendqisi2
  89              		.loc 1 267 0
  90 0014 0D4B     		ldr	r3, .L5
  91              		.loc 1 253 0
  92 0016 24F04074 		bic	r4, r4, #50331648
  93              	.LVL4:
  94 001a 24F48074 		bic	r4, r4, #256
  95 001e 2243     		orrs	r2, r2, r4
  96              		.loc 1 258 0
  97 0020 42EA0C22 		orr	r2, r2, ip, lsl #8
  98              	.LVL5:
  99              		.loc 1 261 0
 100 0024 4260     		str	r2, [r0, #4]
 101              		.loc 1 264 0
 102 0026 8468     		ldr	r4, [r0, #8]
 103              	.LVL6:
 104 0028 4EEA0602 		orr	r2, lr, r6
 105 002c 2A43     		orrs	r2, r2, r5
 106              		.loc 1 267 0
 107 002e 2340     		ands	r3, r3, r4
 108              	.LVL7:
 109 0030 1343     		orrs	r3, r3, r2
 110              	.LVL8:
 111              		.loc 1 275 0
 112 0032 43EA4703 		orr	r3, r3, r7, lsl #1
 113              	.LVL9:
ARM GAS  /var/folders/7z/kps_xzfj7sn5l5gkyq8s9db00000gn/T//cc2C97ap.s 			page 3


 114              		.loc 1 281 0
 115 0036 8360     		str	r3, [r0, #8]
 116              		.loc 1 291 0
 117 0038 0A7D     		ldrb	r2, [r1, #20]	@ zero_extendqisi2
 118              		.loc 1 284 0
 119 003a C36A     		ldr	r3, [r0, #44]
 120              	.LVL10:
 121              		.loc 1 291 0
 122 003c 013A     		subs	r2, r2, #1
 123              		.loc 1 292 0
 124 003e D2B2     		uxtb	r2, r2
 125              		.loc 1 287 0
 126 0040 23F47003 		bic	r3, r3, #15728640
 127              	.LVL11:
 128              		.loc 1 292 0
 129 0044 43EA0253 		orr	r3, r3, r2, lsl #20
 130              	.LVL12:
 131              		.loc 1 295 0
 132 0048 C362     		str	r3, [r0, #44]
 133              	.LVL13:
 134 004a F0BD     		pop	{r4, r5, r6, r7, pc}
 135              	.L6:
 136              		.align	2
 137              	.L5:
 138 004c FDF7FFC0 		.word	-1056966659
 139              		.cfi_endproc
 140              	.LFE112:
 141              		.size	ADC_Init, .-ADC_Init
 142              		.section	.text.ADC_StructInit,"ax",%progbits
 143              		.align	2
 144              		.p2align 4,,15
 145              		.global	ADC_StructInit
 146              		.thumb
 147              		.thumb_func
 148              		.type	ADC_StructInit, %function
 149              	ADC_StructInit:
 150              	.LFB113:
 151              		.loc 1 310 0
 152              		.cfi_startproc
 153              		@ args = 0, pretend = 0, frame = 0
 154              		@ frame_needed = 0, uses_anonymous_args = 0
 155              		@ link register save eliminated.
 156              	.LVL14:
 157              		.loc 1 312 0
 158 0000 0023     		movs	r3, #0
 159              		.loc 1 330 0
 160 0002 0122     		movs	r2, #1
 161 0004 0275     		strb	r2, [r0, #20]
 162              		.loc 1 312 0
 163 0006 0360     		str	r3, [r0]
 164              		.loc 1 315 0
 165 0008 0371     		strb	r3, [r0, #4]
 166              		.loc 1 318 0
 167 000a 4371     		strb	r3, [r0, #5]
 168              		.loc 1 321 0
 169 000c 8360     		str	r3, [r0, #8]
 170              		.loc 1 324 0
ARM GAS  /var/folders/7z/kps_xzfj7sn5l5gkyq8s9db00000gn/T//cc2C97ap.s 			page 4


 171 000e C360     		str	r3, [r0, #12]
 172              		.loc 1 327 0
 173 0010 0361     		str	r3, [r0, #16]
 174 0012 7047     		bx	lr
 175              		.cfi_endproc
 176              	.LFE113:
 177              		.size	ADC_StructInit, .-ADC_StructInit
 178 0014 AFF30080 		.section	.text.ADC_CommonInit,"ax",%progbits
 178      AFF30080 
 178      AFF30080 
 179              		.align	2
 180              		.p2align 4,,15
 181              		.global	ADC_CommonInit
 182              		.thumb
 183              		.thumb_func
 184              		.type	ADC_CommonInit, %function
 185              	ADC_CommonInit:
 186              	.LFB114:
 187              		.loc 1 341 0
 188              		.cfi_startproc
 189              		@ args = 0, pretend = 0, frame = 0
 190              		@ frame_needed = 0, uses_anonymous_args = 0
 191              		@ link register save eliminated.
 192              	.LVL15:
 193 0000 70B4     		push	{r4, r5, r6}
 194              		.cfi_def_cfa_offset 12
 195              		.cfi_offset 4, -12
 196              		.cfi_offset 5, -8
 197              		.cfi_offset 6, -4
 198              		.loc 1 361 0
 199 0002 90E84400 		ldmia	r0, {r2, r6}
 200              		.loc 1 350 0
 201 0006 064D     		ldr	r5, .L10
 202              		.loc 1 362 0
 203 0008 8468     		ldr	r4, [r0, #8]
 204              		.loc 1 361 0
 205 000a C168     		ldr	r1, [r0, #12]
 206              		.loc 1 353 0
 207 000c 054B     		ldr	r3, .L10+4
 208              		.loc 1 350 0
 209 000e 6868     		ldr	r0, [r5, #4]
 210              	.LVL16:
 211              		.loc 1 361 0
 212 0010 3243     		orrs	r2, r2, r6
 213              		.loc 1 362 0
 214 0012 2243     		orrs	r2, r2, r4
 215              		.loc 1 361 0
 216 0014 0A43     		orrs	r2, r2, r1
 217              		.loc 1 353 0
 218 0016 0340     		ands	r3, r3, r0
 219              	.LVL17:
 220              		.loc 1 361 0
 221 0018 1343     		orrs	r3, r3, r2
 222              	.LVL18:
 223              		.loc 1 367 0
 224 001a 6B60     		str	r3, [r5, #4]
 225              		.loc 1 368 0
ARM GAS  /var/folders/7z/kps_xzfj7sn5l5gkyq8s9db00000gn/T//cc2C97ap.s 			page 5


 226 001c 70BC     		pop	{r4, r5, r6}
 227              		.cfi_restore 6
 228              		.cfi_restore 5
 229              		.cfi_restore 4
 230              		.cfi_def_cfa_offset 0
 231 001e 7047     		bx	lr
 232              	.L11:
 233              		.align	2
 234              	.L10:
 235 0020 00230140 		.word	1073816320
 236 0024 E030FCFF 		.word	-249632
 237              		.cfi_endproc
 238              	.LFE114:
 239              		.size	ADC_CommonInit, .-ADC_CommonInit
 240 0028 AFF30080 		.section	.text.ADC_CommonStructInit,"ax",%progbits
 240      AFF30080 
 241              		.align	2
 242              		.p2align 4,,15
 243              		.global	ADC_CommonStructInit
 244              		.thumb
 245              		.thumb_func
 246              		.type	ADC_CommonStructInit, %function
 247              	ADC_CommonStructInit:
 248              	.LFB115:
 249              		.loc 1 377 0
 250              		.cfi_startproc
 251              		@ args = 0, pretend = 0, frame = 0
 252              		@ frame_needed = 0, uses_anonymous_args = 0
 253              		@ link register save eliminated.
 254              	.LVL19:
 255              		.loc 1 379 0
 256 0000 0023     		movs	r3, #0
 257 0002 0360     		str	r3, [r0]
 258              		.loc 1 382 0
 259 0004 4360     		str	r3, [r0, #4]
 260              		.loc 1 385 0
 261 0006 8360     		str	r3, [r0, #8]
 262              		.loc 1 388 0
 263 0008 C360     		str	r3, [r0, #12]
 264 000a 7047     		bx	lr
 265              		.cfi_endproc
 266              	.LFE115:
 267              		.size	ADC_CommonStructInit, .-ADC_CommonStructInit
 268 000c AFF30080 		.section	.text.ADC_Cmd,"ax",%progbits
 269              		.align	2
 270              		.p2align 4,,15
 271              		.global	ADC_Cmd
 272              		.thumb
 273              		.thumb_func
 274              		.type	ADC_Cmd, %function
 275              	ADC_Cmd:
 276              	.LFB116:
 277              		.loc 1 399 0
 278              		.cfi_startproc
 279              		@ args = 0, pretend = 0, frame = 0
 280              		@ frame_needed = 0, uses_anonymous_args = 0
 281              		@ link register save eliminated.
ARM GAS  /var/folders/7z/kps_xzfj7sn5l5gkyq8s9db00000gn/T//cc2C97ap.s 			page 6


 282              	.LVL20:
 283              		.loc 1 406 0
 284 0000 8368     		ldr	r3, [r0, #8]
 285              		.loc 1 403 0
 286 0002 19B9     		cbnz	r1, .L17
 287              		.loc 1 411 0
 288 0004 23F00103 		bic	r3, r3, #1
 289 0008 8360     		str	r3, [r0, #8]
 290 000a 7047     		bx	lr
 291              	.L17:
 292              		.loc 1 406 0
 293 000c 43F00103 		orr	r3, r3, #1
 294 0010 8360     		str	r3, [r0, #8]
 295 0012 7047     		bx	lr
 296              		.cfi_endproc
 297              	.LFE116:
 298              		.size	ADC_Cmd, .-ADC_Cmd
 299 0014 AFF30080 		.section	.text.ADC_AnalogWatchdogCmd,"ax",%progbits
 299      AFF30080 
 299      AFF30080 
 300              		.align	2
 301              		.p2align 4,,15
 302              		.global	ADC_AnalogWatchdogCmd
 303              		.thumb
 304              		.thumb_func
 305              		.type	ADC_AnalogWatchdogCmd, %function
 306              	ADC_AnalogWatchdogCmd:
 307              	.LFB117:
 308              		.loc 1 457 0
 309              		.cfi_startproc
 310              		@ args = 0, pretend = 0, frame = 0
 311              		@ frame_needed = 0, uses_anonymous_args = 0
 312              		@ link register save eliminated.
 313              	.LVL21:
 314              		.loc 1 464 0
 315 0000 4368     		ldr	r3, [r0, #4]
 316              	.LVL22:
 317              		.loc 1 467 0
 318 0002 23F44003 		bic	r3, r3, #12582912
 319              	.LVL23:
 320 0006 23F40073 		bic	r3, r3, #512
 321              	.LVL24:
 322              		.loc 1 470 0
 323 000a 1943     		orrs	r1, r1, r3
 324              	.LVL25:
 325              		.loc 1 473 0
 326 000c 4160     		str	r1, [r0, #4]
 327 000e 7047     		bx	lr
 328              		.cfi_endproc
 329              	.LFE117:
 330              		.size	ADC_AnalogWatchdogCmd, .-ADC_AnalogWatchdogCmd
 331              		.section	.text.ADC_AnalogWatchdogThresholdsConfig,"ax",%progbits
 332              		.align	2
 333              		.p2align 4,,15
 334              		.global	ADC_AnalogWatchdogThresholdsConfig
 335              		.thumb
 336              		.thumb_func
ARM GAS  /var/folders/7z/kps_xzfj7sn5l5gkyq8s9db00000gn/T//cc2C97ap.s 			page 7


 337              		.type	ADC_AnalogWatchdogThresholdsConfig, %function
 338              	ADC_AnalogWatchdogThresholdsConfig:
 339              	.LFB118:
 340              		.loc 1 487 0
 341              		.cfi_startproc
 342              		@ args = 0, pretend = 0, frame = 0
 343              		@ frame_needed = 0, uses_anonymous_args = 0
 344              		@ link register save eliminated.
 345              	.LVL26:
 346              		.loc 1 494 0
 347 0000 4162     		str	r1, [r0, #36]
 348              		.loc 1 497 0
 349 0002 8262     		str	r2, [r0, #40]
 350 0004 7047     		bx	lr
 351              		.cfi_endproc
 352              	.LFE118:
 353              		.size	ADC_AnalogWatchdogThresholdsConfig, .-ADC_AnalogWatchdogThresholdsConfig
 354 0006 00BFAFF3 		.section	.text.ADC_AnalogWatchdogSingleChannelConfig,"ax",%progbits
 354      0080AFF3 
 354      0080
 355              		.align	2
 356              		.p2align 4,,15
 357              		.global	ADC_AnalogWatchdogSingleChannelConfig
 358              		.thumb
 359              		.thumb_func
 360              		.type	ADC_AnalogWatchdogSingleChannelConfig, %function
 361              	ADC_AnalogWatchdogSingleChannelConfig:
 362              	.LFB119:
 363              		.loc 1 527 0
 364              		.cfi_startproc
 365              		@ args = 0, pretend = 0, frame = 0
 366              		@ frame_needed = 0, uses_anonymous_args = 0
 367              		@ link register save eliminated.
 368              	.LVL27:
 369              		.loc 1 534 0
 370 0000 4368     		ldr	r3, [r0, #4]
 371              	.LVL28:
 372              		.loc 1 537 0
 373 0002 23F01F03 		bic	r3, r3, #31
 374              	.LVL29:
 375              		.loc 1 540 0
 376 0006 1943     		orrs	r1, r1, r3
 377              	.LVL30:
 378              		.loc 1 543 0
 379 0008 4160     		str	r1, [r0, #4]
 380 000a 7047     		bx	lr
 381              		.cfi_endproc
 382              	.LFE119:
 383              		.size	ADC_AnalogWatchdogSingleChannelConfig, .-ADC_AnalogWatchdogSingleChannelConfig
 384 000c AFF30080 		.section	.text.ADC_TempSensorVrefintCmd,"ax",%progbits
 385              		.align	2
 386              		.p2align 4,,15
 387              		.global	ADC_TempSensorVrefintCmd
 388              		.thumb
 389              		.thumb_func
 390              		.type	ADC_TempSensorVrefintCmd, %function
 391              	ADC_TempSensorVrefintCmd:
ARM GAS  /var/folders/7z/kps_xzfj7sn5l5gkyq8s9db00000gn/T//cc2C97ap.s 			page 8


 392              	.LFB120:
 393              		.loc 1 592 0
 394              		.cfi_startproc
 395              		@ args = 0, pretend = 0, frame = 0
 396              		@ frame_needed = 0, uses_anonymous_args = 0
 397              		@ link register save eliminated.
 398              	.LVL31:
 399              		.loc 1 598 0
 400 0000 054A     		ldr	r2, .L25
 401 0002 5368     		ldr	r3, [r2, #4]
 402              		.loc 1 595 0
 403 0004 18B9     		cbnz	r0, .L24
 404              		.loc 1 603 0
 405 0006 23F40003 		bic	r3, r3, #8388608
 406 000a 5360     		str	r3, [r2, #4]
 407 000c 7047     		bx	lr
 408              	.L24:
 409              		.loc 1 598 0
 410 000e 43F40003 		orr	r3, r3, #8388608
 411 0012 5360     		str	r3, [r2, #4]
 412 0014 7047     		bx	lr
 413              	.L26:
 414 0016 00BF     		.align	2
 415              	.L25:
 416 0018 00230140 		.word	1073816320
 417              		.cfi_endproc
 418              	.LFE120:
 419              		.size	ADC_TempSensorVrefintCmd, .-ADC_TempSensorVrefintCmd
 420 001c AFF30080 		.section	.text.ADC_VBATCmd,"ax",%progbits
 421              		.align	2
 422              		.p2align 4,,15
 423              		.global	ADC_VBATCmd
 424              		.thumb
 425              		.thumb_func
 426              		.type	ADC_VBATCmd, %function
 427              	ADC_VBATCmd:
 428              	.LFB121:
 429              		.loc 1 614 0
 430              		.cfi_startproc
 431              		@ args = 0, pretend = 0, frame = 0
 432              		@ frame_needed = 0, uses_anonymous_args = 0
 433              		@ link register save eliminated.
 434              	.LVL32:
 435              		.loc 1 620 0
 436 0000 054A     		ldr	r2, .L31
 437 0002 5368     		ldr	r3, [r2, #4]
 438              		.loc 1 617 0
 439 0004 18B9     		cbnz	r0, .L30
 440              		.loc 1 625 0
 441 0006 23F48003 		bic	r3, r3, #4194304
 442 000a 5360     		str	r3, [r2, #4]
 443 000c 7047     		bx	lr
 444              	.L30:
 445              		.loc 1 620 0
 446 000e 43F48003 		orr	r3, r3, #4194304
 447 0012 5360     		str	r3, [r2, #4]
 448 0014 7047     		bx	lr
ARM GAS  /var/folders/7z/kps_xzfj7sn5l5gkyq8s9db00000gn/T//cc2C97ap.s 			page 9


 449              	.L32:
 450 0016 00BF     		.align	2
 451              	.L31:
 452 0018 00230140 		.word	1073816320
 453              		.cfi_endproc
 454              	.LFE121:
 455              		.size	ADC_VBATCmd, .-ADC_VBATCmd
 456 001c AFF30080 		.section	.text.ADC_RegularChannelConfig,"ax",%progbits
 457              		.align	2
 458              		.p2align 4,,15
 459              		.global	ADC_RegularChannelConfig
 460              		.thumb
 461              		.thumb_func
 462              		.type	ADC_RegularChannelConfig, %function
 463              	ADC_RegularChannelConfig:
 464              	.LFB122:
 465              		.loc 1 715 0
 466              		.cfi_startproc
 467              		@ args = 0, pretend = 0, frame = 0
 468              		@ frame_needed = 0, uses_anonymous_args = 0
 469              		@ link register save eliminated.
 470              	.LVL33:
 471              		.loc 1 724 0
 472 0000 0929     		cmp	r1, #9
 473              		.loc 1 715 0
 474 0002 70B4     		push	{r4, r5, r6}
 475              		.cfi_def_cfa_offset 12
 476              		.cfi_offset 4, -12
 477              		.cfi_offset 5, -8
 478              		.cfi_offset 6, -4
 479              		.loc 1 724 0
 480 0004 1CD9     		bls	.L34
 481              		.loc 1 730 0
 482 0006 A1F10A04 		sub	r4, r1, #10
 483 000a 04EB4404 		add	r4, r4, r4, lsl #1
 484              		.loc 1 727 0
 485 000e C568     		ldr	r5, [r0, #12]
 486              	.LVL34:
 487              		.loc 1 730 0
 488 0010 0726     		movs	r6, #7
 489 0012 A640     		lsls	r6, r6, r4
 490              	.LVL35:
 491              		.loc 1 736 0
 492 0014 A340     		lsls	r3, r3, r4
 493              	.LVL36:
 494              		.loc 1 733 0
 495 0016 25EA0604 		bic	r4, r5, r6
 496              	.LVL37:
 497              		.loc 1 739 0
 498 001a 2343     		orrs	r3, r3, r4
 499              	.LVL38:
 500              		.loc 1 765 0
 501 001c 062A     		cmp	r2, #6
 502              		.loc 1 742 0
 503 001e C360     		str	r3, [r0, #12]
 504              		.loc 1 765 0
 505 0020 1AD9     		bls	.L40
ARM GAS  /var/folders/7z/kps_xzfj7sn5l5gkyq8s9db00000gn/T//cc2C97ap.s 			page 10


 506              	.L36:
 507              		.loc 1 786 0
 508 0022 0C2A     		cmp	r2, #12
 509 0024 25D9     		bls	.L41
 510              		.loc 1 813 0
 511 0026 0D3A     		subs	r2, r2, #13
 512              	.LVL39:
 513              		.loc 1 810 0
 514 0028 C46A     		ldr	r4, [r0, #44]
 515              	.LVL40:
 516              		.loc 1 813 0
 517 002a 02EB8202 		add	r2, r2, r2, lsl #2
 518              	.LVL41:
 519 002e 1F23     		movs	r3, #31
 520 0030 9340     		lsls	r3, r3, r2
 521              	.LVL42:
 522              		.loc 1 816 0
 523 0032 24EA0303 		bic	r3, r4, r3
 524              	.LVL43:
 525              		.loc 1 819 0
 526 0036 9140     		lsls	r1, r1, r2
 527              	.LVL44:
 528              		.loc 1 822 0
 529 0038 1943     		orrs	r1, r1, r3
 530              	.LVL45:
 531              		.loc 1 825 0
 532 003a C162     		str	r1, [r0, #44]
 533              		.loc 1 827 0
 534 003c 70BC     		pop	{r4, r5, r6}
 535              		.cfi_remember_state
 536              		.cfi_restore 6
 537              		.cfi_restore 5
 538              		.cfi_restore 4
 539              		.cfi_def_cfa_offset 0
 540 003e 7047     		bx	lr
 541              	.LVL46:
 542              	.L34:
 543              		.cfi_restore_state
 544              		.loc 1 750 0
 545 0040 01EB4106 		add	r6, r1, r1, lsl #1
 546              		.loc 1 747 0
 547 0044 0569     		ldr	r5, [r0, #16]
 548              	.LVL47:
 549              		.loc 1 750 0
 550 0046 0724     		movs	r4, #7
 551 0048 B440     		lsls	r4, r4, r6
 552              	.LVL48:
 553              		.loc 1 756 0
 554 004a B340     		lsls	r3, r3, r6
 555              	.LVL49:
 556              		.loc 1 753 0
 557 004c 25EA0404 		bic	r4, r5, r4
 558              	.LVL50:
 559              		.loc 1 759 0
 560 0050 2343     		orrs	r3, r3, r4
 561              	.LVL51:
 562              		.loc 1 765 0
ARM GAS  /var/folders/7z/kps_xzfj7sn5l5gkyq8s9db00000gn/T//cc2C97ap.s 			page 11


 563 0052 062A     		cmp	r2, #6
 564              		.loc 1 762 0
 565 0054 0361     		str	r3, [r0, #16]
 566              		.loc 1 765 0
 567 0056 E4D8     		bhi	.L36
 568              	.L40:
 569              		.loc 1 771 0
 570 0058 013A     		subs	r2, r2, #1
 571              	.LVL52:
 572              		.loc 1 768 0
 573 005a 446B     		ldr	r4, [r0, #52]
 574              	.LVL53:
 575              		.loc 1 771 0
 576 005c 02EB8202 		add	r2, r2, r2, lsl #2
 577              	.LVL54:
 578 0060 1F23     		movs	r3, #31
 579 0062 9340     		lsls	r3, r3, r2
 580              	.LVL55:
 581              		.loc 1 774 0
 582 0064 24EA0303 		bic	r3, r4, r3
 583              	.LVL56:
 584              		.loc 1 777 0
 585 0068 9140     		lsls	r1, r1, r2
 586              	.LVL57:
 587              		.loc 1 780 0
 588 006a 1943     		orrs	r1, r1, r3
 589              	.LVL58:
 590              		.loc 1 783 0
 591 006c 4163     		str	r1, [r0, #52]
 592              		.loc 1 827 0
 593 006e 70BC     		pop	{r4, r5, r6}
 594              		.cfi_remember_state
 595              		.cfi_restore 4
 596              		.cfi_restore 5
 597              		.cfi_restore 6
 598              		.cfi_def_cfa_offset 0
 599 0070 7047     		bx	lr
 600              	.LVL59:
 601              	.L41:
 602              		.cfi_restore_state
 603              		.loc 1 792 0
 604 0072 073A     		subs	r2, r2, #7
 605              	.LVL60:
 606              		.loc 1 789 0
 607 0074 046B     		ldr	r4, [r0, #48]
 608              	.LVL61:
 609              		.loc 1 792 0
 610 0076 02EB8202 		add	r2, r2, r2, lsl #2
 611              	.LVL62:
 612 007a 1F23     		movs	r3, #31
 613 007c 9340     		lsls	r3, r3, r2
 614              	.LVL63:
 615              		.loc 1 795 0
 616 007e 24EA0303 		bic	r3, r4, r3
 617              	.LVL64:
 618              		.loc 1 798 0
 619 0082 9140     		lsls	r1, r1, r2
ARM GAS  /var/folders/7z/kps_xzfj7sn5l5gkyq8s9db00000gn/T//cc2C97ap.s 			page 12


 620              	.LVL65:
 621              		.loc 1 801 0
 622 0084 1943     		orrs	r1, r1, r3
 623              	.LVL66:
 624              		.loc 1 804 0
 625 0086 0163     		str	r1, [r0, #48]
 626              		.loc 1 827 0
 627 0088 70BC     		pop	{r4, r5, r6}
 628              		.cfi_restore 4
 629              		.cfi_restore 5
 630              		.cfi_restore 6
 631              		.cfi_def_cfa_offset 0
 632 008a 7047     		bx	lr
 633              		.cfi_endproc
 634              	.LFE122:
 635              		.size	ADC_RegularChannelConfig, .-ADC_RegularChannelConfig
 636 008c AFF30080 		.section	.text.ADC_SoftwareStartConv,"ax",%progbits
 637              		.align	2
 638              		.p2align 4,,15
 639              		.global	ADC_SoftwareStartConv
 640              		.thumb
 641              		.thumb_func
 642              		.type	ADC_SoftwareStartConv, %function
 643              	ADC_SoftwareStartConv:
 644              	.LFB123:
 645              		.loc 1 835 0
 646              		.cfi_startproc
 647              		@ args = 0, pretend = 0, frame = 0
 648              		@ frame_needed = 0, uses_anonymous_args = 0
 649              		@ link register save eliminated.
 650              	.LVL67:
 651              		.loc 1 840 0
 652 0000 8368     		ldr	r3, [r0, #8]
 653 0002 43F08043 		orr	r3, r3, #1073741824
 654 0006 8360     		str	r3, [r0, #8]
 655 0008 7047     		bx	lr
 656              		.cfi_endproc
 657              	.LFE123:
 658              		.size	ADC_SoftwareStartConv, .-ADC_SoftwareStartConv
 659 000a 00BFAFF3 		.section	.text.ADC_GetSoftwareStartConvStatus,"ax",%progbits
 659      0080
 660              		.align	2
 661              		.p2align 4,,15
 662              		.global	ADC_GetSoftwareStartConvStatus
 663              		.thumb
 664              		.thumb_func
 665              		.type	ADC_GetSoftwareStartConvStatus, %function
 666              	ADC_GetSoftwareStartConvStatus:
 667              	.LFB124:
 668              		.loc 1 849 0
 669              		.cfi_startproc
 670              		@ args = 0, pretend = 0, frame = 0
 671              		@ frame_needed = 0, uses_anonymous_args = 0
 672              		@ link register save eliminated.
 673              	.LVL68:
 674              		.loc 1 855 0
 675 0000 8068     		ldr	r0, [r0, #8]
ARM GAS  /var/folders/7z/kps_xzfj7sn5l5gkyq8s9db00000gn/T//cc2C97ap.s 			page 13


 676              	.LVL69:
 677              		.loc 1 868 0
 678 0002 C0F38050 		ubfx	r0, r0, #22, #1
 679              	.LVL70:
 680 0006 7047     		bx	lr
 681              		.cfi_endproc
 682              	.LFE124:
 683              		.size	ADC_GetSoftwareStartConvStatus, .-ADC_GetSoftwareStartConvStatus
 684 0008 AFF30080 		.section	.text.ADC_EOCOnEachRegularChannelCmd,"ax",%progbits
 684      AFF30080 
 685              		.align	2
 686              		.p2align 4,,15
 687              		.global	ADC_EOCOnEachRegularChannelCmd
 688              		.thumb
 689              		.thumb_func
 690              		.type	ADC_EOCOnEachRegularChannelCmd, %function
 691              	ADC_EOCOnEachRegularChannelCmd:
 692              	.LFB125:
 693              		.loc 1 879 0
 694              		.cfi_startproc
 695              		@ args = 0, pretend = 0, frame = 0
 696              		@ frame_needed = 0, uses_anonymous_args = 0
 697              		@ link register save eliminated.
 698              	.LVL71:
 699              		.loc 1 887 0
 700 0000 8368     		ldr	r3, [r0, #8]
 701              		.loc 1 884 0
 702 0002 19B9     		cbnz	r1, .L47
 703              		.loc 1 892 0
 704 0004 23F48063 		bic	r3, r3, #1024
 705 0008 8360     		str	r3, [r0, #8]
 706 000a 7047     		bx	lr
 707              	.L47:
 708              		.loc 1 887 0
 709 000c 43F48063 		orr	r3, r3, #1024
 710 0010 8360     		str	r3, [r0, #8]
 711 0012 7047     		bx	lr
 712              		.cfi_endproc
 713              	.LFE125:
 714              		.size	ADC_EOCOnEachRegularChannelCmd, .-ADC_EOCOnEachRegularChannelCmd
 715 0014 AFF30080 		.section	.text.ADC_ContinuousModeCmd,"ax",%progbits
 715      AFF30080 
 715      AFF30080 
 716              		.align	2
 717              		.p2align 4,,15
 718              		.global	ADC_ContinuousModeCmd
 719              		.thumb
 720              		.thumb_func
 721              		.type	ADC_ContinuousModeCmd, %function
 722              	ADC_ContinuousModeCmd:
 723              	.LFB126:
 724              		.loc 1 904 0
 725              		.cfi_startproc
 726              		@ args = 0, pretend = 0, frame = 0
 727              		@ frame_needed = 0, uses_anonymous_args = 0
 728              		@ link register save eliminated.
 729              	.LVL72:
ARM GAS  /var/folders/7z/kps_xzfj7sn5l5gkyq8s9db00000gn/T//cc2C97ap.s 			page 14


 730              		.loc 1 912 0
 731 0000 8368     		ldr	r3, [r0, #8]
 732              		.loc 1 909 0
 733 0002 19B9     		cbnz	r1, .L51
 734              		.loc 1 917 0
 735 0004 23F00203 		bic	r3, r3, #2
 736 0008 8360     		str	r3, [r0, #8]
 737 000a 7047     		bx	lr
 738              	.L51:
 739              		.loc 1 912 0
 740 000c 43F00203 		orr	r3, r3, #2
 741 0010 8360     		str	r3, [r0, #8]
 742 0012 7047     		bx	lr
 743              		.cfi_endproc
 744              	.LFE126:
 745              		.size	ADC_ContinuousModeCmd, .-ADC_ContinuousModeCmd
 746 0014 AFF30080 		.section	.text.ADC_DiscModeChannelCountConfig,"ax",%progbits
 746      AFF30080 
 746      AFF30080 
 747              		.align	2
 748              		.p2align 4,,15
 749              		.global	ADC_DiscModeChannelCountConfig
 750              		.thumb
 751              		.thumb_func
 752              		.type	ADC_DiscModeChannelCountConfig, %function
 753              	ADC_DiscModeChannelCountConfig:
 754              	.LFB127:
 755              		.loc 1 930 0
 756              		.cfi_startproc
 757              		@ args = 0, pretend = 0, frame = 0
 758              		@ frame_needed = 0, uses_anonymous_args = 0
 759              		@ link register save eliminated.
 760              	.LVL73:
 761              		.loc 1 939 0
 762 0000 4368     		ldr	r3, [r0, #4]
 763              	.LVL74:
 764              		.loc 1 945 0
 765 0002 0139     		subs	r1, r1, #1
 766              	.LVL75:
 767              		.loc 1 942 0
 768 0004 23F46043 		bic	r3, r3, #57344
 769              	.LVL76:
 770              		.loc 1 946 0
 771 0008 43EA4131 		orr	r1, r3, r1, lsl #13
 772              	.LVL77:
 773              		.loc 1 949 0
 774 000c 4160     		str	r1, [r0, #4]
 775 000e 7047     		bx	lr
 776              		.cfi_endproc
 777              	.LFE127:
 778              		.size	ADC_DiscModeChannelCountConfig, .-ADC_DiscModeChannelCountConfig
 779              		.section	.text.ADC_DiscModeCmd,"ax",%progbits
 780              		.align	2
 781              		.p2align 4,,15
 782              		.global	ADC_DiscModeCmd
 783              		.thumb
 784              		.thumb_func
ARM GAS  /var/folders/7z/kps_xzfj7sn5l5gkyq8s9db00000gn/T//cc2C97ap.s 			page 15


 785              		.type	ADC_DiscModeCmd, %function
 786              	ADC_DiscModeCmd:
 787              	.LFB128:
 788              		.loc 1 962 0
 789              		.cfi_startproc
 790              		@ args = 0, pretend = 0, frame = 0
 791              		@ frame_needed = 0, uses_anonymous_args = 0
 792              		@ link register save eliminated.
 793              	.LVL78:
 794              		.loc 1 970 0
 795 0000 4368     		ldr	r3, [r0, #4]
 796              		.loc 1 967 0
 797 0002 19B9     		cbnz	r1, .L56
 798              		.loc 1 975 0
 799 0004 23F40063 		bic	r3, r3, #2048
 800 0008 4360     		str	r3, [r0, #4]
 801 000a 7047     		bx	lr
 802              	.L56:
 803              		.loc 1 970 0
 804 000c 43F40063 		orr	r3, r3, #2048
 805 0010 4360     		str	r3, [r0, #4]
 806 0012 7047     		bx	lr
 807              		.cfi_endproc
 808              	.LFE128:
 809              		.size	ADC_DiscModeCmd, .-ADC_DiscModeCmd
 810 0014 AFF30080 		.section	.text.ADC_GetConversionValue,"ax",%progbits
 810      AFF30080 
 810      AFF30080 
 811              		.align	2
 812              		.p2align 4,,15
 813              		.global	ADC_GetConversionValue
 814              		.thumb
 815              		.thumb_func
 816              		.type	ADC_GetConversionValue, %function
 817              	ADC_GetConversionValue:
 818              	.LFB129:
 819              		.loc 1 985 0
 820              		.cfi_startproc
 821              		@ args = 0, pretend = 0, frame = 0
 822              		@ frame_needed = 0, uses_anonymous_args = 0
 823              		@ link register save eliminated.
 824              	.LVL79:
 825              		.loc 1 990 0
 826 0000 C06C     		ldr	r0, [r0, #76]
 827              	.LVL80:
 828              		.loc 1 991 0
 829 0002 80B2     		uxth	r0, r0
 830 0004 7047     		bx	lr
 831              		.cfi_endproc
 832              	.LFE129:
 833              		.size	ADC_GetConversionValue, .-ADC_GetConversionValue
 834 0006 00BFAFF3 		.section	.text.ADC_GetMultiModeConversionValue,"ax",%progbits
 834      0080AFF3 
 834      0080
 835              		.align	2
 836              		.p2align 4,,15
 837              		.global	ADC_GetMultiModeConversionValue
ARM GAS  /var/folders/7z/kps_xzfj7sn5l5gkyq8s9db00000gn/T//cc2C97ap.s 			page 16


 838              		.thumb
 839              		.thumb_func
 840              		.type	ADC_GetMultiModeConversionValue, %function
 841              	ADC_GetMultiModeConversionValue:
 842              	.LFB130:
 843              		.loc 1 1006 0
 844              		.cfi_startproc
 845              		@ args = 0, pretend = 0, frame = 0
 846              		@ frame_needed = 0, uses_anonymous_args = 0
 847              		@ link register save eliminated.
 848              		.loc 1 1008 0
 849 0000 014B     		ldr	r3, .L59
 850 0002 1868     		ldr	r0, [r3]
 851              		.loc 1 1009 0
 852 0004 7047     		bx	lr
 853              	.L60:
 854 0006 00BF     		.align	2
 855              	.L59:
 856 0008 08230140 		.word	1073816328
 857              		.cfi_endproc
 858              	.LFE130:
 859              		.size	ADC_GetMultiModeConversionValue, .-ADC_GetMultiModeConversionValue
 860 000c AFF30080 		.section	.text.ADC_DMACmd,"ax",%progbits
 861              		.align	2
 862              		.p2align 4,,15
 863              		.global	ADC_DMACmd
 864              		.thumb
 865              		.thumb_func
 866              		.type	ADC_DMACmd, %function
 867              	ADC_DMACmd:
 868              	.LFB131:
 869              		.loc 1 1055 0
 870              		.cfi_startproc
 871              		@ args = 0, pretend = 0, frame = 0
 872              		@ frame_needed = 0, uses_anonymous_args = 0
 873              		@ link register save eliminated.
 874              	.LVL81:
 875              		.loc 1 1062 0
 876 0000 8368     		ldr	r3, [r0, #8]
 877              		.loc 1 1059 0
 878 0002 19B9     		cbnz	r1, .L64
 879              		.loc 1 1067 0
 880 0004 23F48073 		bic	r3, r3, #256
 881 0008 8360     		str	r3, [r0, #8]
 882 000a 7047     		bx	lr
 883              	.L64:
 884              		.loc 1 1062 0
 885 000c 43F48073 		orr	r3, r3, #256
 886 0010 8360     		str	r3, [r0, #8]
 887 0012 7047     		bx	lr
 888              		.cfi_endproc
 889              	.LFE131:
 890              		.size	ADC_DMACmd, .-ADC_DMACmd
 891 0014 AFF30080 		.section	.text.ADC_DMARequestAfterLastTransferCmd,"ax",%progbits
 891      AFF30080 
 891      AFF30080 
 892              		.align	2
ARM GAS  /var/folders/7z/kps_xzfj7sn5l5gkyq8s9db00000gn/T//cc2C97ap.s 			page 17


 893              		.p2align 4,,15
 894              		.global	ADC_DMARequestAfterLastTransferCmd
 895              		.thumb
 896              		.thumb_func
 897              		.type	ADC_DMARequestAfterLastTransferCmd, %function
 898              	ADC_DMARequestAfterLastTransferCmd:
 899              	.LFB132:
 900              		.loc 1 1079 0
 901              		.cfi_startproc
 902              		@ args = 0, pretend = 0, frame = 0
 903              		@ frame_needed = 0, uses_anonymous_args = 0
 904              		@ link register save eliminated.
 905              	.LVL82:
 906              		.loc 1 1086 0
 907 0000 8368     		ldr	r3, [r0, #8]
 908              		.loc 1 1083 0
 909 0002 19B9     		cbnz	r1, .L68
 910              		.loc 1 1091 0
 911 0004 23F40073 		bic	r3, r3, #512
 912 0008 8360     		str	r3, [r0, #8]
 913 000a 7047     		bx	lr
 914              	.L68:
 915              		.loc 1 1086 0
 916 000c 43F40073 		orr	r3, r3, #512
 917 0010 8360     		str	r3, [r0, #8]
 918 0012 7047     		bx	lr
 919              		.cfi_endproc
 920              	.LFE132:
 921              		.size	ADC_DMARequestAfterLastTransferCmd, .-ADC_DMARequestAfterLastTransferCmd
 922 0014 AFF30080 		.section	.text.ADC_MultiModeDMARequestAfterLastTransferCmd,"ax",%progbits
 922      AFF30080 
 922      AFF30080 
 923              		.align	2
 924              		.p2align 4,,15
 925              		.global	ADC_MultiModeDMARequestAfterLastTransferCmd
 926              		.thumb
 927              		.thumb_func
 928              		.type	ADC_MultiModeDMARequestAfterLastTransferCmd, %function
 929              	ADC_MultiModeDMARequestAfterLastTransferCmd:
 930              	.LFB133:
 931              		.loc 1 1106 0
 932              		.cfi_startproc
 933              		@ args = 0, pretend = 0, frame = 0
 934              		@ frame_needed = 0, uses_anonymous_args = 0
 935              		@ link register save eliminated.
 936              	.LVL83:
 937              		.loc 1 1112 0
 938 0000 054A     		ldr	r2, .L73
 939 0002 5368     		ldr	r3, [r2, #4]
 940              		.loc 1 1109 0
 941 0004 18B9     		cbnz	r0, .L72
 942              		.loc 1 1117 0
 943 0006 23F40053 		bic	r3, r3, #8192
 944 000a 5360     		str	r3, [r2, #4]
 945 000c 7047     		bx	lr
 946              	.L72:
 947              		.loc 1 1112 0
ARM GAS  /var/folders/7z/kps_xzfj7sn5l5gkyq8s9db00000gn/T//cc2C97ap.s 			page 18


 948 000e 43F40053 		orr	r3, r3, #8192
 949 0012 5360     		str	r3, [r2, #4]
 950 0014 7047     		bx	lr
 951              	.L74:
 952 0016 00BF     		.align	2
 953              	.L73:
 954 0018 00230140 		.word	1073816320
 955              		.cfi_endproc
 956              	.LFE133:
 957              		.size	ADC_MultiModeDMARequestAfterLastTransferCmd, .-ADC_MultiModeDMARequestAfterLastTransferCmd
 958 001c AFF30080 		.section	.text.ADC_InjectedChannelConfig,"ax",%progbits
 959              		.align	2
 960              		.p2align 4,,15
 961              		.global	ADC_InjectedChannelConfig
 962              		.thumb
 963              		.thumb_func
 964              		.type	ADC_InjectedChannelConfig, %function
 965              	ADC_InjectedChannelConfig:
 966              	.LFB134:
 967              		.loc 1 1193 0
 968              		.cfi_startproc
 969              		@ args = 0, pretend = 0, frame = 0
 970              		@ frame_needed = 0, uses_anonymous_args = 0
 971              		@ link register save eliminated.
 972              	.LVL84:
 973              		.loc 1 1201 0
 974 0000 0929     		cmp	r1, #9
 975              		.loc 1 1193 0
 976 0002 70B4     		push	{r4, r5, r6}
 977              		.cfi_def_cfa_offset 12
 978              		.cfi_offset 4, -12
 979              		.cfi_offset 5, -8
 980              		.cfi_offset 6, -4
 981              		.loc 1 1201 0
 982 0004 1AD8     		bhi	.L79
 983              		.loc 1 1221 0
 984 0006 01EB4106 		add	r6, r1, r1, lsl #1
 985              		.loc 1 1219 0
 986 000a 0569     		ldr	r5, [r0, #16]
 987              	.LVL85:
 988              		.loc 1 1221 0
 989 000c 0724     		movs	r4, #7
 990 000e B440     		lsls	r4, r4, r6
 991              	.LVL86:
 992              		.loc 1 1225 0
 993 0010 B340     		lsls	r3, r3, r6
 994              	.LVL87:
 995              		.loc 1 1223 0
 996 0012 25EA0404 		bic	r4, r5, r4
 997              	.LVL88:
 998              		.loc 1 1227 0
 999 0016 2343     		orrs	r3, r3, r4
 1000              	.LVL89:
 1001              		.loc 1 1229 0
 1002 0018 0361     		str	r3, [r0, #16]
 1003              	.L77:
 1004              		.loc 1 1233 0
ARM GAS  /var/folders/7z/kps_xzfj7sn5l5gkyq8s9db00000gn/T//cc2C97ap.s 			page 19


 1005 001a 836B     		ldr	r3, [r0, #56]
 1006              	.LVL90:
 1007 001c 0232     		adds	r2, r2, #2
 1008              	.LVL91:
 1009              		.loc 1 1235 0
 1010 001e C3F30154 		ubfx	r4, r3, #20, #2
 1011              		.loc 1 1237 0
 1012 0022 121B     		subs	r2, r2, r4
 1013 0024 D2B2     		uxtb	r2, r2
 1014 0026 02EB8202 		add	r2, r2, r2, lsl #2
 1015              	.LVL92:
 1016 002a 1F24     		movs	r4, #31
 1017 002c 9440     		lsls	r4, r4, r2
 1018              	.LVL93:
 1019              		.loc 1 1239 0
 1020 002e 23EA0403 		bic	r3, r3, r4
 1021              	.LVL94:
 1022              		.loc 1 1241 0
 1023 0032 9140     		lsls	r1, r1, r2
 1024              	.LVL95:
 1025              		.loc 1 1243 0
 1026 0034 1943     		orrs	r1, r1, r3
 1027              	.LVL96:
 1028              		.loc 1 1245 0
 1029 0036 8163     		str	r1, [r0, #56]
 1030              		.loc 1 1246 0
 1031 0038 70BC     		pop	{r4, r5, r6}
 1032              		.cfi_remember_state
 1033              		.cfi_restore 6
 1034              		.cfi_restore 5
 1035              		.cfi_restore 4
 1036              		.cfi_def_cfa_offset 0
 1037 003a 7047     		bx	lr
 1038              	.LVL97:
 1039              	.L79:
 1040              		.cfi_restore_state
 1041              		.loc 1 1206 0
 1042 003c A1F10A04 		sub	r4, r1, #10
 1043 0040 04EB4404 		add	r4, r4, r4, lsl #1
 1044              		.loc 1 1204 0
 1045 0044 C568     		ldr	r5, [r0, #12]
 1046              	.LVL98:
 1047              		.loc 1 1206 0
 1048 0046 0726     		movs	r6, #7
 1049 0048 A640     		lsls	r6, r6, r4
 1050              	.LVL99:
 1051              		.loc 1 1210 0
 1052 004a A340     		lsls	r3, r3, r4
 1053              	.LVL100:
 1054              		.loc 1 1208 0
 1055 004c 25EA0604 		bic	r4, r5, r6
 1056              	.LVL101:
 1057              		.loc 1 1212 0
 1058 0050 2343     		orrs	r3, r3, r4
 1059              	.LVL102:
 1060              		.loc 1 1214 0
 1061 0052 C360     		str	r3, [r0, #12]
ARM GAS  /var/folders/7z/kps_xzfj7sn5l5gkyq8s9db00000gn/T//cc2C97ap.s 			page 20


 1062 0054 E1E7     		b	.L77
 1063              		.cfi_endproc
 1064              	.LFE134:
 1065              		.size	ADC_InjectedChannelConfig, .-ADC_InjectedChannelConfig
 1066 0056 00BFAFF3 		.section	.text.ADC_InjectedSequencerLengthConfig,"ax",%progbits
 1066      0080AFF3 
 1066      0080
 1067              		.align	2
 1068              		.p2align 4,,15
 1069              		.global	ADC_InjectedSequencerLengthConfig
 1070              		.thumb
 1071              		.thumb_func
 1072              		.type	ADC_InjectedSequencerLengthConfig, %function
 1073              	ADC_InjectedSequencerLengthConfig:
 1074              	.LFB135:
 1075              		.loc 1 1256 0
 1076              		.cfi_startproc
 1077              		@ args = 0, pretend = 0, frame = 0
 1078              		@ frame_needed = 0, uses_anonymous_args = 0
 1079              		@ link register save eliminated.
 1080              	.LVL103:
 1081              		.loc 1 1264 0
 1082 0000 836B     		ldr	r3, [r0, #56]
 1083              	.LVL104:
 1084              		.loc 1 1270 0
 1085 0002 0139     		subs	r1, r1, #1
 1086              	.LVL105:
 1087              		.loc 1 1267 0
 1088 0004 23F44013 		bic	r3, r3, #3145728
 1089              	.LVL106:
 1090              		.loc 1 1271 0
 1091 0008 43EA0151 		orr	r1, r3, r1, lsl #20
 1092              	.LVL107:
 1093              		.loc 1 1274 0
 1094 000c 8163     		str	r1, [r0, #56]
 1095 000e 7047     		bx	lr
 1096              		.cfi_endproc
 1097              	.LFE135:
 1098              		.size	ADC_InjectedSequencerLengthConfig, .-ADC_InjectedSequencerLengthConfig
 1099              		.section	.text.ADC_SetInjectedOffset,"ax",%progbits
 1100              		.align	2
 1101              		.p2align 4,,15
 1102              		.global	ADC_SetInjectedOffset
 1103              		.thumb
 1104              		.thumb_func
 1105              		.type	ADC_SetInjectedOffset, %function
 1106              	ADC_SetInjectedOffset:
 1107              	.LFB136:
 1108              		.loc 1 1291 0
 1109              		.cfi_startproc
 1110              		@ args = 0, pretend = 0, frame = 8
 1111              		@ frame_needed = 0, uses_anonymous_args = 0
 1112              		@ link register save eliminated.
 1113              	.LVL108:
 1114 0000 82B0     		sub	sp, sp, #8
 1115              		.cfi_def_cfa_offset 8
 1116              		.loc 1 1292 0
ARM GAS  /var/folders/7z/kps_xzfj7sn5l5gkyq8s9db00000gn/T//cc2C97ap.s 			page 21


 1117 0002 0023     		movs	r3, #0
 1118 0004 0193     		str	r3, [sp, #4]
 1119              		.loc 1 1298 0
 1120 0006 0190     		str	r0, [sp, #4]
 1121              		.loc 1 1299 0
 1122 0008 019B     		ldr	r3, [sp, #4]
 1123 000a 1944     		add	r1, r1, r3
 1124              	.LVL109:
 1125 000c 0191     		str	r1, [sp, #4]
 1126              		.loc 1 1302 0
 1127 000e 019B     		ldr	r3, [sp, #4]
 1128 0010 1A60     		str	r2, [r3]
 1129              		.loc 1 1303 0
 1130 0012 02B0     		add	sp, sp, #8
 1131              		.cfi_def_cfa_offset 0
 1132              		@ sp needed
 1133 0014 7047     		bx	lr
 1134              		.cfi_endproc
 1135              	.LFE136:
 1136              		.size	ADC_SetInjectedOffset, .-ADC_SetInjectedOffset
 1137 0016 00BFAFF3 		.section	.text.ADC_ExternalTrigInjectedConvConfig,"ax",%progbits
 1137      0080AFF3 
 1137      0080
 1138              		.align	2
 1139              		.p2align 4,,15
 1140              		.global	ADC_ExternalTrigInjectedConvConfig
 1141              		.thumb
 1142              		.thumb_func
 1143              		.type	ADC_ExternalTrigInjectedConvConfig, %function
 1144              	ADC_ExternalTrigInjectedConvConfig:
 1145              	.LFB137:
 1146              		.loc 1 1329 0
 1147              		.cfi_startproc
 1148              		@ args = 0, pretend = 0, frame = 0
 1149              		@ frame_needed = 0, uses_anonymous_args = 0
 1150              		@ link register save eliminated.
 1151              	.LVL110:
 1152              		.loc 1 1336 0
 1153 0000 8368     		ldr	r3, [r0, #8]
 1154              	.LVL111:
 1155              		.loc 1 1339 0
 1156 0002 23F47023 		bic	r3, r3, #983040
 1157              	.LVL112:
 1158              		.loc 1 1342 0
 1159 0006 1943     		orrs	r1, r1, r3
 1160              	.LVL113:
 1161              		.loc 1 1345 0
 1162 0008 8160     		str	r1, [r0, #8]
 1163 000a 7047     		bx	lr
 1164              		.cfi_endproc
 1165              	.LFE137:
 1166              		.size	ADC_ExternalTrigInjectedConvConfig, .-ADC_ExternalTrigInjectedConvConfig
 1167 000c AFF30080 		.section	.text.ADC_ExternalTrigInjectedConvEdgeConfig,"ax",%progbits
 1168              		.align	2
 1169              		.p2align 4,,15
 1170              		.global	ADC_ExternalTrigInjectedConvEdgeConfig
 1171              		.thumb
ARM GAS  /var/folders/7z/kps_xzfj7sn5l5gkyq8s9db00000gn/T//cc2C97ap.s 			page 22


 1172              		.thumb_func
 1173              		.type	ADC_ExternalTrigInjectedConvEdgeConfig, %function
 1174              	ADC_ExternalTrigInjectedConvEdgeConfig:
 1175              	.LFB138:
 1176              		.loc 1 1363 0
 1177              		.cfi_startproc
 1178              		@ args = 0, pretend = 0, frame = 0
 1179              		@ frame_needed = 0, uses_anonymous_args = 0
 1180              		@ link register save eliminated.
 1181              	.LVL114:
 1182              		.loc 1 1369 0
 1183 0000 8368     		ldr	r3, [r0, #8]
 1184              	.LVL115:
 1185              		.loc 1 1371 0
 1186 0002 23F44013 		bic	r3, r3, #3145728
 1187              	.LVL116:
 1188              		.loc 1 1373 0
 1189 0006 1943     		orrs	r1, r1, r3
 1190              	.LVL117:
 1191              		.loc 1 1375 0
 1192 0008 8160     		str	r1, [r0, #8]
 1193 000a 7047     		bx	lr
 1194              		.cfi_endproc
 1195              	.LFE138:
 1196              		.size	ADC_ExternalTrigInjectedConvEdgeConfig, .-ADC_ExternalTrigInjectedConvEdgeConfig
 1197 000c AFF30080 		.section	.text.ADC_SoftwareStartInjectedConv,"ax",%progbits
 1198              		.align	2
 1199              		.p2align 4,,15
 1200              		.global	ADC_SoftwareStartInjectedConv
 1201              		.thumb
 1202              		.thumb_func
 1203              		.type	ADC_SoftwareStartInjectedConv, %function
 1204              	ADC_SoftwareStartInjectedConv:
 1205              	.LFB139:
 1206              		.loc 1 1384 0
 1207              		.cfi_startproc
 1208              		@ args = 0, pretend = 0, frame = 0
 1209              		@ frame_needed = 0, uses_anonymous_args = 0
 1210              		@ link register save eliminated.
 1211              	.LVL118:
 1212              		.loc 1 1388 0
 1213 0000 8368     		ldr	r3, [r0, #8]
 1214 0002 43F48003 		orr	r3, r3, #4194304
 1215 0006 8360     		str	r3, [r0, #8]
 1216 0008 7047     		bx	lr
 1217              		.cfi_endproc
 1218              	.LFE139:
 1219              		.size	ADC_SoftwareStartInjectedConv, .-ADC_SoftwareStartInjectedConv
 1220 000a 00BFAFF3 		.section	.text.ADC_GetSoftwareStartInjectedConvCmdStatus,"ax",%progbits
 1220      0080
 1221              		.align	2
 1222              		.p2align 4,,15
 1223              		.global	ADC_GetSoftwareStartInjectedConvCmdStatus
 1224              		.thumb
 1225              		.thumb_func
 1226              		.type	ADC_GetSoftwareStartInjectedConvCmdStatus, %function
 1227              	ADC_GetSoftwareStartInjectedConvCmdStatus:
ARM GAS  /var/folders/7z/kps_xzfj7sn5l5gkyq8s9db00000gn/T//cc2C97ap.s 			page 23


 1228              	.LFB140:
 1229              		.loc 1 1397 0
 1230              		.cfi_startproc
 1231              		@ args = 0, pretend = 0, frame = 0
 1232              		@ frame_needed = 0, uses_anonymous_args = 0
 1233              		@ link register save eliminated.
 1234              	.LVL119:
 1235              		.loc 1 1403 0
 1236 0000 8068     		ldr	r0, [r0, #8]
 1237              	.LVL120:
 1238              		.loc 1 1415 0
 1239 0002 C0F38050 		ubfx	r0, r0, #22, #1
 1240              	.LVL121:
 1241 0006 7047     		bx	lr
 1242              		.cfi_endproc
 1243              	.LFE140:
 1244              		.size	ADC_GetSoftwareStartInjectedConvCmdStatus, .-ADC_GetSoftwareStartInjectedConvCmdStatus
 1245 0008 AFF30080 		.section	.text.ADC_AutoInjectedConvCmd,"ax",%progbits
 1245      AFF30080 
 1246              		.align	2
 1247              		.p2align 4,,15
 1248              		.global	ADC_AutoInjectedConvCmd
 1249              		.thumb
 1250              		.thumb_func
 1251              		.type	ADC_AutoInjectedConvCmd, %function
 1252              	ADC_AutoInjectedConvCmd:
 1253              	.LFB141:
 1254              		.loc 1 1426 0
 1255              		.cfi_startproc
 1256              		@ args = 0, pretend = 0, frame = 0
 1257              		@ frame_needed = 0, uses_anonymous_args = 0
 1258              		@ link register save eliminated.
 1259              	.LVL122:
 1260              		.loc 1 1433 0
 1261 0000 4368     		ldr	r3, [r0, #4]
 1262              		.loc 1 1430 0
 1263 0002 19B9     		cbnz	r1, .L90
 1264              		.loc 1 1438 0
 1265 0004 23F48063 		bic	r3, r3, #1024
 1266 0008 4360     		str	r3, [r0, #4]
 1267 000a 7047     		bx	lr
 1268              	.L90:
 1269              		.loc 1 1433 0
 1270 000c 43F48063 		orr	r3, r3, #1024
 1271 0010 4360     		str	r3, [r0, #4]
 1272 0012 7047     		bx	lr
 1273              		.cfi_endproc
 1274              	.LFE141:
 1275              		.size	ADC_AutoInjectedConvCmd, .-ADC_AutoInjectedConvCmd
 1276 0014 AFF30080 		.section	.text.ADC_InjectedDiscModeCmd,"ax",%progbits
 1276      AFF30080 
 1276      AFF30080 
 1277              		.align	2
 1278              		.p2align 4,,15
 1279              		.global	ADC_InjectedDiscModeCmd
 1280              		.thumb
 1281              		.thumb_func
ARM GAS  /var/folders/7z/kps_xzfj7sn5l5gkyq8s9db00000gn/T//cc2C97ap.s 			page 24


 1282              		.type	ADC_InjectedDiscModeCmd, %function
 1283              	ADC_InjectedDiscModeCmd:
 1284              	.LFB142:
 1285              		.loc 1 1452 0
 1286              		.cfi_startproc
 1287              		@ args = 0, pretend = 0, frame = 0
 1288              		@ frame_needed = 0, uses_anonymous_args = 0
 1289              		@ link register save eliminated.
 1290              	.LVL123:
 1291              		.loc 1 1459 0
 1292 0000 4368     		ldr	r3, [r0, #4]
 1293              		.loc 1 1456 0
 1294 0002 19B9     		cbnz	r1, .L94
 1295              		.loc 1 1464 0
 1296 0004 23F48053 		bic	r3, r3, #4096
 1297 0008 4360     		str	r3, [r0, #4]
 1298 000a 7047     		bx	lr
 1299              	.L94:
 1300              		.loc 1 1459 0
 1301 000c 43F48053 		orr	r3, r3, #4096
 1302 0010 4360     		str	r3, [r0, #4]
 1303 0012 7047     		bx	lr
 1304              		.cfi_endproc
 1305              	.LFE142:
 1306              		.size	ADC_InjectedDiscModeCmd, .-ADC_InjectedDiscModeCmd
 1307 0014 AFF30080 		.section	.text.ADC_GetInjectedConversionValue,"ax",%progbits
 1307      AFF30080 
 1307      AFF30080 
 1308              		.align	2
 1309              		.p2align 4,,15
 1310              		.global	ADC_GetInjectedConversionValue
 1311              		.thumb
 1312              		.thumb_func
 1313              		.type	ADC_GetInjectedConversionValue, %function
 1314              	ADC_GetInjectedConversionValue:
 1315              	.LFB143:
 1316              		.loc 1 1480 0
 1317              		.cfi_startproc
 1318              		@ args = 0, pretend = 0, frame = 8
 1319              		@ frame_needed = 0, uses_anonymous_args = 0
 1320              		@ link register save eliminated.
 1321              	.LVL124:
 1322 0000 82B0     		sub	sp, sp, #8
 1323              		.cfi_def_cfa_offset 8
 1324              		.loc 1 1481 0
 1325 0002 0023     		movs	r3, #0
 1326 0004 0193     		str	r3, [sp, #4]
 1327              		.loc 1 1487 0
 1328 0006 0190     		str	r0, [sp, #4]
 1329              		.loc 1 1488 0
 1330 0008 019B     		ldr	r3, [sp, #4]
 1331 000a 2833     		adds	r3, r3, #40
 1332 000c 1944     		add	r1, r1, r3
 1333              	.LVL125:
 1334 000e 0191     		str	r1, [sp, #4]
 1335              		.loc 1 1491 0
 1336 0010 019B     		ldr	r3, [sp, #4]
ARM GAS  /var/folders/7z/kps_xzfj7sn5l5gkyq8s9db00000gn/T//cc2C97ap.s 			page 25


 1337 0012 1868     		ldr	r0, [r3]
 1338              	.LVL126:
 1339              		.loc 1 1492 0
 1340 0014 80B2     		uxth	r0, r0
 1341 0016 02B0     		add	sp, sp, #8
 1342              		.cfi_def_cfa_offset 0
 1343              		@ sp needed
 1344 0018 7047     		bx	lr
 1345              		.cfi_endproc
 1346              	.LFE143:
 1347              		.size	ADC_GetInjectedConversionValue, .-ADC_GetInjectedConversionValue
 1348 001a 00BFAFF3 		.section	.text.ADC_ITConfig,"ax",%progbits
 1348      0080
 1349              		.align	2
 1350              		.p2align 4,,15
 1351              		.global	ADC_ITConfig
 1352              		.thumb
 1353              		.thumb_func
 1354              		.type	ADC_ITConfig, %function
 1355              	ADC_ITConfig:
 1356              	.LFB144:
 1357              		.loc 1 1588 0
 1358              		.cfi_startproc
 1359              		@ args = 0, pretend = 0, frame = 0
 1360              		@ frame_needed = 0, uses_anonymous_args = 0
 1361              		@ link register save eliminated.
 1362              	.LVL127:
 1363              		.loc 1 1597 0
 1364 0000 C9B2     		uxtb	r1, r1
 1365              	.LVL128:
 1366 0002 0123     		movs	r3, #1
 1367 0004 8B40     		lsls	r3, r3, r1
 1368              	.LVL129:
 1369              		.loc 1 1599 0
 1370 0006 22B9     		cbnz	r2, .L100
 1371              		.loc 1 1607 0
 1372 0008 4268     		ldr	r2, [r0, #4]
 1373              	.LVL130:
 1374 000a 22EA0303 		bic	r3, r2, r3
 1375              	.LVL131:
 1376 000e 4360     		str	r3, [r0, #4]
 1377 0010 7047     		bx	lr
 1378              	.LVL132:
 1379              	.L100:
 1380              		.loc 1 1602 0
 1381 0012 4268     		ldr	r2, [r0, #4]
 1382              	.LVL133:
 1383 0014 1343     		orrs	r3, r3, r2
 1384              	.LVL134:
 1385 0016 4360     		str	r3, [r0, #4]
 1386 0018 7047     		bx	lr
 1387              		.cfi_endproc
 1388              	.LFE144:
 1389              		.size	ADC_ITConfig, .-ADC_ITConfig
 1390 001a 00BFAFF3 		.section	.text.ADC_GetFlagStatus,"ax",%progbits
 1390      0080
 1391              		.align	2
ARM GAS  /var/folders/7z/kps_xzfj7sn5l5gkyq8s9db00000gn/T//cc2C97ap.s 			page 26


 1392              		.p2align 4,,15
 1393              		.global	ADC_GetFlagStatus
 1394              		.thumb
 1395              		.thumb_func
 1396              		.type	ADC_GetFlagStatus, %function
 1397              	ADC_GetFlagStatus:
 1398              	.LFB145:
 1399              		.loc 1 1625 0
 1400              		.cfi_startproc
 1401              		@ args = 0, pretend = 0, frame = 0
 1402              		@ frame_needed = 0, uses_anonymous_args = 0
 1403              		@ link register save eliminated.
 1404              	.LVL135:
 1405              		.loc 1 1632 0
 1406 0000 0368     		ldr	r3, [r0]
 1407              	.LVL136:
 1408 0002 1942     		tst	r1, r3
 1409              		.loc 1 1644 0
 1410 0004 14BF     		ite	ne
 1411 0006 0120     		movne	r0, #1
 1412              	.LVL137:
 1413 0008 0020     		moveq	r0, #0
 1414 000a 7047     		bx	lr
 1415              		.cfi_endproc
 1416              	.LFE145:
 1417              		.size	ADC_GetFlagStatus, .-ADC_GetFlagStatus
 1418 000c AFF30080 		.section	.text.ADC_ClearFlag,"ax",%progbits
 1419              		.align	2
 1420              		.p2align 4,,15
 1421              		.global	ADC_ClearFlag
 1422              		.thumb
 1423              		.thumb_func
 1424              		.type	ADC_ClearFlag, %function
 1425              	ADC_ClearFlag:
 1426              	.LFB146:
 1427              		.loc 1 1660 0
 1428              		.cfi_startproc
 1429              		@ args = 0, pretend = 0, frame = 0
 1430              		@ frame_needed = 0, uses_anonymous_args = 0
 1431              		@ link register save eliminated.
 1432              	.LVL138:
 1433              		.loc 1 1666 0
 1434 0000 C943     		mvns	r1, r1
 1435              	.LVL139:
 1436 0002 0160     		str	r1, [r0]
 1437 0004 7047     		bx	lr
 1438              		.cfi_endproc
 1439              	.LFE146:
 1440              		.size	ADC_ClearFlag, .-ADC_ClearFlag
 1441 0006 00BFAFF3 		.section	.text.ADC_GetITStatus,"ax",%progbits
 1441      0080AFF3 
 1441      0080
 1442              		.align	2
 1443              		.p2align 4,,15
 1444              		.global	ADC_GetITStatus
 1445              		.thumb
 1446              		.thumb_func
ARM GAS  /var/folders/7z/kps_xzfj7sn5l5gkyq8s9db00000gn/T//cc2C97ap.s 			page 27


 1447              		.type	ADC_GetITStatus, %function
 1448              	ADC_GetITStatus:
 1449              	.LFB147:
 1450              		.loc 1 1681 0
 1451              		.cfi_startproc
 1452              		@ args = 0, pretend = 0, frame = 0
 1453              		@ frame_needed = 0, uses_anonymous_args = 0
 1454              		@ link register save eliminated.
 1455              	.LVL140:
 1456              		.loc 1 1693 0
 1457 0000 4268     		ldr	r2, [r0, #4]
 1458              	.LVL141:
 1459              		.loc 1 1696 0
 1460 0002 0068     		ldr	r0, [r0]
 1461              	.LVL142:
 1462 0004 10EA1120 		ands	r0, r0, r1, lsr #8
 1463 0008 06D0     		beq	.L104
 1464              		.loc 1 1693 0 discriminator 1
 1465 000a C9B2     		uxtb	r1, r1
 1466              	.LVL143:
 1467 000c 0123     		movs	r3, #1
 1468 000e 8B40     		lsls	r3, r3, r1
 1469              		.loc 1 1696 0 discriminator 1
 1470 0010 1342     		tst	r3, r2
 1471              		.loc 1 1699 0 discriminator 1
 1472 0012 14BF     		ite	ne
 1473 0014 0120     		movne	r0, #1
 1474 0016 0020     		moveq	r0, #0
 1475              	.LVL144:
 1476              	.L104:
 1477              		.loc 1 1708 0
 1478 0018 7047     		bx	lr
 1479              		.cfi_endproc
 1480              	.LFE147:
 1481              		.size	ADC_GetITStatus, .-ADC_GetITStatus
 1482 001a 00BFAFF3 		.section	.text.ADC_ClearITPendingBit,"ax",%progbits
 1482      0080
 1483              		.align	2
 1484              		.p2align 4,,15
 1485              		.global	ADC_ClearITPendingBit
 1486              		.thumb
 1487              		.thumb_func
 1488              		.type	ADC_ClearITPendingBit, %function
 1489              	ADC_ClearITPendingBit:
 1490              	.LFB148:
 1491              		.loc 1 1722 0
 1492              		.cfi_startproc
 1493              		@ args = 0, pretend = 0, frame = 0
 1494              		@ frame_needed = 0, uses_anonymous_args = 0
 1495              		@ link register save eliminated.
 1496              	.LVL145:
 1497              		.loc 1 1730 0
 1498 0000 6FEA1121 		mvn	r1, r1, lsr #8
 1499              	.LVL146:
 1500 0004 0160     		str	r1, [r0]
 1501 0006 7047     		bx	lr
 1502              		.cfi_endproc
ARM GAS  /var/folders/7z/kps_xzfj7sn5l5gkyq8s9db00000gn/T//cc2C97ap.s 			page 28


 1503              	.LFE148:
 1504              		.size	ADC_ClearITPendingBit, .-ADC_ClearITPendingBit
 1505 0008 AFF30080 		.text
 1505      AFF30080 
 1506              	.Letext0:
 1507              		.file 2 "/Users/Baram/gcc-arm-none-eabi/arm-none-eabi/include/machine/_default_types.h"
 1508              		.file 3 "/Users/Baram/gcc-arm-none-eabi/arm-none-eabi/include/stdint.h"
 1509              		.file 4 "lib/ChibiOS_2.6.6/os/hal/platforms/STM32F4xx/stm32f4xx.h"
 1510              		.file 5 "lib/ChibiOS_2.6.6/ext/stdperiph_stm32f4/inc/stm32f4xx_adc.h"
 1511              		.file 6 "lib/ChibiOS_2.6.6/os/ports/common/ARMCMx/CMSIS/include/core_cm4.h"
 1512              		.file 7 "lib/ChibiOS_2.6.6/ext/stdperiph_stm32f4/inc/stm32f4xx_rcc.h"
 1513              		.section	.debug_info,"",%progbits
 1514              	.Ldebug_info0:
 1515 0000 880C0000 		.4byte	0xc88
 1516 0004 0400     		.2byte	0x4
 1517 0006 00000000 		.4byte	.Ldebug_abbrev0
 1518 000a 04       		.byte	0x4
 1519 000b 01       		.uleb128 0x1
 1520 000c C1050000 		.4byte	.LASF115
 1521 0010 01       		.byte	0x1
 1522 0011 9D010000 		.4byte	.LASF116
 1523 0015 69020000 		.4byte	.LASF117
 1524 0019 00000000 		.4byte	.Ldebug_ranges0+0
 1525 001d 00000000 		.4byte	0
 1526 0021 00000000 		.4byte	.Ldebug_line0
 1527 0025 02       		.uleb128 0x2
 1528 0026 01       		.byte	0x1
 1529 0027 06       		.byte	0x6
 1530 0028 BD000000 		.4byte	.LASF0
 1531 002c 03       		.uleb128 0x3
 1532 002d 46000000 		.4byte	.LASF3
 1533 0031 02       		.byte	0x2
 1534 0032 1D       		.byte	0x1d
 1535 0033 37000000 		.4byte	0x37
 1536 0037 02       		.uleb128 0x2
 1537 0038 01       		.byte	0x1
 1538 0039 08       		.byte	0x8
 1539 003a A0050000 		.4byte	.LASF1
 1540 003e 02       		.uleb128 0x2
 1541 003f 02       		.byte	0x2
 1542 0040 05       		.byte	0x5
 1543 0041 AE050000 		.4byte	.LASF2
 1544 0045 03       		.uleb128 0x3
 1545 0046 91070000 		.4byte	.LASF4
 1546 004a 02       		.byte	0x2
 1547 004b 2B       		.byte	0x2b
 1548 004c 50000000 		.4byte	0x50
 1549 0050 02       		.uleb128 0x2
 1550 0051 02       		.byte	0x2
 1551 0052 07       		.byte	0x7
 1552 0053 37030000 		.4byte	.LASF5
 1553 0057 03       		.uleb128 0x3
 1554 0058 B8070000 		.4byte	.LASF6
 1555 005c 02       		.byte	0x2
 1556 005d 3F       		.byte	0x3f
 1557 005e 62000000 		.4byte	0x62
 1558 0062 02       		.uleb128 0x2
ARM GAS  /var/folders/7z/kps_xzfj7sn5l5gkyq8s9db00000gn/T//cc2C97ap.s 			page 29


 1559 0063 04       		.byte	0x4
 1560 0064 05       		.byte	0x5
 1561 0065 61010000 		.4byte	.LASF7
 1562 0069 03       		.uleb128 0x3
 1563 006a FD010000 		.4byte	.LASF8
 1564 006e 02       		.byte	0x2
 1565 006f 41       		.byte	0x41
 1566 0070 74000000 		.4byte	0x74
 1567 0074 02       		.uleb128 0x2
 1568 0075 04       		.byte	0x4
 1569 0076 07       		.byte	0x7
 1570 0077 DC020000 		.4byte	.LASF9
 1571 007b 02       		.uleb128 0x2
 1572 007c 08       		.byte	0x8
 1573 007d 05       		.byte	0x5
 1574 007e AF000000 		.4byte	.LASF10
 1575 0082 02       		.uleb128 0x2
 1576 0083 08       		.byte	0x8
 1577 0084 07       		.byte	0x7
 1578 0085 6C000000 		.4byte	.LASF11
 1579 0089 04       		.uleb128 0x4
 1580 008a 04       		.byte	0x4
 1581 008b 05       		.byte	0x5
 1582 008c 696E7400 		.ascii	"int\000"
 1583 0090 02       		.uleb128 0x2
 1584 0091 04       		.byte	0x4
 1585 0092 07       		.byte	0x7
 1586 0093 C2020000 		.4byte	.LASF12
 1587 0097 03       		.uleb128 0x3
 1588 0098 41080000 		.4byte	.LASF13
 1589 009c 03       		.byte	0x3
 1590 009d 15       		.byte	0x15
 1591 009e 2C000000 		.4byte	0x2c
 1592 00a2 03       		.uleb128 0x3
 1593 00a3 D9010000 		.4byte	.LASF14
 1594 00a7 03       		.byte	0x3
 1595 00a8 21       		.byte	0x21
 1596 00a9 45000000 		.4byte	0x45
 1597 00ad 03       		.uleb128 0x3
 1598 00ae 98050000 		.4byte	.LASF15
 1599 00b2 03       		.byte	0x3
 1600 00b3 2C       		.byte	0x2c
 1601 00b4 57000000 		.4byte	0x57
 1602 00b8 03       		.uleb128 0x3
 1603 00b9 35070000 		.4byte	.LASF16
 1604 00bd 03       		.byte	0x3
 1605 00be 2D       		.byte	0x2d
 1606 00bf 69000000 		.4byte	0x69
 1607 00c3 02       		.uleb128 0x2
 1608 00c4 04       		.byte	0x4
 1609 00c5 07       		.byte	0x7
 1610 00c6 27040000 		.4byte	.LASF17
 1611 00ca 05       		.uleb128 0x5
 1612 00cb B8000000 		.4byte	0xb8
 1613 00cf 05       		.uleb128 0x5
 1614 00d0 AD000000 		.4byte	0xad
 1615 00d4 06       		.uleb128 0x6
ARM GAS  /var/folders/7z/kps_xzfj7sn5l5gkyq8s9db00000gn/T//cc2C97ap.s 			page 30


 1616 00d5 01       		.byte	0x1
 1617 00d6 04       		.byte	0x4
 1618 00d7 F701     		.2byte	0x1f7
 1619 00d9 EA000000 		.4byte	0xea
 1620 00dd 07       		.uleb128 0x7
 1621 00de 1C050000 		.4byte	.LASF18
 1622 00e2 00       		.sleb128 0
 1623 00e3 08       		.uleb128 0x8
 1624 00e4 53455400 		.ascii	"SET\000"
 1625 00e8 01       		.sleb128 1
 1626 00e9 00       		.byte	0
 1627 00ea 09       		.uleb128 0x9
 1628 00eb 25000000 		.4byte	.LASF19
 1629 00ef 04       		.byte	0x4
 1630 00f0 F701     		.2byte	0x1f7
 1631 00f2 D4000000 		.4byte	0xd4
 1632 00f6 09       		.uleb128 0x9
 1633 00f7 A1020000 		.4byte	.LASF20
 1634 00fb 04       		.byte	0x4
 1635 00fc F701     		.2byte	0x1f7
 1636 00fe D4000000 		.4byte	0xd4
 1637 0102 06       		.uleb128 0x6
 1638 0103 01       		.byte	0x1
 1639 0104 04       		.byte	0x4
 1640 0105 F901     		.2byte	0x1f9
 1641 0107 18010000 		.4byte	0x118
 1642 010b 07       		.uleb128 0x7
 1643 010c 64000000 		.4byte	.LASF21
 1644 0110 00       		.sleb128 0
 1645 0111 07       		.uleb128 0x7
 1646 0112 96010000 		.4byte	.LASF22
 1647 0116 01       		.sleb128 1
 1648 0117 00       		.byte	0
 1649 0118 09       		.uleb128 0x9
 1650 0119 91020000 		.4byte	.LASF23
 1651 011d 04       		.byte	0x4
 1652 011e F901     		.2byte	0x1f9
 1653 0120 02010000 		.4byte	0x102
 1654 0124 0A       		.uleb128 0xa
 1655 0125 50       		.byte	0x50
 1656 0126 04       		.byte	0x4
 1657 0127 0A02     		.2byte	0x20a
 1658 0129 30020000 		.4byte	0x230
 1659 012d 0B       		.uleb128 0xb
 1660 012e 535200   		.ascii	"SR\000"
 1661 0131 04       		.byte	0x4
 1662 0132 0C02     		.2byte	0x20c
 1663 0134 CA000000 		.4byte	0xca
 1664 0138 00       		.byte	0
 1665 0139 0B       		.uleb128 0xb
 1666 013a 43523100 		.ascii	"CR1\000"
 1667 013e 04       		.byte	0x4
 1668 013f 0D02     		.2byte	0x20d
 1669 0141 CA000000 		.4byte	0xca
 1670 0145 04       		.byte	0x4
 1671 0146 0B       		.uleb128 0xb
 1672 0147 43523200 		.ascii	"CR2\000"
ARM GAS  /var/folders/7z/kps_xzfj7sn5l5gkyq8s9db00000gn/T//cc2C97ap.s 			page 31


 1673 014b 04       		.byte	0x4
 1674 014c 0E02     		.2byte	0x20e
 1675 014e CA000000 		.4byte	0xca
 1676 0152 08       		.byte	0x8
 1677 0153 0C       		.uleb128 0xc
 1678 0154 9D040000 		.4byte	.LASF24
 1679 0158 04       		.byte	0x4
 1680 0159 0F02     		.2byte	0x20f
 1681 015b CA000000 		.4byte	0xca
 1682 015f 0C       		.byte	0xc
 1683 0160 0C       		.uleb128 0xc
 1684 0161 50000000 		.4byte	.LASF25
 1685 0165 04       		.byte	0x4
 1686 0166 1002     		.2byte	0x210
 1687 0168 CA000000 		.4byte	0xca
 1688 016c 10       		.byte	0x10
 1689 016d 0C       		.uleb128 0xc
 1690 016e 83000000 		.4byte	.LASF26
 1691 0172 04       		.byte	0x4
 1692 0173 1102     		.2byte	0x211
 1693 0175 CA000000 		.4byte	0xca
 1694 0179 14       		.byte	0x14
 1695 017a 0C       		.uleb128 0xc
 1696 017b CD030000 		.4byte	.LASF27
 1697 017f 04       		.byte	0x4
 1698 0180 1202     		.2byte	0x212
 1699 0182 CA000000 		.4byte	0xca
 1700 0186 18       		.byte	0x18
 1701 0187 0C       		.uleb128 0xc
 1702 0188 D3030000 		.4byte	.LASF28
 1703 018c 04       		.byte	0x4
 1704 018d 1302     		.2byte	0x213
 1705 018f CA000000 		.4byte	0xca
 1706 0193 1C       		.byte	0x1c
 1707 0194 0C       		.uleb128 0xc
 1708 0195 0F070000 		.4byte	.LASF29
 1709 0199 04       		.byte	0x4
 1710 019a 1402     		.2byte	0x214
 1711 019c CA000000 		.4byte	0xca
 1712 01a0 20       		.byte	0x20
 1713 01a1 0B       		.uleb128 0xb
 1714 01a2 48545200 		.ascii	"HTR\000"
 1715 01a6 04       		.byte	0x4
 1716 01a7 1502     		.2byte	0x215
 1717 01a9 CA000000 		.4byte	0xca
 1718 01ad 24       		.byte	0x24
 1719 01ae 0B       		.uleb128 0xb
 1720 01af 4C545200 		.ascii	"LTR\000"
 1721 01b3 04       		.byte	0x4
 1722 01b4 1602     		.2byte	0x216
 1723 01b6 CA000000 		.4byte	0xca
 1724 01ba 28       		.byte	0x28
 1725 01bb 0C       		.uleb128 0xc
 1726 01bc DF040000 		.4byte	.LASF30
 1727 01c0 04       		.byte	0x4
 1728 01c1 1702     		.2byte	0x217
 1729 01c3 CA000000 		.4byte	0xca
ARM GAS  /var/folders/7z/kps_xzfj7sn5l5gkyq8s9db00000gn/T//cc2C97ap.s 			page 32


 1730 01c7 2C       		.byte	0x2c
 1731 01c8 0C       		.uleb128 0xc
 1732 01c9 E4040000 		.4byte	.LASF31
 1733 01cd 04       		.byte	0x4
 1734 01ce 1802     		.2byte	0x218
 1735 01d0 CA000000 		.4byte	0xca
 1736 01d4 30       		.byte	0x30
 1737 01d5 0C       		.uleb128 0xc
 1738 01d6 E9040000 		.4byte	.LASF32
 1739 01da 04       		.byte	0x4
 1740 01db 1902     		.2byte	0x219
 1741 01dd CA000000 		.4byte	0xca
 1742 01e1 34       		.byte	0x34
 1743 01e2 0C       		.uleb128 0xc
 1744 01e3 AA000000 		.4byte	.LASF33
 1745 01e7 04       		.byte	0x4
 1746 01e8 1A02     		.2byte	0x21a
 1747 01ea CA000000 		.4byte	0xca
 1748 01ee 38       		.byte	0x38
 1749 01ef 0C       		.uleb128 0xc
 1750 01f0 5B080000 		.4byte	.LASF34
 1751 01f4 04       		.byte	0x4
 1752 01f5 1B02     		.2byte	0x21b
 1753 01f7 CA000000 		.4byte	0xca
 1754 01fb 3C       		.byte	0x3c
 1755 01fc 0C       		.uleb128 0xc
 1756 01fd 60080000 		.4byte	.LASF35
 1757 0201 04       		.byte	0x4
 1758 0202 1C02     		.2byte	0x21c
 1759 0204 CA000000 		.4byte	0xca
 1760 0208 40       		.byte	0x40
 1761 0209 0C       		.uleb128 0xc
 1762 020a 65080000 		.4byte	.LASF36
 1763 020e 04       		.byte	0x4
 1764 020f 1D02     		.2byte	0x21d
 1765 0211 CA000000 		.4byte	0xca
 1766 0215 44       		.byte	0x44
 1767 0216 0C       		.uleb128 0xc
 1768 0217 6A080000 		.4byte	.LASF37
 1769 021b 04       		.byte	0x4
 1770 021c 1E02     		.2byte	0x21e
 1771 021e CA000000 		.4byte	0xca
 1772 0222 48       		.byte	0x48
 1773 0223 0B       		.uleb128 0xb
 1774 0224 445200   		.ascii	"DR\000"
 1775 0227 04       		.byte	0x4
 1776 0228 1F02     		.2byte	0x21f
 1777 022a CA000000 		.4byte	0xca
 1778 022e 4C       		.byte	0x4c
 1779 022f 00       		.byte	0
 1780 0230 09       		.uleb128 0x9
 1781 0231 E2010000 		.4byte	.LASF38
 1782 0235 04       		.byte	0x4
 1783 0236 2002     		.2byte	0x220
 1784 0238 24010000 		.4byte	0x124
 1785 023c 0A       		.uleb128 0xa
 1786 023d 0C       		.byte	0xc
ARM GAS  /var/folders/7z/kps_xzfj7sn5l5gkyq8s9db00000gn/T//cc2C97ap.s 			page 33


 1787 023e 04       		.byte	0x4
 1788 023f 2202     		.2byte	0x222
 1789 0241 6D020000 		.4byte	0x26d
 1790 0245 0B       		.uleb128 0xb
 1791 0246 43535200 		.ascii	"CSR\000"
 1792 024a 04       		.byte	0x4
 1793 024b 2402     		.2byte	0x224
 1794 024d CA000000 		.4byte	0xca
 1795 0251 00       		.byte	0
 1796 0252 0B       		.uleb128 0xb
 1797 0253 43435200 		.ascii	"CCR\000"
 1798 0257 04       		.byte	0x4
 1799 0258 2502     		.2byte	0x225
 1800 025a CA000000 		.4byte	0xca
 1801 025e 04       		.byte	0x4
 1802 025f 0B       		.uleb128 0xb
 1803 0260 43445200 		.ascii	"CDR\000"
 1804 0264 04       		.byte	0x4
 1805 0265 2602     		.2byte	0x226
 1806 0267 CA000000 		.4byte	0xca
 1807 026b 08       		.byte	0x8
 1808 026c 00       		.byte	0
 1809 026d 09       		.uleb128 0x9
 1810 026e 3B040000 		.4byte	.LASF39
 1811 0272 04       		.byte	0x4
 1812 0273 2802     		.2byte	0x228
 1813 0275 3C020000 		.4byte	0x23c
 1814 0279 0D       		.uleb128 0xd
 1815 027a 18       		.byte	0x18
 1816 027b 05       		.byte	0x5
 1817 027c 35       		.byte	0x35
 1818 027d D6020000 		.4byte	0x2d6
 1819 0281 0E       		.uleb128 0xe
 1820 0282 79080000 		.4byte	.LASF40
 1821 0286 05       		.byte	0x5
 1822 0287 37       		.byte	0x37
 1823 0288 B8000000 		.4byte	0xb8
 1824 028c 00       		.byte	0
 1825 028d 0E       		.uleb128 0xe
 1826 028e FE060000 		.4byte	.LASF41
 1827 0292 05       		.byte	0x5
 1828 0293 39       		.byte	0x39
 1829 0294 18010000 		.4byte	0x118
 1830 0298 04       		.byte	0x4
 1831 0299 0E       		.uleb128 0xe
 1832 029a 4A010000 		.4byte	.LASF42
 1833 029e 05       		.byte	0x5
 1834 029f 3D       		.byte	0x3d
 1835 02a0 18010000 		.4byte	0x118
 1836 02a4 05       		.byte	0x5
 1837 02a5 0E       		.uleb128 0xe
 1838 02a6 E5060000 		.4byte	.LASF43
 1839 02aa 05       		.byte	0x5
 1840 02ab 40       		.byte	0x40
 1841 02ac B8000000 		.4byte	0xb8
 1842 02b0 08       		.byte	0x8
 1843 02b1 0E       		.uleb128 0xe
ARM GAS  /var/folders/7z/kps_xzfj7sn5l5gkyq8s9db00000gn/T//cc2C97ap.s 			page 34


 1844 02b2 10000000 		.4byte	.LASF44
 1845 02b6 05       		.byte	0x5
 1846 02b7 44       		.byte	0x44
 1847 02b8 B8000000 		.4byte	0xb8
 1848 02bc 0C       		.byte	0xc
 1849 02bd 0E       		.uleb128 0xe
 1850 02be 3E070000 		.4byte	.LASF45
 1851 02c2 05       		.byte	0x5
 1852 02c3 48       		.byte	0x48
 1853 02c4 B8000000 		.4byte	0xb8
 1854 02c8 10       		.byte	0x10
 1855 02c9 0E       		.uleb128 0xe
 1856 02ca 89000000 		.4byte	.LASF46
 1857 02ce 05       		.byte	0x5
 1858 02cf 4B       		.byte	0x4b
 1859 02d0 97000000 		.4byte	0x97
 1860 02d4 14       		.byte	0x14
 1861 02d5 00       		.byte	0
 1862 02d6 03       		.uleb128 0x3
 1863 02d7 15070000 		.4byte	.LASF47
 1864 02db 05       		.byte	0x5
 1865 02dc 4F       		.byte	0x4f
 1866 02dd 79020000 		.4byte	0x279
 1867 02e1 0D       		.uleb128 0xd
 1868 02e2 10       		.byte	0x10
 1869 02e3 05       		.byte	0x5
 1870 02e4 54       		.byte	0x54
 1871 02e5 1A030000 		.4byte	0x31a
 1872 02e9 0E       		.uleb128 0xe
 1873 02ea B8050000 		.4byte	.LASF48
 1874 02ee 05       		.byte	0x5
 1875 02ef 56       		.byte	0x56
 1876 02f0 B8000000 		.4byte	0xb8
 1877 02f4 00       		.byte	0
 1878 02f5 0E       		.uleb128 0xe
 1879 02f6 83070000 		.4byte	.LASF49
 1880 02fa 05       		.byte	0x5
 1881 02fb 59       		.byte	0x59
 1882 02fc B8000000 		.4byte	0xb8
 1883 0300 04       		.byte	0x4
 1884 0301 0E       		.uleb128 0xe
 1885 0302 07030000 		.4byte	.LASF50
 1886 0306 05       		.byte	0x5
 1887 0307 5C       		.byte	0x5c
 1888 0308 B8000000 		.4byte	0xb8
 1889 030c 08       		.byte	0x8
 1890 030d 0E       		.uleb128 0xe
 1891 030e BD080000 		.4byte	.LASF51
 1892 0312 05       		.byte	0x5
 1893 0313 60       		.byte	0x60
 1894 0314 B8000000 		.4byte	0xb8
 1895 0318 0C       		.byte	0xc
 1896 0319 00       		.byte	0
 1897 031a 03       		.uleb128 0x3
 1898 031b 30000000 		.4byte	.LASF52
 1899 031f 05       		.byte	0x5
 1900 0320 64       		.byte	0x64
ARM GAS  /var/folders/7z/kps_xzfj7sn5l5gkyq8s9db00000gn/T//cc2C97ap.s 			page 35


 1901 0321 E1020000 		.4byte	0x2e1
 1902 0325 0F       		.uleb128 0xf
 1903 0326 9E030000 		.4byte	.LASF53
 1904 032a 01       		.byte	0x1
 1905 032b D4       		.byte	0xd4
 1906 032c 00000000 		.4byte	.LFB111
 1907 0330 1A000000 		.4byte	.LFE111-.LFB111
 1908 0334 01       		.uleb128 0x1
 1909 0335 9C       		.byte	0x9c
 1910 0336 6B030000 		.4byte	0x36b
 1911 033a 10       		.uleb128 0x10
 1912 033b 0C000000 		.4byte	.LVL0
 1913 033f 780C0000 		.4byte	0xc78
 1914 0343 54030000 		.4byte	0x354
 1915 0347 11       		.uleb128 0x11
 1916 0348 01       		.uleb128 0x1
 1917 0349 51       		.byte	0x51
 1918 034a 01       		.uleb128 0x1
 1919 034b 31       		.byte	0x31
 1920 034c 11       		.uleb128 0x11
 1921 034d 01       		.uleb128 0x1
 1922 034e 50       		.byte	0x50
 1923 034f 03       		.uleb128 0x3
 1924 0350 0A       		.byte	0xa
 1925 0351 0001     		.2byte	0x100
 1926 0353 00       		.byte	0
 1927 0354 12       		.uleb128 0x12
 1928 0355 1A000000 		.4byte	.LVL1
 1929 0359 780C0000 		.4byte	0xc78
 1930 035d 11       		.uleb128 0x11
 1931 035e 01       		.uleb128 0x1
 1932 035f 51       		.byte	0x51
 1933 0360 01       		.uleb128 0x1
 1934 0361 30       		.byte	0x30
 1935 0362 11       		.uleb128 0x11
 1936 0363 01       		.uleb128 0x1
 1937 0364 50       		.byte	0x50
 1938 0365 03       		.uleb128 0x3
 1939 0366 0A       		.byte	0xa
 1940 0367 0001     		.2byte	0x100
 1941 0369 00       		.byte	0
 1942 036a 00       		.byte	0
 1943 036b 0F       		.uleb128 0xf
 1944 036c 5B000000 		.4byte	.LASF54
 1945 0370 01       		.byte	0x1
 1946 0371 EA       		.byte	0xea
 1947 0372 00000000 		.4byte	.LFB112
 1948 0376 50000000 		.4byte	.LFE112-.LFB112
 1949 037a 01       		.uleb128 0x1
 1950 037b 9C       		.byte	0x9c
 1951 037c B9030000 		.4byte	0x3b9
 1952 0380 13       		.uleb128 0x13
 1953 0381 56000000 		.4byte	.LASF55
 1954 0385 01       		.byte	0x1
 1955 0386 EA       		.byte	0xea
 1956 0387 B9030000 		.4byte	0x3b9
 1957 038b 01       		.uleb128 0x1
ARM GAS  /var/folders/7z/kps_xzfj7sn5l5gkyq8s9db00000gn/T//cc2C97ap.s 			page 36


 1958 038c 50       		.byte	0x50
 1959 038d 13       		.uleb128 0x13
 1960 038e EE010000 		.4byte	.LASF56
 1961 0392 01       		.byte	0x1
 1962 0393 EA       		.byte	0xea
 1963 0394 BF030000 		.4byte	0x3bf
 1964 0398 01       		.uleb128 0x1
 1965 0399 51       		.byte	0x51
 1966 039a 14       		.uleb128 0x14
 1967 039b 86030000 		.4byte	.LASF57
 1968 039f 01       		.byte	0x1
 1969 03a0 EC       		.byte	0xec
 1970 03a1 B8000000 		.4byte	0xb8
 1971 03a5 00000000 		.4byte	.LLST0
 1972 03a9 14       		.uleb128 0x14
 1973 03aa 8E030000 		.4byte	.LASF58
 1974 03ae 01       		.byte	0x1
 1975 03af ED       		.byte	0xed
 1976 03b0 97000000 		.4byte	0x97
 1977 03b4 70000000 		.4byte	.LLST1
 1978 03b8 00       		.byte	0
 1979 03b9 15       		.uleb128 0x15
 1980 03ba 04       		.byte	0x4
 1981 03bb 30020000 		.4byte	0x230
 1982 03bf 15       		.uleb128 0x15
 1983 03c0 04       		.byte	0x4
 1984 03c1 D6020000 		.4byte	0x2d6
 1985 03c5 16       		.uleb128 0x16
 1986 03c6 27020000 		.4byte	.LASF59
 1987 03ca 01       		.byte	0x1
 1988 03cb 3501     		.2byte	0x135
 1989 03cd 00000000 		.4byte	.LFB113
 1990 03d1 14000000 		.4byte	.LFE113-.LFB113
 1991 03d5 01       		.uleb128 0x1
 1992 03d6 9C       		.byte	0x9c
 1993 03d7 EA030000 		.4byte	0x3ea
 1994 03db 17       		.uleb128 0x17
 1995 03dc EE010000 		.4byte	.LASF56
 1996 03e0 01       		.byte	0x1
 1997 03e1 3501     		.2byte	0x135
 1998 03e3 BF030000 		.4byte	0x3bf
 1999 03e7 01       		.uleb128 0x1
 2000 03e8 50       		.byte	0x50
 2001 03e9 00       		.byte	0
 2002 03ea 16       		.uleb128 0x16
 2003 03eb 9C070000 		.4byte	.LASF60
 2004 03ef 01       		.byte	0x1
 2005 03f0 5401     		.2byte	0x154
 2006 03f2 00000000 		.4byte	.LFB114
 2007 03f6 28000000 		.4byte	.LFE114-.LFB114
 2008 03fa 01       		.uleb128 0x1
 2009 03fb 9C       		.byte	0x9c
 2010 03fc 21040000 		.4byte	0x421
 2011 0400 18       		.uleb128 0x18
 2012 0401 83050000 		.4byte	.LASF61
 2013 0405 01       		.byte	0x1
 2014 0406 5401     		.2byte	0x154
ARM GAS  /var/folders/7z/kps_xzfj7sn5l5gkyq8s9db00000gn/T//cc2C97ap.s 			page 37


 2015 0408 21040000 		.4byte	0x421
 2016 040c 95000000 		.4byte	.LLST2
 2017 0410 19       		.uleb128 0x19
 2018 0411 86030000 		.4byte	.LASF57
 2019 0415 01       		.byte	0x1
 2020 0416 5601     		.2byte	0x156
 2021 0418 B8000000 		.4byte	0xb8
 2022 041c B6000000 		.4byte	.LLST3
 2023 0420 00       		.byte	0
 2024 0421 15       		.uleb128 0x15
 2025 0422 04       		.byte	0x4
 2026 0423 1A030000 		.4byte	0x31a
 2027 0427 16       		.uleb128 0x16
 2028 0428 4A030000 		.4byte	.LASF62
 2029 042c 01       		.byte	0x1
 2030 042d 7801     		.2byte	0x178
 2031 042f 00000000 		.4byte	.LFB115
 2032 0433 0C000000 		.4byte	.LFE115-.LFB115
 2033 0437 01       		.uleb128 0x1
 2034 0438 9C       		.byte	0x9c
 2035 0439 4C040000 		.4byte	0x44c
 2036 043d 17       		.uleb128 0x17
 2037 043e 83050000 		.4byte	.LASF61
 2038 0442 01       		.byte	0x1
 2039 0443 7801     		.2byte	0x178
 2040 0445 21040000 		.4byte	0x421
 2041 0449 01       		.uleb128 0x1
 2042 044a 50       		.byte	0x50
 2043 044b 00       		.byte	0
 2044 044c 16       		.uleb128 0x16
 2045 044d 42010000 		.4byte	.LASF63
 2046 0451 01       		.byte	0x1
 2047 0452 8E01     		.2byte	0x18e
 2048 0454 00000000 		.4byte	.LFB116
 2049 0458 14000000 		.4byte	.LFE116-.LFB116
 2050 045c 01       		.uleb128 0x1
 2051 045d 9C       		.byte	0x9c
 2052 045e 7F040000 		.4byte	0x47f
 2053 0462 17       		.uleb128 0x17
 2054 0463 56000000 		.4byte	.LASF55
 2055 0467 01       		.byte	0x1
 2056 0468 8E01     		.2byte	0x18e
 2057 046a B9030000 		.4byte	0x3b9
 2058 046e 01       		.uleb128 0x1
 2059 046f 50       		.byte	0x50
 2060 0470 17       		.uleb128 0x17
 2061 0471 00000000 		.4byte	.LASF64
 2062 0475 01       		.byte	0x1
 2063 0476 8E01     		.2byte	0x18e
 2064 0478 18010000 		.4byte	0x118
 2065 047c 01       		.uleb128 0x1
 2066 047d 51       		.byte	0x51
 2067 047e 00       		.byte	0
 2068 047f 16       		.uleb128 0x16
 2069 0480 24080000 		.4byte	.LASF65
 2070 0484 01       		.byte	0x1
 2071 0485 C801     		.2byte	0x1c8
ARM GAS  /var/folders/7z/kps_xzfj7sn5l5gkyq8s9db00000gn/T//cc2C97ap.s 			page 38


 2072 0487 00000000 		.4byte	.LFB117
 2073 048b 10000000 		.4byte	.LFE117-.LFB117
 2074 048f 01       		.uleb128 0x1
 2075 0490 9C       		.byte	0x9c
 2076 0491 C4040000 		.4byte	0x4c4
 2077 0495 17       		.uleb128 0x17
 2078 0496 56000000 		.4byte	.LASF55
 2079 049a 01       		.byte	0x1
 2080 049b C801     		.2byte	0x1c8
 2081 049d B9030000 		.4byte	0x3b9
 2082 04a1 01       		.uleb128 0x1
 2083 04a2 50       		.byte	0x50
 2084 04a3 18       		.uleb128 0x18
 2085 04a4 8A040000 		.4byte	.LASF66
 2086 04a8 01       		.byte	0x1
 2087 04a9 C801     		.2byte	0x1c8
 2088 04ab B8000000 		.4byte	0xb8
 2089 04af E0000000 		.4byte	.LLST4
 2090 04b3 19       		.uleb128 0x19
 2091 04b4 24010000 		.4byte	.LASF67
 2092 04b8 01       		.byte	0x1
 2093 04b9 CA01     		.2byte	0x1ca
 2094 04bb B8000000 		.4byte	0xb8
 2095 04bf 01010000 		.4byte	.LLST5
 2096 04c3 00       		.byte	0
 2097 04c4 16       		.uleb128 0x16
 2098 04c5 C9000000 		.4byte	.LASF68
 2099 04c9 01       		.byte	0x1
 2100 04ca E501     		.2byte	0x1e5
 2101 04cc 00000000 		.4byte	.LFB118
 2102 04d0 06000000 		.4byte	.LFE118-.LFB118
 2103 04d4 01       		.uleb128 0x1
 2104 04d5 9C       		.byte	0x9c
 2105 04d6 05050000 		.4byte	0x505
 2106 04da 17       		.uleb128 0x17
 2107 04db 56000000 		.4byte	.LASF55
 2108 04df 01       		.byte	0x1
 2109 04e0 E501     		.2byte	0x1e5
 2110 04e2 B9030000 		.4byte	0x3b9
 2111 04e6 01       		.uleb128 0x1
 2112 04e7 50       		.byte	0x50
 2113 04e8 17       		.uleb128 0x17
 2114 04e9 78030000 		.4byte	.LASF69
 2115 04ed 01       		.byte	0x1
 2116 04ee E501     		.2byte	0x1e5
 2117 04f0 A2000000 		.4byte	0xa2
 2118 04f4 01       		.uleb128 0x1
 2119 04f5 51       		.byte	0x51
 2120 04f6 17       		.uleb128 0x17
 2121 04f7 5C020000 		.4byte	.LASF70
 2122 04fb 01       		.byte	0x1
 2123 04fc E601     		.2byte	0x1e6
 2124 04fe A2000000 		.4byte	0xa2
 2125 0502 01       		.uleb128 0x1
 2126 0503 52       		.byte	0x52
 2127 0504 00       		.byte	0
 2128 0505 16       		.uleb128 0x16
ARM GAS  /var/folders/7z/kps_xzfj7sn5l5gkyq8s9db00000gn/T//cc2C97ap.s 			page 39


 2129 0506 36020000 		.4byte	.LASF71
 2130 050a 01       		.byte	0x1
 2131 050b 0E02     		.2byte	0x20e
 2132 050d 00000000 		.4byte	.LFB119
 2133 0511 0C000000 		.4byte	.LFE119-.LFB119
 2134 0515 01       		.uleb128 0x1
 2135 0516 9C       		.byte	0x9c
 2136 0517 4A050000 		.4byte	0x54a
 2137 051b 17       		.uleb128 0x17
 2138 051c 56000000 		.4byte	.LASF55
 2139 0520 01       		.byte	0x1
 2140 0521 0E02     		.2byte	0x20e
 2141 0523 B9030000 		.4byte	0x3b9
 2142 0527 01       		.uleb128 0x1
 2143 0528 50       		.byte	0x50
 2144 0529 18       		.uleb128 0x18
 2145 052a 10050000 		.4byte	.LASF72
 2146 052e 01       		.byte	0x1
 2147 052f 0E02     		.2byte	0x20e
 2148 0531 97000000 		.4byte	0x97
 2149 0535 36010000 		.4byte	.LLST6
 2150 0539 19       		.uleb128 0x19
 2151 053a 24010000 		.4byte	.LASF67
 2152 053e 01       		.byte	0x1
 2153 053f 1002     		.2byte	0x210
 2154 0541 B8000000 		.4byte	0xb8
 2155 0545 57010000 		.4byte	.LLST7
 2156 0549 00       		.byte	0
 2157 054a 16       		.uleb128 0x16
 2158 054b EE020000 		.4byte	.LASF73
 2159 054f 01       		.byte	0x1
 2160 0550 4F02     		.2byte	0x24f
 2161 0552 00000000 		.4byte	.LFB120
 2162 0556 1C000000 		.4byte	.LFE120-.LFB120
 2163 055a 01       		.uleb128 0x1
 2164 055b 9C       		.byte	0x9c
 2165 055c 6F050000 		.4byte	0x56f
 2166 0560 17       		.uleb128 0x17
 2167 0561 00000000 		.4byte	.LASF64
 2168 0565 01       		.byte	0x1
 2169 0566 4F02     		.2byte	0x24f
 2170 0568 18010000 		.4byte	0x118
 2171 056c 01       		.uleb128 0x1
 2172 056d 50       		.byte	0x50
 2173 056e 00       		.byte	0
 2174 056f 16       		.uleb128 0x16
 2175 0570 D2080000 		.4byte	.LASF74
 2176 0574 01       		.byte	0x1
 2177 0575 6502     		.2byte	0x265
 2178 0577 00000000 		.4byte	.LFB121
 2179 057b 1C000000 		.4byte	.LFE121-.LFB121
 2180 057f 01       		.uleb128 0x1
 2181 0580 9C       		.byte	0x9c
 2182 0581 94050000 		.4byte	0x594
 2183 0585 17       		.uleb128 0x17
 2184 0586 00000000 		.4byte	.LASF64
 2185 058a 01       		.byte	0x1
ARM GAS  /var/folders/7z/kps_xzfj7sn5l5gkyq8s9db00000gn/T//cc2C97ap.s 			page 40


 2186 058b 6502     		.2byte	0x265
 2187 058d 18010000 		.4byte	0x118
 2188 0591 01       		.uleb128 0x1
 2189 0592 50       		.byte	0x50
 2190 0593 00       		.byte	0
 2191 0594 16       		.uleb128 0x16
 2192 0595 5F030000 		.4byte	.LASF75
 2193 0599 01       		.byte	0x1
 2194 059a CA02     		.2byte	0x2ca
 2195 059c 00000000 		.4byte	.LFB122
 2196 05a0 8C000000 		.4byte	.LFE122-.LFB122
 2197 05a4 01       		.uleb128 0x1
 2198 05a5 9C       		.byte	0x9c
 2199 05a6 09060000 		.4byte	0x609
 2200 05aa 17       		.uleb128 0x17
 2201 05ab 56000000 		.4byte	.LASF55
 2202 05af 01       		.byte	0x1
 2203 05b0 CA02     		.2byte	0x2ca
 2204 05b2 B9030000 		.4byte	0x3b9
 2205 05b6 01       		.uleb128 0x1
 2206 05b7 50       		.byte	0x50
 2207 05b8 18       		.uleb128 0x18
 2208 05b9 10050000 		.4byte	.LASF72
 2209 05bd 01       		.byte	0x1
 2210 05be CA02     		.2byte	0x2ca
 2211 05c0 97000000 		.4byte	0x97
 2212 05c4 81010000 		.4byte	.LLST8
 2213 05c8 18       		.uleb128 0x18
 2214 05c9 0B050000 		.4byte	.LASF76
 2215 05cd 01       		.byte	0x1
 2216 05ce CA02     		.2byte	0x2ca
 2217 05d0 97000000 		.4byte	0x97
 2218 05d4 D4010000 		.4byte	.LLST9
 2219 05d8 18       		.uleb128 0x18
 2220 05d9 A3040000 		.4byte	.LASF77
 2221 05dd 01       		.byte	0x1
 2222 05de CA02     		.2byte	0x2ca
 2223 05e0 97000000 		.4byte	0x97
 2224 05e4 27020000 		.4byte	.LLST10
 2225 05e8 19       		.uleb128 0x19
 2226 05e9 86030000 		.4byte	.LASF57
 2227 05ed 01       		.byte	0x1
 2228 05ee CC02     		.2byte	0x2cc
 2229 05f0 B8000000 		.4byte	0xb8
 2230 05f4 61020000 		.4byte	.LLST11
 2231 05f8 19       		.uleb128 0x19
 2232 05f9 8E030000 		.4byte	.LASF58
 2233 05fd 01       		.byte	0x1
 2234 05fe CC02     		.2byte	0x2cc
 2235 0600 B8000000 		.4byte	0xb8
 2236 0604 31030000 		.4byte	.LLST12
 2237 0608 00       		.byte	0
 2238 0609 16       		.uleb128 0x16
 2239 060a A7080000 		.4byte	.LASF78
 2240 060e 01       		.byte	0x1
 2241 060f 4203     		.2byte	0x342
 2242 0611 00000000 		.4byte	.LFB123
ARM GAS  /var/folders/7z/kps_xzfj7sn5l5gkyq8s9db00000gn/T//cc2C97ap.s 			page 41


 2243 0615 0A000000 		.4byte	.LFE123-.LFB123
 2244 0619 01       		.uleb128 0x1
 2245 061a 9C       		.byte	0x9c
 2246 061b 2E060000 		.4byte	0x62e
 2247 061f 17       		.uleb128 0x17
 2248 0620 56000000 		.4byte	.LASF55
 2249 0624 01       		.byte	0x1
 2250 0625 4203     		.2byte	0x342
 2251 0627 B9030000 		.4byte	0x3b9
 2252 062b 01       		.uleb128 0x1
 2253 062c 50       		.byte	0x50
 2254 062d 00       		.byte	0
 2255 062e 1A       		.uleb128 0x1a
 2256 062f C2070000 		.4byte	.LASF85
 2257 0633 01       		.byte	0x1
 2258 0634 5003     		.2byte	0x350
 2259 0636 EA000000 		.4byte	0xea
 2260 063a 00000000 		.4byte	.LFB124
 2261 063e 08000000 		.4byte	.LFE124-.LFB124
 2262 0642 01       		.uleb128 0x1
 2263 0643 9C       		.byte	0x9c
 2264 0644 69060000 		.4byte	0x669
 2265 0648 18       		.uleb128 0x18
 2266 0649 56000000 		.4byte	.LASF55
 2267 064d 01       		.byte	0x1
 2268 064e 5003     		.2byte	0x350
 2269 0650 B9030000 		.4byte	0x3b9
 2270 0654 0C040000 		.4byte	.LLST13
 2271 0658 19       		.uleb128 0x19
 2272 0659 6F080000 		.4byte	.LASF79
 2273 065d 01       		.byte	0x1
 2274 065e 5203     		.2byte	0x352
 2275 0660 EA000000 		.4byte	0xea
 2276 0664 2D040000 		.4byte	.LLST14
 2277 0668 00       		.byte	0
 2278 0669 16       		.uleb128 0x16
 2279 066a 64070000 		.4byte	.LASF80
 2280 066e 01       		.byte	0x1
 2281 066f 6E03     		.2byte	0x36e
 2282 0671 00000000 		.4byte	.LFB125
 2283 0675 14000000 		.4byte	.LFE125-.LFB125
 2284 0679 01       		.uleb128 0x1
 2285 067a 9C       		.byte	0x9c
 2286 067b 9C060000 		.4byte	0x69c
 2287 067f 17       		.uleb128 0x17
 2288 0680 56000000 		.4byte	.LASF55
 2289 0684 01       		.byte	0x1
 2290 0685 6E03     		.2byte	0x36e
 2291 0687 B9030000 		.4byte	0x3b9
 2292 068b 01       		.uleb128 0x1
 2293 068c 50       		.byte	0x50
 2294 068d 17       		.uleb128 0x17
 2295 068e 00000000 		.4byte	.LASF64
 2296 0692 01       		.byte	0x1
 2297 0693 6E03     		.2byte	0x36e
 2298 0695 18010000 		.4byte	0x118
 2299 0699 01       		.uleb128 0x1
ARM GAS  /var/folders/7z/kps_xzfj7sn5l5gkyq8s9db00000gn/T//cc2C97ap.s 			page 42


 2300 069a 51       		.byte	0x51
 2301 069b 00       		.byte	0
 2302 069c 16       		.uleb128 0x16
 2303 069d A9030000 		.4byte	.LASF81
 2304 06a1 01       		.byte	0x1
 2305 06a2 8703     		.2byte	0x387
 2306 06a4 00000000 		.4byte	.LFB126
 2307 06a8 14000000 		.4byte	.LFE126-.LFB126
 2308 06ac 01       		.uleb128 0x1
 2309 06ad 9C       		.byte	0x9c
 2310 06ae CF060000 		.4byte	0x6cf
 2311 06b2 17       		.uleb128 0x17
 2312 06b3 56000000 		.4byte	.LASF55
 2313 06b7 01       		.byte	0x1
 2314 06b8 8703     		.2byte	0x387
 2315 06ba B9030000 		.4byte	0x3b9
 2316 06be 01       		.uleb128 0x1
 2317 06bf 50       		.byte	0x50
 2318 06c0 17       		.uleb128 0x17
 2319 06c1 00000000 		.4byte	.LASF64
 2320 06c5 01       		.byte	0x1
 2321 06c6 8703     		.2byte	0x387
 2322 06c8 18010000 		.4byte	0x118
 2323 06cc 01       		.uleb128 0x1
 2324 06cd 51       		.byte	0x51
 2325 06ce 00       		.byte	0
 2326 06cf 16       		.uleb128 0x16
 2327 06d0 08020000 		.4byte	.LASF82
 2328 06d4 01       		.byte	0x1
 2329 06d5 A103     		.2byte	0x3a1
 2330 06d7 00000000 		.4byte	.LFB127
 2331 06db 10000000 		.4byte	.LFE127-.LFB127
 2332 06df 01       		.uleb128 0x1
 2333 06e0 9C       		.byte	0x9c
 2334 06e1 24070000 		.4byte	0x724
 2335 06e5 17       		.uleb128 0x17
 2336 06e6 56000000 		.4byte	.LASF55
 2337 06ea 01       		.byte	0x1
 2338 06eb A103     		.2byte	0x3a1
 2339 06ed B9030000 		.4byte	0x3b9
 2340 06f1 01       		.uleb128 0x1
 2341 06f2 50       		.byte	0x50
 2342 06f3 18       		.uleb128 0x18
 2343 06f4 00040000 		.4byte	.LASF83
 2344 06f8 01       		.byte	0x1
 2345 06f9 A103     		.2byte	0x3a1
 2346 06fb 97000000 		.4byte	0x97
 2347 06ff 54040000 		.4byte	.LLST15
 2348 0703 19       		.uleb128 0x19
 2349 0704 86030000 		.4byte	.LASF57
 2350 0708 01       		.byte	0x1
 2351 0709 A303     		.2byte	0x3a3
 2352 070b B8000000 		.4byte	0xb8
 2353 070f 75040000 		.4byte	.LLST16
 2354 0713 19       		.uleb128 0x19
 2355 0714 8E030000 		.4byte	.LASF58
 2356 0718 01       		.byte	0x1
ARM GAS  /var/folders/7z/kps_xzfj7sn5l5gkyq8s9db00000gn/T//cc2C97ap.s 			page 43


 2357 0719 A403     		.2byte	0x3a4
 2358 071b B8000000 		.4byte	0xb8
 2359 071f 9F040000 		.4byte	.LLST17
 2360 0723 00       		.byte	0
 2361 0724 16       		.uleb128 0x16
 2362 0725 14080000 		.4byte	.LASF84
 2363 0729 01       		.byte	0x1
 2364 072a C103     		.2byte	0x3c1
 2365 072c 00000000 		.4byte	.LFB128
 2366 0730 14000000 		.4byte	.LFE128-.LFB128
 2367 0734 01       		.uleb128 0x1
 2368 0735 9C       		.byte	0x9c
 2369 0736 57070000 		.4byte	0x757
 2370 073a 17       		.uleb128 0x17
 2371 073b 56000000 		.4byte	.LASF55
 2372 073f 01       		.byte	0x1
 2373 0740 C103     		.2byte	0x3c1
 2374 0742 B9030000 		.4byte	0x3b9
 2375 0746 01       		.uleb128 0x1
 2376 0747 50       		.byte	0x50
 2377 0748 17       		.uleb128 0x17
 2378 0749 00000000 		.4byte	.LASF64
 2379 074d 01       		.byte	0x1
 2380 074e C103     		.2byte	0x3c1
 2381 0750 18010000 		.4byte	0x118
 2382 0754 01       		.uleb128 0x1
 2383 0755 51       		.byte	0x51
 2384 0756 00       		.byte	0
 2385 0757 1A       		.uleb128 0x1a
 2386 0758 2B010000 		.4byte	.LASF86
 2387 075c 01       		.byte	0x1
 2388 075d D803     		.2byte	0x3d8
 2389 075f A2000000 		.4byte	0xa2
 2390 0763 00000000 		.4byte	.LFB129
 2391 0767 06000000 		.4byte	.LFE129-.LFB129
 2392 076b 01       		.uleb128 0x1
 2393 076c 9C       		.byte	0x9c
 2394 076d 82070000 		.4byte	0x782
 2395 0771 18       		.uleb128 0x18
 2396 0772 56000000 		.4byte	.LASF55
 2397 0776 01       		.byte	0x1
 2398 0777 D803     		.2byte	0x3d8
 2399 0779 B9030000 		.4byte	0x3b9
 2400 077d C6040000 		.4byte	.LLST18
 2401 0781 00       		.byte	0
 2402 0782 1B       		.uleb128 0x1b
 2403 0783 07040000 		.4byte	.LASF118
 2404 0787 01       		.byte	0x1
 2405 0788 ED03     		.2byte	0x3ed
 2406 078a B8000000 		.4byte	0xb8
 2407 078e 00000000 		.4byte	.LFB130
 2408 0792 0C000000 		.4byte	.LFE130-.LFB130
 2409 0796 01       		.uleb128 0x1
 2410 0797 9C       		.byte	0x9c
 2411 0798 16       		.uleb128 0x16
 2412 0799 30040000 		.4byte	.LASF87
 2413 079d 01       		.byte	0x1
ARM GAS  /var/folders/7z/kps_xzfj7sn5l5gkyq8s9db00000gn/T//cc2C97ap.s 			page 44


 2414 079e 1E04     		.2byte	0x41e
 2415 07a0 00000000 		.4byte	.LFB131
 2416 07a4 14000000 		.4byte	.LFE131-.LFB131
 2417 07a8 01       		.uleb128 0x1
 2418 07a9 9C       		.byte	0x9c
 2419 07aa CB070000 		.4byte	0x7cb
 2420 07ae 17       		.uleb128 0x17
 2421 07af 56000000 		.4byte	.LASF55
 2422 07b3 01       		.byte	0x1
 2423 07b4 1E04     		.2byte	0x41e
 2424 07b6 B9030000 		.4byte	0x3b9
 2425 07ba 01       		.uleb128 0x1
 2426 07bb 50       		.byte	0x50
 2427 07bc 17       		.uleb128 0x17
 2428 07bd 00000000 		.4byte	.LASF64
 2429 07c1 01       		.byte	0x1
 2430 07c2 1E04     		.2byte	0x41e
 2431 07c4 18010000 		.4byte	0x118
 2432 07c8 01       		.uleb128 0x1
 2433 07c9 51       		.byte	0x51
 2434 07ca 00       		.byte	0
 2435 07cb 16       		.uleb128 0x16
 2436 07cc 73010000 		.4byte	.LASF88
 2437 07d0 01       		.byte	0x1
 2438 07d1 3604     		.2byte	0x436
 2439 07d3 00000000 		.4byte	.LFB132
 2440 07d7 14000000 		.4byte	.LFE132-.LFB132
 2441 07db 01       		.uleb128 0x1
 2442 07dc 9C       		.byte	0x9c
 2443 07dd FE070000 		.4byte	0x7fe
 2444 07e1 17       		.uleb128 0x17
 2445 07e2 56000000 		.4byte	.LASF55
 2446 07e6 01       		.byte	0x1
 2447 07e7 3604     		.2byte	0x436
 2448 07e9 B9030000 		.4byte	0x3b9
 2449 07ed 01       		.uleb128 0x1
 2450 07ee 50       		.byte	0x50
 2451 07ef 17       		.uleb128 0x17
 2452 07f0 00000000 		.4byte	.LASF64
 2453 07f4 01       		.byte	0x1
 2454 07f5 3604     		.2byte	0x436
 2455 07f7 18010000 		.4byte	0x118
 2456 07fb 01       		.uleb128 0x1
 2457 07fc 51       		.byte	0x51
 2458 07fd 00       		.byte	0
 2459 07fe 16       		.uleb128 0x16
 2460 07ff E1070000 		.4byte	.LASF89
 2461 0803 01       		.byte	0x1
 2462 0804 5104     		.2byte	0x451
 2463 0806 00000000 		.4byte	.LFB133
 2464 080a 1C000000 		.4byte	.LFE133-.LFB133
 2465 080e 01       		.uleb128 0x1
 2466 080f 9C       		.byte	0x9c
 2467 0810 23080000 		.4byte	0x823
 2468 0814 17       		.uleb128 0x17
 2469 0815 00000000 		.4byte	.LASF64
 2470 0819 01       		.byte	0x1
ARM GAS  /var/folders/7z/kps_xzfj7sn5l5gkyq8s9db00000gn/T//cc2C97ap.s 			page 45


 2471 081a 5104     		.2byte	0x451
 2472 081c 18010000 		.4byte	0x118
 2473 0820 01       		.uleb128 0x1
 2474 0821 50       		.byte	0x50
 2475 0822 00       		.byte	0
 2476 0823 16       		.uleb128 0x16
 2477 0824 0A010000 		.4byte	.LASF90
 2478 0828 01       		.byte	0x1
 2479 0829 A804     		.2byte	0x4a8
 2480 082b 00000000 		.4byte	.LFB134
 2481 082f 56000000 		.4byte	.LFE134-.LFB134
 2482 0833 01       		.uleb128 0x1
 2483 0834 9C       		.byte	0x9c
 2484 0835 A8080000 		.4byte	0x8a8
 2485 0839 17       		.uleb128 0x17
 2486 083a 56000000 		.4byte	.LASF55
 2487 083e 01       		.byte	0x1
 2488 083f A804     		.2byte	0x4a8
 2489 0841 B9030000 		.4byte	0x3b9
 2490 0845 01       		.uleb128 0x1
 2491 0846 50       		.byte	0x50
 2492 0847 18       		.uleb128 0x18
 2493 0848 10050000 		.4byte	.LASF72
 2494 084c 01       		.byte	0x1
 2495 084d A804     		.2byte	0x4a8
 2496 084f 97000000 		.4byte	0x97
 2497 0853 E7040000 		.4byte	.LLST19
 2498 0857 18       		.uleb128 0x18
 2499 0858 0B050000 		.4byte	.LASF76
 2500 085c 01       		.byte	0x1
 2501 085d A804     		.2byte	0x4a8
 2502 085f 97000000 		.4byte	0x97
 2503 0863 13050000 		.4byte	.LLST20
 2504 0867 18       		.uleb128 0x18
 2505 0868 A3040000 		.4byte	.LASF77
 2506 086c 01       		.byte	0x1
 2507 086d A804     		.2byte	0x4a8
 2508 086f 97000000 		.4byte	0x97
 2509 0873 3F050000 		.4byte	.LLST21
 2510 0877 19       		.uleb128 0x19
 2511 0878 86030000 		.4byte	.LASF57
 2512 087c 01       		.byte	0x1
 2513 087d AA04     		.2byte	0x4aa
 2514 087f B8000000 		.4byte	0xb8
 2515 0883 79050000 		.4byte	.LLST22
 2516 0887 19       		.uleb128 0x19
 2517 0888 8E030000 		.4byte	.LASF58
 2518 088c 01       		.byte	0x1
 2519 088d AA04     		.2byte	0x4aa
 2520 088f B8000000 		.4byte	0xb8
 2521 0893 E6050000 		.4byte	.LLST23
 2522 0897 19       		.uleb128 0x19
 2523 0898 96030000 		.4byte	.LASF91
 2524 089c 01       		.byte	0x1
 2525 089d AA04     		.2byte	0x4aa
 2526 089f B8000000 		.4byte	0xb8
 2527 08a3 67060000 		.4byte	.LLST24
ARM GAS  /var/folders/7z/kps_xzfj7sn5l5gkyq8s9db00000gn/T//cc2C97ap.s 			page 46


 2528 08a7 00       		.byte	0
 2529 08a8 16       		.uleb128 0x16
 2530 08a9 68040000 		.4byte	.LASF92
 2531 08ad 01       		.byte	0x1
 2532 08ae E704     		.2byte	0x4e7
 2533 08b0 00000000 		.4byte	.LFB135
 2534 08b4 10000000 		.4byte	.LFE135-.LFB135
 2535 08b8 01       		.uleb128 0x1
 2536 08b9 9C       		.byte	0x9c
 2537 08ba FD080000 		.4byte	0x8fd
 2538 08be 17       		.uleb128 0x17
 2539 08bf 56000000 		.4byte	.LASF55
 2540 08c3 01       		.byte	0x1
 2541 08c4 E704     		.2byte	0x4e7
 2542 08c6 B9030000 		.4byte	0x3b9
 2543 08ca 01       		.uleb128 0x1
 2544 08cb 50       		.byte	0x50
 2545 08cc 18       		.uleb128 0x18
 2546 08cd 0D080000 		.4byte	.LASF93
 2547 08d1 01       		.byte	0x1
 2548 08d2 E704     		.2byte	0x4e7
 2549 08d4 97000000 		.4byte	0x97
 2550 08d8 9A060000 		.4byte	.LLST25
 2551 08dc 19       		.uleb128 0x19
 2552 08dd 86030000 		.4byte	.LASF57
 2553 08e1 01       		.byte	0x1
 2554 08e2 E904     		.2byte	0x4e9
 2555 08e4 B8000000 		.4byte	0xb8
 2556 08e8 BB060000 		.4byte	.LLST26
 2557 08ec 19       		.uleb128 0x19
 2558 08ed 8E030000 		.4byte	.LASF58
 2559 08f1 01       		.byte	0x1
 2560 08f2 EA04     		.2byte	0x4ea
 2561 08f4 B8000000 		.4byte	0xb8
 2562 08f8 E5060000 		.4byte	.LLST27
 2563 08fc 00       		.byte	0
 2564 08fd 16       		.uleb128 0x16
 2565 08fe C9040000 		.4byte	.LASF94
 2566 0902 01       		.byte	0x1
 2567 0903 0A05     		.2byte	0x50a
 2568 0905 00000000 		.4byte	.LFB136
 2569 0909 16000000 		.4byte	.LFE136-.LFB136
 2570 090d 01       		.uleb128 0x1
 2571 090e 9C       		.byte	0x9c
 2572 090f 4F090000 		.4byte	0x94f
 2573 0913 17       		.uleb128 0x17
 2574 0914 56000000 		.4byte	.LASF55
 2575 0918 01       		.byte	0x1
 2576 0919 0A05     		.2byte	0x50a
 2577 091b B9030000 		.4byte	0x3b9
 2578 091f 01       		.uleb128 0x1
 2579 0920 50       		.byte	0x50
 2580 0921 18       		.uleb128 0x18
 2581 0922 22050000 		.4byte	.LASF95
 2582 0926 01       		.byte	0x1
 2583 0927 0A05     		.2byte	0x50a
 2584 0929 97000000 		.4byte	0x97
ARM GAS  /var/folders/7z/kps_xzfj7sn5l5gkyq8s9db00000gn/T//cc2C97ap.s 			page 47


 2585 092d 0C070000 		.4byte	.LLST28
 2586 0931 17       		.uleb128 0x17
 2587 0932 3A080000 		.4byte	.LASF96
 2588 0936 01       		.byte	0x1
 2589 0937 0A05     		.2byte	0x50a
 2590 0939 A2000000 		.4byte	0xa2
 2591 093d 01       		.uleb128 0x1
 2592 093e 52       		.byte	0x52
 2593 093f 1C       		.uleb128 0x1c
 2594 0940 746D7000 		.ascii	"tmp\000"
 2595 0944 01       		.byte	0x1
 2596 0945 0C05     		.2byte	0x50c
 2597 0947 CA000000 		.4byte	0xca
 2598 094b 02       		.uleb128 0x2
 2599 094c 91       		.byte	0x91
 2600 094d 7C       		.sleb128 -4
 2601 094e 00       		.byte	0
 2602 094f 16       		.uleb128 0x16
 2603 0950 60050000 		.4byte	.LASF97
 2604 0954 01       		.byte	0x1
 2605 0955 3005     		.2byte	0x530
 2606 0957 00000000 		.4byte	.LFB137
 2607 095b 0C000000 		.4byte	.LFE137-.LFB137
 2608 095f 01       		.uleb128 0x1
 2609 0960 9C       		.byte	0x9c
 2610 0961 94090000 		.4byte	0x994
 2611 0965 17       		.uleb128 0x17
 2612 0966 56000000 		.4byte	.LASF55
 2613 096a 01       		.byte	0x1
 2614 096b 3005     		.2byte	0x530
 2615 096d B9030000 		.4byte	0x3b9
 2616 0971 01       		.uleb128 0x1
 2617 0972 50       		.byte	0x50
 2618 0973 18       		.uleb128 0x18
 2619 0974 4E040000 		.4byte	.LASF98
 2620 0978 01       		.byte	0x1
 2621 0979 3005     		.2byte	0x530
 2622 097b B8000000 		.4byte	0xb8
 2623 097f 2D070000 		.4byte	.LLST29
 2624 0983 19       		.uleb128 0x19
 2625 0984 24010000 		.4byte	.LASF67
 2626 0988 01       		.byte	0x1
 2627 0989 3205     		.2byte	0x532
 2628 098b B8000000 		.4byte	0xb8
 2629 098f 4E070000 		.4byte	.LLST30
 2630 0993 00       		.byte	0
 2631 0994 16       		.uleb128 0x16
 2632 0995 D9030000 		.4byte	.LASF99
 2633 0999 01       		.byte	0x1
 2634 099a 5205     		.2byte	0x552
 2635 099c 00000000 		.4byte	.LFB138
 2636 09a0 0C000000 		.4byte	.LFE138-.LFB138
 2637 09a4 01       		.uleb128 0x1
 2638 09a5 9C       		.byte	0x9c
 2639 09a6 D9090000 		.4byte	0x9d9
 2640 09aa 17       		.uleb128 0x17
 2641 09ab 56000000 		.4byte	.LASF55
ARM GAS  /var/folders/7z/kps_xzfj7sn5l5gkyq8s9db00000gn/T//cc2C97ap.s 			page 48


 2642 09af 01       		.byte	0x1
 2643 09b0 5205     		.2byte	0x552
 2644 09b2 B9030000 		.4byte	0x3b9
 2645 09b6 01       		.uleb128 0x1
 2646 09b7 50       		.byte	0x50
 2647 09b8 18       		.uleb128 0x18
 2648 09b9 EC000000 		.4byte	.LASF100
 2649 09bd 01       		.byte	0x1
 2650 09be 5205     		.2byte	0x552
 2651 09c0 B8000000 		.4byte	0xb8
 2652 09c4 78070000 		.4byte	.LLST31
 2653 09c8 19       		.uleb128 0x19
 2654 09c9 24010000 		.4byte	.LASF67
 2655 09cd 01       		.byte	0x1
 2656 09ce 5405     		.2byte	0x554
 2657 09d0 B8000000 		.4byte	0xb8
 2658 09d4 99070000 		.4byte	.LLST32
 2659 09d8 00       		.byte	0
 2660 09d9 16       		.uleb128 0x16
 2661 09da 19030000 		.4byte	.LASF101
 2662 09de 01       		.byte	0x1
 2663 09df 6705     		.2byte	0x567
 2664 09e1 00000000 		.4byte	.LFB139
 2665 09e5 0A000000 		.4byte	.LFE139-.LFB139
 2666 09e9 01       		.uleb128 0x1
 2667 09ea 9C       		.byte	0x9c
 2668 09eb FE090000 		.4byte	0x9fe
 2669 09ef 17       		.uleb128 0x17
 2670 09f0 56000000 		.4byte	.LASF55
 2671 09f4 01       		.byte	0x1
 2672 09f5 6705     		.2byte	0x567
 2673 09f7 B9030000 		.4byte	0x3b9
 2674 09fb 01       		.uleb128 0x1
 2675 09fc 50       		.byte	0x50
 2676 09fd 00       		.byte	0
 2677 09fe 1A       		.uleb128 0x1a
 2678 09ff 36050000 		.4byte	.LASF102
 2679 0a03 01       		.byte	0x1
 2680 0a04 7405     		.2byte	0x574
 2681 0a06 EA000000 		.4byte	0xea
 2682 0a0a 00000000 		.4byte	.LFB140
 2683 0a0e 08000000 		.4byte	.LFE140-.LFB140
 2684 0a12 01       		.uleb128 0x1
 2685 0a13 9C       		.byte	0x9c
 2686 0a14 390A0000 		.4byte	0xa39
 2687 0a18 18       		.uleb128 0x18
 2688 0a19 56000000 		.4byte	.LASF55
 2689 0a1d 01       		.byte	0x1
 2690 0a1e 7405     		.2byte	0x574
 2691 0a20 B9030000 		.4byte	0x3b9
 2692 0a24 C3070000 		.4byte	.LLST33
 2693 0a28 19       		.uleb128 0x19
 2694 0a29 6F080000 		.4byte	.LASF79
 2695 0a2d 01       		.byte	0x1
 2696 0a2e 7605     		.2byte	0x576
 2697 0a30 EA000000 		.4byte	0xea
 2698 0a34 E4070000 		.4byte	.LLST34
ARM GAS  /var/folders/7z/kps_xzfj7sn5l5gkyq8s9db00000gn/T//cc2C97ap.s 			page 49


 2699 0a38 00       		.byte	0
 2700 0a39 16       		.uleb128 0x16
 2701 0a3a 4C070000 		.4byte	.LASF103
 2702 0a3e 01       		.byte	0x1
 2703 0a3f 9105     		.2byte	0x591
 2704 0a41 00000000 		.4byte	.LFB141
 2705 0a45 14000000 		.4byte	.LFE141-.LFB141
 2706 0a49 01       		.uleb128 0x1
 2707 0a4a 9C       		.byte	0x9c
 2708 0a4b 6C0A0000 		.4byte	0xa6c
 2709 0a4f 17       		.uleb128 0x17
 2710 0a50 56000000 		.4byte	.LASF55
 2711 0a54 01       		.byte	0x1
 2712 0a55 9105     		.2byte	0x591
 2713 0a57 B9030000 		.4byte	0x3b9
 2714 0a5b 01       		.uleb128 0x1
 2715 0a5c 50       		.byte	0x50
 2716 0a5d 17       		.uleb128 0x17
 2717 0a5e 00000000 		.4byte	.LASF64
 2718 0a62 01       		.byte	0x1
 2719 0a63 9105     		.2byte	0x591
 2720 0a65 18010000 		.4byte	0x118
 2721 0a69 01       		.uleb128 0x1
 2722 0a6a 51       		.byte	0x51
 2723 0a6b 00       		.byte	0
 2724 0a6c 16       		.uleb128 0x16
 2725 0a6d AA020000 		.4byte	.LASF104
 2726 0a71 01       		.byte	0x1
 2727 0a72 AB05     		.2byte	0x5ab
 2728 0a74 00000000 		.4byte	.LFB142
 2729 0a78 14000000 		.4byte	.LFE142-.LFB142
 2730 0a7c 01       		.uleb128 0x1
 2731 0a7d 9C       		.byte	0x9c
 2732 0a7e 9F0A0000 		.4byte	0xa9f
 2733 0a82 17       		.uleb128 0x17
 2734 0a83 56000000 		.4byte	.LASF55
 2735 0a87 01       		.byte	0x1
 2736 0a88 AB05     		.2byte	0x5ab
 2737 0a8a B9030000 		.4byte	0x3b9
 2738 0a8e 01       		.uleb128 0x1
 2739 0a8f 50       		.byte	0x50
 2740 0a90 17       		.uleb128 0x17
 2741 0a91 00000000 		.4byte	.LASF64
 2742 0a95 01       		.byte	0x1
 2743 0a96 AB05     		.2byte	0x5ab
 2744 0a98 18010000 		.4byte	0x118
 2745 0a9c 01       		.uleb128 0x1
 2746 0a9d 51       		.byte	0x51
 2747 0a9e 00       		.byte	0
 2748 0a9f 1A       		.uleb128 0x1a
 2749 0aa0 88080000 		.4byte	.LASF105
 2750 0aa4 01       		.byte	0x1
 2751 0aa5 C705     		.2byte	0x5c7
 2752 0aa7 A2000000 		.4byte	0xa2
 2753 0aab 00000000 		.4byte	.LFB143
 2754 0aaf 1A000000 		.4byte	.LFE143-.LFB143
 2755 0ab3 01       		.uleb128 0x1
ARM GAS  /var/folders/7z/kps_xzfj7sn5l5gkyq8s9db00000gn/T//cc2C97ap.s 			page 50


 2756 0ab4 9C       		.byte	0x9c
 2757 0ab5 E90A0000 		.4byte	0xae9
 2758 0ab9 18       		.uleb128 0x18
 2759 0aba 56000000 		.4byte	.LASF55
 2760 0abe 01       		.byte	0x1
 2761 0abf C705     		.2byte	0x5c7
 2762 0ac1 B9030000 		.4byte	0x3b9
 2763 0ac5 0B080000 		.4byte	.LLST35
 2764 0ac9 18       		.uleb128 0x18
 2765 0aca 22050000 		.4byte	.LASF95
 2766 0ace 01       		.byte	0x1
 2767 0acf C705     		.2byte	0x5c7
 2768 0ad1 97000000 		.4byte	0x97
 2769 0ad5 2C080000 		.4byte	.LLST36
 2770 0ad9 1C       		.uleb128 0x1c
 2771 0ada 746D7000 		.ascii	"tmp\000"
 2772 0ade 01       		.byte	0x1
 2773 0adf C905     		.2byte	0x5c9
 2774 0ae1 CA000000 		.4byte	0xca
 2775 0ae5 02       		.uleb128 0x2
 2776 0ae6 91       		.byte	0x91
 2777 0ae7 7C       		.sleb128 -4
 2778 0ae8 00       		.byte	0
 2779 0ae9 16       		.uleb128 0x16
 2780 0aea CF020000 		.4byte	.LASF106
 2781 0aee 01       		.byte	0x1
 2782 0aef 3306     		.2byte	0x633
 2783 0af1 00000000 		.4byte	.LFB144
 2784 0af5 1A000000 		.4byte	.LFE144-.LFB144
 2785 0af9 01       		.uleb128 0x1
 2786 0afa 9C       		.byte	0x9c
 2787 0afb 3E0B0000 		.4byte	0xb3e
 2788 0aff 17       		.uleb128 0x17
 2789 0b00 56000000 		.4byte	.LASF55
 2790 0b04 01       		.byte	0x1
 2791 0b05 3306     		.2byte	0x633
 2792 0b07 B9030000 		.4byte	0x3b9
 2793 0b0b 01       		.uleb128 0x1
 2794 0b0c 50       		.byte	0x50
 2795 0b0d 18       		.uleb128 0x18
 2796 0b0e 09000000 		.4byte	.LASF107
 2797 0b12 01       		.byte	0x1
 2798 0b13 3306     		.2byte	0x633
 2799 0b15 A2000000 		.4byte	0xa2
 2800 0b19 4D080000 		.4byte	.LLST37
 2801 0b1d 18       		.uleb128 0x18
 2802 0b1e 00000000 		.4byte	.LASF64
 2803 0b22 01       		.byte	0x1
 2804 0b23 3306     		.2byte	0x633
 2805 0b25 18010000 		.4byte	0x118
 2806 0b29 6E080000 		.4byte	.LLST38
 2807 0b2d 19       		.uleb128 0x19
 2808 0b2e EE040000 		.4byte	.LASF108
 2809 0b32 01       		.byte	0x1
 2810 0b33 3506     		.2byte	0x635
 2811 0b35 B8000000 		.4byte	0xb8
 2812 0b39 A8080000 		.4byte	.LLST39
ARM GAS  /var/folders/7z/kps_xzfj7sn5l5gkyq8s9db00000gn/T//cc2C97ap.s 			page 51


 2813 0b3d 00       		.byte	0
 2814 0b3e 1A       		.uleb128 0x1a
 2815 0b3f 49080000 		.4byte	.LASF109
 2816 0b43 01       		.byte	0x1
 2817 0b44 5806     		.2byte	0x658
 2818 0b46 EA000000 		.4byte	0xea
 2819 0b4a 00000000 		.4byte	.LFB145
 2820 0b4e 0C000000 		.4byte	.LFE145-.LFB145
 2821 0b52 01       		.uleb128 0x1
 2822 0b53 9C       		.byte	0x9c
 2823 0b54 870B0000 		.4byte	0xb87
 2824 0b58 18       		.uleb128 0x18
 2825 0b59 56000000 		.4byte	.LASF55
 2826 0b5d 01       		.byte	0x1
 2827 0b5e 5806     		.2byte	0x658
 2828 0b60 B9030000 		.4byte	0x3b9
 2829 0b64 FF080000 		.4byte	.LLST40
 2830 0b68 17       		.uleb128 0x17
 2831 0b69 6A010000 		.4byte	.LASF110
 2832 0b6d 01       		.byte	0x1
 2833 0b6e 5806     		.2byte	0x658
 2834 0b70 97000000 		.4byte	0x97
 2835 0b74 01       		.uleb128 0x1
 2836 0b75 51       		.byte	0x51
 2837 0b76 19       		.uleb128 0x19
 2838 0b77 6F080000 		.4byte	.LASF79
 2839 0b7b 01       		.byte	0x1
 2840 0b7c 5A06     		.2byte	0x65a
 2841 0b7e EA000000 		.4byte	0xea
 2842 0b82 20090000 		.4byte	.LLST41
 2843 0b86 00       		.byte	0
 2844 0b87 16       		.uleb128 0x16
 2845 0b88 BF030000 		.4byte	.LASF111
 2846 0b8c 01       		.byte	0x1
 2847 0b8d 7B06     		.2byte	0x67b
 2848 0b8f 00000000 		.4byte	.LFB146
 2849 0b93 06000000 		.4byte	.LFE146-.LFB146
 2850 0b97 01       		.uleb128 0x1
 2851 0b98 9C       		.byte	0x9c
 2852 0b99 BC0B0000 		.4byte	0xbbc
 2853 0b9d 17       		.uleb128 0x17
 2854 0b9e 56000000 		.4byte	.LASF55
 2855 0ba2 01       		.byte	0x1
 2856 0ba3 7B06     		.2byte	0x67b
 2857 0ba5 B9030000 		.4byte	0x3b9
 2858 0ba9 01       		.uleb128 0x1
 2859 0baa 50       		.byte	0x50
 2860 0bab 18       		.uleb128 0x18
 2861 0bac 6A010000 		.4byte	.LASF110
 2862 0bb0 01       		.byte	0x1
 2863 0bb1 7B06     		.2byte	0x67b
 2864 0bb3 97000000 		.4byte	0x97
 2865 0bb7 49090000 		.4byte	.LLST42
 2866 0bbb 00       		.byte	0
 2867 0bbc 1A       		.uleb128 0x1a
 2868 0bbd 25070000 		.4byte	.LASF112
 2869 0bc1 01       		.byte	0x1
ARM GAS  /var/folders/7z/kps_xzfj7sn5l5gkyq8s9db00000gn/T//cc2C97ap.s 			page 52


 2870 0bc2 9006     		.2byte	0x690
 2871 0bc4 F6000000 		.4byte	0xf6
 2872 0bc8 00000000 		.4byte	.LFB147
 2873 0bcc 1A000000 		.4byte	.LFE147-.LFB147
 2874 0bd0 01       		.uleb128 0x1
 2875 0bd1 9C       		.byte	0x9c
 2876 0bd2 270C0000 		.4byte	0xc27
 2877 0bd6 18       		.uleb128 0x18
 2878 0bd7 56000000 		.4byte	.LASF55
 2879 0bdb 01       		.byte	0x1
 2880 0bdc 9006     		.2byte	0x690
 2881 0bde B9030000 		.4byte	0x3b9
 2882 0be2 6A090000 		.4byte	.LLST43
 2883 0be6 18       		.uleb128 0x18
 2884 0be7 09000000 		.4byte	.LASF107
 2885 0beb 01       		.byte	0x1
 2886 0bec 9006     		.2byte	0x690
 2887 0bee A2000000 		.4byte	0xa2
 2888 0bf2 8B090000 		.4byte	.LLST44
 2889 0bf6 19       		.uleb128 0x19
 2890 0bf7 6F080000 		.4byte	.LASF79
 2891 0bfb 01       		.byte	0x1
 2892 0bfc 9206     		.2byte	0x692
 2893 0bfe F6000000 		.4byte	0xf6
 2894 0c02 AC090000 		.4byte	.LLST45
 2895 0c06 19       		.uleb128 0x19
 2896 0c07 EE040000 		.4byte	.LASF108
 2897 0c0b 01       		.byte	0x1
 2898 0c0c 9306     		.2byte	0x693
 2899 0c0e B8000000 		.4byte	0xb8
 2900 0c12 CB090000 		.4byte	.LLST46
 2901 0c16 19       		.uleb128 0x19
 2902 0c17 AB070000 		.4byte	.LASF113
 2903 0c1b 01       		.byte	0x1
 2904 0c1c 9306     		.2byte	0x693
 2905 0c1e B8000000 		.4byte	0xb8
 2906 0c22 FA090000 		.4byte	.LLST47
 2907 0c26 00       		.byte	0
 2908 0c27 16       		.uleb128 0x16
 2909 0c28 F5040000 		.4byte	.LASF114
 2910 0c2c 01       		.byte	0x1
 2911 0c2d B906     		.2byte	0x6b9
 2912 0c2f 00000000 		.4byte	.LFB148
 2913 0c33 08000000 		.4byte	.LFE148-.LFB148
 2914 0c37 01       		.uleb128 0x1
 2915 0c38 9C       		.byte	0x9c
 2916 0c39 6C0C0000 		.4byte	0xc6c
 2917 0c3d 17       		.uleb128 0x17
 2918 0c3e 56000000 		.4byte	.LASF55
 2919 0c42 01       		.byte	0x1
 2920 0c43 B906     		.2byte	0x6b9
 2921 0c45 B9030000 		.4byte	0x3b9
 2922 0c49 01       		.uleb128 0x1
 2923 0c4a 50       		.byte	0x50
 2924 0c4b 18       		.uleb128 0x18
 2925 0c4c 09000000 		.4byte	.LASF107
 2926 0c50 01       		.byte	0x1
ARM GAS  /var/folders/7z/kps_xzfj7sn5l5gkyq8s9db00000gn/T//cc2C97ap.s 			page 53


 2927 0c51 B906     		.2byte	0x6b9
 2928 0c53 A2000000 		.4byte	0xa2
 2929 0c57 390A0000 		.4byte	.LLST48
 2930 0c5b 19       		.uleb128 0x19
 2931 0c5c EE040000 		.4byte	.LASF108
 2932 0c60 01       		.byte	0x1
 2933 0c61 BB06     		.2byte	0x6bb
 2934 0c63 97000000 		.4byte	0x97
 2935 0c67 5A0A0000 		.4byte	.LLST49
 2936 0c6b 00       		.byte	0
 2937 0c6c 1D       		.uleb128 0x1d
 2938 0c6d 9D000000 		.4byte	.LASF119
 2939 0c71 06       		.byte	0x6
 2940 0c72 9806     		.2byte	0x698
 2941 0c74 CF000000 		.4byte	0xcf
 2942 0c78 1E       		.uleb128 0x1e
 2943 0c79 B2040000 		.4byte	.LASF120
 2944 0c7d 07       		.byte	0x7
 2945 0c7e E701     		.2byte	0x1e7
 2946 0c80 1F       		.uleb128 0x1f
 2947 0c81 B8000000 		.4byte	0xb8
 2948 0c85 1F       		.uleb128 0x1f
 2949 0c86 18010000 		.4byte	0x118
 2950 0c8a 00       		.byte	0
 2951 0c8b 00       		.byte	0
 2952              		.section	.debug_abbrev,"",%progbits
 2953              	.Ldebug_abbrev0:
 2954 0000 01       		.uleb128 0x1
 2955 0001 11       		.uleb128 0x11
 2956 0002 01       		.byte	0x1
 2957 0003 25       		.uleb128 0x25
 2958 0004 0E       		.uleb128 0xe
 2959 0005 13       		.uleb128 0x13
 2960 0006 0B       		.uleb128 0xb
 2961 0007 03       		.uleb128 0x3
 2962 0008 0E       		.uleb128 0xe
 2963 0009 1B       		.uleb128 0x1b
 2964 000a 0E       		.uleb128 0xe
 2965 000b 55       		.uleb128 0x55
 2966 000c 17       		.uleb128 0x17
 2967 000d 11       		.uleb128 0x11
 2968 000e 01       		.uleb128 0x1
 2969 000f 10       		.uleb128 0x10
 2970 0010 17       		.uleb128 0x17
 2971 0011 00       		.byte	0
 2972 0012 00       		.byte	0
 2973 0013 02       		.uleb128 0x2
 2974 0014 24       		.uleb128 0x24
 2975 0015 00       		.byte	0
 2976 0016 0B       		.uleb128 0xb
 2977 0017 0B       		.uleb128 0xb
 2978 0018 3E       		.uleb128 0x3e
 2979 0019 0B       		.uleb128 0xb
 2980 001a 03       		.uleb128 0x3
 2981 001b 0E       		.uleb128 0xe
 2982 001c 00       		.byte	0
 2983 001d 00       		.byte	0
ARM GAS  /var/folders/7z/kps_xzfj7sn5l5gkyq8s9db00000gn/T//cc2C97ap.s 			page 54


 2984 001e 03       		.uleb128 0x3
 2985 001f 16       		.uleb128 0x16
 2986 0020 00       		.byte	0
 2987 0021 03       		.uleb128 0x3
 2988 0022 0E       		.uleb128 0xe
 2989 0023 3A       		.uleb128 0x3a
 2990 0024 0B       		.uleb128 0xb
 2991 0025 3B       		.uleb128 0x3b
 2992 0026 0B       		.uleb128 0xb
 2993 0027 49       		.uleb128 0x49
 2994 0028 13       		.uleb128 0x13
 2995 0029 00       		.byte	0
 2996 002a 00       		.byte	0
 2997 002b 04       		.uleb128 0x4
 2998 002c 24       		.uleb128 0x24
 2999 002d 00       		.byte	0
 3000 002e 0B       		.uleb128 0xb
 3001 002f 0B       		.uleb128 0xb
 3002 0030 3E       		.uleb128 0x3e
 3003 0031 0B       		.uleb128 0xb
 3004 0032 03       		.uleb128 0x3
 3005 0033 08       		.uleb128 0x8
 3006 0034 00       		.byte	0
 3007 0035 00       		.byte	0
 3008 0036 05       		.uleb128 0x5
 3009 0037 35       		.uleb128 0x35
 3010 0038 00       		.byte	0
 3011 0039 49       		.uleb128 0x49
 3012 003a 13       		.uleb128 0x13
 3013 003b 00       		.byte	0
 3014 003c 00       		.byte	0
 3015 003d 06       		.uleb128 0x6
 3016 003e 04       		.uleb128 0x4
 3017 003f 01       		.byte	0x1
 3018 0040 0B       		.uleb128 0xb
 3019 0041 0B       		.uleb128 0xb
 3020 0042 3A       		.uleb128 0x3a
 3021 0043 0B       		.uleb128 0xb
 3022 0044 3B       		.uleb128 0x3b
 3023 0045 05       		.uleb128 0x5
 3024 0046 01       		.uleb128 0x1
 3025 0047 13       		.uleb128 0x13
 3026 0048 00       		.byte	0
 3027 0049 00       		.byte	0
 3028 004a 07       		.uleb128 0x7
 3029 004b 28       		.uleb128 0x28
 3030 004c 00       		.byte	0
 3031 004d 03       		.uleb128 0x3
 3032 004e 0E       		.uleb128 0xe
 3033 004f 1C       		.uleb128 0x1c
 3034 0050 0D       		.uleb128 0xd
 3035 0051 00       		.byte	0
 3036 0052 00       		.byte	0
 3037 0053 08       		.uleb128 0x8
 3038 0054 28       		.uleb128 0x28
 3039 0055 00       		.byte	0
 3040 0056 03       		.uleb128 0x3
ARM GAS  /var/folders/7z/kps_xzfj7sn5l5gkyq8s9db00000gn/T//cc2C97ap.s 			page 55


 3041 0057 08       		.uleb128 0x8
 3042 0058 1C       		.uleb128 0x1c
 3043 0059 0D       		.uleb128 0xd
 3044 005a 00       		.byte	0
 3045 005b 00       		.byte	0
 3046 005c 09       		.uleb128 0x9
 3047 005d 16       		.uleb128 0x16
 3048 005e 00       		.byte	0
 3049 005f 03       		.uleb128 0x3
 3050 0060 0E       		.uleb128 0xe
 3051 0061 3A       		.uleb128 0x3a
 3052 0062 0B       		.uleb128 0xb
 3053 0063 3B       		.uleb128 0x3b
 3054 0064 05       		.uleb128 0x5
 3055 0065 49       		.uleb128 0x49
 3056 0066 13       		.uleb128 0x13
 3057 0067 00       		.byte	0
 3058 0068 00       		.byte	0
 3059 0069 0A       		.uleb128 0xa
 3060 006a 13       		.uleb128 0x13
 3061 006b 01       		.byte	0x1
 3062 006c 0B       		.uleb128 0xb
 3063 006d 0B       		.uleb128 0xb
 3064 006e 3A       		.uleb128 0x3a
 3065 006f 0B       		.uleb128 0xb
 3066 0070 3B       		.uleb128 0x3b
 3067 0071 05       		.uleb128 0x5
 3068 0072 01       		.uleb128 0x1
 3069 0073 13       		.uleb128 0x13
 3070 0074 00       		.byte	0
 3071 0075 00       		.byte	0
 3072 0076 0B       		.uleb128 0xb
 3073 0077 0D       		.uleb128 0xd
 3074 0078 00       		.byte	0
 3075 0079 03       		.uleb128 0x3
 3076 007a 08       		.uleb128 0x8
 3077 007b 3A       		.uleb128 0x3a
 3078 007c 0B       		.uleb128 0xb
 3079 007d 3B       		.uleb128 0x3b
 3080 007e 05       		.uleb128 0x5
 3081 007f 49       		.uleb128 0x49
 3082 0080 13       		.uleb128 0x13
 3083 0081 38       		.uleb128 0x38
 3084 0082 0B       		.uleb128 0xb
 3085 0083 00       		.byte	0
 3086 0084 00       		.byte	0
 3087 0085 0C       		.uleb128 0xc
 3088 0086 0D       		.uleb128 0xd
 3089 0087 00       		.byte	0
 3090 0088 03       		.uleb128 0x3
 3091 0089 0E       		.uleb128 0xe
 3092 008a 3A       		.uleb128 0x3a
 3093 008b 0B       		.uleb128 0xb
 3094 008c 3B       		.uleb128 0x3b
 3095 008d 05       		.uleb128 0x5
 3096 008e 49       		.uleb128 0x49
 3097 008f 13       		.uleb128 0x13
ARM GAS  /var/folders/7z/kps_xzfj7sn5l5gkyq8s9db00000gn/T//cc2C97ap.s 			page 56


 3098 0090 38       		.uleb128 0x38
 3099 0091 0B       		.uleb128 0xb
 3100 0092 00       		.byte	0
 3101 0093 00       		.byte	0
 3102 0094 0D       		.uleb128 0xd
 3103 0095 13       		.uleb128 0x13
 3104 0096 01       		.byte	0x1
 3105 0097 0B       		.uleb128 0xb
 3106 0098 0B       		.uleb128 0xb
 3107 0099 3A       		.uleb128 0x3a
 3108 009a 0B       		.uleb128 0xb
 3109 009b 3B       		.uleb128 0x3b
 3110 009c 0B       		.uleb128 0xb
 3111 009d 01       		.uleb128 0x1
 3112 009e 13       		.uleb128 0x13
 3113 009f 00       		.byte	0
 3114 00a0 00       		.byte	0
 3115 00a1 0E       		.uleb128 0xe
 3116 00a2 0D       		.uleb128 0xd
 3117 00a3 00       		.byte	0
 3118 00a4 03       		.uleb128 0x3
 3119 00a5 0E       		.uleb128 0xe
 3120 00a6 3A       		.uleb128 0x3a
 3121 00a7 0B       		.uleb128 0xb
 3122 00a8 3B       		.uleb128 0x3b
 3123 00a9 0B       		.uleb128 0xb
 3124 00aa 49       		.uleb128 0x49
 3125 00ab 13       		.uleb128 0x13
 3126 00ac 38       		.uleb128 0x38
 3127 00ad 0B       		.uleb128 0xb
 3128 00ae 00       		.byte	0
 3129 00af 00       		.byte	0
 3130 00b0 0F       		.uleb128 0xf
 3131 00b1 2E       		.uleb128 0x2e
 3132 00b2 01       		.byte	0x1
 3133 00b3 3F       		.uleb128 0x3f
 3134 00b4 19       		.uleb128 0x19
 3135 00b5 03       		.uleb128 0x3
 3136 00b6 0E       		.uleb128 0xe
 3137 00b7 3A       		.uleb128 0x3a
 3138 00b8 0B       		.uleb128 0xb
 3139 00b9 3B       		.uleb128 0x3b
 3140 00ba 0B       		.uleb128 0xb
 3141 00bb 27       		.uleb128 0x27
 3142 00bc 19       		.uleb128 0x19
 3143 00bd 11       		.uleb128 0x11
 3144 00be 01       		.uleb128 0x1
 3145 00bf 12       		.uleb128 0x12
 3146 00c0 06       		.uleb128 0x6
 3147 00c1 40       		.uleb128 0x40
 3148 00c2 18       		.uleb128 0x18
 3149 00c3 9742     		.uleb128 0x2117
 3150 00c5 19       		.uleb128 0x19
 3151 00c6 01       		.uleb128 0x1
 3152 00c7 13       		.uleb128 0x13
 3153 00c8 00       		.byte	0
 3154 00c9 00       		.byte	0
ARM GAS  /var/folders/7z/kps_xzfj7sn5l5gkyq8s9db00000gn/T//cc2C97ap.s 			page 57


 3155 00ca 10       		.uleb128 0x10
 3156 00cb 898201   		.uleb128 0x4109
 3157 00ce 01       		.byte	0x1
 3158 00cf 11       		.uleb128 0x11
 3159 00d0 01       		.uleb128 0x1
 3160 00d1 31       		.uleb128 0x31
 3161 00d2 13       		.uleb128 0x13
 3162 00d3 01       		.uleb128 0x1
 3163 00d4 13       		.uleb128 0x13
 3164 00d5 00       		.byte	0
 3165 00d6 00       		.byte	0
 3166 00d7 11       		.uleb128 0x11
 3167 00d8 8A8201   		.uleb128 0x410a
 3168 00db 00       		.byte	0
 3169 00dc 02       		.uleb128 0x2
 3170 00dd 18       		.uleb128 0x18
 3171 00de 9142     		.uleb128 0x2111
 3172 00e0 18       		.uleb128 0x18
 3173 00e1 00       		.byte	0
 3174 00e2 00       		.byte	0
 3175 00e3 12       		.uleb128 0x12
 3176 00e4 898201   		.uleb128 0x4109
 3177 00e7 01       		.byte	0x1
 3178 00e8 11       		.uleb128 0x11
 3179 00e9 01       		.uleb128 0x1
 3180 00ea 9542     		.uleb128 0x2115
 3181 00ec 19       		.uleb128 0x19
 3182 00ed 31       		.uleb128 0x31
 3183 00ee 13       		.uleb128 0x13
 3184 00ef 00       		.byte	0
 3185 00f0 00       		.byte	0
 3186 00f1 13       		.uleb128 0x13
 3187 00f2 05       		.uleb128 0x5
 3188 00f3 00       		.byte	0
 3189 00f4 03       		.uleb128 0x3
 3190 00f5 0E       		.uleb128 0xe
 3191 00f6 3A       		.uleb128 0x3a
 3192 00f7 0B       		.uleb128 0xb
 3193 00f8 3B       		.uleb128 0x3b
 3194 00f9 0B       		.uleb128 0xb
 3195 00fa 49       		.uleb128 0x49
 3196 00fb 13       		.uleb128 0x13
 3197 00fc 02       		.uleb128 0x2
 3198 00fd 18       		.uleb128 0x18
 3199 00fe 00       		.byte	0
 3200 00ff 00       		.byte	0
 3201 0100 14       		.uleb128 0x14
 3202 0101 34       		.uleb128 0x34
 3203 0102 00       		.byte	0
 3204 0103 03       		.uleb128 0x3
 3205 0104 0E       		.uleb128 0xe
 3206 0105 3A       		.uleb128 0x3a
 3207 0106 0B       		.uleb128 0xb
 3208 0107 3B       		.uleb128 0x3b
 3209 0108 0B       		.uleb128 0xb
 3210 0109 49       		.uleb128 0x49
 3211 010a 13       		.uleb128 0x13
ARM GAS  /var/folders/7z/kps_xzfj7sn5l5gkyq8s9db00000gn/T//cc2C97ap.s 			page 58


 3212 010b 02       		.uleb128 0x2
 3213 010c 17       		.uleb128 0x17
 3214 010d 00       		.byte	0
 3215 010e 00       		.byte	0
 3216 010f 15       		.uleb128 0x15
 3217 0110 0F       		.uleb128 0xf
 3218 0111 00       		.byte	0
 3219 0112 0B       		.uleb128 0xb
 3220 0113 0B       		.uleb128 0xb
 3221 0114 49       		.uleb128 0x49
 3222 0115 13       		.uleb128 0x13
 3223 0116 00       		.byte	0
 3224 0117 00       		.byte	0
 3225 0118 16       		.uleb128 0x16
 3226 0119 2E       		.uleb128 0x2e
 3227 011a 01       		.byte	0x1
 3228 011b 3F       		.uleb128 0x3f
 3229 011c 19       		.uleb128 0x19
 3230 011d 03       		.uleb128 0x3
 3231 011e 0E       		.uleb128 0xe
 3232 011f 3A       		.uleb128 0x3a
 3233 0120 0B       		.uleb128 0xb
 3234 0121 3B       		.uleb128 0x3b
 3235 0122 05       		.uleb128 0x5
 3236 0123 27       		.uleb128 0x27
 3237 0124 19       		.uleb128 0x19
 3238 0125 11       		.uleb128 0x11
 3239 0126 01       		.uleb128 0x1
 3240 0127 12       		.uleb128 0x12
 3241 0128 06       		.uleb128 0x6
 3242 0129 40       		.uleb128 0x40
 3243 012a 18       		.uleb128 0x18
 3244 012b 9742     		.uleb128 0x2117
 3245 012d 19       		.uleb128 0x19
 3246 012e 01       		.uleb128 0x1
 3247 012f 13       		.uleb128 0x13
 3248 0130 00       		.byte	0
 3249 0131 00       		.byte	0
 3250 0132 17       		.uleb128 0x17
 3251 0133 05       		.uleb128 0x5
 3252 0134 00       		.byte	0
 3253 0135 03       		.uleb128 0x3
 3254 0136 0E       		.uleb128 0xe
 3255 0137 3A       		.uleb128 0x3a
 3256 0138 0B       		.uleb128 0xb
 3257 0139 3B       		.uleb128 0x3b
 3258 013a 05       		.uleb128 0x5
 3259 013b 49       		.uleb128 0x49
 3260 013c 13       		.uleb128 0x13
 3261 013d 02       		.uleb128 0x2
 3262 013e 18       		.uleb128 0x18
 3263 013f 00       		.byte	0
 3264 0140 00       		.byte	0
 3265 0141 18       		.uleb128 0x18
 3266 0142 05       		.uleb128 0x5
 3267 0143 00       		.byte	0
 3268 0144 03       		.uleb128 0x3
ARM GAS  /var/folders/7z/kps_xzfj7sn5l5gkyq8s9db00000gn/T//cc2C97ap.s 			page 59


 3269 0145 0E       		.uleb128 0xe
 3270 0146 3A       		.uleb128 0x3a
 3271 0147 0B       		.uleb128 0xb
 3272 0148 3B       		.uleb128 0x3b
 3273 0149 05       		.uleb128 0x5
 3274 014a 49       		.uleb128 0x49
 3275 014b 13       		.uleb128 0x13
 3276 014c 02       		.uleb128 0x2
 3277 014d 17       		.uleb128 0x17
 3278 014e 00       		.byte	0
 3279 014f 00       		.byte	0
 3280 0150 19       		.uleb128 0x19
 3281 0151 34       		.uleb128 0x34
 3282 0152 00       		.byte	0
 3283 0153 03       		.uleb128 0x3
 3284 0154 0E       		.uleb128 0xe
 3285 0155 3A       		.uleb128 0x3a
 3286 0156 0B       		.uleb128 0xb
 3287 0157 3B       		.uleb128 0x3b
 3288 0158 05       		.uleb128 0x5
 3289 0159 49       		.uleb128 0x49
 3290 015a 13       		.uleb128 0x13
 3291 015b 02       		.uleb128 0x2
 3292 015c 17       		.uleb128 0x17
 3293 015d 00       		.byte	0
 3294 015e 00       		.byte	0
 3295 015f 1A       		.uleb128 0x1a
 3296 0160 2E       		.uleb128 0x2e
 3297 0161 01       		.byte	0x1
 3298 0162 3F       		.uleb128 0x3f
 3299 0163 19       		.uleb128 0x19
 3300 0164 03       		.uleb128 0x3
 3301 0165 0E       		.uleb128 0xe
 3302 0166 3A       		.uleb128 0x3a
 3303 0167 0B       		.uleb128 0xb
 3304 0168 3B       		.uleb128 0x3b
 3305 0169 05       		.uleb128 0x5
 3306 016a 27       		.uleb128 0x27
 3307 016b 19       		.uleb128 0x19
 3308 016c 49       		.uleb128 0x49
 3309 016d 13       		.uleb128 0x13
 3310 016e 11       		.uleb128 0x11
 3311 016f 01       		.uleb128 0x1
 3312 0170 12       		.uleb128 0x12
 3313 0171 06       		.uleb128 0x6
 3314 0172 40       		.uleb128 0x40
 3315 0173 18       		.uleb128 0x18
 3316 0174 9742     		.uleb128 0x2117
 3317 0176 19       		.uleb128 0x19
 3318 0177 01       		.uleb128 0x1
 3319 0178 13       		.uleb128 0x13
 3320 0179 00       		.byte	0
 3321 017a 00       		.byte	0
 3322 017b 1B       		.uleb128 0x1b
 3323 017c 2E       		.uleb128 0x2e
 3324 017d 00       		.byte	0
 3325 017e 3F       		.uleb128 0x3f
ARM GAS  /var/folders/7z/kps_xzfj7sn5l5gkyq8s9db00000gn/T//cc2C97ap.s 			page 60


 3326 017f 19       		.uleb128 0x19
 3327 0180 03       		.uleb128 0x3
 3328 0181 0E       		.uleb128 0xe
 3329 0182 3A       		.uleb128 0x3a
 3330 0183 0B       		.uleb128 0xb
 3331 0184 3B       		.uleb128 0x3b
 3332 0185 05       		.uleb128 0x5
 3333 0186 27       		.uleb128 0x27
 3334 0187 19       		.uleb128 0x19
 3335 0188 49       		.uleb128 0x49
 3336 0189 13       		.uleb128 0x13
 3337 018a 11       		.uleb128 0x11
 3338 018b 01       		.uleb128 0x1
 3339 018c 12       		.uleb128 0x12
 3340 018d 06       		.uleb128 0x6
 3341 018e 40       		.uleb128 0x40
 3342 018f 18       		.uleb128 0x18
 3343 0190 9742     		.uleb128 0x2117
 3344 0192 19       		.uleb128 0x19
 3345 0193 00       		.byte	0
 3346 0194 00       		.byte	0
 3347 0195 1C       		.uleb128 0x1c
 3348 0196 34       		.uleb128 0x34
 3349 0197 00       		.byte	0
 3350 0198 03       		.uleb128 0x3
 3351 0199 08       		.uleb128 0x8
 3352 019a 3A       		.uleb128 0x3a
 3353 019b 0B       		.uleb128 0xb
 3354 019c 3B       		.uleb128 0x3b
 3355 019d 05       		.uleb128 0x5
 3356 019e 49       		.uleb128 0x49
 3357 019f 13       		.uleb128 0x13
 3358 01a0 02       		.uleb128 0x2
 3359 01a1 18       		.uleb128 0x18
 3360 01a2 00       		.byte	0
 3361 01a3 00       		.byte	0
 3362 01a4 1D       		.uleb128 0x1d
 3363 01a5 34       		.uleb128 0x34
 3364 01a6 00       		.byte	0
 3365 01a7 03       		.uleb128 0x3
 3366 01a8 0E       		.uleb128 0xe
 3367 01a9 3A       		.uleb128 0x3a
 3368 01aa 0B       		.uleb128 0xb
 3369 01ab 3B       		.uleb128 0x3b
 3370 01ac 05       		.uleb128 0x5
 3371 01ad 49       		.uleb128 0x49
 3372 01ae 13       		.uleb128 0x13
 3373 01af 3F       		.uleb128 0x3f
 3374 01b0 19       		.uleb128 0x19
 3375 01b1 3C       		.uleb128 0x3c
 3376 01b2 19       		.uleb128 0x19
 3377 01b3 00       		.byte	0
 3378 01b4 00       		.byte	0
 3379 01b5 1E       		.uleb128 0x1e
 3380 01b6 2E       		.uleb128 0x2e
 3381 01b7 01       		.byte	0x1
 3382 01b8 3F       		.uleb128 0x3f
ARM GAS  /var/folders/7z/kps_xzfj7sn5l5gkyq8s9db00000gn/T//cc2C97ap.s 			page 61


 3383 01b9 19       		.uleb128 0x19
 3384 01ba 03       		.uleb128 0x3
 3385 01bb 0E       		.uleb128 0xe
 3386 01bc 3A       		.uleb128 0x3a
 3387 01bd 0B       		.uleb128 0xb
 3388 01be 3B       		.uleb128 0x3b
 3389 01bf 05       		.uleb128 0x5
 3390 01c0 27       		.uleb128 0x27
 3391 01c1 19       		.uleb128 0x19
 3392 01c2 3C       		.uleb128 0x3c
 3393 01c3 19       		.uleb128 0x19
 3394 01c4 00       		.byte	0
 3395 01c5 00       		.byte	0
 3396 01c6 1F       		.uleb128 0x1f
 3397 01c7 05       		.uleb128 0x5
 3398 01c8 00       		.byte	0
 3399 01c9 49       		.uleb128 0x49
 3400 01ca 13       		.uleb128 0x13
 3401 01cb 00       		.byte	0
 3402 01cc 00       		.byte	0
 3403 01cd 00       		.byte	0
 3404              		.section	.debug_loc,"",%progbits
 3405              	.Ldebug_loc0:
 3406              	.LLST0:
 3407 0000 00000000 		.4byte	.LVL2
 3408 0004 04000000 		.4byte	.LVL3
 3409 0008 0200     		.2byte	0x2
 3410 000a 30       		.byte	0x30
 3411 000b 9F       		.byte	0x9f
 3412 000c 04000000 		.4byte	.LVL3
 3413 0010 1A000000 		.4byte	.LVL4
 3414 0014 0900     		.2byte	0x9
 3415 0016 74       		.byte	0x74
 3416 0017 00       		.sleb128 0
 3417 0018 11       		.byte	0x11
 3418 0019 FFFDFF67 		.sleb128 -50331905
 3419 001d 1A       		.byte	0x1a
 3420 001e 9F       		.byte	0x9f
 3421 001f 24000000 		.4byte	.LVL5
 3422 0023 28000000 		.4byte	.LVL6
 3423 0027 0100     		.2byte	0x1
 3424 0029 52       		.byte	0x52
 3425 002a 28000000 		.4byte	.LVL6
 3426 002e 30000000 		.4byte	.LVL7
 3427 0032 0A00     		.2byte	0xa
 3428 0034 74       		.byte	0x74
 3429 0035 00       		.sleb128 0
 3430 0036 11       		.byte	0x11
 3431 0037 FDEFFF87 		.sleb128 -1056966659
 3431      7C
 3432 003c 1A       		.byte	0x1a
 3433 003d 9F       		.byte	0x9f
 3434 003e 30000000 		.4byte	.LVL7
 3435 0042 32000000 		.4byte	.LVL8
 3436 0046 0100     		.2byte	0x1
 3437 0048 53       		.byte	0x53
 3438 0049 32000000 		.4byte	.LVL8
ARM GAS  /var/folders/7z/kps_xzfj7sn5l5gkyq8s9db00000gn/T//cc2C97ap.s 			page 62


 3439 004d 36000000 		.4byte	.LVL9
 3440 0051 0A00     		.2byte	0xa
 3441 0053 74       		.byte	0x74
 3442 0054 00       		.sleb128 0
 3443 0055 11       		.byte	0x11
 3444 0056 FDEFFF87 		.sleb128 -1056966659
 3444      7C
 3445 005b 1A       		.byte	0x1a
 3446 005c 9F       		.byte	0x9f
 3447 005d 36000000 		.4byte	.LVL9
 3448 0061 50000000 		.4byte	.LFE112
 3449 0065 0100     		.2byte	0x1
 3450 0067 53       		.byte	0x53
 3451 0068 00000000 		.4byte	0
 3452 006c 00000000 		.4byte	0
 3453              	.LLST1:
 3454 0070 00000000 		.4byte	.LVL2
 3455 0074 44000000 		.4byte	.LVL11
 3456 0078 0200     		.2byte	0x2
 3457 007a 30       		.byte	0x30
 3458 007b 9F       		.byte	0x9f
 3459 007c 44000000 		.4byte	.LVL11
 3460 0080 4A000000 		.4byte	.LVL13
 3461 0084 0700     		.2byte	0x7
 3462 0086 71       		.byte	0x71
 3463 0087 14       		.sleb128 20
 3464 0088 94       		.byte	0x94
 3465 0089 01       		.byte	0x1
 3466 008a 31       		.byte	0x31
 3467 008b 1C       		.byte	0x1c
 3468 008c 9F       		.byte	0x9f
 3469 008d 00000000 		.4byte	0
 3470 0091 00000000 		.4byte	0
 3471              	.LLST2:
 3472 0095 00000000 		.4byte	.LVL15
 3473 0099 10000000 		.4byte	.LVL16
 3474 009d 0100     		.2byte	0x1
 3475 009f 50       		.byte	0x50
 3476 00a0 10000000 		.4byte	.LVL16
 3477 00a4 28000000 		.4byte	.LFE114
 3478 00a8 0400     		.2byte	0x4
 3479 00aa F3       		.byte	0xf3
 3480 00ab 01       		.uleb128 0x1
 3481 00ac 50       		.byte	0x50
 3482 00ad 9F       		.byte	0x9f
 3483 00ae 00000000 		.4byte	0
 3484 00b2 00000000 		.4byte	0
 3485              	.LLST3:
 3486 00b6 00000000 		.4byte	.LVL15
 3487 00ba 10000000 		.4byte	.LVL16
 3488 00be 0200     		.2byte	0x2
 3489 00c0 30       		.byte	0x30
 3490 00c1 9F       		.byte	0x9f
 3491 00c2 10000000 		.4byte	.LVL16
 3492 00c6 18000000 		.4byte	.LVL17
 3493 00ca 0100     		.2byte	0x1
 3494 00cc 50       		.byte	0x50
ARM GAS  /var/folders/7z/kps_xzfj7sn5l5gkyq8s9db00000gn/T//cc2C97ap.s 			page 63


 3495 00cd 18000000 		.4byte	.LVL17
 3496 00d1 28000000 		.4byte	.LFE114
 3497 00d5 0100     		.2byte	0x1
 3498 00d7 53       		.byte	0x53
 3499 00d8 00000000 		.4byte	0
 3500 00dc 00000000 		.4byte	0
 3501              	.LLST4:
 3502 00e0 00000000 		.4byte	.LVL21
 3503 00e4 0C000000 		.4byte	.LVL25
 3504 00e8 0100     		.2byte	0x1
 3505 00ea 51       		.byte	0x51
 3506 00eb 0C000000 		.4byte	.LVL25
 3507 00ef 10000000 		.4byte	.LFE117
 3508 00f3 0400     		.2byte	0x4
 3509 00f5 F3       		.byte	0xf3
 3510 00f6 01       		.uleb128 0x1
 3511 00f7 51       		.byte	0x51
 3512 00f8 9F       		.byte	0x9f
 3513 00f9 00000000 		.4byte	0
 3514 00fd 00000000 		.4byte	0
 3515              	.LLST5:
 3516 0101 00000000 		.4byte	.LVL21
 3517 0105 02000000 		.4byte	.LVL22
 3518 0109 0200     		.2byte	0x2
 3519 010b 30       		.byte	0x30
 3520 010c 9F       		.byte	0x9f
 3521 010d 02000000 		.4byte	.LVL22
 3522 0111 06000000 		.4byte	.LVL23
 3523 0115 0100     		.2byte	0x1
 3524 0117 53       		.byte	0x53
 3525 0118 0A000000 		.4byte	.LVL24
 3526 011c 0C000000 		.4byte	.LVL25
 3527 0120 0100     		.2byte	0x1
 3528 0122 53       		.byte	0x53
 3529 0123 0C000000 		.4byte	.LVL25
 3530 0127 10000000 		.4byte	.LFE117
 3531 012b 0100     		.2byte	0x1
 3532 012d 51       		.byte	0x51
 3533 012e 00000000 		.4byte	0
 3534 0132 00000000 		.4byte	0
 3535              	.LLST6:
 3536 0136 00000000 		.4byte	.LVL27
 3537 013a 08000000 		.4byte	.LVL30
 3538 013e 0100     		.2byte	0x1
 3539 0140 51       		.byte	0x51
 3540 0141 08000000 		.4byte	.LVL30
 3541 0145 0C000000 		.4byte	.LFE119
 3542 0149 0400     		.2byte	0x4
 3543 014b F3       		.byte	0xf3
 3544 014c 01       		.uleb128 0x1
 3545 014d 51       		.byte	0x51
 3546 014e 9F       		.byte	0x9f
 3547 014f 00000000 		.4byte	0
 3548 0153 00000000 		.4byte	0
 3549              	.LLST7:
 3550 0157 00000000 		.4byte	.LVL27
 3551 015b 02000000 		.4byte	.LVL28
ARM GAS  /var/folders/7z/kps_xzfj7sn5l5gkyq8s9db00000gn/T//cc2C97ap.s 			page 64


 3552 015f 0200     		.2byte	0x2
 3553 0161 30       		.byte	0x30
 3554 0162 9F       		.byte	0x9f
 3555 0163 02000000 		.4byte	.LVL28
 3556 0167 08000000 		.4byte	.LVL30
 3557 016b 0100     		.2byte	0x1
 3558 016d 53       		.byte	0x53
 3559 016e 08000000 		.4byte	.LVL30
 3560 0172 0C000000 		.4byte	.LFE119
 3561 0176 0100     		.2byte	0x1
 3562 0178 51       		.byte	0x51
 3563 0179 00000000 		.4byte	0
 3564 017d 00000000 		.4byte	0
 3565              	.LLST8:
 3566 0181 00000000 		.4byte	.LVL33
 3567 0185 38000000 		.4byte	.LVL44
 3568 0189 0100     		.2byte	0x1
 3569 018b 51       		.byte	0x51
 3570 018c 38000000 		.4byte	.LVL44
 3571 0190 40000000 		.4byte	.LVL46
 3572 0194 0400     		.2byte	0x4
 3573 0196 F3       		.byte	0xf3
 3574 0197 01       		.uleb128 0x1
 3575 0198 51       		.byte	0x51
 3576 0199 9F       		.byte	0x9f
 3577 019a 40000000 		.4byte	.LVL46
 3578 019e 6A000000 		.4byte	.LVL57
 3579 01a2 0100     		.2byte	0x1
 3580 01a4 51       		.byte	0x51
 3581 01a5 6A000000 		.4byte	.LVL57
 3582 01a9 72000000 		.4byte	.LVL59
 3583 01ad 0400     		.2byte	0x4
 3584 01af F3       		.byte	0xf3
 3585 01b0 01       		.uleb128 0x1
 3586 01b1 51       		.byte	0x51
 3587 01b2 9F       		.byte	0x9f
 3588 01b3 72000000 		.4byte	.LVL59
 3589 01b7 84000000 		.4byte	.LVL65
 3590 01bb 0100     		.2byte	0x1
 3591 01bd 51       		.byte	0x51
 3592 01be 84000000 		.4byte	.LVL65
 3593 01c2 8C000000 		.4byte	.LFE122
 3594 01c6 0400     		.2byte	0x4
 3595 01c8 F3       		.byte	0xf3
 3596 01c9 01       		.uleb128 0x1
 3597 01ca 51       		.byte	0x51
 3598 01cb 9F       		.byte	0x9f
 3599 01cc 00000000 		.4byte	0
 3600 01d0 00000000 		.4byte	0
 3601              	.LLST9:
 3602 01d4 00000000 		.4byte	.LVL33
 3603 01d8 28000000 		.4byte	.LVL39
 3604 01dc 0100     		.2byte	0x1
 3605 01de 52       		.byte	0x52
 3606 01df 28000000 		.4byte	.LVL39
 3607 01e3 40000000 		.4byte	.LVL46
 3608 01e7 0400     		.2byte	0x4
ARM GAS  /var/folders/7z/kps_xzfj7sn5l5gkyq8s9db00000gn/T//cc2C97ap.s 			page 65


 3609 01e9 F3       		.byte	0xf3
 3610 01ea 01       		.uleb128 0x1
 3611 01eb 52       		.byte	0x52
 3612 01ec 9F       		.byte	0x9f
 3613 01ed 40000000 		.4byte	.LVL46
 3614 01f1 5A000000 		.4byte	.LVL52
 3615 01f5 0100     		.2byte	0x1
 3616 01f7 52       		.byte	0x52
 3617 01f8 5A000000 		.4byte	.LVL52
 3618 01fc 72000000 		.4byte	.LVL59
 3619 0200 0400     		.2byte	0x4
 3620 0202 F3       		.byte	0xf3
 3621 0203 01       		.uleb128 0x1
 3622 0204 52       		.byte	0x52
 3623 0205 9F       		.byte	0x9f
 3624 0206 72000000 		.4byte	.LVL59
 3625 020a 74000000 		.4byte	.LVL60
 3626 020e 0100     		.2byte	0x1
 3627 0210 52       		.byte	0x52
 3628 0211 74000000 		.4byte	.LVL60
 3629 0215 8C000000 		.4byte	.LFE122
 3630 0219 0400     		.2byte	0x4
 3631 021b F3       		.byte	0xf3
 3632 021c 01       		.uleb128 0x1
 3633 021d 52       		.byte	0x52
 3634 021e 9F       		.byte	0x9f
 3635 021f 00000000 		.4byte	0
 3636 0223 00000000 		.4byte	0
 3637              	.LLST10:
 3638 0227 00000000 		.4byte	.LVL33
 3639 022b 16000000 		.4byte	.LVL36
 3640 022f 0100     		.2byte	0x1
 3641 0231 53       		.byte	0x53
 3642 0232 16000000 		.4byte	.LVL36
 3643 0236 40000000 		.4byte	.LVL46
 3644 023a 0400     		.2byte	0x4
 3645 023c F3       		.byte	0xf3
 3646 023d 01       		.uleb128 0x1
 3647 023e 53       		.byte	0x53
 3648 023f 9F       		.byte	0x9f
 3649 0240 40000000 		.4byte	.LVL46
 3650 0244 4C000000 		.4byte	.LVL49
 3651 0248 0100     		.2byte	0x1
 3652 024a 53       		.byte	0x53
 3653 024b 4C000000 		.4byte	.LVL49
 3654 024f 8C000000 		.4byte	.LFE122
 3655 0253 0400     		.2byte	0x4
 3656 0255 F3       		.byte	0xf3
 3657 0256 01       		.uleb128 0x1
 3658 0257 53       		.byte	0x53
 3659 0258 9F       		.byte	0x9f
 3660 0259 00000000 		.4byte	0
 3661 025d 00000000 		.4byte	0
 3662              	.LLST11:
 3663 0261 00000000 		.4byte	.LVL33
 3664 0265 10000000 		.4byte	.LVL34
 3665 0269 0200     		.2byte	0x2
ARM GAS  /var/folders/7z/kps_xzfj7sn5l5gkyq8s9db00000gn/T//cc2C97ap.s 			page 66


 3666 026b 30       		.byte	0x30
 3667 026c 9F       		.byte	0x9f
 3668 026d 10000000 		.4byte	.LVL34
 3669 0271 1A000000 		.4byte	.LVL37
 3670 0275 0100     		.2byte	0x1
 3671 0277 55       		.byte	0x55
 3672 0278 1A000000 		.4byte	.LVL37
 3673 027c 1C000000 		.4byte	.LVL38
 3674 0280 0100     		.2byte	0x1
 3675 0282 54       		.byte	0x54
 3676 0283 1C000000 		.4byte	.LVL38
 3677 0287 2A000000 		.4byte	.LVL40
 3678 028b 0100     		.2byte	0x1
 3679 028d 53       		.byte	0x53
 3680 028e 2A000000 		.4byte	.LVL40
 3681 0292 36000000 		.4byte	.LVL43
 3682 0296 0100     		.2byte	0x1
 3683 0298 54       		.byte	0x54
 3684 0299 36000000 		.4byte	.LVL43
 3685 029d 3A000000 		.4byte	.LVL45
 3686 02a1 0100     		.2byte	0x1
 3687 02a3 53       		.byte	0x53
 3688 02a4 3A000000 		.4byte	.LVL45
 3689 02a8 40000000 		.4byte	.LVL46
 3690 02ac 0100     		.2byte	0x1
 3691 02ae 51       		.byte	0x51
 3692 02af 40000000 		.4byte	.LVL46
 3693 02b3 46000000 		.4byte	.LVL47
 3694 02b7 0200     		.2byte	0x2
 3695 02b9 30       		.byte	0x30
 3696 02ba 9F       		.byte	0x9f
 3697 02bb 46000000 		.4byte	.LVL47
 3698 02bf 50000000 		.4byte	.LVL50
 3699 02c3 0100     		.2byte	0x1
 3700 02c5 55       		.byte	0x55
 3701 02c6 50000000 		.4byte	.LVL50
 3702 02ca 52000000 		.4byte	.LVL51
 3703 02ce 0100     		.2byte	0x1
 3704 02d0 54       		.byte	0x54
 3705 02d1 52000000 		.4byte	.LVL51
 3706 02d5 5C000000 		.4byte	.LVL53
 3707 02d9 0100     		.2byte	0x1
 3708 02db 53       		.byte	0x53
 3709 02dc 5C000000 		.4byte	.LVL53
 3710 02e0 68000000 		.4byte	.LVL56
 3711 02e4 0100     		.2byte	0x1
 3712 02e6 54       		.byte	0x54
 3713 02e7 68000000 		.4byte	.LVL56
 3714 02eb 6C000000 		.4byte	.LVL58
 3715 02ef 0100     		.2byte	0x1
 3716 02f1 53       		.byte	0x53
 3717 02f2 6C000000 		.4byte	.LVL58
 3718 02f6 72000000 		.4byte	.LVL59
 3719 02fa 0100     		.2byte	0x1
 3720 02fc 51       		.byte	0x51
 3721 02fd 72000000 		.4byte	.LVL59
 3722 0301 76000000 		.4byte	.LVL61
ARM GAS  /var/folders/7z/kps_xzfj7sn5l5gkyq8s9db00000gn/T//cc2C97ap.s 			page 67


 3723 0305 0100     		.2byte	0x1
 3724 0307 53       		.byte	0x53
 3725 0308 76000000 		.4byte	.LVL61
 3726 030c 82000000 		.4byte	.LVL64
 3727 0310 0100     		.2byte	0x1
 3728 0312 54       		.byte	0x54
 3729 0313 82000000 		.4byte	.LVL64
 3730 0317 86000000 		.4byte	.LVL66
 3731 031b 0100     		.2byte	0x1
 3732 031d 53       		.byte	0x53
 3733 031e 86000000 		.4byte	.LVL66
 3734 0322 8C000000 		.4byte	.LFE122
 3735 0326 0100     		.2byte	0x1
 3736 0328 51       		.byte	0x51
 3737 0329 00000000 		.4byte	0
 3738 032d 00000000 		.4byte	0
 3739              	.LLST12:
 3740 0331 00000000 		.4byte	.LVL33
 3741 0335 10000000 		.4byte	.LVL34
 3742 0339 0200     		.2byte	0x2
 3743 033b 30       		.byte	0x30
 3744 033c 9F       		.byte	0x9f
 3745 033d 10000000 		.4byte	.LVL34
 3746 0341 14000000 		.4byte	.LVL35
 3747 0345 0500     		.2byte	0x5
 3748 0347 37       		.byte	0x37
 3749 0348 74       		.byte	0x74
 3750 0349 00       		.sleb128 0
 3751 034a 24       		.byte	0x24
 3752 034b 9F       		.byte	0x9f
 3753 034c 14000000 		.4byte	.LVL35
 3754 0350 1A000000 		.4byte	.LVL37
 3755 0354 0100     		.2byte	0x1
 3756 0356 56       		.byte	0x56
 3757 0357 2E000000 		.4byte	.LVL41
 3758 035b 32000000 		.4byte	.LVL42
 3759 035f 0500     		.2byte	0x5
 3760 0361 4F       		.byte	0x4f
 3761 0362 72       		.byte	0x72
 3762 0363 00       		.sleb128 0
 3763 0364 24       		.byte	0x24
 3764 0365 9F       		.byte	0x9f
 3765 0366 32000000 		.4byte	.LVL42
 3766 036a 36000000 		.4byte	.LVL43
 3767 036e 0100     		.2byte	0x1
 3768 0370 53       		.byte	0x53
 3769 0371 36000000 		.4byte	.LVL43
 3770 0375 38000000 		.4byte	.LVL44
 3771 0379 0900     		.2byte	0x9
 3772 037b 71       		.byte	0x71
 3773 037c 00       		.sleb128 0
 3774 037d 08       		.byte	0x8
 3775 037e FF       		.byte	0xff
 3776 037f 1A       		.byte	0x1a
 3777 0380 72       		.byte	0x72
 3778 0381 00       		.sleb128 0
 3779 0382 24       		.byte	0x24
ARM GAS  /var/folders/7z/kps_xzfj7sn5l5gkyq8s9db00000gn/T//cc2C97ap.s 			page 68


 3780 0383 9F       		.byte	0x9f
 3781 0384 40000000 		.4byte	.LVL46
 3782 0388 46000000 		.4byte	.LVL47
 3783 038c 0200     		.2byte	0x2
 3784 038e 30       		.byte	0x30
 3785 038f 9F       		.byte	0x9f
 3786 0390 46000000 		.4byte	.LVL47
 3787 0394 4A000000 		.4byte	.LVL48
 3788 0398 0500     		.2byte	0x5
 3789 039a 37       		.byte	0x37
 3790 039b 76       		.byte	0x76
 3791 039c 00       		.sleb128 0
 3792 039d 24       		.byte	0x24
 3793 039e 9F       		.byte	0x9f
 3794 039f 4A000000 		.4byte	.LVL48
 3795 03a3 50000000 		.4byte	.LVL50
 3796 03a7 0100     		.2byte	0x1
 3797 03a9 54       		.byte	0x54
 3798 03aa 60000000 		.4byte	.LVL54
 3799 03ae 64000000 		.4byte	.LVL55
 3800 03b2 0500     		.2byte	0x5
 3801 03b4 4F       		.byte	0x4f
 3802 03b5 72       		.byte	0x72
 3803 03b6 00       		.sleb128 0
 3804 03b7 24       		.byte	0x24
 3805 03b8 9F       		.byte	0x9f
 3806 03b9 64000000 		.4byte	.LVL55
 3807 03bd 68000000 		.4byte	.LVL56
 3808 03c1 0100     		.2byte	0x1
 3809 03c3 53       		.byte	0x53
 3810 03c4 68000000 		.4byte	.LVL56
 3811 03c8 6A000000 		.4byte	.LVL57
 3812 03cc 0900     		.2byte	0x9
 3813 03ce 71       		.byte	0x71
 3814 03cf 00       		.sleb128 0
 3815 03d0 08       		.byte	0x8
 3816 03d1 FF       		.byte	0xff
 3817 03d2 1A       		.byte	0x1a
 3818 03d3 72       		.byte	0x72
 3819 03d4 00       		.sleb128 0
 3820 03d5 24       		.byte	0x24
 3821 03d6 9F       		.byte	0x9f
 3822 03d7 7A000000 		.4byte	.LVL62
 3823 03db 7E000000 		.4byte	.LVL63
 3824 03df 0500     		.2byte	0x5
 3825 03e1 4F       		.byte	0x4f
 3826 03e2 72       		.byte	0x72
 3827 03e3 00       		.sleb128 0
 3828 03e4 24       		.byte	0x24
 3829 03e5 9F       		.byte	0x9f
 3830 03e6 7E000000 		.4byte	.LVL63
 3831 03ea 82000000 		.4byte	.LVL64
 3832 03ee 0100     		.2byte	0x1
 3833 03f0 53       		.byte	0x53
 3834 03f1 82000000 		.4byte	.LVL64
 3835 03f5 84000000 		.4byte	.LVL65
 3836 03f9 0900     		.2byte	0x9
ARM GAS  /var/folders/7z/kps_xzfj7sn5l5gkyq8s9db00000gn/T//cc2C97ap.s 			page 69


 3837 03fb 71       		.byte	0x71
 3838 03fc 00       		.sleb128 0
 3839 03fd 08       		.byte	0x8
 3840 03fe FF       		.byte	0xff
 3841 03ff 1A       		.byte	0x1a
 3842 0400 72       		.byte	0x72
 3843 0401 00       		.sleb128 0
 3844 0402 24       		.byte	0x24
 3845 0403 9F       		.byte	0x9f
 3846 0404 00000000 		.4byte	0
 3847 0408 00000000 		.4byte	0
 3848              	.LLST13:
 3849 040c 00000000 		.4byte	.LVL68
 3850 0410 02000000 		.4byte	.LVL69
 3851 0414 0100     		.2byte	0x1
 3852 0416 50       		.byte	0x50
 3853 0417 02000000 		.4byte	.LVL69
 3854 041b 08000000 		.4byte	.LFE124
 3855 041f 0400     		.2byte	0x4
 3856 0421 F3       		.byte	0xf3
 3857 0422 01       		.uleb128 0x1
 3858 0423 50       		.byte	0x50
 3859 0424 9F       		.byte	0x9f
 3860 0425 00000000 		.4byte	0
 3861 0429 00000000 		.4byte	0
 3862              	.LLST14:
 3863 042d 00000000 		.4byte	.LVL68
 3864 0431 02000000 		.4byte	.LVL69
 3865 0435 0200     		.2byte	0x2
 3866 0437 30       		.byte	0x30
 3867 0438 9F       		.byte	0x9f
 3868 0439 02000000 		.4byte	.LVL69
 3869 043d 06000000 		.4byte	.LVL70
 3870 0441 0900     		.2byte	0x9
 3871 0443 70       		.byte	0x70
 3872 0444 00       		.sleb128 0
 3873 0445 40       		.byte	0x40
 3874 0446 42       		.byte	0x42
 3875 0447 24       		.byte	0x24
 3876 0448 1A       		.byte	0x1a
 3877 0449 30       		.byte	0x30
 3878 044a 2E       		.byte	0x2e
 3879 044b 9F       		.byte	0x9f
 3880 044c 00000000 		.4byte	0
 3881 0450 00000000 		.4byte	0
 3882              	.LLST15:
 3883 0454 00000000 		.4byte	.LVL73
 3884 0458 04000000 		.4byte	.LVL75
 3885 045c 0100     		.2byte	0x1
 3886 045e 51       		.byte	0x51
 3887 045f 04000000 		.4byte	.LVL75
 3888 0463 10000000 		.4byte	.LFE127
 3889 0467 0400     		.2byte	0x4
 3890 0469 F3       		.byte	0xf3
 3891 046a 01       		.uleb128 0x1
 3892 046b 51       		.byte	0x51
 3893 046c 9F       		.byte	0x9f
ARM GAS  /var/folders/7z/kps_xzfj7sn5l5gkyq8s9db00000gn/T//cc2C97ap.s 			page 70


 3894 046d 00000000 		.4byte	0
 3895 0471 00000000 		.4byte	0
 3896              	.LLST16:
 3897 0475 00000000 		.4byte	.LVL73
 3898 0479 02000000 		.4byte	.LVL74
 3899 047d 0200     		.2byte	0x2
 3900 047f 30       		.byte	0x30
 3901 0480 9F       		.byte	0x9f
 3902 0481 02000000 		.4byte	.LVL74
 3903 0485 0C000000 		.4byte	.LVL77
 3904 0489 0100     		.2byte	0x1
 3905 048b 53       		.byte	0x53
 3906 048c 0C000000 		.4byte	.LVL77
 3907 0490 10000000 		.4byte	.LFE127
 3908 0494 0100     		.2byte	0x1
 3909 0496 51       		.byte	0x51
 3910 0497 00000000 		.4byte	0
 3911 049b 00000000 		.4byte	0
 3912              	.LLST17:
 3913 049f 00000000 		.4byte	.LVL73
 3914 04a3 08000000 		.4byte	.LVL76
 3915 04a7 0200     		.2byte	0x2
 3916 04a9 30       		.byte	0x30
 3917 04aa 9F       		.byte	0x9f
 3918 04ab 08000000 		.4byte	.LVL76
 3919 04af 10000000 		.4byte	.LFE127
 3920 04b3 0900     		.2byte	0x9
 3921 04b5 F3       		.byte	0xf3
 3922 04b6 01       		.uleb128 0x1
 3923 04b7 51       		.byte	0x51
 3924 04b8 08       		.byte	0x8
 3925 04b9 FF       		.byte	0xff
 3926 04ba 1A       		.byte	0x1a
 3927 04bb 31       		.byte	0x31
 3928 04bc 1C       		.byte	0x1c
 3929 04bd 9F       		.byte	0x9f
 3930 04be 00000000 		.4byte	0
 3931 04c2 00000000 		.4byte	0
 3932              	.LLST18:
 3933 04c6 00000000 		.4byte	.LVL79
 3934 04ca 02000000 		.4byte	.LVL80
 3935 04ce 0100     		.2byte	0x1
 3936 04d0 50       		.byte	0x50
 3937 04d1 02000000 		.4byte	.LVL80
 3938 04d5 06000000 		.4byte	.LFE129
 3939 04d9 0400     		.2byte	0x4
 3940 04db F3       		.byte	0xf3
 3941 04dc 01       		.uleb128 0x1
 3942 04dd 50       		.byte	0x50
 3943 04de 9F       		.byte	0x9f
 3944 04df 00000000 		.4byte	0
 3945 04e3 00000000 		.4byte	0
 3946              	.LLST19:
 3947 04e7 00000000 		.4byte	.LVL84
 3948 04eb 34000000 		.4byte	.LVL95
 3949 04ef 0100     		.2byte	0x1
 3950 04f1 51       		.byte	0x51
ARM GAS  /var/folders/7z/kps_xzfj7sn5l5gkyq8s9db00000gn/T//cc2C97ap.s 			page 71


 3951 04f2 34000000 		.4byte	.LVL95
 3952 04f6 3C000000 		.4byte	.LVL97
 3953 04fa 0400     		.2byte	0x4
 3954 04fc F3       		.byte	0xf3
 3955 04fd 01       		.uleb128 0x1
 3956 04fe 51       		.byte	0x51
 3957 04ff 9F       		.byte	0x9f
 3958 0500 3C000000 		.4byte	.LVL97
 3959 0504 56000000 		.4byte	.LFE134
 3960 0508 0100     		.2byte	0x1
 3961 050a 51       		.byte	0x51
 3962 050b 00000000 		.4byte	0
 3963 050f 00000000 		.4byte	0
 3964              	.LLST20:
 3965 0513 00000000 		.4byte	.LVL84
 3966 0517 1E000000 		.4byte	.LVL91
 3967 051b 0100     		.2byte	0x1
 3968 051d 52       		.byte	0x52
 3969 051e 1E000000 		.4byte	.LVL91
 3970 0522 3C000000 		.4byte	.LVL97
 3971 0526 0400     		.2byte	0x4
 3972 0528 F3       		.byte	0xf3
 3973 0529 01       		.uleb128 0x1
 3974 052a 52       		.byte	0x52
 3975 052b 9F       		.byte	0x9f
 3976 052c 3C000000 		.4byte	.LVL97
 3977 0530 56000000 		.4byte	.LFE134
 3978 0534 0100     		.2byte	0x1
 3979 0536 52       		.byte	0x52
 3980 0537 00000000 		.4byte	0
 3981 053b 00000000 		.4byte	0
 3982              	.LLST21:
 3983 053f 00000000 		.4byte	.LVL84
 3984 0543 12000000 		.4byte	.LVL87
 3985 0547 0100     		.2byte	0x1
 3986 0549 53       		.byte	0x53
 3987 054a 12000000 		.4byte	.LVL87
 3988 054e 3C000000 		.4byte	.LVL97
 3989 0552 0400     		.2byte	0x4
 3990 0554 F3       		.byte	0xf3
 3991 0555 01       		.uleb128 0x1
 3992 0556 53       		.byte	0x53
 3993 0557 9F       		.byte	0x9f
 3994 0558 3C000000 		.4byte	.LVL97
 3995 055c 4C000000 		.4byte	.LVL100
 3996 0560 0100     		.2byte	0x1
 3997 0562 53       		.byte	0x53
 3998 0563 4C000000 		.4byte	.LVL100
 3999 0567 56000000 		.4byte	.LFE134
 4000 056b 0400     		.2byte	0x4
 4001 056d F3       		.byte	0xf3
 4002 056e 01       		.uleb128 0x1
 4003 056f 53       		.byte	0x53
 4004 0570 9F       		.byte	0x9f
 4005 0571 00000000 		.4byte	0
 4006 0575 00000000 		.4byte	0
 4007              	.LLST22:
ARM GAS  /var/folders/7z/kps_xzfj7sn5l5gkyq8s9db00000gn/T//cc2C97ap.s 			page 72


 4008 0579 00000000 		.4byte	.LVL84
 4009 057d 0C000000 		.4byte	.LVL85
 4010 0581 0200     		.2byte	0x2
 4011 0583 30       		.byte	0x30
 4012 0584 9F       		.byte	0x9f
 4013 0585 0C000000 		.4byte	.LVL85
 4014 0589 16000000 		.4byte	.LVL88
 4015 058d 0100     		.2byte	0x1
 4016 058f 55       		.byte	0x55
 4017 0590 16000000 		.4byte	.LVL88
 4018 0594 18000000 		.4byte	.LVL89
 4019 0598 0100     		.2byte	0x1
 4020 059a 54       		.byte	0x54
 4021 059b 18000000 		.4byte	.LVL89
 4022 059f 36000000 		.4byte	.LVL96
 4023 05a3 0100     		.2byte	0x1
 4024 05a5 53       		.byte	0x53
 4025 05a6 36000000 		.4byte	.LVL96
 4026 05aa 3C000000 		.4byte	.LVL97
 4027 05ae 0100     		.2byte	0x1
 4028 05b0 51       		.byte	0x51
 4029 05b1 3C000000 		.4byte	.LVL97
 4030 05b5 46000000 		.4byte	.LVL98
 4031 05b9 0200     		.2byte	0x2
 4032 05bb 30       		.byte	0x30
 4033 05bc 9F       		.byte	0x9f
 4034 05bd 46000000 		.4byte	.LVL98
 4035 05c1 50000000 		.4byte	.LVL101
 4036 05c5 0100     		.2byte	0x1
 4037 05c7 55       		.byte	0x55
 4038 05c8 50000000 		.4byte	.LVL101
 4039 05cc 52000000 		.4byte	.LVL102
 4040 05d0 0100     		.2byte	0x1
 4041 05d2 54       		.byte	0x54
 4042 05d3 52000000 		.4byte	.LVL102
 4043 05d7 56000000 		.4byte	.LFE134
 4044 05db 0100     		.2byte	0x1
 4045 05dd 53       		.byte	0x53
 4046 05de 00000000 		.4byte	0
 4047 05e2 00000000 		.4byte	0
 4048              	.LLST23:
 4049 05e6 00000000 		.4byte	.LVL84
 4050 05ea 0C000000 		.4byte	.LVL85
 4051 05ee 0200     		.2byte	0x2
 4052 05f0 30       		.byte	0x30
 4053 05f1 9F       		.byte	0x9f
 4054 05f2 0C000000 		.4byte	.LVL85
 4055 05f6 10000000 		.4byte	.LVL86
 4056 05fa 0500     		.2byte	0x5
 4057 05fc 37       		.byte	0x37
 4058 05fd 76       		.byte	0x76
 4059 05fe 00       		.sleb128 0
 4060 05ff 24       		.byte	0x24
 4061 0600 9F       		.byte	0x9f
 4062 0601 10000000 		.4byte	.LVL86
 4063 0605 16000000 		.4byte	.LVL88
 4064 0609 0100     		.2byte	0x1
ARM GAS  /var/folders/7z/kps_xzfj7sn5l5gkyq8s9db00000gn/T//cc2C97ap.s 			page 73


 4065 060b 54       		.byte	0x54
 4066 060c 2A000000 		.4byte	.LVL92
 4067 0610 2E000000 		.4byte	.LVL93
 4068 0614 0500     		.2byte	0x5
 4069 0616 4F       		.byte	0x4f
 4070 0617 72       		.byte	0x72
 4071 0618 00       		.sleb128 0
 4072 0619 24       		.byte	0x24
 4073 061a 9F       		.byte	0x9f
 4074 061b 2E000000 		.4byte	.LVL93
 4075 061f 32000000 		.4byte	.LVL94
 4076 0623 0100     		.2byte	0x1
 4077 0625 54       		.byte	0x54
 4078 0626 32000000 		.4byte	.LVL94
 4079 062a 34000000 		.4byte	.LVL95
 4080 062e 0900     		.2byte	0x9
 4081 0630 71       		.byte	0x71
 4082 0631 00       		.sleb128 0
 4083 0632 08       		.byte	0x8
 4084 0633 FF       		.byte	0xff
 4085 0634 1A       		.byte	0x1a
 4086 0635 72       		.byte	0x72
 4087 0636 00       		.sleb128 0
 4088 0637 24       		.byte	0x24
 4089 0638 9F       		.byte	0x9f
 4090 0639 3C000000 		.4byte	.LVL97
 4091 063d 46000000 		.4byte	.LVL98
 4092 0641 0200     		.2byte	0x2
 4093 0643 30       		.byte	0x30
 4094 0644 9F       		.byte	0x9f
 4095 0645 46000000 		.4byte	.LVL98
 4096 0649 4A000000 		.4byte	.LVL99
 4097 064d 0500     		.2byte	0x5
 4098 064f 37       		.byte	0x37
 4099 0650 74       		.byte	0x74
 4100 0651 00       		.sleb128 0
 4101 0652 24       		.byte	0x24
 4102 0653 9F       		.byte	0x9f
 4103 0654 4A000000 		.4byte	.LVL99
 4104 0658 50000000 		.4byte	.LVL101
 4105 065c 0100     		.2byte	0x1
 4106 065e 56       		.byte	0x56
 4107 065f 00000000 		.4byte	0
 4108 0663 00000000 		.4byte	0
 4109              	.LLST24:
 4110 0667 00000000 		.4byte	.LVL84
 4111 066b 1C000000 		.4byte	.LVL90
 4112 066f 0200     		.2byte	0x2
 4113 0671 30       		.byte	0x30
 4114 0672 9F       		.byte	0x9f
 4115 0673 1C000000 		.4byte	.LVL90
 4116 0677 32000000 		.4byte	.LVL94
 4117 067b 0900     		.2byte	0x9
 4118 067d 73       		.byte	0x73
 4119 067e 00       		.sleb128 0
 4120 067f 48       		.byte	0x48
 4121 0680 41       		.byte	0x41
ARM GAS  /var/folders/7z/kps_xzfj7sn5l5gkyq8s9db00000gn/T//cc2C97ap.s 			page 74


 4122 0681 24       		.byte	0x24
 4123 0682 1A       		.byte	0x1a
 4124 0683 44       		.byte	0x44
 4125 0684 25       		.byte	0x25
 4126 0685 9F       		.byte	0x9f
 4127 0686 3C000000 		.4byte	.LVL97
 4128 068a 56000000 		.4byte	.LFE134
 4129 068e 0200     		.2byte	0x2
 4130 0690 30       		.byte	0x30
 4131 0691 9F       		.byte	0x9f
 4132 0692 00000000 		.4byte	0
 4133 0696 00000000 		.4byte	0
 4134              	.LLST25:
 4135 069a 00000000 		.4byte	.LVL103
 4136 069e 04000000 		.4byte	.LVL105
 4137 06a2 0100     		.2byte	0x1
 4138 06a4 51       		.byte	0x51
 4139 06a5 04000000 		.4byte	.LVL105
 4140 06a9 10000000 		.4byte	.LFE135
 4141 06ad 0400     		.2byte	0x4
 4142 06af F3       		.byte	0xf3
 4143 06b0 01       		.uleb128 0x1
 4144 06b1 51       		.byte	0x51
 4145 06b2 9F       		.byte	0x9f
 4146 06b3 00000000 		.4byte	0
 4147 06b7 00000000 		.4byte	0
 4148              	.LLST26:
 4149 06bb 00000000 		.4byte	.LVL103
 4150 06bf 02000000 		.4byte	.LVL104
 4151 06c3 0200     		.2byte	0x2
 4152 06c5 30       		.byte	0x30
 4153 06c6 9F       		.byte	0x9f
 4154 06c7 02000000 		.4byte	.LVL104
 4155 06cb 0C000000 		.4byte	.LVL107
 4156 06cf 0100     		.2byte	0x1
 4157 06d1 53       		.byte	0x53
 4158 06d2 0C000000 		.4byte	.LVL107
 4159 06d6 10000000 		.4byte	.LFE135
 4160 06da 0100     		.2byte	0x1
 4161 06dc 51       		.byte	0x51
 4162 06dd 00000000 		.4byte	0
 4163 06e1 00000000 		.4byte	0
 4164              	.LLST27:
 4165 06e5 00000000 		.4byte	.LVL103
 4166 06e9 08000000 		.4byte	.LVL106
 4167 06ed 0200     		.2byte	0x2
 4168 06ef 30       		.byte	0x30
 4169 06f0 9F       		.byte	0x9f
 4170 06f1 08000000 		.4byte	.LVL106
 4171 06f5 10000000 		.4byte	.LFE135
 4172 06f9 0900     		.2byte	0x9
 4173 06fb F3       		.byte	0xf3
 4174 06fc 01       		.uleb128 0x1
 4175 06fd 51       		.byte	0x51
 4176 06fe 08       		.byte	0x8
 4177 06ff FF       		.byte	0xff
 4178 0700 1A       		.byte	0x1a
ARM GAS  /var/folders/7z/kps_xzfj7sn5l5gkyq8s9db00000gn/T//cc2C97ap.s 			page 75


 4179 0701 31       		.byte	0x31
 4180 0702 1C       		.byte	0x1c
 4181 0703 9F       		.byte	0x9f
 4182 0704 00000000 		.4byte	0
 4183 0708 00000000 		.4byte	0
 4184              	.LLST28:
 4185 070c 00000000 		.4byte	.LVL108
 4186 0710 0C000000 		.4byte	.LVL109
 4187 0714 0100     		.2byte	0x1
 4188 0716 51       		.byte	0x51
 4189 0717 0C000000 		.4byte	.LVL109
 4190 071b 16000000 		.4byte	.LFE136
 4191 071f 0400     		.2byte	0x4
 4192 0721 F3       		.byte	0xf3
 4193 0722 01       		.uleb128 0x1
 4194 0723 51       		.byte	0x51
 4195 0724 9F       		.byte	0x9f
 4196 0725 00000000 		.4byte	0
 4197 0729 00000000 		.4byte	0
 4198              	.LLST29:
 4199 072d 00000000 		.4byte	.LVL110
 4200 0731 08000000 		.4byte	.LVL113
 4201 0735 0100     		.2byte	0x1
 4202 0737 51       		.byte	0x51
 4203 0738 08000000 		.4byte	.LVL113
 4204 073c 0C000000 		.4byte	.LFE137
 4205 0740 0400     		.2byte	0x4
 4206 0742 F3       		.byte	0xf3
 4207 0743 01       		.uleb128 0x1
 4208 0744 51       		.byte	0x51
 4209 0745 9F       		.byte	0x9f
 4210 0746 00000000 		.4byte	0
 4211 074a 00000000 		.4byte	0
 4212              	.LLST30:
 4213 074e 00000000 		.4byte	.LVL110
 4214 0752 02000000 		.4byte	.LVL111
 4215 0756 0200     		.2byte	0x2
 4216 0758 30       		.byte	0x30
 4217 0759 9F       		.byte	0x9f
 4218 075a 02000000 		.4byte	.LVL111
 4219 075e 08000000 		.4byte	.LVL113
 4220 0762 0100     		.2byte	0x1
 4221 0764 53       		.byte	0x53
 4222 0765 08000000 		.4byte	.LVL113
 4223 0769 0C000000 		.4byte	.LFE137
 4224 076d 0100     		.2byte	0x1
 4225 076f 51       		.byte	0x51
 4226 0770 00000000 		.4byte	0
 4227 0774 00000000 		.4byte	0
 4228              	.LLST31:
 4229 0778 00000000 		.4byte	.LVL114
 4230 077c 08000000 		.4byte	.LVL117
 4231 0780 0100     		.2byte	0x1
 4232 0782 51       		.byte	0x51
 4233 0783 08000000 		.4byte	.LVL117
 4234 0787 0C000000 		.4byte	.LFE138
 4235 078b 0400     		.2byte	0x4
ARM GAS  /var/folders/7z/kps_xzfj7sn5l5gkyq8s9db00000gn/T//cc2C97ap.s 			page 76


 4236 078d F3       		.byte	0xf3
 4237 078e 01       		.uleb128 0x1
 4238 078f 51       		.byte	0x51
 4239 0790 9F       		.byte	0x9f
 4240 0791 00000000 		.4byte	0
 4241 0795 00000000 		.4byte	0
 4242              	.LLST32:
 4243 0799 00000000 		.4byte	.LVL114
 4244 079d 02000000 		.4byte	.LVL115
 4245 07a1 0200     		.2byte	0x2
 4246 07a3 30       		.byte	0x30
 4247 07a4 9F       		.byte	0x9f
 4248 07a5 02000000 		.4byte	.LVL115
 4249 07a9 08000000 		.4byte	.LVL117
 4250 07ad 0100     		.2byte	0x1
 4251 07af 53       		.byte	0x53
 4252 07b0 08000000 		.4byte	.LVL117
 4253 07b4 0C000000 		.4byte	.LFE138
 4254 07b8 0100     		.2byte	0x1
 4255 07ba 51       		.byte	0x51
 4256 07bb 00000000 		.4byte	0
 4257 07bf 00000000 		.4byte	0
 4258              	.LLST33:
 4259 07c3 00000000 		.4byte	.LVL119
 4260 07c7 02000000 		.4byte	.LVL120
 4261 07cb 0100     		.2byte	0x1
 4262 07cd 50       		.byte	0x50
 4263 07ce 02000000 		.4byte	.LVL120
 4264 07d2 08000000 		.4byte	.LFE140
 4265 07d6 0400     		.2byte	0x4
 4266 07d8 F3       		.byte	0xf3
 4267 07d9 01       		.uleb128 0x1
 4268 07da 50       		.byte	0x50
 4269 07db 9F       		.byte	0x9f
 4270 07dc 00000000 		.4byte	0
 4271 07e0 00000000 		.4byte	0
 4272              	.LLST34:
 4273 07e4 00000000 		.4byte	.LVL119
 4274 07e8 02000000 		.4byte	.LVL120
 4275 07ec 0200     		.2byte	0x2
 4276 07ee 30       		.byte	0x30
 4277 07ef 9F       		.byte	0x9f
 4278 07f0 02000000 		.4byte	.LVL120
 4279 07f4 06000000 		.4byte	.LVL121
 4280 07f8 0900     		.2byte	0x9
 4281 07fa 70       		.byte	0x70
 4282 07fb 00       		.sleb128 0
 4283 07fc 40       		.byte	0x40
 4284 07fd 42       		.byte	0x42
 4285 07fe 24       		.byte	0x24
 4286 07ff 1A       		.byte	0x1a
 4287 0800 30       		.byte	0x30
 4288 0801 2E       		.byte	0x2e
 4289 0802 9F       		.byte	0x9f
 4290 0803 00000000 		.4byte	0
 4291 0807 00000000 		.4byte	0
 4292              	.LLST35:
ARM GAS  /var/folders/7z/kps_xzfj7sn5l5gkyq8s9db00000gn/T//cc2C97ap.s 			page 77


 4293 080b 00000000 		.4byte	.LVL124
 4294 080f 14000000 		.4byte	.LVL126
 4295 0813 0100     		.2byte	0x1
 4296 0815 50       		.byte	0x50
 4297 0816 14000000 		.4byte	.LVL126
 4298 081a 1A000000 		.4byte	.LFE143
 4299 081e 0400     		.2byte	0x4
 4300 0820 F3       		.byte	0xf3
 4301 0821 01       		.uleb128 0x1
 4302 0822 50       		.byte	0x50
 4303 0823 9F       		.byte	0x9f
 4304 0824 00000000 		.4byte	0
 4305 0828 00000000 		.4byte	0
 4306              	.LLST36:
 4307 082c 00000000 		.4byte	.LVL124
 4308 0830 0E000000 		.4byte	.LVL125
 4309 0834 0100     		.2byte	0x1
 4310 0836 51       		.byte	0x51
 4311 0837 0E000000 		.4byte	.LVL125
 4312 083b 1A000000 		.4byte	.LFE143
 4313 083f 0400     		.2byte	0x4
 4314 0841 F3       		.byte	0xf3
 4315 0842 01       		.uleb128 0x1
 4316 0843 51       		.byte	0x51
 4317 0844 9F       		.byte	0x9f
 4318 0845 00000000 		.4byte	0
 4319 0849 00000000 		.4byte	0
 4320              	.LLST37:
 4321 084d 00000000 		.4byte	.LVL127
 4322 0851 02000000 		.4byte	.LVL128
 4323 0855 0100     		.2byte	0x1
 4324 0857 51       		.byte	0x51
 4325 0858 02000000 		.4byte	.LVL128
 4326 085c 1A000000 		.4byte	.LFE144
 4327 0860 0400     		.2byte	0x4
 4328 0862 F3       		.byte	0xf3
 4329 0863 01       		.uleb128 0x1
 4330 0864 51       		.byte	0x51
 4331 0865 9F       		.byte	0x9f
 4332 0866 00000000 		.4byte	0
 4333 086a 00000000 		.4byte	0
 4334              	.LLST38:
 4335 086e 00000000 		.4byte	.LVL127
 4336 0872 0A000000 		.4byte	.LVL130
 4337 0876 0100     		.2byte	0x1
 4338 0878 52       		.byte	0x52
 4339 0879 0A000000 		.4byte	.LVL130
 4340 087d 12000000 		.4byte	.LVL132
 4341 0881 0400     		.2byte	0x4
 4342 0883 F3       		.byte	0xf3
 4343 0884 01       		.uleb128 0x1
 4344 0885 52       		.byte	0x52
 4345 0886 9F       		.byte	0x9f
 4346 0887 12000000 		.4byte	.LVL132
 4347 088b 14000000 		.4byte	.LVL133
 4348 088f 0100     		.2byte	0x1
 4349 0891 52       		.byte	0x52
ARM GAS  /var/folders/7z/kps_xzfj7sn5l5gkyq8s9db00000gn/T//cc2C97ap.s 			page 78


 4350 0892 14000000 		.4byte	.LVL133
 4351 0896 1A000000 		.4byte	.LFE144
 4352 089a 0400     		.2byte	0x4
 4353 089c F3       		.byte	0xf3
 4354 089d 01       		.uleb128 0x1
 4355 089e 52       		.byte	0x52
 4356 089f 9F       		.byte	0x9f
 4357 08a0 00000000 		.4byte	0
 4358 08a4 00000000 		.4byte	0
 4359              	.LLST39:
 4360 08a8 00000000 		.4byte	.LVL127
 4361 08ac 02000000 		.4byte	.LVL128
 4362 08b0 0600     		.2byte	0x6
 4363 08b2 71       		.byte	0x71
 4364 08b3 00       		.sleb128 0
 4365 08b4 08       		.byte	0x8
 4366 08b5 FF       		.byte	0xff
 4367 08b6 1A       		.byte	0x1a
 4368 08b7 9F       		.byte	0x9f
 4369 08b8 02000000 		.4byte	.LVL128
 4370 08bc 06000000 		.4byte	.LVL129
 4371 08c0 0100     		.2byte	0x1
 4372 08c2 51       		.byte	0x51
 4373 08c3 06000000 		.4byte	.LVL129
 4374 08c7 0E000000 		.4byte	.LVL131
 4375 08cb 0100     		.2byte	0x1
 4376 08cd 53       		.byte	0x53
 4377 08ce 0E000000 		.4byte	.LVL131
 4378 08d2 12000000 		.4byte	.LVL132
 4379 08d6 0500     		.2byte	0x5
 4380 08d8 31       		.byte	0x31
 4381 08d9 71       		.byte	0x71
 4382 08da 00       		.sleb128 0
 4383 08db 24       		.byte	0x24
 4384 08dc 9F       		.byte	0x9f
 4385 08dd 12000000 		.4byte	.LVL132
 4386 08e1 16000000 		.4byte	.LVL134
 4387 08e5 0100     		.2byte	0x1
 4388 08e7 53       		.byte	0x53
 4389 08e8 16000000 		.4byte	.LVL134
 4390 08ec 1A000000 		.4byte	.LFE144
 4391 08f0 0500     		.2byte	0x5
 4392 08f2 31       		.byte	0x31
 4393 08f3 71       		.byte	0x71
 4394 08f4 00       		.sleb128 0
 4395 08f5 24       		.byte	0x24
 4396 08f6 9F       		.byte	0x9f
 4397 08f7 00000000 		.4byte	0
 4398 08fb 00000000 		.4byte	0
 4399              	.LLST40:
 4400 08ff 00000000 		.4byte	.LVL135
 4401 0903 08000000 		.4byte	.LVL137
 4402 0907 0100     		.2byte	0x1
 4403 0909 50       		.byte	0x50
 4404 090a 08000000 		.4byte	.LVL137
 4405 090e 0C000000 		.4byte	.LFE145
 4406 0912 0400     		.2byte	0x4
ARM GAS  /var/folders/7z/kps_xzfj7sn5l5gkyq8s9db00000gn/T//cc2C97ap.s 			page 79


 4407 0914 F3       		.byte	0xf3
 4408 0915 01       		.uleb128 0x1
 4409 0916 50       		.byte	0x50
 4410 0917 9F       		.byte	0x9f
 4411 0918 00000000 		.4byte	0
 4412 091c 00000000 		.4byte	0
 4413              	.LLST41:
 4414 0920 00000000 		.4byte	.LVL135
 4415 0924 02000000 		.4byte	.LVL136
 4416 0928 0200     		.2byte	0x2
 4417 092a 30       		.byte	0x30
 4418 092b 9F       		.byte	0x9f
 4419 092c 02000000 		.4byte	.LVL136
 4420 0930 0C000000 		.4byte	.LFE145
 4421 0934 0B00     		.2byte	0xb
 4422 0936 71       		.byte	0x71
 4423 0937 00       		.sleb128 0
 4424 0938 08       		.byte	0x8
 4425 0939 FF       		.byte	0xff
 4426 093a 1A       		.byte	0x1a
 4427 093b 73       		.byte	0x73
 4428 093c 00       		.sleb128 0
 4429 093d 1A       		.byte	0x1a
 4430 093e 30       		.byte	0x30
 4431 093f 2E       		.byte	0x2e
 4432 0940 9F       		.byte	0x9f
 4433 0941 00000000 		.4byte	0
 4434 0945 00000000 		.4byte	0
 4435              	.LLST42:
 4436 0949 00000000 		.4byte	.LVL138
 4437 094d 02000000 		.4byte	.LVL139
 4438 0951 0100     		.2byte	0x1
 4439 0953 51       		.byte	0x51
 4440 0954 02000000 		.4byte	.LVL139
 4441 0958 06000000 		.4byte	.LFE146
 4442 095c 0400     		.2byte	0x4
 4443 095e F3       		.byte	0xf3
 4444 095f 01       		.uleb128 0x1
 4445 0960 51       		.byte	0x51
 4446 0961 9F       		.byte	0x9f
 4447 0962 00000000 		.4byte	0
 4448 0966 00000000 		.4byte	0
 4449              	.LLST43:
 4450 096a 00000000 		.4byte	.LVL140
 4451 096e 04000000 		.4byte	.LVL142
 4452 0972 0100     		.2byte	0x1
 4453 0974 50       		.byte	0x50
 4454 0975 04000000 		.4byte	.LVL142
 4455 0979 1A000000 		.4byte	.LFE147
 4456 097d 0400     		.2byte	0x4
 4457 097f F3       		.byte	0xf3
 4458 0980 01       		.uleb128 0x1
 4459 0981 50       		.byte	0x50
 4460 0982 9F       		.byte	0x9f
 4461 0983 00000000 		.4byte	0
 4462 0987 00000000 		.4byte	0
 4463              	.LLST44:
ARM GAS  /var/folders/7z/kps_xzfj7sn5l5gkyq8s9db00000gn/T//cc2C97ap.s 			page 80


 4464 098b 00000000 		.4byte	.LVL140
 4465 098f 0C000000 		.4byte	.LVL143
 4466 0993 0100     		.2byte	0x1
 4467 0995 51       		.byte	0x51
 4468 0996 0C000000 		.4byte	.LVL143
 4469 099a 1A000000 		.4byte	.LFE147
 4470 099e 0400     		.2byte	0x4
 4471 09a0 F3       		.byte	0xf3
 4472 09a1 01       		.uleb128 0x1
 4473 09a2 51       		.byte	0x51
 4474 09a3 9F       		.byte	0x9f
 4475 09a4 00000000 		.4byte	0
 4476 09a8 00000000 		.4byte	0
 4477              	.LLST45:
 4478 09ac 00000000 		.4byte	.LVL140
 4479 09b0 18000000 		.4byte	.LVL144
 4480 09b4 0200     		.2byte	0x2
 4481 09b6 30       		.byte	0x30
 4482 09b7 9F       		.byte	0x9f
 4483 09b8 18000000 		.4byte	.LVL144
 4484 09bc 1A000000 		.4byte	.LFE147
 4485 09c0 0100     		.2byte	0x1
 4486 09c2 50       		.byte	0x50
 4487 09c3 00000000 		.4byte	0
 4488 09c7 00000000 		.4byte	0
 4489              	.LLST46:
 4490 09cb 00000000 		.4byte	.LVL140
 4491 09cf 0C000000 		.4byte	.LVL143
 4492 09d3 0900     		.2byte	0x9
 4493 09d5 71       		.byte	0x71
 4494 09d6 00       		.sleb128 0
 4495 09d7 38       		.byte	0x38
 4496 09d8 25       		.byte	0x25
 4497 09d9 0A       		.byte	0xa
 4498 09da FFFF     		.2byte	0xffff
 4499 09dc 1A       		.byte	0x1a
 4500 09dd 9F       		.byte	0x9f
 4501 09de 0C000000 		.4byte	.LVL143
 4502 09e2 1A000000 		.4byte	.LFE147
 4503 09e6 0A00     		.2byte	0xa
 4504 09e8 F3       		.byte	0xf3
 4505 09e9 01       		.uleb128 0x1
 4506 09ea 51       		.byte	0x51
 4507 09eb 38       		.byte	0x38
 4508 09ec 25       		.byte	0x25
 4509 09ed 0A       		.byte	0xa
 4510 09ee FFFF     		.2byte	0xffff
 4511 09f0 1A       		.byte	0x1a
 4512 09f1 9F       		.byte	0x9f
 4513 09f2 00000000 		.4byte	0
 4514 09f6 00000000 		.4byte	0
 4515              	.LLST47:
 4516 09fa 00000000 		.4byte	.LVL140
 4517 09fe 02000000 		.4byte	.LVL141
 4518 0a02 0200     		.2byte	0x2
 4519 0a04 30       		.byte	0x30
 4520 0a05 9F       		.byte	0x9f
ARM GAS  /var/folders/7z/kps_xzfj7sn5l5gkyq8s9db00000gn/T//cc2C97ap.s 			page 81


 4521 0a06 02000000 		.4byte	.LVL141
 4522 0a0a 18000000 		.4byte	.LVL144
 4523 0a0e 0B00     		.2byte	0xb
 4524 0a10 31       		.byte	0x31
 4525 0a11 71       		.byte	0x71
 4526 0a12 00       		.sleb128 0
 4527 0a13 08       		.byte	0x8
 4528 0a14 FF       		.byte	0xff
 4529 0a15 1A       		.byte	0x1a
 4530 0a16 24       		.byte	0x24
 4531 0a17 72       		.byte	0x72
 4532 0a18 00       		.sleb128 0
 4533 0a19 1A       		.byte	0x1a
 4534 0a1a 9F       		.byte	0x9f
 4535 0a1b 18000000 		.4byte	.LVL144
 4536 0a1f 1A000000 		.4byte	.LFE147
 4537 0a23 0C00     		.2byte	0xc
 4538 0a25 31       		.byte	0x31
 4539 0a26 F3       		.byte	0xf3
 4540 0a27 01       		.uleb128 0x1
 4541 0a28 51       		.byte	0x51
 4542 0a29 08       		.byte	0x8
 4543 0a2a FF       		.byte	0xff
 4544 0a2b 1A       		.byte	0x1a
 4545 0a2c 24       		.byte	0x24
 4546 0a2d 72       		.byte	0x72
 4547 0a2e 00       		.sleb128 0
 4548 0a2f 1A       		.byte	0x1a
 4549 0a30 9F       		.byte	0x9f
 4550 0a31 00000000 		.4byte	0
 4551 0a35 00000000 		.4byte	0
 4552              	.LLST48:
 4553 0a39 00000000 		.4byte	.LVL145
 4554 0a3d 04000000 		.4byte	.LVL146
 4555 0a41 0100     		.2byte	0x1
 4556 0a43 51       		.byte	0x51
 4557 0a44 04000000 		.4byte	.LVL146
 4558 0a48 08000000 		.4byte	.LFE148
 4559 0a4c 0400     		.2byte	0x4
 4560 0a4e F3       		.byte	0xf3
 4561 0a4f 01       		.uleb128 0x1
 4562 0a50 51       		.byte	0x51
 4563 0a51 9F       		.byte	0x9f
 4564 0a52 00000000 		.4byte	0
 4565 0a56 00000000 		.4byte	0
 4566              	.LLST49:
 4567 0a5a 00000000 		.4byte	.LVL145
 4568 0a5e 04000000 		.4byte	.LVL146
 4569 0a62 0500     		.2byte	0x5
 4570 0a64 71       		.byte	0x71
 4571 0a65 00       		.sleb128 0
 4572 0a66 38       		.byte	0x38
 4573 0a67 25       		.byte	0x25
 4574 0a68 9F       		.byte	0x9f
 4575 0a69 04000000 		.4byte	.LVL146
 4576 0a6d 08000000 		.4byte	.LFE148
 4577 0a71 0600     		.2byte	0x6
ARM GAS  /var/folders/7z/kps_xzfj7sn5l5gkyq8s9db00000gn/T//cc2C97ap.s 			page 82


 4578 0a73 F3       		.byte	0xf3
 4579 0a74 01       		.uleb128 0x1
 4580 0a75 51       		.byte	0x51
 4581 0a76 38       		.byte	0x38
 4582 0a77 25       		.byte	0x25
 4583 0a78 9F       		.byte	0x9f
 4584 0a79 00000000 		.4byte	0
 4585 0a7d 00000000 		.4byte	0
 4586              		.section	.debug_aranges,"",%progbits
 4587 0000 44010000 		.4byte	0x144
 4588 0004 0200     		.2byte	0x2
 4589 0006 00000000 		.4byte	.Ldebug_info0
 4590 000a 04       		.byte	0x4
 4591 000b 00       		.byte	0
 4592 000c 0000     		.2byte	0
 4593 000e 0000     		.2byte	0
 4594 0010 00000000 		.4byte	.LFB111
 4595 0014 1A000000 		.4byte	.LFE111-.LFB111
 4596 0018 00000000 		.4byte	.LFB112
 4597 001c 50000000 		.4byte	.LFE112-.LFB112
 4598 0020 00000000 		.4byte	.LFB113
 4599 0024 14000000 		.4byte	.LFE113-.LFB113
 4600 0028 00000000 		.4byte	.LFB114
 4601 002c 28000000 		.4byte	.LFE114-.LFB114
 4602 0030 00000000 		.4byte	.LFB115
 4603 0034 0C000000 		.4byte	.LFE115-.LFB115
 4604 0038 00000000 		.4byte	.LFB116
 4605 003c 14000000 		.4byte	.LFE116-.LFB116
 4606 0040 00000000 		.4byte	.LFB117
 4607 0044 10000000 		.4byte	.LFE117-.LFB117
 4608 0048 00000000 		.4byte	.LFB118
 4609 004c 06000000 		.4byte	.LFE118-.LFB118
 4610 0050 00000000 		.4byte	.LFB119
 4611 0054 0C000000 		.4byte	.LFE119-.LFB119
 4612 0058 00000000 		.4byte	.LFB120
 4613 005c 1C000000 		.4byte	.LFE120-.LFB120
 4614 0060 00000000 		.4byte	.LFB121
 4615 0064 1C000000 		.4byte	.LFE121-.LFB121
 4616 0068 00000000 		.4byte	.LFB122
 4617 006c 8C000000 		.4byte	.LFE122-.LFB122
 4618 0070 00000000 		.4byte	.LFB123
 4619 0074 0A000000 		.4byte	.LFE123-.LFB123
 4620 0078 00000000 		.4byte	.LFB124
 4621 007c 08000000 		.4byte	.LFE124-.LFB124
 4622 0080 00000000 		.4byte	.LFB125
 4623 0084 14000000 		.4byte	.LFE125-.LFB125
 4624 0088 00000000 		.4byte	.LFB126
 4625 008c 14000000 		.4byte	.LFE126-.LFB126
 4626 0090 00000000 		.4byte	.LFB127
 4627 0094 10000000 		.4byte	.LFE127-.LFB127
 4628 0098 00000000 		.4byte	.LFB128
 4629 009c 14000000 		.4byte	.LFE128-.LFB128
 4630 00a0 00000000 		.4byte	.LFB129
 4631 00a4 06000000 		.4byte	.LFE129-.LFB129
 4632 00a8 00000000 		.4byte	.LFB130
 4633 00ac 0C000000 		.4byte	.LFE130-.LFB130
 4634 00b0 00000000 		.4byte	.LFB131
ARM GAS  /var/folders/7z/kps_xzfj7sn5l5gkyq8s9db00000gn/T//cc2C97ap.s 			page 83


 4635 00b4 14000000 		.4byte	.LFE131-.LFB131
 4636 00b8 00000000 		.4byte	.LFB132
 4637 00bc 14000000 		.4byte	.LFE132-.LFB132
 4638 00c0 00000000 		.4byte	.LFB133
 4639 00c4 1C000000 		.4byte	.LFE133-.LFB133
 4640 00c8 00000000 		.4byte	.LFB134
 4641 00cc 56000000 		.4byte	.LFE134-.LFB134
 4642 00d0 00000000 		.4byte	.LFB135
 4643 00d4 10000000 		.4byte	.LFE135-.LFB135
 4644 00d8 00000000 		.4byte	.LFB136
 4645 00dc 16000000 		.4byte	.LFE136-.LFB136
 4646 00e0 00000000 		.4byte	.LFB137
 4647 00e4 0C000000 		.4byte	.LFE137-.LFB137
 4648 00e8 00000000 		.4byte	.LFB138
 4649 00ec 0C000000 		.4byte	.LFE138-.LFB138
 4650 00f0 00000000 		.4byte	.LFB139
 4651 00f4 0A000000 		.4byte	.LFE139-.LFB139
 4652 00f8 00000000 		.4byte	.LFB140
 4653 00fc 08000000 		.4byte	.LFE140-.LFB140
 4654 0100 00000000 		.4byte	.LFB141
 4655 0104 14000000 		.4byte	.LFE141-.LFB141
 4656 0108 00000000 		.4byte	.LFB142
 4657 010c 14000000 		.4byte	.LFE142-.LFB142
 4658 0110 00000000 		.4byte	.LFB143
 4659 0114 1A000000 		.4byte	.LFE143-.LFB143
 4660 0118 00000000 		.4byte	.LFB144
 4661 011c 1A000000 		.4byte	.LFE144-.LFB144
 4662 0120 00000000 		.4byte	.LFB145
 4663 0124 0C000000 		.4byte	.LFE145-.LFB145
 4664 0128 00000000 		.4byte	.LFB146
 4665 012c 06000000 		.4byte	.LFE146-.LFB146
 4666 0130 00000000 		.4byte	.LFB147
 4667 0134 1A000000 		.4byte	.LFE147-.LFB147
 4668 0138 00000000 		.4byte	.LFB148
 4669 013c 08000000 		.4byte	.LFE148-.LFB148
 4670 0140 00000000 		.4byte	0
 4671 0144 00000000 		.4byte	0
 4672              		.section	.debug_ranges,"",%progbits
 4673              	.Ldebug_ranges0:
 4674 0000 00000000 		.4byte	.LFB111
 4675 0004 1A000000 		.4byte	.LFE111
 4676 0008 00000000 		.4byte	.LFB112
 4677 000c 50000000 		.4byte	.LFE112
 4678 0010 00000000 		.4byte	.LFB113
 4679 0014 14000000 		.4byte	.LFE113
 4680 0018 00000000 		.4byte	.LFB114
 4681 001c 28000000 		.4byte	.LFE114
 4682 0020 00000000 		.4byte	.LFB115
 4683 0024 0C000000 		.4byte	.LFE115
 4684 0028 00000000 		.4byte	.LFB116
 4685 002c 14000000 		.4byte	.LFE116
 4686 0030 00000000 		.4byte	.LFB117
 4687 0034 10000000 		.4byte	.LFE117
 4688 0038 00000000 		.4byte	.LFB118
 4689 003c 06000000 		.4byte	.LFE118
 4690 0040 00000000 		.4byte	.LFB119
 4691 0044 0C000000 		.4byte	.LFE119
ARM GAS  /var/folders/7z/kps_xzfj7sn5l5gkyq8s9db00000gn/T//cc2C97ap.s 			page 84


 4692 0048 00000000 		.4byte	.LFB120
 4693 004c 1C000000 		.4byte	.LFE120
 4694 0050 00000000 		.4byte	.LFB121
 4695 0054 1C000000 		.4byte	.LFE121
 4696 0058 00000000 		.4byte	.LFB122
 4697 005c 8C000000 		.4byte	.LFE122
 4698 0060 00000000 		.4byte	.LFB123
 4699 0064 0A000000 		.4byte	.LFE123
 4700 0068 00000000 		.4byte	.LFB124
 4701 006c 08000000 		.4byte	.LFE124
 4702 0070 00000000 		.4byte	.LFB125
 4703 0074 14000000 		.4byte	.LFE125
 4704 0078 00000000 		.4byte	.LFB126
 4705 007c 14000000 		.4byte	.LFE126
 4706 0080 00000000 		.4byte	.LFB127
 4707 0084 10000000 		.4byte	.LFE127
 4708 0088 00000000 		.4byte	.LFB128
 4709 008c 14000000 		.4byte	.LFE128
 4710 0090 00000000 		.4byte	.LFB129
 4711 0094 06000000 		.4byte	.LFE129
 4712 0098 00000000 		.4byte	.LFB130
 4713 009c 0C000000 		.4byte	.LFE130
 4714 00a0 00000000 		.4byte	.LFB131
 4715 00a4 14000000 		.4byte	.LFE131
 4716 00a8 00000000 		.4byte	.LFB132
 4717 00ac 14000000 		.4byte	.LFE132
 4718 00b0 00000000 		.4byte	.LFB133
 4719 00b4 1C000000 		.4byte	.LFE133
 4720 00b8 00000000 		.4byte	.LFB134
 4721 00bc 56000000 		.4byte	.LFE134
 4722 00c0 00000000 		.4byte	.LFB135
 4723 00c4 10000000 		.4byte	.LFE135
 4724 00c8 00000000 		.4byte	.LFB136
 4725 00cc 16000000 		.4byte	.LFE136
 4726 00d0 00000000 		.4byte	.LFB137
 4727 00d4 0C000000 		.4byte	.LFE137
 4728 00d8 00000000 		.4byte	.LFB138
 4729 00dc 0C000000 		.4byte	.LFE138
 4730 00e0 00000000 		.4byte	.LFB139
 4731 00e4 0A000000 		.4byte	.LFE139
 4732 00e8 00000000 		.4byte	.LFB140
 4733 00ec 08000000 		.4byte	.LFE140
 4734 00f0 00000000 		.4byte	.LFB141
 4735 00f4 14000000 		.4byte	.LFE141
 4736 00f8 00000000 		.4byte	.LFB142
 4737 00fc 14000000 		.4byte	.LFE142
 4738 0100 00000000 		.4byte	.LFB143
 4739 0104 1A000000 		.4byte	.LFE143
 4740 0108 00000000 		.4byte	.LFB144
 4741 010c 1A000000 		.4byte	.LFE144
 4742 0110 00000000 		.4byte	.LFB145
 4743 0114 0C000000 		.4byte	.LFE145
 4744 0118 00000000 		.4byte	.LFB146
 4745 011c 06000000 		.4byte	.LFE146
 4746 0120 00000000 		.4byte	.LFB147
 4747 0124 1A000000 		.4byte	.LFE147
 4748 0128 00000000 		.4byte	.LFB148
ARM GAS  /var/folders/7z/kps_xzfj7sn5l5gkyq8s9db00000gn/T//cc2C97ap.s 			page 85


 4749 012c 08000000 		.4byte	.LFE148
 4750 0130 00000000 		.4byte	0
 4751 0134 00000000 		.4byte	0
 4752              		.section	.debug_line,"",%progbits
 4753              	.Ldebug_line0:
 4754 0000 52050000 		.section	.debug_str,"MS",%progbits,1
 4754      0200B701 
 4754      00000201 
 4754      FB0E0D00 
 4754      01010101 
 4755              	.LASF64:
 4756 0000 4E657753 		.ascii	"NewState\000"
 4756      74617465 
 4756      00
 4757              	.LASF107:
 4758 0009 4144435F 		.ascii	"ADC_IT\000"
 4758      495400
 4759              	.LASF44:
 4760 0010 4144435F 		.ascii	"ADC_ExternalTrigConv\000"
 4760      45787465 
 4760      726E616C 
 4760      54726967 
 4760      436F6E76 
 4761              	.LASF19:
 4762 0025 466C6167 		.ascii	"FlagStatus\000"
 4762      53746174 
 4762      757300
 4763              	.LASF52:
 4764 0030 4144435F 		.ascii	"ADC_CommonInitTypeDef\000"
 4764      436F6D6D 
 4764      6F6E496E 
 4764      69745479 
 4764      70654465 
 4765              	.LASF3:
 4766 0046 5F5F7569 		.ascii	"__uint8_t\000"
 4766      6E74385F 
 4766      7400
 4767              	.LASF25:
 4768 0050 534D5052 		.ascii	"SMPR2\000"
 4768      3200
 4769              	.LASF55:
 4770 0056 41444378 		.ascii	"ADCx\000"
 4770      00
 4771              	.LASF54:
 4772 005b 4144435F 		.ascii	"ADC_Init\000"
 4772      496E6974 
 4772      00
 4773              	.LASF21:
 4774 0064 44495341 		.ascii	"DISABLE\000"
 4774      424C4500 
 4775              	.LASF11:
 4776 006c 6C6F6E67 		.ascii	"long long unsigned int\000"
 4776      206C6F6E 
 4776      6720756E 
 4776      7369676E 
 4776      65642069 
 4777              	.LASF26:
ARM GAS  /var/folders/7z/kps_xzfj7sn5l5gkyq8s9db00000gn/T//cc2C97ap.s 			page 86


 4778 0083 4A4F4652 		.ascii	"JOFR1\000"
 4778      3100
 4779              	.LASF46:
 4780 0089 4144435F 		.ascii	"ADC_NbrOfConversion\000"
 4780      4E62724F 
 4780      66436F6E 
 4780      76657273 
 4780      696F6E00 
 4781              	.LASF119:
 4782 009d 49544D5F 		.ascii	"ITM_RxBuffer\000"
 4782      52784275 
 4782      66666572 
 4782      00
 4783              	.LASF33:
 4784 00aa 4A535152 		.ascii	"JSQR\000"
 4784      00
 4785              	.LASF10:
 4786 00af 6C6F6E67 		.ascii	"long long int\000"
 4786      206C6F6E 
 4786      6720696E 
 4786      7400
 4787              	.LASF0:
 4788 00bd 7369676E 		.ascii	"signed char\000"
 4788      65642063 
 4788      68617200 
 4789              	.LASF68:
 4790 00c9 4144435F 		.ascii	"ADC_AnalogWatchdogThresholdsConfig\000"
 4790      416E616C 
 4790      6F675761 
 4790      74636864 
 4790      6F675468 
 4791              	.LASF100:
 4792 00ec 4144435F 		.ascii	"ADC_ExternalTrigInjecConvEdge\000"
 4792      45787465 
 4792      726E616C 
 4792      54726967 
 4792      496E6A65 
 4793              	.LASF90:
 4794 010a 4144435F 		.ascii	"ADC_InjectedChannelConfig\000"
 4794      496E6A65 
 4794      63746564 
 4794      4368616E 
 4794      6E656C43 
 4795              	.LASF67:
 4796 0124 746D7072 		.ascii	"tmpreg\000"
 4796      656700
 4797              	.LASF86:
 4798 012b 4144435F 		.ascii	"ADC_GetConversionValue\000"
 4798      47657443 
 4798      6F6E7665 
 4798      7273696F 
 4798      6E56616C 
 4799              	.LASF63:
 4800 0142 4144435F 		.ascii	"ADC_Cmd\000"
 4800      436D6400 
 4801              	.LASF42:
 4802 014a 4144435F 		.ascii	"ADC_ContinuousConvMode\000"
ARM GAS  /var/folders/7z/kps_xzfj7sn5l5gkyq8s9db00000gn/T//cc2C97ap.s 			page 87


 4802      436F6E74 
 4802      696E756F 
 4802      7573436F 
 4802      6E764D6F 
 4803              	.LASF7:
 4804 0161 6C6F6E67 		.ascii	"long int\000"
 4804      20696E74 
 4804      00
 4805              	.LASF110:
 4806 016a 4144435F 		.ascii	"ADC_FLAG\000"
 4806      464C4147 
 4806      00
 4807              	.LASF88:
 4808 0173 4144435F 		.ascii	"ADC_DMARequestAfterLastTransferCmd\000"
 4808      444D4152 
 4808      65717565 
 4808      73744166 
 4808      7465724C 
 4809              	.LASF22:
 4810 0196 454E4142 		.ascii	"ENABLE\000"
 4810      4C4500
 4811              	.LASF116:
 4812 019d 6C69622F 		.ascii	"lib/ChibiOS_2.6.6/ext/stdperiph_stm32f4/src/stm32f4"
 4812      43686962 
 4812      694F535F 
 4812      322E362E 
 4812      362F6578 
 4813 01d0 78785F61 		.ascii	"xx_adc.c\000"
 4813      64632E63 
 4813      00
 4814              	.LASF14:
 4815 01d9 75696E74 		.ascii	"uint16_t\000"
 4815      31365F74 
 4815      00
 4816              	.LASF38:
 4817 01e2 4144435F 		.ascii	"ADC_TypeDef\000"
 4817      54797065 
 4817      44656600 
 4818              	.LASF56:
 4819 01ee 4144435F 		.ascii	"ADC_InitStruct\000"
 4819      496E6974 
 4819      53747275 
 4819      637400
 4820              	.LASF8:
 4821 01fd 5F5F7569 		.ascii	"__uint32_t\000"
 4821      6E743332 
 4821      5F7400
 4822              	.LASF82:
 4823 0208 4144435F 		.ascii	"ADC_DiscModeChannelCountConfig\000"
 4823      44697363 
 4823      4D6F6465 
 4823      4368616E 
 4823      6E656C43 
 4824              	.LASF59:
 4825 0227 4144435F 		.ascii	"ADC_StructInit\000"
 4825      53747275 
 4825      6374496E 
ARM GAS  /var/folders/7z/kps_xzfj7sn5l5gkyq8s9db00000gn/T//cc2C97ap.s 			page 88


 4825      697400
 4826              	.LASF71:
 4827 0236 4144435F 		.ascii	"ADC_AnalogWatchdogSingleChannelConfig\000"
 4827      416E616C 
 4827      6F675761 
 4827      74636864 
 4827      6F675369 
 4828              	.LASF70:
 4829 025c 4C6F7754 		.ascii	"LowThreshold\000"
 4829      68726573 
 4829      686F6C64 
 4829      00
 4830              	.LASF117:
 4831 0269 2F557365 		.ascii	"/Users/Baram/oroca_bldc_dev/oroca_bldc/\000"
 4831      72732F42 
 4831      6172616D 
 4831      2F6F726F 
 4831      63615F62 
 4832              	.LASF23:
 4833 0291 46756E63 		.ascii	"FunctionalState\000"
 4833      74696F6E 
 4833      616C5374 
 4833      61746500 
 4834              	.LASF20:
 4835 02a1 49545374 		.ascii	"ITStatus\000"
 4835      61747573 
 4835      00
 4836              	.LASF104:
 4837 02aa 4144435F 		.ascii	"ADC_InjectedDiscModeCmd\000"
 4837      496E6A65 
 4837      63746564 
 4837      44697363 
 4837      4D6F6465 
 4838              	.LASF12:
 4839 02c2 756E7369 		.ascii	"unsigned int\000"
 4839      676E6564 
 4839      20696E74 
 4839      00
 4840              	.LASF106:
 4841 02cf 4144435F 		.ascii	"ADC_ITConfig\000"
 4841      4954436F 
 4841      6E666967 
 4841      00
 4842              	.LASF9:
 4843 02dc 6C6F6E67 		.ascii	"long unsigned int\000"
 4843      20756E73 
 4843      69676E65 
 4843      6420696E 
 4843      7400
 4844              	.LASF73:
 4845 02ee 4144435F 		.ascii	"ADC_TempSensorVrefintCmd\000"
 4845      54656D70 
 4845      53656E73 
 4845      6F725672 
 4845      6566696E 
 4846              	.LASF50:
 4847 0307 4144435F 		.ascii	"ADC_DMAAccessMode\000"
ARM GAS  /var/folders/7z/kps_xzfj7sn5l5gkyq8s9db00000gn/T//cc2C97ap.s 			page 89


 4847      444D4141 
 4847      63636573 
 4847      734D6F64 
 4847      6500
 4848              	.LASF101:
 4849 0319 4144435F 		.ascii	"ADC_SoftwareStartInjectedConv\000"
 4849      536F6674 
 4849      77617265 
 4849      53746172 
 4849      74496E6A 
 4850              	.LASF5:
 4851 0337 73686F72 		.ascii	"short unsigned int\000"
 4851      7420756E 
 4851      7369676E 
 4851      65642069 
 4851      6E7400
 4852              	.LASF62:
 4853 034a 4144435F 		.ascii	"ADC_CommonStructInit\000"
 4853      436F6D6D 
 4853      6F6E5374 
 4853      72756374 
 4853      496E6974 
 4854              	.LASF75:
 4855 035f 4144435F 		.ascii	"ADC_RegularChannelConfig\000"
 4855      52656775 
 4855      6C617243 
 4855      68616E6E 
 4855      656C436F 
 4856              	.LASF69:
 4857 0378 48696768 		.ascii	"HighThreshold\000"
 4857      54687265 
 4857      73686F6C 
 4857      6400
 4858              	.LASF57:
 4859 0386 746D7072 		.ascii	"tmpreg1\000"
 4859      65673100 
 4860              	.LASF58:
 4861 038e 746D7072 		.ascii	"tmpreg2\000"
 4861      65673200 
 4862              	.LASF91:
 4863 0396 746D7072 		.ascii	"tmpreg3\000"
 4863      65673300 
 4864              	.LASF53:
 4865 039e 4144435F 		.ascii	"ADC_DeInit\000"
 4865      4465496E 
 4865      697400
 4866              	.LASF81:
 4867 03a9 4144435F 		.ascii	"ADC_ContinuousModeCmd\000"
 4867      436F6E74 
 4867      696E756F 
 4867      75734D6F 
 4867      6465436D 
 4868              	.LASF111:
 4869 03bf 4144435F 		.ascii	"ADC_ClearFlag\000"
 4869      436C6561 
 4869      72466C61 
 4869      6700
ARM GAS  /var/folders/7z/kps_xzfj7sn5l5gkyq8s9db00000gn/T//cc2C97ap.s 			page 90


 4870              	.LASF27:
 4871 03cd 4A4F4652 		.ascii	"JOFR2\000"
 4871      3200
 4872              	.LASF28:
 4873 03d3 4A4F4652 		.ascii	"JOFR3\000"
 4873      3300
 4874              	.LASF99:
 4875 03d9 4144435F 		.ascii	"ADC_ExternalTrigInjectedConvEdgeConfig\000"
 4875      45787465 
 4875      726E616C 
 4875      54726967 
 4875      496E6A65 
 4876              	.LASF83:
 4877 0400 4E756D62 		.ascii	"Number\000"
 4877      657200
 4878              	.LASF118:
 4879 0407 4144435F 		.ascii	"ADC_GetMultiModeConversionValue\000"
 4879      4765744D 
 4879      756C7469 
 4879      4D6F6465 
 4879      436F6E76 
 4880              	.LASF17:
 4881 0427 73697A65 		.ascii	"sizetype\000"
 4881      74797065 
 4881      00
 4882              	.LASF87:
 4883 0430 4144435F 		.ascii	"ADC_DMACmd\000"
 4883      444D4143 
 4883      6D6400
 4884              	.LASF39:
 4885 043b 4144435F 		.ascii	"ADC_Common_TypeDef\000"
 4885      436F6D6D 
 4885      6F6E5F54 
 4885      79706544 
 4885      656600
 4886              	.LASF98:
 4887 044e 4144435F 		.ascii	"ADC_ExternalTrigInjecConv\000"
 4887      45787465 
 4887      726E616C 
 4887      54726967 
 4887      496E6A65 
 4888              	.LASF92:
 4889 0468 4144435F 		.ascii	"ADC_InjectedSequencerLengthConfig\000"
 4889      496E6A65 
 4889      63746564 
 4889      53657175 
 4889      656E6365 
 4890              	.LASF66:
 4891 048a 4144435F 		.ascii	"ADC_AnalogWatchdog\000"
 4891      416E616C 
 4891      6F675761 
 4891      74636864 
 4891      6F6700
 4892              	.LASF24:
 4893 049d 534D5052 		.ascii	"SMPR1\000"
 4893      3100
 4894              	.LASF77:
ARM GAS  /var/folders/7z/kps_xzfj7sn5l5gkyq8s9db00000gn/T//cc2C97ap.s 			page 91


 4895 04a3 4144435F 		.ascii	"ADC_SampleTime\000"
 4895      53616D70 
 4895      6C655469 
 4895      6D6500
 4896              	.LASF120:
 4897 04b2 5243435F 		.ascii	"RCC_APB2PeriphResetCmd\000"
 4897      41504232 
 4897      50657269 
 4897      70685265 
 4897      73657443 
 4898              	.LASF94:
 4899 04c9 4144435F 		.ascii	"ADC_SetInjectedOffset\000"
 4899      53657449 
 4899      6E6A6563 
 4899      7465644F 
 4899      66667365 
 4900              	.LASF30:
 4901 04df 53515231 		.ascii	"SQR1\000"
 4901      00
 4902              	.LASF31:
 4903 04e4 53515232 		.ascii	"SQR2\000"
 4903      00
 4904              	.LASF32:
 4905 04e9 53515233 		.ascii	"SQR3\000"
 4905      00
 4906              	.LASF108:
 4907 04ee 69746D61 		.ascii	"itmask\000"
 4907      736B00
 4908              	.LASF114:
 4909 04f5 4144435F 		.ascii	"ADC_ClearITPendingBit\000"
 4909      436C6561 
 4909      72495450 
 4909      656E6469 
 4909      6E674269 
 4910              	.LASF76:
 4911 050b 52616E6B 		.ascii	"Rank\000"
 4911      00
 4912              	.LASF72:
 4913 0510 4144435F 		.ascii	"ADC_Channel\000"
 4913      4368616E 
 4913      6E656C00 
 4914              	.LASF18:
 4915 051c 52455345 		.ascii	"RESET\000"
 4915      5400
 4916              	.LASF95:
 4917 0522 4144435F 		.ascii	"ADC_InjectedChannel\000"
 4917      496E6A65 
 4917      63746564 
 4917      4368616E 
 4917      6E656C00 
 4918              	.LASF102:
 4919 0536 4144435F 		.ascii	"ADC_GetSoftwareStartInjectedConvCmdStatus\000"
 4919      47657453 
 4919      6F667477 
 4919      61726553 
 4919      74617274 
 4920              	.LASF97:
ARM GAS  /var/folders/7z/kps_xzfj7sn5l5gkyq8s9db00000gn/T//cc2C97ap.s 			page 92


 4921 0560 4144435F 		.ascii	"ADC_ExternalTrigInjectedConvConfig\000"
 4921      45787465 
 4921      726E616C 
 4921      54726967 
 4921      496E6A65 
 4922              	.LASF61:
 4923 0583 4144435F 		.ascii	"ADC_CommonInitStruct\000"
 4923      436F6D6D 
 4923      6F6E496E 
 4923      69745374 
 4923      72756374 
 4924              	.LASF15:
 4925 0598 696E7433 		.ascii	"int32_t\000"
 4925      325F7400 
 4926              	.LASF1:
 4927 05a0 756E7369 		.ascii	"unsigned char\000"
 4927      676E6564 
 4927      20636861 
 4927      7200
 4928              	.LASF2:
 4929 05ae 73686F72 		.ascii	"short int\000"
 4929      7420696E 
 4929      7400
 4930              	.LASF48:
 4931 05b8 4144435F 		.ascii	"ADC_Mode\000"
 4931      4D6F6465 
 4931      00
 4932              	.LASF115:
 4933 05c1 474E5520 		.ascii	"GNU C 4.9.3 20150303 (release) [ARM/embedded-4_9-br"
 4933      4320342E 
 4933      392E3320 
 4933      32303135 
 4933      30333033 
 4934 05f4 616E6368 		.ascii	"anch revision 221220] -mcpu=cortex-m4 -mfloat-abi=h"
 4934      20726576 
 4934      6973696F 
 4934      6E203232 
 4934      31323230 
 4935 0627 61726420 		.ascii	"ard -mfpu=fpv4-sp-d16 -mno-thumb-interwork -mthumb "
 4935      2D6D6670 
 4935      753D6670 
 4935      76342D73 
 4935      702D6431 
 4936 065a 2D676764 		.ascii	"-ggdb -O2 -std=gnu99 -fomit-frame-pointer -falign-f"
 4936      62202D4F 
 4936      32202D73 
 4936      74643D67 
 4936      6E753939 
 4937 068d 756E6374 		.ascii	"unctions=16 -ffunction-sections -fdata-sections -fn"
 4937      696F6E73 
 4937      3D313620 
 4937      2D666675 
 4937      6E637469 
 4938 06c0 6F2D636F 		.ascii	"o-common -fsingle-precision-constant\000"
 4938      6D6D6F6E 
 4938      202D6673 
 4938      696E676C 
ARM GAS  /var/folders/7z/kps_xzfj7sn5l5gkyq8s9db00000gn/T//cc2C97ap.s 			page 93


 4938      652D7072 
 4939              	.LASF43:
 4940 06e5 4144435F 		.ascii	"ADC_ExternalTrigConvEdge\000"
 4940      45787465 
 4940      726E616C 
 4940      54726967 
 4940      436F6E76 
 4941              	.LASF41:
 4942 06fe 4144435F 		.ascii	"ADC_ScanConvMode\000"
 4942      5363616E 
 4942      436F6E76 
 4942      4D6F6465 
 4942      00
 4943              	.LASF29:
 4944 070f 4A4F4652 		.ascii	"JOFR4\000"
 4944      3400
 4945              	.LASF47:
 4946 0715 4144435F 		.ascii	"ADC_InitTypeDef\000"
 4946      496E6974 
 4946      54797065 
 4946      44656600 
 4947              	.LASF112:
 4948 0725 4144435F 		.ascii	"ADC_GetITStatus\000"
 4948      47657449 
 4948      54537461 
 4948      74757300 
 4949              	.LASF16:
 4950 0735 75696E74 		.ascii	"uint32_t\000"
 4950      33325F74 
 4950      00
 4951              	.LASF45:
 4952 073e 4144435F 		.ascii	"ADC_DataAlign\000"
 4952      44617461 
 4952      416C6967 
 4952      6E00
 4953              	.LASF103:
 4954 074c 4144435F 		.ascii	"ADC_AutoInjectedConvCmd\000"
 4954      4175746F 
 4954      496E6A65 
 4954      63746564 
 4954      436F6E76 
 4955              	.LASF80:
 4956 0764 4144435F 		.ascii	"ADC_EOCOnEachRegularChannelCmd\000"
 4956      454F434F 
 4956      6E456163 
 4956      68526567 
 4956      756C6172 
 4957              	.LASF49:
 4958 0783 4144435F 		.ascii	"ADC_Prescaler\000"
 4958      50726573 
 4958      63616C65 
 4958      7200
 4959              	.LASF4:
 4960 0791 5F5F7569 		.ascii	"__uint16_t\000"
 4960      6E743136 
 4960      5F7400
 4961              	.LASF60:
ARM GAS  /var/folders/7z/kps_xzfj7sn5l5gkyq8s9db00000gn/T//cc2C97ap.s 			page 94


 4962 079c 4144435F 		.ascii	"ADC_CommonInit\000"
 4962      436F6D6D 
 4962      6F6E496E 
 4962      697400
 4963              	.LASF113:
 4964 07ab 656E6162 		.ascii	"enablestatus\000"
 4964      6C657374 
 4964      61747573 
 4964      00
 4965              	.LASF6:
 4966 07b8 5F5F696E 		.ascii	"__int32_t\000"
 4966      7433325F 
 4966      7400
 4967              	.LASF85:
 4968 07c2 4144435F 		.ascii	"ADC_GetSoftwareStartConvStatus\000"
 4968      47657453 
 4968      6F667477 
 4968      61726553 
 4968      74617274 
 4969              	.LASF89:
 4970 07e1 4144435F 		.ascii	"ADC_MultiModeDMARequestAfterLastTransferCmd\000"
 4970      4D756C74 
 4970      694D6F64 
 4970      65444D41 
 4970      52657175 
 4971              	.LASF93:
 4972 080d 4C656E67 		.ascii	"Length\000"
 4972      746800
 4973              	.LASF84:
 4974 0814 4144435F 		.ascii	"ADC_DiscModeCmd\000"
 4974      44697363 
 4974      4D6F6465 
 4974      436D6400 
 4975              	.LASF65:
 4976 0824 4144435F 		.ascii	"ADC_AnalogWatchdogCmd\000"
 4976      416E616C 
 4976      6F675761 
 4976      74636864 
 4976      6F67436D 
 4977              	.LASF96:
 4978 083a 4F666673 		.ascii	"Offset\000"
 4978      657400
 4979              	.LASF13:
 4980 0841 75696E74 		.ascii	"uint8_t\000"
 4980      385F7400 
 4981              	.LASF109:
 4982 0849 4144435F 		.ascii	"ADC_GetFlagStatus\000"
 4982      47657446 
 4982      6C616753 
 4982      74617475 
 4982      7300
 4983              	.LASF34:
 4984 085b 4A445231 		.ascii	"JDR1\000"
 4984      00
 4985              	.LASF35:
 4986 0860 4A445232 		.ascii	"JDR2\000"
 4986      00
ARM GAS  /var/folders/7z/kps_xzfj7sn5l5gkyq8s9db00000gn/T//cc2C97ap.s 			page 95


 4987              	.LASF36:
 4988 0865 4A445233 		.ascii	"JDR3\000"
 4988      00
 4989              	.LASF37:
 4990 086a 4A445234 		.ascii	"JDR4\000"
 4990      00
 4991              	.LASF79:
 4992 086f 62697473 		.ascii	"bitstatus\000"
 4992      74617475 
 4992      7300
 4993              	.LASF40:
 4994 0879 4144435F 		.ascii	"ADC_Resolution\000"
 4994      5265736F 
 4994      6C757469 
 4994      6F6E00
 4995              	.LASF105:
 4996 0888 4144435F 		.ascii	"ADC_GetInjectedConversionValue\000"
 4996      47657449 
 4996      6E6A6563 
 4996      74656443 
 4996      6F6E7665 
 4997              	.LASF78:
 4998 08a7 4144435F 		.ascii	"ADC_SoftwareStartConv\000"
 4998      536F6674 
 4998      77617265 
 4998      53746172 
 4998      74436F6E 
 4999              	.LASF51:
 5000 08bd 4144435F 		.ascii	"ADC_TwoSamplingDelay\000"
 5000      54776F53 
 5000      616D706C 
 5000      696E6744 
 5000      656C6179 
 5001              	.LASF74:
 5002 08d2 4144435F 		.ascii	"ADC_VBATCmd\000"
 5002      56424154 
 5002      436D6400 
 5003              		.ident	"GCC: (GNU Tools for ARM Embedded Processors) 4.9.3 20150303 (release) [ARM/embedded-4_9-br
ARM GAS  /var/folders/7z/kps_xzfj7sn5l5gkyq8s9db00000gn/T//cc2C97ap.s 			page 96


DEFINED SYMBOLS
                            *ABS*:0000000000000000 stm32f4xx_adc.c
/var/folders/7z/kps_xzfj7sn5l5gkyq8s9db00000gn/T//cc2C97ap.s:21     .text.ADC_DeInit:0000000000000000 $t
/var/folders/7z/kps_xzfj7sn5l5gkyq8s9db00000gn/T//cc2C97ap.s:27     .text.ADC_DeInit:0000000000000000 ADC_DeInit
/var/folders/7z/kps_xzfj7sn5l5gkyq8s9db00000gn/T//cc2C97ap.s:58     .text.ADC_Init:0000000000000000 $t
/var/folders/7z/kps_xzfj7sn5l5gkyq8s9db00000gn/T//cc2C97ap.s:64     .text.ADC_Init:0000000000000000 ADC_Init
/var/folders/7z/kps_xzfj7sn5l5gkyq8s9db00000gn/T//cc2C97ap.s:138    .text.ADC_Init:000000000000004c $d
/var/folders/7z/kps_xzfj7sn5l5gkyq8s9db00000gn/T//cc2C97ap.s:143    .text.ADC_StructInit:0000000000000000 $t
/var/folders/7z/kps_xzfj7sn5l5gkyq8s9db00000gn/T//cc2C97ap.s:149    .text.ADC_StructInit:0000000000000000 ADC_StructInit
/var/folders/7z/kps_xzfj7sn5l5gkyq8s9db00000gn/T//cc2C97ap.s:179    .text.ADC_CommonInit:0000000000000000 $t
/var/folders/7z/kps_xzfj7sn5l5gkyq8s9db00000gn/T//cc2C97ap.s:185    .text.ADC_CommonInit:0000000000000000 ADC_CommonInit
/var/folders/7z/kps_xzfj7sn5l5gkyq8s9db00000gn/T//cc2C97ap.s:235    .text.ADC_CommonInit:0000000000000020 $d
/var/folders/7z/kps_xzfj7sn5l5gkyq8s9db00000gn/T//cc2C97ap.s:241    .text.ADC_CommonStructInit:0000000000000000 $t
/var/folders/7z/kps_xzfj7sn5l5gkyq8s9db00000gn/T//cc2C97ap.s:247    .text.ADC_CommonStructInit:0000000000000000 ADC_CommonStructInit
/var/folders/7z/kps_xzfj7sn5l5gkyq8s9db00000gn/T//cc2C97ap.s:269    .text.ADC_Cmd:0000000000000000 $t
/var/folders/7z/kps_xzfj7sn5l5gkyq8s9db00000gn/T//cc2C97ap.s:275    .text.ADC_Cmd:0000000000000000 ADC_Cmd
/var/folders/7z/kps_xzfj7sn5l5gkyq8s9db00000gn/T//cc2C97ap.s:300    .text.ADC_AnalogWatchdogCmd:0000000000000000 $t
/var/folders/7z/kps_xzfj7sn5l5gkyq8s9db00000gn/T//cc2C97ap.s:306    .text.ADC_AnalogWatchdogCmd:0000000000000000 ADC_AnalogWatchdogCmd
/var/folders/7z/kps_xzfj7sn5l5gkyq8s9db00000gn/T//cc2C97ap.s:332    .text.ADC_AnalogWatchdogThresholdsConfig:0000000000000000 $t
/var/folders/7z/kps_xzfj7sn5l5gkyq8s9db00000gn/T//cc2C97ap.s:338    .text.ADC_AnalogWatchdogThresholdsConfig:0000000000000000 ADC_AnalogWatchdogThresholdsConfig
/var/folders/7z/kps_xzfj7sn5l5gkyq8s9db00000gn/T//cc2C97ap.s:355    .text.ADC_AnalogWatchdogSingleChannelConfig:0000000000000000 $t
/var/folders/7z/kps_xzfj7sn5l5gkyq8s9db00000gn/T//cc2C97ap.s:361    .text.ADC_AnalogWatchdogSingleChannelConfig:0000000000000000 ADC_AnalogWatchdogSingleChannelConfig
/var/folders/7z/kps_xzfj7sn5l5gkyq8s9db00000gn/T//cc2C97ap.s:385    .text.ADC_TempSensorVrefintCmd:0000000000000000 $t
/var/folders/7z/kps_xzfj7sn5l5gkyq8s9db00000gn/T//cc2C97ap.s:391    .text.ADC_TempSensorVrefintCmd:0000000000000000 ADC_TempSensorVrefintCmd
/var/folders/7z/kps_xzfj7sn5l5gkyq8s9db00000gn/T//cc2C97ap.s:416    .text.ADC_TempSensorVrefintCmd:0000000000000018 $d
/var/folders/7z/kps_xzfj7sn5l5gkyq8s9db00000gn/T//cc2C97ap.s:421    .text.ADC_VBATCmd:0000000000000000 $t
/var/folders/7z/kps_xzfj7sn5l5gkyq8s9db00000gn/T//cc2C97ap.s:427    .text.ADC_VBATCmd:0000000000000000 ADC_VBATCmd
/var/folders/7z/kps_xzfj7sn5l5gkyq8s9db00000gn/T//cc2C97ap.s:452    .text.ADC_VBATCmd:0000000000000018 $d
/var/folders/7z/kps_xzfj7sn5l5gkyq8s9db00000gn/T//cc2C97ap.s:457    .text.ADC_RegularChannelConfig:0000000000000000 $t
/var/folders/7z/kps_xzfj7sn5l5gkyq8s9db00000gn/T//cc2C97ap.s:463    .text.ADC_RegularChannelConfig:0000000000000000 ADC_RegularChannelConfig
/var/folders/7z/kps_xzfj7sn5l5gkyq8s9db00000gn/T//cc2C97ap.s:637    .text.ADC_SoftwareStartConv:0000000000000000 $t
/var/folders/7z/kps_xzfj7sn5l5gkyq8s9db00000gn/T//cc2C97ap.s:643    .text.ADC_SoftwareStartConv:0000000000000000 ADC_SoftwareStartConv
/var/folders/7z/kps_xzfj7sn5l5gkyq8s9db00000gn/T//cc2C97ap.s:660    .text.ADC_GetSoftwareStartConvStatus:0000000000000000 $t
/var/folders/7z/kps_xzfj7sn5l5gkyq8s9db00000gn/T//cc2C97ap.s:666    .text.ADC_GetSoftwareStartConvStatus:0000000000000000 ADC_GetSoftwareStartConvStatus
/var/folders/7z/kps_xzfj7sn5l5gkyq8s9db00000gn/T//cc2C97ap.s:685    .text.ADC_EOCOnEachRegularChannelCmd:0000000000000000 $t
/var/folders/7z/kps_xzfj7sn5l5gkyq8s9db00000gn/T//cc2C97ap.s:691    .text.ADC_EOCOnEachRegularChannelCmd:0000000000000000 ADC_EOCOnEachRegularChannelCmd
/var/folders/7z/kps_xzfj7sn5l5gkyq8s9db00000gn/T//cc2C97ap.s:716    .text.ADC_ContinuousModeCmd:0000000000000000 $t
/var/folders/7z/kps_xzfj7sn5l5gkyq8s9db00000gn/T//cc2C97ap.s:722    .text.ADC_ContinuousModeCmd:0000000000000000 ADC_ContinuousModeCmd
/var/folders/7z/kps_xzfj7sn5l5gkyq8s9db00000gn/T//cc2C97ap.s:747    .text.ADC_DiscModeChannelCountConfig:0000000000000000 $t
/var/folders/7z/kps_xzfj7sn5l5gkyq8s9db00000gn/T//cc2C97ap.s:753    .text.ADC_DiscModeChannelCountConfig:0000000000000000 ADC_DiscModeChannelCountConfig
/var/folders/7z/kps_xzfj7sn5l5gkyq8s9db00000gn/T//cc2C97ap.s:780    .text.ADC_DiscModeCmd:0000000000000000 $t
/var/folders/7z/kps_xzfj7sn5l5gkyq8s9db00000gn/T//cc2C97ap.s:786    .text.ADC_DiscModeCmd:0000000000000000 ADC_DiscModeCmd
/var/folders/7z/kps_xzfj7sn5l5gkyq8s9db00000gn/T//cc2C97ap.s:811    .text.ADC_GetConversionValue:0000000000000000 $t
/var/folders/7z/kps_xzfj7sn5l5gkyq8s9db00000gn/T//cc2C97ap.s:817    .text.ADC_GetConversionValue:0000000000000000 ADC_GetConversionValue
/var/folders/7z/kps_xzfj7sn5l5gkyq8s9db00000gn/T//cc2C97ap.s:835    .text.ADC_GetMultiModeConversionValue:0000000000000000 $t
/var/folders/7z/kps_xzfj7sn5l5gkyq8s9db00000gn/T//cc2C97ap.s:841    .text.ADC_GetMultiModeConversionValue:0000000000000000 ADC_GetMultiModeConversionValue
/var/folders/7z/kps_xzfj7sn5l5gkyq8s9db00000gn/T//cc2C97ap.s:856    .text.ADC_GetMultiModeConversionValue:0000000000000008 $d
/var/folders/7z/kps_xzfj7sn5l5gkyq8s9db00000gn/T//cc2C97ap.s:861    .text.ADC_DMACmd:0000000000000000 $t
/var/folders/7z/kps_xzfj7sn5l5gkyq8s9db00000gn/T//cc2C97ap.s:867    .text.ADC_DMACmd:0000000000000000 ADC_DMACmd
/var/folders/7z/kps_xzfj7sn5l5gkyq8s9db00000gn/T//cc2C97ap.s:892    .text.ADC_DMARequestAfterLastTransferCmd:0000000000000000 $t
/var/folders/7z/kps_xzfj7sn5l5gkyq8s9db00000gn/T//cc2C97ap.s:898    .text.ADC_DMARequestAfterLastTransferCmd:0000000000000000 ADC_DMARequestAfterLastTransferCmd
/var/folders/7z/kps_xzfj7sn5l5gkyq8s9db00000gn/T//cc2C97ap.s:923    .text.ADC_MultiModeDMARequestAfterLastTransferCmd:0000000000000000 $t
/var/folders/7z/kps_xzfj7sn5l5gkyq8s9db00000gn/T//cc2C97ap.s:929    .text.ADC_MultiModeDMARequestAfterLastTransferCmd:0000000000000000 ADC_MultiModeDMARequestAfterLastTransferCmd
/var/folders/7z/kps_xzfj7sn5l5gkyq8s9db00000gn/T//cc2C97ap.s:954    .text.ADC_MultiModeDMARequestAfterLastTransferCmd:0000000000000018 $d
/var/folders/7z/kps_xzfj7sn5l5gkyq8s9db00000gn/T//cc2C97ap.s:959    .text.ADC_InjectedChannelConfig:0000000000000000 $t
/var/folders/7z/kps_xzfj7sn5l5gkyq8s9db00000gn/T//cc2C97ap.s:965    .text.ADC_InjectedChannelConfig:0000000000000000 ADC_InjectedChannelConfig
/var/folders/7z/kps_xzfj7sn5l5gkyq8s9db00000gn/T//cc2C97ap.s:1067   .text.ADC_InjectedSequencerLengthConfig:0000000000000000 $t
ARM GAS  /var/folders/7z/kps_xzfj7sn5l5gkyq8s9db00000gn/T//cc2C97ap.s 			page 97


/var/folders/7z/kps_xzfj7sn5l5gkyq8s9db00000gn/T//cc2C97ap.s:1073   .text.ADC_InjectedSequencerLengthConfig:0000000000000000 ADC_InjectedSequencerLengthConfig
/var/folders/7z/kps_xzfj7sn5l5gkyq8s9db00000gn/T//cc2C97ap.s:1100   .text.ADC_SetInjectedOffset:0000000000000000 $t
/var/folders/7z/kps_xzfj7sn5l5gkyq8s9db00000gn/T//cc2C97ap.s:1106   .text.ADC_SetInjectedOffset:0000000000000000 ADC_SetInjectedOffset
/var/folders/7z/kps_xzfj7sn5l5gkyq8s9db00000gn/T//cc2C97ap.s:1138   .text.ADC_ExternalTrigInjectedConvConfig:0000000000000000 $t
/var/folders/7z/kps_xzfj7sn5l5gkyq8s9db00000gn/T//cc2C97ap.s:1144   .text.ADC_ExternalTrigInjectedConvConfig:0000000000000000 ADC_ExternalTrigInjectedConvConfig
/var/folders/7z/kps_xzfj7sn5l5gkyq8s9db00000gn/T//cc2C97ap.s:1168   .text.ADC_ExternalTrigInjectedConvEdgeConfig:0000000000000000 $t
/var/folders/7z/kps_xzfj7sn5l5gkyq8s9db00000gn/T//cc2C97ap.s:1174   .text.ADC_ExternalTrigInjectedConvEdgeConfig:0000000000000000 ADC_ExternalTrigInjectedConvEdgeConfig
/var/folders/7z/kps_xzfj7sn5l5gkyq8s9db00000gn/T//cc2C97ap.s:1198   .text.ADC_SoftwareStartInjectedConv:0000000000000000 $t
/var/folders/7z/kps_xzfj7sn5l5gkyq8s9db00000gn/T//cc2C97ap.s:1204   .text.ADC_SoftwareStartInjectedConv:0000000000000000 ADC_SoftwareStartInjectedConv
/var/folders/7z/kps_xzfj7sn5l5gkyq8s9db00000gn/T//cc2C97ap.s:1221   .text.ADC_GetSoftwareStartInjectedConvCmdStatus:0000000000000000 $t
/var/folders/7z/kps_xzfj7sn5l5gkyq8s9db00000gn/T//cc2C97ap.s:1227   .text.ADC_GetSoftwareStartInjectedConvCmdStatus:0000000000000000 ADC_GetSoftwareStartInjectedConvCmdStatus
/var/folders/7z/kps_xzfj7sn5l5gkyq8s9db00000gn/T//cc2C97ap.s:1246   .text.ADC_AutoInjectedConvCmd:0000000000000000 $t
/var/folders/7z/kps_xzfj7sn5l5gkyq8s9db00000gn/T//cc2C97ap.s:1252   .text.ADC_AutoInjectedConvCmd:0000000000000000 ADC_AutoInjectedConvCmd
/var/folders/7z/kps_xzfj7sn5l5gkyq8s9db00000gn/T//cc2C97ap.s:1277   .text.ADC_InjectedDiscModeCmd:0000000000000000 $t
/var/folders/7z/kps_xzfj7sn5l5gkyq8s9db00000gn/T//cc2C97ap.s:1283   .text.ADC_InjectedDiscModeCmd:0000000000000000 ADC_InjectedDiscModeCmd
/var/folders/7z/kps_xzfj7sn5l5gkyq8s9db00000gn/T//cc2C97ap.s:1308   .text.ADC_GetInjectedConversionValue:0000000000000000 $t
/var/folders/7z/kps_xzfj7sn5l5gkyq8s9db00000gn/T//cc2C97ap.s:1314   .text.ADC_GetInjectedConversionValue:0000000000000000 ADC_GetInjectedConversionValue
/var/folders/7z/kps_xzfj7sn5l5gkyq8s9db00000gn/T//cc2C97ap.s:1349   .text.ADC_ITConfig:0000000000000000 $t
/var/folders/7z/kps_xzfj7sn5l5gkyq8s9db00000gn/T//cc2C97ap.s:1355   .text.ADC_ITConfig:0000000000000000 ADC_ITConfig
/var/folders/7z/kps_xzfj7sn5l5gkyq8s9db00000gn/T//cc2C97ap.s:1391   .text.ADC_GetFlagStatus:0000000000000000 $t
/var/folders/7z/kps_xzfj7sn5l5gkyq8s9db00000gn/T//cc2C97ap.s:1397   .text.ADC_GetFlagStatus:0000000000000000 ADC_GetFlagStatus
/var/folders/7z/kps_xzfj7sn5l5gkyq8s9db00000gn/T//cc2C97ap.s:1419   .text.ADC_ClearFlag:0000000000000000 $t
/var/folders/7z/kps_xzfj7sn5l5gkyq8s9db00000gn/T//cc2C97ap.s:1425   .text.ADC_ClearFlag:0000000000000000 ADC_ClearFlag
/var/folders/7z/kps_xzfj7sn5l5gkyq8s9db00000gn/T//cc2C97ap.s:1442   .text.ADC_GetITStatus:0000000000000000 $t
/var/folders/7z/kps_xzfj7sn5l5gkyq8s9db00000gn/T//cc2C97ap.s:1448   .text.ADC_GetITStatus:0000000000000000 ADC_GetITStatus
/var/folders/7z/kps_xzfj7sn5l5gkyq8s9db00000gn/T//cc2C97ap.s:1483   .text.ADC_ClearITPendingBit:0000000000000000 $t
/var/folders/7z/kps_xzfj7sn5l5gkyq8s9db00000gn/T//cc2C97ap.s:1489   .text.ADC_ClearITPendingBit:0000000000000000 ADC_ClearITPendingBit
                     .debug_frame:0000000000000010 $d
/var/folders/7z/kps_xzfj7sn5l5gkyq8s9db00000gn/T//cc2C97ap.s:240    .text.ADC_CommonInit:0000000000000028 $t
/var/folders/7z/kps_xzfj7sn5l5gkyq8s9db00000gn/T//cc2C97ap.s:420    .text.ADC_TempSensorVrefintCmd:000000000000001c $t
/var/folders/7z/kps_xzfj7sn5l5gkyq8s9db00000gn/T//cc2C97ap.s:456    .text.ADC_VBATCmd:000000000000001c $t
/var/folders/7z/kps_xzfj7sn5l5gkyq8s9db00000gn/T//cc2C97ap.s:860    .text.ADC_GetMultiModeConversionValue:000000000000000c $t
/var/folders/7z/kps_xzfj7sn5l5gkyq8s9db00000gn/T//cc2C97ap.s:958    .text.ADC_MultiModeDMARequestAfterLastTransferCmd:000000000000001c $t

UNDEFINED SYMBOLS
RCC_APB2PeriphResetCmd
