ARM GAS  /var/folders/bz/nn5481rn5xq59rb0mbj7x0880000gn/T//cc2OpY8g.s 			page 1


   1              		.syntax unified
   2              		.cpu cortex-m4
   3              		.eabi_attribute 27, 1
   4              		.eabi_attribute 28, 1
   5              		.fpu fpv4-sp-d16
   6              		.eabi_attribute 20, 1
   7              		.eabi_attribute 21, 1
   8              		.eabi_attribute 23, 3
   9              		.eabi_attribute 24, 1
  10              		.eabi_attribute 25, 1
  11              		.eabi_attribute 26, 1
  12              		.eabi_attribute 30, 2
  13              		.eabi_attribute 34, 1
  14              		.eabi_attribute 18, 4
  15              		.thumb
  16              		.file	"stm32f4xx_cryp_des.c"
  17              		.text
  18              	.Ltext0:
  19              		.cfi_sections	.debug_frame
  20              		.section	.text.CRYP_DES_ECB,"ax",%progbits
  21              		.align	2
  22              		.p2align 4,,15
  23              		.global	CRYP_DES_ECB
  24              		.thumb
  25              		.thumb_func
  26              		.type	CRYP_DES_ECB, %function
  27              	CRYP_DES_ECB:
  28              	.LFB111:
  29              		.file 1 "lib/ChibiOS_2.6.6/ext/stdperiph_stm32f4/src/stm32f4xx_cryp_des.c"
  30              		.loc 1 102 0
  31              		.cfi_startproc
  32              		@ args = 4, pretend = 0, frame = 48
  33              		@ frame_needed = 0, uses_anonymous_args = 0
  34              	.LVL0:
  35 0000 2DE9F043 		push	{r4, r5, r6, r7, r8, r9, lr}
  36              		.cfi_def_cfa_offset 28
  37              		.cfi_offset 4, -28
  38              		.cfi_offset 5, -24
  39              		.cfi_offset 6, -20
  40              		.cfi_offset 7, -16
  41              		.cfi_offset 8, -12
  42              		.cfi_offset 9, -8
  43              		.cfi_offset 14, -4
  44 0004 8DB0     		sub	sp, sp, #52
  45              		.cfi_def_cfa_offset 80
  46              		.loc 1 102 0
  47 0006 8146     		mov	r9, r0
  48              		.loc 1 105 0
  49 0008 0027     		movs	r7, #0
  50              		.loc 1 114 0
  51 000a 04A8     		add	r0, sp, #16
  52              	.LVL1:
  53              		.loc 1 102 0
  54 000c 0E46     		mov	r6, r1
  55 000e 9846     		mov	r8, r3
  56 0010 1446     		mov	r4, r2
  57              		.loc 1 105 0
ARM GAS  /var/folders/bz/nn5481rn5xq59rb0mbj7x0880000gn/T//cc2OpY8g.s 			page 2


  58 0012 0197     		str	r7, [sp, #4]
  59              	.LVL2:
  60              		.loc 1 102 0
  61 0014 149D     		ldr	r5, [sp, #80]
  62              	.LVL3:
  63              		.loc 1 114 0
  64 0016 FFF7FEFF 		bl	CRYP_KeyStructInit
  65              	.LVL4:
  66              		.loc 1 117 0
  67 001a B9F1010F 		cmp	r9, #1
  68              		.loc 1 123 0
  69 001e 1CBF     		itt	ne
  70 0020 0423     		movne	r3, #4
  71 0022 ADF80830 		strhne	r3, [sp, #8]	@ movhi
  72              		.loc 1 126 0
  73 0026 4FF01002 		mov	r2, #16
  74              		.loc 1 127 0
  75 002a 4FF08003 		mov	r3, #128
  76              		.loc 1 128 0
  77 002e 02A8     		add	r0, sp, #8
  78              		.loc 1 119 0
  79 0030 08BF     		it	eq
  80 0032 ADF80870 		strheq	r7, [sp, #8]	@ movhi
  81              		.loc 1 127 0
  82 0036 ADF80C30 		strh	r3, [sp, #12]	@ movhi
  83              		.loc 1 126 0
  84 003a ADF80A20 		strh	r2, [sp, #10]	@ movhi
  85              		.loc 1 128 0
  86 003e FFF7FEFF 		bl	CRYP_Init
  87              	.LVL5:
  88              	.LBB14:
  89              	.LBB15:
  90              		.file 2 "lib/ChibiOS_2.6.6/os/ports/common/ARMCMx/CMSIS/include/core_cmInstr.h"
  91              		.loc 2 369 0
  92 0042 3368     		ldr	r3, [r6]
  93              	@ 369 "lib/ChibiOS_2.6.6/os/ports/common/ARMCMx/CMSIS/include/core_cmInstr.h" 1
  94 0044 1BBA     		rev r3, r3
  95              	@ 0 "" 2
  96              	.LVL6:
  97              		.thumb
  98              	.LBE15:
  99              	.LBE14:
 100              		.loc 1 131 0
 101 0046 0693     		str	r3, [sp, #24]
 102              	.LVL7:
 103              	.LBB16:
 104              	.LBB17:
 105              		.loc 2 369 0
 106 0048 7368     		ldr	r3, [r6, #4]
 107              	.LVL8:
 108              	@ 369 "lib/ChibiOS_2.6.6/os/ports/common/ARMCMx/CMSIS/include/core_cmInstr.h" 1
 109 004a 1BBA     		rev r3, r3
 110              	@ 0 "" 2
 111              	.LVL9:
 112              		.thumb
 113              	.LBE17:
 114              	.LBE16:
ARM GAS  /var/folders/bz/nn5481rn5xq59rb0mbj7x0880000gn/T//cc2OpY8g.s 			page 3


 115              		.loc 1 134 0
 116 004c 04A8     		add	r0, sp, #16
 117              		.loc 1 133 0
 118 004e 0793     		str	r3, [sp, #28]
 119              		.loc 1 134 0
 120 0050 FFF7FEFF 		bl	CRYP_KeyInit
 121              	.LVL10:
 122              		.loc 1 137 0
 123 0054 FFF7FEFF 		bl	CRYP_FIFOFlush
 124              	.LVL11:
 125              		.loc 1 140 0
 126 0058 0120     		movs	r0, #1
 127 005a FFF7FEFF 		bl	CRYP_Cmd
 128              	.LVL12:
 129              		.loc 1 142 0
 130 005e B8F1000F 		cmp	r8, #0
 131 0062 30D0     		beq	.L10
 132 0064 0027     		movs	r7, #0
 133 0066 0834     		adds	r4, r4, #8
 134              	.LVL13:
 135 0068 0835     		adds	r5, r5, #8
 136              	.LVL14:
 137              		.loc 1 152 0
 138 006a 3E46     		mov	r6, r7
 139              	.LVL15:
 140              	.L9:
 141              		.loc 1 146 0
 142 006c 54F8080C 		ldr	r0, [r4, #-8]
 143 0070 FFF7FEFF 		bl	CRYP_DataIn
 144              	.LVL16:
 145              		.loc 1 148 0
 146 0074 54F8040C 		ldr	r0, [r4, #-4]
 147 0078 FFF7FEFF 		bl	CRYP_DataIn
 148              	.LVL17:
 149              		.loc 1 152 0
 150 007c 0196     		str	r6, [sp, #4]
 151 007e 00E0     		b	.L7
 152              	.LVL18:
 153              	.L16:
 154              		.loc 1 157 0 discriminator 1
 155 0080 90B1     		cbz	r0, .L8
 156              	.LVL19:
 157              	.L7:
 158              		.loc 1 155 0 discriminator 2
 159 0082 1020     		movs	r0, #16
 160 0084 FFF7FEFF 		bl	CRYP_GetFlagStatus
 161              	.LVL20:
 162              		.loc 1 156 0 discriminator 2
 163 0088 019B     		ldr	r3, [sp, #4]
 164 008a 0133     		adds	r3, r3, #1
 165 008c 0193     		str	r3, [sp, #4]
 166              		.loc 1 157 0 discriminator 2
 167 008e 019B     		ldr	r3, [sp, #4]
 168 0090 B3F5803F 		cmp	r3, #65536
 169 0094 F4D1     		bne	.L16
 170              		.loc 1 159 0
 171 0096 38B1     		cbz	r0, .L8
ARM GAS  /var/folders/bz/nn5481rn5xq59rb0mbj7x0880000gn/T//cc2OpY8g.s 			page 4


 172              		.loc 1 161 0
 173 0098 0024     		movs	r4, #0
 174              	.LVL21:
 175              	.L5:
 176              		.loc 1 175 0
 177 009a 0020     		movs	r0, #0
 178 009c FFF7FEFF 		bl	CRYP_Cmd
 179              	.LVL22:
 180              		.loc 1 178 0
 181 00a0 2046     		mov	r0, r4
 182 00a2 0DB0     		add	sp, sp, #52
 183              		.cfi_remember_state
 184              		.cfi_def_cfa_offset 28
 185              		@ sp needed
 186 00a4 BDE8F083 		pop	{r4, r5, r6, r7, r8, r9, pc}
 187              	.LVL23:
 188              	.L8:
 189              		.cfi_restore_state
 190              		.loc 1 167 0
 191 00a8 FFF7FEFF 		bl	CRYP_DataOut
 192              	.LVL24:
 193 00ac 45F8080C 		str	r0, [r5, #-8]
 194              	.LVL25:
 195              		.loc 1 169 0
 196 00b0 FFF7FEFF 		bl	CRYP_DataOut
 197              	.LVL26:
 198              		.loc 1 142 0
 199 00b4 0837     		adds	r7, r7, #8
 200              	.LVL27:
 201 00b6 B845     		cmp	r8, r7
 202              		.loc 1 169 0
 203 00b8 45F8040C 		str	r0, [r5, #-4]
 204              	.LVL28:
 205 00bc 04F10804 		add	r4, r4, #8
 206 00c0 05F10805 		add	r5, r5, #8
 207              		.loc 1 142 0
 208 00c4 D2D8     		bhi	.L9
 209              	.LVL29:
 210              	.L10:
 211              		.loc 1 107 0
 212 00c6 0124     		movs	r4, #1
 213 00c8 E7E7     		b	.L5
 214              		.cfi_endproc
 215              	.LFE111:
 216              		.size	CRYP_DES_ECB, .-CRYP_DES_ECB
 217 00ca 00BF     		.section	.text.CRYP_DES_CBC,"ax",%progbits
 218              		.align	2
 219              		.p2align 4,,15
 220              		.global	CRYP_DES_CBC
 221              		.thumb
 222              		.thumb_func
 223              		.type	CRYP_DES_CBC, %function
 224              	CRYP_DES_CBC:
 225              	.LFB112:
 226              		.loc 1 197 0
 227              		.cfi_startproc
 228              		@ args = 8, pretend = 0, frame = 64
ARM GAS  /var/folders/bz/nn5481rn5xq59rb0mbj7x0880000gn/T//cc2OpY8g.s 			page 5


 229              		@ frame_needed = 0, uses_anonymous_args = 0
 230              	.LVL30:
 231 0000 2DE9F045 		push	{r4, r5, r6, r7, r8, r10, lr}
 232              		.cfi_def_cfa_offset 28
 233              		.cfi_offset 4, -28
 234              		.cfi_offset 5, -24
 235              		.cfi_offset 6, -20
 236              		.cfi_offset 7, -16
 237              		.cfi_offset 8, -12
 238              		.cfi_offset 10, -8
 239              		.cfi_offset 14, -4
 240 0004 91B0     		sub	sp, sp, #68
 241              		.cfi_def_cfa_offset 96
 242              		.loc 1 197 0
 243 0006 8246     		mov	r10, r0
 244              		.loc 1 201 0
 245 0008 0025     		movs	r5, #0
 246              		.loc 1 211 0
 247 000a 08A8     		add	r0, sp, #32
 248              	.LVL31:
 249              		.loc 1 197 0
 250 000c 0F46     		mov	r7, r1
 251 000e 1C46     		mov	r4, r3
 252 0010 1646     		mov	r6, r2
 253              		.loc 1 201 0
 254 0012 0195     		str	r5, [sp, #4]
 255              		.loc 1 197 0
 256 0014 DDF86080 		ldr	r8, [sp, #96]
 257              	.LVL32:
 258              		.loc 1 211 0
 259 0018 FFF7FEFF 		bl	CRYP_KeyStructInit
 260              	.LVL33:
 261              		.loc 1 214 0
 262 001c BAF1010F 		cmp	r10, #1
 263              		.loc 1 220 0
 264 0020 1CBF     		itt	ne
 265 0022 0423     		movne	r3, #4
 266 0024 ADF80830 		strhne	r3, [sp, #8]	@ movhi
 267              		.loc 1 223 0
 268 0028 4FF01802 		mov	r2, #24
 269              		.loc 1 224 0
 270 002c 4FF08003 		mov	r3, #128
 271              		.loc 1 225 0
 272 0030 02A8     		add	r0, sp, #8
 273              		.loc 1 216 0
 274 0032 08BF     		it	eq
 275 0034 ADF80850 		strheq	r5, [sp, #8]	@ movhi
 276              		.loc 1 224 0
 277 0038 ADF80C30 		strh	r3, [sp, #12]	@ movhi
 278              		.loc 1 223 0
 279 003c ADF80A20 		strh	r2, [sp, #10]	@ movhi
 280              		.loc 1 225 0
 281 0040 FFF7FEFF 		bl	CRYP_Init
 282              	.LVL34:
 283              	.LBB18:
 284              	.LBB19:
 285              		.loc 2 369 0
ARM GAS  /var/folders/bz/nn5481rn5xq59rb0mbj7x0880000gn/T//cc2OpY8g.s 			page 6


 286 0044 3B68     		ldr	r3, [r7]
 287              	@ 369 "lib/ChibiOS_2.6.6/os/ports/common/ARMCMx/CMSIS/include/core_cmInstr.h" 1
 288 0046 1BBA     		rev r3, r3
 289              	@ 0 "" 2
 290              	.LVL35:
 291              		.thumb
 292              	.LBE19:
 293              	.LBE18:
 294              		.loc 1 228 0
 295 0048 0A93     		str	r3, [sp, #40]
 296              	.LVL36:
 297              	.LBB20:
 298              	.LBB21:
 299              		.loc 2 369 0
 300 004a 7B68     		ldr	r3, [r7, #4]
 301              	.LVL37:
 302              	@ 369 "lib/ChibiOS_2.6.6/os/ports/common/ARMCMx/CMSIS/include/core_cmInstr.h" 1
 303 004c 1BBA     		rev r3, r3
 304              	@ 0 "" 2
 305              	.LVL38:
 306              		.thumb
 307              	.LBE21:
 308              	.LBE20:
 309              		.loc 1 231 0
 310 004e 08A8     		add	r0, sp, #32
 311              		.loc 1 230 0
 312 0050 0B93     		str	r3, [sp, #44]
 313              		.loc 1 231 0
 314 0052 FFF7FEFF 		bl	CRYP_KeyInit
 315              	.LVL39:
 316              	.LBB22:
 317              	.LBB23:
 318              		.loc 2 369 0
 319 0056 3368     		ldr	r3, [r6]
 320              	@ 369 "lib/ChibiOS_2.6.6/os/ports/common/ARMCMx/CMSIS/include/core_cmInstr.h" 1
 321 0058 1BBA     		rev r3, r3
 322              	@ 0 "" 2
 323              	.LVL40:
 324              		.thumb
 325              	.LBE23:
 326              	.LBE22:
 327              		.loc 1 234 0
 328 005a 0493     		str	r3, [sp, #16]
 329              	.LVL41:
 330              	.LBB24:
 331              	.LBB25:
 332              		.loc 2 369 0
 333 005c 7368     		ldr	r3, [r6, #4]
 334              	.LVL42:
 335              	@ 369 "lib/ChibiOS_2.6.6/os/ports/common/ARMCMx/CMSIS/include/core_cmInstr.h" 1
 336 005e 1BBA     		rev r3, r3
 337              	@ 0 "" 2
 338              	.LVL43:
 339              		.thumb
 340              	.LBE25:
 341              	.LBE24:
 342              		.loc 1 237 0
ARM GAS  /var/folders/bz/nn5481rn5xq59rb0mbj7x0880000gn/T//cc2OpY8g.s 			page 7


 343 0060 04A8     		add	r0, sp, #16
 344              	.LVL44:
 345              		.loc 1 236 0
 346 0062 0593     		str	r3, [sp, #20]
 347              		.loc 1 237 0
 348 0064 FFF7FEFF 		bl	CRYP_IVInit
 349              	.LVL45:
 350              		.loc 1 240 0
 351 0068 FFF7FEFF 		bl	CRYP_FIFOFlush
 352              	.LVL46:
 353              		.loc 1 243 0
 354 006c 0120     		movs	r0, #1
 355 006e FFF7FEFF 		bl	CRYP_Cmd
 356              	.LVL47:
 357              		.loc 1 245 0
 358 0072 B8F1000F 		cmp	r8, #0
 359 0076 32D0     		beq	.L26
 360 0078 199B     		ldr	r3, [sp, #100]
 361 007a 0027     		movs	r7, #0
 362              	.LVL48:
 363 007c 0834     		adds	r4, r4, #8
 364              	.LVL49:
 365 007e 03F10805 		add	r5, r3, #8
 366              		.loc 1 254 0
 367 0082 3E46     		mov	r6, r7
 368              	.LVL50:
 369              	.L25:
 370              		.loc 1 248 0
 371 0084 54F8080C 		ldr	r0, [r4, #-8]
 372 0088 FFF7FEFF 		bl	CRYP_DataIn
 373              	.LVL51:
 374              		.loc 1 250 0
 375 008c 54F8040C 		ldr	r0, [r4, #-4]
 376 0090 FFF7FEFF 		bl	CRYP_DataIn
 377              	.LVL52:
 378              		.loc 1 254 0
 379 0094 0196     		str	r6, [sp, #4]
 380 0096 00E0     		b	.L23
 381              	.LVL53:
 382              	.L31:
 383              		.loc 1 259 0 discriminator 1
 384 0098 90B1     		cbz	r0, .L24
 385              	.LVL54:
 386              	.L23:
 387              		.loc 1 257 0 discriminator 2
 388 009a 1020     		movs	r0, #16
 389 009c FFF7FEFF 		bl	CRYP_GetFlagStatus
 390              	.LVL55:
 391              		.loc 1 258 0 discriminator 2
 392 00a0 019B     		ldr	r3, [sp, #4]
 393 00a2 0133     		adds	r3, r3, #1
 394 00a4 0193     		str	r3, [sp, #4]
 395              		.loc 1 259 0 discriminator 2
 396 00a6 019B     		ldr	r3, [sp, #4]
 397 00a8 B3F5803F 		cmp	r3, #65536
 398 00ac F4D1     		bne	.L31
 399              		.loc 1 261 0
ARM GAS  /var/folders/bz/nn5481rn5xq59rb0mbj7x0880000gn/T//cc2OpY8g.s 			page 8


 400 00ae 38B1     		cbz	r0, .L24
 401              		.loc 1 263 0
 402 00b0 0024     		movs	r4, #0
 403              	.LVL56:
 404              	.L21:
 405              		.loc 1 276 0
 406 00b2 0020     		movs	r0, #0
 407 00b4 FFF7FEFF 		bl	CRYP_Cmd
 408              	.LVL57:
 409              		.loc 1 279 0
 410 00b8 2046     		mov	r0, r4
 411 00ba 11B0     		add	sp, sp, #68
 412              		.cfi_remember_state
 413              		.cfi_def_cfa_offset 28
 414              		@ sp needed
 415 00bc BDE8F085 		pop	{r4, r5, r6, r7, r8, r10, pc}
 416              	.LVL58:
 417              	.L24:
 418              		.cfi_restore_state
 419              		.loc 1 268 0
 420 00c0 FFF7FEFF 		bl	CRYP_DataOut
 421              	.LVL59:
 422 00c4 45F8080C 		str	r0, [r5, #-8]
 423              	.LVL60:
 424              		.loc 1 270 0
 425 00c8 FFF7FEFF 		bl	CRYP_DataOut
 426              	.LVL61:
 427              		.loc 1 245 0
 428 00cc 0837     		adds	r7, r7, #8
 429              	.LVL62:
 430 00ce B845     		cmp	r8, r7
 431              		.loc 1 270 0
 432 00d0 45F8040C 		str	r0, [r5, #-4]
 433              	.LVL63:
 434 00d4 04F10804 		add	r4, r4, #8
 435 00d8 05F10805 		add	r5, r5, #8
 436              		.loc 1 245 0
 437 00dc D2D8     		bhi	.L25
 438              	.LVL64:
 439              	.L26:
 440              		.loc 1 203 0
 441 00de 0124     		movs	r4, #1
 442 00e0 E7E7     		b	.L21
 443              		.cfi_endproc
 444              	.LFE112:
 445              		.size	CRYP_DES_CBC, .-CRYP_DES_CBC
 446 00e2 00BF     		.text
 447              	.Letext0:
 448              		.file 3 "/Users/imac/Downloads/gcc-arm-none-eabi-4_9-2015q2/arm-none-eabi/include/machine/_default
 449              		.file 4 "/Users/imac/Downloads/gcc-arm-none-eabi-4_9-2015q2/arm-none-eabi/include/sys/_stdint.h"
 450              		.file 5 "lib/ChibiOS_2.6.6/os/hal/platforms/STM32F4xx/stm32f4xx.h"
 451              		.file 6 "lib/ChibiOS_2.6.6/ext/stdperiph_stm32f4/inc/stm32f4xx_cryp.h"
 452              		.file 7 "lib/ChibiOS_2.6.6/os/ports/common/ARMCMx/CMSIS/include/core_cm4.h"
 453              		.section	.debug_info,"",%progbits
 454              	.Ldebug_info0:
 455 0000 8B070000 		.4byte	0x78b
 456 0004 0400     		.2byte	0x4
ARM GAS  /var/folders/bz/nn5481rn5xq59rb0mbj7x0880000gn/T//cc2OpY8g.s 			page 9


 457 0006 00000000 		.4byte	.Ldebug_abbrev0
 458 000a 04       		.byte	0x4
 459 000b 01       		.uleb128 0x1
 460 000c A5010000 		.4byte	.LASF68
 461 0010 01       		.byte	0x1
 462 0011 F0030000 		.4byte	.LASF69
 463 0015 5E040000 		.4byte	.LASF70
 464 0019 00000000 		.4byte	.Ldebug_ranges0+0
 465 001d 00000000 		.4byte	0
 466 0021 00000000 		.4byte	.Ldebug_line0
 467 0025 02       		.uleb128 0x2
 468 0026 01       		.byte	0x1
 469 0027 06       		.byte	0x6
 470 0028 C9020000 		.4byte	.LASF0
 471 002c 03       		.uleb128 0x3
 472 002d 43010000 		.4byte	.LASF3
 473 0031 03       		.byte	0x3
 474 0032 1D       		.byte	0x1d
 475 0033 37000000 		.4byte	0x37
 476 0037 02       		.uleb128 0x2
 477 0038 01       		.byte	0x1
 478 0039 08       		.byte	0x8
 479 003a 82010000 		.4byte	.LASF1
 480 003e 02       		.uleb128 0x2
 481 003f 02       		.byte	0x2
 482 0040 05       		.byte	0x5
 483 0041 0D010000 		.4byte	.LASF2
 484 0045 03       		.uleb128 0x3
 485 0046 7F000000 		.4byte	.LASF4
 486 004a 03       		.byte	0x3
 487 004b 2B       		.byte	0x2b
 488 004c 50000000 		.4byte	0x50
 489 0050 02       		.uleb128 0x2
 490 0051 02       		.byte	0x2
 491 0052 07       		.byte	0x7
 492 0053 63030000 		.4byte	.LASF5
 493 0057 03       		.uleb128 0x3
 494 0058 85040000 		.4byte	.LASF6
 495 005c 03       		.byte	0x3
 496 005d 3F       		.byte	0x3f
 497 005e 62000000 		.4byte	0x62
 498 0062 02       		.uleb128 0x2
 499 0063 04       		.byte	0x4
 500 0064 05       		.byte	0x5
 501 0065 2E010000 		.4byte	.LASF7
 502 0069 03       		.uleb128 0x3
 503 006a 65000000 		.4byte	.LASF8
 504 006e 03       		.byte	0x3
 505 006f 41       		.byte	0x41
 506 0070 74000000 		.4byte	0x74
 507 0074 02       		.uleb128 0x2
 508 0075 04       		.byte	0x4
 509 0076 07       		.byte	0x7
 510 0077 31040000 		.4byte	.LASF9
 511 007b 02       		.uleb128 0x2
 512 007c 08       		.byte	0x8
 513 007d 05       		.byte	0x5
ARM GAS  /var/folders/bz/nn5481rn5xq59rb0mbj7x0880000gn/T//cc2OpY8g.s 			page 10


 514 007e 20010000 		.4byte	.LASF10
 515 0082 02       		.uleb128 0x2
 516 0083 08       		.byte	0x8
 517 0084 07       		.byte	0x7
 518 0085 D5020000 		.4byte	.LASF11
 519 0089 04       		.uleb128 0x4
 520 008a 04       		.byte	0x4
 521 008b 05       		.byte	0x5
 522 008c 696E7400 		.ascii	"int\000"
 523 0090 02       		.uleb128 0x2
 524 0091 04       		.byte	0x4
 525 0092 07       		.byte	0x7
 526 0093 02030000 		.4byte	.LASF12
 527 0097 03       		.uleb128 0x3
 528 0098 C9000000 		.4byte	.LASF13
 529 009c 04       		.byte	0x4
 530 009d 14       		.byte	0x14
 531 009e 2C000000 		.4byte	0x2c
 532 00a2 03       		.uleb128 0x3
 533 00a3 0F030000 		.4byte	.LASF14
 534 00a7 04       		.byte	0x4
 535 00a8 1A       		.byte	0x1a
 536 00a9 45000000 		.4byte	0x45
 537 00ad 03       		.uleb128 0x3
 538 00ae 97030000 		.4byte	.LASF15
 539 00b2 04       		.byte	0x4
 540 00b3 1F       		.byte	0x1f
 541 00b4 57000000 		.4byte	0x57
 542 00b8 03       		.uleb128 0x3
 543 00b9 F9020000 		.4byte	.LASF16
 544 00bd 04       		.byte	0x4
 545 00be 20       		.byte	0x20
 546 00bf 69000000 		.4byte	0x69
 547 00c3 02       		.uleb128 0x2
 548 00c4 04       		.byte	0x4
 549 00c5 07       		.byte	0x7
 550 00c6 4B000000 		.4byte	.LASF17
 551 00ca 05       		.uleb128 0x5
 552 00cb B8000000 		.4byte	0xb8
 553 00cf 05       		.uleb128 0x5
 554 00d0 AD000000 		.4byte	0xad
 555 00d4 06       		.uleb128 0x6
 556 00d5 01       		.byte	0x1
 557 00d6 05       		.byte	0x5
 558 00d7 F701     		.2byte	0x1f7
 559 00d9 EA000000 		.4byte	0xea
 560 00dd 07       		.uleb128 0x7
 561 00de 8F040000 		.4byte	.LASF18
 562 00e2 00       		.sleb128 0
 563 00e3 08       		.uleb128 0x8
 564 00e4 53455400 		.ascii	"SET\000"
 565 00e8 01       		.sleb128 1
 566 00e9 00       		.byte	0
 567 00ea 09       		.uleb128 0x9
 568 00eb FB040000 		.4byte	.LASF19
 569 00ef 05       		.byte	0x5
 570 00f0 F701     		.2byte	0x1f7
ARM GAS  /var/folders/bz/nn5481rn5xq59rb0mbj7x0880000gn/T//cc2OpY8g.s 			page 11


 571 00f2 D4000000 		.4byte	0xd4
 572 00f6 06       		.uleb128 0x6
 573 00f7 01       		.byte	0x1
 574 00f8 05       		.byte	0x5
 575 00f9 F901     		.2byte	0x1f9
 576 00fb 0C010000 		.4byte	0x10c
 577 00ff 07       		.uleb128 0x7
 578 0100 FD000000 		.4byte	.LASF20
 579 0104 00       		.sleb128 0
 580 0105 07       		.uleb128 0x7
 581 0106 14050000 		.4byte	.LASF21
 582 010a 01       		.sleb128 1
 583 010b 00       		.byte	0
 584 010c 09       		.uleb128 0x9
 585 010d 4E040000 		.4byte	.LASF22
 586 0111 05       		.byte	0x5
 587 0112 F901     		.2byte	0x1f9
 588 0114 F6000000 		.4byte	0xf6
 589 0118 06       		.uleb128 0x6
 590 0119 01       		.byte	0x1
 591 011a 05       		.byte	0x5
 592 011b FC01     		.2byte	0x1fc
 593 011d 2E010000 		.4byte	0x12e
 594 0121 07       		.uleb128 0x7
 595 0122 4D010000 		.4byte	.LASF23
 596 0126 00       		.sleb128 0
 597 0127 07       		.uleb128 0x7
 598 0128 5B030000 		.4byte	.LASF24
 599 012c 01       		.sleb128 1
 600 012d 00       		.byte	0
 601 012e 09       		.uleb128 0x9
 602 012f 37010000 		.4byte	.LASF25
 603 0133 05       		.byte	0x5
 604 0134 FC01     		.2byte	0x1fc
 605 0136 18010000 		.4byte	0x118
 606 013a 0A       		.uleb128 0xa
 607 013b 08       		.byte	0x8
 608 013c 06       		.byte	0x6
 609 013d 35       		.byte	0x35
 610 013e 73010000 		.4byte	0x173
 611 0142 0B       		.uleb128 0xb
 612 0143 53010000 		.4byte	.LASF26
 613 0147 06       		.byte	0x6
 614 0148 37       		.byte	0x37
 615 0149 A2000000 		.4byte	0xa2
 616 014d 00       		.byte	0
 617 014e 0B       		.uleb128 0xb
 618 014f 1B050000 		.4byte	.LASF27
 619 0153 06       		.byte	0x6
 620 0154 39       		.byte	0x39
 621 0155 A2000000 		.4byte	0xa2
 622 0159 02       		.byte	0x2
 623 015a 0B       		.uleb128 0xb
 624 015b 26030000 		.4byte	.LASF28
 625 015f 06       		.byte	0x6
 626 0160 3C       		.byte	0x3c
 627 0161 A2000000 		.4byte	0xa2
ARM GAS  /var/folders/bz/nn5481rn5xq59rb0mbj7x0880000gn/T//cc2OpY8g.s 			page 12


 628 0165 04       		.byte	0x4
 629 0166 0B       		.uleb128 0xb
 630 0167 C9030000 		.4byte	.LASF29
 631 016b 06       		.byte	0x6
 632 016c 3E       		.byte	0x3e
 633 016d A2000000 		.4byte	0xa2
 634 0171 06       		.byte	0x6
 635 0172 00       		.byte	0
 636 0173 03       		.uleb128 0x3
 637 0174 54000000 		.4byte	.LASF30
 638 0178 06       		.byte	0x6
 639 0179 41       		.byte	0x41
 640 017a 3A010000 		.4byte	0x13a
 641 017e 0A       		.uleb128 0xa
 642 017f 20       		.byte	0x20
 643 0180 06       		.byte	0x6
 644 0181 46       		.byte	0x46
 645 0182 E7010000 		.4byte	0x1e7
 646 0186 0B       		.uleb128 0xb
 647 0187 18030000 		.4byte	.LASF31
 648 018b 06       		.byte	0x6
 649 018c 48       		.byte	0x48
 650 018d B8000000 		.4byte	0xb8
 651 0191 00       		.byte	0
 652 0192 0B       		.uleb128 0xb
 653 0193 BA030000 		.4byte	.LASF32
 654 0197 06       		.byte	0x6
 655 0198 49       		.byte	0x49
 656 0199 B8000000 		.4byte	0xb8
 657 019d 04       		.byte	0x4
 658 019e 0B       		.uleb128 0xb
 659 019f D6040000 		.4byte	.LASF33
 660 01a3 06       		.byte	0x6
 661 01a4 4A       		.byte	0x4a
 662 01a5 B8000000 		.4byte	0xb8
 663 01a9 08       		.byte	0x8
 664 01aa 0B       		.uleb128 0xb
 665 01ab 8A000000 		.4byte	.LASF34
 666 01af 06       		.byte	0x6
 667 01b0 4B       		.byte	0x4b
 668 01b1 B8000000 		.4byte	0xb8
 669 01b5 0C       		.byte	0xc
 670 01b6 0B       		.uleb128 0xb
 671 01b7 34030000 		.4byte	.LASF35
 672 01bb 06       		.byte	0x6
 673 01bc 4C       		.byte	0x4c
 674 01bd B8000000 		.4byte	0xb8
 675 01c1 10       		.byte	0x10
 676 01c2 0B       		.uleb128 0xb
 677 01c3 9F030000 		.4byte	.LASF36
 678 01c7 06       		.byte	0x6
 679 01c8 4D       		.byte	0x4d
 680 01c9 B8000000 		.4byte	0xb8
 681 01cd 14       		.byte	0x14
 682 01ce 0B       		.uleb128 0xb
 683 01cf 7D030000 		.4byte	.LASF37
 684 01d3 06       		.byte	0x6
ARM GAS  /var/folders/bz/nn5481rn5xq59rb0mbj7x0880000gn/T//cc2OpY8g.s 			page 13


 685 01d4 4E       		.byte	0x4e
 686 01d5 B8000000 		.4byte	0xb8
 687 01d9 18       		.byte	0x18
 688 01da 0B       		.uleb128 0xb
 689 01db 70000000 		.4byte	.LASF38
 690 01df 06       		.byte	0x6
 691 01e0 4F       		.byte	0x4f
 692 01e1 B8000000 		.4byte	0xb8
 693 01e5 1C       		.byte	0x1c
 694 01e6 00       		.byte	0
 695 01e7 03       		.uleb128 0x3
 696 01e8 60010000 		.4byte	.LASF39
 697 01ec 06       		.byte	0x6
 698 01ed 50       		.byte	0x50
 699 01ee 7E010000 		.4byte	0x17e
 700 01f2 0A       		.uleb128 0xa
 701 01f3 10       		.byte	0x10
 702 01f4 06       		.byte	0x6
 703 01f5 54       		.byte	0x54
 704 01f6 2B020000 		.4byte	0x22b
 705 01fa 0B       		.uleb128 0xb
 706 01fb 98010000 		.4byte	.LASF40
 707 01ff 06       		.byte	0x6
 708 0200 56       		.byte	0x56
 709 0201 B8000000 		.4byte	0xb8
 710 0205 00       		.byte	0
 711 0206 0B       		.uleb128 0xb
 712 0207 74010000 		.4byte	.LASF41
 713 020b 06       		.byte	0x6
 714 020c 57       		.byte	0x57
 715 020d B8000000 		.4byte	0xb8
 716 0211 04       		.byte	0x4
 717 0212 0B       		.uleb128 0xb
 718 0213 95040000 		.4byte	.LASF42
 719 0217 06       		.byte	0x6
 720 0218 58       		.byte	0x58
 721 0219 B8000000 		.4byte	0xb8
 722 021d 08       		.byte	0x8
 723 021e 0B       		.uleb128 0xb
 724 021f 06050000 		.4byte	.LASF43
 725 0223 06       		.byte	0x6
 726 0224 59       		.byte	0x59
 727 0225 B8000000 		.4byte	0xb8
 728 0229 0C       		.byte	0xc
 729 022a 00       		.byte	0
 730 022b 03       		.uleb128 0x3
 731 022c 07000000 		.4byte	.LASF44
 732 0230 06       		.byte	0x6
 733 0231 5A       		.byte	0x5a
 734 0232 F2010000 		.4byte	0x1f2
 735 0236 0C       		.uleb128 0xc
 736 0237 DC000000 		.4byte	.LASF71
 737 023b 02       		.byte	0x2
 738 023c 6D01     		.2byte	0x16d
 739 023e B8000000 		.4byte	0xb8
 740 0242 03       		.byte	0x3
 741 0243 60020000 		.4byte	0x260
ARM GAS  /var/folders/bz/nn5481rn5xq59rb0mbj7x0880000gn/T//cc2OpY8g.s 			page 14


 742 0247 0D       		.uleb128 0xd
 743 0248 C3000000 		.4byte	.LASF72
 744 024c 02       		.byte	0x2
 745 024d 6D01     		.2byte	0x16d
 746 024f B8000000 		.4byte	0xb8
 747 0253 0E       		.uleb128 0xe
 748 0254 00000000 		.4byte	.LASF73
 749 0258 02       		.byte	0x2
 750 0259 6F01     		.2byte	0x16f
 751 025b B8000000 		.4byte	0xb8
 752 025f 00       		.byte	0
 753 0260 0F       		.uleb128 0xf
 754 0261 E3030000 		.4byte	.LASF57
 755 0265 01       		.byte	0x1
 756 0266 64       		.byte	0x64
 757 0267 2E010000 		.4byte	0x12e
 758 026b 00000000 		.4byte	.LFB111
 759 026f CA000000 		.4byte	.LFE111-.LFB111
 760 0273 01       		.uleb128 0x1
 761 0274 9C       		.byte	0x9c
 762 0275 49040000 		.4byte	0x449
 763 0279 10       		.uleb128 0x10
 764 027a CB040000 		.4byte	.LASF45
 765 027e 01       		.byte	0x1
 766 027f 64       		.byte	0x64
 767 0280 97000000 		.4byte	0x97
 768 0284 00000000 		.4byte	.LLST0
 769 0288 11       		.uleb128 0x11
 770 0289 4B657900 		.ascii	"Key\000"
 771 028d 01       		.byte	0x1
 772 028e 64       		.byte	0x64
 773 028f 49040000 		.4byte	0x449
 774 0293 21000000 		.4byte	.LLST1
 775 0297 10       		.uleb128 0x10
 776 0298 D0040000 		.4byte	.LASF46
 777 029c 01       		.byte	0x1
 778 029d 64       		.byte	0x64
 779 029e 49040000 		.4byte	0x449
 780 02a2 4D000000 		.4byte	.LLST2
 781 02a6 10       		.uleb128 0x10
 782 02a7 E2000000 		.4byte	.LASF47
 783 02ab 01       		.byte	0x1
 784 02ac 65       		.byte	0x65
 785 02ad B8000000 		.4byte	0xb8
 786 02b1 86000000 		.4byte	.LLST3
 787 02b5 10       		.uleb128 0x10
 788 02b6 44000000 		.4byte	.LASF48
 789 02ba 01       		.byte	0x1
 790 02bb 65       		.byte	0x65
 791 02bc 49040000 		.4byte	0x449
 792 02c0 A4000000 		.4byte	.LLST4
 793 02c4 12       		.uleb128 0x12
 794 02c5 A0000000 		.4byte	.LASF49
 795 02c9 01       		.byte	0x1
 796 02ca 67       		.byte	0x67
 797 02cb 73010000 		.4byte	0x173
 798 02cf 03       		.uleb128 0x3
ARM GAS  /var/folders/bz/nn5481rn5xq59rb0mbj7x0880000gn/T//cc2OpY8g.s 			page 15


 799 02d0 91       		.byte	0x91
 800 02d1 B87F     		.sleb128 -72
 801 02d3 12       		.uleb128 0x12
 802 02d4 A2040000 		.4byte	.LASF50
 803 02d8 01       		.byte	0x1
 804 02d9 68       		.byte	0x68
 805 02da E7010000 		.4byte	0x1e7
 806 02de 02       		.uleb128 0x2
 807 02df 91       		.byte	0x91
 808 02e0 40       		.sleb128 -64
 809 02e1 12       		.uleb128 0x12
 810 02e2 90010000 		.4byte	.LASF51
 811 02e6 01       		.byte	0x1
 812 02e7 69       		.byte	0x69
 813 02e8 CA000000 		.4byte	0xca
 814 02ec 03       		.uleb128 0x3
 815 02ed 91       		.byte	0x91
 816 02ee B47F     		.sleb128 -76
 817 02f0 13       		.uleb128 0x13
 818 02f1 43040000 		.4byte	.LASF52
 819 02f5 01       		.byte	0x1
 820 02f6 6A       		.byte	0x6a
 821 02f7 B8000000 		.4byte	0xb8
 822 02fb C4000000 		.4byte	.LLST5
 823 02ff 14       		.uleb128 0x14
 824 0300 76030000 		.4byte	.LASF53
 825 0304 01       		.byte	0x1
 826 0305 6B       		.byte	0x6b
 827 0306 2E010000 		.4byte	0x12e
 828 030a 01       		.byte	0x1
 829 030b 13       		.uleb128 0x13
 830 030c 05010000 		.4byte	.LASF54
 831 0310 01       		.byte	0x1
 832 0311 6C       		.byte	0x6c
 833 0312 B8000000 		.4byte	0xb8
 834 0316 F9000000 		.4byte	.LLST6
 835 031a 13       		.uleb128 0x13
 836 031b 1A000000 		.4byte	.LASF55
 837 031f 01       		.byte	0x1
 838 0320 6D       		.byte	0x6d
 839 0321 B8000000 		.4byte	0xb8
 840 0325 34010000 		.4byte	.LLST7
 841 0329 13       		.uleb128 0x13
 842 032a D1000000 		.4byte	.LASF56
 843 032e 01       		.byte	0x1
 844 032f 6E       		.byte	0x6e
 845 0330 B8000000 		.4byte	0xb8
 846 0334 BA010000 		.4byte	.LLST8
 847 0338 15       		.uleb128 0x15
 848 0339 6900     		.ascii	"i\000"
 849 033b 01       		.byte	0x1
 850 033c 6F       		.byte	0x6f
 851 033d B8000000 		.4byte	0xb8
 852 0341 21020000 		.4byte	.LLST9
 853 0345 16       		.uleb128 0x16
 854 0346 36020000 		.4byte	0x236
 855 034a 42000000 		.4byte	.LBB14
ARM GAS  /var/folders/bz/nn5481rn5xq59rb0mbj7x0880000gn/T//cc2OpY8g.s 			page 16


 856 034e 04000000 		.4byte	.LBE14-.LBB14
 857 0352 01       		.byte	0x1
 858 0353 83       		.byte	0x83
 859 0354 75030000 		.4byte	0x375
 860 0358 17       		.uleb128 0x17
 861 0359 47020000 		.4byte	0x247
 862 035d 63020000 		.4byte	.LLST10
 863 0361 18       		.uleb128 0x18
 864 0362 42000000 		.4byte	.LBB15
 865 0366 04000000 		.4byte	.LBE15-.LBB15
 866 036a 19       		.uleb128 0x19
 867 036b 53020000 		.4byte	0x253
 868 036f 77020000 		.4byte	.LLST11
 869 0373 00       		.byte	0
 870 0374 00       		.byte	0
 871 0375 16       		.uleb128 0x16
 872 0376 36020000 		.4byte	0x236
 873 037a 48000000 		.4byte	.LBB16
 874 037e 04000000 		.4byte	.LBE16-.LBB16
 875 0382 01       		.byte	0x1
 876 0383 85       		.byte	0x85
 877 0384 A5030000 		.4byte	0x3a5
 878 0388 17       		.uleb128 0x17
 879 0389 47020000 		.4byte	0x247
 880 038d 96020000 		.4byte	.LLST12
 881 0391 18       		.uleb128 0x18
 882 0392 48000000 		.4byte	.LBB17
 883 0396 04000000 		.4byte	.LBE17-.LBB17
 884 039a 19       		.uleb128 0x19
 885 039b 53020000 		.4byte	0x253
 886 039f AA020000 		.4byte	.LLST13
 887 03a3 00       		.byte	0
 888 03a4 00       		.byte	0
 889 03a5 1A       		.uleb128 0x1a
 890 03a6 1A000000 		.4byte	.LVL4
 891 03aa E6060000 		.4byte	0x6e6
 892 03ae B9030000 		.4byte	0x3b9
 893 03b2 1B       		.uleb128 0x1b
 894 03b3 01       		.uleb128 0x1
 895 03b4 50       		.byte	0x50
 896 03b5 02       		.uleb128 0x2
 897 03b6 91       		.byte	0x91
 898 03b7 40       		.sleb128 -64
 899 03b8 00       		.byte	0
 900 03b9 1A       		.uleb128 0x1a
 901 03ba 42000000 		.4byte	.LVL5
 902 03be FE060000 		.4byte	0x6fe
 903 03c2 CE030000 		.4byte	0x3ce
 904 03c6 1B       		.uleb128 0x1b
 905 03c7 01       		.uleb128 0x1
 906 03c8 50       		.byte	0x50
 907 03c9 03       		.uleb128 0x3
 908 03ca 91       		.byte	0x91
 909 03cb B87F     		.sleb128 -72
 910 03cd 00       		.byte	0
 911 03ce 1A       		.uleb128 0x1a
 912 03cf 54000000 		.4byte	.LVL10
ARM GAS  /var/folders/bz/nn5481rn5xq59rb0mbj7x0880000gn/T//cc2OpY8g.s 			page 17


 913 03d3 16070000 		.4byte	0x716
 914 03d7 E2030000 		.4byte	0x3e2
 915 03db 1B       		.uleb128 0x1b
 916 03dc 01       		.uleb128 0x1
 917 03dd 50       		.byte	0x50
 918 03de 02       		.uleb128 0x2
 919 03df 91       		.byte	0x91
 920 03e0 40       		.sleb128 -64
 921 03e1 00       		.byte	0
 922 03e2 1C       		.uleb128 0x1c
 923 03e3 58000000 		.4byte	.LVL11
 924 03e7 28070000 		.4byte	0x728
 925 03eb 1A       		.uleb128 0x1a
 926 03ec 5E000000 		.4byte	.LVL12
 927 03f0 30070000 		.4byte	0x730
 928 03f4 FE030000 		.4byte	0x3fe
 929 03f8 1B       		.uleb128 0x1b
 930 03f9 01       		.uleb128 0x1
 931 03fa 50       		.byte	0x50
 932 03fb 01       		.uleb128 0x1
 933 03fc 31       		.byte	0x31
 934 03fd 00       		.byte	0
 935 03fe 1C       		.uleb128 0x1c
 936 03ff 74000000 		.4byte	.LVL16
 937 0403 42070000 		.4byte	0x742
 938 0407 1C       		.uleb128 0x1c
 939 0408 7C000000 		.4byte	.LVL17
 940 040c 42070000 		.4byte	0x742
 941 0410 1A       		.uleb128 0x1a
 942 0411 88000000 		.4byte	.LVL20
 943 0415 54070000 		.4byte	0x754
 944 0419 23040000 		.4byte	0x423
 945 041d 1B       		.uleb128 0x1b
 946 041e 01       		.uleb128 0x1
 947 041f 50       		.byte	0x50
 948 0420 01       		.uleb128 0x1
 949 0421 40       		.byte	0x40
 950 0422 00       		.byte	0
 951 0423 1A       		.uleb128 0x1a
 952 0424 A0000000 		.4byte	.LVL22
 953 0428 30070000 		.4byte	0x730
 954 042c 36040000 		.4byte	0x436
 955 0430 1B       		.uleb128 0x1b
 956 0431 01       		.uleb128 0x1
 957 0432 50       		.byte	0x50
 958 0433 01       		.uleb128 0x1
 959 0434 30       		.byte	0x30
 960 0435 00       		.byte	0
 961 0436 1C       		.uleb128 0x1c
 962 0437 AC000000 		.4byte	.LVL24
 963 043b 6A070000 		.4byte	0x76a
 964 043f 1C       		.uleb128 0x1c
 965 0440 B4000000 		.4byte	.LVL26
 966 0444 6A070000 		.4byte	0x76a
 967 0448 00       		.byte	0
 968 0449 1D       		.uleb128 0x1d
 969 044a 04       		.byte	0x4
ARM GAS  /var/folders/bz/nn5481rn5xq59rb0mbj7x0880000gn/T//cc2OpY8g.s 			page 18


 970 044b 97000000 		.4byte	0x97
 971 044f 0F       		.uleb128 0xf
 972 0450 D6030000 		.4byte	.LASF58
 973 0454 01       		.byte	0x1
 974 0455 C3       		.byte	0xc3
 975 0456 2E010000 		.4byte	0x12e
 976 045a 00000000 		.4byte	.LFB112
 977 045e E2000000 		.4byte	.LFE112-.LFB112
 978 0462 01       		.uleb128 0x1
 979 0463 9C       		.byte	0x9c
 980 0464 DA060000 		.4byte	0x6da
 981 0468 10       		.uleb128 0x10
 982 0469 CB040000 		.4byte	.LASF45
 983 046d 01       		.byte	0x1
 984 046e C3       		.byte	0xc3
 985 046f 97000000 		.4byte	0x97
 986 0473 BD020000 		.4byte	.LLST14
 987 0477 11       		.uleb128 0x11
 988 0478 4B657900 		.ascii	"Key\000"
 989 047c 01       		.byte	0x1
 990 047d C3       		.byte	0xc3
 991 047e 49040000 		.4byte	0x449
 992 0482 DE020000 		.4byte	.LLST15
 993 0486 10       		.uleb128 0x10
 994 0487 B7000000 		.4byte	.LASF59
 995 048b 01       		.byte	0x1
 996 048c C3       		.byte	0xc3
 997 048d 49040000 		.4byte	0x449
 998 0491 0A030000 		.4byte	.LLST16
 999 0495 10       		.uleb128 0x10
 1000 0496 D0040000 		.4byte	.LASF46
 1001 049a 01       		.byte	0x1
 1002 049b C4       		.byte	0xc4
 1003 049c 49040000 		.4byte	0x449
 1004 04a0 36030000 		.4byte	.LLST17
 1005 04a4 10       		.uleb128 0x10
 1006 04a5 E2000000 		.4byte	.LASF47
 1007 04a9 01       		.byte	0x1
 1008 04aa C4       		.byte	0xc4
 1009 04ab B8000000 		.4byte	0xb8
 1010 04af 6F030000 		.4byte	.LLST18
 1011 04b3 10       		.uleb128 0x10
 1012 04b4 44000000 		.4byte	.LASF48
 1013 04b8 01       		.byte	0x1
 1014 04b9 C4       		.byte	0xc4
 1015 04ba 49040000 		.4byte	0x449
 1016 04be 8F030000 		.4byte	.LLST19
 1017 04c2 12       		.uleb128 0x12
 1018 04c3 A0000000 		.4byte	.LASF49
 1019 04c7 01       		.byte	0x1
 1020 04c8 C6       		.byte	0xc6
 1021 04c9 73010000 		.4byte	0x173
 1022 04cd 03       		.uleb128 0x3
 1023 04ce 91       		.byte	0x91
 1024 04cf A87F     		.sleb128 -88
 1025 04d1 12       		.uleb128 0x12
 1026 04d2 A2040000 		.4byte	.LASF50
ARM GAS  /var/folders/bz/nn5481rn5xq59rb0mbj7x0880000gn/T//cc2OpY8g.s 			page 19


 1027 04d6 01       		.byte	0x1
 1028 04d7 C7       		.byte	0xc7
 1029 04d8 E7010000 		.4byte	0x1e7
 1030 04dc 02       		.uleb128 0x2
 1031 04dd 91       		.byte	0x91
 1032 04de 40       		.sleb128 -64
 1033 04df 12       		.uleb128 0x12
 1034 04e0 42030000 		.4byte	.LASF60
 1035 04e4 01       		.byte	0x1
 1036 04e5 C8       		.byte	0xc8
 1037 04e6 2B020000 		.4byte	0x22b
 1038 04ea 03       		.uleb128 0x3
 1039 04eb 91       		.byte	0x91
 1040 04ec B07F     		.sleb128 -80
 1041 04ee 12       		.uleb128 0x12
 1042 04ef 90010000 		.4byte	.LASF51
 1043 04f3 01       		.byte	0x1
 1044 04f4 C9       		.byte	0xc9
 1045 04f5 CA000000 		.4byte	0xca
 1046 04f9 03       		.uleb128 0x3
 1047 04fa 91       		.byte	0x91
 1048 04fb A47F     		.sleb128 -92
 1049 04fd 13       		.uleb128 0x13
 1050 04fe 43040000 		.4byte	.LASF52
 1051 0502 01       		.byte	0x1
 1052 0503 CA       		.byte	0xca
 1053 0504 B8000000 		.4byte	0xb8
 1054 0508 AF030000 		.4byte	.LLST20
 1055 050c 14       		.uleb128 0x14
 1056 050d 76030000 		.4byte	.LASF53
 1057 0511 01       		.byte	0x1
 1058 0512 CB       		.byte	0xcb
 1059 0513 2E010000 		.4byte	0x12e
 1060 0517 01       		.byte	0x1
 1061 0518 13       		.uleb128 0x13
 1062 0519 05010000 		.4byte	.LASF54
 1063 051d 01       		.byte	0x1
 1064 051e CC       		.byte	0xcc
 1065 051f B8000000 		.4byte	0xb8
 1066 0523 E4030000 		.4byte	.LLST21
 1067 0527 13       		.uleb128 0x13
 1068 0528 1A000000 		.4byte	.LASF55
 1069 052c 01       		.byte	0x1
 1070 052d CD       		.byte	0xcd
 1071 052e B8000000 		.4byte	0xb8
 1072 0532 1F040000 		.4byte	.LLST22
 1073 0536 13       		.uleb128 0x13
 1074 0537 D1000000 		.4byte	.LASF56
 1075 053b 01       		.byte	0x1
 1076 053c CE       		.byte	0xce
 1077 053d B8000000 		.4byte	0xb8
 1078 0541 A5040000 		.4byte	.LLST23
 1079 0545 13       		.uleb128 0x13
 1080 0546 99000000 		.4byte	.LASF61
 1081 054a 01       		.byte	0x1
 1082 054b CF       		.byte	0xcf
 1083 054c B8000000 		.4byte	0xb8
ARM GAS  /var/folders/bz/nn5481rn5xq59rb0mbj7x0880000gn/T//cc2OpY8g.s 			page 20


 1084 0550 01050000 		.4byte	.LLST24
 1085 0554 15       		.uleb128 0x15
 1086 0555 6900     		.ascii	"i\000"
 1087 0557 01       		.byte	0x1
 1088 0558 D0       		.byte	0xd0
 1089 0559 B8000000 		.4byte	0xb8
 1090 055d 3C050000 		.4byte	.LLST25
 1091 0561 16       		.uleb128 0x16
 1092 0562 36020000 		.4byte	0x236
 1093 0566 44000000 		.4byte	.LBB18
 1094 056a 04000000 		.4byte	.LBE18-.LBB18
 1095 056e 01       		.byte	0x1
 1096 056f E4       		.byte	0xe4
 1097 0570 91050000 		.4byte	0x591
 1098 0574 17       		.uleb128 0x17
 1099 0575 47020000 		.4byte	0x247
 1100 0579 7E050000 		.4byte	.LLST26
 1101 057d 18       		.uleb128 0x18
 1102 057e 44000000 		.4byte	.LBB19
 1103 0582 04000000 		.4byte	.LBE19-.LBB19
 1104 0586 19       		.uleb128 0x19
 1105 0587 53020000 		.4byte	0x253
 1106 058b 92050000 		.4byte	.LLST27
 1107 058f 00       		.byte	0
 1108 0590 00       		.byte	0
 1109 0591 16       		.uleb128 0x16
 1110 0592 36020000 		.4byte	0x236
 1111 0596 4A000000 		.4byte	.LBB20
 1112 059a 04000000 		.4byte	.LBE20-.LBB20
 1113 059e 01       		.byte	0x1
 1114 059f E6       		.byte	0xe6
 1115 05a0 C1050000 		.4byte	0x5c1
 1116 05a4 17       		.uleb128 0x17
 1117 05a5 47020000 		.4byte	0x247
 1118 05a9 B1050000 		.4byte	.LLST28
 1119 05ad 18       		.uleb128 0x18
 1120 05ae 4A000000 		.4byte	.LBB21
 1121 05b2 04000000 		.4byte	.LBE21-.LBB21
 1122 05b6 19       		.uleb128 0x19
 1123 05b7 53020000 		.4byte	0x253
 1124 05bb C5050000 		.4byte	.LLST29
 1125 05bf 00       		.byte	0
 1126 05c0 00       		.byte	0
 1127 05c1 16       		.uleb128 0x16
 1128 05c2 36020000 		.4byte	0x236
 1129 05c6 56000000 		.4byte	.LBB22
 1130 05ca 04000000 		.4byte	.LBE22-.LBB22
 1131 05ce 01       		.byte	0x1
 1132 05cf EA       		.byte	0xea
 1133 05d0 F1050000 		.4byte	0x5f1
 1134 05d4 17       		.uleb128 0x17
 1135 05d5 47020000 		.4byte	0x247
 1136 05d9 D8050000 		.4byte	.LLST30
 1137 05dd 18       		.uleb128 0x18
 1138 05de 56000000 		.4byte	.LBB23
 1139 05e2 04000000 		.4byte	.LBE23-.LBB23
 1140 05e6 19       		.uleb128 0x19
ARM GAS  /var/folders/bz/nn5481rn5xq59rb0mbj7x0880000gn/T//cc2OpY8g.s 			page 21


 1141 05e7 53020000 		.4byte	0x253
 1142 05eb EC050000 		.4byte	.LLST31
 1143 05ef 00       		.byte	0
 1144 05f0 00       		.byte	0
 1145 05f1 16       		.uleb128 0x16
 1146 05f2 36020000 		.4byte	0x236
 1147 05f6 5C000000 		.4byte	.LBB24
 1148 05fa 04000000 		.4byte	.LBE24-.LBB24
 1149 05fe 01       		.byte	0x1
 1150 05ff EC       		.byte	0xec
 1151 0600 21060000 		.4byte	0x621
 1152 0604 17       		.uleb128 0x17
 1153 0605 47020000 		.4byte	0x247
 1154 0609 18060000 		.4byte	.LLST32
 1155 060d 18       		.uleb128 0x18
 1156 060e 5C000000 		.4byte	.LBB25
 1157 0612 04000000 		.4byte	.LBE25-.LBB25
 1158 0616 19       		.uleb128 0x19
 1159 0617 53020000 		.4byte	0x253
 1160 061b 2C060000 		.4byte	.LLST33
 1161 061f 00       		.byte	0
 1162 0620 00       		.byte	0
 1163 0621 1A       		.uleb128 0x1a
 1164 0622 1C000000 		.4byte	.LVL33
 1165 0626 E6060000 		.4byte	0x6e6
 1166 062a 35060000 		.4byte	0x635
 1167 062e 1B       		.uleb128 0x1b
 1168 062f 01       		.uleb128 0x1
 1169 0630 50       		.byte	0x50
 1170 0631 02       		.uleb128 0x2
 1171 0632 91       		.byte	0x91
 1172 0633 40       		.sleb128 -64
 1173 0634 00       		.byte	0
 1174 0635 1A       		.uleb128 0x1a
 1175 0636 44000000 		.4byte	.LVL34
 1176 063a FE060000 		.4byte	0x6fe
 1177 063e 4A060000 		.4byte	0x64a
 1178 0642 1B       		.uleb128 0x1b
 1179 0643 01       		.uleb128 0x1
 1180 0644 50       		.byte	0x50
 1181 0645 03       		.uleb128 0x3
 1182 0646 91       		.byte	0x91
 1183 0647 A87F     		.sleb128 -88
 1184 0649 00       		.byte	0
 1185 064a 1A       		.uleb128 0x1a
 1186 064b 56000000 		.4byte	.LVL39
 1187 064f 16070000 		.4byte	0x716
 1188 0653 5E060000 		.4byte	0x65e
 1189 0657 1B       		.uleb128 0x1b
 1190 0658 01       		.uleb128 0x1
 1191 0659 50       		.byte	0x50
 1192 065a 02       		.uleb128 0x2
 1193 065b 91       		.byte	0x91
 1194 065c 40       		.sleb128 -64
 1195 065d 00       		.byte	0
 1196 065e 1A       		.uleb128 0x1a
 1197 065f 68000000 		.4byte	.LVL45
ARM GAS  /var/folders/bz/nn5481rn5xq59rb0mbj7x0880000gn/T//cc2OpY8g.s 			page 22


 1198 0663 76070000 		.4byte	0x776
 1199 0667 73060000 		.4byte	0x673
 1200 066b 1B       		.uleb128 0x1b
 1201 066c 01       		.uleb128 0x1
 1202 066d 50       		.byte	0x50
 1203 066e 03       		.uleb128 0x3
 1204 066f 91       		.byte	0x91
 1205 0670 B07F     		.sleb128 -80
 1206 0672 00       		.byte	0
 1207 0673 1C       		.uleb128 0x1c
 1208 0674 6C000000 		.4byte	.LVL46
 1209 0678 28070000 		.4byte	0x728
 1210 067c 1A       		.uleb128 0x1a
 1211 067d 72000000 		.4byte	.LVL47
 1212 0681 30070000 		.4byte	0x730
 1213 0685 8F060000 		.4byte	0x68f
 1214 0689 1B       		.uleb128 0x1b
 1215 068a 01       		.uleb128 0x1
 1216 068b 50       		.byte	0x50
 1217 068c 01       		.uleb128 0x1
 1218 068d 31       		.byte	0x31
 1219 068e 00       		.byte	0
 1220 068f 1C       		.uleb128 0x1c
 1221 0690 8C000000 		.4byte	.LVL51
 1222 0694 42070000 		.4byte	0x742
 1223 0698 1C       		.uleb128 0x1c
 1224 0699 94000000 		.4byte	.LVL52
 1225 069d 42070000 		.4byte	0x742
 1226 06a1 1A       		.uleb128 0x1a
 1227 06a2 A0000000 		.4byte	.LVL55
 1228 06a6 54070000 		.4byte	0x754
 1229 06aa B4060000 		.4byte	0x6b4
 1230 06ae 1B       		.uleb128 0x1b
 1231 06af 01       		.uleb128 0x1
 1232 06b0 50       		.byte	0x50
 1233 06b1 01       		.uleb128 0x1
 1234 06b2 40       		.byte	0x40
 1235 06b3 00       		.byte	0
 1236 06b4 1A       		.uleb128 0x1a
 1237 06b5 B8000000 		.4byte	.LVL57
 1238 06b9 30070000 		.4byte	0x730
 1239 06bd C7060000 		.4byte	0x6c7
 1240 06c1 1B       		.uleb128 0x1b
 1241 06c2 01       		.uleb128 0x1
 1242 06c3 50       		.byte	0x50
 1243 06c4 01       		.uleb128 0x1
 1244 06c5 30       		.byte	0x30
 1245 06c6 00       		.byte	0
 1246 06c7 1C       		.uleb128 0x1c
 1247 06c8 C4000000 		.4byte	.LVL59
 1248 06cc 6A070000 		.4byte	0x76a
 1249 06d0 1C       		.uleb128 0x1c
 1250 06d1 CC000000 		.4byte	.LVL61
 1251 06d5 6A070000 		.4byte	0x76a
 1252 06d9 00       		.byte	0
 1253 06da 1E       		.uleb128 0x1e
 1254 06db E4040000 		.4byte	.LASF74
ARM GAS  /var/folders/bz/nn5481rn5xq59rb0mbj7x0880000gn/T//cc2OpY8g.s 			page 23


 1255 06df 07       		.byte	0x7
 1256 06e0 9806     		.2byte	0x698
 1257 06e2 CF000000 		.4byte	0xcf
 1258 06e6 1F       		.uleb128 0x1f
 1259 06e7 EA000000 		.4byte	.LASF62
 1260 06eb 06       		.byte	0x6
 1261 06ec 0901     		.2byte	0x109
 1262 06ee F8060000 		.4byte	0x6f8
 1263 06f2 20       		.uleb128 0x20
 1264 06f3 F8060000 		.4byte	0x6f8
 1265 06f7 00       		.byte	0
 1266 06f8 1D       		.uleb128 0x1d
 1267 06f9 04       		.byte	0x4
 1268 06fa E7010000 		.4byte	0x1e7
 1269 06fe 1F       		.uleb128 0x1f
 1270 06ff F1040000 		.4byte	.LASF63
 1271 0703 06       		.byte	0x6
 1272 0704 0601     		.2byte	0x106
 1273 0706 10070000 		.4byte	0x710
 1274 070a 20       		.uleb128 0x20
 1275 070b 10070000 		.4byte	0x710
 1276 070f 00       		.byte	0
 1277 0710 1D       		.uleb128 0x1d
 1278 0711 04       		.byte	0x4
 1279 0712 73010000 		.4byte	0x173
 1280 0716 1F       		.uleb128 0x1f
 1281 0717 24000000 		.4byte	.LASF64
 1282 071b 06       		.byte	0x6
 1283 071c 0801     		.2byte	0x108
 1284 071e 28070000 		.4byte	0x728
 1285 0722 20       		.uleb128 0x20
 1286 0723 F8060000 		.4byte	0x6f8
 1287 0727 00       		.byte	0
 1288 0728 21       		.uleb128 0x21
 1289 0729 BC040000 		.4byte	.LASF75
 1290 072d 06       		.byte	0x6
 1291 072e 1101     		.2byte	0x111
 1292 0730 1F       		.uleb128 0x1f
 1293 0731 17010000 		.4byte	.LASF65
 1294 0735 06       		.byte	0x6
 1295 0736 0C01     		.2byte	0x10c
 1296 0738 42070000 		.4byte	0x742
 1297 073c 20       		.uleb128 0x20
 1298 073d 0C010000 		.4byte	0x10c
 1299 0741 00       		.byte	0
 1300 0742 1F       		.uleb128 0x1f
 1301 0743 8B030000 		.4byte	.LASF66
 1302 0747 06       		.byte	0x6
 1303 0748 0F01     		.2byte	0x10f
 1304 074a 54070000 		.4byte	0x754
 1305 074e 20       		.uleb128 0x20
 1306 074f B8000000 		.4byte	0xb8
 1307 0753 00       		.byte	0
 1308 0754 22       		.uleb128 0x22
 1309 0755 31000000 		.4byte	.LASF76
 1310 0759 06       		.byte	0x6
 1311 075a 1E01     		.2byte	0x11e
ARM GAS  /var/folders/bz/nn5481rn5xq59rb0mbj7x0880000gn/T//cc2OpY8g.s 			page 24


 1312 075c EA000000 		.4byte	0xea
 1313 0760 6A070000 		.4byte	0x76a
 1314 0764 20       		.uleb128 0x20
 1315 0765 97000000 		.4byte	0x97
 1316 0769 00       		.byte	0
 1317 076a 23       		.uleb128 0x23
 1318 076b EC020000 		.4byte	.LASF77
 1319 076f 06       		.byte	0x6
 1320 0770 1001     		.2byte	0x110
 1321 0772 B8000000 		.4byte	0xb8
 1322 0776 1F       		.uleb128 0x1f
 1323 0777 AE030000 		.4byte	.LASF67
 1324 077b 06       		.byte	0x6
 1325 077c 0A01     		.2byte	0x10a
 1326 077e 88070000 		.4byte	0x788
 1327 0782 20       		.uleb128 0x20
 1328 0783 88070000 		.4byte	0x788
 1329 0787 00       		.byte	0
 1330 0788 1D       		.uleb128 0x1d
 1331 0789 04       		.byte	0x4
 1332 078a 2B020000 		.4byte	0x22b
 1333 078e 00       		.byte	0
 1334              		.section	.debug_abbrev,"",%progbits
 1335              	.Ldebug_abbrev0:
 1336 0000 01       		.uleb128 0x1
 1337 0001 11       		.uleb128 0x11
 1338 0002 01       		.byte	0x1
 1339 0003 25       		.uleb128 0x25
 1340 0004 0E       		.uleb128 0xe
 1341 0005 13       		.uleb128 0x13
 1342 0006 0B       		.uleb128 0xb
 1343 0007 03       		.uleb128 0x3
 1344 0008 0E       		.uleb128 0xe
 1345 0009 1B       		.uleb128 0x1b
 1346 000a 0E       		.uleb128 0xe
 1347 000b 55       		.uleb128 0x55
 1348 000c 17       		.uleb128 0x17
 1349 000d 11       		.uleb128 0x11
 1350 000e 01       		.uleb128 0x1
 1351 000f 10       		.uleb128 0x10
 1352 0010 17       		.uleb128 0x17
 1353 0011 00       		.byte	0
 1354 0012 00       		.byte	0
 1355 0013 02       		.uleb128 0x2
 1356 0014 24       		.uleb128 0x24
 1357 0015 00       		.byte	0
 1358 0016 0B       		.uleb128 0xb
 1359 0017 0B       		.uleb128 0xb
 1360 0018 3E       		.uleb128 0x3e
 1361 0019 0B       		.uleb128 0xb
 1362 001a 03       		.uleb128 0x3
 1363 001b 0E       		.uleb128 0xe
 1364 001c 00       		.byte	0
 1365 001d 00       		.byte	0
 1366 001e 03       		.uleb128 0x3
 1367 001f 16       		.uleb128 0x16
 1368 0020 00       		.byte	0
ARM GAS  /var/folders/bz/nn5481rn5xq59rb0mbj7x0880000gn/T//cc2OpY8g.s 			page 25


 1369 0021 03       		.uleb128 0x3
 1370 0022 0E       		.uleb128 0xe
 1371 0023 3A       		.uleb128 0x3a
 1372 0024 0B       		.uleb128 0xb
 1373 0025 3B       		.uleb128 0x3b
 1374 0026 0B       		.uleb128 0xb
 1375 0027 49       		.uleb128 0x49
 1376 0028 13       		.uleb128 0x13
 1377 0029 00       		.byte	0
 1378 002a 00       		.byte	0
 1379 002b 04       		.uleb128 0x4
 1380 002c 24       		.uleb128 0x24
 1381 002d 00       		.byte	0
 1382 002e 0B       		.uleb128 0xb
 1383 002f 0B       		.uleb128 0xb
 1384 0030 3E       		.uleb128 0x3e
 1385 0031 0B       		.uleb128 0xb
 1386 0032 03       		.uleb128 0x3
 1387 0033 08       		.uleb128 0x8
 1388 0034 00       		.byte	0
 1389 0035 00       		.byte	0
 1390 0036 05       		.uleb128 0x5
 1391 0037 35       		.uleb128 0x35
 1392 0038 00       		.byte	0
 1393 0039 49       		.uleb128 0x49
 1394 003a 13       		.uleb128 0x13
 1395 003b 00       		.byte	0
 1396 003c 00       		.byte	0
 1397 003d 06       		.uleb128 0x6
 1398 003e 04       		.uleb128 0x4
 1399 003f 01       		.byte	0x1
 1400 0040 0B       		.uleb128 0xb
 1401 0041 0B       		.uleb128 0xb
 1402 0042 3A       		.uleb128 0x3a
 1403 0043 0B       		.uleb128 0xb
 1404 0044 3B       		.uleb128 0x3b
 1405 0045 05       		.uleb128 0x5
 1406 0046 01       		.uleb128 0x1
 1407 0047 13       		.uleb128 0x13
 1408 0048 00       		.byte	0
 1409 0049 00       		.byte	0
 1410 004a 07       		.uleb128 0x7
 1411 004b 28       		.uleb128 0x28
 1412 004c 00       		.byte	0
 1413 004d 03       		.uleb128 0x3
 1414 004e 0E       		.uleb128 0xe
 1415 004f 1C       		.uleb128 0x1c
 1416 0050 0D       		.uleb128 0xd
 1417 0051 00       		.byte	0
 1418 0052 00       		.byte	0
 1419 0053 08       		.uleb128 0x8
 1420 0054 28       		.uleb128 0x28
 1421 0055 00       		.byte	0
 1422 0056 03       		.uleb128 0x3
 1423 0057 08       		.uleb128 0x8
 1424 0058 1C       		.uleb128 0x1c
 1425 0059 0D       		.uleb128 0xd
ARM GAS  /var/folders/bz/nn5481rn5xq59rb0mbj7x0880000gn/T//cc2OpY8g.s 			page 26


 1426 005a 00       		.byte	0
 1427 005b 00       		.byte	0
 1428 005c 09       		.uleb128 0x9
 1429 005d 16       		.uleb128 0x16
 1430 005e 00       		.byte	0
 1431 005f 03       		.uleb128 0x3
 1432 0060 0E       		.uleb128 0xe
 1433 0061 3A       		.uleb128 0x3a
 1434 0062 0B       		.uleb128 0xb
 1435 0063 3B       		.uleb128 0x3b
 1436 0064 05       		.uleb128 0x5
 1437 0065 49       		.uleb128 0x49
 1438 0066 13       		.uleb128 0x13
 1439 0067 00       		.byte	0
 1440 0068 00       		.byte	0
 1441 0069 0A       		.uleb128 0xa
 1442 006a 13       		.uleb128 0x13
 1443 006b 01       		.byte	0x1
 1444 006c 0B       		.uleb128 0xb
 1445 006d 0B       		.uleb128 0xb
 1446 006e 3A       		.uleb128 0x3a
 1447 006f 0B       		.uleb128 0xb
 1448 0070 3B       		.uleb128 0x3b
 1449 0071 0B       		.uleb128 0xb
 1450 0072 01       		.uleb128 0x1
 1451 0073 13       		.uleb128 0x13
 1452 0074 00       		.byte	0
 1453 0075 00       		.byte	0
 1454 0076 0B       		.uleb128 0xb
 1455 0077 0D       		.uleb128 0xd
 1456 0078 00       		.byte	0
 1457 0079 03       		.uleb128 0x3
 1458 007a 0E       		.uleb128 0xe
 1459 007b 3A       		.uleb128 0x3a
 1460 007c 0B       		.uleb128 0xb
 1461 007d 3B       		.uleb128 0x3b
 1462 007e 0B       		.uleb128 0xb
 1463 007f 49       		.uleb128 0x49
 1464 0080 13       		.uleb128 0x13
 1465 0081 38       		.uleb128 0x38
 1466 0082 0B       		.uleb128 0xb
 1467 0083 00       		.byte	0
 1468 0084 00       		.byte	0
 1469 0085 0C       		.uleb128 0xc
 1470 0086 2E       		.uleb128 0x2e
 1471 0087 01       		.byte	0x1
 1472 0088 03       		.uleb128 0x3
 1473 0089 0E       		.uleb128 0xe
 1474 008a 3A       		.uleb128 0x3a
 1475 008b 0B       		.uleb128 0xb
 1476 008c 3B       		.uleb128 0x3b
 1477 008d 05       		.uleb128 0x5
 1478 008e 27       		.uleb128 0x27
 1479 008f 19       		.uleb128 0x19
 1480 0090 49       		.uleb128 0x49
 1481 0091 13       		.uleb128 0x13
 1482 0092 20       		.uleb128 0x20
ARM GAS  /var/folders/bz/nn5481rn5xq59rb0mbj7x0880000gn/T//cc2OpY8g.s 			page 27


 1483 0093 0B       		.uleb128 0xb
 1484 0094 01       		.uleb128 0x1
 1485 0095 13       		.uleb128 0x13
 1486 0096 00       		.byte	0
 1487 0097 00       		.byte	0
 1488 0098 0D       		.uleb128 0xd
 1489 0099 05       		.uleb128 0x5
 1490 009a 00       		.byte	0
 1491 009b 03       		.uleb128 0x3
 1492 009c 0E       		.uleb128 0xe
 1493 009d 3A       		.uleb128 0x3a
 1494 009e 0B       		.uleb128 0xb
 1495 009f 3B       		.uleb128 0x3b
 1496 00a0 05       		.uleb128 0x5
 1497 00a1 49       		.uleb128 0x49
 1498 00a2 13       		.uleb128 0x13
 1499 00a3 00       		.byte	0
 1500 00a4 00       		.byte	0
 1501 00a5 0E       		.uleb128 0xe
 1502 00a6 34       		.uleb128 0x34
 1503 00a7 00       		.byte	0
 1504 00a8 03       		.uleb128 0x3
 1505 00a9 0E       		.uleb128 0xe
 1506 00aa 3A       		.uleb128 0x3a
 1507 00ab 0B       		.uleb128 0xb
 1508 00ac 3B       		.uleb128 0x3b
 1509 00ad 05       		.uleb128 0x5
 1510 00ae 49       		.uleb128 0x49
 1511 00af 13       		.uleb128 0x13
 1512 00b0 00       		.byte	0
 1513 00b1 00       		.byte	0
 1514 00b2 0F       		.uleb128 0xf
 1515 00b3 2E       		.uleb128 0x2e
 1516 00b4 01       		.byte	0x1
 1517 00b5 3F       		.uleb128 0x3f
 1518 00b6 19       		.uleb128 0x19
 1519 00b7 03       		.uleb128 0x3
 1520 00b8 0E       		.uleb128 0xe
 1521 00b9 3A       		.uleb128 0x3a
 1522 00ba 0B       		.uleb128 0xb
 1523 00bb 3B       		.uleb128 0x3b
 1524 00bc 0B       		.uleb128 0xb
 1525 00bd 27       		.uleb128 0x27
 1526 00be 19       		.uleb128 0x19
 1527 00bf 49       		.uleb128 0x49
 1528 00c0 13       		.uleb128 0x13
 1529 00c1 11       		.uleb128 0x11
 1530 00c2 01       		.uleb128 0x1
 1531 00c3 12       		.uleb128 0x12
 1532 00c4 06       		.uleb128 0x6
 1533 00c5 40       		.uleb128 0x40
 1534 00c6 18       		.uleb128 0x18
 1535 00c7 9742     		.uleb128 0x2117
 1536 00c9 19       		.uleb128 0x19
 1537 00ca 01       		.uleb128 0x1
 1538 00cb 13       		.uleb128 0x13
 1539 00cc 00       		.byte	0
ARM GAS  /var/folders/bz/nn5481rn5xq59rb0mbj7x0880000gn/T//cc2OpY8g.s 			page 28


 1540 00cd 00       		.byte	0
 1541 00ce 10       		.uleb128 0x10
 1542 00cf 05       		.uleb128 0x5
 1543 00d0 00       		.byte	0
 1544 00d1 03       		.uleb128 0x3
 1545 00d2 0E       		.uleb128 0xe
 1546 00d3 3A       		.uleb128 0x3a
 1547 00d4 0B       		.uleb128 0xb
 1548 00d5 3B       		.uleb128 0x3b
 1549 00d6 0B       		.uleb128 0xb
 1550 00d7 49       		.uleb128 0x49
 1551 00d8 13       		.uleb128 0x13
 1552 00d9 02       		.uleb128 0x2
 1553 00da 17       		.uleb128 0x17
 1554 00db 00       		.byte	0
 1555 00dc 00       		.byte	0
 1556 00dd 11       		.uleb128 0x11
 1557 00de 05       		.uleb128 0x5
 1558 00df 00       		.byte	0
 1559 00e0 03       		.uleb128 0x3
 1560 00e1 08       		.uleb128 0x8
 1561 00e2 3A       		.uleb128 0x3a
 1562 00e3 0B       		.uleb128 0xb
 1563 00e4 3B       		.uleb128 0x3b
 1564 00e5 0B       		.uleb128 0xb
 1565 00e6 49       		.uleb128 0x49
 1566 00e7 13       		.uleb128 0x13
 1567 00e8 02       		.uleb128 0x2
 1568 00e9 17       		.uleb128 0x17
 1569 00ea 00       		.byte	0
 1570 00eb 00       		.byte	0
 1571 00ec 12       		.uleb128 0x12
 1572 00ed 34       		.uleb128 0x34
 1573 00ee 00       		.byte	0
 1574 00ef 03       		.uleb128 0x3
 1575 00f0 0E       		.uleb128 0xe
 1576 00f1 3A       		.uleb128 0x3a
 1577 00f2 0B       		.uleb128 0xb
 1578 00f3 3B       		.uleb128 0x3b
 1579 00f4 0B       		.uleb128 0xb
 1580 00f5 49       		.uleb128 0x49
 1581 00f6 13       		.uleb128 0x13
 1582 00f7 02       		.uleb128 0x2
 1583 00f8 18       		.uleb128 0x18
 1584 00f9 00       		.byte	0
 1585 00fa 00       		.byte	0
 1586 00fb 13       		.uleb128 0x13
 1587 00fc 34       		.uleb128 0x34
 1588 00fd 00       		.byte	0
 1589 00fe 03       		.uleb128 0x3
 1590 00ff 0E       		.uleb128 0xe
 1591 0100 3A       		.uleb128 0x3a
 1592 0101 0B       		.uleb128 0xb
 1593 0102 3B       		.uleb128 0x3b
 1594 0103 0B       		.uleb128 0xb
 1595 0104 49       		.uleb128 0x49
 1596 0105 13       		.uleb128 0x13
ARM GAS  /var/folders/bz/nn5481rn5xq59rb0mbj7x0880000gn/T//cc2OpY8g.s 			page 29


 1597 0106 02       		.uleb128 0x2
 1598 0107 17       		.uleb128 0x17
 1599 0108 00       		.byte	0
 1600 0109 00       		.byte	0
 1601 010a 14       		.uleb128 0x14
 1602 010b 34       		.uleb128 0x34
 1603 010c 00       		.byte	0
 1604 010d 03       		.uleb128 0x3
 1605 010e 0E       		.uleb128 0xe
 1606 010f 3A       		.uleb128 0x3a
 1607 0110 0B       		.uleb128 0xb
 1608 0111 3B       		.uleb128 0x3b
 1609 0112 0B       		.uleb128 0xb
 1610 0113 49       		.uleb128 0x49
 1611 0114 13       		.uleb128 0x13
 1612 0115 1C       		.uleb128 0x1c
 1613 0116 0B       		.uleb128 0xb
 1614 0117 00       		.byte	0
 1615 0118 00       		.byte	0
 1616 0119 15       		.uleb128 0x15
 1617 011a 34       		.uleb128 0x34
 1618 011b 00       		.byte	0
 1619 011c 03       		.uleb128 0x3
 1620 011d 08       		.uleb128 0x8
 1621 011e 3A       		.uleb128 0x3a
 1622 011f 0B       		.uleb128 0xb
 1623 0120 3B       		.uleb128 0x3b
 1624 0121 0B       		.uleb128 0xb
 1625 0122 49       		.uleb128 0x49
 1626 0123 13       		.uleb128 0x13
 1627 0124 02       		.uleb128 0x2
 1628 0125 17       		.uleb128 0x17
 1629 0126 00       		.byte	0
 1630 0127 00       		.byte	0
 1631 0128 16       		.uleb128 0x16
 1632 0129 1D       		.uleb128 0x1d
 1633 012a 01       		.byte	0x1
 1634 012b 31       		.uleb128 0x31
 1635 012c 13       		.uleb128 0x13
 1636 012d 11       		.uleb128 0x11
 1637 012e 01       		.uleb128 0x1
 1638 012f 12       		.uleb128 0x12
 1639 0130 06       		.uleb128 0x6
 1640 0131 58       		.uleb128 0x58
 1641 0132 0B       		.uleb128 0xb
 1642 0133 59       		.uleb128 0x59
 1643 0134 0B       		.uleb128 0xb
 1644 0135 01       		.uleb128 0x1
 1645 0136 13       		.uleb128 0x13
 1646 0137 00       		.byte	0
 1647 0138 00       		.byte	0
 1648 0139 17       		.uleb128 0x17
 1649 013a 05       		.uleb128 0x5
 1650 013b 00       		.byte	0
 1651 013c 31       		.uleb128 0x31
 1652 013d 13       		.uleb128 0x13
 1653 013e 02       		.uleb128 0x2
ARM GAS  /var/folders/bz/nn5481rn5xq59rb0mbj7x0880000gn/T//cc2OpY8g.s 			page 30


 1654 013f 17       		.uleb128 0x17
 1655 0140 00       		.byte	0
 1656 0141 00       		.byte	0
 1657 0142 18       		.uleb128 0x18
 1658 0143 0B       		.uleb128 0xb
 1659 0144 01       		.byte	0x1
 1660 0145 11       		.uleb128 0x11
 1661 0146 01       		.uleb128 0x1
 1662 0147 12       		.uleb128 0x12
 1663 0148 06       		.uleb128 0x6
 1664 0149 00       		.byte	0
 1665 014a 00       		.byte	0
 1666 014b 19       		.uleb128 0x19
 1667 014c 34       		.uleb128 0x34
 1668 014d 00       		.byte	0
 1669 014e 31       		.uleb128 0x31
 1670 014f 13       		.uleb128 0x13
 1671 0150 02       		.uleb128 0x2
 1672 0151 17       		.uleb128 0x17
 1673 0152 00       		.byte	0
 1674 0153 00       		.byte	0
 1675 0154 1A       		.uleb128 0x1a
 1676 0155 898201   		.uleb128 0x4109
 1677 0158 01       		.byte	0x1
 1678 0159 11       		.uleb128 0x11
 1679 015a 01       		.uleb128 0x1
 1680 015b 31       		.uleb128 0x31
 1681 015c 13       		.uleb128 0x13
 1682 015d 01       		.uleb128 0x1
 1683 015e 13       		.uleb128 0x13
 1684 015f 00       		.byte	0
 1685 0160 00       		.byte	0
 1686 0161 1B       		.uleb128 0x1b
 1687 0162 8A8201   		.uleb128 0x410a
 1688 0165 00       		.byte	0
 1689 0166 02       		.uleb128 0x2
 1690 0167 18       		.uleb128 0x18
 1691 0168 9142     		.uleb128 0x2111
 1692 016a 18       		.uleb128 0x18
 1693 016b 00       		.byte	0
 1694 016c 00       		.byte	0
 1695 016d 1C       		.uleb128 0x1c
 1696 016e 898201   		.uleb128 0x4109
 1697 0171 00       		.byte	0
 1698 0172 11       		.uleb128 0x11
 1699 0173 01       		.uleb128 0x1
 1700 0174 31       		.uleb128 0x31
 1701 0175 13       		.uleb128 0x13
 1702 0176 00       		.byte	0
 1703 0177 00       		.byte	0
 1704 0178 1D       		.uleb128 0x1d
 1705 0179 0F       		.uleb128 0xf
 1706 017a 00       		.byte	0
 1707 017b 0B       		.uleb128 0xb
 1708 017c 0B       		.uleb128 0xb
 1709 017d 49       		.uleb128 0x49
 1710 017e 13       		.uleb128 0x13
ARM GAS  /var/folders/bz/nn5481rn5xq59rb0mbj7x0880000gn/T//cc2OpY8g.s 			page 31


 1711 017f 00       		.byte	0
 1712 0180 00       		.byte	0
 1713 0181 1E       		.uleb128 0x1e
 1714 0182 34       		.uleb128 0x34
 1715 0183 00       		.byte	0
 1716 0184 03       		.uleb128 0x3
 1717 0185 0E       		.uleb128 0xe
 1718 0186 3A       		.uleb128 0x3a
 1719 0187 0B       		.uleb128 0xb
 1720 0188 3B       		.uleb128 0x3b
 1721 0189 05       		.uleb128 0x5
 1722 018a 49       		.uleb128 0x49
 1723 018b 13       		.uleb128 0x13
 1724 018c 3F       		.uleb128 0x3f
 1725 018d 19       		.uleb128 0x19
 1726 018e 3C       		.uleb128 0x3c
 1727 018f 19       		.uleb128 0x19
 1728 0190 00       		.byte	0
 1729 0191 00       		.byte	0
 1730 0192 1F       		.uleb128 0x1f
 1731 0193 2E       		.uleb128 0x2e
 1732 0194 01       		.byte	0x1
 1733 0195 3F       		.uleb128 0x3f
 1734 0196 19       		.uleb128 0x19
 1735 0197 03       		.uleb128 0x3
 1736 0198 0E       		.uleb128 0xe
 1737 0199 3A       		.uleb128 0x3a
 1738 019a 0B       		.uleb128 0xb
 1739 019b 3B       		.uleb128 0x3b
 1740 019c 05       		.uleb128 0x5
 1741 019d 27       		.uleb128 0x27
 1742 019e 19       		.uleb128 0x19
 1743 019f 3C       		.uleb128 0x3c
 1744 01a0 19       		.uleb128 0x19
 1745 01a1 01       		.uleb128 0x1
 1746 01a2 13       		.uleb128 0x13
 1747 01a3 00       		.byte	0
 1748 01a4 00       		.byte	0
 1749 01a5 20       		.uleb128 0x20
 1750 01a6 05       		.uleb128 0x5
 1751 01a7 00       		.byte	0
 1752 01a8 49       		.uleb128 0x49
 1753 01a9 13       		.uleb128 0x13
 1754 01aa 00       		.byte	0
 1755 01ab 00       		.byte	0
 1756 01ac 21       		.uleb128 0x21
 1757 01ad 2E       		.uleb128 0x2e
 1758 01ae 00       		.byte	0
 1759 01af 3F       		.uleb128 0x3f
 1760 01b0 19       		.uleb128 0x19
 1761 01b1 03       		.uleb128 0x3
 1762 01b2 0E       		.uleb128 0xe
 1763 01b3 3A       		.uleb128 0x3a
 1764 01b4 0B       		.uleb128 0xb
 1765 01b5 3B       		.uleb128 0x3b
 1766 01b6 05       		.uleb128 0x5
 1767 01b7 27       		.uleb128 0x27
ARM GAS  /var/folders/bz/nn5481rn5xq59rb0mbj7x0880000gn/T//cc2OpY8g.s 			page 32


 1768 01b8 19       		.uleb128 0x19
 1769 01b9 3C       		.uleb128 0x3c
 1770 01ba 19       		.uleb128 0x19
 1771 01bb 00       		.byte	0
 1772 01bc 00       		.byte	0
 1773 01bd 22       		.uleb128 0x22
 1774 01be 2E       		.uleb128 0x2e
 1775 01bf 01       		.byte	0x1
 1776 01c0 3F       		.uleb128 0x3f
 1777 01c1 19       		.uleb128 0x19
 1778 01c2 03       		.uleb128 0x3
 1779 01c3 0E       		.uleb128 0xe
 1780 01c4 3A       		.uleb128 0x3a
 1781 01c5 0B       		.uleb128 0xb
 1782 01c6 3B       		.uleb128 0x3b
 1783 01c7 05       		.uleb128 0x5
 1784 01c8 27       		.uleb128 0x27
 1785 01c9 19       		.uleb128 0x19
 1786 01ca 49       		.uleb128 0x49
 1787 01cb 13       		.uleb128 0x13
 1788 01cc 3C       		.uleb128 0x3c
 1789 01cd 19       		.uleb128 0x19
 1790 01ce 01       		.uleb128 0x1
 1791 01cf 13       		.uleb128 0x13
 1792 01d0 00       		.byte	0
 1793 01d1 00       		.byte	0
 1794 01d2 23       		.uleb128 0x23
 1795 01d3 2E       		.uleb128 0x2e
 1796 01d4 00       		.byte	0
 1797 01d5 3F       		.uleb128 0x3f
 1798 01d6 19       		.uleb128 0x19
 1799 01d7 03       		.uleb128 0x3
 1800 01d8 0E       		.uleb128 0xe
 1801 01d9 3A       		.uleb128 0x3a
 1802 01da 0B       		.uleb128 0xb
 1803 01db 3B       		.uleb128 0x3b
 1804 01dc 05       		.uleb128 0x5
 1805 01dd 27       		.uleb128 0x27
 1806 01de 19       		.uleb128 0x19
 1807 01df 49       		.uleb128 0x49
 1808 01e0 13       		.uleb128 0x13
 1809 01e1 3C       		.uleb128 0x3c
 1810 01e2 19       		.uleb128 0x19
 1811 01e3 00       		.byte	0
 1812 01e4 00       		.byte	0
 1813 01e5 00       		.byte	0
 1814              		.section	.debug_loc,"",%progbits
 1815              	.Ldebug_loc0:
 1816              	.LLST0:
 1817 0000 00000000 		.4byte	.LVL0
 1818 0004 0C000000 		.4byte	.LVL1
 1819 0008 0100     		.2byte	0x1
 1820 000a 50       		.byte	0x50
 1821 000b 0C000000 		.4byte	.LVL1
 1822 000f CA000000 		.4byte	.LFE111
 1823 0013 0400     		.2byte	0x4
 1824 0015 F3       		.byte	0xf3
ARM GAS  /var/folders/bz/nn5481rn5xq59rb0mbj7x0880000gn/T//cc2OpY8g.s 			page 33


 1825 0016 01       		.uleb128 0x1
 1826 0017 50       		.byte	0x50
 1827 0018 9F       		.byte	0x9f
 1828 0019 00000000 		.4byte	0
 1829 001d 00000000 		.4byte	0
 1830              	.LLST1:
 1831 0021 00000000 		.4byte	.LVL0
 1832 0025 19000000 		.4byte	.LVL4-1
 1833 0029 0100     		.2byte	0x1
 1834 002b 51       		.byte	0x51
 1835 002c 19000000 		.4byte	.LVL4-1
 1836 0030 6C000000 		.4byte	.LVL15
 1837 0034 0100     		.2byte	0x1
 1838 0036 56       		.byte	0x56
 1839 0037 6C000000 		.4byte	.LVL15
 1840 003b CA000000 		.4byte	.LFE111
 1841 003f 0400     		.2byte	0x4
 1842 0041 F3       		.byte	0xf3
 1843 0042 01       		.uleb128 0x1
 1844 0043 51       		.byte	0x51
 1845 0044 9F       		.byte	0x9f
 1846 0045 00000000 		.4byte	0
 1847 0049 00000000 		.4byte	0
 1848              	.LLST2:
 1849 004d 00000000 		.4byte	.LVL0
 1850 0051 19000000 		.4byte	.LVL4-1
 1851 0055 0100     		.2byte	0x1
 1852 0057 52       		.byte	0x52
 1853 0058 19000000 		.4byte	.LVL4-1
 1854 005c 68000000 		.4byte	.LVL13
 1855 0060 0100     		.2byte	0x1
 1856 0062 54       		.byte	0x54
 1857 0063 68000000 		.4byte	.LVL13
 1858 0067 6C000000 		.4byte	.LVL15
 1859 006b 0300     		.2byte	0x3
 1860 006d 74       		.byte	0x74
 1861 006e 78       		.sleb128 -8
 1862 006f 9F       		.byte	0x9f
 1863 0070 6C000000 		.4byte	.LVL15
 1864 0074 CA000000 		.4byte	.LFE111
 1865 0078 0400     		.2byte	0x4
 1866 007a F3       		.byte	0xf3
 1867 007b 01       		.uleb128 0x1
 1868 007c 52       		.byte	0x52
 1869 007d 9F       		.byte	0x9f
 1870 007e 00000000 		.4byte	0
 1871 0082 00000000 		.4byte	0
 1872              	.LLST3:
 1873 0086 00000000 		.4byte	.LVL0
 1874 008a 19000000 		.4byte	.LVL4-1
 1875 008e 0100     		.2byte	0x1
 1876 0090 53       		.byte	0x53
 1877 0091 19000000 		.4byte	.LVL4-1
 1878 0095 CA000000 		.4byte	.LFE111
 1879 0099 0100     		.2byte	0x1
 1880 009b 58       		.byte	0x58
 1881 009c 00000000 		.4byte	0
ARM GAS  /var/folders/bz/nn5481rn5xq59rb0mbj7x0880000gn/T//cc2OpY8g.s 			page 34


 1882 00a0 00000000 		.4byte	0
 1883              	.LLST4:
 1884 00a4 00000000 		.4byte	.LVL0
 1885 00a8 A8000000 		.4byte	.LVL23
 1886 00ac 0200     		.2byte	0x2
 1887 00ae 91       		.byte	0x91
 1888 00af 00       		.sleb128 0
 1889 00b0 A8000000 		.4byte	.LVL23
 1890 00b4 CA000000 		.4byte	.LFE111
 1891 00b8 0200     		.2byte	0x2
 1892 00ba 91       		.byte	0x91
 1893 00bb 00       		.sleb128 0
 1894 00bc 00000000 		.4byte	0
 1895 00c0 00000000 		.4byte	0
 1896              	.LLST5:
 1897 00c4 14000000 		.4byte	.LVL2
 1898 00c8 6C000000 		.4byte	.LVL15
 1899 00cc 0200     		.2byte	0x2
 1900 00ce 30       		.byte	0x30
 1901 00cf 9F       		.byte	0x9f
 1902 00d0 80000000 		.4byte	.LVL18
 1903 00d4 82000000 		.4byte	.LVL19
 1904 00d8 0100     		.2byte	0x1
 1905 00da 50       		.byte	0x50
 1906 00db 88000000 		.4byte	.LVL20
 1907 00df 9A000000 		.4byte	.LVL21
 1908 00e3 0100     		.2byte	0x1
 1909 00e5 50       		.byte	0x50
 1910 00e6 A8000000 		.4byte	.LVL23
 1911 00ea AB000000 		.4byte	.LVL24-1
 1912 00ee 0100     		.2byte	0x1
 1913 00f0 50       		.byte	0x50
 1914 00f1 00000000 		.4byte	0
 1915 00f5 00000000 		.4byte	0
 1916              	.LLST6:
 1917 00f9 14000000 		.4byte	.LVL2
 1918 00fd 19000000 		.4byte	.LVL4-1
 1919 0101 0100     		.2byte	0x1
 1920 0103 51       		.byte	0x51
 1921 0104 19000000 		.4byte	.LVL4-1
 1922 0108 48000000 		.4byte	.LVL7
 1923 010c 0100     		.2byte	0x1
 1924 010e 56       		.byte	0x56
 1925 010f 48000000 		.4byte	.LVL7
 1926 0113 6C000000 		.4byte	.LVL15
 1927 0117 0300     		.2byte	0x3
 1928 0119 76       		.byte	0x76
 1929 011a 04       		.sleb128 4
 1930 011b 9F       		.byte	0x9f
 1931 011c 6C000000 		.4byte	.LVL15
 1932 0120 CA000000 		.4byte	.LFE111
 1933 0124 0600     		.2byte	0x6
 1934 0126 F3       		.byte	0xf3
 1935 0127 01       		.uleb128 0x1
 1936 0128 51       		.byte	0x51
 1937 0129 23       		.byte	0x23
 1938 012a 04       		.uleb128 0x4
ARM GAS  /var/folders/bz/nn5481rn5xq59rb0mbj7x0880000gn/T//cc2OpY8g.s 			page 35


 1939 012b 9F       		.byte	0x9f
 1940 012c 00000000 		.4byte	0
 1941 0130 00000000 		.4byte	0
 1942              	.LLST7:
 1943 0134 14000000 		.4byte	.LVL2
 1944 0138 19000000 		.4byte	.LVL4-1
 1945 013c 0100     		.2byte	0x1
 1946 013e 52       		.byte	0x52
 1947 013f 19000000 		.4byte	.LVL4-1
 1948 0143 68000000 		.4byte	.LVL13
 1949 0147 0100     		.2byte	0x1
 1950 0149 54       		.byte	0x54
 1951 014a 68000000 		.4byte	.LVL13
 1952 014e 6C000000 		.4byte	.LVL15
 1953 0152 0300     		.2byte	0x3
 1954 0154 74       		.byte	0x74
 1955 0155 78       		.sleb128 -8
 1956 0156 9F       		.byte	0x9f
 1957 0157 6C000000 		.4byte	.LVL15
 1958 015b 74000000 		.4byte	.LVL16
 1959 015f 0700     		.2byte	0x7
 1960 0161 F3       		.byte	0xf3
 1961 0162 01       		.uleb128 0x1
 1962 0163 52       		.byte	0x52
 1963 0164 77       		.byte	0x77
 1964 0165 00       		.sleb128 0
 1965 0166 22       		.byte	0x22
 1966 0167 9F       		.byte	0x9f
 1967 0168 74000000 		.4byte	.LVL16
 1968 016c 7C000000 		.4byte	.LVL17
 1969 0170 0900     		.2byte	0x9
 1970 0172 F3       		.byte	0xf3
 1971 0173 01       		.uleb128 0x1
 1972 0174 52       		.byte	0x52
 1973 0175 77       		.byte	0x77
 1974 0176 00       		.sleb128 0
 1975 0177 22       		.byte	0x22
 1976 0178 23       		.byte	0x23
 1977 0179 04       		.uleb128 0x4
 1978 017a 9F       		.byte	0x9f
 1979 017b 7C000000 		.4byte	.LVL17
 1980 017f 9A000000 		.4byte	.LVL21
 1981 0183 0900     		.2byte	0x9
 1982 0185 F3       		.byte	0xf3
 1983 0186 01       		.uleb128 0x1
 1984 0187 52       		.byte	0x52
 1985 0188 77       		.byte	0x77
 1986 0189 00       		.sleb128 0
 1987 018a 22       		.byte	0x22
 1988 018b 23       		.byte	0x23
 1989 018c 08       		.uleb128 0x8
 1990 018d 9F       		.byte	0x9f
 1991 018e A8000000 		.4byte	.LVL23
 1992 0192 B6000000 		.4byte	.LVL27
 1993 0196 0900     		.2byte	0x9
 1994 0198 F3       		.byte	0xf3
 1995 0199 01       		.uleb128 0x1
ARM GAS  /var/folders/bz/nn5481rn5xq59rb0mbj7x0880000gn/T//cc2OpY8g.s 			page 36


 1996 019a 52       		.byte	0x52
 1997 019b 77       		.byte	0x77
 1998 019c 00       		.sleb128 0
 1999 019d 22       		.byte	0x22
 2000 019e 23       		.byte	0x23
 2001 019f 08       		.uleb128 0x8
 2002 01a0 9F       		.byte	0x9f
 2003 01a1 B6000000 		.4byte	.LVL27
 2004 01a5 C6000000 		.4byte	.LVL29
 2005 01a9 0700     		.2byte	0x7
 2006 01ab 77       		.byte	0x77
 2007 01ac 00       		.sleb128 0
 2008 01ad F3       		.byte	0xf3
 2009 01ae 01       		.uleb128 0x1
 2010 01af 52       		.byte	0x52
 2011 01b0 22       		.byte	0x22
 2012 01b1 9F       		.byte	0x9f
 2013 01b2 00000000 		.4byte	0
 2014 01b6 00000000 		.4byte	0
 2015              	.LLST8:
 2016 01ba 16000000 		.4byte	.LVL3
 2017 01be 6A000000 		.4byte	.LVL14
 2018 01c2 0100     		.2byte	0x1
 2019 01c4 55       		.byte	0x55
 2020 01c5 6A000000 		.4byte	.LVL14
 2021 01c9 6C000000 		.4byte	.LVL15
 2022 01cd 0200     		.2byte	0x2
 2023 01cf 91       		.byte	0x91
 2024 01d0 00       		.sleb128 0
 2025 01d1 6C000000 		.4byte	.LVL15
 2026 01d5 9A000000 		.4byte	.LVL21
 2027 01d9 0700     		.2byte	0x7
 2028 01db 91       		.byte	0x91
 2029 01dc 00       		.sleb128 0
 2030 01dd 06       		.byte	0x6
 2031 01de 77       		.byte	0x77
 2032 01df 00       		.sleb128 0
 2033 01e0 22       		.byte	0x22
 2034 01e1 9F       		.byte	0x9f
 2035 01e2 A8000000 		.4byte	.LVL23
 2036 01e6 B0000000 		.4byte	.LVL25
 2037 01ea 0700     		.2byte	0x7
 2038 01ec 91       		.byte	0x91
 2039 01ed 00       		.sleb128 0
 2040 01ee 06       		.byte	0x6
 2041 01ef 77       		.byte	0x77
 2042 01f0 00       		.sleb128 0
 2043 01f1 22       		.byte	0x22
 2044 01f2 9F       		.byte	0x9f
 2045 01f3 B0000000 		.4byte	.LVL25
 2046 01f7 B6000000 		.4byte	.LVL27
 2047 01fb 0900     		.2byte	0x9
 2048 01fd 91       		.byte	0x91
 2049 01fe 00       		.sleb128 0
 2050 01ff 06       		.byte	0x6
 2051 0200 77       		.byte	0x77
 2052 0201 00       		.sleb128 0
ARM GAS  /var/folders/bz/nn5481rn5xq59rb0mbj7x0880000gn/T//cc2OpY8g.s 			page 37


 2053 0202 22       		.byte	0x22
 2054 0203 23       		.byte	0x23
 2055 0204 04       		.uleb128 0x4
 2056 0205 9F       		.byte	0x9f
 2057 0206 B6000000 		.4byte	.LVL27
 2058 020a BC000000 		.4byte	.LVL28
 2059 020e 0900     		.2byte	0x9
 2060 0210 91       		.byte	0x91
 2061 0211 00       		.sleb128 0
 2062 0212 06       		.byte	0x6
 2063 0213 77       		.byte	0x77
 2064 0214 00       		.sleb128 0
 2065 0215 22       		.byte	0x22
 2066 0216 34       		.byte	0x34
 2067 0217 1C       		.byte	0x1c
 2068 0218 9F       		.byte	0x9f
 2069 0219 00000000 		.4byte	0
 2070 021d 00000000 		.4byte	0
 2071              	.LLST9:
 2072 0221 16000000 		.4byte	.LVL3
 2073 0225 6C000000 		.4byte	.LVL15
 2074 0229 0200     		.2byte	0x2
 2075 022b 30       		.byte	0x30
 2076 022c 9F       		.byte	0x9f
 2077 022d 6C000000 		.4byte	.LVL15
 2078 0231 9A000000 		.4byte	.LVL21
 2079 0235 0100     		.2byte	0x1
 2080 0237 57       		.byte	0x57
 2081 0238 A8000000 		.4byte	.LVL23
 2082 023c B6000000 		.4byte	.LVL27
 2083 0240 0100     		.2byte	0x1
 2084 0242 57       		.byte	0x57
 2085 0243 B6000000 		.4byte	.LVL27
 2086 0247 BC000000 		.4byte	.LVL28
 2087 024b 0300     		.2byte	0x3
 2088 024d 77       		.byte	0x77
 2089 024e 78       		.sleb128 -8
 2090 024f 9F       		.byte	0x9f
 2091 0250 BC000000 		.4byte	.LVL28
 2092 0254 C6000000 		.4byte	.LVL29
 2093 0258 0100     		.2byte	0x1
 2094 025a 57       		.byte	0x57
 2095 025b 00000000 		.4byte	0
 2096 025f 00000000 		.4byte	0
 2097              	.LLST10:
 2098 0263 42000000 		.4byte	.LVL5
 2099 0267 53000000 		.4byte	.LVL10-1
 2100 026b 0200     		.2byte	0x2
 2101 026d 76       		.byte	0x76
 2102 026e 00       		.sleb128 0
 2103 026f 00000000 		.4byte	0
 2104 0273 00000000 		.4byte	0
 2105              	.LLST11:
 2106 0277 46000000 		.4byte	.LVL6
 2107 027b 4A000000 		.4byte	.LVL8
 2108 027f 0100     		.2byte	0x1
 2109 0281 53       		.byte	0x53
ARM GAS  /var/folders/bz/nn5481rn5xq59rb0mbj7x0880000gn/T//cc2OpY8g.s 			page 38


 2110 0282 4A000000 		.4byte	.LVL8
 2111 0286 53000000 		.4byte	.LVL10-1
 2112 028a 0200     		.2byte	0x2
 2113 028c 91       		.byte	0x91
 2114 028d 48       		.sleb128 -56
 2115 028e 00000000 		.4byte	0
 2116 0292 00000000 		.4byte	0
 2117              	.LLST12:
 2118 0296 48000000 		.4byte	.LVL7
 2119 029a 53000000 		.4byte	.LVL10-1
 2120 029e 0200     		.2byte	0x2
 2121 02a0 76       		.byte	0x76
 2122 02a1 04       		.sleb128 4
 2123 02a2 00000000 		.4byte	0
 2124 02a6 00000000 		.4byte	0
 2125              	.LLST13:
 2126 02aa 4C000000 		.4byte	.LVL9
 2127 02ae 53000000 		.4byte	.LVL10-1
 2128 02b2 0100     		.2byte	0x1
 2129 02b4 53       		.byte	0x53
 2130 02b5 00000000 		.4byte	0
 2131 02b9 00000000 		.4byte	0
 2132              	.LLST14:
 2133 02bd 00000000 		.4byte	.LVL30
 2134 02c1 0C000000 		.4byte	.LVL31
 2135 02c5 0100     		.2byte	0x1
 2136 02c7 50       		.byte	0x50
 2137 02c8 0C000000 		.4byte	.LVL31
 2138 02cc E2000000 		.4byte	.LFE112
 2139 02d0 0400     		.2byte	0x4
 2140 02d2 F3       		.byte	0xf3
 2141 02d3 01       		.uleb128 0x1
 2142 02d4 50       		.byte	0x50
 2143 02d5 9F       		.byte	0x9f
 2144 02d6 00000000 		.4byte	0
 2145 02da 00000000 		.4byte	0
 2146              	.LLST15:
 2147 02de 00000000 		.4byte	.LVL30
 2148 02e2 1B000000 		.4byte	.LVL33-1
 2149 02e6 0100     		.2byte	0x1
 2150 02e8 51       		.byte	0x51
 2151 02e9 1B000000 		.4byte	.LVL33-1
 2152 02ed 7C000000 		.4byte	.LVL48
 2153 02f1 0100     		.2byte	0x1
 2154 02f3 57       		.byte	0x57
 2155 02f4 7C000000 		.4byte	.LVL48
 2156 02f8 E2000000 		.4byte	.LFE112
 2157 02fc 0400     		.2byte	0x4
 2158 02fe F3       		.byte	0xf3
 2159 02ff 01       		.uleb128 0x1
 2160 0300 51       		.byte	0x51
 2161 0301 9F       		.byte	0x9f
 2162 0302 00000000 		.4byte	0
 2163 0306 00000000 		.4byte	0
 2164              	.LLST16:
 2165 030a 00000000 		.4byte	.LVL30
 2166 030e 1B000000 		.4byte	.LVL33-1
ARM GAS  /var/folders/bz/nn5481rn5xq59rb0mbj7x0880000gn/T//cc2OpY8g.s 			page 39


 2167 0312 0100     		.2byte	0x1
 2168 0314 52       		.byte	0x52
 2169 0315 1B000000 		.4byte	.LVL33-1
 2170 0319 84000000 		.4byte	.LVL50
 2171 031d 0100     		.2byte	0x1
 2172 031f 56       		.byte	0x56
 2173 0320 84000000 		.4byte	.LVL50
 2174 0324 E2000000 		.4byte	.LFE112
 2175 0328 0400     		.2byte	0x4
 2176 032a F3       		.byte	0xf3
 2177 032b 01       		.uleb128 0x1
 2178 032c 52       		.byte	0x52
 2179 032d 9F       		.byte	0x9f
 2180 032e 00000000 		.4byte	0
 2181 0332 00000000 		.4byte	0
 2182              	.LLST17:
 2183 0336 00000000 		.4byte	.LVL30
 2184 033a 1B000000 		.4byte	.LVL33-1
 2185 033e 0100     		.2byte	0x1
 2186 0340 53       		.byte	0x53
 2187 0341 1B000000 		.4byte	.LVL33-1
 2188 0345 7E000000 		.4byte	.LVL49
 2189 0349 0100     		.2byte	0x1
 2190 034b 54       		.byte	0x54
 2191 034c 7E000000 		.4byte	.LVL49
 2192 0350 84000000 		.4byte	.LVL50
 2193 0354 0300     		.2byte	0x3
 2194 0356 74       		.byte	0x74
 2195 0357 78       		.sleb128 -8
 2196 0358 9F       		.byte	0x9f
 2197 0359 84000000 		.4byte	.LVL50
 2198 035d E2000000 		.4byte	.LFE112
 2199 0361 0400     		.2byte	0x4
 2200 0363 F3       		.byte	0xf3
 2201 0364 01       		.uleb128 0x1
 2202 0365 53       		.byte	0x53
 2203 0366 9F       		.byte	0x9f
 2204 0367 00000000 		.4byte	0
 2205 036b 00000000 		.4byte	0
 2206              	.LLST18:
 2207 036f 00000000 		.4byte	.LVL30
 2208 0373 C0000000 		.4byte	.LVL58
 2209 0377 0200     		.2byte	0x2
 2210 0379 91       		.byte	0x91
 2211 037a 00       		.sleb128 0
 2212 037b C0000000 		.4byte	.LVL58
 2213 037f E2000000 		.4byte	.LFE112
 2214 0383 0200     		.2byte	0x2
 2215 0385 91       		.byte	0x91
 2216 0386 00       		.sleb128 0
 2217 0387 00000000 		.4byte	0
 2218 038b 00000000 		.4byte	0
 2219              	.LLST19:
 2220 038f 00000000 		.4byte	.LVL30
 2221 0393 C0000000 		.4byte	.LVL58
 2222 0397 0200     		.2byte	0x2
 2223 0399 91       		.byte	0x91
ARM GAS  /var/folders/bz/nn5481rn5xq59rb0mbj7x0880000gn/T//cc2OpY8g.s 			page 40


 2224 039a 04       		.sleb128 4
 2225 039b C0000000 		.4byte	.LVL58
 2226 039f E2000000 		.4byte	.LFE112
 2227 03a3 0200     		.2byte	0x2
 2228 03a5 91       		.byte	0x91
 2229 03a6 04       		.sleb128 4
 2230 03a7 00000000 		.4byte	0
 2231 03ab 00000000 		.4byte	0
 2232              	.LLST20:
 2233 03af 18000000 		.4byte	.LVL32
 2234 03b3 84000000 		.4byte	.LVL50
 2235 03b7 0200     		.2byte	0x2
 2236 03b9 30       		.byte	0x30
 2237 03ba 9F       		.byte	0x9f
 2238 03bb 98000000 		.4byte	.LVL53
 2239 03bf 9A000000 		.4byte	.LVL54
 2240 03c3 0100     		.2byte	0x1
 2241 03c5 50       		.byte	0x50
 2242 03c6 A0000000 		.4byte	.LVL55
 2243 03ca B2000000 		.4byte	.LVL56
 2244 03ce 0100     		.2byte	0x1
 2245 03d0 50       		.byte	0x50
 2246 03d1 C0000000 		.4byte	.LVL58
 2247 03d5 C3000000 		.4byte	.LVL59-1
 2248 03d9 0100     		.2byte	0x1
 2249 03db 50       		.byte	0x50
 2250 03dc 00000000 		.4byte	0
 2251 03e0 00000000 		.4byte	0
 2252              	.LLST21:
 2253 03e4 18000000 		.4byte	.LVL32
 2254 03e8 1B000000 		.4byte	.LVL33-1
 2255 03ec 0100     		.2byte	0x1
 2256 03ee 51       		.byte	0x51
 2257 03ef 1B000000 		.4byte	.LVL33-1
 2258 03f3 4A000000 		.4byte	.LVL36
 2259 03f7 0100     		.2byte	0x1
 2260 03f9 57       		.byte	0x57
 2261 03fa 4A000000 		.4byte	.LVL36
 2262 03fe 7C000000 		.4byte	.LVL48
 2263 0402 0300     		.2byte	0x3
 2264 0404 77       		.byte	0x77
 2265 0405 04       		.sleb128 4
 2266 0406 9F       		.byte	0x9f
 2267 0407 7C000000 		.4byte	.LVL48
 2268 040b E2000000 		.4byte	.LFE112
 2269 040f 0600     		.2byte	0x6
 2270 0411 F3       		.byte	0xf3
 2271 0412 01       		.uleb128 0x1
 2272 0413 51       		.byte	0x51
 2273 0414 23       		.byte	0x23
 2274 0415 04       		.uleb128 0x4
 2275 0416 9F       		.byte	0x9f
 2276 0417 00000000 		.4byte	0
 2277 041b 00000000 		.4byte	0
 2278              	.LLST22:
 2279 041f 18000000 		.4byte	.LVL32
 2280 0423 1B000000 		.4byte	.LVL33-1
ARM GAS  /var/folders/bz/nn5481rn5xq59rb0mbj7x0880000gn/T//cc2OpY8g.s 			page 41


 2281 0427 0100     		.2byte	0x1
 2282 0429 53       		.byte	0x53
 2283 042a 1B000000 		.4byte	.LVL33-1
 2284 042e 7E000000 		.4byte	.LVL49
 2285 0432 0100     		.2byte	0x1
 2286 0434 54       		.byte	0x54
 2287 0435 7E000000 		.4byte	.LVL49
 2288 0439 84000000 		.4byte	.LVL50
 2289 043d 0300     		.2byte	0x3
 2290 043f 74       		.byte	0x74
 2291 0440 78       		.sleb128 -8
 2292 0441 9F       		.byte	0x9f
 2293 0442 84000000 		.4byte	.LVL50
 2294 0446 8C000000 		.4byte	.LVL51
 2295 044a 0700     		.2byte	0x7
 2296 044c F3       		.byte	0xf3
 2297 044d 01       		.uleb128 0x1
 2298 044e 53       		.byte	0x53
 2299 044f 77       		.byte	0x77
 2300 0450 00       		.sleb128 0
 2301 0451 22       		.byte	0x22
 2302 0452 9F       		.byte	0x9f
 2303 0453 8C000000 		.4byte	.LVL51
 2304 0457 94000000 		.4byte	.LVL52
 2305 045b 0900     		.2byte	0x9
 2306 045d F3       		.byte	0xf3
 2307 045e 01       		.uleb128 0x1
 2308 045f 53       		.byte	0x53
 2309 0460 77       		.byte	0x77
 2310 0461 00       		.sleb128 0
 2311 0462 22       		.byte	0x22
 2312 0463 23       		.byte	0x23
 2313 0464 04       		.uleb128 0x4
 2314 0465 9F       		.byte	0x9f
 2315 0466 94000000 		.4byte	.LVL52
 2316 046a B2000000 		.4byte	.LVL56
 2317 046e 0900     		.2byte	0x9
 2318 0470 F3       		.byte	0xf3
 2319 0471 01       		.uleb128 0x1
 2320 0472 53       		.byte	0x53
 2321 0473 77       		.byte	0x77
 2322 0474 00       		.sleb128 0
 2323 0475 22       		.byte	0x22
 2324 0476 23       		.byte	0x23
 2325 0477 08       		.uleb128 0x8
 2326 0478 9F       		.byte	0x9f
 2327 0479 C0000000 		.4byte	.LVL58
 2328 047d CE000000 		.4byte	.LVL62
 2329 0481 0900     		.2byte	0x9
 2330 0483 F3       		.byte	0xf3
 2331 0484 01       		.uleb128 0x1
 2332 0485 53       		.byte	0x53
 2333 0486 77       		.byte	0x77
 2334 0487 00       		.sleb128 0
 2335 0488 22       		.byte	0x22
 2336 0489 23       		.byte	0x23
 2337 048a 08       		.uleb128 0x8
ARM GAS  /var/folders/bz/nn5481rn5xq59rb0mbj7x0880000gn/T//cc2OpY8g.s 			page 42


 2338 048b 9F       		.byte	0x9f
 2339 048c CE000000 		.4byte	.LVL62
 2340 0490 DE000000 		.4byte	.LVL64
 2341 0494 0700     		.2byte	0x7
 2342 0496 77       		.byte	0x77
 2343 0497 00       		.sleb128 0
 2344 0498 F3       		.byte	0xf3
 2345 0499 01       		.uleb128 0x1
 2346 049a 53       		.byte	0x53
 2347 049b 22       		.byte	0x22
 2348 049c 9F       		.byte	0x9f
 2349 049d 00000000 		.4byte	0
 2350 04a1 00000000 		.4byte	0
 2351              	.LLST23:
 2352 04a5 18000000 		.4byte	.LVL32
 2353 04a9 84000000 		.4byte	.LVL50
 2354 04ad 0200     		.2byte	0x2
 2355 04af 91       		.byte	0x91
 2356 04b0 04       		.sleb128 4
 2357 04b1 84000000 		.4byte	.LVL50
 2358 04b5 B2000000 		.4byte	.LVL56
 2359 04b9 0700     		.2byte	0x7
 2360 04bb 91       		.byte	0x91
 2361 04bc 04       		.sleb128 4
 2362 04bd 06       		.byte	0x6
 2363 04be 77       		.byte	0x77
 2364 04bf 00       		.sleb128 0
 2365 04c0 22       		.byte	0x22
 2366 04c1 9F       		.byte	0x9f
 2367 04c2 C0000000 		.4byte	.LVL58
 2368 04c6 C8000000 		.4byte	.LVL60
 2369 04ca 0700     		.2byte	0x7
 2370 04cc 91       		.byte	0x91
 2371 04cd 04       		.sleb128 4
 2372 04ce 06       		.byte	0x6
 2373 04cf 77       		.byte	0x77
 2374 04d0 00       		.sleb128 0
 2375 04d1 22       		.byte	0x22
 2376 04d2 9F       		.byte	0x9f
 2377 04d3 C8000000 		.4byte	.LVL60
 2378 04d7 CE000000 		.4byte	.LVL62
 2379 04db 0900     		.2byte	0x9
 2380 04dd 91       		.byte	0x91
 2381 04de 04       		.sleb128 4
 2382 04df 06       		.byte	0x6
 2383 04e0 77       		.byte	0x77
 2384 04e1 00       		.sleb128 0
 2385 04e2 22       		.byte	0x22
 2386 04e3 23       		.byte	0x23
 2387 04e4 04       		.uleb128 0x4
 2388 04e5 9F       		.byte	0x9f
 2389 04e6 CE000000 		.4byte	.LVL62
 2390 04ea D4000000 		.4byte	.LVL63
 2391 04ee 0900     		.2byte	0x9
 2392 04f0 91       		.byte	0x91
 2393 04f1 04       		.sleb128 4
 2394 04f2 06       		.byte	0x6
ARM GAS  /var/folders/bz/nn5481rn5xq59rb0mbj7x0880000gn/T//cc2OpY8g.s 			page 43


 2395 04f3 77       		.byte	0x77
 2396 04f4 00       		.sleb128 0
 2397 04f5 22       		.byte	0x22
 2398 04f6 34       		.byte	0x34
 2399 04f7 1C       		.byte	0x1c
 2400 04f8 9F       		.byte	0x9f
 2401 04f9 00000000 		.4byte	0
 2402 04fd 00000000 		.4byte	0
 2403              	.LLST24:
 2404 0501 18000000 		.4byte	.LVL32
 2405 0505 1B000000 		.4byte	.LVL33-1
 2406 0509 0100     		.2byte	0x1
 2407 050b 52       		.byte	0x52
 2408 050c 1B000000 		.4byte	.LVL33-1
 2409 0510 5C000000 		.4byte	.LVL41
 2410 0514 0100     		.2byte	0x1
 2411 0516 56       		.byte	0x56
 2412 0517 5C000000 		.4byte	.LVL41
 2413 051b 84000000 		.4byte	.LVL50
 2414 051f 0300     		.2byte	0x3
 2415 0521 76       		.byte	0x76
 2416 0522 04       		.sleb128 4
 2417 0523 9F       		.byte	0x9f
 2418 0524 84000000 		.4byte	.LVL50
 2419 0528 E2000000 		.4byte	.LFE112
 2420 052c 0600     		.2byte	0x6
 2421 052e F3       		.byte	0xf3
 2422 052f 01       		.uleb128 0x1
 2423 0530 52       		.byte	0x52
 2424 0531 23       		.byte	0x23
 2425 0532 04       		.uleb128 0x4
 2426 0533 9F       		.byte	0x9f
 2427 0534 00000000 		.4byte	0
 2428 0538 00000000 		.4byte	0
 2429              	.LLST25:
 2430 053c 18000000 		.4byte	.LVL32
 2431 0540 84000000 		.4byte	.LVL50
 2432 0544 0200     		.2byte	0x2
 2433 0546 30       		.byte	0x30
 2434 0547 9F       		.byte	0x9f
 2435 0548 84000000 		.4byte	.LVL50
 2436 054c B2000000 		.4byte	.LVL56
 2437 0550 0100     		.2byte	0x1
 2438 0552 57       		.byte	0x57
 2439 0553 C0000000 		.4byte	.LVL58
 2440 0557 CE000000 		.4byte	.LVL62
 2441 055b 0100     		.2byte	0x1
 2442 055d 57       		.byte	0x57
 2443 055e CE000000 		.4byte	.LVL62
 2444 0562 D4000000 		.4byte	.LVL63
 2445 0566 0300     		.2byte	0x3
 2446 0568 77       		.byte	0x77
 2447 0569 78       		.sleb128 -8
 2448 056a 9F       		.byte	0x9f
 2449 056b D4000000 		.4byte	.LVL63
 2450 056f DE000000 		.4byte	.LVL64
 2451 0573 0100     		.2byte	0x1
ARM GAS  /var/folders/bz/nn5481rn5xq59rb0mbj7x0880000gn/T//cc2OpY8g.s 			page 44


 2452 0575 57       		.byte	0x57
 2453 0576 00000000 		.4byte	0
 2454 057a 00000000 		.4byte	0
 2455              	.LLST26:
 2456 057e 44000000 		.4byte	.LVL34
 2457 0582 55000000 		.4byte	.LVL39-1
 2458 0586 0200     		.2byte	0x2
 2459 0588 77       		.byte	0x77
 2460 0589 00       		.sleb128 0
 2461 058a 00000000 		.4byte	0
 2462 058e 00000000 		.4byte	0
 2463              	.LLST27:
 2464 0592 48000000 		.4byte	.LVL35
 2465 0596 4C000000 		.4byte	.LVL37
 2466 059a 0100     		.2byte	0x1
 2467 059c 53       		.byte	0x53
 2468 059d 4C000000 		.4byte	.LVL37
 2469 05a1 55000000 		.4byte	.LVL39-1
 2470 05a5 0200     		.2byte	0x2
 2471 05a7 91       		.byte	0x91
 2472 05a8 48       		.sleb128 -56
 2473 05a9 00000000 		.4byte	0
 2474 05ad 00000000 		.4byte	0
 2475              	.LLST28:
 2476 05b1 4A000000 		.4byte	.LVL36
 2477 05b5 55000000 		.4byte	.LVL39-1
 2478 05b9 0200     		.2byte	0x2
 2479 05bb 77       		.byte	0x77
 2480 05bc 04       		.sleb128 4
 2481 05bd 00000000 		.4byte	0
 2482 05c1 00000000 		.4byte	0
 2483              	.LLST29:
 2484 05c5 4E000000 		.4byte	.LVL38
 2485 05c9 55000000 		.4byte	.LVL39-1
 2486 05cd 0100     		.2byte	0x1
 2487 05cf 53       		.byte	0x53
 2488 05d0 00000000 		.4byte	0
 2489 05d4 00000000 		.4byte	0
 2490              	.LLST30:
 2491 05d8 56000000 		.4byte	.LVL39
 2492 05dc 67000000 		.4byte	.LVL45-1
 2493 05e0 0200     		.2byte	0x2
 2494 05e2 76       		.byte	0x76
 2495 05e3 00       		.sleb128 0
 2496 05e4 00000000 		.4byte	0
 2497 05e8 00000000 		.4byte	0
 2498              	.LLST31:
 2499 05ec 5A000000 		.4byte	.LVL40
 2500 05f0 5E000000 		.4byte	.LVL42
 2501 05f4 0100     		.2byte	0x1
 2502 05f6 53       		.byte	0x53
 2503 05f7 5E000000 		.4byte	.LVL42
 2504 05fb 62000000 		.4byte	.LVL44
 2505 05ff 0300     		.2byte	0x3
 2506 0601 91       		.byte	0x91
 2507 0602 B07F     		.sleb128 -80
 2508 0604 62000000 		.4byte	.LVL44
ARM GAS  /var/folders/bz/nn5481rn5xq59rb0mbj7x0880000gn/T//cc2OpY8g.s 			page 45


 2509 0608 67000000 		.4byte	.LVL45-1
 2510 060c 0200     		.2byte	0x2
 2511 060e 70       		.byte	0x70
 2512 060f 00       		.sleb128 0
 2513 0610 00000000 		.4byte	0
 2514 0614 00000000 		.4byte	0
 2515              	.LLST32:
 2516 0618 5C000000 		.4byte	.LVL41
 2517 061c 67000000 		.4byte	.LVL45-1
 2518 0620 0200     		.2byte	0x2
 2519 0622 76       		.byte	0x76
 2520 0623 04       		.sleb128 4
 2521 0624 00000000 		.4byte	0
 2522 0628 00000000 		.4byte	0
 2523              	.LLST33:
 2524 062c 60000000 		.4byte	.LVL43
 2525 0630 67000000 		.4byte	.LVL45-1
 2526 0634 0100     		.2byte	0x1
 2527 0636 53       		.byte	0x53
 2528 0637 00000000 		.4byte	0
 2529 063b 00000000 		.4byte	0
 2530              		.section	.debug_aranges,"",%progbits
 2531 0000 24000000 		.4byte	0x24
 2532 0004 0200     		.2byte	0x2
 2533 0006 00000000 		.4byte	.Ldebug_info0
 2534 000a 04       		.byte	0x4
 2535 000b 00       		.byte	0
 2536 000c 0000     		.2byte	0
 2537 000e 0000     		.2byte	0
 2538 0010 00000000 		.4byte	.LFB111
 2539 0014 CA000000 		.4byte	.LFE111-.LFB111
 2540 0018 00000000 		.4byte	.LFB112
 2541 001c E2000000 		.4byte	.LFE112-.LFB112
 2542 0020 00000000 		.4byte	0
 2543 0024 00000000 		.4byte	0
 2544              		.section	.debug_ranges,"",%progbits
 2545              	.Ldebug_ranges0:
 2546 0000 00000000 		.4byte	.LFB111
 2547 0004 CA000000 		.4byte	.LFE111
 2548 0008 00000000 		.4byte	.LFB112
 2549 000c E2000000 		.4byte	.LFE112
 2550 0010 00000000 		.4byte	0
 2551 0014 00000000 		.4byte	0
 2552              		.section	.debug_line,"",%progbits
 2553              	.Ldebug_line0:
 2554 0000 F7020000 		.section	.debug_str,"MS",%progbits,1
 2554      0200E901 
 2554      00000201 
 2554      FB0E0D00 
 2554      01010101 
 2555              	.LASF73:
 2556 0000 72657375 		.ascii	"result\000"
 2556      6C7400
 2557              	.LASF44:
 2558 0007 43525950 		.ascii	"CRYP_IVInitTypeDef\000"
 2558      5F495649 
 2558      6E697454 
ARM GAS  /var/folders/bz/nn5481rn5xq59rb0mbj7x0880000gn/T//cc2OpY8g.s 			page 46


 2558      79706544 
 2558      656600
 2559              	.LASF55:
 2560 001a 696E7075 		.ascii	"inputaddr\000"
 2560      74616464 
 2560      7200
 2561              	.LASF64:
 2562 0024 43525950 		.ascii	"CRYP_KeyInit\000"
 2562      5F4B6579 
 2562      496E6974 
 2562      00
 2563              	.LASF76:
 2564 0031 43525950 		.ascii	"CRYP_GetFlagStatus\000"
 2564      5F476574 
 2564      466C6167 
 2564      53746174 
 2564      757300
 2565              	.LASF48:
 2566 0044 4F757470 		.ascii	"Output\000"
 2566      757400
 2567              	.LASF17:
 2568 004b 73697A65 		.ascii	"sizetype\000"
 2568      74797065 
 2568      00
 2569              	.LASF30:
 2570 0054 43525950 		.ascii	"CRYP_InitTypeDef\000"
 2570      5F496E69 
 2570      74547970 
 2570      65446566 
 2570      00
 2571              	.LASF8:
 2572 0065 5F5F7569 		.ascii	"__uint32_t\000"
 2572      6E743332 
 2572      5F7400
 2573              	.LASF38:
 2574 0070 43525950 		.ascii	"CRYP_Key3Right\000"
 2574      5F4B6579 
 2574      33526967 
 2574      687400
 2575              	.LASF4:
 2576 007f 5F5F7569 		.ascii	"__uint16_t\000"
 2576      6E743136 
 2576      5F7400
 2577              	.LASF34:
 2578 008a 43525950 		.ascii	"CRYP_Key1Right\000"
 2578      5F4B6579 
 2578      31526967 
 2578      687400
 2579              	.LASF61:
 2580 0099 69766164 		.ascii	"ivaddr\000"
 2580      647200
 2581              	.LASF49:
 2582 00a0 4445535F 		.ascii	"DES_CRYP_InitStructure\000"
 2582      43525950 
 2582      5F496E69 
 2582      74537472 
 2582      75637475 
ARM GAS  /var/folders/bz/nn5481rn5xq59rb0mbj7x0880000gn/T//cc2OpY8g.s 			page 47


 2583              	.LASF59:
 2584 00b7 496E6974 		.ascii	"InitVectors\000"
 2584      56656374 
 2584      6F727300 
 2585              	.LASF72:
 2586 00c3 76616C75 		.ascii	"value\000"
 2586      6500
 2587              	.LASF13:
 2588 00c9 75696E74 		.ascii	"uint8_t\000"
 2588      385F7400 
 2589              	.LASF56:
 2590 00d1 6F757470 		.ascii	"outputaddr\000"
 2590      75746164 
 2590      647200
 2591              	.LASF71:
 2592 00dc 5F5F5245 		.ascii	"__REV\000"
 2592      5600
 2593              	.LASF47:
 2594 00e2 496C656E 		.ascii	"Ilength\000"
 2594      67746800 
 2595              	.LASF62:
 2596 00ea 43525950 		.ascii	"CRYP_KeyStructInit\000"
 2596      5F4B6579 
 2596      53747275 
 2596      6374496E 
 2596      697400
 2597              	.LASF20:
 2598 00fd 44495341 		.ascii	"DISABLE\000"
 2598      424C4500 
 2599              	.LASF54:
 2600 0105 6B657961 		.ascii	"keyaddr\000"
 2600      64647200 
 2601              	.LASF2:
 2602 010d 73686F72 		.ascii	"short int\000"
 2602      7420696E 
 2602      7400
 2603              	.LASF65:
 2604 0117 43525950 		.ascii	"CRYP_Cmd\000"
 2604      5F436D64 
 2604      00
 2605              	.LASF10:
 2606 0120 6C6F6E67 		.ascii	"long long int\000"
 2606      206C6F6E 
 2606      6720696E 
 2606      7400
 2607              	.LASF7:
 2608 012e 6C6F6E67 		.ascii	"long int\000"
 2608      20696E74 
 2608      00
 2609              	.LASF25:
 2610 0137 4572726F 		.ascii	"ErrorStatus\000"
 2610      72537461 
 2610      74757300 
 2611              	.LASF3:
 2612 0143 5F5F7569 		.ascii	"__uint8_t\000"
 2612      6E74385F 
 2612      7400
ARM GAS  /var/folders/bz/nn5481rn5xq59rb0mbj7x0880000gn/T//cc2OpY8g.s 			page 48


 2613              	.LASF23:
 2614 014d 4552524F 		.ascii	"ERROR\000"
 2614      5200
 2615              	.LASF26:
 2616 0153 43525950 		.ascii	"CRYP_AlgoDir\000"
 2616      5F416C67 
 2616      6F446972 
 2616      00
 2617              	.LASF39:
 2618 0160 43525950 		.ascii	"CRYP_KeyInitTypeDef\000"
 2618      5F4B6579 
 2618      496E6974 
 2618      54797065 
 2618      44656600 
 2619              	.LASF41:
 2620 0174 43525950 		.ascii	"CRYP_IV0Right\000"
 2620      5F495630 
 2620      52696768 
 2620      7400
 2621              	.LASF1:
 2622 0182 756E7369 		.ascii	"unsigned char\000"
 2622      676E6564 
 2622      20636861 
 2622      7200
 2623              	.LASF51:
 2624 0190 636F756E 		.ascii	"counter\000"
 2624      74657200 
 2625              	.LASF40:
 2626 0198 43525950 		.ascii	"CRYP_IV0Left\000"
 2626      5F495630 
 2626      4C656674 
 2626      00
 2627              	.LASF68:
 2628 01a5 474E5520 		.ascii	"GNU C 4.9.3 20150529 (release) [ARM/embedded-4_9-br"
 2628      4320342E 
 2628      392E3320 
 2628      32303135 
 2628      30353239 
 2629 01d8 616E6368 		.ascii	"anch revision 224288] -mcpu=cortex-m4 -mfloat-abi=h"
 2629      20726576 
 2629      6973696F 
 2629      6E203232 
 2629      34323838 
 2630 020b 61726420 		.ascii	"ard -mfpu=fpv4-sp-d16 -mno-thumb-interwork -mthumb "
 2630      2D6D6670 
 2630      753D6670 
 2630      76342D73 
 2630      702D6431 
 2631 023e 2D676764 		.ascii	"-ggdb -O2 -std=gnu99 -fomit-frame-pointer -falign-f"
 2631      62202D4F 
 2631      32202D73 
 2631      74643D67 
 2631      6E753939 
 2632 0271 756E6374 		.ascii	"unctions=16 -ffunction-sections -fdata-sections -fn"
 2632      696F6E73 
 2632      3D313620 
 2632      2D666675 
ARM GAS  /var/folders/bz/nn5481rn5xq59rb0mbj7x0880000gn/T//cc2OpY8g.s 			page 49


 2632      6E637469 
 2633 02a4 6F2D636F 		.ascii	"o-common -fsingle-precision-constant\000"
 2633      6D6D6F6E 
 2633      202D6673 
 2633      696E676C 
 2633      652D7072 
 2634              	.LASF0:
 2635 02c9 7369676E 		.ascii	"signed char\000"
 2635      65642063 
 2635      68617200 
 2636              	.LASF11:
 2637 02d5 6C6F6E67 		.ascii	"long long unsigned int\000"
 2637      206C6F6E 
 2637      6720756E 
 2637      7369676E 
 2637      65642069 
 2638              	.LASF77:
 2639 02ec 43525950 		.ascii	"CRYP_DataOut\000"
 2639      5F446174 
 2639      614F7574 
 2639      00
 2640              	.LASF16:
 2641 02f9 75696E74 		.ascii	"uint32_t\000"
 2641      33325F74 
 2641      00
 2642              	.LASF12:
 2643 0302 756E7369 		.ascii	"unsigned int\000"
 2643      676E6564 
 2643      20696E74 
 2643      00
 2644              	.LASF14:
 2645 030f 75696E74 		.ascii	"uint16_t\000"
 2645      31365F74 
 2645      00
 2646              	.LASF31:
 2647 0318 43525950 		.ascii	"CRYP_Key0Left\000"
 2647      5F4B6579 
 2647      304C6566 
 2647      7400
 2648              	.LASF28:
 2649 0326 43525950 		.ascii	"CRYP_DataType\000"
 2649      5F446174 
 2649      61547970 
 2649      6500
 2650              	.LASF35:
 2651 0334 43525950 		.ascii	"CRYP_Key2Left\000"
 2651      5F4B6579 
 2651      324C6566 
 2651      7400
 2652              	.LASF60:
 2653 0342 4445535F 		.ascii	"DES_CRYP_IVInitStructure\000"
 2653      43525950 
 2653      5F495649 
 2653      6E697453 
 2653      74727563 
 2654              	.LASF24:
 2655 035b 53554343 		.ascii	"SUCCESS\000"
ARM GAS  /var/folders/bz/nn5481rn5xq59rb0mbj7x0880000gn/T//cc2OpY8g.s 			page 50


 2655      45535300 
 2656              	.LASF5:
 2657 0363 73686F72 		.ascii	"short unsigned int\000"
 2657      7420756E 
 2657      7369676E 
 2657      65642069 
 2657      6E7400
 2658              	.LASF53:
 2659 0376 73746174 		.ascii	"status\000"
 2659      757300
 2660              	.LASF37:
 2661 037d 43525950 		.ascii	"CRYP_Key3Left\000"
 2661      5F4B6579 
 2661      334C6566 
 2661      7400
 2662              	.LASF66:
 2663 038b 43525950 		.ascii	"CRYP_DataIn\000"
 2663      5F446174 
 2663      61496E00 
 2664              	.LASF15:
 2665 0397 696E7433 		.ascii	"int32_t\000"
 2665      325F7400 
 2666              	.LASF36:
 2667 039f 43525950 		.ascii	"CRYP_Key2Right\000"
 2667      5F4B6579 
 2667      32526967 
 2667      687400
 2668              	.LASF67:
 2669 03ae 43525950 		.ascii	"CRYP_IVInit\000"
 2669      5F495649 
 2669      6E697400 
 2670              	.LASF32:
 2671 03ba 43525950 		.ascii	"CRYP_Key0Right\000"
 2671      5F4B6579 
 2671      30526967 
 2671      687400
 2672              	.LASF29:
 2673 03c9 43525950 		.ascii	"CRYP_KeySize\000"
 2673      5F4B6579 
 2673      53697A65 
 2673      00
 2674              	.LASF58:
 2675 03d6 43525950 		.ascii	"CRYP_DES_CBC\000"
 2675      5F444553 
 2675      5F434243 
 2675      00
 2676              	.LASF57:
 2677 03e3 43525950 		.ascii	"CRYP_DES_ECB\000"
 2677      5F444553 
 2677      5F454342 
 2677      00
 2678              	.LASF69:
 2679 03f0 6C69622F 		.ascii	"lib/ChibiOS_2.6.6/ext/stdperiph_stm32f4/src/stm32f4"
 2679      43686962 
 2679      694F535F 
 2679      322E362E 
 2679      362F6578 
ARM GAS  /var/folders/bz/nn5481rn5xq59rb0mbj7x0880000gn/T//cc2OpY8g.s 			page 51


 2680 0423 78785F63 		.ascii	"xx_cryp_des.c\000"
 2680      7279705F 
 2680      6465732E 
 2680      6300
 2681              	.LASF9:
 2682 0431 6C6F6E67 		.ascii	"long unsigned int\000"
 2682      20756E73 
 2682      69676E65 
 2682      6420696E 
 2682      7400
 2683              	.LASF52:
 2684 0443 62757379 		.ascii	"busystatus\000"
 2684      73746174 
 2684      757300
 2685              	.LASF22:
 2686 044e 46756E63 		.ascii	"FunctionalState\000"
 2686      74696F6E 
 2686      616C5374 
 2686      61746500 
 2687              	.LASF70:
 2688 045e 2F557365 		.ascii	"/Users/imac/oroca_bldc_dev/oroca_bldc/\000"
 2688      72732F69 
 2688      6D61632F 
 2688      6F726F63 
 2688      615F626C 
 2689              	.LASF6:
 2690 0485 5F5F696E 		.ascii	"__int32_t\000"
 2690      7433325F 
 2690      7400
 2691              	.LASF18:
 2692 048f 52455345 		.ascii	"RESET\000"
 2692      5400
 2693              	.LASF42:
 2694 0495 43525950 		.ascii	"CRYP_IV1Left\000"
 2694      5F495631 
 2694      4C656674 
 2694      00
 2695              	.LASF50:
 2696 04a2 4445535F 		.ascii	"DES_CRYP_KeyInitStructure\000"
 2696      43525950 
 2696      5F4B6579 
 2696      496E6974 
 2696      53747275 
 2697              	.LASF75:
 2698 04bc 43525950 		.ascii	"CRYP_FIFOFlush\000"
 2698      5F464946 
 2698      4F466C75 
 2698      736800
 2699              	.LASF45:
 2700 04cb 4D6F6465 		.ascii	"Mode\000"
 2700      00
 2701              	.LASF46:
 2702 04d0 496E7075 		.ascii	"Input\000"
 2702      7400
 2703              	.LASF33:
 2704 04d6 43525950 		.ascii	"CRYP_Key1Left\000"
 2704      5F4B6579 
ARM GAS  /var/folders/bz/nn5481rn5xq59rb0mbj7x0880000gn/T//cc2OpY8g.s 			page 52


 2704      314C6566 
 2704      7400
 2705              	.LASF74:
 2706 04e4 49544D5F 		.ascii	"ITM_RxBuffer\000"
 2706      52784275 
 2706      66666572 
 2706      00
 2707              	.LASF63:
 2708 04f1 43525950 		.ascii	"CRYP_Init\000"
 2708      5F496E69 
 2708      7400
 2709              	.LASF19:
 2710 04fb 466C6167 		.ascii	"FlagStatus\000"
 2710      53746174 
 2710      757300
 2711              	.LASF43:
 2712 0506 43525950 		.ascii	"CRYP_IV1Right\000"
 2712      5F495631 
 2712      52696768 
 2712      7400
 2713              	.LASF21:
 2714 0514 454E4142 		.ascii	"ENABLE\000"
 2714      4C4500
 2715              	.LASF27:
 2716 051b 43525950 		.ascii	"CRYP_AlgoMode\000"
 2716      5F416C67 
 2716      6F4D6F64 
 2716      6500
 2717              		.ident	"GCC: (GNU Tools for ARM Embedded Processors) 4.9.3 20150529 (release) [ARM/embedded-4_9-br
ARM GAS  /var/folders/bz/nn5481rn5xq59rb0mbj7x0880000gn/T//cc2OpY8g.s 			page 53


DEFINED SYMBOLS
                            *ABS*:0000000000000000 stm32f4xx_cryp_des.c
/var/folders/bz/nn5481rn5xq59rb0mbj7x0880000gn/T//cc2OpY8g.s:21     .text.CRYP_DES_ECB:0000000000000000 $t
/var/folders/bz/nn5481rn5xq59rb0mbj7x0880000gn/T//cc2OpY8g.s:27     .text.CRYP_DES_ECB:0000000000000000 CRYP_DES_ECB
/var/folders/bz/nn5481rn5xq59rb0mbj7x0880000gn/T//cc2OpY8g.s:218    .text.CRYP_DES_CBC:0000000000000000 $t
/var/folders/bz/nn5481rn5xq59rb0mbj7x0880000gn/T//cc2OpY8g.s:224    .text.CRYP_DES_CBC:0000000000000000 CRYP_DES_CBC
                     .debug_frame:0000000000000010 $d

UNDEFINED SYMBOLS
CRYP_KeyStructInit
CRYP_Init
CRYP_KeyInit
CRYP_FIFOFlush
CRYP_Cmd
CRYP_DataIn
CRYP_GetFlagStatus
CRYP_DataOut
CRYP_IVInit
