ARM GAS  /var/folders/bz/nn5481rn5xq59rb0mbj7x0880000gn/T//cckDT4Uq.s 			page 1


   1              		.syntax unified
   2              		.cpu cortex-m4
   3              		.eabi_attribute 27, 1
   4              		.eabi_attribute 28, 1
   5              		.fpu fpv4-sp-d16
   6              		.eabi_attribute 20, 1
   7              		.eabi_attribute 21, 1
   8              		.eabi_attribute 23, 3
   9              		.eabi_attribute 24, 1
  10              		.eabi_attribute 25, 1
  11              		.eabi_attribute 26, 1
  12              		.eabi_attribute 30, 2
  13              		.eabi_attribute 34, 1
  14              		.eabi_attribute 18, 4
  15              		.thumb
  16              		.file	"stm32f4xx_syscfg.c"
  17              		.text
  18              	.Ltext0:
  19              		.cfi_sections	.debug_frame
  20              		.section	.text.SYSCFG_DeInit,"ax",%progbits
  21              		.align	2
  22              		.p2align 4,,15
  23              		.global	SYSCFG_DeInit
  24              		.thumb
  25              		.thumb_func
  26              		.type	SYSCFG_DeInit, %function
  27              	SYSCFG_DeInit:
  28              	.LFB111:
  29              		.file 1 "lib/ChibiOS_2.6.6/ext/stdperiph_stm32f4/src/stm32f4xx_syscfg.c"
  30              		.loc 1 93 0
  31              		.cfi_startproc
  32              		@ args = 0, pretend = 0, frame = 0
  33              		@ frame_needed = 0, uses_anonymous_args = 0
  34 0000 08B5     		push	{r3, lr}
  35              		.cfi_def_cfa_offset 8
  36              		.cfi_offset 3, -8
  37              		.cfi_offset 14, -4
  38              		.loc 1 94 0
  39 0002 4FF48040 		mov	r0, #16384
  40 0006 0121     		movs	r1, #1
  41 0008 FFF7FEFF 		bl	RCC_APB2PeriphResetCmd
  42              	.LVL0:
  43              		.loc 1 95 0
  44 000c 4FF48040 		mov	r0, #16384
  45 0010 0021     		movs	r1, #0
  46              		.loc 1 96 0
  47 0012 BDE80840 		pop	{r3, lr}
  48              		.cfi_restore 14
  49              		.cfi_restore 3
  50              		.cfi_def_cfa_offset 0
  51              		.loc 1 95 0
  52 0016 FFF7FEBF 		b	RCC_APB2PeriphResetCmd
  53              	.LVL1:
  54              		.cfi_endproc
  55              	.LFE111:
  56              		.size	SYSCFG_DeInit, .-SYSCFG_DeInit
  57 001a 00BF     		.section	.text.SYSCFG_MemoryRemapConfig,"ax",%progbits
ARM GAS  /var/folders/bz/nn5481rn5xq59rb0mbj7x0880000gn/T//cckDT4Uq.s 			page 2


  58              		.align	2
  59              		.p2align 4,,15
  60              		.global	SYSCFG_MemoryRemapConfig
  61              		.thumb
  62              		.thumb_func
  63              		.type	SYSCFG_MemoryRemapConfig, %function
  64              	SYSCFG_MemoryRemapConfig:
  65              	.LFB112:
  66              		.loc 1 109 0
  67              		.cfi_startproc
  68              		@ args = 0, pretend = 0, frame = 0
  69              		@ frame_needed = 0, uses_anonymous_args = 0
  70              		@ link register save eliminated.
  71              	.LVL2:
  72              		.loc 1 113 0
  73 0000 014B     		ldr	r3, .L4
  74 0002 1860     		str	r0, [r3]
  75 0004 7047     		bx	lr
  76              	.L5:
  77 0006 00BF     		.align	2
  78              	.L4:
  79 0008 00380140 		.word	1073821696
  80              		.cfi_endproc
  81              	.LFE112:
  82              		.size	SYSCFG_MemoryRemapConfig, .-SYSCFG_MemoryRemapConfig
  83              		.section	.text.SYSCFG_EXTILineConfig,"ax",%progbits
  84              		.align	2
  85              		.p2align 4,,15
  86              		.global	SYSCFG_EXTILineConfig
  87              		.thumb
  88              		.thumb_func
  89              		.type	SYSCFG_EXTILineConfig, %function
  90              	SYSCFG_EXTILineConfig:
  91              	.LFB113:
  92              		.loc 1 126 0
  93              		.cfi_startproc
  94              		@ args = 0, pretend = 0, frame = 0
  95              		@ frame_needed = 0, uses_anonymous_args = 0
  96              		@ link register save eliminated.
  97              	.LVL3:
  98 0000 01F0FC03 		and	r3, r1, #252
  99 0004 03F18043 		add	r3, r3, #1073741824
 100 0008 03F59C33 		add	r3, r3, #79872
 101              		.loc 1 133 0
 102 000c 01F00301 		and	r1, r1, #3
 103              	.LVL4:
 104              		.loc 1 126 0
 105 0010 10B4     		push	{r4}
 106              		.cfi_def_cfa_offset 4
 107              		.cfi_offset 4, -4
 108              		.loc 1 133 0
 109 0012 8900     		lsls	r1, r1, #2
 110              	.LVL5:
 111              		.loc 1 134 0
 112 0014 9C68     		ldr	r4, [r3, #8]
 113              		.loc 1 133 0
 114 0016 0F22     		movs	r2, #15
ARM GAS  /var/folders/bz/nn5481rn5xq59rb0mbj7x0880000gn/T//cckDT4Uq.s 			page 3


 115 0018 8A40     		lsls	r2, r2, r1
 116              	.LVL6:
 117              		.loc 1 134 0
 118 001a 24EA0202 		bic	r2, r4, r2
 119              	.LVL7:
 120 001e 9A60     		str	r2, [r3, #8]
 121              		.loc 1 135 0
 122 0020 9A68     		ldr	r2, [r3, #8]
 123              		.loc 1 136 0
 124 0022 5DF8044B 		ldr	r4, [sp], #4
 125              		.cfi_restore 4
 126              		.cfi_def_cfa_offset 0
 127              		.loc 1 135 0
 128 0026 8840     		lsls	r0, r0, r1
 129              	.LVL8:
 130 0028 0243     		orrs	r2, r2, r0
 131 002a 9A60     		str	r2, [r3, #8]
 132              		.loc 1 136 0
 133 002c 7047     		bx	lr
 134              		.cfi_endproc
 135              	.LFE113:
 136              		.size	SYSCFG_EXTILineConfig, .-SYSCFG_EXTILineConfig
 137 002e 00BF     		.section	.text.SYSCFG_ETH_MediaInterfaceConfig,"ax",%progbits
 138              		.align	2
 139              		.p2align 4,,15
 140              		.global	SYSCFG_ETH_MediaInterfaceConfig
 141              		.thumb
 142              		.thumb_func
 143              		.type	SYSCFG_ETH_MediaInterfaceConfig, %function
 144              	SYSCFG_ETH_MediaInterfaceConfig:
 145              	.LFB114:
 146              		.loc 1 147 0
 147              		.cfi_startproc
 148              		@ args = 0, pretend = 0, frame = 0
 149              		@ frame_needed = 0, uses_anonymous_args = 0
 150              		@ link register save eliminated.
 151              	.LVL9:
 152              		.loc 1 150 0
 153 0000 014B     		ldr	r3, .L9
 154 0002 1860     		str	r0, [r3]
 155 0004 7047     		bx	lr
 156              	.L10:
 157 0006 00BF     		.align	2
 158              	.L9:
 159 0008 DC002742 		.word	1109852380
 160              		.cfi_endproc
 161              	.LFE114:
 162              		.size	SYSCFG_ETH_MediaInterfaceConfig, .-SYSCFG_ETH_MediaInterfaceConfig
 163              		.section	.text.SYSCFG_CompensationCellCmd,"ax",%progbits
 164              		.align	2
 165              		.p2align 4,,15
 166              		.global	SYSCFG_CompensationCellCmd
 167              		.thumb
 168              		.thumb_func
 169              		.type	SYSCFG_CompensationCellCmd, %function
 170              	SYSCFG_CompensationCellCmd:
 171              	.LFB115:
ARM GAS  /var/folders/bz/nn5481rn5xq59rb0mbj7x0880000gn/T//cckDT4Uq.s 			page 4


 172              		.loc 1 164 0
 173              		.cfi_startproc
 174              		@ args = 0, pretend = 0, frame = 0
 175              		@ frame_needed = 0, uses_anonymous_args = 0
 176              		@ link register save eliminated.
 177              	.LVL10:
 178              		.loc 1 168 0
 179 0000 014B     		ldr	r3, .L12
 180 0002 1860     		str	r0, [r3]
 181 0004 7047     		bx	lr
 182              	.L13:
 183 0006 00BF     		.align	2
 184              	.L12:
 185 0008 00042742 		.word	1109853184
 186              		.cfi_endproc
 187              	.LFE115:
 188              		.size	SYSCFG_CompensationCellCmd, .-SYSCFG_CompensationCellCmd
 189              		.section	.text.SYSCFG_GetCompensationCellStatus,"ax",%progbits
 190              		.align	2
 191              		.p2align 4,,15
 192              		.global	SYSCFG_GetCompensationCellStatus
 193              		.thumb
 194              		.thumb_func
 195              		.type	SYSCFG_GetCompensationCellStatus, %function
 196              	SYSCFG_GetCompensationCellStatus:
 197              	.LFB116:
 198              		.loc 1 177 0
 199              		.cfi_startproc
 200              		@ args = 0, pretend = 0, frame = 0
 201              		@ frame_needed = 0, uses_anonymous_args = 0
 202              		@ link register save eliminated.
 203              	.LVL11:
 204              		.loc 1 180 0
 205 0000 024B     		ldr	r3, .L15
 206 0002 186A     		ldr	r0, [r3, #32]
 207              	.LVL12:
 208              		.loc 1 189 0
 209 0004 C0F30020 		ubfx	r0, r0, #8, #1
 210              	.LVL13:
 211 0008 7047     		bx	lr
 212              	.L16:
 213 000a 00BF     		.align	2
 214              	.L15:
 215 000c 00380140 		.word	1073821696
 216              		.cfi_endproc
 217              	.LFE116:
 218              		.size	SYSCFG_GetCompensationCellStatus, .-SYSCFG_GetCompensationCellStatus
 219              		.text
 220              	.Letext0:
 221              		.file 2 "/Users/imac/Downloads/gcc-arm-none-eabi-4_9-2015q2/arm-none-eabi/include/machine/_default
 222              		.file 3 "/Users/imac/Downloads/gcc-arm-none-eabi-4_9-2015q2/arm-none-eabi/include/sys/_stdint.h"
 223              		.file 4 "lib/ChibiOS_2.6.6/os/hal/platforms/STM32F4xx/stm32f4xx.h"
 224              		.file 5 "lib/ChibiOS_2.6.6/os/ports/common/ARMCMx/CMSIS/include/core_cm4.h"
 225              		.file 6 "lib/ChibiOS_2.6.6/ext/stdperiph_stm32f4/inc/stm32f4xx_rcc.h"