ARM GAS  /var/folders/7z/kps_xzfj7sn5l5gkyq8s9db00000gn/T//ccVy0HGQ.s 			page 1


   1              		.syntax unified
   2              		.cpu cortex-m4
   3              		.eabi_attribute 27, 1
   4              		.eabi_attribute 28, 1
   5              		.fpu fpv4-sp-d16
   6              		.eabi_attribute 20, 1
   7              		.eabi_attribute 21, 1
   8              		.eabi_attribute 23, 3
   9              		.eabi_attribute 24, 1
  10              		.eabi_attribute 25, 1
  11              		.eabi_attribute 26, 1
  12              		.eabi_attribute 30, 2
  13              		.eabi_attribute 34, 1
  14              		.eabi_attribute 18, 4
  15              		.thumb
  16              		.file	"stm32f4xx_hash_md5.c"
  17              		.text
  18              	.Ltext0:
  19              		.cfi_sections	.debug_frame
  20              		.section	.text.HASH_MD5,"ax",%progbits
  21              		.align	2
  22              		.p2align 4,,15
  23              		.global	HASH_MD5
  24              		.thumb
  25              		.thumb_func
  26              		.type	HASH_MD5, %function
  27              	HASH_MD5:
  28              	.LFB111:
  29              		.file 1 "lib/ChibiOS_2.6.6/ext/stdperiph_stm32f4/src/stm32f4xx_hash_md5.c"
  30              		.loc 1 94 0
  31              		.cfi_startproc
  32              		@ args = 0, pretend = 0, frame = 48
  33              		@ frame_needed = 0, uses_anonymous_args = 0
  34              	.LVL0:
  35 0000 F0B5     		push	{r4, r5, r6, r7, lr}
  36              		.cfi_def_cfa_offset 20
  37              		.cfi_offset 4, -20
  38              		.cfi_offset 5, -16
  39              		.cfi_offset 6, -12
  40              		.cfi_offset 7, -8
  41              		.cfi_offset 14, -4
  42              		.loc 1 107 0
  43 0002 01F00303 		and	r3, r1, #3
  44              		.loc 1 94 0
  45 0006 8DB0     		sub	sp, sp, #52
  46              		.cfi_def_cfa_offset 72
  47              		.loc 1 97 0
  48 0008 0024     		movs	r4, #0
  49              		.loc 1 107 0
  50 000a DB00     		lsls	r3, r3, #3
  51              		.loc 1 97 0
  52 000c ADF80640 		strh	r4, [sp, #6]	@ movhi
  53              	.LVL1:
  54              		.loc 1 94 0
  55 0010 0D46     		mov	r5, r1
  56 0012 0746     		mov	r7, r0
  57              		.loc 1 99 0
ARM GAS  /var/folders/7z/kps_xzfj7sn5l5gkyq8s9db00000gn/T//ccVy0HGQ.s 			page 2


  58 0014 0294     		str	r4, [sp, #8]
  59              	.LVL2:
  60              		.loc 1 94 0
  61 0016 1646     		mov	r6, r2
  62              	.LVL3:
  63              		.loc 1 107 0
  64 0018 ADF80630 		strh	r3, [sp, #6]	@ movhi
  65              		.loc 1 110 0
  66 001c FFF7FEFF 		bl	HASH_DeInit
  67              	.LVL4:
  68              		.loc 1 113 0
  69 0020 8022     		movs	r2, #128
  70              		.loc 1 115 0
  71 0022 2023     		movs	r3, #32
  72              		.loc 1 116 0
  73 0024 03A8     		add	r0, sp, #12
  74              		.loc 1 114 0
  75 0026 0494     		str	r4, [sp, #16]
  76              		.loc 1 113 0
  77 0028 0392     		str	r2, [sp, #12]
  78              		.loc 1 115 0
  79 002a 0593     		str	r3, [sp, #20]
  80              		.loc 1 116 0
  81 002c FFF7FEFF 		bl	HASH_Init
  82              	.LVL5:
  83              		.loc 1 119 0
  84 0030 BDF80600 		ldrh	r0, [sp, #6]
  85 0034 80B2     		uxth	r0, r0
  86 0036 FFF7FEFF 		bl	HASH_SetLastWordValidBitsNbr
  87              	.LVL6:
  88              		.loc 1 122 0
  89 003a 3C46     		mov	r4, r7
  90 003c 35B1     		cbz	r5, .L5
  91              	.LVL7:
  92              	.L4:
  93              		.loc 1 124 0 discriminator 3
  94 003e 54F8040B 		ldr	r0, [r4], #4
  95              	.LVL8:
  96 0042 FFF7FEFF 		bl	HASH_DataIn
  97              	.LVL9:
  98 0046 E31B     		subs	r3, r4, r7
  99              		.loc 1 122 0 discriminator 3
 100 0048 9D42     		cmp	r5, r3
 101 004a F8D8     		bhi	.L4
 102              	.LVL10:
 103              	.L5:
 104              		.loc 1 129 0
 105 004c FFF7FEFF 		bl	HASH_StartDigest
 106              	.LVL11:
 107 0050 00E0     		b	.L3
 108              	.LVL12:
 109              	.L14:
 110              		.loc 1 136 0 discriminator 1
 111 0052 68B1     		cbz	r0, .L7
 112              	.LVL13:
 113              	.L3:
 114              		.loc 1 134 0 discriminator 2
ARM GAS  /var/folders/7z/kps_xzfj7sn5l5gkyq8s9db00000gn/T//ccVy0HGQ.s 			page 3


 115 0054 0820     		movs	r0, #8
 116 0056 FFF7FEFF 		bl	HASH_GetFlagStatus
 117              	.LVL14:
 118              		.loc 1 135 0 discriminator 2
 119 005a 029B     		ldr	r3, [sp, #8]
 120 005c 0133     		adds	r3, r3, #1
 121 005e 0293     		str	r3, [sp, #8]
 122              		.loc 1 136 0 discriminator 2
 123 0060 029B     		ldr	r3, [sp, #8]
 124 0062 B3F5803F 		cmp	r3, #65536
 125 0066 F4D1     		bne	.L14
 126              		.loc 1 138 0
 127 0068 10B1     		cbz	r0, .L7
 128              		.loc 1 140 0
 129 006a 0020     		movs	r0, #0
 130              	.LVL15:
 131              		.loc 1 155 0
 132 006c 0DB0     		add	sp, sp, #52
 133              		.cfi_remember_state
 134              		.cfi_def_cfa_offset 20
 135              		@ sp needed
 136 006e F0BD     		pop	{r4, r5, r6, r7, pc}
 137              	.LVL16:
 138              	.L7:
 139              		.cfi_restore_state
 140              		.loc 1 145 0
 141 0070 07A8     		add	r0, sp, #28
 142              	.LVL17:
 143 0072 FFF7FEFF 		bl	HASH_GetDigest
 144              	.LVL18:
 145              	.LBB18:
 146              	.LBB19:
 147              		.file 2 "lib/ChibiOS_2.6.6/os/ports/common/ARMCMx/CMSIS/include/core_cmInstr.h"
 148              		.loc 2 369 0
 149 0076 079B     		ldr	r3, [sp, #28]
 150              	@ 369 "lib/ChibiOS_2.6.6/os/ports/common/ARMCMx/CMSIS/include/core_cmInstr.h" 1
 151 0078 1BBA     		rev r3, r3
 152              	@ 0 "" 2
 153              	.LVL19:
 154              		.thumb
 155              	.LBE19:
 156              	.LBE18:
 157              		.loc 1 146 0
 158 007a 3360     		str	r3, [r6]
 159              	.LVL20:
 160              	.LBB20:
 161              	.LBB21:
 162              		.loc 2 369 0
 163 007c 089B     		ldr	r3, [sp, #32]
 164              	.LVL21:
 165              	@ 369 "lib/ChibiOS_2.6.6/os/ports/common/ARMCMx/CMSIS/include/core_cmInstr.h" 1
 166 007e 1BBA     		rev r3, r3
 167              	@ 0 "" 2
 168              	.LVL22:
 169              		.thumb
 170              	.LBE21:
 171              	.LBE20:
ARM GAS  /var/folders/7z/kps_xzfj7sn5l5gkyq8s9db00000gn/T//ccVy0HGQ.s 			page 4


 172              		.loc 1 148 0
 173 0080 7360     		str	r3, [r6, #4]
 174              	.LVL23:
 175              	.LBB22:
 176              	.LBB23:
 177              		.loc 2 369 0
 178 0082 099B     		ldr	r3, [sp, #36]
 179              	.LVL24:
 180              	@ 369 "lib/ChibiOS_2.6.6/os/ports/common/ARMCMx/CMSIS/include/core_cmInstr.h" 1
 181 0084 1BBA     		rev r3, r3
 182              	@ 0 "" 2
 183              	.LVL25:
 184              		.thumb
 185              	.LBE23:
 186              	.LBE22:
 187              		.loc 1 150 0
 188 0086 B360     		str	r3, [r6, #8]
 189              	.LVL26:
 190              	.LBB24:
 191              	.LBB25:
 192              		.loc 2 369 0
 193 0088 0A9B     		ldr	r3, [sp, #40]
 194              	.LVL27:
 195              	@ 369 "lib/ChibiOS_2.6.6/os/ports/common/ARMCMx/CMSIS/include/core_cmInstr.h" 1
 196 008a 1BBA     		rev r3, r3
 197              	@ 0 "" 2
 198              	.LVL28:
 199              		.thumb
 200              	.LBE25:
 201              	.LBE24:
 202              		.loc 1 101 0
 203 008c 0120     		movs	r0, #1
 204              		.loc 1 152 0
 205 008e F360     		str	r3, [r6, #12]
 206              	.LVL29:
 207              		.loc 1 155 0
 208 0090 0DB0     		add	sp, sp, #52
 209              		.cfi_def_cfa_offset 20
 210              		@ sp needed
 211 0092 F0BD     		pop	{r4, r5, r6, r7, pc}
 212              		.cfi_endproc
 213              	.LFE111:
 214              		.size	HASH_MD5, .-HASH_MD5
 215 0094 AFF30080 		.section	.text.HMAC_MD5,"ax",%progbits
 215      AFF30080 
 215      AFF30080 
 216              		.align	2
 217              		.p2align 4,,15
 218              		.global	HMAC_MD5
 219              		.thumb
 220              		.thumb_func
 221              		.type	HMAC_MD5, %function
 222              	HMAC_MD5:
 223              	.LFB112:
 224              		.loc 1 170 0
 225              		.cfi_startproc
 226              		@ args = 4, pretend = 0, frame = 48
ARM GAS  /var/folders/7z/kps_xzfj7sn5l5gkyq8s9db00000gn/T//ccVy0HGQ.s 			page 5


 227              		@ frame_needed = 0, uses_anonymous_args = 0
 228              	.LVL30:
 229 0000 2DE9F041 		push	{r4, r5, r6, r7, r8, lr}
 230              		.cfi_def_cfa_offset 24
 231              		.cfi_offset 4, -24
 232              		.cfi_offset 5, -20
 233              		.cfi_offset 6, -16
 234              		.cfi_offset 7, -12
 235              		.cfi_offset 8, -8
 236              		.cfi_offset 14, -4
 237 0004 0D46     		mov	r5, r1
 238 0006 8CB0     		sub	sp, sp, #48
 239              		.cfi_def_cfa_offset 72
 240              		.loc 1 184 0
 241 0008 03F00301 		and	r1, r3, #3
 242              	.LVL31:
 243              		.loc 1 170 0
 244 000c 1F46     		mov	r7, r3
 245              		.loc 1 187 0
 246 000e 05F00303 		and	r3, r5, #3
 247              	.LVL32:
 248              		.loc 1 173 0
 249 0012 0024     		movs	r4, #0
 250              		.loc 1 184 0
 251 0014 C900     		lsls	r1, r1, #3
 252              		.loc 1 187 0
 253 0016 DB00     		lsls	r3, r3, #3
 254              		.loc 1 173 0
 255 0018 ADF80440 		strh	r4, [sp, #4]	@ movhi
 256              		.loc 1 170 0
 257 001c 9046     		mov	r8, r2
 258              		.loc 1 174 0
 259 001e ADF80640 		strh	r4, [sp, #6]	@ movhi
 260              	.LVL33:
 261              		.loc 1 170 0
 262 0022 0646     		mov	r6, r0
 263              		.loc 1 176 0
 264 0024 0294     		str	r4, [sp, #8]
 265              	.LVL34:
 266              		.loc 1 184 0
 267 0026 ADF80410 		strh	r1, [sp, #4]	@ movhi
 268              		.loc 1 187 0
 269 002a ADF80630 		strh	r3, [sp, #6]	@ movhi
 270              		.loc 1 190 0
 271 002e FFF7FEFF 		bl	HASH_DeInit
 272              	.LVL35:
 273              		.loc 1 194 0
 274 0032 4022     		movs	r2, #64
 275              		.loc 1 193 0
 276 0034 8021     		movs	r1, #128
 277              		.loc 1 195 0
 278 0036 2023     		movs	r3, #32
 279              		.loc 1 196 0
 280 0038 9542     		cmp	r5, r2
 281              		.loc 1 193 0
 282 003a 0391     		str	r1, [sp, #12]
 283              		.loc 1 194 0
ARM GAS  /var/folders/7z/kps_xzfj7sn5l5gkyq8s9db00000gn/T//ccVy0HGQ.s 			page 6


 284 003c 0492     		str	r2, [sp, #16]
 285              		.loc 1 195 0
 286 003e 0593     		str	r3, [sp, #20]
 287              		.loc 1 196 0
 288 0040 25D9     		bls	.L16
 289              		.loc 1 199 0
 290 0042 4FF48033 		mov	r3, #65536
 291              		.loc 1 206 0
 292 0046 03A8     		add	r0, sp, #12
 293              		.loc 1 199 0
 294 0048 0693     		str	r3, [sp, #24]
 295              		.loc 1 206 0
 296 004a FFF7FEFF 		bl	HASH_Init
 297              	.LVL36:
 298              		.loc 1 209 0
 299 004e BDF80600 		ldrh	r0, [sp, #6]
 300 0052 80B2     		uxth	r0, r0
 301 0054 FFF7FEFF 		bl	HASH_SetLastWordValidBitsNbr
 302              	.LVL37:
 303 0058 3446     		mov	r4, r6
 304              	.LVL38:
 305              	.L19:
 306              		.loc 1 214 0 discriminator 3
 307 005a 54F8040B 		ldr	r0, [r4], #4
 308              	.LVL39:
 309 005e FFF7FEFF 		bl	HASH_DataIn
 310              	.LVL40:
 311 0062 A31B     		subs	r3, r4, r6
 312              		.loc 1 212 0 discriminator 3
 313 0064 9D42     		cmp	r5, r3
 314 0066 F8D8     		bhi	.L19
 315              	.LVL41:
 316              	.L20:
 317              		.loc 1 219 0
 318 0068 FFF7FEFF 		bl	HASH_StartDigest
 319              	.LVL42:
 320 006c 00E0     		b	.L18
 321              	.LVL43:
 322              	.L48:
 323              		.loc 1 226 0 discriminator 1
 324 006e D8B1     		cbz	r0, .L22
 325              	.LVL44:
 326              	.L18:
 327              		.loc 1 224 0 discriminator 2
 328 0070 0820     		movs	r0, #8
 329 0072 FFF7FEFF 		bl	HASH_GetFlagStatus
 330              	.LVL45:
 331              		.loc 1 225 0 discriminator 2
 332 0076 029B     		ldr	r3, [sp, #8]
 333 0078 0133     		adds	r3, r3, #1
 334 007a 0293     		str	r3, [sp, #8]
 335              		.loc 1 226 0 discriminator 2
 336 007c 029B     		ldr	r3, [sp, #8]
 337 007e B3F5803F 		cmp	r3, #65536
 338 0082 F4D1     		bne	.L48
 339              		.loc 1 228 0
 340 0084 80B1     		cbz	r0, .L22
ARM GAS  /var/folders/7z/kps_xzfj7sn5l5gkyq8s9db00000gn/T//ccVy0HGQ.s 			page 7


 341              	.LVL46:
 342              	.L30:
 343              		.loc 1 230 0
 344 0086 0020     		movs	r0, #0
 345              	.LVL47:
 346              	.L23:
 347              		.loc 1 302 0
 348 0088 0CB0     		add	sp, sp, #48
 349              		.cfi_remember_state
 350              		.cfi_def_cfa_offset 24
 351              		@ sp needed
 352 008a BDE8F081 		pop	{r4, r5, r6, r7, r8, pc}
 353              	.LVL48:
 354              	.L16:
 355              		.cfi_restore_state
 356              		.loc 1 206 0
 357 008e 03A8     		add	r0, sp, #12
 358              		.loc 1 204 0
 359 0090 0694     		str	r4, [sp, #24]
 360              		.loc 1 206 0
 361 0092 FFF7FEFF 		bl	HASH_Init
 362              	.LVL49:
 363              		.loc 1 209 0
 364 0096 BDF80600 		ldrh	r0, [sp, #6]
 365 009a 80B2     		uxth	r0, r0
 366 009c FFF7FEFF 		bl	HASH_SetLastWordValidBitsNbr
 367              	.LVL50:
 368              		.loc 1 212 0
 369 00a0 002D     		cmp	r5, #0
 370 00a2 E1D0     		beq	.L20
 371 00a4 3446     		mov	r4, r6
 372 00a6 D8E7     		b	.L19
 373              	.LVL51:
 374              	.L22:
 375              		.loc 1 235 0
 376 00a8 BDF80400 		ldrh	r0, [sp, #4]
 377              	.LVL52:
 378 00ac 80B2     		uxth	r0, r0
 379 00ae FFF7FEFF 		bl	HASH_SetLastWordValidBitsNbr
 380              	.LVL53:
 381              		.loc 1 180 0
 382 00b2 4446     		mov	r4, r8
 383              		.loc 1 238 0
 384 00b4 3FB1     		cbz	r7, .L27
 385              	.LVL54:
 386              	.L26:
 387              		.loc 1 240 0 discriminator 3
 388 00b6 54F8040B 		ldr	r0, [r4], #4
 389              	.LVL55:
 390 00ba FFF7FEFF 		bl	HASH_DataIn
 391              	.LVL56:
 392 00be C8EB0403 		rsb	r3, r8, r4
 393              		.loc 1 238 0 discriminator 3
 394 00c2 9F42     		cmp	r7, r3
 395 00c4 F7D8     		bhi	.L26
 396              	.LVL57:
 397              	.L27:
ARM GAS  /var/folders/7z/kps_xzfj7sn5l5gkyq8s9db00000gn/T//ccVy0HGQ.s 			page 8


 398              		.loc 1 245 0
 399 00c6 FFF7FEFF 		bl	HASH_StartDigest
 400              	.LVL58:
 401              		.loc 1 248 0
 402 00ca 0023     		movs	r3, #0
 403 00cc 0293     		str	r3, [sp, #8]
 404 00ce 00E0     		b	.L25
 405              	.LVL59:
 406              	.L49:
 407              		.loc 1 253 0 discriminator 1
 408 00d0 58B1     		cbz	r0, .L29
 409              	.LVL60:
 410              	.L25:
 411              		.loc 1 251 0 discriminator 2
 412 00d2 0820     		movs	r0, #8
 413 00d4 FFF7FEFF 		bl	HASH_GetFlagStatus
 414              	.LVL61:
 415              		.loc 1 252 0 discriminator 2
 416 00d8 029B     		ldr	r3, [sp, #8]
 417 00da 0133     		adds	r3, r3, #1
 418 00dc 0293     		str	r3, [sp, #8]
 419              		.loc 1 253 0 discriminator 2
 420 00de 029B     		ldr	r3, [sp, #8]
 421 00e0 B3F5803F 		cmp	r3, #65536
 422 00e4 F4D1     		bne	.L49
 423              		.loc 1 255 0
 424 00e6 0028     		cmp	r0, #0
 425 00e8 CDD1     		bne	.L30
 426              	.L29:
 427              		.loc 1 262 0
 428 00ea BDF80600 		ldrh	r0, [sp, #6]
 429              	.LVL62:
 430 00ee 80B2     		uxth	r0, r0
 431 00f0 FFF7FEFF 		bl	HASH_SetLastWordValidBitsNbr
 432              	.LVL63:
 433              		.loc 1 266 0
 434 00f4 3446     		mov	r4, r6
 435 00f6 35B1     		cbz	r5, .L34
 436              	.LVL64:
 437              	.L33:
 438              		.loc 1 268 0 discriminator 3
 439 00f8 54F8040B 		ldr	r0, [r4], #4
 440              	.LVL65:
 441 00fc FFF7FEFF 		bl	HASH_DataIn
 442              	.LVL66:
 443 0100 A31B     		subs	r3, r4, r6
 444              		.loc 1 266 0 discriminator 3
 445 0102 9D42     		cmp	r5, r3
 446 0104 F8D8     		bhi	.L33
 447              	.LVL67:
 448              	.L34:
 449              		.loc 1 273 0
 450 0106 FFF7FEFF 		bl	HASH_StartDigest
 451              	.LVL68:
 452              		.loc 1 276 0
 453 010a 0023     		movs	r3, #0
 454 010c 0293     		str	r3, [sp, #8]
ARM GAS  /var/folders/7z/kps_xzfj7sn5l5gkyq8s9db00000gn/T//ccVy0HGQ.s 			page 9


 455 010e 00E0     		b	.L32
 456              	.LVL69:
 457              	.L50:
 458              		.loc 1 281 0 discriminator 1
 459 0110 58B1     		cbz	r0, .L36
 460              	.LVL70:
 461              	.L32:
 462              		.loc 1 279 0 discriminator 2
 463 0112 0820     		movs	r0, #8
 464 0114 FFF7FEFF 		bl	HASH_GetFlagStatus
 465              	.LVL71:
 466              		.loc 1 280 0 discriminator 2
 467 0118 029B     		ldr	r3, [sp, #8]
 468 011a 0133     		adds	r3, r3, #1
 469 011c 0293     		str	r3, [sp, #8]
 470              		.loc 1 281 0 discriminator 2
 471 011e 029B     		ldr	r3, [sp, #8]
 472 0120 B3F5803F 		cmp	r3, #65536
 473 0124 F4D1     		bne	.L50
 474              		.loc 1 283 0
 475 0126 0028     		cmp	r0, #0
 476 0128 ADD1     		bne	.L30
 477              	.L36:
 478              		.loc 1 290 0
 479 012a 07A8     		add	r0, sp, #28
 480              	.LVL72:
 481 012c FFF7FEFF 		bl	HASH_GetDigest
 482              	.LVL73:
 483              	.LBB26:
 484              	.LBB27:
 485              		.loc 2 369 0
 486 0130 079B     		ldr	r3, [sp, #28]
 487              	@ 369 "lib/ChibiOS_2.6.6/os/ports/common/ARMCMx/CMSIS/include/core_cmInstr.h" 1
 488 0132 1BBA     		rev r3, r3
 489              	@ 0 "" 2
 490              	.LVL74:
 491              		.thumb
 492              	.LBE27:
 493              	.LBE26:
 494              		.loc 1 291 0
 495 0134 129A     		ldr	r2, [sp, #72]
 496 0136 1360     		str	r3, [r2]
 497              	.LVL75:
 498              	.LBB28:
 499              	.LBB29:
 500              		.loc 2 369 0
 501 0138 089B     		ldr	r3, [sp, #32]
 502              	.LVL76:
 503              	@ 369 "lib/ChibiOS_2.6.6/os/ports/common/ARMCMx/CMSIS/include/core_cmInstr.h" 1
 504 013a 1BBA     		rev r3, r3
 505              	@ 0 "" 2
 506              	.LVL77:
 507              		.thumb
 508              	.LBE29:
 509              	.LBE28:
 510              		.loc 1 293 0
 511 013c 5360     		str	r3, [r2, #4]
ARM GAS  /var/folders/7z/kps_xzfj7sn5l5gkyq8s9db00000gn/T//ccVy0HGQ.s 			page 10


 512              	.LVL78:
 513              	.LBB30:
 514              	.LBB31:
 515              		.loc 2 369 0
 516 013e 099B     		ldr	r3, [sp, #36]
 517              	.LVL79:
 518              	@ 369 "lib/ChibiOS_2.6.6/os/ports/common/ARMCMx/CMSIS/include/core_cmInstr.h" 1
 519 0140 1BBA     		rev r3, r3
 520              	@ 0 "" 2
 521              	.LVL80:
 522              		.thumb
 523              	.LBE31:
 524              	.LBE30:
 525              		.loc 1 295 0
 526 0142 9360     		str	r3, [r2, #8]
 527              	.LVL81:
 528              	.LBB32:
 529              	.LBB33:
 530              		.loc 2 369 0
 531 0144 0A9B     		ldr	r3, [sp, #40]
 532              	.LVL82:
 533              	@ 369 "lib/ChibiOS_2.6.6/os/ports/common/ARMCMx/CMSIS/include/core_cmInstr.h" 1
 534 0146 1BBA     		rev r3, r3
 535              	@ 0 "" 2
 536              	.LVL83:
 537              		.thumb
 538              	.LBE33:
 539              	.LBE32:
 540              		.loc 1 178 0
 541 0148 0120     		movs	r0, #1
 542              		.loc 1 297 0
 543 014a D360     		str	r3, [r2, #12]
 544 014c 9CE7     		b	.L23
 545              		.cfi_endproc
 546              	.LFE112:
 547              		.size	HMAC_MD5, .-HMAC_MD5
 548 014e 00BF     		.text
 549              	.Letext0:
 550              		.file 3 "/Users/Baram/gcc-arm-none-eabi/arm-none-eabi/include/machine/_default_types.h"
 551              		.file 4 "/Users/Baram/gcc-arm-none-eabi/arm-none-eabi/include/stdint.h"
 552              		.file 5 "lib/ChibiOS_2.6.6/os/hal/platforms/STM32F4xx/stm32f4xx.h"
 553              		.file 6 "lib/ChibiOS_2.6.6/ext/stdperiph_stm32f4/inc/stm32f4xx_hash.h"
 554              		.file 7 "lib/ChibiOS_2.6.6/os/ports/common/ARMCMx/CMSIS/include/core_cm4.h"