ARM GAS  /var/folders/bz/nn5481rn5xq59rb0mbj7x0880000gn/T//cc2OpY8g.s 			page 1


   1              		.syntax unified
   2              		.cpu cortex-m4
   3              		.eabi_attribute 27, 1
   4              		.eabi_attribute 28, 1
   5              		.fpu fpv4-sp-d16
   6              		.eabi_attribute 20, 1
   7              		.eabi_attribute 21, 1
   8              		.eabi_attribute 23, 3
   9              		.eabi_attribute 24, 1
  10              		.eabi_attribute 25, 1
  11              		.eabi_attribute 26, 1
  12              		.eabi_attribute 30, 2
  13              		.eabi_attribute 34, 1
  14              		.eabi_attribute 18, 4
  15              		.thumb
  16              		.file	"stm32f4xx_cryp_des.c"
  17              		.text
  18              	.Ltext0:
  19              		.cfi_sections	.debug_frame
  20              		.section	.text.CRYP_DES_ECB,"ax",%progbits
  21              		.align	2
  22              		.p2align 4,,15
  23              		.global	CRYP_DES_ECB
  24              		.thumb
  25              		.thumb_func
  26              		.type	CRYP_DES_ECB, %function
  27              	CRYP_DES_ECB:
  28              	.LFB111:
  29              		.file 1 "lib/ChibiOS_2.6.6/ext/stdperiph_stm32f4/src/stm32f4xx_cryp_des.c"
  30              		.loc 1 102 0
  31              		.cfi_startproc
  32              		@ args = 4, pretend = 0, frame = 48
  33              		@ frame_needed = 0, uses_anonymous_args = 0
  34              	.LVL0:
  35 0000 2DE9F043 		push	{r4, r5, r6, r7, r8, r9, lr}
  36              		.cfi_def_cfa_offset 28
  37              		.cfi_offset 4, -28
  38              		.cfi_offset 5, -24
  39              		.cfi_offset 6, -20
  40              		.cfi_offset 7, -16
  41              		.cfi_offset 8, -12
  42              		.cfi_offset 9, -8
  43              		.cfi_offset 14, -4
  44 0004 8DB0     		sub	sp, sp, #52
  45              		.cfi_def_cfa_offset 80
  46              		.loc 1 102 0
  47 0006 8146     		mov	r9, r0
  48              		.loc 1 105 0
  49 0008 0027     		movs	r7, #0
  50              		.loc 1 114 0
  51 000a 04A8     		add	r0, sp, #16
  52              	.LVL1:
  53              		.loc 1 102 0
  54 000c 0E46     		mov	r6, r1
  55 000e 9846     		mov	r8, r3
  56 0010 1446     		mov	r4, r2
  57              		.loc 1 105 0
ARM GAS  /var/folders/bz/nn5481rn5xq59rb0mbj7x0880000gn/T//cc2OpY8g.s 			page 2


  58 0012 0197     		str	r7, [sp, #4]
  59              	.LVL2:
  60              		.loc 1 102 0
  61 0014 149D     		ldr	r5, [sp, #80]
  62              	.LVL3:
  63              		.loc 1 114 0
  64 0016 FFF7FEFF 		bl	CRYP_KeyStructInit
  65              	.LVL4:
  66              		.loc 1 117 0
  67 001a B9F1010F 		cmp	r9, #1
  68              		.loc 1 123 0
  69 001e 1CBF     		itt	ne
  70 0020 0423     		movne	r3, #4
  71 0022 ADF80830 		strhne	r3, [sp, #8]	@ movhi
  72              		.loc 1 126 0
  73 0026 4FF01002 		mov	r2, #16
  74              		.loc 1 127 0
  75 002a 4FF08003 		mov	r3, #128
  76              		.loc 1 128 0
  77 002e 02A8     		add	r0, sp, #8
  78              		.loc 1 119 0
  79 0030 08BF     		it	eq
  80 0032 ADF80870 		strheq	r7, [sp, #8]	@ movhi
  81              		.loc 1 127 0
  82 0036 ADF80C30 		strh	r3, [sp, #12]	@ movhi
  83              		.loc 1 126 0
  84 003a ADF80A20 		strh	r2, [sp, #10]	@ movhi
  85              		.loc 1 128 0
  86 003e FFF7FEFF 		bl	CRYP_Init
  87              	.LVL5:
  88              	.LBB14:
  89              	.LBB15:
  90              		.file 2 "lib/ChibiOS_2.6.6/os/ports/common/ARMCMx/CMSIS/include/core_cmInstr.h"
  91              		.loc 2 369 0
  92 0042 3368     		ldr	r3, [r6]
  93              	@ 369 "lib/ChibiOS_2.6.6/os/ports/common/ARMCMx/CMSIS/include/core_cmInstr.h" 1
  94 0044 1BBA     		rev r3, r3
  95              	@ 0 "" 2
  96              	.LVL6:
  97              		.thumb
  98              	.LBE15:
  99              	.LBE14:
 100              		.loc 1 131 0
 101 0046 0693     		str	r3, [sp, #24]
 102              	.LVL7:
 103              	.LBB16:
 104              	.LBB17:
 105              		.loc 2 369 0
 106 0048 7368     		ldr	r3, [r6, #4]
 107              	.LVL8:
 108              	@ 369 "lib/ChibiOS_2.6.6/os/ports/common/ARMCMx/CMSIS/include/core_cmInstr.h" 1
 109 004a 1BBA     		rev r3, r3
 110              	@ 0 "" 2
 111              	.LVL9:
 112              		.thumb
 113              	.LBE17:
 114              	.LBE16:
ARM GAS  /var/folders/bz/nn5481rn5xq59rb0mbj7x0880000gn/T//cc2OpY8g.s 			page 3


 115              		.loc 1 134 0
 116 004c 04A8     		add	r0, sp, #16
 117              		.loc 1 133 0
 118 004e 0793     		str	r3, [sp, #28]
 119              		.loc 1 134 0
 120 0050 FFF7FEFF 		bl	CRYP_KeyInit
 121              	.LVL10:
 122              		.loc 1 137 0
 123 0054 FFF7FEFF 		bl	CRYP_FIFOFlush
 124              	.LVL11:
 125              		.loc 1 140 0
 126 0058 0120     		movs	r0, #1
 127 005a FFF7FEFF 		bl	CRYP_Cmd
 128              	.LVL12:
 129              		.loc 1 142 0
 130 005e B8F1000F 		cmp	r8, #0
 131 0062 30D0     		beq	.L10
 132 0064 0027     		movs	r7, #0
 133 0066 0834     		adds	r4, r4, #8
 134              	.LVL13:
 135 0068 0835     		adds	r5, r5, #8
 136              	.LVL14:
 137              		.loc 1 152 0
 138 006a 3E46     		mov	r6, r7
 139              	.LVL15:
 140              	.L9:
 141              		.loc 1 146 0
 142 006c 54F8080C 		ldr	r0, [r4, #-8]
 143 0070 FFF7FEFF 		bl	CRYP_DataIn
 144              	.LVL16:
 145              		.loc 1 148 0
 146 0074 54F8040C 		ldr	r0, [r4, #-4]
 147 0078 FFF7FEFF 		bl	CRYP_DataIn
 148              	.LVL17:
 149              		.loc 1 152 0
 150 007c 0196     		str	r6, [sp, #4]
 151 007e 00E0     		b	.L7
 152              	.LVL18:
 153              	.L16:
 154              		.loc 1 157 0 discriminator 1
 155 0080 90B1     		cbz	r0, .L8
 156              	.LVL19:
 157              	.L7:
 158              		.loc 1 155 0 discriminator 2
 159 0082 1020     		movs	r0, #16
 160 0084 FFF7FEFF 		bl	CRYP_GetFlagStatus
 161              	.LVL20:
 162              		.loc 1 156 0 discriminator 2
 163 0088 019B     		ldr	r3, [sp, #4]
 164 008a 0133     		adds	r3, r3, #1
 165 008c 0193     		str	r3, [sp, #4]
 166              		.loc 1 157 0 discriminator 2
 167 008e 019B     		ldr	r3, [sp, #4]
 168 0090 B3F5803F 		cmp	r3, #65536
 169 0094 F4D1     		bne	.L16
 170              		.loc 1 159 0
 171 0096 38B1     		cbz	r0, .L8
ARM GAS  /var/folders/bz/nn5481rn5xq59rb0mbj7x0880000gn/T//cc2OpY8g.s 			page 4


 172              		.loc 1 161 0
 173 0098 0024     		movs	r4, #0
 174              	.LVL21:
 175              	.L5:
 176              		.loc 1 175 0
 177 009a 0020     		movs	r0, #0
 178 009c FFF7FEFF 		bl	CRYP_Cmd
 179              	.LVL22:
 180              		.loc 1 178 0
 181 00a0 2046     		mov	r0, r4
 182 00a2 0DB0     		add	sp, sp, #52
 183              		.cfi_remember_state
 184              		.cfi_def_cfa_offset 28
 185              		@ sp needed
 186 00a4 BDE8F083 		pop	{r4, r5, r6, r7, r8, r9, pc}
 187              	.LVL23:
 188              	.L8:
 189              		.cfi_restore_state
 190              		.loc 1 167 0
 191 00a8 FFF7FEFF 		bl	CRYP_DataOut
 192              	.LVL24:
 193 00ac 45F8080C 		str	r0, [r5, #-8]
 194              	.LVL25:
 195              		.loc 1 169 0
 196 00b0 FFF7FEFF 		bl	CRYP_DataOut
 197              	.LVL26:
 198              		.loc 1 142 0
 199 00b4 0837     		adds	r7, r7, #8
 200              	.LVL27:
 201 00b6 B845     		cmp	r8, r7
 202              		.loc 1 169 0
 203 00b8 45F8040C 		str	r0, [r5, #-4]
 204              	.LVL28:
 205 00bc 04F10804 		add	r4, r4, #8
 206 00c0 05F10805 		add	r5, r5, #8
 207              		.loc 1 142 0
 208 00c4 D2D8     		bhi	.L9
 209              	.LVL29:
 210              	.L10:
 211              		.loc 1 107 0
 212 00c6 0124     		movs	r4, #1
 213 00c8 E7E7     		b	.L5
 214              		.cfi_endproc
 215              	.LFE111:
 216              		.size	CRYP_DES_ECB, .-CRYP_DES_ECB
 217 00ca 00BF     		.section	.text.CRYP_DES_CBC,"ax",%progbits
 218              		.align	2
 219              		.p2align 4,,15
 220              		.global	CRYP_DES_CBC
 221              		.thumb
 222              		.thumb_func
 223              		.type	CRYP_DES_CBC, %function
 224              	CRYP_DES_CBC:
 225              	.LFB112:
 226              		.loc 1 197 0
 227              		.cfi_startproc
 228              		@ args = 8, pretend = 0, frame = 64
ARM GAS  /var/folders/bz/nn5481rn5xq59rb0mbj7x0880000gn/T//cc2OpY8g.s 			page 5


 229              		@ frame_needed = 0, uses_anonymous_args = 0
 230              	.LVL30:
 231 0000 2DE9F045 		push	{r4, r5, r6, r7, r8, r10, lr}
 232              		.cfi_def_cfa_offset 28
 233              		.cfi_offset 4, -28
 234              		.cfi_offset 5, -24
 235              		.cfi_offset 6, -20
 236              		.cfi_offset 7, -16
 237              		.cfi_offset 8, -12
 238              		.cfi_offset 10, -8
 239              		.cfi_offset 14, -4
 240 0004 91B0     		sub	sp, sp, #68
 241              		.cfi_def_cfa_offset 96
 242              		.loc 1 197 0
 243 0006 8246     		mov	r10, r0
 244              		.loc 1 201 0
 245 0008 0025     		movs	r5, #0
 246              		.loc 1 211 0
 247 000a 08A8     		add	r0, sp, #32
 248              	.LVL31:
 249              		.loc 1 197 0
 250 000c 0F46     		mov	r7, r1
 251 000e 1C46     		mov	r4, r3
 252 0010 1646     		mov	r6, r2
 253              		.loc 1 201 0
 254 0012 0195     		str	r5, [sp, #4]
 255              		.loc 1 197 0
 256 0014 DDF86080 		ldr	r8, [sp, #96]
 257              	.LVL32:
 258              		.loc 1 211 0
 259 0018 FFF7FEFF 		bl	CRYP_KeyStructInit
 260              	.LVL33:
 261              		.loc 1 214 0
 262 001c BAF1010F 		cmp	r10, #1
 263              		.loc 1 220 0
 264 0020 1CBF     		itt	ne
 265 0022 0423     		movne	r3, #4
 266 0024 ADF80830 		strhne	r3, [sp, #8]	@ movhi
 267              		.loc 1 223 0
 268 0028 4FF01802 		mov	r2, #24
 269              		.loc 1 224 0
 270 002c 4FF08003 		mov	r3, #128
 271              		.loc 1 225 0
 272 0030 02A8     		add	r0, sp, #8
 273              		.loc 1 216 0
 274 0032 08BF     		it	eq
 275 0034 ADF80850 		strheq	r5, [sp, #8]	@ movhi
 276              		.loc 1 224 0
 277 0038 ADF80C30 		strh	r3, [sp, #12]	@ movhi
 278              		.loc 1 223 0
 279 003c ADF80A20 		strh	r2, [sp, #10]	@ movhi
 280              		.loc 1 225 0
 281 0040 FFF7FEFF 		bl	CRYP_Init
 282              	.LVL34:
 283              	.LBB18:
 284              	.LBB19:
 285              		.loc 2 369 0
ARM GAS  /var/folders/bz/nn5481rn5xq59rb0mbj7x0880000gn/T//cc2OpY8g.s 			page 6


 286 0044 3B68     		ldr	r3, [r7]
 287              	@ 369 "lib/ChibiOS_2.6.6/os/ports/common/ARMCMx/CMSIS/include/core_cmInstr.h" 1
 288 0046 1BBA     		rev r3, r3
 289              	@ 0 "" 2
 290              	.LVL35:
 291              		.thumb
 292              	.LBE19:
 293              	.LBE18:
 294              		.loc 1 228 0
 295 0048 0A93     		str	r3, [sp, #40]
 296              	.LVL36:
 297              	.LBB20:
 298              	.LBB21:
 299              		.loc 2 369 0
 300 004a 7B68     		ldr	r3, [r7, #4]
 301              	.LVL37:
 302              	@ 369 "lib/ChibiOS_2.6.6/os/ports/common/ARMCMx/CMSIS/include/core_cmInstr.h" 1
 303 004c 1BBA     		rev r3, r3
 304              	@ 0 "" 2
 305              	.LVL38:
 306              		.thumb
 307              	.LBE21:
 308              	.LBE20:
 309              		.loc 1 231 0
 310 004e 08A8     		add	r0, sp, #32
 311              		.loc 1 230 0
 312 0050 0B93     		str	r3, [sp, #44]
 313              		.loc 1 231 0
 314 0052 FFF7FEFF 		bl	CRYP_KeyInit
 315              	.LVL39:
 316              	.LBB22:
 317              	.LBB23:
 318              		.loc 2 369 0
 319 0056 3368     		ldr	r3, [r6]
 320              	@ 369 "lib/ChibiOS_2.6.6/os/ports/common/ARMCMx/CMSIS/include/core_cmInstr.h" 1
 321 0058 1BBA     		rev r3, r3
 322              	@ 0 "" 2
 323              	.LVL40:
 324              		.thumb
 325              	.LBE23:
 326              	.LBE22:
 327              		.loc 1 234 0
 328 005a 0493     		str	r3, [sp, #16]
 329              	.LVL41:
 330              	.LBB24:
 331              	.LBB25:
 332              		.loc 2 369 0
 333 005c 7368     		ldr	r3, [r6, #4]
 334              	.LVL42:
 335              	@ 369 "lib/ChibiOS_2.6.6/os/ports/common/ARMCMx/CMSIS/include/core_cmInstr.h" 1
 336 005e 1BBA     		rev r3, r3
 337              	@ 0 "" 2
 338              	.LVL43:
 339              		.thumb
 340              	.LBE25:
 341              	.LBE24:
 342              		.loc 1 237 0
ARM GAS  /var/folders/bz/nn5481rn5xq59rb0mbj7x0880000gn/T//cc2OpY8g.s 			page 7


 343 0060 04A8     		add	r0, sp, #16
 344              	.LVL44:
 345              		.loc 1 236 0
 346 0062 0593     		str	r3, [sp, #20]
 347              		.loc 1 237 0
 348 0064 FFF7FEFF 		bl	CRYP_IVInit
 349              	.LVL45:
 350              		.loc 1 240 0
 351 0068 FFF7FEFF 		bl	CRYP_FIFOFlush
 352              	.LVL46:
 353              		.loc 1 243 0
 354 006c 0120     		movs	r0, #1
 355 006e FFF7FEFF 		bl	CRYP_Cmd
 356              	.LVL47:
 357              		.loc 1 245 0
 358 0072 B8F1000F 		cmp	r8, #0
 359 0076 32D0     		beq	.L26
 360 0078 199B     		ldr	r3, [sp, #100]
 361 007a 0027     		movs	r7, #0
 362              	.LVL48:
 363 007c 0834     		adds	r4, r4, #8
 364              	.LVL49:
 365 007e 03F10805 		add	r5, r3, #8
 366              		.loc 1 254 0
 367 0082 3E46     		mov	r6, r7
 368              	.LVL50:
 369              	.L25:
 370              		.loc 1 248 0
 371 0084 54F8080C 		ldr	r0, [r4, #-8]
 372 0088 FFF7FEFF 		bl	CRYP_DataIn
 373              	.LVL51:
 374              		.loc 1 250 0
 375 008c 54F8040C 		ldr	r0, [r4, #-4]
 376 0090 FFF7FEFF 		bl	CRYP_DataIn
 377              	.LVL52:
 378              		.loc 1 254 0
 379 0094 0196     		str	r6, [sp, #4]
 380 0096 00E0     		b	.L23
 381              	.LVL53:
 382              	.L31:
 383              		.loc 1 259 0 discriminator 1
 384 0098 90B1     		cbz	r0, .L24
 385              	.LVL54:
 386              	.L23:
 387              		.loc 1 257 0 discriminator 2
 388 009a 1020     		movs	r0, #16
 389 009c FFF7FEFF 		bl	CRYP_GetFlagStatus
 390              	.LVL55:
 391              		.loc 1 258 0 discriminator 2
 392 00a0 019B     		ldr	r3, [sp, #4]
 393 00a2 0133     		adds	r3, r3, #1
 394 00a4 0193     		str	r3, [sp, #4]
 395              		.loc 1 259 0 discriminator 2
 396 00a6 019B     		ldr	r3, [sp, #4]
 397 00a8 B3F5803F 		cmp	r3, #65536
 398 00ac F4D1     		bne	.L31
 399              		.loc 1 261 0
ARM GAS  /var/folders/bz/nn5481rn5xq59rb0mbj7x0880000gn/T//cc2OpY8g.s 			page 8


 400 00ae 38B1     		cbz	r0, .L24
 401              		.loc 1 263 0
 402 00b0 0024     		movs	r4, #0
 403              	.LVL56:
 404              	.L21:
 405              		.loc 1 276 0
 406 00b2 0020     		movs	r0, #0
 407 00b4 FFF7FEFF 		bl	CRYP_Cmd
 408              	.LVL57:
 409              		.loc 1 279 0
 410 00b8 2046     		mov	r0, r4
 411 00ba 11B0     		add	sp, sp, #68
 412              		.cfi_remember_state
 413              		.cfi_def_cfa_offset 28
 414              		@ sp needed
 415 00bc BDE8F085 		pop	{r4, r5, r6, r7, r8, r10, pc}
 416              	.LVL58:
 417              	.L24:
 418              		.cfi_restore_state
 419              		.loc 1 268 0
 420 00c0 FFF7FEFF 		bl	CRYP_DataOut
 421              	.LVL59:
 422 00c4 45F8080C 		str	r0, [r5, #-8]
 423              	.LVL60:
 424              		.loc 1 270 0
 425 00c8 FFF7FEFF 		bl	CRYP_DataOut
 426              	.LVL61:
 427              		.loc 1 245 0
 428 00cc 0837     		adds	r7, r7, #8
 429              	.LVL62:
 430 00ce B845     		cmp	r8, r7
 431              		.loc 1 270 0
 432 00d0 45F8040C 		str	r0, [r5, #-4]
 433              	.LVL63:
 434 00d4 04F10804 		add	r4, r4, #8
 435 00d8 05F10805 		add	r5, r5, #8
 436              		.loc 1 245 0
 437 00dc D2D8     		bhi	.L25
 438              	.LVL64:
 439              	.L26:
 440              		.loc 1 203 0
 441 00de 0124     		movs	r4, #1
 442 00e0 E7E7     		b	.L21
 443              		.cfi_endproc
 444              	.LFE112:
 445              		.size	CRYP_DES_CBC, .-CRYP_DES_CBC
 446 00e2 00BF     		.text
 447              	.Letext0:
 448              		.file 3 "/Users/imac/Downloads/gcc-arm-none-eabi-4_9-2015q2/arm-none-eabi/include/machine/_default
 449              		.file 4 "/Users/imac/Downloads/gcc-arm-none-eabi-4_9-2015q2/arm-none-eabi/include/sys/_stdint.h"
 450              		.file 5 "lib/ChibiOS_2.6.6/os/hal/platforms/STM32F4xx/stm32f4xx.h"
 451              		.file 6 "lib/ChibiOS_2.6.6/ext/stdperiph_stm32f4/inc/stm32f4xx_cryp.h"
 452              		.file 7 "lib/ChibiOS_2.6.6/os/ports/common/ARMCMx/CMSIS/include/core_cm4.h"