ARM GAS  /var/folders/bz/nn5481rn5xq59rb0mbj7x0880000gn/T//ccsuS3m6.s 			page 1


   1              		.syntax unified
   2              		.cpu cortex-m4
   3              		.eabi_attribute 27, 1
   4              		.eabi_attribute 28, 1
   5              		.fpu fpv4-sp-d16
   6              		.eabi_attribute 20, 1
   7              		.eabi_attribute 21, 1
   8              		.eabi_attribute 23, 3
   9              		.eabi_attribute 24, 1
  10              		.eabi_attribute 25, 1
  11              		.eabi_attribute 26, 1
  12              		.eabi_attribute 30, 2
  13              		.eabi_attribute 34, 1
  14              		.eabi_attribute 18, 4
  15              		.thumb
  16              		.file	"ws2811.c"
  17              		.text
  18              	.Ltext0:
  19              		.cfi_sections	.debug_frame
  20              		.section	.text.ws2811_init,"ax",%progbits
  21              		.align	2
  22              		.p2align 4,,15
  23              		.global	ws2811_init
  24              		.thumb
  25              		.thumb_func
  26              		.type	ws2811_init, %function
  27              	ws2811_init:
  28              	.LFB118:
  29              		.file 1 "src/core/ws2811.c"
  30              		.loc 1 47 0
  31              		.cfi_startproc
  32              		@ args = 0, pretend = 0, frame = 96
  33              		@ frame_needed = 0, uses_anonymous_args = 0
  34              	.LVL0:
  35 0000 2DE9F047 		push	{r4, r5, r6, r7, r8, r9, r10, lr}
  36              		.cfi_def_cfa_offset 32
  37              		.cfi_offset 4, -32
  38              		.cfi_offset 5, -28
  39              		.cfi_offset 6, -24
  40              		.cfi_offset 7, -20
  41              		.cfi_offset 8, -16
  42              		.cfi_offset 9, -12
  43              		.cfi_offset 10, -8
  44              		.cfi_offset 14, -4
  45 0004 2DED028B 		fstmfdd	sp!, {d8}
  46              		.cfi_def_cfa_offset 40
  47              		.cfi_offset 80, -40
  48              		.cfi_offset 81, -36
  49 0008 624E     		ldr	r6, .L16
  50 000a 98B0     		sub	sp, sp, #96
  51              		.cfi_def_cfa_offset 136
  52              		.loc 1 56 0
  53 000c 0021     		movs	r1, #0
  54 000e 06F13C02 		add	r2, r6, #60
  55              		.loc 1 47 0
  56 0012 3346     		mov	r3, r6
  57              	.LVL1:
ARM GAS  /var/folders/bz/nn5481rn5xq59rb0mbj7x0880000gn/T//ccsuS3m6.s 			page 2


  58              	.L2:
  59              		.loc 1 56 0 discriminator 3
  60 0014 43F8041F 		str	r1, [r3, #4]!
  61              		.loc 1 55 0 discriminator 3
  62 0018 9342     		cmp	r3, r2
  63 001a FBD1     		bne	.L2
  64 001c 5E49     		ldr	r1, .L16+4
  65 001e 5F4D     		ldr	r5, .L16+8
  66 0020 01F53477 		add	r7, r1, #720
  67              	.LBB12:
  68              		.loc 1 66 0
  69 0024 1424     		movs	r4, #20
  70              		.loc 1 64 0
  71 0026 5320     		movs	r0, #83
  72              	.L6:
  73              		.loc 1 60 0
  74 0028 56F8043F 		ldr	r3, [r6, #4]!
  75              	.LVL2:
  76              	.LBB13:
  77              	.LBB14:
  78              		.loc 1 230 0
  79 002c C3F30742 		ubfx	r2, r3, #16, #8
  80              		.loc 1 231 0
  81 0030 C3F3072E 		ubfx	lr, r3, #8, #8
  82              		.loc 1 234 0
  83 0034 AA5C     		ldrb	r2, [r5, r2]	@ zero_extendqisi2
  84              	.LVL3:
  85              		.loc 1 235 0
  86 0036 15F80EE0 		ldrb	lr, [r5, lr]	@ zero_extendqisi2
  87              	.LVL4:
  88              		.loc 1 232 0
  89 003a DBB2     		uxtb	r3, r3
  90              	.LVL5:
  91              		.loc 1 238 0
  92 003c 1202     		lsls	r2, r2, #8
  93              	.LVL6:
  94              		.loc 1 236 0
  95 003e EB5C     		ldrb	r3, [r5, r3]	@ zero_extendqisi2
  96              	.LVL7:
  97              		.loc 1 238 0
  98 0040 42EA0E42 		orr	r2, r2, lr, lsl #16
  99 0044 1A43     		orrs	r2, r2, r3
 100              	.LVL8:
 101 0046 A1F13003 		sub	r3, r1, #48
 102              	.LVL9:
 103              	.L5:
 104              	.LBE14:
 105              	.LBE13:
 106              		.loc 1 63 0
 107 004a 12F4000F 		tst	r2, #8388608
 108              		.loc 1 64 0
 109 004e 14BF     		ite	ne
 110 0050 1880     		strhne	r0, [r3]	@ movhi
 111              		.loc 1 66 0
 112 0052 1C80     		strheq	r4, [r3]	@ movhi
 113 0054 0233     		adds	r3, r3, #2
 114              		.loc 1 62 0
ARM GAS  /var/folders/bz/nn5481rn5xq59rb0mbj7x0880000gn/T//ccsuS3m6.s 			page 3


 115 0056 9942     		cmp	r1, r3
 116              		.loc 1 68 0
 117 0058 4FEA4202 		lsl	r2, r2, #1
 118              	.LVL10:
 119              		.loc 1 62 0
 120 005c F5D1     		bne	.L5
 121 005e 3031     		adds	r1, r1, #48
 122              	.LBE12:
 123              		.loc 1 59 0 discriminator 2
 124 0060 B942     		cmp	r1, r7
 125 0062 E1D1     		bne	.L6
 126 0064 4E4B     		ldr	r3, .L16+12
 127              		.loc 1 75 0
 128 0066 0021     		movs	r1, #0
 129 0068 03F16402 		add	r2, r3, #100
 130              	.LVL11:
 131              	.L7:
 132              		.loc 1 75 0 is_stmt 0 discriminator 3
 133 006c 23F8021F 		strh	r1, [r3, #2]!	@ movhi
 134              		.loc 1 74 0 is_stmt 1 discriminator 3
 135 0070 9342     		cmp	r3, r2
 136 0072 FBD1     		bne	.L7
 137 0074 4B4D     		ldr	r5, .L16+16
 138              	.LVL12:
 139              	.LBB15:
 140              		.loc 1 80 0
 141 0076 9FED4C8A 		flds	s16, .L16+20
 142              	.LBE15:
 143              		.loc 1 74 0
 144 007a 0024     		movs	r4, #0
 145              	.LVL13:
 146              	.L8:
 147              	.LBB16:
 148              		.loc 1 80 0 discriminator 3
 149 007c 07EE904A 		fmsr	s15, r4	@ int
 150 0080 B8EEE70A 		fsitos	s0, s15
 151 0084 DFED490A 		flds	s1, .L16+24
 152 0088 80EE080A 		fdivs	s0, s0, s16
 153 008c FFF7FEFF 		bl	powf
 154              	.LVL14:
 155              		.loc 1 79 0 discriminator 3
 156 0090 0134     		adds	r4, r4, #1
 157              	.LVL15:
 158              		.loc 1 80 0 discriminator 3
 159 0092 20EE080A 		fmuls	s0, s0, s16
 160 0096 FFF7FEFF 		bl	roundf
 161              	.LVL16:
 162 009a FDEEC07A 		ftosizs	s15, s0
 163              		.loc 1 79 0 discriminator 3
 164 009e B4F5807F 		cmp	r4, #256
 165              		.loc 1 80 0 discriminator 3
 166 00a2 17EE903A 		fmrs	r3, s15	@ int
 167 00a6 05F8013F 		strb	r3, [r5, #1]!
 168              		.loc 1 79 0 discriminator 3
 169 00aa E7D1     		bne	.L8
 170              	.LBE16:
 171              		.loc 1 84 0
ARM GAS  /var/folders/bz/nn5481rn5xq59rb0mbj7x0880000gn/T//ccsuS3m6.s 			page 4


 172 00ac 4FF48772 		mov	r2, #270
 173 00b0 3F48     		ldr	r0, .L16+28
 174              		.loc 1 106 0
 175 00b2 404F     		ldr	r7, .L16+32
 176              		.loc 1 100 0
 177 00b4 DFF808A1 		ldr	r10, .L16+44
 178              		.loc 1 84 0
 179 00b8 8021     		movs	r1, #128
 180 00ba FFF7FEFF 		bl	_pal_lld_setgroupmode
 181              	.LVL17:
 182              		.loc 1 96 0
 183 00be 0121     		movs	r1, #1
 184 00c0 4FF40010 		mov	r0, #2097152
 185 00c4 FFF7FEFF 		bl	RCC_AHB1PeriphClockCmd
 186              	.LVL18:
 187              		.loc 1 99 0
 188 00c8 3B48     		ldr	r0, .L16+36
 189 00ca FFF7FEFF 		bl	DMA_DeInit
 190              	.LVL19:
 191              		.loc 1 109 0
 192 00ce 0025     		movs	r5, #0
 193              		.loc 1 108 0
 194 00d0 4FF4CD7C 		mov	ip, #410
 195              		.loc 1 111 0
 196 00d4 4FF4006E 		mov	lr, #2048
 197              		.loc 1 114 0
 198 00d8 4FF40032 		mov	r2, #131072
 199              		.loc 1 116 0
 200 00dc 0323     		movs	r3, #3
 201              		.loc 1 113 0
 202 00de 1294     		str	r4, [sp, #72]
 203              		.loc 1 110 0
 204 00e0 4FF48066 		mov	r6, #1024
 205              		.loc 1 121 0
 206 00e4 09A9     		add	r1, sp, #36
 207 00e6 3448     		ldr	r0, .L16+36
 208              		.loc 1 108 0
 209 00e8 CDF834C0 		str	ip, [sp, #52]
 210              		.loc 1 105 0
 211 00ec 4FF08069 		mov	r9, #67108864
 212              		.loc 1 107 0
 213 00f0 4FF04008 		mov	r8, #64
 214              		.loc 1 112 0
 215 00f4 4FF40054 		mov	r4, #8192
 216              	.LVL20:
 217              		.loc 1 111 0
 218 00f8 CDF840E0 		str	lr, [sp, #64]
 219              		.loc 1 114 0
 220 00fc 1392     		str	r2, [sp, #76]
 221              		.loc 1 116 0
 222 00fe 1593     		str	r3, [sp, #84]
 223              		.loc 1 112 0
 224 0100 1194     		str	r4, [sp, #68]
 225              		.loc 1 100 0
 226 0102 CDF828A0 		str	r10, [sp, #40]
 227              		.loc 1 105 0
 228 0106 CDF82490 		str	r9, [sp, #36]
ARM GAS  /var/folders/bz/nn5481rn5xq59rb0mbj7x0880000gn/T//ccsuS3m6.s 			page 5


 229              		.loc 1 106 0
 230 010a 0B97     		str	r7, [sp, #44]
 231              		.loc 1 107 0
 232 010c CDF83080 		str	r8, [sp, #48]
 233              		.loc 1 109 0
 234 0110 0E95     		str	r5, [sp, #56]
 235              		.loc 1 115 0
 236 0112 1495     		str	r5, [sp, #80]
 237              		.loc 1 117 0
 238 0114 1695     		str	r5, [sp, #88]
 239              		.loc 1 118 0
 240 0116 1795     		str	r5, [sp, #92]
 241              		.loc 1 110 0
 242 0118 0F96     		str	r6, [sp, #60]
 243              		.loc 1 121 0
 244 011a FFF7FEFF 		bl	DMA_Init
 245              	.LVL21:
 246              		.loc 1 126 0
 247 011e 0420     		movs	r0, #4
 248 0120 0121     		movs	r1, #1
 249 0122 FFF7FEFF 		bl	RCC_APB1PeriphClockCmd
 250              	.LVL22:
 251              		.loc 1 131 0
 252 0126 6823     		movs	r3, #104
 253              		.loc 1 135 0
 254 0128 01A9     		add	r1, sp, #4
 255 012a 2448     		ldr	r0, .L16+40
 256              		.loc 1 131 0
 257 012c 0293     		str	r3, [sp, #8]
 258              		.loc 1 139 0
 259 012e 0124     		movs	r4, #1
 260              		.loc 1 129 0
 261 0130 ADF80450 		strh	r5, [sp, #4]	@ movhi
 262              		.loc 1 130 0
 263 0134 ADF80650 		strh	r5, [sp, #6]	@ movhi
 264              		.loc 1 132 0
 265 0138 ADF80C50 		strh	r5, [sp, #12]	@ movhi
 266              		.loc 1 133 0
 267 013c 8DF80E50 		strb	r5, [sp, #14]
 268              		.loc 1 135 0
 269 0140 FFF7FEFF 		bl	TIM_TimeBaseInit
 270              	.LVL23:
 271              		.loc 1 138 0
 272 0144 6023     		movs	r3, #96
 273              		.loc 1 140 0
 274 0146 3A88     		ldrh	r2, [r7]
 275              		.loc 1 144 0
 276 0148 1C48     		ldr	r0, .L16+40
 277              		.loc 1 138 0
 278 014a ADF81030 		strh	r3, [sp, #16]	@ movhi
 279              		.loc 1 144 0
 280 014e 04A9     		add	r1, sp, #16
 281              		.loc 1 140 0
 282 0150 0692     		str	r2, [sp, #24]
 283              		.loc 1 141 0
 284 0152 ADF81C50 		strh	r5, [sp, #28]	@ movhi
 285              		.loc 1 139 0
ARM GAS  /var/folders/bz/nn5481rn5xq59rb0mbj7x0880000gn/T//ccsuS3m6.s 			page 6


 286 0156 ADF81240 		strh	r4, [sp, #18]	@ movhi
 287              		.loc 1 144 0
 288 015a FFF7FEFF 		bl	TIM_OC2Init
 289              	.LVL24:
 290              		.loc 1 145 0
 291 015e 1748     		ldr	r0, .L16+40
 292 0160 0821     		movs	r1, #8
 293 0162 FFF7FEFF 		bl	TIM_OC2PreloadConfig
 294              	.LVL25:
 295              		.loc 1 152 0
 296 0166 2146     		mov	r1, r4
 297 0168 1448     		ldr	r0, .L16+40
 298 016a FFF7FEFF 		bl	TIM_Cmd
 299              	.LVL26:
 300              		.loc 1 156 0
 301 016e 2146     		mov	r1, r4
 302 0170 1148     		ldr	r0, .L16+36
 303 0172 FFF7FEFF 		bl	DMA_Cmd
 304              	.LVL27:
 305              		.loc 1 163 0
 306 0176 3146     		mov	r1, r6
 307 0178 2246     		mov	r2, r4
 308 017a 1048     		ldr	r0, .L16+40
 309 017c FFF7FEFF 		bl	TIM_DMACmd
 310              	.LVL28:
 311              		.loc 1 169 0
 312 0180 2146     		mov	r1, r4
 313 0182 0E48     		ldr	r0, .L16+40
 314 0184 FFF7FEFF 		bl	TIM_CtrlPWMOutputs
 315              	.LVL29:
 316              		.loc 1 170 0
 317 0188 18B0     		add	sp, sp, #96
 318              		.cfi_def_cfa_offset 40
 319              		@ sp needed
 320 018a BDEC028B 		fldmfdd	sp!, {d8}
 321              		.cfi_restore 80
 322              		.cfi_restore 81
 323              		.cfi_def_cfa_offset 32
 324 018e BDE8F087 		pop	{r4, r5, r6, r7, r8, r9, r10, pc}
 325              	.L17:
 326 0192 00BF     		.align	2
 327              	.L16:
 328 0194 FCFFFFFF 		.word	.LANCHOR0-4
 329 0198 30000000 		.word	.LANCHOR1+48
 330 019c 00000000 		.word	.LANCHOR2
 331 01a0 CC020000 		.word	.LANCHOR1+716
 332 01a4 FFFFFFFF 		.word	.LANCHOR2-1
 333 01a8 00007F43 		.word	1132396544
 334 01ac E4380E40 		.word	1074673892
 335 01b0 00040240 		.word	1073873920
 336 01b4 00000000 		.word	.LANCHOR1
 337 01b8 58600240 		.word	1073897560
 338 01bc 00080040 		.word	1073743872
 339 01c0 38080040 		.word	1073743928
 340              		.cfi_endproc
 341              	.LFE118:
 342              		.size	ws2811_init, .-ws2811_init
ARM GAS  /var/folders/bz/nn5481rn5xq59rb0mbj7x0880000gn/T//ccsuS3m6.s 			page 7


 343              		.section	.text.ws2811_set_led_color,"ax",%progbits
 344              		.align	2
 345              		.p2align 4,,15
 346              		.global	ws2811_set_led_color
 347              		.thumb
 348              		.thumb_func
 349              		.type	ws2811_set_led_color, %function
 350              	ws2811_set_led_color:
 351              	.LFB119:
 352              		.loc 1 172 0
 353              		.cfi_startproc
 354              		@ args = 0, pretend = 0, frame = 0
 355              		@ frame_needed = 0, uses_anonymous_args = 0
 356              		@ link register save eliminated.
 357              	.LVL30:
 358              		.loc 1 173 0
 359 0000 0D28     		cmp	r0, #13
 360 0002 24DC     		bgt	.L27
 361              		.loc 1 172 0
 362 0004 30B4     		push	{r4, r5}
 363              		.cfi_def_cfa_offset 8
 364              		.cfi_offset 4, -8
 365              		.cfi_offset 5, -4
 366              	.LBB17:
 367              		.loc 1 174 0
 368 0006 124A     		ldr	r2, .L28
 369              	.LBB18:
 370              	.LBB19:
 371              		.loc 1 234 0
 372 0008 124C     		ldr	r4, .L28+4
 373              	.LBE19:
 374              	.LBE18:
 375              		.loc 1 174 0
 376 000a 42F82010 		str	r1, [r2, r0, lsl #2]
 377              	.LVL31:
 378              	.LBB22:
 379              	.LBB20:
 380              		.loc 1 230 0
 381 000e C1F30742 		ubfx	r2, r1, #16, #8
 382              		.loc 1 231 0
 383 0012 C1F30725 		ubfx	r5, r1, #8, #8
 384              		.loc 1 234 0
 385 0016 A25C     		ldrb	r2, [r4, r2]	@ zero_extendqisi2
 386              	.LVL32:
 387              		.loc 1 235 0
 388 0018 655D     		ldrb	r5, [r4, r5]	@ zero_extendqisi2
 389              	.LVL33:
 390 001a 0F4B     		ldr	r3, .L28+8
 391              		.loc 1 232 0
 392 001c C9B2     		uxtb	r1, r1
 393              	.LVL34:
 394              	.LBE20:
 395              	.LBE22:
 396              		.loc 1 181 0
 397 001e 00EB4000 		add	r0, r0, r0, lsl #1
 398              	.LVL35:
 399              	.LBB23:
ARM GAS  /var/folders/bz/nn5481rn5xq59rb0mbj7x0880000gn/T//ccsuS3m6.s 			page 8


 400              	.LBB21:
 401              		.loc 1 236 0
 402 0022 615C     		ldrb	r1, [r4, r1]	@ zero_extendqisi2
 403              	.LVL36:
 404 0024 0001     		lsls	r0, r0, #4
 405              		.loc 1 238 0
 406 0026 1202     		lsls	r2, r2, #8
 407              	.LVL37:
 408 0028 00F13004 		add	r4, r0, #48
 409              	.LVL38:
 410 002c 42EA0542 		orr	r2, r2, r5, lsl #16
 411 0030 0A43     		orrs	r2, r2, r1
 412              	.LVL39:
 413 0032 1919     		adds	r1, r3, r4
 414              	.LVL40:
 415 0034 0344     		add	r3, r3, r0
 416              	.LBE21:
 417              	.LBE23:
 418              		.loc 1 183 0
 419 0036 1424     		movs	r4, #20
 420              		.loc 1 181 0
 421 0038 5320     		movs	r0, #83
 422              	.LVL41:
 423              	.L22:
 424              		.loc 1 180 0
 425 003a 1502     		lsls	r5, r2, #8
 426              		.loc 1 181 0
 427 003c 4CBF     		ite	mi
 428 003e 1880     		strhmi	r0, [r3]	@ movhi
 429              		.loc 1 183 0
 430 0040 1C80     		strhpl	r4, [r3]	@ movhi
 431 0042 0233     		adds	r3, r3, #2
 432              		.loc 1 179 0
 433 0044 8B42     		cmp	r3, r1
 434              		.loc 1 185 0
 435 0046 4FEA4202 		lsl	r2, r2, #1
 436              	.LVL42:
 437              		.loc 1 179 0
 438 004a F6D1     		bne	.L22
 439              	.LBE17:
 440              		.loc 1 188 0
 441 004c 30BC     		pop	{r4, r5}
 442              		.cfi_restore 5
 443              		.cfi_restore 4
 444              		.cfi_def_cfa_offset 0
 445              	.LVL43:
 446              	.L27:
 447 004e 7047     		bx	lr
 448              	.L29:
 449              		.align	2
 450              	.L28:
 451 0050 00000000 		.word	.LANCHOR0
 452 0054 00000000 		.word	.LANCHOR2
 453 0058 00000000 		.word	.LANCHOR1
 454              		.cfi_endproc
 455              	.LFE119:
 456              		.size	ws2811_set_led_color, .-ws2811_set_led_color
ARM GAS  /var/folders/bz/nn5481rn5xq59rb0mbj7x0880000gn/T//ccsuS3m6.s 			page 9


 457              		.section	.text.ws2811_get_led_color,"ax",%progbits
 458              		.align	2
 459              		.p2align 4,,15
 460              		.global	ws2811_get_led_color
 461              		.thumb
 462              		.thumb_func
 463              		.type	ws2811_get_led_color, %function
 464              	ws2811_get_led_color:
 465              	.LFB120:
 466              		.loc 1 190 0
 467              		.cfi_startproc
 468              		@ args = 0, pretend = 0, frame = 0
 469              		@ frame_needed = 0, uses_anonymous_args = 0
 470              		@ link register save eliminated.
 471              	.LVL44:
 472              		.loc 1 191 0
 473 0000 0D28     		cmp	r0, #13
 474              		.loc 1 192 0
 475 0002 DABF     		itte	le
 476 0004 024B     		ldrle	r3, .L33
 477 0006 53F82000 		ldrle	r0, [r3, r0, lsl #2]
 478              	.LVL45:
 479              		.loc 1 195 0
 480 000a 0020     		movgt	r0, #0
 481              		.loc 1 196 0
 482 000c 7047     		bx	lr
 483              	.L34:
 484 000e 00BF     		.align	2
 485              	.L33:
 486 0010 00000000 		.word	.LANCHOR0
 487              		.cfi_endproc
 488              	.LFE120:
 489              		.size	ws2811_get_led_color, .-ws2811_get_led_color
 490              		.section	.text.ws2811_all_off,"ax",%progbits
 491              		.align	2
 492              		.p2align 4,,15
 493              		.global	ws2811_all_off
 494              		.thumb
 495              		.thumb_func
 496              		.type	ws2811_all_off, %function
 497              	ws2811_all_off:
 498              	.LFB121:
 499              		.loc 1 198 0
 500              		.cfi_startproc
 501              		@ args = 0, pretend = 0, frame = 0
 502              		@ frame_needed = 0, uses_anonymous_args = 0
 503              		@ link register save eliminated.
 504              	.LVL46:
 505 0000 084B     		ldr	r3, .L40
 506              		.loc 1 202 0
 507 0002 0021     		movs	r1, #0
 508 0004 03F13802 		add	r2, r3, #56
 509              	.LVL47:
 510              	.L36:
 511              		.loc 1 202 0 is_stmt 0 discriminator 3
 512 0008 43F8041F 		str	r1, [r3, #4]!
 513              		.loc 1 201 0 is_stmt 1 discriminator 3
ARM GAS  /var/folders/bz/nn5481rn5xq59rb0mbj7x0880000gn/T//ccsuS3m6.s 			page 10


 514 000c 9342     		cmp	r3, r2
 515 000e FBD1     		bne	.L36
 516 0010 054B     		ldr	r3, .L40+4
 517              		.loc 1 206 0
 518 0012 1421     		movs	r1, #20
 519 0014 03F52872 		add	r2, r3, #672
 520              	.L37:
 521              		.loc 1 206 0 is_stmt 0 discriminator 3
 522 0018 23F8021F 		strh	r1, [r3, #2]!	@ movhi
 523              		.loc 1 205 0 is_stmt 1 discriminator 3
 524 001c 9342     		cmp	r3, r2
 525 001e FBD1     		bne	.L37
 526              		.loc 1 208 0
 527 0020 7047     		bx	lr
 528              	.L41:
 529 0022 00BF     		.align	2
 530              	.L40:
 531 0024 FCFFFFFF 		.word	.LANCHOR0-4
 532 0028 FEFFFFFF 		.word	.LANCHOR1-2
 533              		.cfi_endproc
 534              	.LFE121:
 535              		.size	ws2811_all_off, .-ws2811_all_off
 536              		.section	.text.ws2811_set_all,"ax",%progbits
 537              		.align	2
 538              		.p2align 4,,15
 539              		.global	ws2811_set_all
 540              		.thumb
 541              		.thumb_func
 542              		.type	ws2811_set_all, %function
 543              	ws2811_set_all:
 544              	.LFB122:
 545              		.loc 1 210 0
 546              		.cfi_startproc
 547              		@ args = 0, pretend = 0, frame = 0
 548              		@ frame_needed = 0, uses_anonymous_args = 0
 549              	.LVL48:
 550 0000 F0B5     		push	{r4, r5, r6, r7, lr}
 551              		.cfi_def_cfa_offset 20
 552              		.cfi_offset 4, -20
 553              		.cfi_offset 5, -16
 554              		.cfi_offset 6, -12
 555              		.cfi_offset 7, -8
 556              		.cfi_offset 14, -4
 557 0002 134B     		ldr	r3, .L50
 558 0004 1349     		ldr	r1, .L50+4
 559 0006 144E     		ldr	r6, .L50+8
 560 0008 C0F30742 		ubfx	r2, r0, #16, #8
 561 000c C0F30725 		ubfx	r5, r0, #8, #8
 562 0010 9A5C     		ldrb	r2, [r3, r2]	@ zero_extendqisi2
 563 0012 5F5D     		ldrb	r7, [r3, r5]	@ zero_extendqisi2
 564 0014 C4B2     		uxtb	r4, r0
 565 0016 1202     		lsls	r2, r2, #8
 566 0018 1B5D     		ldrb	r3, [r3, r4]	@ zero_extendqisi2
 567 001a 42EA0747 		orr	r7, r2, r7, lsl #16
 568 001e 1F43     		orrs	r7, r7, r3
 569 0020 01F5287E 		add	lr, r1, #672
 570              	.LBB24:
ARM GAS  /var/folders/bz/nn5481rn5xq59rb0mbj7x0880000gn/T//ccsuS3m6.s 			page 11


 571              		.loc 1 222 0
 572 0024 1425     		movs	r5, #20
 573              		.loc 1 220 0
 574 0026 5324     		movs	r4, #83
 575              	.LVL49:
 576              	.L46:
 577              		.loc 1 214 0
 578 0028 46F8040F 		str	r0, [r6, #4]!
 579              	.LVL50:
 580 002c A1F13003 		sub	r3, r1, #48
 581              		.loc 1 216 0
 582 0030 3A46     		mov	r2, r7
 583              	.LVL51:
 584              	.L45:
 585              		.loc 1 219 0
 586 0032 12F4000F 		tst	r2, #8388608
 587              		.loc 1 220 0
 588 0036 14BF     		ite	ne
 589 0038 1C80     		strhne	r4, [r3]	@ movhi
 590              		.loc 1 222 0
 591 003a 1D80     		strheq	r5, [r3]	@ movhi
 592 003c 0233     		adds	r3, r3, #2
 593              		.loc 1 218 0
 594 003e 9942     		cmp	r1, r3
 595              		.loc 1 224 0
 596 0040 4FEA4202 		lsl	r2, r2, #1
 597              	.LVL52:
 598              		.loc 1 218 0
 599 0044 F5D1     		bne	.L45
 600 0046 3031     		adds	r1, r1, #48
 601              	.LBE24:
 602              		.loc 1 213 0 discriminator 2
 603 0048 7145     		cmp	r1, lr
 604 004a EDD1     		bne	.L46
 605              		.loc 1 227 0
 606 004c F0BD     		pop	{r4, r5, r6, r7, pc}
 607              	.L51:
 608 004e 00BF     		.align	2
 609              	.L50:
 610 0050 00000000 		.word	.LANCHOR2
 611 0054 30000000 		.word	.LANCHOR1+48
 612 0058 FCFFFFFF 		.word	.LANCHOR0-4
 613              		.cfi_endproc
 614              	.LFE122:
 615              		.size	ws2811_set_all, .-ws2811_set_all
 616              		.section	.bss.RGBdata,"aw",%nobits
 617              		.align	2
 618              		.set	.LANCHOR0,. + 0
 619              		.type	RGBdata, %object
 620              		.size	RGBdata, 60
 621              	RGBdata:
 622 0000 00000000 		.space	60
 622      00000000 
 622      00000000 
 622      00000000 
 622      00000000 
 623              		.section	.bss.bitbuffer,"aw",%nobits
ARM GAS  /var/folders/bz/nn5481rn5xq59rb0mbj7x0880000gn/T//ccsuS3m6.s 			page 12


 624              		.align	2
 625              		.set	.LANCHOR1,. + 0
 626              		.type	bitbuffer, %object
 627              		.size	bitbuffer, 820
 628              	bitbuffer:
 629 0000 00000000 		.space	820
 629      00000000 
 629      00000000 
 629      00000000 
 629      00000000 
 630              		.section	.bss.gamma_table,"aw",%nobits
 631              		.align	2
 632              		.set	.LANCHOR2,. + 0
 633              		.type	gamma_table, %object
 634              		.size	gamma_table, 256
 635              	gamma_table:
 636 0000 00000000 		.space	256
 636      00000000 
 636      00000000 
 636      00000000 
 636      00000000 
 637              		.text
 638              	.Letext0:
 639              		.file 2 "/Users/imac/Downloads/gcc-arm-none-eabi-4_9-2015q2/arm-none-eabi/include/machine/_default
 640              		.file 3 "/Users/imac/Downloads/gcc-arm-none-eabi-4_9-2015q2/arm-none-eabi/include/sys/_stdint.h"
 641              		.file 4 "lib/ChibiOS_2.6.6/os/hal/platforms/STM32F4xx/stm32f4xx.h"
 642              		.file 5 "lib/ChibiOS_2.6.6/ext/stdperiph_stm32f4/inc/stm32f4xx_dma.h"
 643              		.file 6 "lib/ChibiOS_2.6.6/ext/stdperiph_stm32f4/inc/stm32f4xx_tim.h"
 644              		.file 7 "lib/ChibiOS_2.6.6/os/hal/platforms/STM32/GPIOv2/pal_lld.h"
 645              		.file 8 "/Users/imac/Downloads/gcc-arm-none-eabi-4_9-2015q2/arm-none-eabi/include/math.h"
 646              		.file 9 "lib/ChibiOS_2.6.6/ext/stdperiph_stm32f4/inc/stm32f4xx_rcc.h"
 647              		.file 10 "lib/ChibiOS_2.6.6/os/ports/common/ARMCMx/CMSIS/include/core_cm4.h"
 648              		.section	.debug_info,"",%progbits
 649              	.Ldebug_info0:
 650 0000 760B0000 		.4byte	0xb76
 651 0004 0400     		.2byte	0x4
 652 0006 00000000 		.4byte	.Ldebug_abbrev0
 653 000a 04       		.byte	0x4
 654 000b 01       		.uleb128 0x1
 655 000c 71050000 		.4byte	.LASF126
 656 0010 01       		.byte	0x1
 657 0011 9F030000 		.4byte	.LASF127
 658 0015 03020000 		.4byte	.LASF128
 659 0019 38000000 		.4byte	.Ldebug_ranges0+0x38
 660 001d 00000000 		.4byte	0
 661 0021 00000000 		.4byte	.Ldebug_line0
 662 0025 02       		.uleb128 0x2
 663 0026 04       		.byte	0x4
 664 0027 04       		.byte	0x4
 665 0028 E7030000 		.4byte	.LASF0
 666 002c 03       		.uleb128 0x3
 667 002d 04       		.byte	0x4
 668 002e 05       		.byte	0x5
 669 002f 696E7400 		.ascii	"int\000"
 670 0033 02       		.uleb128 0x2
 671 0034 04       		.byte	0x4
 672 0035 07       		.byte	0x7
ARM GAS  /var/folders/bz/nn5481rn5xq59rb0mbj7x0880000gn/T//ccsuS3m6.s 			page 13


 673 0036 87020000 		.4byte	.LASF1
 674 003a 02       		.uleb128 0x2
 675 003b 01       		.byte	0x1
 676 003c 06       		.byte	0x6
 677 003d 19010000 		.4byte	.LASF2
 678 0041 04       		.uleb128 0x4
 679 0042 46000000 		.4byte	.LASF5
 680 0046 02       		.byte	0x2
 681 0047 1D       		.byte	0x1d
 682 0048 4C000000 		.4byte	0x4c
 683 004c 02       		.uleb128 0x2
 684 004d 01       		.byte	0x1
 685 004e 08       		.byte	0x8
 686 004f 75040000 		.4byte	.LASF3
 687 0053 02       		.uleb128 0x2
 688 0054 02       		.byte	0x2
 689 0055 05       		.byte	0x5
 690 0056 96040000 		.4byte	.LASF4
 691 005a 04       		.uleb128 0x4
 692 005b 2E050000 		.4byte	.LASF6
 693 005f 02       		.byte	0x2
 694 0060 2B       		.byte	0x2b
 695 0061 65000000 		.4byte	0x65
 696 0065 02       		.uleb128 0x2
 697 0066 02       		.byte	0x2
 698 0067 07       		.byte	0x7
 699 0068 F5020000 		.4byte	.LASF7
 700 006c 04       		.uleb128 0x4
 701 006d 67050000 		.4byte	.LASF8
 702 0071 02       		.byte	0x2
 703 0072 3F       		.byte	0x3f
 704 0073 77000000 		.4byte	0x77
 705 0077 02       		.uleb128 0x2
 706 0078 04       		.byte	0x4
 707 0079 05       		.byte	0x5
 708 007a 7C010000 		.4byte	.LASF9
 709 007e 04       		.uleb128 0x4
 710 007f 32020000 		.4byte	.LASF10
 711 0083 02       		.byte	0x2
 712 0084 41       		.byte	0x41
 713 0085 89000000 		.4byte	0x89
 714 0089 02       		.uleb128 0x2
 715 008a 04       		.byte	0x4
 716 008b 07       		.byte	0x7
 717 008c BE020000 		.4byte	.LASF11
 718 0090 02       		.uleb128 0x2
 719 0091 08       		.byte	0x8
 720 0092 05       		.byte	0x5
 721 0093 0B010000 		.4byte	.LASF12
 722 0097 02       		.uleb128 0x2
 723 0098 08       		.byte	0x8
 724 0099 07       		.byte	0x7
 725 009a BB000000 		.4byte	.LASF13
 726 009e 02       		.uleb128 0x2
 727 009f 04       		.byte	0x4
 728 00a0 07       		.byte	0x7
 729 00a1 A3020000 		.4byte	.LASF14
ARM GAS  /var/folders/bz/nn5481rn5xq59rb0mbj7x0880000gn/T//ccsuS3m6.s 			page 14


 730 00a5 02       		.uleb128 0x2
 731 00a6 01       		.byte	0x1
 732 00a7 08       		.byte	0x8
 733 00a8 1C050000 		.4byte	.LASF15
 734 00ac 02       		.uleb128 0x2
 735 00ad 08       		.byte	0x8
 736 00ae 04       		.byte	0x4
 737 00af DB010000 		.4byte	.LASF16
 738 00b3 02       		.uleb128 0x2
 739 00b4 08       		.byte	0x8
 740 00b5 04       		.byte	0x4
 741 00b6 FA040000 		.4byte	.LASF17
 742 00ba 04       		.uleb128 0x4
 743 00bb 21070000 		.4byte	.LASF18
 744 00bf 03       		.byte	0x3
 745 00c0 14       		.byte	0x14
 746 00c1 41000000 		.4byte	0x41
 747 00c5 04       		.uleb128 0x4
 748 00c6 CB010000 		.4byte	.LASF19
 749 00ca 03       		.byte	0x3
 750 00cb 1A       		.byte	0x1a
 751 00cc 5A000000 		.4byte	0x5a
 752 00d0 04       		.uleb128 0x4
 753 00d1 6D040000 		.4byte	.LASF20
 754 00d5 03       		.byte	0x3
 755 00d6 1F       		.byte	0x1f
 756 00d7 6C000000 		.4byte	0x6c
 757 00db 04       		.uleb128 0x4
 758 00dc F1040000 		.4byte	.LASF21
 759 00e0 03       		.byte	0x3
 760 00e1 20       		.byte	0x20
 761 00e2 7E000000 		.4byte	0x7e
 762 00e6 02       		.uleb128 0x2
 763 00e7 01       		.byte	0x1
 764 00e8 02       		.byte	0x2
 765 00e9 67040000 		.4byte	.LASF22
 766 00ed 05       		.uleb128 0x5
 767 00ee DB000000 		.4byte	0xdb
 768 00f2 05       		.uleb128 0x5
 769 00f3 C5000000 		.4byte	0xc5
 770 00f7 06       		.uleb128 0x6
 771 00f8 DB000000 		.4byte	0xdb
 772 00fc 07010000 		.4byte	0x107
 773 0100 07       		.uleb128 0x7
 774 0101 9E000000 		.4byte	0x9e
 775 0105 0E       		.byte	0xe
 776 0106 00       		.byte	0
 777 0107 05       		.uleb128 0x5
 778 0108 D0000000 		.4byte	0xd0
 779 010c 08       		.uleb128 0x8
 780 010d 01       		.byte	0x1
 781 010e 04       		.byte	0x4
 782 010f F901     		.2byte	0x1f9
 783 0111 22010000 		.4byte	0x122
 784 0115 09       		.uleb128 0x9
 785 0116 AD000000 		.4byte	.LASF23
 786 011a 00       		.sleb128 0
ARM GAS  /var/folders/bz/nn5481rn5xq59rb0mbj7x0880000gn/T//ccsuS3m6.s 			page 15


 787 011b 09       		.uleb128 0x9
 788 011c 96010000 		.4byte	.LASF24
 789 0120 01       		.sleb128 1
 790 0121 00       		.byte	0
 791 0122 0A       		.uleb128 0xa
 792 0123 BA030000 		.4byte	.LASF25
 793 0127 04       		.byte	0x4
 794 0128 F901     		.2byte	0x1f9
 795 012a 0C010000 		.4byte	0x10c
 796 012e 0B       		.uleb128 0xb
 797 012f 18       		.byte	0x18
 798 0130 04       		.byte	0x4
 799 0131 B102     		.2byte	0x2b1
 800 0133 85010000 		.4byte	0x185
 801 0137 0C       		.uleb128 0xc
 802 0138 435200   		.ascii	"CR\000"
 803 013b 04       		.byte	0x4
 804 013c B302     		.2byte	0x2b3
 805 013e ED000000 		.4byte	0xed
 806 0142 00       		.byte	0
 807 0143 0D       		.uleb128 0xd
 808 0144 62040000 		.4byte	.LASF26
 809 0148 04       		.byte	0x4
 810 0149 B402     		.2byte	0x2b4
 811 014b ED000000 		.4byte	0xed
 812 014f 04       		.byte	0x4
 813 0150 0C       		.uleb128 0xc
 814 0151 50415200 		.ascii	"PAR\000"
 815 0155 04       		.byte	0x4
 816 0156 B502     		.2byte	0x2b5
 817 0158 ED000000 		.4byte	0xed
 818 015c 08       		.byte	0x8
 819 015d 0D       		.uleb128 0xd
 820 015e 1B000000 		.4byte	.LASF27
 821 0162 04       		.byte	0x4
 822 0163 B602     		.2byte	0x2b6
 823 0165 ED000000 		.4byte	0xed
 824 0169 0C       		.byte	0xc
 825 016a 0D       		.uleb128 0xd
 826 016b D4060000 		.4byte	.LASF28
 827 016f 04       		.byte	0x4
 828 0170 B702     		.2byte	0x2b7
 829 0172 ED000000 		.4byte	0xed
 830 0176 10       		.byte	0x10
 831 0177 0C       		.uleb128 0xc
 832 0178 46435200 		.ascii	"FCR\000"
 833 017c 04       		.byte	0x4
 834 017d B802     		.2byte	0x2b8
 835 017f ED000000 		.4byte	0xed
 836 0183 14       		.byte	0x14
 837 0184 00       		.byte	0
 838 0185 0A       		.uleb128 0xa
 839 0186 95060000 		.4byte	.LASF29
 840 018a 04       		.byte	0x4
 841 018b B902     		.2byte	0x2b9
 842 018d 2E010000 		.4byte	0x12e
 843 0191 0B       		.uleb128 0xb
ARM GAS  /var/folders/bz/nn5481rn5xq59rb0mbj7x0880000gn/T//ccsuS3m6.s 			page 16


 844 0192 54       		.byte	0x54
 845 0193 04       		.byte	0x4
 846 0194 FD04     		.2byte	0x4fd
 847 0196 6D030000 		.4byte	0x36d
 848 019a 0C       		.uleb128 0xc
 849 019b 43523100 		.ascii	"CR1\000"
 850 019f 04       		.byte	0x4
 851 01a0 FF04     		.2byte	0x4ff
 852 01a2 F2000000 		.4byte	0xf2
 853 01a6 00       		.byte	0
 854 01a7 0D       		.uleb128 0xd
 855 01a8 FE030000 		.4byte	.LASF30
 856 01ac 04       		.byte	0x4
 857 01ad 0005     		.2byte	0x500
 858 01af C5000000 		.4byte	0xc5
 859 01b3 02       		.byte	0x2
 860 01b4 0C       		.uleb128 0xc
 861 01b5 43523200 		.ascii	"CR2\000"
 862 01b9 04       		.byte	0x4
 863 01ba 0105     		.2byte	0x501
 864 01bc F2000000 		.4byte	0xf2
 865 01c0 04       		.byte	0x4
 866 01c1 0D       		.uleb128 0xd
 867 01c2 08040000 		.4byte	.LASF31
 868 01c6 04       		.byte	0x4
 869 01c7 0205     		.2byte	0x502
 870 01c9 C5000000 		.4byte	0xc5
 871 01cd 06       		.byte	0x6
 872 01ce 0D       		.uleb128 0xd
 873 01cf 21050000 		.4byte	.LASF32
 874 01d3 04       		.byte	0x4
 875 01d4 0305     		.2byte	0x503
 876 01d6 F2000000 		.4byte	0xf2
 877 01da 08       		.byte	0x8
 878 01db 0D       		.uleb128 0xd
 879 01dc 12040000 		.4byte	.LASF33
 880 01e0 04       		.byte	0x4
 881 01e1 0405     		.2byte	0x504
 882 01e3 C5000000 		.4byte	0xc5
 883 01e7 0A       		.byte	0xa
 884 01e8 0D       		.uleb128 0xd
 885 01e9 16000000 		.4byte	.LASF34
 886 01ed 04       		.byte	0x4
 887 01ee 0505     		.2byte	0x505
 888 01f0 F2000000 		.4byte	0xf2
 889 01f4 0C       		.byte	0xc
 890 01f5 0D       		.uleb128 0xd
 891 01f6 1C040000 		.4byte	.LASF35
 892 01fa 04       		.byte	0x4
 893 01fb 0605     		.2byte	0x506
 894 01fd C5000000 		.4byte	0xc5
 895 0201 0E       		.byte	0xe
 896 0202 0C       		.uleb128 0xc
 897 0203 535200   		.ascii	"SR\000"
 898 0206 04       		.byte	0x4
 899 0207 0705     		.2byte	0x507
 900 0209 F2000000 		.4byte	0xf2
ARM GAS  /var/folders/bz/nn5481rn5xq59rb0mbj7x0880000gn/T//ccsuS3m6.s 			page 17


 901 020d 10       		.byte	0x10
 902 020e 0D       		.uleb128 0xd
 903 020f DD040000 		.4byte	.LASF36
 904 0213 04       		.byte	0x4
 905 0214 0805     		.2byte	0x508
 906 0216 C5000000 		.4byte	0xc5
 907 021a 12       		.byte	0x12
 908 021b 0C       		.uleb128 0xc
 909 021c 45475200 		.ascii	"EGR\000"
 910 0220 04       		.byte	0x4
 911 0221 0905     		.2byte	0x509
 912 0223 F2000000 		.4byte	0xf2
 913 0227 14       		.byte	0x14
 914 0228 0D       		.uleb128 0xd
 915 0229 E7040000 		.4byte	.LASF37
 916 022d 04       		.byte	0x4
 917 022e 0A05     		.2byte	0x50a
 918 0230 C5000000 		.4byte	0xc5
 919 0234 16       		.byte	0x16
 920 0235 0D       		.uleb128 0xd
 921 0236 FF000000 		.4byte	.LASF38
 922 023a 04       		.byte	0x4
 923 023b 0B05     		.2byte	0x50b
 924 023d F2000000 		.4byte	0xf2
 925 0241 18       		.byte	0x18
 926 0242 0D       		.uleb128 0xd
 927 0243 3A040000 		.4byte	.LASF39
 928 0247 04       		.byte	0x4
 929 0248 0C05     		.2byte	0x50c
 930 024a C5000000 		.4byte	0xc5
 931 024e 1A       		.byte	0x1a
 932 024f 0D       		.uleb128 0xd
 933 0250 05010000 		.4byte	.LASF40
 934 0254 04       		.byte	0x4
 935 0255 0D05     		.2byte	0x50d
 936 0257 F2000000 		.4byte	0xf2
 937 025b 1C       		.byte	0x1c
 938 025c 0D       		.uleb128 0xd
 939 025d 44040000 		.4byte	.LASF41
 940 0261 04       		.byte	0x4
 941 0262 0E05     		.2byte	0x50e
 942 0264 C5000000 		.4byte	0xc5
 943 0268 1E       		.byte	0x1e
 944 0269 0D       		.uleb128 0xd
 945 026a A7010000 		.4byte	.LASF42
 946 026e 04       		.byte	0x4
 947 026f 0F05     		.2byte	0x50f
 948 0271 F2000000 		.4byte	0xf2
 949 0275 20       		.byte	0x20
 950 0276 0D       		.uleb128 0xd
 951 0277 4E040000 		.4byte	.LASF43
 952 027b 04       		.byte	0x4
 953 027c 1005     		.2byte	0x510
 954 027e C5000000 		.4byte	0xc5
 955 0282 22       		.byte	0x22
 956 0283 0C       		.uleb128 0xc
 957 0284 434E5400 		.ascii	"CNT\000"
ARM GAS  /var/folders/bz/nn5481rn5xq59rb0mbj7x0880000gn/T//ccsuS3m6.s 			page 18


 958 0288 04       		.byte	0x4
 959 0289 1105     		.2byte	0x511
 960 028b ED000000 		.4byte	0xed
 961 028f 24       		.byte	0x24
 962 0290 0C       		.uleb128 0xc
 963 0291 50534300 		.ascii	"PSC\000"
 964 0295 04       		.byte	0x4
 965 0296 1205     		.2byte	0x512
 966 0298 F2000000 		.4byte	0xf2
 967 029c 28       		.byte	0x28
 968 029d 0D       		.uleb128 0xd
 969 029e 58040000 		.4byte	.LASF44
 970 02a2 04       		.byte	0x4
 971 02a3 1305     		.2byte	0x513
 972 02a5 C5000000 		.4byte	0xc5
 973 02a9 2A       		.byte	0x2a
 974 02aa 0C       		.uleb128 0xc
 975 02ab 41525200 		.ascii	"ARR\000"
 976 02af 04       		.byte	0x4
 977 02b0 1405     		.2byte	0x514
 978 02b2 ED000000 		.4byte	0xed
 979 02b6 2C       		.byte	0x2c
 980 02b7 0C       		.uleb128 0xc
 981 02b8 52435200 		.ascii	"RCR\000"
 982 02bc 04       		.byte	0x4
 983 02bd 1505     		.2byte	0x515
 984 02bf F2000000 		.4byte	0xf2
 985 02c3 30       		.byte	0x30
 986 02c4 0D       		.uleb128 0xd
 987 02c5 3C010000 		.4byte	.LASF45
 988 02c9 04       		.byte	0x4
 989 02ca 1605     		.2byte	0x516
 990 02cc C5000000 		.4byte	0xc5
 991 02d0 32       		.byte	0x32
 992 02d1 0D       		.uleb128 0xd
 993 02d2 E4060000 		.4byte	.LASF46
 994 02d6 04       		.byte	0x4
 995 02d7 1705     		.2byte	0x517
 996 02d9 ED000000 		.4byte	0xed
 997 02dd 34       		.byte	0x34
 998 02de 0D       		.uleb128 0xd
 999 02df E9060000 		.4byte	.LASF47
 1000 02e3 04       		.byte	0x4
 1001 02e4 1805     		.2byte	0x518
 1002 02e6 ED000000 		.4byte	0xed
 1003 02ea 38       		.byte	0x38
 1004 02eb 0D       		.uleb128 0xd
 1005 02ec EE060000 		.4byte	.LASF48
 1006 02f0 04       		.byte	0x4
 1007 02f1 1905     		.2byte	0x519
 1008 02f3 ED000000 		.4byte	0xed
 1009 02f7 3C       		.byte	0x3c
 1010 02f8 0D       		.uleb128 0xd
 1011 02f9 F3060000 		.4byte	.LASF49
 1012 02fd 04       		.byte	0x4
 1013 02fe 1A05     		.2byte	0x51a
 1014 0300 ED000000 		.4byte	0xed
ARM GAS  /var/folders/bz/nn5481rn5xq59rb0mbj7x0880000gn/T//ccsuS3m6.s 			page 19


 1015 0304 40       		.byte	0x40
 1016 0305 0D       		.uleb128 0xd
 1017 0306 EA000000 		.4byte	.LASF50
 1018 030a 04       		.byte	0x4
 1019 030b 1B05     		.2byte	0x51b
 1020 030d F2000000 		.4byte	0xf2
 1021 0311 44       		.byte	0x44
 1022 0312 0D       		.uleb128 0xd
 1023 0313 47010000 		.4byte	.LASF51
 1024 0317 04       		.byte	0x4
 1025 0318 1C05     		.2byte	0x51c
 1026 031a C5000000 		.4byte	0xc5
 1027 031e 46       		.byte	0x46
 1028 031f 0C       		.uleb128 0xc
 1029 0320 44435200 		.ascii	"DCR\000"
 1030 0324 04       		.byte	0x4
 1031 0325 1D05     		.2byte	0x51d
 1032 0327 F2000000 		.4byte	0xf2
 1033 032b 48       		.byte	0x48
 1034 032c 0D       		.uleb128 0xd
 1035 032d D9060000 		.4byte	.LASF52
 1036 0331 04       		.byte	0x4
 1037 0332 1E05     		.2byte	0x51e
 1038 0334 C5000000 		.4byte	0xc5
 1039 0338 4A       		.byte	0x4a
 1040 0339 0D       		.uleb128 0xd
 1041 033a DD030000 		.4byte	.LASF53
 1042 033e 04       		.byte	0x4
 1043 033f 1F05     		.2byte	0x51f
 1044 0341 F2000000 		.4byte	0xf2
 1045 0345 4C       		.byte	0x4c
 1046 0346 0D       		.uleb128 0xd
 1047 0347 66010000 		.4byte	.LASF54
 1048 034b 04       		.byte	0x4
 1049 034c 2005     		.2byte	0x520
 1050 034e C5000000 		.4byte	0xc5
 1051 0352 4E       		.byte	0x4e
 1052 0353 0C       		.uleb128 0xc
 1053 0354 4F5200   		.ascii	"OR\000"
 1054 0357 04       		.byte	0x4
 1055 0358 2105     		.2byte	0x521
 1056 035a F2000000 		.4byte	0xf2
 1057 035e 50       		.byte	0x50
 1058 035f 0D       		.uleb128 0xd
 1059 0360 71010000 		.4byte	.LASF55
 1060 0364 04       		.byte	0x4
 1061 0365 2205     		.2byte	0x522
 1062 0367 C5000000 		.4byte	0xc5
 1063 036b 52       		.byte	0x52
 1064 036c 00       		.byte	0
 1065 036d 0A       		.uleb128 0xa
 1066 036e 86000000 		.4byte	.LASF56
 1067 0372 04       		.byte	0x4
 1068 0373 2305     		.2byte	0x523
 1069 0375 91010000 		.4byte	0x191
 1070 0379 0E       		.uleb128 0xe
 1071 037a 3C       		.byte	0x3c
ARM GAS  /var/folders/bz/nn5481rn5xq59rb0mbj7x0880000gn/T//ccsuS3m6.s 			page 20


 1072 037b 05       		.byte	0x5
 1073 037c 36       		.byte	0x36
 1074 037d 36040000 		.4byte	0x436
 1075 0381 0F       		.uleb128 0xf
 1076 0382 A0040000 		.4byte	.LASF57
 1077 0386 05       		.byte	0x5
 1078 0387 38       		.byte	0x38
 1079 0388 DB000000 		.4byte	0xdb
 1080 038c 00       		.byte	0
 1081 038d 0F       		.uleb128 0xf
 1082 038e 4C030000 		.4byte	.LASF58
 1083 0392 05       		.byte	0x5
 1084 0393 3B       		.byte	0x3b
 1085 0394 DB000000 		.4byte	0xdb
 1086 0398 04       		.byte	0x4
 1087 0399 0F       		.uleb128 0xf
 1088 039a 26040000 		.4byte	.LASF59
 1089 039e 05       		.byte	0x5
 1090 039f 3D       		.byte	0x3d
 1091 03a0 DB000000 		.4byte	0xdb
 1092 03a4 08       		.byte	0x8
 1093 03a5 0F       		.uleb128 0xf
 1094 03a6 86030000 		.4byte	.LASF60
 1095 03aa 05       		.byte	0x5
 1096 03ab 41       		.byte	0x41
 1097 03ac DB000000 		.4byte	0xdb
 1098 03b0 0C       		.byte	0xc
 1099 03b1 0F       		.uleb128 0xf
 1100 03b2 3F070000 		.4byte	.LASF61
 1101 03b6 05       		.byte	0x5
 1102 03b7 45       		.byte	0x45
 1103 03b8 DB000000 		.4byte	0xdb
 1104 03bc 10       		.byte	0x10
 1105 03bd 0F       		.uleb128 0xf
 1106 03be 5D000000 		.4byte	.LASF62
 1107 03c2 05       		.byte	0x5
 1108 03c3 49       		.byte	0x49
 1109 03c4 DB000000 		.4byte	0xdb
 1110 03c8 14       		.byte	0x14
 1111 03c9 0F       		.uleb128 0xf
 1112 03ca 92000000 		.4byte	.LASF63
 1113 03ce 05       		.byte	0x5
 1114 03cf 4C       		.byte	0x4c
 1115 03d0 DB000000 		.4byte	0xdb
 1116 03d4 18       		.byte	0x18
 1117 03d5 0F       		.uleb128 0xf
 1118 03d6 39050000 		.4byte	.LASF64
 1119 03da 05       		.byte	0x5
 1120 03db 4F       		.byte	0x4f
 1121 03dc DB000000 		.4byte	0xdb
 1122 03e0 1C       		.byte	0x1c
 1123 03e1 0F       		.uleb128 0xf
 1124 03e2 CA030000 		.4byte	.LASF65
 1125 03e6 05       		.byte	0x5
 1126 03e7 52       		.byte	0x52
 1127 03e8 DB000000 		.4byte	0xdb
 1128 03ec 20       		.byte	0x20
ARM GAS  /var/folders/bz/nn5481rn5xq59rb0mbj7x0880000gn/T//ccsuS3m6.s 			page 21


 1129 03ed 0F       		.uleb128 0xf
 1130 03ee B1030000 		.4byte	.LASF66
 1131 03f2 05       		.byte	0x5
 1132 03f3 55       		.byte	0x55
 1133 03f4 DB000000 		.4byte	0xdb
 1134 03f8 24       		.byte	0x24
 1135 03f9 0F       		.uleb128 0xf
 1136 03fa 50000000 		.4byte	.LASF67
 1137 03fe 05       		.byte	0x5
 1138 03ff 5A       		.byte	0x5a
 1139 0400 DB000000 		.4byte	0xdb
 1140 0404 28       		.byte	0x28
 1141 0405 0F       		.uleb128 0xf
 1142 0406 14070000 		.4byte	.LASF68
 1143 040a 05       		.byte	0x5
 1144 040b 5D       		.byte	0x5d
 1145 040c DB000000 		.4byte	0xdb
 1146 0410 2C       		.byte	0x2c
 1147 0411 0F       		.uleb128 0xf
 1148 0412 32030000 		.4byte	.LASF69
 1149 0416 05       		.byte	0x5
 1150 0417 62       		.byte	0x62
 1151 0418 DB000000 		.4byte	0xdb
 1152 041c 30       		.byte	0x30
 1153 041d 0F       		.uleb128 0xf
 1154 041e EF000000 		.4byte	.LASF70
 1155 0422 05       		.byte	0x5
 1156 0423 65       		.byte	0x65
 1157 0424 DB000000 		.4byte	0xdb
 1158 0428 34       		.byte	0x34
 1159 0429 0F       		.uleb128 0xf
 1160 042a 52010000 		.4byte	.LASF71
 1161 042e 05       		.byte	0x5
 1162 042f 6A       		.byte	0x6a
 1163 0430 DB000000 		.4byte	0xdb
 1164 0434 38       		.byte	0x38
 1165 0435 00       		.byte	0
 1166 0436 04       		.uleb128 0x4
 1167 0437 2F000000 		.4byte	.LASF72
 1168 043b 05       		.byte	0x5
 1169 043c 6E       		.byte	0x6e
 1170 043d 79030000 		.4byte	0x379
 1171 0441 0E       		.uleb128 0xe
 1172 0442 0C       		.byte	0xc
 1173 0443 06       		.byte	0x6
 1174 0444 37       		.byte	0x37
 1175 0445 86040000 		.4byte	0x486
 1176 0449 0F       		.uleb128 0xf
 1177 044a 63030000 		.4byte	.LASF73
 1178 044e 06       		.byte	0x6
 1179 044f 39       		.byte	0x39
 1180 0450 C5000000 		.4byte	0xc5
 1181 0454 00       		.byte	0
 1182 0455 0F       		.uleb128 0xf
 1183 0456 63020000 		.4byte	.LASF74
 1184 045a 06       		.byte	0x6
 1185 045b 3C       		.byte	0x3c
ARM GAS  /var/folders/bz/nn5481rn5xq59rb0mbj7x0880000gn/T//ccsuS3m6.s 			page 22


 1186 045c C5000000 		.4byte	0xc5
 1187 0460 02       		.byte	0x2
 1188 0461 0F       		.uleb128 0xf
 1189 0462 5C050000 		.4byte	.LASF75
 1190 0466 06       		.byte	0x6
 1191 0467 3F       		.byte	0x3f
 1192 0468 DB000000 		.4byte	0xdb
 1193 046c 04       		.byte	0x4
 1194 046d 0F       		.uleb128 0xf
 1195 046e AC020000 		.4byte	.LASF76
 1196 0472 06       		.byte	0x6
 1197 0473 43       		.byte	0x43
 1198 0474 C5000000 		.4byte	0xc5
 1199 0478 08       		.byte	0x8
 1200 0479 0F       		.uleb128 0xf
 1201 047a 29070000 		.4byte	.LASF77
 1202 047e 06       		.byte	0x6
 1203 047f 46       		.byte	0x46
 1204 0480 BA000000 		.4byte	0xba
 1205 0484 0A       		.byte	0xa
 1206 0485 00       		.byte	0
 1207 0486 04       		.uleb128 0x4
 1208 0487 DD020000 		.4byte	.LASF78
 1209 048b 06       		.byte	0x6
 1210 048c 4E       		.byte	0x4e
 1211 048d 41040000 		.4byte	0x441
 1212 0491 0E       		.uleb128 0xe
 1213 0492 14       		.byte	0x14
 1214 0493 06       		.byte	0x6
 1215 0494 54       		.byte	0x54
 1216 0495 FA040000 		.4byte	0x4fa
 1217 0499 0F       		.uleb128 0xf
 1218 049a C9060000 		.4byte	.LASF79
 1219 049e 06       		.byte	0x6
 1220 049f 56       		.byte	0x56
 1221 04a0 C5000000 		.4byte	0xc5
 1222 04a4 00       		.byte	0
 1223 04a5 0F       		.uleb128 0xf
 1224 04a6 3D020000 		.4byte	.LASF80
 1225 04aa 06       		.byte	0x6
 1226 04ab 59       		.byte	0x59
 1227 04ac C5000000 		.4byte	0xc5
 1228 04b0 02       		.byte	0x2
 1229 04b1 0F       		.uleb128 0xf
 1230 04b2 85010000 		.4byte	.LASF81
 1231 04b6 06       		.byte	0x6
 1232 04b7 5C       		.byte	0x5c
 1233 04b8 C5000000 		.4byte	0xc5
 1234 04bc 04       		.byte	0x4
 1235 04bd 0F       		.uleb128 0xf
 1236 04be 6F000000 		.4byte	.LASF82
 1237 04c2 06       		.byte	0x6
 1238 04c3 60       		.byte	0x60
 1239 04c4 DB000000 		.4byte	0xdb
 1240 04c8 08       		.byte	0x8
 1241 04c9 0F       		.uleb128 0xf
 1242 04ca 94020000 		.4byte	.LASF83
ARM GAS  /var/folders/bz/nn5481rn5xq59rb0mbj7x0880000gn/T//ccsuS3m6.s 			page 23


 1243 04ce 06       		.byte	0x6
 1244 04cf 63       		.byte	0x63
 1245 04d0 C5000000 		.4byte	0xc5
 1246 04d4 0C       		.byte	0xc
 1247 04d5 0F       		.uleb128 0xf
 1248 04d6 06050000 		.4byte	.LASF84
 1249 04da 06       		.byte	0x6
 1250 04db 66       		.byte	0x66
 1251 04dc C5000000 		.4byte	0xc5
 1252 04e0 0E       		.byte	0xe
 1253 04e1 0F       		.uleb128 0xf
 1254 04e2 53070000 		.4byte	.LASF85
 1255 04e6 06       		.byte	0x6
 1256 04e7 6A       		.byte	0x6a
 1257 04e8 C5000000 		.4byte	0xc5
 1258 04ec 10       		.byte	0x10
 1259 04ed 0F       		.uleb128 0xf
 1260 04ee 8E030000 		.4byte	.LASF86
 1261 04f2 06       		.byte	0x6
 1262 04f3 6E       		.byte	0x6e
 1263 04f4 C5000000 		.4byte	0xc5
 1264 04f8 12       		.byte	0x12
 1265 04f9 00       		.byte	0
 1266 04fa 04       		.uleb128 0x4
 1267 04fb F8060000 		.4byte	.LASF87
 1268 04ff 06       		.byte	0x6
 1269 0500 71       		.byte	0x71
 1270 0501 91040000 		.4byte	0x491
 1271 0505 10       		.uleb128 0x10
 1272 0506 04       		.byte	0x4
 1273 0507 85010000 		.4byte	0x185
 1274 050b 0E       		.uleb128 0xe
 1275 050c 04       		.byte	0x4
 1276 050d 07       		.byte	0x7
 1277 050e 96       		.byte	0x96
 1278 050f 2C050000 		.4byte	0x52c
 1279 0513 11       		.uleb128 0x11
 1280 0514 73657400 		.ascii	"set\000"
 1281 0518 07       		.byte	0x7
 1282 0519 97       		.byte	0x97
 1283 051a C5000000 		.4byte	0xc5
 1284 051e 00       		.byte	0
 1285 051f 0F       		.uleb128 0xf
 1286 0520 80030000 		.4byte	.LASF88
 1287 0524 07       		.byte	0x7
 1288 0525 98       		.byte	0x98
 1289 0526 C5000000 		.4byte	0xc5
 1290 052a 02       		.byte	0x2
 1291 052b 00       		.byte	0
 1292 052c 12       		.uleb128 0x12
 1293 052d 04       		.byte	0x4
 1294 052e 07       		.byte	0x7
 1295 052f 94       		.byte	0x94
 1296 0530 47050000 		.4byte	0x547
 1297 0534 13       		.uleb128 0x13
 1298 0535 5700     		.ascii	"W\000"
 1299 0537 07       		.byte	0x7
ARM GAS  /var/folders/bz/nn5481rn5xq59rb0mbj7x0880000gn/T//ccsuS3m6.s 			page 24


 1300 0538 95       		.byte	0x95
 1301 0539 DB000000 		.4byte	0xdb
 1302 053d 13       		.uleb128 0x13
 1303 053e 4800     		.ascii	"H\000"
 1304 0540 07       		.byte	0x7
 1305 0541 99       		.byte	0x99
 1306 0542 0B050000 		.4byte	0x50b
 1307 0546 00       		.byte	0
 1308 0547 0E       		.uleb128 0xe
 1309 0548 28       		.byte	0x28
 1310 0549 07       		.byte	0x7
 1311 054a 8C       		.byte	0x8c
 1312 054b C8050000 		.4byte	0x5c8
 1313 054f 0F       		.uleb128 0xf
 1314 0550 B5000000 		.4byte	.LASF89
 1315 0554 07       		.byte	0x7
 1316 0555 8E       		.byte	0x8e
 1317 0556 ED000000 		.4byte	0xed
 1318 055a 00       		.byte	0
 1319 055b 0F       		.uleb128 0xf
 1320 055c 3F000000 		.4byte	.LASF90
 1321 0560 07       		.byte	0x7
 1322 0561 8F       		.byte	0x8f
 1323 0562 ED000000 		.4byte	0xed
 1324 0566 04       		.byte	0x4
 1325 0567 0F       		.uleb128 0xf
 1326 0568 2A020000 		.4byte	.LASF91
 1327 056c 07       		.byte	0x7
 1328 056d 90       		.byte	0x90
 1329 056e ED000000 		.4byte	0xed
 1330 0572 08       		.byte	0x8
 1331 0573 0F       		.uleb128 0xf
 1332 0574 00000000 		.4byte	.LASF92
 1333 0578 07       		.byte	0x7
 1334 0579 91       		.byte	0x91
 1335 057a ED000000 		.4byte	0xed
 1336 057e 0C       		.byte	0xc
 1337 057f 11       		.uleb128 0x11
 1338 0580 49445200 		.ascii	"IDR\000"
 1339 0584 07       		.byte	0x7
 1340 0585 92       		.byte	0x92
 1341 0586 ED000000 		.4byte	0xed
 1342 058a 10       		.byte	0x10
 1343 058b 11       		.uleb128 0x11
 1344 058c 4F445200 		.ascii	"ODR\000"
 1345 0590 07       		.byte	0x7
 1346 0591 93       		.byte	0x93
 1347 0592 ED000000 		.4byte	0xed
 1348 0596 14       		.byte	0x14
 1349 0597 0F       		.uleb128 0xf
 1350 0598 25010000 		.4byte	.LASF93
 1351 059c 07       		.byte	0x7
 1352 059d 9A       		.byte	0x9a
 1353 059e C8050000 		.4byte	0x5c8
 1354 05a2 18       		.byte	0x18
 1355 05a3 0F       		.uleb128 0xf
 1356 05a4 06000000 		.4byte	.LASF94
ARM GAS  /var/folders/bz/nn5481rn5xq59rb0mbj7x0880000gn/T//ccsuS3m6.s 			page 25


 1357 05a8 07       		.byte	0x7
 1358 05a9 9B       		.byte	0x9b
 1359 05aa ED000000 		.4byte	0xed
 1360 05ae 1C       		.byte	0x1c
 1361 05af 0F       		.uleb128 0xf
 1362 05b0 F9030000 		.4byte	.LASF95
 1363 05b4 07       		.byte	0x7
 1364 05b5 9C       		.byte	0x9c
 1365 05b6 ED000000 		.4byte	0xed
 1366 05ba 20       		.byte	0x20
 1367 05bb 0F       		.uleb128 0xf
 1368 05bc E2030000 		.4byte	.LASF96
 1369 05c0 07       		.byte	0x7
 1370 05c1 9D       		.byte	0x9d
 1371 05c2 ED000000 		.4byte	0xed
 1372 05c6 24       		.byte	0x24
 1373 05c7 00       		.byte	0
 1374 05c8 05       		.uleb128 0x5
 1375 05c9 2C050000 		.4byte	0x52c
 1376 05cd 04       		.uleb128 0x4
 1377 05ce D0020000 		.4byte	.LASF97
 1378 05d2 07       		.byte	0x7
 1379 05d3 9E       		.byte	0x9e
 1380 05d4 47050000 		.4byte	0x547
 1381 05d8 04       		.uleb128 0x4
 1382 05d9 79000000 		.4byte	.LASF98
 1383 05dd 07       		.byte	0x7
 1384 05de F0       		.byte	0xf0
 1385 05df DB000000 		.4byte	0xdb
 1386 05e3 04       		.uleb128 0x4
 1387 05e4 63070000 		.4byte	.LASF99
 1388 05e8 07       		.byte	0x7
 1389 05e9 F5       		.byte	0xf5
 1390 05ea DB000000 		.4byte	0xdb
 1391 05ee 04       		.uleb128 0x4
 1392 05ef A8060000 		.4byte	.LASF100
 1393 05f3 07       		.byte	0x7
 1394 05f4 FD       		.byte	0xfd
 1395 05f5 F9050000 		.4byte	0x5f9
 1396 05f9 10       		.uleb128 0x10
 1397 05fa 04       		.byte	0x4
 1398 05fb CD050000 		.4byte	0x5cd
 1399 05ff 06       		.uleb128 0x6
 1400 0600 BA000000 		.4byte	0xba
 1401 0604 0F060000 		.4byte	0x60f
 1402 0608 07       		.uleb128 0x7
 1403 0609 9E000000 		.4byte	0x9e
 1404 060d FF       		.byte	0xff
 1405 060e 00       		.byte	0
 1406 060f 14       		.uleb128 0x14
 1407 0610 A0000000 		.4byte	.LASF129
 1408 0614 01       		.byte	0x1
 1409 0615 E5       		.byte	0xe5
 1410 0616 DB000000 		.4byte	0xdb
 1411 061a 01       		.byte	0x1
 1412 061b 46060000 		.4byte	0x646
 1413 061f 15       		.uleb128 0x15
ARM GAS  /var/folders/bz/nn5481rn5xq59rb0mbj7x0880000gn/T//ccsuS3m6.s 			page 26


 1414 0620 16050000 		.4byte	.LASF107
 1415 0624 01       		.byte	0x1
 1416 0625 E5       		.byte	0xe5
 1417 0626 DB000000 		.4byte	0xdb
 1418 062a 16       		.uleb128 0x16
 1419 062b 7200     		.ascii	"r\000"
 1420 062d 01       		.byte	0x1
 1421 062e E6       		.byte	0xe6
 1422 062f DB000000 		.4byte	0xdb
 1423 0633 16       		.uleb128 0x16
 1424 0634 6700     		.ascii	"g\000"
 1425 0636 01       		.byte	0x1
 1426 0637 E7       		.byte	0xe7
 1427 0638 DB000000 		.4byte	0xdb
 1428 063c 16       		.uleb128 0x16
 1429 063d 6200     		.ascii	"b\000"
 1430 063f 01       		.byte	0x1
 1431 0640 E8       		.byte	0xe8
 1432 0641 DB000000 		.4byte	0xdb
 1433 0645 00       		.byte	0
 1434 0646 17       		.uleb128 0x17
 1435 0647 F7010000 		.4byte	.LASF105
 1436 064b 01       		.byte	0x1
 1437 064c 2F       		.byte	0x2f
 1438 064d 00000000 		.4byte	.LFB118
 1439 0651 C4010000 		.4byte	.LFE118-.LFB118
 1440 0655 01       		.uleb128 0x1
 1441 0656 9C       		.byte	0x9c
 1442 0657 A2080000 		.4byte	0x8a2
 1443 065b 18       		.uleb128 0x18
 1444 065c 4D020000 		.4byte	.LASF101
 1445 0660 01       		.byte	0x1
 1446 0661 30       		.byte	0x30
 1447 0662 86040000 		.4byte	0x486
 1448 0666 03       		.uleb128 0x3
 1449 0667 91       		.byte	0x91
 1450 0668 FC7E     		.sleb128 -132
 1451 066a 18       		.uleb128 0x18
 1452 066b 73020000 		.4byte	.LASF102
 1453 066f 01       		.byte	0x1
 1454 0670 31       		.byte	0x31
 1455 0671 FA040000 		.4byte	0x4fa
 1456 0675 03       		.uleb128 0x3
 1457 0676 91       		.byte	0x91
 1458 0677 887F     		.sleb128 -120
 1459 0679 18       		.uleb128 0x18
 1460 067a 2A010000 		.4byte	.LASF103
 1461 067e 01       		.byte	0x1
 1462 067f 32       		.byte	0x32
 1463 0680 36040000 		.4byte	0x436
 1464 0684 03       		.uleb128 0x3
 1465 0685 91       		.byte	0x91
 1466 0686 9C7F     		.sleb128 -100
 1467 0688 19       		.uleb128 0x19
 1468 0689 6900     		.ascii	"i\000"
 1469 068b 01       		.byte	0x1
 1470 068c 35       		.byte	0x35
ARM GAS  /var/folders/bz/nn5481rn5xq59rb0mbj7x0880000gn/T//ccsuS3m6.s 			page 27


 1471 068d 2C000000 		.4byte	0x2c
 1472 0691 00000000 		.4byte	.LLST0
 1473 0695 19       		.uleb128 0x19
 1474 0696 62697400 		.ascii	"bit\000"
 1475 069a 01       		.byte	0x1
 1476 069b 35       		.byte	0x35
 1477 069c 2C000000 		.4byte	0x2c
 1478 06a0 14000000 		.4byte	.LLST1
 1479 06a4 1A       		.uleb128 0x1a
 1480 06a5 24000000 		.4byte	.LBB12
 1481 06a9 3C000000 		.4byte	.LBE12-.LBB12
 1482 06ad FF060000 		.4byte	0x6ff
 1483 06b1 1B       		.uleb128 0x1b
 1484 06b2 0A070000 		.4byte	.LASF104
 1485 06b6 01       		.byte	0x1
 1486 06b7 3C       		.byte	0x3c
 1487 06b8 DB000000 		.4byte	0xdb
 1488 06bc 28000000 		.4byte	.LLST2
 1489 06c0 1C       		.uleb128 0x1c
 1490 06c1 0F060000 		.4byte	0x60f
 1491 06c5 2C000000 		.4byte	.LBB13
 1492 06c9 1E000000 		.4byte	.LBE13-.LBB13
 1493 06cd 01       		.byte	0x1
 1494 06ce 3C       		.byte	0x3c
 1495 06cf 1D       		.uleb128 0x1d
 1496 06d0 1F060000 		.4byte	0x61f
 1497 06d4 3B000000 		.4byte	.LLST3
 1498 06d8 1E       		.uleb128 0x1e
 1499 06d9 2C000000 		.4byte	.LBB14
 1500 06dd 1E000000 		.4byte	.LBE14-.LBB14
 1501 06e1 1F       		.uleb128 0x1f
 1502 06e2 2A060000 		.4byte	0x62a
 1503 06e6 5A000000 		.4byte	.LLST4
 1504 06ea 1F       		.uleb128 0x1f
 1505 06eb 33060000 		.4byte	0x633
 1506 06ef BF000000 		.4byte	.LLST5
 1507 06f3 1F       		.uleb128 0x1f
 1508 06f4 3C060000 		.4byte	0x63c
 1509 06f8 E9000000 		.4byte	.LLST6
 1510 06fc 00       		.byte	0
 1511 06fd 00       		.byte	0
 1512 06fe 00       		.byte	0
 1513 06ff 20       		.uleb128 0x20
 1514 0700 00000000 		.4byte	.Ldebug_ranges0+0
 1515 0704 48070000 		.4byte	0x748
 1516 0708 19       		.uleb128 0x19
 1517 0709 6900     		.ascii	"i\000"
 1518 070b 01       		.byte	0x1
 1519 070c 4F       		.byte	0x4f
 1520 070d 2C000000 		.4byte	0x2c
 1521 0711 59010000 		.4byte	.LLST7
 1522 0715 21       		.uleb128 0x21
 1523 0716 90000000 		.4byte	.LVL14
 1524 071a 1B0A0000 		.4byte	0xa1b
 1525 071e 3E070000 		.4byte	0x73e
 1526 0722 22       		.uleb128 0x22
 1527 0723 02       		.uleb128 0x2
ARM GAS  /var/folders/bz/nn5481rn5xq59rb0mbj7x0880000gn/T//ccsuS3m6.s 			page 28


 1528 0724 90       		.byte	0x90
 1529 0725 41       		.uleb128 0x41
 1530 0726 07       		.uleb128 0x7
 1531 0727 F4       		.byte	0xf4
 1532 0728 25       		.uleb128 0x25
 1533 0729 04       		.byte	0x4
 1534 072a E4380E40 		.4byte	0x400e38e4
 1535 072e 22       		.uleb128 0x22
 1536 072f 02       		.uleb128 0x2
 1537 0730 90       		.byte	0x90
 1538 0731 40       		.uleb128 0x40
 1539 0732 0A       		.uleb128 0xa
 1540 0733 74       		.byte	0x74
 1541 0734 00       		.sleb128 0
 1542 0735 F7       		.byte	0xf7
 1543 0736 2C       		.uleb128 0x2c
 1544 0737 F7       		.byte	0xf7
 1545 0738 25       		.uleb128 0x25
 1546 0739 F5       		.byte	0xf5
 1547 073a 50       		.uleb128 0x50
 1548 073b 25       		.uleb128 0x25
 1549 073c 1B       		.byte	0x1b
 1550 073d 00       		.byte	0
 1551 073e 23       		.uleb128 0x23
 1552 073f 9A000000 		.4byte	.LVL16
 1553 0743 360A0000 		.4byte	0xa36
 1554 0747 00       		.byte	0
 1555 0748 21       		.uleb128 0x21
 1556 0749 BE000000 		.4byte	.LVL17
 1557 074d 4C0A0000 		.4byte	0xa4c
 1558 0751 6C070000 		.4byte	0x76c
 1559 0755 22       		.uleb128 0x22
 1560 0756 01       		.uleb128 0x1
 1561 0757 52       		.byte	0x52
 1562 0758 03       		.uleb128 0x3
 1563 0759 0A       		.byte	0xa
 1564 075a 0E01     		.2byte	0x10e
 1565 075c 22       		.uleb128 0x22
 1566 075d 01       		.uleb128 0x1
 1567 075e 51       		.byte	0x51
 1568 075f 02       		.uleb128 0x2
 1569 0760 08       		.byte	0x8
 1570 0761 80       		.byte	0x80
 1571 0762 22       		.uleb128 0x22
 1572 0763 01       		.uleb128 0x1
 1573 0764 50       		.byte	0x50
 1574 0765 05       		.uleb128 0x5
 1575 0766 0C       		.byte	0xc
 1576 0767 00040240 		.4byte	0x40020400
 1577 076b 00       		.byte	0
 1578 076c 21       		.uleb128 0x21
 1579 076d C8000000 		.4byte	.LVL18
 1580 0771 680A0000 		.4byte	0xa68
 1581 0775 86070000 		.4byte	0x786
 1582 0779 22       		.uleb128 0x22
 1583 077a 01       		.uleb128 0x1
 1584 077b 51       		.byte	0x51
ARM GAS  /var/folders/bz/nn5481rn5xq59rb0mbj7x0880000gn/T//ccsuS3m6.s 			page 29


 1585 077c 01       		.uleb128 0x1
 1586 077d 31       		.byte	0x31
 1587 077e 22       		.uleb128 0x22
 1588 077f 01       		.uleb128 0x1
 1589 0780 50       		.byte	0x50
 1590 0781 03       		.uleb128 0x3
 1591 0782 40       		.byte	0x40
 1592 0783 41       		.byte	0x41
 1593 0784 24       		.byte	0x24
 1594 0785 00       		.byte	0
 1595 0786 21       		.uleb128 0x21
 1596 0787 CE000000 		.4byte	.LVL19
 1597 078b 7F0A0000 		.4byte	0xa7f
 1598 078f 9D070000 		.4byte	0x79d
 1599 0793 22       		.uleb128 0x22
 1600 0794 01       		.uleb128 0x1
 1601 0795 50       		.byte	0x50
 1602 0796 05       		.uleb128 0x5
 1603 0797 0C       		.byte	0xc
 1604 0798 58600240 		.4byte	0x40026058
 1605 079c 00       		.byte	0
 1606 079d 21       		.uleb128 0x21
 1607 079e 1E010000 		.4byte	.LVL21
 1608 07a2 910A0000 		.4byte	0xa91
 1609 07a6 BB070000 		.4byte	0x7bb
 1610 07aa 22       		.uleb128 0x22
 1611 07ab 01       		.uleb128 0x1
 1612 07ac 51       		.byte	0x51
 1613 07ad 03       		.uleb128 0x3
 1614 07ae 91       		.byte	0x91
 1615 07af 9C7F     		.sleb128 -100
 1616 07b1 22       		.uleb128 0x22
 1617 07b2 01       		.uleb128 0x1
 1618 07b3 50       		.byte	0x50
 1619 07b4 05       		.uleb128 0x5
 1620 07b5 0C       		.byte	0xc
 1621 07b6 58600240 		.4byte	0x40026058
 1622 07ba 00       		.byte	0
 1623 07bb 21       		.uleb128 0x21
 1624 07bc 26010000 		.4byte	.LVL22
 1625 07c0 AE0A0000 		.4byte	0xaae
 1626 07c4 D3070000 		.4byte	0x7d3
 1627 07c8 22       		.uleb128 0x22
 1628 07c9 01       		.uleb128 0x1
 1629 07ca 51       		.byte	0x51
 1630 07cb 01       		.uleb128 0x1
 1631 07cc 31       		.byte	0x31
 1632 07cd 22       		.uleb128 0x22
 1633 07ce 01       		.uleb128 0x1
 1634 07cf 50       		.byte	0x50
 1635 07d0 01       		.uleb128 0x1
 1636 07d1 34       		.byte	0x34
 1637 07d2 00       		.byte	0
 1638 07d3 21       		.uleb128 0x21
 1639 07d4 44010000 		.4byte	.LVL23
 1640 07d8 C50A0000 		.4byte	0xac5
 1641 07dc F1070000 		.4byte	0x7f1
ARM GAS  /var/folders/bz/nn5481rn5xq59rb0mbj7x0880000gn/T//ccsuS3m6.s 			page 30


 1642 07e0 22       		.uleb128 0x22
 1643 07e1 01       		.uleb128 0x1
 1644 07e2 51       		.byte	0x51
 1645 07e3 03       		.uleb128 0x3
 1646 07e4 91       		.byte	0x91
 1647 07e5 FC7E     		.sleb128 -132
 1648 07e7 22       		.uleb128 0x22
 1649 07e8 01       		.uleb128 0x1
 1650 07e9 50       		.byte	0x50
 1651 07ea 05       		.uleb128 0x5
 1652 07eb 0C       		.byte	0xc
 1653 07ec 00080040 		.4byte	0x40000800
 1654 07f0 00       		.byte	0
 1655 07f1 21       		.uleb128 0x21
 1656 07f2 5E010000 		.4byte	.LVL24
 1657 07f6 E80A0000 		.4byte	0xae8
 1658 07fa 0F080000 		.4byte	0x80f
 1659 07fe 22       		.uleb128 0x22
 1660 07ff 01       		.uleb128 0x1
 1661 0800 51       		.byte	0x51
 1662 0801 03       		.uleb128 0x3
 1663 0802 91       		.byte	0x91
 1664 0803 887F     		.sleb128 -120
 1665 0805 22       		.uleb128 0x22
 1666 0806 01       		.uleb128 0x1
 1667 0807 50       		.byte	0x50
 1668 0808 05       		.uleb128 0x5
 1669 0809 0C       		.byte	0xc
 1670 080a 00080040 		.4byte	0x40000800
 1671 080e 00       		.byte	0
 1672 080f 21       		.uleb128 0x21
 1673 0810 66010000 		.4byte	.LVL25
 1674 0814 050B0000 		.4byte	0xb05
 1675 0818 2B080000 		.4byte	0x82b
 1676 081c 22       		.uleb128 0x22
 1677 081d 01       		.uleb128 0x1
 1678 081e 51       		.byte	0x51
 1679 081f 01       		.uleb128 0x1
 1680 0820 38       		.byte	0x38
 1681 0821 22       		.uleb128 0x22
 1682 0822 01       		.uleb128 0x1
 1683 0823 50       		.byte	0x50
 1684 0824 05       		.uleb128 0x5
 1685 0825 0C       		.byte	0xc
 1686 0826 00080040 		.4byte	0x40000800
 1687 082a 00       		.byte	0
 1688 082b 21       		.uleb128 0x21
 1689 082c 6E010000 		.4byte	.LVL26
 1690 0830 1C0B0000 		.4byte	0xb1c
 1691 0834 48080000 		.4byte	0x848
 1692 0838 22       		.uleb128 0x22
 1693 0839 01       		.uleb128 0x1
 1694 083a 51       		.byte	0x51
 1695 083b 02       		.uleb128 0x2
 1696 083c 74       		.byte	0x74
 1697 083d 00       		.sleb128 0
 1698 083e 22       		.uleb128 0x22
ARM GAS  /var/folders/bz/nn5481rn5xq59rb0mbj7x0880000gn/T//ccsuS3m6.s 			page 31


 1699 083f 01       		.uleb128 0x1
 1700 0840 50       		.byte	0x50
 1701 0841 05       		.uleb128 0x5
 1702 0842 0C       		.byte	0xc
 1703 0843 00080040 		.4byte	0x40000800
 1704 0847 00       		.byte	0
 1705 0848 21       		.uleb128 0x21
 1706 0849 76010000 		.4byte	.LVL27
 1707 084d 330B0000 		.4byte	0xb33
 1708 0851 65080000 		.4byte	0x865
 1709 0855 22       		.uleb128 0x22
 1710 0856 01       		.uleb128 0x1
 1711 0857 51       		.byte	0x51
 1712 0858 02       		.uleb128 0x2
 1713 0859 74       		.byte	0x74
 1714 085a 00       		.sleb128 0
 1715 085b 22       		.uleb128 0x22
 1716 085c 01       		.uleb128 0x1
 1717 085d 50       		.byte	0x50
 1718 085e 05       		.uleb128 0x5
 1719 085f 0C       		.byte	0xc
 1720 0860 58600240 		.4byte	0x40026058
 1721 0864 00       		.byte	0
 1722 0865 21       		.uleb128 0x21
 1723 0866 80010000 		.4byte	.LVL28
 1724 086a 4A0B0000 		.4byte	0xb4a
 1725 086e 88080000 		.4byte	0x888
 1726 0872 22       		.uleb128 0x22
 1727 0873 01       		.uleb128 0x1
 1728 0874 52       		.byte	0x52
 1729 0875 02       		.uleb128 0x2
 1730 0876 74       		.byte	0x74
 1731 0877 00       		.sleb128 0
 1732 0878 22       		.uleb128 0x22
 1733 0879 01       		.uleb128 0x1
 1734 087a 51       		.byte	0x51
 1735 087b 02       		.uleb128 0x2
 1736 087c 76       		.byte	0x76
 1737 087d 00       		.sleb128 0
 1738 087e 22       		.uleb128 0x22
 1739 087f 01       		.uleb128 0x1
 1740 0880 50       		.byte	0x50
 1741 0881 05       		.uleb128 0x5
 1742 0882 0C       		.byte	0xc
 1743 0883 00080040 		.4byte	0x40000800
 1744 0887 00       		.byte	0
 1745 0888 24       		.uleb128 0x24
 1746 0889 88010000 		.4byte	.LVL29
 1747 088d 660B0000 		.4byte	0xb66
 1748 0891 22       		.uleb128 0x22
 1749 0892 01       		.uleb128 0x1
 1750 0893 51       		.byte	0x51
 1751 0894 02       		.uleb128 0x2
 1752 0895 74       		.byte	0x74
 1753 0896 00       		.sleb128 0
 1754 0897 22       		.uleb128 0x22
 1755 0898 01       		.uleb128 0x1
ARM GAS  /var/folders/bz/nn5481rn5xq59rb0mbj7x0880000gn/T//ccsuS3m6.s 			page 32


 1756 0899 50       		.byte	0x50
 1757 089a 05       		.uleb128 0x5
 1758 089b 0C       		.byte	0xc
 1759 089c 00080040 		.4byte	0x40000800
 1760 08a0 00       		.byte	0
 1761 08a1 00       		.byte	0
 1762 08a2 17       		.uleb128 0x17
 1763 08a3 08030000 		.4byte	.LASF106
 1764 08a7 01       		.byte	0x1
 1765 08a8 AC       		.byte	0xac
 1766 08a9 00000000 		.4byte	.LFB119
 1767 08ad 5C000000 		.4byte	.LFE119-.LFB119
 1768 08b1 01       		.uleb128 0x1
 1769 08b2 9C       		.byte	0x9c
 1770 08b3 29090000 		.4byte	0x929
 1771 08b7 25       		.uleb128 0x25
 1772 08b8 6C656400 		.ascii	"led\000"
 1773 08bc 01       		.byte	0x1
 1774 08bd AC       		.byte	0xac
 1775 08be 2C000000 		.4byte	0x2c
 1776 08c2 90010000 		.4byte	.LLST8
 1777 08c6 26       		.uleb128 0x26
 1778 08c7 16050000 		.4byte	.LASF107
 1779 08cb 01       		.byte	0x1
 1780 08cc AC       		.byte	0xac
 1781 08cd DB000000 		.4byte	0xdb
 1782 08d1 B1010000 		.4byte	.LLST9
 1783 08d5 1E       		.uleb128 0x1e
 1784 08d6 06000000 		.4byte	.LBB17
 1785 08da 46000000 		.4byte	.LBE17-.LBB17
 1786 08de 19       		.uleb128 0x19
 1787 08df 62697400 		.ascii	"bit\000"
 1788 08e3 01       		.byte	0x1
 1789 08e4 B2       		.byte	0xb2
 1790 08e5 2C000000 		.4byte	0x2c
 1791 08e9 F8010000 		.4byte	.LLST10
 1792 08ed 27       		.uleb128 0x27
 1793 08ee 0F060000 		.4byte	0x60f
 1794 08f2 08000000 		.4byte	.LBB18
 1795 08f6 18000000 		.4byte	.Ldebug_ranges0+0x18
 1796 08fa 01       		.byte	0x1
 1797 08fb B0       		.byte	0xb0
 1798 08fc 1D       		.uleb128 0x1d
 1799 08fd 1F060000 		.4byte	0x61f
 1800 0901 0C020000 		.4byte	.LLST11
 1801 0905 28       		.uleb128 0x28
 1802 0906 18000000 		.4byte	.Ldebug_ranges0+0x18
 1803 090a 1F       		.uleb128 0x1f
 1804 090b 2A060000 		.4byte	0x62a
 1805 090f 48020000 		.4byte	.LLST12
 1806 0913 1F       		.uleb128 0x1f
 1807 0914 33060000 		.4byte	0x633
 1808 0918 BF020000 		.4byte	.LLST13
 1809 091c 1F       		.uleb128 0x1f
 1810 091d 3C060000 		.4byte	0x63c
 1811 0921 11030000 		.4byte	.LLST14
 1812 0925 00       		.byte	0
ARM GAS  /var/folders/bz/nn5481rn5xq59rb0mbj7x0880000gn/T//ccsuS3m6.s 			page 33


 1813 0926 00       		.byte	0
 1814 0927 00       		.byte	0
 1815 0928 00       		.byte	0
 1816 0929 29       		.uleb128 0x29
 1817 092a E2010000 		.4byte	.LASF130
 1818 092e 01       		.byte	0x1
 1819 092f BE       		.byte	0xbe
 1820 0930 DB000000 		.4byte	0xdb
 1821 0934 00000000 		.4byte	.LFB120
 1822 0938 14000000 		.4byte	.LFE120-.LFB120
 1823 093c 01       		.uleb128 0x1
 1824 093d 9C       		.byte	0x9c
 1825 093e 52090000 		.4byte	0x952
 1826 0942 25       		.uleb128 0x25
 1827 0943 6C656400 		.ascii	"led\000"
 1828 0947 01       		.byte	0x1
 1829 0948 BE       		.byte	0xbe
 1830 0949 2C000000 		.4byte	0x2c
 1831 094d 92030000 		.4byte	.LLST15
 1832 0951 00       		.byte	0
 1833 0952 17       		.uleb128 0x17
 1834 0953 20000000 		.4byte	.LASF108
 1835 0957 01       		.byte	0x1
 1836 0958 C6       		.byte	0xc6
 1837 0959 00000000 		.4byte	.LFB121
 1838 095d 2C000000 		.4byte	.LFE121-.LFB121
 1839 0961 01       		.uleb128 0x1
 1840 0962 9C       		.byte	0x9c
 1841 0963 75090000 		.4byte	0x975
 1842 0967 19       		.uleb128 0x19
 1843 0968 6900     		.ascii	"i\000"
 1844 096a 01       		.byte	0x1
 1845 096b C7       		.byte	0xc7
 1846 096c 2C000000 		.4byte	0x2c
 1847 0970 B3030000 		.4byte	.LLST16
 1848 0974 00       		.byte	0
 1849 0975 17       		.uleb128 0x17
 1850 0976 71030000 		.4byte	.LASF109
 1851 097a 01       		.byte	0x1
 1852 097b D2       		.byte	0xd2
 1853 097c 00000000 		.4byte	.LFB122
 1854 0980 5C000000 		.4byte	.LFE122-.LFB122
 1855 0984 01       		.uleb128 0x1
 1856 0985 9C       		.byte	0x9c
 1857 0986 CB090000 		.4byte	0x9cb
 1858 098a 2A       		.uleb128 0x2a
 1859 098b 16050000 		.4byte	.LASF107
 1860 098f 01       		.byte	0x1
 1861 0990 D2       		.byte	0xd2
 1862 0991 DB000000 		.4byte	0xdb
 1863 0995 01       		.uleb128 0x1
 1864 0996 50       		.byte	0x50
 1865 0997 19       		.uleb128 0x19
 1866 0998 6900     		.ascii	"i\000"
 1867 099a 01       		.byte	0x1
 1868 099b D3       		.byte	0xd3
 1869 099c 2C000000 		.4byte	0x2c
ARM GAS  /var/folders/bz/nn5481rn5xq59rb0mbj7x0880000gn/T//ccsuS3m6.s 			page 34


 1870 09a0 C7030000 		.4byte	.LLST17
 1871 09a4 19       		.uleb128 0x19
 1872 09a5 62697400 		.ascii	"bit\000"
 1873 09a9 01       		.byte	0x1
 1874 09aa D3       		.byte	0xd3
 1875 09ab 2C000000 		.4byte	0x2c
 1876 09af DB030000 		.4byte	.LLST18
 1877 09b3 1E       		.uleb128 0x1e
 1878 09b4 24000000 		.4byte	.LBB24
 1879 09b8 24000000 		.4byte	.LBE24-.LBB24
 1880 09bc 18       		.uleb128 0x18
 1881 09bd 0A070000 		.4byte	.LASF104
 1882 09c1 01       		.byte	0x1
 1883 09c2 D8       		.byte	0xd8
 1884 09c3 DB000000 		.4byte	0xdb
 1885 09c7 01       		.uleb128 0x1
 1886 09c8 52       		.byte	0x52
 1887 09c9 00       		.byte	0
 1888 09ca 00       		.byte	0
 1889 09cb 06       		.uleb128 0x6
 1890 09cc C5000000 		.4byte	0xc5
 1891 09d0 DC090000 		.4byte	0x9dc
 1892 09d4 2B       		.uleb128 0x2b
 1893 09d5 9E000000 		.4byte	0x9e
 1894 09d9 9901     		.2byte	0x199
 1895 09db 00       		.byte	0
 1896 09dc 18       		.uleb128 0x18
 1897 09dd 9D010000 		.4byte	.LASF110
 1898 09e1 01       		.byte	0x1
 1899 09e2 28       		.byte	0x28
 1900 09e3 CB090000 		.4byte	0x9cb
 1901 09e7 05       		.uleb128 0x5
 1902 09e8 03       		.byte	0x3
 1903 09e9 00000000 		.4byte	bitbuffer
 1904 09ed 18       		.uleb128 0x18
 1905 09ee C3010000 		.4byte	.LASF111
 1906 09f2 01       		.byte	0x1
 1907 09f3 29       		.byte	0x29
 1908 09f4 F7000000 		.4byte	0xf7
 1909 09f8 05       		.uleb128 0x5
 1910 09f9 03       		.byte	0x3
 1911 09fa 00000000 		.4byte	RGBdata
 1912 09fe 18       		.uleb128 0x18
 1913 09ff ED030000 		.4byte	.LASF112
 1914 0a03 01       		.byte	0x1
 1915 0a04 2A       		.byte	0x2a
 1916 0a05 FF050000 		.4byte	0x5ff
 1917 0a09 05       		.uleb128 0x5
 1918 0a0a 03       		.byte	0x3
 1919 0a0b 00000000 		.4byte	gamma_table
 1920 0a0f 2C       		.uleb128 0x2c
 1921 0a10 DD000000 		.4byte	.LASF131
 1922 0a14 0A       		.byte	0xa
 1923 0a15 9806     		.2byte	0x698
 1924 0a17 07010000 		.4byte	0x107
 1925 0a1b 2D       		.uleb128 0x2d
 1926 0a1c 4E070000 		.4byte	.LASF113
ARM GAS  /var/folders/bz/nn5481rn5xq59rb0mbj7x0880000gn/T//ccsuS3m6.s 			page 35


 1927 0a20 08       		.byte	0x8
 1928 0a21 5301     		.2byte	0x153
 1929 0a23 25000000 		.4byte	0x25
 1930 0a27 360A0000 		.4byte	0xa36
 1931 0a2b 2E       		.uleb128 0x2e
 1932 0a2c 25000000 		.4byte	0x25
 1933 0a30 2E       		.uleb128 0x2e
 1934 0a31 25000000 		.4byte	0x25
 1935 0a35 00       		.byte	0
 1936 0a36 2D       		.uleb128 0x2d
 1937 0a37 D4010000 		.4byte	.LASF114
 1938 0a3b 08       		.byte	0x8
 1939 0a3c 6001     		.2byte	0x160
 1940 0a3e 25000000 		.4byte	0x25
 1941 0a42 4C0A0000 		.4byte	0xa4c
 1942 0a46 2E       		.uleb128 0x2e
 1943 0a47 25000000 		.4byte	0x25
 1944 0a4b 00       		.byte	0
 1945 0a4c 2F       		.uleb128 0x2f
 1946 0a4d B3060000 		.4byte	.LASF115
 1947 0a51 07       		.byte	0x7
 1948 0a52 C201     		.2byte	0x1c2
 1949 0a54 680A0000 		.4byte	0xa68
 1950 0a58 2E       		.uleb128 0x2e
 1951 0a59 EE050000 		.4byte	0x5ee
 1952 0a5d 2E       		.uleb128 0x2e
 1953 0a5e D8050000 		.4byte	0x5d8
 1954 0a62 2E       		.uleb128 0x2e
 1955 0a63 E3050000 		.4byte	0x5e3
 1956 0a67 00       		.byte	0
 1957 0a68 2F       		.uleb128 0x2f
 1958 0a69 B5040000 		.4byte	.LASF116
 1959 0a6d 09       		.byte	0x9
 1960 0a6e DD01     		.2byte	0x1dd
 1961 0a70 7F0A0000 		.4byte	0xa7f
 1962 0a74 2E       		.uleb128 0x2e
 1963 0a75 DB000000 		.4byte	0xdb
 1964 0a79 2E       		.uleb128 0x2e
 1965 0a7a 22010000 		.4byte	0x122
 1966 0a7e 00       		.byte	0
 1967 0a7f 2F       		.uleb128 0x2f
 1968 0a80 D2000000 		.4byte	.LASF117
 1969 0a84 05       		.byte	0x5
 1970 0a85 3202     		.2byte	0x232
 1971 0a87 910A0000 		.4byte	0xa91
 1972 0a8b 2E       		.uleb128 0x2e
 1973 0a8c 05050000 		.4byte	0x505
 1974 0a90 00       		.byte	0
 1975 0a91 2F       		.uleb128 0x2f
 1976 0a92 AC040000 		.4byte	.LASF118
 1977 0a96 05       		.byte	0x5
 1978 0a97 3502     		.2byte	0x235
 1979 0a99 A80A0000 		.4byte	0xaa8
 1980 0a9d 2E       		.uleb128 0x2e
 1981 0a9e 05050000 		.4byte	0x505
 1982 0aa2 2E       		.uleb128 0x2e
 1983 0aa3 A80A0000 		.4byte	0xaa8
ARM GAS  /var/folders/bz/nn5481rn5xq59rb0mbj7x0880000gn/T//ccsuS3m6.s 			page 36


 1984 0aa7 00       		.byte	0
 1985 0aa8 10       		.uleb128 0x10
 1986 0aa9 04       		.byte	0x4
 1987 0aaa 36040000 		.4byte	0x436
 1988 0aae 2F       		.uleb128 0x2f
 1989 0aaf AC010000 		.4byte	.LASF119
 1990 0ab3 09       		.byte	0x9
 1991 0ab4 E001     		.2byte	0x1e0
 1992 0ab6 C50A0000 		.4byte	0xac5
 1993 0aba 2E       		.uleb128 0x2e
 1994 0abb DB000000 		.4byte	0xdb
 1995 0abf 2E       		.uleb128 0x2e
 1996 0ac0 22010000 		.4byte	0x122
 1997 0ac4 00       		.byte	0
 1998 0ac5 2F       		.uleb128 0x2f
 1999 0ac6 CC040000 		.4byte	.LASF120
 2000 0aca 06       		.byte	0x6
 2001 0acb 0304     		.2byte	0x403
 2002 0acd DC0A0000 		.4byte	0xadc
 2003 0ad1 2E       		.uleb128 0x2e
 2004 0ad2 DC0A0000 		.4byte	0xadc
 2005 0ad6 2E       		.uleb128 0x2e
 2006 0ad7 E20A0000 		.4byte	0xae2
 2007 0adb 00       		.byte	0
 2008 0adc 10       		.uleb128 0x10
 2009 0add 04       		.byte	0x4
 2010 0ade 6D030000 		.4byte	0x36d
 2011 0ae2 10       		.uleb128 0x10
 2012 0ae3 04       		.byte	0x4
 2013 0ae4 86040000 		.4byte	0x486
 2014 0ae8 2F       		.uleb128 0x2f
 2015 0ae9 50050000 		.4byte	.LASF121
 2016 0aed 06       		.byte	0x6
 2017 0aee 1404     		.2byte	0x414
 2018 0af0 FF0A0000 		.4byte	0xaff
 2019 0af4 2E       		.uleb128 0x2e
 2020 0af5 DC0A0000 		.4byte	0xadc
 2021 0af9 2E       		.uleb128 0x2e
 2022 0afa FF0A0000 		.4byte	0xaff
 2023 0afe 00       		.byte	0
 2024 0aff 10       		.uleb128 0x10
 2025 0b00 04       		.byte	0x4
 2026 0b01 FA040000 		.4byte	0x4fa
 2027 0b05 2F       		.uleb128 0x2f
 2028 0b06 1D030000 		.4byte	.LASF122
 2029 0b0a 06       		.byte	0x6
 2030 0b0b 2204     		.2byte	0x422
 2031 0b0d 1C0B0000 		.4byte	0xb1c
 2032 0b11 2E       		.uleb128 0x2e
 2033 0b12 DC0A0000 		.4byte	0xadc
 2034 0b16 2E       		.uleb128 0x2e
 2035 0b17 C5000000 		.4byte	0xc5
 2036 0b1b 00       		.byte	0
 2037 0b1c 2F       		.uleb128 0x2f
 2038 0b1d 26050000 		.4byte	.LASF123
 2039 0b21 06       		.byte	0x6
 2040 0b22 1004     		.2byte	0x410
ARM GAS  /var/folders/bz/nn5481rn5xq59rb0mbj7x0880000gn/T//ccsuS3m6.s 			page 37


 2041 0b24 330B0000 		.4byte	0xb33
 2042 0b28 2E       		.uleb128 0x2e
 2043 0b29 DC0A0000 		.4byte	0xadc
 2044 0b2d 2E       		.uleb128 0x2e
 2045 0b2e 22010000 		.4byte	0x122
 2046 0b32 00       		.byte	0
 2047 0b33 2F       		.uleb128 0x2f
 2048 0b34 44030000 		.4byte	.LASF124
 2049 0b38 05       		.byte	0x5
 2050 0b39 3702     		.2byte	0x237
 2051 0b3b 4A0B0000 		.4byte	0xb4a
 2052 0b3f 2E       		.uleb128 0x2e
 2053 0b40 05050000 		.4byte	0x505
 2054 0b44 2E       		.uleb128 0x2e
 2055 0b45 22010000 		.4byte	0x122
 2056 0b49 00       		.byte	0
 2057 0b4a 2F       		.uleb128 0x2f
 2058 0b4b 0B000000 		.4byte	.LASF125
 2059 0b4f 06       		.byte	0x6
 2060 0b50 5304     		.2byte	0x453
 2061 0b52 660B0000 		.4byte	0xb66
 2062 0b56 2E       		.uleb128 0x2e
 2063 0b57 DC0A0000 		.4byte	0xadc
 2064 0b5b 2E       		.uleb128 0x2e
 2065 0b5c C5000000 		.4byte	0xc5
 2066 0b60 2E       		.uleb128 0x2e
 2067 0b61 22010000 		.4byte	0x122
 2068 0b65 00       		.byte	0
 2069 0b66 30       		.uleb128 0x30
 2070 0b67 83040000 		.4byte	.LASF132
 2071 0b6b 06       		.byte	0x6
 2072 0b6c 4704     		.2byte	0x447
 2073 0b6e 2E       		.uleb128 0x2e
 2074 0b6f DC0A0000 		.4byte	0xadc
 2075 0b73 2E       		.uleb128 0x2e
 2076 0b74 22010000 		.4byte	0x122
 2077 0b78 00       		.byte	0
 2078 0b79 00       		.byte	0
 2079              		.section	.debug_abbrev,"",%progbits
 2080              	.Ldebug_abbrev0:
 2081 0000 01       		.uleb128 0x1
 2082 0001 11       		.uleb128 0x11
 2083 0002 01       		.byte	0x1
 2084 0003 25       		.uleb128 0x25
 2085 0004 0E       		.uleb128 0xe
 2086 0005 13       		.uleb128 0x13
 2087 0006 0B       		.uleb128 0xb
 2088 0007 03       		.uleb128 0x3
 2089 0008 0E       		.uleb128 0xe
 2090 0009 1B       		.uleb128 0x1b
 2091 000a 0E       		.uleb128 0xe
 2092 000b 55       		.uleb128 0x55
 2093 000c 17       		.uleb128 0x17
 2094 000d 11       		.uleb128 0x11
 2095 000e 01       		.uleb128 0x1
 2096 000f 10       		.uleb128 0x10
 2097 0010 17       		.uleb128 0x17
ARM GAS  /var/folders/bz/nn5481rn5xq59rb0mbj7x0880000gn/T//ccsuS3m6.s 			page 38


 2098 0011 00       		.byte	0
 2099 0012 00       		.byte	0
 2100 0013 02       		.uleb128 0x2
 2101 0014 24       		.uleb128 0x24
 2102 0015 00       		.byte	0
 2103 0016 0B       		.uleb128 0xb
 2104 0017 0B       		.uleb128 0xb
 2105 0018 3E       		.uleb128 0x3e
 2106 0019 0B       		.uleb128 0xb
 2107 001a 03       		.uleb128 0x3
 2108 001b 0E       		.uleb128 0xe
 2109 001c 00       		.byte	0
 2110 001d 00       		.byte	0
 2111 001e 03       		.uleb128 0x3
 2112 001f 24       		.uleb128 0x24
 2113 0020 00       		.byte	0
 2114 0021 0B       		.uleb128 0xb
 2115 0022 0B       		.uleb128 0xb
 2116 0023 3E       		.uleb128 0x3e
 2117 0024 0B       		.uleb128 0xb
 2118 0025 03       		.uleb128 0x3
 2119 0026 08       		.uleb128 0x8
 2120 0027 00       		.byte	0
 2121 0028 00       		.byte	0
 2122 0029 04       		.uleb128 0x4
 2123 002a 16       		.uleb128 0x16
 2124 002b 00       		.byte	0
 2125 002c 03       		.uleb128 0x3
 2126 002d 0E       		.uleb128 0xe
 2127 002e 3A       		.uleb128 0x3a
 2128 002f 0B       		.uleb128 0xb
 2129 0030 3B       		.uleb128 0x3b
 2130 0031 0B       		.uleb128 0xb
 2131 0032 49       		.uleb128 0x49
 2132 0033 13       		.uleb128 0x13
 2133 0034 00       		.byte	0
 2134 0035 00       		.byte	0
 2135 0036 05       		.uleb128 0x5
 2136 0037 35       		.uleb128 0x35
 2137 0038 00       		.byte	0
 2138 0039 49       		.uleb128 0x49
 2139 003a 13       		.uleb128 0x13
 2140 003b 00       		.byte	0
 2141 003c 00       		.byte	0
 2142 003d 06       		.uleb128 0x6
 2143 003e 01       		.uleb128 0x1
 2144 003f 01       		.byte	0x1
 2145 0040 49       		.uleb128 0x49
 2146 0041 13       		.uleb128 0x13
 2147 0042 01       		.uleb128 0x1
 2148 0043 13       		.uleb128 0x13
 2149 0044 00       		.byte	0
 2150 0045 00       		.byte	0
 2151 0046 07       		.uleb128 0x7
 2152 0047 21       		.uleb128 0x21
 2153 0048 00       		.byte	0
 2154 0049 49       		.uleb128 0x49
ARM GAS  /var/folders/bz/nn5481rn5xq59rb0mbj7x0880000gn/T//ccsuS3m6.s 			page 39


 2155 004a 13       		.uleb128 0x13
 2156 004b 2F       		.uleb128 0x2f
 2157 004c 0B       		.uleb128 0xb
 2158 004d 00       		.byte	0
 2159 004e 00       		.byte	0
 2160 004f 08       		.uleb128 0x8
 2161 0050 04       		.uleb128 0x4
 2162 0051 01       		.byte	0x1
 2163 0052 0B       		.uleb128 0xb
 2164 0053 0B       		.uleb128 0xb
 2165 0054 3A       		.uleb128 0x3a
 2166 0055 0B       		.uleb128 0xb
 2167 0056 3B       		.uleb128 0x3b
 2168 0057 05       		.uleb128 0x5
 2169 0058 01       		.uleb128 0x1
 2170 0059 13       		.uleb128 0x13
 2171 005a 00       		.byte	0
 2172 005b 00       		.byte	0
 2173 005c 09       		.uleb128 0x9
 2174 005d 28       		.uleb128 0x28
 2175 005e 00       		.byte	0
 2176 005f 03       		.uleb128 0x3
 2177 0060 0E       		.uleb128 0xe
 2178 0061 1C       		.uleb128 0x1c
 2179 0062 0D       		.uleb128 0xd
 2180 0063 00       		.byte	0
 2181 0064 00       		.byte	0
 2182 0065 0A       		.uleb128 0xa
 2183 0066 16       		.uleb128 0x16
 2184 0067 00       		.byte	0
 2185 0068 03       		.uleb128 0x3
 2186 0069 0E       		.uleb128 0xe
 2187 006a 3A       		.uleb128 0x3a
 2188 006b 0B       		.uleb128 0xb
 2189 006c 3B       		.uleb128 0x3b
 2190 006d 05       		.uleb128 0x5
 2191 006e 49       		.uleb128 0x49
 2192 006f 13       		.uleb128 0x13
 2193 0070 00       		.byte	0
 2194 0071 00       		.byte	0
 2195 0072 0B       		.uleb128 0xb
 2196 0073 13       		.uleb128 0x13
 2197 0074 01       		.byte	0x1
 2198 0075 0B       		.uleb128 0xb
 2199 0076 0B       		.uleb128 0xb
 2200 0077 3A       		.uleb128 0x3a
 2201 0078 0B       		.uleb128 0xb
 2202 0079 3B       		.uleb128 0x3b
 2203 007a 05       		.uleb128 0x5
 2204 007b 01       		.uleb128 0x1
 2205 007c 13       		.uleb128 0x13
 2206 007d 00       		.byte	0
 2207 007e 00       		.byte	0
 2208 007f 0C       		.uleb128 0xc
 2209 0080 0D       		.uleb128 0xd
 2210 0081 00       		.byte	0
 2211 0082 03       		.uleb128 0x3
ARM GAS  /var/folders/bz/nn5481rn5xq59rb0mbj7x0880000gn/T//ccsuS3m6.s 			page 40


 2212 0083 08       		.uleb128 0x8
 2213 0084 3A       		.uleb128 0x3a
 2214 0085 0B       		.uleb128 0xb
 2215 0086 3B       		.uleb128 0x3b
 2216 0087 05       		.uleb128 0x5
 2217 0088 49       		.uleb128 0x49
 2218 0089 13       		.uleb128 0x13
 2219 008a 38       		.uleb128 0x38
 2220 008b 0B       		.uleb128 0xb
 2221 008c 00       		.byte	0
 2222 008d 00       		.byte	0
 2223 008e 0D       		.uleb128 0xd
 2224 008f 0D       		.uleb128 0xd
 2225 0090 00       		.byte	0
 2226 0091 03       		.uleb128 0x3
 2227 0092 0E       		.uleb128 0xe
 2228 0093 3A       		.uleb128 0x3a
 2229 0094 0B       		.uleb128 0xb
 2230 0095 3B       		.uleb128 0x3b
 2231 0096 05       		.uleb128 0x5
 2232 0097 49       		.uleb128 0x49
 2233 0098 13       		.uleb128 0x13
 2234 0099 38       		.uleb128 0x38
 2235 009a 0B       		.uleb128 0xb
 2236 009b 00       		.byte	0
 2237 009c 00       		.byte	0
 2238 009d 0E       		.uleb128 0xe
 2239 009e 13       		.uleb128 0x13
 2240 009f 01       		.byte	0x1
 2241 00a0 0B       		.uleb128 0xb
 2242 00a1 0B       		.uleb128 0xb
 2243 00a2 3A       		.uleb128 0x3a
 2244 00a3 0B       		.uleb128 0xb
 2245 00a4 3B       		.uleb128 0x3b
 2246 00a5 0B       		.uleb128 0xb
 2247 00a6 01       		.uleb128 0x1
 2248 00a7 13       		.uleb128 0x13
 2249 00a8 00       		.byte	0
 2250 00a9 00       		.byte	0
 2251 00aa 0F       		.uleb128 0xf
 2252 00ab 0D       		.uleb128 0xd
 2253 00ac 00       		.byte	0
 2254 00ad 03       		.uleb128 0x3
 2255 00ae 0E       		.uleb128 0xe
 2256 00af 3A       		.uleb128 0x3a
 2257 00b0 0B       		.uleb128 0xb
 2258 00b1 3B       		.uleb128 0x3b
 2259 00b2 0B       		.uleb128 0xb
 2260 00b3 49       		.uleb128 0x49
 2261 00b4 13       		.uleb128 0x13
 2262 00b5 38       		.uleb128 0x38
 2263 00b6 0B       		.uleb128 0xb
 2264 00b7 00       		.byte	0
 2265 00b8 00       		.byte	0
 2266 00b9 10       		.uleb128 0x10
 2267 00ba 0F       		.uleb128 0xf
 2268 00bb 00       		.byte	0
ARM GAS  /var/folders/bz/nn5481rn5xq59rb0mbj7x0880000gn/T//ccsuS3m6.s 			page 41


 2269 00bc 0B       		.uleb128 0xb
 2270 00bd 0B       		.uleb128 0xb
 2271 00be 49       		.uleb128 0x49
 2272 00bf 13       		.uleb128 0x13
 2273 00c0 00       		.byte	0
 2274 00c1 00       		.byte	0
 2275 00c2 11       		.uleb128 0x11
 2276 00c3 0D       		.uleb128 0xd
 2277 00c4 00       		.byte	0
 2278 00c5 03       		.uleb128 0x3
 2279 00c6 08       		.uleb128 0x8
 2280 00c7 3A       		.uleb128 0x3a
 2281 00c8 0B       		.uleb128 0xb
 2282 00c9 3B       		.uleb128 0x3b
 2283 00ca 0B       		.uleb128 0xb
 2284 00cb 49       		.uleb128 0x49
 2285 00cc 13       		.uleb128 0x13
 2286 00cd 38       		.uleb128 0x38
 2287 00ce 0B       		.uleb128 0xb
 2288 00cf 00       		.byte	0
 2289 00d0 00       		.byte	0
 2290 00d1 12       		.uleb128 0x12
 2291 00d2 17       		.uleb128 0x17
 2292 00d3 01       		.byte	0x1
 2293 00d4 0B       		.uleb128 0xb
 2294 00d5 0B       		.uleb128 0xb
 2295 00d6 3A       		.uleb128 0x3a
 2296 00d7 0B       		.uleb128 0xb
 2297 00d8 3B       		.uleb128 0x3b
 2298 00d9 0B       		.uleb128 0xb
 2299 00da 01       		.uleb128 0x1
 2300 00db 13       		.uleb128 0x13
 2301 00dc 00       		.byte	0
 2302 00dd 00       		.byte	0
 2303 00de 13       		.uleb128 0x13
 2304 00df 0D       		.uleb128 0xd
 2305 00e0 00       		.byte	0
 2306 00e1 03       		.uleb128 0x3
 2307 00e2 08       		.uleb128 0x8
 2308 00e3 3A       		.uleb128 0x3a
 2309 00e4 0B       		.uleb128 0xb
 2310 00e5 3B       		.uleb128 0x3b
 2311 00e6 0B       		.uleb128 0xb
 2312 00e7 49       		.uleb128 0x49
 2313 00e8 13       		.uleb128 0x13
 2314 00e9 00       		.byte	0
 2315 00ea 00       		.byte	0
 2316 00eb 14       		.uleb128 0x14
 2317 00ec 2E       		.uleb128 0x2e
 2318 00ed 01       		.byte	0x1
 2319 00ee 03       		.uleb128 0x3
 2320 00ef 0E       		.uleb128 0xe
 2321 00f0 3A       		.uleb128 0x3a
 2322 00f1 0B       		.uleb128 0xb
 2323 00f2 3B       		.uleb128 0x3b
 2324 00f3 0B       		.uleb128 0xb
 2325 00f4 27       		.uleb128 0x27
ARM GAS  /var/folders/bz/nn5481rn5xq59rb0mbj7x0880000gn/T//ccsuS3m6.s 			page 42


 2326 00f5 19       		.uleb128 0x19
 2327 00f6 49       		.uleb128 0x49
 2328 00f7 13       		.uleb128 0x13
 2329 00f8 20       		.uleb128 0x20
 2330 00f9 0B       		.uleb128 0xb
 2331 00fa 01       		.uleb128 0x1
 2332 00fb 13       		.uleb128 0x13
 2333 00fc 00       		.byte	0
 2334 00fd 00       		.byte	0
 2335 00fe 15       		.uleb128 0x15
 2336 00ff 05       		.uleb128 0x5
 2337 0100 00       		.byte	0
 2338 0101 03       		.uleb128 0x3
 2339 0102 0E       		.uleb128 0xe
 2340 0103 3A       		.uleb128 0x3a
 2341 0104 0B       		.uleb128 0xb
 2342 0105 3B       		.uleb128 0x3b
 2343 0106 0B       		.uleb128 0xb
 2344 0107 49       		.uleb128 0x49
 2345 0108 13       		.uleb128 0x13
 2346 0109 00       		.byte	0
 2347 010a 00       		.byte	0
 2348 010b 16       		.uleb128 0x16
 2349 010c 34       		.uleb128 0x34
 2350 010d 00       		.byte	0
 2351 010e 03       		.uleb128 0x3
 2352 010f 08       		.uleb128 0x8
 2353 0110 3A       		.uleb128 0x3a
 2354 0111 0B       		.uleb128 0xb
 2355 0112 3B       		.uleb128 0x3b
 2356 0113 0B       		.uleb128 0xb
 2357 0114 49       		.uleb128 0x49
 2358 0115 13       		.uleb128 0x13
 2359 0116 00       		.byte	0
 2360 0117 00       		.byte	0
 2361 0118 17       		.uleb128 0x17
 2362 0119 2E       		.uleb128 0x2e
 2363 011a 01       		.byte	0x1
 2364 011b 3F       		.uleb128 0x3f
 2365 011c 19       		.uleb128 0x19
 2366 011d 03       		.uleb128 0x3
 2367 011e 0E       		.uleb128 0xe
 2368 011f 3A       		.uleb128 0x3a
 2369 0120 0B       		.uleb128 0xb
 2370 0121 3B       		.uleb128 0x3b
 2371 0122 0B       		.uleb128 0xb
 2372 0123 27       		.uleb128 0x27
 2373 0124 19       		.uleb128 0x19
 2374 0125 11       		.uleb128 0x11
 2375 0126 01       		.uleb128 0x1
 2376 0127 12       		.uleb128 0x12
 2377 0128 06       		.uleb128 0x6
 2378 0129 40       		.uleb128 0x40
 2379 012a 18       		.uleb128 0x18
 2380 012b 9742     		.uleb128 0x2117
 2381 012d 19       		.uleb128 0x19
 2382 012e 01       		.uleb128 0x1
ARM GAS  /var/folders/bz/nn5481rn5xq59rb0mbj7x0880000gn/T//ccsuS3m6.s 			page 43


 2383 012f 13       		.uleb128 0x13
 2384 0130 00       		.byte	0
 2385 0131 00       		.byte	0
 2386 0132 18       		.uleb128 0x18
 2387 0133 34       		.uleb128 0x34
 2388 0134 00       		.byte	0
 2389 0135 03       		.uleb128 0x3
 2390 0136 0E       		.uleb128 0xe
 2391 0137 3A       		.uleb128 0x3a
 2392 0138 0B       		.uleb128 0xb
 2393 0139 3B       		.uleb128 0x3b
 2394 013a 0B       		.uleb128 0xb
 2395 013b 49       		.uleb128 0x49
 2396 013c 13       		.uleb128 0x13
 2397 013d 02       		.uleb128 0x2
 2398 013e 18       		.uleb128 0x18
 2399 013f 00       		.byte	0
 2400 0140 00       		.byte	0
 2401 0141 19       		.uleb128 0x19
 2402 0142 34       		.uleb128 0x34
 2403 0143 00       		.byte	0
 2404 0144 03       		.uleb128 0x3
 2405 0145 08       		.uleb128 0x8
 2406 0146 3A       		.uleb128 0x3a
 2407 0147 0B       		.uleb128 0xb
 2408 0148 3B       		.uleb128 0x3b
 2409 0149 0B       		.uleb128 0xb
 2410 014a 49       		.uleb128 0x49
 2411 014b 13       		.uleb128 0x13
 2412 014c 02       		.uleb128 0x2
 2413 014d 17       		.uleb128 0x17
 2414 014e 00       		.byte	0
 2415 014f 00       		.byte	0
 2416 0150 1A       		.uleb128 0x1a
 2417 0151 0B       		.uleb128 0xb
 2418 0152 01       		.byte	0x1
 2419 0153 11       		.uleb128 0x11
 2420 0154 01       		.uleb128 0x1
 2421 0155 12       		.uleb128 0x12
 2422 0156 06       		.uleb128 0x6
 2423 0157 01       		.uleb128 0x1
 2424 0158 13       		.uleb128 0x13
 2425 0159 00       		.byte	0
 2426 015a 00       		.byte	0
 2427 015b 1B       		.uleb128 0x1b
 2428 015c 34       		.uleb128 0x34
 2429 015d 00       		.byte	0
 2430 015e 03       		.uleb128 0x3
 2431 015f 0E       		.uleb128 0xe
 2432 0160 3A       		.uleb128 0x3a
 2433 0161 0B       		.uleb128 0xb
 2434 0162 3B       		.uleb128 0x3b
 2435 0163 0B       		.uleb128 0xb
 2436 0164 49       		.uleb128 0x49
 2437 0165 13       		.uleb128 0x13
 2438 0166 02       		.uleb128 0x2
 2439 0167 17       		.uleb128 0x17
ARM GAS  /var/folders/bz/nn5481rn5xq59rb0mbj7x0880000gn/T//ccsuS3m6.s 			page 44


 2440 0168 00       		.byte	0
 2441 0169 00       		.byte	0
 2442 016a 1C       		.uleb128 0x1c
 2443 016b 1D       		.uleb128 0x1d
 2444 016c 01       		.byte	0x1
 2445 016d 31       		.uleb128 0x31
 2446 016e 13       		.uleb128 0x13
 2447 016f 11       		.uleb128 0x11
 2448 0170 01       		.uleb128 0x1
 2449 0171 12       		.uleb128 0x12
 2450 0172 06       		.uleb128 0x6
 2451 0173 58       		.uleb128 0x58
 2452 0174 0B       		.uleb128 0xb
 2453 0175 59       		.uleb128 0x59
 2454 0176 0B       		.uleb128 0xb
 2455 0177 00       		.byte	0
 2456 0178 00       		.byte	0
 2457 0179 1D       		.uleb128 0x1d
 2458 017a 05       		.uleb128 0x5
 2459 017b 00       		.byte	0
 2460 017c 31       		.uleb128 0x31
 2461 017d 13       		.uleb128 0x13
 2462 017e 02       		.uleb128 0x2
 2463 017f 17       		.uleb128 0x17
 2464 0180 00       		.byte	0
 2465 0181 00       		.byte	0
 2466 0182 1E       		.uleb128 0x1e
 2467 0183 0B       		.uleb128 0xb
 2468 0184 01       		.byte	0x1
 2469 0185 11       		.uleb128 0x11
 2470 0186 01       		.uleb128 0x1
 2471 0187 12       		.uleb128 0x12
 2472 0188 06       		.uleb128 0x6
 2473 0189 00       		.byte	0
 2474 018a 00       		.byte	0
 2475 018b 1F       		.uleb128 0x1f
 2476 018c 34       		.uleb128 0x34
 2477 018d 00       		.byte	0
 2478 018e 31       		.uleb128 0x31
 2479 018f 13       		.uleb128 0x13
 2480 0190 02       		.uleb128 0x2
 2481 0191 17       		.uleb128 0x17
 2482 0192 00       		.byte	0
 2483 0193 00       		.byte	0
 2484 0194 20       		.uleb128 0x20
 2485 0195 0B       		.uleb128 0xb
 2486 0196 01       		.byte	0x1
 2487 0197 55       		.uleb128 0x55
 2488 0198 17       		.uleb128 0x17
 2489 0199 01       		.uleb128 0x1
 2490 019a 13       		.uleb128 0x13
 2491 019b 00       		.byte	0
 2492 019c 00       		.byte	0
 2493 019d 21       		.uleb128 0x21
 2494 019e 898201   		.uleb128 0x4109
 2495 01a1 01       		.byte	0x1
 2496 01a2 11       		.uleb128 0x11
ARM GAS  /var/folders/bz/nn5481rn5xq59rb0mbj7x0880000gn/T//ccsuS3m6.s 			page 45


 2497 01a3 01       		.uleb128 0x1
 2498 01a4 31       		.uleb128 0x31
 2499 01a5 13       		.uleb128 0x13
 2500 01a6 01       		.uleb128 0x1
 2501 01a7 13       		.uleb128 0x13
 2502 01a8 00       		.byte	0
 2503 01a9 00       		.byte	0
 2504 01aa 22       		.uleb128 0x22
 2505 01ab 8A8201   		.uleb128 0x410a
 2506 01ae 00       		.byte	0
 2507 01af 02       		.uleb128 0x2
 2508 01b0 18       		.uleb128 0x18
 2509 01b1 9142     		.uleb128 0x2111
 2510 01b3 18       		.uleb128 0x18
 2511 01b4 00       		.byte	0
 2512 01b5 00       		.byte	0
 2513 01b6 23       		.uleb128 0x23
 2514 01b7 898201   		.uleb128 0x4109
 2515 01ba 00       		.byte	0
 2516 01bb 11       		.uleb128 0x11
 2517 01bc 01       		.uleb128 0x1
 2518 01bd 31       		.uleb128 0x31
 2519 01be 13       		.uleb128 0x13
 2520 01bf 00       		.byte	0
 2521 01c0 00       		.byte	0
 2522 01c1 24       		.uleb128 0x24
 2523 01c2 898201   		.uleb128 0x4109
 2524 01c5 01       		.byte	0x1
 2525 01c6 11       		.uleb128 0x11
 2526 01c7 01       		.uleb128 0x1
 2527 01c8 31       		.uleb128 0x31
 2528 01c9 13       		.uleb128 0x13
 2529 01ca 00       		.byte	0
 2530 01cb 00       		.byte	0
 2531 01cc 25       		.uleb128 0x25
 2532 01cd 05       		.uleb128 0x5
 2533 01ce 00       		.byte	0
 2534 01cf 03       		.uleb128 0x3
 2535 01d0 08       		.uleb128 0x8
 2536 01d1 3A       		.uleb128 0x3a
 2537 01d2 0B       		.uleb128 0xb
 2538 01d3 3B       		.uleb128 0x3b
 2539 01d4 0B       		.uleb128 0xb
 2540 01d5 49       		.uleb128 0x49
 2541 01d6 13       		.uleb128 0x13
 2542 01d7 02       		.uleb128 0x2
 2543 01d8 17       		.uleb128 0x17
 2544 01d9 00       		.byte	0
 2545 01da 00       		.byte	0
 2546 01db 26       		.uleb128 0x26
 2547 01dc 05       		.uleb128 0x5
 2548 01dd 00       		.byte	0
 2549 01de 03       		.uleb128 0x3
 2550 01df 0E       		.uleb128 0xe
 2551 01e0 3A       		.uleb128 0x3a
 2552 01e1 0B       		.uleb128 0xb
 2553 01e2 3B       		.uleb128 0x3b
ARM GAS  /var/folders/bz/nn5481rn5xq59rb0mbj7x0880000gn/T//ccsuS3m6.s 			page 46


 2554 01e3 0B       		.uleb128 0xb
 2555 01e4 49       		.uleb128 0x49
 2556 01e5 13       		.uleb128 0x13
 2557 01e6 02       		.uleb128 0x2
 2558 01e7 17       		.uleb128 0x17
 2559 01e8 00       		.byte	0
 2560 01e9 00       		.byte	0
 2561 01ea 27       		.uleb128 0x27
 2562 01eb 1D       		.uleb128 0x1d
 2563 01ec 01       		.byte	0x1
 2564 01ed 31       		.uleb128 0x31
 2565 01ee 13       		.uleb128 0x13
 2566 01ef 52       		.uleb128 0x52
 2567 01f0 01       		.uleb128 0x1
 2568 01f1 55       		.uleb128 0x55
 2569 01f2 17       		.uleb128 0x17
 2570 01f3 58       		.uleb128 0x58
 2571 01f4 0B       		.uleb128 0xb
 2572 01f5 59       		.uleb128 0x59
 2573 01f6 0B       		.uleb128 0xb
 2574 01f7 00       		.byte	0
 2575 01f8 00       		.byte	0
 2576 01f9 28       		.uleb128 0x28
 2577 01fa 0B       		.uleb128 0xb
 2578 01fb 01       		.byte	0x1
 2579 01fc 55       		.uleb128 0x55
 2580 01fd 17       		.uleb128 0x17
 2581 01fe 00       		.byte	0
 2582 01ff 00       		.byte	0
 2583 0200 29       		.uleb128 0x29
 2584 0201 2E       		.uleb128 0x2e
 2585 0202 01       		.byte	0x1
 2586 0203 3F       		.uleb128 0x3f
 2587 0204 19       		.uleb128 0x19
 2588 0205 03       		.uleb128 0x3
 2589 0206 0E       		.uleb128 0xe
 2590 0207 3A       		.uleb128 0x3a
 2591 0208 0B       		.uleb128 0xb
 2592 0209 3B       		.uleb128 0x3b
 2593 020a 0B       		.uleb128 0xb
 2594 020b 27       		.uleb128 0x27
 2595 020c 19       		.uleb128 0x19
 2596 020d 49       		.uleb128 0x49
 2597 020e 13       		.uleb128 0x13
 2598 020f 11       		.uleb128 0x11
 2599 0210 01       		.uleb128 0x1
 2600 0211 12       		.uleb128 0x12
 2601 0212 06       		.uleb128 0x6
 2602 0213 40       		.uleb128 0x40
 2603 0214 18       		.uleb128 0x18
 2604 0215 9742     		.uleb128 0x2117
 2605 0217 19       		.uleb128 0x19
 2606 0218 01       		.uleb128 0x1
 2607 0219 13       		.uleb128 0x13
 2608 021a 00       		.byte	0
 2609 021b 00       		.byte	0
 2610 021c 2A       		.uleb128 0x2a
ARM GAS  /var/folders/bz/nn5481rn5xq59rb0mbj7x0880000gn/T//ccsuS3m6.s 			page 47


 2611 021d 05       		.uleb128 0x5
 2612 021e 00       		.byte	0
 2613 021f 03       		.uleb128 0x3
 2614 0220 0E       		.uleb128 0xe
 2615 0221 3A       		.uleb128 0x3a
 2616 0222 0B       		.uleb128 0xb
 2617 0223 3B       		.uleb128 0x3b
 2618 0224 0B       		.uleb128 0xb
 2619 0225 49       		.uleb128 0x49
 2620 0226 13       		.uleb128 0x13
 2621 0227 02       		.uleb128 0x2
 2622 0228 18       		.uleb128 0x18
 2623 0229 00       		.byte	0
 2624 022a 00       		.byte	0
 2625 022b 2B       		.uleb128 0x2b
 2626 022c 21       		.uleb128 0x21
 2627 022d 00       		.byte	0
 2628 022e 49       		.uleb128 0x49
 2629 022f 13       		.uleb128 0x13
 2630 0230 2F       		.uleb128 0x2f
 2631 0231 05       		.uleb128 0x5
 2632 0232 00       		.byte	0
 2633 0233 00       		.byte	0
 2634 0234 2C       		.uleb128 0x2c
 2635 0235 34       		.uleb128 0x34
 2636 0236 00       		.byte	0
 2637 0237 03       		.uleb128 0x3
 2638 0238 0E       		.uleb128 0xe
 2639 0239 3A       		.uleb128 0x3a
 2640 023a 0B       		.uleb128 0xb
 2641 023b 3B       		.uleb128 0x3b
 2642 023c 05       		.uleb128 0x5
 2643 023d 49       		.uleb128 0x49
 2644 023e 13       		.uleb128 0x13
 2645 023f 3F       		.uleb128 0x3f
 2646 0240 19       		.uleb128 0x19
 2647 0241 3C       		.uleb128 0x3c
 2648 0242 19       		.uleb128 0x19
 2649 0243 00       		.byte	0
 2650 0244 00       		.byte	0
 2651 0245 2D       		.uleb128 0x2d
 2652 0246 2E       		.uleb128 0x2e
 2653 0247 01       		.byte	0x1
 2654 0248 3F       		.uleb128 0x3f
 2655 0249 19       		.uleb128 0x19
 2656 024a 03       		.uleb128 0x3
 2657 024b 0E       		.uleb128 0xe
 2658 024c 3A       		.uleb128 0x3a
 2659 024d 0B       		.uleb128 0xb
 2660 024e 3B       		.uleb128 0x3b
 2661 024f 05       		.uleb128 0x5
 2662 0250 27       		.uleb128 0x27
 2663 0251 19       		.uleb128 0x19
 2664 0252 49       		.uleb128 0x49
 2665 0253 13       		.uleb128 0x13
 2666 0254 3C       		.uleb128 0x3c
 2667 0255 19       		.uleb128 0x19
ARM GAS  /var/folders/bz/nn5481rn5xq59rb0mbj7x0880000gn/T//ccsuS3m6.s 			page 48


 2668 0256 01       		.uleb128 0x1
 2669 0257 13       		.uleb128 0x13
 2670 0258 00       		.byte	0
 2671 0259 00       		.byte	0
 2672 025a 2E       		.uleb128 0x2e
 2673 025b 05       		.uleb128 0x5
 2674 025c 00       		.byte	0
 2675 025d 49       		.uleb128 0x49
 2676 025e 13       		.uleb128 0x13
 2677 025f 00       		.byte	0
 2678 0260 00       		.byte	0
 2679 0261 2F       		.uleb128 0x2f
 2680 0262 2E       		.uleb128 0x2e
 2681 0263 01       		.byte	0x1
 2682 0264 3F       		.uleb128 0x3f
 2683 0265 19       		.uleb128 0x19
 2684 0266 03       		.uleb128 0x3
 2685 0267 0E       		.uleb128 0xe
 2686 0268 3A       		.uleb128 0x3a
 2687 0269 0B       		.uleb128 0xb
 2688 026a 3B       		.uleb128 0x3b
 2689 026b 05       		.uleb128 0x5
 2690 026c 27       		.uleb128 0x27
 2691 026d 19       		.uleb128 0x19
 2692 026e 3C       		.uleb128 0x3c
 2693 026f 19       		.uleb128 0x19
 2694 0270 01       		.uleb128 0x1
 2695 0271 13       		.uleb128 0x13
 2696 0272 00       		.byte	0
 2697 0273 00       		.byte	0
 2698 0274 30       		.uleb128 0x30
 2699 0275 2E       		.uleb128 0x2e
 2700 0276 01       		.byte	0x1
 2701 0277 3F       		.uleb128 0x3f
 2702 0278 19       		.uleb128 0x19
 2703 0279 03       		.uleb128 0x3
 2704 027a 0E       		.uleb128 0xe
 2705 027b 3A       		.uleb128 0x3a
 2706 027c 0B       		.uleb128 0xb
 2707 027d 3B       		.uleb128 0x3b
 2708 027e 05       		.uleb128 0x5
 2709 027f 27       		.uleb128 0x27
 2710 0280 19       		.uleb128 0x19
 2711 0281 3C       		.uleb128 0x3c
 2712 0282 19       		.uleb128 0x19
 2713 0283 00       		.byte	0
 2714 0284 00       		.byte	0
 2715 0285 00       		.byte	0
 2716              		.section	.debug_loc,"",%progbits
 2717              	.Ldebug_loc0:
 2718              	.LLST0:
 2719 0000 00000000 		.4byte	.LVL0
 2720 0004 14000000 		.4byte	.LVL1
 2721 0008 0200     		.2byte	0x2
 2722 000a 30       		.byte	0x30
 2723 000b 9F       		.byte	0x9f
 2724 000c 00000000 		.4byte	0
ARM GAS  /var/folders/bz/nn5481rn5xq59rb0mbj7x0880000gn/T//ccsuS3m6.s 			page 49


 2725 0010 00000000 		.4byte	0
 2726              	.LLST1:
 2727 0014 46000000 		.4byte	.LVL8
 2728 0018 4A000000 		.4byte	.LVL9
 2729 001c 0200     		.2byte	0x2
 2730 001e 30       		.byte	0x30
 2731 001f 9F       		.byte	0x9f
 2732 0020 00000000 		.4byte	0
 2733 0024 00000000 		.4byte	0
 2734              	.LLST2:
 2735 0028 46000000 		.4byte	.LVL8
 2736 002c 6C000000 		.4byte	.LVL11
 2737 0030 0100     		.2byte	0x1
 2738 0032 52       		.byte	0x52
 2739 0033 00000000 		.4byte	0
 2740 0037 00000000 		.4byte	0
 2741              	.LLST3:
 2742 003b 2C000000 		.4byte	.LVL2
 2743 003f 3C000000 		.4byte	.LVL5
 2744 0043 0100     		.2byte	0x1
 2745 0045 53       		.byte	0x53
 2746 0046 3C000000 		.4byte	.LVL5
 2747 004a 7C000000 		.4byte	.LVL13
 2748 004e 0200     		.2byte	0x2
 2749 0050 76       		.byte	0x76
 2750 0051 00       		.sleb128 0
 2751 0052 00000000 		.4byte	0
 2752 0056 00000000 		.4byte	0
 2753              	.LLST4:
 2754 005a 2C000000 		.4byte	.LVL2
 2755 005e 36000000 		.4byte	.LVL3
 2756 0062 0800     		.2byte	0x8
 2757 0064 73       		.byte	0x73
 2758 0065 00       		.sleb128 0
 2759 0066 40       		.byte	0x40
 2760 0067 25       		.byte	0x25
 2761 0068 08       		.byte	0x8
 2762 0069 FF       		.byte	0xff
 2763 006a 1A       		.byte	0x1a
 2764 006b 9F       		.byte	0x9f
 2765 006c 36000000 		.4byte	.LVL3
 2766 0070 3E000000 		.4byte	.LVL6
 2767 0074 0600     		.2byte	0x6
 2768 0076 72       		.byte	0x72
 2769 0077 00       		.sleb128 0
 2770 0078 08       		.byte	0x8
 2771 0079 FF       		.byte	0xff
 2772 007a 1A       		.byte	0x1a
 2773 007b 9F       		.byte	0x9f
 2774 007c 3E000000 		.4byte	.LVL6
 2775 0080 76000000 		.4byte	.LVL12
 2776 0084 1200     		.2byte	0x12
 2777 0086 76       		.byte	0x76
 2778 0087 00       		.sleb128 0
 2779 0088 06       		.byte	0x6
 2780 0089 09       		.byte	0x9
 2781 008a EC       		.byte	0xec
ARM GAS  /var/folders/bz/nn5481rn5xq59rb0mbj7x0880000gn/T//ccsuS3m6.s 			page 50


 2782 008b 24       		.byte	0x24
 2783 008c 09       		.byte	0x9
 2784 008d FC       		.byte	0xfc
 2785 008e 25       		.byte	0x25
 2786 008f 75       		.byte	0x75
 2787 0090 00       		.sleb128 0
 2788 0091 22       		.byte	0x22
 2789 0092 94       		.byte	0x94
 2790 0093 01       		.byte	0x1
 2791 0094 08       		.byte	0x8
 2792 0095 FF       		.byte	0xff
 2793 0096 1A       		.byte	0x1a
 2794 0097 9F       		.byte	0x9f
 2795 0098 76000000 		.4byte	.LVL12
 2796 009c 7C000000 		.4byte	.LVL13
 2797 00a0 1500     		.2byte	0x15
 2798 00a2 76       		.byte	0x76
 2799 00a3 00       		.sleb128 0
 2800 00a4 06       		.byte	0x6
 2801 00a5 09       		.byte	0x9
 2802 00a6 EC       		.byte	0xec
 2803 00a7 24       		.byte	0x24
 2804 00a8 09       		.byte	0x9
 2805 00a9 FC       		.byte	0xfc
 2806 00aa 25       		.byte	0x25
 2807 00ab 03       		.byte	0x3
 2808 00ac 00000000 		.4byte	.LANCHOR2
 2809 00b0 22       		.byte	0x22
 2810 00b1 94       		.byte	0x94
 2811 00b2 01       		.byte	0x1
 2812 00b3 08       		.byte	0x8
 2813 00b4 FF       		.byte	0xff
 2814 00b5 1A       		.byte	0x1a
 2815 00b6 9F       		.byte	0x9f
 2816 00b7 00000000 		.4byte	0
 2817 00bb 00000000 		.4byte	0
 2818              	.LLST5:
 2819 00bf 2C000000 		.4byte	.LVL2
 2820 00c3 3A000000 		.4byte	.LVL4
 2821 00c7 0800     		.2byte	0x8
 2822 00c9 73       		.byte	0x73
 2823 00ca 00       		.sleb128 0
 2824 00cb 38       		.byte	0x38
 2825 00cc 25       		.byte	0x25
 2826 00cd 08       		.byte	0x8
 2827 00ce FF       		.byte	0xff
 2828 00cf 1A       		.byte	0x1a
 2829 00d0 9F       		.byte	0x9f
 2830 00d1 3A000000 		.4byte	.LVL4
 2831 00d5 7C000000 		.4byte	.LVL13
 2832 00d9 0600     		.2byte	0x6
 2833 00db 7E       		.byte	0x7e
 2834 00dc 00       		.sleb128 0
 2835 00dd 08       		.byte	0x8
 2836 00de FF       		.byte	0xff
 2837 00df 1A       		.byte	0x1a
 2838 00e0 9F       		.byte	0x9f
ARM GAS  /var/folders/bz/nn5481rn5xq59rb0mbj7x0880000gn/T//ccsuS3m6.s 			page 51


 2839 00e1 00000000 		.4byte	0
 2840 00e5 00000000 		.4byte	0
 2841              	.LLST6:
 2842 00e9 2C000000 		.4byte	.LVL2
 2843 00ed 3C000000 		.4byte	.LVL5
 2844 00f1 0600     		.2byte	0x6
 2845 00f3 73       		.byte	0x73
 2846 00f4 00       		.sleb128 0
 2847 00f5 08       		.byte	0x8
 2848 00f6 FF       		.byte	0xff
 2849 00f7 1A       		.byte	0x1a
 2850 00f8 9F       		.byte	0x9f
 2851 00f9 3C000000 		.4byte	.LVL5
 2852 00fd 40000000 		.4byte	.LVL7
 2853 0101 0700     		.2byte	0x7
 2854 0103 76       		.byte	0x76
 2855 0104 00       		.sleb128 0
 2856 0105 06       		.byte	0x6
 2857 0106 08       		.byte	0x8
 2858 0107 FF       		.byte	0xff
 2859 0108 1A       		.byte	0x1a
 2860 0109 9F       		.byte	0x9f
 2861 010a 40000000 		.4byte	.LVL7
 2862 010e 4A000000 		.4byte	.LVL9
 2863 0112 0600     		.2byte	0x6
 2864 0114 73       		.byte	0x73
 2865 0115 00       		.sleb128 0
 2866 0116 08       		.byte	0x8
 2867 0117 FF       		.byte	0xff
 2868 0118 1A       		.byte	0x1a
 2869 0119 9F       		.byte	0x9f
 2870 011a 4A000000 		.4byte	.LVL9
 2871 011e 76000000 		.4byte	.LVL12
 2872 0122 1000     		.2byte	0x10
 2873 0124 76       		.byte	0x76
 2874 0125 00       		.sleb128 0
 2875 0126 94       		.byte	0x94
 2876 0127 01       		.byte	0x1
 2877 0128 08       		.byte	0x8
 2878 0129 FF       		.byte	0xff
 2879 012a 1A       		.byte	0x1a
 2880 012b 75       		.byte	0x75
 2881 012c 00       		.sleb128 0
 2882 012d 22       		.byte	0x22
 2883 012e 94       		.byte	0x94
 2884 012f 01       		.byte	0x1
 2885 0130 08       		.byte	0x8
 2886 0131 FF       		.byte	0xff
 2887 0132 1A       		.byte	0x1a
 2888 0133 9F       		.byte	0x9f
 2889 0134 76000000 		.4byte	.LVL12
 2890 0138 7C000000 		.4byte	.LVL13
 2891 013c 1300     		.2byte	0x13
 2892 013e 76       		.byte	0x76
 2893 013f 00       		.sleb128 0
 2894 0140 94       		.byte	0x94
 2895 0141 01       		.byte	0x1
ARM GAS  /var/folders/bz/nn5481rn5xq59rb0mbj7x0880000gn/T//ccsuS3m6.s 			page 52


 2896 0142 08       		.byte	0x8
 2897 0143 FF       		.byte	0xff
 2898 0144 1A       		.byte	0x1a
 2899 0145 03       		.byte	0x3
 2900 0146 00000000 		.4byte	.LANCHOR2
 2901 014a 22       		.byte	0x22
 2902 014b 94       		.byte	0x94
 2903 014c 01       		.byte	0x1
 2904 014d 08       		.byte	0x8
 2905 014e FF       		.byte	0xff
 2906 014f 1A       		.byte	0x1a
 2907 0150 9F       		.byte	0x9f
 2908 0151 00000000 		.4byte	0
 2909 0155 00000000 		.4byte	0
 2910              	.LLST7:
 2911 0159 7C000000 		.4byte	.LVL13
 2912 015d 92000000 		.4byte	.LVL15
 2913 0161 0100     		.2byte	0x1
 2914 0163 54       		.byte	0x54
 2915 0164 92000000 		.4byte	.LVL15
 2916 0168 9A000000 		.4byte	.LVL16
 2917 016c 0300     		.2byte	0x3
 2918 016e 74       		.byte	0x74
 2919 016f 7F       		.sleb128 -1
 2920 0170 9F       		.byte	0x9f
 2921 0171 9A000000 		.4byte	.LVL16
 2922 0175 F8000000 		.4byte	.LVL20
 2923 0179 0100     		.2byte	0x1
 2924 017b 54       		.byte	0x54
 2925 017c F8000000 		.4byte	.LVL20
 2926 0180 1D010000 		.4byte	.LVL21-1
 2927 0184 0200     		.2byte	0x2
 2928 0186 91       		.byte	0x91
 2929 0187 40       		.sleb128 -64
 2930 0188 00000000 		.4byte	0
 2931 018c 00000000 		.4byte	0
 2932              	.LLST8:
 2933 0190 00000000 		.4byte	.LVL30
 2934 0194 22000000 		.4byte	.LVL35
 2935 0198 0100     		.2byte	0x1
 2936 019a 50       		.byte	0x50
 2937 019b 22000000 		.4byte	.LVL35
 2938 019f 5C000000 		.4byte	.LFE119
 2939 01a3 0400     		.2byte	0x4
 2940 01a5 F3       		.byte	0xf3
 2941 01a6 01       		.uleb128 0x1
 2942 01a7 50       		.byte	0x50
 2943 01a8 9F       		.byte	0x9f
 2944 01a9 00000000 		.4byte	0
 2945 01ad 00000000 		.4byte	0
 2946              	.LLST9:
 2947 01b1 00000000 		.4byte	.LVL30
 2948 01b5 1E000000 		.4byte	.LVL34
 2949 01b9 0100     		.2byte	0x1
 2950 01bb 51       		.byte	0x51
 2951 01bc 1E000000 		.4byte	.LVL34
 2952 01c0 22000000 		.4byte	.LVL35
ARM GAS  /var/folders/bz/nn5481rn5xq59rb0mbj7x0880000gn/T//ccsuS3m6.s 			page 53


 2953 01c4 0A00     		.2byte	0xa
 2954 01c6 70       		.byte	0x70
 2955 01c7 00       		.sleb128 0
 2956 01c8 32       		.byte	0x32
 2957 01c9 24       		.byte	0x24
 2958 01ca 03       		.byte	0x3
 2959 01cb 00000000 		.4byte	.LANCHOR0
 2960 01cf 22       		.byte	0x22
 2961 01d0 22000000 		.4byte	.LVL35
 2962 01d4 32000000 		.4byte	.LVL39
 2963 01d8 0B00     		.2byte	0xb
 2964 01da F3       		.byte	0xf3
 2965 01db 01       		.uleb128 0x1
 2966 01dc 50       		.byte	0x50
 2967 01dd 32       		.byte	0x32
 2968 01de 24       		.byte	0x24
 2969 01df 03       		.byte	0x3
 2970 01e0 00000000 		.4byte	.LANCHOR0
 2971 01e4 22       		.byte	0x22
 2972 01e5 32000000 		.4byte	.LVL39
 2973 01e9 4E000000 		.4byte	.LVL43
 2974 01ed 0100     		.2byte	0x1
 2975 01ef 52       		.byte	0x52
 2976 01f0 00000000 		.4byte	0
 2977 01f4 00000000 		.4byte	0
 2978              	.LLST10:
 2979 01f8 32000000 		.4byte	.LVL39
 2980 01fc 3A000000 		.4byte	.LVL41
 2981 0200 0200     		.2byte	0x2
 2982 0202 30       		.byte	0x30
 2983 0203 9F       		.byte	0x9f
 2984 0204 00000000 		.4byte	0
 2985 0208 00000000 		.4byte	0
 2986              	.LLST11:
 2987 020c 0E000000 		.4byte	.LVL31
 2988 0210 1E000000 		.4byte	.LVL34
 2989 0214 0100     		.2byte	0x1
 2990 0216 51       		.byte	0x51
 2991 0217 1E000000 		.4byte	.LVL34
 2992 021b 22000000 		.4byte	.LVL35
 2993 021f 0A00     		.2byte	0xa
 2994 0221 70       		.byte	0x70
 2995 0222 00       		.sleb128 0
 2996 0223 32       		.byte	0x32
 2997 0224 24       		.byte	0x24
 2998 0225 03       		.byte	0x3
 2999 0226 00000000 		.4byte	.LANCHOR0
 3000 022a 22       		.byte	0x22
 3001 022b 22000000 		.4byte	.LVL35
 3002 022f 4E000000 		.4byte	.LVL43
 3003 0233 0B00     		.2byte	0xb
 3004 0235 F3       		.byte	0xf3
 3005 0236 01       		.uleb128 0x1
 3006 0237 50       		.byte	0x50
 3007 0238 32       		.byte	0x32
 3008 0239 24       		.byte	0x24
 3009 023a 03       		.byte	0x3
ARM GAS  /var/folders/bz/nn5481rn5xq59rb0mbj7x0880000gn/T//ccsuS3m6.s 			page 54


 3010 023b 00000000 		.4byte	.LANCHOR0
 3011 023f 22       		.byte	0x22
 3012 0240 00000000 		.4byte	0
 3013 0244 00000000 		.4byte	0
 3014              	.LLST12:
 3015 0248 0E000000 		.4byte	.LVL31
 3016 024c 18000000 		.4byte	.LVL32
 3017 0250 0800     		.2byte	0x8
 3018 0252 71       		.byte	0x71
 3019 0253 00       		.sleb128 0
 3020 0254 40       		.byte	0x40
 3021 0255 25       		.byte	0x25
 3022 0256 08       		.byte	0x8
 3023 0257 FF       		.byte	0xff
 3024 0258 1A       		.byte	0x1a
 3025 0259 9F       		.byte	0x9f
 3026 025a 18000000 		.4byte	.LVL32
 3027 025e 28000000 		.4byte	.LVL37
 3028 0262 0600     		.2byte	0x6
 3029 0264 72       		.byte	0x72
 3030 0265 00       		.sleb128 0
 3031 0266 08       		.byte	0x8
 3032 0267 FF       		.byte	0xff
 3033 0268 1A       		.byte	0x1a
 3034 0269 9F       		.byte	0x9f
 3035 026a 28000000 		.4byte	.LVL37
 3036 026e 2C000000 		.4byte	.LVL38
 3037 0272 1B00     		.2byte	0x1b
 3038 0274 F3       		.byte	0xf3
 3039 0275 01       		.uleb128 0x1
 3040 0276 50       		.byte	0x50
 3041 0277 32       		.byte	0x32
 3042 0278 24       		.byte	0x24
 3043 0279 03       		.byte	0x3
 3044 027a 00000000 		.4byte	.LANCHOR0
 3045 027e 22       		.byte	0x22
 3046 027f 06       		.byte	0x6
 3047 0280 09       		.byte	0x9
 3048 0281 EC       		.byte	0xec
 3049 0282 24       		.byte	0x24
 3050 0283 09       		.byte	0x9
 3051 0284 FC       		.byte	0xfc
 3052 0285 25       		.byte	0x25
 3053 0286 74       		.byte	0x74
 3054 0287 00       		.sleb128 0
 3055 0288 22       		.byte	0x22
 3056 0289 94       		.byte	0x94
 3057 028a 01       		.byte	0x1
 3058 028b 08       		.byte	0x8
 3059 028c FF       		.byte	0xff
 3060 028d 1A       		.byte	0x1a
 3061 028e 9F       		.byte	0x9f
 3062 028f 2C000000 		.4byte	.LVL38
 3063 0293 4E000000 		.4byte	.LVL43
 3064 0297 1E00     		.2byte	0x1e
 3065 0299 F3       		.byte	0xf3
 3066 029a 01       		.uleb128 0x1
ARM GAS  /var/folders/bz/nn5481rn5xq59rb0mbj7x0880000gn/T//ccsuS3m6.s 			page 55


 3067 029b 50       		.byte	0x50
 3068 029c 32       		.byte	0x32
 3069 029d 24       		.byte	0x24
 3070 029e 03       		.byte	0x3
 3071 029f 00000000 		.4byte	.LANCHOR0
 3072 02a3 22       		.byte	0x22
 3073 02a4 06       		.byte	0x6
 3074 02a5 09       		.byte	0x9
 3075 02a6 EC       		.byte	0xec
 3076 02a7 24       		.byte	0x24
 3077 02a8 09       		.byte	0x9
 3078 02a9 FC       		.byte	0xfc
 3079 02aa 25       		.byte	0x25
 3080 02ab 03       		.byte	0x3
 3081 02ac 00000000 		.4byte	.LANCHOR2
 3082 02b0 22       		.byte	0x22
 3083 02b1 94       		.byte	0x94
 3084 02b2 01       		.byte	0x1
 3085 02b3 08       		.byte	0x8
 3086 02b4 FF       		.byte	0xff
 3087 02b5 1A       		.byte	0x1a
 3088 02b6 9F       		.byte	0x9f
 3089 02b7 00000000 		.4byte	0
 3090 02bb 00000000 		.4byte	0
 3091              	.LLST13:
 3092 02bf 0E000000 		.4byte	.LVL31
 3093 02c3 1A000000 		.4byte	.LVL33
 3094 02c7 0800     		.2byte	0x8
 3095 02c9 71       		.byte	0x71
 3096 02ca 00       		.sleb128 0
 3097 02cb 38       		.byte	0x38
 3098 02cc 25       		.byte	0x25
 3099 02cd 08       		.byte	0x8
 3100 02ce FF       		.byte	0xff
 3101 02cf 1A       		.byte	0x1a
 3102 02d0 9F       		.byte	0x9f
 3103 02d1 1A000000 		.4byte	.LVL33
 3104 02d5 3A000000 		.4byte	.LVL41
 3105 02d9 0600     		.2byte	0x6
 3106 02db 75       		.byte	0x75
 3107 02dc 00       		.sleb128 0
 3108 02dd 08       		.byte	0x8
 3109 02de FF       		.byte	0xff
 3110 02df 1A       		.byte	0x1a
 3111 02e0 9F       		.byte	0x9f
 3112 02e1 3A000000 		.4byte	.LVL41
 3113 02e5 4E000000 		.4byte	.LVL43
 3114 02e9 1E00     		.2byte	0x1e
 3115 02eb F3       		.byte	0xf3
 3116 02ec 01       		.uleb128 0x1
 3117 02ed 50       		.byte	0x50
 3118 02ee 32       		.byte	0x32
 3119 02ef 24       		.byte	0x24
 3120 02f0 03       		.byte	0x3
 3121 02f1 00000000 		.4byte	.LANCHOR0
 3122 02f5 22       		.byte	0x22
 3123 02f6 06       		.byte	0x6
ARM GAS  /var/folders/bz/nn5481rn5xq59rb0mbj7x0880000gn/T//ccsuS3m6.s 			page 56


 3124 02f7 09       		.byte	0x9
 3125 02f8 F4       		.byte	0xf4
 3126 02f9 24       		.byte	0x24
 3127 02fa 09       		.byte	0x9
 3128 02fb FC       		.byte	0xfc
 3129 02fc 25       		.byte	0x25
 3130 02fd 03       		.byte	0x3
 3131 02fe 00000000 		.4byte	.LANCHOR2
 3132 0302 22       		.byte	0x22
 3133 0303 94       		.byte	0x94
 3134 0304 01       		.byte	0x1
 3135 0305 08       		.byte	0x8
 3136 0306 FF       		.byte	0xff
 3137 0307 1A       		.byte	0x1a
 3138 0308 9F       		.byte	0x9f
 3139 0309 00000000 		.4byte	0
 3140 030d 00000000 		.4byte	0
 3141              	.LLST14:
 3142 0311 0E000000 		.4byte	.LVL31
 3143 0315 1E000000 		.4byte	.LVL34
 3144 0319 0600     		.2byte	0x6
 3145 031b 71       		.byte	0x71
 3146 031c 00       		.sleb128 0
 3147 031d 08       		.byte	0x8
 3148 031e FF       		.byte	0xff
 3149 031f 1A       		.byte	0x1a
 3150 0320 9F       		.byte	0x9f
 3151 0321 1E000000 		.4byte	.LVL34
 3152 0325 22000000 		.4byte	.LVL35
 3153 0329 0F00     		.2byte	0xf
 3154 032b 70       		.byte	0x70
 3155 032c 00       		.sleb128 0
 3156 032d 32       		.byte	0x32
 3157 032e 24       		.byte	0x24
 3158 032f 03       		.byte	0x3
 3159 0330 00000000 		.4byte	.LANCHOR0
 3160 0334 22       		.byte	0x22
 3161 0335 06       		.byte	0x6
 3162 0336 08       		.byte	0x8
 3163 0337 FF       		.byte	0xff
 3164 0338 1A       		.byte	0x1a
 3165 0339 9F       		.byte	0x9f
 3166 033a 22000000 		.4byte	.LVL35
 3167 033e 24000000 		.4byte	.LVL36
 3168 0342 1000     		.2byte	0x10
 3169 0344 F3       		.byte	0xf3
 3170 0345 01       		.uleb128 0x1
 3171 0346 50       		.byte	0x50
 3172 0347 32       		.byte	0x32
 3173 0348 24       		.byte	0x24
 3174 0349 03       		.byte	0x3
 3175 034a 00000000 		.4byte	.LANCHOR0
 3176 034e 22       		.byte	0x22
 3177 034f 06       		.byte	0x6
 3178 0350 08       		.byte	0x8
 3179 0351 FF       		.byte	0xff
 3180 0352 1A       		.byte	0x1a
ARM GAS  /var/folders/bz/nn5481rn5xq59rb0mbj7x0880000gn/T//ccsuS3m6.s 			page 57


 3181 0353 9F       		.byte	0x9f
 3182 0354 24000000 		.4byte	.LVL36
 3183 0358 34000000 		.4byte	.LVL40
 3184 035c 0600     		.2byte	0x6
 3185 035e 71       		.byte	0x71
 3186 035f 00       		.sleb128 0
 3187 0360 08       		.byte	0x8
 3188 0361 FF       		.byte	0xff
 3189 0362 1A       		.byte	0x1a
 3190 0363 9F       		.byte	0x9f
 3191 0364 34000000 		.4byte	.LVL40
 3192 0368 4E000000 		.4byte	.LVL43
 3193 036c 1C00     		.2byte	0x1c
 3194 036e F3       		.byte	0xf3
 3195 036f 01       		.uleb128 0x1
 3196 0370 50       		.byte	0x50
 3197 0371 32       		.byte	0x32
 3198 0372 24       		.byte	0x24
 3199 0373 03       		.byte	0x3
 3200 0374 00000000 		.4byte	.LANCHOR0
 3201 0378 22       		.byte	0x22
 3202 0379 94       		.byte	0x94
 3203 037a 01       		.byte	0x1
 3204 037b 08       		.byte	0x8
 3205 037c FF       		.byte	0xff
 3206 037d 1A       		.byte	0x1a
 3207 037e 03       		.byte	0x3
 3208 037f 00000000 		.4byte	.LANCHOR2
 3209 0383 22       		.byte	0x22
 3210 0384 94       		.byte	0x94
 3211 0385 01       		.byte	0x1
 3212 0386 08       		.byte	0x8
 3213 0387 FF       		.byte	0xff
 3214 0388 1A       		.byte	0x1a
 3215 0389 9F       		.byte	0x9f
 3216 038a 00000000 		.4byte	0
 3217 038e 00000000 		.4byte	0
 3218              	.LLST15:
 3219 0392 00000000 		.4byte	.LVL44
 3220 0396 0A000000 		.4byte	.LVL45
 3221 039a 0100     		.2byte	0x1
 3222 039c 50       		.byte	0x50
 3223 039d 0A000000 		.4byte	.LVL45
 3224 03a1 14000000 		.4byte	.LFE120
 3225 03a5 0400     		.2byte	0x4
 3226 03a7 F3       		.byte	0xf3
 3227 03a8 01       		.uleb128 0x1
 3228 03a9 50       		.byte	0x50
 3229 03aa 9F       		.byte	0x9f
 3230 03ab 00000000 		.4byte	0
 3231 03af 00000000 		.4byte	0
 3232              	.LLST16:
 3233 03b3 00000000 		.4byte	.LVL46
 3234 03b7 08000000 		.4byte	.LVL47
 3235 03bb 0200     		.2byte	0x2
 3236 03bd 30       		.byte	0x30
 3237 03be 9F       		.byte	0x9f
ARM GAS  /var/folders/bz/nn5481rn5xq59rb0mbj7x0880000gn/T//ccsuS3m6.s 			page 58


 3238 03bf 00000000 		.4byte	0
 3239 03c3 00000000 		.4byte	0
 3240              	.LLST17:
 3241 03c7 00000000 		.4byte	.LVL48
 3242 03cb 28000000 		.4byte	.LVL49
 3243 03cf 0200     		.2byte	0x2
 3244 03d1 30       		.byte	0x30
 3245 03d2 9F       		.byte	0x9f
 3246 03d3 00000000 		.4byte	0
 3247 03d7 00000000 		.4byte	0
 3248              	.LLST18:
 3249 03db 2C000000 		.4byte	.LVL50
 3250 03df 32000000 		.4byte	.LVL51
 3251 03e3 0200     		.2byte	0x2
 3252 03e5 30       		.byte	0x30
 3253 03e6 9F       		.byte	0x9f
 3254 03e7 00000000 		.4byte	0
 3255 03eb 00000000 		.4byte	0
 3256              		.section	.debug_aranges,"",%progbits
 3257 0000 3C000000 		.4byte	0x3c
 3258 0004 0200     		.2byte	0x2
 3259 0006 00000000 		.4byte	.Ldebug_info0
 3260 000a 04       		.byte	0x4
 3261 000b 00       		.byte	0
 3262 000c 0000     		.2byte	0
 3263 000e 0000     		.2byte	0
 3264 0010 00000000 		.4byte	.LFB118
 3265 0014 C4010000 		.4byte	.LFE118-.LFB118
 3266 0018 00000000 		.4byte	.LFB119
 3267 001c 5C000000 		.4byte	.LFE119-.LFB119
 3268 0020 00000000 		.4byte	.LFB120
 3269 0024 14000000 		.4byte	.LFE120-.LFB120
 3270 0028 00000000 		.4byte	.LFB121
 3271 002c 2C000000 		.4byte	.LFE121-.LFB121
 3272 0030 00000000 		.4byte	.LFB122
 3273 0034 5C000000 		.4byte	.LFE122-.LFB122
 3274 0038 00000000 		.4byte	0
 3275 003c 00000000 		.4byte	0
 3276              		.section	.debug_ranges,"",%progbits
 3277              	.Ldebug_ranges0:
 3278 0000 76000000 		.4byte	.LBB15
 3279 0004 7A000000 		.4byte	.LBE15
 3280 0008 7C000000 		.4byte	.LBB16
 3281 000c AC000000 		.4byte	.LBE16
 3282 0010 00000000 		.4byte	0
 3283 0014 00000000 		.4byte	0
 3284 0018 08000000 		.4byte	.LBB18
 3285 001c 0A000000 		.4byte	.LBE18
 3286 0020 0E000000 		.4byte	.LBB22
 3287 0024 1E000000 		.4byte	.LBE22
 3288 0028 22000000 		.4byte	.LBB23
 3289 002c 36000000 		.4byte	.LBE23
 3290 0030 00000000 		.4byte	0
 3291 0034 00000000 		.4byte	0
 3292 0038 00000000 		.4byte	.LFB118
 3293 003c C4010000 		.4byte	.LFE118
 3294 0040 00000000 		.4byte	.LFB119
ARM GAS  /var/folders/bz/nn5481rn5xq59rb0mbj7x0880000gn/T//ccsuS3m6.s 			page 59


 3295 0044 5C000000 		.4byte	.LFE119
 3296 0048 00000000 		.4byte	.LFB120
 3297 004c 14000000 		.4byte	.LFE120
 3298 0050 00000000 		.4byte	.LFB121
 3299 0054 2C000000 		.4byte	.LFE121
 3300 0058 00000000 		.4byte	.LFB122
 3301 005c 5C000000 		.4byte	.LFE122
 3302 0060 00000000 		.4byte	0
 3303 0064 00000000 		.4byte	0
 3304              		.section	.debug_line,"",%progbits
 3305              	.Ldebug_line0:
 3306 0000 C4030000 		.section	.debug_str,"MS",%progbits,1
 3306      02005D02 
 3306      00000201 
 3306      FB0E0D00 
 3306      01010101 
 3307              	.LASF92:
 3308 0000 50555044 		.ascii	"PUPDR\000"
 3308      5200
 3309              	.LASF94:
 3310 0006 4C434B52 		.ascii	"LCKR\000"
 3310      00
 3311              	.LASF125:
 3312 000b 54494D5F 		.ascii	"TIM_DMACmd\000"
 3312      444D4143 
 3312      6D6400
 3313              	.LASF34:
 3314 0016 44494552 		.ascii	"DIER\000"
 3314      00
 3315              	.LASF27:
 3316 001b 4D304152 		.ascii	"M0AR\000"
 3316      00
 3317              	.LASF108:
 3318 0020 77733238 		.ascii	"ws2811_all_off\000"
 3318      31315F61 
 3318      6C6C5F6F 
 3318      666600
 3319              	.LASF72:
 3320 002f 444D415F 		.ascii	"DMA_InitTypeDef\000"
 3320      496E6974 
 3320      54797065 
 3320      44656600 
 3321              	.LASF90:
 3322 003f 4F545950 		.ascii	"OTYPER\000"
 3322      455200
 3323              	.LASF5:
 3324 0046 5F5F7569 		.ascii	"__uint8_t\000"
 3324      6E74385F 
 3324      7400
 3325              	.LASF67:
 3326 0050 444D415F 		.ascii	"DMA_Priority\000"
 3326      5072696F 
 3326      72697479 
 3326      00
 3327              	.LASF62:
 3328 005d 444D415F 		.ascii	"DMA_PeripheralInc\000"
 3328      50657269 
ARM GAS  /var/folders/bz/nn5481rn5xq59rb0mbj7x0880000gn/T//ccsuS3m6.s 			page 60


 3328      70686572 
 3328      616C496E 
 3328      6300
 3329              	.LASF82:
 3330 006f 54494D5F 		.ascii	"TIM_Pulse\000"
 3330      50756C73 
 3330      6500
 3331              	.LASF98:
 3332 0079 696F706F 		.ascii	"ioportmask_t\000"
 3332      72746D61 
 3332      736B5F74 
 3332      00
 3333              	.LASF56:
 3334 0086 54494D5F 		.ascii	"TIM_TypeDef\000"
 3334      54797065 
 3334      44656600 
 3335              	.LASF63:
 3336 0092 444D415F 		.ascii	"DMA_MemoryInc\000"
 3336      4D656D6F 
 3336      7279496E 
 3336      6300
 3337              	.LASF129:
 3338 00a0 7267625F 		.ascii	"rgb_to_local\000"
 3338      746F5F6C 
 3338      6F63616C 
 3338      00
 3339              	.LASF23:
 3340 00ad 44495341 		.ascii	"DISABLE\000"
 3340      424C4500 
 3341              	.LASF89:
 3342 00b5 4D4F4445 		.ascii	"MODER\000"
 3342      5200
 3343              	.LASF13:
 3344 00bb 6C6F6E67 		.ascii	"long long unsigned int\000"
 3344      206C6F6E 
 3344      6720756E 
 3344      7369676E 
 3344      65642069 
 3345              	.LASF117:
 3346 00d2 444D415F 		.ascii	"DMA_DeInit\000"
 3346      4465496E 
 3346      697400
 3347              	.LASF131:
 3348 00dd 49544D5F 		.ascii	"ITM_RxBuffer\000"
 3348      52784275 
 3348      66666572 
 3348      00
 3349              	.LASF50:
 3350 00ea 42445452 		.ascii	"BDTR\000"
 3350      00
 3351              	.LASF70:
 3352 00ef 444D415F 		.ascii	"DMA_MemoryBurst\000"
 3352      4D656D6F 
 3352      72794275 
 3352      72737400 
 3353              	.LASF38:
 3354 00ff 43434D52 		.ascii	"CCMR1\000"
ARM GAS  /var/folders/bz/nn5481rn5xq59rb0mbj7x0880000gn/T//ccsuS3m6.s 			page 61


 3354      3100
 3355              	.LASF40:
 3356 0105 43434D52 		.ascii	"CCMR2\000"
 3356      3200
 3357              	.LASF12:
 3358 010b 6C6F6E67 		.ascii	"long long int\000"
 3358      206C6F6E 
 3358      6720696E 
 3358      7400
 3359              	.LASF2:
 3360 0119 7369676E 		.ascii	"signed char\000"
 3360      65642063 
 3360      68617200 
 3361              	.LASF93:
 3362 0125 42535252 		.ascii	"BSRR\000"
 3362      00
 3363              	.LASF103:
 3364 012a 444D415F 		.ascii	"DMA_InitStructure\000"
 3364      496E6974 
 3364      53747275 
 3364      63747572 
 3364      6500
 3365              	.LASF45:
 3366 013c 52455345 		.ascii	"RESERVED10\000"
 3366      52564544 
 3366      313000
 3367              	.LASF51:
 3368 0147 52455345 		.ascii	"RESERVED11\000"
 3368      52564544 
 3368      313100
 3369              	.LASF71:
 3370 0152 444D415F 		.ascii	"DMA_PeripheralBurst\000"
 3370      50657269 
 3370      70686572 
 3370      616C4275 
 3370      72737400 
 3371              	.LASF54:
 3372 0166 52455345 		.ascii	"RESERVED13\000"
 3372      52564544 
 3372      313300
 3373              	.LASF55:
 3374 0171 52455345 		.ascii	"RESERVED14\000"
 3374      52564544 
 3374      313400
 3375              	.LASF9:
 3376 017c 6C6F6E67 		.ascii	"long int\000"
 3376      20696E74 
 3376      00
 3377              	.LASF81:
 3378 0185 54494D5F 		.ascii	"TIM_OutputNState\000"
 3378      4F757470 
 3378      75744E53 
 3378      74617465 
 3378      00
 3379              	.LASF24:
 3380 0196 454E4142 		.ascii	"ENABLE\000"
 3380      4C4500
ARM GAS  /var/folders/bz/nn5481rn5xq59rb0mbj7x0880000gn/T//ccsuS3m6.s 			page 62


 3381              	.LASF110:
 3382 019d 62697462 		.ascii	"bitbuffer\000"
 3382      75666665 
 3382      7200
 3383              	.LASF42:
 3384 01a7 43434552 		.ascii	"CCER\000"
 3384      00
 3385              	.LASF119:
 3386 01ac 5243435F 		.ascii	"RCC_APB1PeriphClockCmd\000"
 3386      41504231 
 3386      50657269 
 3386      7068436C 
 3386      6F636B43 
 3387              	.LASF111:
 3388 01c3 52474264 		.ascii	"RGBdata\000"
 3388      61746100 
 3389              	.LASF19:
 3390 01cb 75696E74 		.ascii	"uint16_t\000"
 3390      31365F74 
 3390      00
 3391              	.LASF114:
 3392 01d4 726F756E 		.ascii	"roundf\000"
 3392      646600
 3393              	.LASF16:
 3394 01db 646F7562 		.ascii	"double\000"
 3394      6C6500
 3395              	.LASF130:
 3396 01e2 77733238 		.ascii	"ws2811_get_led_color\000"
 3396      31315F67 
 3396      65745F6C 
 3396      65645F63 
 3396      6F6C6F72 
 3397              	.LASF105:
 3398 01f7 77733238 		.ascii	"ws2811_init\000"
 3398      31315F69 
 3398      6E697400 
 3399              	.LASF128:
 3400 0203 2F557365 		.ascii	"/Users/imac/oroca_bldc_dev/oroca_bldc/\000"
 3400      72732F69 
 3400      6D61632F 
 3400      6F726F63 
 3400      615F626C 
 3401              	.LASF91:
 3402 022a 4F535045 		.ascii	"OSPEEDR\000"
 3402      45445200 
 3403              	.LASF10:
 3404 0232 5F5F7569 		.ascii	"__uint32_t\000"
 3404      6E743332 
 3404      5F7400
 3405              	.LASF80:
 3406 023d 54494D5F 		.ascii	"TIM_OutputState\000"
 3406      4F757470 
 3406      75745374 
 3406      61746500 
 3407              	.LASF101:
 3408 024d 54494D5F 		.ascii	"TIM_TimeBaseStructure\000"
 3408      54696D65 
ARM GAS  /var/folders/bz/nn5481rn5xq59rb0mbj7x0880000gn/T//ccsuS3m6.s 			page 63


 3408      42617365 
 3408      53747275 
 3408      63747572 
 3409              	.LASF74:
 3410 0263 54494D5F 		.ascii	"TIM_CounterMode\000"
 3410      436F756E 
 3410      7465724D 
 3410      6F646500 
 3411              	.LASF102:
 3412 0273 54494D5F 		.ascii	"TIM_OCInitStructure\000"
 3412      4F43496E 
 3412      69745374 
 3412      72756374 
 3412      75726500 
 3413              	.LASF1:
 3414 0287 756E7369 		.ascii	"unsigned int\000"
 3414      676E6564 
 3414      20696E74 
 3414      00
 3415              	.LASF83:
 3416 0294 54494D5F 		.ascii	"TIM_OCPolarity\000"
 3416      4F43506F 
 3416      6C617269 
 3416      747900
 3417              	.LASF14:
 3418 02a3 73697A65 		.ascii	"sizetype\000"
 3418      74797065 
 3418      00
 3419              	.LASF76:
 3420 02ac 54494D5F 		.ascii	"TIM_ClockDivision\000"
 3420      436C6F63 
 3420      6B446976 
 3420      6973696F 
 3420      6E00
 3421              	.LASF11:
 3422 02be 6C6F6E67 		.ascii	"long unsigned int\000"
 3422      20756E73 
 3422      69676E65 
 3422      6420696E 
 3422      7400
 3423              	.LASF97:
 3424 02d0 4750494F 		.ascii	"GPIO_TypeDef\000"
 3424      5F547970 
 3424      65446566 
 3424      00
 3425              	.LASF78:
 3426 02dd 54494D5F 		.ascii	"TIM_TimeBaseInitTypeDef\000"
 3426      54696D65 
 3426      42617365 
 3426      496E6974 
 3426      54797065 
 3427              	.LASF7:
 3428 02f5 73686F72 		.ascii	"short unsigned int\000"
 3428      7420756E 
 3428      7369676E 
 3428      65642069 
 3428      6E7400
ARM GAS  /var/folders/bz/nn5481rn5xq59rb0mbj7x0880000gn/T//ccsuS3m6.s 			page 64


 3429              	.LASF106:
 3430 0308 77733238 		.ascii	"ws2811_set_led_color\000"
 3430      31315F73 
 3430      65745F6C 
 3430      65645F63 
 3430      6F6C6F72 
 3431              	.LASF122:
 3432 031d 54494D5F 		.ascii	"TIM_OC2PreloadConfig\000"
 3432      4F433250 
 3432      72656C6F 
 3432      6164436F 
 3432      6E666967 
 3433              	.LASF69:
 3434 0332 444D415F 		.ascii	"DMA_FIFOThreshold\000"
 3434      4649464F 
 3434      54687265 
 3434      73686F6C 
 3434      6400
 3435              	.LASF124:
 3436 0344 444D415F 		.ascii	"DMA_Cmd\000"
 3436      436D6400 
 3437              	.LASF58:
 3438 034c 444D415F 		.ascii	"DMA_PeripheralBaseAddr\000"
 3438      50657269 
 3438      70686572 
 3438      616C4261 
 3438      73654164 
 3439              	.LASF73:
 3440 0363 54494D5F 		.ascii	"TIM_Prescaler\000"
 3440      50726573 
 3440      63616C65 
 3440      7200
 3441              	.LASF109:
 3442 0371 77733238 		.ascii	"ws2811_set_all\000"
 3442      31315F73 
 3442      65745F61 
 3442      6C6C00
 3443              	.LASF88:
 3444 0380 636C6561 		.ascii	"clear\000"
 3444      7200
 3445              	.LASF60:
 3446 0386 444D415F 		.ascii	"DMA_DIR\000"
 3446      44495200 
 3447              	.LASF86:
 3448 038e 54494D5F 		.ascii	"TIM_OCNIdleState\000"
 3448      4F434E49 
 3448      646C6553 
 3448      74617465 
 3448      00
 3449              	.LASF127:
 3450 039f 7372632F 		.ascii	"src/core/ws2811.c\000"
 3450      636F7265 
 3450      2F777332 
 3450      3831312E 
 3450      6300
 3451              	.LASF66:
 3452 03b1 444D415F 		.ascii	"DMA_Mode\000"
ARM GAS  /var/folders/bz/nn5481rn5xq59rb0mbj7x0880000gn/T//ccsuS3m6.s 			page 65


 3452      4D6F6465 
 3452      00
 3453              	.LASF25:
 3454 03ba 46756E63 		.ascii	"FunctionalState\000"
 3454      74696F6E 
 3454      616C5374 
 3454      61746500 
 3455              	.LASF65:
 3456 03ca 444D415F 		.ascii	"DMA_MemoryDataSize\000"
 3456      4D656D6F 
 3456      72794461 
 3456      74615369 
 3456      7A6500
 3457              	.LASF53:
 3458 03dd 444D4152 		.ascii	"DMAR\000"
 3458      00
 3459              	.LASF96:
 3460 03e2 41465248 		.ascii	"AFRH\000"
 3460      00
 3461              	.LASF0:
 3462 03e7 666C6F61 		.ascii	"float\000"
 3462      7400
 3463              	.LASF112:
 3464 03ed 67616D6D 		.ascii	"gamma_table\000"
 3464      615F7461 
 3464      626C6500 
 3465              	.LASF95:
 3466 03f9 4146524C 		.ascii	"AFRL\000"
 3466      00
 3467              	.LASF30:
 3468 03fe 52455345 		.ascii	"RESERVED0\000"
 3468      52564544 
 3468      3000
 3469              	.LASF31:
 3470 0408 52455345 		.ascii	"RESERVED1\000"
 3470      52564544 
 3470      3100
 3471              	.LASF33:
 3472 0412 52455345 		.ascii	"RESERVED2\000"
 3472      52564544 
 3472      3200
 3473              	.LASF35:
 3474 041c 52455345 		.ascii	"RESERVED3\000"
 3474      52564544 
 3474      3300
 3475              	.LASF59:
 3476 0426 444D415F 		.ascii	"DMA_Memory0BaseAddr\000"
 3476      4D656D6F 
 3476      72793042 
 3476      61736541 
 3476      64647200 
 3477              	.LASF39:
 3478 043a 52455345 		.ascii	"RESERVED6\000"
 3478      52564544 
 3478      3600
 3479              	.LASF41:
 3480 0444 52455345 		.ascii	"RESERVED7\000"
ARM GAS  /var/folders/bz/nn5481rn5xq59rb0mbj7x0880000gn/T//ccsuS3m6.s 			page 66


 3480      52564544 
 3480      3700
 3481              	.LASF43:
 3482 044e 52455345 		.ascii	"RESERVED8\000"
 3482      52564544 
 3482      3800
 3483              	.LASF44:
 3484 0458 52455345 		.ascii	"RESERVED9\000"
 3484      52564544 
 3484      3900
 3485              	.LASF26:
 3486 0462 4E445452 		.ascii	"NDTR\000"
 3486      00
 3487              	.LASF22:
 3488 0467 5F426F6F 		.ascii	"_Bool\000"
 3488      6C00
 3489              	.LASF20:
 3490 046d 696E7433 		.ascii	"int32_t\000"
 3490      325F7400 
 3491              	.LASF3:
 3492 0475 756E7369 		.ascii	"unsigned char\000"
 3492      676E6564 
 3492      20636861 
 3492      7200
 3493              	.LASF132:
 3494 0483 54494D5F 		.ascii	"TIM_CtrlPWMOutputs\000"
 3494      4374726C 
 3494      50574D4F 
 3494      75747075 
 3494      747300
 3495              	.LASF4:
 3496 0496 73686F72 		.ascii	"short int\000"
 3496      7420696E 
 3496      7400
 3497              	.LASF57:
 3498 04a0 444D415F 		.ascii	"DMA_Channel\000"
 3498      4368616E 
 3498      6E656C00 
 3499              	.LASF118:
 3500 04ac 444D415F 		.ascii	"DMA_Init\000"
 3500      496E6974 
 3500      00
 3501              	.LASF116:
 3502 04b5 5243435F 		.ascii	"RCC_AHB1PeriphClockCmd\000"
 3502      41484231 
 3502      50657269 
 3502      7068436C 
 3502      6F636B43 
 3503              	.LASF120:
 3504 04cc 54494D5F 		.ascii	"TIM_TimeBaseInit\000"
 3504      54696D65 
 3504      42617365 
 3504      496E6974 
 3504      00
 3505              	.LASF36:
 3506 04dd 52455345 		.ascii	"RESERVED4\000"
 3506      52564544 
ARM GAS  /var/folders/bz/nn5481rn5xq59rb0mbj7x0880000gn/T//ccsuS3m6.s 			page 67


 3506      3400
 3507              	.LASF37:
 3508 04e7 52455345 		.ascii	"RESERVED5\000"
 3508      52564544 
 3508      3500
 3509              	.LASF21:
 3510 04f1 75696E74 		.ascii	"uint32_t\000"
 3510      33325F74 
 3510      00
 3511              	.LASF17:
 3512 04fa 6C6F6E67 		.ascii	"long double\000"
 3512      20646F75 
 3512      626C6500 
 3513              	.LASF84:
 3514 0506 54494D5F 		.ascii	"TIM_OCNPolarity\000"
 3514      4F434E50 
 3514      6F6C6172 
 3514      69747900 
 3515              	.LASF107:
 3516 0516 636F6C6F 		.ascii	"color\000"
 3516      7200
 3517              	.LASF15:
 3518 051c 63686172 		.ascii	"char\000"
 3518      00
 3519              	.LASF32:
 3520 0521 534D4352 		.ascii	"SMCR\000"
 3520      00
 3521              	.LASF123:
 3522 0526 54494D5F 		.ascii	"TIM_Cmd\000"
 3522      436D6400 
 3523              	.LASF6:
 3524 052e 5F5F7569 		.ascii	"__uint16_t\000"
 3524      6E743136 
 3524      5F7400
 3525              	.LASF64:
 3526 0539 444D415F 		.ascii	"DMA_PeripheralDataSize\000"
 3526      50657269 
 3526      70686572 
 3526      616C4461 
 3526      74615369 
 3527              	.LASF121:
 3528 0550 54494D5F 		.ascii	"TIM_OC2Init\000"
 3528      4F433249 
 3528      6E697400 
 3529              	.LASF75:
 3530 055c 54494D5F 		.ascii	"TIM_Period\000"
 3530      50657269 
 3530      6F6400
 3531              	.LASF8:
 3532 0567 5F5F696E 		.ascii	"__int32_t\000"
 3532      7433325F 
 3532      7400
 3533              	.LASF126:
 3534 0571 474E5520 		.ascii	"GNU C 4.9.3 20150529 (release) [ARM/embedded-4_9-br"
 3534      4320342E 
 3534      392E3320 
 3534      32303135 
ARM GAS  /var/folders/bz/nn5481rn5xq59rb0mbj7x0880000gn/T//ccsuS3m6.s 			page 68


 3534      30353239 
 3535 05a4 616E6368 		.ascii	"anch revision 224288] -mcpu=cortex-m4 -mfloat-abi=h"
 3535      20726576 
 3535      6973696F 
 3535      6E203232 
 3535      34323838 
 3536 05d7 61726420 		.ascii	"ard -mfpu=fpv4-sp-d16 -mno-thumb-interwork -mthumb "
 3536      2D6D6670 
 3536      753D6670 
 3536      76342D73 
 3536      702D6431 
 3537 060a 2D676764 		.ascii	"-ggdb -O2 -std=gnu99 -fomit-frame-pointer -falign-f"
 3537      62202D4F 
 3537      32202D73 
 3537      74643D67 
 3537      6E753939 
 3538 063d 756E6374 		.ascii	"unctions=16 -ffunction-sections -fdata-sections -fn"
 3538      696F6E73 
 3538      3D313620 
 3538      2D666675 
 3538      6E637469 
 3539 0670 6F2D636F 		.ascii	"o-common -fsingle-precision-constant\000"
 3539      6D6D6F6E 
 3539      202D6673 
 3539      696E676C 
 3539      652D7072 
 3540              	.LASF29:
 3541 0695 444D415F 		.ascii	"DMA_Stream_TypeDef\000"
 3541      53747265 
 3541      616D5F54 
 3541      79706544 
 3541      656600
 3542              	.LASF100:
 3543 06a8 696F706F 		.ascii	"ioportid_t\000"
 3543      72746964 
 3543      5F7400
 3544              	.LASF115:
 3545 06b3 5F70616C 		.ascii	"_pal_lld_setgroupmode\000"
 3545      5F6C6C64 
 3545      5F736574 
 3545      67726F75 
 3545      706D6F64 
 3546              	.LASF79:
 3547 06c9 54494D5F 		.ascii	"TIM_OCMode\000"
 3547      4F434D6F 
 3547      646500
 3548              	.LASF28:
 3549 06d4 4D314152 		.ascii	"M1AR\000"
 3549      00
 3550              	.LASF52:
 3551 06d9 52455345 		.ascii	"RESERVED12\000"
 3551      52564544 
 3551      313200
 3552              	.LASF46:
 3553 06e4 43435231 		.ascii	"CCR1\000"
 3553      00
 3554              	.LASF47:
ARM GAS  /var/folders/bz/nn5481rn5xq59rb0mbj7x0880000gn/T//ccsuS3m6.s 			page 69


 3555 06e9 43435232 		.ascii	"CCR2\000"
 3555      00
 3556              	.LASF48:
 3557 06ee 43435233 		.ascii	"CCR3\000"
 3557      00
 3558              	.LASF49:
 3559 06f3 43435234 		.ascii	"CCR4\000"
 3559      00
 3560              	.LASF87:
 3561 06f8 54494D5F 		.ascii	"TIM_OCInitTypeDef\000"
 3561      4F43496E 
 3561      69745479 
 3561      70654465 
 3561      6600
 3562              	.LASF104:
 3563 070a 746D705F 		.ascii	"tmp_color\000"
 3563      636F6C6F 
 3563      7200
 3564              	.LASF68:
 3565 0714 444D415F 		.ascii	"DMA_FIFOMode\000"
 3565      4649464F 
 3565      4D6F6465 
 3565      00
 3566              	.LASF18:
 3567 0721 75696E74 		.ascii	"uint8_t\000"
 3567      385F7400 
 3568              	.LASF77:
 3569 0729 54494D5F 		.ascii	"TIM_RepetitionCounter\000"
 3569      52657065 
 3569      74697469 
 3569      6F6E436F 
 3569      756E7465 
 3570              	.LASF61:
 3571 073f 444D415F 		.ascii	"DMA_BufferSize\000"
 3571      42756666 
 3571      65725369 
 3571      7A6500
 3572              	.LASF113:
 3573 074e 706F7766 		.ascii	"powf\000"
 3573      00
 3574              	.LASF85:
 3575 0753 54494D5F 		.ascii	"TIM_OCIdleState\000"
 3575      4F434964 
 3575      6C655374 
 3575      61746500 
 3576              	.LASF99:
 3577 0763 696F6D6F 		.ascii	"iomode_t\000"
 3577      64655F74 
 3577      00
 3578              		.ident	"GCC: (GNU Tools for ARM Embedded Processors) 4.9.3 20150529 (release) [ARM/embedded-4_9-br
ARM GAS  /var/folders/bz/nn5481rn5xq59rb0mbj7x0880000gn/T//ccsuS3m6.s 			page 70


DEFINED SYMBOLS
                            *ABS*:0000000000000000 ws2811.c
/var/folders/bz/nn5481rn5xq59rb0mbj7x0880000gn/T//ccsuS3m6.s:21     .text.ws2811_init:0000000000000000 $t
/var/folders/bz/nn5481rn5xq59rb0mbj7x0880000gn/T//ccsuS3m6.s:27     .text.ws2811_init:0000000000000000 ws2811_init
/var/folders/bz/nn5481rn5xq59rb0mbj7x0880000gn/T//ccsuS3m6.s:328    .text.ws2811_init:0000000000000194 $d
/var/folders/bz/nn5481rn5xq59rb0mbj7x0880000gn/T//ccsuS3m6.s:344    .text.ws2811_set_led_color:0000000000000000 $t
/var/folders/bz/nn5481rn5xq59rb0mbj7x0880000gn/T//ccsuS3m6.s:350    .text.ws2811_set_led_color:0000000000000000 ws2811_set_led_color
/var/folders/bz/nn5481rn5xq59rb0mbj7x0880000gn/T//ccsuS3m6.s:451    .text.ws2811_set_led_color:0000000000000050 $d
/var/folders/bz/nn5481rn5xq59rb0mbj7x0880000gn/T//ccsuS3m6.s:458    .text.ws2811_get_led_color:0000000000000000 $t
/var/folders/bz/nn5481rn5xq59rb0mbj7x0880000gn/T//ccsuS3m6.s:464    .text.ws2811_get_led_color:0000000000000000 ws2811_get_led_color
/var/folders/bz/nn5481rn5xq59rb0mbj7x0880000gn/T//ccsuS3m6.s:486    .text.ws2811_get_led_color:0000000000000010 $d
/var/folders/bz/nn5481rn5xq59rb0mbj7x0880000gn/T//ccsuS3m6.s:491    .text.ws2811_all_off:0000000000000000 $t
/var/folders/bz/nn5481rn5xq59rb0mbj7x0880000gn/T//ccsuS3m6.s:497    .text.ws2811_all_off:0000000000000000 ws2811_all_off
/var/folders/bz/nn5481rn5xq59rb0mbj7x0880000gn/T//ccsuS3m6.s:531    .text.ws2811_all_off:0000000000000024 $d
/var/folders/bz/nn5481rn5xq59rb0mbj7x0880000gn/T//ccsuS3m6.s:537    .text.ws2811_set_all:0000000000000000 $t
/var/folders/bz/nn5481rn5xq59rb0mbj7x0880000gn/T//ccsuS3m6.s:543    .text.ws2811_set_all:0000000000000000 ws2811_set_all
/var/folders/bz/nn5481rn5xq59rb0mbj7x0880000gn/T//ccsuS3m6.s:610    .text.ws2811_set_all:0000000000000050 $d
/var/folders/bz/nn5481rn5xq59rb0mbj7x0880000gn/T//ccsuS3m6.s:617    .bss.RGBdata:0000000000000000 $d
/var/folders/bz/nn5481rn5xq59rb0mbj7x0880000gn/T//ccsuS3m6.s:621    .bss.RGBdata:0000000000000000 RGBdata
/var/folders/bz/nn5481rn5xq59rb0mbj7x0880000gn/T//ccsuS3m6.s:624    .bss.bitbuffer:0000000000000000 $d
/var/folders/bz/nn5481rn5xq59rb0mbj7x0880000gn/T//ccsuS3m6.s:628    .bss.bitbuffer:0000000000000000 bitbuffer
/var/folders/bz/nn5481rn5xq59rb0mbj7x0880000gn/T//ccsuS3m6.s:631    .bss.gamma_table:0000000000000000 $d
/var/folders/bz/nn5481rn5xq59rb0mbj7x0880000gn/T//ccsuS3m6.s:635    .bss.gamma_table:0000000000000000 gamma_table
                     .debug_frame:0000000000000010 $d

UNDEFINED SYMBOLS
powf
roundf
_pal_lld_setgroupmode
RCC_AHB1PeriphClockCmd
DMA_DeInit
DMA_Init
RCC_APB1PeriphClockCmd
TIM_TimeBaseInit
TIM_OC2Init
TIM_OC2PreloadConfig
TIM_Cmd
DMA_Cmd
TIM_DMACmd
TIM_CtrlPWMOutputs
