ARM GAS  C:\Users\IDONNO~1\AppData\Local\Temp\ccrByNBb.s 			page 1


   1              		.syntax unified
   2              		.cpu cortex-m4
   3              		.eabi_attribute 27, 1
   4              		.eabi_attribute 28, 1
   5              		.fpu fpv4-sp-d16
   6              		.eabi_attribute 20, 1
   7              		.eabi_attribute 21, 1
   8              		.eabi_attribute 23, 3
   9              		.eabi_attribute 24, 1
  10              		.eabi_attribute 25, 1
  11              		.eabi_attribute 26, 1
  12              		.eabi_attribute 30, 2
  13              		.eabi_attribute 34, 1
  14              		.eabi_attribute 18, 4
  15              		.thumb
  16              		.syntax unified
  17              		.file	"bldc.c"
  18              		.text
  19              	.Ltext0:
  20              		.cfi_sections	.debug_frame
  21              		.global	__aeabi_f2d
  22              		.section	.text.uart_process_thread,"ax",%progbits
  23              		.align	2
  24              		.p2align 4,,15
  25              		.thumb
  26              		.thumb_func
  27              		.type	uart_process_thread, %function
  28              	uart_process_thread:
  29              	.LFB258:
  30              		.file 1 "src/bldc/bldc.c"
  31              		.loc 1 104 0
  32              		.cfi_startproc
  33              		@ Volatile: function does not return.
  34              		@ args = 0, pretend = 0, frame = 0
  35              		@ frame_needed = 0, uses_anonymous_args = 0
  36              	.LVL0:
  37 0000 08B5     		push	{r3, lr}
  38              		.cfi_def_cfa_offset 8
  39              		.cfi_offset 3, -8
  40              		.cfi_offset 14, -4
  41              	.LBB6:
  42              	.LBB7:
  43              		.file 2 "lib/ChibiOS_3.0.2/os/rt/include/chregistry.h"
  44              		.loc 2 135 0
  45 0002 1D4B     		ldr	r3, .L5
  46 0004 1D4A     		ldr	r2, .L5+4
  47 0006 9B69     		ldr	r3, [r3, #24]
  48              	.LBE7:
  49              	.LBE6:
  50              		.loc 1 109 0
  51 0008 1D49     		ldr	r1, .L5+8
  52              	.LBB9:
  53              	.LBB8:
  54              		.loc 2 135 0
  55 000a 9A61     		str	r2, [r3, #24]
  56              	.LVL1:
  57              	.LBE8:
ARM GAS  C:\Users\IDONNO~1\AppData\Local\Temp\ccrByNBb.s 			page 2


  58              	.LBE9:
  59              		.loc 1 109 0
  60 000c 1D48     		ldr	r0, .L5+12
  61              	.LVL2:
  62 000e 1E4C     		ldr	r4, .L5+16
  63 0010 FFF7FEFF 		bl	Uart3_printf
  64              	.LVL3:
  65              	.L2:
  66              		.loc 1 118 0 discriminator 1
  67 0014 2068     		ldr	r0, [r4]	@ float
  68 0016 FFF7FEFF 		bl	__aeabi_f2d
  69              	.LVL4:
  70 001a 0246     		mov	r2, r0
  71 001c 0B46     		mov	r3, r1
  72 001e 1948     		ldr	r0, .L5+12
  73 0020 1A49     		ldr	r1, .L5+20
  74 0022 FFF7FEFF 		bl	Uart3_printf
  75              	.LVL5:
  76              		.loc 1 122 0 discriminator 1
  77 0026 6069     		ldr	r0, [r4, #20]	@ float
  78 0028 FFF7FEFF 		bl	__aeabi_f2d
  79              	.LVL6:
  80 002c 0246     		mov	r2, r0
  81 002e 0B46     		mov	r3, r1
  82 0030 1448     		ldr	r0, .L5+12
  83 0032 1649     		ldr	r1, .L5+20
  84 0034 FFF7FEFF 		bl	Uart3_printf
  85              	.LVL7:
  86              		.loc 1 123 0 discriminator 1
  87 0038 A069     		ldr	r0, [r4, #24]	@ float
  88 003a FFF7FEFF 		bl	__aeabi_f2d
  89              	.LVL8:
  90 003e 0246     		mov	r2, r0
  91 0040 0B46     		mov	r3, r1
  92 0042 1048     		ldr	r0, .L5+12
  93 0044 1149     		ldr	r1, .L5+20
  94 0046 FFF7FEFF 		bl	Uart3_printf
  95              	.LVL9:
  96              		.loc 1 126 0 discriminator 1
  97 004a E069     		ldr	r0, [r4, #28]	@ float
  98 004c FFF7FEFF 		bl	__aeabi_f2d
  99              	.LVL10:
 100 0050 0246     		mov	r2, r0
 101 0052 0B46     		mov	r3, r1
 102 0054 0B48     		ldr	r0, .L5+12
 103 0056 0D49     		ldr	r1, .L5+20
 104 0058 FFF7FEFF 		bl	Uart3_printf
 105              	.LVL11:
 106              		.loc 1 127 0 discriminator 1
 107 005c 206A     		ldr	r0, [r4, #32]	@ float
 108 005e FFF7FEFF 		bl	__aeabi_f2d
 109              	.LVL12:
 110 0062 0246     		mov	r2, r0
 111 0064 0B46     		mov	r3, r1
 112 0066 0748     		ldr	r0, .L5+12
 113 0068 0949     		ldr	r1, .L5+24
 114 006a FFF7FEFF 		bl	Uart3_printf
ARM GAS  C:\Users\IDONNO~1\AppData\Local\Temp\ccrByNBb.s 			page 3


 115              	.LVL13:
 116              		.loc 1 128 0 discriminator 1
 117 006e 0A20     		movs	r0, #10
 118 0070 FFF7FEFF 		bl	chThdSleep
 119              	.LVL14:
 120 0074 CEE7     		b	.L2
 121              	.L6:
 122 0076 00BF     		.align	2
 123              	.L5:
 124 0078 00000000 		.word	ch
 125 007c 00000000 		.word	.LC0
 126 0080 10000000 		.word	.LC1
 127 0084 00000000 		.word	SD3
 128 0088 00000000 		.word	ParkParm
 129 008c 28000000 		.word	.LC2
 130 0090 30000000 		.word	.LC3
 131              		.cfi_endproc
 132              	.LFE258:
 133              		.size	uart_process_thread, .-uart_process_thread
 134              		.section	.text.periodic_thread,"ax",%progbits
 135              		.align	2
 136              		.p2align 4,,15
 137              		.thumb
 138              		.thumb_func
 139              		.type	periodic_thread, %function
 140              	periodic_thread:
 141              	.LFB256:
 142              		.loc 1 63 0
 143              		.cfi_startproc
 144              		@ Volatile: function does not return.
 145              		@ args = 0, pretend = 0, frame = 0
 146              		@ frame_needed = 0, uses_anonymous_args = 0
 147              	.LVL15:
 148 0000 08B5     		push	{r3, lr}
 149              		.cfi_def_cfa_offset 8
 150              		.cfi_offset 3, -8
 151              		.cfi_offset 14, -4
 152              	.LBB10:
 153              	.LBB11:
 154              		.loc 2 135 0
 155 0002 0B4B     		ldr	r3, .L10
 156 0004 0B4A     		ldr	r2, .L10+4
 157 0006 9B69     		ldr	r3, [r3, #24]
 158              	.LBE11:
 159              	.LBE10:
 160              		.loc 1 68 0
 161 0008 0B49     		ldr	r1, .L10+8
 162              	.LBB13:
 163              	.LBB12:
 164              		.loc 2 135 0
 165 000a 9A61     		str	r2, [r3, #24]
 166              	.LVL16:
 167              	.LBE12:
 168              	.LBE13:
 169              		.loc 1 68 0
 170 000c 0B48     		ldr	r0, .L10+12
 171              	.LVL17:
ARM GAS  C:\Users\IDONNO~1\AppData\Local\Temp\ccrByNBb.s 			page 4


 172              		.loc 1 72 0
 173 000e 0C4C     		ldr	r4, .L10+16
 174              		.loc 1 68 0
 175 0010 FFF7FEFF 		bl	Uart3_printf
 176              	.LVL18:
 177              		.loc 1 72 0
 178 0014 4025     		movs	r5, #64
 179 0016 2E46     		mov	r6, r5	@ movhi
 180              	.L8:
 181              		.loc 1 72 0 is_stmt 0 discriminator 1
 182 0018 2683     		strh	r6, [r4, #24]	@ movhi
 183              		.loc 1 73 0 is_stmt 1 discriminator 1
 184 001a 41F28830 		movw	r0, #5000
 185 001e FFF7FEFF 		bl	chThdSleep
 186              	.LVL19:
 187              		.loc 1 74 0 discriminator 1
 188 0022 6583     		strh	r5, [r4, #26]	@ movhi
 189              		.loc 1 75 0 discriminator 1
 190 0024 41F28830 		movw	r0, #5000
 191 0028 FFF7FEFF 		bl	chThdSleep
 192              	.LVL20:
 193 002c F4E7     		b	.L8
 194              	.L11:
 195 002e 00BF     		.align	2
 196              	.L10:
 197 0030 00000000 		.word	ch
 198 0034 3C000000 		.word	.LC4
 199 0038 4C000000 		.word	.LC5
 200 003c 00000000 		.word	SD3
 201 0040 00040240 		.word	1073873920
 202              		.cfi_endproc
 203              	.LFE256:
 204              		.size	periodic_thread, .-periodic_thread
 205              		.section	.text.bldc_init,"ax",%progbits
 206              		.align	2
 207              		.p2align 4,,15
 208              		.global	bldc_init
 209              		.thumb
 210              		.thumb_func
 211              		.type	bldc_init, %function
 212              	bldc_init:
 213              	.LFB257:
 214              		.loc 1 84 0
 215              		.cfi_startproc
 216              		@ args = 0, pretend = 0, frame = 0
 217              		@ frame_needed = 0, uses_anonymous_args = 0
 218 0000 08B5     		push	{r3, lr}
 219              		.cfi_def_cfa_offset 8
 220              		.cfi_offset 3, -8
 221              		.cfi_offset 14, -4
 222              		.loc 1 85 0
 223 0002 FFF7FEFF 		bl	halInit
 224              	.LVL21:
 225              		.loc 1 86 0
 226 0006 FFF7FEFF 		bl	chSysInit
 227              	.LVL22:
 228              		.loc 1 88 0
ARM GAS  C:\Users\IDONNO~1\AppData\Local\Temp\ccrByNBb.s 			page 5


 229 000a 42F21070 		movw	r0, #10000
 230 000e FFF7FEFF 		bl	chThdSleep
 231              	.LVL23:
 232              		.loc 1 90 0
 233 0012 FFF7FEFF 		bl	hw_init_gpio
 234              	.LVL24:
 235              		.loc 1 92 0
 236 0016 FFF7FEFF 		bl	Uart3_print_init
 237              	.LVL25:
 238              		.loc 1 93 0
 239 001a 0649     		ldr	r1, .L14
 240 001c 0648     		ldr	r0, .L14+4
 241 001e FFF7FEFF 		bl	Uart3_printf
 242              	.LVL26:
 243              		.loc 1 95 0
 244 0022 FFF7FEFF 		bl	spi_dac_hw_init
 245              	.LVL27:
 246              		.loc 1 96 0
 247 0026 6420     		movs	r0, #100
 248 0028 FFF7FEFF 		bl	spi_dac_write_A
 249              	.LVL28:
 250              		.loc 1 98 0
 251 002c FFF7FEFF 		bl	mcpwm_init
 252              	.LVL29:
 253              		.loc 1 101 0
 254 0030 0020     		movs	r0, #0
 255 0032 08BD     		pop	{r3, pc}
 256              	.L15:
 257              		.align	2
 258              	.L14:
 259 0034 60000000 		.word	.LC6
 260 0038 00000000 		.word	SD3
 261              		.cfi_endproc
 262              	.LFE257:
 263              		.size	bldc_init, .-bldc_init
 264              		.section	.text.bldc_start,"ax",%progbits
 265              		.align	2
 266              		.p2align 4,,15
 267              		.global	bldc_start
 268              		.thumb
 269              		.thumb_func
 270              		.type	bldc_start, %function
 271              	bldc_start:
 272              	.LFB259:
 273              		.loc 1 143 0
 274              		.cfi_startproc
 275              		@ Volatile: function does not return.
 276              		@ args = 0, pretend = 0, frame = 0
 277              		@ frame_needed = 0, uses_anonymous_args = 0
 278 0000 00B5     		push	{lr}
 279              		.cfi_def_cfa_offset 4
 280              		.cfi_offset 14, -4
 281 0002 83B0     		sub	sp, sp, #12
 282              		.cfi_def_cfa_offset 16
 283              		.loc 1 145 0
 284 0004 0024     		movs	r4, #0
 285 0006 0A4B     		ldr	r3, .L19
ARM GAS  C:\Users\IDONNO~1\AppData\Local\Temp\ccrByNBb.s 			page 6


 286 0008 0094     		str	r4, [sp]
 287 000a 4022     		movs	r2, #64
 288 000c 4FF4B361 		mov	r1, #1432
 289 0010 0848     		ldr	r0, .L19+4
 290 0012 FFF7FEFF 		bl	chThdCreateStatic
 291              	.LVL30:
 292              		.loc 1 146 0
 293 0016 4FF40671 		mov	r1, #536
 294 001a 0094     		str	r4, [sp]
 295 001c 064B     		ldr	r3, .L19+8
 296 001e 0748     		ldr	r0, .L19+12
 297 0020 4022     		movs	r2, #64
 298 0022 FFF7FEFF 		bl	chThdCreateStatic
 299              	.LVL31:
 300              		.loc 1 148 0
 301 0026 0649     		ldr	r1, .L19+16
 302 0028 0648     		ldr	r0, .L19+20
 303 002a FFF7FEFF 		bl	Uart3_printf
 304              	.LVL32:
 305              	.L17:
 306 002e FEE7     		b	.L17
 307              	.L20:
 308              		.align	2
 309              	.L19:
 310 0030 00000000 		.word	periodic_thread
 311 0034 00000000 		.word	.LANCHOR0
 312 0038 00000000 		.word	uart_process_thread
 313 003c 00000000 		.word	.LANCHOR1
 314 0040 70000000 		.word	.LC7
 315 0044 00000000 		.word	SD3
 316              		.cfi_endproc
 317              	.LFE259:
 318              		.size	bldc_start, .-bldc_start
 319              		.global	dbg_AccumTheta
 320              		.global	dbg_fMea
 321              		.global	dbg_fTheta
 322              		.global	qVelRef
 323              		.section	.data.qVelRef,"aw",%progbits
 324              		.align	2
 325              		.type	qVelRef, %object
 326              		.size	qVelRef, 4
 327              	qVelRef:
 328 0000 0AD7233C 		.word	1008981770
 329              		.section	.bss.dbg_AccumTheta,"aw",%nobits
 330              		.align	1
 331              		.type	dbg_AccumTheta, %object
 332              		.size	dbg_AccumTheta, 2
 333              	dbg_AccumTheta:
 334 0000 0000     		.space	2
 335              		.section	.bss.dbg_fMea,"aw",%nobits
 336              		.align	2
 337              		.type	dbg_fMea, %object
 338              		.size	dbg_fMea, 4
 339              	dbg_fMea:
 340 0000 00000000 		.space	4
 341              		.section	.bss.dbg_fTheta,"aw",%nobits
 342              		.align	2
ARM GAS  C:\Users\IDONNO~1\AppData\Local\Temp\ccrByNBb.s 			page 7


 343              		.type	dbg_fTheta, %object
 344              		.size	dbg_fTheta, 4
 345              	dbg_fTheta:
 346 0000 00000000 		.space	4
 347              		.section	.bss.uart_thread_wa,"aw",%nobits
 348              		.align	3
 349              		.set	.LANCHOR1,. + 0
 350              		.type	uart_thread_wa, %object
 351              		.size	uart_thread_wa, 536
 352              	uart_thread_wa:
 353 0000 00000000 		.space	536
 353      00000000 
 353      00000000 
 353      00000000 
 353      00000000 
 354              		.section	.rodata.str1.4,"aMS",%progbits,1
 355              		.align	2
 356              	.LC0:
 357 0000 75617274 		.ascii	"uart rx process\000"
 357      20727820 
 357      70726F63 
 357      65737300 
 358              	.LC1:
 359 0010 75617274 		.ascii	"uart_process_thread\015\012\000"
 359      5F70726F 
 359      63657373 
 359      5F746872 
 359      6561640D 
 360 0026 0000     		.space	2
 361              	.LC2:
 362 0028 25662020 		.ascii	"%f   \000"
 362      2000
 363 002e 0000     		.space	2
 364              	.LC3:
 365 0030 25662020 		.ascii	"%f   \015\012 \000"
 365      200D0A20 
 365      00
 366 0039 000000   		.space	3
 367              	.LC4:
 368 003c 4D61696E 		.ascii	"Main periodic\000"
 368      20706572 
 368      696F6469 
 368      6300
 369 004a 0000     		.space	2
 370              	.LC5:
 371 004c 70657269 		.ascii	"periodic_thread\015\012\000"
 371      6F646963 
 371      5F746872 
 371      6561640D 
 371      0A00
 372 005e 0000     		.space	2
 373              	.LC6:
 374 0060 6F726F63 		.ascii	"oroca_bldc\015\012\000"
 374      615F626C 
 374      64630D0A 
 374      00
 375 006d 000000   		.space	3
ARM GAS  C:\Users\IDONNO~1\AppData\Local\Temp\ccrByNBb.s 			page 8


 376              	.LC7:
 377 0070 626C6463 		.ascii	"bldc_start\015\012\000"
 377      5F737461 
 377      72740D0A 
 377      00
 378              		.section	.bss.periodic_thread_wa,"aw",%nobits
 379              		.align	3
 380              		.set	.LANCHOR0,. + 0
 381              		.type	periodic_thread_wa, %object
 382              		.size	periodic_thread_wa, 1432
 383              	periodic_thread_wa:
 384 0000 00000000 		.space	1432
 384      00000000 
 384      00000000 
 384      00000000 
 384      00000000 
 385              		.text
 386              	.Letext0:
 387              		.file 3 "c:\\program files (x86)\\gnu tools arm embedded\\5.2 2015q4\\lib\\gcc\\arm-none-eabi\\5.2
 388              		.file 4 "c:\\program files (x86)\\gnu tools arm embedded\\5.2 2015q4\\arm-none-eabi\\include\\mach
 389              		.file 5 "c:\\program files (x86)\\gnu tools arm embedded\\5.2 2015q4\\arm-none-eabi\\include\\sys\
 390              		.file 6 "lib/ChibiOS_3.0.2/os/rt/ports/ARMCMx/compilers/GCC/chtypes.h"
 391              		.file 7 "lib/ChibiOS_3.0.2/os/rt/include/chsystypes.h"
 392              		.file 8 "lib/ChibiOS_3.0.2/os/rt/include/chschd.h"
 393              		.file 9 "lib/ChibiOS_3.0.2/os/ext/CMSIS/ST/stm32f407xx.h"
 394              		.file 10 "lib/ChibiOS_3.0.2/os/rt/ports/ARMCMx/chcore.h"
 395              		.file 11 "lib/ChibiOS_3.0.2/os/rt/ports/ARMCMx/chcore_v7m.h"
 396              		.file 12 "lib/ChibiOS_3.0.2/os/rt/include/chtm.h"
 397              		.file 13 "lib/ChibiOS_3.0.2/os/rt/include/chsem.h"
 398              		.file 14 "lib/ChibiOS_3.0.2/os/rt/include/chmtx.h"
 399              		.file 15 "lib/ChibiOS_3.0.2/os/rt/include/chevents.h"
 400              		.file 16 "lib/ChibiOS_3.0.2/os/rt/include/chqueues.h"
 401              		.file 17 "lib/ChibiOS_3.0.2/os/hal/ports/STM32/LLD/GPIOv2/pal_lld.h"
 402              		.file 18 "lib/ChibiOS_3.0.2/os/hal/include/serial.h"
 403              		.file 19 "src/bldc/mcpwm.h"
 404              		.file 20 "lib/ChibiOS_3.0.2/os/hal/ports/STM32/LLD/USARTv1/serial_lld.h"
 405              		.file 21 "lib/ChibiOS_3.0.2/os/ext/CMSIS/include/core_cm4.h"
 406              		.file 22 "src/core/uart3_print.h"
 407              		.file 23 "lib/ChibiOS_3.0.2/os/rt/include/chthreads.h"
 408              		.file 24 "lib/ChibiOS_3.0.2/os/hal/include/hal.h"
 409              		.file 25 "lib/ChibiOS_3.0.2/os/rt/include/chsys.h"
 410              		.file 26 "lib/hwconf/hw.h"
 411              		.section	.debug_info,"",%progbits
 412              	.Ldebug_info0:
 413 0000 A2100000 		.4byte	0x10a2
 414 0004 0400     		.2byte	0x4
 415 0006 00000000 		.4byte	.Ldebug_abbrev0
 416 000a 04       		.byte	0x4
 417 000b 01       		.uleb128 0x1
 418 000c 17050000 		.4byte	.LASF193
 419 0010 0C       		.byte	0xc
 420 0011 61080000 		.4byte	.LASF194
 421 0015 6C020000 		.4byte	.LASF195
 422 0019 30000000 		.4byte	.Ldebug_ranges0+0x30
 423 001d 00000000 		.4byte	0
 424 0021 00000000 		.4byte	.Ldebug_line0
 425 0025 02       		.uleb128 0x2
ARM GAS  C:\Users\IDONNO~1\AppData\Local\Temp\ccrByNBb.s 			page 9


 426 0026 04       		.byte	0x4
 427 0027 05       		.byte	0x5
 428 0028 696E7400 		.ascii	"int\000"
 429 002c 03       		.uleb128 0x3
 430 002d 11030000 		.4byte	.LASF2
 431 0031 03       		.byte	0x3
 432 0032 D8       		.byte	0xd8
 433 0033 37000000 		.4byte	0x37
 434 0037 04       		.uleb128 0x4
 435 0038 04       		.byte	0x4
 436 0039 07       		.byte	0x7
 437 003a CC000000 		.4byte	.LASF0
 438 003e 04       		.uleb128 0x4
 439 003f 01       		.byte	0x1
 440 0040 06       		.byte	0x6
 441 0041 78080000 		.4byte	.LASF1
 442 0045 03       		.uleb128 0x3
 443 0046 3F070000 		.4byte	.LASF3
 444 004a 04       		.byte	0x4
 445 004b 1D       		.byte	0x1d
 446 004c 50000000 		.4byte	0x50
 447 0050 04       		.uleb128 0x4
 448 0051 01       		.byte	0x1
 449 0052 08       		.byte	0x8
 450 0053 D1070000 		.4byte	.LASF4
 451 0057 04       		.uleb128 0x4
 452 0058 02       		.byte	0x2
 453 0059 05       		.byte	0x5
 454 005a AC060000 		.4byte	.LASF5
 455 005e 03       		.uleb128 0x3
 456 005f 9F020000 		.4byte	.LASF6
 457 0063 04       		.byte	0x4
 458 0064 2B       		.byte	0x2b
 459 0065 69000000 		.4byte	0x69
 460 0069 04       		.uleb128 0x4
 461 006a 02       		.byte	0x2
 462 006b 07       		.byte	0x7
 463 006c 3B060000 		.4byte	.LASF7
 464 0070 03       		.uleb128 0x3
 465 0071 03010000 		.4byte	.LASF8
 466 0075 04       		.byte	0x4
 467 0076 3F       		.byte	0x3f
 468 0077 7B000000 		.4byte	0x7b
 469 007b 04       		.uleb128 0x4
 470 007c 04       		.byte	0x4
 471 007d 05       		.byte	0x5
 472 007e E3060000 		.4byte	.LASF9
 473 0082 03       		.uleb128 0x3
 474 0083 DF070000 		.4byte	.LASF10
 475 0087 04       		.byte	0x4
 476 0088 41       		.byte	0x41
 477 0089 8D000000 		.4byte	0x8d
 478 008d 04       		.uleb128 0x4
 479 008e 04       		.byte	0x4
 480 008f 07       		.byte	0x7
 481 0090 B2040000 		.4byte	.LASF11
 482 0094 04       		.uleb128 0x4
ARM GAS  C:\Users\IDONNO~1\AppData\Local\Temp\ccrByNBb.s 			page 10


 483 0095 08       		.byte	0x8
 484 0096 05       		.byte	0x5
 485 0097 AE030000 		.4byte	.LASF12
 486 009b 03       		.uleb128 0x3
 487 009c 36030000 		.4byte	.LASF13
 488 00a0 04       		.byte	0x4
 489 00a1 5B       		.byte	0x5b
 490 00a2 A6000000 		.4byte	0xa6
 491 00a6 04       		.uleb128 0x4
 492 00a7 08       		.byte	0x8
 493 00a8 07       		.byte	0x7
 494 00a9 44020000 		.4byte	.LASF14
 495 00ad 03       		.uleb128 0x3
 496 00ae CC030000 		.4byte	.LASF15
 497 00b2 05       		.byte	0x5
 498 00b3 14       		.byte	0x14
 499 00b4 45000000 		.4byte	0x45
 500 00b8 03       		.uleb128 0x3
 501 00b9 61060000 		.4byte	.LASF16
 502 00bd 05       		.byte	0x5
 503 00be 1A       		.byte	0x1a
 504 00bf 5E000000 		.4byte	0x5e
 505 00c3 03       		.uleb128 0x3
 506 00c4 AC070000 		.4byte	.LASF17
 507 00c8 05       		.byte	0x5
 508 00c9 1F       		.byte	0x1f
 509 00ca 70000000 		.4byte	0x70
 510 00ce 03       		.uleb128 0x3
 511 00cf D9000000 		.4byte	.LASF18
 512 00d3 05       		.byte	0x5
 513 00d4 20       		.byte	0x20
 514 00d5 82000000 		.4byte	0x82
 515 00d9 03       		.uleb128 0x3
 516 00da 1D070000 		.4byte	.LASF19
 517 00de 05       		.byte	0x5
 518 00df 26       		.byte	0x26
 519 00e0 9B000000 		.4byte	0x9b
 520 00e4 05       		.uleb128 0x5
 521 00e5 C3000000 		.4byte	0xc3
 522 00e9 05       		.uleb128 0x5
 523 00ea CE000000 		.4byte	0xce
 524 00ee 03       		.uleb128 0x3
 525 00ef 90060000 		.4byte	.LASF20
 526 00f3 06       		.byte	0x6
 527 00f4 45       		.byte	0x45
 528 00f5 CE000000 		.4byte	0xce
 529 00f9 03       		.uleb128 0x3
 530 00fa FC040000 		.4byte	.LASF21
 531 00fe 06       		.byte	0x6
 532 00ff 48       		.byte	0x48
 533 0100 AD000000 		.4byte	0xad
 534 0104 03       		.uleb128 0x3
 535 0105 A5030000 		.4byte	.LASF22
 536 0109 06       		.byte	0x6
 537 010a 49       		.byte	0x49
 538 010b AD000000 		.4byte	0xad
 539 010f 03       		.uleb128 0x3
ARM GAS  C:\Users\IDONNO~1\AppData\Local\Temp\ccrByNBb.s 			page 11


 540 0110 86070000 		.4byte	.LASF23
 541 0114 06       		.byte	0x6
 542 0115 4A       		.byte	0x4a
 543 0116 AD000000 		.4byte	0xad
 544 011a 03       		.uleb128 0x3
 545 011b 90040000 		.4byte	.LASF24
 546 011f 06       		.byte	0x6
 547 0120 4B       		.byte	0x4b
 548 0121 AD000000 		.4byte	0xad
 549 0125 03       		.uleb128 0x3
 550 0126 2B020000 		.4byte	.LASF25
 551 012a 06       		.byte	0x6
 552 012b 4C       		.byte	0x4c
 553 012c CE000000 		.4byte	0xce
 554 0130 03       		.uleb128 0x3
 555 0131 41040000 		.4byte	.LASF26
 556 0135 06       		.byte	0x6
 557 0136 4D       		.byte	0x4d
 558 0137 C3000000 		.4byte	0xc3
 559 013b 03       		.uleb128 0x3
 560 013c EE010000 		.4byte	.LASF27
 561 0140 06       		.byte	0x6
 562 0141 4F       		.byte	0x4f
 563 0142 CE000000 		.4byte	0xce
 564 0146 03       		.uleb128 0x3
 565 0147 CF040000 		.4byte	.LASF28
 566 014b 06       		.byte	0x6
 567 014c 50       		.byte	0x50
 568 014d CE000000 		.4byte	0xce
 569 0151 03       		.uleb128 0x3
 570 0152 AA020000 		.4byte	.LASF29
 571 0156 06       		.byte	0x6
 572 0157 51       		.byte	0x51
 573 0158 C3000000 		.4byte	0xc3
 574 015c 03       		.uleb128 0x3
 575 015d 8C000000 		.4byte	.LASF30
 576 0161 07       		.byte	0x7
 577 0162 33       		.byte	0x33
 578 0163 CE000000 		.4byte	0xce
 579 0167 03       		.uleb128 0x3
 580 0168 F9020000 		.4byte	.LASF31
 581 016c 07       		.byte	0x7
 582 016d 3F       		.byte	0x3f
 583 016e 72010000 		.4byte	0x172
 584 0172 06       		.uleb128 0x6
 585 0173 F4030000 		.4byte	.LASF53
 586 0177 48       		.byte	0x48
 587 0178 08       		.byte	0x8
 588 0179 C2       		.byte	0xc2
 589 017a 77020000 		.4byte	0x277
 590 017e 07       		.uleb128 0x7
 591 017f 16070000 		.4byte	.LASF32
 592 0183 08       		.byte	0x8
 593 0184 C3       		.byte	0xc3
 594 0185 82020000 		.4byte	0x282
 595 0189 00       		.byte	0
 596 018a 07       		.uleb128 0x7
ARM GAS  C:\Users\IDONNO~1\AppData\Local\Temp\ccrByNBb.s 			page 12


 597 018b 76070000 		.4byte	.LASF33
 598 018f 08       		.byte	0x8
 599 0190 C5       		.byte	0xc5
 600 0191 82020000 		.4byte	0x282
 601 0195 04       		.byte	0x4
 602 0196 07       		.uleb128 0x7
 603 0197 71000000 		.4byte	.LASF34
 604 019b 08       		.byte	0x8
 605 019c C7       		.byte	0xc7
 606 019d 25010000 		.4byte	0x125
 607 01a1 08       		.byte	0x8
 608 01a2 07       		.uleb128 0x7
 609 01a3 26070000 		.4byte	.LASF35
 610 01a7 08       		.byte	0x8
 611 01a8 C8       		.byte	0xc8
 612 01a9 21050000 		.4byte	0x521
 613 01ad 0C       		.byte	0xc
 614 01ae 07       		.uleb128 0x7
 615 01af D4020000 		.4byte	.LASF36
 616 01b3 08       		.byte	0x8
 617 01b4 CA       		.byte	0xca
 618 01b5 82020000 		.4byte	0x282
 619 01b9 10       		.byte	0x10
 620 01ba 07       		.uleb128 0x7
 621 01bb BC030000 		.4byte	.LASF37
 622 01bf 08       		.byte	0x8
 623 01c0 CB       		.byte	0xcb
 624 01c1 82020000 		.4byte	0x282
 625 01c5 14       		.byte	0x14
 626 01c6 07       		.uleb128 0x7
 627 01c7 69030000 		.4byte	.LASF38
 628 01cb 08       		.byte	0x8
 629 01cc D2       		.byte	0xd2
 630 01cd 66070000 		.4byte	0x766
 631 01d1 18       		.byte	0x18
 632 01d2 07       		.uleb128 0x7
 633 01d3 C4030000 		.4byte	.LASF39
 634 01d7 08       		.byte	0x8
 635 01d8 DD       		.byte	0xdd
 636 01d9 04010000 		.4byte	0x104
 637 01dd 1C       		.byte	0x1c
 638 01de 07       		.uleb128 0x7
 639 01df 64040000 		.4byte	.LASF40
 640 01e3 08       		.byte	0x8
 641 01e4 E1       		.byte	0xe1
 642 01e5 F9000000 		.4byte	0xf9
 643 01e9 1D       		.byte	0x1d
 644 01ea 07       		.uleb128 0x7
 645 01eb 3A080000 		.4byte	.LASF41
 646 01ef 08       		.byte	0x8
 647 01f0 E6       		.byte	0xe6
 648 01f1 0F010000 		.4byte	0x10f
 649 01f5 1E       		.byte	0x1e
 650 01f6 07       		.uleb128 0x7
 651 01f7 28080000 		.4byte	.LASF42
 652 01fb 08       		.byte	0x8
 653 01fc EC       		.byte	0xec
ARM GAS  C:\Users\IDONNO~1\AppData\Local\Temp\ccrByNBb.s 			page 13


 654 01fd 1A010000 		.4byte	0x11a
 655 0201 1F       		.byte	0x1f
 656 0202 07       		.uleb128 0x7
 657 0203 57000000 		.4byte	.LASF43
 658 0207 08       		.byte	0x8
 659 0208 F3       		.byte	0xf3
 660 0209 78070000 		.4byte	0x778
 661 020d 20       		.byte	0x20
 662 020e 08       		.uleb128 0x8
 663 020f 705F7500 		.ascii	"p_u\000"
 664 0213 08       		.byte	0x8
 665 0214 3101     		.2byte	0x131
 666 0216 A1060000 		.4byte	0x6a1
 667 021a 24       		.byte	0x24
 668 021b 09       		.uleb128 0x9
 669 021c F1000000 		.4byte	.LASF44
 670 0220 08       		.byte	0x8
 671 0221 3601     		.2byte	0x136
 672 0223 88020000 		.4byte	0x288
 673 0227 28       		.byte	0x28
 674 0228 09       		.uleb128 0x9
 675 0229 C1000000 		.4byte	.LASF45
 676 022d 08       		.byte	0x8
 677 022e 3C01     		.2byte	0x13c
 678 0230 AC020000 		.4byte	0x2ac
 679 0234 2C       		.byte	0x2c
 680 0235 09       		.uleb128 0x9
 681 0236 F6040000 		.4byte	.LASF46
 682 023a 08       		.byte	0x8
 683 023b 4001     		.2byte	0x140
 684 023d 30010000 		.4byte	0x130
 685 0241 34       		.byte	0x34
 686 0242 09       		.uleb128 0x9
 687 0243 C5060000 		.4byte	.LASF47
 688 0247 08       		.byte	0x8
 689 0248 4601     		.2byte	0x146
 690 024a 3B010000 		.4byte	0x13b
 691 024e 38       		.byte	0x38
 692 024f 09       		.uleb128 0x9
 693 0250 EA030000 		.4byte	.LASF48
 694 0254 08       		.byte	0x8
 695 0255 4D01     		.2byte	0x14d
 696 0257 60070000 		.4byte	0x760
 697 025b 3C       		.byte	0x3c
 698 025c 09       		.uleb128 0x9
 699 025d A1060000 		.4byte	.LASF49
 700 0261 08       		.byte	0x8
 701 0262 5101     		.2byte	0x151
 702 0264 25010000 		.4byte	0x125
 703 0268 40       		.byte	0x40
 704 0269 09       		.uleb128 0x9
 705 026a E2030000 		.4byte	.LASF50
 706 026e 08       		.byte	0x8
 707 026f 5801     		.2byte	0x158
 708 0271 5F030000 		.4byte	0x35f
 709 0275 44       		.byte	0x44
 710 0276 00       		.byte	0
ARM GAS  C:\Users\IDONNO~1\AppData\Local\Temp\ccrByNBb.s 			page 14


 711 0277 03       		.uleb128 0x3
 712 0278 6A060000 		.4byte	.LASF51
 713 027c 07       		.byte	0x7
 714 027d 44       		.byte	0x44
 715 027e 82020000 		.4byte	0x282
 716 0282 0A       		.uleb128 0xa
 717 0283 04       		.byte	0x4
 718 0284 67010000 		.4byte	0x167
 719 0288 03       		.uleb128 0x3
 720 0289 E2000000 		.4byte	.LASF52
 721 028d 07       		.byte	0x7
 722 028e 49       		.byte	0x49
 723 028f 93020000 		.4byte	0x293
 724 0293 06       		.uleb128 0x6
 725 0294 14000000 		.4byte	.LASF54
 726 0298 04       		.byte	0x4
 727 0299 08       		.byte	0x8
 728 029a B0       		.byte	0xb0
 729 029b AC020000 		.4byte	0x2ac
 730 029f 07       		.uleb128 0x7
 731 02a0 16070000 		.4byte	.LASF32
 732 02a4 08       		.byte	0x8
 733 02a5 B1       		.byte	0xb1
 734 02a6 82020000 		.4byte	0x282
 735 02aa 00       		.byte	0
 736 02ab 00       		.byte	0
 737 02ac 03       		.uleb128 0x3
 738 02ad 24000000 		.4byte	.LASF55
 739 02b1 07       		.byte	0x7
 740 02b2 50       		.byte	0x50
 741 02b3 B7020000 		.4byte	0x2b7
 742 02b7 06       		.uleb128 0x6
 743 02b8 13040000 		.4byte	.LASF56
 744 02bc 08       		.byte	0x8
 745 02bd 08       		.byte	0x8
 746 02be B7       		.byte	0xb7
 747 02bf DC020000 		.4byte	0x2dc
 748 02c3 07       		.uleb128 0x7
 749 02c4 16070000 		.4byte	.LASF32
 750 02c8 08       		.byte	0x8
 751 02c9 B8       		.byte	0xb8
 752 02ca 82020000 		.4byte	0x282
 753 02ce 00       		.byte	0
 754 02cf 07       		.uleb128 0x7
 755 02d0 76070000 		.4byte	.LASF33
 756 02d4 08       		.byte	0x8
 757 02d5 B9       		.byte	0xb9
 758 02d6 82020000 		.4byte	0x282
 759 02da 04       		.byte	0x4
 760 02db 00       		.byte	0
 761 02dc 03       		.uleb128 0x3
 762 02dd 9F070000 		.4byte	.LASF57
 763 02e1 07       		.byte	0x7
 764 02e2 57       		.byte	0x57
 765 02e3 E7020000 		.4byte	0x2e7
 766 02e7 0B       		.uleb128 0xb
 767 02e8 2C010000 		.4byte	.LASF58
ARM GAS  C:\Users\IDONNO~1\AppData\Local\Temp\ccrByNBb.s 			page 15


 768 02ec 1C       		.byte	0x1c
 769 02ed 08       		.byte	0x8
 770 02ee 9001     		.2byte	0x190
 771 02f0 43030000 		.4byte	0x343
 772 02f4 09       		.uleb128 0x9
 773 02f5 39040000 		.4byte	.LASF59
 774 02f9 08       		.byte	0x8
 775 02fa 9101     		.2byte	0x191
 776 02fc AC020000 		.4byte	0x2ac
 777 0300 00       		.byte	0
 778 0301 09       		.uleb128 0x9
 779 0302 FA010000 		.4byte	.LASF60
 780 0306 08       		.byte	0x8
 781 0307 9201     		.2byte	0x192
 782 0309 25010000 		.4byte	0x125
 783 030d 08       		.byte	0x8
 784 030e 09       		.uleb128 0x9
 785 030f A2080000 		.4byte	.LASF61
 786 0313 08       		.byte	0x8
 787 0314 9401     		.2byte	0x194
 788 0316 21050000 		.4byte	0x521
 789 031a 0C       		.byte	0xc
 790 031b 09       		.uleb128 0x9
 791 031c 95030000 		.4byte	.LASF62
 792 0320 08       		.byte	0x8
 793 0321 9701     		.2byte	0x197
 794 0323 82020000 		.4byte	0x282
 795 0327 10       		.byte	0x10
 796 0328 09       		.uleb128 0x9
 797 0329 9A040000 		.4byte	.LASF63
 798 032d 08       		.byte	0x8
 799 032e 9801     		.2byte	0x198
 800 0330 82020000 		.4byte	0x282
 801 0334 14       		.byte	0x14
 802 0335 09       		.uleb128 0x9
 803 0336 B6060000 		.4byte	.LASF64
 804 033a 08       		.byte	0x8
 805 033b 9B01     		.2byte	0x19b
 806 033d 82020000 		.4byte	0x282
 807 0341 18       		.byte	0x18
 808 0342 00       		.byte	0
 809 0343 03       		.uleb128 0x3
 810 0344 77010000 		.4byte	.LASF65
 811 0348 07       		.byte	0x7
 812 0349 5C       		.byte	0x5c
 813 034a 4E030000 		.4byte	0x34e
 814 034e 0A       		.uleb128 0xa
 815 034f 04       		.byte	0x4
 816 0350 54030000 		.4byte	0x354
 817 0354 0C       		.uleb128 0xc
 818 0355 5F030000 		.4byte	0x35f
 819 0359 0D       		.uleb128 0xd
 820 035a 5F030000 		.4byte	0x35f
 821 035e 00       		.byte	0
 822 035f 0E       		.uleb128 0xe
 823 0360 04       		.byte	0x4
 824 0361 03       		.uleb128 0x3
ARM GAS  C:\Users\IDONNO~1\AppData\Local\Temp\ccrByNBb.s 			page 16


 825 0362 6C040000 		.4byte	.LASF66
 826 0366 07       		.byte	0x7
 827 0367 61       		.byte	0x61
 828 0368 6C030000 		.4byte	0x36c
 829 036c 0B       		.uleb128 0xb
 830 036d 33020000 		.4byte	.LASF67
 831 0371 14       		.byte	0x14
 832 0372 08       		.byte	0x8
 833 0373 6B01     		.2byte	0x16b
 834 0375 BB030000 		.4byte	0x3bb
 835 0379 09       		.uleb128 0x9
 836 037a 47080000 		.4byte	.LASF68
 837 037e 08       		.byte	0x8
 838 037f 6C01     		.2byte	0x16c
 839 0381 7D070000 		.4byte	0x77d
 840 0385 00       		.byte	0
 841 0386 09       		.uleb128 0x9
 842 0387 C2080000 		.4byte	.LASF69
 843 038b 08       		.byte	0x8
 844 038c 6D01     		.2byte	0x16d
 845 038e 7D070000 		.4byte	0x77d
 846 0392 04       		.byte	0x4
 847 0393 09       		.uleb128 0x9
 848 0394 82030000 		.4byte	.LASF70
 849 0398 08       		.byte	0x8
 850 0399 6E01     		.2byte	0x16e
 851 039b 5C010000 		.4byte	0x15c
 852 039f 08       		.byte	0x8
 853 03a0 09       		.uleb128 0x9
 854 03a1 B3080000 		.4byte	.LASF71
 855 03a5 08       		.byte	0x8
 856 03a6 6F01     		.2byte	0x16f
 857 03a8 43030000 		.4byte	0x343
 858 03ac 0C       		.byte	0xc
 859 03ad 09       		.uleb128 0x9
 860 03ae 01020000 		.4byte	.LASF72
 861 03b2 08       		.byte	0x8
 862 03b3 7101     		.2byte	0x171
 863 03b5 5F030000 		.4byte	0x35f
 864 03b9 10       		.byte	0x10
 865 03ba 00       		.byte	0
 866 03bb 03       		.uleb128 0x3
 867 03bc EA070000 		.4byte	.LASF73
 868 03c0 07       		.byte	0x7
 869 03c1 66       		.byte	0x66
 870 03c2 C6030000 		.4byte	0x3c6
 871 03c6 0B       		.uleb128 0xb
 872 03c7 E2020000 		.4byte	.LASF74
 873 03cb 10       		.byte	0x10
 874 03cc 08       		.byte	0x8
 875 03cd 7B01     		.2byte	0x17b
 876 03cf 08040000 		.4byte	0x408
 877 03d3 09       		.uleb128 0x9
 878 03d4 47080000 		.4byte	.LASF68
 879 03d8 08       		.byte	0x8
 880 03d9 7C01     		.2byte	0x17c
 881 03db 7D070000 		.4byte	0x77d
ARM GAS  C:\Users\IDONNO~1\AppData\Local\Temp\ccrByNBb.s 			page 17


 882 03df 00       		.byte	0
 883 03e0 09       		.uleb128 0x9
 884 03e1 C2080000 		.4byte	.LASF69
 885 03e5 08       		.byte	0x8
 886 03e6 7E01     		.2byte	0x17e
 887 03e8 7D070000 		.4byte	0x77d
 888 03ec 04       		.byte	0x4
 889 03ed 09       		.uleb128 0x9
 890 03ee 82030000 		.4byte	.LASF70
 891 03f2 08       		.byte	0x8
 892 03f3 8001     		.2byte	0x180
 893 03f5 5C010000 		.4byte	0x15c
 894 03f9 08       		.byte	0x8
 895 03fa 09       		.uleb128 0x9
 896 03fb AB000000 		.4byte	.LASF75
 897 03ff 08       		.byte	0x8
 898 0400 8201     		.2byte	0x182
 899 0402 78070000 		.4byte	0x778
 900 0406 0C       		.byte	0xc
 901 0407 00       		.byte	0
 902 0408 03       		.uleb128 0x3
 903 0409 04040000 		.4byte	.LASF76
 904 040d 07       		.byte	0x7
 905 040e 6B       		.byte	0x6b
 906 040f 13040000 		.4byte	0x413
 907 0413 0B       		.uleb128 0xb
 908 0414 8D010000 		.4byte	.LASF77
 909 0418 04       		.byte	0x4
 910 0419 08       		.byte	0x8
 911 041a A201     		.2byte	0x1a2
 912 041c 2E040000 		.4byte	0x42e
 913 0420 09       		.uleb128 0x9
 914 0421 0A080000 		.4byte	.LASF78
 915 0425 08       		.byte	0x8
 916 0426 AA01     		.2byte	0x1aa
 917 0428 83070000 		.4byte	0x783
 918 042c 00       		.byte	0
 919 042d 00       		.byte	0
 920 042e 03       		.uleb128 0x3
 921 042f 4F080000 		.4byte	.LASF79
 922 0433 07       		.byte	0x7
 923 0434 70       		.byte	0x70
 924 0435 39040000 		.4byte	0x439
 925 0439 0F       		.uleb128 0xf
 926 043a 05070000 		.4byte	.LASF80
 927 043e 5802     		.2byte	0x258
 928 0440 08       		.byte	0x8
 929 0441 C201     		.2byte	0x1c2
 930 0443 95040000 		.4byte	0x495
 931 0447 09       		.uleb128 0x9
 932 0448 34070000 		.4byte	.LASF81
 933 044c 08       		.byte	0x8
 934 044d C601     		.2byte	0x1c6
 935 044f DC020000 		.4byte	0x2dc
 936 0453 00       		.byte	0
 937 0454 09       		.uleb128 0x9
 938 0455 1E010000 		.4byte	.LASF82
ARM GAS  C:\Users\IDONNO~1\AppData\Local\Temp\ccrByNBb.s 			page 18


 939 0459 08       		.byte	0x8
 940 045a CA01     		.2byte	0x1ca
 941 045c BB030000 		.4byte	0x3bb
 942 0460 1C       		.byte	0x1c
 943 0461 08       		.uleb128 0x8
 944 0462 64626700 		.ascii	"dbg\000"
 945 0466 08       		.byte	0x8
 946 0467 CE01     		.2byte	0x1ce
 947 0469 08040000 		.4byte	0x408
 948 046d 2C       		.byte	0x2c
 949 046e 09       		.uleb128 0x9
 950 046f 04050000 		.4byte	.LASF83
 951 0473 08       		.byte	0x8
 952 0474 D201     		.2byte	0x1d2
 953 0476 67010000 		.4byte	0x167
 954 047a 30       		.byte	0x30
 955 047b 08       		.uleb128 0x8
 956 047c 746D00   		.ascii	"tm\000"
 957 047f 08       		.byte	0x8
 958 0480 D701     		.2byte	0x1d7
 959 0482 96060000 		.4byte	0x696
 960 0486 78       		.byte	0x78
 961 0487 09       		.uleb128 0x9
 962 0488 3A010000 		.4byte	.LASF84
 963 048c 08       		.byte	0x8
 964 048d E301     		.2byte	0x1e3
 965 048f 88070000 		.4byte	0x788
 966 0493 80       		.byte	0x80
 967 0494 00       		.byte	0
 968 0495 04       		.uleb128 0x4
 969 0496 04       		.byte	0x4
 970 0497 07       		.byte	0x7
 971 0498 7D070000 		.4byte	.LASF85
 972 049c 10       		.uleb128 0x10
 973 049d 1C       		.byte	0x1c
 974 049e 09       		.byte	0x9
 975 049f 0903     		.2byte	0x309
 976 04a1 FF040000 		.4byte	0x4ff
 977 04a5 08       		.uleb128 0x8
 978 04a6 535200   		.ascii	"SR\000"
 979 04a9 09       		.byte	0x9
 980 04aa 0B03     		.2byte	0x30b
 981 04ac E9000000 		.4byte	0xe9
 982 04b0 00       		.byte	0
 983 04b1 08       		.uleb128 0x8
 984 04b2 445200   		.ascii	"DR\000"
 985 04b5 09       		.byte	0x9
 986 04b6 0C03     		.2byte	0x30c
 987 04b8 E9000000 		.4byte	0xe9
 988 04bc 04       		.byte	0x4
 989 04bd 08       		.uleb128 0x8
 990 04be 42525200 		.ascii	"BRR\000"
 991 04c2 09       		.byte	0x9
 992 04c3 0D03     		.2byte	0x30d
 993 04c5 E9000000 		.4byte	0xe9
 994 04c9 08       		.byte	0x8
 995 04ca 08       		.uleb128 0x8
ARM GAS  C:\Users\IDONNO~1\AppData\Local\Temp\ccrByNBb.s 			page 19


 996 04cb 43523100 		.ascii	"CR1\000"
 997 04cf 09       		.byte	0x9
 998 04d0 0E03     		.2byte	0x30e
 999 04d2 E9000000 		.4byte	0xe9
 1000 04d6 0C       		.byte	0xc
 1001 04d7 08       		.uleb128 0x8
 1002 04d8 43523200 		.ascii	"CR2\000"
 1003 04dc 09       		.byte	0x9
 1004 04dd 0F03     		.2byte	0x30f
 1005 04df E9000000 		.4byte	0xe9
 1006 04e3 10       		.byte	0x10
 1007 04e4 08       		.uleb128 0x8
 1008 04e5 43523300 		.ascii	"CR3\000"
 1009 04e9 09       		.byte	0x9
 1010 04ea 1003     		.2byte	0x310
 1011 04ec E9000000 		.4byte	0xe9
 1012 04f0 14       		.byte	0x14
 1013 04f1 09       		.uleb128 0x9
 1014 04f2 9D010000 		.4byte	.LASF86
 1015 04f6 09       		.byte	0x9
 1016 04f7 1103     		.2byte	0x311
 1017 04f9 E9000000 		.4byte	0xe9
 1018 04fd 18       		.byte	0x18
 1019 04fe 00       		.byte	0
 1020 04ff 11       		.uleb128 0x11
 1021 0500 41030000 		.4byte	.LASF87
 1022 0504 09       		.byte	0x9
 1023 0505 1203     		.2byte	0x312
 1024 0507 9C040000 		.4byte	0x49c
 1025 050b 03       		.uleb128 0x3
 1026 050c 68000000 		.4byte	.LASF88
 1027 0510 0A       		.byte	0xa
 1028 0511 65       		.byte	0x65
 1029 0512 5F030000 		.4byte	0x35f
 1030 0516 03       		.uleb128 0x3
 1031 0517 A8080000 		.4byte	.LASF89
 1032 051b 0A       		.byte	0xa
 1033 051c 6D       		.byte	0x6d
 1034 051d D9000000 		.4byte	0xd9
 1035 0521 06       		.uleb128 0x6
 1036 0522 47040000 		.4byte	.LASF90
 1037 0526 04       		.byte	0x4
 1038 0527 0A       		.byte	0xa
 1039 0528 89       		.byte	0x89
 1040 0529 3A050000 		.4byte	0x53a
 1041 052d 12       		.uleb128 0x12
 1042 052e 72313300 		.ascii	"r13\000"
 1043 0532 0A       		.byte	0xa
 1044 0533 8A       		.byte	0x8a
 1045 0534 7B060000 		.4byte	0x67b
 1046 0538 00       		.byte	0
 1047 0539 00       		.byte	0
 1048 053a 06       		.uleb128 0x6
 1049 053b EC060000 		.4byte	.LASF91
 1050 053f 64       		.byte	0x64
 1051 0540 0B       		.byte	0xb
 1052 0541 F4       		.byte	0xf4
ARM GAS  C:\Users\IDONNO~1\AppData\Local\Temp\ccrByNBb.s 			page 20


 1053 0542 7B060000 		.4byte	0x67b
 1054 0546 12       		.uleb128 0x12
 1055 0547 73313600 		.ascii	"s16\000"
 1056 054b 0B       		.byte	0xb
 1057 054c F6       		.byte	0xf6
 1058 054d 0B050000 		.4byte	0x50b
 1059 0551 00       		.byte	0
 1060 0552 12       		.uleb128 0x12
 1061 0553 73313700 		.ascii	"s17\000"
 1062 0557 0B       		.byte	0xb
 1063 0558 F7       		.byte	0xf7
 1064 0559 0B050000 		.4byte	0x50b
 1065 055d 04       		.byte	0x4
 1066 055e 12       		.uleb128 0x12
 1067 055f 73313800 		.ascii	"s18\000"
 1068 0563 0B       		.byte	0xb
 1069 0564 F8       		.byte	0xf8
 1070 0565 0B050000 		.4byte	0x50b
 1071 0569 08       		.byte	0x8
 1072 056a 12       		.uleb128 0x12
 1073 056b 73313900 		.ascii	"s19\000"
 1074 056f 0B       		.byte	0xb
 1075 0570 F9       		.byte	0xf9
 1076 0571 0B050000 		.4byte	0x50b
 1077 0575 0C       		.byte	0xc
 1078 0576 12       		.uleb128 0x12
 1079 0577 73323000 		.ascii	"s20\000"
 1080 057b 0B       		.byte	0xb
 1081 057c FA       		.byte	0xfa
 1082 057d 0B050000 		.4byte	0x50b
 1083 0581 10       		.byte	0x10
 1084 0582 12       		.uleb128 0x12
 1085 0583 73323100 		.ascii	"s21\000"
 1086 0587 0B       		.byte	0xb
 1087 0588 FB       		.byte	0xfb
 1088 0589 0B050000 		.4byte	0x50b
 1089 058d 14       		.byte	0x14
 1090 058e 12       		.uleb128 0x12
 1091 058f 73323200 		.ascii	"s22\000"
 1092 0593 0B       		.byte	0xb
 1093 0594 FC       		.byte	0xfc
 1094 0595 0B050000 		.4byte	0x50b
 1095 0599 18       		.byte	0x18
 1096 059a 12       		.uleb128 0x12
 1097 059b 73323300 		.ascii	"s23\000"
 1098 059f 0B       		.byte	0xb
 1099 05a0 FD       		.byte	0xfd
 1100 05a1 0B050000 		.4byte	0x50b
 1101 05a5 1C       		.byte	0x1c
 1102 05a6 12       		.uleb128 0x12
 1103 05a7 73323400 		.ascii	"s24\000"
 1104 05ab 0B       		.byte	0xb
 1105 05ac FE       		.byte	0xfe
 1106 05ad 0B050000 		.4byte	0x50b
 1107 05b1 20       		.byte	0x20
 1108 05b2 12       		.uleb128 0x12
 1109 05b3 73323500 		.ascii	"s25\000"
ARM GAS  C:\Users\IDONNO~1\AppData\Local\Temp\ccrByNBb.s 			page 21


 1110 05b7 0B       		.byte	0xb
 1111 05b8 FF       		.byte	0xff
 1112 05b9 0B050000 		.4byte	0x50b
 1113 05bd 24       		.byte	0x24
 1114 05be 08       		.uleb128 0x8
 1115 05bf 73323600 		.ascii	"s26\000"
 1116 05c3 0B       		.byte	0xb
 1117 05c4 0001     		.2byte	0x100
 1118 05c6 0B050000 		.4byte	0x50b
 1119 05ca 28       		.byte	0x28
 1120 05cb 08       		.uleb128 0x8
 1121 05cc 73323700 		.ascii	"s27\000"
 1122 05d0 0B       		.byte	0xb
 1123 05d1 0101     		.2byte	0x101
 1124 05d3 0B050000 		.4byte	0x50b
 1125 05d7 2C       		.byte	0x2c
 1126 05d8 08       		.uleb128 0x8
 1127 05d9 73323800 		.ascii	"s28\000"
 1128 05dd 0B       		.byte	0xb
 1129 05de 0201     		.2byte	0x102
 1130 05e0 0B050000 		.4byte	0x50b
 1131 05e4 30       		.byte	0x30
 1132 05e5 08       		.uleb128 0x8
 1133 05e6 73323900 		.ascii	"s29\000"
 1134 05ea 0B       		.byte	0xb
 1135 05eb 0301     		.2byte	0x103
 1136 05ed 0B050000 		.4byte	0x50b
 1137 05f1 34       		.byte	0x34
 1138 05f2 08       		.uleb128 0x8
 1139 05f3 73333000 		.ascii	"s30\000"
 1140 05f7 0B       		.byte	0xb
 1141 05f8 0401     		.2byte	0x104
 1142 05fa 0B050000 		.4byte	0x50b
 1143 05fe 38       		.byte	0x38
 1144 05ff 08       		.uleb128 0x8
 1145 0600 73333100 		.ascii	"s31\000"
 1146 0604 0B       		.byte	0xb
 1147 0605 0501     		.2byte	0x105
 1148 0607 0B050000 		.4byte	0x50b
 1149 060b 3C       		.byte	0x3c
 1150 060c 08       		.uleb128 0x8
 1151 060d 723400   		.ascii	"r4\000"
 1152 0610 0B       		.byte	0xb
 1153 0611 0701     		.2byte	0x107
 1154 0613 0B050000 		.4byte	0x50b
 1155 0617 40       		.byte	0x40
 1156 0618 08       		.uleb128 0x8
 1157 0619 723500   		.ascii	"r5\000"
 1158 061c 0B       		.byte	0xb
 1159 061d 0801     		.2byte	0x108
 1160 061f 0B050000 		.4byte	0x50b
 1161 0623 44       		.byte	0x44
 1162 0624 08       		.uleb128 0x8
 1163 0625 723600   		.ascii	"r6\000"
 1164 0628 0B       		.byte	0xb
 1165 0629 0901     		.2byte	0x109
 1166 062b 0B050000 		.4byte	0x50b
ARM GAS  C:\Users\IDONNO~1\AppData\Local\Temp\ccrByNBb.s 			page 22


 1167 062f 48       		.byte	0x48
 1168 0630 08       		.uleb128 0x8
 1169 0631 723700   		.ascii	"r7\000"
 1170 0634 0B       		.byte	0xb
 1171 0635 0A01     		.2byte	0x10a
 1172 0637 0B050000 		.4byte	0x50b
 1173 063b 4C       		.byte	0x4c
 1174 063c 08       		.uleb128 0x8
 1175 063d 723800   		.ascii	"r8\000"
 1176 0640 0B       		.byte	0xb
 1177 0641 0B01     		.2byte	0x10b
 1178 0643 0B050000 		.4byte	0x50b
 1179 0647 50       		.byte	0x50
 1180 0648 08       		.uleb128 0x8
 1181 0649 723900   		.ascii	"r9\000"
 1182 064c 0B       		.byte	0xb
 1183 064d 0C01     		.2byte	0x10c
 1184 064f 0B050000 		.4byte	0x50b
 1185 0653 54       		.byte	0x54
 1186 0654 08       		.uleb128 0x8
 1187 0655 72313000 		.ascii	"r10\000"
 1188 0659 0B       		.byte	0xb
 1189 065a 0D01     		.2byte	0x10d
 1190 065c 0B050000 		.4byte	0x50b
 1191 0660 58       		.byte	0x58
 1192 0661 08       		.uleb128 0x8
 1193 0662 72313100 		.ascii	"r11\000"
 1194 0666 0B       		.byte	0xb
 1195 0667 0E01     		.2byte	0x10e
 1196 0669 0B050000 		.4byte	0x50b
 1197 066d 5C       		.byte	0x5c
 1198 066e 08       		.uleb128 0x8
 1199 066f 6C7200   		.ascii	"lr\000"
 1200 0672 0B       		.byte	0xb
 1201 0673 0F01     		.2byte	0x10f
 1202 0675 0B050000 		.4byte	0x50b
 1203 0679 60       		.byte	0x60
 1204 067a 00       		.byte	0
 1205 067b 0A       		.uleb128 0xa
 1206 067c 04       		.byte	0x4
 1207 067d 3A050000 		.4byte	0x53a
 1208 0681 13       		.uleb128 0x13
 1209 0682 04       		.byte	0x4
 1210 0683 0C       		.byte	0xc
 1211 0684 38       		.byte	0x38
 1212 0685 96060000 		.4byte	0x696
 1213 0689 07       		.uleb128 0x7
 1214 068a 18030000 		.4byte	.LASF92
 1215 068e 0C       		.byte	0xc
 1216 068f 3C       		.byte	0x3c
 1217 0690 EE000000 		.4byte	0xee
 1218 0694 00       		.byte	0
 1219 0695 00       		.byte	0
 1220 0696 03       		.uleb128 0x3
 1221 0697 46000000 		.4byte	.LASF93
 1222 069b 0C       		.byte	0xc
 1223 069c 3D       		.byte	0x3d
ARM GAS  C:\Users\IDONNO~1\AppData\Local\Temp\ccrByNBb.s 			page 23


 1224 069d 81060000 		.4byte	0x681
 1225 06a1 14       		.uleb128 0x14
 1226 06a2 04       		.byte	0x4
 1227 06a3 08       		.byte	0x8
 1228 06a4 FA       		.byte	0xfa
 1229 06a5 FE060000 		.4byte	0x6fe
 1230 06a9 15       		.uleb128 0x15
 1231 06aa 78000000 		.4byte	.LASF94
 1232 06ae 08       		.byte	0x8
 1233 06af 0101     		.2byte	0x101
 1234 06b1 30010000 		.4byte	0x130
 1235 06b5 15       		.uleb128 0x15
 1236 06b6 F5080000 		.4byte	.LASF95
 1237 06ba 08       		.byte	0x8
 1238 06bb 0801     		.2byte	0x108
 1239 06bd 30010000 		.4byte	0x130
 1240 06c1 15       		.uleb128 0x15
 1241 06c2 17010000 		.4byte	.LASF96
 1242 06c6 08       		.byte	0x8
 1243 06c7 0F01     		.2byte	0x10f
 1244 06c9 5F030000 		.4byte	0x35f
 1245 06cd 15       		.uleb128 0x15
 1246 06ce 5B080000 		.4byte	.LASF97
 1247 06d2 08       		.byte	0x8
 1248 06d3 1601     		.2byte	0x116
 1249 06d5 FE060000 		.4byte	0x6fe
 1250 06d9 15       		.uleb128 0x15
 1251 06da BB070000 		.4byte	.LASF98
 1252 06de 08       		.byte	0x8
 1253 06df 1E01     		.2byte	0x11e
 1254 06e1 29070000 		.4byte	0x729
 1255 06e5 15       		.uleb128 0x15
 1256 06e6 E5080000 		.4byte	.LASF99
 1257 06ea 08       		.byte	0x8
 1258 06eb 2701     		.2byte	0x127
 1259 06ed 60070000 		.4byte	0x760
 1260 06f1 15       		.uleb128 0x15
 1261 06f2 60010000 		.4byte	.LASF100
 1262 06f6 08       		.byte	0x8
 1263 06f7 2F01     		.2byte	0x12f
 1264 06f9 3B010000 		.4byte	0x13b
 1265 06fd 00       		.byte	0
 1266 06fe 0A       		.uleb128 0xa
 1267 06ff 04       		.byte	0x4
 1268 0700 77020000 		.4byte	0x277
 1269 0704 06       		.uleb128 0x6
 1270 0705 1E020000 		.4byte	.LASF101
 1271 0709 0C       		.byte	0xc
 1272 070a 0D       		.byte	0xd
 1273 070b 34       		.byte	0x34
 1274 070c 29070000 		.4byte	0x729
 1275 0710 07       		.uleb128 0x7
 1276 0711 A3000000 		.4byte	.LASF102
 1277 0715 0D       		.byte	0xd
 1278 0716 35       		.byte	0x35
 1279 0717 AC020000 		.4byte	0x2ac
 1280 071b 00       		.byte	0
ARM GAS  C:\Users\IDONNO~1\AppData\Local\Temp\ccrByNBb.s 			page 24


 1281 071c 07       		.uleb128 0x7
 1282 071d 87010000 		.4byte	.LASF103
 1283 0721 0D       		.byte	0xd
 1284 0722 37       		.byte	0x37
 1285 0723 51010000 		.4byte	0x151
 1286 0727 08       		.byte	0x8
 1287 0728 00       		.byte	0
 1288 0729 0A       		.uleb128 0xa
 1289 072a 04       		.byte	0x4
 1290 072b 04070000 		.4byte	0x704
 1291 072f 06       		.uleb128 0x6
 1292 0730 2D030000 		.4byte	.LASF104
 1293 0734 10       		.byte	0x10
 1294 0735 0E       		.byte	0xe
 1295 0736 39       		.byte	0x39
 1296 0737 60070000 		.4byte	0x760
 1297 073b 07       		.uleb128 0x7
 1298 073c DB060000 		.4byte	.LASF105
 1299 0740 0E       		.byte	0xe
 1300 0741 3A       		.byte	0x3a
 1301 0742 AC020000 		.4byte	0x2ac
 1302 0746 00       		.byte	0
 1303 0747 07       		.uleb128 0x7
 1304 0748 07090000 		.4byte	.LASF106
 1305 074c 0E       		.byte	0xe
 1306 074d 3C       		.byte	0x3c
 1307 074e 82020000 		.4byte	0x282
 1308 0752 08       		.byte	0x8
 1309 0753 07       		.uleb128 0x7
 1310 0754 71080000 		.4byte	.LASF107
 1311 0758 0E       		.byte	0xe
 1312 0759 3E       		.byte	0x3e
 1313 075a A3070000 		.4byte	0x7a3
 1314 075e 0C       		.byte	0xc
 1315 075f 00       		.byte	0
 1316 0760 0A       		.uleb128 0xa
 1317 0761 04       		.byte	0x4
 1318 0762 2F070000 		.4byte	0x72f
 1319 0766 0A       		.uleb128 0xa
 1320 0767 04       		.byte	0x4
 1321 0768 73070000 		.4byte	0x773
 1322 076c 04       		.uleb128 0x4
 1323 076d 01       		.byte	0x1
 1324 076e 08       		.byte	0x8
 1325 076f 63000000 		.4byte	.LASF108
 1326 0773 16       		.uleb128 0x16
 1327 0774 6C070000 		.4byte	0x76c
 1328 0778 05       		.uleb128 0x5
 1329 0779 5C010000 		.4byte	0x15c
 1330 077d 0A       		.uleb128 0xa
 1331 077e 04       		.byte	0x4
 1332 077f 61030000 		.4byte	0x361
 1333 0783 05       		.uleb128 0x5
 1334 0784 66070000 		.4byte	0x766
 1335 0788 17       		.uleb128 0x17
 1336 0789 16050000 		.4byte	0x516
 1337 078d 98070000 		.4byte	0x798
ARM GAS  C:\Users\IDONNO~1\AppData\Local\Temp\ccrByNBb.s 			page 25


 1338 0791 18       		.uleb128 0x18
 1339 0792 95040000 		.4byte	0x495
 1340 0796 3A       		.byte	0x3a
 1341 0797 00       		.byte	0
 1342 0798 03       		.uleb128 0x3
 1343 0799 C9070000 		.4byte	.LASF109
 1344 079d 0E       		.byte	0xe
 1345 079e 34       		.byte	0x34
 1346 079f 2F070000 		.4byte	0x72f
 1347 07a3 0A       		.uleb128 0xa
 1348 07a4 04       		.byte	0x4
 1349 07a5 98070000 		.4byte	0x798
 1350 07a9 03       		.uleb128 0x3
 1351 07aa 8E070000 		.4byte	.LASF110
 1352 07ae 0F       		.byte	0xf
 1353 07af 34       		.byte	0x34
 1354 07b0 B4070000 		.4byte	0x7b4
 1355 07b4 06       		.uleb128 0x6
 1356 07b5 2A040000 		.4byte	.LASF111
 1357 07b9 14       		.byte	0x14
 1358 07ba 0F       		.byte	0xf
 1359 07bb 39       		.byte	0x39
 1360 07bc FD070000 		.4byte	0x7fd
 1361 07c0 07       		.uleb128 0x7
 1362 07c1 EE040000 		.4byte	.LASF112
 1363 07c5 0F       		.byte	0xf
 1364 07c6 3A       		.byte	0x3a
 1365 07c7 FD070000 		.4byte	0x7fd
 1366 07cb 00       		.byte	0
 1367 07cc 07       		.uleb128 0x7
 1368 07cd CA080000 		.4byte	.LASF113
 1369 07d1 0F       		.byte	0xf
 1370 07d2 3D       		.byte	0x3d
 1371 07d3 82020000 		.4byte	0x282
 1372 07d7 04       		.byte	0x4
 1373 07d8 07       		.uleb128 0x7
 1374 07d9 00080000 		.4byte	.LASF114
 1375 07dd 0F       		.byte	0xf
 1376 07de 3F       		.byte	0x3f
 1377 07df 3B010000 		.4byte	0x13b
 1378 07e3 08       		.byte	0x8
 1379 07e4 07       		.uleb128 0x7
 1380 07e5 EC080000 		.4byte	.LASF115
 1381 07e9 0F       		.byte	0xf
 1382 07ea 41       		.byte	0x41
 1383 07eb 46010000 		.4byte	0x146
 1384 07ef 0C       		.byte	0xc
 1385 07f0 07       		.uleb128 0x7
 1386 07f1 02030000 		.4byte	.LASF116
 1387 07f5 0F       		.byte	0xf
 1388 07f6 43       		.byte	0x43
 1389 07f7 46010000 		.4byte	0x146
 1390 07fb 10       		.byte	0x10
 1391 07fc 00       		.byte	0
 1392 07fd 0A       		.uleb128 0xa
 1393 07fe 04       		.byte	0x4
 1394 07ff A9070000 		.4byte	0x7a9
ARM GAS  C:\Users\IDONNO~1\AppData\Local\Temp\ccrByNBb.s 			page 26


 1395 0803 06       		.uleb128 0x6
 1396 0804 7F000000 		.4byte	.LASF117
 1397 0808 04       		.byte	0x4
 1398 0809 0F       		.byte	0xf
 1399 080a 4A       		.byte	0x4a
 1400 080b 1C080000 		.4byte	0x81c
 1401 080f 07       		.uleb128 0x7
 1402 0810 32080000 		.4byte	.LASF118
 1403 0814 0F       		.byte	0xf
 1404 0815 4B       		.byte	0x4b
 1405 0816 FD070000 		.4byte	0x7fd
 1406 081a 00       		.byte	0
 1407 081b 00       		.byte	0
 1408 081c 03       		.uleb128 0x3
 1409 081d 90020000 		.4byte	.LASF119
 1410 0821 0F       		.byte	0xf
 1411 0822 4E       		.byte	0x4e
 1412 0823 03080000 		.4byte	0x803
 1413 0827 03       		.uleb128 0x3
 1414 0828 B6000000 		.4byte	.LASF120
 1415 082c 10       		.byte	0x10
 1416 082d 3F       		.byte	0x3f
 1417 082e 32080000 		.4byte	0x832
 1418 0832 06       		.uleb128 0x6
 1419 0833 14080000 		.4byte	.LASF121
 1420 0837 24       		.byte	0x24
 1421 0838 10       		.byte	0x10
 1422 0839 4D       		.byte	0x4d
 1423 083a 9F080000 		.4byte	0x89f
 1424 083e 07       		.uleb128 0x7
 1425 083f D1010000 		.4byte	.LASF122
 1426 0843 10       		.byte	0x10
 1427 0844 4E       		.byte	0x4e
 1428 0845 AC020000 		.4byte	0x2ac
 1429 0849 00       		.byte	0
 1430 084a 07       		.uleb128 0x7
 1431 084b 61070000 		.4byte	.LASF123
 1432 084f 10       		.byte	0x10
 1433 0850 4F       		.byte	0x4f
 1434 0851 C1080000 		.4byte	0x8c1
 1435 0855 08       		.byte	0x8
 1436 0856 07       		.uleb128 0x7
 1437 0857 FE080000 		.4byte	.LASF124
 1438 085b 10       		.byte	0x10
 1439 085c 50       		.byte	0x50
 1440 085d C6080000 		.4byte	0x8c6
 1441 0861 0C       		.byte	0xc
 1442 0862 07       		.uleb128 0x7
 1443 0863 70070000 		.4byte	.LASF125
 1444 0867 10       		.byte	0x10
 1445 0868 51       		.byte	0x51
 1446 0869 C6080000 		.4byte	0x8c6
 1447 086d 10       		.byte	0x10
 1448 086e 07       		.uleb128 0x7
 1449 086f 9D030000 		.4byte	.LASF126
 1450 0873 10       		.byte	0x10
 1451 0874 53       		.byte	0x53
ARM GAS  C:\Users\IDONNO~1\AppData\Local\Temp\ccrByNBb.s 			page 27


 1452 0875 C6080000 		.4byte	0x8c6
 1453 0879 14       		.byte	0x14
 1454 087a 07       		.uleb128 0x7
 1455 087b FB000000 		.4byte	.LASF127
 1456 087f 10       		.byte	0x10
 1457 0880 54       		.byte	0x54
 1458 0881 C6080000 		.4byte	0x8c6
 1459 0885 18       		.byte	0x18
 1460 0886 07       		.uleb128 0x7
 1461 0887 4F030000 		.4byte	.LASF128
 1462 088b 10       		.byte	0x10
 1463 088c 55       		.byte	0x55
 1464 088d 9F080000 		.4byte	0x89f
 1465 0891 1C       		.byte	0x1c
 1466 0892 07       		.uleb128 0x7
 1467 0893 25010000 		.4byte	.LASF129
 1468 0897 10       		.byte	0x10
 1469 0898 56       		.byte	0x56
 1470 0899 5F030000 		.4byte	0x35f
 1471 089d 20       		.byte	0x20
 1472 089e 00       		.byte	0
 1473 089f 03       		.uleb128 0x3
 1474 08a0 0D010000 		.4byte	.LASF130
 1475 08a4 10       		.byte	0x10
 1476 08a5 42       		.byte	0x42
 1477 08a6 AA080000 		.4byte	0x8aa
 1478 08aa 0A       		.uleb128 0xa
 1479 08ab 04       		.byte	0x4
 1480 08ac B0080000 		.4byte	0x8b0
 1481 08b0 0C       		.uleb128 0xc
 1482 08b1 BB080000 		.4byte	0x8bb
 1483 08b5 0D       		.uleb128 0xd
 1484 08b6 BB080000 		.4byte	0x8bb
 1485 08ba 00       		.byte	0
 1486 08bb 0A       		.uleb128 0xa
 1487 08bc 04       		.byte	0x4
 1488 08bd 27080000 		.4byte	0x827
 1489 08c1 05       		.uleb128 0x5
 1490 08c2 2C000000 		.4byte	0x2c
 1491 08c6 0A       		.uleb128 0xa
 1492 08c7 04       		.byte	0x4
 1493 08c8 AD000000 		.4byte	0xad
 1494 08cc 03       		.uleb128 0x3
 1495 08cd D4030000 		.4byte	.LASF131
 1496 08d1 10       		.byte	0x10
 1497 08d2 64       		.byte	0x64
 1498 08d3 27080000 		.4byte	0x827
 1499 08d7 03       		.uleb128 0x3
 1500 08d8 7C040000 		.4byte	.LASF132
 1501 08dc 10       		.byte	0x10
 1502 08dd 71       		.byte	0x71
 1503 08de 27080000 		.4byte	0x827
 1504 08e2 19       		.uleb128 0x19
 1505 08e3 2C000000 		.4byte	0x2c
 1506 08e7 FB080000 		.4byte	0x8fb
 1507 08eb 0D       		.uleb128 0xd
 1508 08ec 5F030000 		.4byte	0x35f
ARM GAS  C:\Users\IDONNO~1\AppData\Local\Temp\ccrByNBb.s 			page 28


 1509 08f0 0D       		.uleb128 0xd
 1510 08f1 FB080000 		.4byte	0x8fb
 1511 08f5 0D       		.uleb128 0xd
 1512 08f6 2C000000 		.4byte	0x2c
 1513 08fa 00       		.byte	0
 1514 08fb 0A       		.uleb128 0xa
 1515 08fc 04       		.byte	0x4
 1516 08fd 01090000 		.4byte	0x901
 1517 0901 16       		.uleb128 0x16
 1518 0902 AD000000 		.4byte	0xad
 1519 0906 0A       		.uleb128 0xa
 1520 0907 04       		.byte	0x4
 1521 0908 E2080000 		.4byte	0x8e2
 1522 090c 19       		.uleb128 0x19
 1523 090d 2C000000 		.4byte	0x2c
 1524 0911 25090000 		.4byte	0x925
 1525 0915 0D       		.uleb128 0xd
 1526 0916 5F030000 		.4byte	0x35f
 1527 091a 0D       		.uleb128 0xd
 1528 091b C6080000 		.4byte	0x8c6
 1529 091f 0D       		.uleb128 0xd
 1530 0920 2C000000 		.4byte	0x2c
 1531 0924 00       		.byte	0
 1532 0925 0A       		.uleb128 0xa
 1533 0926 04       		.byte	0x4
 1534 0927 0C090000 		.4byte	0x90c
 1535 092b 19       		.uleb128 0x19
 1536 092c 30010000 		.4byte	0x130
 1537 0930 3F090000 		.4byte	0x93f
 1538 0934 0D       		.uleb128 0xd
 1539 0935 5F030000 		.4byte	0x35f
 1540 0939 0D       		.uleb128 0xd
 1541 093a AD000000 		.4byte	0xad
 1542 093e 00       		.byte	0
 1543 093f 0A       		.uleb128 0xa
 1544 0940 04       		.byte	0x4
 1545 0941 2B090000 		.4byte	0x92b
 1546 0945 19       		.uleb128 0x19
 1547 0946 30010000 		.4byte	0x130
 1548 094a 54090000 		.4byte	0x954
 1549 094e 0D       		.uleb128 0xd
 1550 094f 5F030000 		.4byte	0x35f
 1551 0953 00       		.byte	0
 1552 0954 0A       		.uleb128 0xa
 1553 0955 04       		.byte	0x4
 1554 0956 45090000 		.4byte	0x945
 1555 095a 19       		.uleb128 0x19
 1556 095b 30010000 		.4byte	0x130
 1557 095f 73090000 		.4byte	0x973
 1558 0963 0D       		.uleb128 0xd
 1559 0964 5F030000 		.4byte	0x35f
 1560 0968 0D       		.uleb128 0xd
 1561 0969 AD000000 		.4byte	0xad
 1562 096d 0D       		.uleb128 0xd
 1563 096e 5C010000 		.4byte	0x15c
 1564 0972 00       		.byte	0
 1565 0973 0A       		.uleb128 0xa
ARM GAS  C:\Users\IDONNO~1\AppData\Local\Temp\ccrByNBb.s 			page 29


 1566 0974 04       		.byte	0x4
 1567 0975 5A090000 		.4byte	0x95a
 1568 0979 19       		.uleb128 0x19
 1569 097a 30010000 		.4byte	0x130
 1570 097e 8D090000 		.4byte	0x98d
 1571 0982 0D       		.uleb128 0xd
 1572 0983 5F030000 		.4byte	0x35f
 1573 0987 0D       		.uleb128 0xd
 1574 0988 5C010000 		.4byte	0x15c
 1575 098c 00       		.byte	0
 1576 098d 0A       		.uleb128 0xa
 1577 098e 04       		.byte	0x4
 1578 098f 79090000 		.4byte	0x979
 1579 0993 19       		.uleb128 0x19
 1580 0994 2C000000 		.4byte	0x2c
 1581 0998 B1090000 		.4byte	0x9b1
 1582 099c 0D       		.uleb128 0xd
 1583 099d 5F030000 		.4byte	0x35f
 1584 09a1 0D       		.uleb128 0xd
 1585 09a2 FB080000 		.4byte	0x8fb
 1586 09a6 0D       		.uleb128 0xd
 1587 09a7 2C000000 		.4byte	0x2c
 1588 09ab 0D       		.uleb128 0xd
 1589 09ac 5C010000 		.4byte	0x15c
 1590 09b0 00       		.byte	0
 1591 09b1 0A       		.uleb128 0xa
 1592 09b2 04       		.byte	0x4
 1593 09b3 93090000 		.4byte	0x993
 1594 09b7 19       		.uleb128 0x19
 1595 09b8 2C000000 		.4byte	0x2c
 1596 09bc D5090000 		.4byte	0x9d5
 1597 09c0 0D       		.uleb128 0xd
 1598 09c1 5F030000 		.4byte	0x35f
 1599 09c5 0D       		.uleb128 0xd
 1600 09c6 C6080000 		.4byte	0x8c6
 1601 09ca 0D       		.uleb128 0xd
 1602 09cb 2C000000 		.4byte	0x2c
 1603 09cf 0D       		.uleb128 0xd
 1604 09d0 5C010000 		.4byte	0x15c
 1605 09d4 00       		.byte	0
 1606 09d5 0A       		.uleb128 0xa
 1607 09d6 04       		.byte	0x4
 1608 09d7 B7090000 		.4byte	0x9b7
 1609 09db 04       		.uleb128 0x4
 1610 09dc 01       		.byte	0x1
 1611 09dd 02       		.byte	0x2
 1612 09de 1F030000 		.4byte	.LASF133
 1613 09e2 13       		.uleb128 0x13
 1614 09e3 04       		.byte	0x4
 1615 09e4 11       		.byte	0x11
 1616 09e5 B3       		.byte	0xb3
 1617 09e6 030A0000 		.4byte	0xa03
 1618 09ea 12       		.uleb128 0x12
 1619 09eb 73657400 		.ascii	"set\000"
 1620 09ef 11       		.byte	0x11
 1621 09f0 B4       		.byte	0xb4
 1622 09f1 B8000000 		.4byte	0xb8
ARM GAS  C:\Users\IDONNO~1\AppData\Local\Temp\ccrByNBb.s 			page 30


 1623 09f5 00       		.byte	0
 1624 09f6 07       		.uleb128 0x7
 1625 09f7 DC020000 		.4byte	.LASF134
 1626 09fb 11       		.byte	0x11
 1627 09fc B5       		.byte	0xb5
 1628 09fd B8000000 		.4byte	0xb8
 1629 0a01 02       		.byte	0x2
 1630 0a02 00       		.byte	0
 1631 0a03 14       		.uleb128 0x14
 1632 0a04 04       		.byte	0x4
 1633 0a05 11       		.byte	0x11
 1634 0a06 B1       		.byte	0xb1
 1635 0a07 1E0A0000 		.4byte	0xa1e
 1636 0a0b 1A       		.uleb128 0x1a
 1637 0a0c 5700     		.ascii	"W\000"
 1638 0a0e 11       		.byte	0x11
 1639 0a0f B2       		.byte	0xb2
 1640 0a10 CE000000 		.4byte	0xce
 1641 0a14 1A       		.uleb128 0x1a
 1642 0a15 4800     		.ascii	"H\000"
 1643 0a17 11       		.byte	0x11
 1644 0a18 B6       		.byte	0xb6
 1645 0a19 E2090000 		.4byte	0x9e2
 1646 0a1d 00       		.byte	0
 1647 0a1e 13       		.uleb128 0x13
 1648 0a1f 2C       		.byte	0x2c
 1649 0a20 11       		.byte	0x11
 1650 0a21 A9       		.byte	0xa9
 1651 0a22 AB0A0000 		.4byte	0xaab
 1652 0a26 07       		.uleb128 0x7
 1653 0a27 B0020000 		.4byte	.LASF135
 1654 0a2b 11       		.byte	0x11
 1655 0a2c AB       		.byte	0xab
 1656 0a2d E9000000 		.4byte	0xe9
 1657 0a31 00       		.byte	0
 1658 0a32 07       		.uleb128 0x7
 1659 0a33 0F070000 		.4byte	.LASF136
 1660 0a37 11       		.byte	0x11
 1661 0a38 AC       		.byte	0xac
 1662 0a39 E9000000 		.4byte	0xe9
 1663 0a3d 04       		.byte	0x4
 1664 0a3e 07       		.uleb128 0x7
 1665 0a3f 0F050000 		.4byte	.LASF137
 1666 0a43 11       		.byte	0x11
 1667 0a44 AD       		.byte	0xad
 1668 0a45 E9000000 		.4byte	0xe9
 1669 0a49 08       		.byte	0x8
 1670 0a4a 07       		.uleb128 0x7
 1671 0a4b 63030000 		.4byte	.LASF138
 1672 0a4f 11       		.byte	0x11
 1673 0a50 AE       		.byte	0xae
 1674 0a51 E9000000 		.4byte	0xe9
 1675 0a55 0C       		.byte	0xc
 1676 0a56 12       		.uleb128 0x12
 1677 0a57 49445200 		.ascii	"IDR\000"
 1678 0a5b 11       		.byte	0x11
 1679 0a5c AF       		.byte	0xaf
ARM GAS  C:\Users\IDONNO~1\AppData\Local\Temp\ccrByNBb.s 			page 31


 1680 0a5d E9000000 		.4byte	0xe9
 1681 0a61 10       		.byte	0x10
 1682 0a62 12       		.uleb128 0x12
 1683 0a63 4F445200 		.ascii	"ODR\000"
 1684 0a67 11       		.byte	0x11
 1685 0a68 B0       		.byte	0xb0
 1686 0a69 E9000000 		.4byte	0xe9
 1687 0a6d 14       		.byte	0x14
 1688 0a6e 07       		.uleb128 0x7
 1689 0a6f 5E000000 		.4byte	.LASF139
 1690 0a73 11       		.byte	0x11
 1691 0a74 B7       		.byte	0xb7
 1692 0a75 AB0A0000 		.4byte	0xaab
 1693 0a79 18       		.byte	0x18
 1694 0a7a 07       		.uleb128 0x7
 1695 0a7b 8B040000 		.4byte	.LASF140
 1696 0a7f 11       		.byte	0x11
 1697 0a80 B8       		.byte	0xb8
 1698 0a81 E9000000 		.4byte	0xe9
 1699 0a85 1C       		.byte	0x1c
 1700 0a86 07       		.uleb128 0x7
 1701 0a87 CF020000 		.4byte	.LASF141
 1702 0a8b 11       		.byte	0x11
 1703 0a8c B9       		.byte	0xb9
 1704 0a8d E9000000 		.4byte	0xe9
 1705 0a91 20       		.byte	0x20
 1706 0a92 07       		.uleb128 0x7
 1707 0a93 BD020000 		.4byte	.LASF142
 1708 0a97 11       		.byte	0x11
 1709 0a98 BA       		.byte	0xba
 1710 0a99 E9000000 		.4byte	0xe9
 1711 0a9d 24       		.byte	0x24
 1712 0a9e 12       		.uleb128 0x12
 1713 0a9f 42525200 		.ascii	"BRR\000"
 1714 0aa3 11       		.byte	0x11
 1715 0aa4 BB       		.byte	0xbb
 1716 0aa5 E9000000 		.4byte	0xe9
 1717 0aa9 28       		.byte	0x28
 1718 0aaa 00       		.byte	0
 1719 0aab 05       		.uleb128 0x5
 1720 0aac 030A0000 		.4byte	0xa03
 1721 0ab0 03       		.uleb128 0x3
 1722 0ab1 C2020000 		.4byte	.LASF143
 1723 0ab5 11       		.byte	0x11
 1724 0ab6 BC       		.byte	0xbc
 1725 0ab7 1E0A0000 		.4byte	0xa1e
 1726 0abb 11       		.uleb128 0x11
 1727 0abc 57040000 		.4byte	.LASF144
 1728 0ac0 11       		.byte	0x11
 1729 0ac1 0E01     		.2byte	0x10e
 1730 0ac3 CE000000 		.4byte	0xce
 1731 0ac7 1B       		.uleb128 0x1b
 1732 0ac8 01       		.byte	0x1
 1733 0ac9 50000000 		.4byte	0x50
 1734 0acd 12       		.byte	0x12
 1735 0ace 55       		.byte	0x55
 1736 0acf E60A0000 		.4byte	0xae6
ARM GAS  C:\Users\IDONNO~1\AppData\Local\Temp\ccrByNBb.s 			page 32


 1737 0ad3 1C       		.uleb128 0x1c
 1738 0ad4 57070000 		.4byte	.LASF145
 1739 0ad8 00       		.byte	0
 1740 0ad9 1C       		.uleb128 0x1c
 1741 0ada 25030000 		.4byte	.LASF146
 1742 0ade 01       		.byte	0x1
 1743 0adf 1C       		.uleb128 0x1c
 1744 0ae0 98060000 		.4byte	.LASF147
 1745 0ae4 02       		.byte	0x2
 1746 0ae5 00       		.byte	0
 1747 0ae6 03       		.uleb128 0x3
 1748 0ae7 0E020000 		.4byte	.LASF148
 1749 0aeb 12       		.byte	0x12
 1750 0aec 59       		.byte	0x59
 1751 0aed C70A0000 		.4byte	0xac7
 1752 0af1 03       		.uleb128 0x3
 1753 0af2 34000000 		.4byte	.LASF149
 1754 0af6 12       		.byte	0x12
 1755 0af7 5E       		.byte	0x5e
 1756 0af8 FC0A0000 		.4byte	0xafc
 1757 0afc 1D       		.uleb128 0x1d
 1758 0afd 34000000 		.4byte	.LASF149
 1759 0b01 5802     		.2byte	0x258
 1760 0b03 12       		.byte	0x12
 1761 0b04 78       		.byte	0x78
 1762 0b05 6A0B0000 		.4byte	0xb6a
 1763 0b09 12       		.uleb128 0x12
 1764 0b0a 766D7400 		.ascii	"vmt\000"
 1765 0b0e 12       		.byte	0x12
 1766 0b0f 7A       		.byte	0x7a
 1767 0b10 D70B0000 		.4byte	0xbd7
 1768 0b14 00       		.byte	0
 1769 0b15 07       		.uleb128 0x7
 1770 0b16 18020000 		.4byte	.LASF150
 1771 0b1a 12       		.byte	0x12
 1772 0b1b 7B       		.byte	0x7b
 1773 0b1c 1C080000 		.4byte	0x81c
 1774 0b20 04       		.byte	0x4
 1775 0b21 07       		.uleb128 0x7
 1776 0b22 41080000 		.4byte	.LASF151
 1777 0b26 12       		.byte	0x12
 1778 0b27 7B       		.byte	0x7b
 1779 0b28 E60A0000 		.4byte	0xae6
 1780 0b2c 08       		.byte	0x8
 1781 0b2d 07       		.uleb128 0x7
 1782 0b2e B1010000 		.4byte	.LASF152
 1783 0b32 12       		.byte	0x12
 1784 0b33 7B       		.byte	0x7b
 1785 0b34 CC080000 		.4byte	0x8cc
 1786 0b38 0C       		.byte	0xc
 1787 0b39 07       		.uleb128 0x7
 1788 0b3a 5A060000 		.4byte	.LASF153
 1789 0b3e 12       		.byte	0x12
 1790 0b3f 7B       		.byte	0x7b
 1791 0b40 D7080000 		.4byte	0x8d7
 1792 0b44 30       		.byte	0x30
 1793 0b45 12       		.uleb128 0x12
ARM GAS  C:\Users\IDONNO~1\AppData\Local\Temp\ccrByNBb.s 			page 33


 1794 0b46 696200   		.ascii	"ib\000"
 1795 0b49 12       		.byte	0x12
 1796 0b4a 7B       		.byte	0x7b
 1797 0b4b E20B0000 		.4byte	0xbe2
 1798 0b4f 54       		.byte	0x54
 1799 0b50 1E       		.uleb128 0x1e
 1800 0b51 6F6200   		.ascii	"ob\000"
 1801 0b54 12       		.byte	0x12
 1802 0b55 7B       		.byte	0x7b
 1803 0b56 E20B0000 		.4byte	0xbe2
 1804 0b5a 5401     		.2byte	0x154
 1805 0b5c 1F       		.uleb128 0x1f
 1806 0b5d FE030000 		.4byte	.LASF154
 1807 0b61 12       		.byte	0x12
 1808 0b62 7B       		.byte	0x7b
 1809 0b63 F20B0000 		.4byte	0xbf2
 1810 0b67 5402     		.2byte	0x254
 1811 0b69 00       		.byte	0
 1812 0b6a 06       		.uleb128 0x6
 1813 0b6b 92080000 		.4byte	.LASF155
 1814 0b6f 20       		.byte	0x20
 1815 0b70 12       		.byte	0x12
 1816 0b71 6D       		.byte	0x6d
 1817 0b72 D70B0000 		.4byte	0xbd7
 1818 0b76 07       		.uleb128 0x7
 1819 0b77 24040000 		.4byte	.LASF156
 1820 0b7b 12       		.byte	0x12
 1821 0b7c 6E       		.byte	0x6e
 1822 0b7d 06090000 		.4byte	0x906
 1823 0b81 00       		.byte	0
 1824 0b82 07       		.uleb128 0x7
 1825 0b83 49070000 		.4byte	.LASF157
 1826 0b87 12       		.byte	0x12
 1827 0b88 6E       		.byte	0x6e
 1828 0b89 25090000 		.4byte	0x925
 1829 0b8d 04       		.byte	0x4
 1830 0b8e 12       		.uleb128 0x12
 1831 0b8f 70757400 		.ascii	"put\000"
 1832 0b93 12       		.byte	0x12
 1833 0b94 6E       		.byte	0x6e
 1834 0b95 3F090000 		.4byte	0x93f
 1835 0b99 08       		.byte	0x8
 1836 0b9a 12       		.uleb128 0x12
 1837 0b9b 67657400 		.ascii	"get\000"
 1838 0b9f 12       		.byte	0x12
 1839 0ba0 6E       		.byte	0x6e
 1840 0ba1 54090000 		.4byte	0x954
 1841 0ba5 0C       		.byte	0xc
 1842 0ba6 07       		.uleb128 0x7
 1843 0ba7 0C030000 		.4byte	.LASF158
 1844 0bab 12       		.byte	0x12
 1845 0bac 6E       		.byte	0x6e
 1846 0bad 73090000 		.4byte	0x973
 1847 0bb1 10       		.byte	0x10
 1848 0bb2 07       		.uleb128 0x7
 1849 0bb3 6B070000 		.4byte	.LASF159
 1850 0bb7 12       		.byte	0x12
ARM GAS  C:\Users\IDONNO~1\AppData\Local\Temp\ccrByNBb.s 			page 34


 1851 0bb8 6E       		.byte	0x6e
 1852 0bb9 8D090000 		.4byte	0x98d
 1853 0bbd 14       		.byte	0x14
 1854 0bbe 07       		.uleb128 0x7
 1855 0bbf 80010000 		.4byte	.LASF160
 1856 0bc3 12       		.byte	0x12
 1857 0bc4 6E       		.byte	0x6e
 1858 0bc5 B1090000 		.4byte	0x9b1
 1859 0bc9 18       		.byte	0x18
 1860 0bca 07       		.uleb128 0x7
 1861 0bcb 8C080000 		.4byte	.LASF161
 1862 0bcf 12       		.byte	0x12
 1863 0bd0 6E       		.byte	0x6e
 1864 0bd1 D5090000 		.4byte	0x9d5
 1865 0bd5 1C       		.byte	0x1c
 1866 0bd6 00       		.byte	0
 1867 0bd7 0A       		.uleb128 0xa
 1868 0bd8 04       		.byte	0x4
 1869 0bd9 DD0B0000 		.4byte	0xbdd
 1870 0bdd 16       		.uleb128 0x16
 1871 0bde 6A0B0000 		.4byte	0xb6a
 1872 0be2 17       		.uleb128 0x17
 1873 0be3 AD000000 		.4byte	0xad
 1874 0be7 F20B0000 		.4byte	0xbf2
 1875 0beb 18       		.uleb128 0x18
 1876 0bec 95040000 		.4byte	0x495
 1877 0bf0 FF       		.byte	0xff
 1878 0bf1 00       		.byte	0
 1879 0bf2 0A       		.uleb128 0xa
 1880 0bf3 04       		.byte	0x4
 1881 0bf4 FF040000 		.4byte	0x4ff
 1882 0bf8 17       		.uleb128 0x17
 1883 0bf9 16050000 		.4byte	0x516
 1884 0bfd 080C0000 		.4byte	0xc08
 1885 0c01 18       		.uleb128 0x18
 1886 0c02 95040000 		.4byte	0x495
 1887 0c06 42       		.byte	0x42
 1888 0c07 00       		.byte	0
 1889 0c08 04       		.uleb128 0x4
 1890 0c09 08       		.byte	0x8
 1891 0c0a 04       		.byte	0x4
 1892 0c0b BB080000 		.4byte	.LASF162
 1893 0c0f 04       		.uleb128 0x4
 1894 0c10 04       		.byte	0x4
 1895 0c11 04       		.byte	0x4
 1896 0c12 08020000 		.4byte	.LASF163
 1897 0c16 04       		.uleb128 0x4
 1898 0c17 08       		.byte	0x8
 1899 0c18 04       		.byte	0x4
 1900 0c19 4E060000 		.4byte	.LASF164
 1901 0c1d 13       		.uleb128 0x13
 1902 0c1e 40       		.byte	0x40
 1903 0c1f 13       		.byte	0x13
 1904 0c20 68       		.byte	0x68
 1905 0c21 E60C0000 		.4byte	0xce6
 1906 0c25 07       		.uleb128 0x7
 1907 0c26 B4070000 		.4byte	.LASF165
ARM GAS  C:\Users\IDONNO~1\AppData\Local\Temp\ccrByNBb.s 			page 35


 1908 0c2a 13       		.byte	0x13
 1909 0c2b 69       		.byte	0x69
 1910 0c2c 0F0C0000 		.4byte	0xc0f
 1911 0c30 00       		.byte	0
 1912 0c31 07       		.uleb128 0x7
 1913 0c32 C0060000 		.4byte	.LASF166
 1914 0c36 13       		.byte	0x13
 1915 0c37 6A       		.byte	0x6a
 1916 0c38 0F0C0000 		.4byte	0xc0f
 1917 0c3c 04       		.byte	0x4
 1918 0c3d 07       		.uleb128 0x7
 1919 0c3e 3A070000 		.4byte	.LASF167
 1920 0c42 13       		.byte	0x13
 1921 0c43 6B       		.byte	0x6b
 1922 0c44 0F0C0000 		.4byte	0xc0f
 1923 0c48 08       		.byte	0x8
 1924 0c49 12       		.uleb128 0x12
 1925 0c4a 71496100 		.ascii	"qIa\000"
 1926 0c4e 13       		.byte	0x13
 1927 0c4f 6C       		.byte	0x6c
 1928 0c50 0F0C0000 		.4byte	0xc0f
 1929 0c54 0C       		.byte	0xc
 1930 0c55 12       		.uleb128 0x12
 1931 0c56 71496200 		.ascii	"qIb\000"
 1932 0c5a 13       		.byte	0x13
 1933 0c5b 6D       		.byte	0x6d
 1934 0c5c 0F0C0000 		.4byte	0xc0f
 1935 0c60 10       		.byte	0x10
 1936 0c61 07       		.uleb128 0x7
 1937 0c62 4F040000 		.4byte	.LASF168
 1938 0c66 13       		.byte	0x13
 1939 0c67 6E       		.byte	0x6e
 1940 0c68 0F0C0000 		.4byte	0xc0f
 1941 0c6c 14       		.byte	0x14
 1942 0c6d 07       		.uleb128 0x7
 1943 0c6e C2070000 		.4byte	.LASF169
 1944 0c72 13       		.byte	0x13
 1945 0c73 6F       		.byte	0x6f
 1946 0c74 0F0C0000 		.4byte	0xc0f
 1947 0c78 18       		.byte	0x18
 1948 0c79 12       		.uleb128 0x12
 1949 0c7a 71496400 		.ascii	"qId\000"
 1950 0c7e 13       		.byte	0x13
 1951 0c7f 70       		.byte	0x70
 1952 0c80 0F0C0000 		.4byte	0xc0f
 1953 0c84 1C       		.byte	0x1c
 1954 0c85 12       		.uleb128 0x12
 1955 0c86 71497100 		.ascii	"qIq\000"
 1956 0c8a 13       		.byte	0x13
 1957 0c8b 71       		.byte	0x71
 1958 0c8c 0F0C0000 		.4byte	0xc0f
 1959 0c90 20       		.byte	0x20
 1960 0c91 12       		.uleb128 0x12
 1961 0c92 71566400 		.ascii	"qVd\000"
 1962 0c96 13       		.byte	0x13
 1963 0c97 72       		.byte	0x72
 1964 0c98 0F0C0000 		.4byte	0xc0f
ARM GAS  C:\Users\IDONNO~1\AppData\Local\Temp\ccrByNBb.s 			page 36


 1965 0c9c 24       		.byte	0x24
 1966 0c9d 12       		.uleb128 0x12
 1967 0c9e 71567100 		.ascii	"qVq\000"
 1968 0ca2 13       		.byte	0x13
 1969 0ca3 73       		.byte	0x73
 1970 0ca4 0F0C0000 		.4byte	0xc0f
 1971 0ca8 28       		.byte	0x28
 1972 0ca9 07       		.uleb128 0x7
 1973 0caa 7A030000 		.4byte	.LASF170
 1974 0cae 13       		.byte	0x13
 1975 0caf 74       		.byte	0x74
 1976 0cb0 0F0C0000 		.4byte	0xc0f
 1977 0cb4 2C       		.byte	0x2c
 1978 0cb5 07       		.uleb128 0x7
 1979 0cb6 B6020000 		.4byte	.LASF171
 1980 0cba 13       		.byte	0x13
 1981 0cbb 75       		.byte	0x75
 1982 0cbc 0F0C0000 		.4byte	0xc0f
 1983 0cc0 30       		.byte	0x30
 1984 0cc1 12       		.uleb128 0x12
 1985 0cc2 71563100 		.ascii	"qV1\000"
 1986 0cc6 13       		.byte	0x13
 1987 0cc7 76       		.byte	0x76
 1988 0cc8 0F0C0000 		.4byte	0xc0f
 1989 0ccc 34       		.byte	0x34
 1990 0ccd 12       		.uleb128 0x12
 1991 0cce 71563200 		.ascii	"qV2\000"
 1992 0cd2 13       		.byte	0x13
 1993 0cd3 77       		.byte	0x77
 1994 0cd4 0F0C0000 		.4byte	0xc0f
 1995 0cd8 38       		.byte	0x38
 1996 0cd9 12       		.uleb128 0x12
 1997 0cda 71563300 		.ascii	"qV3\000"
 1998 0cde 13       		.byte	0x13
 1999 0cdf 78       		.byte	0x78
 2000 0ce0 0F0C0000 		.4byte	0xc0f
 2001 0ce4 3C       		.byte	0x3c
 2002 0ce5 00       		.byte	0
 2003 0ce6 03       		.uleb128 0x3
 2004 0ce7 70030000 		.4byte	.LASF172
 2005 0ceb 13       		.byte	0x13
 2006 0cec 79       		.byte	0x79
 2007 0ced 1D0C0000 		.4byte	0xc1d
 2008 0cf1 20       		.uleb128 0x20
 2009 0cf2 7D060000 		.4byte	.LASF196
 2010 0cf6 02       		.byte	0x2
 2011 0cf7 84       		.byte	0x84
 2012 0cf8 03       		.byte	0x3
 2013 0cf9 090D0000 		.4byte	0xd09
 2014 0cfd 21       		.uleb128 0x21
 2015 0cfe 41000000 		.4byte	.LASF197
 2016 0d02 02       		.byte	0x2
 2017 0d03 84       		.byte	0x84
 2018 0d04 66070000 		.4byte	0x766
 2019 0d08 00       		.byte	0
 2020 0d09 22       		.uleb128 0x22
 2021 0d0a 00000000 		.4byte	.LASF173
ARM GAS  C:\Users\IDONNO~1\AppData\Local\Temp\ccrByNBb.s 			page 37


 2022 0d0e 01       		.byte	0x1
 2023 0d0f 68       		.byte	0x68
 2024 0d10 30010000 		.4byte	0x130
 2025 0d14 00000000 		.4byte	.LFB258
 2026 0d18 94000000 		.4byte	.LFE258-.LFB258
 2027 0d1c 01       		.uleb128 0x1
 2028 0d1d 9C       		.byte	0x9c
 2029 0d1e E80D0000 		.4byte	0xde8
 2030 0d22 23       		.uleb128 0x23
 2031 0d23 61726700 		.ascii	"arg\000"
 2032 0d27 01       		.byte	0x1
 2033 0d28 68       		.byte	0x68
 2034 0d29 5F030000 		.4byte	0x35f
 2035 0d2d 00000000 		.4byte	.LLST0
 2036 0d31 24       		.uleb128 0x24
 2037 0d32 F10C0000 		.4byte	0xcf1
 2038 0d36 02000000 		.4byte	.LBB6
 2039 0d3a 00000000 		.4byte	.Ldebug_ranges0+0
 2040 0d3e 01       		.byte	0x1
 2041 0d3f 6B       		.byte	0x6b
 2042 0d40 4E0D0000 		.4byte	0xd4e
 2043 0d44 25       		.uleb128 0x25
 2044 0d45 FD0C0000 		.4byte	0xcfd
 2045 0d49 21000000 		.4byte	.LLST1
 2046 0d4d 00       		.byte	0
 2047 0d4e 26       		.uleb128 0x26
 2048 0d4f 14000000 		.4byte	.LVL3
 2049 0d53 35100000 		.4byte	0x1035
 2050 0d57 650D0000 		.4byte	0xd65
 2051 0d5b 27       		.uleb128 0x27
 2052 0d5c 01       		.uleb128 0x1
 2053 0d5d 51       		.byte	0x51
 2054 0d5e 05       		.uleb128 0x5
 2055 0d5f 03       		.byte	0x3
 2056 0d60 10000000 		.4byte	.LC1
 2057 0d64 00       		.byte	0
 2058 0d65 26       		.uleb128 0x26
 2059 0d66 26000000 		.4byte	.LVL5
 2060 0d6a 35100000 		.4byte	0x1035
 2061 0d6e 7C0D0000 		.4byte	0xd7c
 2062 0d72 27       		.uleb128 0x27
 2063 0d73 01       		.uleb128 0x1
 2064 0d74 51       		.byte	0x51
 2065 0d75 05       		.uleb128 0x5
 2066 0d76 03       		.byte	0x3
 2067 0d77 28000000 		.4byte	.LC2
 2068 0d7b 00       		.byte	0
 2069 0d7c 26       		.uleb128 0x26
 2070 0d7d 38000000 		.4byte	.LVL7
 2071 0d81 35100000 		.4byte	0x1035
 2072 0d85 930D0000 		.4byte	0xd93
 2073 0d89 27       		.uleb128 0x27
 2074 0d8a 01       		.uleb128 0x1
 2075 0d8b 51       		.byte	0x51
 2076 0d8c 05       		.uleb128 0x5
 2077 0d8d 03       		.byte	0x3
 2078 0d8e 28000000 		.4byte	.LC2
ARM GAS  C:\Users\IDONNO~1\AppData\Local\Temp\ccrByNBb.s 			page 38


 2079 0d92 00       		.byte	0
 2080 0d93 26       		.uleb128 0x26
 2081 0d94 4A000000 		.4byte	.LVL9
 2082 0d98 35100000 		.4byte	0x1035
 2083 0d9c AA0D0000 		.4byte	0xdaa
 2084 0da0 27       		.uleb128 0x27
 2085 0da1 01       		.uleb128 0x1
 2086 0da2 51       		.byte	0x51
 2087 0da3 05       		.uleb128 0x5
 2088 0da4 03       		.byte	0x3
 2089 0da5 28000000 		.4byte	.LC2
 2090 0da9 00       		.byte	0
 2091 0daa 26       		.uleb128 0x26
 2092 0dab 5C000000 		.4byte	.LVL11
 2093 0daf 35100000 		.4byte	0x1035
 2094 0db3 C10D0000 		.4byte	0xdc1
 2095 0db7 27       		.uleb128 0x27
 2096 0db8 01       		.uleb128 0x1
 2097 0db9 51       		.byte	0x51
 2098 0dba 05       		.uleb128 0x5
 2099 0dbb 03       		.byte	0x3
 2100 0dbc 28000000 		.4byte	.LC2
 2101 0dc0 00       		.byte	0
 2102 0dc1 26       		.uleb128 0x26
 2103 0dc2 6E000000 		.4byte	.LVL13
 2104 0dc6 35100000 		.4byte	0x1035
 2105 0dca D80D0000 		.4byte	0xdd8
 2106 0dce 27       		.uleb128 0x27
 2107 0dcf 01       		.uleb128 0x1
 2108 0dd0 51       		.byte	0x51
 2109 0dd1 05       		.uleb128 0x5
 2110 0dd2 03       		.byte	0x3
 2111 0dd3 30000000 		.4byte	.LC3
 2112 0dd7 00       		.byte	0
 2113 0dd8 28       		.uleb128 0x28
 2114 0dd9 74000000 		.4byte	.LVL14
 2115 0ddd 40100000 		.4byte	0x1040
 2116 0de1 27       		.uleb128 0x27
 2117 0de2 01       		.uleb128 0x1
 2118 0de3 50       		.byte	0x50
 2119 0de4 01       		.uleb128 0x1
 2120 0de5 3A       		.byte	0x3a
 2121 0de6 00       		.byte	0
 2122 0de7 00       		.byte	0
 2123 0de8 29       		.uleb128 0x29
 2124 0de9 A2040000 		.4byte	.LASF174
 2125 0ded 01       		.byte	0x1
 2126 0dee 3F       		.byte	0x3f
 2127 0def 30010000 		.4byte	0x130
 2128 0df3 00000000 		.4byte	.LFB256
 2129 0df7 44000000 		.4byte	.LFE256-.LFB256
 2130 0dfb 01       		.uleb128 0x1
 2131 0dfc 9C       		.byte	0x9c
 2132 0dfd 6B0E0000 		.4byte	0xe6b
 2133 0e01 23       		.uleb128 0x23
 2134 0e02 61726700 		.ascii	"arg\000"
 2135 0e06 01       		.byte	0x1
ARM GAS  C:\Users\IDONNO~1\AppData\Local\Temp\ccrByNBb.s 			page 39


 2136 0e07 3F       		.byte	0x3f
 2137 0e08 5F030000 		.4byte	0x35f
 2138 0e0c 39000000 		.4byte	.LLST2
 2139 0e10 24       		.uleb128 0x24
 2140 0e11 F10C0000 		.4byte	0xcf1
 2141 0e15 02000000 		.4byte	.LBB10
 2142 0e19 18000000 		.4byte	.Ldebug_ranges0+0x18
 2143 0e1d 01       		.byte	0x1
 2144 0e1e 42       		.byte	0x42
 2145 0e1f 2D0E0000 		.4byte	0xe2d
 2146 0e23 25       		.uleb128 0x25
 2147 0e24 FD0C0000 		.4byte	0xcfd
 2148 0e28 5A000000 		.4byte	.LLST3
 2149 0e2c 00       		.byte	0
 2150 0e2d 26       		.uleb128 0x26
 2151 0e2e 14000000 		.4byte	.LVL18
 2152 0e32 35100000 		.4byte	0x1035
 2153 0e36 440E0000 		.4byte	0xe44
 2154 0e3a 27       		.uleb128 0x27
 2155 0e3b 01       		.uleb128 0x1
 2156 0e3c 51       		.byte	0x51
 2157 0e3d 05       		.uleb128 0x5
 2158 0e3e 03       		.byte	0x3
 2159 0e3f 4C000000 		.4byte	.LC5
 2160 0e43 00       		.byte	0
 2161 0e44 26       		.uleb128 0x26
 2162 0e45 22000000 		.4byte	.LVL19
 2163 0e49 40100000 		.4byte	0x1040
 2164 0e4d 590E0000 		.4byte	0xe59
 2165 0e51 27       		.uleb128 0x27
 2166 0e52 01       		.uleb128 0x1
 2167 0e53 50       		.byte	0x50
 2168 0e54 03       		.uleb128 0x3
 2169 0e55 0A       		.byte	0xa
 2170 0e56 8813     		.2byte	0x1388
 2171 0e58 00       		.byte	0
 2172 0e59 28       		.uleb128 0x28
 2173 0e5a 2C000000 		.4byte	.LVL20
 2174 0e5e 40100000 		.4byte	0x1040
 2175 0e62 27       		.uleb128 0x27
 2176 0e63 01       		.uleb128 0x1
 2177 0e64 50       		.byte	0x50
 2178 0e65 03       		.uleb128 0x3
 2179 0e66 0A       		.byte	0xa
 2180 0e67 8813     		.2byte	0x1388
 2181 0e69 00       		.byte	0
 2182 0e6a 00       		.byte	0
 2183 0e6b 2A       		.uleb128 0x2a
 2184 0e6c 49010000 		.4byte	.LASF198
 2185 0e70 01       		.byte	0x1
 2186 0e71 53       		.byte	0x53
 2187 0e72 25000000 		.4byte	0x25
 2188 0e76 00000000 		.4byte	.LFB257
 2189 0e7a 3C000000 		.4byte	.LFE257-.LFB257
 2190 0e7e 01       		.uleb128 0x1
 2191 0e7f 9C       		.byte	0x9c
 2192 0e80 FB0E0000 		.4byte	0xefb
ARM GAS  C:\Users\IDONNO~1\AppData\Local\Temp\ccrByNBb.s 			page 40


 2193 0e84 2B       		.uleb128 0x2b
 2194 0e85 06000000 		.4byte	.LVL21
 2195 0e89 4B100000 		.4byte	0x104b
 2196 0e8d 2B       		.uleb128 0x2b
 2197 0e8e 0A000000 		.4byte	.LVL22
 2198 0e92 56100000 		.4byte	0x1056
 2199 0e96 26       		.uleb128 0x26
 2200 0e97 12000000 		.4byte	.LVL23
 2201 0e9b 40100000 		.4byte	0x1040
 2202 0e9f AB0E0000 		.4byte	0xeab
 2203 0ea3 27       		.uleb128 0x27
 2204 0ea4 01       		.uleb128 0x1
 2205 0ea5 50       		.byte	0x50
 2206 0ea6 03       		.uleb128 0x3
 2207 0ea7 0A       		.byte	0xa
 2208 0ea8 1027     		.2byte	0x2710
 2209 0eaa 00       		.byte	0
 2210 0eab 2B       		.uleb128 0x2b
 2211 0eac 16000000 		.4byte	.LVL24
 2212 0eb0 62100000 		.4byte	0x1062
 2213 0eb4 2B       		.uleb128 0x2b
 2214 0eb5 1A000000 		.4byte	.LVL25
 2215 0eb9 6D100000 		.4byte	0x106d
 2216 0ebd 26       		.uleb128 0x26
 2217 0ebe 22000000 		.4byte	.LVL26
 2218 0ec2 35100000 		.4byte	0x1035
 2219 0ec6 D40E0000 		.4byte	0xed4
 2220 0eca 27       		.uleb128 0x27
 2221 0ecb 01       		.uleb128 0x1
 2222 0ecc 51       		.byte	0x51
 2223 0ecd 05       		.uleb128 0x5
 2224 0ece 03       		.byte	0x3
 2225 0ecf 60000000 		.4byte	.LC6
 2226 0ed3 00       		.byte	0
 2227 0ed4 2B       		.uleb128 0x2b
 2228 0ed5 26000000 		.4byte	.LVL27
 2229 0ed9 78100000 		.4byte	0x1078
 2230 0edd 26       		.uleb128 0x26
 2231 0ede 2C000000 		.4byte	.LVL28
 2232 0ee2 83100000 		.4byte	0x1083
 2233 0ee6 F10E0000 		.4byte	0xef1
 2234 0eea 27       		.uleb128 0x27
 2235 0eeb 01       		.uleb128 0x1
 2236 0eec 50       		.byte	0x50
 2237 0eed 02       		.uleb128 0x2
 2238 0eee 08       		.byte	0x8
 2239 0eef 64       		.byte	0x64
 2240 0ef0 00       		.byte	0
 2241 0ef1 2B       		.uleb128 0x2b
 2242 0ef2 30000000 		.4byte	.LVL29
 2243 0ef6 8E100000 		.4byte	0x108e
 2244 0efa 00       		.byte	0
 2245 0efb 2C       		.uleb128 0x2c
 2246 0efc 58030000 		.4byte	.LASF199
 2247 0f00 01       		.byte	0x1
 2248 0f01 8E       		.byte	0x8e
 2249 0f02 25000000 		.4byte	0x25
ARM GAS  C:\Users\IDONNO~1\AppData\Local\Temp\ccrByNBb.s 			page 41


 2250 0f06 00000000 		.4byte	.LFB259
 2251 0f0a 48000000 		.4byte	.LFE259-.LFB259
 2252 0f0e 01       		.uleb128 0x1
 2253 0f0f 9C       		.byte	0x9c
 2254 0f10 900F0000 		.4byte	0xf90
 2255 0f14 26       		.uleb128 0x26
 2256 0f15 16000000 		.4byte	.LVL30
 2257 0f19 9A100000 		.4byte	0x109a
 2258 0f1d 480F0000 		.4byte	0xf48
 2259 0f21 27       		.uleb128 0x27
 2260 0f22 01       		.uleb128 0x1
 2261 0f23 50       		.byte	0x50
 2262 0f24 05       		.uleb128 0x5
 2263 0f25 03       		.byte	0x3
 2264 0f26 00000000 		.4byte	.LANCHOR0
 2265 0f2a 27       		.uleb128 0x27
 2266 0f2b 01       		.uleb128 0x1
 2267 0f2c 51       		.byte	0x51
 2268 0f2d 03       		.uleb128 0x3
 2269 0f2e 0A       		.byte	0xa
 2270 0f2f 9805     		.2byte	0x598
 2271 0f31 27       		.uleb128 0x27
 2272 0f32 01       		.uleb128 0x1
 2273 0f33 52       		.byte	0x52
 2274 0f34 02       		.uleb128 0x2
 2275 0f35 08       		.byte	0x8
 2276 0f36 40       		.byte	0x40
 2277 0f37 27       		.uleb128 0x27
 2278 0f38 01       		.uleb128 0x1
 2279 0f39 53       		.byte	0x53
 2280 0f3a 05       		.uleb128 0x5
 2281 0f3b 03       		.byte	0x3
 2282 0f3c 00000000 		.4byte	periodic_thread
 2283 0f40 27       		.uleb128 0x27
 2284 0f41 02       		.uleb128 0x2
 2285 0f42 7D       		.byte	0x7d
 2286 0f43 00       		.sleb128 0
 2287 0f44 02       		.uleb128 0x2
 2288 0f45 74       		.byte	0x74
 2289 0f46 00       		.sleb128 0
 2290 0f47 00       		.byte	0
 2291 0f48 26       		.uleb128 0x26
 2292 0f49 26000000 		.4byte	.LVL31
 2293 0f4d 9A100000 		.4byte	0x109a
 2294 0f51 7C0F0000 		.4byte	0xf7c
 2295 0f55 27       		.uleb128 0x27
 2296 0f56 01       		.uleb128 0x1
 2297 0f57 50       		.byte	0x50
 2298 0f58 05       		.uleb128 0x5
 2299 0f59 03       		.byte	0x3
 2300 0f5a 00000000 		.4byte	.LANCHOR1
 2301 0f5e 27       		.uleb128 0x27
 2302 0f5f 01       		.uleb128 0x1
 2303 0f60 51       		.byte	0x51
 2304 0f61 03       		.uleb128 0x3
 2305 0f62 0A       		.byte	0xa
 2306 0f63 1802     		.2byte	0x218
ARM GAS  C:\Users\IDONNO~1\AppData\Local\Temp\ccrByNBb.s 			page 42


 2307 0f65 27       		.uleb128 0x27
 2308 0f66 01       		.uleb128 0x1
 2309 0f67 52       		.byte	0x52
 2310 0f68 02       		.uleb128 0x2
 2311 0f69 08       		.byte	0x8
 2312 0f6a 40       		.byte	0x40
 2313 0f6b 27       		.uleb128 0x27
 2314 0f6c 01       		.uleb128 0x1
 2315 0f6d 53       		.byte	0x53
 2316 0f6e 05       		.uleb128 0x5
 2317 0f6f 03       		.byte	0x3
 2318 0f70 00000000 		.4byte	uart_process_thread
 2319 0f74 27       		.uleb128 0x27
 2320 0f75 02       		.uleb128 0x2
 2321 0f76 7D       		.byte	0x7d
 2322 0f77 00       		.sleb128 0
 2323 0f78 02       		.uleb128 0x2
 2324 0f79 74       		.byte	0x74
 2325 0f7a 00       		.sleb128 0
 2326 0f7b 00       		.byte	0
 2327 0f7c 28       		.uleb128 0x28
 2328 0f7d 2E000000 		.4byte	.LVL32
 2329 0f81 35100000 		.4byte	0x1035
 2330 0f85 27       		.uleb128 0x27
 2331 0f86 01       		.uleb128 0x1
 2332 0f87 51       		.byte	0x51
 2333 0f88 05       		.uleb128 0x5
 2334 0f89 03       		.byte	0x3
 2335 0f8a 70000000 		.4byte	.LC7
 2336 0f8e 00       		.byte	0
 2337 0f8f 00       		.byte	0
 2338 0f90 17       		.uleb128 0x17
 2339 0f91 16050000 		.4byte	0x516
 2340 0f95 A00F0000 		.4byte	0xfa0
 2341 0f99 18       		.uleb128 0x18
 2342 0f9a 95040000 		.4byte	0x495
 2343 0f9e B2       		.byte	0xb2
 2344 0f9f 00       		.byte	0
 2345 0fa0 2D       		.uleb128 0x2d
 2346 0fa1 DB010000 		.4byte	.LASF175
 2347 0fa5 01       		.byte	0x1
 2348 0fa6 3C       		.byte	0x3c
 2349 0fa7 900F0000 		.4byte	0xf90
 2350 0fab 05       		.uleb128 0x5
 2351 0fac 03       		.byte	0x3
 2352 0fad 00000000 		.4byte	periodic_thread_wa
 2353 0fb1 2D       		.uleb128 0x2d
 2354 0fb2 D6080000 		.4byte	.LASF176
 2355 0fb6 01       		.byte	0x1
 2356 0fb7 3D       		.byte	0x3d
 2357 0fb8 F80B0000 		.4byte	0xbf8
 2358 0fbc 05       		.uleb128 0x5
 2359 0fbd 03       		.byte	0x3
 2360 0fbe 00000000 		.4byte	uart_thread_wa
 2361 0fc2 2E       		.uleb128 0x2e
 2362 0fc3 F8060000 		.4byte	.LASF177
 2363 0fc7 15       		.byte	0x15
ARM GAS  C:\Users\IDONNO~1\AppData\Local\Temp\ccrByNBb.s 			page 43


 2364 0fc8 A706     		.2byte	0x6a7
 2365 0fca E4000000 		.4byte	0xe4
 2366 0fce 2F       		.uleb128 0x2f
 2367 0fcf 636800   		.ascii	"ch\000"
 2368 0fd2 08       		.byte	0x8
 2369 0fd3 0902     		.2byte	0x209
 2370 0fd5 2E040000 		.4byte	0x42e
 2371 0fd9 2F       		.uleb128 0x2f
 2372 0fda 53443300 		.ascii	"SD3\000"
 2373 0fde 14       		.byte	0x14
 2374 0fdf 1501     		.2byte	0x115
 2375 0fe1 F10A0000 		.4byte	0xaf1
 2376 0fe5 2E       		.uleb128 0x2e
 2377 0fe6 C8010000 		.4byte	.LASF178
 2378 0fea 13       		.byte	0x13
 2379 0feb 0701     		.2byte	0x107
 2380 0fed E60C0000 		.4byte	0xce6
 2381 0ff1 30       		.uleb128 0x30
 2382 0ff2 84080000 		.4byte	.LASF179
 2383 0ff6 01       		.byte	0x1
 2384 0ff7 89       		.byte	0x89
 2385 0ff8 0F0C0000 		.4byte	0xc0f
 2386 0ffc 05       		.uleb128 0x5
 2387 0ffd 03       		.byte	0x3
 2388 0ffe 00000000 		.4byte	qVelRef
 2389 1002 30       		.uleb128 0x30
 2390 1003 D0060000 		.4byte	.LASF180
 2391 1007 01       		.byte	0x1
 2392 1008 8A       		.byte	0x8a
 2393 1009 0F0C0000 		.4byte	0xc0f
 2394 100d 05       		.uleb128 0x5
 2395 100e 03       		.byte	0x3
 2396 100f 00000000 		.4byte	dbg_fTheta
 2397 1013 30       		.uleb128 0x30
 2398 1014 4E070000 		.4byte	.LASF181
 2399 1018 01       		.byte	0x1
 2400 1019 8B       		.byte	0x8b
 2401 101a 0F0C0000 		.4byte	0xc0f
 2402 101e 05       		.uleb128 0x5
 2403 101f 03       		.byte	0x3
 2404 1020 00000000 		.4byte	dbg_fMea
 2405 1024 30       		.uleb128 0x30
 2406 1025 A2010000 		.4byte	.LASF182
 2407 1029 01       		.byte	0x1
 2408 102a 8C       		.byte	0x8c
 2409 102b B8000000 		.4byte	0xb8
 2410 102f 05       		.uleb128 0x5
 2411 1030 03       		.byte	0x3
 2412 1031 00000000 		.4byte	dbg_AccumTheta
 2413 1035 31       		.uleb128 0x31
 2414 1036 96000000 		.4byte	.LASF183
 2415 103a 96000000 		.4byte	.LASF183
 2416 103e 16       		.byte	0x16
 2417 103f 0E       		.byte	0xe
 2418 1040 31       		.uleb128 0x31
 2419 1041 1D080000 		.4byte	.LASF184
 2420 1045 1D080000 		.4byte	.LASF184
ARM GAS  C:\Users\IDONNO~1\AppData\Local\Temp\ccrByNBb.s 			page 44


 2421 1049 17       		.byte	0x17
 2422 104a 96       		.byte	0x96
 2423 104b 31       		.uleb128 0x31
 2424 104c 2C070000 		.4byte	.LASF185
 2425 1050 2C070000 		.4byte	.LASF185
 2426 1054 18       		.byte	0x18
 2427 1055 99       		.byte	0x99
 2428 1056 32       		.uleb128 0x32
 2429 1057 8B030000 		.4byte	.LASF186
 2430 105b 8B030000 		.4byte	.LASF186
 2431 105f 19       		.byte	0x19
 2432 1060 1501     		.2byte	0x115
 2433 1062 31       		.uleb128 0x31
 2434 1063 53010000 		.4byte	.LASF187
 2435 1067 53010000 		.4byte	.LASF187
 2436 106b 1A       		.byte	0x1a
 2437 106c 36       		.byte	0x36
 2438 106d 31       		.uleb128 0x31
 2439 106e 5B020000 		.4byte	.LASF188
 2440 1072 5B020000 		.4byte	.LASF188
 2441 1076 16       		.byte	0x16
 2442 1077 09       		.byte	0x9
 2443 1078 31       		.uleb128 0x31
 2444 1079 B8010000 		.4byte	.LASF189
 2445 107d B8010000 		.4byte	.LASF189
 2446 1081 13       		.byte	0x13
 2447 1082 28       		.byte	0x28
 2448 1083 31       		.uleb128 0x31
 2449 1084 67010000 		.4byte	.LASF190
 2450 1088 67010000 		.4byte	.LASF190
 2451 108c 13       		.byte	0x13
 2452 108d 29       		.byte	0x29
 2453 108e 32       		.uleb128 0x32
 2454 108f C4040000 		.4byte	.LASF191
 2455 1093 C4040000 		.4byte	.LASF191
 2456 1097 13       		.byte	0x13
 2457 1098 1401     		.2byte	0x114
 2458 109a 31       		.uleb128 0x31
 2459 109b DC040000 		.4byte	.LASF192
 2460 109f DC040000 		.4byte	.LASF192
 2461 10a3 17       		.byte	0x17
 2462 10a4 89       		.byte	0x89
 2463 10a5 00       		.byte	0
 2464              		.section	.debug_abbrev,"",%progbits
 2465              	.Ldebug_abbrev0:
 2466 0000 01       		.uleb128 0x1
 2467 0001 11       		.uleb128 0x11
 2468 0002 01       		.byte	0x1
 2469 0003 25       		.uleb128 0x25
 2470 0004 0E       		.uleb128 0xe
 2471 0005 13       		.uleb128 0x13
 2472 0006 0B       		.uleb128 0xb
 2473 0007 03       		.uleb128 0x3
 2474 0008 0E       		.uleb128 0xe
 2475 0009 1B       		.uleb128 0x1b
 2476 000a 0E       		.uleb128 0xe
 2477 000b 55       		.uleb128 0x55
ARM GAS  C:\Users\IDONNO~1\AppData\Local\Temp\ccrByNBb.s 			page 45


 2478 000c 17       		.uleb128 0x17
 2479 000d 11       		.uleb128 0x11
 2480 000e 01       		.uleb128 0x1
 2481 000f 10       		.uleb128 0x10
 2482 0010 17       		.uleb128 0x17
 2483 0011 00       		.byte	0
 2484 0012 00       		.byte	0
 2485 0013 02       		.uleb128 0x2
 2486 0014 24       		.uleb128 0x24
 2487 0015 00       		.byte	0
 2488 0016 0B       		.uleb128 0xb
 2489 0017 0B       		.uleb128 0xb
 2490 0018 3E       		.uleb128 0x3e
 2491 0019 0B       		.uleb128 0xb
 2492 001a 03       		.uleb128 0x3
 2493 001b 08       		.uleb128 0x8
 2494 001c 00       		.byte	0
 2495 001d 00       		.byte	0
 2496 001e 03       		.uleb128 0x3
 2497 001f 16       		.uleb128 0x16
 2498 0020 00       		.byte	0
 2499 0021 03       		.uleb128 0x3
 2500 0022 0E       		.uleb128 0xe
 2501 0023 3A       		.uleb128 0x3a
 2502 0024 0B       		.uleb128 0xb
 2503 0025 3B       		.uleb128 0x3b
 2504 0026 0B       		.uleb128 0xb
 2505 0027 49       		.uleb128 0x49
 2506 0028 13       		.uleb128 0x13
 2507 0029 00       		.byte	0
 2508 002a 00       		.byte	0
 2509 002b 04       		.uleb128 0x4
 2510 002c 24       		.uleb128 0x24
 2511 002d 00       		.byte	0
 2512 002e 0B       		.uleb128 0xb
 2513 002f 0B       		.uleb128 0xb
 2514 0030 3E       		.uleb128 0x3e
 2515 0031 0B       		.uleb128 0xb
 2516 0032 03       		.uleb128 0x3
 2517 0033 0E       		.uleb128 0xe
 2518 0034 00       		.byte	0
 2519 0035 00       		.byte	0
 2520 0036 05       		.uleb128 0x5
 2521 0037 35       		.uleb128 0x35
 2522 0038 00       		.byte	0
 2523 0039 49       		.uleb128 0x49
 2524 003a 13       		.uleb128 0x13
 2525 003b 00       		.byte	0
 2526 003c 00       		.byte	0
 2527 003d 06       		.uleb128 0x6
 2528 003e 13       		.uleb128 0x13
 2529 003f 01       		.byte	0x1
 2530 0040 03       		.uleb128 0x3
 2531 0041 0E       		.uleb128 0xe
 2532 0042 0B       		.uleb128 0xb
 2533 0043 0B       		.uleb128 0xb
 2534 0044 3A       		.uleb128 0x3a
ARM GAS  C:\Users\IDONNO~1\AppData\Local\Temp\ccrByNBb.s 			page 46


 2535 0045 0B       		.uleb128 0xb
 2536 0046 3B       		.uleb128 0x3b
 2537 0047 0B       		.uleb128 0xb
 2538 0048 01       		.uleb128 0x1
 2539 0049 13       		.uleb128 0x13
 2540 004a 00       		.byte	0
 2541 004b 00       		.byte	0
 2542 004c 07       		.uleb128 0x7
 2543 004d 0D       		.uleb128 0xd
 2544 004e 00       		.byte	0
 2545 004f 03       		.uleb128 0x3
 2546 0050 0E       		.uleb128 0xe
 2547 0051 3A       		.uleb128 0x3a
 2548 0052 0B       		.uleb128 0xb
 2549 0053 3B       		.uleb128 0x3b
 2550 0054 0B       		.uleb128 0xb
 2551 0055 49       		.uleb128 0x49
 2552 0056 13       		.uleb128 0x13
 2553 0057 38       		.uleb128 0x38
 2554 0058 0B       		.uleb128 0xb
 2555 0059 00       		.byte	0
 2556 005a 00       		.byte	0
 2557 005b 08       		.uleb128 0x8
 2558 005c 0D       		.uleb128 0xd
 2559 005d 00       		.byte	0
 2560 005e 03       		.uleb128 0x3
 2561 005f 08       		.uleb128 0x8
 2562 0060 3A       		.uleb128 0x3a
 2563 0061 0B       		.uleb128 0xb
 2564 0062 3B       		.uleb128 0x3b
 2565 0063 05       		.uleb128 0x5
 2566 0064 49       		.uleb128 0x49
 2567 0065 13       		.uleb128 0x13
 2568 0066 38       		.uleb128 0x38
 2569 0067 0B       		.uleb128 0xb
 2570 0068 00       		.byte	0
 2571 0069 00       		.byte	0
 2572 006a 09       		.uleb128 0x9
 2573 006b 0D       		.uleb128 0xd
 2574 006c 00       		.byte	0
 2575 006d 03       		.uleb128 0x3
 2576 006e 0E       		.uleb128 0xe
 2577 006f 3A       		.uleb128 0x3a
 2578 0070 0B       		.uleb128 0xb
 2579 0071 3B       		.uleb128 0x3b
 2580 0072 05       		.uleb128 0x5
 2581 0073 49       		.uleb128 0x49
 2582 0074 13       		.uleb128 0x13
 2583 0075 38       		.uleb128 0x38
 2584 0076 0B       		.uleb128 0xb
 2585 0077 00       		.byte	0
 2586 0078 00       		.byte	0
 2587 0079 0A       		.uleb128 0xa
 2588 007a 0F       		.uleb128 0xf
 2589 007b 00       		.byte	0
 2590 007c 0B       		.uleb128 0xb
 2591 007d 0B       		.uleb128 0xb
ARM GAS  C:\Users\IDONNO~1\AppData\Local\Temp\ccrByNBb.s 			page 47


 2592 007e 49       		.uleb128 0x49
 2593 007f 13       		.uleb128 0x13
 2594 0080 00       		.byte	0
 2595 0081 00       		.byte	0
 2596 0082 0B       		.uleb128 0xb
 2597 0083 13       		.uleb128 0x13
 2598 0084 01       		.byte	0x1
 2599 0085 03       		.uleb128 0x3
 2600 0086 0E       		.uleb128 0xe
 2601 0087 0B       		.uleb128 0xb
 2602 0088 0B       		.uleb128 0xb
 2603 0089 3A       		.uleb128 0x3a
 2604 008a 0B       		.uleb128 0xb
 2605 008b 3B       		.uleb128 0x3b
 2606 008c 05       		.uleb128 0x5
 2607 008d 01       		.uleb128 0x1
 2608 008e 13       		.uleb128 0x13
 2609 008f 00       		.byte	0
 2610 0090 00       		.byte	0
 2611 0091 0C       		.uleb128 0xc
 2612 0092 15       		.uleb128 0x15
 2613 0093 01       		.byte	0x1
 2614 0094 27       		.uleb128 0x27
 2615 0095 19       		.uleb128 0x19
 2616 0096 01       		.uleb128 0x1
 2617 0097 13       		.uleb128 0x13
 2618 0098 00       		.byte	0
 2619 0099 00       		.byte	0
 2620 009a 0D       		.uleb128 0xd
 2621 009b 05       		.uleb128 0x5
 2622 009c 00       		.byte	0
 2623 009d 49       		.uleb128 0x49
 2624 009e 13       		.uleb128 0x13
 2625 009f 00       		.byte	0
 2626 00a0 00       		.byte	0
 2627 00a1 0E       		.uleb128 0xe
 2628 00a2 0F       		.uleb128 0xf
 2629 00a3 00       		.byte	0
 2630 00a4 0B       		.uleb128 0xb
 2631 00a5 0B       		.uleb128 0xb
 2632 00a6 00       		.byte	0
 2633 00a7 00       		.byte	0
 2634 00a8 0F       		.uleb128 0xf
 2635 00a9 13       		.uleb128 0x13
 2636 00aa 01       		.byte	0x1
 2637 00ab 03       		.uleb128 0x3
 2638 00ac 0E       		.uleb128 0xe
 2639 00ad 0B       		.uleb128 0xb
 2640 00ae 05       		.uleb128 0x5
 2641 00af 3A       		.uleb128 0x3a
 2642 00b0 0B       		.uleb128 0xb
 2643 00b1 3B       		.uleb128 0x3b
 2644 00b2 05       		.uleb128 0x5
 2645 00b3 01       		.uleb128 0x1
 2646 00b4 13       		.uleb128 0x13
 2647 00b5 00       		.byte	0
 2648 00b6 00       		.byte	0
ARM GAS  C:\Users\IDONNO~1\AppData\Local\Temp\ccrByNBb.s 			page 48


 2649 00b7 10       		.uleb128 0x10
 2650 00b8 13       		.uleb128 0x13
 2651 00b9 01       		.byte	0x1
 2652 00ba 0B       		.uleb128 0xb
 2653 00bb 0B       		.uleb128 0xb
 2654 00bc 3A       		.uleb128 0x3a
 2655 00bd 0B       		.uleb128 0xb
 2656 00be 3B       		.uleb128 0x3b
 2657 00bf 05       		.uleb128 0x5
 2658 00c0 01       		.uleb128 0x1
 2659 00c1 13       		.uleb128 0x13
 2660 00c2 00       		.byte	0
 2661 00c3 00       		.byte	0
 2662 00c4 11       		.uleb128 0x11
 2663 00c5 16       		.uleb128 0x16
 2664 00c6 00       		.byte	0
 2665 00c7 03       		.uleb128 0x3
 2666 00c8 0E       		.uleb128 0xe
 2667 00c9 3A       		.uleb128 0x3a
 2668 00ca 0B       		.uleb128 0xb
 2669 00cb 3B       		.uleb128 0x3b
 2670 00cc 05       		.uleb128 0x5
 2671 00cd 49       		.uleb128 0x49
 2672 00ce 13       		.uleb128 0x13
 2673 00cf 00       		.byte	0
 2674 00d0 00       		.byte	0
 2675 00d1 12       		.uleb128 0x12
 2676 00d2 0D       		.uleb128 0xd
 2677 00d3 00       		.byte	0
 2678 00d4 03       		.uleb128 0x3
 2679 00d5 08       		.uleb128 0x8
 2680 00d6 3A       		.uleb128 0x3a
 2681 00d7 0B       		.uleb128 0xb
 2682 00d8 3B       		.uleb128 0x3b
 2683 00d9 0B       		.uleb128 0xb
 2684 00da 49       		.uleb128 0x49
 2685 00db 13       		.uleb128 0x13
 2686 00dc 38       		.uleb128 0x38
 2687 00dd 0B       		.uleb128 0xb
 2688 00de 00       		.byte	0
 2689 00df 00       		.byte	0
 2690 00e0 13       		.uleb128 0x13
 2691 00e1 13       		.uleb128 0x13
 2692 00e2 01       		.byte	0x1
 2693 00e3 0B       		.uleb128 0xb
 2694 00e4 0B       		.uleb128 0xb
 2695 00e5 3A       		.uleb128 0x3a
 2696 00e6 0B       		.uleb128 0xb
 2697 00e7 3B       		.uleb128 0x3b
 2698 00e8 0B       		.uleb128 0xb
 2699 00e9 01       		.uleb128 0x1
 2700 00ea 13       		.uleb128 0x13
 2701 00eb 00       		.byte	0
 2702 00ec 00       		.byte	0
 2703 00ed 14       		.uleb128 0x14
 2704 00ee 17       		.uleb128 0x17
 2705 00ef 01       		.byte	0x1
ARM GAS  C:\Users\IDONNO~1\AppData\Local\Temp\ccrByNBb.s 			page 49


 2706 00f0 0B       		.uleb128 0xb
 2707 00f1 0B       		.uleb128 0xb
 2708 00f2 3A       		.uleb128 0x3a
 2709 00f3 0B       		.uleb128 0xb
 2710 00f4 3B       		.uleb128 0x3b
 2711 00f5 0B       		.uleb128 0xb
 2712 00f6 01       		.uleb128 0x1
 2713 00f7 13       		.uleb128 0x13
 2714 00f8 00       		.byte	0
 2715 00f9 00       		.byte	0
 2716 00fa 15       		.uleb128 0x15
 2717 00fb 0D       		.uleb128 0xd
 2718 00fc 00       		.byte	0
 2719 00fd 03       		.uleb128 0x3
 2720 00fe 0E       		.uleb128 0xe
 2721 00ff 3A       		.uleb128 0x3a
 2722 0100 0B       		.uleb128 0xb
 2723 0101 3B       		.uleb128 0x3b
 2724 0102 05       		.uleb128 0x5
 2725 0103 49       		.uleb128 0x49
 2726 0104 13       		.uleb128 0x13
 2727 0105 00       		.byte	0
 2728 0106 00       		.byte	0
 2729 0107 16       		.uleb128 0x16
 2730 0108 26       		.uleb128 0x26
 2731 0109 00       		.byte	0
 2732 010a 49       		.uleb128 0x49
 2733 010b 13       		.uleb128 0x13
 2734 010c 00       		.byte	0
 2735 010d 00       		.byte	0
 2736 010e 17       		.uleb128 0x17
 2737 010f 01       		.uleb128 0x1
 2738 0110 01       		.byte	0x1
 2739 0111 49       		.uleb128 0x49
 2740 0112 13       		.uleb128 0x13
 2741 0113 01       		.uleb128 0x1
 2742 0114 13       		.uleb128 0x13
 2743 0115 00       		.byte	0
 2744 0116 00       		.byte	0
 2745 0117 18       		.uleb128 0x18
 2746 0118 21       		.uleb128 0x21
 2747 0119 00       		.byte	0
 2748 011a 49       		.uleb128 0x49
 2749 011b 13       		.uleb128 0x13
 2750 011c 2F       		.uleb128 0x2f
 2751 011d 0B       		.uleb128 0xb
 2752 011e 00       		.byte	0
 2753 011f 00       		.byte	0
 2754 0120 19       		.uleb128 0x19
 2755 0121 15       		.uleb128 0x15
 2756 0122 01       		.byte	0x1
 2757 0123 27       		.uleb128 0x27
 2758 0124 19       		.uleb128 0x19
 2759 0125 49       		.uleb128 0x49
 2760 0126 13       		.uleb128 0x13
 2761 0127 01       		.uleb128 0x1
 2762 0128 13       		.uleb128 0x13
ARM GAS  C:\Users\IDONNO~1\AppData\Local\Temp\ccrByNBb.s 			page 50


 2763 0129 00       		.byte	0
 2764 012a 00       		.byte	0
 2765 012b 1A       		.uleb128 0x1a
 2766 012c 0D       		.uleb128 0xd
 2767 012d 00       		.byte	0
 2768 012e 03       		.uleb128 0x3
 2769 012f 08       		.uleb128 0x8
 2770 0130 3A       		.uleb128 0x3a
 2771 0131 0B       		.uleb128 0xb
 2772 0132 3B       		.uleb128 0x3b
 2773 0133 0B       		.uleb128 0xb
 2774 0134 49       		.uleb128 0x49
 2775 0135 13       		.uleb128 0x13
 2776 0136 00       		.byte	0
 2777 0137 00       		.byte	0
 2778 0138 1B       		.uleb128 0x1b
 2779 0139 04       		.uleb128 0x4
 2780 013a 01       		.byte	0x1
 2781 013b 0B       		.uleb128 0xb
 2782 013c 0B       		.uleb128 0xb
 2783 013d 49       		.uleb128 0x49
 2784 013e 13       		.uleb128 0x13
 2785 013f 3A       		.uleb128 0x3a
 2786 0140 0B       		.uleb128 0xb
 2787 0141 3B       		.uleb128 0x3b
 2788 0142 0B       		.uleb128 0xb
 2789 0143 01       		.uleb128 0x1
 2790 0144 13       		.uleb128 0x13
 2791 0145 00       		.byte	0
 2792 0146 00       		.byte	0
 2793 0147 1C       		.uleb128 0x1c
 2794 0148 28       		.uleb128 0x28
 2795 0149 00       		.byte	0
 2796 014a 03       		.uleb128 0x3
 2797 014b 0E       		.uleb128 0xe
 2798 014c 1C       		.uleb128 0x1c
 2799 014d 0B       		.uleb128 0xb
 2800 014e 00       		.byte	0
 2801 014f 00       		.byte	0
 2802 0150 1D       		.uleb128 0x1d
 2803 0151 13       		.uleb128 0x13
 2804 0152 01       		.byte	0x1
 2805 0153 03       		.uleb128 0x3
 2806 0154 0E       		.uleb128 0xe
 2807 0155 0B       		.uleb128 0xb
 2808 0156 05       		.uleb128 0x5
 2809 0157 3A       		.uleb128 0x3a
 2810 0158 0B       		.uleb128 0xb
 2811 0159 3B       		.uleb128 0x3b
 2812 015a 0B       		.uleb128 0xb
 2813 015b 01       		.uleb128 0x1
 2814 015c 13       		.uleb128 0x13
 2815 015d 00       		.byte	0
 2816 015e 00       		.byte	0
 2817 015f 1E       		.uleb128 0x1e
 2818 0160 0D       		.uleb128 0xd
 2819 0161 00       		.byte	0
ARM GAS  C:\Users\IDONNO~1\AppData\Local\Temp\ccrByNBb.s 			page 51


 2820 0162 03       		.uleb128 0x3
 2821 0163 08       		.uleb128 0x8
 2822 0164 3A       		.uleb128 0x3a
 2823 0165 0B       		.uleb128 0xb
 2824 0166 3B       		.uleb128 0x3b
 2825 0167 0B       		.uleb128 0xb
 2826 0168 49       		.uleb128 0x49
 2827 0169 13       		.uleb128 0x13
 2828 016a 38       		.uleb128 0x38
 2829 016b 05       		.uleb128 0x5
 2830 016c 00       		.byte	0
 2831 016d 00       		.byte	0
 2832 016e 1F       		.uleb128 0x1f
 2833 016f 0D       		.uleb128 0xd
 2834 0170 00       		.byte	0
 2835 0171 03       		.uleb128 0x3
 2836 0172 0E       		.uleb128 0xe
 2837 0173 3A       		.uleb128 0x3a
 2838 0174 0B       		.uleb128 0xb
 2839 0175 3B       		.uleb128 0x3b
 2840 0176 0B       		.uleb128 0xb
 2841 0177 49       		.uleb128 0x49
 2842 0178 13       		.uleb128 0x13
 2843 0179 38       		.uleb128 0x38
 2844 017a 05       		.uleb128 0x5
 2845 017b 00       		.byte	0
 2846 017c 00       		.byte	0
 2847 017d 20       		.uleb128 0x20
 2848 017e 2E       		.uleb128 0x2e
 2849 017f 01       		.byte	0x1
 2850 0180 03       		.uleb128 0x3
 2851 0181 0E       		.uleb128 0xe
 2852 0182 3A       		.uleb128 0x3a
 2853 0183 0B       		.uleb128 0xb
 2854 0184 3B       		.uleb128 0x3b
 2855 0185 0B       		.uleb128 0xb
 2856 0186 27       		.uleb128 0x27
 2857 0187 19       		.uleb128 0x19
 2858 0188 20       		.uleb128 0x20
 2859 0189 0B       		.uleb128 0xb
 2860 018a 01       		.uleb128 0x1
 2861 018b 13       		.uleb128 0x13
 2862 018c 00       		.byte	0
 2863 018d 00       		.byte	0
 2864 018e 21       		.uleb128 0x21
 2865 018f 05       		.uleb128 0x5
 2866 0190 00       		.byte	0
 2867 0191 03       		.uleb128 0x3
 2868 0192 0E       		.uleb128 0xe
 2869 0193 3A       		.uleb128 0x3a
 2870 0194 0B       		.uleb128 0xb
 2871 0195 3B       		.uleb128 0x3b
 2872 0196 0B       		.uleb128 0xb
 2873 0197 49       		.uleb128 0x49
 2874 0198 13       		.uleb128 0x13
 2875 0199 00       		.byte	0
 2876 019a 00       		.byte	0
ARM GAS  C:\Users\IDONNO~1\AppData\Local\Temp\ccrByNBb.s 			page 52


 2877 019b 22       		.uleb128 0x22
 2878 019c 2E       		.uleb128 0x2e
 2879 019d 01       		.byte	0x1
 2880 019e 03       		.uleb128 0x3
 2881 019f 0E       		.uleb128 0xe
 2882 01a0 3A       		.uleb128 0x3a
 2883 01a1 0B       		.uleb128 0xb
 2884 01a2 3B       		.uleb128 0x3b
 2885 01a3 0B       		.uleb128 0xb
 2886 01a4 27       		.uleb128 0x27
 2887 01a5 19       		.uleb128 0x19
 2888 01a6 49       		.uleb128 0x49
 2889 01a7 13       		.uleb128 0x13
 2890 01a8 8701     		.uleb128 0x87
 2891 01aa 19       		.uleb128 0x19
 2892 01ab 11       		.uleb128 0x11
 2893 01ac 01       		.uleb128 0x1
 2894 01ad 12       		.uleb128 0x12
 2895 01ae 06       		.uleb128 0x6
 2896 01af 40       		.uleb128 0x40
 2897 01b0 18       		.uleb128 0x18
 2898 01b1 9642     		.uleb128 0x2116
 2899 01b3 19       		.uleb128 0x19
 2900 01b4 01       		.uleb128 0x1
 2901 01b5 13       		.uleb128 0x13
 2902 01b6 00       		.byte	0
 2903 01b7 00       		.byte	0
 2904 01b8 23       		.uleb128 0x23
 2905 01b9 05       		.uleb128 0x5
 2906 01ba 00       		.byte	0
 2907 01bb 03       		.uleb128 0x3
 2908 01bc 08       		.uleb128 0x8
 2909 01bd 3A       		.uleb128 0x3a
 2910 01be 0B       		.uleb128 0xb
 2911 01bf 3B       		.uleb128 0x3b
 2912 01c0 0B       		.uleb128 0xb
 2913 01c1 49       		.uleb128 0x49
 2914 01c2 13       		.uleb128 0x13
 2915 01c3 02       		.uleb128 0x2
 2916 01c4 17       		.uleb128 0x17
 2917 01c5 00       		.byte	0
 2918 01c6 00       		.byte	0
 2919 01c7 24       		.uleb128 0x24
 2920 01c8 1D       		.uleb128 0x1d
 2921 01c9 01       		.byte	0x1
 2922 01ca 31       		.uleb128 0x31
 2923 01cb 13       		.uleb128 0x13
 2924 01cc 52       		.uleb128 0x52
 2925 01cd 01       		.uleb128 0x1
 2926 01ce 55       		.uleb128 0x55
 2927 01cf 17       		.uleb128 0x17
 2928 01d0 58       		.uleb128 0x58
 2929 01d1 0B       		.uleb128 0xb
 2930 01d2 59       		.uleb128 0x59
 2931 01d3 0B       		.uleb128 0xb
 2932 01d4 01       		.uleb128 0x1
 2933 01d5 13       		.uleb128 0x13
ARM GAS  C:\Users\IDONNO~1\AppData\Local\Temp\ccrByNBb.s 			page 53


 2934 01d6 00       		.byte	0
 2935 01d7 00       		.byte	0
 2936 01d8 25       		.uleb128 0x25
 2937 01d9 05       		.uleb128 0x5
 2938 01da 00       		.byte	0
 2939 01db 31       		.uleb128 0x31
 2940 01dc 13       		.uleb128 0x13
 2941 01dd 02       		.uleb128 0x2
 2942 01de 17       		.uleb128 0x17
 2943 01df 00       		.byte	0
 2944 01e0 00       		.byte	0
 2945 01e1 26       		.uleb128 0x26
 2946 01e2 898201   		.uleb128 0x4109
 2947 01e5 01       		.byte	0x1
 2948 01e6 11       		.uleb128 0x11
 2949 01e7 01       		.uleb128 0x1
 2950 01e8 31       		.uleb128 0x31
 2951 01e9 13       		.uleb128 0x13
 2952 01ea 01       		.uleb128 0x1
 2953 01eb 13       		.uleb128 0x13
 2954 01ec 00       		.byte	0
 2955 01ed 00       		.byte	0
 2956 01ee 27       		.uleb128 0x27
 2957 01ef 8A8201   		.uleb128 0x410a
 2958 01f2 00       		.byte	0
 2959 01f3 02       		.uleb128 0x2
 2960 01f4 18       		.uleb128 0x18
 2961 01f5 9142     		.uleb128 0x2111
 2962 01f7 18       		.uleb128 0x18
 2963 01f8 00       		.byte	0
 2964 01f9 00       		.byte	0
 2965 01fa 28       		.uleb128 0x28
 2966 01fb 898201   		.uleb128 0x4109
 2967 01fe 01       		.byte	0x1
 2968 01ff 11       		.uleb128 0x11
 2969 0200 01       		.uleb128 0x1
 2970 0201 31       		.uleb128 0x31
 2971 0202 13       		.uleb128 0x13
 2972 0203 00       		.byte	0
 2973 0204 00       		.byte	0
 2974 0205 29       		.uleb128 0x29
 2975 0206 2E       		.uleb128 0x2e
 2976 0207 01       		.byte	0x1
 2977 0208 03       		.uleb128 0x3
 2978 0209 0E       		.uleb128 0xe
 2979 020a 3A       		.uleb128 0x3a
 2980 020b 0B       		.uleb128 0xb
 2981 020c 3B       		.uleb128 0x3b
 2982 020d 0B       		.uleb128 0xb
 2983 020e 27       		.uleb128 0x27
 2984 020f 19       		.uleb128 0x19
 2985 0210 49       		.uleb128 0x49
 2986 0211 13       		.uleb128 0x13
 2987 0212 8701     		.uleb128 0x87
 2988 0214 19       		.uleb128 0x19
 2989 0215 11       		.uleb128 0x11
 2990 0216 01       		.uleb128 0x1
ARM GAS  C:\Users\IDONNO~1\AppData\Local\Temp\ccrByNBb.s 			page 54


 2991 0217 12       		.uleb128 0x12
 2992 0218 06       		.uleb128 0x6
 2993 0219 40       		.uleb128 0x40
 2994 021a 18       		.uleb128 0x18
 2995 021b 9742     		.uleb128 0x2117
 2996 021d 19       		.uleb128 0x19
 2997 021e 01       		.uleb128 0x1
 2998 021f 13       		.uleb128 0x13
 2999 0220 00       		.byte	0
 3000 0221 00       		.byte	0
 3001 0222 2A       		.uleb128 0x2a
 3002 0223 2E       		.uleb128 0x2e
 3003 0224 01       		.byte	0x1
 3004 0225 3F       		.uleb128 0x3f
 3005 0226 19       		.uleb128 0x19
 3006 0227 03       		.uleb128 0x3
 3007 0228 0E       		.uleb128 0xe
 3008 0229 3A       		.uleb128 0x3a
 3009 022a 0B       		.uleb128 0xb
 3010 022b 3B       		.uleb128 0x3b
 3011 022c 0B       		.uleb128 0xb
 3012 022d 27       		.uleb128 0x27
 3013 022e 19       		.uleb128 0x19
 3014 022f 49       		.uleb128 0x49
 3015 0230 13       		.uleb128 0x13
 3016 0231 11       		.uleb128 0x11
 3017 0232 01       		.uleb128 0x1
 3018 0233 12       		.uleb128 0x12
 3019 0234 06       		.uleb128 0x6
 3020 0235 40       		.uleb128 0x40
 3021 0236 18       		.uleb128 0x18
 3022 0237 9742     		.uleb128 0x2117
 3023 0239 19       		.uleb128 0x19
 3024 023a 01       		.uleb128 0x1
 3025 023b 13       		.uleb128 0x13
 3026 023c 00       		.byte	0
 3027 023d 00       		.byte	0
 3028 023e 2B       		.uleb128 0x2b
 3029 023f 898201   		.uleb128 0x4109
 3030 0242 00       		.byte	0
 3031 0243 11       		.uleb128 0x11
 3032 0244 01       		.uleb128 0x1
 3033 0245 31       		.uleb128 0x31
 3034 0246 13       		.uleb128 0x13
 3035 0247 00       		.byte	0
 3036 0248 00       		.byte	0
 3037 0249 2C       		.uleb128 0x2c
 3038 024a 2E       		.uleb128 0x2e
 3039 024b 01       		.byte	0x1
 3040 024c 3F       		.uleb128 0x3f
 3041 024d 19       		.uleb128 0x19
 3042 024e 03       		.uleb128 0x3
 3043 024f 0E       		.uleb128 0xe
 3044 0250 3A       		.uleb128 0x3a
 3045 0251 0B       		.uleb128 0xb
 3046 0252 3B       		.uleb128 0x3b
 3047 0253 0B       		.uleb128 0xb
ARM GAS  C:\Users\IDONNO~1\AppData\Local\Temp\ccrByNBb.s 			page 55


 3048 0254 27       		.uleb128 0x27
 3049 0255 19       		.uleb128 0x19
 3050 0256 49       		.uleb128 0x49
 3051 0257 13       		.uleb128 0x13
 3052 0258 8701     		.uleb128 0x87
 3053 025a 19       		.uleb128 0x19
 3054 025b 11       		.uleb128 0x11
 3055 025c 01       		.uleb128 0x1
 3056 025d 12       		.uleb128 0x12
 3057 025e 06       		.uleb128 0x6
 3058 025f 40       		.uleb128 0x40
 3059 0260 18       		.uleb128 0x18
 3060 0261 9742     		.uleb128 0x2117
 3061 0263 19       		.uleb128 0x19
 3062 0264 01       		.uleb128 0x1
 3063 0265 13       		.uleb128 0x13
 3064 0266 00       		.byte	0
 3065 0267 00       		.byte	0
 3066 0268 2D       		.uleb128 0x2d
 3067 0269 34       		.uleb128 0x34
 3068 026a 00       		.byte	0
 3069 026b 03       		.uleb128 0x3
 3070 026c 0E       		.uleb128 0xe
 3071 026d 3A       		.uleb128 0x3a
 3072 026e 0B       		.uleb128 0xb
 3073 026f 3B       		.uleb128 0x3b
 3074 0270 0B       		.uleb128 0xb
 3075 0271 49       		.uleb128 0x49
 3076 0272 13       		.uleb128 0x13
 3077 0273 02       		.uleb128 0x2
 3078 0274 18       		.uleb128 0x18
 3079 0275 00       		.byte	0
 3080 0276 00       		.byte	0
 3081 0277 2E       		.uleb128 0x2e
 3082 0278 34       		.uleb128 0x34
 3083 0279 00       		.byte	0
 3084 027a 03       		.uleb128 0x3
 3085 027b 0E       		.uleb128 0xe
 3086 027c 3A       		.uleb128 0x3a
 3087 027d 0B       		.uleb128 0xb
 3088 027e 3B       		.uleb128 0x3b
 3089 027f 05       		.uleb128 0x5
 3090 0280 49       		.uleb128 0x49
 3091 0281 13       		.uleb128 0x13
 3092 0282 3F       		.uleb128 0x3f
 3093 0283 19       		.uleb128 0x19
 3094 0284 3C       		.uleb128 0x3c
 3095 0285 19       		.uleb128 0x19
 3096 0286 00       		.byte	0
 3097 0287 00       		.byte	0
 3098 0288 2F       		.uleb128 0x2f
 3099 0289 34       		.uleb128 0x34
 3100 028a 00       		.byte	0
 3101 028b 03       		.uleb128 0x3
 3102 028c 08       		.uleb128 0x8
 3103 028d 3A       		.uleb128 0x3a
 3104 028e 0B       		.uleb128 0xb
ARM GAS  C:\Users\IDONNO~1\AppData\Local\Temp\ccrByNBb.s 			page 56


 3105 028f 3B       		.uleb128 0x3b
 3106 0290 05       		.uleb128 0x5
 3107 0291 49       		.uleb128 0x49
 3108 0292 13       		.uleb128 0x13
 3109 0293 3F       		.uleb128 0x3f
 3110 0294 19       		.uleb128 0x19
 3111 0295 3C       		.uleb128 0x3c
 3112 0296 19       		.uleb128 0x19
 3113 0297 00       		.byte	0
 3114 0298 00       		.byte	0
 3115 0299 30       		.uleb128 0x30
 3116 029a 34       		.uleb128 0x34
 3117 029b 00       		.byte	0
 3118 029c 03       		.uleb128 0x3
 3119 029d 0E       		.uleb128 0xe
 3120 029e 3A       		.uleb128 0x3a
 3121 029f 0B       		.uleb128 0xb
 3122 02a0 3B       		.uleb128 0x3b
 3123 02a1 0B       		.uleb128 0xb
 3124 02a2 49       		.uleb128 0x49
 3125 02a3 13       		.uleb128 0x13
 3126 02a4 3F       		.uleb128 0x3f
 3127 02a5 19       		.uleb128 0x19
 3128 02a6 02       		.uleb128 0x2
 3129 02a7 18       		.uleb128 0x18
 3130 02a8 00       		.byte	0
 3131 02a9 00       		.byte	0
 3132 02aa 31       		.uleb128 0x31
 3133 02ab 2E       		.uleb128 0x2e
 3134 02ac 00       		.byte	0
 3135 02ad 3F       		.uleb128 0x3f
 3136 02ae 19       		.uleb128 0x19
 3137 02af 3C       		.uleb128 0x3c
 3138 02b0 19       		.uleb128 0x19
 3139 02b1 6E       		.uleb128 0x6e
 3140 02b2 0E       		.uleb128 0xe
 3141 02b3 03       		.uleb128 0x3
 3142 02b4 0E       		.uleb128 0xe
 3143 02b5 3A       		.uleb128 0x3a
 3144 02b6 0B       		.uleb128 0xb
 3145 02b7 3B       		.uleb128 0x3b
 3146 02b8 0B       		.uleb128 0xb
 3147 02b9 00       		.byte	0
 3148 02ba 00       		.byte	0
 3149 02bb 32       		.uleb128 0x32
 3150 02bc 2E       		.uleb128 0x2e
 3151 02bd 00       		.byte	0
 3152 02be 3F       		.uleb128 0x3f
 3153 02bf 19       		.uleb128 0x19
 3154 02c0 3C       		.uleb128 0x3c
 3155 02c1 19       		.uleb128 0x19
 3156 02c2 6E       		.uleb128 0x6e
 3157 02c3 0E       		.uleb128 0xe
 3158 02c4 03       		.uleb128 0x3
 3159 02c5 0E       		.uleb128 0xe
 3160 02c6 3A       		.uleb128 0x3a
 3161 02c7 0B       		.uleb128 0xb
ARM GAS  C:\Users\IDONNO~1\AppData\Local\Temp\ccrByNBb.s 			page 57


 3162 02c8 3B       		.uleb128 0x3b
 3163 02c9 05       		.uleb128 0x5
 3164 02ca 00       		.byte	0
 3165 02cb 00       		.byte	0
 3166 02cc 00       		.byte	0
 3167              		.section	.debug_loc,"",%progbits
 3168              	.Ldebug_loc0:
 3169              	.LLST0:
 3170 0000 00000000 		.4byte	.LVL0
 3171 0004 0E000000 		.4byte	.LVL2
 3172 0008 0100     		.2byte	0x1
 3173 000a 50       		.byte	0x50
 3174 000b 0E000000 		.4byte	.LVL2
 3175 000f 94000000 		.4byte	.LFE258
 3176 0013 0400     		.2byte	0x4
 3177 0015 F3       		.byte	0xf3
 3178 0016 01       		.uleb128 0x1
 3179 0017 50       		.byte	0x50
 3180 0018 9F       		.byte	0x9f
 3181 0019 00000000 		.4byte	0
 3182 001d 00000000 		.4byte	0
 3183              	.LLST1:
 3184 0021 00000000 		.4byte	.LVL0
 3185 0025 0C000000 		.4byte	.LVL1
 3186 0029 0600     		.2byte	0x6
 3187 002b 03       		.byte	0x3
 3188 002c 00000000 		.4byte	.LC0
 3189 0030 9F       		.byte	0x9f
 3190 0031 00000000 		.4byte	0
 3191 0035 00000000 		.4byte	0
 3192              	.LLST2:
 3193 0039 00000000 		.4byte	.LVL15
 3194 003d 0E000000 		.4byte	.LVL17
 3195 0041 0100     		.2byte	0x1
 3196 0043 50       		.byte	0x50
 3197 0044 0E000000 		.4byte	.LVL17
 3198 0048 44000000 		.4byte	.LFE256
 3199 004c 0400     		.2byte	0x4
 3200 004e F3       		.byte	0xf3
 3201 004f 01       		.uleb128 0x1
 3202 0050 50       		.byte	0x50
 3203 0051 9F       		.byte	0x9f
 3204 0052 00000000 		.4byte	0
 3205 0056 00000000 		.4byte	0
 3206              	.LLST3:
 3207 005a 00000000 		.4byte	.LVL15
 3208 005e 0C000000 		.4byte	.LVL16
 3209 0062 0600     		.2byte	0x6
 3210 0064 03       		.byte	0x3
 3211 0065 3C000000 		.4byte	.LC4
 3212 0069 9F       		.byte	0x9f
 3213 006a 00000000 		.4byte	0
 3214 006e 00000000 		.4byte	0
 3215              		.section	.debug_aranges,"",%progbits
 3216 0000 34000000 		.4byte	0x34
 3217 0004 0200     		.2byte	0x2
 3218 0006 00000000 		.4byte	.Ldebug_info0
ARM GAS  C:\Users\IDONNO~1\AppData\Local\Temp\ccrByNBb.s 			page 58


 3219 000a 04       		.byte	0x4
 3220 000b 00       		.byte	0
 3221 000c 0000     		.2byte	0
 3222 000e 0000     		.2byte	0
 3223 0010 00000000 		.4byte	.LFB258
 3224 0014 94000000 		.4byte	.LFE258-.LFB258
 3225 0018 00000000 		.4byte	.LFB256
 3226 001c 44000000 		.4byte	.LFE256-.LFB256
 3227 0020 00000000 		.4byte	.LFB257
 3228 0024 3C000000 		.4byte	.LFE257-.LFB257
 3229 0028 00000000 		.4byte	.LFB259
 3230 002c 48000000 		.4byte	.LFE259-.LFB259
 3231 0030 00000000 		.4byte	0
 3232 0034 00000000 		.4byte	0
 3233              		.section	.debug_ranges,"",%progbits
 3234              	.Ldebug_ranges0:
 3235 0000 02000000 		.4byte	.LBB6
 3236 0004 08000000 		.4byte	.LBE6
 3237 0008 0A000000 		.4byte	.LBB9
 3238 000c 0C000000 		.4byte	.LBE9
 3239 0010 00000000 		.4byte	0
 3240 0014 00000000 		.4byte	0
 3241 0018 02000000 		.4byte	.LBB10
 3242 001c 08000000 		.4byte	.LBE10
 3243 0020 0A000000 		.4byte	.LBB13
 3244 0024 0C000000 		.4byte	.LBE13
 3245 0028 00000000 		.4byte	0
 3246 002c 00000000 		.4byte	0
 3247 0030 00000000 		.4byte	.LFB258
 3248 0034 94000000 		.4byte	.LFE258
 3249 0038 00000000 		.4byte	.LFB256
 3250 003c 44000000 		.4byte	.LFE256
 3251 0040 00000000 		.4byte	.LFB257
 3252 0044 3C000000 		.4byte	.LFE257
 3253 0048 00000000 		.4byte	.LFB259
 3254 004c 48000000 		.4byte	.LFE259
 3255 0050 00000000 		.4byte	0
 3256 0054 00000000 		.4byte	0
 3257              		.section	.debug_line,"",%progbits
 3258              	.Ldebug_line0:
 3259 0000 87040000 		.section	.debug_str,"MS",%progbits,1
 3259      0200D103 
 3259      00000201 
 3259      FB0E0D00 
 3259      01010101 
 3260              	.LASF173:
 3261 0000 75617274 		.ascii	"uart_process_thread\000"
 3261      5F70726F 
 3261      63657373 
 3261      5F746872 
 3261      65616400 
 3262              	.LASF54:
 3263 0014 63685F74 		.ascii	"ch_threads_list\000"
 3263      68726561 
 3263      64735F6C 
 3263      69737400 
 3264              	.LASF55:
ARM GAS  C:\Users\IDONNO~1\AppData\Local\Temp\ccrByNBb.s 			page 59


 3265 0024 74687265 		.ascii	"threads_queue_t\000"
 3265      6164735F 
 3265      71756575 
 3265      655F7400 
 3266              	.LASF149:
 3267 0034 53657269 		.ascii	"SerialDriver\000"
 3267      616C4472 
 3267      69766572 
 3267      00
 3268              	.LASF197:
 3269 0041 6E616D65 		.ascii	"name\000"
 3269      00
 3270              	.LASF93:
 3271 0046 746D5F63 		.ascii	"tm_calibration_t\000"
 3271      616C6962 
 3271      72617469 
 3271      6F6E5F74 
 3271      00
 3272              	.LASF43:
 3273 0057 705F7469 		.ascii	"p_time\000"
 3273      6D6500
 3274              	.LASF139:
 3275 005e 42535252 		.ascii	"BSRR\000"
 3275      00
 3276              	.LASF108:
 3277 0063 63686172 		.ascii	"char\000"
 3277      00
 3278              	.LASF88:
 3279 0068 72656761 		.ascii	"regarm_t\000"
 3279      726D5F74 
 3279      00
 3280              	.LASF34:
 3281 0071 705F7072 		.ascii	"p_prio\000"
 3281      696F00
 3282              	.LASF94:
 3283 0078 7264796D 		.ascii	"rdymsg\000"
 3283      736700
 3284              	.LASF117:
 3285 007f 6576656E 		.ascii	"event_source\000"
 3285      745F736F 
 3285      75726365 
 3285      00
 3286              	.LASF30:
 3287 008c 73797374 		.ascii	"systime_t\000"
 3287      696D655F 
 3287      7400
 3288              	.LASF183:
 3289 0096 55617274 		.ascii	"Uart3_printf\000"
 3289      335F7072 
 3289      696E7466 
 3289      00
 3290              	.LASF102:
 3291 00a3 735F7175 		.ascii	"s_queue\000"
 3291      65756500 
 3292              	.LASF75:
 3293 00ab 76745F73 		.ascii	"vt_systime\000"
 3293      79737469 
ARM GAS  C:\Users\IDONNO~1\AppData\Local\Temp\ccrByNBb.s 			page 60


 3293      6D6500
 3294              	.LASF120:
 3295 00b6 696F5F71 		.ascii	"io_queue_t\000"
 3295      75657565 
 3295      5F7400
 3296              	.LASF45:
 3297 00c1 705F6D73 		.ascii	"p_msgqueue\000"
 3297      67717565 
 3297      756500
 3298              	.LASF0:
 3299 00cc 756E7369 		.ascii	"unsigned int\000"
 3299      676E6564 
 3299      20696E74 
 3299      00
 3300              	.LASF18:
 3301 00d9 75696E74 		.ascii	"uint32_t\000"
 3301      33325F74 
 3301      00
 3302              	.LASF52:
 3303 00e2 74687265 		.ascii	"threads_list_t\000"
 3303      6164735F 
 3303      6C697374 
 3303      5F7400
 3304              	.LASF44:
 3305 00f1 705F7761 		.ascii	"p_waiting\000"
 3305      6974696E 
 3305      6700
 3306              	.LASF127:
 3307 00fb 715F7264 		.ascii	"q_rdptr\000"
 3307      70747200 
 3308              	.LASF8:
 3309 0103 5F5F696E 		.ascii	"__int32_t\000"
 3309      7433325F 
 3309      7400
 3310              	.LASF130:
 3311 010d 716E6F74 		.ascii	"qnotify_t\000"
 3311      6966795F 
 3311      7400
 3312              	.LASF96:
 3313 0117 77746F62 		.ascii	"wtobjp\000"
 3313      6A7000
 3314              	.LASF82:
 3315 011e 76746C69 		.ascii	"vtlist\000"
 3315      737400
 3316              	.LASF129:
 3317 0125 715F6C69 		.ascii	"q_link\000"
 3317      6E6B00
 3318              	.LASF58:
 3319 012c 63685F72 		.ascii	"ch_ready_list\000"
 3319      65616479 
 3319      5F6C6973 
 3319      7400
 3320              	.LASF84:
 3321 013a 69646C65 		.ascii	"idle_thread_wa\000"
 3321      5F746872 
 3321      6561645F 
 3321      776100
ARM GAS  C:\Users\IDONNO~1\AppData\Local\Temp\ccrByNBb.s 			page 61


 3322              	.LASF198:
 3323 0149 626C6463 		.ascii	"bldc_init\000"
 3323      5F696E69 
 3323      7400
 3324              	.LASF187:
 3325 0153 68775F69 		.ascii	"hw_init_gpio\000"
 3325      6E69745F 
 3325      6770696F 
 3325      00
 3326              	.LASF100:
 3327 0160 65776D61 		.ascii	"ewmask\000"
 3327      736B00
 3328              	.LASF190:
 3329 0167 7370695F 		.ascii	"spi_dac_write_A\000"
 3329      6461635F 
 3329      77726974 
 3329      655F4100 
 3330              	.LASF65:
 3331 0177 76746675 		.ascii	"vtfunc_t\000"
 3331      6E635F74 
 3331      00
 3332              	.LASF160:
 3333 0180 77726974 		.ascii	"writet\000"
 3333      657400
 3334              	.LASF103:
 3335 0187 735F636E 		.ascii	"s_cnt\000"
 3335      7400
 3336              	.LASF77:
 3337 018d 63685F73 		.ascii	"ch_system_debug\000"
 3337      79737465 
 3337      6D5F6465 
 3337      62756700 
 3338              	.LASF86:
 3339 019d 47545052 		.ascii	"GTPR\000"
 3339      00
 3340              	.LASF182:
 3341 01a2 6462675F 		.ascii	"dbg_AccumTheta\000"
 3341      41636375 
 3341      6D546865 
 3341      746100
 3342              	.LASF152:
 3343 01b1 69717565 		.ascii	"iqueue\000"
 3343      756500
 3344              	.LASF189:
 3345 01b8 7370695F 		.ascii	"spi_dac_hw_init\000"
 3345      6461635F 
 3345      68775F69 
 3345      6E697400 
 3346              	.LASF178:
 3347 01c8 5061726B 		.ascii	"ParkParm\000"
 3347      5061726D 
 3347      00
 3348              	.LASF122:
 3349 01d1 715F7761 		.ascii	"q_waiting\000"
 3349      6974696E 
 3349      6700
 3350              	.LASF175:
ARM GAS  C:\Users\IDONNO~1\AppData\Local\Temp\ccrByNBb.s 			page 62


 3351 01db 70657269 		.ascii	"periodic_thread_wa\000"
 3351      6F646963 
 3351      5F746872 
 3351      6561645F 
 3351      776100
 3352              	.LASF27:
 3353 01ee 6576656E 		.ascii	"eventmask_t\000"
 3353      746D6173 
 3353      6B5F7400 
 3354              	.LASF60:
 3355 01fa 725F7072 		.ascii	"r_prio\000"
 3355      696F00
 3356              	.LASF72:
 3357 0201 76745F70 		.ascii	"vt_par\000"
 3357      617200
 3358              	.LASF163:
 3359 0208 666C6F61 		.ascii	"float\000"
 3359      7400
 3360              	.LASF148:
 3361 020e 73647374 		.ascii	"sdstate_t\000"
 3361      6174655F 
 3361      7400
 3362              	.LASF150:
 3363 0218 6576656E 		.ascii	"event\000"
 3363      7400
 3364              	.LASF101:
 3365 021e 63685F73 		.ascii	"ch_semaphore\000"
 3365      656D6170 
 3365      686F7265 
 3365      00
 3366              	.LASF25:
 3367 022b 74707269 		.ascii	"tprio_t\000"
 3367      6F5F7400 
 3368              	.LASF67:
 3369 0233 63685F76 		.ascii	"ch_virtual_timer\000"
 3369      69727475 
 3369      616C5F74 
 3369      696D6572 
 3369      00
 3370              	.LASF14:
 3371 0244 6C6F6E67 		.ascii	"long long unsigned int\000"
 3371      206C6F6E 
 3371      6720756E 
 3371      7369676E 
 3371      65642069 
 3372              	.LASF188:
 3373 025b 55617274 		.ascii	"Uart3_print_init\000"
 3373      335F7072 
 3373      696E745F 
 3373      696E6974 
 3373      00
 3374              	.LASF195:
 3375 026c 443A5C67 		.ascii	"D:\\git\\oroca_bldc_dev\\oroca_bldc_FW\000"
 3375      69745C6F 
 3375      726F6361 
 3375      5F626C64 
 3375      635F6465 
ARM GAS  C:\Users\IDONNO~1\AppData\Local\Temp\ccrByNBb.s 			page 63


 3376              	.LASF119:
 3377 0290 6576656E 		.ascii	"event_source_t\000"
 3377      745F736F 
 3377      75726365 
 3377      5F7400
 3378              	.LASF6:
 3379 029f 5F5F7569 		.ascii	"__uint16_t\000"
 3379      6E743136 
 3379      5F7400
 3380              	.LASF29:
 3381 02aa 636E745F 		.ascii	"cnt_t\000"
 3381      7400
 3382              	.LASF135:
 3383 02b0 4D4F4445 		.ascii	"MODER\000"
 3383      5200
 3384              	.LASF171:
 3385 02b6 71566265 		.ascii	"qVbeta\000"
 3385      746100
 3386              	.LASF142:
 3387 02bd 41465248 		.ascii	"AFRH\000"
 3387      00
 3388              	.LASF143:
 3389 02c2 73746D33 		.ascii	"stm32_gpio_t\000"
 3389      325F6770 
 3389      696F5F74 
 3389      00
 3390              	.LASF141:
 3391 02cf 4146524C 		.ascii	"AFRL\000"
 3391      00
 3392              	.LASF36:
 3393 02d4 705F6E65 		.ascii	"p_newer\000"
 3393      77657200 
 3394              	.LASF134:
 3395 02dc 636C6561 		.ascii	"clear\000"
 3395      7200
 3396              	.LASF74:
 3397 02e2 63685F76 		.ascii	"ch_virtual_timers_list\000"
 3397      69727475 
 3397      616C5F74 
 3397      696D6572 
 3397      735F6C69 
 3398              	.LASF31:
 3399 02f9 74687265 		.ascii	"thread_t\000"
 3399      61645F74 
 3399      00
 3400              	.LASF116:
 3401 0302 656C5F77 		.ascii	"el_wflags\000"
 3401      666C6167 
 3401      7300
 3402              	.LASF158:
 3403 030c 70757474 		.ascii	"putt\000"
 3403      00
 3404              	.LASF2:
 3405 0311 73697A65 		.ascii	"size_t\000"
 3405      5F7400
 3406              	.LASF92:
 3407 0318 6F666673 		.ascii	"offset\000"
ARM GAS  C:\Users\IDONNO~1\AppData\Local\Temp\ccrByNBb.s 			page 64


 3407      657400
 3408              	.LASF133:
 3409 031f 5F426F6F 		.ascii	"_Bool\000"
 3409      6C00
 3410              	.LASF146:
 3411 0325 53445F53 		.ascii	"SD_STOP\000"
 3411      544F5000 
 3412              	.LASF104:
 3413 032d 63685F6D 		.ascii	"ch_mutex\000"
 3413      75746578 
 3413      00
 3414              	.LASF13:
 3415 0336 5F5F7569 		.ascii	"__uint64_t\000"
 3415      6E743634 
 3415      5F7400
 3416              	.LASF87:
 3417 0341 55534152 		.ascii	"USART_TypeDef\000"
 3417      545F5479 
 3417      70654465 
 3417      6600
 3418              	.LASF128:
 3419 034f 715F6E6F 		.ascii	"q_notify\000"
 3419      74696679 
 3419      00
 3420              	.LASF199:
 3421 0358 626C6463 		.ascii	"bldc_start\000"
 3421      5F737461 
 3421      727400
 3422              	.LASF138:
 3423 0363 50555044 		.ascii	"PUPDR\000"
 3423      5200
 3424              	.LASF38:
 3425 0369 705F6E61 		.ascii	"p_name\000"
 3425      6D6500
 3426              	.LASF172:
 3427 0370 74506172 		.ascii	"tParkParm\000"
 3427      6B506172 
 3427      6D00
 3428              	.LASF170:
 3429 037a 7156616C 		.ascii	"qValpha\000"
 3429      70686100 
 3430              	.LASF70:
 3431 0382 76745F64 		.ascii	"vt_delta\000"
 3431      656C7461 
 3431      00
 3432              	.LASF186:
 3433 038b 63685379 		.ascii	"chSysInit\000"
 3433      73496E69 
 3433      7400
 3434              	.LASF62:
 3435 0395 725F6E65 		.ascii	"r_newer\000"
 3435      77657200 
 3436              	.LASF126:
 3437 039d 715F7772 		.ascii	"q_wrptr\000"
 3437      70747200 
 3438              	.LASF22:
 3439 03a5 74737461 		.ascii	"tstate_t\000"
ARM GAS  C:\Users\IDONNO~1\AppData\Local\Temp\ccrByNBb.s 			page 65


 3439      74655F74 
 3439      00
 3440              	.LASF12:
 3441 03ae 6C6F6E67 		.ascii	"long long int\000"
 3441      206C6F6E 
 3441      6720696E 
 3441      7400
 3442              	.LASF37:
 3443 03bc 705F6F6C 		.ascii	"p_older\000"
 3443      64657200 
 3444              	.LASF39:
 3445 03c4 705F7374 		.ascii	"p_state\000"
 3445      61746500 
 3446              	.LASF15:
 3447 03cc 75696E74 		.ascii	"uint8_t\000"
 3447      385F7400 
 3448              	.LASF131:
 3449 03d4 696E7075 		.ascii	"input_queue_t\000"
 3449      745F7175 
 3449      6575655F 
 3449      7400
 3450              	.LASF50:
 3451 03e2 705F6D70 		.ascii	"p_mpool\000"
 3451      6F6F6C00 
 3452              	.LASF48:
 3453 03ea 705F6D74 		.ascii	"p_mtxlist\000"
 3453      786C6973 
 3453      7400
 3454              	.LASF53:
 3455 03f4 63685F74 		.ascii	"ch_thread\000"
 3455      68726561 
 3455      6400
 3456              	.LASF154:
 3457 03fe 75736172 		.ascii	"usart\000"
 3457      7400
 3458              	.LASF76:
 3459 0404 73797374 		.ascii	"system_debug_t\000"
 3459      656D5F64 
 3459      65627567 
 3459      5F7400
 3460              	.LASF56:
 3461 0413 63685F74 		.ascii	"ch_threads_queue\000"
 3461      68726561 
 3461      64735F71 
 3461      75657565 
 3461      00
 3462              	.LASF156:
 3463 0424 77726974 		.ascii	"write\000"
 3463      6500
 3464              	.LASF111:
 3465 042a 6576656E 		.ascii	"event_listener\000"
 3465      745F6C69 
 3465      7374656E 
 3465      657200
 3466              	.LASF59:
 3467 0439 725F7175 		.ascii	"r_queue\000"
 3467      65756500 
ARM GAS  C:\Users\IDONNO~1\AppData\Local\Temp\ccrByNBb.s 			page 66


 3468              	.LASF26:
 3469 0441 6D73675F 		.ascii	"msg_t\000"
 3469      7400
 3470              	.LASF90:
 3471 0447 636F6E74 		.ascii	"context\000"
 3471      65787400 
 3472              	.LASF168:
 3473 044f 7149616C 		.ascii	"qIalpha\000"
 3473      70686100 
 3474              	.LASF144:
 3475 0457 696F706F 		.ascii	"ioportmask_t\000"
 3475      72746D61 
 3475      736B5F74 
 3475      00
 3476              	.LASF40:
 3477 0464 705F666C 		.ascii	"p_flags\000"
 3477      61677300 
 3478              	.LASF66:
 3479 046c 76697274 		.ascii	"virtual_timer_t\000"
 3479      75616C5F 
 3479      74696D65 
 3479      725F7400 
 3480              	.LASF132:
 3481 047c 6F757470 		.ascii	"output_queue_t\000"
 3481      75745F71 
 3481      75657565 
 3481      5F7400
 3482              	.LASF140:
 3483 048b 4C434B52 		.ascii	"LCKR\000"
 3483      00
 3484              	.LASF24:
 3485 0490 74736C69 		.ascii	"tslices_t\000"
 3485      6365735F 
 3485      7400
 3486              	.LASF63:
 3487 049a 725F6F6C 		.ascii	"r_older\000"
 3487      64657200 
 3488              	.LASF174:
 3489 04a2 70657269 		.ascii	"periodic_thread\000"
 3489      6F646963 
 3489      5F746872 
 3489      65616400 
 3490              	.LASF11:
 3491 04b2 6C6F6E67 		.ascii	"long unsigned int\000"
 3491      20756E73 
 3491      69676E65 
 3491      6420696E 
 3491      7400
 3492              	.LASF191:
 3493 04c4 6D637077 		.ascii	"mcpwm_init\000"
 3493      6D5F696E 
 3493      697400
 3494              	.LASF28:
 3495 04cf 6576656E 		.ascii	"eventflags_t\000"
 3495      74666C61 
 3495      67735F74 
 3495      00
ARM GAS  C:\Users\IDONNO~1\AppData\Local\Temp\ccrByNBb.s 			page 67


 3496              	.LASF192:
 3497 04dc 63685468 		.ascii	"chThdCreateStatic\000"
 3497      64437265 
 3497      61746553 
 3497      74617469 
 3497      6300
 3498              	.LASF112:
 3499 04ee 656C5F6E 		.ascii	"el_next\000"
 3499      65787400 
 3500              	.LASF46:
 3501 04f6 705F6D73 		.ascii	"p_msg\000"
 3501      6700
 3502              	.LASF21:
 3503 04fc 746D6F64 		.ascii	"tmode_t\000"
 3503      655F7400 
 3504              	.LASF83:
 3505 0504 6D61696E 		.ascii	"mainthread\000"
 3505      74687265 
 3505      616400
 3506              	.LASF137:
 3507 050f 4F535045 		.ascii	"OSPEEDR\000"
 3507      45445200 
 3508              	.LASF193:
 3509 0517 474E5520 		.ascii	"GNU C99 5.2.1 20151202 (release) [ARM/embedded-5-br"
 3509      43393920 
 3509      352E322E 
 3509      31203230 
 3509      31353132 
 3510 054a 616E6368 		.ascii	"anch revision 231848] -mcpu=cortex-m4 -mfloat-abi=h"
 3510      20726576 
 3510      6973696F 
 3510      6E203233 
 3510      31383438 
 3511 057d 61726420 		.ascii	"ard -mfpu=fpv4-sp-d16 -mno-thumb-interwork -mthumb "
 3511      2D6D6670 
 3511      753D6670 
 3511      76342D73 
 3511      702D6431 
 3512 05b0 2D676764 		.ascii	"-ggdb -O2 -std=gnu99 -fomit-frame-pointer -falign-f"
 3512      62202D4F 
 3512      32202D73 
 3512      74643D67 
 3512      6E753939 
 3513 05e3 756E6374 		.ascii	"unctions=16 -ffunction-sections -fdata-sections -fn"
 3513      696F6E73 
 3513      3D313620 
 3513      2D666675 
 3513      6E637469 
 3514 0616 6F2D636F 		.ascii	"o-common -fsingle-precision-constant\000"
 3514      6D6D6F6E 
 3514      202D6673 
 3514      696E676C 
 3514      652D7072 
 3515              	.LASF7:
 3516 063b 73686F72 		.ascii	"short unsigned int\000"
 3516      7420756E 
 3516      7369676E 
ARM GAS  C:\Users\IDONNO~1\AppData\Local\Temp\ccrByNBb.s 			page 68


 3516      65642069 
 3516      6E7400
 3517              	.LASF164:
 3518 064e 6C6F6E67 		.ascii	"long double\000"
 3518      20646F75 
 3518      626C6500 
 3519              	.LASF153:
 3520 065a 6F717565 		.ascii	"oqueue\000"
 3520      756500
 3521              	.LASF16:
 3522 0661 75696E74 		.ascii	"uint16_t\000"
 3522      31365F74 
 3522      00
 3523              	.LASF51:
 3524 066a 74687265 		.ascii	"thread_reference_t\000"
 3524      61645F72 
 3524      65666572 
 3524      656E6365 
 3524      5F7400
 3525              	.LASF196:
 3526 067d 63685265 		.ascii	"chRegSetThreadName\000"
 3526      67536574 
 3526      54687265 
 3526      61644E61 
 3526      6D6500
 3527              	.LASF20:
 3528 0690 7274636E 		.ascii	"rtcnt_t\000"
 3528      745F7400 
 3529              	.LASF147:
 3530 0698 53445F52 		.ascii	"SD_READY\000"
 3530      45414459 
 3530      00
 3531              	.LASF49:
 3532 06a1 705F7265 		.ascii	"p_realprio\000"
 3532      616C7072 
 3532      696F00
 3533              	.LASF5:
 3534 06ac 73686F72 		.ascii	"short int\000"
 3534      7420696E 
 3534      7400
 3535              	.LASF64:
 3536 06b6 725F6375 		.ascii	"r_current\000"
 3536      7272656E 
 3536      7400
 3537              	.LASF166:
 3538 06c0 7153696E 		.ascii	"qSin\000"
 3538      00
 3539              	.LASF47:
 3540 06c5 705F6570 		.ascii	"p_epending\000"
 3540      656E6469 
 3540      6E6700
 3541              	.LASF180:
 3542 06d0 6462675F 		.ascii	"dbg_fTheta\000"
 3542      66546865 
 3542      746100
 3543              	.LASF105:
 3544 06db 6D5F7175 		.ascii	"m_queue\000"
ARM GAS  C:\Users\IDONNO~1\AppData\Local\Temp\ccrByNBb.s 			page 69


 3544      65756500 
 3545              	.LASF9:
 3546 06e3 6C6F6E67 		.ascii	"long int\000"
 3546      20696E74 
 3546      00
 3547              	.LASF91:
 3548 06ec 706F7274 		.ascii	"port_intctx\000"
 3548      5F696E74 
 3548      63747800 
 3549              	.LASF177:
 3550 06f8 49544D5F 		.ascii	"ITM_RxBuffer\000"
 3550      52784275 
 3550      66666572 
 3550      00
 3551              	.LASF80:
 3552 0705 63685F73 		.ascii	"ch_system\000"
 3552      79737465 
 3552      6D00
 3553              	.LASF136:
 3554 070f 4F545950 		.ascii	"OTYPER\000"
 3554      455200
 3555              	.LASF32:
 3556 0716 705F6E65 		.ascii	"p_next\000"
 3556      787400
 3557              	.LASF19:
 3558 071d 75696E74 		.ascii	"uint64_t\000"
 3558      36345F74 
 3558      00
 3559              	.LASF35:
 3560 0726 705F6374 		.ascii	"p_ctx\000"
 3560      7800
 3561              	.LASF185:
 3562 072c 68616C49 		.ascii	"halInit\000"
 3562      6E697400 
 3563              	.LASF81:
 3564 0734 726C6973 		.ascii	"rlist\000"
 3564      7400
 3565              	.LASF167:
 3566 073a 71436F73 		.ascii	"qCos\000"
 3566      00
 3567              	.LASF3:
 3568 073f 5F5F7569 		.ascii	"__uint8_t\000"
 3568      6E74385F 
 3568      7400
 3569              	.LASF157:
 3570 0749 72656164 		.ascii	"read\000"
 3570      00
 3571              	.LASF181:
 3572 074e 6462675F 		.ascii	"dbg_fMea\000"
 3572      664D6561 
 3572      00
 3573              	.LASF145:
 3574 0757 53445F55 		.ascii	"SD_UNINIT\000"
 3574      4E494E49 
 3574      5400
 3575              	.LASF123:
 3576 0761 715F636F 		.ascii	"q_counter\000"
ARM GAS  C:\Users\IDONNO~1\AppData\Local\Temp\ccrByNBb.s 			page 70


 3576      756E7465 
 3576      7200
 3577              	.LASF159:
 3578 076b 67657474 		.ascii	"gett\000"
 3578      00
 3579              	.LASF125:
 3580 0770 715F746F 		.ascii	"q_top\000"
 3580      7000
 3581              	.LASF33:
 3582 0776 705F7072 		.ascii	"p_prev\000"
 3582      657600
 3583              	.LASF85:
 3584 077d 73697A65 		.ascii	"sizetype\000"
 3584      74797065 
 3584      00
 3585              	.LASF23:
 3586 0786 74726566 		.ascii	"trefs_t\000"
 3586      735F7400 
 3587              	.LASF110:
 3588 078e 6576656E 		.ascii	"event_listener_t\000"
 3588      745F6C69 
 3588      7374656E 
 3588      65725F74 
 3588      00
 3589              	.LASF57:
 3590 079f 72656164 		.ascii	"ready_list_t\000"
 3590      795F6C69 
 3590      73745F74 
 3590      00
 3591              	.LASF17:
 3592 07ac 696E7433 		.ascii	"int32_t\000"
 3592      325F7400 
 3593              	.LASF165:
 3594 07b4 71416E67 		.ascii	"qAngle\000"
 3594      6C6500
 3595              	.LASF98:
 3596 07bb 77747365 		.ascii	"wtsemp\000"
 3596      6D7000
 3597              	.LASF169:
 3598 07c2 71496265 		.ascii	"qIbeta\000"
 3598      746100
 3599              	.LASF109:
 3600 07c9 6D757465 		.ascii	"mutex_t\000"
 3600      785F7400 
 3601              	.LASF4:
 3602 07d1 756E7369 		.ascii	"unsigned char\000"
 3602      676E6564 
 3602      20636861 
 3602      7200
 3603              	.LASF10:
 3604 07df 5F5F7569 		.ascii	"__uint32_t\000"
 3604      6E743332 
 3604      5F7400
 3605              	.LASF73:
 3606 07ea 76697274 		.ascii	"virtual_timers_list_t\000"
 3606      75616C5F 
 3606      74696D65 
ARM GAS  C:\Users\IDONNO~1\AppData\Local\Temp\ccrByNBb.s 			page 71


 3606      72735F6C 
 3606      6973745F 
 3607              	.LASF114:
 3608 0800 656C5F65 		.ascii	"el_events\000"
 3608      76656E74 
 3608      7300
 3609              	.LASF78:
 3610 080a 70616E69 		.ascii	"panic_msg\000"
 3610      635F6D73 
 3610      6700
 3611              	.LASF121:
 3612 0814 696F5F71 		.ascii	"io_queue\000"
 3612      75657565 
 3612      00
 3613              	.LASF184:
 3614 081d 63685468 		.ascii	"chThdSleep\000"
 3614      64536C65 
 3614      657000
 3615              	.LASF42:
 3616 0828 705F7072 		.ascii	"p_preempt\000"
 3616      65656D70 
 3616      7400
 3617              	.LASF118:
 3618 0832 65735F6E 		.ascii	"es_next\000"
 3618      65787400 
 3619              	.LASF41:
 3620 083a 705F7265 		.ascii	"p_refs\000"
 3620      667300
 3621              	.LASF151:
 3622 0841 73746174 		.ascii	"state\000"
 3622      6500
 3623              	.LASF68:
 3624 0847 76745F6E 		.ascii	"vt_next\000"
 3624      65787400 
 3625              	.LASF79:
 3626 084f 63685F73 		.ascii	"ch_system_t\000"
 3626      79737465 
 3626      6D5F7400 
 3627              	.LASF97:
 3628 085b 77747472 		.ascii	"wttrp\000"
 3628      7000
 3629              	.LASF194:
 3630 0861 7372632F 		.ascii	"src/bldc/bldc.c\000"
 3630      626C6463 
 3630      2F626C64 
 3630      632E6300 
 3631              	.LASF107:
 3632 0871 6D5F6E65 		.ascii	"m_next\000"
 3632      787400
 3633              	.LASF1:
 3634 0878 7369676E 		.ascii	"signed char\000"
 3634      65642063 
 3634      68617200 
 3635              	.LASF179:
 3636 0884 7156656C 		.ascii	"qVelRef\000"
 3636      52656600 
 3637              	.LASF161:
ARM GAS  C:\Users\IDONNO~1\AppData\Local\Temp\ccrByNBb.s 			page 72


 3638 088c 72656164 		.ascii	"readt\000"
 3638      7400
 3639              	.LASF155:
 3640 0892 53657269 		.ascii	"SerialDriverVMT\000"
 3640      616C4472 
 3640      69766572 
 3640      564D5400 
 3641              	.LASF61:
 3642 08a2 725F6374 		.ascii	"r_ctx\000"
 3642      7800
 3643              	.LASF89:
 3644 08a8 73746B61 		.ascii	"stkalign_t\000"
 3644      6C69676E 
 3644      5F7400
 3645              	.LASF71:
 3646 08b3 76745F66 		.ascii	"vt_func\000"
 3646      756E6300 
 3647              	.LASF162:
 3648 08bb 646F7562 		.ascii	"double\000"
 3648      6C6500
 3649              	.LASF69:
 3650 08c2 76745F70 		.ascii	"vt_prev\000"
 3650      72657600 
 3651              	.LASF113:
 3652 08ca 656C5F6C 		.ascii	"el_listener\000"
 3652      69737465 
 3652      6E657200 
 3653              	.LASF176:
 3654 08d6 75617274 		.ascii	"uart_thread_wa\000"
 3654      5F746872 
 3654      6561645F 
 3654      776100
 3655              	.LASF99:
 3656 08e5 77746D74 		.ascii	"wtmtxp\000"
 3656      787000
 3657              	.LASF115:
 3658 08ec 656C5F66 		.ascii	"el_flags\000"
 3658      6C616773 
 3658      00
 3659              	.LASF95:
 3660 08f5 65786974 		.ascii	"exitcode\000"
 3660      636F6465 
 3660      00
 3661              	.LASF124:
 3662 08fe 715F6275 		.ascii	"q_buffer\000"
 3662      66666572 
 3662      00
 3663              	.LASF106:
 3664 0907 6D5F6F77 		.ascii	"m_owner\000"
 3664      6E657200 
 3665              		.ident	"GCC: (GNU Tools for ARM Embedded Processors) 5.2.1 20151202 (release) [ARM/embedded-5-bran
ARM GAS  C:\Users\IDONNO~1\AppData\Local\Temp\ccrByNBb.s 			page 73


DEFINED SYMBOLS
                            *ABS*:00000000 bldc.c
C:\Users\IDONNO~1\AppData\Local\Temp\ccrByNBb.s:23     .text.uart_process_thread:00000000 $t
C:\Users\IDONNO~1\AppData\Local\Temp\ccrByNBb.s:28     .text.uart_process_thread:00000000 uart_process_thread
C:\Users\IDONNO~1\AppData\Local\Temp\ccrByNBb.s:124    .text.uart_process_thread:00000078 $d
C:\Users\IDONNO~1\AppData\Local\Temp\ccrByNBb.s:135    .text.periodic_thread:00000000 $t
C:\Users\IDONNO~1\AppData\Local\Temp\ccrByNBb.s:140    .text.periodic_thread:00000000 periodic_thread
C:\Users\IDONNO~1\AppData\Local\Temp\ccrByNBb.s:197    .text.periodic_thread:00000030 $d
C:\Users\IDONNO~1\AppData\Local\Temp\ccrByNBb.s:206    .text.bldc_init:00000000 $t
C:\Users\IDONNO~1\AppData\Local\Temp\ccrByNBb.s:212    .text.bldc_init:00000000 bldc_init
C:\Users\IDONNO~1\AppData\Local\Temp\ccrByNBb.s:259    .text.bldc_init:00000034 $d
C:\Users\IDONNO~1\AppData\Local\Temp\ccrByNBb.s:265    .text.bldc_start:00000000 $t
C:\Users\IDONNO~1\AppData\Local\Temp\ccrByNBb.s:271    .text.bldc_start:00000000 bldc_start
C:\Users\IDONNO~1\AppData\Local\Temp\ccrByNBb.s:310    .text.bldc_start:00000030 $d
C:\Users\IDONNO~1\AppData\Local\Temp\ccrByNBb.s:333    .bss.dbg_AccumTheta:00000000 dbg_AccumTheta
C:\Users\IDONNO~1\AppData\Local\Temp\ccrByNBb.s:339    .bss.dbg_fMea:00000000 dbg_fMea
C:\Users\IDONNO~1\AppData\Local\Temp\ccrByNBb.s:345    .bss.dbg_fTheta:00000000 dbg_fTheta
C:\Users\IDONNO~1\AppData\Local\Temp\ccrByNBb.s:327    .data.qVelRef:00000000 qVelRef
C:\Users\IDONNO~1\AppData\Local\Temp\ccrByNBb.s:324    .data.qVelRef:00000000 $d
C:\Users\IDONNO~1\AppData\Local\Temp\ccrByNBb.s:330    .bss.dbg_AccumTheta:00000000 $d
C:\Users\IDONNO~1\AppData\Local\Temp\ccrByNBb.s:336    .bss.dbg_fMea:00000000 $d
C:\Users\IDONNO~1\AppData\Local\Temp\ccrByNBb.s:342    .bss.dbg_fTheta:00000000 $d
C:\Users\IDONNO~1\AppData\Local\Temp\ccrByNBb.s:348    .bss.uart_thread_wa:00000000 $d
C:\Users\IDONNO~1\AppData\Local\Temp\ccrByNBb.s:352    .bss.uart_thread_wa:00000000 uart_thread_wa
C:\Users\IDONNO~1\AppData\Local\Temp\ccrByNBb.s:355    .rodata.str1.4:00000000 $d
C:\Users\IDONNO~1\AppData\Local\Temp\ccrByNBb.s:379    .bss.periodic_thread_wa:00000000 $d
C:\Users\IDONNO~1\AppData\Local\Temp\ccrByNBb.s:383    .bss.periodic_thread_wa:00000000 periodic_thread_wa
                     .debug_frame:00000010 $d

UNDEFINED SYMBOLS
__aeabi_f2d
Uart3_printf
chThdSleep
ch
SD3
ParkParm
halInit
chSysInit
hw_init_gpio
Uart3_print_init
spi_dac_hw_init
spi_dac_write_A
mcpwm_init
chThdCreateStatic
