ARM GAS  C:\Users\IDONNO~1.SON\AppData\Local\Temp\cc0FXUOk.s 			page 1


   1              		.syntax unified
   2              		.cpu cortex-m4
   3              		.eabi_attribute 27, 1
   4              		.eabi_attribute 28, 1
   5              		.fpu fpv4-sp-d16
   6              		.eabi_attribute 20, 1
   7              		.eabi_attribute 21, 1
   8              		.eabi_attribute 23, 3
   9              		.eabi_attribute 24, 1
  10              		.eabi_attribute 25, 1
  11              		.eabi_attribute 26, 1
  12              		.eabi_attribute 30, 2
  13              		.eabi_attribute 34, 1
  14              		.eabi_attribute 18, 4
  15              		.thumb
  16              		.syntax unified
  17              		.file	"bldc.c"
  18              		.text
  19              	.Ltext0:
  20              		.cfi_sections	.debug_frame
  21              		.section	.text.uart_process_thread,"ax",%progbits
  22              		.align	2
  23              		.p2align 4,,15
  24              		.thumb
  25              		.thumb_func
  26              		.type	uart_process_thread, %function
  27              	uart_process_thread:
  28              	.LFB259:
  29              		.file 1 "src/bldc/bldc.c"
  30              		.loc 1 103 0
  31              		.cfi_startproc
  32              		@ Volatile: function does not return.
  33              		@ args = 0, pretend = 0, frame = 0
  34              		@ frame_needed = 0, uses_anonymous_args = 0
  35              	.LVL0:
  36 0000 08B5     		push	{r3, lr}
  37              		.cfi_def_cfa_offset 8
  38              		.cfi_offset 3, -8
  39              		.cfi_offset 14, -4
  40              	.LBB6:
  41              	.LBB7:
  42              		.file 2 "lib/ChibiOS_3.0.2/os/rt/include/chregistry.h"
  43              		.loc 2 135 0
  44 0002 064B     		ldr	r3, .L5
  45 0004 064A     		ldr	r2, .L5+4
  46 0006 9B69     		ldr	r3, [r3, #24]
  47              	.LBE7:
  48              	.LBE6:
  49              		.loc 1 108 0
  50 0008 0649     		ldr	r1, .L5+8
  51              	.LBB9:
  52              	.LBB8:
  53              		.loc 2 135 0
  54 000a 9A61     		str	r2, [r3, #24]
  55              	.LVL1:
  56              	.LBE8:
  57              	.LBE9:
ARM GAS  C:\Users\IDONNO~1.SON\AppData\Local\Temp\cc0FXUOk.s 			page 2


  58              		.loc 1 108 0
  59 000c 0648     		ldr	r0, .L5+12
  60              	.LVL2:
  61 000e FFF7FEFF 		bl	Uart3_printf
  62              	.LVL3:
  63              	.L2:
  64              		.loc 1 116 0 discriminator 1
  65 0012 42F21070 		movw	r0, #10000
  66 0016 FFF7FEFF 		bl	chThdSleep
  67              	.LVL4:
  68 001a FAE7     		b	.L2
  69              	.L6:
  70              		.align	2
  71              	.L5:
  72 001c 00000000 		.word	ch
  73 0020 00000000 		.word	.LC0
  74 0024 10000000 		.word	.LC1
  75 0028 00000000 		.word	SD3
  76              		.cfi_endproc
  77              	.LFE259:
  78              		.size	uart_process_thread, .-uart_process_thread
  79              		.section	.text.periodic_thread,"ax",%progbits
  80              		.align	2
  81              		.p2align 4,,15
  82              		.thumb
  83              		.thumb_func
  84              		.type	periodic_thread, %function
  85              	periodic_thread:
  86              	.LFB257:
  87              		.loc 1 62 0
  88              		.cfi_startproc
  89              		@ Volatile: function does not return.
  90              		@ args = 0, pretend = 0, frame = 0
  91              		@ frame_needed = 0, uses_anonymous_args = 0
  92              	.LVL5:
  93 0000 08B5     		push	{r3, lr}
  94              		.cfi_def_cfa_offset 8
  95              		.cfi_offset 3, -8
  96              		.cfi_offset 14, -4
  97              	.LBB10:
  98              	.LBB11:
  99              		.loc 2 135 0
 100 0002 0B4B     		ldr	r3, .L10
 101 0004 0B4A     		ldr	r2, .L10+4
 102 0006 9B69     		ldr	r3, [r3, #24]
 103              	.LBE11:
 104              	.LBE10:
 105              		.loc 1 67 0
 106 0008 0B49     		ldr	r1, .L10+8
 107              	.LBB13:
 108              	.LBB12:
 109              		.loc 2 135 0
 110 000a 9A61     		str	r2, [r3, #24]
 111              	.LVL6:
 112              	.LBE12:
 113              	.LBE13:
 114              		.loc 1 67 0
ARM GAS  C:\Users\IDONNO~1.SON\AppData\Local\Temp\cc0FXUOk.s 			page 3


 115 000c 0B48     		ldr	r0, .L10+12
 116              	.LVL7:
 117              		.loc 1 71 0
 118 000e 0C4C     		ldr	r4, .L10+16
 119              		.loc 1 67 0
 120 0010 FFF7FEFF 		bl	Uart3_printf
 121              	.LVL8:
 122              		.loc 1 71 0
 123 0014 4025     		movs	r5, #64
 124 0016 2E46     		mov	r6, r5	@ movhi
 125              	.L8:
 126              		.loc 1 71 0 is_stmt 0 discriminator 1
 127 0018 2683     		strh	r6, [r4, #24]	@ movhi
 128              		.loc 1 72 0 is_stmt 1 discriminator 1
 129 001a 41F28830 		movw	r0, #5000
 130 001e FFF7FEFF 		bl	chThdSleep
 131              	.LVL9:
 132              		.loc 1 73 0 discriminator 1
 133 0022 6583     		strh	r5, [r4, #26]	@ movhi
 134              		.loc 1 74 0 discriminator 1
 135 0024 41F28830 		movw	r0, #5000
 136 0028 FFF7FEFF 		bl	chThdSleep
 137              	.LVL10:
 138 002c F4E7     		b	.L8
 139              	.L11:
 140 002e 00BF     		.align	2
 141              	.L10:
 142 0030 00000000 		.word	ch
 143 0034 28000000 		.word	.LC2
 144 0038 38000000 		.word	.LC3
 145 003c 00000000 		.word	SD3
 146 0040 00040240 		.word	1073873920
 147              		.cfi_endproc
 148              	.LFE257:
 149              		.size	periodic_thread, .-periodic_thread
 150              		.section	.text.bldc_init,"ax",%progbits
 151              		.align	2
 152              		.p2align 4,,15
 153              		.global	bldc_init
 154              		.thumb
 155              		.thumb_func
 156              		.type	bldc_init, %function
 157              	bldc_init:
 158              	.LFB258:
 159              		.loc 1 83 0
 160              		.cfi_startproc
 161              		@ args = 0, pretend = 0, frame = 0
 162              		@ frame_needed = 0, uses_anonymous_args = 0
 163 0000 08B5     		push	{r3, lr}
 164              		.cfi_def_cfa_offset 8
 165              		.cfi_offset 3, -8
 166              		.cfi_offset 14, -4
 167              		.loc 1 84 0
 168 0002 FFF7FEFF 		bl	halInit
 169              	.LVL11:
 170              		.loc 1 85 0
 171 0006 FFF7FEFF 		bl	chSysInit
ARM GAS  C:\Users\IDONNO~1.SON\AppData\Local\Temp\cc0FXUOk.s 			page 4


 172              	.LVL12:
 173              		.loc 1 87 0
 174 000a 42F21070 		movw	r0, #10000
 175 000e FFF7FEFF 		bl	chThdSleep
 176              	.LVL13:
 177              		.loc 1 89 0
 178 0012 FFF7FEFF 		bl	hw_init_gpio
 179              	.LVL14:
 180              		.loc 1 91 0
 181 0016 FFF7FEFF 		bl	Uart3_print_init
 182              	.LVL15:
 183              		.loc 1 92 0
 184 001a 0649     		ldr	r1, .L14
 185 001c 0648     		ldr	r0, .L14+4
 186 001e FFF7FEFF 		bl	Uart3_printf
 187              	.LVL16:
 188              		.loc 1 94 0
 189 0022 FFF7FEFF 		bl	spi_dac_hw_init
 190              	.LVL17:
 191              		.loc 1 95 0
 192 0026 6420     		movs	r0, #100
 193 0028 FFF7FEFF 		bl	spi_dac_write_A
 194              	.LVL18:
 195              		.loc 1 97 0
 196 002c FFF7FEFF 		bl	mcpwm_init
 197              	.LVL19:
 198              		.loc 1 100 0
 199 0030 0020     		movs	r0, #0
 200 0032 08BD     		pop	{r3, pc}
 201              	.L15:
 202              		.align	2
 203              	.L14:
 204 0034 4C000000 		.word	.LC4
 205 0038 00000000 		.word	SD3
 206              		.cfi_endproc
 207              	.LFE258:
 208              		.size	bldc_init, .-bldc_init
 209              		.section	.text.bldc_start,"ax",%progbits
 210              		.align	2
 211              		.p2align 4,,15
 212              		.global	bldc_start
 213              		.thumb
 214              		.thumb_func
 215              		.type	bldc_start, %function
 216              	bldc_start:
 217              	.LFB260:
 218              		.loc 1 131 0
 219              		.cfi_startproc
 220              		@ Volatile: function does not return.
 221              		@ args = 0, pretend = 0, frame = 0
 222              		@ frame_needed = 0, uses_anonymous_args = 0
 223 0000 00B5     		push	{lr}
 224              		.cfi_def_cfa_offset 4
 225              		.cfi_offset 14, -4
 226 0002 83B0     		sub	sp, sp, #12
 227              		.cfi_def_cfa_offset 16
 228              		.loc 1 133 0
ARM GAS  C:\Users\IDONNO~1.SON\AppData\Local\Temp\cc0FXUOk.s 			page 5


 229 0004 0024     		movs	r4, #0
 230 0006 0A4B     		ldr	r3, .L19
 231 0008 0094     		str	r4, [sp]
 232 000a 4022     		movs	r2, #64
 233 000c 4FF4B361 		mov	r1, #1432
 234 0010 0848     		ldr	r0, .L19+4
 235 0012 FFF7FEFF 		bl	chThdCreateStatic
 236              	.LVL20:
 237              		.loc 1 134 0
 238 0016 4FF40671 		mov	r1, #536
 239 001a 0094     		str	r4, [sp]
 240 001c 064B     		ldr	r3, .L19+8
 241 001e 0748     		ldr	r0, .L19+12
 242 0020 4022     		movs	r2, #64
 243 0022 FFF7FEFF 		bl	chThdCreateStatic
 244              	.LVL21:
 245              		.loc 1 136 0
 246 0026 0649     		ldr	r1, .L19+16
 247 0028 0648     		ldr	r0, .L19+20
 248 002a FFF7FEFF 		bl	Uart3_printf
 249              	.LVL22:
 250              	.L17:
 251 002e FEE7     		b	.L17
 252              	.L20:
 253              		.align	2
 254              	.L19:
 255 0030 00000000 		.word	periodic_thread
 256 0034 00000000 		.word	.LANCHOR0
 257 0038 00000000 		.word	uart_process_thread
 258 003c 00000000 		.word	.LANCHOR1
 259 0040 5C000000 		.word	.LC5
 260 0044 00000000 		.word	SD3
 261              		.cfi_endproc
 262              	.LFE260:
 263              		.size	bldc_start, .-bldc_start
 264              		.global	dbg_AccumTheta
 265              		.global	dbg_fMea
 266              		.global	dbg_fTheta
 267              		.global	qVelRef
 268              		.section	.data.qVelRef,"aw",%progbits
 269              		.align	2
 270              		.type	qVelRef, %object
 271              		.size	qVelRef, 4
 272              	qVelRef:
 273 0000 0AD7233C 		.word	1008981770
 274              		.section	.bss.dbg_AccumTheta,"aw",%nobits
 275              		.align	1
 276              		.type	dbg_AccumTheta, %object
 277              		.size	dbg_AccumTheta, 2
 278              	dbg_AccumTheta:
 279 0000 0000     		.space	2
 280              		.section	.bss.dbg_fMea,"aw",%nobits
 281              		.align	2
 282              		.type	dbg_fMea, %object
 283              		.size	dbg_fMea, 4
 284              	dbg_fMea:
 285 0000 00000000 		.space	4
ARM GAS  C:\Users\IDONNO~1.SON\AppData\Local\Temp\cc0FXUOk.s 			page 6


 286              		.section	.bss.dbg_fTheta,"aw",%nobits
 287              		.align	2
 288              		.type	dbg_fTheta, %object
 289              		.size	dbg_fTheta, 4
 290              	dbg_fTheta:
 291 0000 00000000 		.space	4
 292              		.section	.bss.uart_thread_wa,"aw",%nobits
 293              		.align	3
 294              		.set	.LANCHOR1,. + 0
 295              		.type	uart_thread_wa, %object
 296              		.size	uart_thread_wa, 536
 297              	uart_thread_wa:
 298 0000 00000000 		.space	536
 298      00000000 
 298      00000000 
 298      00000000 
 298      00000000 
 299              		.section	.rodata.str1.4,"aMS",%progbits,1
 300              		.align	2
 301              	.LC0:
 302 0000 75617274 		.ascii	"uart rx process\000"
 302      20727820 
 302      70726F63 
 302      65737300 
 303              	.LC1:
 304 0010 75617274 		.ascii	"uart_process_thread\015\012\000"
 304      5F70726F 
 304      63657373 
 304      5F746872 
 304      6561640D 
 305 0026 0000     		.space	2
 306              	.LC2:
 307 0028 4D61696E 		.ascii	"Main periodic\000"
 307      20706572 
 307      696F6469 
 307      6300
 308 0036 0000     		.space	2
 309              	.LC3:
 310 0038 70657269 		.ascii	"periodic_thread\015\012\000"
 310      6F646963 
 310      5F746872 
 310      6561640D 
 310      0A00
 311 004a 0000     		.space	2
 312              	.LC4:
 313 004c 6F726F63 		.ascii	"oroca_bldc\015\012\000"
 313      615F626C 
 313      64630D0A 
 313      00
 314 0059 000000   		.space	3
 315              	.LC5:
 316 005c 626C6463 		.ascii	"bldc_start\015\012\000"
 316      5F737461 
 316      72740D0A 
 316      00
 317              		.section	.bss.periodic_thread_wa,"aw",%nobits
 318              		.align	3
ARM GAS  C:\Users\IDONNO~1.SON\AppData\Local\Temp\cc0FXUOk.s 			page 7


 319              		.set	.LANCHOR0,. + 0
 320              		.type	periodic_thread_wa, %object
 321              		.size	periodic_thread_wa, 1432
 322              	periodic_thread_wa:
 323 0000 00000000 		.space	1432
 323      00000000 
 323      00000000 
 323      00000000 
 323      00000000 
 324              		.text
 325              	.Letext0:
 326              		.file 3 "c:\\program files (x86)\\gnu tools arm embedded\\5.4 2016q2\\lib\\gcc\\arm-none-eabi\\5.4
 327              		.file 4 "c:\\program files (x86)\\gnu tools arm embedded\\5.4 2016q2\\arm-none-eabi\\include\\mach
 328              		.file 5 "c:\\program files (x86)\\gnu tools arm embedded\\5.4 2016q2\\arm-none-eabi\\include\\sys\
 329              		.file 6 "lib/ChibiOS_3.0.2/os/rt/ports/ARMCMx/compilers/GCC/chtypes.h"
 330              		.file 7 "lib/ChibiOS_3.0.2/os/rt/include/chsystypes.h"
 331              		.file 8 "lib/ChibiOS_3.0.2/os/rt/include/chschd.h"
 332              		.file 9 "lib/ChibiOS_3.0.2/os/ext/CMSIS/ST/stm32f407xx.h"
 333              		.file 10 "lib/ChibiOS_3.0.2/os/rt/ports/ARMCMx/chcore.h"
 334              		.file 11 "lib/ChibiOS_3.0.2/os/rt/ports/ARMCMx/chcore_v7m.h"
 335              		.file 12 "lib/ChibiOS_3.0.2/os/rt/include/chtm.h"
 336              		.file 13 "lib/ChibiOS_3.0.2/os/rt/include/chsem.h"
 337              		.file 14 "lib/ChibiOS_3.0.2/os/rt/include/chmtx.h"
 338              		.file 15 "lib/ChibiOS_3.0.2/os/rt/include/chevents.h"
 339              		.file 16 "lib/ChibiOS_3.0.2/os/rt/include/chqueues.h"
 340              		.file 17 "lib/ChibiOS_3.0.2/os/hal/ports/STM32/LLD/GPIOv2/pal_lld.h"
 341              		.file 18 "lib/ChibiOS_3.0.2/os/hal/include/serial.h"
 342              		.file 19 "lib/ChibiOS_3.0.2/os/hal/ports/STM32/LLD/USARTv1/serial_lld.h"
 343              		.file 20 "lib/ChibiOS_3.0.2/os/ext/CMSIS/include/core_cm4.h"
 344              		.file 21 "src/core/uart3_print.h"
 345              		.file 22 "lib/ChibiOS_3.0.2/os/rt/include/chthreads.h"
 346              		.file 23 "lib/ChibiOS_3.0.2/os/hal/include/hal.h"
 347              		.file 24 "lib/ChibiOS_3.0.2/os/rt/include/chsys.h"
 348              		.file 25 "lib/hwconf/hw.h"
 349              		.file 26 "src/bldc/mcpwm.h"