ARM GAS  C:\Users\ADMINI~1\AppData\Local\Temp\ccczVrT8.s 			page 1


   1              		.syntax unified
   2              		.cpu cortex-m4
   3              		.eabi_attribute 27, 1
   4              		.eabi_attribute 28, 1
   5              		.fpu fpv4-sp-d16
   6              		.eabi_attribute 20, 1
   7              		.eabi_attribute 21, 1
   8              		.eabi_attribute 23, 3
   9              		.eabi_attribute 24, 1
  10              		.eabi_attribute 25, 1
  11              		.eabi_attribute 26, 1
  12              		.eabi_attribute 30, 2
  13              		.eabi_attribute 34, 1
  14              		.eabi_attribute 18, 4
  15              		.thumb
  16              		.syntax unified
  17              		.file	"buffer.c"
  18              		.text
  19              	.Ltext0:
  20              		.cfi_sections	.debug_frame
  21              		.section	.text.buffer_append_int16,"ax",%progbits
  22              		.align	2
  23              		.p2align 4,,15
  24              		.global	buffer_append_int16
  25              		.thumb
  26              		.thumb_func
  27              		.type	buffer_append_int16, %function
  28              	buffer_append_int16:
  29              	.LFB0:
  30              		.file 1 "src/core/buffer.c"
  31              		.loc 1 27 0
  32              		.cfi_startproc
  33              		@ args = 0, pretend = 0, frame = 0
  34              		@ frame_needed = 0, uses_anonymous_args = 0
  35              		@ link register save eliminated.
  36              	.LVL0:
  37              		.loc 1 28 0
  38 0000 1368     		ldr	r3, [r2]
  39              		.loc 1 27 0
  40 0002 30B4     		push	{r4, r5}
  41              		.cfi_def_cfa_offset 8
  42              		.cfi_offset 4, -8
  43              		.cfi_offset 5, -4
  44              		.loc 1 28 0
  45 0004 5D1C     		adds	r5, r3, #1
  46 0006 0C12     		asrs	r4, r1, #8
  47 0008 1560     		str	r5, [r2]
  48 000a C454     		strb	r4, [r0, r3]
  49              		.loc 1 29 0
  50 000c 1368     		ldr	r3, [r2]
  51 000e 5C1C     		adds	r4, r3, #1
  52 0010 1460     		str	r4, [r2]
  53 0012 C154     		strb	r1, [r0, r3]
  54              		.loc 1 30 0
  55 0014 30BC     		pop	{r4, r5}
  56              		.cfi_restore 5
  57              		.cfi_restore 4
ARM GAS  C:\Users\ADMINI~1\AppData\Local\Temp\ccczVrT8.s 			page 2


  58              		.cfi_def_cfa_offset 0
  59 0016 7047     		bx	lr
  60              		.cfi_endproc
  61              	.LFE0:
  62              		.size	buffer_append_int16, .-buffer_append_int16
  63              		.section	.text.buffer_append_uint16,"ax",%progbits
  64              		.align	2
  65              		.p2align 4,,15
  66              		.global	buffer_append_uint16
  67              		.thumb
  68              		.thumb_func
  69              		.type	buffer_append_uint16, %function
  70              	buffer_append_uint16:
  71              	.LFB1:
  72              		.loc 1 32 0
  73              		.cfi_startproc
  74              		@ args = 0, pretend = 0, frame = 0
  75              		@ frame_needed = 0, uses_anonymous_args = 0
  76              		@ link register save eliminated.
  77              	.LVL1:
  78              		.loc 1 33 0
  79 0000 1368     		ldr	r3, [r2]
  80              		.loc 1 32 0
  81 0002 30B4     		push	{r4, r5}
  82              		.cfi_def_cfa_offset 8
  83              		.cfi_offset 4, -8
  84              		.cfi_offset 5, -4
  85              		.loc 1 33 0
  86 0004 5D1C     		adds	r5, r3, #1
  87 0006 0C0A     		lsrs	r4, r1, #8
  88 0008 1560     		str	r5, [r2]
  89 000a C454     		strb	r4, [r0, r3]
  90              		.loc 1 34 0
  91 000c 1368     		ldr	r3, [r2]
  92 000e 5C1C     		adds	r4, r3, #1
  93 0010 1460     		str	r4, [r2]
  94 0012 C154     		strb	r1, [r0, r3]
  95              		.loc 1 35 0
  96 0014 30BC     		pop	{r4, r5}
  97              		.cfi_restore 5
  98              		.cfi_restore 4
  99              		.cfi_def_cfa_offset 0
 100 0016 7047     		bx	lr
 101              		.cfi_endproc
 102              	.LFE1:
 103              		.size	buffer_append_uint16, .-buffer_append_uint16
 104              		.section	.text.buffer_append_int32,"ax",%progbits
 105              		.align	2
 106              		.p2align 4,,15
 107              		.global	buffer_append_int32
 108              		.thumb
 109              		.thumb_func
 110              		.type	buffer_append_int32, %function
 111              	buffer_append_int32:
 112              	.LFB2:
 113              		.loc 1 37 0
 114              		.cfi_startproc
ARM GAS  C:\Users\ADMINI~1\AppData\Local\Temp\ccczVrT8.s 			page 3


 115              		@ args = 0, pretend = 0, frame = 0
 116              		@ frame_needed = 0, uses_anonymous_args = 0
 117              		@ link register save eliminated.
 118              	.LVL2:
 119              		.loc 1 38 0
 120 0000 1368     		ldr	r3, [r2]
 121              		.loc 1 37 0
 122 0002 30B4     		push	{r4, r5}
 123              		.cfi_def_cfa_offset 8
 124              		.cfi_offset 4, -8
 125              		.cfi_offset 5, -4
 126              		.loc 1 38 0
 127 0004 5D1C     		adds	r5, r3, #1
 128 0006 0C16     		asrs	r4, r1, #24
 129 0008 1560     		str	r5, [r2]
 130 000a C454     		strb	r4, [r0, r3]
 131              		.loc 1 39 0
 132 000c 1368     		ldr	r3, [r2]
 133 000e 0C14     		asrs	r4, r1, #16
 134 0010 5D1C     		adds	r5, r3, #1
 135 0012 1560     		str	r5, [r2]
 136 0014 C454     		strb	r4, [r0, r3]
 137              		.loc 1 40 0
 138 0016 1368     		ldr	r3, [r2]
 139 0018 0C12     		asrs	r4, r1, #8
 140 001a 5D1C     		adds	r5, r3, #1
 141 001c 1560     		str	r5, [r2]
 142 001e C454     		strb	r4, [r0, r3]
 143              		.loc 1 41 0
 144 0020 1368     		ldr	r3, [r2]
 145 0022 5C1C     		adds	r4, r3, #1
 146 0024 1460     		str	r4, [r2]
 147 0026 C154     		strb	r1, [r0, r3]
 148              		.loc 1 42 0
 149 0028 30BC     		pop	{r4, r5}
 150              		.cfi_restore 5
 151              		.cfi_restore 4
 152              		.cfi_def_cfa_offset 0
 153 002a 7047     		bx	lr
 154              		.cfi_endproc
 155              	.LFE2:
 156              		.size	buffer_append_int32, .-buffer_append_int32
 157              		.section	.text.buffer_append_uint32,"ax",%progbits
 158              		.align	2
 159              		.p2align 4,,15
 160              		.global	buffer_append_uint32
 161              		.thumb
 162              		.thumb_func
 163              		.type	buffer_append_uint32, %function
 164              	buffer_append_uint32:
 165              	.LFB3:
 166              		.loc 1 44 0
 167              		.cfi_startproc
 168              		@ args = 0, pretend = 0, frame = 0
 169              		@ frame_needed = 0, uses_anonymous_args = 0
 170              		@ link register save eliminated.
 171              	.LVL3:
ARM GAS  C:\Users\ADMINI~1\AppData\Local\Temp\ccczVrT8.s 			page 4


 172              		.loc 1 45 0
 173 0000 1368     		ldr	r3, [r2]
 174              		.loc 1 44 0
 175 0002 30B4     		push	{r4, r5}
 176              		.cfi_def_cfa_offset 8
 177              		.cfi_offset 4, -8
 178              		.cfi_offset 5, -4
 179              		.loc 1 45 0
 180 0004 5D1C     		adds	r5, r3, #1
 181 0006 0C0E     		lsrs	r4, r1, #24
 182 0008 1560     		str	r5, [r2]
 183 000a C454     		strb	r4, [r0, r3]
 184              		.loc 1 46 0
 185 000c 1368     		ldr	r3, [r2]
 186 000e 0C0C     		lsrs	r4, r1, #16
 187 0010 5D1C     		adds	r5, r3, #1
 188 0012 1560     		str	r5, [r2]
 189 0014 C454     		strb	r4, [r0, r3]
 190              		.loc 1 47 0
 191 0016 1368     		ldr	r3, [r2]
 192 0018 0C0A     		lsrs	r4, r1, #8
 193 001a 5D1C     		adds	r5, r3, #1
 194 001c 1560     		str	r5, [r2]
 195 001e C454     		strb	r4, [r0, r3]
 196              		.loc 1 48 0
 197 0020 1368     		ldr	r3, [r2]
 198 0022 5C1C     		adds	r4, r3, #1
 199 0024 1460     		str	r4, [r2]
 200 0026 C154     		strb	r1, [r0, r3]
 201              		.loc 1 49 0
 202 0028 30BC     		pop	{r4, r5}
 203              		.cfi_restore 5
 204              		.cfi_restore 4
 205              		.cfi_def_cfa_offset 0
 206 002a 7047     		bx	lr
 207              		.cfi_endproc
 208              	.LFE3:
 209              		.size	buffer_append_uint32, .-buffer_append_uint32
 210              		.section	.text.buffer_append_float16,"ax",%progbits
 211              		.align	2
 212              		.p2align 4,,15
 213              		.global	buffer_append_float16
 214              		.thumb
 215              		.thumb_func
 216              		.type	buffer_append_float16, %function
 217              	buffer_append_float16:
 218              	.LFB4:
 219              		.loc 1 51 0
 220              		.cfi_startproc
 221              		@ args = 0, pretend = 0, frame = 8
 222              		@ frame_needed = 0, uses_anonymous_args = 0
 223              		@ link register save eliminated.
 224              	.LVL4:
 225 0000 30B4     		push	{r4, r5}
 226              		.cfi_def_cfa_offset 8
 227              		.cfi_offset 4, -8
 228              		.cfi_offset 5, -4
ARM GAS  C:\Users\ADMINI~1\AppData\Local\Temp\ccczVrT8.s 			page 5


 229              		.loc 1 52 0
 230 0002 60EE200A 		vmul.f32	s1, s0, s1
 231              	.LVL5:
 232              		.loc 1 51 0
 233 0006 82B0     		sub	sp, sp, #8
 234              		.cfi_def_cfa_offset 16
 235              		.loc 1 52 0
 236 0008 FDEEE07A 		vcvt.s32.f32	s15, s1
 237              	.LBB6:
 238              	.LBB7:
 239              		.loc 1 28 0
 240 000c 0A68     		ldr	r2, [r1]
 241              	.LBE7:
 242              	.LBE6:
 243              		.loc 1 52 0
 244 000e CDED017A 		vstr.32	s15, [sp, #4]	@ int
 245 0012 BDF90430 		ldrsh	r3, [sp, #4]
 246              	.LVL6:
 247              	.LBB9:
 248              	.LBB8:
 249              		.loc 1 28 0
 250 0016 551C     		adds	r5, r2, #1
 251 0018 1C12     		asrs	r4, r3, #8
 252 001a 0D60     		str	r5, [r1]
 253 001c 8454     		strb	r4, [r0, r2]
 254              		.loc 1 29 0
 255 001e 0A68     		ldr	r2, [r1]
 256 0020 541C     		adds	r4, r2, #1
 257 0022 0C60     		str	r4, [r1]
 258 0024 8354     		strb	r3, [r0, r2]
 259              	.LVL7:
 260              	.LBE8:
 261              	.LBE9:
 262              		.loc 1 53 0
 263 0026 02B0     		add	sp, sp, #8
 264              		.cfi_def_cfa_offset 8
 265              		@ sp needed
 266 0028 30BC     		pop	{r4, r5}
 267              		.cfi_restore 5
 268              		.cfi_restore 4
 269              		.cfi_def_cfa_offset 0
 270 002a 7047     		bx	lr
 271              		.cfi_endproc
 272              	.LFE4:
 273              		.size	buffer_append_float16, .-buffer_append_float16
 274              		.section	.text.buffer_append_float32,"ax",%progbits
 275              		.align	2
 276              		.p2align 4,,15
 277              		.global	buffer_append_float32
 278              		.thumb
 279              		.thumb_func
 280              		.type	buffer_append_float32, %function
 281              	buffer_append_float32:
 282              	.LFB5:
 283              		.loc 1 55 0
 284              		.cfi_startproc
 285              		@ args = 0, pretend = 0, frame = 0
ARM GAS  C:\Users\ADMINI~1\AppData\Local\Temp\ccczVrT8.s 			page 6


 286              		@ frame_needed = 0, uses_anonymous_args = 0
 287              		@ link register save eliminated.
 288              	.LVL8:
 289              		.loc 1 56 0
 290 0000 60EE200A 		vmul.f32	s1, s0, s1
 291              	.LVL9:
 292 0004 0A46     		mov	r2, r1
 293 0006 FDEEE07A 		vcvt.s32.f32	s15, s1
 294 000a 17EE901A 		vmov	r1, s15	@ int
 295              	.LVL10:
 296 000e FFF7FEBF 		b	buffer_append_int32
 297              	.LVL11:
 298              		.cfi_endproc
 299              	.LFE5:
 300              		.size	buffer_append_float32, .-buffer_append_float32
 301 0012 00BF     		.section	.text.buffer_get_int16,"ax",%progbits
 302              		.align	2
 303              		.p2align 4,,15
 304              		.global	buffer_get_int16
 305              		.thumb
 306              		.thumb_func
 307              		.type	buffer_get_int16, %function
 308              	buffer_get_int16:
 309              	.LFB6:
 310              		.loc 1 59 0
 311              		.cfi_startproc
 312              		@ args = 0, pretend = 0, frame = 0
 313              		@ frame_needed = 0, uses_anonymous_args = 0
 314              		@ link register save eliminated.
 315              	.LVL12:
 316              		.loc 1 60 0
 317 0000 0B68     		ldr	r3, [r1]
 318              		.loc 1 61 0
 319 0002 C218     		adds	r2, r0, r3
 320              		.loc 1 60 0
 321 0004 C05C     		ldrb	r0, [r0, r3]	@ zero_extendqisi2
 322              	.LVL13:
 323 0006 5278     		ldrb	r2, [r2, #1]	@ zero_extendqisi2
 324              		.loc 1 62 0
 325 0008 0233     		adds	r3, r3, #2
 326              		.loc 1 60 0
 327 000a 42EA0020 		orr	r0, r2, r0, lsl #8
 328              	.LVL14:
 329              		.loc 1 62 0
 330 000e 0B60     		str	r3, [r1]
 331              		.loc 1 64 0
 332 0010 00B2     		sxth	r0, r0
 333 0012 7047     		bx	lr
 334              		.cfi_endproc
 335              	.LFE6:
 336              		.size	buffer_get_int16, .-buffer_get_int16
 337              		.section	.text.buffer_get_uint16,"ax",%progbits
 338              		.align	2
 339              		.p2align 4,,15
 340              		.global	buffer_get_uint16
 341              		.thumb
 342              		.thumb_func
ARM GAS  C:\Users\ADMINI~1\AppData\Local\Temp\ccczVrT8.s 			page 7


 343              		.type	buffer_get_uint16, %function
 344              	buffer_get_uint16:
 345              	.LFB7:
 346              		.loc 1 66 0
 347              		.cfi_startproc
 348              		@ args = 0, pretend = 0, frame = 0
 349              		@ frame_needed = 0, uses_anonymous_args = 0
 350              		@ link register save eliminated.
 351              	.LVL15:
 352              		.loc 1 67 0
 353 0000 0B68     		ldr	r3, [r1]
 354              		.loc 1 68 0
 355 0002 C218     		adds	r2, r0, r3
 356              		.loc 1 67 0
 357 0004 C05C     		ldrb	r0, [r0, r3]	@ zero_extendqisi2
 358              	.LVL16:
 359 0006 5278     		ldrb	r2, [r2, #1]	@ zero_extendqisi2
 360              	.LVL17:
 361              		.loc 1 69 0
 362 0008 0233     		adds	r3, r3, #2
 363 000a 0B60     		str	r3, [r1]
 364              		.loc 1 71 0
 365 000c 42EA0020 		orr	r0, r2, r0, lsl #8
 366              	.LVL18:
 367 0010 7047     		bx	lr
 368              		.cfi_endproc
 369              	.LFE7:
 370              		.size	buffer_get_uint16, .-buffer_get_uint16
 371 0012 00BF     		.section	.text.buffer_get_int32,"ax",%progbits
 372              		.align	2
 373              		.p2align 4,,15
 374              		.global	buffer_get_int32
 375              		.thumb
 376              		.thumb_func
 377              		.type	buffer_get_int32, %function
 378              	buffer_get_int32:
 379              	.LFB8:
 380              		.loc 1 73 0
 381              		.cfi_startproc
 382              		@ args = 0, pretend = 0, frame = 0
 383              		@ frame_needed = 0, uses_anonymous_args = 0
 384              		@ link register save eliminated.
 385              	.LVL19:
 386 0000 70B4     		push	{r4, r5, r6}
 387              		.cfi_def_cfa_offset 12
 388              		.cfi_offset 4, -12
 389              		.cfi_offset 5, -8
 390              		.cfi_offset 6, -4
 391              		.loc 1 74 0
 392 0002 0C68     		ldr	r4, [r1]
 393              		.loc 1 77 0
 394 0004 0519     		adds	r5, r0, r4
 395              		.loc 1 74 0
 396 0006 035D     		ldrb	r3, [r0, r4]	@ zero_extendqisi2
 397 0008 EA78     		ldrb	r2, [r5, #3]	@ zero_extendqisi2
 398 000a 6E78     		ldrb	r6, [r5, #1]	@ zero_extendqisi2
 399 000c A878     		ldrb	r0, [r5, #2]	@ zero_extendqisi2
ARM GAS  C:\Users\ADMINI~1\AppData\Local\Temp\ccczVrT8.s 			page 8


 400              	.LVL20:
 401 000e 42EA0363 		orr	r3, r2, r3, lsl #24
 402              		.loc 1 78 0
 403 0012 0434     		adds	r4, r4, #4
 404              		.loc 1 74 0
 405 0014 43EA0643 		orr	r3, r3, r6, lsl #16
 406              	.LVL21:
 407              		.loc 1 78 0
 408 0018 0C60     		str	r4, [r1]
 409              		.loc 1 80 0
 410 001a 43EA0020 		orr	r0, r3, r0, lsl #8
 411              	.LVL22:
 412 001e 70BC     		pop	{r4, r5, r6}
 413              		.cfi_restore 6
 414              		.cfi_restore 5
 415              		.cfi_restore 4
 416              		.cfi_def_cfa_offset 0
 417 0020 7047     		bx	lr
 418              		.cfi_endproc
 419              	.LFE8:
 420              		.size	buffer_get_int32, .-buffer_get_int32
 421 0022 00BF     		.section	.text.buffer_get_uint32,"ax",%progbits
 422              		.align	2
 423              		.p2align 4,,15
 424              		.global	buffer_get_uint32
 425              		.thumb
 426              		.thumb_func
 427              		.type	buffer_get_uint32, %function
 428              	buffer_get_uint32:
 429              	.LFB9:
 430              		.loc 1 82 0
 431              		.cfi_startproc
 432              		@ args = 0, pretend = 0, frame = 0
 433              		@ frame_needed = 0, uses_anonymous_args = 0
 434              		@ link register save eliminated.
 435              	.LVL23:
 436 0000 70B4     		push	{r4, r5, r6}
 437              		.cfi_def_cfa_offset 12
 438              		.cfi_offset 4, -12
 439              		.cfi_offset 5, -8
 440              		.cfi_offset 6, -4
 441              		.loc 1 83 0
 442 0002 0C68     		ldr	r4, [r1]
 443              		.loc 1 86 0
 444 0004 0519     		adds	r5, r0, r4
 445              		.loc 1 83 0
 446 0006 035D     		ldrb	r3, [r0, r4]	@ zero_extendqisi2
 447 0008 EA78     		ldrb	r2, [r5, #3]	@ zero_extendqisi2
 448 000a 6E78     		ldrb	r6, [r5, #1]	@ zero_extendqisi2
 449 000c A878     		ldrb	r0, [r5, #2]	@ zero_extendqisi2
 450              	.LVL24:
 451 000e 42EA0363 		orr	r3, r2, r3, lsl #24
 452              		.loc 1 87 0
 453 0012 0434     		adds	r4, r4, #4
 454              		.loc 1 83 0
 455 0014 43EA0643 		orr	r3, r3, r6, lsl #16
 456              	.LVL25:
ARM GAS  C:\Users\ADMINI~1\AppData\Local\Temp\ccczVrT8.s 			page 9


 457              		.loc 1 87 0
 458 0018 0C60     		str	r4, [r1]
 459              		.loc 1 89 0
 460 001a 43EA0020 		orr	r0, r3, r0, lsl #8
 461              	.LVL26:
 462 001e 70BC     		pop	{r4, r5, r6}
 463              		.cfi_restore 6
 464              		.cfi_restore 5
 465              		.cfi_restore 4
 466              		.cfi_def_cfa_offset 0
 467 0020 7047     		bx	lr
 468              		.cfi_endproc
 469              	.LFE9:
 470              		.size	buffer_get_uint32, .-buffer_get_uint32
 471 0022 00BF     		.section	.text.buffer_get_float16,"ax",%progbits
 472              		.align	2
 473              		.p2align 4,,15
 474              		.global	buffer_get_float16
 475              		.thumb
 476              		.thumb_func
 477              		.type	buffer_get_float16, %function
 478              	buffer_get_float16:
 479              	.LFB10:
 480              		.loc 1 91 0
 481              		.cfi_startproc
 482              		@ args = 0, pretend = 0, frame = 0
 483              		@ frame_needed = 0, uses_anonymous_args = 0
 484              		@ link register save eliminated.
 485              	.LVL27:
 486              	.LBB10:
 487              	.LBB11:
 488              		.loc 1 60 0
 489 0000 0A68     		ldr	r2, [r1]
 490              		.loc 1 61 0
 491 0002 8318     		adds	r3, r0, r2
 492              		.loc 1 60 0
 493 0004 805C     		ldrb	r0, [r0, r2]	@ zero_extendqisi2
 494              	.LVL28:
 495 0006 5B78     		ldrb	r3, [r3, #1]	@ zero_extendqisi2
 496 0008 43EA0023 		orr	r3, r3, r0, lsl #8
 497 000c 1BB2     		sxth	r3, r3
 498              	.LVL29:
 499              	.LBE11:
 500              	.LBE10:
 501              		.loc 1 92 0
 502 000e 07EE903A 		vmov	s15, r3	@ int
 503 0012 F8EEE77A 		vcvt.f32.s32	s15, s15
 504              	.LBB13:
 505              	.LBB12:
 506              		.loc 1 62 0
 507 0016 0232     		adds	r2, r2, #2
 508 0018 0A60     		str	r2, [r1]
 509              	.LVL30:
 510              	.LBE12:
 511              	.LBE13:
 512              		.loc 1 93 0
 513 001a 87EE800A 		vdiv.f32	s0, s15, s0
ARM GAS  C:\Users\ADMINI~1\AppData\Local\Temp\ccczVrT8.s 			page 10


 514              	.LVL31:
 515 001e 7047     		bx	lr
 516              		.cfi_endproc
 517              	.LFE10:
 518              		.size	buffer_get_float16, .-buffer_get_float16
 519              		.section	.text.buffer_get_float32,"ax",%progbits
 520              		.align	2
 521              		.p2align 4,,15
 522              		.global	buffer_get_float32
 523              		.thumb
 524              		.thumb_func
 525              		.type	buffer_get_float32, %function
 526              	buffer_get_float32:
 527              	.LFB11:
 528              		.loc 1 95 0
 529              		.cfi_startproc
 530              		@ args = 0, pretend = 0, frame = 0
 531              		@ frame_needed = 0, uses_anonymous_args = 0
 532              	.LVL32:
 533 0000 08B5     		push	{r3, lr}
 534              		.cfi_def_cfa_offset 8
 535              		.cfi_offset 3, -8
 536              		.cfi_offset 14, -4
 537              		.loc 1 96 0
 538 0002 FFF7FEFF 		bl	buffer_get_int32
 539              	.LVL33:
 540 0006 07EE900A 		vmov	s15, r0	@ int
 541 000a F8EEE77A 		vcvt.f32.s32	s15, s15
 542              		.loc 1 97 0
 543 000e 87EE800A 		vdiv.f32	s0, s15, s0
 544 0012 08BD     		pop	{r3, pc}
 545              		.cfi_endproc
 546              	.LFE11:
 547              		.size	buffer_get_float32, .-buffer_get_float32
 548              		.text
 549              	.Letext0:
 550              		.file 2 "c:\\program files (x86)\\gnu tools arm embedded\\5.3 2016q1\\arm-none-eabi\\include\\mach
 551              		.file 3 "c:\\program files (x86)\\gnu tools arm embedded\\5.3 2016q1\\arm-none-eabi\\include\\sys\