ARM GAS  C:\Users\IDONNO~1.SON\AppData\Local\Temp\ccb2aKIt.s 			page 1


   1              		.syntax unified
   2              		.cpu cortex-m4
   3              		.eabi_attribute 27, 1
   4              		.eabi_attribute 28, 1
   5              		.fpu fpv4-sp-d16
   6              		.eabi_attribute 20, 1
   7              		.eabi_attribute 21, 1
   8              		.eabi_attribute 23, 3
   9              		.eabi_attribute 24, 1
  10              		.eabi_attribute 25, 1
  11              		.eabi_attribute 26, 1
  12              		.eabi_attribute 30, 2
  13              		.eabi_attribute 34, 1
  14              		.eabi_attribute 18, 4
  15              		.thumb
  16              		.syntax unified
  17              		.file	"can.c"
  18              		.text
  19              	.Ltext0:
  20              		.cfi_sections	.debug_frame
  21              		.section	.text.canInit,"ax",%progbits
  22              		.align	2
  23              		.p2align 4,,15
  24              		.global	canInit
  25              		.thumb
  26              		.thumb_func
  27              		.type	canInit, %function
  28              	canInit:
  29              	.LFB256:
  30              		.file 1 "lib/ChibiOS_3.0.2/os/hal/src/can.c"
  31              		.loc 1 56 0
  32              		.cfi_startproc
  33              		@ args = 0, pretend = 0, frame = 0
  34              		@ frame_needed = 0, uses_anonymous_args = 0
  35              		@ link register save eliminated.
  36              		.loc 1 58 0
  37 0000 FFF7FEBF 		b	can_lld_init
  38              	.LVL0:
  39              		.cfi_endproc
  40              	.LFE256:
  41              		.size	canInit, .-canInit
  42              		.section	.text.canObjectInit,"ax",%progbits
  43              		.align	2
  44              		.p2align 4,,15
  45              		.global	canObjectInit
  46              		.thumb
  47              		.thumb_func
  48              		.type	canObjectInit, %function
  49              	canObjectInit:
  50              	.LFB257:
  51              		.loc 1 68 0
  52              		.cfi_startproc
  53              		@ args = 0, pretend = 0, frame = 0
  54              		@ frame_needed = 0, uses_anonymous_args = 0
  55              		@ link register save eliminated.
  56              	.LVL1:
  57 0000 F0B4     		push	{r4, r5, r6, r7}
ARM GAS  C:\Users\IDONNO~1.SON\AppData\Local\Temp\ccb2aKIt.s 			page 2


  58              		.cfi_def_cfa_offset 16
  59              		.cfi_offset 4, -16
  60              		.cfi_offset 5, -12
  61              		.cfi_offset 6, -8
  62              		.cfi_offset 7, -4
  63              		.loc 1 70 0
  64 0002 0122     		movs	r2, #1
  65              		.loc 1 71 0
  66 0004 0023     		movs	r3, #0
  67              		.loc 1 74 0
  68 0006 00F11807 		add	r7, r0, #24
  69              		.loc 1 75 0
  70 000a 00F11C06 		add	r6, r0, #28
  71              		.loc 1 76 0
  72 000e 00F12005 		add	r5, r0, #32
  73              		.loc 1 78 0
  74 0012 00F12404 		add	r4, r0, #36
  75              		.loc 1 79 0
  76 0016 00F12801 		add	r1, r0, #40
  77              		.loc 1 70 0
  78 001a 0270     		strb	r2, [r0]
  79              		.loc 1 71 0
  80 001c 4360     		str	r3, [r0, #4]
  81              		.loc 1 72 0
  82 001e 00F10802 		add	r2, r0, #8
  83              	.LVL2:
  84              		.loc 1 73 0
  85 0022 00F11003 		add	r3, r0, #16
  86              	.LBB174:
  87              	.LBB175:
  88              	.LBB176:
  89              		.file 2 "lib/ChibiOS_3.0.2/os/rt/include/chevents.h"
  90              		.loc 2 172 0
  91 0026 8761     		str	r7, [r0, #24]
  92              	.LBE176:
  93              	.LBE175:
  94              	.LBE174:
  95              	.LBB177:
  96              	.LBB178:
  97              	.LBB179:
  98 0028 C661     		str	r6, [r0, #28]
  99              	.LBE179:
 100              	.LBE178:
 101              	.LBE177:
 102              	.LBB180:
 103              	.LBB181:
 104              	.LBB182:
 105 002a 0562     		str	r5, [r0, #32]
 106              	.LBE182:
 107              	.LBE181:
 108              	.LBE180:
 109              	.LBB183:
 110              	.LBB184:
 111              	.LBB185:
 112 002c 4462     		str	r4, [r0, #36]
 113              	.LBE185:
 114              	.LBE184:
ARM GAS  C:\Users\IDONNO~1.SON\AppData\Local\Temp\ccb2aKIt.s 			page 3


 115              	.LBE183:
 116              	.LBB186:
 117              	.LBB187:
 118              	.LBB188:
 119 002e 8162     		str	r1, [r0, #40]
 120              	.LBE188:
 121              	.LBE187:
 122              	.LBE186:
 123              	.LBB189:
 124              	.LBB190:
 125              	.LBB191:
 126              	.LBB192:
 127              		.file 3 "lib/ChibiOS_3.0.2/os/rt/include/chschd.h"
 128              		.loc 3 604 0
 129 0030 8260     		str	r2, [r0, #8]
 130              		.loc 3 605 0
 131 0032 C260     		str	r2, [r0, #12]
 132              	.LVL3:
 133              	.LBE192:
 134              	.LBE191:
 135              	.LBE190:
 136              	.LBE189:
 137              	.LBB193:
 138              	.LBB194:
 139              	.LBB195:
 140              	.LBB196:
 141              		.loc 3 604 0
 142 0034 0361     		str	r3, [r0, #16]
 143              		.loc 3 605 0
 144 0036 4361     		str	r3, [r0, #20]
 145              	.LVL4:
 146              	.LBE196:
 147              	.LBE195:
 148              	.LBE194:
 149              	.LBE193:
 150              		.loc 1 81 0
 151 0038 F0BC     		pop	{r4, r5, r6, r7}
 152              		.cfi_restore 7
 153              		.cfi_restore 6
 154              		.cfi_restore 5
 155              		.cfi_restore 4
 156              		.cfi_def_cfa_offset 0
 157 003a 7047     		bx	lr
 158              		.cfi_endproc
 159              	.LFE257:
 160              		.size	canObjectInit, .-canObjectInit
 161              		.section	.text.canStart,"ax",%progbits
 162              		.align	2
 163              		.p2align 4,,15
 164              		.global	canStart
 165              		.thumb
 166              		.thumb_func
 167              		.type	canStart, %function
 168              	canStart:
 169              	.LFB258:
 170              		.loc 1 95 0
 171              		.cfi_startproc
ARM GAS  C:\Users\IDONNO~1.SON\AppData\Local\Temp\ccb2aKIt.s 			page 4


 172              		@ args = 0, pretend = 0, frame = 0
 173              		@ frame_needed = 0, uses_anonymous_args = 0
 174              	.LVL5:
 175 0000 10B5     		push	{r4, lr}
 176              		.cfi_def_cfa_offset 8
 177              		.cfi_offset 4, -8
 178              		.cfi_offset 14, -4
 179              	.LBB197:
 180              	.LBB198:
 181              	.LBB199:
 182              	.LBB200:
 183              	.LBB201:
 184              		.file 4 "lib/ChibiOS_3.0.2/os/ext/CMSIS/include/core_cmFunc.h"
 185              		.loc 4 546 0
 186 0002 2023     		movs	r3, #32
 187              	.LBE201:
 188              	.LBE200:
 189              	.LBE199:
 190              	.LBE198:
 191              	.LBE197:
 192              		.loc 1 95 0
 193 0004 0446     		mov	r4, r0
 194              	.LBB206:
 195              	.LBB205:
 196              	.LBB204:
 197              	.LBB203:
 198              	.LBB202:
 199              		.loc 4 546 0
 200              		.syntax unified
 201              	@ 546 "lib/ChibiOS_3.0.2/os/ext/CMSIS/include/core_cmFunc.h" 1
 202 0006 83F31188 		MSR basepri, r3
 203              	@ 0 "" 2
 204              	.LVL6:
 205              		.thumb
 206              		.syntax unified
 207              	.LBE202:
 208              	.LBE203:
 209              	.LBE204:
 210              	.LBE205:
 211              	.LBE206:
 212              		.loc 1 103 0
 213 000a 0223     		movs	r3, #2
 214 000c 0370     		strb	r3, [r0]
 215              		.loc 1 104 0
 216 000e 4160     		str	r1, [r0, #4]
 217              		.loc 1 108 0
 218 0010 FFF7FEFF 		bl	can_lld_start
 219              	.LVL7:
 220              		.loc 1 111 0
 221 0014 0323     		movs	r3, #3
 222 0016 2370     		strb	r3, [r4]
 223              	.LVL8:
 224              	.LBB207:
 225              	.LBB208:
 226              	.LBB209:
 227              	.LBB210:
 228              	.LBB211:
ARM GAS  C:\Users\IDONNO~1.SON\AppData\Local\Temp\ccb2aKIt.s 			page 5


 229              	.LBB212:
 230              		.loc 4 546 0
 231 0018 0023     		movs	r3, #0
 232              		.syntax unified
 233              	@ 546 "lib/ChibiOS_3.0.2/os/ext/CMSIS/include/core_cmFunc.h" 1
 234 001a 83F31188 		MSR basepri, r3
 235              	@ 0 "" 2
 236              	.LVL9:
 237              		.thumb
 238              		.syntax unified
 239 001e 10BD     		pop	{r4, pc}
 240              	.LBE212:
 241              	.LBE211:
 242              	.LBE210:
 243              	.LBE209:
 244              	.LBE208:
 245              	.LBE207:
 246              		.cfi_endproc
 247              	.LFE258:
 248              		.size	canStart, .-canStart
 249              		.section	.text.canStop,"ax",%progbits
 250              		.align	2
 251              		.p2align 4,,15
 252              		.global	canStop
 253              		.thumb
 254              		.thumb_func
 255              		.type	canStop, %function
 256              	canStop:
 257              	.LFB259:
 258              		.loc 1 122 0
 259              		.cfi_startproc
 260              		@ args = 0, pretend = 0, frame = 0
 261              		@ frame_needed = 0, uses_anonymous_args = 0
 262              	.LVL10:
 263 0000 10B5     		push	{r4, lr}
 264              		.cfi_def_cfa_offset 8
 265              		.cfi_offset 4, -8
 266              		.cfi_offset 14, -4
 267              	.LBB213:
 268              	.LBB214:
 269              	.LBB215:
 270              	.LBB216:
 271              	.LBB217:
 272              		.loc 4 546 0
 273 0002 2023     		movs	r3, #32
 274              	.LBE217:
 275              	.LBE216:
 276              	.LBE215:
 277              	.LBE214:
 278              	.LBE213:
 279              		.loc 1 122 0
 280 0004 0446     		mov	r4, r0
 281              	.LBB222:
 282              	.LBB221:
 283              	.LBB220:
 284              	.LBB219:
 285              	.LBB218:
ARM GAS  C:\Users\IDONNO~1.SON\AppData\Local\Temp\ccb2aKIt.s 			page 6


 286              		.loc 4 546 0
 287              		.syntax unified
 288              	@ 546 "lib/ChibiOS_3.0.2/os/ext/CMSIS/include/core_cmFunc.h" 1
 289 0006 83F31188 		MSR basepri, r3
 290              	@ 0 "" 2
 291              	.LVL11:
 292              		.thumb
 293              		.syntax unified
 294              	.LBE218:
 295              	.LBE219:
 296              	.LBE220:
 297              	.LBE221:
 298              	.LBE222:
 299              		.loc 1 131 0
 300 000a FFF7FEFF 		bl	can_lld_stop
 301              	.LVL12:
 302              		.loc 1 132 0
 303 000e 2046     		mov	r0, r4
 304 0010 0123     		movs	r3, #1
 305 0012 00F8103B 		strb	r3, [r0], #16
 306              	.LVL13:
 307              	.LBB223:
 308              	.LBB224:
 309              		.file 5 "lib/ChibiOS_3.0.2/os/hal/osal/rt/osal.h"
 310              		.loc 5 810 0
 311 0016 6FF00101 		mvn	r1, #1
 312 001a FFF7FEFF 		bl	chThdDequeueAllI
 313              	.LVL14:
 314              	.LBE224:
 315              	.LBE223:
 316              	.LBB225:
 317              	.LBB226:
 318 001e 04F10800 		add	r0, r4, #8
 319              	.LVL15:
 320 0022 6FF00101 		mvn	r1, #1
 321 0026 FFF7FEFF 		bl	chThdDequeueAllI
 322              	.LVL16:
 323              	.LBE226:
 324              	.LBE225:
 325              	.LBB227:
 326              	.LBB228:
 327              		.loc 5 600 0
 328 002a FFF7FEFF 		bl	chSchRescheduleS
 329              	.LVL17:
 330              	.LBE228:
 331              	.LBE227:
 332              	.LBB229:
 333              	.LBB230:
 334              	.LBB231:
 335              	.LBB232:
 336              	.LBB233:
 337              	.LBB234:
 338              		.loc 4 546 0
 339 002e 0023     		movs	r3, #0
 340              		.syntax unified
 341              	@ 546 "lib/ChibiOS_3.0.2/os/ext/CMSIS/include/core_cmFunc.h" 1
 342 0030 83F31188 		MSR basepri, r3
ARM GAS  C:\Users\IDONNO~1.SON\AppData\Local\Temp\ccb2aKIt.s 			page 7


 343              	@ 0 "" 2
 344              	.LVL18:
 345              		.thumb
 346              		.syntax unified
 347 0034 10BD     		pop	{r4, pc}
 348              	.LBE234:
 349              	.LBE233:
 350              	.LBE232:
 351              	.LBE231:
 352              	.LBE230:
 353              	.LBE229:
 354              		.cfi_endproc
 355              	.LFE259:
 356              		.size	canStop, .-canStop
 357 0036 00BF     		.section	.text.canTransmit,"ax",%progbits
 358              		.align	2
 359              		.p2align 4,,15
 360              		.global	canTransmit
 361              		.thumb
 362              		.thumb_func
 363              		.type	canTransmit, %function
 364              	canTransmit:
 365              	.LFB260:
 366              		.loc 1 166 0
 367              		.cfi_startproc
 368              		@ args = 0, pretend = 0, frame = 0
 369              		@ frame_needed = 0, uses_anonymous_args = 0
 370              	.LVL19:
 371 0000 2DE9F041 		push	{r4, r5, r6, r7, r8, lr}
 372              		.cfi_def_cfa_offset 24
 373              		.cfi_offset 4, -24
 374              		.cfi_offset 5, -20
 375              		.cfi_offset 6, -16
 376              		.cfi_offset 7, -12
 377              		.cfi_offset 8, -8
 378              		.cfi_offset 14, -4
 379              		.loc 1 166 0
 380 0004 1F46     		mov	r7, r3
 381 0006 0446     		mov	r4, r0
 382 0008 0D46     		mov	r5, r1
 383 000a 9046     		mov	r8, r2
 384              	.LBB235:
 385              	.LBB236:
 386              	.LBB237:
 387              	.LBB238:
 388              	.LBB239:
 389              		.loc 4 546 0
 390 000c 2023     		movs	r3, #32
 391              	.LVL20:
 392              		.syntax unified
 393              	@ 546 "lib/ChibiOS_3.0.2/os/ext/CMSIS/include/core_cmFunc.h" 1
 394 000e 83F31188 		MSR basepri, r3
 395              	@ 0 "" 2
 396              	.LVL21:
 397              		.thumb
 398              		.syntax unified
 399              	.LBE239:
ARM GAS  C:\Users\IDONNO~1.SON\AppData\Local\Temp\ccb2aKIt.s 			page 8


 400              	.LBE238:
 401              	.LBE237:
 402              	.LBE236:
 403              	.LBE235:
 404              	.LBB240:
 405              		.loc 1 177 0
 406 0012 00F10806 		add	r6, r0, #8
 407              	.LVL22:
 408              	.L9:
 409              	.LBE240:
 410              		.loc 1 175 0
 411 0016 2378     		ldrb	r3, [r4]	@ zero_extendqisi2
 412 0018 042B     		cmp	r3, #4
 413 001a 2946     		mov	r1, r5
 414 001c 2046     		mov	r0, r4
 415 001e 02D0     		beq	.L11
 416              	.LVL23:
 417              		.loc 1 175 0 is_stmt 0 discriminator 1
 418 0020 FFF7FEFF 		bl	can_lld_is_tx_empty
 419              	.LVL24:
 420 0024 50B9     		cbnz	r0, .L22
 421              	.L11:
 422              	.LVL25:
 423              	.LBB249:
 424              	.LBB241:
 425              	.LBB242:
 426              		.loc 5 784 0 is_stmt 1
 427 0026 3946     		mov	r1, r7
 428 0028 3046     		mov	r0, r6
 429 002a FFF7FEFF 		bl	chThdEnqueueTimeoutS
 430              	.LVL26:
 431              	.LBE242:
 432              	.LBE241:
 433              		.loc 1 178 0
 434 002e 0028     		cmp	r0, #0
 435 0030 F1D0     		beq	.L9
 436              	.LVL27:
 437              	.LBB243:
 438              	.LBB244:
 439              	.LBB245:
 440              	.LBB246:
 441              	.LBB247:
 442              	.LBB248:
 443              		.loc 4 546 0
 444 0032 0023     		movs	r3, #0
 445              		.syntax unified
 446              	@ 546 "lib/ChibiOS_3.0.2/os/ext/CMSIS/include/core_cmFunc.h" 1
 447 0034 83F31188 		MSR basepri, r3
 448              	@ 0 "" 2
 449              	.LVL28:
 450              		.thumb
 451              		.syntax unified
 452              	.LBE248:
 453              	.LBE247:
 454              	.LBE246:
 455              	.LBE245:
 456              	.LBE244:
ARM GAS  C:\Users\IDONNO~1.SON\AppData\Local\Temp\ccb2aKIt.s 			page 9


 457              	.LBE243:
 458              		.loc 1 180 0
 459 0038 BDE8F081 		pop	{r4, r5, r6, r7, r8, pc}
 460              	.LVL29:
 461              	.L22:
 462              	.LBE249:
 463              		.loc 1 183 0
 464 003c 2046     		mov	r0, r4
 465 003e 4246     		mov	r2, r8
 466 0040 2946     		mov	r1, r5
 467 0042 FFF7FEFF 		bl	can_lld_transmit
 468              	.LVL30:
 469              	.LBB250:
 470              	.LBB251:
 471              	.LBB252:
 472              	.LBB253:
 473              	.LBB254:
 474              	.LBB255:
 475              		.loc 4 546 0
 476 0046 0020     		movs	r0, #0
 477              		.syntax unified
 478              	@ 546 "lib/ChibiOS_3.0.2/os/ext/CMSIS/include/core_cmFunc.h" 1
 479 0048 80F31188 		MSR basepri, r0
 480              	@ 0 "" 2
 481              	.LVL31:
 482              		.thumb
 483              		.syntax unified
 484              	.LBE255:
 485              	.LBE254:
 486              	.LBE253:
 487              	.LBE252:
 488              	.LBE251:
 489              	.LBE250:
 490              		.loc 1 186 0
 491 004c BDE8F081 		pop	{r4, r5, r6, r7, r8, pc}
 492              		.cfi_endproc
 493              	.LFE260:
 494              		.size	canTransmit, .-canTransmit
 495              		.section	.text.canReceive,"ax",%progbits
 496              		.align	2
 497              		.p2align 4,,15
 498              		.global	canReceive
 499              		.thumb
 500              		.thumb_func
 501              		.type	canReceive, %function
 502              	canReceive:
 503              	.LFB261:
 504              		.loc 1 213 0
 505              		.cfi_startproc
 506              		@ args = 0, pretend = 0, frame = 0
 507              		@ frame_needed = 0, uses_anonymous_args = 0
 508              	.LVL32:
 509 0000 2DE9F041 		push	{r4, r5, r6, r7, r8, lr}
 510              		.cfi_def_cfa_offset 24
 511              		.cfi_offset 4, -24
 512              		.cfi_offset 5, -20
 513              		.cfi_offset 6, -16
ARM GAS  C:\Users\IDONNO~1.SON\AppData\Local\Temp\ccb2aKIt.s 			page 10


 514              		.cfi_offset 7, -12
 515              		.cfi_offset 8, -8
 516              		.cfi_offset 14, -4
 517              		.loc 1 213 0
 518 0004 1F46     		mov	r7, r3
 519 0006 0446     		mov	r4, r0
 520 0008 0D46     		mov	r5, r1
 521 000a 9046     		mov	r8, r2
 522              	.LBB256:
 523              	.LBB257:
 524              	.LBB258:
 525              	.LBB259:
 526              	.LBB260:
 527              		.loc 4 546 0
 528 000c 2023     		movs	r3, #32
 529              	.LVL33:
 530              		.syntax unified
 531              	@ 546 "lib/ChibiOS_3.0.2/os/ext/CMSIS/include/core_cmFunc.h" 1
 532 000e 83F31188 		MSR basepri, r3
 533              	@ 0 "" 2
 534              	.LVL34:
 535              		.thumb
 536              		.syntax unified
 537              	.LBE260:
 538              	.LBE259:
 539              	.LBE258:
 540              	.LBE257:
 541              	.LBE256:
 542              	.LBB261:
 543              		.loc 1 224 0
 544 0012 00F11006 		add	r6, r0, #16
 545              	.LVL35:
 546              	.L24:
 547              	.LBE261:
 548              		.loc 1 222 0
 549 0016 2378     		ldrb	r3, [r4]	@ zero_extendqisi2
 550 0018 042B     		cmp	r3, #4
 551 001a 2946     		mov	r1, r5
 552 001c 2046     		mov	r0, r4
 553 001e 02D0     		beq	.L26
 554              	.LVL36:
 555              		.loc 1 222 0 is_stmt 0 discriminator 1
 556 0020 FFF7FEFF 		bl	can_lld_is_rx_nonempty
 557              	.LVL37:
 558 0024 50B9     		cbnz	r0, .L36
 559              	.L26:
 560              	.LVL38:
 561              	.LBB270:
 562              	.LBB262:
 563              	.LBB263:
 564              		.loc 5 784 0 is_stmt 1
 565 0026 3946     		mov	r1, r7
 566 0028 3046     		mov	r0, r6
 567 002a FFF7FEFF 		bl	chThdEnqueueTimeoutS
 568              	.LVL39:
 569              	.LBE263:
 570              	.LBE262:
ARM GAS  C:\Users\IDONNO~1.SON\AppData\Local\Temp\ccb2aKIt.s 			page 11


 571              		.loc 1 225 0
 572 002e 0028     		cmp	r0, #0
 573 0030 F1D0     		beq	.L24
 574              	.LVL40:
 575              	.LBB264:
 576              	.LBB265:
 577              	.LBB266:
 578              	.LBB267:
 579              	.LBB268:
 580              	.LBB269:
 581              		.loc 4 546 0
 582 0032 0023     		movs	r3, #0
 583              		.syntax unified
 584              	@ 546 "lib/ChibiOS_3.0.2/os/ext/CMSIS/include/core_cmFunc.h" 1
 585 0034 83F31188 		MSR basepri, r3
 586              	@ 0 "" 2
 587              	.LVL41:
 588              		.thumb
 589              		.syntax unified
 590              	.LBE269:
 591              	.LBE268:
 592              	.LBE267:
 593              	.LBE266:
 594              	.LBE265:
 595              	.LBE264:
 596              		.loc 1 227 0
 597 0038 BDE8F081 		pop	{r4, r5, r6, r7, r8, pc}
 598              	.LVL42:
 599              	.L36:
 600              	.LBE270:
 601              		.loc 1 230 0
 602 003c 2046     		mov	r0, r4
 603 003e 4246     		mov	r2, r8
 604 0040 2946     		mov	r1, r5
 605 0042 FFF7FEFF 		bl	can_lld_receive
 606              	.LVL43:
 607              	.LBB271:
 608              	.LBB272:
 609              	.LBB273:
 610              	.LBB274:
 611              	.LBB275:
 612              	.LBB276:
 613              		.loc 4 546 0
 614 0046 0020     		movs	r0, #0
 615              		.syntax unified
 616              	@ 546 "lib/ChibiOS_3.0.2/os/ext/CMSIS/include/core_cmFunc.h" 1
 617 0048 80F31188 		MSR basepri, r0
 618              	@ 0 "" 2
 619              	.LVL44:
 620              		.thumb
 621              		.syntax unified
 622              	.LBE276:
 623              	.LBE275:
 624              	.LBE274:
 625              	.LBE273:
 626              	.LBE272:
 627              	.LBE271:
ARM GAS  C:\Users\IDONNO~1.SON\AppData\Local\Temp\ccb2aKIt.s 			page 12


 628              		.loc 1 233 0
 629 004c BDE8F081 		pop	{r4, r5, r6, r7, r8, pc}
 630              		.cfi_endproc
 631              	.LFE261:
 632              		.size	canReceive, .-canReceive
 633              		.section	.text.canSleep,"ax",%progbits
 634              		.align	2
 635              		.p2align 4,,15
 636              		.global	canSleep
 637              		.thumb
 638              		.thumb_func
 639              		.type	canSleep, %function
 640              	canSleep:
 641              	.LFB262:
 642              		.loc 1 248 0
 643              		.cfi_startproc
 644              		@ args = 0, pretend = 0, frame = 0
 645              		@ frame_needed = 0, uses_anonymous_args = 0
 646              	.LVL45:
 647              	.LBB277:
 648              	.LBB278:
 649              	.LBB279:
 650              	.LBB280:
 651              	.LBB281:
 652              		.loc 4 546 0
 653 0000 2022     		movs	r2, #32
 654              		.syntax unified
 655              	@ 546 "lib/ChibiOS_3.0.2/os/ext/CMSIS/include/core_cmFunc.h" 1
 656 0002 82F31188 		MSR basepri, r2
 657              	@ 0 "" 2
 658              	.LVL46:
 659              		.thumb
 660              		.syntax unified
 661              	.LBE281:
 662              	.LBE280:
 663              	.LBE279:
 664              	.LBE278:
 665              	.LBE277:
 666              		.loc 1 255 0
 667 0006 0278     		ldrb	r2, [r0]	@ zero_extendqisi2
 668 0008 032A     		cmp	r2, #3
 669 000a 03D0     		beq	.L41
 670              	.LVL47:
 671              	.LBB282:
 672              	.LBB283:
 673              	.LBB284:
 674              	.LBB285:
 675              	.LBB286:
 676              	.LBB287:
 677              		.loc 4 546 0
 678 000c 0023     		movs	r3, #0
 679              		.syntax unified
 680              	@ 546 "lib/ChibiOS_3.0.2/os/ext/CMSIS/include/core_cmFunc.h" 1
 681 000e 83F31188 		MSR basepri, r3
 682              	@ 0 "" 2
 683              	.LVL48:
 684              		.thumb
ARM GAS  C:\Users\IDONNO~1.SON\AppData\Local\Temp\ccb2aKIt.s 			page 13


 685              		.syntax unified
 686 0012 7047     		bx	lr
 687              	.L41:
 688              	.LBE287:
 689              	.LBE286:
 690              	.LBE285:
 691              	.LBE284:
 692              	.LBE283:
 693              	.LBE282:
 694              		.loc 1 248 0
 695 0014 10B5     		push	{r4, lr}
 696              		.cfi_def_cfa_offset 8
 697              		.cfi_offset 4, -8
 698              		.cfi_offset 14, -4
 699 0016 0446     		mov	r4, r0
 700              		.loc 1 256 0
 701 0018 FFF7FEFF 		bl	can_lld_sleep
 702              	.LVL49:
 703              		.loc 1 257 0
 704 001c 2046     		mov	r0, r4
 705 001e 0423     		movs	r3, #4
 706 0020 00F8243B 		strb	r3, [r0], #36
 707              	.LVL50:
 708              	.LBB293:
 709              	.LBB294:
 710              		.loc 5 844 0
 711 0024 0021     		movs	r1, #0
 712 0026 FFF7FEFF 		bl	chEvtBroadcastFlagsI
 713              	.LVL51:
 714              	.LBE294:
 715              	.LBE293:
 716              	.LBB295:
 717              	.LBB296:
 718              		.loc 5 600 0
 719 002a FFF7FEFF 		bl	chSchRescheduleS
 720              	.LVL52:
 721              	.LBE296:
 722              	.LBE295:
 723              	.LBB297:
 724              	.LBB292:
 725              	.LBB291:
 726              	.LBB290:
 727              	.LBB289:
 728              	.LBB288:
 729              		.loc 4 546 0
 730 002e 0023     		movs	r3, #0
 731              		.syntax unified
 732              	@ 546 "lib/ChibiOS_3.0.2/os/ext/CMSIS/include/core_cmFunc.h" 1
 733 0030 83F31188 		MSR basepri, r3
 734              	@ 0 "" 2
 735              	.LVL53:
 736              		.thumb
 737              		.syntax unified
 738 0034 10BD     		pop	{r4, pc}
 739              	.LBE288:
 740              	.LBE289:
 741              	.LBE290:
ARM GAS  C:\Users\IDONNO~1.SON\AppData\Local\Temp\ccb2aKIt.s 			page 14


 742              	.LBE291:
 743              	.LBE292:
 744              	.LBE297:
 745              		.cfi_endproc
 746              	.LFE262:
 747              		.size	canSleep, .-canSleep
 748 0036 00BF     		.section	.text.canWakeup,"ax",%progbits
 749              		.align	2
 750              		.p2align 4,,15
 751              		.global	canWakeup
 752              		.thumb
 753              		.thumb_func
 754              		.type	canWakeup, %function
 755              	canWakeup:
 756              	.LFB263:
 757              		.loc 1 271 0
 758              		.cfi_startproc
 759              		@ args = 0, pretend = 0, frame = 0
 760              		@ frame_needed = 0, uses_anonymous_args = 0
 761              	.LVL54:
 762              	.LBB298:
 763              	.LBB299:
 764              	.LBB300:
 765              	.LBB301:
 766              	.LBB302:
 767              		.loc 4 546 0
 768 0000 2022     		movs	r2, #32
 769              		.syntax unified
 770              	@ 546 "lib/ChibiOS_3.0.2/os/ext/CMSIS/include/core_cmFunc.h" 1
 771 0002 82F31188 		MSR basepri, r2
 772              	@ 0 "" 2
 773              	.LVL55:
 774              		.thumb
 775              		.syntax unified
 776              	.LBE302:
 777              	.LBE301:
 778              	.LBE300:
 779              	.LBE299:
 780              	.LBE298:
 781              		.loc 1 278 0
 782 0006 0278     		ldrb	r2, [r0]	@ zero_extendqisi2
 783 0008 042A     		cmp	r2, #4
 784 000a 03D0     		beq	.L46
 785              	.LVL56:
 786              	.LBB303:
 787              	.LBB304:
 788              	.LBB305:
 789              	.LBB306:
 790              	.LBB307:
 791              	.LBB308:
 792              		.loc 4 546 0
 793 000c 0023     		movs	r3, #0
 794              		.syntax unified
 795              	@ 546 "lib/ChibiOS_3.0.2/os/ext/CMSIS/include/core_cmFunc.h" 1
 796 000e 83F31188 		MSR basepri, r3
 797              	@ 0 "" 2
 798              	.LVL57:
ARM GAS  C:\Users\IDONNO~1.SON\AppData\Local\Temp\ccb2aKIt.s 			page 15


 799              		.thumb
 800              		.syntax unified
 801 0012 7047     		bx	lr
 802              	.L46:
 803              	.LBE308:
 804              	.LBE307:
 805              	.LBE306:
 806              	.LBE305:
 807              	.LBE304:
 808              	.LBE303:
 809              		.loc 1 271 0
 810 0014 10B5     		push	{r4, lr}
 811              		.cfi_def_cfa_offset 8
 812              		.cfi_offset 4, -8
 813              		.cfi_offset 14, -4
 814 0016 0446     		mov	r4, r0
 815              		.loc 1 279 0
 816 0018 FFF7FEFF 		bl	can_lld_wakeup
 817              	.LVL58:
 818              		.loc 1 280 0
 819 001c 2046     		mov	r0, r4
 820 001e 0323     		movs	r3, #3
 821 0020 00F8283B 		strb	r3, [r0], #40
 822              	.LVL59:
 823              	.LBB314:
 824              	.LBB315:
 825              		.loc 5 844 0
 826 0024 0021     		movs	r1, #0
 827 0026 FFF7FEFF 		bl	chEvtBroadcastFlagsI
 828              	.LVL60:
 829              	.LBE315:
 830              	.LBE314:
 831              	.LBB316:
 832              	.LBB317:
 833              		.loc 5 600 0
 834 002a FFF7FEFF 		bl	chSchRescheduleS
 835              	.LVL61:
 836              	.LBE317:
 837              	.LBE316:
 838              	.LBB318:
 839              	.LBB313:
 840              	.LBB312:
 841              	.LBB311:
 842              	.LBB310:
 843              	.LBB309:
 844              		.loc 4 546 0
 845 002e 0023     		movs	r3, #0
 846              		.syntax unified
 847              	@ 546 "lib/ChibiOS_3.0.2/os/ext/CMSIS/include/core_cmFunc.h" 1
 848 0030 83F31188 		MSR basepri, r3
 849              	@ 0 "" 2
 850              	.LVL62:
 851              		.thumb
 852              		.syntax unified
 853 0034 10BD     		pop	{r4, pc}
 854              	.LBE309:
 855              	.LBE310:
ARM GAS  C:\Users\IDONNO~1.SON\AppData\Local\Temp\ccb2aKIt.s 			page 16


 856              	.LBE311:
 857              	.LBE312:
 858              	.LBE313:
 859              	.LBE318:
 860              		.cfi_endproc
 861              	.LFE263:
 862              		.size	canWakeup, .-canWakeup
 863 0036 00BF     		.text
 864              	.Letext0:
 865              		.file 6 "c:\\program files (x86)\\gnu tools arm embedded\\5.4 2016q2\\arm-none-eabi\\include\\mach
 866              		.file 7 "c:\\program files (x86)\\gnu tools arm embedded\\5.4 2016q2\\arm-none-eabi\\include\\sys\
 867              		.file 8 "lib/ChibiOS_3.0.2/os/rt/ports/ARMCMx/compilers/GCC/chtypes.h"
 868              		.file 9 "lib/ChibiOS_3.0.2/os/rt/include/chsystypes.h"
 869              		.file 10 "lib/ChibiOS_3.0.2/os/ext/CMSIS/ST/stm32f407xx.h"
 870              		.file 11 "lib/ChibiOS_3.0.2/os/rt/ports/ARMCMx/chcore.h"
 871              		.file 12 "lib/ChibiOS_3.0.2/os/rt/ports/ARMCMx/chcore_v7m.h"
 872              		.file 13 "lib/ChibiOS_3.0.2/os/rt/include/chtm.h"
 873              		.file 14 "lib/ChibiOS_3.0.2/os/rt/include/chsem.h"
 874              		.file 15 "lib/ChibiOS_3.0.2/os/rt/include/chmtx.h"
 875              		.file 16 "lib/ChibiOS_3.0.2/os/hal/include/can.h"
 876              		.file 17 "lib/ChibiOS_3.0.2/os/hal/ports/STM32/LLD/can_lld.h"
 877              		.file 18 "lib/ChibiOS_3.0.2/os/rt/include/chsys.h"
 878              		.file 19 "lib/ChibiOS_3.0.2/os/rt/include/chthreads.h"
 879              		.file 20 "lib/ChibiOS_3.0.2/os/ext/CMSIS/include/core_cm4.h"