ARM GAS  C:\Users\IDONNO~1.SON\AppData\Local\Temp\cc1vbgPC.s 			page 1


   1              		.syntax unified
   2              		.cpu cortex-m4
   3              		.eabi_attribute 27, 1
   4              		.eabi_attribute 28, 1
   5              		.fpu fpv4-sp-d16
   6              		.eabi_attribute 20, 1
   7              		.eabi_attribute 21, 1
   8              		.eabi_attribute 23, 3
   9              		.eabi_attribute 24, 1
  10              		.eabi_attribute 25, 1
  11              		.eabi_attribute 26, 1
  12              		.eabi_attribute 30, 2
  13              		.eabi_attribute 34, 1
  14              		.eabi_attribute 18, 4
  15              		.thumb
  16              		.syntax unified
  17              		.file	"can_lld.c"
  18              		.text
  19              	.Ltext0:
  20              		.cfi_sections	.debug_frame
  21              		.section	.text.can_lld_set_filters,"ax",%progbits
  22              		.align	2
  23              		.p2align 4,,15
  24              		.thumb
  25              		.thumb_func
  26              		.type	can_lld_set_filters, %function
  27              	can_lld_set_filters:
  28              	.LFB256:
  29              		.file 1 "lib/ChibiOS_3.0.2/os/hal/ports/STM32/LLD/can_lld.c"
  30              		.loc 1 77 0
  31              		.cfi_startproc
  32              		@ args = 0, pretend = 0, frame = 0
  33              		@ frame_needed = 0, uses_anonymous_args = 0
  34              	.LVL0:
  35 0000 F0B5     		push	{r4, r5, r6, r7, lr}
  36              		.cfi_def_cfa_offset 20
  37              		.cfi_offset 4, -20
  38              		.cfi_offset 5, -16
  39              		.cfi_offset 6, -12
  40              		.cfi_offset 7, -8
  41              		.cfi_offset 14, -4
  42              		.loc 1 80 0
  43 0002 434C     		ldr	r4, .L22
  44              		.loc 1 83 0
  45 0004 434D     		ldr	r5, .L22+4
  46              		.loc 1 80 0
  47 0006 236C     		ldr	r3, [r4, #64]
  48 0008 43F00073 		orr	r3, r3, #33554432
  49 000c 2364     		str	r3, [r4, #64]
  50              		.loc 1 83 0
  51 000e D5F80032 		ldr	r3, [r5, #512]
  52 0012 1B0C     		lsrs	r3, r3, #16
  53 0014 1B04     		lsls	r3, r3, #16
  54 0016 43F00103 		orr	r3, r3, #1
  55 001a 43EA0023 		orr	r3, r3, r0, lsl #8
  56 001e C5F80032 		str	r3, [r5, #512]
  57              		.loc 1 84 0
ARM GAS  C:\Users\IDONNO~1.SON\AppData\Local\Temp\cc1vbgPC.s 			page 2


  58 0022 0029     		cmp	r1, #0
  59 0024 5AD0     		beq	.L2
  60              	.LBB266:
  61              		.loc 1 88 0
  62 0026 0023     		movs	r3, #0
  63 0028 C5F81C32 		str	r3, [r5, #540]
  64              		.loc 1 92 0
  65 002c 1846     		mov	r0, r3
  66              	.LVL1:
  67              		.loc 1 89 0
  68 002e C5F80432 		str	r3, [r5, #516]
  69              		.loc 1 93 0
  70 0032 1C46     		mov	r4, r3
  71              		.loc 1 90 0
  72 0034 C5F80C32 		str	r3, [r5, #524]
  73              		.loc 1 91 0
  74 0038 C5F81432 		str	r3, [r5, #532]
  75              	.LVL2:
  76              	.L3:
  77 003c C300     		lsls	r3, r0, #3
  78 003e 03F18043 		add	r3, r3, #1073741824
  79 0042 03F5C843 		add	r3, r3, #25600
  80              		.loc 1 92 0 discriminator 3
  81 0046 0130     		adds	r0, r0, #1
  82              	.LVL3:
  83 0048 1C28     		cmp	r0, #28
  84              		.loc 1 93 0 discriminator 3
  85 004a C3F84042 		str	r4, [r3, #576]
  86              		.loc 1 94 0 discriminator 3
  87 004e C3F84442 		str	r4, [r3, #580]
  88              		.loc 1 92 0 discriminator 3
  89 0052 F3D1     		bne	.L3
  90              		.loc 1 101 0
  91 0054 2F4D     		ldr	r5, .L22+4
  92 0056 0026     		movs	r6, #0
  93              		.loc 1 99 0
  94 0058 0127     		movs	r7, #1
  95              	.LVL4:
  96              	.L7:
  97 005a 1068     		ldr	r0, [r2]
  98              		.loc 1 100 0
  99 005c 1479     		ldrb	r4, [r2, #4]	@ zero_extendqisi2
 100 005e C300     		lsls	r3, r0, #3
 101 0060 03F18043 		add	r3, r3, #1073741824
 102 0064 14F0010F 		tst	r4, #1
 103 0068 03F5C843 		add	r3, r3, #25600
 104              		.loc 1 98 0
 105 006c 06F10106 		add	r6, r6, #1
 106              	.LVL5:
 107              		.loc 1 99 0
 108 0070 07FA00F0 		lsl	r0, r7, r0
 109              	.LVL6:
 110              		.loc 1 100 0
 111 0074 05D0     		beq	.L4
 112              		.loc 1 101 0
 113 0076 D5F804E2 		ldr	lr, [r5, #516]
 114 007a 40EA0E0E 		orr	lr, r0, lr
ARM GAS  C:\Users\IDONNO~1.SON\AppData\Local\Temp\cc1vbgPC.s 			page 3


 115 007e C5F804E2 		str	lr, [r5, #516]
 116              	.L4:
 117              		.loc 1 102 0
 118 0082 14F0020F 		tst	r4, #2
 119 0086 05D0     		beq	.L5
 120              		.loc 1 103 0
 121 0088 D5F80CE2 		ldr	lr, [r5, #524]
 122 008c 40EA0E0E 		orr	lr, r0, lr
 123 0090 C5F80CE2 		str	lr, [r5, #524]
 124              	.L5:
 125              		.loc 1 104 0
 126 0094 6407     		lsls	r4, r4, #29
 127 0096 04D5     		bpl	.L6
 128              		.loc 1 105 0
 129 0098 D5F81442 		ldr	r4, [r5, #532]
 130 009c 0443     		orrs	r4, r4, r0
 131 009e C5F81442 		str	r4, [r5, #532]
 132              	.L6:
 133              		.loc 1 106 0 discriminator 2
 134 00a2 9468     		ldr	r4, [r2, #8]
 135 00a4 C3F84042 		str	r4, [r3, #576]
 136              		.loc 1 107 0 discriminator 2
 137 00a8 D468     		ldr	r4, [r2, #12]
 138 00aa C3F84442 		str	r4, [r3, #580]
 139              		.loc 1 108 0 discriminator 2
 140 00ae D5F81C32 		ldr	r3, [r5, #540]
 141              		.loc 1 98 0 discriminator 2
 142 00b2 B142     		cmp	r1, r6
 143              		.loc 1 108 0 discriminator 2
 144 00b4 40EA0300 		orr	r0, r0, r3
 145              	.LVL7:
 146              		.loc 1 109 0 discriminator 2
 147 00b8 02F11002 		add	r2, r2, #16
 148              	.LVL8:
 149              		.loc 1 108 0 discriminator 2
 150 00bc C5F81C02 		str	r0, [r5, #540]
 151              		.loc 1 98 0 discriminator 2
 152 00c0 CBD1     		bne	.L7
 153              	.LVL9:
 154              	.L8:
 155              	.LBE266:
 156              		.loc 1 131 0
 157 00c2 1449     		ldr	r1, .L22+4
 158              	.LVL10:
 159              		.loc 1 134 0
 160 00c4 124A     		ldr	r2, .L22
 161              		.loc 1 131 0
 162 00c6 D1F80032 		ldr	r3, [r1, #512]
 163 00ca 23F00103 		bic	r3, r3, #1
 164 00ce C1F80032 		str	r3, [r1, #512]
 165              		.loc 1 134 0
 166 00d2 136C     		ldr	r3, [r2, #64]
 167 00d4 23F00073 		bic	r3, r3, #33554432
 168 00d8 1364     		str	r3, [r2, #64]
 169 00da F0BD     		pop	{r4, r5, r6, r7, pc}
 170              	.LVL11:
 171              	.L2:
ARM GAS  C:\Users\IDONNO~1.SON\AppData\Local\Temp\cc1vbgPC.s 			page 4


 172 00dc C200     		lsls	r2, r0, #3
 173              	.LVL12:
 174 00de 02F18042 		add	r2, r2, #1073741824
 175              		.loc 1 124 0
 176 00e2 0123     		movs	r3, #1
 177 00e4 02F5C842 		add	r2, r2, #25600
 178 00e8 8340     		lsls	r3, r3, r0
 179 00ea 43F00103 		orr	r3, r3, #1
 180              		.loc 1 115 0
 181 00ee C5F84012 		str	r1, [r5, #576]
 182              		.loc 1 116 0
 183 00f2 C5F84412 		str	r1, [r5, #580]
 184              		.loc 1 118 0
 185 00f6 C2F84012 		str	r1, [r2, #576]
 186              		.loc 1 119 0
 187 00fa C2F84412 		str	r1, [r2, #580]
 188              		.loc 1 121 0
 189 00fe C5F80412 		str	r1, [r5, #516]
 190              		.loc 1 122 0
 191 0102 C5F81412 		str	r1, [r5, #532]
 192              		.loc 1 124 0
 193 0106 C5F80C32 		str	r3, [r5, #524]
 194              		.loc 1 125 0
 195 010a C5F81C32 		str	r3, [r5, #540]
 196 010e D8E7     		b	.L8
 197              	.L23:
 198              		.align	2
 199              	.L22:
 200 0110 00380240 		.word	1073887232
 201 0114 00640040 		.word	1073767424
 202              		.cfi_endproc
 203              	.LFE256:
 204              		.size	can_lld_set_filters, .-can_lld_set_filters
 205              		.section	.text.Vector8C,"ax",%progbits
 206              		.align	2
 207              		.p2align 4,,15
 208              		.global	Vector8C
 209              		.thumb
 210              		.thumb_func
 211              		.type	Vector8C, %function
 212              	Vector8C:
 213              	.LFB261:
 214              		.loc 1 292 0
 215              		.cfi_startproc
 216              		@ args = 0, pretend = 0, frame = 0
 217              		@ frame_needed = 0, uses_anonymous_args = 0
 218              	.LVL13:
 219 0000 10B5     		push	{r4, lr}
 220              		.cfi_def_cfa_offset 8
 221              		.cfi_offset 4, -8
 222              		.cfi_offset 14, -4
 223              	.LBB285:
 224              	.LBB286:
 225              		.loc 1 147 0
 226 0002 0C4C     		ldr	r4, .L26
 227 0004 0C49     		ldr	r1, .L26+4
 228 0006 E26A     		ldr	r2, [r4, #44]
ARM GAS  C:\Users\IDONNO~1.SON\AppData\Local\Temp\cc1vbgPC.s 			page 5


 229              	.LBB287:
 230              	.LBB288:
 231              	.LBB289:
 232              	.LBB290:
 233              	.LBB291:
 234              	.LBB292:
 235              		.file 2 "lib/ChibiOS_3.0.2/os/ext/CMSIS/include/core_cmFunc.h"
 236              		.loc 2 546 0
 237 0008 2023     		movs	r3, #32
 238              	.LBE292:
 239              	.LBE291:
 240              	.LBE290:
 241              	.LBE289:
 242              	.LBE288:
 243              	.LBE287:
 244              		.loc 1 147 0
 245 000a 9160     		str	r1, [r2, #8]
 246              	.LVL14:
 247              	.LBB298:
 248              	.LBB297:
 249              	.LBB296:
 250              	.LBB295:
 251              	.LBB294:
 252              	.LBB293:
 253              		.loc 2 546 0
 254              		.syntax unified
 255              	@ 546 "lib/ChibiOS_3.0.2/os/ext/CMSIS/include/core_cmFunc.h" 1
 256 000c 83F31188 		MSR basepri, r3
 257              	@ 0 "" 2
 258              	.LVL15:
 259              		.thumb
 260              		.syntax unified
 261              	.LBE293:
 262              	.LBE294:
 263              	.LBE295:
 264              	.LBE296:
 265              	.LBE297:
 266              	.LBE298:
 267              	.LBB299:
 268              	.LBB300:
 269              		.file 3 "lib/ChibiOS_3.0.2/os/hal/osal/rt/osal.h"
 270              		.loc 3 810 0
 271 0010 0021     		movs	r1, #0
 272 0012 04F10800 		add	r0, r4, #8
 273 0016 FFF7FEFF 		bl	chThdDequeueAllI
 274              	.LVL16:
 275              	.LBE300:
 276              	.LBE299:
 277              	.LBB301:
 278              	.LBB302:
 279              		.loc 3 844 0
 280 001a 04F11C00 		add	r0, r4, #28
 281 001e 0121     		movs	r1, #1
 282 0020 FFF7FEFF 		bl	chEvtBroadcastFlagsI
 283              	.LVL17:
 284              	.LBE302:
 285              	.LBE301:
ARM GAS  C:\Users\IDONNO~1.SON\AppData\Local\Temp\cc1vbgPC.s 			page 6


 286              	.LBB303:
 287              	.LBB304:
 288              	.LBB305:
 289              	.LBB306:
 290              	.LBB307:
 291              	.LBB308:
 292              		.loc 2 546 0
 293 0024 0023     		movs	r3, #0
 294              		.syntax unified
 295              	@ 546 "lib/ChibiOS_3.0.2/os/ext/CMSIS/include/core_cmFunc.h" 1
 296 0026 83F31188 		MSR basepri, r3
 297              	@ 0 "" 2
 298              	.LVL18:
 299              		.thumb
 300              		.syntax unified
 301              	.LBE308:
 302              	.LBE307:
 303              	.LBE306:
 304              	.LBE305:
 305              	.LBE304:
 306              	.LBE303:
 307              	.LBE286:
 308              	.LBE285:
 309              		.loc 1 299 0
 310 002a BDE81040 		pop	{r4, lr}
 311              		.cfi_restore 14
 312              		.cfi_restore 4
 313              		.cfi_def_cfa_offset 0
 314              		.loc 1 298 0
 315 002e FFF7FEBF 		b	_port_irq_epilogue
 316              	.LVL19:
 317              	.L27:
 318 0032 00BF     		.align	2
 319              	.L26:
 320 0034 00000000 		.word	.LANCHOR0
 321 0038 01010100 		.word	65793
 322              		.cfi_endproc
 323              	.LFE261:
 324              		.size	Vector8C, .-Vector8C
 325              		.section	.text.Vector90,"ax",%progbits
 326              		.align	2
 327              		.p2align 4,,15
 328              		.global	Vector90
 329              		.thumb
 330              		.thumb_func
 331              		.type	Vector90, %function
 332              	Vector90:
 333              	.LFB262:
 334              		.loc 1 306 0
 335              		.cfi_startproc
 336              		@ args = 0, pretend = 0, frame = 0
 337              		@ frame_needed = 0, uses_anonymous_args = 0
 338              	.LVL20:
 339 0000 38B5     		push	{r3, r4, r5, lr}
 340              		.cfi_def_cfa_offset 16
 341              		.cfi_offset 3, -16
 342              		.cfi_offset 4, -12
ARM GAS  C:\Users\IDONNO~1.SON\AppData\Local\Temp\cc1vbgPC.s 			page 7


 343              		.cfi_offset 5, -8
 344              		.cfi_offset 14, -4
 345              	.LBB341:
 346              	.LBB342:
 347              		.loc 1 164 0
 348 0002 164D     		ldr	r5, .L39
 349 0004 EB6A     		ldr	r3, [r5, #44]
 350 0006 DC68     		ldr	r4, [r3, #12]
 351              	.LVL21:
 352              		.loc 1 165 0
 353 0008 A207     		lsls	r2, r4, #30
 354 000a 11D1     		bne	.L38
 355              	.L29:
 356              		.loc 1 173 0
 357 000c E306     		lsls	r3, r4, #27
 358 000e 0BD5     		bpl	.L30
 359              		.loc 1 175 0
 360 0010 EB6A     		ldr	r3, [r5, #44]
 361 0012 1021     		movs	r1, #16
 362 0014 D960     		str	r1, [r3, #12]
 363              	.LVL22:
 364              	.LBB343:
 365              	.LBB344:
 366              	.LBB345:
 367              	.LBB346:
 368              	.LBB347:
 369              	.LBB348:
 370              		.loc 2 546 0
 371 0016 2023     		movs	r3, #32
 372              		.syntax unified
 373              	@ 546 "lib/ChibiOS_3.0.2/os/ext/CMSIS/include/core_cmFunc.h" 1
 374 0018 83F31188 		MSR basepri, r3
 375              	@ 0 "" 2
 376              	.LVL23:
 377              		.thumb
 378              		.syntax unified
 379              	.LBE348:
 380              	.LBE347:
 381              	.LBE346:
 382              	.LBE345:
 383              	.LBE344:
 384              	.LBE343:
 385              	.LBB349:
 386              	.LBB350:
 387              		.loc 3 844 0
 388 001c 1048     		ldr	r0, .L39+4
 389 001e FFF7FEFF 		bl	chEvtBroadcastFlagsI
 390              	.LVL24:
 391              	.LBE350:
 392              	.LBE349:
 393              	.LBB351:
 394              	.LBB352:
 395              	.LBB353:
 396              	.LBB354:
 397              	.LBB355:
 398              	.LBB356:
 399              		.loc 2 546 0
ARM GAS  C:\Users\IDONNO~1.SON\AppData\Local\Temp\cc1vbgPC.s 			page 8


 400 0022 0023     		movs	r3, #0
 401              		.syntax unified
 402              	@ 546 "lib/ChibiOS_3.0.2/os/ext/CMSIS/include/core_cmFunc.h" 1
 403 0024 83F31188 		MSR basepri, r3
 404              	@ 0 "" 2
 405              	.LVL25:
 406              		.thumb
 407              		.syntax unified
 408              	.L30:
 409              	.LBE356:
 410              	.LBE355:
 411              	.LBE354:
 412              	.LBE353:
 413              	.LBE352:
 414              	.LBE351:
 415              	.LBE342:
 416              	.LBE341:
 417              		.loc 1 313 0
 418 0028 BDE83840 		pop	{r3, r4, r5, lr}
 419              		.cfi_remember_state
 420              		.cfi_restore 14
 421              		.cfi_restore 5
 422              		.cfi_restore 4
 423              		.cfi_restore 3
 424              		.cfi_def_cfa_offset 0
 425              		.loc 1 312 0
 426 002c FFF7FEBF 		b	_port_irq_epilogue
 427              	.LVL26:
 428              	.L38:
 429              		.cfi_restore_state
 430              	.LBB374:
 431              	.LBB373:
 432              		.loc 1 167 0
 433 0030 5A69     		ldr	r2, [r3, #20]
 434 0032 22F00202 		bic	r2, r2, #2
 435 0036 5A61     		str	r2, [r3, #20]
 436              	.LVL27:
 437              	.LBB357:
 438              	.LBB358:
 439              	.LBB359:
 440              	.LBB360:
 441              	.LBB361:
 442              	.LBB362:
 443              		.loc 2 546 0
 444 0038 2023     		movs	r3, #32
 445              		.syntax unified
 446              	@ 546 "lib/ChibiOS_3.0.2/os/ext/CMSIS/include/core_cmFunc.h" 1
 447 003a 83F31188 		MSR basepri, r3
 448              	@ 0 "" 2
 449              	.LVL28:
 450              		.thumb
 451              		.syntax unified
 452              	.LBE362:
 453              	.LBE361:
 454              	.LBE360:
 455              	.LBE359:
 456              	.LBE358:
ARM GAS  C:\Users\IDONNO~1.SON\AppData\Local\Temp\cc1vbgPC.s 			page 9


 457              	.LBE357:
 458              	.LBB363:
 459              	.LBB364:
 460              		.loc 3 810 0
 461 003e 0021     		movs	r1, #0
 462 0040 05F11000 		add	r0, r5, #16
 463 0044 FFF7FEFF 		bl	chThdDequeueAllI
 464              	.LVL29:
 465              	.LBE364:
 466              	.LBE363:
 467              	.LBB365:
 468              	.LBB366:
 469              		.loc 3 844 0
 470 0048 05F11800 		add	r0, r5, #24
 471 004c 0121     		movs	r1, #1
 472 004e FFF7FEFF 		bl	chEvtBroadcastFlagsI
 473              	.LVL30:
 474              	.LBE366:
 475              	.LBE365:
 476              	.LBB367:
 477              	.LBB368:
 478              	.LBB369:
 479              	.LBB370:
 480              	.LBB371:
 481              	.LBB372:
 482              		.loc 2 546 0
 483 0052 0023     		movs	r3, #0
 484              		.syntax unified
 485              	@ 546 "lib/ChibiOS_3.0.2/os/ext/CMSIS/include/core_cmFunc.h" 1
 486 0054 83F31188 		MSR basepri, r3
 487              	@ 0 "" 2
 488              	.LVL31:
 489              		.thumb
 490              		.syntax unified
 491 0058 D8E7     		b	.L29
 492              	.L40:
 493 005a 00BF     		.align	2
 494              	.L39:
 495 005c 00000000 		.word	.LANCHOR0
 496 0060 20000000 		.word	.LANCHOR0+32
 497              	.LBE372:
 498              	.LBE371:
 499              	.LBE370:
 500              	.LBE369:
 501              	.LBE368:
 502              	.LBE367:
 503              	.LBE373:
 504              	.LBE374:
 505              		.cfi_endproc
 506              	.LFE262:
 507              		.size	Vector90, .-Vector90
 508              		.section	.text.Vector94,"ax",%progbits
 509              		.align	2
 510              		.p2align 4,,15
 511              		.global	Vector94
 512              		.thumb
 513              		.thumb_func
ARM GAS  C:\Users\IDONNO~1.SON\AppData\Local\Temp\cc1vbgPC.s 			page 10


 514              		.type	Vector94, %function
 515              	Vector94:
 516              	.LFB263:
 517              		.loc 1 320 0
 518              		.cfi_startproc
 519              		@ args = 0, pretend = 0, frame = 0
 520              		@ frame_needed = 0, uses_anonymous_args = 0
 521              	.LVL32:
 522 0000 38B5     		push	{r3, r4, r5, lr}
 523              		.cfi_def_cfa_offset 16
 524              		.cfi_offset 3, -16
 525              		.cfi_offset 4, -12
 526              		.cfi_offset 5, -8
 527              		.cfi_offset 14, -4
 528              	.LBB407:
 529              	.LBB408:
 530              		.loc 1 192 0
 531 0002 164D     		ldr	r5, .L52
 532 0004 EB6A     		ldr	r3, [r5, #44]
 533 0006 1C69     		ldr	r4, [r3, #16]
 534              	.LVL33:
 535              		.loc 1 193 0
 536 0008 A207     		lsls	r2, r4, #30
 537 000a 11D1     		bne	.L51
 538              	.L42:
 539              		.loc 1 201 0
 540 000c E306     		lsls	r3, r4, #27
 541 000e 0BD5     		bpl	.L43
 542              		.loc 1 203 0
 543 0010 EB6A     		ldr	r3, [r5, #44]
 544 0012 1021     		movs	r1, #16
 545 0014 1961     		str	r1, [r3, #16]
 546              	.LVL34:
 547              	.LBB409:
 548              	.LBB410:
 549              	.LBB411:
 550              	.LBB412:
 551              	.LBB413:
 552              	.LBB414:
 553              		.loc 2 546 0
 554 0016 2023     		movs	r3, #32
 555              		.syntax unified
 556              	@ 546 "lib/ChibiOS_3.0.2/os/ext/CMSIS/include/core_cmFunc.h" 1
 557 0018 83F31188 		MSR basepri, r3
 558              	@ 0 "" 2
 559              	.LVL35:
 560              		.thumb
 561              		.syntax unified
 562              	.LBE414:
 563              	.LBE413:
 564              	.LBE412:
 565              	.LBE411:
 566              	.LBE410:
 567              	.LBE409:
 568              	.LBB415:
 569              	.LBB416:
 570              		.loc 3 844 0
ARM GAS  C:\Users\IDONNO~1.SON\AppData\Local\Temp\cc1vbgPC.s 			page 11


 571 001c 1048     		ldr	r0, .L52+4
 572 001e FFF7FEFF 		bl	chEvtBroadcastFlagsI
 573              	.LVL36:
 574              	.LBE416:
 575              	.LBE415:
 576              	.LBB417:
 577              	.LBB418:
 578              	.LBB419:
 579              	.LBB420:
 580              	.LBB421:
 581              	.LBB422:
 582              		.loc 2 546 0
 583 0022 0023     		movs	r3, #0
 584              		.syntax unified
 585              	@ 546 "lib/ChibiOS_3.0.2/os/ext/CMSIS/include/core_cmFunc.h" 1
 586 0024 83F31188 		MSR basepri, r3
 587              	@ 0 "" 2
 588              	.LVL37:
 589              		.thumb
 590              		.syntax unified
 591              	.L43:
 592              	.LBE422:
 593              	.LBE421:
 594              	.LBE420:
 595              	.LBE419:
 596              	.LBE418:
 597              	.LBE417:
 598              	.LBE408:
 599              	.LBE407:
 600              		.loc 1 327 0
 601 0028 BDE83840 		pop	{r3, r4, r5, lr}
 602              		.cfi_remember_state
 603              		.cfi_restore 14
 604              		.cfi_restore 5
 605              		.cfi_restore 4
 606              		.cfi_restore 3
 607              		.cfi_def_cfa_offset 0
 608              		.loc 1 326 0
 609 002c FFF7FEBF 		b	_port_irq_epilogue
 610              	.LVL38:
 611              	.L51:
 612              		.cfi_restore_state
 613              	.LBB440:
 614              	.LBB439:
 615              		.loc 1 195 0
 616 0030 5A69     		ldr	r2, [r3, #20]
 617 0032 22F01002 		bic	r2, r2, #16
 618 0036 5A61     		str	r2, [r3, #20]
 619              	.LVL39:
 620              	.LBB423:
 621              	.LBB424:
 622              	.LBB425:
 623              	.LBB426:
 624              	.LBB427:
 625              	.LBB428:
 626              		.loc 2 546 0
 627 0038 2023     		movs	r3, #32
ARM GAS  C:\Users\IDONNO~1.SON\AppData\Local\Temp\cc1vbgPC.s 			page 12


 628              		.syntax unified
 629              	@ 546 "lib/ChibiOS_3.0.2/os/ext/CMSIS/include/core_cmFunc.h" 1
 630 003a 83F31188 		MSR basepri, r3
 631              	@ 0 "" 2
 632              	.LVL40:
 633              		.thumb
 634              		.syntax unified
 635              	.LBE428:
 636              	.LBE427:
 637              	.LBE426:
 638              	.LBE425:
 639              	.LBE424:
 640              	.LBE423:
 641              	.LBB429:
 642              	.LBB430:
 643              		.loc 3 810 0
 644 003e 0021     		movs	r1, #0
 645 0040 05F11000 		add	r0, r5, #16
 646 0044 FFF7FEFF 		bl	chThdDequeueAllI
 647              	.LVL41:
 648              	.LBE430:
 649              	.LBE429:
 650              	.LBB431:
 651              	.LBB432:
 652              		.loc 3 844 0
 653 0048 05F11800 		add	r0, r5, #24
 654 004c 0221     		movs	r1, #2
 655 004e FFF7FEFF 		bl	chEvtBroadcastFlagsI
 656              	.LVL42:
 657              	.LBE432:
 658              	.LBE431:
 659              	.LBB433:
 660              	.LBB434:
 661              	.LBB435:
 662              	.LBB436:
 663              	.LBB437:
 664              	.LBB438:
 665              		.loc 2 546 0
 666 0052 0023     		movs	r3, #0
 667              		.syntax unified
 668              	@ 546 "lib/ChibiOS_3.0.2/os/ext/CMSIS/include/core_cmFunc.h" 1
 669 0054 83F31188 		MSR basepri, r3
 670              	@ 0 "" 2
 671              	.LVL43:
 672              		.thumb
 673              		.syntax unified
 674 0058 D8E7     		b	.L42
 675              	.L53:
 676 005a 00BF     		.align	2
 677              	.L52:
 678 005c 00000000 		.word	.LANCHOR0
 679 0060 20000000 		.word	.LANCHOR0+32
 680              	.LBE438:
 681              	.LBE437:
 682              	.LBE436:
 683              	.LBE435:
 684              	.LBE434:
ARM GAS  C:\Users\IDONNO~1.SON\AppData\Local\Temp\cc1vbgPC.s 			page 13


 685              	.LBE433:
 686              	.LBE439:
 687              	.LBE440:
 688              		.cfi_endproc
 689              	.LFE263:
 690              		.size	Vector94, .-Vector94
 691              		.section	.text.Vector98,"ax",%progbits
 692              		.align	2
 693              		.p2align 4,,15
 694              		.global	Vector98
 695              		.thumb
 696              		.thumb_func
 697              		.type	Vector98, %function
 698              	Vector98:
 699              	.LFB264:
 700              		.loc 1 334 0
 701              		.cfi_startproc
 702              		@ args = 0, pretend = 0, frame = 0
 703              		@ frame_needed = 0, uses_anonymous_args = 0
 704              	.LVL44:
 705 0000 38B5     		push	{r3, r4, r5, lr}
 706              		.cfi_def_cfa_offset 16
 707              		.cfi_offset 3, -16
 708              		.cfi_offset 4, -12
 709              		.cfi_offset 5, -8
 710              		.cfi_offset 14, -4
 711              	.LBB472:
 712              	.LBB473:
 713              		.loc 1 220 0
 714 0002 1B4D     		ldr	r5, .L69
 715 0004 EB6A     		ldr	r3, [r5, #44]
 716 0006 5C68     		ldr	r4, [r3, #4]
 717              	.LVL45:
 718              		.loc 1 221 0
 719 0008 1C22     		movs	r2, #28
 720 000a 5A60     		str	r2, [r3, #4]
 721              		.loc 1 224 0
 722 000c 2207     		lsls	r2, r4, #28
 723 000e 1DD4     		bmi	.L68
 724              	.L55:
 725              		.loc 1 233 0
 726 0010 6307     		lsls	r3, r4, #29
 727 0012 17D5     		bpl	.L56
 728              	.LBB474:
 729              		.loc 1 235 0
 730 0014 EA6A     		ldr	r2, [r5, #44]
 731 0016 9369     		ldr	r3, [r2, #24]
 732              	.LVL46:
 733              		.loc 1 237 0
 734 0018 9169     		ldr	r1, [r2, #24]
 735 001a 21F07001 		bic	r1, r1, #112
 736 001e 9161     		str	r1, [r2, #24]
 737              		.loc 1 239 0
 738 0020 13F0700F 		tst	r3, #112
 739              		.loc 1 238 0
 740 0024 03F00701 		and	r1, r3, #7
 741              	.LVL47:
ARM GAS  C:\Users\IDONNO~1.SON\AppData\Local\Temp\cc1vbgPC.s 			page 14


 742              		.loc 1 240 0
 743 0028 18BF     		it	ne
 744 002a 41F00801 		orrne	r1, r1, #8
 745              	.LVL48:
 746              	.LBB475:
 747              	.LBB476:
 748              	.LBB477:
 749              	.LBB478:
 750              	.LBB479:
 751              	.LBB480:
 752              		.loc 2 546 0
 753 002e 2022     		movs	r2, #32
 754              		.syntax unified
 755              	@ 546 "lib/ChibiOS_3.0.2/os/ext/CMSIS/include/core_cmFunc.h" 1
 756 0030 82F31188 		MSR basepri, r2
 757              	@ 0 "" 2
 758              	.LVL49:
 759              		.thumb
 760              		.syntax unified
 761              	.LBE480:
 762              	.LBE479:
 763              	.LBE478:
 764              	.LBE477:
 765              	.LBE476:
 766              	.LBE475:
 767              	.LBB481:
 768              	.LBB482:
 769              		.loc 3 844 0
 770 0034 0F48     		ldr	r0, .L69+4
 771 0036 41EA0341 		orr	r1, r1, r3, lsl #16
 772              	.LVL50:
 773 003a FFF7FEFF 		bl	chEvtBroadcastFlagsI
 774              	.LVL51:
 775              	.LBE482:
 776              	.LBE481:
 777              	.LBB483:
 778              	.LBB484:
 779              	.LBB485:
 780              	.LBB486:
 781              	.LBB487:
 782              	.LBB488:
 783              		.loc 2 546 0
 784 003e 0023     		movs	r3, #0
 785              		.syntax unified
 786              	@ 546 "lib/ChibiOS_3.0.2/os/ext/CMSIS/include/core_cmFunc.h" 1
 787 0040 83F31188 		MSR basepri, r3
 788              	@ 0 "" 2
 789              	.LVL52:
 790              		.thumb
 791              		.syntax unified
 792              	.L56:
 793              	.LBE488:
 794              	.LBE487:
 795              	.LBE486:
 796              	.LBE485:
 797              	.LBE484:
 798              	.LBE483:
ARM GAS  C:\Users\IDONNO~1.SON\AppData\Local\Temp\cc1vbgPC.s 			page 15


 799              	.LBE474:
 800              	.LBE473:
 801              	.LBE472:
 802              		.loc 1 341 0
 803 0044 BDE83840 		pop	{r3, r4, r5, lr}
 804              		.cfi_remember_state
 805              		.cfi_restore 14
 806              		.cfi_restore 5
 807              		.cfi_restore 4
 808              		.cfi_restore 3
 809              		.cfi_def_cfa_offset 0
 810              		.loc 1 340 0
 811 0048 FFF7FEBF 		b	_port_irq_epilogue
 812              	.LVL53:
 813              	.L68:
 814              		.cfi_restore_state
 815              	.LBB510:
 816              	.LBB509:
 817              		.loc 1 226 0
 818 004c 1A68     		ldr	r2, [r3]
 819              		.loc 1 225 0
 820 004e 2846     		mov	r0, r5
 821              		.loc 1 226 0
 822 0050 22F00202 		bic	r2, r2, #2
 823              		.loc 1 225 0
 824 0054 0321     		movs	r1, #3
 825 0056 00F8281B 		strb	r1, [r0], #40
 826              	.LBB489:
 827              	.LBB490:
 828              	.LBB491:
 829              	.LBB492:
 830              	.LBB493:
 831              	.LBB494:
 832              		.loc 2 546 0
 833 005a 2021     		movs	r1, #32
 834              	.LBE494:
 835              	.LBE493:
 836              	.LBE492:
 837              	.LBE491:
 838              	.LBE490:
 839              	.LBE489:
 840              		.loc 1 226 0
 841 005c 1A60     		str	r2, [r3]
 842              	.LVL54:
 843              	.LBB500:
 844              	.LBB499:
 845              	.LBB498:
 846              	.LBB497:
 847              	.LBB496:
 848              	.LBB495:
 849              		.loc 2 546 0
 850              		.syntax unified
 851              	@ 546 "lib/ChibiOS_3.0.2/os/ext/CMSIS/include/core_cmFunc.h" 1
 852 005e 81F31188 		MSR basepri, r1
 853              	@ 0 "" 2
 854              	.LVL55:
 855              		.thumb
ARM GAS  C:\Users\IDONNO~1.SON\AppData\Local\Temp\cc1vbgPC.s 			page 16


 856              		.syntax unified
 857              	.LBE495:
 858              	.LBE496:
 859              	.LBE497:
 860              	.LBE498:
 861              	.LBE499:
 862              	.LBE500:
 863              	.LBB501:
 864              	.LBB502:
 865              		.loc 3 844 0
 866 0062 0021     		movs	r1, #0
 867 0064 FFF7FEFF 		bl	chEvtBroadcastFlagsI
 868              	.LVL56:
 869              	.LBE502:
 870              	.LBE501:
 871              	.LBB503:
 872              	.LBB504:
 873              	.LBB505:
 874              	.LBB506:
 875              	.LBB507:
 876              	.LBB508:
 877              		.loc 2 546 0
 878 0068 0023     		movs	r3, #0
 879              		.syntax unified
 880              	@ 546 "lib/ChibiOS_3.0.2/os/ext/CMSIS/include/core_cmFunc.h" 1
 881 006a 83F31188 		MSR basepri, r3
 882              	@ 0 "" 2
 883              	.LVL57:
 884              		.thumb
 885              		.syntax unified
 886 006e CFE7     		b	.L55
 887              	.L70:
 888              		.align	2
 889              	.L69:
 890 0070 00000000 		.word	.LANCHOR0
 891 0074 20000000 		.word	.LANCHOR0+32
 892              	.LBE508:
 893              	.LBE507:
 894              	.LBE506:
 895              	.LBE505:
 896              	.LBE504:
 897              	.LBE503:
 898              	.LBE509:
 899              	.LBE510:
 900              		.cfi_endproc
 901              	.LFE264:
 902              		.size	Vector98, .-Vector98
 903              		.section	.text.can_lld_init,"ax",%progbits
 904              		.align	2
 905              		.p2align 4,,15
 906              		.global	can_lld_init
 907              		.thumb
 908              		.thumb_func
 909              		.type	can_lld_init, %function
 910              	can_lld_init:
 911              	.LFB265:
 912              		.loc 1 445 0
ARM GAS  C:\Users\IDONNO~1.SON\AppData\Local\Temp\cc1vbgPC.s 			page 17


 913              		.cfi_startproc
 914              		@ args = 0, pretend = 0, frame = 0
 915              		@ frame_needed = 0, uses_anonymous_args = 0
 916 0000 10B5     		push	{r4, lr}
 917              		.cfi_def_cfa_offset 8
 918              		.cfi_offset 4, -8
 919              		.cfi_offset 14, -4
 920              		.loc 1 449 0
 921 0002 064C     		ldr	r4, .L73
 922 0004 2046     		mov	r0, r4
 923 0006 FFF7FEFF 		bl	canObjectInit
 924              	.LVL58:
 925              		.loc 1 460 0
 926 000a 0022     		movs	r2, #0
 927              		.loc 1 450 0
 928 000c 044B     		ldr	r3, .L73+4
 929 000e E362     		str	r3, [r4, #44]
 930              		.loc 1 460 0
 931 0010 1146     		mov	r1, r2
 932 0012 0E20     		movs	r0, #14
 933              		.loc 1 464 0
 934 0014 BDE81040 		pop	{r4, lr}
 935              		.cfi_restore 14
 936              		.cfi_restore 4
 937              		.cfi_def_cfa_offset 0
 938              		.loc 1 460 0
 939 0018 FFF7FEBF 		b	can_lld_set_filters
 940              	.LVL59:
 941              	.L74:
 942              		.align	2
 943              	.L73:
 944 001c 00000000 		.word	.LANCHOR0
 945 0020 00640040 		.word	1073767424
 946              		.cfi_endproc
 947              	.LFE265:
 948              		.size	can_lld_init, .-can_lld_init
 949              		.section	.text.can_lld_start,"ax",%progbits
 950              		.align	2
 951              		.p2align 4,,15
 952              		.global	can_lld_start
 953              		.thumb
 954              		.thumb_func
 955              		.type	can_lld_start, %function
 956              	can_lld_start:
 957              	.LFB266:
 958              		.loc 1 473 0
 959              		.cfi_startproc
 960              		@ args = 0, pretend = 0, frame = 0
 961              		@ frame_needed = 0, uses_anonymous_args = 0
 962              	.LVL60:
 963              		.loc 1 477 0
 964 0000 184B     		ldr	r3, .L83
 965 0002 9842     		cmp	r0, r3
 966              		.loc 1 473 0
 967 0004 10B5     		push	{r4, lr}
 968              		.cfi_def_cfa_offset 8
 969              		.cfi_offset 4, -8
ARM GAS  C:\Users\IDONNO~1.SON\AppData\Local\Temp\cc1vbgPC.s 			page 18


 970              		.cfi_offset 14, -4
 971              		.loc 1 473 0
 972 0006 0446     		mov	r4, r0
 973              		.loc 1 477 0
 974 0008 15D0     		beq	.L82
 975              	.LVL61:
 976              	.L76:
 977              		.loc 1 507 0
 978 000a E36A     		ldr	r3, [r4, #44]
 979 000c 0122     		movs	r2, #1
 980 000e 1A60     		str	r2, [r3]
 981              		.loc 1 508 0
 982 0010 5A68     		ldr	r2, [r3, #4]
 983 0012 D107     		lsls	r1, r2, #31
 984 0014 07D4     		bmi	.L77
 985              	.L78:
 986              	.LVL62:
 987              	.LBB511:
 988              	.LBB512:
 989              	.LBB513:
 990              		.file 4 "lib/ChibiOS_3.0.2/os/rt/include/chthreads.h"
 991              		.loc 4 268 0
 992 0016 0121     		movs	r1, #1
 993 0018 0820     		movs	r0, #8
 994 001a FFF7FEFF 		bl	chSchGoSleepTimeoutS
 995              	.LVL63:
 996              	.LBE513:
 997              	.LBE512:
 998              	.LBE511:
 999              		.loc 1 508 0
 1000 001e E36A     		ldr	r3, [r4, #44]
 1001 0020 5A68     		ldr	r2, [r3, #4]
 1002 0022 D207     		lsls	r2, r2, #31
 1003 0024 F7D5     		bpl	.L78
 1004              	.LVL64:
 1005              	.L77:
 1006              		.loc 1 510 0
 1007 0026 6268     		ldr	r2, [r4, #4]
 1008              		.loc 1 514 0
 1009 0028 0F49     		ldr	r1, .L83+4
 1010              		.loc 1 510 0
 1011 002a 5068     		ldr	r0, [r2, #4]
 1012              		.loc 1 511 0
 1013 002c 1268     		ldr	r2, [r2]
 1014              		.loc 1 510 0
 1015 002e D861     		str	r0, [r3, #28]
 1016              		.loc 1 511 0
 1017 0030 1A60     		str	r2, [r3]
 1018              		.loc 1 514 0
 1019 0032 5961     		str	r1, [r3, #20]
 1020 0034 10BD     		pop	{r4, pc}
 1021              	.LVL65:
 1022              	.L82:
 1023              		.loc 1 481 0
 1024 0036 0B21     		movs	r1, #11
 1025 0038 1320     		movs	r0, #19
 1026              	.LVL66:
ARM GAS  C:\Users\IDONNO~1.SON\AppData\Local\Temp\cc1vbgPC.s 			page 19


 1027 003a FFF7FEFF 		bl	nvicEnableVector
 1028              	.LVL67:
 1029              		.loc 1 482 0
 1030 003e 0B21     		movs	r1, #11
 1031 0040 1420     		movs	r0, #20
 1032 0042 FFF7FEFF 		bl	nvicEnableVector
 1033              	.LVL68:
 1034              		.loc 1 483 0
 1035 0046 0B21     		movs	r1, #11
 1036 0048 1520     		movs	r0, #21
 1037 004a FFF7FEFF 		bl	nvicEnableVector
 1038              	.LVL69:
 1039              		.loc 1 484 0
 1040 004e 0B21     		movs	r1, #11
 1041 0050 1620     		movs	r0, #22
 1042 0052 FFF7FEFF 		bl	nvicEnableVector
 1043              	.LVL70:
 1044              		.loc 1 486 0
 1045 0056 054A     		ldr	r2, .L83+8
 1046 0058 136C     		ldr	r3, [r2, #64]
 1047 005a 43F00073 		orr	r3, r3, #33554432
 1048 005e 1364     		str	r3, [r2, #64]
 1049 0060 D3E7     		b	.L76
 1050              	.L84:
 1051 0062 00BF     		.align	2
 1052              	.L83:
 1053 0064 00000000 		.word	.LANCHOR0
 1054 0068 5B8F0100 		.word	102235
 1055 006c 00380240 		.word	1073887232
 1056              		.cfi_endproc
 1057              	.LFE266:
 1058              		.size	can_lld_start, .-can_lld_start
 1059              		.section	.text.can_lld_stop,"ax",%progbits
 1060              		.align	2
 1061              		.p2align 4,,15
 1062              		.global	can_lld_stop
 1063              		.thumb
 1064              		.thumb_func
 1065              		.type	can_lld_stop, %function
 1066              	can_lld_stop:
 1067              	.LFB267:
 1068              		.loc 1 527 0
 1069              		.cfi_startproc
 1070              		@ args = 0, pretend = 0, frame = 0
 1071              		@ frame_needed = 0, uses_anonymous_args = 0
 1072              	.LVL71:
 1073 0000 08B5     		push	{r3, lr}
 1074              		.cfi_def_cfa_offset 8
 1075              		.cfi_offset 3, -8
 1076              		.cfi_offset 14, -4
 1077              		.loc 1 530 0
 1078 0002 0378     		ldrb	r3, [r0]	@ zero_extendqisi2
 1079 0004 032B     		cmp	r3, #3
 1080 0006 00D0     		beq	.L88
 1081              	.LVL72:
 1082              	.L85:
 1083 0008 08BD     		pop	{r3, pc}
ARM GAS  C:\Users\IDONNO~1.SON\AppData\Local\Temp\cc1vbgPC.s 			page 20


 1084              	.LVL73:
 1085              	.L88:
 1086              		.loc 1 532 0
 1087 000a 0D4B     		ldr	r3, .L89
 1088 000c 9842     		cmp	r0, r3
 1089 000e FBD1     		bne	.L85
 1090              		.loc 1 538 0
 1091 0010 0C4B     		ldr	r3, .L89+4
 1092 0012 0D4A     		ldr	r2, .L89+8
 1093 0014 1A60     		str	r2, [r3]
 1094              		.loc 1 539 0
 1095 0016 0022     		movs	r2, #0
 1096 0018 5A61     		str	r2, [r3, #20]
 1097              		.loc 1 543 0
 1098 001a 1320     		movs	r0, #19
 1099              	.LVL74:
 1100 001c FFF7FEFF 		bl	nvicDisableVector
 1101              	.LVL75:
 1102              		.loc 1 544 0
 1103 0020 1420     		movs	r0, #20
 1104 0022 FFF7FEFF 		bl	nvicDisableVector
 1105              	.LVL76:
 1106              		.loc 1 545 0
 1107 0026 1520     		movs	r0, #21
 1108 0028 FFF7FEFF 		bl	nvicDisableVector
 1109              	.LVL77:
 1110              		.loc 1 546 0
 1111 002c 1620     		movs	r0, #22
 1112 002e FFF7FEFF 		bl	nvicDisableVector
 1113              	.LVL78:
 1114              		.loc 1 548 0
 1115 0032 064A     		ldr	r2, .L89+12
 1116 0034 136C     		ldr	r3, [r2, #64]
 1117 0036 23F00073 		bic	r3, r3, #33554432
 1118 003a 1364     		str	r3, [r2, #64]
 1119              		.loc 1 567 0
 1120 003c E4E7     		b	.L85
 1121              	.L90:
 1122 003e 00BF     		.align	2
 1123              	.L89:
 1124 0040 00000000 		.word	.LANCHOR0
 1125 0044 00640040 		.word	1073767424
 1126 0048 02000100 		.word	65538
 1127 004c 00380240 		.word	1073887232
 1128              		.cfi_endproc
 1129              	.LFE267:
 1130              		.size	can_lld_stop, .-can_lld_stop
 1131              		.section	.text.can_lld_is_tx_empty,"ax",%progbits
 1132              		.align	2
 1133              		.p2align 4,,15
 1134              		.global	can_lld_is_tx_empty
 1135              		.thumb
 1136              		.thumb_func
 1137              		.type	can_lld_is_tx_empty, %function
 1138              	can_lld_is_tx_empty:
 1139              	.LFB268:
 1140              		.loc 1 581 0
ARM GAS  C:\Users\IDONNO~1.SON\AppData\Local\Temp\cc1vbgPC.s 			page 21


 1141              		.cfi_startproc
 1142              		@ args = 0, pretend = 0, frame = 0
 1143              		@ frame_needed = 0, uses_anonymous_args = 0
 1144              		@ link register save eliminated.
 1145              	.LVL79:
 1146              		.loc 1 583 0
 1147 0000 0329     		cmp	r1, #3
 1148 0002 1AD8     		bhi	.L98
 1149 0004 DFE801F0 		tbb	[pc, r1]
 1150              	.L94:
 1151 0008 11       		.byte	(.L93-.L94)/2
 1152 0009 0C       		.byte	(.L95-.L94)/2
 1153 000a 07       		.byte	(.L96-.L94)/2
 1154 000b 02       		.byte	(.L97-.L94)/2
 1155              		.p2align 1
 1156              	.L97:
 1157              		.loc 1 591 0
 1158 000c C36A     		ldr	r3, [r0, #44]
 1159 000e 9868     		ldr	r0, [r3, #8]
 1160              	.LVL80:
 1161 0010 C0F30070 		ubfx	r0, r0, #28, #1
 1162 0014 7047     		bx	lr
 1163              	.LVL81:
 1164              	.L96:
 1165              		.loc 1 589 0
 1166 0016 C36A     		ldr	r3, [r0, #44]
 1167 0018 9868     		ldr	r0, [r3, #8]
 1168              	.LVL82:
 1169 001a C0F3C060 		ubfx	r0, r0, #27, #1
 1170 001e 7047     		bx	lr
 1171              	.LVL83:
 1172              	.L95:
 1173              		.loc 1 587 0
 1174 0020 C36A     		ldr	r3, [r0, #44]
 1175 0022 9868     		ldr	r0, [r3, #8]
 1176              	.LVL84:
 1177 0024 C0F38060 		ubfx	r0, r0, #26, #1
 1178 0028 7047     		bx	lr
 1179              	.LVL85:
 1180              	.L93:
 1181              		.loc 1 585 0
 1182 002a C36A     		ldr	r3, [r0, #44]
 1183 002c 9B68     		ldr	r3, [r3, #8]
 1184 002e 13F0E05F 		tst	r3, #469762048
 1185 0032 14BF     		ite	ne
 1186 0034 0120     		movne	r0, #1
 1187              	.LVL86:
 1188 0036 0020     		moveq	r0, #0
 1189 0038 7047     		bx	lr
 1190              	.LVL87:
 1191              	.L98:
 1192              		.loc 1 593 0
 1193 003a 0020     		movs	r0, #0
 1194              	.LVL88:
 1195              		.loc 1 595 0
 1196 003c 7047     		bx	lr
 1197              		.cfi_endproc
ARM GAS  C:\Users\IDONNO~1.SON\AppData\Local\Temp\cc1vbgPC.s 			page 22


 1198              	.LFE268:
 1199              		.size	can_lld_is_tx_empty, .-can_lld_is_tx_empty
 1200 003e 00BF     		.section	.text.can_lld_transmit,"ax",%progbits
 1201              		.align	2
 1202              		.p2align 4,,15
 1203              		.global	can_lld_transmit
 1204              		.thumb
 1205              		.thumb_func
 1206              		.type	can_lld_transmit, %function
 1207              	can_lld_transmit:
 1208              	.LFB269:
 1209              		.loc 1 608 0
 1210              		.cfi_startproc
 1211              		@ args = 0, pretend = 0, frame = 0
 1212              		@ frame_needed = 0, uses_anonymous_args = 0
 1213              		@ link register save eliminated.
 1214              	.LVL89:
 1215 0000 10B4     		push	{r4}
 1216              		.cfi_def_cfa_offset 4
 1217              		.cfi_offset 4, -4
 1218              		.loc 1 613 0
 1219 0002 0329     		cmp	r1, #3
 1220 0004 1BD8     		bhi	.L99
 1221 0006 DFE801F0 		tbb	[pc, r1]
 1222              	.L102:
 1223 000a 2E       		.byte	(.L101-.L102)/2
 1224 000b 2A       		.byte	(.L103-.L102)/2
 1225 000c 1D       		.byte	(.L104-.L102)/2
 1226 000d 02       		.byte	(.L105-.L102)/2
 1227              		.p2align 1
 1228              	.L105:
 1229              		.loc 1 624 0
 1230 000e C16A     		ldr	r1, [r0, #44]
 1231              	.LVL90:
 1232 0010 01F5D071 		add	r1, r1, #416
 1233              	.LVL91:
 1234              	.L106:
 1235              		.loc 1 631 0
 1236 0014 1078     		ldrb	r0, [r2]	@ zero_extendqisi2
 1237              	.LVL92:
 1238 0016 8406     		lsls	r4, r0, #26
 1239              		.loc 1 632 0
 1240 0018 C0F30013 		ubfx	r3, r0, #4, #1
 1241              		.loc 1 631 0
 1242 001c 1AD5     		bpl	.L107
 1243              	.L110:
 1244              		.loc 1 632 0
 1245 001e 5468     		ldr	r4, [r2, #4]
 1246 0020 5B00     		lsls	r3, r3, #1
 1247 0022 43EAC403 		orr	r3, r3, r4, lsl #3
 1248 0026 43F00403 		orr	r3, r3, #4
 1249              	.LVL93:
 1250              	.L108:
 1251              		.loc 1 636 0
 1252 002a 00F00F00 		and	r0, r0, #15
 1253 002e 4860     		str	r0, [r1, #4]
 1254              		.loc 1 637 0
ARM GAS  C:\Users\IDONNO~1.SON\AppData\Local\Temp\cc1vbgPC.s 			page 23


 1255 0030 9068     		ldr	r0, [r2, #8]
 1256 0032 8860     		str	r0, [r1, #8]
 1257              		.loc 1 638 0
 1258 0034 D268     		ldr	r2, [r2, #12]
 1259              	.LVL94:
 1260 0036 CA60     		str	r2, [r1, #12]
 1261              		.loc 1 639 0
 1262 0038 43F00103 		orr	r3, r3, #1
 1263              	.LVL95:
 1264 003c 0B60     		str	r3, [r1]
 1265              	.LVL96:
 1266              	.L99:
 1267              		.loc 1 640 0
 1268 003e 5DF8044B 		ldr	r4, [sp], #4
 1269              		.cfi_remember_state
 1270              		.cfi_restore 4
 1271              		.cfi_def_cfa_offset 0
 1272 0042 7047     		bx	lr
 1273              	.LVL97:
 1274              	.L104:
 1275              		.cfi_restore_state
 1276              		.loc 1 621 0
 1277 0044 C16A     		ldr	r1, [r0, #44]
 1278              	.LVL98:
 1279              		.loc 1 631 0
 1280 0046 1078     		ldrb	r0, [r2]	@ zero_extendqisi2
 1281              	.LVL99:
 1282 0048 8406     		lsls	r4, r0, #26
 1283              		.loc 1 621 0
 1284 004a 01F5C871 		add	r1, r1, #400
 1285              	.LVL100:
 1286              		.loc 1 632 0
 1287 004e C0F30013 		ubfx	r3, r0, #4, #1
 1288              		.loc 1 631 0
 1289 0052 E4D4     		bmi	.L110
 1290              	.L107:
 1291              		.loc 1 635 0
 1292 0054 9488     		ldrh	r4, [r2, #4]
 1293 0056 5B00     		lsls	r3, r3, #1
 1294 0058 43EA4453 		orr	r3, r3, r4, lsl #21
 1295              	.LVL101:
 1296 005c E5E7     		b	.L108
 1297              	.LVL102:
 1298              	.L103:
 1299              		.loc 1 618 0
 1300 005e C16A     		ldr	r1, [r0, #44]
 1301              	.LVL103:
 1302 0060 01F5C071 		add	r1, r1, #384
 1303              	.LVL104:
 1304              		.loc 1 619 0
 1305 0064 D6E7     		b	.L106
 1306              	.LVL105:
 1307              	.L101:
 1308              		.loc 1 615 0
 1309 0066 C16A     		ldr	r1, [r0, #44]
 1310              	.LVL106:
 1311 0068 8B68     		ldr	r3, [r1, #8]
ARM GAS  C:\Users\IDONNO~1.SON\AppData\Local\Temp\cc1vbgPC.s 			page 24


 1312 006a C3F30163 		ubfx	r3, r3, #24, #2
 1313 006e 1833     		adds	r3, r3, #24
 1314 0070 01EB0311 		add	r1, r1, r3, lsl #4
 1315              	.LVL107:
 1316              		.loc 1 616 0
 1317 0074 CEE7     		b	.L106
 1318              		.cfi_endproc
 1319              	.LFE269:
 1320              		.size	can_lld_transmit, .-can_lld_transmit
 1321 0076 00BF     		.section	.text.can_lld_is_rx_nonempty,"ax",%progbits
 1322              		.align	2
 1323              		.p2align 4,,15
 1324              		.global	can_lld_is_rx_nonempty
 1325              		.thumb
 1326              		.thumb_func
 1327              		.type	can_lld_is_rx_nonempty, %function
 1328              	can_lld_is_rx_nonempty:
 1329              	.LFB270:
 1330              		.loc 1 654 0
 1331              		.cfi_startproc
 1332              		@ args = 0, pretend = 0, frame = 0
 1333              		@ frame_needed = 0, uses_anonymous_args = 0
 1334              		@ link register save eliminated.
 1335              	.LVL108:
 1336              		.loc 1 656 0
 1337 0000 0129     		cmp	r1, #1
 1338 0002 11D0     		beq	.L113
 1339 0004 0AD3     		bcc	.L114
 1340 0006 0229     		cmp	r1, #2
 1341 0008 06D1     		bne	.L122
 1342              		.loc 1 663 0
 1343 000a C36A     		ldr	r3, [r0, #44]
 1344              	.L120:
 1345 000c 1869     		ldr	r0, [r3, #16]
 1346              	.LVL109:
 1347 000e 10F00300 		ands	r0, r0, #3
 1348 0012 18BF     		it	ne
 1349 0014 0120     		movne	r0, #1
 1350 0016 7047     		bx	lr
 1351              	.LVL110:
 1352              	.L122:
 1353              		.loc 1 665 0
 1354 0018 0020     		movs	r0, #0
 1355              	.LVL111:
 1356              		.loc 1 667 0
 1357 001a 7047     		bx	lr
 1358              	.LVL112:
 1359              	.L114:
 1360              		.loc 1 658 0
 1361 001c C36A     		ldr	r3, [r0, #44]
 1362 001e DA68     		ldr	r2, [r3, #12]
 1363 0020 9207     		lsls	r2, r2, #30
 1364 0022 F3D0     		beq	.L120
 1365 0024 0120     		movs	r0, #1
 1366              	.LVL113:
 1367 0026 7047     		bx	lr
 1368              	.LVL114:
ARM GAS  C:\Users\IDONNO~1.SON\AppData\Local\Temp\cc1vbgPC.s 			page 25


 1369              	.L113:
 1370              		.loc 1 661 0
 1371 0028 C36A     		ldr	r3, [r0, #44]
 1372 002a D868     		ldr	r0, [r3, #12]
 1373              	.LVL115:
 1374 002c 10F00300 		ands	r0, r0, #3
 1375 0030 18BF     		it	ne
 1376 0032 0120     		movne	r0, #1
 1377 0034 7047     		bx	lr
 1378              		.cfi_endproc
 1379              	.LFE270:
 1380              		.size	can_lld_is_rx_nonempty, .-can_lld_is_rx_nonempty
 1381 0036 00BF     		.section	.text.can_lld_receive,"ax",%progbits
 1382              		.align	2
 1383              		.p2align 4,,15
 1384              		.global	can_lld_receive
 1385              		.thumb
 1386              		.thumb_func
 1387              		.type	can_lld_receive, %function
 1388              	can_lld_receive:
 1389              	.LFB271:
 1390              		.loc 1 680 0
 1391              		.cfi_startproc
 1392              		@ args = 0, pretend = 0, frame = 0
 1393              		@ frame_needed = 0, uses_anonymous_args = 0
 1394              		@ link register save eliminated.
 1395              	.LVL116:
 1396 0000 10B4     		push	{r4}
 1397              		.cfi_def_cfa_offset 4
 1398              		.cfi_offset 4, -4
 1399              		.loc 1 683 0
 1400 0002 71BB     		cbnz	r1, .L124
 1401              		.loc 1 684 0
 1402 0004 C36A     		ldr	r3, [r0, #44]
 1403 0006 D968     		ldr	r1, [r3, #12]
 1404              	.LVL117:
 1405 0008 8907     		lsls	r1, r1, #30
 1406 000a 31D0     		beq	.L134
 1407              	.L125:
 1408              	.LVL118:
 1409              		.loc 1 696 0
 1410 000c D3F8B041 		ldr	r4, [r3, #432]
 1411              	.LVL119:
 1412              		.loc 1 697 0
 1413 0010 D3F8B411 		ldr	r1, [r3, #436]
 1414              	.LVL120:
 1415              		.loc 1 698 0
 1416 0014 D3F8B831 		ldr	r3, [r3, #440]
 1417 0018 D360     		str	r3, [r2, #12]
 1418              		.loc 1 699 0
 1419 001a C36A     		ldr	r3, [r0, #44]
 1420 001c D3F8BC31 		ldr	r3, [r3, #444]
 1421 0020 1361     		str	r3, [r2, #16]
 1422              		.loc 1 702 0
 1423 0022 C36A     		ldr	r3, [r0, #44]
 1424 0024 2020     		movs	r0, #32
 1425              	.LVL121:
ARM GAS  C:\Users\IDONNO~1.SON\AppData\Local\Temp\cc1vbgPC.s 			page 26


 1426 0026 D860     		str	r0, [r3, #12]
 1427              		.loc 1 706 0
 1428 0028 D868     		ldr	r0, [r3, #12]
 1429 002a 8007     		lsls	r0, r0, #30
 1430 002c 3FD0     		beq	.L135
 1431              	.L130:
 1432              		.loc 1 730 0
 1433 002e 1379     		ldrb	r3, [r2, #4]	@ zero_extendqisi2
 1434 0030 6008     		lsrs	r0, r4, #1
 1435 0032 60F30413 		bfi	r3, r0, #4, #1
 1436              		.loc 1 731 0
 1437 0036 A008     		lsrs	r0, r4, #2
 1438 0038 60F34513 		bfi	r3, r0, #5, #1
 1439 003c 1371     		strb	r3, [r2, #4]
 1440              		.loc 1 732 0
 1441 003e 9B06     		lsls	r3, r3, #26
 1442 0040 2FD5     		bpl	.L131
 1443              		.loc 1 733 0
 1444 0042 9368     		ldr	r3, [r2, #8]
 1445 0044 E408     		lsrs	r4, r4, #3
 1446              	.LVL122:
 1447 0046 64F31C03 		bfi	r3, r4, #0, #29
 1448 004a 9360     		str	r3, [r2, #8]
 1449              	.L132:
 1450              		.loc 1 736 0
 1451 004c 1379     		ldrb	r3, [r2, #4]	@ zero_extendqisi2
 1452              		.loc 1 739 0
 1453 004e 5DF8044B 		ldr	r4, [sp], #4
 1454              		.cfi_remember_state
 1455              		.cfi_restore 4
 1456              		.cfi_def_cfa_offset 0
 1457              		.loc 1 737 0
 1458 0052 080A     		lsrs	r0, r1, #8
 1459              		.loc 1 736 0
 1460 0054 61F30303 		bfi	r3, r1, #0, #4
 1461              		.loc 1 738 0
 1462 0058 090C     		lsrs	r1, r1, #16
 1463              	.LVL123:
 1464              		.loc 1 736 0
 1465 005a 1371     		strb	r3, [r2, #4]
 1466              		.loc 1 737 0
 1467 005c 1070     		strb	r0, [r2]
 1468              		.loc 1 738 0
 1469 005e 5180     		strh	r1, [r2, #2]	@ movhi
 1470              		.loc 1 739 0
 1471 0060 7047     		bx	lr
 1472              	.LVL124:
 1473              	.L124:
 1474              		.cfi_restore_state
 1475              		.loc 1 693 0
 1476 0062 0129     		cmp	r1, #1
 1477 0064 28D0     		beq	.L128
 1478 0066 0229     		cmp	r1, #2
 1479 0068 28D0     		beq	.L136
 1480              	.LVL125:
 1481              	.L123:
 1482              		.loc 1 739 0
ARM GAS  C:\Users\IDONNO~1.SON\AppData\Local\Temp\cc1vbgPC.s 			page 27


 1483 006a 5DF8044B 		ldr	r4, [sp], #4
 1484              		.cfi_remember_state
 1485              		.cfi_restore 4
 1486              		.cfi_def_cfa_offset 0
 1487 006e 7047     		bx	lr
 1488              	.L134:
 1489              		.cfi_restore_state
 1490              		.loc 1 686 0
 1491 0070 1969     		ldr	r1, [r3, #16]
 1492 0072 8C07     		lsls	r4, r1, #30
 1493 0074 F9D0     		beq	.L123
 1494              	.L126:
 1495              	.LVL126:
 1496              		.loc 1 711 0
 1497 0076 D3F8C041 		ldr	r4, [r3, #448]
 1498              	.LVL127:
 1499              		.loc 1 712 0
 1500 007a D3F8C411 		ldr	r1, [r3, #452]
 1501              	.LVL128:
 1502              		.loc 1 713 0
 1503 007e D3F8C831 		ldr	r3, [r3, #456]
 1504 0082 D360     		str	r3, [r2, #12]
 1505              		.loc 1 714 0
 1506 0084 C36A     		ldr	r3, [r0, #44]
 1507 0086 D3F8CC31 		ldr	r3, [r3, #460]
 1508 008a 1361     		str	r3, [r2, #16]
 1509              		.loc 1 717 0
 1510 008c C36A     		ldr	r3, [r0, #44]
 1511 008e 2020     		movs	r0, #32
 1512              	.LVL129:
 1513 0090 1861     		str	r0, [r3, #16]
 1514              		.loc 1 721 0
 1515 0092 1869     		ldr	r0, [r3, #16]
 1516 0094 8007     		lsls	r0, r0, #30
 1517 0096 CAD1     		bne	.L130
 1518              		.loc 1 722 0
 1519 0098 5869     		ldr	r0, [r3, #20]
 1520 009a 40F01000 		orr	r0, r0, #16
 1521 009e 5861     		str	r0, [r3, #20]
 1522 00a0 C5E7     		b	.L130
 1523              	.L131:
 1524              		.loc 1 735 0
 1525 00a2 1389     		ldrh	r3, [r2, #8]
 1526 00a4 640D     		lsrs	r4, r4, #21
 1527              	.LVL130:
 1528 00a6 64F30A03 		bfi	r3, r4, #0, #11
 1529 00aa 1381     		strh	r3, [r2, #8]	@ movhi
 1530 00ac CEE7     		b	.L132
 1531              	.LVL131:
 1532              	.L135:
 1533              		.loc 1 707 0
 1534 00ae 5869     		ldr	r0, [r3, #20]
 1535 00b0 40F00200 		orr	r0, r0, #2
 1536 00b4 5861     		str	r0, [r3, #20]
 1537 00b6 BAE7     		b	.L130
 1538              	.LVL132:
 1539              	.L128:
ARM GAS  C:\Users\IDONNO~1.SON\AppData\Local\Temp\cc1vbgPC.s 			page 28


 1540 00b8 C36A     		ldr	r3, [r0, #44]
 1541 00ba A7E7     		b	.L125
 1542              	.L136:
 1543 00bc C36A     		ldr	r3, [r0, #44]
 1544 00be DAE7     		b	.L126
 1545              		.cfi_endproc
 1546              	.LFE271:
 1547              		.size	can_lld_receive, .-can_lld_receive
 1548              		.section	.text.can_lld_sleep,"ax",%progbits
 1549              		.align	2
 1550              		.p2align 4,,15
 1551              		.global	can_lld_sleep
 1552              		.thumb
 1553              		.thumb_func
 1554              		.type	can_lld_sleep, %function
 1555              	can_lld_sleep:
 1556              	.LFB272:
 1557              		.loc 1 749 0
 1558              		.cfi_startproc
 1559              		@ args = 0, pretend = 0, frame = 0
 1560              		@ frame_needed = 0, uses_anonymous_args = 0
 1561              		@ link register save eliminated.
 1562              	.LVL133:
 1563              		.loc 1 751 0
 1564 0000 C26A     		ldr	r2, [r0, #44]
 1565 0002 1368     		ldr	r3, [r2]
 1566 0004 43F00203 		orr	r3, r3, #2
 1567 0008 1360     		str	r3, [r2]
 1568 000a 7047     		bx	lr
 1569              		.cfi_endproc
 1570              	.LFE272:
 1571              		.size	can_lld_sleep, .-can_lld_sleep
 1572              		.section	.text.can_lld_wakeup,"ax",%progbits
 1573              		.align	2
 1574              		.p2align 4,,15
 1575              		.global	can_lld_wakeup
 1576              		.thumb
 1577              		.thumb_func
 1578              		.type	can_lld_wakeup, %function
 1579              	can_lld_wakeup:
 1580              	.LFB273:
 1581              		.loc 1 761 0
 1582              		.cfi_startproc
 1583              		@ args = 0, pretend = 0, frame = 0
 1584              		@ frame_needed = 0, uses_anonymous_args = 0
 1585              		@ link register save eliminated.
 1586              	.LVL134:
 1587              		.loc 1 763 0
 1588 0000 C26A     		ldr	r2, [r0, #44]
 1589 0002 1368     		ldr	r3, [r2]
 1590 0004 23F00203 		bic	r3, r3, #2
 1591 0008 1360     		str	r3, [r2]
 1592 000a 7047     		bx	lr
 1593              		.cfi_endproc
 1594              	.LFE273:
 1595              		.size	can_lld_wakeup, .-can_lld_wakeup
 1596              		.section	.text.canSTM32SetFilters,"ax",%progbits
ARM GAS  C:\Users\IDONNO~1.SON\AppData\Local\Temp\cc1vbgPC.s 			page 29


 1597              		.align	2
 1598              		.p2align 4,,15
 1599              		.global	canSTM32SetFilters
 1600              		.thumb
 1601              		.thumb_func
 1602              		.type	canSTM32SetFilters, %function
 1603              	canSTM32SetFilters:
 1604              	.LFB274:
 1605              		.loc 1 779 0
 1606              		.cfi_startproc
 1607              		@ args = 0, pretend = 0, frame = 0
 1608              		@ frame_needed = 0, uses_anonymous_args = 0
 1609              		@ link register save eliminated.
 1610              	.LVL135:
 1611              		.loc 1 791 0
 1612 0000 FFF7FEBF 		b	can_lld_set_filters
 1613              	.LVL136:
 1614              		.cfi_endproc
 1615              	.LFE274:
 1616              		.size	canSTM32SetFilters, .-canSTM32SetFilters
 1617              		.global	CAND1
 1618              		.section	.bss.CAND1,"aw",%nobits
 1619              		.align	2
 1620              		.set	.LANCHOR0,. + 0
 1621              		.type	CAND1, %object
 1622              		.size	CAND1, 48
 1623              	CAND1:
 1624 0000 00000000 		.space	48
 1624      00000000 
 1624      00000000 
 1624      00000000 
 1624      00000000 
 1625              		.text
 1626              	.Letext0:
 1627              		.file 5 "c:\\program files (x86)\\gnu tools arm embedded\\5.4 2016q2\\lib\\gcc\\arm-none-eabi\\5.4
 1628              		.file 6 "c:\\program files (x86)\\gnu tools arm embedded\\5.4 2016q2\\arm-none-eabi\\include\\mach
 1629              		.file 7 "c:\\program files (x86)\\gnu tools arm embedded\\5.4 2016q2\\arm-none-eabi\\include\\sys\
 1630              		.file 8 "lib/ChibiOS_3.0.2/os/rt/ports/ARMCMx/compilers/GCC/chtypes.h"
 1631              		.file 9 "lib/ChibiOS_3.0.2/os/rt/include/chsystypes.h"
 1632              		.file 10 "lib/ChibiOS_3.0.2/os/rt/include/chschd.h"
 1633              		.file 11 "lib/ChibiOS_3.0.2/os/ext/CMSIS/ST/stm32f407xx.h"
 1634              		.file 12 "lib/ChibiOS_3.0.2/os/rt/ports/ARMCMx/chcore.h"
 1635              		.file 13 "lib/ChibiOS_3.0.2/os/rt/ports/ARMCMx/chcore_v7m.h"
 1636              		.file 14 "lib/ChibiOS_3.0.2/os/rt/include/chtm.h"
 1637              		.file 15 "lib/ChibiOS_3.0.2/os/rt/include/chsem.h"
 1638              		.file 16 "lib/ChibiOS_3.0.2/os/rt/include/chmtx.h"
 1639              		.file 17 "lib/ChibiOS_3.0.2/os/rt/include/chevents.h"
 1640              		.file 18 "lib/ChibiOS_3.0.2/os/hal/include/can.h"
 1641              		.file 19 "lib/ChibiOS_3.0.2/os/hal/ports/STM32/LLD/can_lld.h"
 1642              		.file 20 "lib/ChibiOS_3.0.2/os/rt/include/chsys.h"
 1643              		.file 21 "lib/ChibiOS_3.0.2/os/ext/CMSIS/include/core_cm4.h"
 1644              		.file 22 "lib/ChibiOS_3.0.2/os/hal/ports/common/ARMCMx/nvic.h"