ARM GAS  C:\Users\IDONNO~1\AppData\Local\Temp\ccRRjj4u.s 			page 1


   1              		.syntax unified
   2              		.cpu cortex-m4
   3              		.eabi_attribute 27, 1
   4              		.eabi_attribute 28, 1
   5              		.fpu fpv4-sp-d16
   6              		.eabi_attribute 20, 1
   7              		.eabi_attribute 21, 1
   8              		.eabi_attribute 23, 3
   9              		.eabi_attribute 24, 1
  10              		.eabi_attribute 25, 1
  11              		.eabi_attribute 26, 1
  12              		.eabi_attribute 30, 2
  13              		.eabi_attribute 34, 1
  14              		.eabi_attribute 18, 4
  15              		.thumb
  16              		.syntax unified
  17              		.file	"chcore_v7m.c"
  18              		.text
  19              	.Ltext0:
  20              		.cfi_sections	.debug_frame
  21              		.section	.text.SVC_Handler,"ax",%progbits
  22              		.align	2
  23              		.p2align 4,,15
  24              		.global	SVC_Handler
  25              		.thumb
  26              		.thumb_func
  27              		.type	SVC_Handler, %function
  28              	SVC_Handler:
  29              	.LFB219:
  30              		.file 1 "lib/ChibiOS_3.0.2/os/rt/ports/ARMCMx/chcore_v7m.c"
  31              		.loc 1 62 0
  32              		.cfi_startproc
  33              		@ args = 0, pretend = 0, frame = 0
  34              		@ frame_needed = 0, uses_anonymous_args = 0
  35              		@ link register save eliminated.
  36              		.loc 1 68 0
  37 0000 064A     		ldr	r2, .L2
  38 0002 5368     		ldr	r3, [r2, #4]
  39 0004 23F00103 		bic	r3, r3, #1
  40 0008 5360     		str	r3, [r2, #4]
  41              	.LBB51:
  42              	.LBB52:
  43              		.file 2 "lib/ChibiOS_3.0.2/os/ext/CMSIS/include/core_cmFunc.h"
  44              		.loc 2 428 0
  45              		.syntax unified
  46              	@ 428 "lib/ChibiOS_3.0.2/os/ext/CMSIS/include/core_cmFunc.h" 1
  47 000a EFF30983 		MRS r3, psp
  48              	
  49              	@ 0 "" 2
  50              	.LVL0:
  51              		.thumb
  52              		.syntax unified
  53              	.LBE52:
  54              	.LBE51:
  55              	.LBB53:
  56              	.LBB54:
  57              		.loc 2 441 0
ARM GAS  C:\Users\IDONNO~1\AppData\Local\Temp\ccRRjj4u.s 			page 2


  58 000e 6833     		adds	r3, r3, #104
  59              	.LVL1:
  60              		.syntax unified
  61              	@ 441 "lib/ChibiOS_3.0.2/os/ext/CMSIS/include/core_cmFunc.h" 1
  62 0010 83F30988 		MSR psp, r3
  63              	
  64              	@ 0 "" 2
  65              	.LVL2:
  66              		.thumb
  67              		.syntax unified
  68              	.LBE54:
  69              	.LBE53:
  70              	.LBB55:
  71              	.LBB56:
  72              	.LBB57:
  73              	.LBB58:
  74              		.loc 2 546 0
  75 0014 0023     		movs	r3, #0
  76              	.LVL3:
  77              		.syntax unified
  78              	@ 546 "lib/ChibiOS_3.0.2/os/ext/CMSIS/include/core_cmFunc.h" 1
  79 0016 83F31188 		MSR basepri, r3
  80              	@ 0 "" 2
  81              	.LVL4:
  82              		.thumb
  83              		.syntax unified
  84 001a 7047     		bx	lr
  85              	.L3:
  86              		.align	2
  87              	.L2:
  88 001c 30EF00E0 		.word	-536809680
  89              	.LBE58:
  90              	.LBE57:
  91              	.LBE56:
  92              	.LBE55:
  93              		.cfi_endproc
  94              	.LFE219:
  95              		.size	SVC_Handler, .-SVC_Handler
  96              		.section	.text._port_irq_epilogue,"ax",%progbits
  97              		.align	2
  98              		.p2align 4,,15
  99              		.global	_port_irq_epilogue
 100              		.thumb
 101              		.thumb_func
 102              		.type	_port_irq_epilogue, %function
 103              	_port_irq_epilogue:
 104              	.LFB220:
 105              		.loc 1 122 0
 106              		.cfi_startproc
 107              		@ args = 0, pretend = 0, frame = 0
 108              		@ frame_needed = 0, uses_anonymous_args = 0
 109              	.LVL5:
 110              	.LBB59:
 111              	.LBB60:
 112              	.LBB61:
 113              	.LBB62:
 114              		.loc 2 546 0
ARM GAS  C:\Users\IDONNO~1\AppData\Local\Temp\ccRRjj4u.s 			page 3


 115 0000 2023     		movs	r3, #32
 116              		.syntax unified
 117              	@ 546 "lib/ChibiOS_3.0.2/os/ext/CMSIS/include/core_cmFunc.h" 1
 118 0002 83F31188 		MSR basepri, r3
 119              	@ 0 "" 2
 120              	.LVL6:
 121              		.thumb
 122              		.syntax unified
 123              	.LBE62:
 124              	.LBE61:
 125              	.LBE60:
 126              	.LBE59:
 127              		.loc 1 125 0
 128 0006 124B     		ldr	r3, .L12
 129 0008 5B68     		ldr	r3, [r3, #4]
 130 000a 13F40063 		ands	r3, r3, #2048
 131 000e 02D1     		bne	.L11
 132              	.LVL7:
 133              	.LBB63:
 134              	.LBB64:
 135              	.LBB65:
 136              	.LBB66:
 137              		.loc 2 546 0
 138              		.syntax unified
 139              	@ 546 "lib/ChibiOS_3.0.2/os/ext/CMSIS/include/core_cmFunc.h" 1
 140 0010 83F31188 		MSR basepri, r3
 141              	@ 0 "" 2
 142              	.LVL8:
 143              		.thumb
 144              		.syntax unified
 145 0014 7047     		bx	lr
 146              	.L11:
 147              	.LBE66:
 148              	.LBE65:
 149              	.LBE64:
 150              	.LBE63:
 151              		.loc 1 122 0
 152 0016 10B5     		push	{r4, lr}
 153              		.cfi_def_cfa_offset 8
 154              		.cfi_offset 4, -8
 155              		.cfi_offset 14, -4
 156              	.LBB67:
 157              	.LBB68:
 158              	.LBB69:
 159              		.loc 2 593 0
 160              		.loc 2 594 0
 161              		.syntax unified
 162              	@ 594 "lib/ChibiOS_3.0.2/os/ext/CMSIS/include/core_cmFunc.h" 1
 163 0018 F1EE103A 		VMRS r3, fpscr
 164              	@ 0 "" 2
 165              	.LVL9:
 166              		.loc 2 595 0
 167              		.thumb
 168              		.syntax unified
 169              	.LBE69:
 170              	.LBE68:
 171              	.LBB70:
ARM GAS  C:\Users\IDONNO~1\AppData\Local\Temp\ccRRjj4u.s 			page 4


 172              	.LBB71:
 173              		.loc 2 428 0
 174              		.syntax unified
 175              	@ 428 "lib/ChibiOS_3.0.2/os/ext/CMSIS/include/core_cmFunc.h" 1
 176 001c EFF30984 		MRS r4, psp
 177              	
 178              	@ 0 "" 2
 179              	.LVL10:
 180              		.thumb
 181              		.syntax unified
 182              	.LBE71:
 183              	.LBE70:
 184              		.loc 1 143 0
 185 0020 0C4B     		ldr	r3, .L12+4
 186              		.loc 1 141 0
 187 0022 4FF08072 		mov	r2, #16777216
 188              		.loc 1 143 0
 189 0026 DB68     		ldr	r3, [r3, #12]
 190 0028 44F8083C 		str	r3, [r4, #-8]
 191              	.LVL11:
 192              		.loc 1 141 0
 193 002c 44F84C2C 		str	r2, [r4, #-76]
 194              	.LBB72:
 195              	.LBB73:
 196              		.loc 2 441 0
 197 0030 A4F16803 		sub	r3, r4, #104
 198              	.LVL12:
 199              		.syntax unified
 200              	@ 441 "lib/ChibiOS_3.0.2/os/ext/CMSIS/include/core_cmFunc.h" 1
 201 0034 83F30988 		MSR psp, r3
 202              	
 203              	@ 0 "" 2
 204              	.LVL13:
 205              		.thumb
 206              		.syntax unified
 207              	.LBE73:
 208              	.LBE72:
 209              		.loc 1 151 0
 210 0038 FFF7FEFF 		bl	chSchIsPreemptionRequired
 211              	.LVL14:
 212 003c 18B1     		cbz	r0, .L6
 213              		.loc 1 153 0
 214 003e 064B     		ldr	r3, .L12+8
 215 0040 44F8503C 		str	r3, [r4, #-80]
 216 0044 10BD     		pop	{r4, pc}
 217              	.LVL15:
 218              	.L6:
 219              		.loc 1 158 0
 220 0046 054B     		ldr	r3, .L12+12
 221 0048 44F8503C 		str	r3, [r4, #-80]
 222 004c 10BD     		pop	{r4, pc}
 223              	.LVL16:
 224              	.L13:
 225 004e 00BF     		.align	2
 226              	.L12:
 227 0050 00ED00E0 		.word	-536810240
 228 0054 30EF00E0 		.word	-536809680
ARM GAS  C:\Users\IDONNO~1\AppData\Local\Temp\ccRRjj4u.s 			page 5


 229 0058 00000000 		.word	_port_switch_from_isr
 230 005c 00000000 		.word	_port_exit_from_isr
 231              	.LBE67:
 232              		.cfi_endproc
 233              	.LFE220:
 234              		.size	_port_irq_epilogue, .-_port_irq_epilogue
 235              		.text
 236              	.Letext0:
 237              		.file 3 "c:\\program files (x86)\\gnu tools arm embedded\\5.2 2015q4\\arm-none-eabi\\include\\mach
 238              		.file 4 "c:\\program files (x86)\\gnu tools arm embedded\\5.2 2015q4\\arm-none-eabi\\include\\sys\
 239              		.file 5 "lib/ChibiOS_3.0.2/os/rt/ports/ARMCMx/compilers/GCC/chtypes.h"
 240              		.file 6 "lib/ChibiOS_3.0.2/os/rt/include/chsystypes.h"
 241              		.file 7 "lib/ChibiOS_3.0.2/os/rt/include/chschd.h"
 242              		.file 8 "lib/ChibiOS_3.0.2/os/ext/CMSIS/include/core_cm4.h"
 243              		.file 9 "lib/ChibiOS_3.0.2/os/rt/ports/ARMCMx/chcore.h"
 244              		.file 10 "lib/ChibiOS_3.0.2/os/rt/ports/ARMCMx/chcore_v7m.h"
 245              		.file 11 "lib/ChibiOS_3.0.2/os/rt/include/chtm.h"
 246              		.file 12 "lib/ChibiOS_3.0.2/os/rt/include/chsem.h"
 247              		.file 13 "lib/ChibiOS_3.0.2/os/rt/include/chmtx.h"
 248              		.section	.debug_info,"",%progbits
 249              	.Ldebug_info0:
 250 0000 BA0C0000 		.4byte	0xcba
 251 0004 0400     		.2byte	0x4
 252 0006 00000000 		.4byte	.Ldebug_abbrev0
 253 000a 04       		.byte	0x4
 254 000b 01       		.uleb128 0x1
 255 000c FC040000 		.4byte	.LASF146
 256 0010 0C       		.byte	0xc
 257 0011 AC040000 		.4byte	.LASF147
 258 0015 13000000 		.4byte	.LASF148
 259 0019 00000000 		.4byte	.Ldebug_ranges0+0
 260 001d 00000000 		.4byte	0
 261 0021 00000000 		.4byte	.Ldebug_line0
 262 0025 02       		.uleb128 0x2
 263 0026 04       		.byte	0x4
 264 0027 05       		.byte	0x5
 265 0028 696E7400 		.ascii	"int\000"
 266 002c 03       		.uleb128 0x3
 267 002d 04       		.byte	0x4
 268 002e 07       		.byte	0x7
 269 002f C7010000 		.4byte	.LASF0
 270 0033 03       		.uleb128 0x3
 271 0034 01       		.byte	0x1
 272 0035 06       		.byte	0x6
 273 0036 4E000000 		.4byte	.LASF1
 274 003a 04       		.uleb128 0x4
 275 003b 5A000000 		.4byte	.LASF5
 276 003f 03       		.byte	0x3
 277 0040 1D       		.byte	0x1d
 278 0041 45000000 		.4byte	0x45
 279 0045 03       		.uleb128 0x3
 280 0046 01       		.byte	0x1
 281 0047 08       		.byte	0x8
 282 0048 A3030000 		.4byte	.LASF2
 283 004c 03       		.uleb128 0x3
 284 004d 02       		.byte	0x2
 285 004e 05       		.byte	0x5
ARM GAS  C:\Users\IDONNO~1\AppData\Local\Temp\ccRRjj4u.s 			page 6


 286 004f CE030000 		.4byte	.LASF3
 287 0053 03       		.uleb128 0x3
 288 0054 02       		.byte	0x2
 289 0055 07       		.byte	0x7
 290 0056 12040000 		.4byte	.LASF4
 291 005a 04       		.uleb128 0x4
 292 005b 88020000 		.4byte	.LASF6
 293 005f 03       		.byte	0x3
 294 0060 3F       		.byte	0x3f
 295 0061 65000000 		.4byte	0x65
 296 0065 03       		.uleb128 0x3
 297 0066 04       		.byte	0x4
 298 0067 05       		.byte	0x5
 299 0068 24010000 		.4byte	.LASF7
 300 006c 04       		.uleb128 0x4
 301 006d 3E060000 		.4byte	.LASF8
 302 0071 03       		.byte	0x3
 303 0072 41       		.byte	0x41
 304 0073 77000000 		.4byte	0x77
 305 0077 03       		.uleb128 0x3
 306 0078 04       		.byte	0x4
 307 0079 07       		.byte	0x7
 308 007a 95040000 		.4byte	.LASF9
 309 007e 03       		.uleb128 0x3
 310 007f 08       		.byte	0x8
 311 0080 05       		.byte	0x5
 312 0081 95010000 		.4byte	.LASF10
 313 0085 04       		.uleb128 0x4
 314 0086 32030000 		.4byte	.LASF11
 315 008a 03       		.byte	0x3
 316 008b 5B       		.byte	0x5b
 317 008c 90000000 		.4byte	0x90
 318 0090 03       		.uleb128 0x3
 319 0091 08       		.byte	0x8
 320 0092 07       		.byte	0x7
 321 0093 D9000000 		.4byte	.LASF12
 322 0097 04       		.uleb128 0x4
 323 0098 D3060000 		.4byte	.LASF13
 324 009c 04       		.byte	0x4
 325 009d 14       		.byte	0x14
 326 009e 3A000000 		.4byte	0x3a
 327 00a2 04       		.uleb128 0x4
 328 00a3 9B030000 		.4byte	.LASF14
 329 00a7 04       		.byte	0x4
 330 00a8 1F       		.byte	0x1f
 331 00a9 5A000000 		.4byte	0x5a
 332 00ad 04       		.uleb128 0x4
 333 00ae 6D040000 		.4byte	.LASF15
 334 00b2 04       		.byte	0x4
 335 00b3 20       		.byte	0x20
 336 00b4 6C000000 		.4byte	0x6c
 337 00b8 04       		.uleb128 0x4
 338 00b9 45000000 		.4byte	.LASF16
 339 00bd 04       		.byte	0x4
 340 00be 26       		.byte	0x26
 341 00bf 85000000 		.4byte	0x85
 342 00c3 05       		.uleb128 0x5
ARM GAS  C:\Users\IDONNO~1\AppData\Local\Temp\ccRRjj4u.s 			page 7


 343 00c4 A2000000 		.4byte	0xa2
 344 00c8 05       		.uleb128 0x5
 345 00c9 AD000000 		.4byte	0xad
 346 00cd 04       		.uleb128 0x4
 347 00ce 7C060000 		.4byte	.LASF17
 348 00d2 05       		.byte	0x5
 349 00d3 45       		.byte	0x45
 350 00d4 AD000000 		.4byte	0xad
 351 00d8 04       		.uleb128 0x4
 352 00d9 57020000 		.4byte	.LASF18
 353 00dd 05       		.byte	0x5
 354 00de 48       		.byte	0x48
 355 00df 97000000 		.4byte	0x97
 356 00e3 04       		.uleb128 0x4
 357 00e4 2D010000 		.4byte	.LASF19
 358 00e8 05       		.byte	0x5
 359 00e9 49       		.byte	0x49
 360 00ea 97000000 		.4byte	0x97
 361 00ee 04       		.uleb128 0x4
 362 00ef 49030000 		.4byte	.LASF20
 363 00f3 05       		.byte	0x5
 364 00f4 4A       		.byte	0x4a
 365 00f5 97000000 		.4byte	0x97
 366 00f9 04       		.uleb128 0x4
 367 00fa 10010000 		.4byte	.LASF21
 368 00fe 05       		.byte	0x5
 369 00ff 4B       		.byte	0x4b
 370 0100 97000000 		.4byte	0x97
 371 0104 04       		.uleb128 0x4
 372 0105 77030000 		.4byte	.LASF22
 373 0109 05       		.byte	0x5
 374 010a 4C       		.byte	0x4c
 375 010b AD000000 		.4byte	0xad
 376 010f 04       		.uleb128 0x4
 377 0110 2D020000 		.4byte	.LASF23
 378 0114 05       		.byte	0x5
 379 0115 4D       		.byte	0x4d
 380 0116 A2000000 		.4byte	0xa2
 381 011a 04       		.uleb128 0x4
 382 011b 6D020000 		.4byte	.LASF24
 383 011f 05       		.byte	0x5
 384 0120 4F       		.byte	0x4f
 385 0121 AD000000 		.4byte	0xad
 386 0125 04       		.uleb128 0x4
 387 0126 B8010000 		.4byte	.LASF25
 388 012a 05       		.byte	0x5
 389 012b 51       		.byte	0x51
 390 012c A2000000 		.4byte	0xa2
 391 0130 04       		.uleb128 0x4
 392 0131 20060000 		.4byte	.LASF26
 393 0135 06       		.byte	0x6
 394 0136 33       		.byte	0x33
 395 0137 AD000000 		.4byte	0xad
 396 013b 04       		.uleb128 0x4
 397 013c F3040000 		.4byte	.LASF27
 398 0140 06       		.byte	0x6
 399 0141 3F       		.byte	0x3f
ARM GAS  C:\Users\IDONNO~1\AppData\Local\Temp\ccRRjj4u.s 			page 8


 400 0142 46010000 		.4byte	0x146
 401 0146 06       		.uleb128 0x6
 402 0147 1E020000 		.4byte	.LASF49
 403 014b 48       		.byte	0x48
 404 014c 07       		.byte	0x7
 405 014d C2       		.byte	0xc2
 406 014e 4B020000 		.4byte	0x24b
 407 0152 07       		.uleb128 0x7
 408 0153 FD030000 		.4byte	.LASF28
 409 0157 07       		.byte	0x7
 410 0158 C3       		.byte	0xc3
 411 0159 56020000 		.4byte	0x256
 412 015d 00       		.byte	0
 413 015e 07       		.uleb128 0x7
 414 015f 70030000 		.4byte	.LASF29
 415 0163 07       		.byte	0x7
 416 0164 C5       		.byte	0xc5
 417 0165 56020000 		.4byte	0x256
 418 0169 04       		.byte	0x4
 419 016a 07       		.uleb128 0x7
 420 016b CA000000 		.4byte	.LASF30
 421 016f 07       		.byte	0x7
 422 0170 C7       		.byte	0xc7
 423 0171 04010000 		.4byte	0x104
 424 0175 08       		.byte	0x8
 425 0176 07       		.uleb128 0x7
 426 0177 11070000 		.4byte	.LASF31
 427 017b 07       		.byte	0x7
 428 017c C8       		.byte	0xc8
 429 017d 89060000 		.4byte	0x689
 430 0181 0C       		.byte	0xc
 431 0182 07       		.uleb128 0x7
 432 0183 50010000 		.4byte	.LASF32
 433 0187 07       		.byte	0x7
 434 0188 CA       		.byte	0xca
 435 0189 56020000 		.4byte	0x256
 436 018d 10       		.byte	0x10
 437 018e 07       		.uleb128 0x7
 438 018f EE020000 		.4byte	.LASF33
 439 0193 07       		.byte	0x7
 440 0194 CB       		.byte	0xcb
 441 0195 56020000 		.4byte	0x256
 442 0199 14       		.byte	0x14
 443 019a 07       		.uleb128 0x7
 444 019b E2060000 		.4byte	.LASF34
 445 019f 07       		.byte	0x7
 446 01a0 D2       		.byte	0xd2
 447 01a1 040A0000 		.4byte	0xa04
 448 01a5 18       		.byte	0x18
 449 01a6 07       		.uleb128 0x7
 450 01a7 D8030000 		.4byte	.LASF35
 451 01ab 07       		.byte	0x7
 452 01ac DD       		.byte	0xdd
 453 01ad E3000000 		.4byte	0xe3
 454 01b1 1C       		.byte	0x1c
 455 01b2 07       		.uleb128 0x7
 456 01b3 0A040000 		.4byte	.LASF36
ARM GAS  C:\Users\IDONNO~1\AppData\Local\Temp\ccRRjj4u.s 			page 9


 457 01b7 07       		.byte	0x7
 458 01b8 E1       		.byte	0xe1
 459 01b9 D8000000 		.4byte	0xd8
 460 01bd 1D       		.byte	0x1d
 461 01be 07       		.uleb128 0x7
 462 01bf C1060000 		.4byte	.LASF37
 463 01c3 07       		.byte	0x7
 464 01c4 E6       		.byte	0xe6
 465 01c5 EE000000 		.4byte	0xee
 466 01c9 1E       		.byte	0x1e
 467 01ca 07       		.uleb128 0x7
 468 01cb E0030000 		.4byte	.LASF38
 469 01cf 07       		.byte	0x7
 470 01d0 EC       		.byte	0xec
 471 01d1 F9000000 		.4byte	0xf9
 472 01d5 1F       		.byte	0x1f
 473 01d6 07       		.uleb128 0x7
 474 01d7 E6010000 		.4byte	.LASF39
 475 01db 07       		.byte	0x7
 476 01dc F3       		.byte	0xf3
 477 01dd 160A0000 		.4byte	0xa16
 478 01e1 20       		.byte	0x20
 479 01e2 08       		.uleb128 0x8
 480 01e3 705F7500 		.ascii	"p_u\000"
 481 01e7 07       		.byte	0x7
 482 01e8 3101     		.2byte	0x131
 483 01ea 3F090000 		.4byte	0x93f
 484 01ee 24       		.byte	0x24
 485 01ef 09       		.uleb128 0x9
 486 01f0 AC020000 		.4byte	.LASF40
 487 01f4 07       		.byte	0x7
 488 01f5 3601     		.2byte	0x136
 489 01f7 5C020000 		.4byte	0x25c
 490 01fb 28       		.byte	0x28
 491 01fc 09       		.uleb128 0x9
 492 01fd 08020000 		.4byte	.LASF41
 493 0201 07       		.byte	0x7
 494 0202 3C01     		.2byte	0x13c
 495 0204 80020000 		.4byte	0x280
 496 0208 2C       		.byte	0x2c
 497 0209 09       		.uleb128 0x9
 498 020a E9060000 		.4byte	.LASF42
 499 020e 07       		.byte	0x7
 500 020f 4001     		.2byte	0x140
 501 0211 0F010000 		.4byte	0x10f
 502 0215 34       		.byte	0x34
 503 0216 09       		.uleb128 0x9
 504 0217 62040000 		.4byte	.LASF43
 505 021b 07       		.byte	0x7
 506 021c 4601     		.2byte	0x146
 507 021e 1A010000 		.4byte	0x11a
 508 0222 38       		.byte	0x38
 509 0223 09       		.uleb128 0x9
 510 0224 C4030000 		.4byte	.LASF44
 511 0228 07       		.byte	0x7
 512 0229 4D01     		.2byte	0x14d
 513 022b FE090000 		.4byte	0x9fe
ARM GAS  C:\Users\IDONNO~1\AppData\Local\Temp\ccRRjj4u.s 			page 10


 514 022f 3C       		.byte	0x3c
 515 0230 09       		.uleb128 0x9
 516 0231 2A060000 		.4byte	.LASF45
 517 0235 07       		.byte	0x7
 518 0236 5101     		.2byte	0x151
 519 0238 04010000 		.4byte	0x104
 520 023c 40       		.byte	0x40
 521 023d 09       		.uleb128 0x9
 522 023e D1000000 		.4byte	.LASF46
 523 0242 07       		.byte	0x7
 524 0243 5801     		.2byte	0x158
 525 0245 33030000 		.4byte	0x333
 526 0249 44       		.byte	0x44
 527 024a 00       		.byte	0
 528 024b 04       		.uleb128 0x4
 529 024c BF020000 		.4byte	.LASF47
 530 0250 06       		.byte	0x6
 531 0251 44       		.byte	0x44
 532 0252 56020000 		.4byte	0x256
 533 0256 0A       		.uleb128 0xa
 534 0257 04       		.byte	0x4
 535 0258 3B010000 		.4byte	0x13b
 536 025c 04       		.uleb128 0x4
 537 025d 9D020000 		.4byte	.LASF48
 538 0261 06       		.byte	0x6
 539 0262 49       		.byte	0x49
 540 0263 67020000 		.4byte	0x267
 541 0267 06       		.uleb128 0x6
 542 0268 85040000 		.4byte	.LASF50
 543 026c 04       		.byte	0x4
 544 026d 07       		.byte	0x7
 545 026e B0       		.byte	0xb0
 546 026f 80020000 		.4byte	0x280
 547 0273 07       		.uleb128 0x7
 548 0274 FD030000 		.4byte	.LASF28
 549 0278 07       		.byte	0x7
 550 0279 B1       		.byte	0xb1
 551 027a 56020000 		.4byte	0x256
 552 027e 00       		.byte	0
 553 027f 00       		.byte	0
 554 0280 04       		.uleb128 0x4
 555 0281 A8060000 		.4byte	.LASF51
 556 0285 06       		.byte	0x6
 557 0286 50       		.byte	0x50
 558 0287 8B020000 		.4byte	0x28b
 559 028b 06       		.uleb128 0x6
 560 028c B9000000 		.4byte	.LASF52
 561 0290 08       		.byte	0x8
 562 0291 07       		.byte	0x7
 563 0292 B7       		.byte	0xb7
 564 0293 B0020000 		.4byte	0x2b0
 565 0297 07       		.uleb128 0x7
 566 0298 FD030000 		.4byte	.LASF28
 567 029c 07       		.byte	0x7
 568 029d B8       		.byte	0xb8
 569 029e 56020000 		.4byte	0x256
 570 02a2 00       		.byte	0
ARM GAS  C:\Users\IDONNO~1\AppData\Local\Temp\ccRRjj4u.s 			page 11


 571 02a3 07       		.uleb128 0x7
 572 02a4 70030000 		.4byte	.LASF29
 573 02a8 07       		.byte	0x7
 574 02a9 B9       		.byte	0xb9
 575 02aa 56020000 		.4byte	0x256
 576 02ae 04       		.byte	0x4
 577 02af 00       		.byte	0
 578 02b0 04       		.uleb128 0x4
 579 02b1 00000000 		.4byte	.LASF53
 580 02b5 06       		.byte	0x6
 581 02b6 57       		.byte	0x57
 582 02b7 BB020000 		.4byte	0x2bb
 583 02bb 0B       		.uleb128 0xb
 584 02bc 5F020000 		.4byte	.LASF54
 585 02c0 1C       		.byte	0x1c
 586 02c1 07       		.byte	0x7
 587 02c2 9001     		.2byte	0x190
 588 02c4 17030000 		.4byte	0x317
 589 02c8 09       		.uleb128 0x9
 590 02c9 7D040000 		.4byte	.LASF55
 591 02cd 07       		.byte	0x7
 592 02ce 9101     		.2byte	0x191
 593 02d0 80020000 		.4byte	0x280
 594 02d4 00       		.byte	0
 595 02d5 09       		.uleb128 0x9
 596 02d6 EF030000 		.4byte	.LASF56
 597 02da 07       		.byte	0x7
 598 02db 9201     		.2byte	0x192
 599 02dd 04010000 		.4byte	0x104
 600 02e1 08       		.byte	0x8
 601 02e2 09       		.uleb128 0x9
 602 02e3 F6020000 		.4byte	.LASF57
 603 02e7 07       		.byte	0x7
 604 02e8 9401     		.2byte	0x194
 605 02ea 89060000 		.4byte	0x689
 606 02ee 0C       		.byte	0xc
 607 02ef 09       		.uleb128 0x9
 608 02f0 6A010000 		.4byte	.LASF58
 609 02f4 07       		.byte	0x7
 610 02f5 9701     		.2byte	0x197
 611 02f7 56020000 		.4byte	0x256
 612 02fb 10       		.byte	0x10
 613 02fc 09       		.uleb128 0x9
 614 02fd 2A030000 		.4byte	.LASF59
 615 0301 07       		.byte	0x7
 616 0302 9801     		.2byte	0x198
 617 0304 56020000 		.4byte	0x256
 618 0308 14       		.byte	0x14
 619 0309 09       		.uleb128 0x9
 620 030a 20030000 		.4byte	.LASF60
 621 030e 07       		.byte	0x7
 622 030f 9B01     		.2byte	0x19b
 623 0311 56020000 		.4byte	0x256
 624 0315 18       		.byte	0x18
 625 0316 00       		.byte	0
 626 0317 04       		.uleb128 0x4
 627 0318 35060000 		.4byte	.LASF61
ARM GAS  C:\Users\IDONNO~1\AppData\Local\Temp\ccRRjj4u.s 			page 12


 628 031c 06       		.byte	0x6
 629 031d 5C       		.byte	0x5c
 630 031e 22030000 		.4byte	0x322
 631 0322 0A       		.uleb128 0xa
 632 0323 04       		.byte	0x4
 633 0324 28030000 		.4byte	0x328
 634 0328 0C       		.uleb128 0xc
 635 0329 33030000 		.4byte	0x333
 636 032d 0D       		.uleb128 0xd
 637 032e 33030000 		.4byte	0x333
 638 0332 00       		.byte	0
 639 0333 0E       		.uleb128 0xe
 640 0334 04       		.byte	0x4
 641 0335 04       		.uleb128 0x4
 642 0336 60030000 		.4byte	.LASF62
 643 033a 06       		.byte	0x6
 644 033b 61       		.byte	0x61
 645 033c 40030000 		.4byte	0x340
 646 0340 0B       		.uleb128 0xb
 647 0341 44040000 		.4byte	.LASF63
 648 0345 14       		.byte	0x14
 649 0346 07       		.byte	0x7
 650 0347 6B01     		.2byte	0x16b
 651 0349 8F030000 		.4byte	0x38f
 652 034d 09       		.uleb128 0x9
 653 034e DE010000 		.4byte	.LASF64
 654 0352 07       		.byte	0x7
 655 0353 6C01     		.2byte	0x16c
 656 0355 1B0A0000 		.4byte	0xa1b
 657 0359 00       		.byte	0
 658 035a 09       		.uleb128 0x9
 659 035b 7B010000 		.4byte	.LASF65
 660 035f 07       		.byte	0x7
 661 0360 6D01     		.2byte	0x16d
 662 0362 1B0A0000 		.4byte	0xa1b
 663 0366 04       		.byte	0x4
 664 0367 09       		.uleb128 0x9
 665 0368 FF010000 		.4byte	.LASF66
 666 036c 07       		.byte	0x7
 667 036d 6E01     		.2byte	0x16e
 668 036f 30010000 		.4byte	0x130
 669 0373 08       		.byte	0x8
 670 0374 09       		.uleb128 0x9
 671 0375 17070000 		.4byte	.LASF67
 672 0379 07       		.byte	0x7
 673 037a 6F01     		.2byte	0x16f
 674 037c 17030000 		.4byte	0x317
 675 0380 0C       		.byte	0xc
 676 0381 09       		.uleb128 0x9
 677 0382 A1060000 		.4byte	.LASF68
 678 0386 07       		.byte	0x7
 679 0387 7101     		.2byte	0x171
 680 0389 33030000 		.4byte	0x333
 681 038d 10       		.byte	0x10
 682 038e 00       		.byte	0
 683 038f 04       		.uleb128 0x4
 684 0390 9D000000 		.4byte	.LASF69
ARM GAS  C:\Users\IDONNO~1\AppData\Local\Temp\ccRRjj4u.s 			page 13


 685 0394 06       		.byte	0x6
 686 0395 66       		.byte	0x66
 687 0396 9A030000 		.4byte	0x39a
 688 039a 0B       		.uleb128 0xb
 689 039b D2020000 		.4byte	.LASF70
 690 039f 10       		.byte	0x10
 691 03a0 07       		.byte	0x7
 692 03a1 7B01     		.2byte	0x17b
 693 03a3 DC030000 		.4byte	0x3dc
 694 03a7 09       		.uleb128 0x9
 695 03a8 DE010000 		.4byte	.LASF64
 696 03ac 07       		.byte	0x7
 697 03ad 7C01     		.2byte	0x17c
 698 03af 1B0A0000 		.4byte	0xa1b
 699 03b3 00       		.byte	0
 700 03b4 09       		.uleb128 0x9
 701 03b5 7B010000 		.4byte	.LASF65
 702 03b9 07       		.byte	0x7
 703 03ba 7E01     		.2byte	0x17e
 704 03bc 1B0A0000 		.4byte	0xa1b
 705 03c0 04       		.byte	0x4
 706 03c1 09       		.uleb128 0x9
 707 03c2 FF010000 		.4byte	.LASF66
 708 03c6 07       		.byte	0x7
 709 03c7 8001     		.2byte	0x180
 710 03c9 30010000 		.4byte	0x130
 711 03cd 08       		.byte	0x8
 712 03ce 09       		.uleb128 0x9
 713 03cf F4010000 		.4byte	.LASF71
 714 03d3 07       		.byte	0x7
 715 03d4 8201     		.2byte	0x182
 716 03d6 160A0000 		.4byte	0xa16
 717 03da 0C       		.byte	0xc
 718 03db 00       		.byte	0
 719 03dc 04       		.uleb128 0x4
 720 03dd 70000000 		.4byte	.LASF72
 721 03e1 06       		.byte	0x6
 722 03e2 6B       		.byte	0x6b
 723 03e3 E7030000 		.4byte	0x3e7
 724 03e7 0B       		.uleb128 0xb
 725 03e8 8B030000 		.4byte	.LASF73
 726 03ec 04       		.byte	0x4
 727 03ed 07       		.byte	0x7
 728 03ee A201     		.2byte	0x1a2
 729 03f0 02040000 		.4byte	0x402
 730 03f4 09       		.uleb128 0x9
 731 03f5 57060000 		.4byte	.LASF74
 732 03f9 07       		.byte	0x7
 733 03fa AA01     		.2byte	0x1aa
 734 03fc 210A0000 		.4byte	0xa21
 735 0400 00       		.byte	0
 736 0401 00       		.byte	0
 737 0402 04       		.uleb128 0x4
 738 0403 70060000 		.4byte	.LASF75
 739 0407 06       		.byte	0x6
 740 0408 70       		.byte	0x70
 741 0409 0D040000 		.4byte	0x40d
ARM GAS  C:\Users\IDONNO~1\AppData\Local\Temp\ccRRjj4u.s 			page 14


 742 040d 0F       		.uleb128 0xf
 743 040e 1A010000 		.4byte	.LASF76
 744 0412 5802     		.2byte	0x258
 745 0414 07       		.byte	0x7
 746 0415 C201     		.2byte	0x1c2
 747 0417 69040000 		.4byte	0x469
 748 041b 09       		.uleb128 0x9
 749 041c CD060000 		.4byte	.LASF77
 750 0420 07       		.byte	0x7
 751 0421 C601     		.2byte	0x1c6
 752 0423 B0020000 		.4byte	0x2b0
 753 0427 00       		.byte	0
 754 0428 09       		.uleb128 0x9
 755 0429 FD000000 		.4byte	.LASF78
 756 042d 07       		.byte	0x7
 757 042e CA01     		.2byte	0x1ca
 758 0430 8F030000 		.4byte	0x38f
 759 0434 1C       		.byte	0x1c
 760 0435 08       		.uleb128 0x8
 761 0436 64626700 		.ascii	"dbg\000"
 762 043a 07       		.byte	0x7
 763 043b CE01     		.2byte	0x1ce
 764 043d DC030000 		.4byte	0x3dc
 765 0441 2C       		.byte	0x2c
 766 0442 09       		.uleb128 0x9
 767 0443 92000000 		.4byte	.LASF79
 768 0447 07       		.byte	0x7
 769 0448 D201     		.2byte	0x1d2
 770 044a 3B010000 		.4byte	0x13b
 771 044e 30       		.byte	0x30
 772 044f 08       		.uleb128 0x8
 773 0450 746D00   		.ascii	"tm\000"
 774 0453 07       		.byte	0x7
 775 0454 D701     		.2byte	0x1d7
 776 0456 34090000 		.4byte	0x934
 777 045a 78       		.byte	0x78
 778 045b 09       		.uleb128 0x9
 779 045c A9010000 		.4byte	.LASF80
 780 0460 07       		.byte	0x7
 781 0461 E301     		.2byte	0x1e3
 782 0463 260A0000 		.4byte	0xa26
 783 0467 80       		.byte	0x80
 784 0468 00       		.byte	0
 785 0469 03       		.uleb128 0x3
 786 046a 04       		.byte	0x4
 787 046b 07       		.byte	0x7
 788 046c B6020000 		.4byte	.LASF81
 789 0470 10       		.uleb128 0x10
 790 0471 8C       		.byte	0x8c
 791 0472 08       		.byte	0x8
 792 0473 7001     		.2byte	0x170
 793 0475 8B050000 		.4byte	0x58b
 794 0479 09       		.uleb128 0x9
 795 047a B3000000 		.4byte	.LASF82
 796 047e 08       		.byte	0x8
 797 047f 7201     		.2byte	0x172
 798 0481 8B050000 		.4byte	0x58b
ARM GAS  C:\Users\IDONNO~1\AppData\Local\Temp\ccRRjj4u.s 			page 15


 799 0485 00       		.byte	0
 800 0486 09       		.uleb128 0x9
 801 0487 28020000 		.4byte	.LASF83
 802 048b 08       		.byte	0x8
 803 048c 7301     		.2byte	0x173
 804 048e C8000000 		.4byte	0xc8
 805 0492 04       		.byte	0x4
 806 0493 09       		.uleb128 0x9
 807 0494 13020000 		.4byte	.LASF84
 808 0498 08       		.byte	0x8
 809 0499 7401     		.2byte	0x174
 810 049b C8000000 		.4byte	0xc8
 811 049f 08       		.byte	0x8
 812 04a0 09       		.uleb128 0x9
 813 04a1 33020000 		.4byte	.LASF85
 814 04a5 08       		.byte	0x8
 815 04a6 7501     		.2byte	0x175
 816 04a8 C8000000 		.4byte	0xc8
 817 04ac 0C       		.byte	0xc
 818 04ad 08       		.uleb128 0x8
 819 04ae 53435200 		.ascii	"SCR\000"
 820 04b2 08       		.byte	0x8
 821 04b3 7601     		.2byte	0x176
 822 04b5 C8000000 		.4byte	0xc8
 823 04b9 10       		.byte	0x10
 824 04ba 08       		.uleb128 0x8
 825 04bb 43435200 		.ascii	"CCR\000"
 826 04bf 08       		.byte	0x8
 827 04c0 7701     		.2byte	0x177
 828 04c2 C8000000 		.4byte	0xc8
 829 04c6 14       		.byte	0x14
 830 04c7 08       		.uleb128 0x8
 831 04c8 53485000 		.ascii	"SHP\000"
 832 04cc 08       		.byte	0x8
 833 04cd 7801     		.2byte	0x178
 834 04cf A0050000 		.4byte	0x5a0
 835 04d3 18       		.byte	0x18
 836 04d4 09       		.uleb128 0x9
 837 04d5 B1030000 		.4byte	.LASF86
 838 04d9 08       		.byte	0x8
 839 04da 7901     		.2byte	0x179
 840 04dc C8000000 		.4byte	0xc8
 841 04e0 24       		.byte	0x24
 842 04e1 09       		.uleb128 0x9
 843 04e2 E9020000 		.4byte	.LASF87
 844 04e6 08       		.byte	0x8
 845 04e7 7A01     		.2byte	0x17a
 846 04e9 C8000000 		.4byte	0xc8
 847 04ed 28       		.byte	0x28
 848 04ee 09       		.uleb128 0x9
 849 04ef F5060000 		.4byte	.LASF88
 850 04f3 08       		.byte	0x8
 851 04f4 7B01     		.2byte	0x17b
 852 04f6 C8000000 		.4byte	0xc8
 853 04fa 2C       		.byte	0x2c
 854 04fb 09       		.uleb128 0x9
 855 04fc 39020000 		.4byte	.LASF89
ARM GAS  C:\Users\IDONNO~1\AppData\Local\Temp\ccRRjj4u.s 			page 16


 856 0500 08       		.byte	0x8
 857 0501 7C01     		.2byte	0x17c
 858 0503 C8000000 		.4byte	0xc8
 859 0507 30       		.byte	0x30
 860 0508 09       		.uleb128 0x9
 861 0509 3E020000 		.4byte	.LASF90
 862 050d 08       		.byte	0x8
 863 050e 7D01     		.2byte	0x17d
 864 0510 C8000000 		.4byte	0xc8
 865 0514 34       		.byte	0x34
 866 0515 09       		.uleb128 0x9
 867 0516 60010000 		.4byte	.LASF91
 868 051a 08       		.byte	0x8
 869 051b 7E01     		.2byte	0x17e
 870 051d C8000000 		.4byte	0xc8
 871 0521 38       		.byte	0x38
 872 0522 09       		.uleb128 0x9
 873 0523 65010000 		.4byte	.LASF92
 874 0527 08       		.byte	0x8
 875 0528 7F01     		.2byte	0x17f
 876 052a C8000000 		.4byte	0xc8
 877 052e 3C       		.byte	0x3c
 878 052f 08       		.uleb128 0x8
 879 0530 50465200 		.ascii	"PFR\000"
 880 0534 08       		.byte	0x8
 881 0535 8001     		.2byte	0x180
 882 0537 BA050000 		.4byte	0x5ba
 883 053b 40       		.byte	0x40
 884 053c 08       		.uleb128 0x8
 885 053d 44465200 		.ascii	"DFR\000"
 886 0541 08       		.byte	0x8
 887 0542 8101     		.2byte	0x181
 888 0544 8B050000 		.4byte	0x58b
 889 0548 48       		.byte	0x48
 890 0549 08       		.uleb128 0x8
 891 054a 41445200 		.ascii	"ADR\000"
 892 054e 08       		.byte	0x8
 893 054f 8201     		.2byte	0x182
 894 0551 8B050000 		.4byte	0x58b
 895 0555 4C       		.byte	0x4c
 896 0556 09       		.uleb128 0x9
 897 0557 C8060000 		.4byte	.LASF93
 898 055b 08       		.byte	0x8
 899 055c 8301     		.2byte	0x183
 900 055e D4050000 		.4byte	0x5d4
 901 0562 50       		.byte	0x50
 902 0563 09       		.uleb128 0x9
 903 0564 F8000000 		.4byte	.LASF94
 904 0568 08       		.byte	0x8
 905 0569 8401     		.2byte	0x184
 906 056b EE050000 		.4byte	0x5ee
 907 056f 60       		.byte	0x60
 908 0570 09       		.uleb128 0x9
 909 0571 51030000 		.4byte	.LASF95
 910 0575 08       		.byte	0x8
 911 0576 8501     		.2byte	0x185
 912 0578 D9050000 		.4byte	0x5d9
ARM GAS  C:\Users\IDONNO~1\AppData\Local\Temp\ccRRjj4u.s 			page 17


 913 057c 74       		.byte	0x74
 914 057d 09       		.uleb128 0x9
 915 057e EF060000 		.4byte	.LASF96
 916 0582 08       		.byte	0x8
 917 0583 8601     		.2byte	0x186
 918 0585 C8000000 		.4byte	0xc8
 919 0589 88       		.byte	0x88
 920 058a 00       		.byte	0
 921 058b 11       		.uleb128 0x11
 922 058c C8000000 		.4byte	0xc8
 923 0590 12       		.uleb128 0x12
 924 0591 97000000 		.4byte	0x97
 925 0595 A0050000 		.4byte	0x5a0
 926 0599 13       		.uleb128 0x13
 927 059a 69040000 		.4byte	0x469
 928 059e 0B       		.byte	0xb
 929 059f 00       		.byte	0
 930 05a0 05       		.uleb128 0x5
 931 05a1 90050000 		.4byte	0x590
 932 05a5 12       		.uleb128 0x12
 933 05a6 AD000000 		.4byte	0xad
 934 05aa B5050000 		.4byte	0x5b5
 935 05ae 13       		.uleb128 0x13
 936 05af 69040000 		.4byte	0x469
 937 05b3 01       		.byte	0x1
 938 05b4 00       		.byte	0
 939 05b5 05       		.uleb128 0x5
 940 05b6 A5050000 		.4byte	0x5a5
 941 05ba 11       		.uleb128 0x11
 942 05bb B5050000 		.4byte	0x5b5
 943 05bf 12       		.uleb128 0x12
 944 05c0 AD000000 		.4byte	0xad
 945 05c4 CF050000 		.4byte	0x5cf
 946 05c8 13       		.uleb128 0x13
 947 05c9 69040000 		.4byte	0x469
 948 05cd 03       		.byte	0x3
 949 05ce 00       		.byte	0
 950 05cf 05       		.uleb128 0x5
 951 05d0 BF050000 		.4byte	0x5bf
 952 05d4 11       		.uleb128 0x11
 953 05d5 CF050000 		.4byte	0x5cf
 954 05d9 12       		.uleb128 0x12
 955 05da AD000000 		.4byte	0xad
 956 05de E9050000 		.4byte	0x5e9
 957 05e2 13       		.uleb128 0x13
 958 05e3 69040000 		.4byte	0x469
 959 05e7 04       		.byte	0x4
 960 05e8 00       		.byte	0
 961 05e9 05       		.uleb128 0x5
 962 05ea D9050000 		.4byte	0x5d9
 963 05ee 11       		.uleb128 0x11
 964 05ef E9050000 		.4byte	0x5e9
 965 05f3 14       		.uleb128 0x14
 966 05f4 83010000 		.4byte	.LASF97
 967 05f8 08       		.byte	0x8
 968 05f9 8701     		.2byte	0x187
 969 05fb 70040000 		.4byte	0x470
ARM GAS  C:\Users\IDONNO~1\AppData\Local\Temp\ccRRjj4u.s 			page 18


 970 05ff 12       		.uleb128 0x12
 971 0600 AD000000 		.4byte	0xad
 972 0604 0F060000 		.4byte	0x60f
 973 0608 13       		.uleb128 0x13
 974 0609 69040000 		.4byte	0x469
 975 060d 00       		.byte	0
 976 060e 00       		.byte	0
 977 060f 10       		.uleb128 0x10
 978 0610 18       		.byte	0x18
 979 0611 08       		.byte	0x8
 980 0612 8E04     		.2byte	0x48e
 981 0614 67060000 		.4byte	0x667
 982 0618 09       		.uleb128 0x9
 983 0619 51030000 		.4byte	.LASF95
 984 061d 08       		.byte	0x8
 985 061e 9004     		.2byte	0x490
 986 0620 FF050000 		.4byte	0x5ff
 987 0624 00       		.byte	0
 988 0625 09       		.uleb128 0x9
 989 0626 3E040000 		.4byte	.LASF98
 990 062a 08       		.byte	0x8
 991 062b 9104     		.2byte	0x491
 992 062d C8000000 		.4byte	0xc8
 993 0631 04       		.byte	0x4
 994 0632 09       		.uleb128 0x9
 995 0633 2C040000 		.4byte	.LASF99
 996 0637 08       		.byte	0x8
 997 0638 9204     		.2byte	0x492
 998 063a C8000000 		.4byte	0xc8
 999 063e 08       		.byte	0x8
 1000 063f 09       		.uleb128 0x9
 1001 0640 3E000000 		.4byte	.LASF100
 1002 0644 08       		.byte	0x8
 1003 0645 9304     		.2byte	0x493
 1004 0647 C8000000 		.4byte	0xc8
 1005 064b 0C       		.byte	0xc
 1006 064c 09       		.uleb128 0x9
 1007 064d 3D030000 		.4byte	.LASF101
 1008 0651 08       		.byte	0x8
 1009 0652 9404     		.2byte	0x494
 1010 0654 8B050000 		.4byte	0x58b
 1011 0658 10       		.byte	0x10
 1012 0659 09       		.uleb128 0x9
 1013 065a 43030000 		.4byte	.LASF102
 1014 065e 08       		.byte	0x8
 1015 065f 9504     		.2byte	0x495
 1016 0661 8B050000 		.4byte	0x58b
 1017 0665 14       		.byte	0x14
 1018 0666 00       		.byte	0
 1019 0667 14       		.uleb128 0x14
 1020 0668 BE010000 		.4byte	.LASF103
 1021 066c 08       		.byte	0x8
 1022 066d 9604     		.2byte	0x496
 1023 066f 0F060000 		.4byte	0x60f
 1024 0673 04       		.uleb128 0x4
 1025 0674 72010000 		.4byte	.LASF104
 1026 0678 09       		.byte	0x9
ARM GAS  C:\Users\IDONNO~1\AppData\Local\Temp\ccRRjj4u.s 			page 19


 1027 0679 65       		.byte	0x65
 1028 067a 33030000 		.4byte	0x333
 1029 067e 04       		.uleb128 0x4
 1030 067f 92020000 		.4byte	.LASF105
 1031 0683 09       		.byte	0x9
 1032 0684 6D       		.byte	0x6d
 1033 0685 B8000000 		.4byte	0xb8
 1034 0689 06       		.uleb128 0x6
 1035 068a 68060000 		.4byte	.LASF106
 1036 068e 04       		.byte	0x4
 1037 068f 09       		.byte	0x9
 1038 0690 89       		.byte	0x89
 1039 0691 A2060000 		.4byte	0x6a2
 1040 0695 15       		.uleb128 0x15
 1041 0696 72313300 		.ascii	"r13\000"
 1042 069a 09       		.byte	0x9
 1043 069b 8A       		.byte	0x8a
 1044 069c E3070000 		.4byte	0x7e3
 1045 06a0 00       		.byte	0
 1046 06a1 00       		.byte	0
 1047 06a2 06       		.uleb128 0x6
 1048 06a3 64000000 		.4byte	.LASF107
 1049 06a7 64       		.byte	0x64
 1050 06a8 0A       		.byte	0xa
 1051 06a9 F4       		.byte	0xf4
 1052 06aa E3070000 		.4byte	0x7e3
 1053 06ae 15       		.uleb128 0x15
 1054 06af 73313600 		.ascii	"s16\000"
 1055 06b3 0A       		.byte	0xa
 1056 06b4 F6       		.byte	0xf6
 1057 06b5 73060000 		.4byte	0x673
 1058 06b9 00       		.byte	0
 1059 06ba 15       		.uleb128 0x15
 1060 06bb 73313700 		.ascii	"s17\000"
 1061 06bf 0A       		.byte	0xa
 1062 06c0 F7       		.byte	0xf7
 1063 06c1 73060000 		.4byte	0x673
 1064 06c5 04       		.byte	0x4
 1065 06c6 15       		.uleb128 0x15
 1066 06c7 73313800 		.ascii	"s18\000"
 1067 06cb 0A       		.byte	0xa
 1068 06cc F8       		.byte	0xf8
 1069 06cd 73060000 		.4byte	0x673
 1070 06d1 08       		.byte	0x8
 1071 06d2 15       		.uleb128 0x15
 1072 06d3 73313900 		.ascii	"s19\000"
 1073 06d7 0A       		.byte	0xa
 1074 06d8 F9       		.byte	0xf9
 1075 06d9 73060000 		.4byte	0x673
 1076 06dd 0C       		.byte	0xc
 1077 06de 15       		.uleb128 0x15
 1078 06df 73323000 		.ascii	"s20\000"
 1079 06e3 0A       		.byte	0xa
 1080 06e4 FA       		.byte	0xfa
 1081 06e5 73060000 		.4byte	0x673
 1082 06e9 10       		.byte	0x10
 1083 06ea 15       		.uleb128 0x15
ARM GAS  C:\Users\IDONNO~1\AppData\Local\Temp\ccRRjj4u.s 			page 20


 1084 06eb 73323100 		.ascii	"s21\000"
 1085 06ef 0A       		.byte	0xa
 1086 06f0 FB       		.byte	0xfb
 1087 06f1 73060000 		.4byte	0x673
 1088 06f5 14       		.byte	0x14
 1089 06f6 15       		.uleb128 0x15
 1090 06f7 73323200 		.ascii	"s22\000"
 1091 06fb 0A       		.byte	0xa
 1092 06fc FC       		.byte	0xfc
 1093 06fd 73060000 		.4byte	0x673
 1094 0701 18       		.byte	0x18
 1095 0702 15       		.uleb128 0x15
 1096 0703 73323300 		.ascii	"s23\000"
 1097 0707 0A       		.byte	0xa
 1098 0708 FD       		.byte	0xfd
 1099 0709 73060000 		.4byte	0x673
 1100 070d 1C       		.byte	0x1c
 1101 070e 15       		.uleb128 0x15
 1102 070f 73323400 		.ascii	"s24\000"
 1103 0713 0A       		.byte	0xa
 1104 0714 FE       		.byte	0xfe
 1105 0715 73060000 		.4byte	0x673
 1106 0719 20       		.byte	0x20
 1107 071a 15       		.uleb128 0x15
 1108 071b 73323500 		.ascii	"s25\000"
 1109 071f 0A       		.byte	0xa
 1110 0720 FF       		.byte	0xff
 1111 0721 73060000 		.4byte	0x673
 1112 0725 24       		.byte	0x24
 1113 0726 08       		.uleb128 0x8
 1114 0727 73323600 		.ascii	"s26\000"
 1115 072b 0A       		.byte	0xa
 1116 072c 0001     		.2byte	0x100
 1117 072e 73060000 		.4byte	0x673
 1118 0732 28       		.byte	0x28
 1119 0733 08       		.uleb128 0x8
 1120 0734 73323700 		.ascii	"s27\000"
 1121 0738 0A       		.byte	0xa
 1122 0739 0101     		.2byte	0x101
 1123 073b 73060000 		.4byte	0x673
 1124 073f 2C       		.byte	0x2c
 1125 0740 08       		.uleb128 0x8
 1126 0741 73323800 		.ascii	"s28\000"
 1127 0745 0A       		.byte	0xa
 1128 0746 0201     		.2byte	0x102
 1129 0748 73060000 		.4byte	0x673
 1130 074c 30       		.byte	0x30
 1131 074d 08       		.uleb128 0x8
 1132 074e 73323900 		.ascii	"s29\000"
 1133 0752 0A       		.byte	0xa
 1134 0753 0301     		.2byte	0x103
 1135 0755 73060000 		.4byte	0x673
 1136 0759 34       		.byte	0x34
 1137 075a 08       		.uleb128 0x8
 1138 075b 73333000 		.ascii	"s30\000"
 1139 075f 0A       		.byte	0xa
 1140 0760 0401     		.2byte	0x104
ARM GAS  C:\Users\IDONNO~1\AppData\Local\Temp\ccRRjj4u.s 			page 21


 1141 0762 73060000 		.4byte	0x673
 1142 0766 38       		.byte	0x38
 1143 0767 08       		.uleb128 0x8
 1144 0768 73333100 		.ascii	"s31\000"
 1145 076c 0A       		.byte	0xa
 1146 076d 0501     		.2byte	0x105
 1147 076f 73060000 		.4byte	0x673
 1148 0773 3C       		.byte	0x3c
 1149 0774 08       		.uleb128 0x8
 1150 0775 723400   		.ascii	"r4\000"
 1151 0778 0A       		.byte	0xa
 1152 0779 0701     		.2byte	0x107
 1153 077b 73060000 		.4byte	0x673
 1154 077f 40       		.byte	0x40
 1155 0780 08       		.uleb128 0x8
 1156 0781 723500   		.ascii	"r5\000"
 1157 0784 0A       		.byte	0xa
 1158 0785 0801     		.2byte	0x108
 1159 0787 73060000 		.4byte	0x673
 1160 078b 44       		.byte	0x44
 1161 078c 08       		.uleb128 0x8
 1162 078d 723600   		.ascii	"r6\000"
 1163 0790 0A       		.byte	0xa
 1164 0791 0901     		.2byte	0x109
 1165 0793 73060000 		.4byte	0x673
 1166 0797 48       		.byte	0x48
 1167 0798 08       		.uleb128 0x8
 1168 0799 723700   		.ascii	"r7\000"
 1169 079c 0A       		.byte	0xa
 1170 079d 0A01     		.2byte	0x10a
 1171 079f 73060000 		.4byte	0x673
 1172 07a3 4C       		.byte	0x4c
 1173 07a4 08       		.uleb128 0x8
 1174 07a5 723800   		.ascii	"r8\000"
 1175 07a8 0A       		.byte	0xa
 1176 07a9 0B01     		.2byte	0x10b
 1177 07ab 73060000 		.4byte	0x673
 1178 07af 50       		.byte	0x50
 1179 07b0 08       		.uleb128 0x8
 1180 07b1 723900   		.ascii	"r9\000"
 1181 07b4 0A       		.byte	0xa
 1182 07b5 0C01     		.2byte	0x10c
 1183 07b7 73060000 		.4byte	0x673
 1184 07bb 54       		.byte	0x54
 1185 07bc 08       		.uleb128 0x8
 1186 07bd 72313000 		.ascii	"r10\000"
 1187 07c1 0A       		.byte	0xa
 1188 07c2 0D01     		.2byte	0x10d
 1189 07c4 73060000 		.4byte	0x673
 1190 07c8 58       		.byte	0x58
 1191 07c9 08       		.uleb128 0x8
 1192 07ca 72313100 		.ascii	"r11\000"
 1193 07ce 0A       		.byte	0xa
 1194 07cf 0E01     		.2byte	0x10e
 1195 07d1 73060000 		.4byte	0x673
 1196 07d5 5C       		.byte	0x5c
 1197 07d6 08       		.uleb128 0x8
ARM GAS  C:\Users\IDONNO~1\AppData\Local\Temp\ccRRjj4u.s 			page 22


 1198 07d7 6C7200   		.ascii	"lr\000"
 1199 07da 0A       		.byte	0xa
 1200 07db 0F01     		.2byte	0x10f
 1201 07dd 73060000 		.4byte	0x673
 1202 07e1 60       		.byte	0x60
 1203 07e2 00       		.byte	0
 1204 07e3 0A       		.uleb128 0xa
 1205 07e4 04       		.byte	0x4
 1206 07e5 A2060000 		.4byte	0x6a2
 1207 07e9 06       		.uleb128 0x6
 1208 07ea FC020000 		.4byte	.LASF108
 1209 07ee 68       		.byte	0x68
 1210 07ef 0A       		.byte	0xa
 1211 07f0 D5       		.byte	0xd5
 1212 07f1 1F090000 		.4byte	0x91f
 1213 07f5 15       		.uleb128 0x15
 1214 07f6 723000   		.ascii	"r0\000"
 1215 07f9 0A       		.byte	0xa
 1216 07fa D6       		.byte	0xd6
 1217 07fb 73060000 		.4byte	0x673
 1218 07ff 00       		.byte	0
 1219 0800 15       		.uleb128 0x15
 1220 0801 723100   		.ascii	"r1\000"
 1221 0804 0A       		.byte	0xa
 1222 0805 D7       		.byte	0xd7
 1223 0806 73060000 		.4byte	0x673
 1224 080a 04       		.byte	0x4
 1225 080b 15       		.uleb128 0x15
 1226 080c 723200   		.ascii	"r2\000"
 1227 080f 0A       		.byte	0xa
 1228 0810 D8       		.byte	0xd8
 1229 0811 73060000 		.4byte	0x673
 1230 0815 08       		.byte	0x8
 1231 0816 15       		.uleb128 0x15
 1232 0817 723300   		.ascii	"r3\000"
 1233 081a 0A       		.byte	0xa
 1234 081b D9       		.byte	0xd9
 1235 081c 73060000 		.4byte	0x673
 1236 0820 0C       		.byte	0xc
 1237 0821 15       		.uleb128 0x15
 1238 0822 72313200 		.ascii	"r12\000"
 1239 0826 0A       		.byte	0xa
 1240 0827 DA       		.byte	0xda
 1241 0828 73060000 		.4byte	0x673
 1242 082c 10       		.byte	0x10
 1243 082d 07       		.uleb128 0x7
 1244 082e 25040000 		.4byte	.LASF109
 1245 0832 0A       		.byte	0xa
 1246 0833 DB       		.byte	0xdb
 1247 0834 73060000 		.4byte	0x673
 1248 0838 14       		.byte	0x14
 1249 0839 15       		.uleb128 0x15
 1250 083a 706300   		.ascii	"pc\000"
 1251 083d 0A       		.byte	0xa
 1252 083e DC       		.byte	0xdc
 1253 083f 73060000 		.4byte	0x673
 1254 0843 18       		.byte	0x18
ARM GAS  C:\Users\IDONNO~1\AppData\Local\Temp\ccRRjj4u.s 			page 23


 1255 0844 07       		.uleb128 0x7
 1256 0845 EA030000 		.4byte	.LASF110
 1257 0849 0A       		.byte	0xa
 1258 084a DD       		.byte	0xdd
 1259 084b 73060000 		.4byte	0x673
 1260 084f 1C       		.byte	0x1c
 1261 0850 15       		.uleb128 0x15
 1262 0851 733000   		.ascii	"s0\000"
 1263 0854 0A       		.byte	0xa
 1264 0855 DF       		.byte	0xdf
 1265 0856 73060000 		.4byte	0x673
 1266 085a 20       		.byte	0x20
 1267 085b 15       		.uleb128 0x15
 1268 085c 733100   		.ascii	"s1\000"
 1269 085f 0A       		.byte	0xa
 1270 0860 E0       		.byte	0xe0
 1271 0861 73060000 		.4byte	0x673
 1272 0865 24       		.byte	0x24
 1273 0866 15       		.uleb128 0x15
 1274 0867 733200   		.ascii	"s2\000"
 1275 086a 0A       		.byte	0xa
 1276 086b E1       		.byte	0xe1
 1277 086c 73060000 		.4byte	0x673
 1278 0870 28       		.byte	0x28
 1279 0871 15       		.uleb128 0x15
 1280 0872 733300   		.ascii	"s3\000"
 1281 0875 0A       		.byte	0xa
 1282 0876 E2       		.byte	0xe2
 1283 0877 73060000 		.4byte	0x673
 1284 087b 2C       		.byte	0x2c
 1285 087c 15       		.uleb128 0x15
 1286 087d 733400   		.ascii	"s4\000"
 1287 0880 0A       		.byte	0xa
 1288 0881 E3       		.byte	0xe3
 1289 0882 73060000 		.4byte	0x673
 1290 0886 30       		.byte	0x30
 1291 0887 15       		.uleb128 0x15
 1292 0888 733500   		.ascii	"s5\000"
 1293 088b 0A       		.byte	0xa
 1294 088c E4       		.byte	0xe4
 1295 088d 73060000 		.4byte	0x673
 1296 0891 34       		.byte	0x34
 1297 0892 15       		.uleb128 0x15
 1298 0893 733600   		.ascii	"s6\000"
 1299 0896 0A       		.byte	0xa
 1300 0897 E5       		.byte	0xe5
 1301 0898 73060000 		.4byte	0x673
 1302 089c 38       		.byte	0x38
 1303 089d 15       		.uleb128 0x15
 1304 089e 733700   		.ascii	"s7\000"
 1305 08a1 0A       		.byte	0xa
 1306 08a2 E6       		.byte	0xe6
 1307 08a3 73060000 		.4byte	0x673
 1308 08a7 3C       		.byte	0x3c
 1309 08a8 15       		.uleb128 0x15
 1310 08a9 733800   		.ascii	"s8\000"
 1311 08ac 0A       		.byte	0xa
ARM GAS  C:\Users\IDONNO~1\AppData\Local\Temp\ccRRjj4u.s 			page 24


 1312 08ad E7       		.byte	0xe7
 1313 08ae 73060000 		.4byte	0x673
 1314 08b2 40       		.byte	0x40
 1315 08b3 15       		.uleb128 0x15
 1316 08b4 733900   		.ascii	"s9\000"
 1317 08b7 0A       		.byte	0xa
 1318 08b8 E8       		.byte	0xe8
 1319 08b9 73060000 		.4byte	0x673
 1320 08bd 44       		.byte	0x44
 1321 08be 15       		.uleb128 0x15
 1322 08bf 73313000 		.ascii	"s10\000"
 1323 08c3 0A       		.byte	0xa
 1324 08c4 E9       		.byte	0xe9
 1325 08c5 73060000 		.4byte	0x673
 1326 08c9 48       		.byte	0x48
 1327 08ca 15       		.uleb128 0x15
 1328 08cb 73313100 		.ascii	"s11\000"
 1329 08cf 0A       		.byte	0xa
 1330 08d0 EA       		.byte	0xea
 1331 08d1 73060000 		.4byte	0x673
 1332 08d5 4C       		.byte	0x4c
 1333 08d6 15       		.uleb128 0x15
 1334 08d7 73313200 		.ascii	"s12\000"
 1335 08db 0A       		.byte	0xa
 1336 08dc EB       		.byte	0xeb
 1337 08dd 73060000 		.4byte	0x673
 1338 08e1 50       		.byte	0x50
 1339 08e2 15       		.uleb128 0x15
 1340 08e3 73313300 		.ascii	"s13\000"
 1341 08e7 0A       		.byte	0xa
 1342 08e8 EC       		.byte	0xec
 1343 08e9 73060000 		.4byte	0x673
 1344 08ed 54       		.byte	0x54
 1345 08ee 15       		.uleb128 0x15
 1346 08ef 73313400 		.ascii	"s14\000"
 1347 08f3 0A       		.byte	0xa
 1348 08f4 ED       		.byte	0xed
 1349 08f5 73060000 		.4byte	0x673
 1350 08f9 58       		.byte	0x58
 1351 08fa 15       		.uleb128 0x15
 1352 08fb 73313500 		.ascii	"s15\000"
 1353 08ff 0A       		.byte	0xa
 1354 0900 EE       		.byte	0xee
 1355 0901 73060000 		.4byte	0x673
 1356 0905 5C       		.byte	0x5c
 1357 0906 07       		.uleb128 0x7
 1358 0907 04040000 		.4byte	.LASF111
 1359 090b 0A       		.byte	0xa
 1360 090c EF       		.byte	0xef
 1361 090d 73060000 		.4byte	0x673
 1362 0911 60       		.byte	0x60
 1363 0912 07       		.uleb128 0x7
 1364 0913 8C010000 		.4byte	.LASF112
 1365 0917 0A       		.byte	0xa
 1366 0918 F0       		.byte	0xf0
 1367 0919 73060000 		.4byte	0x673
 1368 091d 64       		.byte	0x64
ARM GAS  C:\Users\IDONNO~1\AppData\Local\Temp\ccRRjj4u.s 			page 25


 1369 091e 00       		.byte	0
 1370 091f 16       		.uleb128 0x16
 1371 0920 04       		.byte	0x4
 1372 0921 0B       		.byte	0xb
 1373 0922 38       		.byte	0x38
 1374 0923 34090000 		.4byte	0x934
 1375 0927 07       		.uleb128 0x7
 1376 0928 61060000 		.4byte	.LASF113
 1377 092c 0B       		.byte	0xb
 1378 092d 3C       		.byte	0x3c
 1379 092e CD000000 		.4byte	0xcd
 1380 0932 00       		.byte	0
 1381 0933 00       		.byte	0
 1382 0934 04       		.uleb128 0x4
 1383 0935 08030000 		.4byte	.LASF114
 1384 0939 0B       		.byte	0xb
 1385 093a 3D       		.byte	0x3d
 1386 093b 1F090000 		.4byte	0x91f
 1387 093f 17       		.uleb128 0x17
 1388 0940 04       		.byte	0x4
 1389 0941 07       		.byte	0x7
 1390 0942 FA       		.byte	0xfa
 1391 0943 9C090000 		.4byte	0x99c
 1392 0947 18       		.uleb128 0x18
 1393 0948 37000000 		.4byte	.LASF115
 1394 094c 07       		.byte	0x7
 1395 094d 0101     		.2byte	0x101
 1396 094f 0F010000 		.4byte	0x10f
 1397 0953 18       		.uleb128 0x18
 1398 0954 89000000 		.4byte	.LASF116
 1399 0958 07       		.byte	0x7
 1400 0959 0801     		.2byte	0x108
 1401 095b 0F010000 		.4byte	0x10f
 1402 095f 18       		.uleb128 0x18
 1403 0960 DB060000 		.4byte	.LASF117
 1404 0964 07       		.byte	0x7
 1405 0965 0F01     		.2byte	0x10f
 1406 0967 33030000 		.4byte	0x333
 1407 096b 18       		.uleb128 0x18
 1408 096c 0D000000 		.4byte	.LASF118
 1409 0970 07       		.byte	0x7
 1410 0971 1601     		.2byte	0x116
 1411 0973 9C090000 		.4byte	0x99c
 1412 0977 18       		.uleb128 0x18
 1413 0978 ED010000 		.4byte	.LASF119
 1414 097c 07       		.byte	0x7
 1415 097d 1E01     		.2byte	0x11e
 1416 097f C7090000 		.4byte	0x9c7
 1417 0983 18       		.uleb128 0x18
 1418 0984 76040000 		.4byte	.LASF120
 1419 0988 07       		.byte	0x7
 1420 0989 2701     		.2byte	0x127
 1421 098b FE090000 		.4byte	0x9fe
 1422 098f 18       		.uleb128 0x18
 1423 0990 F6030000 		.4byte	.LASF121
 1424 0994 07       		.byte	0x7
 1425 0995 2F01     		.2byte	0x12f
ARM GAS  C:\Users\IDONNO~1\AppData\Local\Temp\ccRRjj4u.s 			page 26


 1426 0997 1A010000 		.4byte	0x11a
 1427 099b 00       		.byte	0
 1428 099c 0A       		.uleb128 0xa
 1429 099d 04       		.byte	0x4
 1430 099e 4B020000 		.4byte	0x24b
 1431 09a2 06       		.uleb128 0x6
 1432 09a3 55040000 		.4byte	.LASF122
 1433 09a7 0C       		.byte	0xc
 1434 09a8 0C       		.byte	0xc
 1435 09a9 34       		.byte	0x34
 1436 09aa C7090000 		.4byte	0x9c7
 1437 09ae 07       		.uleb128 0x7
 1438 09af 58010000 		.4byte	.LASF123
 1439 09b3 0C       		.byte	0xc
 1440 09b4 35       		.byte	0x35
 1441 09b5 80020000 		.4byte	0x280
 1442 09b9 00       		.byte	0
 1443 09ba 07       		.uleb128 0x7
 1444 09bb 18020000 		.4byte	.LASF124
 1445 09bf 0C       		.byte	0xc
 1446 09c0 37       		.byte	0x37
 1447 09c1 25010000 		.4byte	0x125
 1448 09c5 08       		.byte	0x8
 1449 09c6 00       		.byte	0
 1450 09c7 0A       		.uleb128 0xa
 1451 09c8 04       		.byte	0x4
 1452 09c9 A2090000 		.4byte	0x9a2
 1453 09cd 06       		.uleb128 0x6
 1454 09ce B8060000 		.4byte	.LASF125
 1455 09d2 10       		.byte	0x10
 1456 09d3 0D       		.byte	0xd
 1457 09d4 39       		.byte	0x39
 1458 09d5 FE090000 		.4byte	0x9fe
 1459 09d9 07       		.uleb128 0x7
 1460 09da F0000000 		.4byte	.LASF126
 1461 09de 0D       		.byte	0xd
 1462 09df 3A       		.byte	0x3a
 1463 09e0 80020000 		.4byte	0x280
 1464 09e4 00       		.byte	0
 1465 09e5 07       		.uleb128 0x7
 1466 09e6 02070000 		.4byte	.LASF127
 1467 09ea 0D       		.byte	0xd
 1468 09eb 3C       		.byte	0x3c
 1469 09ec 56020000 		.4byte	0x256
 1470 09f0 08       		.byte	0x8
 1471 09f1 07       		.uleb128 0x7
 1472 09f2 19030000 		.4byte	.LASF128
 1473 09f6 0D       		.byte	0xd
 1474 09f7 3E       		.byte	0x3e
 1475 09f8 410A0000 		.4byte	0xa41
 1476 09fc 0C       		.byte	0xc
 1477 09fd 00       		.byte	0
 1478 09fe 0A       		.uleb128 0xa
 1479 09ff 04       		.byte	0x4
 1480 0a00 CD090000 		.4byte	0x9cd
 1481 0a04 0A       		.uleb128 0xa
 1482 0a05 04       		.byte	0x4
ARM GAS  C:\Users\IDONNO~1\AppData\Local\Temp\ccRRjj4u.s 			page 27


 1483 0a06 110A0000 		.4byte	0xa11
 1484 0a0a 03       		.uleb128 0x3
 1485 0a0b 01       		.byte	0x1
 1486 0a0c 08       		.byte	0x8
 1487 0a0d A7040000 		.4byte	.LASF129
 1488 0a11 11       		.uleb128 0x11
 1489 0a12 0A0A0000 		.4byte	0xa0a
 1490 0a16 05       		.uleb128 0x5
 1491 0a17 30010000 		.4byte	0x130
 1492 0a1b 0A       		.uleb128 0xa
 1493 0a1c 04       		.byte	0x4
 1494 0a1d 35030000 		.4byte	0x335
 1495 0a21 05       		.uleb128 0x5
 1496 0a22 040A0000 		.4byte	0xa04
 1497 0a26 12       		.uleb128 0x12
 1498 0a27 7E060000 		.4byte	0x67e
 1499 0a2b 360A0000 		.4byte	0xa36
 1500 0a2f 13       		.uleb128 0x13
 1501 0a30 69040000 		.4byte	0x469
 1502 0a34 3A       		.byte	0x3a
 1503 0a35 00       		.byte	0
 1504 0a36 04       		.uleb128 0x4
 1505 0a37 FA060000 		.4byte	.LASF130
 1506 0a3b 0D       		.byte	0xd
 1507 0a3c 34       		.byte	0x34
 1508 0a3d CD090000 		.4byte	0x9cd
 1509 0a41 0A       		.uleb128 0xa
 1510 0a42 04       		.byte	0x4
 1511 0a43 360A0000 		.4byte	0xa36
 1512 0a47 19       		.uleb128 0x19
 1513 0a48 49060000 		.4byte	.LASF133
 1514 0a4c 02       		.byte	0x2
 1515 0a4d 2002     		.2byte	0x220
 1516 0a4f 03       		.byte	0x3
 1517 0a50 610A0000 		.4byte	0xa61
 1518 0a54 1A       		.uleb128 0x1a
 1519 0a55 A3010000 		.4byte	.LASF135
 1520 0a59 02       		.byte	0x2
 1521 0a5a 2002     		.2byte	0x220
 1522 0a5c AD000000 		.4byte	0xad
 1523 0a60 00       		.byte	0
 1524 0a61 1B       		.uleb128 0x1b
 1525 0a62 7F000000 		.4byte	.LASF131
 1526 0a66 0A       		.byte	0xa
 1527 0a67 BC01     		.2byte	0x1bc
 1528 0a69 03       		.byte	0x3
 1529 0a6a 1B       		.uleb128 0x1b
 1530 0a6b 04010000 		.4byte	.LASF132
 1531 0a6f 0A       		.byte	0xa
 1532 0a70 CA01     		.2byte	0x1ca
 1533 0a72 03       		.byte	0x3
 1534 0a73 19       		.uleb128 0x19
 1535 0a74 D4010000 		.4byte	.LASF134
 1536 0a78 02       		.byte	0x2
 1537 0a79 B701     		.2byte	0x1b7
 1538 0a7b 03       		.byte	0x3
 1539 0a7c 8D0A0000 		.4byte	0xa8d
ARM GAS  C:\Users\IDONNO~1\AppData\Local\Temp\ccRRjj4u.s 			page 28


 1540 0a80 1A       		.uleb128 0x1a
 1541 0a81 79020000 		.4byte	.LASF136
 1542 0a85 02       		.byte	0x2
 1543 0a86 B701     		.2byte	0x1b7
 1544 0a88 AD000000 		.4byte	0xad
 1545 0a8c 00       		.byte	0
 1546 0a8d 1C       		.uleb128 0x1c
 1547 0a8e 97060000 		.4byte	.LASF138
 1548 0a92 02       		.byte	0x2
 1549 0a93 A801     		.2byte	0x1a8
 1550 0a95 AD000000 		.4byte	0xad
 1551 0a99 03       		.byte	0x3
 1552 0a9a AB0A0000 		.4byte	0xaab
 1553 0a9e 1D       		.uleb128 0x1d
 1554 0a9f 0A070000 		.4byte	.LASF140
 1555 0aa3 02       		.byte	0x2
 1556 0aa4 AA01     		.2byte	0x1aa
 1557 0aa6 AD000000 		.4byte	0xad
 1558 0aaa 00       		.byte	0
 1559 0aab 1B       		.uleb128 0x1b
 1560 0aac DE040000 		.4byte	.LASF137
 1561 0ab0 0A       		.byte	0xa
 1562 0ab1 E401     		.2byte	0x1e4
 1563 0ab3 03       		.byte	0x3
 1564 0ab4 1C       		.uleb128 0x1c
 1565 0ab5 7F030000 		.4byte	.LASF139
 1566 0ab9 02       		.byte	0x2
 1567 0aba 4B02     		.2byte	0x24b
 1568 0abc AD000000 		.4byte	0xad
 1569 0ac0 03       		.byte	0x3
 1570 0ac1 D20A0000 		.4byte	0xad2
 1571 0ac5 1D       		.uleb128 0x1d
 1572 0ac6 0A070000 		.4byte	.LASF140
 1573 0aca 02       		.byte	0x2
 1574 0acb 4E02     		.2byte	0x24e
 1575 0acd AD000000 		.4byte	0xad
 1576 0ad1 00       		.byte	0
 1577 0ad2 1B       		.uleb128 0x1b
 1578 0ad3 84060000 		.4byte	.LASF141
 1579 0ad7 0A       		.byte	0xa
 1580 0ad8 D901     		.2byte	0x1d9
 1581 0ada 03       		.byte	0x3
 1582 0adb 1E       		.uleb128 0x1e
 1583 0adc 32040000 		.4byte	.LASF142
 1584 0ae0 01       		.byte	0x1
 1585 0ae1 3E       		.byte	0x3e
 1586 0ae2 00000000 		.4byte	.LFB219
 1587 0ae6 20000000 		.4byte	.LFE219-.LFB219
 1588 0aea 01       		.uleb128 0x1
 1589 0aeb 9C       		.byte	0x9c
 1590 0aec 7B0B0000 		.4byte	0xb7b
 1591 0af0 1F       		.uleb128 0x1f
 1592 0af1 5B030000 		.4byte	.LASF144
 1593 0af5 01       		.byte	0x1
 1594 0af6 40       		.byte	0x40
 1595 0af7 7B0B0000 		.4byte	0xb7b
 1596 0afb 00000000 		.4byte	.LLST0
ARM GAS  C:\Users\IDONNO~1\AppData\Local\Temp\ccRRjj4u.s 			page 29


 1597 0aff 20       		.uleb128 0x20
 1598 0b00 8D0A0000 		.4byte	0xa8d
 1599 0b04 0A000000 		.4byte	.LBB51
 1600 0b08 04000000 		.4byte	.LBE51-.LBB51
 1601 0b0c 01       		.byte	0x1
 1602 0b0d 48       		.byte	0x48
 1603 0b0e 220B0000 		.4byte	0xb22
 1604 0b12 21       		.uleb128 0x21
 1605 0b13 0A000000 		.4byte	.LBB52
 1606 0b17 04000000 		.4byte	.LBE52-.LBB52
 1607 0b1b 22       		.uleb128 0x22
 1608 0b1c 9E0A0000 		.4byte	0xa9e
 1609 0b20 00       		.byte	0
 1610 0b21 00       		.byte	0
 1611 0b22 20       		.uleb128 0x20
 1612 0b23 730A0000 		.4byte	0xa73
 1613 0b27 0E000000 		.4byte	.LBB53
 1614 0b2b 06000000 		.4byte	.LBE53-.LBB53
 1615 0b2f 01       		.byte	0x1
 1616 0b30 4F       		.byte	0x4f
 1617 0b31 3F0B0000 		.4byte	0xb3f
 1618 0b35 23       		.uleb128 0x23
 1619 0b36 800A0000 		.4byte	0xa80
 1620 0b3a 21000000 		.4byte	.LLST1
 1621 0b3e 00       		.byte	0
 1622 0b3f 24       		.uleb128 0x24
 1623 0b40 AB0A0000 		.4byte	0xaab
 1624 0b44 14000000 		.4byte	.LBB55
 1625 0b48 0C000000 		.4byte	.LBE55-.LBB55
 1626 0b4c 01       		.byte	0x1
 1627 0b4d 52       		.byte	0x52
 1628 0b4e 25       		.uleb128 0x25
 1629 0b4f 6A0A0000 		.4byte	0xa6a
 1630 0b53 14000000 		.4byte	.LBB56
 1631 0b57 0C000000 		.4byte	.LBE56-.LBB56
 1632 0b5b 0A       		.byte	0xa
 1633 0b5c E601     		.2byte	0x1e6
 1634 0b5e 25       		.uleb128 0x25
 1635 0b5f 470A0000 		.4byte	0xa47
 1636 0b63 14000000 		.4byte	.LBB57
 1637 0b67 0C000000 		.4byte	.LBE57-.LBB57
 1638 0b6b 0A       		.byte	0xa
 1639 0b6c CD01     		.2byte	0x1cd
 1640 0b6e 23       		.uleb128 0x23
 1641 0b6f 540A0000 		.4byte	0xa54
 1642 0b73 42000000 		.4byte	.LLST2
 1643 0b77 00       		.byte	0
 1644 0b78 00       		.byte	0
 1645 0b79 00       		.byte	0
 1646 0b7a 00       		.byte	0
 1647 0b7b 0A       		.uleb128 0xa
 1648 0b7c 04       		.byte	0x4
 1649 0b7d E9070000 		.4byte	0x7e9
 1650 0b81 1E       		.uleb128 0x1e
 1651 0b82 44020000 		.4byte	.LASF143
 1652 0b86 01       		.byte	0x1
 1653 0b87 7A       		.byte	0x7a
ARM GAS  C:\Users\IDONNO~1\AppData\Local\Temp\ccRRjj4u.s 			page 30


 1654 0b88 00000000 		.4byte	.LFB220
 1655 0b8c 60000000 		.4byte	.LFE220-.LFB220
 1656 0b90 01       		.uleb128 0x1
 1657 0b91 9C       		.byte	0x9c
 1658 0b92 9A0C0000 		.4byte	0xc9a
 1659 0b96 20       		.uleb128 0x20
 1660 0b97 D20A0000 		.4byte	0xad2
 1661 0b9b 00000000 		.4byte	.LBB59
 1662 0b9f 06000000 		.4byte	.LBE59-.LBB59
 1663 0ba3 01       		.byte	0x1
 1664 0ba4 7C       		.byte	0x7c
 1665 0ba5 D50B0000 		.4byte	0xbd5
 1666 0ba9 25       		.uleb128 0x25
 1667 0baa 610A0000 		.4byte	0xa61
 1668 0bae 00000000 		.4byte	.LBB60
 1669 0bb2 06000000 		.4byte	.LBE60-.LBB60
 1670 0bb6 0A       		.byte	0xa
 1671 0bb7 DB01     		.2byte	0x1db
 1672 0bb9 25       		.uleb128 0x25
 1673 0bba 470A0000 		.4byte	0xa47
 1674 0bbe 00000000 		.4byte	.LBB61
 1675 0bc2 06000000 		.4byte	.LBE61-.LBB61
 1676 0bc6 0A       		.byte	0xa
 1677 0bc7 BF01     		.2byte	0x1bf
 1678 0bc9 23       		.uleb128 0x23
 1679 0bca 540A0000 		.4byte	0xa54
 1680 0bce 56000000 		.4byte	.LLST3
 1681 0bd2 00       		.byte	0
 1682 0bd3 00       		.byte	0
 1683 0bd4 00       		.byte	0
 1684 0bd5 20       		.uleb128 0x20
 1685 0bd6 AB0A0000 		.4byte	0xaab
 1686 0bda 10000000 		.4byte	.LBB63
 1687 0bde 06000000 		.4byte	.LBE63-.LBB63
 1688 0be2 01       		.byte	0x1
 1689 0be3 A5       		.byte	0xa5
 1690 0be4 140C0000 		.4byte	0xc14
 1691 0be8 25       		.uleb128 0x25
 1692 0be9 6A0A0000 		.4byte	0xa6a
 1693 0bed 10000000 		.4byte	.LBB64
 1694 0bf1 06000000 		.4byte	.LBE64-.LBB64
 1695 0bf5 0A       		.byte	0xa
 1696 0bf6 E601     		.2byte	0x1e6
 1697 0bf8 25       		.uleb128 0x25
 1698 0bf9 470A0000 		.4byte	0xa47
 1699 0bfd 10000000 		.4byte	.LBB65
 1700 0c01 06000000 		.4byte	.LBE65-.LBB65
 1701 0c05 0A       		.byte	0xa
 1702 0c06 CD01     		.2byte	0x1cd
 1703 0c08 23       		.uleb128 0x23
 1704 0c09 540A0000 		.4byte	0xa54
 1705 0c0d 6B000000 		.4byte	.LLST4
 1706 0c11 00       		.byte	0
 1707 0c12 00       		.byte	0
 1708 0c13 00       		.byte	0
 1709 0c14 21       		.uleb128 0x21
 1710 0c15 18000000 		.4byte	.LBB67
ARM GAS  C:\Users\IDONNO~1\AppData\Local\Temp\ccRRjj4u.s 			page 31


 1711 0c19 48000000 		.4byte	.LBE67-.LBB67
 1712 0c1d 1F       		.uleb128 0x1f
 1713 0c1e 5B030000 		.4byte	.LASF144
 1714 0c22 01       		.byte	0x1
 1715 0c23 7E       		.byte	0x7e
 1716 0c24 7B0B0000 		.4byte	0xb7b
 1717 0c28 7F000000 		.4byte	.LLST5
 1718 0c2c 20       		.uleb128 0x20
 1719 0c2d B40A0000 		.4byte	0xab4
 1720 0c31 18000000 		.4byte	.LBB68
 1721 0c35 04000000 		.4byte	.LBE68-.LBB68
 1722 0c39 01       		.byte	0x1
 1723 0c3a 82       		.byte	0x82
 1724 0c3b 4F0C0000 		.4byte	0xc4f
 1725 0c3f 21       		.uleb128 0x21
 1726 0c40 18000000 		.4byte	.LBB69
 1727 0c44 04000000 		.4byte	.LBE69-.LBB69
 1728 0c48 22       		.uleb128 0x22
 1729 0c49 C50A0000 		.4byte	0xac5
 1730 0c4d 00       		.byte	0
 1731 0c4e 00       		.byte	0
 1732 0c4f 20       		.uleb128 0x20
 1733 0c50 8D0A0000 		.4byte	0xa8d
 1734 0c54 1C000000 		.4byte	.LBB70
 1735 0c58 04000000 		.4byte	.LBE70-.LBB70
 1736 0c5c 01       		.byte	0x1
 1737 0c5d 86       		.byte	0x86
 1738 0c5e 720C0000 		.4byte	0xc72
 1739 0c62 21       		.uleb128 0x21
 1740 0c63 1C000000 		.4byte	.LBB71
 1741 0c67 04000000 		.4byte	.LBE71-.LBB71
 1742 0c6b 22       		.uleb128 0x22
 1743 0c6c 9E0A0000 		.4byte	0xa9e
 1744 0c70 00       		.byte	0
 1745 0c71 00       		.byte	0
 1746 0c72 20       		.uleb128 0x20
 1747 0c73 730A0000 		.4byte	0xa73
 1748 0c77 30000000 		.4byte	.LBB72
 1749 0c7b 08000000 		.4byte	.LBE72-.LBB72
 1750 0c7f 01       		.byte	0x1
 1751 0c80 93       		.byte	0x93
 1752 0c81 8F0C0000 		.4byte	0xc8f
 1753 0c85 23       		.uleb128 0x23
 1754 0c86 800A0000 		.4byte	0xa80
 1755 0c8a AE000000 		.4byte	.LLST6
 1756 0c8e 00       		.byte	0
 1757 0c8f 26       		.uleb128 0x26
 1758 0c90 3C000000 		.4byte	.LVL14
 1759 0c94 B10C0000 		.4byte	0xcb1
 1760 0c98 00       		.byte	0
 1761 0c99 00       		.byte	0
 1762 0c9a 27       		.uleb128 0x27
 1763 0c9b B7030000 		.4byte	.LASF145
 1764 0c9f 08       		.byte	0x8
 1765 0ca0 A706     		.2byte	0x6a7
 1766 0ca2 C3000000 		.4byte	0xc3
 1767 0ca6 28       		.uleb128 0x28
ARM GAS  C:\Users\IDONNO~1\AppData\Local\Temp\ccRRjj4u.s 			page 32


 1768 0ca7 636800   		.ascii	"ch\000"
 1769 0caa 07       		.byte	0x7
 1770 0cab 0902     		.2byte	0x209
 1771 0cad 02040000 		.4byte	0x402
 1772 0cb1 29       		.uleb128 0x29
 1773 0cb2 36010000 		.4byte	.LASF149
 1774 0cb6 36010000 		.4byte	.LASF149
 1775 0cba 07       		.byte	0x7
 1776 0cbb 1802     		.2byte	0x218
 1777 0cbd 00       		.byte	0
 1778              		.section	.debug_abbrev,"",%progbits
 1779              	.Ldebug_abbrev0:
 1780 0000 01       		.uleb128 0x1
 1781 0001 11       		.uleb128 0x11
 1782 0002 01       		.byte	0x1
 1783 0003 25       		.uleb128 0x25
 1784 0004 0E       		.uleb128 0xe
 1785 0005 13       		.uleb128 0x13
 1786 0006 0B       		.uleb128 0xb
 1787 0007 03       		.uleb128 0x3
 1788 0008 0E       		.uleb128 0xe
 1789 0009 1B       		.uleb128 0x1b
 1790 000a 0E       		.uleb128 0xe
 1791 000b 55       		.uleb128 0x55
 1792 000c 17       		.uleb128 0x17
 1793 000d 11       		.uleb128 0x11
 1794 000e 01       		.uleb128 0x1
 1795 000f 10       		.uleb128 0x10
 1796 0010 17       		.uleb128 0x17
 1797 0011 00       		.byte	0
 1798 0012 00       		.byte	0
 1799 0013 02       		.uleb128 0x2
 1800 0014 24       		.uleb128 0x24
 1801 0015 00       		.byte	0
 1802 0016 0B       		.uleb128 0xb
 1803 0017 0B       		.uleb128 0xb
 1804 0018 3E       		.uleb128 0x3e
 1805 0019 0B       		.uleb128 0xb
 1806 001a 03       		.uleb128 0x3
 1807 001b 08       		.uleb128 0x8
 1808 001c 00       		.byte	0
 1809 001d 00       		.byte	0
 1810 001e 03       		.uleb128 0x3
 1811 001f 24       		.uleb128 0x24
 1812 0020 00       		.byte	0
 1813 0021 0B       		.uleb128 0xb
 1814 0022 0B       		.uleb128 0xb
 1815 0023 3E       		.uleb128 0x3e
 1816 0024 0B       		.uleb128 0xb
 1817 0025 03       		.uleb128 0x3
 1818 0026 0E       		.uleb128 0xe
 1819 0027 00       		.byte	0
 1820 0028 00       		.byte	0
 1821 0029 04       		.uleb128 0x4
 1822 002a 16       		.uleb128 0x16
 1823 002b 00       		.byte	0
 1824 002c 03       		.uleb128 0x3
ARM GAS  C:\Users\IDONNO~1\AppData\Local\Temp\ccRRjj4u.s 			page 33


 1825 002d 0E       		.uleb128 0xe
 1826 002e 3A       		.uleb128 0x3a
 1827 002f 0B       		.uleb128 0xb
 1828 0030 3B       		.uleb128 0x3b
 1829 0031 0B       		.uleb128 0xb
 1830 0032 49       		.uleb128 0x49
 1831 0033 13       		.uleb128 0x13
 1832 0034 00       		.byte	0
 1833 0035 00       		.byte	0
 1834 0036 05       		.uleb128 0x5
 1835 0037 35       		.uleb128 0x35
 1836 0038 00       		.byte	0
 1837 0039 49       		.uleb128 0x49
 1838 003a 13       		.uleb128 0x13
 1839 003b 00       		.byte	0
 1840 003c 00       		.byte	0
 1841 003d 06       		.uleb128 0x6
 1842 003e 13       		.uleb128 0x13
 1843 003f 01       		.byte	0x1
 1844 0040 03       		.uleb128 0x3
 1845 0041 0E       		.uleb128 0xe
 1846 0042 0B       		.uleb128 0xb
 1847 0043 0B       		.uleb128 0xb
 1848 0044 3A       		.uleb128 0x3a
 1849 0045 0B       		.uleb128 0xb
 1850 0046 3B       		.uleb128 0x3b
 1851 0047 0B       		.uleb128 0xb
 1852 0048 01       		.uleb128 0x1
 1853 0049 13       		.uleb128 0x13
 1854 004a 00       		.byte	0
 1855 004b 00       		.byte	0
 1856 004c 07       		.uleb128 0x7
 1857 004d 0D       		.uleb128 0xd
 1858 004e 00       		.byte	0
 1859 004f 03       		.uleb128 0x3
 1860 0050 0E       		.uleb128 0xe
 1861 0051 3A       		.uleb128 0x3a
 1862 0052 0B       		.uleb128 0xb
 1863 0053 3B       		.uleb128 0x3b
 1864 0054 0B       		.uleb128 0xb
 1865 0055 49       		.uleb128 0x49
 1866 0056 13       		.uleb128 0x13
 1867 0057 38       		.uleb128 0x38
 1868 0058 0B       		.uleb128 0xb
 1869 0059 00       		.byte	0
 1870 005a 00       		.byte	0
 1871 005b 08       		.uleb128 0x8
 1872 005c 0D       		.uleb128 0xd
 1873 005d 00       		.byte	0
 1874 005e 03       		.uleb128 0x3
 1875 005f 08       		.uleb128 0x8
 1876 0060 3A       		.uleb128 0x3a
 1877 0061 0B       		.uleb128 0xb
 1878 0062 3B       		.uleb128 0x3b
 1879 0063 05       		.uleb128 0x5
 1880 0064 49       		.uleb128 0x49
 1881 0065 13       		.uleb128 0x13
ARM GAS  C:\Users\IDONNO~1\AppData\Local\Temp\ccRRjj4u.s 			page 34


 1882 0066 38       		.uleb128 0x38
 1883 0067 0B       		.uleb128 0xb
 1884 0068 00       		.byte	0
 1885 0069 00       		.byte	0
 1886 006a 09       		.uleb128 0x9
 1887 006b 0D       		.uleb128 0xd
 1888 006c 00       		.byte	0
 1889 006d 03       		.uleb128 0x3
 1890 006e 0E       		.uleb128 0xe
 1891 006f 3A       		.uleb128 0x3a
 1892 0070 0B       		.uleb128 0xb
 1893 0071 3B       		.uleb128 0x3b
 1894 0072 05       		.uleb128 0x5
 1895 0073 49       		.uleb128 0x49
 1896 0074 13       		.uleb128 0x13
 1897 0075 38       		.uleb128 0x38
 1898 0076 0B       		.uleb128 0xb
 1899 0077 00       		.byte	0
 1900 0078 00       		.byte	0
 1901 0079 0A       		.uleb128 0xa
 1902 007a 0F       		.uleb128 0xf
 1903 007b 00       		.byte	0
 1904 007c 0B       		.uleb128 0xb
 1905 007d 0B       		.uleb128 0xb
 1906 007e 49       		.uleb128 0x49
 1907 007f 13       		.uleb128 0x13
 1908 0080 00       		.byte	0
 1909 0081 00       		.byte	0
 1910 0082 0B       		.uleb128 0xb
 1911 0083 13       		.uleb128 0x13
 1912 0084 01       		.byte	0x1
 1913 0085 03       		.uleb128 0x3
 1914 0086 0E       		.uleb128 0xe
 1915 0087 0B       		.uleb128 0xb
 1916 0088 0B       		.uleb128 0xb
 1917 0089 3A       		.uleb128 0x3a
 1918 008a 0B       		.uleb128 0xb
 1919 008b 3B       		.uleb128 0x3b
 1920 008c 05       		.uleb128 0x5
 1921 008d 01       		.uleb128 0x1
 1922 008e 13       		.uleb128 0x13
 1923 008f 00       		.byte	0
 1924 0090 00       		.byte	0
 1925 0091 0C       		.uleb128 0xc
 1926 0092 15       		.uleb128 0x15
 1927 0093 01       		.byte	0x1
 1928 0094 27       		.uleb128 0x27
 1929 0095 19       		.uleb128 0x19
 1930 0096 01       		.uleb128 0x1
 1931 0097 13       		.uleb128 0x13
 1932 0098 00       		.byte	0
 1933 0099 00       		.byte	0
 1934 009a 0D       		.uleb128 0xd
 1935 009b 05       		.uleb128 0x5
 1936 009c 00       		.byte	0
 1937 009d 49       		.uleb128 0x49
 1938 009e 13       		.uleb128 0x13
ARM GAS  C:\Users\IDONNO~1\AppData\Local\Temp\ccRRjj4u.s 			page 35


 1939 009f 00       		.byte	0
 1940 00a0 00       		.byte	0
 1941 00a1 0E       		.uleb128 0xe
 1942 00a2 0F       		.uleb128 0xf
 1943 00a3 00       		.byte	0
 1944 00a4 0B       		.uleb128 0xb
 1945 00a5 0B       		.uleb128 0xb
 1946 00a6 00       		.byte	0
 1947 00a7 00       		.byte	0
 1948 00a8 0F       		.uleb128 0xf
 1949 00a9 13       		.uleb128 0x13
 1950 00aa 01       		.byte	0x1
 1951 00ab 03       		.uleb128 0x3
 1952 00ac 0E       		.uleb128 0xe
 1953 00ad 0B       		.uleb128 0xb
 1954 00ae 05       		.uleb128 0x5
 1955 00af 3A       		.uleb128 0x3a
 1956 00b0 0B       		.uleb128 0xb
 1957 00b1 3B       		.uleb128 0x3b
 1958 00b2 05       		.uleb128 0x5
 1959 00b3 01       		.uleb128 0x1
 1960 00b4 13       		.uleb128 0x13
 1961 00b5 00       		.byte	0
 1962 00b6 00       		.byte	0
 1963 00b7 10       		.uleb128 0x10
 1964 00b8 13       		.uleb128 0x13
 1965 00b9 01       		.byte	0x1
 1966 00ba 0B       		.uleb128 0xb
 1967 00bb 0B       		.uleb128 0xb
 1968 00bc 3A       		.uleb128 0x3a
 1969 00bd 0B       		.uleb128 0xb
 1970 00be 3B       		.uleb128 0x3b
 1971 00bf 05       		.uleb128 0x5
 1972 00c0 01       		.uleb128 0x1
 1973 00c1 13       		.uleb128 0x13
 1974 00c2 00       		.byte	0
 1975 00c3 00       		.byte	0
 1976 00c4 11       		.uleb128 0x11
 1977 00c5 26       		.uleb128 0x26
 1978 00c6 00       		.byte	0
 1979 00c7 49       		.uleb128 0x49
 1980 00c8 13       		.uleb128 0x13
 1981 00c9 00       		.byte	0
 1982 00ca 00       		.byte	0
 1983 00cb 12       		.uleb128 0x12
 1984 00cc 01       		.uleb128 0x1
 1985 00cd 01       		.byte	0x1
 1986 00ce 49       		.uleb128 0x49
 1987 00cf 13       		.uleb128 0x13
 1988 00d0 01       		.uleb128 0x1
 1989 00d1 13       		.uleb128 0x13
 1990 00d2 00       		.byte	0
 1991 00d3 00       		.byte	0
 1992 00d4 13       		.uleb128 0x13
 1993 00d5 21       		.uleb128 0x21
 1994 00d6 00       		.byte	0
 1995 00d7 49       		.uleb128 0x49
ARM GAS  C:\Users\IDONNO~1\AppData\Local\Temp\ccRRjj4u.s 			page 36


 1996 00d8 13       		.uleb128 0x13
 1997 00d9 2F       		.uleb128 0x2f
 1998 00da 0B       		.uleb128 0xb
 1999 00db 00       		.byte	0
 2000 00dc 00       		.byte	0
 2001 00dd 14       		.uleb128 0x14
 2002 00de 16       		.uleb128 0x16
 2003 00df 00       		.byte	0
 2004 00e0 03       		.uleb128 0x3
 2005 00e1 0E       		.uleb128 0xe
 2006 00e2 3A       		.uleb128 0x3a
 2007 00e3 0B       		.uleb128 0xb
 2008 00e4 3B       		.uleb128 0x3b
 2009 00e5 05       		.uleb128 0x5
 2010 00e6 49       		.uleb128 0x49
 2011 00e7 13       		.uleb128 0x13
 2012 00e8 00       		.byte	0
 2013 00e9 00       		.byte	0
 2014 00ea 15       		.uleb128 0x15
 2015 00eb 0D       		.uleb128 0xd
 2016 00ec 00       		.byte	0
 2017 00ed 03       		.uleb128 0x3
 2018 00ee 08       		.uleb128 0x8
 2019 00ef 3A       		.uleb128 0x3a
 2020 00f0 0B       		.uleb128 0xb
 2021 00f1 3B       		.uleb128 0x3b
 2022 00f2 0B       		.uleb128 0xb
 2023 00f3 49       		.uleb128 0x49
 2024 00f4 13       		.uleb128 0x13
 2025 00f5 38       		.uleb128 0x38
 2026 00f6 0B       		.uleb128 0xb
 2027 00f7 00       		.byte	0
 2028 00f8 00       		.byte	0
 2029 00f9 16       		.uleb128 0x16
 2030 00fa 13       		.uleb128 0x13
 2031 00fb 01       		.byte	0x1
 2032 00fc 0B       		.uleb128 0xb
 2033 00fd 0B       		.uleb128 0xb
 2034 00fe 3A       		.uleb128 0x3a
 2035 00ff 0B       		.uleb128 0xb
 2036 0100 3B       		.uleb128 0x3b
 2037 0101 0B       		.uleb128 0xb
 2038 0102 01       		.uleb128 0x1
 2039 0103 13       		.uleb128 0x13
 2040 0104 00       		.byte	0
 2041 0105 00       		.byte	0
 2042 0106 17       		.uleb128 0x17
 2043 0107 17       		.uleb128 0x17
 2044 0108 01       		.byte	0x1
 2045 0109 0B       		.uleb128 0xb
 2046 010a 0B       		.uleb128 0xb
 2047 010b 3A       		.uleb128 0x3a
 2048 010c 0B       		.uleb128 0xb
 2049 010d 3B       		.uleb128 0x3b
 2050 010e 0B       		.uleb128 0xb
 2051 010f 01       		.uleb128 0x1
 2052 0110 13       		.uleb128 0x13
ARM GAS  C:\Users\IDONNO~1\AppData\Local\Temp\ccRRjj4u.s 			page 37


 2053 0111 00       		.byte	0
 2054 0112 00       		.byte	0
 2055 0113 18       		.uleb128 0x18
 2056 0114 0D       		.uleb128 0xd
 2057 0115 00       		.byte	0
 2058 0116 03       		.uleb128 0x3
 2059 0117 0E       		.uleb128 0xe
 2060 0118 3A       		.uleb128 0x3a
 2061 0119 0B       		.uleb128 0xb
 2062 011a 3B       		.uleb128 0x3b
 2063 011b 05       		.uleb128 0x5
 2064 011c 49       		.uleb128 0x49
 2065 011d 13       		.uleb128 0x13
 2066 011e 00       		.byte	0
 2067 011f 00       		.byte	0
 2068 0120 19       		.uleb128 0x19
 2069 0121 2E       		.uleb128 0x2e
 2070 0122 01       		.byte	0x1
 2071 0123 03       		.uleb128 0x3
 2072 0124 0E       		.uleb128 0xe
 2073 0125 3A       		.uleb128 0x3a
 2074 0126 0B       		.uleb128 0xb
 2075 0127 3B       		.uleb128 0x3b
 2076 0128 05       		.uleb128 0x5
 2077 0129 27       		.uleb128 0x27
 2078 012a 19       		.uleb128 0x19
 2079 012b 20       		.uleb128 0x20
 2080 012c 0B       		.uleb128 0xb
 2081 012d 01       		.uleb128 0x1
 2082 012e 13       		.uleb128 0x13
 2083 012f 00       		.byte	0
 2084 0130 00       		.byte	0
 2085 0131 1A       		.uleb128 0x1a
 2086 0132 05       		.uleb128 0x5
 2087 0133 00       		.byte	0
 2088 0134 03       		.uleb128 0x3
 2089 0135 0E       		.uleb128 0xe
 2090 0136 3A       		.uleb128 0x3a
 2091 0137 0B       		.uleb128 0xb
 2092 0138 3B       		.uleb128 0x3b
 2093 0139 05       		.uleb128 0x5
 2094 013a 49       		.uleb128 0x49
 2095 013b 13       		.uleb128 0x13
 2096 013c 00       		.byte	0
 2097 013d 00       		.byte	0
 2098 013e 1B       		.uleb128 0x1b
 2099 013f 2E       		.uleb128 0x2e
 2100 0140 00       		.byte	0
 2101 0141 03       		.uleb128 0x3
 2102 0142 0E       		.uleb128 0xe
 2103 0143 3A       		.uleb128 0x3a
 2104 0144 0B       		.uleb128 0xb
 2105 0145 3B       		.uleb128 0x3b
 2106 0146 05       		.uleb128 0x5
 2107 0147 27       		.uleb128 0x27
 2108 0148 19       		.uleb128 0x19
 2109 0149 20       		.uleb128 0x20
ARM GAS  C:\Users\IDONNO~1\AppData\Local\Temp\ccRRjj4u.s 			page 38


 2110 014a 0B       		.uleb128 0xb
 2111 014b 00       		.byte	0
 2112 014c 00       		.byte	0
 2113 014d 1C       		.uleb128 0x1c
 2114 014e 2E       		.uleb128 0x2e
 2115 014f 01       		.byte	0x1
 2116 0150 03       		.uleb128 0x3
 2117 0151 0E       		.uleb128 0xe
 2118 0152 3A       		.uleb128 0x3a
 2119 0153 0B       		.uleb128 0xb
 2120 0154 3B       		.uleb128 0x3b
 2121 0155 05       		.uleb128 0x5
 2122 0156 27       		.uleb128 0x27
 2123 0157 19       		.uleb128 0x19
 2124 0158 49       		.uleb128 0x49
 2125 0159 13       		.uleb128 0x13
 2126 015a 20       		.uleb128 0x20
 2127 015b 0B       		.uleb128 0xb
 2128 015c 01       		.uleb128 0x1
 2129 015d 13       		.uleb128 0x13
 2130 015e 00       		.byte	0
 2131 015f 00       		.byte	0
 2132 0160 1D       		.uleb128 0x1d
 2133 0161 34       		.uleb128 0x34
 2134 0162 00       		.byte	0
 2135 0163 03       		.uleb128 0x3
 2136 0164 0E       		.uleb128 0xe
 2137 0165 3A       		.uleb128 0x3a
 2138 0166 0B       		.uleb128 0xb
 2139 0167 3B       		.uleb128 0x3b
 2140 0168 05       		.uleb128 0x5
 2141 0169 49       		.uleb128 0x49
 2142 016a 13       		.uleb128 0x13
 2143 016b 00       		.byte	0
 2144 016c 00       		.byte	0
 2145 016d 1E       		.uleb128 0x1e
 2146 016e 2E       		.uleb128 0x2e
 2147 016f 01       		.byte	0x1
 2148 0170 3F       		.uleb128 0x3f
 2149 0171 19       		.uleb128 0x19
 2150 0172 03       		.uleb128 0x3
 2151 0173 0E       		.uleb128 0xe
 2152 0174 3A       		.uleb128 0x3a
 2153 0175 0B       		.uleb128 0xb
 2154 0176 3B       		.uleb128 0x3b
 2155 0177 0B       		.uleb128 0xb
 2156 0178 27       		.uleb128 0x27
 2157 0179 19       		.uleb128 0x19
 2158 017a 11       		.uleb128 0x11
 2159 017b 01       		.uleb128 0x1
 2160 017c 12       		.uleb128 0x12
 2161 017d 06       		.uleb128 0x6
 2162 017e 40       		.uleb128 0x40
 2163 017f 18       		.uleb128 0x18
 2164 0180 9742     		.uleb128 0x2117
 2165 0182 19       		.uleb128 0x19
 2166 0183 01       		.uleb128 0x1
ARM GAS  C:\Users\IDONNO~1\AppData\Local\Temp\ccRRjj4u.s 			page 39


 2167 0184 13       		.uleb128 0x13
 2168 0185 00       		.byte	0
 2169 0186 00       		.byte	0
 2170 0187 1F       		.uleb128 0x1f
 2171 0188 34       		.uleb128 0x34
 2172 0189 00       		.byte	0
 2173 018a 03       		.uleb128 0x3
 2174 018b 0E       		.uleb128 0xe
 2175 018c 3A       		.uleb128 0x3a
 2176 018d 0B       		.uleb128 0xb
 2177 018e 3B       		.uleb128 0x3b
 2178 018f 0B       		.uleb128 0xb
 2179 0190 49       		.uleb128 0x49
 2180 0191 13       		.uleb128 0x13
 2181 0192 02       		.uleb128 0x2
 2182 0193 17       		.uleb128 0x17
 2183 0194 00       		.byte	0
 2184 0195 00       		.byte	0
 2185 0196 20       		.uleb128 0x20
 2186 0197 1D       		.uleb128 0x1d
 2187 0198 01       		.byte	0x1
 2188 0199 31       		.uleb128 0x31
 2189 019a 13       		.uleb128 0x13
 2190 019b 11       		.uleb128 0x11
 2191 019c 01       		.uleb128 0x1
 2192 019d 12       		.uleb128 0x12
 2193 019e 06       		.uleb128 0x6
 2194 019f 58       		.uleb128 0x58
 2195 01a0 0B       		.uleb128 0xb
 2196 01a1 59       		.uleb128 0x59
 2197 01a2 0B       		.uleb128 0xb
 2198 01a3 01       		.uleb128 0x1
 2199 01a4 13       		.uleb128 0x13
 2200 01a5 00       		.byte	0
 2201 01a6 00       		.byte	0
 2202 01a7 21       		.uleb128 0x21
 2203 01a8 0B       		.uleb128 0xb
 2204 01a9 01       		.byte	0x1
 2205 01aa 11       		.uleb128 0x11
 2206 01ab 01       		.uleb128 0x1
 2207 01ac 12       		.uleb128 0x12
 2208 01ad 06       		.uleb128 0x6
 2209 01ae 00       		.byte	0
 2210 01af 00       		.byte	0
 2211 01b0 22       		.uleb128 0x22
 2212 01b1 34       		.uleb128 0x34
 2213 01b2 00       		.byte	0
 2214 01b3 31       		.uleb128 0x31
 2215 01b4 13       		.uleb128 0x13
 2216 01b5 00       		.byte	0
 2217 01b6 00       		.byte	0
 2218 01b7 23       		.uleb128 0x23
 2219 01b8 05       		.uleb128 0x5
 2220 01b9 00       		.byte	0
 2221 01ba 31       		.uleb128 0x31
 2222 01bb 13       		.uleb128 0x13
 2223 01bc 02       		.uleb128 0x2
ARM GAS  C:\Users\IDONNO~1\AppData\Local\Temp\ccRRjj4u.s 			page 40


 2224 01bd 17       		.uleb128 0x17
 2225 01be 00       		.byte	0
 2226 01bf 00       		.byte	0
 2227 01c0 24       		.uleb128 0x24
 2228 01c1 1D       		.uleb128 0x1d
 2229 01c2 01       		.byte	0x1
 2230 01c3 31       		.uleb128 0x31
 2231 01c4 13       		.uleb128 0x13
 2232 01c5 11       		.uleb128 0x11
 2233 01c6 01       		.uleb128 0x1
 2234 01c7 12       		.uleb128 0x12
 2235 01c8 06       		.uleb128 0x6
 2236 01c9 58       		.uleb128 0x58
 2237 01ca 0B       		.uleb128 0xb
 2238 01cb 59       		.uleb128 0x59
 2239 01cc 0B       		.uleb128 0xb
 2240 01cd 00       		.byte	0
 2241 01ce 00       		.byte	0
 2242 01cf 25       		.uleb128 0x25
 2243 01d0 1D       		.uleb128 0x1d
 2244 01d1 01       		.byte	0x1
 2245 01d2 31       		.uleb128 0x31
 2246 01d3 13       		.uleb128 0x13
 2247 01d4 11       		.uleb128 0x11
 2248 01d5 01       		.uleb128 0x1
 2249 01d6 12       		.uleb128 0x12
 2250 01d7 06       		.uleb128 0x6
 2251 01d8 58       		.uleb128 0x58
 2252 01d9 0B       		.uleb128 0xb
 2253 01da 59       		.uleb128 0x59
 2254 01db 05       		.uleb128 0x5
 2255 01dc 00       		.byte	0
 2256 01dd 00       		.byte	0
 2257 01de 26       		.uleb128 0x26
 2258 01df 898201   		.uleb128 0x4109
 2259 01e2 00       		.byte	0
 2260 01e3 11       		.uleb128 0x11
 2261 01e4 01       		.uleb128 0x1
 2262 01e5 31       		.uleb128 0x31
 2263 01e6 13       		.uleb128 0x13
 2264 01e7 00       		.byte	0
 2265 01e8 00       		.byte	0
 2266 01e9 27       		.uleb128 0x27
 2267 01ea 34       		.uleb128 0x34
 2268 01eb 00       		.byte	0
 2269 01ec 03       		.uleb128 0x3
 2270 01ed 0E       		.uleb128 0xe
 2271 01ee 3A       		.uleb128 0x3a
 2272 01ef 0B       		.uleb128 0xb
 2273 01f0 3B       		.uleb128 0x3b
 2274 01f1 05       		.uleb128 0x5
 2275 01f2 49       		.uleb128 0x49
 2276 01f3 13       		.uleb128 0x13
 2277 01f4 3F       		.uleb128 0x3f
 2278 01f5 19       		.uleb128 0x19
 2279 01f6 3C       		.uleb128 0x3c
 2280 01f7 19       		.uleb128 0x19
ARM GAS  C:\Users\IDONNO~1\AppData\Local\Temp\ccRRjj4u.s 			page 41


 2281 01f8 00       		.byte	0
 2282 01f9 00       		.byte	0
 2283 01fa 28       		.uleb128 0x28
 2284 01fb 34       		.uleb128 0x34
 2285 01fc 00       		.byte	0
 2286 01fd 03       		.uleb128 0x3
 2287 01fe 08       		.uleb128 0x8
 2288 01ff 3A       		.uleb128 0x3a
 2289 0200 0B       		.uleb128 0xb
 2290 0201 3B       		.uleb128 0x3b
 2291 0202 05       		.uleb128 0x5
 2292 0203 49       		.uleb128 0x49
 2293 0204 13       		.uleb128 0x13
 2294 0205 3F       		.uleb128 0x3f
 2295 0206 19       		.uleb128 0x19
 2296 0207 3C       		.uleb128 0x3c
 2297 0208 19       		.uleb128 0x19
 2298 0209 00       		.byte	0
 2299 020a 00       		.byte	0
 2300 020b 29       		.uleb128 0x29
 2301 020c 2E       		.uleb128 0x2e
 2302 020d 00       		.byte	0
 2303 020e 3F       		.uleb128 0x3f
 2304 020f 19       		.uleb128 0x19
 2305 0210 3C       		.uleb128 0x3c
 2306 0211 19       		.uleb128 0x19
 2307 0212 6E       		.uleb128 0x6e
 2308 0213 0E       		.uleb128 0xe
 2309 0214 03       		.uleb128 0x3
 2310 0215 0E       		.uleb128 0xe
 2311 0216 3A       		.uleb128 0x3a
 2312 0217 0B       		.uleb128 0xb
 2313 0218 3B       		.uleb128 0x3b
 2314 0219 05       		.uleb128 0x5
 2315 021a 00       		.byte	0
 2316 021b 00       		.byte	0
 2317 021c 00       		.byte	0
 2318              		.section	.debug_loc,"",%progbits
 2319              	.Ldebug_loc0:
 2320              	.LLST0:
 2321 0000 0E000000 		.4byte	.LVL0
 2322 0004 10000000 		.4byte	.LVL1
 2323 0008 0400     		.2byte	0x4
 2324 000a 73       		.byte	0x73
 2325 000b E800     		.sleb128 104
 2326 000d 9F       		.byte	0x9f
 2327 000e 10000000 		.4byte	.LVL1
 2328 0012 16000000 		.4byte	.LVL3
 2329 0016 0100     		.2byte	0x1
 2330 0018 53       		.byte	0x53
 2331 0019 00000000 		.4byte	0
 2332 001d 00000000 		.4byte	0
 2333              	.LLST1:
 2334 0021 0E000000 		.4byte	.LVL0
 2335 0025 10000000 		.4byte	.LVL1
 2336 0029 0400     		.2byte	0x4
 2337 002b 73       		.byte	0x73
ARM GAS  C:\Users\IDONNO~1\AppData\Local\Temp\ccRRjj4u.s 			page 42


 2338 002c E800     		.sleb128 104
 2339 002e 9F       		.byte	0x9f
 2340 002f 10000000 		.4byte	.LVL1
 2341 0033 14000000 		.4byte	.LVL2
 2342 0037 0100     		.2byte	0x1
 2343 0039 53       		.byte	0x53
 2344 003a 00000000 		.4byte	0
 2345 003e 00000000 		.4byte	0
 2346              	.LLST2:
 2347 0042 14000000 		.4byte	.LVL2
 2348 0046 1A000000 		.4byte	.LVL4
 2349 004a 0200     		.2byte	0x2
 2350 004c 30       		.byte	0x30
 2351 004d 9F       		.byte	0x9f
 2352 004e 00000000 		.4byte	0
 2353 0052 00000000 		.4byte	0
 2354              	.LLST3:
 2355 0056 00000000 		.4byte	.LVL5
 2356 005a 06000000 		.4byte	.LVL6
 2357 005e 0300     		.2byte	0x3
 2358 0060 08       		.byte	0x8
 2359 0061 20       		.byte	0x20
 2360 0062 9F       		.byte	0x9f
 2361 0063 00000000 		.4byte	0
 2362 0067 00000000 		.4byte	0
 2363              	.LLST4:
 2364 006b 10000000 		.4byte	.LVL7
 2365 006f 14000000 		.4byte	.LVL8
 2366 0073 0200     		.2byte	0x2
 2367 0075 30       		.byte	0x30
 2368 0076 9F       		.byte	0x9f
 2369 0077 00000000 		.4byte	0
 2370 007b 00000000 		.4byte	0
 2371              	.LLST5:
 2372 007f 20000000 		.4byte	.LVL10
 2373 0083 34000000 		.4byte	.LVL12
 2374 0087 0400     		.2byte	0x4
 2375 0089 74       		.byte	0x74
 2376 008a 987F     		.sleb128 -104
 2377 008c 9F       		.byte	0x9f
 2378 008d 34000000 		.4byte	.LVL12
 2379 0091 3B000000 		.4byte	.LVL14-1
 2380 0095 0100     		.2byte	0x1
 2381 0097 53       		.byte	0x53
 2382 0098 3B000000 		.4byte	.LVL14-1
 2383 009c 4E000000 		.4byte	.LVL16
 2384 00a0 0400     		.2byte	0x4
 2385 00a2 74       		.byte	0x74
 2386 00a3 987F     		.sleb128 -104
 2387 00a5 9F       		.byte	0x9f
 2388 00a6 00000000 		.4byte	0
 2389 00aa 00000000 		.4byte	0
 2390              	.LLST6:
 2391 00ae 2C000000 		.4byte	.LVL11
 2392 00b2 34000000 		.4byte	.LVL12
 2393 00b6 0400     		.2byte	0x4
 2394 00b8 74       		.byte	0x74
ARM GAS  C:\Users\IDONNO~1\AppData\Local\Temp\ccRRjj4u.s 			page 43


 2395 00b9 987F     		.sleb128 -104
 2396 00bb 9F       		.byte	0x9f
 2397 00bc 34000000 		.4byte	.LVL12
 2398 00c0 38000000 		.4byte	.LVL13
 2399 00c4 0100     		.2byte	0x1
 2400 00c6 53       		.byte	0x53
 2401 00c7 00000000 		.4byte	0
 2402 00cb 00000000 		.4byte	0
 2403              		.section	.debug_aranges,"",%progbits
 2404 0000 24000000 		.4byte	0x24
 2405 0004 0200     		.2byte	0x2
 2406 0006 00000000 		.4byte	.Ldebug_info0
 2407 000a 04       		.byte	0x4
 2408 000b 00       		.byte	0
 2409 000c 0000     		.2byte	0
 2410 000e 0000     		.2byte	0
 2411 0010 00000000 		.4byte	.LFB219
 2412 0014 20000000 		.4byte	.LFE219-.LFB219
 2413 0018 00000000 		.4byte	.LFB220
 2414 001c 60000000 		.4byte	.LFE220-.LFB220
 2415 0020 00000000 		.4byte	0
 2416 0024 00000000 		.4byte	0
 2417              		.section	.debug_ranges,"",%progbits
 2418              	.Ldebug_ranges0:
 2419 0000 00000000 		.4byte	.LFB219
 2420 0004 20000000 		.4byte	.LFE219
 2421 0008 00000000 		.4byte	.LFB220
 2422 000c 60000000 		.4byte	.LFE220
 2423 0010 00000000 		.4byte	0
 2424 0014 00000000 		.4byte	0
 2425              		.section	.debug_line,"",%progbits
 2426              	.Ldebug_line0:
 2427 0000 7F020000 		.section	.debug_str,"MS",%progbits,1
 2427      02001102 
 2427      00000201 
 2427      FB0E0D00 
 2427      01010101 
 2428              	.LASF53:
 2429 0000 72656164 		.ascii	"ready_list_t\000"
 2429      795F6C69 
 2429      73745F74 
 2429      00
 2430              	.LASF118:
 2431 000d 77747472 		.ascii	"wttrp\000"
 2431      7000
 2432              	.LASF148:
 2433 0013 443A5C67 		.ascii	"D:\\git\\oroca_bldc_dev\\oroca_bldc_FW\000"
 2433      69745C6F 
 2433      726F6361 
 2433      5F626C64 
 2433      635F6465 
 2434              	.LASF115:
 2435 0037 7264796D 		.ascii	"rdymsg\000"
 2435      736700
 2436              	.LASF100:
 2437 003e 46504453 		.ascii	"FPDSCR\000"
 2437      435200
ARM GAS  C:\Users\IDONNO~1\AppData\Local\Temp\ccRRjj4u.s 			page 44


 2438              	.LASF16:
 2439 0045 75696E74 		.ascii	"uint64_t\000"
 2439      36345F74 
 2439      00
 2440              	.LASF1:
 2441 004e 7369676E 		.ascii	"signed char\000"
 2441      65642063 
 2441      68617200 
 2442              	.LASF5:
 2443 005a 5F5F7569 		.ascii	"__uint8_t\000"
 2443      6E74385F 
 2443      7400
 2444              	.LASF107:
 2445 0064 706F7274 		.ascii	"port_intctx\000"
 2445      5F696E74 
 2445      63747800 
 2446              	.LASF72:
 2447 0070 73797374 		.ascii	"system_debug_t\000"
 2447      656D5F64 
 2447      65627567 
 2447      5F7400
 2448              	.LASF131:
 2449 007f 706F7274 		.ascii	"port_lock\000"
 2449      5F6C6F63 
 2449      6B00
 2450              	.LASF116:
 2451 0089 65786974 		.ascii	"exitcode\000"
 2451      636F6465 
 2451      00
 2452              	.LASF79:
 2453 0092 6D61696E 		.ascii	"mainthread\000"
 2453      74687265 
 2453      616400
 2454              	.LASF69:
 2455 009d 76697274 		.ascii	"virtual_timers_list_t\000"
 2455      75616C5F 
 2455      74696D65 
 2455      72735F6C 
 2455      6973745F 
 2456              	.LASF82:
 2457 00b3 43505549 		.ascii	"CPUID\000"
 2457      4400
 2458              	.LASF52:
 2459 00b9 63685F74 		.ascii	"ch_threads_queue\000"
 2459      68726561 
 2459      64735F71 
 2459      75657565 
 2459      00
 2460              	.LASF30:
 2461 00ca 705F7072 		.ascii	"p_prio\000"
 2461      696F00
 2462              	.LASF46:
 2463 00d1 705F6D70 		.ascii	"p_mpool\000"
 2463      6F6F6C00 
 2464              	.LASF12:
 2465 00d9 6C6F6E67 		.ascii	"long long unsigned int\000"
 2465      206C6F6E 
ARM GAS  C:\Users\IDONNO~1\AppData\Local\Temp\ccRRjj4u.s 			page 45


 2465      6720756E 
 2465      7369676E 
 2465      65642069 
 2466              	.LASF126:
 2467 00f0 6D5F7175 		.ascii	"m_queue\000"
 2467      65756500 
 2468              	.LASF94:
 2469 00f8 49534152 		.ascii	"ISAR\000"
 2469      00
 2470              	.LASF78:
 2471 00fd 76746C69 		.ascii	"vtlist\000"
 2471      737400
 2472              	.LASF132:
 2473 0104 706F7274 		.ascii	"port_unlock\000"
 2473      5F756E6C 
 2473      6F636B00 
 2474              	.LASF21:
 2475 0110 74736C69 		.ascii	"tslices_t\000"
 2475      6365735F 
 2475      7400
 2476              	.LASF76:
 2477 011a 63685F73 		.ascii	"ch_system\000"
 2477      79737465 
 2477      6D00
 2478              	.LASF7:
 2479 0124 6C6F6E67 		.ascii	"long int\000"
 2479      20696E74 
 2479      00
 2480              	.LASF19:
 2481 012d 74737461 		.ascii	"tstate_t\000"
 2481      74655F74 
 2481      00
 2482              	.LASF149:
 2483 0136 63685363 		.ascii	"chSchIsPreemptionRequired\000"
 2483      68497350 
 2483      7265656D 
 2483      7074696F 
 2483      6E526571 
 2484              	.LASF32:
 2485 0150 705F6E65 		.ascii	"p_newer\000"
 2485      77657200 
 2486              	.LASF123:
 2487 0158 735F7175 		.ascii	"s_queue\000"
 2487      65756500 
 2488              	.LASF91:
 2489 0160 42464152 		.ascii	"BFAR\000"
 2489      00
 2490              	.LASF92:
 2491 0165 41465352 		.ascii	"AFSR\000"
 2491      00
 2492              	.LASF58:
 2493 016a 725F6E65 		.ascii	"r_newer\000"
 2493      77657200 
 2494              	.LASF104:
 2495 0172 72656761 		.ascii	"regarm_t\000"
 2495      726D5F74 
 2495      00
ARM GAS  C:\Users\IDONNO~1\AppData\Local\Temp\ccRRjj4u.s 			page 46


 2496              	.LASF65:
 2497 017b 76745F70 		.ascii	"vt_prev\000"
 2497      72657600 
 2498              	.LASF97:
 2499 0183 5343425F 		.ascii	"SCB_Type\000"
 2499      54797065 
 2499      00
 2500              	.LASF112:
 2501 018c 72657365 		.ascii	"reserved\000"
 2501      72766564 
 2501      00
 2502              	.LASF10:
 2503 0195 6C6F6E67 		.ascii	"long long int\000"
 2503      206C6F6E 
 2503      6720696E 
 2503      7400
 2504              	.LASF135:
 2505 01a3 76616C75 		.ascii	"value\000"
 2505      6500
 2506              	.LASF80:
 2507 01a9 69646C65 		.ascii	"idle_thread_wa\000"
 2507      5F746872 
 2507      6561645F 
 2507      776100
 2508              	.LASF25:
 2509 01b8 636E745F 		.ascii	"cnt_t\000"
 2509      7400
 2510              	.LASF103:
 2511 01be 4650555F 		.ascii	"FPU_Type\000"
 2511      54797065 
 2511      00
 2512              	.LASF0:
 2513 01c7 756E7369 		.ascii	"unsigned int\000"
 2513      676E6564 
 2513      20696E74 
 2513      00
 2514              	.LASF134:
 2515 01d4 5F5F7365 		.ascii	"__set_PSP\000"
 2515      745F5053 
 2515      5000
 2516              	.LASF64:
 2517 01de 76745F6E 		.ascii	"vt_next\000"
 2517      65787400 
 2518              	.LASF39:
 2519 01e6 705F7469 		.ascii	"p_time\000"
 2519      6D6500
 2520              	.LASF119:
 2521 01ed 77747365 		.ascii	"wtsemp\000"
 2521      6D7000
 2522              	.LASF71:
 2523 01f4 76745F73 		.ascii	"vt_systime\000"
 2523      79737469 
 2523      6D6500
 2524              	.LASF66:
 2525 01ff 76745F64 		.ascii	"vt_delta\000"
 2525      656C7461 
 2525      00
ARM GAS  C:\Users\IDONNO~1\AppData\Local\Temp\ccRRjj4u.s 			page 47


 2526              	.LASF41:
 2527 0208 705F6D73 		.ascii	"p_msgqueue\000"
 2527      67717565 
 2527      756500
 2528              	.LASF84:
 2529 0213 56544F52 		.ascii	"VTOR\000"
 2529      00
 2530              	.LASF124:
 2531 0218 735F636E 		.ascii	"s_cnt\000"
 2531      7400
 2532              	.LASF49:
 2533 021e 63685F74 		.ascii	"ch_thread\000"
 2533      68726561 
 2533      6400
 2534              	.LASF83:
 2535 0228 49435352 		.ascii	"ICSR\000"
 2535      00
 2536              	.LASF23:
 2537 022d 6D73675F 		.ascii	"msg_t\000"
 2537      7400
 2538              	.LASF85:
 2539 0233 41495243 		.ascii	"AIRCR\000"
 2539      5200
 2540              	.LASF89:
 2541 0239 44465352 		.ascii	"DFSR\000"
 2541      00
 2542              	.LASF90:
 2543 023e 4D4D4641 		.ascii	"MMFAR\000"
 2543      5200
 2544              	.LASF143:
 2545 0244 5F706F72 		.ascii	"_port_irq_epilogue\000"
 2545      745F6972 
 2545      715F6570 
 2545      696C6F67 
 2545      756500
 2546              	.LASF18:
 2547 0257 746D6F64 		.ascii	"tmode_t\000"
 2547      655F7400 
 2548              	.LASF54:
 2549 025f 63685F72 		.ascii	"ch_ready_list\000"
 2549      65616479 
 2549      5F6C6973 
 2549      7400
 2550              	.LASF24:
 2551 026d 6576656E 		.ascii	"eventmask_t\000"
 2551      746D6173 
 2551      6B5F7400 
 2552              	.LASF136:
 2553 0279 746F704F 		.ascii	"topOfProcStack\000"
 2553      6650726F 
 2553      63537461 
 2553      636B00
 2554              	.LASF6:
 2555 0288 5F5F696E 		.ascii	"__int32_t\000"
 2555      7433325F 
 2555      7400
 2556              	.LASF105:
ARM GAS  C:\Users\IDONNO~1\AppData\Local\Temp\ccRRjj4u.s 			page 48


 2557 0292 73746B61 		.ascii	"stkalign_t\000"
 2557      6C69676E 
 2557      5F7400
 2558              	.LASF48:
 2559 029d 74687265 		.ascii	"threads_list_t\000"
 2559      6164735F 
 2559      6C697374 
 2559      5F7400
 2560              	.LASF40:
 2561 02ac 705F7761 		.ascii	"p_waiting\000"
 2561      6974696E 
 2561      6700
 2562              	.LASF81:
 2563 02b6 73697A65 		.ascii	"sizetype\000"
 2563      74797065 
 2563      00
 2564              	.LASF47:
 2565 02bf 74687265 		.ascii	"thread_reference_t\000"
 2565      61645F72 
 2565      65666572 
 2565      656E6365 
 2565      5F7400
 2566              	.LASF70:
 2567 02d2 63685F76 		.ascii	"ch_virtual_timers_list\000"
 2567      69727475 
 2567      616C5F74 
 2567      696D6572 
 2567      735F6C69 
 2568              	.LASF87:
 2569 02e9 43465352 		.ascii	"CFSR\000"
 2569      00
 2570              	.LASF33:
 2571 02ee 705F6F6C 		.ascii	"p_older\000"
 2571      64657200 
 2572              	.LASF57:
 2573 02f6 725F6374 		.ascii	"r_ctx\000"
 2573      7800
 2574              	.LASF108:
 2575 02fc 706F7274 		.ascii	"port_extctx\000"
 2575      5F657874 
 2575      63747800 
 2576              	.LASF114:
 2577 0308 746D5F63 		.ascii	"tm_calibration_t\000"
 2577      616C6962 
 2577      72617469 
 2577      6F6E5F74 
 2577      00
 2578              	.LASF128:
 2579 0319 6D5F6E65 		.ascii	"m_next\000"
 2579      787400
 2580              	.LASF60:
 2581 0320 725F6375 		.ascii	"r_current\000"
 2581      7272656E 
 2581      7400
 2582              	.LASF59:
 2583 032a 725F6F6C 		.ascii	"r_older\000"
 2583      64657200 
ARM GAS  C:\Users\IDONNO~1\AppData\Local\Temp\ccRRjj4u.s 			page 49


 2584              	.LASF11:
 2585 0332 5F5F7569 		.ascii	"__uint64_t\000"
 2585      6E743634 
 2585      5F7400
 2586              	.LASF101:
 2587 033d 4D564652 		.ascii	"MVFR0\000"
 2587      3000
 2588              	.LASF102:
 2589 0343 4D564652 		.ascii	"MVFR1\000"
 2589      3100
 2590              	.LASF20:
 2591 0349 74726566 		.ascii	"trefs_t\000"
 2591      735F7400 
 2592              	.LASF95:
 2593 0351 52455345 		.ascii	"RESERVED0\000"
 2593      52564544 
 2593      3000
 2594              	.LASF144:
 2595 035b 63747870 		.ascii	"ctxp\000"
 2595      00
 2596              	.LASF62:
 2597 0360 76697274 		.ascii	"virtual_timer_t\000"
 2597      75616C5F 
 2597      74696D65 
 2597      725F7400 
 2598              	.LASF29:
 2599 0370 705F7072 		.ascii	"p_prev\000"
 2599      657600
 2600              	.LASF22:
 2601 0377 74707269 		.ascii	"tprio_t\000"
 2601      6F5F7400 
 2602              	.LASF139:
 2603 037f 5F5F6765 		.ascii	"__get_FPSCR\000"
 2603      745F4650 
 2603      53435200 
 2604              	.LASF73:
 2605 038b 63685F73 		.ascii	"ch_system_debug\000"
 2605      79737465 
 2605      6D5F6465 
 2605      62756700 
 2606              	.LASF14:
 2607 039b 696E7433 		.ascii	"int32_t\000"
 2607      325F7400 
 2608              	.LASF2:
 2609 03a3 756E7369 		.ascii	"unsigned char\000"
 2609      676E6564 
 2609      20636861 
 2609      7200
 2610              	.LASF86:
 2611 03b1 53484353 		.ascii	"SHCSR\000"
 2611      5200
 2612              	.LASF145:
 2613 03b7 49544D5F 		.ascii	"ITM_RxBuffer\000"
 2613      52784275 
 2613      66666572 
 2613      00
 2614              	.LASF44:
ARM GAS  C:\Users\IDONNO~1\AppData\Local\Temp\ccRRjj4u.s 			page 50


 2615 03c4 705F6D74 		.ascii	"p_mtxlist\000"
 2615      786C6973 
 2615      7400
 2616              	.LASF3:
 2617 03ce 73686F72 		.ascii	"short int\000"
 2617      7420696E 
 2617      7400
 2618              	.LASF35:
 2619 03d8 705F7374 		.ascii	"p_state\000"
 2619      61746500 
 2620              	.LASF38:
 2621 03e0 705F7072 		.ascii	"p_preempt\000"
 2621      65656D70 
 2621      7400
 2622              	.LASF110:
 2623 03ea 78707372 		.ascii	"xpsr\000"
 2623      00
 2624              	.LASF56:
 2625 03ef 725F7072 		.ascii	"r_prio\000"
 2625      696F00
 2626              	.LASF121:
 2627 03f6 65776D61 		.ascii	"ewmask\000"
 2627      736B00
 2628              	.LASF28:
 2629 03fd 705F6E65 		.ascii	"p_next\000"
 2629      787400
 2630              	.LASF111:
 2631 0404 66707363 		.ascii	"fpscr\000"
 2631      7200
 2632              	.LASF36:
 2633 040a 705F666C 		.ascii	"p_flags\000"
 2633      61677300 
 2634              	.LASF4:
 2635 0412 73686F72 		.ascii	"short unsigned int\000"
 2635      7420756E 
 2635      7369676E 
 2635      65642069 
 2635      6E7400
 2636              	.LASF109:
 2637 0425 6C725F74 		.ascii	"lr_thd\000"
 2637      686400
 2638              	.LASF99:
 2639 042c 46504341 		.ascii	"FPCAR\000"
 2639      5200
 2640              	.LASF142:
 2641 0432 5356435F 		.ascii	"SVC_Handler\000"
 2641      48616E64 
 2641      6C657200 
 2642              	.LASF98:
 2643 043e 46504343 		.ascii	"FPCCR\000"
 2643      5200
 2644              	.LASF63:
 2645 0444 63685F76 		.ascii	"ch_virtual_timer\000"
 2645      69727475 
 2645      616C5F74 
 2645      696D6572 
 2645      00
ARM GAS  C:\Users\IDONNO~1\AppData\Local\Temp\ccRRjj4u.s 			page 51


 2646              	.LASF122:
 2647 0455 63685F73 		.ascii	"ch_semaphore\000"
 2647      656D6170 
 2647      686F7265 
 2647      00
 2648              	.LASF43:
 2649 0462 705F6570 		.ascii	"p_epending\000"
 2649      656E6469 
 2649      6E6700
 2650              	.LASF15:
 2651 046d 75696E74 		.ascii	"uint32_t\000"
 2651      33325F74 
 2651      00
 2652              	.LASF120:
 2653 0476 77746D74 		.ascii	"wtmtxp\000"
 2653      787000
 2654              	.LASF55:
 2655 047d 725F7175 		.ascii	"r_queue\000"
 2655      65756500 
 2656              	.LASF50:
 2657 0485 63685F74 		.ascii	"ch_threads_list\000"
 2657      68726561 
 2657      64735F6C 
 2657      69737400 
 2658              	.LASF9:
 2659 0495 6C6F6E67 		.ascii	"long unsigned int\000"
 2659      20756E73 
 2659      69676E65 
 2659      6420696E 
 2659      7400
 2660              	.LASF129:
 2661 04a7 63686172 		.ascii	"char\000"
 2661      00
 2662              	.LASF147:
 2663 04ac 6C69622F 		.ascii	"lib/ChibiOS_3.0.2/os/rt/ports/ARMCMx/chcore_v7m.c\000"
 2663      43686962 
 2663      694F535F 
 2663      332E302E 
 2663      322F6F73 
 2664              	.LASF137:
 2665 04de 706F7274 		.ascii	"port_unlock_from_isr\000"
 2665      5F756E6C 
 2665      6F636B5F 
 2665      66726F6D 
 2665      5F697372 
 2666              	.LASF27:
 2667 04f3 74687265 		.ascii	"thread_t\000"
 2667      61645F74 
 2667      00
 2668              	.LASF146:
 2669 04fc 474E5520 		.ascii	"GNU C99 5.2.1 20151202 (release) [ARM/embedded-5-br"
 2669      43393920 
 2669      352E322E 
 2669      31203230 
 2669      31353132 
 2670 052f 616E6368 		.ascii	"anch revision 231848] -mcpu=cortex-m4 -mfloat-abi=h"
 2670      20726576 
ARM GAS  C:\Users\IDONNO~1\AppData\Local\Temp\ccRRjj4u.s 			page 52


 2670      6973696F 
 2670      6E203233 
 2670      31383438 
 2671 0562 61726420 		.ascii	"ard -mfpu=fpv4-sp-d16 -mno-thumb-interwork -mthumb "
 2671      2D6D6670 
 2671      753D6670 
 2671      76342D73 
 2671      702D6431 
 2672 0595 2D676764 		.ascii	"-ggdb -O2 -std=gnu99 -fomit-frame-pointer -falign-f"
 2672      62202D4F 
 2672      32202D73 
 2672      74643D67 
 2672      6E753939 
 2673 05c8 756E6374 		.ascii	"unctions=16 -ffunction-sections -fdata-sections -fn"
 2673      696F6E73 
 2673      3D313620 
 2673      2D666675 
 2673      6E637469 
 2674 05fb 6F2D636F 		.ascii	"o-common -fsingle-precision-constant\000"
 2674      6D6D6F6E 
 2674      202D6673 
 2674      696E676C 
 2674      652D7072 
 2675              	.LASF26:
 2676 0620 73797374 		.ascii	"systime_t\000"
 2676      696D655F 
 2676      7400
 2677              	.LASF45:
 2678 062a 705F7265 		.ascii	"p_realprio\000"
 2678      616C7072 
 2678      696F00
 2679              	.LASF61:
 2680 0635 76746675 		.ascii	"vtfunc_t\000"
 2680      6E635F74 
 2680      00
 2681              	.LASF8:
 2682 063e 5F5F7569 		.ascii	"__uint32_t\000"
 2682      6E743332 
 2682      5F7400
 2683              	.LASF133:
 2684 0649 5F5F7365 		.ascii	"__set_BASEPRI\000"
 2684      745F4241 
 2684      53455052 
 2684      4900
 2685              	.LASF74:
 2686 0657 70616E69 		.ascii	"panic_msg\000"
 2686      635F6D73 
 2686      6700
 2687              	.LASF113:
 2688 0661 6F666673 		.ascii	"offset\000"
 2688      657400
 2689              	.LASF106:
 2690 0668 636F6E74 		.ascii	"context\000"
 2690      65787400 
 2691              	.LASF75:
 2692 0670 63685F73 		.ascii	"ch_system_t\000"
 2692      79737465 
ARM GAS  C:\Users\IDONNO~1\AppData\Local\Temp\ccRRjj4u.s 			page 53


 2692      6D5F7400 
 2693              	.LASF17:
 2694 067c 7274636E 		.ascii	"rtcnt_t\000"
 2694      745F7400 
 2695              	.LASF141:
 2696 0684 706F7274 		.ascii	"port_lock_from_isr\000"
 2696      5F6C6F63 
 2696      6B5F6672 
 2696      6F6D5F69 
 2696      737200
 2697              	.LASF138:
 2698 0697 5F5F6765 		.ascii	"__get_PSP\000"
 2698      745F5053 
 2698      5000
 2699              	.LASF68:
 2700 06a1 76745F70 		.ascii	"vt_par\000"
 2700      617200
 2701              	.LASF51:
 2702 06a8 74687265 		.ascii	"threads_queue_t\000"
 2702      6164735F 
 2702      71756575 
 2702      655F7400 
 2703              	.LASF125:
 2704 06b8 63685F6D 		.ascii	"ch_mutex\000"
 2704      75746578 
 2704      00
 2705              	.LASF37:
 2706 06c1 705F7265 		.ascii	"p_refs\000"
 2706      667300
 2707              	.LASF93:
 2708 06c8 4D4D4652 		.ascii	"MMFR\000"
 2708      00
 2709              	.LASF77:
 2710 06cd 726C6973 		.ascii	"rlist\000"
 2710      7400
 2711              	.LASF13:
 2712 06d3 75696E74 		.ascii	"uint8_t\000"
 2712      385F7400 
 2713              	.LASF117:
 2714 06db 77746F62 		.ascii	"wtobjp\000"
 2714      6A7000
 2715              	.LASF34:
 2716 06e2 705F6E61 		.ascii	"p_name\000"
 2716      6D6500
 2717              	.LASF42:
 2718 06e9 705F6D73 		.ascii	"p_msg\000"
 2718      6700
 2719              	.LASF96:
 2720 06ef 43504143 		.ascii	"CPACR\000"
 2720      5200
 2721              	.LASF88:
 2722 06f5 48465352 		.ascii	"HFSR\000"
 2722      00
 2723              	.LASF130:
 2724 06fa 6D757465 		.ascii	"mutex_t\000"
 2724      785F7400 
 2725              	.LASF127:
ARM GAS  C:\Users\IDONNO~1\AppData\Local\Temp\ccRRjj4u.s 			page 54


 2726 0702 6D5F6F77 		.ascii	"m_owner\000"
 2726      6E657200 
 2727              	.LASF140:
 2728 070a 72657375 		.ascii	"result\000"
 2728      6C7400
 2729              	.LASF31:
 2730 0711 705F6374 		.ascii	"p_ctx\000"
 2730      7800
 2731              	.LASF67:
 2732 0717 76745F66 		.ascii	"vt_func\000"
 2732      756E6300 
 2733              		.ident	"GCC: (GNU Tools for ARM Embedded Processors) 5.2.1 20151202 (release) [ARM/embedded-5-bran
ARM GAS  C:\Users\IDONNO~1\AppData\Local\Temp\ccRRjj4u.s 			page 55


DEFINED SYMBOLS
                            *ABS*:00000000 chcore_v7m.c
C:\Users\IDONNO~1\AppData\Local\Temp\ccRRjj4u.s:22     .text.SVC_Handler:00000000 $t
C:\Users\IDONNO~1\AppData\Local\Temp\ccRRjj4u.s:28     .text.SVC_Handler:00000000 SVC_Handler
C:\Users\IDONNO~1\AppData\Local\Temp\ccRRjj4u.s:88     .text.SVC_Handler:0000001c $d
C:\Users\IDONNO~1\AppData\Local\Temp\ccRRjj4u.s:97     .text._port_irq_epilogue:00000000 $t
C:\Users\IDONNO~1\AppData\Local\Temp\ccRRjj4u.s:103    .text._port_irq_epilogue:00000000 _port_irq_epilogue
C:\Users\IDONNO~1\AppData\Local\Temp\ccRRjj4u.s:227    .text._port_irq_epilogue:00000050 $d
                     .debug_frame:00000010 $d

UNDEFINED SYMBOLS
chSchIsPreemptionRequired
_port_switch_from_isr
_port_exit_from_isr
