ARM GAS  C:\Users\IDONNO~1.SON\AppData\Local\Temp\ccxTFrhE.s 			page 1


   1              		.syntax unified
   2              		.cpu cortex-m4
   3              		.eabi_attribute 27, 1
   4              		.eabi_attribute 28, 1
   5              		.fpu fpv4-sp-d16
   6              		.eabi_attribute 20, 1
   7              		.eabi_attribute 21, 1
   8              		.eabi_attribute 23, 3
   9              		.eabi_attribute 24, 1
  10              		.eabi_attribute 25, 1
  11              		.eabi_attribute 26, 1
  12              		.eabi_attribute 30, 2
  13              		.eabi_attribute 34, 1
  14              		.eabi_attribute 18, 4
  15              		.thumb
  16              		.syntax unified
  17              		.file	"chmemcore.c"
  18              		.text
  19              	.Ltext0:
  20              		.cfi_sections	.debug_frame
  21              		.section	.text._core_init,"ax",%progbits
  22              		.align	2
  23              		.p2align 4,,15
  24              		.global	_core_init
  25              		.thumb
  26              		.thumb_func
  27              		.type	_core_init, %function
  28              	_core_init:
  29              	.LFB219:
  30              		.file 1 "lib/ChibiOS_3.0.2/os/rt/src/chmemcore.c"
  31              		.loc 1 78 0
  32              		.cfi_startproc
  33              		@ args = 0, pretend = 0, frame = 0
  34              		@ frame_needed = 0, uses_anonymous_args = 0
  35              		@ link register save eliminated.
  36              		.loc 1 84 0
  37 0000 054A     		ldr	r2, .L2
  38              		.loc 1 85 0
  39 0002 064B     		ldr	r3, .L2+4
  40              		.loc 1 84 0
  41 0004 0648     		ldr	r0, .L2+8
  42              		.loc 1 85 0
  43 0006 0749     		ldr	r1, .L2+12
  44              		.loc 1 84 0
  45 0008 22F00702 		bic	r2, r2, #7
  46              		.loc 1 85 0
  47 000c 23F00703 		bic	r3, r3, #7
  48              		.loc 1 84 0
  49 0010 0260     		str	r2, [r0]
  50              		.loc 1 85 0
  51 0012 0B60     		str	r3, [r1]
  52 0014 7047     		bx	lr
  53              	.L3:
  54 0016 00BF     		.align	2
  55              	.L2:
  56 0018 07000000 		.word	__heap_base__+7
  57 001c 00000000 		.word	__heap_end__
ARM GAS  C:\Users\IDONNO~1.SON\AppData\Local\Temp\ccxTFrhE.s 			page 2


  58 0020 00000000 		.word	.LANCHOR0
  59 0024 00000000 		.word	.LANCHOR1
  60              		.cfi_endproc
  61              	.LFE219:
  62              		.size	_core_init, .-_core_init
  63              		.section	.text.chCoreAlloc,"ax",%progbits
  64              		.align	2
  65              		.p2align 4,,15
  66              		.global	chCoreAlloc
  67              		.thumb
  68              		.thumb_func
  69              		.type	chCoreAlloc, %function
  70              	chCoreAlloc:
  71              	.LFB220:
  72              		.loc 1 109 0
  73              		.cfi_startproc
  74              		@ args = 0, pretend = 0, frame = 0
  75              		@ frame_needed = 0, uses_anonymous_args = 0
  76              		@ link register save eliminated.
  77              	.LVL0:
  78 0000 10B4     		push	{r4}
  79              		.cfi_def_cfa_offset 4
  80              		.cfi_offset 4, -4
  81              	.LBB26:
  82              	.LBB27:
  83              	.LBB28:
  84              	.LBB29:
  85              		.file 2 "lib/ChibiOS_3.0.2/os/ext/CMSIS/include/core_cmFunc.h"
  86              		.loc 2 546 0
  87 0002 2023     		movs	r3, #32
  88              		.syntax unified
  89              	@ 546 "lib/ChibiOS_3.0.2/os/ext/CMSIS/include/core_cmFunc.h" 1
  90 0004 83F31188 		MSR basepri, r3
  91              	@ 0 "" 2
  92              	.LVL1:
  93              		.thumb
  94              		.syntax unified
  95              	.LBE29:
  96              	.LBE28:
  97              	.LBE27:
  98              	.LBE26:
  99              	.LBB30:
 100              	.LBB31:
 101              		.loc 1 138 0
 102 0008 094C     		ldr	r4, .L9
 103 000a 0A4B     		ldr	r3, .L9+4
 104 000c 2268     		ldr	r2, [r4]
 105 000e 1968     		ldr	r1, [r3]
 106              		.loc 1 136 0
 107 0010 C31D     		adds	r3, r0, #7
 108 0012 23F00703 		bic	r3, r3, #7
 109              	.LVL2:
 110              		.loc 1 138 0
 111 0016 891A     		subs	r1, r1, r2
 112 0018 8B42     		cmp	r3, r1
 113              	.LVL3:
 114              		.loc 1 143 0
ARM GAS  C:\Users\IDONNO~1.SON\AppData\Local\Temp\ccxTFrhE.s 			page 3


 115 001a 9DBF     		ittte	ls
 116 001c 9B18     		addls	r3, r3, r2
 117              	.LVL4:
 118 001e 2360     		strls	r3, [r4]
 119              		.loc 1 145 0
 120 0020 1046     		movls	r0, r2
 121              	.LVL5:
 122              		.loc 1 140 0
 123 0022 0020     		movhi	r0, #0
 124              	.LVL6:
 125              	.LBE31:
 126              	.LBE30:
 127              	.LBB32:
 128              	.LBB33:
 129              	.LBB34:
 130              	.LBB35:
 131              	.LBB36:
 132              		.loc 2 546 0
 133 0024 0023     		movs	r3, #0
 134              		.syntax unified
 135              	@ 546 "lib/ChibiOS_3.0.2/os/ext/CMSIS/include/core_cmFunc.h" 1
 136 0026 83F31188 		MSR basepri, r3
 137              	@ 0 "" 2
 138              	.LVL7:
 139              		.thumb
 140              		.syntax unified
 141              	.LBE36:
 142              	.LBE35:
 143              	.LBE34:
 144              	.LBE33:
 145              	.LBE32:
 146              		.loc 1 117 0
 147 002a 5DF8044B 		ldr	r4, [sp], #4
 148              		.cfi_restore 4
 149              		.cfi_def_cfa_offset 0
 150 002e 7047     		bx	lr
 151              	.L10:
 152              		.align	2
 153              	.L9:
 154 0030 00000000 		.word	.LANCHOR0
 155 0034 00000000 		.word	.LANCHOR1
 156              		.cfi_endproc
 157              	.LFE220:
 158              		.size	chCoreAlloc, .-chCoreAlloc
 159              		.section	.text.chCoreAllocI,"ax",%progbits
 160              		.align	2
 161              		.p2align 4,,15
 162              		.global	chCoreAllocI
 163              		.thumb
 164              		.thumb_func
 165              		.type	chCoreAllocI, %function
 166              	chCoreAllocI:
 167              	.LFB221:
 168              		.loc 1 131 0
 169              		.cfi_startproc
 170              		@ args = 0, pretend = 0, frame = 0
 171              		@ frame_needed = 0, uses_anonymous_args = 0
ARM GAS  C:\Users\IDONNO~1.SON\AppData\Local\Temp\ccxTFrhE.s 			page 4


 172              		@ link register save eliminated.
 173              	.LVL8:
 174 0000 10B4     		push	{r4}
 175              		.cfi_def_cfa_offset 4
 176              		.cfi_offset 4, -4
 177              		.loc 1 138 0
 178 0002 084B     		ldr	r3, .L15
 179 0004 084C     		ldr	r4, .L15+4
 180 0006 1968     		ldr	r1, [r3]
 181 0008 2268     		ldr	r2, [r4]
 182              		.loc 1 136 0
 183 000a 0730     		adds	r0, r0, #7
 184              	.LVL9:
 185 000c 20F00703 		bic	r3, r0, #7
 186              	.LVL10:
 187              		.loc 1 138 0
 188 0010 891A     		subs	r1, r1, r2
 189 0012 8B42     		cmp	r3, r1
 190              	.LVL11:
 191              		.loc 1 143 0
 192 0014 9DBF     		ittte	ls
 193 0016 9B18     		addls	r3, r3, r2
 194              	.LVL12:
 195 0018 2360     		strls	r3, [r4]
 196              		.loc 1 145 0
 197 001a 1046     		movls	r0, r2
 198              	.LVL13:
 199              		.loc 1 140 0
 200 001c 0020     		movhi	r0, #0
 201              		.loc 1 146 0
 202 001e 5DF8044B 		ldr	r4, [sp], #4
 203              		.cfi_restore 4
 204              		.cfi_def_cfa_offset 0
 205 0022 7047     		bx	lr
 206              	.L16:
 207              		.align	2
 208              	.L15:
 209 0024 00000000 		.word	.LANCHOR1
 210 0028 00000000 		.word	.LANCHOR0
 211              		.cfi_endproc
 212              	.LFE221:
 213              		.size	chCoreAllocI, .-chCoreAllocI
 214              		.section	.text.chCoreGetStatusX,"ax",%progbits
 215              		.align	2
 216              		.p2align 4,,15
 217              		.global	chCoreGetStatusX
 218              		.thumb
 219              		.thumb_func
 220              		.type	chCoreGetStatusX, %function
 221              	chCoreGetStatusX:
 222              	.LFB222:
 223              		.loc 1 155 0
 224              		.cfi_startproc
 225              		@ args = 0, pretend = 0, frame = 0
 226              		@ frame_needed = 0, uses_anonymous_args = 0
 227              		@ link register save eliminated.
 228              		.loc 1 158 0
ARM GAS  C:\Users\IDONNO~1.SON\AppData\Local\Temp\ccxTFrhE.s 			page 5


 229 0000 024A     		ldr	r2, .L18
 230 0002 034B     		ldr	r3, .L18+4
 231 0004 1068     		ldr	r0, [r2]
 232 0006 1B68     		ldr	r3, [r3]
 233              		.loc 1 160 0
 234 0008 C01A     		subs	r0, r0, r3
 235 000a 7047     		bx	lr
 236              	.L19:
 237              		.align	2
 238              	.L18:
 239 000c 00000000 		.word	.LANCHOR1
 240 0010 00000000 		.word	.LANCHOR0
 241              		.cfi_endproc
 242              	.LFE222:
 243              		.size	chCoreGetStatusX, .-chCoreGetStatusX
 244              		.section	.bss.endmem,"aw",%nobits
 245              		.align	2
 246              		.set	.LANCHOR1,. + 0
 247              		.type	endmem, %object
 248              		.size	endmem, 4
 249              	endmem:
 250 0000 00000000 		.space	4
 251              		.section	.bss.nextmem,"aw",%nobits
 252              		.align	2
 253              		.set	.LANCHOR0,. + 0
 254              		.type	nextmem, %object
 255              		.size	nextmem, 4
 256              	nextmem:
 257 0000 00000000 		.space	4
 258              		.text
 259              	.Letext0:
 260              		.file 3 "c:\\program files (x86)\\gnu tools arm embedded\\5.4 2016q2\\lib\\gcc\\arm-none-eabi\\5.4
 261              		.file 4 "c:\\program files (x86)\\gnu tools arm embedded\\5.4 2016q2\\arm-none-eabi\\include\\mach
 262              		.file 5 "c:\\program files (x86)\\gnu tools arm embedded\\5.4 2016q2\\arm-none-eabi\\include\\sys\
 263              		.file 6 "lib/ChibiOS_3.0.2/os/rt/ports/ARMCMx/compilers/GCC/chtypes.h"
 264              		.file 7 "lib/ChibiOS_3.0.2/os/rt/include/chsystypes.h"
 265              		.file 8 "lib/ChibiOS_3.0.2/os/rt/include/chschd.h"
 266              		.file 9 "lib/ChibiOS_3.0.2/os/rt/ports/ARMCMx/chcore.h"
 267              		.file 10 "lib/ChibiOS_3.0.2/os/rt/ports/ARMCMx/chcore_v7m.h"
 268              		.file 11 "lib/ChibiOS_3.0.2/os/rt/include/chtm.h"
 269              		.file 12 "lib/ChibiOS_3.0.2/os/rt/include/chsem.h"
 270              		.file 13 "lib/ChibiOS_3.0.2/os/rt/include/chmtx.h"
 271              		.file 14 "lib/ChibiOS_3.0.2/os/rt/include/chsys.h"
 272              		.file 15 "lib/ChibiOS_3.0.2/os/ext/CMSIS/include/core_cm4.h"