ARM GAS  C:\Users\IDONNO~1\AppData\Local\Temp\cc8y2Qbc.s 			page 1


   1              		.syntax unified
   2              		.cpu cortex-m4
   3              		.eabi_attribute 27, 1
   4              		.eabi_attribute 28, 1
   5              		.fpu fpv4-sp-d16
   6              		.eabi_attribute 20, 1
   7              		.eabi_attribute 21, 1
   8              		.eabi_attribute 23, 3
   9              		.eabi_attribute 24, 1
  10              		.eabi_attribute 25, 1
  11              		.eabi_attribute 26, 1
  12              		.eabi_attribute 30, 2
  13              		.eabi_attribute 34, 1
  14              		.eabi_attribute 18, 4
  15              		.thumb
  16              		.syntax unified
  17              		.file	"chmsg.c"
  18              		.text
  19              	.Ltext0:
  20              		.cfi_sections	.debug_frame
  21              		.section	.text.chMsgSend,"ax",%progbits
  22              		.align	2
  23              		.p2align 4,,15
  24              		.global	chMsgSend
  25              		.thumb
  26              		.thumb_func
  27              		.type	chMsgSend, %function
  28              	chMsgSend:
  29              	.LFB219:
  30              		.file 1 "lib/ChibiOS_3.0.2/os/rt/src/chmsg.c"
  31              		.loc 1 87 0
  32              		.cfi_startproc
  33              		@ args = 0, pretend = 0, frame = 0
  34              		@ frame_needed = 0, uses_anonymous_args = 0
  35              	.LVL0:
  36 0000 38B5     		push	{r3, r4, r5, lr}
  37              		.cfi_def_cfa_offset 16
  38              		.cfi_offset 3, -16
  39              		.cfi_offset 4, -12
  40              		.cfi_offset 5, -8
  41              		.cfi_offset 14, -4
  42              		.loc 1 88 0
  43 0002 0E4B     		ldr	r3, .L6
  44              	.LBB52:
  45              	.LBB53:
  46              	.LBB54:
  47              	.LBB55:
  48              		.file 2 "lib/ChibiOS_3.0.2/os/ext/CMSIS/include/core_cmFunc.h"
  49              		.loc 2 546 0
  50 0004 2022     		movs	r2, #32
  51              	.LBE55:
  52              	.LBE54:
  53              	.LBE53:
  54              	.LBE52:
  55              		.loc 1 88 0
  56 0006 9C69     		ldr	r4, [r3, #24]
  57              	.LVL1:
ARM GAS  C:\Users\IDONNO~1\AppData\Local\Temp\cc8y2Qbc.s 			page 2


  58              	.LBB59:
  59              	.LBB58:
  60              	.LBB57:
  61              	.LBB56:
  62              		.loc 2 546 0
  63              		.syntax unified
  64              	@ 546 "lib/ChibiOS_3.0.2/os/ext/CMSIS/include/core_cmFunc.h" 1
  65 0008 82F31188 		MSR basepri, r2
  66              	@ 0 "" 2
  67              	.LVL2:
  68              		.thumb
  69              		.syntax unified
  70              	.LBE56:
  71              	.LBE57:
  72              	.LBE58:
  73              	.LBE59:
  74              		.loc 1 94 0
  75 000c 00F12C05 		add	r5, r0, #44
  76 0010 6562     		str	r5, [r4, #36]
  77              	.LVL3:
  78              	.LBB60:
  79              	.LBB61:
  80              		.file 3 "lib/ChibiOS_3.0.2/os/rt/include/chschd.h"
  81              		.loc 3 666 0
  82 0012 026B     		ldr	r2, [r0, #48]
  83 0014 6260     		str	r2, [r4, #4]
  84              	.LBE61:
  85              	.LBE60:
  86              		.loc 1 93 0
  87 0016 6163     		str	r1, [r4, #52]
  88              	.LBB64:
  89              	.LBB62:
  90              		.loc 3 665 0
  91 0018 2560     		str	r5, [r4]
  92              		.loc 3 667 0
  93 001a 1460     		str	r4, [r2]
  94              	.LBE62:
  95              	.LBE64:
  96              		.loc 1 96 0
  97 001c 027F     		ldrb	r2, [r0, #28]	@ zero_extendqisi2
  98              	.LBB65:
  99              	.LBB63:
 100              		.loc 3 668 0
 101 001e 0463     		str	r4, [r0, #48]
 102              	.LVL4:
 103              	.LBE63:
 104              	.LBE65:
 105              		.loc 1 96 0
 106 0020 0E2A     		cmp	r2, #14
 107 0022 07D0     		beq	.L5
 108              	.LVL5:
 109              	.L2:
 110              		.loc 1 99 0
 111 0024 0C20     		movs	r0, #12
 112 0026 FFF7FEFF 		bl	chSchGoSleepS
 113              	.LVL6:
 114              		.loc 1 100 0
ARM GAS  C:\Users\IDONNO~1\AppData\Local\Temp\cc8y2Qbc.s 			page 3


 115 002a 606A     		ldr	r0, [r4, #36]
 116              	.LVL7:
 117              	.LBB66:
 118              	.LBB67:
 119              	.LBB68:
 120              	.LBB69:
 121              	.LBB70:
 122              		.loc 2 546 0
 123 002c 0023     		movs	r3, #0
 124              		.syntax unified
 125              	@ 546 "lib/ChibiOS_3.0.2/os/ext/CMSIS/include/core_cmFunc.h" 1
 126 002e 83F31188 		MSR basepri, r3
 127              	@ 0 "" 2
 128              	.LVL8:
 129              		.thumb
 130              		.syntax unified
 131              	.LBE70:
 132              	.LBE69:
 133              	.LBE68:
 134              	.LBE67:
 135              	.LBE66:
 136              		.loc 1 104 0
 137 0032 38BD     		pop	{r3, r4, r5, pc}
 138              	.LVL9:
 139              	.L5:
 140              		.loc 1 97 0
 141 0034 FFF7FEFF 		bl	chSchReadyI
 142              	.LVL10:
 143 0038 F4E7     		b	.L2
 144              	.L7:
 145 003a 00BF     		.align	2
 146              	.L6:
 147 003c 00000000 		.word	ch
 148              		.cfi_endproc
 149              	.LFE219:
 150              		.size	chMsgSend, .-chMsgSend
 151              		.section	.text.chMsgWait,"ax",%progbits
 152              		.align	2
 153              		.p2align 4,,15
 154              		.global	chMsgWait
 155              		.thumb
 156              		.thumb_func
 157              		.type	chMsgWait, %function
 158              	chMsgWait:
 159              	.LFB220:
 160              		.loc 1 120 0
 161              		.cfi_startproc
 162              		@ args = 0, pretend = 0, frame = 0
 163              		@ frame_needed = 0, uses_anonymous_args = 0
 164              	.LVL11:
 165 0000 10B5     		push	{r4, lr}
 166              		.cfi_def_cfa_offset 8
 167              		.cfi_offset 4, -8
 168              		.cfi_offset 14, -4
 169              	.LBB71:
 170              	.LBB72:
 171              	.LBB73:
ARM GAS  C:\Users\IDONNO~1\AppData\Local\Temp\cc8y2Qbc.s 			page 4


 172              	.LBB74:
 173              		.loc 2 546 0
 174 0002 2023     		movs	r3, #32
 175              		.syntax unified
 176              	@ 546 "lib/ChibiOS_3.0.2/os/ext/CMSIS/include/core_cmFunc.h" 1
 177 0004 83F31188 		MSR basepri, r3
 178              	@ 0 "" 2
 179              	.LVL12:
 180              		.thumb
 181              		.syntax unified
 182              	.LBE74:
 183              	.LBE73:
 184              	.LBE72:
 185              	.LBE71:
 186              		.loc 1 124 0
 187 0008 0B4C     		ldr	r4, .L12
 188 000a A269     		ldr	r2, [r4, #24]
 189              	.LVL13:
 190              	.LBB75:
 191              	.LBB76:
 192              		.file 4 "lib/ChibiOS_3.0.2/os/rt/include/chmsg.h"
 193              		.loc 4 83 0
 194 000c 1346     		mov	r3, r2
 195 000e 53F82C0F 		ldr	r0, [r3, #44]!
 196              	.LVL14:
 197              	.LBE76:
 198              	.LBE75:
 199              		.loc 1 124 0
 200 0012 9842     		cmp	r0, r3
 201 0014 08D0     		beq	.L11
 202              	.L9:
 203              	.LVL15:
 204              	.LBB77:
 205              	.LBB78:
 206              		.loc 3 674 0
 207 0016 0168     		ldr	r1, [r0]
 208 0018 D162     		str	r1, [r2, #44]
 209              	.LVL16:
 210              	.LBE78:
 211              	.LBE77:
 212              		.loc 1 128 0
 213 001a 0D22     		movs	r2, #13
 214              	.LBB80:
 215              	.LBB79:
 216              		.loc 3 675 0
 217 001c 4B60     		str	r3, [r1, #4]
 218              	.LVL17:
 219              	.LBE79:
 220              	.LBE80:
 221              	.LBB81:
 222              	.LBB82:
 223              	.LBB83:
 224              	.LBB84:
 225              	.LBB85:
 226              		.loc 2 546 0
 227 001e 0023     		movs	r3, #0
 228              	.LBE85:
ARM GAS  C:\Users\IDONNO~1\AppData\Local\Temp\cc8y2Qbc.s 			page 5


 229              	.LBE84:
 230              	.LBE83:
 231              	.LBE82:
 232              	.LBE81:
 233              		.loc 1 128 0
 234 0020 0277     		strb	r2, [r0, #28]
 235              	.LVL18:
 236              	.LBB90:
 237              	.LBB89:
 238              	.LBB88:
 239              	.LBB87:
 240              	.LBB86:
 241              		.loc 2 546 0
 242              		.syntax unified
 243              	@ 546 "lib/ChibiOS_3.0.2/os/ext/CMSIS/include/core_cmFunc.h" 1
 244 0022 83F31188 		MSR basepri, r3
 245              	@ 0 "" 2
 246              	.LVL19:
 247              		.thumb
 248              		.syntax unified
 249              	.LBE86:
 250              	.LBE87:
 251              	.LBE88:
 252              	.LBE89:
 253              	.LBE90:
 254              		.loc 1 132 0
 255 0026 10BD     		pop	{r4, pc}
 256              	.L11:
 257              		.loc 1 125 0
 258 0028 0E20     		movs	r0, #14
 259 002a FFF7FEFF 		bl	chSchGoSleepS
 260              	.LVL20:
 261 002e A269     		ldr	r2, [r4, #24]
 262 0030 D06A     		ldr	r0, [r2, #44]
 263 0032 02F12C03 		add	r3, r2, #44
 264 0036 EEE7     		b	.L9
 265              	.L13:
 266              		.align	2
 267              	.L12:
 268 0038 00000000 		.word	ch
 269              		.cfi_endproc
 270              	.LFE220:
 271              		.size	chMsgWait, .-chMsgWait
 272              		.section	.text.chMsgRelease,"ax",%progbits
 273              		.align	2
 274              		.p2align 4,,15
 275              		.global	chMsgRelease
 276              		.thumb
 277              		.thumb_func
 278              		.type	chMsgRelease, %function
 279              	chMsgRelease:
 280              	.LFB221:
 281              		.loc 1 144 0
 282              		.cfi_startproc
 283              		@ args = 0, pretend = 0, frame = 0
 284              		@ frame_needed = 0, uses_anonymous_args = 0
 285              	.LVL21:
ARM GAS  C:\Users\IDONNO~1\AppData\Local\Temp\cc8y2Qbc.s 			page 6


 286 0000 08B5     		push	{r3, lr}
 287              		.cfi_def_cfa_offset 8
 288              		.cfi_offset 3, -8
 289              		.cfi_offset 14, -4
 290              	.LBB91:
 291              	.LBB92:
 292              	.LBB93:
 293              	.LBB94:
 294              		.loc 2 546 0
 295 0002 2023     		movs	r3, #32
 296              		.syntax unified
 297              	@ 546 "lib/ChibiOS_3.0.2/os/ext/CMSIS/include/core_cmFunc.h" 1
 298 0004 83F31188 		MSR basepri, r3
 299              	@ 0 "" 2
 300              	.LVL22:
 301              		.thumb
 302              		.syntax unified
 303              	.LBE94:
 304              	.LBE93:
 305              	.LBE92:
 306              	.LBE91:
 307              	.LBB95:
 308              	.LBB96:
 309              		.loc 4 115 0
 310 0008 FFF7FEFF 		bl	chSchWakeupS
 311              	.LVL23:
 312              	.LBE96:
 313              	.LBE95:
 314              	.LBB97:
 315              	.LBB98:
 316              	.LBB99:
 317              	.LBB100:
 318              	.LBB101:
 319              		.loc 2 546 0
 320 000c 0023     		movs	r3, #0
 321              		.syntax unified
 322              	@ 546 "lib/ChibiOS_3.0.2/os/ext/CMSIS/include/core_cmFunc.h" 1
 323 000e 83F31188 		MSR basepri, r3
 324              	@ 0 "" 2
 325              	.LVL24:
 326              		.thumb
 327              		.syntax unified
 328 0012 08BD     		pop	{r3, pc}
 329              	.LBE101:
 330              	.LBE100:
 331              	.LBE99:
 332              	.LBE98:
 333              	.LBE97:
 334              		.cfi_endproc
 335              	.LFE221:
 336              		.size	chMsgRelease, .-chMsgRelease
 337              		.text
 338              	.Letext0:
 339              		.file 5 "c:\\program files (x86)\\gnu tools arm embedded\\5.4 2016q3\\arm-none-eabi\\include\\mach
 340              		.file 6 "c:\\program files (x86)\\gnu tools arm embedded\\5.4 2016q3\\arm-none-eabi\\include\\sys\
 341              		.file 7 "lib/ChibiOS_3.0.2/os/rt/ports/ARMCMx/compilers/GCC/chtypes.h"
 342              		.file 8 "lib/ChibiOS_3.0.2/os/rt/include/chsystypes.h"
ARM GAS  C:\Users\IDONNO~1\AppData\Local\Temp\cc8y2Qbc.s 			page 7


 343              		.file 9 "lib/ChibiOS_3.0.2/os/rt/ports/ARMCMx/chcore.h"
 344              		.file 10 "lib/ChibiOS_3.0.2/os/rt/ports/ARMCMx/chcore_v7m.h"
 345              		.file 11 "lib/ChibiOS_3.0.2/os/rt/include/chtm.h"
 346              		.file 12 "lib/ChibiOS_3.0.2/os/rt/include/chsem.h"
 347              		.file 13 "lib/ChibiOS_3.0.2/os/rt/include/chmtx.h"
 348              		.file 14 "lib/ChibiOS_3.0.2/os/rt/include/chsys.h"
 349              		.file 15 "lib/ChibiOS_3.0.2/os/ext/CMSIS/include/core_cm4.h"
 350              		.section	.debug_info,"",%progbits
 351              	.Ldebug_info0:
 352 0000 840B0000 		.4byte	0xb84
 353 0004 0400     		.2byte	0x4
 354 0006 00000000 		.4byte	.Ldebug_abbrev0
 355 000a 04       		.byte	0x4
 356 000b 01       		.uleb128 0x1
 357 000c F1040000 		.4byte	.LASF122
 358 0010 0C       		.byte	0xc
 359 0011 1F020000 		.4byte	.LASF123
 360 0015 5F000000 		.4byte	.LASF124
 361 0019 68000000 		.4byte	.Ldebug_ranges0+0x68
 362 001d 00000000 		.4byte	0
 363 0021 00000000 		.4byte	.Ldebug_line0
 364 0025 02       		.uleb128 0x2
 365 0026 04       		.byte	0x4
 366 0027 05       		.byte	0x5
 367 0028 696E7400 		.ascii	"int\000"
 368 002c 03       		.uleb128 0x3
 369 002d 04       		.byte	0x4
 370 002e 07       		.byte	0x7
 371 002f B2010000 		.4byte	.LASF0
 372 0033 03       		.uleb128 0x3
 373 0034 01       		.byte	0x1
 374 0035 06       		.byte	0x6
 375 0036 F7000000 		.4byte	.LASF1
 376 003a 04       		.uleb128 0x4
 377 003b 30000000 		.4byte	.LASF5
 378 003f 05       		.byte	0x5
 379 0040 1D       		.byte	0x1d
 380 0041 45000000 		.4byte	0x45
 381 0045 03       		.uleb128 0x3
 382 0046 01       		.byte	0x1
 383 0047 08       		.byte	0x8
 384 0048 5A030000 		.4byte	.LASF2
 385 004c 03       		.uleb128 0x3
 386 004d 02       		.byte	0x2
 387 004e 05       		.byte	0x5
 388 004f 72030000 		.4byte	.LASF3
 389 0053 03       		.uleb128 0x3
 390 0054 02       		.byte	0x2
 391 0055 07       		.byte	0x7
 392 0056 EF010000 		.4byte	.LASF4
 393 005a 04       		.uleb128 0x4
 394 005b 71020000 		.4byte	.LASF6
 395 005f 05       		.byte	0x5
 396 0060 3F       		.byte	0x3f
 397 0061 65000000 		.4byte	0x65
 398 0065 03       		.uleb128 0x3
 399 0066 04       		.byte	0x4
ARM GAS  C:\Users\IDONNO~1\AppData\Local\Temp\cc8y2Qbc.s 			page 8


 400 0067 05       		.byte	0x5
 401 0068 3A010000 		.4byte	.LASF7
 402 006c 04       		.uleb128 0x4
 403 006d 86040000 		.4byte	.LASF8
 404 0071 05       		.byte	0x5
 405 0072 41       		.byte	0x41
 406 0073 77000000 		.4byte	0x77
 407 0077 03       		.uleb128 0x3
 408 0078 04       		.byte	0x4
 409 0079 07       		.byte	0x7
 410 007a 36040000 		.4byte	.LASF9
 411 007e 03       		.uleb128 0x3
 412 007f 08       		.byte	0x8
 413 0080 05       		.byte	0x5
 414 0081 E9000000 		.4byte	.LASF10
 415 0085 04       		.uleb128 0x4
 416 0086 0A030000 		.4byte	.LASF11
 417 008a 05       		.byte	0x5
 418 008b 5B       		.byte	0x5b
 419 008c 90000000 		.4byte	0x90
 420 0090 03       		.uleb128 0x3
 421 0091 08       		.byte	0x8
 422 0092 07       		.byte	0x7
 423 0093 83000000 		.4byte	.LASF12
 424 0097 04       		.uleb128 0x4
 425 0098 1B060000 		.4byte	.LASF13
 426 009c 06       		.byte	0x6
 427 009d 18       		.byte	0x18
 428 009e 3A000000 		.4byte	0x3a
 429 00a2 04       		.uleb128 0x4
 430 00a3 52030000 		.4byte	.LASF14
 431 00a7 06       		.byte	0x6
 432 00a8 2C       		.byte	0x2c
 433 00a9 5A000000 		.4byte	0x5a
 434 00ad 04       		.uleb128 0x4
 435 00ae 02040000 		.4byte	.LASF15
 436 00b2 06       		.byte	0x6
 437 00b3 30       		.byte	0x30
 438 00b4 6C000000 		.4byte	0x6c
 439 00b8 04       		.uleb128 0x4
 440 00b9 27000000 		.4byte	.LASF16
 441 00bd 06       		.byte	0x6
 442 00be 3C       		.byte	0x3c
 443 00bf 85000000 		.4byte	0x85
 444 00c3 05       		.uleb128 0x5
 445 00c4 A2000000 		.4byte	0xa2
 446 00c8 04       		.uleb128 0x4
 447 00c9 B8040000 		.4byte	.LASF17
 448 00cd 07       		.byte	0x7
 449 00ce 45       		.byte	0x45
 450 00cf AD000000 		.4byte	0xad
 451 00d3 04       		.uleb128 0x4
 452 00d4 4F020000 		.4byte	.LASF18
 453 00d8 07       		.byte	0x7
 454 00d9 48       		.byte	0x48
 455 00da 97000000 		.4byte	0x97
 456 00de 04       		.uleb128 0x4
ARM GAS  C:\Users\IDONNO~1\AppData\Local\Temp\cc8y2Qbc.s 			page 9


 457 00df 4D010000 		.4byte	.LASF19
 458 00e3 07       		.byte	0x7
 459 00e4 49       		.byte	0x49
 460 00e5 97000000 		.4byte	0x97
 461 00e9 04       		.uleb128 0x4
 462 00ea 15030000 		.4byte	.LASF20
 463 00ee 07       		.byte	0x7
 464 00ef 4A       		.byte	0x4a
 465 00f0 97000000 		.4byte	0x97
 466 00f4 04       		.uleb128 0x4
 467 00f5 26010000 		.4byte	.LASF21
 468 00f9 07       		.byte	0x7
 469 00fa 4B       		.byte	0x4b
 470 00fb 97000000 		.4byte	0x97
 471 00ff 04       		.uleb128 0x4
 472 0100 34030000 		.4byte	.LASF22
 473 0104 07       		.byte	0x7
 474 0105 4C       		.byte	0x4c
 475 0106 AD000000 		.4byte	0xad
 476 010a 04       		.uleb128 0x4
 477 010b 19020000 		.4byte	.LASF23
 478 010f 07       		.byte	0x7
 479 0110 4D       		.byte	0x4d
 480 0111 A2000000 		.4byte	0xa2
 481 0115 04       		.uleb128 0x4
 482 0116 65020000 		.4byte	.LASF24
 483 011a 07       		.byte	0x7
 484 011b 4F       		.byte	0x4f
 485 011c AD000000 		.4byte	0xad
 486 0120 04       		.uleb128 0x4
 487 0121 AC010000 		.4byte	.LASF25
 488 0125 07       		.byte	0x7
 489 0126 51       		.byte	0x51
 490 0127 A2000000 		.4byte	0xa2
 491 012b 04       		.uleb128 0x4
 492 012c 68040000 		.4byte	.LASF26
 493 0130 08       		.byte	0x8
 494 0131 33       		.byte	0x33
 495 0132 AD000000 		.4byte	0xad
 496 0136 04       		.uleb128 0x4
 497 0137 4D040000 		.4byte	.LASF27
 498 013b 08       		.byte	0x8
 499 013c 3F       		.byte	0x3f
 500 013d 41010000 		.4byte	0x141
 501 0141 06       		.uleb128 0x6
 502 0142 02020000 		.4byte	.LASF49
 503 0146 48       		.byte	0x48
 504 0147 03       		.byte	0x3
 505 0148 C2       		.byte	0xc2
 506 0149 46020000 		.4byte	0x246
 507 014d 07       		.uleb128 0x7
 508 014e 9C030000 		.4byte	.LASF28
 509 0152 03       		.byte	0x3
 510 0153 C3       		.byte	0xc3
 511 0154 51020000 		.4byte	0x251
 512 0158 00       		.byte	0
 513 0159 07       		.uleb128 0x7
ARM GAS  C:\Users\IDONNO~1\AppData\Local\Temp\cc8y2Qbc.s 			page 10


 514 015a 2D030000 		.4byte	.LASF29
 515 015e 03       		.byte	0x3
 516 015f C5       		.byte	0xc5
 517 0160 51020000 		.4byte	0x251
 518 0164 04       		.byte	0x4
 519 0165 07       		.uleb128 0x7
 520 0166 E2000000 		.4byte	.LASF30
 521 016a 03       		.byte	0x3
 522 016b C7       		.byte	0xc7
 523 016c FF000000 		.4byte	0xff
 524 0170 08       		.byte	0x8
 525 0171 07       		.uleb128 0x7
 526 0172 64060000 		.4byte	.LASF31
 527 0176 03       		.byte	0x3
 528 0177 C8       		.byte	0xc8
 529 0178 81040000 		.4byte	0x481
 530 017c 0C       		.byte	0xc
 531 017d 07       		.uleb128 0x7
 532 017e 66010000 		.4byte	.LASF32
 533 0182 03       		.byte	0x3
 534 0183 CA       		.byte	0xca
 535 0184 51020000 		.4byte	0x251
 536 0188 10       		.byte	0x10
 537 0189 07       		.uleb128 0x7
 538 018a D2020000 		.4byte	.LASF33
 539 018e 03       		.byte	0x3
 540 018f CB       		.byte	0xcb
 541 0190 51020000 		.4byte	0x251
 542 0194 14       		.byte	0x14
 543 0195 07       		.uleb128 0x7
 544 0196 2A060000 		.4byte	.LASF34
 545 019a 03       		.byte	0x3
 546 019b D2       		.byte	0xd2
 547 019c C6060000 		.4byte	0x6c6
 548 01a0 18       		.byte	0x18
 549 01a1 07       		.uleb128 0x7
 550 01a2 7C030000 		.4byte	.LASF35
 551 01a6 03       		.byte	0x3
 552 01a7 DD       		.byte	0xdd
 553 01a8 DE000000 		.4byte	0xde
 554 01ac 1C       		.byte	0x1c
 555 01ad 07       		.uleb128 0x7
 556 01ae A3030000 		.4byte	.LASF36
 557 01b2 03       		.byte	0x3
 558 01b3 E1       		.byte	0xe1
 559 01b4 D3000000 		.4byte	0xd3
 560 01b8 1D       		.byte	0x1d
 561 01b9 07       		.uleb128 0x7
 562 01ba EA040000 		.4byte	.LASF37
 563 01be 03       		.byte	0x3
 564 01bf E6       		.byte	0xe6
 565 01c0 E9000000 		.4byte	0xe9
 566 01c4 1E       		.byte	0x1e
 567 01c5 07       		.uleb128 0x7
 568 01c6 84030000 		.4byte	.LASF38
 569 01ca 03       		.byte	0x3
 570 01cb EC       		.byte	0xec
ARM GAS  C:\Users\IDONNO~1\AppData\Local\Temp\cc8y2Qbc.s 			page 11


 571 01cc F4000000 		.4byte	0xf4
 572 01d0 1F       		.byte	0x1f
 573 01d1 07       		.uleb128 0x7
 574 01d2 C7010000 		.4byte	.LASF39
 575 01d6 03       		.byte	0x3
 576 01d7 F3       		.byte	0xf3
 577 01d8 D8060000 		.4byte	0x6d8
 578 01dc 20       		.byte	0x20
 579 01dd 08       		.uleb128 0x8
 580 01de 705F7500 		.ascii	"p_u\000"
 581 01e2 03       		.byte	0x3
 582 01e3 3101     		.2byte	0x131
 583 01e5 01060000 		.4byte	0x601
 584 01e9 24       		.byte	0x24
 585 01ea 09       		.uleb128 0x9
 586 01eb 95020000 		.4byte	.LASF40
 587 01ef 03       		.byte	0x3
 588 01f0 3601     		.2byte	0x136
 589 01f2 57020000 		.4byte	0x257
 590 01f6 28       		.byte	0x28
 591 01f7 09       		.uleb128 0x9
 592 01f8 DE010000 		.4byte	.LASF41
 593 01fc 03       		.byte	0x3
 594 01fd 3C01     		.2byte	0x13c
 595 01ff 7B020000 		.4byte	0x27b
 596 0203 2C       		.byte	0x2c
 597 0204 09       		.uleb128 0x9
 598 0205 48060000 		.4byte	.LASF42
 599 0209 03       		.byte	0x3
 600 020a 4001     		.2byte	0x140
 601 020c 0A010000 		.4byte	0x10a
 602 0210 34       		.byte	0x34
 603 0211 09       		.uleb128 0x9
 604 0212 F7030000 		.4byte	.LASF43
 605 0216 03       		.byte	0x3
 606 0217 4601     		.2byte	0x146
 607 0219 15010000 		.4byte	0x115
 608 021d 38       		.byte	0x38
 609 021e 09       		.uleb128 0x9
 610 021f 68030000 		.4byte	.LASF44
 611 0223 03       		.byte	0x3
 612 0224 4D01     		.2byte	0x14d
 613 0226 C0060000 		.4byte	0x6c0
 614 022a 3C       		.byte	0x3c
 615 022b 09       		.uleb128 0x9
 616 022c 72040000 		.4byte	.LASF45
 617 0230 03       		.byte	0x3
 618 0231 5101     		.2byte	0x151
 619 0233 FF000000 		.4byte	0xff
 620 0237 40       		.byte	0x40
 621 0238 09       		.uleb128 0x9
 622 0239 03010000 		.4byte	.LASF46
 623 023d 03       		.byte	0x3
 624 023e 5801     		.2byte	0x158
 625 0240 2E030000 		.4byte	0x32e
 626 0244 44       		.byte	0x44
 627 0245 00       		.byte	0
ARM GAS  C:\Users\IDONNO~1\AppData\Local\Temp\cc8y2Qbc.s 			page 12


 628 0246 04       		.uleb128 0x4
 629 0247 A8020000 		.4byte	.LASF47
 630 024b 08       		.byte	0x8
 631 024c 44       		.byte	0x44
 632 024d 51020000 		.4byte	0x251
 633 0251 0A       		.uleb128 0xa
 634 0252 04       		.byte	0x4
 635 0253 36010000 		.4byte	0x136
 636 0257 04       		.uleb128 0x4
 637 0258 86020000 		.4byte	.LASF48
 638 025c 08       		.byte	0x8
 639 025d 49       		.byte	0x49
 640 025e 62020000 		.4byte	0x262
 641 0262 06       		.uleb128 0x6
 642 0263 26040000 		.4byte	.LASF50
 643 0267 04       		.byte	0x4
 644 0268 03       		.byte	0x3
 645 0269 B0       		.byte	0xb0
 646 026a 7B020000 		.4byte	0x27b
 647 026e 07       		.uleb128 0x7
 648 026f 9C030000 		.4byte	.LASF28
 649 0273 03       		.byte	0x3
 650 0274 B1       		.byte	0xb1
 651 0275 51020000 		.4byte	0x251
 652 0279 00       		.byte	0
 653 027a 00       		.byte	0
 654 027b 04       		.uleb128 0x4
 655 027c D1040000 		.4byte	.LASF51
 656 0280 08       		.byte	0x8
 657 0281 50       		.byte	0x50
 658 0282 86020000 		.4byte	0x286
 659 0286 06       		.uleb128 0x6
 660 0287 D1000000 		.4byte	.LASF52
 661 028b 08       		.byte	0x8
 662 028c 03       		.byte	0x3
 663 028d B7       		.byte	0xb7
 664 028e AB020000 		.4byte	0x2ab
 665 0292 07       		.uleb128 0x7
 666 0293 9C030000 		.4byte	.LASF28
 667 0297 03       		.byte	0x3
 668 0298 B8       		.byte	0xb8
 669 0299 51020000 		.4byte	0x251
 670 029d 00       		.byte	0
 671 029e 07       		.uleb128 0x7
 672 029f 2D030000 		.4byte	.LASF29
 673 02a3 03       		.byte	0x3
 674 02a4 B9       		.byte	0xb9
 675 02a5 51020000 		.4byte	0x251
 676 02a9 04       		.byte	0x4
 677 02aa 00       		.byte	0
 678 02ab 04       		.uleb128 0x4
 679 02ac 00000000 		.4byte	.LASF53
 680 02b0 08       		.byte	0x8
 681 02b1 57       		.byte	0x57
 682 02b2 B6020000 		.4byte	0x2b6
 683 02b6 0B       		.uleb128 0xb
 684 02b7 57020000 		.4byte	.LASF54
ARM GAS  C:\Users\IDONNO~1\AppData\Local\Temp\cc8y2Qbc.s 			page 13


 685 02bb 1C       		.byte	0x1c
 686 02bc 03       		.byte	0x3
 687 02bd 9001     		.2byte	0x190
 688 02bf 12030000 		.4byte	0x312
 689 02c3 09       		.uleb128 0x9
 690 02c4 12040000 		.4byte	.LASF55
 691 02c8 03       		.byte	0x3
 692 02c9 9101     		.2byte	0x191
 693 02cb 7B020000 		.4byte	0x27b
 694 02cf 00       		.byte	0
 695 02d0 09       		.uleb128 0x9
 696 02d1 8E030000 		.4byte	.LASF56
 697 02d5 03       		.byte	0x3
 698 02d6 9201     		.2byte	0x192
 699 02d8 FF000000 		.4byte	0xff
 700 02dc 08       		.byte	0x8
 701 02dd 09       		.uleb128 0x9
 702 02de DA020000 		.4byte	.LASF57
 703 02e2 03       		.byte	0x3
 704 02e3 9401     		.2byte	0x194
 705 02e5 81040000 		.4byte	0x481
 706 02e9 0C       		.byte	0xc
 707 02ea 09       		.uleb128 0x9
 708 02eb 76010000 		.4byte	.LASF58
 709 02ef 03       		.byte	0x3
 710 02f0 9701     		.2byte	0x197
 711 02f2 51020000 		.4byte	0x251
 712 02f6 10       		.byte	0x10
 713 02f7 09       		.uleb128 0x9
 714 02f8 02030000 		.4byte	.LASF59
 715 02fc 03       		.byte	0x3
 716 02fd 9801     		.2byte	0x198
 717 02ff 51020000 		.4byte	0x251
 718 0303 14       		.byte	0x14
 719 0304 09       		.uleb128 0x9
 720 0305 F8020000 		.4byte	.LASF60
 721 0309 03       		.byte	0x3
 722 030a 9B01     		.2byte	0x19b
 723 030c 51020000 		.4byte	0x251
 724 0310 18       		.byte	0x18
 725 0311 00       		.byte	0
 726 0312 04       		.uleb128 0x4
 727 0313 7D040000 		.4byte	.LASF61
 728 0317 08       		.byte	0x8
 729 0318 5C       		.byte	0x5c
 730 0319 1D030000 		.4byte	0x31d
 731 031d 0A       		.uleb128 0xa
 732 031e 04       		.byte	0x4
 733 031f 23030000 		.4byte	0x323
 734 0323 0C       		.uleb128 0xc
 735 0324 2E030000 		.4byte	0x32e
 736 0328 0D       		.uleb128 0xd
 737 0329 2E030000 		.4byte	0x32e
 738 032d 00       		.byte	0
 739 032e 0E       		.uleb128 0xe
 740 032f 04       		.byte	0x4
 741 0330 04       		.uleb128 0x4
ARM GAS  C:\Users\IDONNO~1\AppData\Local\Temp\cc8y2Qbc.s 			page 14


 742 0331 1D030000 		.4byte	.LASF62
 743 0335 08       		.byte	0x8
 744 0336 61       		.byte	0x61
 745 0337 3B030000 		.4byte	0x33b
 746 033b 0B       		.uleb128 0xb
 747 033c BE030000 		.4byte	.LASF63
 748 0340 14       		.byte	0x14
 749 0341 03       		.byte	0x3
 750 0342 6B01     		.2byte	0x16b
 751 0344 8A030000 		.4byte	0x38a
 752 0348 09       		.uleb128 0x9
 753 0349 BF010000 		.4byte	.LASF64
 754 034d 03       		.byte	0x3
 755 034e 6C01     		.2byte	0x16c
 756 0350 DD060000 		.4byte	0x6dd
 757 0354 00       		.byte	0
 758 0355 09       		.uleb128 0x9
 759 0356 87010000 		.4byte	.LASF65
 760 035a 03       		.byte	0x3
 761 035b 6D01     		.2byte	0x16d
 762 035d DD060000 		.4byte	0x6dd
 763 0361 04       		.byte	0x4
 764 0362 09       		.uleb128 0x9
 765 0363 D5010000 		.4byte	.LASF66
 766 0367 03       		.byte	0x3
 767 0368 6E01     		.2byte	0x16e
 768 036a 2B010000 		.4byte	0x12b
 769 036e 08       		.byte	0x8
 770 036f 09       		.uleb128 0x9
 771 0370 6A060000 		.4byte	.LASF67
 772 0374 03       		.byte	0x3
 773 0375 6F01     		.2byte	0x16f
 774 0377 12030000 		.4byte	0x312
 775 037b 0C       		.byte	0xc
 776 037c 09       		.uleb128 0x9
 777 037d C0040000 		.4byte	.LASF68
 778 0381 03       		.byte	0x3
 779 0382 7101     		.2byte	0x171
 780 0384 2E030000 		.4byte	0x32e
 781 0388 10       		.byte	0x10
 782 0389 00       		.byte	0
 783 038a 04       		.uleb128 0x4
 784 038b AE000000 		.4byte	.LASF69
 785 038f 08       		.byte	0x8
 786 0390 66       		.byte	0x66
 787 0391 95030000 		.4byte	0x395
 788 0395 0B       		.uleb128 0xb
 789 0396 BB020000 		.4byte	.LASF70
 790 039a 10       		.byte	0x10
 791 039b 03       		.byte	0x3
 792 039c 7B01     		.2byte	0x17b
 793 039e D7030000 		.4byte	0x3d7
 794 03a2 09       		.uleb128 0x9
 795 03a3 BF010000 		.4byte	.LASF64
 796 03a7 03       		.byte	0x3
 797 03a8 7C01     		.2byte	0x17c
 798 03aa DD060000 		.4byte	0x6dd
ARM GAS  C:\Users\IDONNO~1\AppData\Local\Temp\cc8y2Qbc.s 			page 15


 799 03ae 00       		.byte	0
 800 03af 09       		.uleb128 0x9
 801 03b0 87010000 		.4byte	.LASF65
 802 03b4 03       		.byte	0x3
 803 03b5 7E01     		.2byte	0x17e
 804 03b7 DD060000 		.4byte	0x6dd
 805 03bb 04       		.byte	0x4
 806 03bc 09       		.uleb128 0x9
 807 03bd D5010000 		.4byte	.LASF66
 808 03c1 03       		.byte	0x3
 809 03c2 8001     		.2byte	0x180
 810 03c4 2B010000 		.4byte	0x12b
 811 03c8 08       		.byte	0x8
 812 03c9 09       		.uleb128 0x9
 813 03ca 31060000 		.4byte	.LASF71
 814 03ce 03       		.byte	0x3
 815 03cf 8201     		.2byte	0x182
 816 03d1 D8060000 		.4byte	0x6d8
 817 03d5 0C       		.byte	0xc
 818 03d6 00       		.byte	0
 819 03d7 04       		.uleb128 0x4
 820 03d8 46000000 		.4byte	.LASF72
 821 03dc 08       		.byte	0x8
 822 03dd 6B       		.byte	0x6b
 823 03de E2030000 		.4byte	0x3e2
 824 03e2 0B       		.uleb128 0xb
 825 03e3 3C030000 		.4byte	.LASF73
 826 03e7 04       		.byte	0x4
 827 03e8 03       		.byte	0x3
 828 03e9 A201     		.2byte	0x1a2
 829 03eb FD030000 		.4byte	0x3fd
 830 03ef 09       		.uleb128 0x9
 831 03f0 9F040000 		.4byte	.LASF74
 832 03f4 03       		.byte	0x3
 833 03f5 AA01     		.2byte	0x1aa
 834 03f7 E3060000 		.4byte	0x6e3
 835 03fb 00       		.byte	0
 836 03fc 00       		.byte	0
 837 03fd 04       		.uleb128 0x4
 838 03fe 43020000 		.4byte	.LASF75
 839 0402 08       		.byte	0x8
 840 0403 70       		.byte	0x70
 841 0404 08040000 		.4byte	0x408
 842 0408 0F       		.uleb128 0xf
 843 0409 30010000 		.4byte	.LASF76
 844 040d 5802     		.2byte	0x258
 845 040f 03       		.byte	0x3
 846 0410 C201     		.2byte	0x1c2
 847 0412 64040000 		.4byte	0x464
 848 0416 09       		.uleb128 0x9
 849 0417 15060000 		.4byte	.LASF77
 850 041b 03       		.byte	0x3
 851 041c C601     		.2byte	0x1c6
 852 041e AB020000 		.4byte	0x2ab
 853 0422 00       		.byte	0
 854 0423 09       		.uleb128 0x9
 855 0424 13010000 		.4byte	.LASF78
ARM GAS  C:\Users\IDONNO~1\AppData\Local\Temp\cc8y2Qbc.s 			page 16


 856 0428 03       		.byte	0x3
 857 0429 CA01     		.2byte	0x1ca
 858 042b 8A030000 		.4byte	0x38a
 859 042f 1C       		.byte	0x1c
 860 0430 08       		.uleb128 0x8
 861 0431 64626700 		.ascii	"dbg\000"
 862 0435 03       		.byte	0x3
 863 0436 CE01     		.2byte	0x1ce
 864 0438 D7030000 		.4byte	0x3d7
 865 043c 2C       		.byte	0x2c
 866 043d 09       		.uleb128 0x9
 867 043e A3000000 		.4byte	.LASF79
 868 0442 03       		.byte	0x3
 869 0443 D201     		.2byte	0x1d2
 870 0445 36010000 		.4byte	0x136
 871 0449 30       		.byte	0x30
 872 044a 08       		.uleb128 0x8
 873 044b 746D00   		.ascii	"tm\000"
 874 044e 03       		.byte	0x3
 875 044f D701     		.2byte	0x1d7
 876 0451 F6050000 		.4byte	0x5f6
 877 0455 78       		.byte	0x78
 878 0456 09       		.uleb128 0x9
 879 0457 9D010000 		.4byte	.LASF80
 880 045b 03       		.byte	0x3
 881 045c E301     		.2byte	0x1e3
 882 045e E8060000 		.4byte	0x6e8
 883 0462 80       		.byte	0x80
 884 0463 00       		.byte	0
 885 0464 03       		.uleb128 0x3
 886 0465 04       		.byte	0x4
 887 0466 07       		.byte	0x7
 888 0467 9F020000 		.4byte	.LASF81
 889 046b 04       		.uleb128 0x4
 890 046c 7E010000 		.4byte	.LASF82
 891 0470 09       		.byte	0x9
 892 0471 65       		.byte	0x65
 893 0472 2E030000 		.4byte	0x32e
 894 0476 04       		.uleb128 0x4
 895 0477 7B020000 		.4byte	.LASF83
 896 047b 09       		.byte	0x9
 897 047c 6D       		.byte	0x6d
 898 047d B8000000 		.4byte	0xb8
 899 0481 06       		.uleb128 0x6
 900 0482 B0040000 		.4byte	.LASF84
 901 0486 04       		.byte	0x4
 902 0487 09       		.byte	0x9
 903 0488 89       		.byte	0x89
 904 0489 9A040000 		.4byte	0x49a
 905 048d 10       		.uleb128 0x10
 906 048e 72313300 		.ascii	"r13\000"
 907 0492 09       		.byte	0x9
 908 0493 8A       		.byte	0x8a
 909 0494 DB050000 		.4byte	0x5db
 910 0498 00       		.byte	0
 911 0499 00       		.byte	0
 912 049a 06       		.uleb128 0x6
ARM GAS  C:\Users\IDONNO~1\AppData\Local\Temp\cc8y2Qbc.s 			page 17


 913 049b 3A000000 		.4byte	.LASF85
 914 049f 64       		.byte	0x64
 915 04a0 0A       		.byte	0xa
 916 04a1 F4       		.byte	0xf4
 917 04a2 DB050000 		.4byte	0x5db
 918 04a6 10       		.uleb128 0x10
 919 04a7 73313600 		.ascii	"s16\000"
 920 04ab 0A       		.byte	0xa
 921 04ac F6       		.byte	0xf6
 922 04ad 6B040000 		.4byte	0x46b
 923 04b1 00       		.byte	0
 924 04b2 10       		.uleb128 0x10
 925 04b3 73313700 		.ascii	"s17\000"
 926 04b7 0A       		.byte	0xa
 927 04b8 F7       		.byte	0xf7
 928 04b9 6B040000 		.4byte	0x46b
 929 04bd 04       		.byte	0x4
 930 04be 10       		.uleb128 0x10
 931 04bf 73313800 		.ascii	"s18\000"
 932 04c3 0A       		.byte	0xa
 933 04c4 F8       		.byte	0xf8
 934 04c5 6B040000 		.4byte	0x46b
 935 04c9 08       		.byte	0x8
 936 04ca 10       		.uleb128 0x10
 937 04cb 73313900 		.ascii	"s19\000"
 938 04cf 0A       		.byte	0xa
 939 04d0 F9       		.byte	0xf9
 940 04d1 6B040000 		.4byte	0x46b
 941 04d5 0C       		.byte	0xc
 942 04d6 10       		.uleb128 0x10
 943 04d7 73323000 		.ascii	"s20\000"
 944 04db 0A       		.byte	0xa
 945 04dc FA       		.byte	0xfa
 946 04dd 6B040000 		.4byte	0x46b
 947 04e1 10       		.byte	0x10
 948 04e2 10       		.uleb128 0x10
 949 04e3 73323100 		.ascii	"s21\000"
 950 04e7 0A       		.byte	0xa
 951 04e8 FB       		.byte	0xfb
 952 04e9 6B040000 		.4byte	0x46b
 953 04ed 14       		.byte	0x14
 954 04ee 10       		.uleb128 0x10
 955 04ef 73323200 		.ascii	"s22\000"
 956 04f3 0A       		.byte	0xa
 957 04f4 FC       		.byte	0xfc
 958 04f5 6B040000 		.4byte	0x46b
 959 04f9 18       		.byte	0x18
 960 04fa 10       		.uleb128 0x10
 961 04fb 73323300 		.ascii	"s23\000"
 962 04ff 0A       		.byte	0xa
 963 0500 FD       		.byte	0xfd
 964 0501 6B040000 		.4byte	0x46b
 965 0505 1C       		.byte	0x1c
 966 0506 10       		.uleb128 0x10
 967 0507 73323400 		.ascii	"s24\000"
 968 050b 0A       		.byte	0xa
 969 050c FE       		.byte	0xfe
ARM GAS  C:\Users\IDONNO~1\AppData\Local\Temp\cc8y2Qbc.s 			page 18


 970 050d 6B040000 		.4byte	0x46b
 971 0511 20       		.byte	0x20
 972 0512 10       		.uleb128 0x10
 973 0513 73323500 		.ascii	"s25\000"
 974 0517 0A       		.byte	0xa
 975 0518 FF       		.byte	0xff
 976 0519 6B040000 		.4byte	0x46b
 977 051d 24       		.byte	0x24
 978 051e 08       		.uleb128 0x8
 979 051f 73323600 		.ascii	"s26\000"
 980 0523 0A       		.byte	0xa
 981 0524 0001     		.2byte	0x100
 982 0526 6B040000 		.4byte	0x46b
 983 052a 28       		.byte	0x28
 984 052b 08       		.uleb128 0x8
 985 052c 73323700 		.ascii	"s27\000"
 986 0530 0A       		.byte	0xa
 987 0531 0101     		.2byte	0x101
 988 0533 6B040000 		.4byte	0x46b
 989 0537 2C       		.byte	0x2c
 990 0538 08       		.uleb128 0x8
 991 0539 73323800 		.ascii	"s28\000"
 992 053d 0A       		.byte	0xa
 993 053e 0201     		.2byte	0x102
 994 0540 6B040000 		.4byte	0x46b
 995 0544 30       		.byte	0x30
 996 0545 08       		.uleb128 0x8
 997 0546 73323900 		.ascii	"s29\000"
 998 054a 0A       		.byte	0xa
 999 054b 0301     		.2byte	0x103
 1000 054d 6B040000 		.4byte	0x46b
 1001 0551 34       		.byte	0x34
 1002 0552 08       		.uleb128 0x8
 1003 0553 73333000 		.ascii	"s30\000"
 1004 0557 0A       		.byte	0xa
 1005 0558 0401     		.2byte	0x104
 1006 055a 6B040000 		.4byte	0x46b
 1007 055e 38       		.byte	0x38
 1008 055f 08       		.uleb128 0x8
 1009 0560 73333100 		.ascii	"s31\000"
 1010 0564 0A       		.byte	0xa
 1011 0565 0501     		.2byte	0x105
 1012 0567 6B040000 		.4byte	0x46b
 1013 056b 3C       		.byte	0x3c
 1014 056c 08       		.uleb128 0x8
 1015 056d 723400   		.ascii	"r4\000"
 1016 0570 0A       		.byte	0xa
 1017 0571 0701     		.2byte	0x107
 1018 0573 6B040000 		.4byte	0x46b
 1019 0577 40       		.byte	0x40
 1020 0578 08       		.uleb128 0x8
 1021 0579 723500   		.ascii	"r5\000"
 1022 057c 0A       		.byte	0xa
 1023 057d 0801     		.2byte	0x108
 1024 057f 6B040000 		.4byte	0x46b
 1025 0583 44       		.byte	0x44
 1026 0584 08       		.uleb128 0x8
ARM GAS  C:\Users\IDONNO~1\AppData\Local\Temp\cc8y2Qbc.s 			page 19


 1027 0585 723600   		.ascii	"r6\000"
 1028 0588 0A       		.byte	0xa
 1029 0589 0901     		.2byte	0x109
 1030 058b 6B040000 		.4byte	0x46b
 1031 058f 48       		.byte	0x48
 1032 0590 08       		.uleb128 0x8
 1033 0591 723700   		.ascii	"r7\000"
 1034 0594 0A       		.byte	0xa
 1035 0595 0A01     		.2byte	0x10a
 1036 0597 6B040000 		.4byte	0x46b
 1037 059b 4C       		.byte	0x4c
 1038 059c 08       		.uleb128 0x8
 1039 059d 723800   		.ascii	"r8\000"
 1040 05a0 0A       		.byte	0xa
 1041 05a1 0B01     		.2byte	0x10b
 1042 05a3 6B040000 		.4byte	0x46b
 1043 05a7 50       		.byte	0x50
 1044 05a8 08       		.uleb128 0x8
 1045 05a9 723900   		.ascii	"r9\000"
 1046 05ac 0A       		.byte	0xa
 1047 05ad 0C01     		.2byte	0x10c
 1048 05af 6B040000 		.4byte	0x46b
 1049 05b3 54       		.byte	0x54
 1050 05b4 08       		.uleb128 0x8
 1051 05b5 72313000 		.ascii	"r10\000"
 1052 05b9 0A       		.byte	0xa
 1053 05ba 0D01     		.2byte	0x10d
 1054 05bc 6B040000 		.4byte	0x46b
 1055 05c0 58       		.byte	0x58
 1056 05c1 08       		.uleb128 0x8
 1057 05c2 72313100 		.ascii	"r11\000"
 1058 05c6 0A       		.byte	0xa
 1059 05c7 0E01     		.2byte	0x10e
 1060 05c9 6B040000 		.4byte	0x46b
 1061 05cd 5C       		.byte	0x5c
 1062 05ce 08       		.uleb128 0x8
 1063 05cf 6C7200   		.ascii	"lr\000"
 1064 05d2 0A       		.byte	0xa
 1065 05d3 0F01     		.2byte	0x10f
 1066 05d5 6B040000 		.4byte	0x46b
 1067 05d9 60       		.byte	0x60
 1068 05da 00       		.byte	0
 1069 05db 0A       		.uleb128 0xa
 1070 05dc 04       		.byte	0x4
 1071 05dd 9A040000 		.4byte	0x49a
 1072 05e1 11       		.uleb128 0x11
 1073 05e2 04       		.byte	0x4
 1074 05e3 0B       		.byte	0xb
 1075 05e4 38       		.byte	0x38
 1076 05e5 F6050000 		.4byte	0x5f6
 1077 05e9 07       		.uleb128 0x7
 1078 05ea A9040000 		.4byte	.LASF86
 1079 05ee 0B       		.byte	0xb
 1080 05ef 3C       		.byte	0x3c
 1081 05f0 C8000000 		.4byte	0xc8
 1082 05f4 00       		.byte	0
 1083 05f5 00       		.byte	0
ARM GAS  C:\Users\IDONNO~1\AppData\Local\Temp\cc8y2Qbc.s 			page 20


 1084 05f6 04       		.uleb128 0x4
 1085 05f7 E0020000 		.4byte	.LASF87
 1086 05fb 0B       		.byte	0xb
 1087 05fc 3D       		.byte	0x3d
 1088 05fd E1050000 		.4byte	0x5e1
 1089 0601 12       		.uleb128 0x12
 1090 0602 04       		.byte	0x4
 1091 0603 03       		.byte	0x3
 1092 0604 FA       		.byte	0xfa
 1093 0605 5E060000 		.4byte	0x65e
 1094 0609 13       		.uleb128 0x13
 1095 060a 20000000 		.4byte	.LASF88
 1096 060e 03       		.byte	0x3
 1097 060f 0101     		.2byte	0x101
 1098 0611 0A010000 		.4byte	0x10a
 1099 0615 13       		.uleb128 0x13
 1100 0616 9A000000 		.4byte	.LASF89
 1101 061a 03       		.byte	0x3
 1102 061b 0801     		.2byte	0x108
 1103 061d 0A010000 		.4byte	0x10a
 1104 0621 13       		.uleb128 0x13
 1105 0622 23060000 		.4byte	.LASF90
 1106 0626 03       		.byte	0x3
 1107 0627 0F01     		.2byte	0x10f
 1108 0629 2E030000 		.4byte	0x32e
 1109 062d 13       		.uleb128 0x13
 1110 062e 1A000000 		.4byte	.LASF91
 1111 0632 03       		.byte	0x3
 1112 0633 1601     		.2byte	0x116
 1113 0635 5E060000 		.4byte	0x65e
 1114 0639 13       		.uleb128 0x13
 1115 063a CE010000 		.4byte	.LASF92
 1116 063e 03       		.byte	0x3
 1117 063f 1E01     		.2byte	0x11e
 1118 0641 89060000 		.4byte	0x689
 1119 0645 13       		.uleb128 0x13
 1120 0646 0B040000 		.4byte	.LASF93
 1121 064a 03       		.byte	0x3
 1122 064b 2701     		.2byte	0x127
 1123 064d C0060000 		.4byte	0x6c0
 1124 0651 13       		.uleb128 0x13
 1125 0652 95030000 		.4byte	.LASF94
 1126 0656 03       		.byte	0x3
 1127 0657 2F01     		.2byte	0x12f
 1128 0659 15010000 		.4byte	0x115
 1129 065d 00       		.byte	0
 1130 065e 0A       		.uleb128 0xa
 1131 065f 04       		.byte	0x4
 1132 0660 46020000 		.4byte	0x246
 1133 0664 06       		.uleb128 0x6
 1134 0665 DC030000 		.4byte	.LASF95
 1135 0669 0C       		.byte	0xc
 1136 066a 0C       		.byte	0xc
 1137 066b 34       		.byte	0x34
 1138 066c 89060000 		.4byte	0x689
 1139 0670 07       		.uleb128 0x7
 1140 0671 6E010000 		.4byte	.LASF96
ARM GAS  C:\Users\IDONNO~1\AppData\Local\Temp\cc8y2Qbc.s 			page 21


 1141 0675 0C       		.byte	0xc
 1142 0676 35       		.byte	0x35
 1143 0677 7B020000 		.4byte	0x27b
 1144 067b 00       		.byte	0
 1145 067c 07       		.uleb128 0x7
 1146 067d E9010000 		.4byte	.LASF97
 1147 0681 0C       		.byte	0xc
 1148 0682 37       		.byte	0x37
 1149 0683 20010000 		.4byte	0x120
 1150 0687 08       		.byte	0x8
 1151 0688 00       		.byte	0
 1152 0689 0A       		.uleb128 0xa
 1153 068a 04       		.byte	0x4
 1154 068b 64060000 		.4byte	0x664
 1155 068f 06       		.uleb128 0x6
 1156 0690 E1040000 		.4byte	.LASF98
 1157 0694 10       		.byte	0x10
 1158 0695 0D       		.byte	0xd
 1159 0696 39       		.byte	0x39
 1160 0697 C0060000 		.4byte	0x6c0
 1161 069b 07       		.uleb128 0x7
 1162 069c 0B010000 		.4byte	.LASF99
 1163 06a0 0D       		.byte	0xd
 1164 06a1 3A       		.byte	0x3a
 1165 06a2 7B020000 		.4byte	0x27b
 1166 06a6 00       		.byte	0
 1167 06a7 07       		.uleb128 0x7
 1168 06a8 5C060000 		.4byte	.LASF100
 1169 06ac 0D       		.byte	0xd
 1170 06ad 3C       		.byte	0x3c
 1171 06ae 51020000 		.4byte	0x251
 1172 06b2 08       		.byte	0x8
 1173 06b3 07       		.uleb128 0x7
 1174 06b4 F1020000 		.4byte	.LASF101
 1175 06b8 0D       		.byte	0xd
 1176 06b9 3E       		.byte	0x3e
 1177 06ba 03070000 		.4byte	0x703
 1178 06be 0C       		.byte	0xc
 1179 06bf 00       		.byte	0
 1180 06c0 0A       		.uleb128 0xa
 1181 06c1 04       		.byte	0x4
 1182 06c2 8F060000 		.4byte	0x68f
 1183 06c6 0A       		.uleb128 0xa
 1184 06c7 04       		.byte	0x4
 1185 06c8 D3060000 		.4byte	0x6d3
 1186 06cc 03       		.uleb128 0x3
 1187 06cd 01       		.byte	0x1
 1188 06ce 08       		.byte	0x8
 1189 06cf 48040000 		.4byte	.LASF102
 1190 06d3 14       		.uleb128 0x14
 1191 06d4 CC060000 		.4byte	0x6cc
 1192 06d8 05       		.uleb128 0x5
 1193 06d9 2B010000 		.4byte	0x12b
 1194 06dd 0A       		.uleb128 0xa
 1195 06de 04       		.byte	0x4
 1196 06df 30030000 		.4byte	0x330
 1197 06e3 05       		.uleb128 0x5
ARM GAS  C:\Users\IDONNO~1\AppData\Local\Temp\cc8y2Qbc.s 			page 22


 1198 06e4 C6060000 		.4byte	0x6c6
 1199 06e8 15       		.uleb128 0x15
 1200 06e9 76040000 		.4byte	0x476
 1201 06ed F8060000 		.4byte	0x6f8
 1202 06f1 16       		.uleb128 0x16
 1203 06f2 64040000 		.4byte	0x464
 1204 06f6 3A       		.byte	0x3a
 1205 06f7 00       		.byte	0
 1206 06f8 04       		.uleb128 0x4
 1207 06f9 8F010000 		.4byte	.LASF103
 1208 06fd 0D       		.byte	0xd
 1209 06fe 34       		.byte	0x34
 1210 06ff 8F060000 		.4byte	0x68f
 1211 0703 0A       		.uleb128 0xa
 1212 0704 04       		.byte	0x4
 1213 0705 F8060000 		.4byte	0x6f8
 1214 0709 17       		.uleb128 0x17
 1215 070a 91040000 		.4byte	.LASF106
 1216 070e 02       		.byte	0x2
 1217 070f 2002     		.2byte	0x220
 1218 0711 03       		.byte	0x3
 1219 0712 23070000 		.4byte	0x723
 1220 0716 18       		.uleb128 0x18
 1221 0717 97010000 		.4byte	.LASF108
 1222 071b 02       		.byte	0x2
 1223 071c 2002     		.2byte	0x220
 1224 071e AD000000 		.4byte	0xad
 1225 0722 00       		.byte	0
 1226 0723 19       		.uleb128 0x19
 1227 0724 55000000 		.4byte	.LASF104
 1228 0728 0A       		.byte	0xa
 1229 0729 BC01     		.2byte	0x1bc
 1230 072b 03       		.byte	0x3
 1231 072c 19       		.uleb128 0x19
 1232 072d 1A010000 		.4byte	.LASF105
 1233 0731 0A       		.byte	0xa
 1234 0732 CA01     		.2byte	0x1ca
 1235 0734 03       		.byte	0x3
 1236 0735 17       		.uleb128 0x17
 1237 0736 0D000000 		.4byte	.LASF107
 1238 073a 03       		.byte	0x3
 1239 073b 9702     		.2byte	0x297
 1240 073d 03       		.byte	0x3
 1241 073e 5A070000 		.4byte	0x75a
 1242 0742 1A       		.uleb128 0x1a
 1243 0743 747000   		.ascii	"tp\000"
 1244 0746 03       		.byte	0x3
 1245 0747 9702     		.2byte	0x297
 1246 0749 51020000 		.4byte	0x251
 1247 074d 1A       		.uleb128 0x1a
 1248 074e 74717000 		.ascii	"tqp\000"
 1249 0752 03       		.byte	0x3
 1250 0753 9702     		.2byte	0x297
 1251 0755 5A070000 		.4byte	0x75a
 1252 0759 00       		.byte	0
 1253 075a 0A       		.uleb128 0xa
 1254 075b 04       		.byte	0x4
ARM GAS  C:\Users\IDONNO~1\AppData\Local\Temp\cc8y2Qbc.s 			page 23


 1255 075c 7B020000 		.4byte	0x27b
 1256 0760 19       		.uleb128 0x19
 1257 0761 B4030000 		.4byte	.LASF109
 1258 0765 0E       		.byte	0xe
 1259 0766 5A01     		.2byte	0x15a
 1260 0768 03       		.byte	0x3
 1261 0769 17       		.uleb128 0x17
 1262 076a 3C060000 		.4byte	.LASF110
 1263 076e 0E       		.byte	0xe
 1264 076f 6601     		.2byte	0x166
 1265 0771 03       		.byte	0x3
 1266 0772 84070000 		.4byte	0x784
 1267 0776 1B       		.uleb128 0x1b
 1268 0777 AB030000 		.4byte	.LASF114
 1269 077b 94070000 		.4byte	0x794
 1270 077f 3C060000 		.4byte	.LASF110
 1271 0783 00       		.byte	0
 1272 0784 15       		.uleb128 0x15
 1273 0785 D3060000 		.4byte	0x6d3
 1274 0789 94070000 		.4byte	0x794
 1275 078d 16       		.uleb128 0x16
 1276 078e 64040000 		.4byte	0x464
 1277 0792 0B       		.byte	0xb
 1278 0793 00       		.byte	0
 1279 0794 14       		.uleb128 0x14
 1280 0795 84070000 		.4byte	0x784
 1281 0799 1C       		.uleb128 0x1c
 1282 079a 56010000 		.4byte	.LASF112
 1283 079e 04       		.byte	0x4
 1284 079f 4F       		.byte	0x4f
 1285 07a0 B4070000 		.4byte	0x7b4
 1286 07a4 03       		.byte	0x3
 1287 07a5 B4070000 		.4byte	0x7b4
 1288 07a9 1D       		.uleb128 0x1d
 1289 07aa 747000   		.ascii	"tp\000"
 1290 07ad 04       		.byte	0x4
 1291 07ae 4F       		.byte	0x4f
 1292 07af 51020000 		.4byte	0x251
 1293 07b3 00       		.byte	0
 1294 07b4 03       		.uleb128 0x3
 1295 07b5 01       		.byte	0x1
 1296 07b6 02       		.byte	0x2
 1297 07b7 4C030000 		.4byte	.LASF111
 1298 07bb 1E       		.uleb128 0x1e
 1299 07bc 56040000 		.4byte	.LASF113
 1300 07c0 03       		.byte	0x3
 1301 07c1 9F02     		.2byte	0x29f
 1302 07c3 51020000 		.4byte	0x251
 1303 07c7 03       		.byte	0x3
 1304 07c8 E4070000 		.4byte	0x7e4
 1305 07cc 1A       		.uleb128 0x1a
 1306 07cd 74717000 		.ascii	"tqp\000"
 1307 07d1 03       		.byte	0x3
 1308 07d2 9F02     		.2byte	0x29f
 1309 07d4 5A070000 		.4byte	0x75a
 1310 07d8 1F       		.uleb128 0x1f
 1311 07d9 747000   		.ascii	"tp\000"
ARM GAS  C:\Users\IDONNO~1\AppData\Local\Temp\cc8y2Qbc.s 			page 24


 1312 07dc 03       		.byte	0x3
 1313 07dd A002     		.2byte	0x2a0
 1314 07df 51020000 		.4byte	0x251
 1315 07e3 00       		.byte	0
 1316 07e4 20       		.uleb128 0x20
 1317 07e5 4E060000 		.4byte	.LASF115
 1318 07e9 04       		.byte	0x4
 1319 07ea 6F       		.byte	0x6f
 1320 07eb 03       		.byte	0x3
 1321 07ec 06080000 		.4byte	0x806
 1322 07f0 1D       		.uleb128 0x1d
 1323 07f1 747000   		.ascii	"tp\000"
 1324 07f4 04       		.byte	0x4
 1325 07f5 6F       		.byte	0x6f
 1326 07f6 51020000 		.4byte	0x251
 1327 07fa 1D       		.uleb128 0x1d
 1328 07fb 6D736700 		.ascii	"msg\000"
 1329 07ff 04       		.byte	0x4
 1330 0800 6F       		.byte	0x6f
 1331 0801 0A010000 		.4byte	0x10a
 1332 0805 00       		.byte	0
 1333 0806 21       		.uleb128 0x21
 1334 0807 43010000 		.4byte	.LASF116
 1335 080b 01       		.byte	0x1
 1336 080c 57       		.byte	0x57
 1337 080d 0A010000 		.4byte	0x10a
 1338 0811 00000000 		.4byte	.LFB219
 1339 0815 40000000 		.4byte	.LFE219-.LFB219
 1340 0819 01       		.uleb128 0x1
 1341 081a 9C       		.byte	0x9c
 1342 081b 22090000 		.4byte	0x922
 1343 081f 22       		.uleb128 0x22
 1344 0820 747000   		.ascii	"tp\000"
 1345 0823 01       		.byte	0x1
 1346 0824 57       		.byte	0x57
 1347 0825 51020000 		.4byte	0x251
 1348 0829 00000000 		.4byte	.LLST0
 1349 082d 22       		.uleb128 0x22
 1350 082e 6D736700 		.ascii	"msg\000"
 1351 0832 01       		.byte	0x1
 1352 0833 57       		.byte	0x57
 1353 0834 0A010000 		.4byte	0x10a
 1354 0838 38000000 		.4byte	.LLST1
 1355 083c 23       		.uleb128 0x23
 1356 083d 63747000 		.ascii	"ctp\000"
 1357 0841 01       		.byte	0x1
 1358 0842 58       		.byte	0x58
 1359 0843 51020000 		.4byte	0x251
 1360 0847 01       		.uleb128 0x1
 1361 0848 54       		.byte	0x54
 1362 0849 24       		.uleb128 0x24
 1363 084a AB030000 		.4byte	.LASF114
 1364 084e 32090000 		.4byte	0x932
 1365 0852 25       		.uleb128 0x25
 1366 0853 60070000 		.4byte	0x760
 1367 0857 04000000 		.4byte	.LBB52
 1368 085b 00000000 		.4byte	.Ldebug_ranges0+0
ARM GAS  C:\Users\IDONNO~1\AppData\Local\Temp\cc8y2Qbc.s 			page 25


 1369 085f 01       		.byte	0x1
 1370 0860 5C       		.byte	0x5c
 1371 0861 91080000 		.4byte	0x891
 1372 0865 26       		.uleb128 0x26
 1373 0866 23070000 		.4byte	0x723
 1374 086a 04000000 		.4byte	.LBB53
 1375 086e 00000000 		.4byte	.Ldebug_ranges0+0
 1376 0872 0E       		.byte	0xe
 1377 0873 5C01     		.2byte	0x15c
 1378 0875 26       		.uleb128 0x26
 1379 0876 09070000 		.4byte	0x709
 1380 087a 04000000 		.4byte	.LBB54
 1381 087e 00000000 		.4byte	.Ldebug_ranges0+0
 1382 0882 0A       		.byte	0xa
 1383 0883 BF01     		.2byte	0x1bf
 1384 0885 27       		.uleb128 0x27
 1385 0886 16070000 		.4byte	0x716
 1386 088a 7D000000 		.4byte	.LLST2
 1387 088e 00       		.byte	0
 1388 088f 00       		.byte	0
 1389 0890 00       		.byte	0
 1390 0891 25       		.uleb128 0x25
 1391 0892 35070000 		.4byte	0x735
 1392 0896 12000000 		.4byte	.LBB60
 1393 089a 18000000 		.4byte	.Ldebug_ranges0+0x18
 1394 089e 01       		.byte	0x1
 1395 089f 5F       		.byte	0x5f
 1396 08a0 B7080000 		.4byte	0x8b7
 1397 08a4 27       		.uleb128 0x27
 1398 08a5 4D070000 		.4byte	0x74d
 1399 08a9 92000000 		.4byte	.LLST3
 1400 08ad 27       		.uleb128 0x27
 1401 08ae 42070000 		.4byte	0x742
 1402 08b2 A5000000 		.4byte	.LLST4
 1403 08b6 00       		.byte	0
 1404 08b7 28       		.uleb128 0x28
 1405 08b8 69070000 		.4byte	0x769
 1406 08bc 2C000000 		.4byte	.LBB66
 1407 08c0 06000000 		.4byte	.LBE66-.LBB66
 1408 08c4 01       		.byte	0x1
 1409 08c5 65       		.byte	0x65
 1410 08c6 05090000 		.4byte	0x905
 1411 08ca 29       		.uleb128 0x29
 1412 08cb 2C000000 		.4byte	.LBB67
 1413 08cf 06000000 		.4byte	.LBE67-.LBB67
 1414 08d3 2A       		.uleb128 0x2a
 1415 08d4 76070000 		.4byte	0x776
 1416 08d8 2B       		.uleb128 0x2b
 1417 08d9 2C070000 		.4byte	0x72c
 1418 08dd 2C000000 		.4byte	.LBB68
 1419 08e1 06000000 		.4byte	.LBE68-.LBB68
 1420 08e5 0E       		.byte	0xe
 1421 08e6 7301     		.2byte	0x173
 1422 08e8 2B       		.uleb128 0x2b
 1423 08e9 09070000 		.4byte	0x709
 1424 08ed 2C000000 		.4byte	.LBB69
 1425 08f1 06000000 		.4byte	.LBE69-.LBB69
ARM GAS  C:\Users\IDONNO~1\AppData\Local\Temp\cc8y2Qbc.s 			page 26


 1426 08f5 0A       		.byte	0xa
 1427 08f6 CD01     		.2byte	0x1cd
 1428 08f8 27       		.uleb128 0x27
 1429 08f9 16070000 		.4byte	0x716
 1430 08fd B8000000 		.4byte	.LLST5
 1431 0901 00       		.byte	0
 1432 0902 00       		.byte	0
 1433 0903 00       		.byte	0
 1434 0904 00       		.byte	0
 1435 0905 2C       		.uleb128 0x2c
 1436 0906 2A000000 		.4byte	.LVL6
 1437 090a 630B0000 		.4byte	0xb63
 1438 090e 18090000 		.4byte	0x918
 1439 0912 2D       		.uleb128 0x2d
 1440 0913 01       		.uleb128 0x1
 1441 0914 50       		.byte	0x50
 1442 0915 01       		.uleb128 0x1
 1443 0916 3C       		.byte	0x3c
 1444 0917 00       		.byte	0
 1445 0918 2E       		.uleb128 0x2e
 1446 0919 38000000 		.4byte	.LVL10
 1447 091d 6F0B0000 		.4byte	0xb6f
 1448 0921 00       		.byte	0
 1449 0922 15       		.uleb128 0x15
 1450 0923 D3060000 		.4byte	0x6d3
 1451 0927 32090000 		.4byte	0x932
 1452 092b 16       		.uleb128 0x16
 1453 092c 64040000 		.4byte	0x464
 1454 0930 09       		.byte	0x9
 1455 0931 00       		.byte	0
 1456 0932 14       		.uleb128 0x14
 1457 0933 22090000 		.4byte	0x922
 1458 0937 21       		.uleb128 0x21
 1459 0938 C7040000 		.4byte	.LASF117
 1460 093c 01       		.byte	0x1
 1461 093d 78       		.byte	0x78
 1462 093e 51020000 		.4byte	0x251
 1463 0942 00000000 		.4byte	.LFB220
 1464 0946 3C000000 		.4byte	.LFE220-.LFB220
 1465 094a 01       		.uleb128 0x1
 1466 094b 9C       		.byte	0x9c
 1467 094c 340A0000 		.4byte	0xa34
 1468 0950 2F       		.uleb128 0x2f
 1469 0951 747000   		.ascii	"tp\000"
 1470 0954 01       		.byte	0x1
 1471 0955 79       		.byte	0x79
 1472 0956 51020000 		.4byte	0x251
 1473 095a 28       		.uleb128 0x28
 1474 095b 60070000 		.4byte	0x760
 1475 095f 02000000 		.4byte	.LBB71
 1476 0963 06000000 		.4byte	.LBE71-.LBB71
 1477 0967 01       		.byte	0x1
 1478 0968 7B       		.byte	0x7b
 1479 0969 99090000 		.4byte	0x999
 1480 096d 2B       		.uleb128 0x2b
 1481 096e 23070000 		.4byte	0x723
 1482 0972 02000000 		.4byte	.LBB72
ARM GAS  C:\Users\IDONNO~1\AppData\Local\Temp\cc8y2Qbc.s 			page 27


 1483 0976 06000000 		.4byte	.LBE72-.LBB72
 1484 097a 0E       		.byte	0xe
 1485 097b 5C01     		.2byte	0x15c
 1486 097d 2B       		.uleb128 0x2b
 1487 097e 09070000 		.4byte	0x709
 1488 0982 02000000 		.4byte	.LBB73
 1489 0986 06000000 		.4byte	.LBE73-.LBB73
 1490 098a 0A       		.byte	0xa
 1491 098b BF01     		.2byte	0x1bf
 1492 098d 27       		.uleb128 0x27
 1493 098e 16070000 		.4byte	0x716
 1494 0992 CC000000 		.4byte	.LLST6
 1495 0996 00       		.byte	0
 1496 0997 00       		.byte	0
 1497 0998 00       		.byte	0
 1498 0999 28       		.uleb128 0x28
 1499 099a 99070000 		.4byte	0x799
 1500 099e 0C000000 		.4byte	.LBB75
 1501 09a2 06000000 		.4byte	.LBE75-.LBB75
 1502 09a6 01       		.byte	0x1
 1503 09a7 7C       		.byte	0x7c
 1504 09a8 B6090000 		.4byte	0x9b6
 1505 09ac 27       		.uleb128 0x27
 1506 09ad A9070000 		.4byte	0x7a9
 1507 09b1 E1000000 		.4byte	.LLST7
 1508 09b5 00       		.byte	0
 1509 09b6 25       		.uleb128 0x25
 1510 09b7 BB070000 		.4byte	0x7bb
 1511 09bb 16000000 		.4byte	.LBB77
 1512 09bf 38000000 		.4byte	.Ldebug_ranges0+0x38
 1513 09c3 01       		.byte	0x1
 1514 09c4 7F       		.byte	0x7f
 1515 09c5 DA090000 		.4byte	0x9da
 1516 09c9 30       		.uleb128 0x30
 1517 09ca CC070000 		.4byte	0x7cc
 1518 09ce 31       		.uleb128 0x31
 1519 09cf 38000000 		.4byte	.Ldebug_ranges0+0x38
 1520 09d3 2A       		.uleb128 0x2a
 1521 09d4 D8070000 		.4byte	0x7d8
 1522 09d8 00       		.byte	0
 1523 09d9 00       		.byte	0
 1524 09da 25       		.uleb128 0x25
 1525 09db 69070000 		.4byte	0x769
 1526 09df 1E000000 		.4byte	.LBB81
 1527 09e3 50000000 		.4byte	.Ldebug_ranges0+0x50
 1528 09e7 01       		.byte	0x1
 1529 09e8 81       		.byte	0x81
 1530 09e9 240A0000 		.4byte	0xa24
 1531 09ed 31       		.uleb128 0x31
 1532 09ee 50000000 		.4byte	.Ldebug_ranges0+0x50
 1533 09f2 2A       		.uleb128 0x2a
 1534 09f3 76070000 		.4byte	0x776
 1535 09f7 26       		.uleb128 0x26
 1536 09f8 2C070000 		.4byte	0x72c
 1537 09fc 1E000000 		.4byte	.LBB83
 1538 0a00 50000000 		.4byte	.Ldebug_ranges0+0x50
 1539 0a04 0E       		.byte	0xe
ARM GAS  C:\Users\IDONNO~1\AppData\Local\Temp\cc8y2Qbc.s 			page 28


 1540 0a05 7301     		.2byte	0x173
 1541 0a07 26       		.uleb128 0x26
 1542 0a08 09070000 		.4byte	0x709
 1543 0a0c 1E000000 		.4byte	.LBB84
 1544 0a10 50000000 		.4byte	.Ldebug_ranges0+0x50
 1545 0a14 0A       		.byte	0xa
 1546 0a15 CD01     		.2byte	0x1cd
 1547 0a17 27       		.uleb128 0x27
 1548 0a18 16070000 		.4byte	0x716
 1549 0a1c F4000000 		.4byte	.LLST8
 1550 0a20 00       		.byte	0
 1551 0a21 00       		.byte	0
 1552 0a22 00       		.byte	0
 1553 0a23 00       		.byte	0
 1554 0a24 32       		.uleb128 0x32
 1555 0a25 2E000000 		.4byte	.LVL20
 1556 0a29 630B0000 		.4byte	0xb63
 1557 0a2d 2D       		.uleb128 0x2d
 1558 0a2e 01       		.uleb128 0x1
 1559 0a2f 50       		.byte	0x50
 1560 0a30 01       		.uleb128 0x1
 1561 0a31 3E       		.byte	0x3e
 1562 0a32 00       		.byte	0
 1563 0a33 00       		.byte	0
 1564 0a34 33       		.uleb128 0x33
 1565 0a35 CF030000 		.4byte	.LASF125
 1566 0a39 01       		.byte	0x1
 1567 0a3a 90       		.byte	0x90
 1568 0a3b 00000000 		.4byte	.LFB221
 1569 0a3f 14000000 		.4byte	.LFE221-.LFB221
 1570 0a43 01       		.uleb128 0x1
 1571 0a44 9C       		.byte	0x9c
 1572 0a45 370B0000 		.4byte	0xb37
 1573 0a49 22       		.uleb128 0x22
 1574 0a4a 747000   		.ascii	"tp\000"
 1575 0a4d 01       		.byte	0x1
 1576 0a4e 90       		.byte	0x90
 1577 0a4f 51020000 		.4byte	0x251
 1578 0a53 08010000 		.4byte	.LLST9
 1579 0a57 22       		.uleb128 0x22
 1580 0a58 6D736700 		.ascii	"msg\000"
 1581 0a5c 01       		.byte	0x1
 1582 0a5d 90       		.byte	0x90
 1583 0a5e 0A010000 		.4byte	0x10a
 1584 0a62 29010000 		.4byte	.LLST10
 1585 0a66 24       		.uleb128 0x24
 1586 0a67 AB030000 		.4byte	.LASF114
 1587 0a6b 470B0000 		.4byte	0xb47
 1588 0a6f 28       		.uleb128 0x28
 1589 0a70 60070000 		.4byte	0x760
 1590 0a74 02000000 		.4byte	.LBB91
 1591 0a78 06000000 		.4byte	.LBE91-.LBB91
 1592 0a7c 01       		.byte	0x1
 1593 0a7d 92       		.byte	0x92
 1594 0a7e AE0A0000 		.4byte	0xaae
 1595 0a82 2B       		.uleb128 0x2b
 1596 0a83 23070000 		.4byte	0x723
ARM GAS  C:\Users\IDONNO~1\AppData\Local\Temp\cc8y2Qbc.s 			page 29


 1597 0a87 02000000 		.4byte	.LBB92
 1598 0a8b 06000000 		.4byte	.LBE92-.LBB92
 1599 0a8f 0E       		.byte	0xe
 1600 0a90 5C01     		.2byte	0x15c
 1601 0a92 2B       		.uleb128 0x2b
 1602 0a93 09070000 		.4byte	0x709
 1603 0a97 02000000 		.4byte	.LBB93
 1604 0a9b 06000000 		.4byte	.LBE93-.LBB93
 1605 0a9f 0A       		.byte	0xa
 1606 0aa0 BF01     		.2byte	0x1bf
 1607 0aa2 27       		.uleb128 0x27
 1608 0aa3 16070000 		.4byte	0x716
 1609 0aa7 4A010000 		.4byte	.LLST11
 1610 0aab 00       		.byte	0
 1611 0aac 00       		.byte	0
 1612 0aad 00       		.byte	0
 1613 0aae 28       		.uleb128 0x28
 1614 0aaf E4070000 		.4byte	0x7e4
 1615 0ab3 08000000 		.4byte	.LBB95
 1616 0ab7 04000000 		.4byte	.LBE95-.LBB95
 1617 0abb 01       		.byte	0x1
 1618 0abc 94       		.byte	0x94
 1619 0abd EC0A0000 		.4byte	0xaec
 1620 0ac1 27       		.uleb128 0x27
 1621 0ac2 FA070000 		.4byte	0x7fa
 1622 0ac6 5F010000 		.4byte	.LLST12
 1623 0aca 27       		.uleb128 0x27
 1624 0acb F0070000 		.4byte	0x7f0
 1625 0acf 80010000 		.4byte	.LLST13
 1626 0ad3 32       		.uleb128 0x32
 1627 0ad4 0C000000 		.4byte	.LVL23
 1628 0ad8 7B0B0000 		.4byte	0xb7b
 1629 0adc 2D       		.uleb128 0x2d
 1630 0add 01       		.uleb128 0x1
 1631 0ade 50       		.byte	0x50
 1632 0adf 03       		.uleb128 0x3
 1633 0ae0 F3       		.byte	0xf3
 1634 0ae1 01       		.uleb128 0x1
 1635 0ae2 50       		.byte	0x50
 1636 0ae3 2D       		.uleb128 0x2d
 1637 0ae4 01       		.uleb128 0x1
 1638 0ae5 51       		.byte	0x51
 1639 0ae6 03       		.uleb128 0x3
 1640 0ae7 F3       		.byte	0xf3
 1641 0ae8 01       		.uleb128 0x1
 1642 0ae9 51       		.byte	0x51
 1643 0aea 00       		.byte	0
 1644 0aeb 00       		.byte	0
 1645 0aec 34       		.uleb128 0x34
 1646 0aed 69070000 		.4byte	0x769
 1647 0af1 0C000000 		.4byte	.LBB97
 1648 0af5 08000000 		.4byte	.LBE97-.LBB97
 1649 0af9 01       		.byte	0x1
 1650 0afa 95       		.byte	0x95
 1651 0afb 29       		.uleb128 0x29
 1652 0afc 0C000000 		.4byte	.LBB98
 1653 0b00 08000000 		.4byte	.LBE98-.LBB98
ARM GAS  C:\Users\IDONNO~1\AppData\Local\Temp\cc8y2Qbc.s 			page 30


 1654 0b04 2A       		.uleb128 0x2a
 1655 0b05 76070000 		.4byte	0x776
 1656 0b09 2B       		.uleb128 0x2b
 1657 0b0a 2C070000 		.4byte	0x72c
 1658 0b0e 0C000000 		.4byte	.LBB99
 1659 0b12 08000000 		.4byte	.LBE99-.LBB99
 1660 0b16 0E       		.byte	0xe
 1661 0b17 7301     		.2byte	0x173
 1662 0b19 2B       		.uleb128 0x2b
 1663 0b1a 09070000 		.4byte	0x709
 1664 0b1e 0C000000 		.4byte	.LBB100
 1665 0b22 08000000 		.4byte	.LBE100-.LBB100
 1666 0b26 0A       		.byte	0xa
 1667 0b27 CD01     		.2byte	0x1cd
 1668 0b29 27       		.uleb128 0x27
 1669 0b2a 16070000 		.4byte	0x716
 1670 0b2e A1010000 		.4byte	.LLST14
 1671 0b32 00       		.byte	0
 1672 0b33 00       		.byte	0
 1673 0b34 00       		.byte	0
 1674 0b35 00       		.byte	0
 1675 0b36 00       		.byte	0
 1676 0b37 15       		.uleb128 0x15
 1677 0b38 D3060000 		.4byte	0x6d3
 1678 0b3c 470B0000 		.4byte	0xb47
 1679 0b40 16       		.uleb128 0x16
 1680 0b41 64040000 		.4byte	0x464
 1681 0b45 0C       		.byte	0xc
 1682 0b46 00       		.byte	0
 1683 0b47 14       		.uleb128 0x14
 1684 0b48 370B0000 		.4byte	0xb37
 1685 0b4c 35       		.uleb128 0x35
 1686 0b4d C4000000 		.4byte	.LASF118
 1687 0b51 0F       		.byte	0xf
 1688 0b52 A706     		.2byte	0x6a7
 1689 0b54 C3000000 		.4byte	0xc3
 1690 0b58 36       		.uleb128 0x36
 1691 0b59 636800   		.ascii	"ch\000"
 1692 0b5c 03       		.byte	0x3
 1693 0b5d 0902     		.2byte	0x209
 1694 0b5f FD030000 		.4byte	0x3fd
 1695 0b63 37       		.uleb128 0x37
 1696 0b64 E9030000 		.4byte	.LASF119
 1697 0b68 E9030000 		.4byte	.LASF119
 1698 0b6c 03       		.byte	0x3
 1699 0b6d 1402     		.2byte	0x214
 1700 0b6f 37       		.uleb128 0x37
 1701 0b70 1A040000 		.4byte	.LASF120
 1702 0b74 1A040000 		.4byte	.LASF120
 1703 0b78 03       		.byte	0x3
 1704 0b79 1302     		.2byte	0x213
 1705 0b7b 37       		.uleb128 0x37
 1706 0b7c 0C020000 		.4byte	.LASF121
 1707 0b80 0C020000 		.4byte	.LASF121
 1708 0b84 03       		.byte	0x3
 1709 0b85 1602     		.2byte	0x216
 1710 0b87 00       		.byte	0
ARM GAS  C:\Users\IDONNO~1\AppData\Local\Temp\cc8y2Qbc.s 			page 31


 1711              		.section	.debug_abbrev,"",%progbits
 1712              	.Ldebug_abbrev0:
 1713 0000 01       		.uleb128 0x1
 1714 0001 11       		.uleb128 0x11
 1715 0002 01       		.byte	0x1
 1716 0003 25       		.uleb128 0x25
 1717 0004 0E       		.uleb128 0xe
 1718 0005 13       		.uleb128 0x13
 1719 0006 0B       		.uleb128 0xb
 1720 0007 03       		.uleb128 0x3
 1721 0008 0E       		.uleb128 0xe
 1722 0009 1B       		.uleb128 0x1b
 1723 000a 0E       		.uleb128 0xe
 1724 000b 55       		.uleb128 0x55
 1725 000c 17       		.uleb128 0x17
 1726 000d 11       		.uleb128 0x11
 1727 000e 01       		.uleb128 0x1
 1728 000f 10       		.uleb128 0x10
 1729 0010 17       		.uleb128 0x17
 1730 0011 00       		.byte	0
 1731 0012 00       		.byte	0
 1732 0013 02       		.uleb128 0x2
 1733 0014 24       		.uleb128 0x24
 1734 0015 00       		.byte	0
 1735 0016 0B       		.uleb128 0xb
 1736 0017 0B       		.uleb128 0xb
 1737 0018 3E       		.uleb128 0x3e
 1738 0019 0B       		.uleb128 0xb
 1739 001a 03       		.uleb128 0x3
 1740 001b 08       		.uleb128 0x8
 1741 001c 00       		.byte	0
 1742 001d 00       		.byte	0
 1743 001e 03       		.uleb128 0x3
 1744 001f 24       		.uleb128 0x24
 1745 0020 00       		.byte	0
 1746 0021 0B       		.uleb128 0xb
 1747 0022 0B       		.uleb128 0xb
 1748 0023 3E       		.uleb128 0x3e
 1749 0024 0B       		.uleb128 0xb
 1750 0025 03       		.uleb128 0x3
 1751 0026 0E       		.uleb128 0xe
 1752 0027 00       		.byte	0
 1753 0028 00       		.byte	0
 1754 0029 04       		.uleb128 0x4
 1755 002a 16       		.uleb128 0x16
 1756 002b 00       		.byte	0
 1757 002c 03       		.uleb128 0x3
 1758 002d 0E       		.uleb128 0xe
 1759 002e 3A       		.uleb128 0x3a
 1760 002f 0B       		.uleb128 0xb
 1761 0030 3B       		.uleb128 0x3b
 1762 0031 0B       		.uleb128 0xb
 1763 0032 49       		.uleb128 0x49
 1764 0033 13       		.uleb128 0x13
 1765 0034 00       		.byte	0
 1766 0035 00       		.byte	0
 1767 0036 05       		.uleb128 0x5
ARM GAS  C:\Users\IDONNO~1\AppData\Local\Temp\cc8y2Qbc.s 			page 32


 1768 0037 35       		.uleb128 0x35
 1769 0038 00       		.byte	0
 1770 0039 49       		.uleb128 0x49
 1771 003a 13       		.uleb128 0x13
 1772 003b 00       		.byte	0
 1773 003c 00       		.byte	0
 1774 003d 06       		.uleb128 0x6
 1775 003e 13       		.uleb128 0x13
 1776 003f 01       		.byte	0x1
 1777 0040 03       		.uleb128 0x3
 1778 0041 0E       		.uleb128 0xe
 1779 0042 0B       		.uleb128 0xb
 1780 0043 0B       		.uleb128 0xb
 1781 0044 3A       		.uleb128 0x3a
 1782 0045 0B       		.uleb128 0xb
 1783 0046 3B       		.uleb128 0x3b
 1784 0047 0B       		.uleb128 0xb
 1785 0048 01       		.uleb128 0x1
 1786 0049 13       		.uleb128 0x13
 1787 004a 00       		.byte	0
 1788 004b 00       		.byte	0
 1789 004c 07       		.uleb128 0x7
 1790 004d 0D       		.uleb128 0xd
 1791 004e 00       		.byte	0
 1792 004f 03       		.uleb128 0x3
 1793 0050 0E       		.uleb128 0xe
 1794 0051 3A       		.uleb128 0x3a
 1795 0052 0B       		.uleb128 0xb
 1796 0053 3B       		.uleb128 0x3b
 1797 0054 0B       		.uleb128 0xb
 1798 0055 49       		.uleb128 0x49
 1799 0056 13       		.uleb128 0x13
 1800 0057 38       		.uleb128 0x38
 1801 0058 0B       		.uleb128 0xb
 1802 0059 00       		.byte	0
 1803 005a 00       		.byte	0
 1804 005b 08       		.uleb128 0x8
 1805 005c 0D       		.uleb128 0xd
 1806 005d 00       		.byte	0
 1807 005e 03       		.uleb128 0x3
 1808 005f 08       		.uleb128 0x8
 1809 0060 3A       		.uleb128 0x3a
 1810 0061 0B       		.uleb128 0xb
 1811 0062 3B       		.uleb128 0x3b
 1812 0063 05       		.uleb128 0x5
 1813 0064 49       		.uleb128 0x49
 1814 0065 13       		.uleb128 0x13
 1815 0066 38       		.uleb128 0x38
 1816 0067 0B       		.uleb128 0xb
 1817 0068 00       		.byte	0
 1818 0069 00       		.byte	0
 1819 006a 09       		.uleb128 0x9
 1820 006b 0D       		.uleb128 0xd
 1821 006c 00       		.byte	0
 1822 006d 03       		.uleb128 0x3
 1823 006e 0E       		.uleb128 0xe
 1824 006f 3A       		.uleb128 0x3a
ARM GAS  C:\Users\IDONNO~1\AppData\Local\Temp\cc8y2Qbc.s 			page 33


 1825 0070 0B       		.uleb128 0xb
 1826 0071 3B       		.uleb128 0x3b
 1827 0072 05       		.uleb128 0x5
 1828 0073 49       		.uleb128 0x49
 1829 0074 13       		.uleb128 0x13
 1830 0075 38       		.uleb128 0x38
 1831 0076 0B       		.uleb128 0xb
 1832 0077 00       		.byte	0
 1833 0078 00       		.byte	0
 1834 0079 0A       		.uleb128 0xa
 1835 007a 0F       		.uleb128 0xf
 1836 007b 00       		.byte	0
 1837 007c 0B       		.uleb128 0xb
 1838 007d 0B       		.uleb128 0xb
 1839 007e 49       		.uleb128 0x49
 1840 007f 13       		.uleb128 0x13
 1841 0080 00       		.byte	0
 1842 0081 00       		.byte	0
 1843 0082 0B       		.uleb128 0xb
 1844 0083 13       		.uleb128 0x13
 1845 0084 01       		.byte	0x1
 1846 0085 03       		.uleb128 0x3
 1847 0086 0E       		.uleb128 0xe
 1848 0087 0B       		.uleb128 0xb
 1849 0088 0B       		.uleb128 0xb
 1850 0089 3A       		.uleb128 0x3a
 1851 008a 0B       		.uleb128 0xb
 1852 008b 3B       		.uleb128 0x3b
 1853 008c 05       		.uleb128 0x5
 1854 008d 01       		.uleb128 0x1
 1855 008e 13       		.uleb128 0x13
 1856 008f 00       		.byte	0
 1857 0090 00       		.byte	0
 1858 0091 0C       		.uleb128 0xc
 1859 0092 15       		.uleb128 0x15
 1860 0093 01       		.byte	0x1
 1861 0094 27       		.uleb128 0x27
 1862 0095 19       		.uleb128 0x19
 1863 0096 01       		.uleb128 0x1
 1864 0097 13       		.uleb128 0x13
 1865 0098 00       		.byte	0
 1866 0099 00       		.byte	0
 1867 009a 0D       		.uleb128 0xd
 1868 009b 05       		.uleb128 0x5
 1869 009c 00       		.byte	0
 1870 009d 49       		.uleb128 0x49
 1871 009e 13       		.uleb128 0x13
 1872 009f 00       		.byte	0
 1873 00a0 00       		.byte	0
 1874 00a1 0E       		.uleb128 0xe
 1875 00a2 0F       		.uleb128 0xf
 1876 00a3 00       		.byte	0
 1877 00a4 0B       		.uleb128 0xb
 1878 00a5 0B       		.uleb128 0xb
 1879 00a6 00       		.byte	0
 1880 00a7 00       		.byte	0
 1881 00a8 0F       		.uleb128 0xf
ARM GAS  C:\Users\IDONNO~1\AppData\Local\Temp\cc8y2Qbc.s 			page 34


 1882 00a9 13       		.uleb128 0x13
 1883 00aa 01       		.byte	0x1
 1884 00ab 03       		.uleb128 0x3
 1885 00ac 0E       		.uleb128 0xe
 1886 00ad 0B       		.uleb128 0xb
 1887 00ae 05       		.uleb128 0x5
 1888 00af 3A       		.uleb128 0x3a
 1889 00b0 0B       		.uleb128 0xb
 1890 00b1 3B       		.uleb128 0x3b
 1891 00b2 05       		.uleb128 0x5
 1892 00b3 01       		.uleb128 0x1
 1893 00b4 13       		.uleb128 0x13
 1894 00b5 00       		.byte	0
 1895 00b6 00       		.byte	0
 1896 00b7 10       		.uleb128 0x10
 1897 00b8 0D       		.uleb128 0xd
 1898 00b9 00       		.byte	0
 1899 00ba 03       		.uleb128 0x3
 1900 00bb 08       		.uleb128 0x8
 1901 00bc 3A       		.uleb128 0x3a
 1902 00bd 0B       		.uleb128 0xb
 1903 00be 3B       		.uleb128 0x3b
 1904 00bf 0B       		.uleb128 0xb
 1905 00c0 49       		.uleb128 0x49
 1906 00c1 13       		.uleb128 0x13
 1907 00c2 38       		.uleb128 0x38
 1908 00c3 0B       		.uleb128 0xb
 1909 00c4 00       		.byte	0
 1910 00c5 00       		.byte	0
 1911 00c6 11       		.uleb128 0x11
 1912 00c7 13       		.uleb128 0x13
 1913 00c8 01       		.byte	0x1
 1914 00c9 0B       		.uleb128 0xb
 1915 00ca 0B       		.uleb128 0xb
 1916 00cb 3A       		.uleb128 0x3a
 1917 00cc 0B       		.uleb128 0xb
 1918 00cd 3B       		.uleb128 0x3b
 1919 00ce 0B       		.uleb128 0xb
 1920 00cf 01       		.uleb128 0x1
 1921 00d0 13       		.uleb128 0x13
 1922 00d1 00       		.byte	0
 1923 00d2 00       		.byte	0
 1924 00d3 12       		.uleb128 0x12
 1925 00d4 17       		.uleb128 0x17
 1926 00d5 01       		.byte	0x1
 1927 00d6 0B       		.uleb128 0xb
 1928 00d7 0B       		.uleb128 0xb
 1929 00d8 3A       		.uleb128 0x3a
 1930 00d9 0B       		.uleb128 0xb
 1931 00da 3B       		.uleb128 0x3b
 1932 00db 0B       		.uleb128 0xb
 1933 00dc 01       		.uleb128 0x1
 1934 00dd 13       		.uleb128 0x13
 1935 00de 00       		.byte	0
 1936 00df 00       		.byte	0
 1937 00e0 13       		.uleb128 0x13
 1938 00e1 0D       		.uleb128 0xd
ARM GAS  C:\Users\IDONNO~1\AppData\Local\Temp\cc8y2Qbc.s 			page 35


 1939 00e2 00       		.byte	0
 1940 00e3 03       		.uleb128 0x3
 1941 00e4 0E       		.uleb128 0xe
 1942 00e5 3A       		.uleb128 0x3a
 1943 00e6 0B       		.uleb128 0xb
 1944 00e7 3B       		.uleb128 0x3b
 1945 00e8 05       		.uleb128 0x5
 1946 00e9 49       		.uleb128 0x49
 1947 00ea 13       		.uleb128 0x13
 1948 00eb 00       		.byte	0
 1949 00ec 00       		.byte	0
 1950 00ed 14       		.uleb128 0x14
 1951 00ee 26       		.uleb128 0x26
 1952 00ef 00       		.byte	0
 1953 00f0 49       		.uleb128 0x49
 1954 00f1 13       		.uleb128 0x13
 1955 00f2 00       		.byte	0
 1956 00f3 00       		.byte	0
 1957 00f4 15       		.uleb128 0x15
 1958 00f5 01       		.uleb128 0x1
 1959 00f6 01       		.byte	0x1
 1960 00f7 49       		.uleb128 0x49
 1961 00f8 13       		.uleb128 0x13
 1962 00f9 01       		.uleb128 0x1
 1963 00fa 13       		.uleb128 0x13
 1964 00fb 00       		.byte	0
 1965 00fc 00       		.byte	0
 1966 00fd 16       		.uleb128 0x16
 1967 00fe 21       		.uleb128 0x21
 1968 00ff 00       		.byte	0
 1969 0100 49       		.uleb128 0x49
 1970 0101 13       		.uleb128 0x13
 1971 0102 2F       		.uleb128 0x2f
 1972 0103 0B       		.uleb128 0xb
 1973 0104 00       		.byte	0
 1974 0105 00       		.byte	0
 1975 0106 17       		.uleb128 0x17
 1976 0107 2E       		.uleb128 0x2e
 1977 0108 01       		.byte	0x1
 1978 0109 03       		.uleb128 0x3
 1979 010a 0E       		.uleb128 0xe
 1980 010b 3A       		.uleb128 0x3a
 1981 010c 0B       		.uleb128 0xb
 1982 010d 3B       		.uleb128 0x3b
 1983 010e 05       		.uleb128 0x5
 1984 010f 27       		.uleb128 0x27
 1985 0110 19       		.uleb128 0x19
 1986 0111 20       		.uleb128 0x20
 1987 0112 0B       		.uleb128 0xb
 1988 0113 01       		.uleb128 0x1
 1989 0114 13       		.uleb128 0x13
 1990 0115 00       		.byte	0
 1991 0116 00       		.byte	0
 1992 0117 18       		.uleb128 0x18
 1993 0118 05       		.uleb128 0x5
 1994 0119 00       		.byte	0
 1995 011a 03       		.uleb128 0x3
ARM GAS  C:\Users\IDONNO~1\AppData\Local\Temp\cc8y2Qbc.s 			page 36


 1996 011b 0E       		.uleb128 0xe
 1997 011c 3A       		.uleb128 0x3a
 1998 011d 0B       		.uleb128 0xb
 1999 011e 3B       		.uleb128 0x3b
 2000 011f 05       		.uleb128 0x5
 2001 0120 49       		.uleb128 0x49
 2002 0121 13       		.uleb128 0x13
 2003 0122 00       		.byte	0
 2004 0123 00       		.byte	0
 2005 0124 19       		.uleb128 0x19
 2006 0125 2E       		.uleb128 0x2e
 2007 0126 00       		.byte	0
 2008 0127 03       		.uleb128 0x3
 2009 0128 0E       		.uleb128 0xe
 2010 0129 3A       		.uleb128 0x3a
 2011 012a 0B       		.uleb128 0xb
 2012 012b 3B       		.uleb128 0x3b
 2013 012c 05       		.uleb128 0x5
 2014 012d 27       		.uleb128 0x27
 2015 012e 19       		.uleb128 0x19
 2016 012f 20       		.uleb128 0x20
 2017 0130 0B       		.uleb128 0xb
 2018 0131 00       		.byte	0
 2019 0132 00       		.byte	0
 2020 0133 1A       		.uleb128 0x1a
 2021 0134 05       		.uleb128 0x5
 2022 0135 00       		.byte	0
 2023 0136 03       		.uleb128 0x3
 2024 0137 08       		.uleb128 0x8
 2025 0138 3A       		.uleb128 0x3a
 2026 0139 0B       		.uleb128 0xb
 2027 013a 3B       		.uleb128 0x3b
 2028 013b 05       		.uleb128 0x5
 2029 013c 49       		.uleb128 0x49
 2030 013d 13       		.uleb128 0x13
 2031 013e 00       		.byte	0
 2032 013f 00       		.byte	0
 2033 0140 1B       		.uleb128 0x1b
 2034 0141 34       		.uleb128 0x34
 2035 0142 00       		.byte	0
 2036 0143 03       		.uleb128 0x3
 2037 0144 0E       		.uleb128 0xe
 2038 0145 49       		.uleb128 0x49
 2039 0146 13       		.uleb128 0x13
 2040 0147 34       		.uleb128 0x34
 2041 0148 19       		.uleb128 0x19
 2042 0149 1C       		.uleb128 0x1c
 2043 014a 0E       		.uleb128 0xe
 2044 014b 00       		.byte	0
 2045 014c 00       		.byte	0
 2046 014d 1C       		.uleb128 0x1c
 2047 014e 2E       		.uleb128 0x2e
 2048 014f 01       		.byte	0x1
 2049 0150 03       		.uleb128 0x3
 2050 0151 0E       		.uleb128 0xe
 2051 0152 3A       		.uleb128 0x3a
 2052 0153 0B       		.uleb128 0xb
ARM GAS  C:\Users\IDONNO~1\AppData\Local\Temp\cc8y2Qbc.s 			page 37


 2053 0154 3B       		.uleb128 0x3b
 2054 0155 0B       		.uleb128 0xb
 2055 0156 27       		.uleb128 0x27
 2056 0157 19       		.uleb128 0x19
 2057 0158 49       		.uleb128 0x49
 2058 0159 13       		.uleb128 0x13
 2059 015a 20       		.uleb128 0x20
 2060 015b 0B       		.uleb128 0xb
 2061 015c 01       		.uleb128 0x1
 2062 015d 13       		.uleb128 0x13
 2063 015e 00       		.byte	0
 2064 015f 00       		.byte	0
 2065 0160 1D       		.uleb128 0x1d
 2066 0161 05       		.uleb128 0x5
 2067 0162 00       		.byte	0
 2068 0163 03       		.uleb128 0x3
 2069 0164 08       		.uleb128 0x8
 2070 0165 3A       		.uleb128 0x3a
 2071 0166 0B       		.uleb128 0xb
 2072 0167 3B       		.uleb128 0x3b
 2073 0168 0B       		.uleb128 0xb
 2074 0169 49       		.uleb128 0x49
 2075 016a 13       		.uleb128 0x13
 2076 016b 00       		.byte	0
 2077 016c 00       		.byte	0
 2078 016d 1E       		.uleb128 0x1e
 2079 016e 2E       		.uleb128 0x2e
 2080 016f 01       		.byte	0x1
 2081 0170 03       		.uleb128 0x3
 2082 0171 0E       		.uleb128 0xe
 2083 0172 3A       		.uleb128 0x3a
 2084 0173 0B       		.uleb128 0xb
 2085 0174 3B       		.uleb128 0x3b
 2086 0175 05       		.uleb128 0x5
 2087 0176 27       		.uleb128 0x27
 2088 0177 19       		.uleb128 0x19
 2089 0178 49       		.uleb128 0x49
 2090 0179 13       		.uleb128 0x13
 2091 017a 20       		.uleb128 0x20
 2092 017b 0B       		.uleb128 0xb
 2093 017c 01       		.uleb128 0x1
 2094 017d 13       		.uleb128 0x13
 2095 017e 00       		.byte	0
 2096 017f 00       		.byte	0
 2097 0180 1F       		.uleb128 0x1f
 2098 0181 34       		.uleb128 0x34
 2099 0182 00       		.byte	0
 2100 0183 03       		.uleb128 0x3
 2101 0184 08       		.uleb128 0x8
 2102 0185 3A       		.uleb128 0x3a
 2103 0186 0B       		.uleb128 0xb
 2104 0187 3B       		.uleb128 0x3b
 2105 0188 05       		.uleb128 0x5
 2106 0189 49       		.uleb128 0x49
 2107 018a 13       		.uleb128 0x13
 2108 018b 00       		.byte	0
 2109 018c 00       		.byte	0
ARM GAS  C:\Users\IDONNO~1\AppData\Local\Temp\cc8y2Qbc.s 			page 38


 2110 018d 20       		.uleb128 0x20
 2111 018e 2E       		.uleb128 0x2e
 2112 018f 01       		.byte	0x1
 2113 0190 03       		.uleb128 0x3
 2114 0191 0E       		.uleb128 0xe
 2115 0192 3A       		.uleb128 0x3a
 2116 0193 0B       		.uleb128 0xb
 2117 0194 3B       		.uleb128 0x3b
 2118 0195 0B       		.uleb128 0xb
 2119 0196 27       		.uleb128 0x27
 2120 0197 19       		.uleb128 0x19
 2121 0198 20       		.uleb128 0x20
 2122 0199 0B       		.uleb128 0xb
 2123 019a 01       		.uleb128 0x1
 2124 019b 13       		.uleb128 0x13
 2125 019c 00       		.byte	0
 2126 019d 00       		.byte	0
 2127 019e 21       		.uleb128 0x21
 2128 019f 2E       		.uleb128 0x2e
 2129 01a0 01       		.byte	0x1
 2130 01a1 3F       		.uleb128 0x3f
 2131 01a2 19       		.uleb128 0x19
 2132 01a3 03       		.uleb128 0x3
 2133 01a4 0E       		.uleb128 0xe
 2134 01a5 3A       		.uleb128 0x3a
 2135 01a6 0B       		.uleb128 0xb
 2136 01a7 3B       		.uleb128 0x3b
 2137 01a8 0B       		.uleb128 0xb
 2138 01a9 27       		.uleb128 0x27
 2139 01aa 19       		.uleb128 0x19
 2140 01ab 49       		.uleb128 0x49
 2141 01ac 13       		.uleb128 0x13
 2142 01ad 11       		.uleb128 0x11
 2143 01ae 01       		.uleb128 0x1
 2144 01af 12       		.uleb128 0x12
 2145 01b0 06       		.uleb128 0x6
 2146 01b1 40       		.uleb128 0x40
 2147 01b2 18       		.uleb128 0x18
 2148 01b3 9742     		.uleb128 0x2117
 2149 01b5 19       		.uleb128 0x19
 2150 01b6 01       		.uleb128 0x1
 2151 01b7 13       		.uleb128 0x13
 2152 01b8 00       		.byte	0
 2153 01b9 00       		.byte	0
 2154 01ba 22       		.uleb128 0x22
 2155 01bb 05       		.uleb128 0x5
 2156 01bc 00       		.byte	0
 2157 01bd 03       		.uleb128 0x3
 2158 01be 08       		.uleb128 0x8
 2159 01bf 3A       		.uleb128 0x3a
 2160 01c0 0B       		.uleb128 0xb
 2161 01c1 3B       		.uleb128 0x3b
 2162 01c2 0B       		.uleb128 0xb
 2163 01c3 49       		.uleb128 0x49
 2164 01c4 13       		.uleb128 0x13
 2165 01c5 02       		.uleb128 0x2
 2166 01c6 17       		.uleb128 0x17
ARM GAS  C:\Users\IDONNO~1\AppData\Local\Temp\cc8y2Qbc.s 			page 39


 2167 01c7 00       		.byte	0
 2168 01c8 00       		.byte	0
 2169 01c9 23       		.uleb128 0x23
 2170 01ca 34       		.uleb128 0x34
 2171 01cb 00       		.byte	0
 2172 01cc 03       		.uleb128 0x3
 2173 01cd 08       		.uleb128 0x8
 2174 01ce 3A       		.uleb128 0x3a
 2175 01cf 0B       		.uleb128 0xb
 2176 01d0 3B       		.uleb128 0x3b
 2177 01d1 0B       		.uleb128 0xb
 2178 01d2 49       		.uleb128 0x49
 2179 01d3 13       		.uleb128 0x13
 2180 01d4 02       		.uleb128 0x2
 2181 01d5 18       		.uleb128 0x18
 2182 01d6 00       		.byte	0
 2183 01d7 00       		.byte	0
 2184 01d8 24       		.uleb128 0x24
 2185 01d9 34       		.uleb128 0x34
 2186 01da 00       		.byte	0
 2187 01db 03       		.uleb128 0x3
 2188 01dc 0E       		.uleb128 0xe
 2189 01dd 49       		.uleb128 0x49
 2190 01de 13       		.uleb128 0x13
 2191 01df 34       		.uleb128 0x34
 2192 01e0 19       		.uleb128 0x19
 2193 01e1 00       		.byte	0
 2194 01e2 00       		.byte	0
 2195 01e3 25       		.uleb128 0x25
 2196 01e4 1D       		.uleb128 0x1d
 2197 01e5 01       		.byte	0x1
 2198 01e6 31       		.uleb128 0x31
 2199 01e7 13       		.uleb128 0x13
 2200 01e8 52       		.uleb128 0x52
 2201 01e9 01       		.uleb128 0x1
 2202 01ea 55       		.uleb128 0x55
 2203 01eb 17       		.uleb128 0x17
 2204 01ec 58       		.uleb128 0x58
 2205 01ed 0B       		.uleb128 0xb
 2206 01ee 59       		.uleb128 0x59
 2207 01ef 0B       		.uleb128 0xb
 2208 01f0 01       		.uleb128 0x1
 2209 01f1 13       		.uleb128 0x13
 2210 01f2 00       		.byte	0
 2211 01f3 00       		.byte	0
 2212 01f4 26       		.uleb128 0x26
 2213 01f5 1D       		.uleb128 0x1d
 2214 01f6 01       		.byte	0x1
 2215 01f7 31       		.uleb128 0x31
 2216 01f8 13       		.uleb128 0x13
 2217 01f9 52       		.uleb128 0x52
 2218 01fa 01       		.uleb128 0x1
 2219 01fb 55       		.uleb128 0x55
 2220 01fc 17       		.uleb128 0x17
 2221 01fd 58       		.uleb128 0x58
 2222 01fe 0B       		.uleb128 0xb
 2223 01ff 59       		.uleb128 0x59
ARM GAS  C:\Users\IDONNO~1\AppData\Local\Temp\cc8y2Qbc.s 			page 40


 2224 0200 05       		.uleb128 0x5
 2225 0201 00       		.byte	0
 2226 0202 00       		.byte	0
 2227 0203 27       		.uleb128 0x27
 2228 0204 05       		.uleb128 0x5
 2229 0205 00       		.byte	0
 2230 0206 31       		.uleb128 0x31
 2231 0207 13       		.uleb128 0x13
 2232 0208 02       		.uleb128 0x2
 2233 0209 17       		.uleb128 0x17
 2234 020a 00       		.byte	0
 2235 020b 00       		.byte	0
 2236 020c 28       		.uleb128 0x28
 2237 020d 1D       		.uleb128 0x1d
 2238 020e 01       		.byte	0x1
 2239 020f 31       		.uleb128 0x31
 2240 0210 13       		.uleb128 0x13
 2241 0211 11       		.uleb128 0x11
 2242 0212 01       		.uleb128 0x1
 2243 0213 12       		.uleb128 0x12
 2244 0214 06       		.uleb128 0x6
 2245 0215 58       		.uleb128 0x58
 2246 0216 0B       		.uleb128 0xb
 2247 0217 59       		.uleb128 0x59
 2248 0218 0B       		.uleb128 0xb
 2249 0219 01       		.uleb128 0x1
 2250 021a 13       		.uleb128 0x13
 2251 021b 00       		.byte	0
 2252 021c 00       		.byte	0
 2253 021d 29       		.uleb128 0x29
 2254 021e 0B       		.uleb128 0xb
 2255 021f 01       		.byte	0x1
 2256 0220 11       		.uleb128 0x11
 2257 0221 01       		.uleb128 0x1
 2258 0222 12       		.uleb128 0x12
 2259 0223 06       		.uleb128 0x6
 2260 0224 00       		.byte	0
 2261 0225 00       		.byte	0
 2262 0226 2A       		.uleb128 0x2a
 2263 0227 34       		.uleb128 0x34
 2264 0228 00       		.byte	0
 2265 0229 31       		.uleb128 0x31
 2266 022a 13       		.uleb128 0x13
 2267 022b 00       		.byte	0
 2268 022c 00       		.byte	0
 2269 022d 2B       		.uleb128 0x2b
 2270 022e 1D       		.uleb128 0x1d
 2271 022f 01       		.byte	0x1
 2272 0230 31       		.uleb128 0x31
 2273 0231 13       		.uleb128 0x13
 2274 0232 11       		.uleb128 0x11
 2275 0233 01       		.uleb128 0x1
 2276 0234 12       		.uleb128 0x12
 2277 0235 06       		.uleb128 0x6
 2278 0236 58       		.uleb128 0x58
 2279 0237 0B       		.uleb128 0xb
 2280 0238 59       		.uleb128 0x59
ARM GAS  C:\Users\IDONNO~1\AppData\Local\Temp\cc8y2Qbc.s 			page 41


 2281 0239 05       		.uleb128 0x5
 2282 023a 00       		.byte	0
 2283 023b 00       		.byte	0
 2284 023c 2C       		.uleb128 0x2c
 2285 023d 898201   		.uleb128 0x4109
 2286 0240 01       		.byte	0x1
 2287 0241 11       		.uleb128 0x11
 2288 0242 01       		.uleb128 0x1
 2289 0243 31       		.uleb128 0x31
 2290 0244 13       		.uleb128 0x13
 2291 0245 01       		.uleb128 0x1
 2292 0246 13       		.uleb128 0x13
 2293 0247 00       		.byte	0
 2294 0248 00       		.byte	0
 2295 0249 2D       		.uleb128 0x2d
 2296 024a 8A8201   		.uleb128 0x410a
 2297 024d 00       		.byte	0
 2298 024e 02       		.uleb128 0x2
 2299 024f 18       		.uleb128 0x18
 2300 0250 9142     		.uleb128 0x2111
 2301 0252 18       		.uleb128 0x18
 2302 0253 00       		.byte	0
 2303 0254 00       		.byte	0
 2304 0255 2E       		.uleb128 0x2e
 2305 0256 898201   		.uleb128 0x4109
 2306 0259 00       		.byte	0
 2307 025a 11       		.uleb128 0x11
 2308 025b 01       		.uleb128 0x1
 2309 025c 31       		.uleb128 0x31
 2310 025d 13       		.uleb128 0x13
 2311 025e 00       		.byte	0
 2312 025f 00       		.byte	0
 2313 0260 2F       		.uleb128 0x2f
 2314 0261 34       		.uleb128 0x34
 2315 0262 00       		.byte	0
 2316 0263 03       		.uleb128 0x3
 2317 0264 08       		.uleb128 0x8
 2318 0265 3A       		.uleb128 0x3a
 2319 0266 0B       		.uleb128 0xb
 2320 0267 3B       		.uleb128 0x3b
 2321 0268 0B       		.uleb128 0xb
 2322 0269 49       		.uleb128 0x49
 2323 026a 13       		.uleb128 0x13
 2324 026b 00       		.byte	0
 2325 026c 00       		.byte	0
 2326 026d 30       		.uleb128 0x30
 2327 026e 05       		.uleb128 0x5
 2328 026f 00       		.byte	0
 2329 0270 31       		.uleb128 0x31
 2330 0271 13       		.uleb128 0x13
 2331 0272 00       		.byte	0
 2332 0273 00       		.byte	0
 2333 0274 31       		.uleb128 0x31
 2334 0275 0B       		.uleb128 0xb
 2335 0276 01       		.byte	0x1
 2336 0277 55       		.uleb128 0x55
 2337 0278 17       		.uleb128 0x17
ARM GAS  C:\Users\IDONNO~1\AppData\Local\Temp\cc8y2Qbc.s 			page 42


 2338 0279 00       		.byte	0
 2339 027a 00       		.byte	0
 2340 027b 32       		.uleb128 0x32
 2341 027c 898201   		.uleb128 0x4109
 2342 027f 01       		.byte	0x1
 2343 0280 11       		.uleb128 0x11
 2344 0281 01       		.uleb128 0x1
 2345 0282 31       		.uleb128 0x31
 2346 0283 13       		.uleb128 0x13
 2347 0284 00       		.byte	0
 2348 0285 00       		.byte	0
 2349 0286 33       		.uleb128 0x33
 2350 0287 2E       		.uleb128 0x2e
 2351 0288 01       		.byte	0x1
 2352 0289 3F       		.uleb128 0x3f
 2353 028a 19       		.uleb128 0x19
 2354 028b 03       		.uleb128 0x3
 2355 028c 0E       		.uleb128 0xe
 2356 028d 3A       		.uleb128 0x3a
 2357 028e 0B       		.uleb128 0xb
 2358 028f 3B       		.uleb128 0x3b
 2359 0290 0B       		.uleb128 0xb
 2360 0291 27       		.uleb128 0x27
 2361 0292 19       		.uleb128 0x19
 2362 0293 11       		.uleb128 0x11
 2363 0294 01       		.uleb128 0x1
 2364 0295 12       		.uleb128 0x12
 2365 0296 06       		.uleb128 0x6
 2366 0297 40       		.uleb128 0x40
 2367 0298 18       		.uleb128 0x18
 2368 0299 9742     		.uleb128 0x2117
 2369 029b 19       		.uleb128 0x19
 2370 029c 01       		.uleb128 0x1
 2371 029d 13       		.uleb128 0x13
 2372 029e 00       		.byte	0
 2373 029f 00       		.byte	0
 2374 02a0 34       		.uleb128 0x34
 2375 02a1 1D       		.uleb128 0x1d
 2376 02a2 01       		.byte	0x1
 2377 02a3 31       		.uleb128 0x31
 2378 02a4 13       		.uleb128 0x13
 2379 02a5 11       		.uleb128 0x11
 2380 02a6 01       		.uleb128 0x1
 2381 02a7 12       		.uleb128 0x12
 2382 02a8 06       		.uleb128 0x6
 2383 02a9 58       		.uleb128 0x58
 2384 02aa 0B       		.uleb128 0xb
 2385 02ab 59       		.uleb128 0x59
 2386 02ac 0B       		.uleb128 0xb
 2387 02ad 00       		.byte	0
 2388 02ae 00       		.byte	0
 2389 02af 35       		.uleb128 0x35
 2390 02b0 34       		.uleb128 0x34
 2391 02b1 00       		.byte	0
 2392 02b2 03       		.uleb128 0x3
 2393 02b3 0E       		.uleb128 0xe
 2394 02b4 3A       		.uleb128 0x3a
ARM GAS  C:\Users\IDONNO~1\AppData\Local\Temp\cc8y2Qbc.s 			page 43


 2395 02b5 0B       		.uleb128 0xb
 2396 02b6 3B       		.uleb128 0x3b
 2397 02b7 05       		.uleb128 0x5
 2398 02b8 49       		.uleb128 0x49
 2399 02b9 13       		.uleb128 0x13
 2400 02ba 3F       		.uleb128 0x3f
 2401 02bb 19       		.uleb128 0x19
 2402 02bc 3C       		.uleb128 0x3c
 2403 02bd 19       		.uleb128 0x19
 2404 02be 00       		.byte	0
 2405 02bf 00       		.byte	0
 2406 02c0 36       		.uleb128 0x36
 2407 02c1 34       		.uleb128 0x34
 2408 02c2 00       		.byte	0
 2409 02c3 03       		.uleb128 0x3
 2410 02c4 08       		.uleb128 0x8
 2411 02c5 3A       		.uleb128 0x3a
 2412 02c6 0B       		.uleb128 0xb
 2413 02c7 3B       		.uleb128 0x3b
 2414 02c8 05       		.uleb128 0x5
 2415 02c9 49       		.uleb128 0x49
 2416 02ca 13       		.uleb128 0x13
 2417 02cb 3F       		.uleb128 0x3f
 2418 02cc 19       		.uleb128 0x19
 2419 02cd 3C       		.uleb128 0x3c
 2420 02ce 19       		.uleb128 0x19
 2421 02cf 00       		.byte	0
 2422 02d0 00       		.byte	0
 2423 02d1 37       		.uleb128 0x37
 2424 02d2 2E       		.uleb128 0x2e
 2425 02d3 00       		.byte	0
 2426 02d4 3F       		.uleb128 0x3f
 2427 02d5 19       		.uleb128 0x19
 2428 02d6 3C       		.uleb128 0x3c
 2429 02d7 19       		.uleb128 0x19
 2430 02d8 6E       		.uleb128 0x6e
 2431 02d9 0E       		.uleb128 0xe
 2432 02da 03       		.uleb128 0x3
 2433 02db 0E       		.uleb128 0xe
 2434 02dc 3A       		.uleb128 0x3a
 2435 02dd 0B       		.uleb128 0xb
 2436 02de 3B       		.uleb128 0x3b
 2437 02df 05       		.uleb128 0x5
 2438 02e0 00       		.byte	0
 2439 02e1 00       		.byte	0
 2440 02e2 00       		.byte	0
 2441              		.section	.debug_loc,"",%progbits
 2442              	.Ldebug_loc0:
 2443              	.LLST0:
 2444 0000 00000000 		.4byte	.LVL0
 2445 0004 24000000 		.4byte	.LVL5
 2446 0008 0100     		.2byte	0x1
 2447 000a 50       		.byte	0x50
 2448 000b 24000000 		.4byte	.LVL5
 2449 000f 34000000 		.4byte	.LVL9
 2450 0013 0300     		.2byte	0x3
 2451 0015 75       		.byte	0x75
ARM GAS  C:\Users\IDONNO~1\AppData\Local\Temp\cc8y2Qbc.s 			page 44


 2452 0016 54       		.sleb128 -44
 2453 0017 9F       		.byte	0x9f
 2454 0018 34000000 		.4byte	.LVL9
 2455 001c 37000000 		.4byte	.LVL10-1
 2456 0020 0100     		.2byte	0x1
 2457 0022 50       		.byte	0x50
 2458 0023 37000000 		.4byte	.LVL10-1
 2459 0027 40000000 		.4byte	.LFE219
 2460 002b 0300     		.2byte	0x3
 2461 002d 75       		.byte	0x75
 2462 002e 54       		.sleb128 -44
 2463 002f 9F       		.byte	0x9f
 2464 0030 00000000 		.4byte	0
 2465 0034 00000000 		.4byte	0
 2466              	.LLST1:
 2467 0038 00000000 		.4byte	.LVL0
 2468 003c 24000000 		.4byte	.LVL5
 2469 0040 0100     		.2byte	0x1
 2470 0042 51       		.byte	0x51
 2471 0043 24000000 		.4byte	.LVL5
 2472 0047 2C000000 		.4byte	.LVL7
 2473 004b 0400     		.2byte	0x4
 2474 004d F3       		.byte	0xf3
 2475 004e 01       		.uleb128 0x1
 2476 004f 51       		.byte	0x51
 2477 0050 9F       		.byte	0x9f
 2478 0051 2C000000 		.4byte	.LVL7
 2479 0055 34000000 		.4byte	.LVL9
 2480 0059 0100     		.2byte	0x1
 2481 005b 50       		.byte	0x50
 2482 005c 34000000 		.4byte	.LVL9
 2483 0060 37000000 		.4byte	.LVL10-1
 2484 0064 0100     		.2byte	0x1
 2485 0066 51       		.byte	0x51
 2486 0067 37000000 		.4byte	.LVL10-1
 2487 006b 40000000 		.4byte	.LFE219
 2488 006f 0400     		.2byte	0x4
 2489 0071 F3       		.byte	0xf3
 2490 0072 01       		.uleb128 0x1
 2491 0073 51       		.byte	0x51
 2492 0074 9F       		.byte	0x9f
 2493 0075 00000000 		.4byte	0
 2494 0079 00000000 		.4byte	0
 2495              	.LLST2:
 2496 007d 08000000 		.4byte	.LVL1
 2497 0081 0C000000 		.4byte	.LVL2
 2498 0085 0300     		.2byte	0x3
 2499 0087 08       		.byte	0x8
 2500 0088 20       		.byte	0x20
 2501 0089 9F       		.byte	0x9f
 2502 008a 00000000 		.4byte	0
 2503 008e 00000000 		.4byte	0
 2504              	.LLST3:
 2505 0092 12000000 		.4byte	.LVL3
 2506 0096 20000000 		.4byte	.LVL4
 2507 009a 0100     		.2byte	0x1
 2508 009c 55       		.byte	0x55
ARM GAS  C:\Users\IDONNO~1\AppData\Local\Temp\cc8y2Qbc.s 			page 45


 2509 009d 00000000 		.4byte	0
 2510 00a1 00000000 		.4byte	0
 2511              	.LLST4:
 2512 00a5 12000000 		.4byte	.LVL3
 2513 00a9 20000000 		.4byte	.LVL4
 2514 00ad 0100     		.2byte	0x1
 2515 00af 54       		.byte	0x54
 2516 00b0 00000000 		.4byte	0
 2517 00b4 00000000 		.4byte	0
 2518              	.LLST5:
 2519 00b8 2C000000 		.4byte	.LVL7
 2520 00bc 32000000 		.4byte	.LVL8
 2521 00c0 0200     		.2byte	0x2
 2522 00c2 30       		.byte	0x30
 2523 00c3 9F       		.byte	0x9f
 2524 00c4 00000000 		.4byte	0
 2525 00c8 00000000 		.4byte	0
 2526              	.LLST6:
 2527 00cc 00000000 		.4byte	.LVL11
 2528 00d0 08000000 		.4byte	.LVL12
 2529 00d4 0300     		.2byte	0x3
 2530 00d6 08       		.byte	0x8
 2531 00d7 20       		.byte	0x20
 2532 00d8 9F       		.byte	0x9f
 2533 00d9 00000000 		.4byte	0
 2534 00dd 00000000 		.4byte	0
 2535              	.LLST7:
 2536 00e1 0C000000 		.4byte	.LVL13
 2537 00e5 12000000 		.4byte	.LVL14
 2538 00e9 0100     		.2byte	0x1
 2539 00eb 52       		.byte	0x52
 2540 00ec 00000000 		.4byte	0
 2541 00f0 00000000 		.4byte	0
 2542              	.LLST8:
 2543 00f4 22000000 		.4byte	.LVL18
 2544 00f8 26000000 		.4byte	.LVL19
 2545 00fc 0200     		.2byte	0x2
 2546 00fe 30       		.byte	0x30
 2547 00ff 9F       		.byte	0x9f
 2548 0100 00000000 		.4byte	0
 2549 0104 00000000 		.4byte	0
 2550              	.LLST9:
 2551 0108 00000000 		.4byte	.LVL21
 2552 010c 0B000000 		.4byte	.LVL23-1
 2553 0110 0100     		.2byte	0x1
 2554 0112 50       		.byte	0x50
 2555 0113 0B000000 		.4byte	.LVL23-1
 2556 0117 14000000 		.4byte	.LFE221
 2557 011b 0400     		.2byte	0x4
 2558 011d F3       		.byte	0xf3
 2559 011e 01       		.uleb128 0x1
 2560 011f 50       		.byte	0x50
 2561 0120 9F       		.byte	0x9f
 2562 0121 00000000 		.4byte	0
 2563 0125 00000000 		.4byte	0
 2564              	.LLST10:
 2565 0129 00000000 		.4byte	.LVL21
ARM GAS  C:\Users\IDONNO~1\AppData\Local\Temp\cc8y2Qbc.s 			page 46


 2566 012d 0B000000 		.4byte	.LVL23-1
 2567 0131 0100     		.2byte	0x1
 2568 0133 51       		.byte	0x51
 2569 0134 0B000000 		.4byte	.LVL23-1
 2570 0138 14000000 		.4byte	.LFE221
 2571 013c 0400     		.2byte	0x4
 2572 013e F3       		.byte	0xf3
 2573 013f 01       		.uleb128 0x1
 2574 0140 51       		.byte	0x51
 2575 0141 9F       		.byte	0x9f
 2576 0142 00000000 		.4byte	0
 2577 0146 00000000 		.4byte	0
 2578              	.LLST11:
 2579 014a 00000000 		.4byte	.LVL21
 2580 014e 08000000 		.4byte	.LVL22
 2581 0152 0300     		.2byte	0x3
 2582 0154 08       		.byte	0x8
 2583 0155 20       		.byte	0x20
 2584 0156 9F       		.byte	0x9f
 2585 0157 00000000 		.4byte	0
 2586 015b 00000000 		.4byte	0
 2587              	.LLST12:
 2588 015f 08000000 		.4byte	.LVL22
 2589 0163 0B000000 		.4byte	.LVL23-1
 2590 0167 0100     		.2byte	0x1
 2591 0169 51       		.byte	0x51
 2592 016a 0B000000 		.4byte	.LVL23-1
 2593 016e 0C000000 		.4byte	.LVL23
 2594 0172 0400     		.2byte	0x4
 2595 0174 F3       		.byte	0xf3
 2596 0175 01       		.uleb128 0x1
 2597 0176 51       		.byte	0x51
 2598 0177 9F       		.byte	0x9f
 2599 0178 00000000 		.4byte	0
 2600 017c 00000000 		.4byte	0
 2601              	.LLST13:
 2602 0180 08000000 		.4byte	.LVL22
 2603 0184 0B000000 		.4byte	.LVL23-1
 2604 0188 0100     		.2byte	0x1
 2605 018a 50       		.byte	0x50
 2606 018b 0B000000 		.4byte	.LVL23-1
 2607 018f 0C000000 		.4byte	.LVL23
 2608 0193 0400     		.2byte	0x4
 2609 0195 F3       		.byte	0xf3
 2610 0196 01       		.uleb128 0x1
 2611 0197 50       		.byte	0x50
 2612 0198 9F       		.byte	0x9f
 2613 0199 00000000 		.4byte	0
 2614 019d 00000000 		.4byte	0
 2615              	.LLST14:
 2616 01a1 0C000000 		.4byte	.LVL23
 2617 01a5 12000000 		.4byte	.LVL24
 2618 01a9 0200     		.2byte	0x2
 2619 01ab 30       		.byte	0x30
 2620 01ac 9F       		.byte	0x9f
 2621 01ad 00000000 		.4byte	0
 2622 01b1 00000000 		.4byte	0
ARM GAS  C:\Users\IDONNO~1\AppData\Local\Temp\cc8y2Qbc.s 			page 47


 2623              		.section	.debug_aranges,"",%progbits
 2624 0000 2C000000 		.4byte	0x2c
 2625 0004 0200     		.2byte	0x2
 2626 0006 00000000 		.4byte	.Ldebug_info0
 2627 000a 04       		.byte	0x4
 2628 000b 00       		.byte	0
 2629 000c 0000     		.2byte	0
 2630 000e 0000     		.2byte	0
 2631 0010 00000000 		.4byte	.LFB219
 2632 0014 40000000 		.4byte	.LFE219-.LFB219
 2633 0018 00000000 		.4byte	.LFB220
 2634 001c 3C000000 		.4byte	.LFE220-.LFB220
 2635 0020 00000000 		.4byte	.LFB221
 2636 0024 14000000 		.4byte	.LFE221-.LFB221
 2637 0028 00000000 		.4byte	0
 2638 002c 00000000 		.4byte	0
 2639              		.section	.debug_ranges,"",%progbits
 2640              	.Ldebug_ranges0:
 2641 0000 04000000 		.4byte	.LBB52
 2642 0004 06000000 		.4byte	.LBE52
 2643 0008 08000000 		.4byte	.LBB59
 2644 000c 0C000000 		.4byte	.LBE59
 2645 0010 00000000 		.4byte	0
 2646 0014 00000000 		.4byte	0
 2647 0018 12000000 		.4byte	.LBB60
 2648 001c 16000000 		.4byte	.LBE60
 2649 0020 18000000 		.4byte	.LBB64
 2650 0024 1C000000 		.4byte	.LBE64
 2651 0028 1E000000 		.4byte	.LBB65
 2652 002c 20000000 		.4byte	.LBE65
 2653 0030 00000000 		.4byte	0
 2654 0034 00000000 		.4byte	0
 2655 0038 16000000 		.4byte	.LBB77
 2656 003c 1A000000 		.4byte	.LBE77
 2657 0040 1C000000 		.4byte	.LBB80
 2658 0044 1E000000 		.4byte	.LBE80
 2659 0048 00000000 		.4byte	0
 2660 004c 00000000 		.4byte	0
 2661 0050 1E000000 		.4byte	.LBB81
 2662 0054 20000000 		.4byte	.LBE81
 2663 0058 22000000 		.4byte	.LBB90
 2664 005c 26000000 		.4byte	.LBE90
 2665 0060 00000000 		.4byte	0
 2666 0064 00000000 		.4byte	0
 2667 0068 00000000 		.4byte	.LFB219
 2668 006c 40000000 		.4byte	.LFE219
 2669 0070 00000000 		.4byte	.LFB220
 2670 0074 3C000000 		.4byte	.LFE220
 2671 0078 00000000 		.4byte	.LFB221
 2672 007c 14000000 		.4byte	.LFE221
 2673 0080 00000000 		.4byte	0
 2674 0084 00000000 		.4byte	0
 2675              		.section	.debug_line,"",%progbits
 2676              	.Ldebug_line0:
 2677 0000 18030000 		.section	.debug_str,"MS",%progbits,1
 2677      02003E02 
 2677      00000201 
ARM GAS  C:\Users\IDONNO~1\AppData\Local\Temp\cc8y2Qbc.s 			page 48


 2677      FB0E0D00 
 2677      01010101 
 2678              	.LASF53:
 2679 0000 72656164 		.ascii	"ready_list_t\000"
 2679      795F6C69 
 2679      73745F74 
 2679      00
 2680              	.LASF107:
 2681 000d 71756575 		.ascii	"queue_insert\000"
 2681      655F696E 
 2681      73657274 
 2681      00
 2682              	.LASF91:
 2683 001a 77747472 		.ascii	"wttrp\000"
 2683      7000
 2684              	.LASF88:
 2685 0020 7264796D 		.ascii	"rdymsg\000"
 2685      736700
 2686              	.LASF16:
 2687 0027 75696E74 		.ascii	"uint64_t\000"
 2687      36345F74 
 2687      00
 2688              	.LASF5:
 2689 0030 5F5F7569 		.ascii	"__uint8_t\000"
 2689      6E74385F 
 2689      7400
 2690              	.LASF85:
 2691 003a 706F7274 		.ascii	"port_intctx\000"
 2691      5F696E74 
 2691      63747800 
 2692              	.LASF72:
 2693 0046 73797374 		.ascii	"system_debug_t\000"
 2693      656D5F64 
 2693      65627567 
 2693      5F7400
 2694              	.LASF104:
 2695 0055 706F7274 		.ascii	"port_lock\000"
 2695      5F6C6F63 
 2695      6B00
 2696              	.LASF124:
 2697 005f 443A5C67 		.ascii	"D:\\git\\oroca_bldc_dev\\oroca_bldc_FW\000"
 2697      69745C6F 
 2697      726F6361 
 2697      5F626C64 
 2697      635F6465 
 2698              	.LASF12:
 2699 0083 6C6F6E67 		.ascii	"long long unsigned int\000"
 2699      206C6F6E 
 2699      6720756E 
 2699      7369676E 
 2699      65642069 
 2700              	.LASF89:
 2701 009a 65786974 		.ascii	"exitcode\000"
 2701      636F6465 
 2701      00
 2702              	.LASF79:
 2703 00a3 6D61696E 		.ascii	"mainthread\000"
ARM GAS  C:\Users\IDONNO~1\AppData\Local\Temp\cc8y2Qbc.s 			page 49


 2703      74687265 
 2703      616400
 2704              	.LASF69:
 2705 00ae 76697274 		.ascii	"virtual_timers_list_t\000"
 2705      75616C5F 
 2705      74696D65 
 2705      72735F6C 
 2705      6973745F 
 2706              	.LASF118:
 2707 00c4 49544D5F 		.ascii	"ITM_RxBuffer\000"
 2707      52784275 
 2707      66666572 
 2707      00
 2708              	.LASF52:
 2709 00d1 63685F74 		.ascii	"ch_threads_queue\000"
 2709      68726561 
 2709      64735F71 
 2709      75657565 
 2709      00
 2710              	.LASF30:
 2711 00e2 705F7072 		.ascii	"p_prio\000"
 2711      696F00
 2712              	.LASF10:
 2713 00e9 6C6F6E67 		.ascii	"long long int\000"
 2713      206C6F6E 
 2713      6720696E 
 2713      7400
 2714              	.LASF1:
 2715 00f7 7369676E 		.ascii	"signed char\000"
 2715      65642063 
 2715      68617200 
 2716              	.LASF46:
 2717 0103 705F6D70 		.ascii	"p_mpool\000"
 2717      6F6F6C00 
 2718              	.LASF99:
 2719 010b 6D5F7175 		.ascii	"m_queue\000"
 2719      65756500 
 2720              	.LASF78:
 2721 0113 76746C69 		.ascii	"vtlist\000"
 2721      737400
 2722              	.LASF105:
 2723 011a 706F7274 		.ascii	"port_unlock\000"
 2723      5F756E6C 
 2723      6F636B00 
 2724              	.LASF21:
 2725 0126 74736C69 		.ascii	"tslices_t\000"
 2725      6365735F 
 2725      7400
 2726              	.LASF76:
 2727 0130 63685F73 		.ascii	"ch_system\000"
 2727      79737465 
 2727      6D00
 2728              	.LASF7:
 2729 013a 6C6F6E67 		.ascii	"long int\000"
 2729      20696E74 
 2729      00
 2730              	.LASF116:
ARM GAS  C:\Users\IDONNO~1\AppData\Local\Temp\cc8y2Qbc.s 			page 50


 2731 0143 63684D73 		.ascii	"chMsgSend\000"
 2731      6753656E 
 2731      6400
 2732              	.LASF19:
 2733 014d 74737461 		.ascii	"tstate_t\000"
 2733      74655F74 
 2733      00
 2734              	.LASF112:
 2735 0156 63684D73 		.ascii	"chMsgIsPendingI\000"
 2735      67497350 
 2735      656E6469 
 2735      6E674900 
 2736              	.LASF32:
 2737 0166 705F6E65 		.ascii	"p_newer\000"
 2737      77657200 
 2738              	.LASF96:
 2739 016e 735F7175 		.ascii	"s_queue\000"
 2739      65756500 
 2740              	.LASF58:
 2741 0176 725F6E65 		.ascii	"r_newer\000"
 2741      77657200 
 2742              	.LASF82:
 2743 017e 72656761 		.ascii	"regarm_t\000"
 2743      726D5F74 
 2743      00
 2744              	.LASF65:
 2745 0187 76745F70 		.ascii	"vt_prev\000"
 2745      72657600 
 2746              	.LASF103:
 2747 018f 6D757465 		.ascii	"mutex_t\000"
 2747      785F7400 
 2748              	.LASF108:
 2749 0197 76616C75 		.ascii	"value\000"
 2749      6500
 2750              	.LASF80:
 2751 019d 69646C65 		.ascii	"idle_thread_wa\000"
 2751      5F746872 
 2751      6561645F 
 2751      776100
 2752              	.LASF25:
 2753 01ac 636E745F 		.ascii	"cnt_t\000"
 2753      7400
 2754              	.LASF0:
 2755 01b2 756E7369 		.ascii	"unsigned int\000"
 2755      676E6564 
 2755      20696E74 
 2755      00
 2756              	.LASF64:
 2757 01bf 76745F6E 		.ascii	"vt_next\000"
 2757      65787400 
 2758              	.LASF39:
 2759 01c7 705F7469 		.ascii	"p_time\000"
 2759      6D6500
 2760              	.LASF92:
 2761 01ce 77747365 		.ascii	"wtsemp\000"
 2761      6D7000
 2762              	.LASF66:
ARM GAS  C:\Users\IDONNO~1\AppData\Local\Temp\cc8y2Qbc.s 			page 51


 2763 01d5 76745F64 		.ascii	"vt_delta\000"
 2763      656C7461 
 2763      00
 2764              	.LASF41:
 2765 01de 705F6D73 		.ascii	"p_msgqueue\000"
 2765      67717565 
 2765      756500
 2766              	.LASF97:
 2767 01e9 735F636E 		.ascii	"s_cnt\000"
 2767      7400
 2768              	.LASF4:
 2769 01ef 73686F72 		.ascii	"short unsigned int\000"
 2769      7420756E 
 2769      7369676E 
 2769      65642069 
 2769      6E7400
 2770              	.LASF49:
 2771 0202 63685F74 		.ascii	"ch_thread\000"
 2771      68726561 
 2771      6400
 2772              	.LASF121:
 2773 020c 63685363 		.ascii	"chSchWakeupS\000"
 2773      6857616B 
 2773      65757053 
 2773      00
 2774              	.LASF23:
 2775 0219 6D73675F 		.ascii	"msg_t\000"
 2775      7400
 2776              	.LASF123:
 2777 021f 6C69622F 		.ascii	"lib/ChibiOS_3.0.2/os/rt/src/chmsg.c\000"
 2777      43686962 
 2777      694F535F 
 2777      332E302E 
 2777      322F6F73 
 2778              	.LASF75:
 2779 0243 63685F73 		.ascii	"ch_system_t\000"
 2779      79737465 
 2779      6D5F7400 
 2780              	.LASF18:
 2781 024f 746D6F64 		.ascii	"tmode_t\000"
 2781      655F7400 
 2782              	.LASF54:
 2783 0257 63685F72 		.ascii	"ch_ready_list\000"
 2783      65616479 
 2783      5F6C6973 
 2783      7400
 2784              	.LASF24:
 2785 0265 6576656E 		.ascii	"eventmask_t\000"
 2785      746D6173 
 2785      6B5F7400 
 2786              	.LASF6:
 2787 0271 5F5F696E 		.ascii	"__int32_t\000"
 2787      7433325F 
 2787      7400
 2788              	.LASF83:
 2789 027b 73746B61 		.ascii	"stkalign_t\000"
 2789      6C69676E 
ARM GAS  C:\Users\IDONNO~1\AppData\Local\Temp\cc8y2Qbc.s 			page 52


 2789      5F7400
 2790              	.LASF48:
 2791 0286 74687265 		.ascii	"threads_list_t\000"
 2791      6164735F 
 2791      6C697374 
 2791      5F7400
 2792              	.LASF40:
 2793 0295 705F7761 		.ascii	"p_waiting\000"
 2793      6974696E 
 2793      6700
 2794              	.LASF81:
 2795 029f 73697A65 		.ascii	"sizetype\000"
 2795      74797065 
 2795      00
 2796              	.LASF47:
 2797 02a8 74687265 		.ascii	"thread_reference_t\000"
 2797      61645F72 
 2797      65666572 
 2797      656E6365 
 2797      5F7400
 2798              	.LASF70:
 2799 02bb 63685F76 		.ascii	"ch_virtual_timers_list\000"
 2799      69727475 
 2799      616C5F74 
 2799      696D6572 
 2799      735F6C69 
 2800              	.LASF33:
 2801 02d2 705F6F6C 		.ascii	"p_older\000"
 2801      64657200 
 2802              	.LASF57:
 2803 02da 725F6374 		.ascii	"r_ctx\000"
 2803      7800
 2804              	.LASF87:
 2805 02e0 746D5F63 		.ascii	"tm_calibration_t\000"
 2805      616C6962 
 2805      72617469 
 2805      6F6E5F74 
 2805      00
 2806              	.LASF101:
 2807 02f1 6D5F6E65 		.ascii	"m_next\000"
 2807      787400
 2808              	.LASF60:
 2809 02f8 725F6375 		.ascii	"r_current\000"
 2809      7272656E 
 2809      7400
 2810              	.LASF59:
 2811 0302 725F6F6C 		.ascii	"r_older\000"
 2811      64657200 
 2812              	.LASF11:
 2813 030a 5F5F7569 		.ascii	"__uint64_t\000"
 2813      6E743634 
 2813      5F7400
 2814              	.LASF20:
 2815 0315 74726566 		.ascii	"trefs_t\000"
 2815      735F7400 
 2816              	.LASF62:
 2817 031d 76697274 		.ascii	"virtual_timer_t\000"
ARM GAS  C:\Users\IDONNO~1\AppData\Local\Temp\cc8y2Qbc.s 			page 53


 2817      75616C5F 
 2817      74696D65 
 2817      725F7400 
 2818              	.LASF29:
 2819 032d 705F7072 		.ascii	"p_prev\000"
 2819      657600
 2820              	.LASF22:
 2821 0334 74707269 		.ascii	"tprio_t\000"
 2821      6F5F7400 
 2822              	.LASF73:
 2823 033c 63685F73 		.ascii	"ch_system_debug\000"
 2823      79737465 
 2823      6D5F6465 
 2823      62756700 
 2824              	.LASF111:
 2825 034c 5F426F6F 		.ascii	"_Bool\000"
 2825      6C00
 2826              	.LASF14:
 2827 0352 696E7433 		.ascii	"int32_t\000"
 2827      325F7400 
 2828              	.LASF2:
 2829 035a 756E7369 		.ascii	"unsigned char\000"
 2829      676E6564 
 2829      20636861 
 2829      7200
 2830              	.LASF44:
 2831 0368 705F6D74 		.ascii	"p_mtxlist\000"
 2831      786C6973 
 2831      7400
 2832              	.LASF3:
 2833 0372 73686F72 		.ascii	"short int\000"
 2833      7420696E 
 2833      7400
 2834              	.LASF35:
 2835 037c 705F7374 		.ascii	"p_state\000"
 2835      61746500 
 2836              	.LASF38:
 2837 0384 705F7072 		.ascii	"p_preempt\000"
 2837      65656D70 
 2837      7400
 2838              	.LASF56:
 2839 038e 725F7072 		.ascii	"r_prio\000"
 2839      696F00
 2840              	.LASF94:
 2841 0395 65776D61 		.ascii	"ewmask\000"
 2841      736B00
 2842              	.LASF28:
 2843 039c 705F6E65 		.ascii	"p_next\000"
 2843      787400
 2844              	.LASF36:
 2845 03a3 705F666C 		.ascii	"p_flags\000"
 2845      61677300 
 2846              	.LASF114:
 2847 03ab 5F5F6675 		.ascii	"__func__\000"
 2847      6E635F5F 
 2847      00
 2848              	.LASF109:
ARM GAS  C:\Users\IDONNO~1\AppData\Local\Temp\cc8y2Qbc.s 			page 54


 2849 03b4 63685379 		.ascii	"chSysLock\000"
 2849      734C6F63 
 2849      6B00
 2850              	.LASF63:
 2851 03be 63685F76 		.ascii	"ch_virtual_timer\000"
 2851      69727475 
 2851      616C5F74 
 2851      696D6572 
 2851      00
 2852              	.LASF125:
 2853 03cf 63684D73 		.ascii	"chMsgRelease\000"
 2853      6752656C 
 2853      65617365 
 2853      00
 2854              	.LASF95:
 2855 03dc 63685F73 		.ascii	"ch_semaphore\000"
 2855      656D6170 
 2855      686F7265 
 2855      00
 2856              	.LASF119:
 2857 03e9 63685363 		.ascii	"chSchGoSleepS\000"
 2857      68476F53 
 2857      6C656570 
 2857      5300
 2858              	.LASF43:
 2859 03f7 705F6570 		.ascii	"p_epending\000"
 2859      656E6469 
 2859      6E6700
 2860              	.LASF15:
 2861 0402 75696E74 		.ascii	"uint32_t\000"
 2861      33325F74 
 2861      00
 2862              	.LASF93:
 2863 040b 77746D74 		.ascii	"wtmtxp\000"
 2863      787000
 2864              	.LASF55:
 2865 0412 725F7175 		.ascii	"r_queue\000"
 2865      65756500 
 2866              	.LASF120:
 2867 041a 63685363 		.ascii	"chSchReadyI\000"
 2867      68526561 
 2867      64794900 
 2868              	.LASF50:
 2869 0426 63685F74 		.ascii	"ch_threads_list\000"
 2869      68726561 
 2869      64735F6C 
 2869      69737400 
 2870              	.LASF9:
 2871 0436 6C6F6E67 		.ascii	"long unsigned int\000"
 2871      20756E73 
 2871      69676E65 
 2871      6420696E 
 2871      7400
 2872              	.LASF102:
 2873 0448 63686172 		.ascii	"char\000"
 2873      00
 2874              	.LASF27:
ARM GAS  C:\Users\IDONNO~1\AppData\Local\Temp\cc8y2Qbc.s 			page 55


 2875 044d 74687265 		.ascii	"thread_t\000"
 2875      61645F74 
 2875      00
 2876              	.LASF113:
 2877 0456 71756575 		.ascii	"queue_fifo_remove\000"
 2877      655F6669 
 2877      666F5F72 
 2877      656D6F76 
 2877      6500
 2878              	.LASF26:
 2879 0468 73797374 		.ascii	"systime_t\000"
 2879      696D655F 
 2879      7400
 2880              	.LASF45:
 2881 0472 705F7265 		.ascii	"p_realprio\000"
 2881      616C7072 
 2881      696F00
 2882              	.LASF61:
 2883 047d 76746675 		.ascii	"vtfunc_t\000"
 2883      6E635F74 
 2883      00
 2884              	.LASF8:
 2885 0486 5F5F7569 		.ascii	"__uint32_t\000"
 2885      6E743332 
 2885      5F7400
 2886              	.LASF106:
 2887 0491 5F5F7365 		.ascii	"__set_BASEPRI\000"
 2887      745F4241 
 2887      53455052 
 2887      4900
 2888              	.LASF74:
 2889 049f 70616E69 		.ascii	"panic_msg\000"
 2889      635F6D73 
 2889      6700
 2890              	.LASF86:
 2891 04a9 6F666673 		.ascii	"offset\000"
 2891      657400
 2892              	.LASF84:
 2893 04b0 636F6E74 		.ascii	"context\000"
 2893      65787400 
 2894              	.LASF17:
 2895 04b8 7274636E 		.ascii	"rtcnt_t\000"
 2895      745F7400 
 2896              	.LASF68:
 2897 04c0 76745F70 		.ascii	"vt_par\000"
 2897      617200
 2898              	.LASF117:
 2899 04c7 63684D73 		.ascii	"chMsgWait\000"
 2899      67576169 
 2899      7400
 2900              	.LASF51:
 2901 04d1 74687265 		.ascii	"threads_queue_t\000"
 2901      6164735F 
 2901      71756575 
 2901      655F7400 
 2902              	.LASF98:
 2903 04e1 63685F6D 		.ascii	"ch_mutex\000"
ARM GAS  C:\Users\IDONNO~1\AppData\Local\Temp\cc8y2Qbc.s 			page 56


 2903      75746578 
 2903      00
 2904              	.LASF37:
 2905 04ea 705F7265 		.ascii	"p_refs\000"
 2905      667300
 2906              	.LASF122:
 2907 04f1 474E5520 		.ascii	"GNU C99 5.4.1 20160919 (release) [ARM/embedded-5-br"
 2907      43393920 
 2907      352E342E 
 2907      31203230 
 2907      31363039 
 2908 0524 616E6368 		.ascii	"anch revision 240496] -mcpu=cortex-m4 -mfloat-abi=h"
 2908      20726576 
 2908      6973696F 
 2908      6E203234 
 2908      30343936 
 2909 0557 61726420 		.ascii	"ard -mfpu=fpv4-sp-d16 -mno-thumb-interwork -mthumb "
 2909      2D6D6670 
 2909      753D6670 
 2909      76342D73 
 2909      702D6431 
 2910 058a 2D676764 		.ascii	"-ggdb -O2 -std=gnu99 -fomit-frame-pointer -falign-f"
 2910      62202D4F 
 2910      32202D73 
 2910      74643D67 
 2910      6E753939 
 2911 05bd 756E6374 		.ascii	"unctions=16 -ffunction-sections -fdata-sections -fn"
 2911      696F6E73 
 2911      3D313620 
 2911      2D666675 
 2911      6E637469 
 2912 05f0 6F2D636F 		.ascii	"o-common -fsingle-precision-constant\000"
 2912      6D6D6F6E 
 2912      202D6673 
 2912      696E676C 
 2912      652D7072 
 2913              	.LASF77:
 2914 0615 726C6973 		.ascii	"rlist\000"
 2914      7400
 2915              	.LASF13:
 2916 061b 75696E74 		.ascii	"uint8_t\000"
 2916      385F7400 
 2917              	.LASF90:
 2918 0623 77746F62 		.ascii	"wtobjp\000"
 2918      6A7000
 2919              	.LASF34:
 2920 062a 705F6E61 		.ascii	"p_name\000"
 2920      6D6500
 2921              	.LASF71:
 2922 0631 76745F73 		.ascii	"vt_systime\000"
 2922      79737469 
 2922      6D6500
 2923              	.LASF110:
 2924 063c 63685379 		.ascii	"chSysUnlock\000"
 2924      73556E6C 
 2924      6F636B00 
 2925              	.LASF42:
ARM GAS  C:\Users\IDONNO~1\AppData\Local\Temp\cc8y2Qbc.s 			page 57


 2926 0648 705F6D73 		.ascii	"p_msg\000"
 2926      6700
 2927              	.LASF115:
 2928 064e 63684D73 		.ascii	"chMsgReleaseS\000"
 2928      6752656C 
 2928      65617365 
 2928      5300
 2929              	.LASF100:
 2930 065c 6D5F6F77 		.ascii	"m_owner\000"
 2930      6E657200 
 2931              	.LASF31:
 2932 0664 705F6374 		.ascii	"p_ctx\000"
 2932      7800
 2933              	.LASF67:
 2934 066a 76745F66 		.ascii	"vt_func\000"
 2934      756E6300 
 2935              		.ident	"GCC: (GNU Tools for ARM Embedded Processors) 5.4.1 20160919 (release) [ARM/embedded-5-bran
ARM GAS  C:\Users\IDONNO~1\AppData\Local\Temp\cc8y2Qbc.s 			page 58


DEFINED SYMBOLS
                            *ABS*:00000000 chmsg.c
C:\Users\IDONNO~1\AppData\Local\Temp\cc8y2Qbc.s:22     .text.chMsgSend:00000000 $t
C:\Users\IDONNO~1\AppData\Local\Temp\cc8y2Qbc.s:28     .text.chMsgSend:00000000 chMsgSend
C:\Users\IDONNO~1\AppData\Local\Temp\cc8y2Qbc.s:147    .text.chMsgSend:0000003c $d
C:\Users\IDONNO~1\AppData\Local\Temp\cc8y2Qbc.s:152    .text.chMsgWait:00000000 $t
C:\Users\IDONNO~1\AppData\Local\Temp\cc8y2Qbc.s:158    .text.chMsgWait:00000000 chMsgWait
C:\Users\IDONNO~1\AppData\Local\Temp\cc8y2Qbc.s:268    .text.chMsgWait:00000038 $d
C:\Users\IDONNO~1\AppData\Local\Temp\cc8y2Qbc.s:273    .text.chMsgRelease:00000000 $t
C:\Users\IDONNO~1\AppData\Local\Temp\cc8y2Qbc.s:279    .text.chMsgRelease:00000000 chMsgRelease
                     .debug_frame:00000010 $d

UNDEFINED SYMBOLS
chSchGoSleepS
chSchReadyI
ch
chSchWakeupS
