ARM GAS  C:\Users\IDONNO~1\AppData\Local\Temp\cc8y2Qbc.s 			page 1


   1              		.syntax unified
   2              		.cpu cortex-m4
   3              		.eabi_attribute 27, 1
   4              		.eabi_attribute 28, 1
   5              		.fpu fpv4-sp-d16
   6              		.eabi_attribute 20, 1
   7              		.eabi_attribute 21, 1
   8              		.eabi_attribute 23, 3
   9              		.eabi_attribute 24, 1
  10              		.eabi_attribute 25, 1
  11              		.eabi_attribute 26, 1
  12              		.eabi_attribute 30, 2
  13              		.eabi_attribute 34, 1
  14              		.eabi_attribute 18, 4
  15              		.thumb
  16              		.syntax unified
  17              		.file	"chmsg.c"
  18              		.text
  19              	.Ltext0:
  20              		.cfi_sections	.debug_frame
  21              		.section	.text.chMsgSend,"ax",%progbits
  22              		.align	2
  23              		.p2align 4,,15
  24              		.global	chMsgSend
  25              		.thumb
  26              		.thumb_func
  27              		.type	chMsgSend, %function
  28              	chMsgSend:
  29              	.LFB219:
  30              		.file 1 "lib/ChibiOS_3.0.2/os/rt/src/chmsg.c"
  31              		.loc 1 87 0
  32              		.cfi_startproc
  33              		@ args = 0, pretend = 0, frame = 0
  34              		@ frame_needed = 0, uses_anonymous_args = 0
  35              	.LVL0:
  36 0000 38B5     		push	{r3, r4, r5, lr}
  37              		.cfi_def_cfa_offset 16
  38              		.cfi_offset 3, -16
  39              		.cfi_offset 4, -12
  40              		.cfi_offset 5, -8
  41              		.cfi_offset 14, -4
  42              		.loc 1 88 0
  43 0002 0E4B     		ldr	r3, .L6
  44              	.LBB52:
  45              	.LBB53:
  46              	.LBB54:
  47              	.LBB55:
  48              		.file 2 "lib/ChibiOS_3.0.2/os/ext/CMSIS/include/core_cmFunc.h"
  49              		.loc 2 546 0
  50 0004 2022     		movs	r2, #32
  51              	.LBE55:
  52              	.LBE54:
  53              	.LBE53:
  54              	.LBE52:
  55              		.loc 1 88 0
  56 0006 9C69     		ldr	r4, [r3, #24]
  57              	.LVL1:
ARM GAS  C:\Users\IDONNO~1\AppData\Local\Temp\cc8y2Qbc.s 			page 2


  58              	.LBB59:
  59              	.LBB58:
  60              	.LBB57:
  61              	.LBB56:
  62              		.loc 2 546 0
  63              		.syntax unified
  64              	@ 546 "lib/ChibiOS_3.0.2/os/ext/CMSIS/include/core_cmFunc.h" 1
  65 0008 82F31188 		MSR basepri, r2
  66              	@ 0 "" 2
  67              	.LVL2:
  68              		.thumb
  69              		.syntax unified
  70              	.LBE56:
  71              	.LBE57:
  72              	.LBE58:
  73              	.LBE59:
  74              		.loc 1 94 0
  75 000c 00F12C05 		add	r5, r0, #44
  76 0010 6562     		str	r5, [r4, #36]
  77              	.LVL3:
  78              	.LBB60:
  79              	.LBB61:
  80              		.file 3 "lib/ChibiOS_3.0.2/os/rt/include/chschd.h"
  81              		.loc 3 666 0
  82 0012 026B     		ldr	r2, [r0, #48]
  83 0014 6260     		str	r2, [r4, #4]
  84              	.LBE61:
  85              	.LBE60:
  86              		.loc 1 93 0
  87 0016 6163     		str	r1, [r4, #52]
  88              	.LBB64:
  89              	.LBB62:
  90              		.loc 3 665 0
  91 0018 2560     		str	r5, [r4]
  92              		.loc 3 667 0
  93 001a 1460     		str	r4, [r2]
  94              	.LBE62:
  95              	.LBE64:
  96              		.loc 1 96 0
  97 001c 027F     		ldrb	r2, [r0, #28]	@ zero_extendqisi2
  98              	.LBB65:
  99              	.LBB63:
 100              		.loc 3 668 0
 101 001e 0463     		str	r4, [r0, #48]
 102              	.LVL4:
 103              	.LBE63:
 104              	.LBE65:
 105              		.loc 1 96 0
 106 0020 0E2A     		cmp	r2, #14
 107 0022 07D0     		beq	.L5
 108              	.LVL5:
 109              	.L2:
 110              		.loc 1 99 0
 111 0024 0C20     		movs	r0, #12
 112 0026 FFF7FEFF 		bl	chSchGoSleepS
 113              	.LVL6:
 114              		.loc 1 100 0
ARM GAS  C:\Users\IDONNO~1\AppData\Local\Temp\cc8y2Qbc.s 			page 3


 115 002a 606A     		ldr	r0, [r4, #36]
 116              	.LVL7:
 117              	.LBB66:
 118              	.LBB67:
 119              	.LBB68:
 120              	.LBB69:
 121              	.LBB70:
 122              		.loc 2 546 0
 123 002c 0023     		movs	r3, #0
 124              		.syntax unified
 125              	@ 546 "lib/ChibiOS_3.0.2/os/ext/CMSIS/include/core_cmFunc.h" 1
 126 002e 83F31188 		MSR basepri, r3
 127              	@ 0 "" 2
 128              	.LVL8:
 129              		.thumb
 130              		.syntax unified
 131              	.LBE70:
 132              	.LBE69:
 133              	.LBE68:
 134              	.LBE67:
 135              	.LBE66:
 136              		.loc 1 104 0
 137 0032 38BD     		pop	{r3, r4, r5, pc}
 138              	.LVL9:
 139              	.L5:
 140              		.loc 1 97 0
 141 0034 FFF7FEFF 		bl	chSchReadyI
 142              	.LVL10:
 143 0038 F4E7     		b	.L2
 144              	.L7:
 145 003a 00BF     		.align	2
 146              	.L6:
 147 003c 00000000 		.word	ch
 148              		.cfi_endproc
 149              	.LFE219:
 150              		.size	chMsgSend, .-chMsgSend
 151              		.section	.text.chMsgWait,"ax",%progbits
 152              		.align	2
 153              		.p2align 4,,15
 154              		.global	chMsgWait
 155              		.thumb
 156              		.thumb_func
 157              		.type	chMsgWait, %function
 158              	chMsgWait:
 159              	.LFB220:
 160              		.loc 1 120 0
 161              		.cfi_startproc
 162              		@ args = 0, pretend = 0, frame = 0
 163              		@ frame_needed = 0, uses_anonymous_args = 0
 164              	.LVL11:
 165 0000 10B5     		push	{r4, lr}
 166              		.cfi_def_cfa_offset 8
 167              		.cfi_offset 4, -8
 168              		.cfi_offset 14, -4
 169              	.LBB71:
 170              	.LBB72:
 171              	.LBB73:
ARM GAS  C:\Users\IDONNO~1\AppData\Local\Temp\cc8y2Qbc.s 			page 4


 172              	.LBB74:
 173              		.loc 2 546 0
 174 0002 2023     		movs	r3, #32
 175              		.syntax unified
 176              	@ 546 "lib/ChibiOS_3.0.2/os/ext/CMSIS/include/core_cmFunc.h" 1
 177 0004 83F31188 		MSR basepri, r3
 178              	@ 0 "" 2
 179              	.LVL12:
 180              		.thumb
 181              		.syntax unified
 182              	.LBE74:
 183              	.LBE73:
 184              	.LBE72:
 185              	.LBE71:
 186              		.loc 1 124 0
 187 0008 0B4C     		ldr	r4, .L12
 188 000a A269     		ldr	r2, [r4, #24]
 189              	.LVL13:
 190              	.LBB75:
 191              	.LBB76:
 192              		.file 4 "lib/ChibiOS_3.0.2/os/rt/include/chmsg.h"
 193              		.loc 4 83 0
 194 000c 1346     		mov	r3, r2
 195 000e 53F82C0F 		ldr	r0, [r3, #44]!
 196              	.LVL14:
 197              	.LBE76:
 198              	.LBE75:
 199              		.loc 1 124 0
 200 0012 9842     		cmp	r0, r3
 201 0014 08D0     		beq	.L11
 202              	.L9:
 203              	.LVL15:
 204              	.LBB77:
 205              	.LBB78:
 206              		.loc 3 674 0
 207 0016 0168     		ldr	r1, [r0]
 208 0018 D162     		str	r1, [r2, #44]
 209              	.LVL16:
 210              	.LBE78:
 211              	.LBE77:
 212              		.loc 1 128 0
 213 001a 0D22     		movs	r2, #13
 214              	.LBB80:
 215              	.LBB79:
 216              		.loc 3 675 0
 217 001c 4B60     		str	r3, [r1, #4]
 218              	.LVL17:
 219              	.LBE79:
 220              	.LBE80:
 221              	.LBB81:
 222              	.LBB82:
 223              	.LBB83:
 224              	.LBB84:
 225              	.LBB85:
 226              		.loc 2 546 0
 227 001e 0023     		movs	r3, #0
 228              	.LBE85:
ARM GAS  C:\Users\IDONNO~1\AppData\Local\Temp\cc8y2Qbc.s 			page 5


 229              	.LBE84:
 230              	.LBE83:
 231              	.LBE82:
 232              	.LBE81:
 233              		.loc 1 128 0
 234 0020 0277     		strb	r2, [r0, #28]
 235              	.LVL18:
 236              	.LBB90:
 237              	.LBB89:
 238              	.LBB88:
 239              	.LBB87:
 240              	.LBB86:
 241              		.loc 2 546 0
 242              		.syntax unified
 243              	@ 546 "lib/ChibiOS_3.0.2/os/ext/CMSIS/include/core_cmFunc.h" 1
 244 0022 83F31188 		MSR basepri, r3
 245              	@ 0 "" 2
 246              	.LVL19:
 247              		.thumb
 248              		.syntax unified
 249              	.LBE86:
 250              	.LBE87:
 251              	.LBE88:
 252              	.LBE89:
 253              	.LBE90:
 254              		.loc 1 132 0
 255 0026 10BD     		pop	{r4, pc}
 256              	.L11:
 257              		.loc 1 125 0
 258 0028 0E20     		movs	r0, #14
 259 002a FFF7FEFF 		bl	chSchGoSleepS
 260              	.LVL20:
 261 002e A269     		ldr	r2, [r4, #24]
 262 0030 D06A     		ldr	r0, [r2, #44]
 263 0032 02F12C03 		add	r3, r2, #44
 264 0036 EEE7     		b	.L9
 265              	.L13:
 266              		.align	2
 267              	.L12:
 268 0038 00000000 		.word	ch
 269              		.cfi_endproc
 270              	.LFE220:
 271              		.size	chMsgWait, .-chMsgWait
 272              		.section	.text.chMsgRelease,"ax",%progbits
 273              		.align	2
 274              		.p2align 4,,15
 275              		.global	chMsgRelease
 276              		.thumb
 277              		.thumb_func
 278              		.type	chMsgRelease, %function
 279              	chMsgRelease:
 280              	.LFB221:
 281              		.loc 1 144 0
 282              		.cfi_startproc
 283              		@ args = 0, pretend = 0, frame = 0
 284              		@ frame_needed = 0, uses_anonymous_args = 0
 285              	.LVL21:
ARM GAS  C:\Users\IDONNO~1\AppData\Local\Temp\cc8y2Qbc.s 			page 6


 286 0000 08B5     		push	{r3, lr}
 287              		.cfi_def_cfa_offset 8
 288              		.cfi_offset 3, -8
 289              		.cfi_offset 14, -4
 290              	.LBB91:
 291              	.LBB92:
 292              	.LBB93:
 293              	.LBB94:
 294              		.loc 2 546 0
 295 0002 2023     		movs	r3, #32
 296              		.syntax unified
 297              	@ 546 "lib/ChibiOS_3.0.2/os/ext/CMSIS/include/core_cmFunc.h" 1
 298 0004 83F31188 		MSR basepri, r3
 299              	@ 0 "" 2
 300              	.LVL22:
 301              		.thumb
 302              		.syntax unified
 303              	.LBE94:
 304              	.LBE93:
 305              	.LBE92:
 306              	.LBE91:
 307              	.LBB95:
 308              	.LBB96:
 309              		.loc 4 115 0
 310 0008 FFF7FEFF 		bl	chSchWakeupS
 311              	.LVL23:
 312              	.LBE96:
 313              	.LBE95:
 314              	.LBB97:
 315              	.LBB98:
 316              	.LBB99:
 317              	.LBB100:
 318              	.LBB101:
 319              		.loc 2 546 0
 320 000c 0023     		movs	r3, #0
 321              		.syntax unified
 322              	@ 546 "lib/ChibiOS_3.0.2/os/ext/CMSIS/include/core_cmFunc.h" 1
 323 000e 83F31188 		MSR basepri, r3
 324              	@ 0 "" 2
 325              	.LVL24:
 326              		.thumb
 327              		.syntax unified
 328 0012 08BD     		pop	{r3, pc}
 329              	.LBE101:
 330              	.LBE100:
 331              	.LBE99:
 332              	.LBE98:
 333              	.LBE97:
 334              		.cfi_endproc
 335              	.LFE221:
 336              		.size	chMsgRelease, .-chMsgRelease
 337              		.text
 338              	.Letext0:
 339              		.file 5 "c:\\program files (x86)\\gnu tools arm embedded\\5.4 2016q3\\arm-none-eabi\\include\\mach
 340              		.file 6 "c:\\program files (x86)\\gnu tools arm embedded\\5.4 2016q3\\arm-none-eabi\\include\\sys\
 341              		.file 7 "lib/ChibiOS_3.0.2/os/rt/ports/ARMCMx/compilers/GCC/chtypes.h"
 342              		.file 8 "lib/ChibiOS_3.0.2/os/rt/include/chsystypes.h"
ARM GAS  C:\Users\IDONNO~1\AppData\Local\Temp\cc8y2Qbc.s 			page 7


 343              		.file 9 "lib/ChibiOS_3.0.2/os/rt/ports/ARMCMx/chcore.h"
 344              		.file 10 "lib/ChibiOS_3.0.2/os/rt/ports/ARMCMx/chcore_v7m.h"
 345              		.file 11 "lib/ChibiOS_3.0.2/os/rt/include/chtm.h"
 346              		.file 12 "lib/ChibiOS_3.0.2/os/rt/include/chsem.h"
 347              		.file 13 "lib/ChibiOS_3.0.2/os/rt/include/chmtx.h"
 348              		.file 14 "lib/ChibiOS_3.0.2/os/rt/include/chsys.h"
 349              		.file 15 "lib/ChibiOS_3.0.2/os/ext/CMSIS/include/core_cm4.h"