ARM GAS  C:\Users\IDONNO~1.SON\AppData\Local\Temp\ccW0NqxC.s 			page 1


   1              		.syntax unified
   2              		.cpu cortex-m4
   3              		.eabi_attribute 27, 1
   4              		.eabi_attribute 28, 1
   5              		.fpu fpv4-sp-d16
   6              		.eabi_attribute 20, 1
   7              		.eabi_attribute 21, 1
   8              		.eabi_attribute 23, 3
   9              		.eabi_attribute 24, 1
  10              		.eabi_attribute 25, 1
  11              		.eabi_attribute 26, 1
  12              		.eabi_attribute 30, 2
  13              		.eabi_attribute 34, 1
  14              		.eabi_attribute 18, 4
  15              		.thumb
  16              		.syntax unified
  17              		.file	"chsem.c"
  18              		.text
  19              	.Ltext0:
  20              		.cfi_sections	.debug_frame
  21              		.section	.text.chSemObjectInit,"ax",%progbits
  22              		.align	2
  23              		.p2align 4,,15
  24              		.global	chSemObjectInit
  25              		.thumb
  26              		.thumb_func
  27              		.type	chSemObjectInit, %function
  28              	chSemObjectInit:
  29              	.LFB219:
  30              		.file 1 "lib/ChibiOS_3.0.2/os/rt/src/chsem.c"
  31              		.loc 1 97 0
  32              		.cfi_startproc
  33              		@ args = 0, pretend = 0, frame = 0
  34              		@ frame_needed = 0, uses_anonymous_args = 0
  35              		@ link register save eliminated.
  36              	.LVL0:
  37              	.LBB92:
  38              	.LBB93:
  39              		.file 2 "lib/ChibiOS_3.0.2/os/rt/include/chschd.h"
  40              		.loc 2 604 0
  41 0000 0060     		str	r0, [r0]
  42              		.loc 2 605 0
  43 0002 4060     		str	r0, [r0, #4]
  44              	.LVL1:
  45              	.LBE93:
  46              	.LBE92:
  47              		.loc 1 102 0
  48 0004 8160     		str	r1, [r0, #8]
  49 0006 7047     		bx	lr
  50              		.cfi_endproc
  51              	.LFE219:
  52              		.size	chSemObjectInit, .-chSemObjectInit
  53              		.section	.text.chSemResetI,"ax",%progbits
  54              		.align	2
  55              		.p2align 4,,15
  56              		.global	chSemResetI
  57              		.thumb
ARM GAS  C:\Users\IDONNO~1.SON\AppData\Local\Temp\ccW0NqxC.s 			page 2


  58              		.thumb_func
  59              		.type	chSemResetI, %function
  60              	chSemResetI:
  61              	.LFB221:
  62              		.loc 1 147 0
  63              		.cfi_startproc
  64              		@ args = 0, pretend = 0, frame = 0
  65              		@ frame_needed = 0, uses_anonymous_args = 0
  66              	.LVL2:
  67 0000 70B5     		push	{r4, r5, r6, lr}
  68              		.cfi_def_cfa_offset 16
  69              		.cfi_offset 4, -16
  70              		.cfi_offset 5, -12
  71              		.cfi_offset 6, -8
  72              		.cfi_offset 14, -4
  73              		.loc 1 156 0
  74 0002 8568     		ldr	r5, [r0, #8]
  75              	.LVL3:
  76              		.loc 1 157 0
  77 0004 8160     		str	r1, [r0, #8]
  78              		.loc 1 158 0
  79 0006 0135     		adds	r5, r5, #1
  80              	.LVL4:
  81 0008 002D     		cmp	r5, #0
  82 000a 0CDC     		bgt	.L2
  83 000c 0446     		mov	r4, r0
  84              		.loc 1 159 0
  85 000e 6FF00106 		mvn	r6, #1
  86              	.LVL5:
  87              	.L4:
  88              	.LBB94:
  89              	.LBB95:
  90              		.loc 2 681 0
  91 0012 6068     		ldr	r0, [r4, #4]
  92              	.LVL6:
  93              		.loc 2 683 0
  94 0014 4368     		ldr	r3, [r0, #4]
  95 0016 6360     		str	r3, [r4, #4]
  96              		.loc 2 684 0
  97 0018 1C60     		str	r4, [r3]
  98              	.LVL7:
  99              	.LBE95:
 100              	.LBE94:
 101              		.loc 1 159 0
 102 001a FFF7FEFF 		bl	chSchReadyI
 103              	.LVL8:
 104              		.loc 1 158 0
 105 001e 0135     		adds	r5, r5, #1
 106              	.LVL9:
 107 0020 012D     		cmp	r5, #1
 108              		.loc 1 159 0
 109 0022 4662     		str	r6, [r0, #36]
 110              	.LVL10:
 111              		.loc 1 158 0
 112 0024 F5D1     		bne	.L4
 113              	.LVL11:
 114              	.L2:
ARM GAS  C:\Users\IDONNO~1.SON\AppData\Local\Temp\ccW0NqxC.s 			page 3


 115 0026 70BD     		pop	{r4, r5, r6, pc}
 116              		.cfi_endproc
 117              	.LFE221:
 118              		.size	chSemResetI, .-chSemResetI
 119              		.section	.text.chSemReset,"ax",%progbits
 120              		.align	2
 121              		.p2align 4,,15
 122              		.global	chSemReset
 123              		.thumb
 124              		.thumb_func
 125              		.type	chSemReset, %function
 126              	chSemReset:
 127              	.LFB220:
 128              		.loc 1 120 0
 129              		.cfi_startproc
 130              		@ args = 0, pretend = 0, frame = 0
 131              		@ frame_needed = 0, uses_anonymous_args = 0
 132              	.LVL12:
 133 0000 08B5     		push	{r3, lr}
 134              		.cfi_def_cfa_offset 8
 135              		.cfi_offset 3, -8
 136              		.cfi_offset 14, -4
 137              	.LBB96:
 138              	.LBB97:
 139              	.LBB98:
 140              	.LBB99:
 141              		.file 3 "lib/ChibiOS_3.0.2/os/ext/CMSIS/include/core_cmFunc.h"
 142              		.loc 3 546 0
 143 0002 2023     		movs	r3, #32
 144              		.syntax unified
 145              	@ 546 "lib/ChibiOS_3.0.2/os/ext/CMSIS/include/core_cmFunc.h" 1
 146 0004 83F31188 		MSR basepri, r3
 147              	@ 0 "" 2
 148              	.LVL13:
 149              		.thumb
 150              		.syntax unified
 151              	.LBE99:
 152              	.LBE98:
 153              	.LBE97:
 154              	.LBE96:
 155              		.loc 1 123 0
 156 0008 FFF7FEFF 		bl	chSemResetI
 157              	.LVL14:
 158              		.loc 1 124 0
 159 000c FFF7FEFF 		bl	chSchRescheduleS
 160              	.LVL15:
 161              	.LBB100:
 162              	.LBB101:
 163              	.LBB102:
 164              	.LBB103:
 165              	.LBB104:
 166              		.loc 3 546 0
 167 0010 0023     		movs	r3, #0
 168              		.syntax unified
 169              	@ 546 "lib/ChibiOS_3.0.2/os/ext/CMSIS/include/core_cmFunc.h" 1
 170 0012 83F31188 		MSR basepri, r3
 171              	@ 0 "" 2
ARM GAS  C:\Users\IDONNO~1.SON\AppData\Local\Temp\ccW0NqxC.s 			page 4


 172              	.LVL16:
 173              		.thumb
 174              		.syntax unified
 175 0016 08BD     		pop	{r3, pc}
 176              	.LBE104:
 177              	.LBE103:
 178              	.LBE102:
 179              	.LBE101:
 180              	.LBE100:
 181              		.cfi_endproc
 182              	.LFE220:
 183              		.size	chSemReset, .-chSemReset
 184              		.section	.text.chSemWait,"ax",%progbits
 185              		.align	2
 186              		.p2align 4,,15
 187              		.global	chSemWait
 188              		.thumb
 189              		.thumb_func
 190              		.type	chSemWait, %function
 191              	chSemWait:
 192              	.LFB222:
 193              		.loc 1 175 0
 194              		.cfi_startproc
 195              		@ args = 0, pretend = 0, frame = 0
 196              		@ frame_needed = 0, uses_anonymous_args = 0
 197              	.LVL17:
 198              	.LBB120:
 199              	.LBB121:
 200              	.LBB122:
 201              	.LBB123:
 202              		.loc 3 546 0
 203 0000 2023     		movs	r3, #32
 204              		.syntax unified
 205              	@ 546 "lib/ChibiOS_3.0.2/os/ext/CMSIS/include/core_cmFunc.h" 1
 206 0002 83F31188 		MSR basepri, r3
 207              	@ 0 "" 2
 208              	.LVL18:
 209              		.thumb
 210              		.syntax unified
 211              	.LBE123:
 212              	.LBE122:
 213              	.LBE121:
 214              	.LBE120:
 215              	.LBB124:
 216              	.LBB125:
 217              		.loc 1 205 0
 218 0006 8368     		ldr	r3, [r0, #8]
 219 0008 013B     		subs	r3, r3, #1
 220 000a 002B     		cmp	r3, #0
 221 000c 8360     		str	r3, [r0, #8]
 222 000e 04DB     		blt	.L16
 223              		.loc 1 213 0
 224 0010 0020     		movs	r0, #0
 225              	.LVL19:
 226              	.LBE125:
 227              	.LBE124:
 228              	.LBB133:
ARM GAS  C:\Users\IDONNO~1.SON\AppData\Local\Temp\ccW0NqxC.s 			page 5


 229              	.LBB134:
 230              	.LBB135:
 231              	.LBB136:
 232              	.LBB137:
 233              		.loc 3 546 0
 234 0012 0023     		movs	r3, #0
 235              		.syntax unified
 236              	@ 546 "lib/ChibiOS_3.0.2/os/ext/CMSIS/include/core_cmFunc.h" 1
 237 0014 83F31188 		MSR basepri, r3
 238              	@ 0 "" 2
 239              	.LVL20:
 240              		.thumb
 241              		.syntax unified
 242              	.LBE137:
 243              	.LBE136:
 244              	.LBE135:
 245              	.LBE134:
 246              	.LBE133:
 247              		.loc 1 183 0
 248 0018 7047     		bx	lr
 249              	.LVL21:
 250              	.L16:
 251              		.loc 1 175 0
 252 001a 10B5     		push	{r4, lr}
 253              		.cfi_def_cfa_offset 8
 254              		.cfi_offset 4, -8
 255              		.cfi_offset 14, -4
 256              	.LBB142:
 257              	.LBB132:
 258              	.LBB126:
 259              	.LBB127:
 260              		.loc 1 206 0
 261 001c 084C     		ldr	r4, .L17
 262 001e A269     		ldr	r2, [r4, #24]
 263 0020 5062     		str	r0, [r2, #36]
 264              	.LBB128:
 265              	.LBB129:
 266              		.loc 2 666 0
 267 0022 4168     		ldr	r1, [r0, #4]
 268 0024 5160     		str	r1, [r2, #4]
 269 0026 0346     		mov	r3, r0
 270              	.LVL22:
 271              		.loc 2 665 0
 272 0028 1060     		str	r0, [r2]
 273              		.loc 2 667 0
 274 002a 0A60     		str	r2, [r1]
 275              	.LBE129:
 276              	.LBE128:
 277              		.loc 1 208 0
 278 002c 0520     		movs	r0, #5
 279              	.LVL23:
 280              	.LBB131:
 281              	.LBB130:
 282              		.loc 2 668 0
 283 002e 5A60     		str	r2, [r3, #4]
 284              	.LVL24:
 285              	.LBE130:
ARM GAS  C:\Users\IDONNO~1.SON\AppData\Local\Temp\ccW0NqxC.s 			page 6


 286              	.LBE131:
 287              		.loc 1 208 0
 288 0030 FFF7FEFF 		bl	chSchGoSleepS
 289              	.LVL25:
 290              		.loc 1 210 0
 291 0034 A369     		ldr	r3, [r4, #24]
 292 0036 586A     		ldr	r0, [r3, #36]
 293              	.LVL26:
 294              	.LBE127:
 295              	.LBE126:
 296              	.LBE132:
 297              	.LBE142:
 298              	.LBB143:
 299              	.LBB141:
 300              	.LBB140:
 301              	.LBB139:
 302              	.LBB138:
 303              		.loc 3 546 0
 304 0038 0023     		movs	r3, #0
 305              		.syntax unified
 306              	@ 546 "lib/ChibiOS_3.0.2/os/ext/CMSIS/include/core_cmFunc.h" 1
 307 003a 83F31188 		MSR basepri, r3
 308              	@ 0 "" 2
 309              	.LVL27:
 310              		.thumb
 311              		.syntax unified
 312              	.LBE138:
 313              	.LBE139:
 314              	.LBE140:
 315              	.LBE141:
 316              	.LBE143:
 317              		.loc 1 183 0
 318 003e 10BD     		pop	{r4, pc}
 319              	.L18:
 320              		.align	2
 321              	.L17:
 322 0040 00000000 		.word	ch
 323              		.cfi_endproc
 324              	.LFE222:
 325              		.size	chSemWait, .-chSemWait
 326              		.section	.text.chSemWaitS,"ax",%progbits
 327              		.align	2
 328              		.p2align 4,,15
 329              		.global	chSemWaitS
 330              		.thumb
 331              		.thumb_func
 332              		.type	chSemWaitS, %function
 333              	chSemWaitS:
 334              	.LFB223:
 335              		.loc 1 197 0
 336              		.cfi_startproc
 337              		@ args = 0, pretend = 0, frame = 0
 338              		@ frame_needed = 0, uses_anonymous_args = 0
 339              	.LVL28:
 340              		.loc 1 205 0
 341 0000 8368     		ldr	r3, [r0, #8]
 342 0002 013B     		subs	r3, r3, #1
ARM GAS  C:\Users\IDONNO~1.SON\AppData\Local\Temp\ccW0NqxC.s 			page 7


 343 0004 002B     		cmp	r3, #0
 344 0006 8360     		str	r3, [r0, #8]
 345 0008 01DB     		blt	.L24
 346              		.loc 1 213 0
 347 000a 0020     		movs	r0, #0
 348              	.LVL29:
 349 000c 7047     		bx	lr
 350              	.LVL30:
 351              	.L24:
 352              		.loc 1 197 0
 353 000e 10B5     		push	{r4, lr}
 354              		.cfi_def_cfa_offset 8
 355              		.cfi_offset 4, -8
 356              		.cfi_offset 14, -4
 357              	.LBB148:
 358              	.LBB149:
 359              		.loc 1 206 0
 360 0010 074C     		ldr	r4, .L25
 361 0012 A269     		ldr	r2, [r4, #24]
 362 0014 5062     		str	r0, [r2, #36]
 363              	.LBB150:
 364              	.LBB151:
 365              		.loc 2 666 0
 366 0016 4168     		ldr	r1, [r0, #4]
 367 0018 5160     		str	r1, [r2, #4]
 368 001a 0346     		mov	r3, r0
 369              	.LVL31:
 370              		.loc 2 665 0
 371 001c 1060     		str	r0, [r2]
 372              		.loc 2 667 0
 373 001e 0A60     		str	r2, [r1]
 374              	.LBE151:
 375              	.LBE150:
 376              		.loc 1 208 0
 377 0020 0520     		movs	r0, #5
 378              	.LVL32:
 379              	.LBB153:
 380              	.LBB152:
 381              		.loc 2 668 0
 382 0022 5A60     		str	r2, [r3, #4]
 383              	.LVL33:
 384              	.LBE152:
 385              	.LBE153:
 386              		.loc 1 208 0
 387 0024 FFF7FEFF 		bl	chSchGoSleepS
 388              	.LVL34:
 389              		.loc 1 210 0
 390 0028 A369     		ldr	r3, [r4, #24]
 391 002a 586A     		ldr	r0, [r3, #36]
 392              	.LVL35:
 393 002c 10BD     		pop	{r4, pc}
 394              	.L26:
 395 002e 00BF     		.align	2
 396              	.L25:
 397 0030 00000000 		.word	ch
 398              	.LBE149:
 399              	.LBE148:
ARM GAS  C:\Users\IDONNO~1.SON\AppData\Local\Temp\ccW0NqxC.s 			page 8


 400              		.cfi_endproc
 401              	.LFE223:
 402              		.size	chSemWaitS, .-chSemWaitS
 403              		.section	.text.chSemWaitTimeout,"ax",%progbits
 404              		.align	2
 405              		.p2align 4,,15
 406              		.global	chSemWaitTimeout
 407              		.thumb
 408              		.thumb_func
 409              		.type	chSemWaitTimeout, %function
 410              	chSemWaitTimeout:
 411              	.LFB224:
 412              		.loc 1 235 0
 413              		.cfi_startproc
 414              		@ args = 0, pretend = 0, frame = 0
 415              		@ frame_needed = 0, uses_anonymous_args = 0
 416              	.LVL36:
 417              	.LBB169:
 418              	.LBB170:
 419              	.LBB171:
 420              	.LBB172:
 421              		.loc 3 546 0
 422 0000 2023     		movs	r3, #32
 423              		.syntax unified
 424              	@ 546 "lib/ChibiOS_3.0.2/os/ext/CMSIS/include/core_cmFunc.h" 1
 425 0002 83F31188 		MSR basepri, r3
 426              	@ 0 "" 2
 427              	.LVL37:
 428              		.thumb
 429              		.syntax unified
 430              	.LBE172:
 431              	.LBE171:
 432              	.LBE170:
 433              	.LBE169:
 434              	.LBB173:
 435              	.LBB174:
 436              		.loc 1 272 0
 437 0006 8268     		ldr	r2, [r0, #8]
 438 0008 531E     		subs	r3, r2, #1
 439 000a 002B     		cmp	r3, #0
 440 000c 8360     		str	r3, [r0, #8]
 441 000e 04DB     		blt	.L33
 442              		.loc 1 284 0
 443 0010 0020     		movs	r0, #0
 444              	.LVL38:
 445              	.LBE174:
 446              	.LBE173:
 447              	.LBB183:
 448              	.LBB184:
 449              	.LBB185:
 450              	.LBB186:
 451              	.LBB187:
 452              		.loc 3 546 0
 453 0012 0023     		movs	r3, #0
 454              		.syntax unified
 455              	@ 546 "lib/ChibiOS_3.0.2/os/ext/CMSIS/include/core_cmFunc.h" 1
 456 0014 83F31188 		MSR basepri, r3
ARM GAS  C:\Users\IDONNO~1.SON\AppData\Local\Temp\ccW0NqxC.s 			page 9


 457              	@ 0 "" 2
 458              	.LVL39:
 459              		.thumb
 460              		.syntax unified
 461              	.LBE187:
 462              	.LBE186:
 463              	.LBE185:
 464              	.LBE184:
 465              	.LBE183:
 466              		.loc 1 243 0
 467 0018 7047     		bx	lr
 468              	.LVL40:
 469              	.L33:
 470              		.loc 1 235 0
 471 001a 10B5     		push	{r4, lr}
 472              		.cfi_def_cfa_offset 8
 473              		.cfi_offset 4, -8
 474              		.cfi_offset 14, -4
 475              	.LBB192:
 476              	.LBB181:
 477              		.loc 1 273 0
 478 001c 79B1     		cbz	r1, .L34
 479              	.LBB175:
 480              	.LBB176:
 481              		.loc 1 278 0
 482 001e 0A4A     		ldr	r2, .L35
 483 0020 9269     		ldr	r2, [r2, #24]
 484 0022 5062     		str	r0, [r2, #36]
 485              	.LBB177:
 486              	.LBB178:
 487              		.loc 2 666 0
 488 0024 4468     		ldr	r4, [r0, #4]
 489 0026 0346     		mov	r3, r0
 490              	.LVL41:
 491 0028 82E81800 		stmia	r2, {r3, r4}
 492              	.LBE178:
 493              	.LBE177:
 494              		.loc 1 281 0
 495 002c 0520     		movs	r0, #5
 496              	.LVL42:
 497              	.LBB180:
 498              	.LBB179:
 499              		.loc 2 667 0
 500 002e 2260     		str	r2, [r4]
 501              		.loc 2 668 0
 502 0030 5A60     		str	r2, [r3, #4]
 503              	.LVL43:
 504              	.LBE179:
 505              	.LBE180:
 506              		.loc 1 281 0
 507 0032 FFF7FEFF 		bl	chSchGoSleepTimeoutS
 508              	.LVL44:
 509              	.L28:
 510              	.LBE176:
 511              	.LBE175:
 512              	.LBE181:
 513              	.LBE192:
ARM GAS  C:\Users\IDONNO~1.SON\AppData\Local\Temp\ccW0NqxC.s 			page 10


 514              	.LBB193:
 515              	.LBB191:
 516              	.LBB190:
 517              	.LBB189:
 518              	.LBB188:
 519              		.loc 3 546 0
 520 0036 0023     		movs	r3, #0
 521              		.syntax unified
 522              	@ 546 "lib/ChibiOS_3.0.2/os/ext/CMSIS/include/core_cmFunc.h" 1
 523 0038 83F31188 		MSR basepri, r3
 524              	@ 0 "" 2
 525              	.LVL45:
 526              		.thumb
 527              		.syntax unified
 528              	.LBE188:
 529              	.LBE189:
 530              	.LBE190:
 531              	.LBE191:
 532              	.LBE193:
 533              		.loc 1 243 0
 534 003c 10BD     		pop	{r4, pc}
 535              	.LVL46:
 536              	.L34:
 537              	.LBB194:
 538              	.LBB182:
 539              		.loc 1 274 0
 540 003e 8260     		str	r2, [r0, #8]
 541              		.loc 1 276 0
 542 0040 4FF0FF30 		mov	r0, #-1
 543              	.LVL47:
 544 0044 F7E7     		b	.L28
 545              	.L36:
 546 0046 00BF     		.align	2
 547              	.L35:
 548 0048 00000000 		.word	ch
 549              	.LBE182:
 550              	.LBE194:
 551              		.cfi_endproc
 552              	.LFE224:
 553              		.size	chSemWaitTimeout, .-chSemWaitTimeout
 554              		.section	.text.chSemWaitTimeoutS,"ax",%progbits
 555              		.align	2
 556              		.p2align 4,,15
 557              		.global	chSemWaitTimeoutS
 558              		.thumb
 559              		.thumb_func
 560              		.type	chSemWaitTimeoutS, %function
 561              	chSemWaitTimeoutS:
 562              	.LFB225:
 563              		.loc 1 264 0
 564              		.cfi_startproc
 565              		@ args = 0, pretend = 0, frame = 0
 566              		@ frame_needed = 0, uses_anonymous_args = 0
 567              		@ link register save eliminated.
 568              	.LVL48:
 569 0000 0346     		mov	r3, r0
 570              		.loc 1 272 0
ARM GAS  C:\Users\IDONNO~1.SON\AppData\Local\Temp\ccW0NqxC.s 			page 11


 571 0002 8068     		ldr	r0, [r0, #8]
 572              	.LVL49:
 573 0004 421E     		subs	r2, r0, #1
 574 0006 002A     		cmp	r2, #0
 575 0008 9A60     		str	r2, [r3, #8]
 576 000a 01DB     		blt	.L43
 577              		.loc 1 284 0
 578 000c 0020     		movs	r0, #0
 579 000e 7047     		bx	lr
 580              	.L43:
 581              		.loc 1 264 0
 582 0010 10B4     		push	{r4}
 583              		.cfi_def_cfa_offset 4
 584              		.cfi_offset 4, -4
 585              		.loc 1 273 0
 586 0012 61B1     		cbz	r1, .L44
 587              	.LVL50:
 588              	.LBB199:
 589              	.LBB200:
 590              		.loc 1 278 0
 591 0014 094A     		ldr	r2, .L45
 592 0016 9269     		ldr	r2, [r2, #24]
 593 0018 5362     		str	r3, [r2, #36]
 594              	.LVL51:
 595              	.LBB201:
 596              	.LBB202:
 597              		.loc 2 666 0
 598 001a 5C68     		ldr	r4, [r3, #4]
 599              	.LBE202:
 600              	.LBE201:
 601              		.loc 1 281 0
 602 001c 0520     		movs	r0, #5
 603              	.LBB204:
 604              	.LBB203:
 605              		.loc 2 666 0
 606 001e 82E81800 		stmia	r2, {r3, r4}
 607              		.loc 2 667 0
 608 0022 2260     		str	r2, [r4]
 609              		.loc 2 668 0
 610 0024 5A60     		str	r2, [r3, #4]
 611              	.LVL52:
 612              	.LBE203:
 613              	.LBE204:
 614              	.LBE200:
 615              	.LBE199:
 616              		.loc 1 285 0
 617 0026 5DF8044B 		ldr	r4, [sp], #4
 618              		.cfi_remember_state
 619              		.cfi_restore 4
 620              		.cfi_def_cfa_offset 0
 621              	.LBB206:
 622              	.LBB205:
 623              		.loc 1 281 0
 624 002a FFF7FEBF 		b	chSchGoSleepTimeoutS
 625              	.LVL53:
 626              	.L44:
 627              		.cfi_restore_state
ARM GAS  C:\Users\IDONNO~1.SON\AppData\Local\Temp\ccW0NqxC.s 			page 12


 628              	.LBE205:
 629              	.LBE206:
 630              		.loc 1 274 0
 631 002e 9860     		str	r0, [r3, #8]
 632              		.loc 1 285 0
 633 0030 5DF8044B 		ldr	r4, [sp], #4
 634              		.cfi_restore 4
 635              		.cfi_def_cfa_offset 0
 636              		.loc 1 276 0
 637 0034 4FF0FF30 		mov	r0, #-1
 638              		.loc 1 285 0
 639 0038 7047     		bx	lr
 640              	.L46:
 641 003a 00BF     		.align	2
 642              	.L45:
 643 003c 00000000 		.word	ch
 644              		.cfi_endproc
 645              	.LFE225:
 646              		.size	chSemWaitTimeoutS, .-chSemWaitTimeoutS
 647              		.section	.text.chSemSignal,"ax",%progbits
 648              		.align	2
 649              		.p2align 4,,15
 650              		.global	chSemSignal
 651              		.thumb
 652              		.thumb_func
 653              		.type	chSemSignal, %function
 654              	chSemSignal:
 655              	.LFB226:
 656              		.loc 1 294 0
 657              		.cfi_startproc
 658              		@ args = 0, pretend = 0, frame = 0
 659              		@ frame_needed = 0, uses_anonymous_args = 0
 660              	.LVL54:
 661 0000 08B5     		push	{r3, lr}
 662              		.cfi_def_cfa_offset 8
 663              		.cfi_offset 3, -8
 664              		.cfi_offset 14, -4
 665              	.LBB207:
 666              	.LBB208:
 667              	.LBB209:
 668              	.LBB210:
 669              		.loc 3 546 0
 670 0002 2023     		movs	r3, #32
 671              		.syntax unified
 672              	@ 546 "lib/ChibiOS_3.0.2/os/ext/CMSIS/include/core_cmFunc.h" 1
 673 0004 83F31188 		MSR basepri, r3
 674              	@ 0 "" 2
 675              	.LVL55:
 676              		.thumb
 677              		.syntax unified
 678              	.LBE210:
 679              	.LBE209:
 680              	.LBE208:
 681              	.LBE207:
 682              		.loc 1 302 0
 683 0008 8368     		ldr	r3, [r0, #8]
 684 000a 0133     		adds	r3, r3, #1
ARM GAS  C:\Users\IDONNO~1.SON\AppData\Local\Temp\ccW0NqxC.s 			page 13


 685 000c 002B     		cmp	r3, #0
 686 000e 8360     		str	r3, [r0, #8]
 687 0010 03DD     		ble	.L50
 688              	.LVL56:
 689              	.LBB211:
 690              	.LBB212:
 691              	.LBB213:
 692              	.LBB214:
 693              	.LBB215:
 694              		.loc 3 546 0
 695 0012 0023     		movs	r3, #0
 696              		.syntax unified
 697              	@ 546 "lib/ChibiOS_3.0.2/os/ext/CMSIS/include/core_cmFunc.h" 1
 698 0014 83F31188 		MSR basepri, r3
 699              	@ 0 "" 2
 700              	.LVL57:
 701              		.thumb
 702              		.syntax unified
 703 0018 08BD     		pop	{r3, pc}
 704              	.L50:
 705 001a 0346     		mov	r3, r0
 706              	.LVL58:
 707              	.LBE215:
 708              	.LBE214:
 709              	.LBE213:
 710              	.LBE212:
 711              	.LBE211:
 712              	.LBB220:
 713              	.LBB221:
 714              		.loc 2 672 0
 715 001c 0068     		ldr	r0, [r0]
 716              	.LVL59:
 717              		.loc 2 674 0
 718 001e 0268     		ldr	r2, [r0]
 719 0020 1A60     		str	r2, [r3]
 720              	.LBE221:
 721              	.LBE220:
 722              		.loc 1 303 0
 723 0022 0021     		movs	r1, #0
 724              	.LBB223:
 725              	.LBB222:
 726              		.loc 2 675 0
 727 0024 5360     		str	r3, [r2, #4]
 728              	.LVL60:
 729              	.LBE222:
 730              	.LBE223:
 731              		.loc 1 303 0
 732 0026 FFF7FEFF 		bl	chSchWakeupS
 733              	.LVL61:
 734              	.LBB224:
 735              	.LBB219:
 736              	.LBB218:
 737              	.LBB217:
 738              	.LBB216:
 739              		.loc 3 546 0
 740 002a 0023     		movs	r3, #0
 741              		.syntax unified
ARM GAS  C:\Users\IDONNO~1.SON\AppData\Local\Temp\ccW0NqxC.s 			page 14


 742              	@ 546 "lib/ChibiOS_3.0.2/os/ext/CMSIS/include/core_cmFunc.h" 1
 743 002c 83F31188 		MSR basepri, r3
 744              	@ 0 "" 2
 745              	.LVL62:
 746              		.thumb
 747              		.syntax unified
 748 0030 08BD     		pop	{r3, pc}
 749              	.LBE216:
 750              	.LBE217:
 751              	.LBE218:
 752              	.LBE219:
 753              	.LBE224:
 754              		.cfi_endproc
 755              	.LFE226:
 756              		.size	chSemSignal, .-chSemSignal
 757 0032 00BF     		.section	.text.chSemSignalI,"ax",%progbits
 758              		.align	2
 759              		.p2align 4,,15
 760              		.global	chSemSignalI
 761              		.thumb
 762              		.thumb_func
 763              		.type	chSemSignalI, %function
 764              	chSemSignalI:
 765              	.LFB227:
 766              		.loc 1 319 0
 767              		.cfi_startproc
 768              		@ args = 0, pretend = 0, frame = 0
 769              		@ frame_needed = 0, uses_anonymous_args = 0
 770              		@ link register save eliminated.
 771              	.LVL63:
 772              		.loc 1 327 0
 773 0000 8368     		ldr	r3, [r0, #8]
 774 0002 0133     		adds	r3, r3, #1
 775 0004 002B     		cmp	r3, #0
 776 0006 8360     		str	r3, [r0, #8]
 777 0008 00DD     		ble	.L53
 778 000a 7047     		bx	lr
 779              	.L53:
 780              	.LVL64:
 781              	.LBB225:
 782              	.LBB226:
 783              	.LBB227:
 784              		.loc 2 672 0
 785 000c 0368     		ldr	r3, [r0]
 786              	.LVL65:
 787              		.loc 2 674 0
 788 000e 1A68     		ldr	r2, [r3]
 789 0010 0260     		str	r2, [r0]
 790              	.LBE227:
 791              	.LBE226:
 792              		.loc 1 331 0
 793 0012 0021     		movs	r1, #0
 794              	.LBB229:
 795              	.LBB228:
 796              		.loc 2 675 0
 797 0014 5060     		str	r0, [r2, #4]
 798              	.LVL66:
ARM GAS  C:\Users\IDONNO~1.SON\AppData\Local\Temp\ccW0NqxC.s 			page 15


 799              	.LBE228:
 800              	.LBE229:
 801              		.loc 1 332 0
 802 0016 1846     		mov	r0, r3
 803              	.LVL67:
 804              		.loc 1 331 0
 805 0018 5962     		str	r1, [r3, #36]
 806              	.LVL68:
 807              		.loc 1 332 0
 808 001a FFF7FEBF 		b	chSchReadyI
 809              	.LVL69:
 810              	.LBE225:
 811              		.cfi_endproc
 812              	.LFE227:
 813              		.size	chSemSignalI, .-chSemSignalI
 814 001e 00BF     		.section	.text.chSemAddCounterI,"ax",%progbits
 815              		.align	2
 816              		.p2align 4,,15
 817              		.global	chSemAddCounterI
 818              		.thumb
 819              		.thumb_func
 820              		.type	chSemAddCounterI, %function
 821              	chSemAddCounterI:
 822              	.LFB228:
 823              		.loc 1 349 0
 824              		.cfi_startproc
 825              		@ args = 0, pretend = 0, frame = 0
 826              		@ frame_needed = 0, uses_anonymous_args = 0
 827              	.LVL70:
 828 0000 70B5     		push	{r4, r5, r6, lr}
 829              		.cfi_def_cfa_offset 16
 830              		.cfi_offset 4, -16
 831              		.cfi_offset 5, -12
 832              		.cfi_offset 6, -8
 833              		.cfi_offset 14, -4
 834              		.loc 1 357 0
 835 0002 0C1E     		subs	r4, r1, #0
 836 0004 12DD     		ble	.L54
 837 0006 0546     		mov	r5, r0
 838              		.loc 1 359 0
 839 0008 0026     		movs	r6, #0
 840 000a 01E0     		b	.L57
 841              	.LVL71:
 842              	.L56:
 843              		.loc 1 357 0
 844 000c 013C     		subs	r4, r4, #1
 845              	.LVL72:
 846 000e 0DD0     		beq	.L54
 847              	.LVL73:
 848              	.L57:
 849              		.loc 1 358 0
 850 0010 AB68     		ldr	r3, [r5, #8]
 851 0012 0133     		adds	r3, r3, #1
 852 0014 002B     		cmp	r3, #0
 853 0016 AB60     		str	r3, [r5, #8]
 854 0018 F8DC     		bgt	.L56
 855              	.LVL74:
ARM GAS  C:\Users\IDONNO~1.SON\AppData\Local\Temp\ccW0NqxC.s 			page 16


 856              	.LBB230:
 857              	.LBB231:
 858              		.loc 2 672 0
 859 001a 2868     		ldr	r0, [r5]
 860              	.LVL75:
 861              		.loc 2 674 0
 862 001c 0368     		ldr	r3, [r0]
 863 001e 2B60     		str	r3, [r5]
 864              		.loc 2 675 0
 865 0020 5D60     		str	r5, [r3, #4]
 866              	.LVL76:
 867              	.LBE231:
 868              	.LBE230:
 869              		.loc 1 359 0
 870 0022 FFF7FEFF 		bl	chSchReadyI
 871              	.LVL77:
 872              		.loc 1 357 0
 873 0026 013C     		subs	r4, r4, #1
 874              	.LVL78:
 875              		.loc 1 359 0
 876 0028 4662     		str	r6, [r0, #36]
 877              	.LVL79:
 878              		.loc 1 357 0
 879 002a F1D1     		bne	.L57
 880              	.LVL80:
 881              	.L54:
 882 002c 70BD     		pop	{r4, r5, r6, pc}
 883              		.cfi_endproc
 884              	.LFE228:
 885              		.size	chSemAddCounterI, .-chSemAddCounterI
 886 002e 00BF     		.section	.text.chSemSignalWait,"ax",%progbits
 887              		.align	2
 888              		.p2align 4,,15
 889              		.global	chSemSignalWait
 890              		.thumb
 891              		.thumb_func
 892              		.type	chSemSignalWait, %function
 893              	chSemSignalWait:
 894              	.LFB229:
 895              		.loc 1 378 0
 896              		.cfi_startproc
 897              		@ args = 0, pretend = 0, frame = 8
 898              		@ frame_needed = 0, uses_anonymous_args = 0
 899              	.LVL81:
 900 0000 10B5     		push	{r4, lr}
 901              		.cfi_def_cfa_offset 8
 902              		.cfi_offset 4, -8
 903              		.cfi_offset 14, -4
 904              	.LBB232:
 905              	.LBB233:
 906              	.LBB234:
 907              	.LBB235:
 908              		.loc 3 546 0
 909 0002 2023     		movs	r3, #32
 910              	.LBE235:
 911              	.LBE234:
 912              	.LBE233:
ARM GAS  C:\Users\IDONNO~1.SON\AppData\Local\Temp\ccW0NqxC.s 			page 17


 913              	.LBE232:
 914              		.loc 1 378 0
 915 0004 82B0     		sub	sp, sp, #8
 916              		.cfi_def_cfa_offset 16
 917              	.LBB239:
 918              	.LBB238:
 919              	.LBB237:
 920              	.LBB236:
 921              		.loc 3 546 0
 922              		.syntax unified
 923              	@ 546 "lib/ChibiOS_3.0.2/os/ext/CMSIS/include/core_cmFunc.h" 1
 924 0006 83F31188 		MSR basepri, r3
 925              	@ 0 "" 2
 926              	.LVL82:
 927              		.thumb
 928              		.syntax unified
 929              	.LBE236:
 930              	.LBE237:
 931              	.LBE238:
 932              	.LBE239:
 933              		.loc 1 390 0
 934 000a 8368     		ldr	r3, [r0, #8]
 935 000c 0133     		adds	r3, r3, #1
 936 000e 002B     		cmp	r3, #0
 937 0010 8360     		str	r3, [r0, #8]
 938 0012 1DDD     		ble	.L66
 939              	.LVL83:
 940              	.L62:
 941              		.loc 1 393 0
 942 0014 8B68     		ldr	r3, [r1, #8]
 943 0016 013B     		subs	r3, r3, #1
 944 0018 002B     		cmp	r3, #0
 945 001a 8B60     		str	r3, [r1, #8]
 946 001c 07DB     		blt	.L67
 947              		.loc 1 401 0
 948 001e FFF7FEFF 		bl	chSchRescheduleS
 949              	.LVL84:
 950              		.loc 1 402 0
 951 0022 0020     		movs	r0, #0
 952              	.LVL85:
 953              	.LBB240:
 954              	.LBB241:
 955              	.LBB242:
 956              	.LBB243:
 957              	.LBB244:
 958              		.loc 3 546 0
 959 0024 0023     		movs	r3, #0
 960              		.syntax unified
 961              	@ 546 "lib/ChibiOS_3.0.2/os/ext/CMSIS/include/core_cmFunc.h" 1
 962 0026 83F31188 		MSR basepri, r3
 963              	@ 0 "" 2
 964              	.LVL86:
 965              		.thumb
 966              		.syntax unified
 967              	.LBE244:
 968              	.LBE243:
 969              	.LBE242:
ARM GAS  C:\Users\IDONNO~1.SON\AppData\Local\Temp\ccW0NqxC.s 			page 18


 970              	.LBE241:
 971              	.LBE240:
 972              		.loc 1 407 0
 973 002a 02B0     		add	sp, sp, #8
 974              		.cfi_remember_state
 975              		.cfi_def_cfa_offset 8
 976              		@ sp needed
 977 002c 10BD     		pop	{r4, pc}
 978              	.LVL87:
 979              	.L67:
 980              		.cfi_restore_state
 981              	.LBB249:
 982              		.loc 1 394 0
 983 002e 0E4A     		ldr	r2, .L68
 984              	.LBB250:
 985              	.LBB251:
 986              		.loc 2 666 0
 987 0030 4B68     		ldr	r3, [r1, #4]
 988              	.LBE251:
 989              	.LBE250:
 990              		.loc 1 394 0
 991 0032 9469     		ldr	r4, [r2, #24]
 992              	.LVL88:
 993              		.loc 1 397 0
 994 0034 0520     		movs	r0, #5
 995              	.LBB253:
 996              	.LBB252:
 997              		.loc 2 666 0
 998 0036 84E80A00 		stmia	r4, {r1, r3}
 999              		.loc 2 667 0
 1000 003a 1C60     		str	r4, [r3]
 1001              		.loc 2 668 0
 1002 003c 4C60     		str	r4, [r1, #4]
 1003              	.LVL89:
 1004              	.LBE252:
 1005              	.LBE253:
 1006              		.loc 1 396 0
 1007 003e 6162     		str	r1, [r4, #36]
 1008              		.loc 1 397 0
 1009 0040 FFF7FEFF 		bl	chSchGoSleepS
 1010              	.LVL90:
 1011              		.loc 1 398 0
 1012 0044 606A     		ldr	r0, [r4, #36]
 1013              	.LVL91:
 1014              	.LBE249:
 1015              	.LBB254:
 1016              	.LBB248:
 1017              	.LBB247:
 1018              	.LBB246:
 1019              	.LBB245:
 1020              		.loc 3 546 0
 1021 0046 0023     		movs	r3, #0
 1022              		.syntax unified
 1023              	@ 546 "lib/ChibiOS_3.0.2/os/ext/CMSIS/include/core_cmFunc.h" 1
 1024 0048 83F31188 		MSR basepri, r3
 1025              	@ 0 "" 2
 1026              	.LVL92:
ARM GAS  C:\Users\IDONNO~1.SON\AppData\Local\Temp\ccW0NqxC.s 			page 19


 1027              		.thumb
 1028              		.syntax unified
 1029              	.LBE245:
 1030              	.LBE246:
 1031              	.LBE247:
 1032              	.LBE248:
 1033              	.LBE254:
 1034              		.loc 1 407 0
 1035 004c 02B0     		add	sp, sp, #8
 1036              		.cfi_remember_state
 1037              		.cfi_def_cfa_offset 8
 1038              		@ sp needed
 1039 004e 10BD     		pop	{r4, pc}
 1040              	.LVL93:
 1041              	.L66:
 1042              		.cfi_restore_state
 1043 0050 0246     		mov	r2, r0
 1044              	.LBB255:
 1045              	.LBB256:
 1046              		.loc 2 672 0
 1047 0052 0068     		ldr	r0, [r0]
 1048              	.LVL94:
 1049 0054 0191     		str	r1, [sp, #4]
 1050              	.LVL95:
 1051              		.loc 2 674 0
 1052 0056 0368     		ldr	r3, [r0]
 1053 0058 1360     		str	r3, [r2]
 1054              		.loc 2 675 0
 1055 005a 5A60     		str	r2, [r3, #4]
 1056              	.LVL96:
 1057              	.LBE256:
 1058              	.LBE255:
 1059              		.loc 1 391 0
 1060 005c FFF7FEFF 		bl	chSchReadyI
 1061              	.LVL97:
 1062 0060 0023     		movs	r3, #0
 1063 0062 4362     		str	r3, [r0, #36]
 1064 0064 0199     		ldr	r1, [sp, #4]
 1065 0066 D5E7     		b	.L62
 1066              	.L69:
 1067              		.align	2
 1068              	.L68:
 1069 0068 00000000 		.word	ch
 1070              		.cfi_endproc
 1071              	.LFE229:
 1072              		.size	chSemSignalWait, .-chSemSignalWait
 1073              		.text
 1074              	.Letext0:
 1075              		.file 4 "c:\\program files (x86)\\gnu tools arm embedded\\5.4 2016q2\\arm-none-eabi\\include\\mach
 1076              		.file 5 "c:\\program files (x86)\\gnu tools arm embedded\\5.4 2016q2\\arm-none-eabi\\include\\sys\
 1077              		.file 6 "lib/ChibiOS_3.0.2/os/rt/ports/ARMCMx/compilers/GCC/chtypes.h"
 1078              		.file 7 "lib/ChibiOS_3.0.2/os/rt/include/chsystypes.h"
 1079              		.file 8 "lib/ChibiOS_3.0.2/os/rt/ports/ARMCMx/chcore.h"
 1080              		.file 9 "lib/ChibiOS_3.0.2/os/rt/ports/ARMCMx/chcore_v7m.h"
 1081              		.file 10 "lib/ChibiOS_3.0.2/os/rt/include/chtm.h"
 1082              		.file 11 "lib/ChibiOS_3.0.2/os/rt/include/chsem.h"
 1083              		.file 12 "lib/ChibiOS_3.0.2/os/rt/include/chmtx.h"
ARM GAS  C:\Users\IDONNO~1.SON\AppData\Local\Temp\ccW0NqxC.s 			page 20


 1084              		.file 13 "lib/ChibiOS_3.0.2/os/rt/include/chsys.h"
 1085              		.file 14 "lib/ChibiOS_3.0.2/os/ext/CMSIS/include/core_cm4.h"
 1086              		.section	.debug_info,"",%progbits
 1087              	.Ldebug_info0:
 1088 0000 D0110000 		.4byte	0x11d0
 1089 0004 0400     		.2byte	0x4
 1090 0006 00000000 		.4byte	.Ldebug_abbrev0
 1091 000a 04       		.byte	0x4
 1092 000b 01       		.uleb128 0x1
 1093 000c 62000000 		.4byte	.LASF134
 1094 0010 0C       		.byte	0xc
 1095 0011 00040000 		.4byte	.LASF135
 1096 0015 AD010000 		.4byte	.LASF136
 1097 0019 70010000 		.4byte	.Ldebug_ranges0+0x170
 1098 001d 00000000 		.4byte	0
 1099 0021 00000000 		.4byte	.Ldebug_line0
 1100 0025 02       		.uleb128 0x2
 1101 0026 04       		.byte	0x4
 1102 0027 05       		.byte	0x5
 1103 0028 696E7400 		.ascii	"int\000"
 1104 002c 03       		.uleb128 0x3
 1105 002d 04       		.byte	0x4
 1106 002e 07       		.byte	0x7
 1107 002f 1E030000 		.4byte	.LASF0
 1108 0033 03       		.uleb128 0x3
 1109 0034 01       		.byte	0x1
 1110 0035 06       		.byte	0x6
 1111 0036 35020000 		.4byte	.LASF1
 1112 003a 04       		.uleb128 0x4
 1113 003b 3D000000 		.4byte	.LASF5
 1114 003f 04       		.byte	0x4
 1115 0040 1D       		.byte	0x1d
 1116 0041 45000000 		.4byte	0x45
 1117 0045 03       		.uleb128 0x3
 1118 0046 01       		.byte	0x1
 1119 0047 08       		.byte	0x8
 1120 0048 01050000 		.4byte	.LASF2
 1121 004c 03       		.uleb128 0x3
 1122 004d 02       		.byte	0x2
 1123 004e 05       		.byte	0x5
 1124 004f 19050000 		.4byte	.LASF3
 1125 0053 03       		.uleb128 0x3
 1126 0054 02       		.byte	0x2
 1127 0055 07       		.byte	0x7
 1128 0056 77030000 		.4byte	.LASF4
 1129 005a 04       		.uleb128 0x4
 1130 005b D5030000 		.4byte	.LASF6
 1131 005f 04       		.byte	0x4
 1132 0060 3F       		.byte	0x3f
 1133 0061 65000000 		.4byte	0x65
 1134 0065 03       		.uleb128 0x3
 1135 0066 04       		.byte	0x4
 1136 0067 05       		.byte	0x5
 1137 0068 9F020000 		.4byte	.LASF7
 1138 006c 04       		.uleb128 0x4
 1139 006d 3F060000 		.4byte	.LASF8
 1140 0071 04       		.byte	0x4
ARM GAS  C:\Users\IDONNO~1.SON\AppData\Local\Temp\ccW0NqxC.s 			page 21


 1141 0072 41       		.byte	0x41
 1142 0073 77000000 		.4byte	0x77
 1143 0077 03       		.uleb128 0x3
 1144 0078 04       		.byte	0x4
 1145 0079 07       		.byte	0x7
 1146 007a DD050000 		.4byte	.LASF9
 1147 007e 03       		.uleb128 0x3
 1148 007f 08       		.byte	0x8
 1149 0080 05       		.byte	0x5
 1150 0081 27020000 		.4byte	.LASF10
 1151 0085 04       		.uleb128 0x4
 1152 0086 B7040000 		.4byte	.LASF11
 1153 008a 04       		.byte	0x4
 1154 008b 5B       		.byte	0x5b
 1155 008c 90000000 		.4byte	0x90
 1156 0090 03       		.uleb128 0x3
 1157 0091 08       		.byte	0x8
 1158 0092 07       		.byte	0x7
 1159 0093 59020000 		.4byte	.LASF12
 1160 0097 04       		.uleb128 0x4
 1161 0098 BC060000 		.4byte	.LASF13
 1162 009c 05       		.byte	0x5
 1163 009d 18       		.byte	0x18
 1164 009e 3A000000 		.4byte	0x3a
 1165 00a2 04       		.uleb128 0x4
 1166 00a3 F9040000 		.4byte	.LASF14
 1167 00a7 05       		.byte	0x5
 1168 00a8 2C       		.byte	0x2c
 1169 00a9 5A000000 		.4byte	0x5a
 1170 00ad 04       		.uleb128 0x4
 1171 00ae A9050000 		.4byte	.LASF15
 1172 00b2 05       		.byte	0x5
 1173 00b3 30       		.byte	0x30
 1174 00b4 6C000000 		.4byte	0x6c
 1175 00b8 04       		.uleb128 0x4
 1176 00b9 34000000 		.4byte	.LASF16
 1177 00bd 05       		.byte	0x5
 1178 00be 3C       		.byte	0x3c
 1179 00bf 85000000 		.4byte	0x85
 1180 00c3 05       		.uleb128 0x5
 1181 00c4 A2000000 		.4byte	0xa2
 1182 00c8 04       		.uleb128 0x4
 1183 00c9 7B060000 		.4byte	.LASF17
 1184 00cd 06       		.byte	0x6
 1185 00ce 45       		.byte	0x45
 1186 00cf AD000000 		.4byte	0xad
 1187 00d3 04       		.uleb128 0x4
 1188 00d4 B3030000 		.4byte	.LASF18
 1189 00d8 06       		.byte	0x6
 1190 00d9 48       		.byte	0x48
 1191 00da 97000000 		.4byte	0x97
 1192 00de 04       		.uleb128 0x4
 1193 00df A8020000 		.4byte	.LASF19
 1194 00e3 06       		.byte	0x6
 1195 00e4 49       		.byte	0x49
 1196 00e5 97000000 		.4byte	0x97
 1197 00e9 04       		.uleb128 0x4
ARM GAS  C:\Users\IDONNO~1.SON\AppData\Local\Temp\ccW0NqxC.s 			page 22


 1198 00ea C2040000 		.4byte	.LASF20
 1199 00ee 06       		.byte	0x6
 1200 00ef 4A       		.byte	0x4a
 1201 00f0 97000000 		.4byte	0x97
 1202 00f4 04       		.uleb128 0x4
 1203 00f5 8B020000 		.4byte	.LASF21
 1204 00f9 06       		.byte	0x6
 1205 00fa 4B       		.byte	0x4b
 1206 00fb 97000000 		.4byte	0x97
 1207 00ff 04       		.uleb128 0x4
 1208 0100 E1040000 		.4byte	.LASF22
 1209 0104 06       		.byte	0x6
 1210 0105 4C       		.byte	0x4c
 1211 0106 AD000000 		.4byte	0xad
 1212 010a 04       		.uleb128 0x4
 1213 010b A1030000 		.4byte	.LASF23
 1214 010f 06       		.byte	0x6
 1215 0110 4D       		.byte	0x4d
 1216 0111 A2000000 		.4byte	0xa2
 1217 0115 04       		.uleb128 0x4
 1218 0116 C9030000 		.4byte	.LASF24
 1219 011a 06       		.byte	0x6
 1220 011b 4F       		.byte	0x4f
 1221 011c AD000000 		.4byte	0xad
 1222 0120 04       		.uleb128 0x4
 1223 0121 18030000 		.4byte	.LASF25
 1224 0125 06       		.byte	0x6
 1225 0126 51       		.byte	0x51
 1226 0127 A2000000 		.4byte	0xa2
 1227 012b 04       		.uleb128 0x4
 1228 012c 21060000 		.4byte	.LASF26
 1229 0130 07       		.byte	0x7
 1230 0131 33       		.byte	0x33
 1231 0132 AD000000 		.4byte	0xad
 1232 0136 04       		.uleb128 0x4
 1233 0137 06060000 		.4byte	.LASF27
 1234 013b 07       		.byte	0x7
 1235 013c 3F       		.byte	0x3f
 1236 013d 41010000 		.4byte	0x141
 1237 0141 06       		.uleb128 0x6
 1238 0142 8A030000 		.4byte	.LASF49
 1239 0146 48       		.byte	0x48
 1240 0147 02       		.byte	0x2
 1241 0148 C2       		.byte	0xc2
 1242 0149 46020000 		.4byte	0x246
 1243 014d 07       		.uleb128 0x7
 1244 014e 43050000 		.4byte	.LASF28
 1245 0152 02       		.byte	0x2
 1246 0153 C3       		.byte	0xc3
 1247 0154 51020000 		.4byte	0x251
 1248 0158 00       		.byte	0
 1249 0159 07       		.uleb128 0x7
 1250 015a DA040000 		.4byte	.LASF29
 1251 015e 02       		.byte	0x2
 1252 015f C5       		.byte	0xc5
 1253 0160 51020000 		.4byte	0x251
 1254 0164 04       		.byte	0x4
ARM GAS  C:\Users\IDONNO~1.SON\AppData\Local\Temp\ccW0NqxC.s 			page 23


 1255 0165 07       		.uleb128 0x7
 1256 0166 20020000 		.4byte	.LASF30
 1257 016a 02       		.byte	0x2
 1258 016b C7       		.byte	0xc7
 1259 016c FF000000 		.4byte	0xff
 1260 0170 08       		.byte	0x8
 1261 0171 07       		.uleb128 0x7
 1262 0172 0C070000 		.4byte	.LASF31
 1263 0176 02       		.byte	0x2
 1264 0177 C8       		.byte	0xc8
 1265 0178 81040000 		.4byte	0x481
 1266 017c 0C       		.byte	0xc
 1267 017d 07       		.uleb128 0x7
 1268 017e B1020000 		.4byte	.LASF32
 1269 0182 02       		.byte	0x2
 1270 0183 CA       		.byte	0xca
 1271 0184 51020000 		.4byte	0x251
 1272 0188 10       		.byte	0x10
 1273 0189 07       		.uleb128 0x7
 1274 018a 7A040000 		.4byte	.LASF33
 1275 018e 02       		.byte	0x2
 1276 018f CB       		.byte	0xcb
 1277 0190 51020000 		.4byte	0x251
 1278 0194 14       		.byte	0x14
 1279 0195 07       		.uleb128 0x7
 1280 0196 CB060000 		.4byte	.LASF34
 1281 019a 02       		.byte	0x2
 1282 019b D2       		.byte	0xd2
 1283 019c C6060000 		.4byte	0x6c6
 1284 01a0 18       		.byte	0x18
 1285 01a1 07       		.uleb128 0x7
 1286 01a2 23050000 		.4byte	.LASF35
 1287 01a6 02       		.byte	0x2
 1288 01a7 DD       		.byte	0xdd
 1289 01a8 DE000000 		.4byte	0xde
 1290 01ac 1C       		.byte	0x1c
 1291 01ad 07       		.uleb128 0x7
 1292 01ae 4A050000 		.4byte	.LASF36
 1293 01b2 02       		.byte	0x2
 1294 01b3 E1       		.byte	0xe1
 1295 01b4 D3000000 		.4byte	0xd3
 1296 01b8 1D       		.byte	0x1d
 1297 01b9 07       		.uleb128 0x7
 1298 01ba A3060000 		.4byte	.LASF37
 1299 01be 02       		.byte	0x2
 1300 01bf E6       		.byte	0xe6
 1301 01c0 E9000000 		.4byte	0xe9
 1302 01c4 1E       		.byte	0x1e
 1303 01c5 07       		.uleb128 0x7
 1304 01c6 2B050000 		.4byte	.LASF38
 1305 01ca 02       		.byte	0x2
 1306 01cb EC       		.byte	0xec
 1307 01cc F4000000 		.4byte	0xf4
 1308 01d0 1F       		.byte	0x1f
 1309 01d1 07       		.uleb128 0x7
 1310 01d2 44030000 		.4byte	.LASF39
 1311 01d6 02       		.byte	0x2
ARM GAS  C:\Users\IDONNO~1.SON\AppData\Local\Temp\ccW0NqxC.s 			page 24


 1312 01d7 F3       		.byte	0xf3
 1313 01d8 D8060000 		.4byte	0x6d8
 1314 01dc 20       		.byte	0x20
 1315 01dd 08       		.uleb128 0x8
 1316 01de 705F7500 		.ascii	"p_u\000"
 1317 01e2 02       		.byte	0x2
 1318 01e3 3101     		.2byte	0x131
 1319 01e5 01060000 		.4byte	0x601
 1320 01e9 24       		.byte	0x24
 1321 01ea 09       		.uleb128 0x9
 1322 01eb 33040000 		.4byte	.LASF40
 1323 01ef 02       		.byte	0x2
 1324 01f0 3601     		.2byte	0x136
 1325 01f2 57020000 		.4byte	0x257
 1326 01f6 28       		.byte	0x28
 1327 01f7 09       		.uleb128 0x9
 1328 01f8 5B030000 		.4byte	.LASF41
 1329 01fc 02       		.byte	0x2
 1330 01fd 3C01     		.2byte	0x13c
 1331 01ff 7B020000 		.4byte	0x27b
 1332 0203 2C       		.byte	0x2c
 1333 0204 09       		.uleb128 0x9
 1334 0205 FE060000 		.4byte	.LASF42
 1335 0209 02       		.byte	0x2
 1336 020a 4001     		.2byte	0x140
 1337 020c 0A010000 		.4byte	0x10a
 1338 0210 34       		.byte	0x34
 1339 0211 09       		.uleb128 0x9
 1340 0212 9E050000 		.4byte	.LASF43
 1341 0216 02       		.byte	0x2
 1342 0217 4601     		.2byte	0x146
 1343 0219 15010000 		.4byte	0x115
 1344 021d 38       		.byte	0x38
 1345 021e 09       		.uleb128 0x9
 1346 021f 0F050000 		.4byte	.LASF44
 1347 0223 02       		.byte	0x2
 1348 0224 4D01     		.2byte	0x14d
 1349 0226 C0060000 		.4byte	0x6c0
 1350 022a 3C       		.byte	0x3c
 1351 022b 09       		.uleb128 0x9
 1352 022c 2B060000 		.4byte	.LASF45
 1353 0230 02       		.byte	0x2
 1354 0231 5101     		.2byte	0x151
 1355 0233 FF000000 		.4byte	0xff
 1356 0237 40       		.byte	0x40
 1357 0238 09       		.uleb128 0x9
 1358 0239 51020000 		.4byte	.LASF46
 1359 023d 02       		.byte	0x2
 1360 023e 5801     		.2byte	0x158
 1361 0240 2E030000 		.4byte	0x32e
 1362 0244 44       		.byte	0x44
 1363 0245 00       		.byte	0
 1364 0246 04       		.uleb128 0x4
 1365 0247 46040000 		.4byte	.LASF47
 1366 024b 07       		.byte	0x7
 1367 024c 44       		.byte	0x44
 1368 024d 51020000 		.4byte	0x251
ARM GAS  C:\Users\IDONNO~1.SON\AppData\Local\Temp\ccW0NqxC.s 			page 25


 1369 0251 0A       		.uleb128 0xa
 1370 0252 04       		.byte	0x4
 1371 0253 36010000 		.4byte	0x136
 1372 0257 04       		.uleb128 0x4
 1373 0258 24040000 		.4byte	.LASF48
 1374 025c 07       		.byte	0x7
 1375 025d 49       		.byte	0x49
 1376 025e 62020000 		.4byte	0x262
 1377 0262 06       		.uleb128 0x6
 1378 0263 CD050000 		.4byte	.LASF50
 1379 0267 04       		.byte	0x4
 1380 0268 02       		.byte	0x2
 1381 0269 B0       		.byte	0xb0
 1382 026a 7B020000 		.4byte	0x27b
 1383 026e 07       		.uleb128 0x7
 1384 026f 43050000 		.4byte	.LASF28
 1385 0273 02       		.byte	0x2
 1386 0274 B1       		.byte	0xb1
 1387 0275 51020000 		.4byte	0x251
 1388 0279 00       		.byte	0
 1389 027a 00       		.byte	0
 1390 027b 04       		.uleb128 0x4
 1391 027c 8A060000 		.4byte	.LASF51
 1392 0280 07       		.byte	0x7
 1393 0281 50       		.byte	0x50
 1394 0282 86020000 		.4byte	0x286
 1395 0286 06       		.uleb128 0x6
 1396 0287 0F020000 		.4byte	.LASF52
 1397 028b 08       		.byte	0x8
 1398 028c 02       		.byte	0x2
 1399 028d B7       		.byte	0xb7
 1400 028e AB020000 		.4byte	0x2ab
 1401 0292 07       		.uleb128 0x7
 1402 0293 43050000 		.4byte	.LASF28
 1403 0297 02       		.byte	0x2
 1404 0298 B8       		.byte	0xb8
 1405 0299 51020000 		.4byte	0x251
 1406 029d 00       		.byte	0
 1407 029e 07       		.uleb128 0x7
 1408 029f DA040000 		.4byte	.LASF29
 1409 02a3 02       		.byte	0x2
 1410 02a4 B9       		.byte	0xb9
 1411 02a5 51020000 		.4byte	0x251
 1412 02a9 04       		.byte	0x4
 1413 02aa 00       		.byte	0
 1414 02ab 04       		.uleb128 0x4
 1415 02ac 00000000 		.4byte	.LASF53
 1416 02b0 07       		.byte	0x7
 1417 02b1 57       		.byte	0x57
 1418 02b2 B6020000 		.4byte	0x2b6
 1419 02b6 0B       		.uleb128 0xb
 1420 02b7 BB030000 		.4byte	.LASF54
 1421 02bb 1C       		.byte	0x1c
 1422 02bc 02       		.byte	0x2
 1423 02bd 9001     		.2byte	0x190
 1424 02bf 12030000 		.4byte	0x312
 1425 02c3 09       		.uleb128 0x9
ARM GAS  C:\Users\IDONNO~1.SON\AppData\Local\Temp\ccW0NqxC.s 			page 26


 1426 02c4 B9050000 		.4byte	.LASF55
 1427 02c8 02       		.byte	0x2
 1428 02c9 9101     		.2byte	0x191
 1429 02cb 7B020000 		.4byte	0x27b
 1430 02cf 00       		.byte	0
 1431 02d0 09       		.uleb128 0x9
 1432 02d1 35050000 		.4byte	.LASF56
 1433 02d5 02       		.byte	0x2
 1434 02d6 9201     		.2byte	0x192
 1435 02d8 FF000000 		.4byte	0xff
 1436 02dc 08       		.byte	0x8
 1437 02dd 09       		.uleb128 0x9
 1438 02de 82040000 		.4byte	.LASF57
 1439 02e2 02       		.byte	0x2
 1440 02e3 9401     		.2byte	0x194
 1441 02e5 81040000 		.4byte	0x481
 1442 02e9 0C       		.byte	0xc
 1443 02ea 09       		.uleb128 0x9
 1444 02eb D2020000 		.4byte	.LASF58
 1445 02ef 02       		.byte	0x2
 1446 02f0 9701     		.2byte	0x197
 1447 02f2 51020000 		.4byte	0x251
 1448 02f6 10       		.byte	0x10
 1449 02f7 09       		.uleb128 0x9
 1450 02f8 AF040000 		.4byte	.LASF59
 1451 02fc 02       		.byte	0x2
 1452 02fd 9801     		.2byte	0x198
 1453 02ff 51020000 		.4byte	0x251
 1454 0303 14       		.byte	0x14
 1455 0304 09       		.uleb128 0x9
 1456 0305 A5040000 		.4byte	.LASF60
 1457 0309 02       		.byte	0x2
 1458 030a 9B01     		.2byte	0x19b
 1459 030c 51020000 		.4byte	0x251
 1460 0310 18       		.byte	0x18
 1461 0311 00       		.byte	0
 1462 0312 04       		.uleb128 0x4
 1463 0313 36060000 		.4byte	.LASF61
 1464 0317 07       		.byte	0x7
 1465 0318 5C       		.byte	0x5c
 1466 0319 1D030000 		.4byte	0x31d
 1467 031d 0A       		.uleb128 0xa
 1468 031e 04       		.byte	0x4
 1469 031f 23030000 		.4byte	0x323
 1470 0323 0C       		.uleb128 0xc
 1471 0324 2E030000 		.4byte	0x32e
 1472 0328 0D       		.uleb128 0xd
 1473 0329 2E030000 		.4byte	0x32e
 1474 032d 00       		.byte	0
 1475 032e 0E       		.uleb128 0xe
 1476 032f 04       		.byte	0x4
 1477 0330 04       		.uleb128 0x4
 1478 0331 CA040000 		.4byte	.LASF62
 1479 0335 07       		.byte	0x7
 1480 0336 61       		.byte	0x61
 1481 0337 3B030000 		.4byte	0x33b
 1482 033b 0B       		.uleb128 0xb
ARM GAS  C:\Users\IDONNO~1.SON\AppData\Local\Temp\ccW0NqxC.s 			page 27


 1483 033c 72050000 		.4byte	.LASF63
 1484 0340 14       		.byte	0x14
 1485 0341 02       		.byte	0x2
 1486 0342 6B01     		.2byte	0x16b
 1487 0344 8A030000 		.4byte	0x38a
 1488 0348 09       		.uleb128 0x9
 1489 0349 3C030000 		.4byte	.LASF64
 1490 034d 02       		.byte	0x2
 1491 034e 6C01     		.2byte	0x16c
 1492 0350 DD060000 		.4byte	0x6dd
 1493 0354 00       		.byte	0
 1494 0355 09       		.uleb128 0x9
 1495 0356 E3020000 		.4byte	.LASF65
 1496 035a 02       		.byte	0x2
 1497 035b 6D01     		.2byte	0x16d
 1498 035d DD060000 		.4byte	0x6dd
 1499 0361 04       		.byte	0x4
 1500 0362 09       		.uleb128 0x9
 1501 0363 52030000 		.4byte	.LASF66
 1502 0367 02       		.byte	0x2
 1503 0368 6E01     		.2byte	0x16e
 1504 036a 2B010000 		.4byte	0x12b
 1505 036e 08       		.byte	0x8
 1506 036f 09       		.uleb128 0x9
 1507 0370 12070000 		.4byte	.LASF67
 1508 0374 02       		.byte	0x2
 1509 0375 6F01     		.2byte	0x16f
 1510 0377 12030000 		.4byte	0x312
 1511 037b 0C       		.byte	0xc
 1512 037c 09       		.uleb128 0x9
 1513 037d 83060000 		.4byte	.LASF68
 1514 0381 02       		.byte	0x2
 1515 0382 7101     		.2byte	0x171
 1516 0384 2E030000 		.4byte	0x32e
 1517 0388 10       		.byte	0x10
 1518 0389 00       		.byte	0
 1519 038a 04       		.uleb128 0x4
 1520 038b DF030000 		.4byte	.LASF69
 1521 038f 07       		.byte	0x7
 1522 0390 66       		.byte	0x66
 1523 0391 95030000 		.4byte	0x395
 1524 0395 0B       		.uleb128 0xb
 1525 0396 59040000 		.4byte	.LASF70
 1526 039a 10       		.byte	0x10
 1527 039b 02       		.byte	0x2
 1528 039c 7B01     		.2byte	0x17b
 1529 039e D7030000 		.4byte	0x3d7
 1530 03a2 09       		.uleb128 0x9
 1531 03a3 3C030000 		.4byte	.LASF64
 1532 03a7 02       		.byte	0x2
 1533 03a8 7C01     		.2byte	0x17c
 1534 03aa DD060000 		.4byte	0x6dd
 1535 03ae 00       		.byte	0
 1536 03af 09       		.uleb128 0x9
 1537 03b0 E3020000 		.4byte	.LASF65
 1538 03b4 02       		.byte	0x2
 1539 03b5 7E01     		.2byte	0x17e
ARM GAS  C:\Users\IDONNO~1.SON\AppData\Local\Temp\ccW0NqxC.s 			page 28


 1540 03b7 DD060000 		.4byte	0x6dd
 1541 03bb 04       		.byte	0x4
 1542 03bc 09       		.uleb128 0x9
 1543 03bd 52030000 		.4byte	.LASF66
 1544 03c1 02       		.byte	0x2
 1545 03c2 8001     		.2byte	0x180
 1546 03c4 2B010000 		.4byte	0x12b
 1547 03c8 08       		.byte	0x8
 1548 03c9 09       		.uleb128 0x9
 1549 03ca D2060000 		.4byte	.LASF71
 1550 03ce 02       		.byte	0x2
 1551 03cf 8201     		.2byte	0x182
 1552 03d1 D8060000 		.4byte	0x6d8
 1553 03d5 0C       		.byte	0xc
 1554 03d6 00       		.byte	0
 1555 03d7 04       		.uleb128 0x4
 1556 03d8 53000000 		.4byte	.LASF72
 1557 03dc 07       		.byte	0x7
 1558 03dd 6B       		.byte	0x6b
 1559 03de E2030000 		.4byte	0x3e2
 1560 03e2 0B       		.uleb128 0xb
 1561 03e3 E9040000 		.4byte	.LASF73
 1562 03e7 04       		.byte	0x4
 1563 03e8 02       		.byte	0x2
 1564 03e9 A201     		.2byte	0x1a2
 1565 03eb FD030000 		.4byte	0x3fd
 1566 03ef 09       		.uleb128 0x9
 1567 03f0 62060000 		.4byte	.LASF74
 1568 03f4 02       		.byte	0x2
 1569 03f5 AA01     		.2byte	0x1aa
 1570 03f7 E3060000 		.4byte	0x6e3
 1571 03fb 00       		.byte	0
 1572 03fc 00       		.byte	0
 1573 03fd 04       		.uleb128 0x4
 1574 03fe A7030000 		.4byte	.LASF75
 1575 0402 07       		.byte	0x7
 1576 0403 70       		.byte	0x70
 1577 0404 08040000 		.4byte	0x408
 1578 0408 0F       		.uleb128 0xf
 1579 0409 95020000 		.4byte	.LASF76
 1580 040d 5802     		.2byte	0x258
 1581 040f 02       		.byte	0x2
 1582 0410 C201     		.2byte	0x1c2
 1583 0412 64040000 		.4byte	0x464
 1584 0416 09       		.uleb128 0x9
 1585 0417 B6060000 		.4byte	.LASF77
 1586 041b 02       		.byte	0x2
 1587 041c C601     		.2byte	0x1c6
 1588 041e AB020000 		.4byte	0x2ab
 1589 0422 00       		.byte	0
 1590 0423 09       		.uleb128 0x9
 1591 0424 78020000 		.4byte	.LASF78
 1592 0428 02       		.byte	0x2
 1593 0429 CA01     		.2byte	0x1ca
 1594 042b 8A030000 		.4byte	0x38a
 1595 042f 1C       		.byte	0x1c
 1596 0430 08       		.uleb128 0x8
ARM GAS  C:\Users\IDONNO~1.SON\AppData\Local\Temp\ccW0NqxC.s 			page 29


 1597 0431 64626700 		.ascii	"dbg\000"
 1598 0435 02       		.byte	0x2
 1599 0436 CE01     		.2byte	0x1ce
 1600 0438 D7030000 		.4byte	0x3d7
 1601 043c 2C       		.byte	0x2c
 1602 043d 09       		.uleb128 0x9
 1603 043e E6010000 		.4byte	.LASF79
 1604 0442 02       		.byte	0x2
 1605 0443 D201     		.2byte	0x1d2
 1606 0445 36010000 		.4byte	0x136
 1607 0449 30       		.byte	0x30
 1608 044a 08       		.uleb128 0x8
 1609 044b 746D00   		.ascii	"tm\000"
 1610 044e 02       		.byte	0x2
 1611 044f D701     		.2byte	0x1d7
 1612 0451 F6050000 		.4byte	0x5f6
 1613 0455 78       		.byte	0x78
 1614 0456 09       		.uleb128 0x9
 1615 0457 F9020000 		.4byte	.LASF80
 1616 045b 02       		.byte	0x2
 1617 045c E301     		.2byte	0x1e3
 1618 045e E8060000 		.4byte	0x6e8
 1619 0462 80       		.byte	0x80
 1620 0463 00       		.byte	0
 1621 0464 03       		.uleb128 0x3
 1622 0465 04       		.byte	0x4
 1623 0466 07       		.byte	0x7
 1624 0467 3D040000 		.4byte	.LASF81
 1625 046b 04       		.uleb128 0x4
 1626 046c DA020000 		.4byte	.LASF82
 1627 0470 08       		.byte	0x8
 1628 0471 65       		.byte	0x65
 1629 0472 2E030000 		.4byte	0x32e
 1630 0476 04       		.uleb128 0x4
 1631 0477 F5030000 		.4byte	.LASF83
 1632 047b 08       		.byte	0x8
 1633 047c 6D       		.byte	0x6d
 1634 047d B8000000 		.4byte	0xb8
 1635 0481 06       		.uleb128 0x6
 1636 0482 73060000 		.4byte	.LASF84
 1637 0486 04       		.byte	0x4
 1638 0487 08       		.byte	0x8
 1639 0488 89       		.byte	0x89
 1640 0489 9A040000 		.4byte	0x49a
 1641 048d 10       		.uleb128 0x10
 1642 048e 72313300 		.ascii	"r13\000"
 1643 0492 08       		.byte	0x8
 1644 0493 8A       		.byte	0x8a
 1645 0494 DB050000 		.4byte	0x5db
 1646 0498 00       		.byte	0
 1647 0499 00       		.byte	0
 1648 049a 06       		.uleb128 0x6
 1649 049b 47000000 		.4byte	.LASF85
 1650 049f 64       		.byte	0x64
 1651 04a0 09       		.byte	0x9
 1652 04a1 F4       		.byte	0xf4
 1653 04a2 DB050000 		.4byte	0x5db
ARM GAS  C:\Users\IDONNO~1.SON\AppData\Local\Temp\ccW0NqxC.s 			page 30


 1654 04a6 10       		.uleb128 0x10
 1655 04a7 73313600 		.ascii	"s16\000"
 1656 04ab 09       		.byte	0x9
 1657 04ac F6       		.byte	0xf6
 1658 04ad 6B040000 		.4byte	0x46b
 1659 04b1 00       		.byte	0
 1660 04b2 10       		.uleb128 0x10
 1661 04b3 73313700 		.ascii	"s17\000"
 1662 04b7 09       		.byte	0x9
 1663 04b8 F7       		.byte	0xf7
 1664 04b9 6B040000 		.4byte	0x46b
 1665 04bd 04       		.byte	0x4
 1666 04be 10       		.uleb128 0x10
 1667 04bf 73313800 		.ascii	"s18\000"
 1668 04c3 09       		.byte	0x9
 1669 04c4 F8       		.byte	0xf8
 1670 04c5 6B040000 		.4byte	0x46b
 1671 04c9 08       		.byte	0x8
 1672 04ca 10       		.uleb128 0x10
 1673 04cb 73313900 		.ascii	"s19\000"
 1674 04cf 09       		.byte	0x9
 1675 04d0 F9       		.byte	0xf9
 1676 04d1 6B040000 		.4byte	0x46b
 1677 04d5 0C       		.byte	0xc
 1678 04d6 10       		.uleb128 0x10
 1679 04d7 73323000 		.ascii	"s20\000"
 1680 04db 09       		.byte	0x9
 1681 04dc FA       		.byte	0xfa
 1682 04dd 6B040000 		.4byte	0x46b
 1683 04e1 10       		.byte	0x10
 1684 04e2 10       		.uleb128 0x10
 1685 04e3 73323100 		.ascii	"s21\000"
 1686 04e7 09       		.byte	0x9
 1687 04e8 FB       		.byte	0xfb
 1688 04e9 6B040000 		.4byte	0x46b
 1689 04ed 14       		.byte	0x14
 1690 04ee 10       		.uleb128 0x10
 1691 04ef 73323200 		.ascii	"s22\000"
 1692 04f3 09       		.byte	0x9
 1693 04f4 FC       		.byte	0xfc
 1694 04f5 6B040000 		.4byte	0x46b
 1695 04f9 18       		.byte	0x18
 1696 04fa 10       		.uleb128 0x10
 1697 04fb 73323300 		.ascii	"s23\000"
 1698 04ff 09       		.byte	0x9
 1699 0500 FD       		.byte	0xfd
 1700 0501 6B040000 		.4byte	0x46b
 1701 0505 1C       		.byte	0x1c
 1702 0506 10       		.uleb128 0x10
 1703 0507 73323400 		.ascii	"s24\000"
 1704 050b 09       		.byte	0x9
 1705 050c FE       		.byte	0xfe
 1706 050d 6B040000 		.4byte	0x46b
 1707 0511 20       		.byte	0x20
 1708 0512 10       		.uleb128 0x10
 1709 0513 73323500 		.ascii	"s25\000"
 1710 0517 09       		.byte	0x9
ARM GAS  C:\Users\IDONNO~1.SON\AppData\Local\Temp\ccW0NqxC.s 			page 31


 1711 0518 FF       		.byte	0xff
 1712 0519 6B040000 		.4byte	0x46b
 1713 051d 24       		.byte	0x24
 1714 051e 08       		.uleb128 0x8
 1715 051f 73323600 		.ascii	"s26\000"
 1716 0523 09       		.byte	0x9
 1717 0524 0001     		.2byte	0x100
 1718 0526 6B040000 		.4byte	0x46b
 1719 052a 28       		.byte	0x28
 1720 052b 08       		.uleb128 0x8
 1721 052c 73323700 		.ascii	"s27\000"
 1722 0530 09       		.byte	0x9
 1723 0531 0101     		.2byte	0x101
 1724 0533 6B040000 		.4byte	0x46b
 1725 0537 2C       		.byte	0x2c
 1726 0538 08       		.uleb128 0x8
 1727 0539 73323800 		.ascii	"s28\000"
 1728 053d 09       		.byte	0x9
 1729 053e 0201     		.2byte	0x102
 1730 0540 6B040000 		.4byte	0x46b
 1731 0544 30       		.byte	0x30
 1732 0545 08       		.uleb128 0x8
 1733 0546 73323900 		.ascii	"s29\000"
 1734 054a 09       		.byte	0x9
 1735 054b 0301     		.2byte	0x103
 1736 054d 6B040000 		.4byte	0x46b
 1737 0551 34       		.byte	0x34
 1738 0552 08       		.uleb128 0x8
 1739 0553 73333000 		.ascii	"s30\000"
 1740 0557 09       		.byte	0x9
 1741 0558 0401     		.2byte	0x104
 1742 055a 6B040000 		.4byte	0x46b
 1743 055e 38       		.byte	0x38
 1744 055f 08       		.uleb128 0x8
 1745 0560 73333100 		.ascii	"s31\000"
 1746 0564 09       		.byte	0x9
 1747 0565 0501     		.2byte	0x105
 1748 0567 6B040000 		.4byte	0x46b
 1749 056b 3C       		.byte	0x3c
 1750 056c 08       		.uleb128 0x8
 1751 056d 723400   		.ascii	"r4\000"
 1752 0570 09       		.byte	0x9
 1753 0571 0701     		.2byte	0x107
 1754 0573 6B040000 		.4byte	0x46b
 1755 0577 40       		.byte	0x40
 1756 0578 08       		.uleb128 0x8
 1757 0579 723500   		.ascii	"r5\000"
 1758 057c 09       		.byte	0x9
 1759 057d 0801     		.2byte	0x108
 1760 057f 6B040000 		.4byte	0x46b
 1761 0583 44       		.byte	0x44
 1762 0584 08       		.uleb128 0x8
 1763 0585 723600   		.ascii	"r6\000"
 1764 0588 09       		.byte	0x9
 1765 0589 0901     		.2byte	0x109
 1766 058b 6B040000 		.4byte	0x46b
 1767 058f 48       		.byte	0x48
ARM GAS  C:\Users\IDONNO~1.SON\AppData\Local\Temp\ccW0NqxC.s 			page 32


 1768 0590 08       		.uleb128 0x8
 1769 0591 723700   		.ascii	"r7\000"
 1770 0594 09       		.byte	0x9
 1771 0595 0A01     		.2byte	0x10a
 1772 0597 6B040000 		.4byte	0x46b
 1773 059b 4C       		.byte	0x4c
 1774 059c 08       		.uleb128 0x8
 1775 059d 723800   		.ascii	"r8\000"
 1776 05a0 09       		.byte	0x9
 1777 05a1 0B01     		.2byte	0x10b
 1778 05a3 6B040000 		.4byte	0x46b
 1779 05a7 50       		.byte	0x50
 1780 05a8 08       		.uleb128 0x8
 1781 05a9 723900   		.ascii	"r9\000"
 1782 05ac 09       		.byte	0x9
 1783 05ad 0C01     		.2byte	0x10c
 1784 05af 6B040000 		.4byte	0x46b
 1785 05b3 54       		.byte	0x54
 1786 05b4 08       		.uleb128 0x8
 1787 05b5 72313000 		.ascii	"r10\000"
 1788 05b9 09       		.byte	0x9
 1789 05ba 0D01     		.2byte	0x10d
 1790 05bc 6B040000 		.4byte	0x46b
 1791 05c0 58       		.byte	0x58
 1792 05c1 08       		.uleb128 0x8
 1793 05c2 72313100 		.ascii	"r11\000"
 1794 05c6 09       		.byte	0x9
 1795 05c7 0E01     		.2byte	0x10e
 1796 05c9 6B040000 		.4byte	0x46b
 1797 05cd 5C       		.byte	0x5c
 1798 05ce 08       		.uleb128 0x8
 1799 05cf 6C7200   		.ascii	"lr\000"
 1800 05d2 09       		.byte	0x9
 1801 05d3 0F01     		.2byte	0x10f
 1802 05d5 6B040000 		.4byte	0x46b
 1803 05d9 60       		.byte	0x60
 1804 05da 00       		.byte	0
 1805 05db 0A       		.uleb128 0xa
 1806 05dc 04       		.byte	0x4
 1807 05dd 9A040000 		.4byte	0x49a
 1808 05e1 11       		.uleb128 0x11
 1809 05e2 04       		.byte	0x4
 1810 05e3 0A       		.byte	0xa
 1811 05e4 38       		.byte	0x38
 1812 05e5 F6050000 		.4byte	0x5f6
 1813 05e9 07       		.uleb128 0x7
 1814 05ea 6C060000 		.4byte	.LASF86
 1815 05ee 0A       		.byte	0xa
 1816 05ef 3C       		.byte	0x3c
 1817 05f0 C8000000 		.4byte	0xc8
 1818 05f4 00       		.byte	0
 1819 05f5 00       		.byte	0
 1820 05f6 04       		.uleb128 0x4
 1821 05f7 88040000 		.4byte	.LASF87
 1822 05fb 0A       		.byte	0xa
 1823 05fc 3D       		.byte	0x3d
 1824 05fd E1050000 		.4byte	0x5e1
ARM GAS  C:\Users\IDONNO~1.SON\AppData\Local\Temp\ccW0NqxC.s 			page 33


 1825 0601 12       		.uleb128 0x12
 1826 0602 04       		.byte	0x4
 1827 0603 02       		.byte	0x2
 1828 0604 FA       		.byte	0xfa
 1829 0605 5E060000 		.4byte	0x65e
 1830 0609 13       		.uleb128 0x13
 1831 060a 2D000000 		.4byte	.LASF88
 1832 060e 02       		.byte	0x2
 1833 060f 0101     		.2byte	0x101
 1834 0611 0A010000 		.4byte	0x10a
 1835 0615 13       		.uleb128 0x13
 1836 0616 DD010000 		.4byte	.LASF89
 1837 061a 02       		.byte	0x2
 1838 061b 0801     		.2byte	0x108
 1839 061d 0A010000 		.4byte	0x10a
 1840 0621 13       		.uleb128 0x13
 1841 0622 C4060000 		.4byte	.LASF90
 1842 0626 02       		.byte	0x2
 1843 0627 0F01     		.2byte	0x10f
 1844 0629 2E030000 		.4byte	0x32e
 1845 062d 13       		.uleb128 0x13
 1846 062e 27000000 		.4byte	.LASF91
 1847 0632 02       		.byte	0x2
 1848 0633 1601     		.2byte	0x116
 1849 0635 5E060000 		.4byte	0x65e
 1850 0639 13       		.uleb128 0x13
 1851 063a 4B030000 		.4byte	.LASF92
 1852 063e 02       		.byte	0x2
 1853 063f 1E01     		.2byte	0x11e
 1854 0641 89060000 		.4byte	0x689
 1855 0645 13       		.uleb128 0x13
 1856 0646 B2050000 		.4byte	.LASF93
 1857 064a 02       		.byte	0x2
 1858 064b 2701     		.2byte	0x127
 1859 064d C0060000 		.4byte	0x6c0
 1860 0651 13       		.uleb128 0x13
 1861 0652 3C050000 		.4byte	.LASF94
 1862 0656 02       		.byte	0x2
 1863 0657 2F01     		.2byte	0x12f
 1864 0659 15010000 		.4byte	0x115
 1865 065d 00       		.byte	0
 1866 065e 0A       		.uleb128 0xa
 1867 065f 04       		.byte	0x4
 1868 0660 46020000 		.4byte	0x246
 1869 0664 06       		.uleb128 0x6
 1870 0665 83050000 		.4byte	.LASF95
 1871 0669 0C       		.byte	0xc
 1872 066a 0B       		.byte	0xb
 1873 066b 34       		.byte	0x34
 1874 066c 89060000 		.4byte	0x689
 1875 0670 07       		.uleb128 0x7
 1876 0671 B9020000 		.4byte	.LASF96
 1877 0675 0B       		.byte	0xb
 1878 0676 35       		.byte	0x35
 1879 0677 7B020000 		.4byte	0x27b
 1880 067b 00       		.byte	0
 1881 067c 07       		.uleb128 0x7
ARM GAS  C:\Users\IDONNO~1.SON\AppData\Local\Temp\ccW0NqxC.s 			page 34


 1882 067d 71030000 		.4byte	.LASF97
 1883 0681 0B       		.byte	0xb
 1884 0682 37       		.byte	0x37
 1885 0683 20010000 		.4byte	0x120
 1886 0687 08       		.byte	0x8
 1887 0688 00       		.byte	0
 1888 0689 0A       		.uleb128 0xa
 1889 068a 04       		.byte	0x4
 1890 068b 64060000 		.4byte	0x664
 1891 068f 06       		.uleb128 0x6
 1892 0690 9A060000 		.4byte	.LASF98
 1893 0694 10       		.byte	0x10
 1894 0695 0C       		.byte	0xc
 1895 0696 39       		.byte	0x39
 1896 0697 C0060000 		.4byte	0x6c0
 1897 069b 07       		.uleb128 0x7
 1898 069c 70020000 		.4byte	.LASF99
 1899 06a0 0C       		.byte	0xc
 1900 06a1 3A       		.byte	0x3a
 1901 06a2 7B020000 		.4byte	0x27b
 1902 06a6 00       		.byte	0
 1903 06a7 07       		.uleb128 0x7
 1904 06a8 04070000 		.4byte	.LASF100
 1905 06ac 0C       		.byte	0xc
 1906 06ad 3C       		.byte	0x3c
 1907 06ae 51020000 		.4byte	0x251
 1908 06b2 08       		.byte	0x8
 1909 06b3 07       		.uleb128 0x7
 1910 06b4 99040000 		.4byte	.LASF101
 1911 06b8 0C       		.byte	0xc
 1912 06b9 3E       		.byte	0x3e
 1913 06ba 0E070000 		.4byte	0x70e
 1914 06be 0C       		.byte	0xc
 1915 06bf 00       		.byte	0
 1916 06c0 0A       		.uleb128 0xa
 1917 06c1 04       		.byte	0x4
 1918 06c2 8F060000 		.4byte	0x68f
 1919 06c6 0A       		.uleb128 0xa
 1920 06c7 04       		.byte	0x4
 1921 06c8 D3060000 		.4byte	0x6d3
 1922 06cc 03       		.uleb128 0x3
 1923 06cd 01       		.byte	0x1
 1924 06ce 08       		.byte	0x8
 1925 06cf EF050000 		.4byte	.LASF102
 1926 06d3 14       		.uleb128 0x14
 1927 06d4 CC060000 		.4byte	0x6cc
 1928 06d8 05       		.uleb128 0x5
 1929 06d9 2B010000 		.4byte	0x12b
 1930 06dd 0A       		.uleb128 0xa
 1931 06de 04       		.byte	0x4
 1932 06df 30030000 		.4byte	0x330
 1933 06e3 05       		.uleb128 0x5
 1934 06e4 C6060000 		.4byte	0x6c6
 1935 06e8 15       		.uleb128 0x15
 1936 06e9 76040000 		.4byte	0x476
 1937 06ed F8060000 		.4byte	0x6f8
 1938 06f1 16       		.uleb128 0x16
ARM GAS  C:\Users\IDONNO~1.SON\AppData\Local\Temp\ccW0NqxC.s 			page 35


 1939 06f2 64040000 		.4byte	0x464
 1940 06f6 3A       		.byte	0x3a
 1941 06f7 00       		.byte	0
 1942 06f8 04       		.uleb128 0x4
 1943 06f9 66050000 		.4byte	.LASF103
 1944 06fd 0B       		.byte	0xb
 1945 06fe 38       		.byte	0x38
 1946 06ff 64060000 		.4byte	0x664
 1947 0703 04       		.uleb128 0x4
 1948 0704 EB020000 		.4byte	.LASF104
 1949 0708 0C       		.byte	0xc
 1950 0709 34       		.byte	0x34
 1951 070a 8F060000 		.4byte	0x68f
 1952 070e 0A       		.uleb128 0xa
 1953 070f 04       		.byte	0x4
 1954 0710 03070000 		.4byte	0x703
 1955 0714 17       		.uleb128 0x17
 1956 0715 4A060000 		.4byte	.LASF107
 1957 0719 03       		.byte	0x3
 1958 071a 2002     		.2byte	0x220
 1959 071c 03       		.byte	0x3
 1960 071d 2E070000 		.4byte	0x72e
 1961 0721 18       		.uleb128 0x18
 1962 0722 F3020000 		.4byte	.LASF109
 1963 0726 03       		.byte	0x3
 1964 0727 2002     		.2byte	0x220
 1965 0729 AD000000 		.4byte	0xad
 1966 072d 00       		.byte	0
 1967 072e 19       		.uleb128 0x19
 1968 072f 91010000 		.4byte	.LASF105
 1969 0733 09       		.byte	0x9
 1970 0734 BC01     		.2byte	0x1bc
 1971 0736 03       		.byte	0x3
 1972 0737 19       		.uleb128 0x19
 1973 0738 7F020000 		.4byte	.LASF106
 1974 073c 09       		.byte	0x9
 1975 073d CA01     		.2byte	0x1ca
 1976 073f 03       		.byte	0x3
 1977 0740 17       		.uleb128 0x17
 1978 0741 86010000 		.4byte	.LASF108
 1979 0745 02       		.byte	0x2
 1980 0746 5A02     		.2byte	0x25a
 1981 0748 03       		.byte	0x3
 1982 0749 5A070000 		.4byte	0x75a
 1983 074d 1A       		.uleb128 0x1a
 1984 074e 74717000 		.ascii	"tqp\000"
 1985 0752 02       		.byte	0x2
 1986 0753 5A02     		.2byte	0x25a
 1987 0755 5A070000 		.4byte	0x75a
 1988 0759 00       		.byte	0
 1989 075a 0A       		.uleb128 0xa
 1990 075b 04       		.byte	0x4
 1991 075c 7B020000 		.4byte	0x27b
 1992 0760 1B       		.uleb128 0x1b
 1993 0761 9B010000 		.4byte	.LASF117
 1994 0765 02       		.byte	0x2
 1995 0766 A802     		.2byte	0x2a8
ARM GAS  C:\Users\IDONNO~1.SON\AppData\Local\Temp\ccW0NqxC.s 			page 36


 1996 0768 51020000 		.4byte	0x251
 1997 076c 03       		.byte	0x3
 1998 076d 89070000 		.4byte	0x789
 1999 0771 1A       		.uleb128 0x1a
 2000 0772 74717000 		.ascii	"tqp\000"
 2001 0776 02       		.byte	0x2
 2002 0777 A802     		.2byte	0x2a8
 2003 0779 5A070000 		.4byte	0x75a
 2004 077d 1C       		.uleb128 0x1c
 2005 077e 747000   		.ascii	"tp\000"
 2006 0781 02       		.byte	0x2
 2007 0782 A902     		.2byte	0x2a9
 2008 0784 51020000 		.4byte	0x251
 2009 0788 00       		.byte	0
 2010 0789 17       		.uleb128 0x17
 2011 078a F2060000 		.4byte	.LASF110
 2012 078e 0D       		.byte	0xd
 2013 078f 6601     		.2byte	0x166
 2014 0791 03       		.byte	0x3
 2015 0792 A4070000 		.4byte	0x7a4
 2016 0796 1D       		.uleb128 0x1d
 2017 0797 52050000 		.4byte	.LASF111
 2018 079b B4070000 		.4byte	0x7b4
 2019 079f F2060000 		.4byte	.LASF110
 2020 07a3 00       		.byte	0
 2021 07a4 15       		.uleb128 0x15
 2022 07a5 D3060000 		.4byte	0x6d3
 2023 07a9 B4070000 		.4byte	0x7b4
 2024 07ad 16       		.uleb128 0x16
 2025 07ae 64040000 		.4byte	0x464
 2026 07b2 0B       		.byte	0xb
 2027 07b3 00       		.byte	0
 2028 07b4 14       		.uleb128 0x14
 2029 07b5 A4070000 		.4byte	0x7a4
 2030 07b9 19       		.uleb128 0x19
 2031 07ba 70040000 		.4byte	.LASF112
 2032 07be 0D       		.byte	0xd
 2033 07bf 5A01     		.2byte	0x15a
 2034 07c1 03       		.byte	0x3
 2035 07c2 17       		.uleb128 0x17
 2036 07c3 0D000000 		.4byte	.LASF113
 2037 07c7 02       		.byte	0x2
 2038 07c8 9702     		.2byte	0x297
 2039 07ca 03       		.byte	0x3
 2040 07cb E7070000 		.4byte	0x7e7
 2041 07cf 1A       		.uleb128 0x1a
 2042 07d0 747000   		.ascii	"tp\000"
 2043 07d3 02       		.byte	0x2
 2044 07d4 9702     		.2byte	0x297
 2045 07d6 51020000 		.4byte	0x251
 2046 07da 1A       		.uleb128 0x1a
 2047 07db 74717000 		.ascii	"tqp\000"
 2048 07df 02       		.byte	0x2
 2049 07e0 9702     		.2byte	0x297
 2050 07e2 5A070000 		.4byte	0x75a
 2051 07e6 00       		.byte	0
 2052 07e7 1E       		.uleb128 0x1e
ARM GAS  C:\Users\IDONNO~1.SON\AppData\Local\Temp\ccW0NqxC.s 			page 37


 2053 07e8 5B050000 		.4byte	.LASF114
 2054 07ec 01       		.byte	0x1
 2055 07ed C5       		.byte	0xc5
 2056 07ee 0A010000 		.4byte	0x10a
 2057 07f2 01       		.byte	0x1
 2058 07f3 0F080000 		.4byte	0x80f
 2059 07f7 1F       		.uleb128 0x1f
 2060 07f8 737000   		.ascii	"sp\000"
 2061 07fb 01       		.byte	0x1
 2062 07fc C5       		.byte	0xc5
 2063 07fd 0F080000 		.4byte	0x80f
 2064 0801 1D       		.uleb128 0x1d
 2065 0802 52050000 		.4byte	.LASF111
 2066 0806 25080000 		.4byte	0x825
 2067 080a 5B050000 		.4byte	.LASF114
 2068 080e 00       		.byte	0
 2069 080f 0A       		.uleb128 0xa
 2070 0810 04       		.byte	0x4
 2071 0811 F8060000 		.4byte	0x6f8
 2072 0815 15       		.uleb128 0x15
 2073 0816 D3060000 		.4byte	0x6d3
 2074 081a 25080000 		.4byte	0x825
 2075 081e 16       		.uleb128 0x16
 2076 081f 64040000 		.4byte	0x464
 2077 0823 0A       		.byte	0xa
 2078 0824 00       		.byte	0
 2079 0825 14       		.uleb128 0x14
 2080 0826 15080000 		.4byte	0x815
 2081 082a 20       		.uleb128 0x20
 2082 082b F4050000 		.4byte	.LASF115
 2083 082f 01       		.byte	0x1
 2084 0830 0801     		.2byte	0x108
 2085 0832 0A010000 		.4byte	0x10a
 2086 0836 01       		.byte	0x1
 2087 0837 60080000 		.4byte	0x860
 2088 083b 1A       		.uleb128 0x1a
 2089 083c 737000   		.ascii	"sp\000"
 2090 083f 01       		.byte	0x1
 2091 0840 0801     		.2byte	0x108
 2092 0842 0F080000 		.4byte	0x80f
 2093 0846 18       		.uleb128 0x18
 2094 0847 A0040000 		.4byte	.LASF116
 2095 084b 01       		.byte	0x1
 2096 084c 0801     		.2byte	0x108
 2097 084e 2B010000 		.4byte	0x12b
 2098 0852 1D       		.uleb128 0x1d
 2099 0853 52050000 		.4byte	.LASF111
 2100 0857 70080000 		.4byte	0x870
 2101 085b F4050000 		.4byte	.LASF115
 2102 085f 00       		.byte	0
 2103 0860 15       		.uleb128 0x15
 2104 0861 D3060000 		.4byte	0x6d3
 2105 0865 70080000 		.4byte	0x870
 2106 0869 16       		.uleb128 0x16
 2107 086a 64040000 		.4byte	0x464
 2108 086e 11       		.byte	0x11
 2109 086f 00       		.byte	0
ARM GAS  C:\Users\IDONNO~1.SON\AppData\Local\Temp\ccW0NqxC.s 			page 38


 2110 0870 14       		.uleb128 0x14
 2111 0871 60080000 		.4byte	0x860
 2112 0875 1B       		.uleb128 0x1b
 2113 0876 0F060000 		.4byte	.LASF118
 2114 087a 02       		.byte	0x2
 2115 087b 9F02     		.2byte	0x29f
 2116 087d 51020000 		.4byte	0x251
 2117 0881 03       		.byte	0x3
 2118 0882 9E080000 		.4byte	0x89e
 2119 0886 1A       		.uleb128 0x1a
 2120 0887 74717000 		.ascii	"tqp\000"
 2121 088b 02       		.byte	0x2
 2122 088c 9F02     		.2byte	0x29f
 2123 088e 5A070000 		.4byte	0x75a
 2124 0892 1C       		.uleb128 0x1c
 2125 0893 747000   		.ascii	"tp\000"
 2126 0896 02       		.byte	0x2
 2127 0897 A002     		.2byte	0x2a0
 2128 0899 51020000 		.4byte	0x251
 2129 089d 00       		.byte	0
 2130 089e 21       		.uleb128 0x21
 2131 089f 08030000 		.4byte	.LASF119
 2132 08a3 01       		.byte	0x1
 2133 08a4 61       		.byte	0x61
 2134 08a5 00000000 		.4byte	.LFB219
 2135 08a9 08000000 		.4byte	.LFE219-.LFB219
 2136 08ad 01       		.uleb128 0x1
 2137 08ae 9C       		.byte	0x9c
 2138 08af ED080000 		.4byte	0x8ed
 2139 08b3 22       		.uleb128 0x22
 2140 08b4 737000   		.ascii	"sp\000"
 2141 08b7 01       		.byte	0x1
 2142 08b8 61       		.byte	0x61
 2143 08b9 0F080000 		.4byte	0x80f
 2144 08bd 01       		.uleb128 0x1
 2145 08be 50       		.byte	0x50
 2146 08bf 22       		.uleb128 0x22
 2147 08c0 6E00     		.ascii	"n\000"
 2148 08c2 01       		.byte	0x1
 2149 08c3 61       		.byte	0x61
 2150 08c4 20010000 		.4byte	0x120
 2151 08c8 01       		.uleb128 0x1
 2152 08c9 51       		.byte	0x51
 2153 08ca 23       		.uleb128 0x23
 2154 08cb 52050000 		.4byte	.LASF111
 2155 08cf FD080000 		.4byte	0x8fd
 2156 08d3 24       		.uleb128 0x24
 2157 08d4 40070000 		.4byte	0x740
 2158 08d8 00000000 		.4byte	.LBB92
 2159 08dc 04000000 		.4byte	.LBE92-.LBB92
 2160 08e0 01       		.byte	0x1
 2161 08e1 65       		.byte	0x65
 2162 08e2 25       		.uleb128 0x25
 2163 08e3 4D070000 		.4byte	0x74d
 2164 08e7 00000000 		.4byte	.LLST0
 2165 08eb 00       		.byte	0
 2166 08ec 00       		.byte	0
ARM GAS  C:\Users\IDONNO~1.SON\AppData\Local\Temp\ccW0NqxC.s 			page 39


 2167 08ed 15       		.uleb128 0x15
 2168 08ee D3060000 		.4byte	0x6d3
 2169 08f2 FD080000 		.4byte	0x8fd
 2170 08f6 16       		.uleb128 0x16
 2171 08f7 64040000 		.4byte	0x464
 2172 08fb 0F       		.byte	0xf
 2173 08fc 00       		.byte	0
 2174 08fd 14       		.uleb128 0x14
 2175 08fe ED080000 		.4byte	0x8ed
 2176 0902 21       		.uleb128 0x21
 2177 0903 AA060000 		.4byte	.LASF120
 2178 0907 01       		.byte	0x1
 2179 0908 93       		.byte	0x93
 2180 0909 00000000 		.4byte	.LFB221
 2181 090d 28000000 		.4byte	.LFE221-.LFB221
 2182 0911 01       		.uleb128 0x1
 2183 0912 9C       		.byte	0x9c
 2184 0913 84090000 		.4byte	0x984
 2185 0917 26       		.uleb128 0x26
 2186 0918 737000   		.ascii	"sp\000"
 2187 091b 01       		.byte	0x1
 2188 091c 93       		.byte	0x93
 2189 091d 0F080000 		.4byte	0x80f
 2190 0921 13000000 		.4byte	.LLST1
 2191 0925 26       		.uleb128 0x26
 2192 0926 6E00     		.ascii	"n\000"
 2193 0928 01       		.byte	0x1
 2194 0929 93       		.byte	0x93
 2195 092a 20010000 		.4byte	0x120
 2196 092e 3F000000 		.4byte	.LLST2
 2197 0932 27       		.uleb128 0x27
 2198 0933 636E7400 		.ascii	"cnt\000"
 2199 0937 01       		.byte	0x1
 2200 0938 94       		.byte	0x94
 2201 0939 20010000 		.4byte	0x120
 2202 093d 60000000 		.4byte	.LLST3
 2203 0941 23       		.uleb128 0x23
 2204 0942 52050000 		.4byte	.LASF111
 2205 0946 84090000 		.4byte	0x984
 2206 094a 28       		.uleb128 0x28
 2207 094b 60070000 		.4byte	0x760
 2208 094f 12000000 		.4byte	.LBB94
 2209 0953 08000000 		.4byte	.LBE94-.LBB94
 2210 0957 01       		.byte	0x1
 2211 0958 9F       		.byte	0x9f
 2212 0959 7A090000 		.4byte	0x97a
 2213 095d 25       		.uleb128 0x25
 2214 095e 71070000 		.4byte	0x771
 2215 0962 8B000000 		.4byte	.LLST4
 2216 0966 29       		.uleb128 0x29
 2217 0967 12000000 		.4byte	.LBB95
 2218 096b 08000000 		.4byte	.LBE95-.LBB95
 2219 096f 2A       		.uleb128 0x2a
 2220 0970 7D070000 		.4byte	0x77d
 2221 0974 9E000000 		.4byte	.LLST5
 2222 0978 00       		.byte	0
 2223 0979 00       		.byte	0
ARM GAS  C:\Users\IDONNO~1.SON\AppData\Local\Temp\ccW0NqxC.s 			page 40


 2224 097a 2B       		.uleb128 0x2b
 2225 097b 1E000000 		.4byte	.LVL8
 2226 097f 97110000 		.4byte	0x1197
 2227 0983 00       		.byte	0
 2228 0984 14       		.uleb128 0x14
 2229 0985 A4070000 		.4byte	0x7a4
 2230 0989 21       		.uleb128 0x21
 2231 098a 66030000 		.4byte	.LASF121
 2232 098e 01       		.byte	0x1
 2233 098f 78       		.byte	0x78
 2234 0990 00000000 		.4byte	.LFB220
 2235 0994 18000000 		.4byte	.LFE220-.LFB220
 2236 0998 01       		.uleb128 0x1
 2237 0999 9C       		.byte	0x9c
 2238 099a 6C0A0000 		.4byte	0xa6c
 2239 099e 26       		.uleb128 0x26
 2240 099f 737000   		.ascii	"sp\000"
 2241 09a2 01       		.byte	0x1
 2242 09a3 78       		.byte	0x78
 2243 09a4 0F080000 		.4byte	0x80f
 2244 09a8 B1000000 		.4byte	.LLST6
 2245 09ac 26       		.uleb128 0x26
 2246 09ad 6E00     		.ascii	"n\000"
 2247 09af 01       		.byte	0x1
 2248 09b0 78       		.byte	0x78
 2249 09b1 20010000 		.4byte	0x120
 2250 09b5 D2000000 		.4byte	.LLST7
 2251 09b9 28       		.uleb128 0x28
 2252 09ba B9070000 		.4byte	0x7b9
 2253 09be 02000000 		.4byte	.LBB96
 2254 09c2 06000000 		.4byte	.LBE96-.LBB96
 2255 09c6 01       		.byte	0x1
 2256 09c7 7A       		.byte	0x7a
 2257 09c8 F8090000 		.4byte	0x9f8
 2258 09cc 2C       		.uleb128 0x2c
 2259 09cd 2E070000 		.4byte	0x72e
 2260 09d1 02000000 		.4byte	.LBB97
 2261 09d5 06000000 		.4byte	.LBE97-.LBB97
 2262 09d9 0D       		.byte	0xd
 2263 09da 5C01     		.2byte	0x15c
 2264 09dc 2C       		.uleb128 0x2c
 2265 09dd 14070000 		.4byte	0x714
 2266 09e1 02000000 		.4byte	.LBB98
 2267 09e5 06000000 		.4byte	.LBE98-.LBB98
 2268 09e9 09       		.byte	0x9
 2269 09ea BF01     		.2byte	0x1bf
 2270 09ec 25       		.uleb128 0x25
 2271 09ed 21070000 		.4byte	0x721
 2272 09f1 F3000000 		.4byte	.LLST8
 2273 09f5 00       		.byte	0
 2274 09f6 00       		.byte	0
 2275 09f7 00       		.byte	0
 2276 09f8 28       		.uleb128 0x28
 2277 09f9 89070000 		.4byte	0x789
 2278 09fd 10000000 		.4byte	.LBB100
 2279 0a01 08000000 		.4byte	.LBE100-.LBB100
 2280 0a05 01       		.byte	0x1
ARM GAS  C:\Users\IDONNO~1.SON\AppData\Local\Temp\ccW0NqxC.s 			page 41


 2281 0a06 7D       		.byte	0x7d
 2282 0a07 460A0000 		.4byte	0xa46
 2283 0a0b 29       		.uleb128 0x29
 2284 0a0c 10000000 		.4byte	.LBB101
 2285 0a10 08000000 		.4byte	.LBE101-.LBB101
 2286 0a14 2D       		.uleb128 0x2d
 2287 0a15 96070000 		.4byte	0x796
 2288 0a19 2C       		.uleb128 0x2c
 2289 0a1a 37070000 		.4byte	0x737
 2290 0a1e 10000000 		.4byte	.LBB102
 2291 0a22 08000000 		.4byte	.LBE102-.LBB102
 2292 0a26 0D       		.byte	0xd
 2293 0a27 7301     		.2byte	0x173
 2294 0a29 2C       		.uleb128 0x2c
 2295 0a2a 14070000 		.4byte	0x714
 2296 0a2e 10000000 		.4byte	.LBB103
 2297 0a32 08000000 		.4byte	.LBE103-.LBB103
 2298 0a36 09       		.byte	0x9
 2299 0a37 CD01     		.2byte	0x1cd
 2300 0a39 25       		.uleb128 0x25
 2301 0a3a 21070000 		.4byte	0x721
 2302 0a3e 08010000 		.4byte	.LLST9
 2303 0a42 00       		.byte	0
 2304 0a43 00       		.byte	0
 2305 0a44 00       		.byte	0
 2306 0a45 00       		.byte	0
 2307 0a46 2E       		.uleb128 0x2e
 2308 0a47 0C000000 		.4byte	.LVL14
 2309 0a4b 02090000 		.4byte	0x902
 2310 0a4f 620A0000 		.4byte	0xa62
 2311 0a53 2F       		.uleb128 0x2f
 2312 0a54 01       		.uleb128 0x1
 2313 0a55 50       		.byte	0x50
 2314 0a56 03       		.uleb128 0x3
 2315 0a57 F3       		.byte	0xf3
 2316 0a58 01       		.uleb128 0x1
 2317 0a59 50       		.byte	0x50
 2318 0a5a 2F       		.uleb128 0x2f
 2319 0a5b 01       		.uleb128 0x1
 2320 0a5c 51       		.byte	0x51
 2321 0a5d 03       		.uleb128 0x3
 2322 0a5e F3       		.byte	0xf3
 2323 0a5f 01       		.uleb128 0x1
 2324 0a60 51       		.byte	0x51
 2325 0a61 00       		.byte	0
 2326 0a62 2B       		.uleb128 0x2b
 2327 0a63 10000000 		.4byte	.LVL15
 2328 0a67 A3110000 		.4byte	0x11a3
 2329 0a6b 00       		.byte	0
 2330 0a6c 30       		.uleb128 0x30
 2331 0a6d 58060000 		.4byte	.LASF122
 2332 0a71 01       		.byte	0x1
 2333 0a72 AF       		.byte	0xaf
 2334 0a73 0A010000 		.4byte	0x10a
 2335 0a77 00000000 		.4byte	.LFB222
 2336 0a7b 44000000 		.4byte	.LFE222-.LFB222
 2337 0a7f 01       		.uleb128 0x1
ARM GAS  C:\Users\IDONNO~1.SON\AppData\Local\Temp\ccW0NqxC.s 			page 42


 2338 0a80 9C       		.byte	0x9c
 2339 0a81 A30B0000 		.4byte	0xba3
 2340 0a85 26       		.uleb128 0x26
 2341 0a86 737000   		.ascii	"sp\000"
 2342 0a89 01       		.byte	0x1
 2343 0a8a AF       		.byte	0xaf
 2344 0a8b 0F080000 		.4byte	0x80f
 2345 0a8f 1C010000 		.4byte	.LLST10
 2346 0a93 31       		.uleb128 0x31
 2347 0a94 6D736700 		.ascii	"msg\000"
 2348 0a98 01       		.byte	0x1
 2349 0a99 B0       		.byte	0xb0
 2350 0a9a 0A010000 		.4byte	0x10a
 2351 0a9e 28       		.uleb128 0x28
 2352 0a9f B9070000 		.4byte	0x7b9
 2353 0aa3 00000000 		.4byte	.LBB120
 2354 0aa7 06000000 		.4byte	.LBE120-.LBB120
 2355 0aab 01       		.byte	0x1
 2356 0aac B2       		.byte	0xb2
 2357 0aad DD0A0000 		.4byte	0xadd
 2358 0ab1 2C       		.uleb128 0x2c
 2359 0ab2 2E070000 		.4byte	0x72e
 2360 0ab6 00000000 		.4byte	.LBB121
 2361 0aba 06000000 		.4byte	.LBE121-.LBB121
 2362 0abe 0D       		.byte	0xd
 2363 0abf 5C01     		.2byte	0x15c
 2364 0ac1 2C       		.uleb128 0x2c
 2365 0ac2 14070000 		.4byte	0x714
 2366 0ac6 00000000 		.4byte	.LBB122
 2367 0aca 06000000 		.4byte	.LBE122-.LBB122
 2368 0ace 09       		.byte	0x9
 2369 0acf BF01     		.2byte	0x1bf
 2370 0ad1 25       		.uleb128 0x25
 2371 0ad2 21070000 		.4byte	0x721
 2372 0ad6 61010000 		.4byte	.LLST11
 2373 0ada 00       		.byte	0
 2374 0adb 00       		.byte	0
 2375 0adc 00       		.byte	0
 2376 0add 32       		.uleb128 0x32
 2377 0ade E7070000 		.4byte	0x7e7
 2378 0ae2 06000000 		.4byte	.LBB124
 2379 0ae6 00000000 		.4byte	.Ldebug_ranges0+0
 2380 0aea 01       		.byte	0x1
 2381 0aeb B3       		.byte	0xb3
 2382 0aec 5C0B0000 		.4byte	0xb5c
 2383 0af0 25       		.uleb128 0x25
 2384 0af1 F7070000 		.4byte	0x7f7
 2385 0af5 76010000 		.4byte	.LLST12
 2386 0af9 33       		.uleb128 0x33
 2387 0afa 00000000 		.4byte	.Ldebug_ranges0+0
 2388 0afe 2D       		.uleb128 0x2d
 2389 0aff 01080000 		.4byte	0x801
 2390 0b03 29       		.uleb128 0x29
 2391 0b04 1C000000 		.4byte	.LBB126
 2392 0b08 1C000000 		.4byte	.LBE126-.LBB126
 2393 0b0c 25       		.uleb128 0x25
 2394 0b0d F7070000 		.4byte	0x7f7
ARM GAS  C:\Users\IDONNO~1.SON\AppData\Local\Temp\ccW0NqxC.s 			page 43


 2395 0b11 AD010000 		.4byte	.LLST13
 2396 0b15 29       		.uleb128 0x29
 2397 0b16 1C000000 		.4byte	.LBB127
 2398 0b1a 1C000000 		.4byte	.LBE127-.LBB127
 2399 0b1e 2D       		.uleb128 0x2d
 2400 0b1f 01080000 		.4byte	0x801
 2401 0b23 32       		.uleb128 0x32
 2402 0b24 C2070000 		.4byte	0x7c2
 2403 0b28 22000000 		.4byte	.LBB128
 2404 0b2c 18000000 		.4byte	.Ldebug_ranges0+0x18
 2405 0b30 01       		.byte	0x1
 2406 0b31 CF       		.byte	0xcf
 2407 0b32 490B0000 		.4byte	0xb49
 2408 0b36 25       		.uleb128 0x25
 2409 0b37 DA070000 		.4byte	0x7da
 2410 0b3b CE010000 		.4byte	.LLST14
 2411 0b3f 25       		.uleb128 0x25
 2412 0b40 CF070000 		.4byte	0x7cf
 2413 0b44 E1010000 		.4byte	.LLST15
 2414 0b48 00       		.byte	0
 2415 0b49 34       		.uleb128 0x34
 2416 0b4a 34000000 		.4byte	.LVL25
 2417 0b4e AF110000 		.4byte	0x11af
 2418 0b52 2F       		.uleb128 0x2f
 2419 0b53 01       		.uleb128 0x1
 2420 0b54 50       		.byte	0x50
 2421 0b55 01       		.uleb128 0x1
 2422 0b56 35       		.byte	0x35
 2423 0b57 00       		.byte	0
 2424 0b58 00       		.byte	0
 2425 0b59 00       		.byte	0
 2426 0b5a 00       		.byte	0
 2427 0b5b 00       		.byte	0
 2428 0b5c 35       		.uleb128 0x35
 2429 0b5d 89070000 		.4byte	0x789
 2430 0b61 12000000 		.4byte	.LBB133
 2431 0b65 30000000 		.4byte	.Ldebug_ranges0+0x30
 2432 0b69 01       		.byte	0x1
 2433 0b6a B4       		.byte	0xb4
 2434 0b6b 33       		.uleb128 0x33
 2435 0b6c 30000000 		.4byte	.Ldebug_ranges0+0x30
 2436 0b70 2D       		.uleb128 0x2d
 2437 0b71 96070000 		.4byte	0x796
 2438 0b75 36       		.uleb128 0x36
 2439 0b76 37070000 		.4byte	0x737
 2440 0b7a 12000000 		.4byte	.LBB135
 2441 0b7e 30000000 		.4byte	.Ldebug_ranges0+0x30
 2442 0b82 0D       		.byte	0xd
 2443 0b83 7301     		.2byte	0x173
 2444 0b85 36       		.uleb128 0x36
 2445 0b86 14070000 		.4byte	0x714
 2446 0b8a 12000000 		.4byte	.LBB136
 2447 0b8e 30000000 		.4byte	.Ldebug_ranges0+0x30
 2448 0b92 09       		.byte	0x9
 2449 0b93 CD01     		.2byte	0x1cd
 2450 0b95 25       		.uleb128 0x25
 2451 0b96 21070000 		.4byte	0x721
ARM GAS  C:\Users\IDONNO~1.SON\AppData\Local\Temp\ccW0NqxC.s 			page 44


 2452 0b9a F4010000 		.4byte	.LLST16
 2453 0b9e 00       		.byte	0
 2454 0b9f 00       		.byte	0
 2455 0ba0 00       		.byte	0
 2456 0ba1 00       		.byte	0
 2457 0ba2 00       		.byte	0
 2458 0ba3 37       		.uleb128 0x37
 2459 0ba4 E7070000 		.4byte	0x7e7
 2460 0ba8 00000000 		.4byte	.LFB223
 2461 0bac 34000000 		.4byte	.LFE223-.LFB223
 2462 0bb0 01       		.uleb128 0x1
 2463 0bb1 9C       		.byte	0x9c
 2464 0bb2 1C0C0000 		.4byte	0xc1c
 2465 0bb6 25       		.uleb128 0x25
 2466 0bb7 F7070000 		.4byte	0x7f7
 2467 0bbb 14020000 		.4byte	.LLST17
 2468 0bbf 2D       		.uleb128 0x2d
 2469 0bc0 01080000 		.4byte	0x801
 2470 0bc4 29       		.uleb128 0x29
 2471 0bc5 10000000 		.4byte	.LBB148
 2472 0bc9 24000000 		.4byte	.LBE148-.LBB148
 2473 0bcd 25       		.uleb128 0x25
 2474 0bce F7070000 		.4byte	0x7f7
 2475 0bd2 59020000 		.4byte	.LLST18
 2476 0bd6 29       		.uleb128 0x29
 2477 0bd7 10000000 		.4byte	.LBB149
 2478 0bdb 24000000 		.4byte	.LBE149-.LBB149
 2479 0bdf 2D       		.uleb128 0x2d
 2480 0be0 01080000 		.4byte	0x801
 2481 0be4 32       		.uleb128 0x32
 2482 0be5 C2070000 		.4byte	0x7c2
 2483 0be9 16000000 		.4byte	.LBB150
 2484 0bed 48000000 		.4byte	.Ldebug_ranges0+0x48
 2485 0bf1 01       		.byte	0x1
 2486 0bf2 CF       		.byte	0xcf
 2487 0bf3 0A0C0000 		.4byte	0xc0a
 2488 0bf7 25       		.uleb128 0x25
 2489 0bf8 DA070000 		.4byte	0x7da
 2490 0bfc 7A020000 		.4byte	.LLST19
 2491 0c00 25       		.uleb128 0x25
 2492 0c01 CF070000 		.4byte	0x7cf
 2493 0c05 8D020000 		.4byte	.LLST20
 2494 0c09 00       		.byte	0
 2495 0c0a 34       		.uleb128 0x34
 2496 0c0b 28000000 		.4byte	.LVL34
 2497 0c0f AF110000 		.4byte	0x11af
 2498 0c13 2F       		.uleb128 0x2f
 2499 0c14 01       		.uleb128 0x1
 2500 0c15 50       		.byte	0x50
 2501 0c16 01       		.uleb128 0x1
 2502 0c17 35       		.byte	0x35
 2503 0c18 00       		.byte	0
 2504 0c19 00       		.byte	0
 2505 0c1a 00       		.byte	0
 2506 0c1b 00       		.byte	0
 2507 0c1c 30       		.uleb128 0x30
 2508 0c1d 2B030000 		.4byte	.LASF123
ARM GAS  C:\Users\IDONNO~1.SON\AppData\Local\Temp\ccW0NqxC.s 			page 45


 2509 0c21 01       		.byte	0x1
 2510 0c22 EB       		.byte	0xeb
 2511 0c23 0A010000 		.4byte	0x10a
 2512 0c27 00000000 		.4byte	.LFB224
 2513 0c2b 4C000000 		.4byte	.LFE224-.LFB224
 2514 0c2f 01       		.uleb128 0x1
 2515 0c30 9C       		.byte	0x9c
 2516 0c31 710D0000 		.4byte	0xd71
 2517 0c35 26       		.uleb128 0x26
 2518 0c36 737000   		.ascii	"sp\000"
 2519 0c39 01       		.byte	0x1
 2520 0c3a EB       		.byte	0xeb
 2521 0c3b 0F080000 		.4byte	0x80f
 2522 0c3f A0020000 		.4byte	.LLST21
 2523 0c43 38       		.uleb128 0x38
 2524 0c44 A0040000 		.4byte	.LASF116
 2525 0c48 01       		.byte	0x1
 2526 0c49 EB       		.byte	0xeb
 2527 0c4a 2B010000 		.4byte	0x12b
 2528 0c4e FE020000 		.4byte	.LLST22
 2529 0c52 31       		.uleb128 0x31
 2530 0c53 6D736700 		.ascii	"msg\000"
 2531 0c57 01       		.byte	0x1
 2532 0c58 EC       		.byte	0xec
 2533 0c59 0A010000 		.4byte	0x10a
 2534 0c5d 28       		.uleb128 0x28
 2535 0c5e B9070000 		.4byte	0x7b9
 2536 0c62 00000000 		.4byte	.LBB169
 2537 0c66 06000000 		.4byte	.LBE169-.LBB169
 2538 0c6a 01       		.byte	0x1
 2539 0c6b EE       		.byte	0xee
 2540 0c6c 9C0C0000 		.4byte	0xc9c
 2541 0c70 2C       		.uleb128 0x2c
 2542 0c71 2E070000 		.4byte	0x72e
 2543 0c75 00000000 		.4byte	.LBB170
 2544 0c79 06000000 		.4byte	.LBE170-.LBB170
 2545 0c7d 0D       		.byte	0xd
 2546 0c7e 5C01     		.2byte	0x15c
 2547 0c80 2C       		.uleb128 0x2c
 2548 0c81 14070000 		.4byte	0x714
 2549 0c85 00000000 		.4byte	.LBB171
 2550 0c89 06000000 		.4byte	.LBE171-.LBB171
 2551 0c8d 09       		.byte	0x9
 2552 0c8e BF01     		.2byte	0x1bf
 2553 0c90 25       		.uleb128 0x25
 2554 0c91 21070000 		.4byte	0x721
 2555 0c95 2A030000 		.4byte	.LLST23
 2556 0c99 00       		.byte	0
 2557 0c9a 00       		.byte	0
 2558 0c9b 00       		.byte	0
 2559 0c9c 32       		.uleb128 0x32
 2560 0c9d 2A080000 		.4byte	0x82a
 2561 0ca1 06000000 		.4byte	.LBB173
 2562 0ca5 60000000 		.4byte	.Ldebug_ranges0+0x60
 2563 0ca9 01       		.byte	0x1
 2564 0caa EF       		.byte	0xef
 2565 0cab 2A0D0000 		.4byte	0xd2a
ARM GAS  C:\Users\IDONNO~1.SON\AppData\Local\Temp\ccW0NqxC.s 			page 46


 2566 0caf 25       		.uleb128 0x25
 2567 0cb0 46080000 		.4byte	0x846
 2568 0cb4 3F030000 		.4byte	.LLST24
 2569 0cb8 25       		.uleb128 0x25
 2570 0cb9 3B080000 		.4byte	0x83b
 2571 0cbd 76030000 		.4byte	.LLST25
 2572 0cc1 33       		.uleb128 0x33
 2573 0cc2 60000000 		.4byte	.Ldebug_ranges0+0x60
 2574 0cc6 2D       		.uleb128 0x2d
 2575 0cc7 52080000 		.4byte	0x852
 2576 0ccb 29       		.uleb128 0x29
 2577 0ccc 1E000000 		.4byte	.LBB175
 2578 0cd0 18000000 		.4byte	.LBE175-.LBB175
 2579 0cd4 39       		.uleb128 0x39
 2580 0cd5 46080000 		.4byte	0x846
 2581 0cd9 25       		.uleb128 0x25
 2582 0cda 3B080000 		.4byte	0x83b
 2583 0cde C6030000 		.4byte	.LLST26
 2584 0ce2 29       		.uleb128 0x29
 2585 0ce3 1E000000 		.4byte	.LBB176
 2586 0ce7 18000000 		.4byte	.LBE176-.LBB176
 2587 0ceb 2D       		.uleb128 0x2d
 2588 0cec 52080000 		.4byte	0x852
 2589 0cf0 3A       		.uleb128 0x3a
 2590 0cf1 C2070000 		.4byte	0x7c2
 2591 0cf5 24000000 		.4byte	.LBB177
 2592 0cf9 80000000 		.4byte	.Ldebug_ranges0+0x80
 2593 0cfd 01       		.byte	0x1
 2594 0cfe 1701     		.2byte	0x117
 2595 0d00 170D0000 		.4byte	0xd17
 2596 0d04 25       		.uleb128 0x25
 2597 0d05 DA070000 		.4byte	0x7da
 2598 0d09 E7030000 		.4byte	.LLST27
 2599 0d0d 25       		.uleb128 0x25
 2600 0d0e CF070000 		.4byte	0x7cf
 2601 0d12 FA030000 		.4byte	.LLST28
 2602 0d16 00       		.byte	0
 2603 0d17 34       		.uleb128 0x34
 2604 0d18 36000000 		.4byte	.LVL44
 2605 0d1c BB110000 		.4byte	0x11bb
 2606 0d20 2F       		.uleb128 0x2f
 2607 0d21 01       		.uleb128 0x1
 2608 0d22 50       		.byte	0x50
 2609 0d23 01       		.uleb128 0x1
 2610 0d24 35       		.byte	0x35
 2611 0d25 00       		.byte	0
 2612 0d26 00       		.byte	0
 2613 0d27 00       		.byte	0
 2614 0d28 00       		.byte	0
 2615 0d29 00       		.byte	0
 2616 0d2a 35       		.uleb128 0x35
 2617 0d2b 89070000 		.4byte	0x789
 2618 0d2f 12000000 		.4byte	.LBB183
 2619 0d33 98000000 		.4byte	.Ldebug_ranges0+0x98
 2620 0d37 01       		.byte	0x1
 2621 0d38 F0       		.byte	0xf0
 2622 0d39 33       		.uleb128 0x33
ARM GAS  C:\Users\IDONNO~1.SON\AppData\Local\Temp\ccW0NqxC.s 			page 47


 2623 0d3a 98000000 		.4byte	.Ldebug_ranges0+0x98
 2624 0d3e 2D       		.uleb128 0x2d
 2625 0d3f 96070000 		.4byte	0x796
 2626 0d43 36       		.uleb128 0x36
 2627 0d44 37070000 		.4byte	0x737
 2628 0d48 12000000 		.4byte	.LBB185
 2629 0d4c 98000000 		.4byte	.Ldebug_ranges0+0x98
 2630 0d50 0D       		.byte	0xd
 2631 0d51 7301     		.2byte	0x173
 2632 0d53 36       		.uleb128 0x36
 2633 0d54 14070000 		.4byte	0x714
 2634 0d58 12000000 		.4byte	.LBB186
 2635 0d5c 98000000 		.4byte	.Ldebug_ranges0+0x98
 2636 0d60 09       		.byte	0x9
 2637 0d61 CD01     		.2byte	0x1cd
 2638 0d63 25       		.uleb128 0x25
 2639 0d64 21070000 		.4byte	0x721
 2640 0d68 0D040000 		.4byte	.LLST29
 2641 0d6c 00       		.byte	0
 2642 0d6d 00       		.byte	0
 2643 0d6e 00       		.byte	0
 2644 0d6f 00       		.byte	0
 2645 0d70 00       		.byte	0
 2646 0d71 37       		.uleb128 0x37
 2647 0d72 2A080000 		.4byte	0x82a
 2648 0d76 00000000 		.4byte	.LFB225
 2649 0d7a 40000000 		.4byte	.LFE225-.LFB225
 2650 0d7e 01       		.uleb128 0x1
 2651 0d7f 9C       		.byte	0x9c
 2652 0d80 F10D0000 		.4byte	0xdf1
 2653 0d84 25       		.uleb128 0x25
 2654 0d85 3B080000 		.4byte	0x83b
 2655 0d89 2D040000 		.4byte	.LLST30
 2656 0d8d 25       		.uleb128 0x25
 2657 0d8e 46080000 		.4byte	0x846
 2658 0d92 64040000 		.4byte	.LLST31
 2659 0d96 2D       		.uleb128 0x2d
 2660 0d97 52080000 		.4byte	0x852
 2661 0d9b 33       		.uleb128 0x33
 2662 0d9c B0000000 		.4byte	.Ldebug_ranges0+0xb0
 2663 0da0 39       		.uleb128 0x39
 2664 0da1 46080000 		.4byte	0x846
 2665 0da5 25       		.uleb128 0x25
 2666 0da6 3B080000 		.4byte	0x83b
 2667 0daa 90040000 		.4byte	.LLST32
 2668 0dae 33       		.uleb128 0x33
 2669 0daf B0000000 		.4byte	.Ldebug_ranges0+0xb0
 2670 0db3 2D       		.uleb128 0x2d
 2671 0db4 52080000 		.4byte	0x852
 2672 0db8 3A       		.uleb128 0x3a
 2673 0db9 C2070000 		.4byte	0x7c2
 2674 0dbd 1A000000 		.4byte	.LBB201
 2675 0dc1 C8000000 		.4byte	.Ldebug_ranges0+0xc8
 2676 0dc5 01       		.byte	0x1
 2677 0dc6 1701     		.2byte	0x117
 2678 0dc8 DF0D0000 		.4byte	0xddf
 2679 0dcc 25       		.uleb128 0x25
ARM GAS  C:\Users\IDONNO~1.SON\AppData\Local\Temp\ccW0NqxC.s 			page 48


 2680 0dcd DA070000 		.4byte	0x7da
 2681 0dd1 B1040000 		.4byte	.LLST33
 2682 0dd5 25       		.uleb128 0x25
 2683 0dd6 CF070000 		.4byte	0x7cf
 2684 0dda C4040000 		.4byte	.LLST34
 2685 0dde 00       		.byte	0
 2686 0ddf 3B       		.uleb128 0x3b
 2687 0de0 2E000000 		.4byte	.LVL53
 2688 0de4 BB110000 		.4byte	0x11bb
 2689 0de8 2F       		.uleb128 0x2f
 2690 0de9 01       		.uleb128 0x1
 2691 0dea 50       		.byte	0x50
 2692 0deb 01       		.uleb128 0x1
 2693 0dec 35       		.byte	0x35
 2694 0ded 00       		.byte	0
 2695 0dee 00       		.byte	0
 2696 0def 00       		.byte	0
 2697 0df0 00       		.byte	0
 2698 0df1 3C       		.uleb128 0x3c
 2699 0df2 D1010000 		.4byte	.LASF124
 2700 0df6 01       		.byte	0x1
 2701 0df7 2601     		.2byte	0x126
 2702 0df9 00000000 		.4byte	.LFB226
 2703 0dfd 32000000 		.4byte	.LFE226-.LFB226
 2704 0e01 01       		.uleb128 0x1
 2705 0e02 9C       		.byte	0x9c
 2706 0e03 E70E0000 		.4byte	0xee7
 2707 0e07 3D       		.uleb128 0x3d
 2708 0e08 737000   		.ascii	"sp\000"
 2709 0e0b 01       		.byte	0x1
 2710 0e0c 2601     		.2byte	0x126
 2711 0e0e 0F080000 		.4byte	0x80f
 2712 0e12 D7040000 		.4byte	.LLST35
 2713 0e16 23       		.uleb128 0x23
 2714 0e17 52050000 		.4byte	.LASF111
 2715 0e1b E70E0000 		.4byte	0xee7
 2716 0e1f 3E       		.uleb128 0x3e
 2717 0e20 B9070000 		.4byte	0x7b9
 2718 0e24 02000000 		.4byte	.LBB207
 2719 0e28 06000000 		.4byte	.LBE207-.LBB207
 2720 0e2c 01       		.byte	0x1
 2721 0e2d 2D01     		.2byte	0x12d
 2722 0e2f 5F0E0000 		.4byte	0xe5f
 2723 0e33 2C       		.uleb128 0x2c
 2724 0e34 2E070000 		.4byte	0x72e
 2725 0e38 02000000 		.4byte	.LBB208
 2726 0e3c 06000000 		.4byte	.LBE208-.LBB208
 2727 0e40 0D       		.byte	0xd
 2728 0e41 5C01     		.2byte	0x15c
 2729 0e43 2C       		.uleb128 0x2c
 2730 0e44 14070000 		.4byte	0x714
 2731 0e48 02000000 		.4byte	.LBB209
 2732 0e4c 06000000 		.4byte	.LBE209-.LBB209
 2733 0e50 09       		.byte	0x9
 2734 0e51 BF01     		.2byte	0x1bf
 2735 0e53 25       		.uleb128 0x25
 2736 0e54 21070000 		.4byte	0x721
ARM GAS  C:\Users\IDONNO~1.SON\AppData\Local\Temp\ccW0NqxC.s 			page 49


 2737 0e58 03050000 		.4byte	.LLST36
 2738 0e5c 00       		.byte	0
 2739 0e5d 00       		.byte	0
 2740 0e5e 00       		.byte	0
 2741 0e5f 3A       		.uleb128 0x3a
 2742 0e60 89070000 		.4byte	0x789
 2743 0e64 12000000 		.4byte	.LBB211
 2744 0e68 E0000000 		.4byte	.Ldebug_ranges0+0xe0
 2745 0e6c 01       		.byte	0x1
 2746 0e6d 3101     		.2byte	0x131
 2747 0e6f AA0E0000 		.4byte	0xeaa
 2748 0e73 33       		.uleb128 0x33
 2749 0e74 E0000000 		.4byte	.Ldebug_ranges0+0xe0
 2750 0e78 2D       		.uleb128 0x2d
 2751 0e79 96070000 		.4byte	0x796
 2752 0e7d 36       		.uleb128 0x36
 2753 0e7e 37070000 		.4byte	0x737
 2754 0e82 12000000 		.4byte	.LBB213
 2755 0e86 E0000000 		.4byte	.Ldebug_ranges0+0xe0
 2756 0e8a 0D       		.byte	0xd
 2757 0e8b 7301     		.2byte	0x173
 2758 0e8d 36       		.uleb128 0x36
 2759 0e8e 14070000 		.4byte	0x714
 2760 0e92 12000000 		.4byte	.LBB214
 2761 0e96 E0000000 		.4byte	.Ldebug_ranges0+0xe0
 2762 0e9a 09       		.byte	0x9
 2763 0e9b CD01     		.2byte	0x1cd
 2764 0e9d 25       		.uleb128 0x25
 2765 0e9e 21070000 		.4byte	0x721
 2766 0ea2 18050000 		.4byte	.LLST37
 2767 0ea6 00       		.byte	0
 2768 0ea7 00       		.byte	0
 2769 0ea8 00       		.byte	0
 2770 0ea9 00       		.byte	0
 2771 0eaa 3A       		.uleb128 0x3a
 2772 0eab 75080000 		.4byte	0x875
 2773 0eaf 1C000000 		.4byte	.LBB220
 2774 0eb3 F8000000 		.4byte	.Ldebug_ranges0+0xf8
 2775 0eb7 01       		.byte	0x1
 2776 0eb8 2F01     		.2byte	0x12f
 2777 0eba D70E0000 		.4byte	0xed7
 2778 0ebe 25       		.uleb128 0x25
 2779 0ebf 86080000 		.4byte	0x886
 2780 0ec3 38050000 		.4byte	.LLST38
 2781 0ec7 33       		.uleb128 0x33
 2782 0ec8 F8000000 		.4byte	.Ldebug_ranges0+0xf8
 2783 0ecc 2A       		.uleb128 0x2a
 2784 0ecd 92080000 		.4byte	0x892
 2785 0ed1 4B050000 		.4byte	.LLST39
 2786 0ed5 00       		.byte	0
 2787 0ed6 00       		.byte	0
 2788 0ed7 34       		.uleb128 0x34
 2789 0ed8 2A000000 		.4byte	.LVL61
 2790 0edc C7110000 		.4byte	0x11c7
 2791 0ee0 2F       		.uleb128 0x2f
 2792 0ee1 01       		.uleb128 0x1
 2793 0ee2 51       		.byte	0x51
ARM GAS  C:\Users\IDONNO~1.SON\AppData\Local\Temp\ccW0NqxC.s 			page 50


 2794 0ee3 01       		.uleb128 0x1
 2795 0ee4 30       		.byte	0x30
 2796 0ee5 00       		.byte	0
 2797 0ee6 00       		.byte	0
 2798 0ee7 14       		.uleb128 0x14
 2799 0ee8 A4070000 		.4byte	0x7a4
 2800 0eec 3C       		.uleb128 0x3c
 2801 0eed 1A000000 		.4byte	.LASF125
 2802 0ef1 01       		.byte	0x1
 2803 0ef2 3F01     		.2byte	0x13f
 2804 0ef4 00000000 		.4byte	.LFB227
 2805 0ef8 1E000000 		.4byte	.LFE227-.LFB227
 2806 0efc 01       		.uleb128 0x1
 2807 0efd 9C       		.byte	0x9c
 2808 0efe 680F0000 		.4byte	0xf68
 2809 0f02 3D       		.uleb128 0x3d
 2810 0f03 737000   		.ascii	"sp\000"
 2811 0f06 01       		.byte	0x1
 2812 0f07 3F01     		.2byte	0x13f
 2813 0f09 0F080000 		.4byte	0x80f
 2814 0f0d 5E050000 		.4byte	.LLST40
 2815 0f11 23       		.uleb128 0x23
 2816 0f12 52050000 		.4byte	.LASF111
 2817 0f16 780F0000 		.4byte	0xf78
 2818 0f1a 29       		.uleb128 0x29
 2819 0f1b 0C000000 		.4byte	.LBB225
 2820 0f1f 12000000 		.4byte	.LBE225-.LBB225
 2821 0f23 3F       		.uleb128 0x3f
 2822 0f24 747000   		.ascii	"tp\000"
 2823 0f27 01       		.byte	0x1
 2824 0f28 4A01     		.2byte	0x14a
 2825 0f2a 51020000 		.4byte	0x251
 2826 0f2e 01       		.uleb128 0x1
 2827 0f2f 53       		.byte	0x53
 2828 0f30 3A       		.uleb128 0x3a
 2829 0f31 75080000 		.4byte	0x875
 2830 0f35 0C000000 		.4byte	.LBB226
 2831 0f39 10010000 		.4byte	.Ldebug_ranges0+0x110
 2832 0f3d 01       		.byte	0x1
 2833 0f3e 4A01     		.2byte	0x14a
 2834 0f40 5D0F0000 		.4byte	0xf5d
 2835 0f44 25       		.uleb128 0x25
 2836 0f45 86080000 		.4byte	0x886
 2837 0f49 8B050000 		.4byte	.LLST41
 2838 0f4d 33       		.uleb128 0x33
 2839 0f4e 10010000 		.4byte	.Ldebug_ranges0+0x110
 2840 0f52 2A       		.uleb128 0x2a
 2841 0f53 92080000 		.4byte	0x892
 2842 0f57 9E050000 		.4byte	.LLST42
 2843 0f5b 00       		.byte	0
 2844 0f5c 00       		.byte	0
 2845 0f5d 40       		.uleb128 0x40
 2846 0f5e 1E000000 		.4byte	.LVL69
 2847 0f62 97110000 		.4byte	0x1197
 2848 0f66 00       		.byte	0
 2849 0f67 00       		.byte	0
 2850 0f68 15       		.uleb128 0x15
ARM GAS  C:\Users\IDONNO~1.SON\AppData\Local\Temp\ccW0NqxC.s 			page 51


 2851 0f69 D3060000 		.4byte	0x6d3
 2852 0f6d 780F0000 		.4byte	0xf78
 2853 0f71 16       		.uleb128 0x16
 2854 0f72 64040000 		.4byte	0x464
 2855 0f76 0C       		.byte	0xc
 2856 0f77 00       		.byte	0
 2857 0f78 14       		.uleb128 0x14
 2858 0f79 680F0000 		.4byte	0xf68
 2859 0f7d 3C       		.uleb128 0x3c
 2860 0f7e F1010000 		.4byte	.LASF126
 2861 0f82 01       		.byte	0x1
 2862 0f83 5D01     		.2byte	0x15d
 2863 0f85 00000000 		.4byte	.LFB228
 2864 0f89 2E000000 		.4byte	.LFE228-.LFB228
 2865 0f8d 01       		.uleb128 0x1
 2866 0f8e 9C       		.byte	0x9c
 2867 0f8f F40F0000 		.4byte	0xff4
 2868 0f93 3D       		.uleb128 0x3d
 2869 0f94 737000   		.ascii	"sp\000"
 2870 0f97 01       		.byte	0x1
 2871 0f98 5D01     		.2byte	0x15d
 2872 0f9a 0F080000 		.4byte	0x80f
 2873 0f9e B1050000 		.4byte	.LLST43
 2874 0fa2 3D       		.uleb128 0x3d
 2875 0fa3 6E00     		.ascii	"n\000"
 2876 0fa5 01       		.byte	0x1
 2877 0fa6 5D01     		.2byte	0x15d
 2878 0fa8 20010000 		.4byte	0x120
 2879 0fac DD050000 		.4byte	.LLST44
 2880 0fb0 23       		.uleb128 0x23
 2881 0fb1 52050000 		.4byte	.LASF111
 2882 0fb5 04100000 		.4byte	0x1004
 2883 0fb9 3E       		.uleb128 0x3e
 2884 0fba 75080000 		.4byte	0x875
 2885 0fbe 1A000000 		.4byte	.LBB230
 2886 0fc2 08000000 		.4byte	.LBE230-.LBB230
 2887 0fc6 01       		.byte	0x1
 2888 0fc7 6701     		.2byte	0x167
 2889 0fc9 EA0F0000 		.4byte	0xfea
 2890 0fcd 25       		.uleb128 0x25
 2891 0fce 86080000 		.4byte	0x886
 2892 0fd2 15060000 		.4byte	.LLST45
 2893 0fd6 29       		.uleb128 0x29
 2894 0fd7 1A000000 		.4byte	.LBB231
 2895 0fdb 08000000 		.4byte	.LBE231-.LBB231
 2896 0fdf 2A       		.uleb128 0x2a
 2897 0fe0 92080000 		.4byte	0x892
 2898 0fe4 28060000 		.4byte	.LLST46
 2899 0fe8 00       		.byte	0
 2900 0fe9 00       		.byte	0
 2901 0fea 2B       		.uleb128 0x2b
 2902 0feb 26000000 		.4byte	.LVL77
 2903 0fef 97110000 		.4byte	0x1197
 2904 0ff3 00       		.byte	0
 2905 0ff4 15       		.uleb128 0x15
 2906 0ff5 D3060000 		.4byte	0x6d3
 2907 0ff9 04100000 		.4byte	0x1004
ARM GAS  C:\Users\IDONNO~1.SON\AppData\Local\Temp\ccW0NqxC.s 			page 52


 2908 0ffd 16       		.uleb128 0x16
 2909 0ffe 64040000 		.4byte	0x464
 2910 1002 10       		.byte	0x10
 2911 1003 00       		.byte	0
 2912 1004 14       		.uleb128 0x14
 2913 1005 F40F0000 		.4byte	0xff4
 2914 1009 41       		.uleb128 0x41
 2915 100a 41020000 		.4byte	.LASF127
 2916 100e 01       		.byte	0x1
 2917 100f 7A01     		.2byte	0x17a
 2918 1011 0A010000 		.4byte	0x10a
 2919 1015 00000000 		.4byte	.LFB229
 2920 1019 6C000000 		.4byte	.LFE229-.LFB229
 2921 101d 01       		.uleb128 0x1
 2922 101e 9C       		.byte	0x9c
 2923 101f 7B110000 		.4byte	0x117b
 2924 1023 3D       		.uleb128 0x3d
 2925 1024 73707300 		.ascii	"sps\000"
 2926 1028 01       		.byte	0x1
 2927 1029 7A01     		.2byte	0x17a
 2928 102b 0F080000 		.4byte	0x80f
 2929 102f 3B060000 		.4byte	.LLST47
 2930 1033 3D       		.uleb128 0x3d
 2931 1034 73707700 		.ascii	"spw\000"
 2932 1038 01       		.byte	0x1
 2933 1039 7A01     		.2byte	0x17a
 2934 103b 0F080000 		.4byte	0x80f
 2935 103f 80060000 		.4byte	.LLST48
 2936 1043 42       		.uleb128 0x42
 2937 1044 6D736700 		.ascii	"msg\000"
 2938 1048 01       		.byte	0x1
 2939 1049 7B01     		.2byte	0x17b
 2940 104b 0A010000 		.4byte	0x10a
 2941 104f B8060000 		.4byte	.LLST49
 2942 1053 23       		.uleb128 0x23
 2943 1054 52050000 		.4byte	.LASF111
 2944 1058 7B110000 		.4byte	0x117b
 2945 105c 3A       		.uleb128 0x3a
 2946 105d B9070000 		.4byte	0x7b9
 2947 1061 02000000 		.4byte	.LBB232
 2948 1065 28010000 		.4byte	.Ldebug_ranges0+0x128
 2949 1069 01       		.byte	0x1
 2950 106a 8501     		.2byte	0x185
 2951 106c 9C100000 		.4byte	0x109c
 2952 1070 36       		.uleb128 0x36
 2953 1071 2E070000 		.4byte	0x72e
 2954 1075 02000000 		.4byte	.LBB233
 2955 1079 28010000 		.4byte	.Ldebug_ranges0+0x128
 2956 107d 0D       		.byte	0xd
 2957 107e 5C01     		.2byte	0x15c
 2958 1080 36       		.uleb128 0x36
 2959 1081 14070000 		.4byte	0x714
 2960 1085 02000000 		.4byte	.LBB234
 2961 1089 28010000 		.4byte	.Ldebug_ranges0+0x128
 2962 108d 09       		.byte	0x9
 2963 108e BF01     		.2byte	0x1bf
 2964 1090 25       		.uleb128 0x25
ARM GAS  C:\Users\IDONNO~1.SON\AppData\Local\Temp\ccW0NqxC.s 			page 53


 2965 1091 21070000 		.4byte	0x721
 2966 1095 E2060000 		.4byte	.LLST50
 2967 1099 00       		.byte	0
 2968 109a 00       		.byte	0
 2969 109b 00       		.byte	0
 2970 109c 3A       		.uleb128 0x3a
 2971 109d 89070000 		.4byte	0x789
 2972 10a1 24000000 		.4byte	.LBB240
 2973 10a5 40010000 		.4byte	.Ldebug_ranges0+0x140
 2974 10a9 01       		.byte	0x1
 2975 10aa 9401     		.2byte	0x194
 2976 10ac E7100000 		.4byte	0x10e7
 2977 10b0 33       		.uleb128 0x33
 2978 10b1 40010000 		.4byte	.Ldebug_ranges0+0x140
 2979 10b5 2D       		.uleb128 0x2d
 2980 10b6 96070000 		.4byte	0x796
 2981 10ba 36       		.uleb128 0x36
 2982 10bb 37070000 		.4byte	0x737
 2983 10bf 24000000 		.4byte	.LBB242
 2984 10c3 40010000 		.4byte	.Ldebug_ranges0+0x140
 2985 10c7 0D       		.byte	0xd
 2986 10c8 7301     		.2byte	0x173
 2987 10ca 36       		.uleb128 0x36
 2988 10cb 14070000 		.4byte	0x714
 2989 10cf 24000000 		.4byte	.LBB243
 2990 10d3 40010000 		.4byte	.Ldebug_ranges0+0x140
 2991 10d7 09       		.byte	0x9
 2992 10d8 CD01     		.2byte	0x1cd
 2993 10da 25       		.uleb128 0x25
 2994 10db 21070000 		.4byte	0x721
 2995 10df F7060000 		.4byte	.LLST51
 2996 10e3 00       		.byte	0
 2997 10e4 00       		.byte	0
 2998 10e5 00       		.byte	0
 2999 10e6 00       		.byte	0
 3000 10e7 43       		.uleb128 0x43
 3001 10e8 2E000000 		.4byte	.LBB249
 3002 10ec 18000000 		.4byte	.LBE249-.LBB249
 3003 10f0 3B110000 		.4byte	0x113b
 3004 10f4 42       		.uleb128 0x42
 3005 10f5 63747000 		.ascii	"ctp\000"
 3006 10f9 01       		.byte	0x1
 3007 10fa 8A01     		.2byte	0x18a
 3008 10fc 51020000 		.4byte	0x251
 3009 1100 17070000 		.4byte	.LLST52
 3010 1104 3A       		.uleb128 0x3a
 3011 1105 C2070000 		.4byte	0x7c2
 3012 1109 30000000 		.4byte	.LBB250
 3013 110d 58010000 		.4byte	.Ldebug_ranges0+0x158
 3014 1111 01       		.byte	0x1
 3015 1112 8B01     		.2byte	0x18b
 3016 1114 2B110000 		.4byte	0x112b
 3017 1118 25       		.uleb128 0x25
 3018 1119 DA070000 		.4byte	0x7da
 3019 111d 2A070000 		.4byte	.LLST53
 3020 1121 25       		.uleb128 0x25
 3021 1122 CF070000 		.4byte	0x7cf
ARM GAS  C:\Users\IDONNO~1.SON\AppData\Local\Temp\ccW0NqxC.s 			page 54


 3022 1126 3D070000 		.4byte	.LLST54
 3023 112a 00       		.byte	0
 3024 112b 34       		.uleb128 0x34
 3025 112c 44000000 		.4byte	.LVL90
 3026 1130 AF110000 		.4byte	0x11af
 3027 1134 2F       		.uleb128 0x2f
 3028 1135 01       		.uleb128 0x1
 3029 1136 50       		.byte	0x50
 3030 1137 01       		.uleb128 0x1
 3031 1138 35       		.byte	0x35
 3032 1139 00       		.byte	0
 3033 113a 00       		.byte	0
 3034 113b 3E       		.uleb128 0x3e
 3035 113c 75080000 		.4byte	0x875
 3036 1140 52000000 		.4byte	.LBB255
 3037 1144 0A000000 		.4byte	.LBE255-.LBB255
 3038 1148 01       		.byte	0x1
 3039 1149 8701     		.2byte	0x187
 3040 114b 68110000 		.4byte	0x1168
 3041 114f 39       		.uleb128 0x39
 3042 1150 86080000 		.4byte	0x886
 3043 1154 29       		.uleb128 0x29
 3044 1155 52000000 		.4byte	.LBB256
 3045 1159 0A000000 		.4byte	.LBE256-.LBB256
 3046 115d 2A       		.uleb128 0x2a
 3047 115e 92080000 		.4byte	0x892
 3048 1162 50070000 		.4byte	.LLST55
 3049 1166 00       		.byte	0
 3050 1167 00       		.byte	0
 3051 1168 2B       		.uleb128 0x2b
 3052 1169 22000000 		.4byte	.LVL84
 3053 116d A3110000 		.4byte	0x11a3
 3054 1171 2B       		.uleb128 0x2b
 3055 1172 60000000 		.4byte	.LVL97
 3056 1176 97110000 		.4byte	0x1197
 3057 117a 00       		.byte	0
 3058 117b 14       		.uleb128 0x14
 3059 117c ED080000 		.4byte	0x8ed
 3060 1180 44       		.uleb128 0x44
 3061 1181 02020000 		.4byte	.LASF128
 3062 1185 0E       		.byte	0xe
 3063 1186 A706     		.2byte	0x6a7
 3064 1188 C3000000 		.4byte	0xc3
 3065 118c 45       		.uleb128 0x45
 3066 118d 636800   		.ascii	"ch\000"
 3067 1190 02       		.byte	0x2
 3068 1191 0902     		.2byte	0x209
 3069 1193 FD030000 		.4byte	0x3fd
 3070 1197 46       		.uleb128 0x46
 3071 1198 C1050000 		.4byte	.LASF129
 3072 119c C1050000 		.4byte	.LASF129
 3073 11a0 02       		.byte	0x2
 3074 11a1 1302     		.2byte	0x213
 3075 11a3 46       		.uleb128 0x46
 3076 11a4 C1020000 		.4byte	.LASF130
 3077 11a8 C1020000 		.4byte	.LASF130
 3078 11ac 02       		.byte	0x2
ARM GAS  C:\Users\IDONNO~1.SON\AppData\Local\Temp\ccW0NqxC.s 			page 55


 3079 11ad 1702     		.2byte	0x217
 3080 11af 46       		.uleb128 0x46
 3081 11b0 90050000 		.4byte	.LASF131
 3082 11b4 90050000 		.4byte	.LASF131
 3083 11b8 02       		.byte	0x2
 3084 11b9 1402     		.2byte	0x214
 3085 11bb 46       		.uleb128 0x46
 3086 11bc DD060000 		.4byte	.LASF132
 3087 11c0 DD060000 		.4byte	.LASF132
 3088 11c4 02       		.byte	0x2
 3089 11c5 1502     		.2byte	0x215
 3090 11c7 46       		.uleb128 0x46
 3091 11c8 94030000 		.4byte	.LASF133
 3092 11cc 94030000 		.4byte	.LASF133
 3093 11d0 02       		.byte	0x2
 3094 11d1 1602     		.2byte	0x216
 3095 11d3 00       		.byte	0
 3096              		.section	.debug_abbrev,"",%progbits
 3097              	.Ldebug_abbrev0:
 3098 0000 01       		.uleb128 0x1
 3099 0001 11       		.uleb128 0x11
 3100 0002 01       		.byte	0x1
 3101 0003 25       		.uleb128 0x25
 3102 0004 0E       		.uleb128 0xe
 3103 0005 13       		.uleb128 0x13
 3104 0006 0B       		.uleb128 0xb
 3105 0007 03       		.uleb128 0x3
 3106 0008 0E       		.uleb128 0xe
 3107 0009 1B       		.uleb128 0x1b
 3108 000a 0E       		.uleb128 0xe
 3109 000b 55       		.uleb128 0x55
 3110 000c 17       		.uleb128 0x17
 3111 000d 11       		.uleb128 0x11
 3112 000e 01       		.uleb128 0x1
 3113 000f 10       		.uleb128 0x10
 3114 0010 17       		.uleb128 0x17
 3115 0011 00       		.byte	0
 3116 0012 00       		.byte	0
 3117 0013 02       		.uleb128 0x2
 3118 0014 24       		.uleb128 0x24
 3119 0015 00       		.byte	0
 3120 0016 0B       		.uleb128 0xb
 3121 0017 0B       		.uleb128 0xb
 3122 0018 3E       		.uleb128 0x3e
 3123 0019 0B       		.uleb128 0xb
 3124 001a 03       		.uleb128 0x3
 3125 001b 08       		.uleb128 0x8
 3126 001c 00       		.byte	0
 3127 001d 00       		.byte	0
 3128 001e 03       		.uleb128 0x3
 3129 001f 24       		.uleb128 0x24
 3130 0020 00       		.byte	0
 3131 0021 0B       		.uleb128 0xb
 3132 0022 0B       		.uleb128 0xb
 3133 0023 3E       		.uleb128 0x3e
 3134 0024 0B       		.uleb128 0xb
 3135 0025 03       		.uleb128 0x3
ARM GAS  C:\Users\IDONNO~1.SON\AppData\Local\Temp\ccW0NqxC.s 			page 56


 3136 0026 0E       		.uleb128 0xe
 3137 0027 00       		.byte	0
 3138 0028 00       		.byte	0
 3139 0029 04       		.uleb128 0x4
 3140 002a 16       		.uleb128 0x16
 3141 002b 00       		.byte	0
 3142 002c 03       		.uleb128 0x3
 3143 002d 0E       		.uleb128 0xe
 3144 002e 3A       		.uleb128 0x3a
 3145 002f 0B       		.uleb128 0xb
 3146 0030 3B       		.uleb128 0x3b
 3147 0031 0B       		.uleb128 0xb
 3148 0032 49       		.uleb128 0x49
 3149 0033 13       		.uleb128 0x13
 3150 0034 00       		.byte	0
 3151 0035 00       		.byte	0
 3152 0036 05       		.uleb128 0x5
 3153 0037 35       		.uleb128 0x35
 3154 0038 00       		.byte	0
 3155 0039 49       		.uleb128 0x49
 3156 003a 13       		.uleb128 0x13
 3157 003b 00       		.byte	0
 3158 003c 00       		.byte	0
 3159 003d 06       		.uleb128 0x6
 3160 003e 13       		.uleb128 0x13
 3161 003f 01       		.byte	0x1
 3162 0040 03       		.uleb128 0x3
 3163 0041 0E       		.uleb128 0xe
 3164 0042 0B       		.uleb128 0xb
 3165 0043 0B       		.uleb128 0xb
 3166 0044 3A       		.uleb128 0x3a
 3167 0045 0B       		.uleb128 0xb
 3168 0046 3B       		.uleb128 0x3b
 3169 0047 0B       		.uleb128 0xb
 3170 0048 01       		.uleb128 0x1
 3171 0049 13       		.uleb128 0x13
 3172 004a 00       		.byte	0
 3173 004b 00       		.byte	0
 3174 004c 07       		.uleb128 0x7
 3175 004d 0D       		.uleb128 0xd
 3176 004e 00       		.byte	0
 3177 004f 03       		.uleb128 0x3
 3178 0050 0E       		.uleb128 0xe
 3179 0051 3A       		.uleb128 0x3a
 3180 0052 0B       		.uleb128 0xb
 3181 0053 3B       		.uleb128 0x3b
 3182 0054 0B       		.uleb128 0xb
 3183 0055 49       		.uleb128 0x49
 3184 0056 13       		.uleb128 0x13
 3185 0057 38       		.uleb128 0x38
 3186 0058 0B       		.uleb128 0xb
 3187 0059 00       		.byte	0
 3188 005a 00       		.byte	0
 3189 005b 08       		.uleb128 0x8
 3190 005c 0D       		.uleb128 0xd
 3191 005d 00       		.byte	0
 3192 005e 03       		.uleb128 0x3
ARM GAS  C:\Users\IDONNO~1.SON\AppData\Local\Temp\ccW0NqxC.s 			page 57


 3193 005f 08       		.uleb128 0x8
 3194 0060 3A       		.uleb128 0x3a
 3195 0061 0B       		.uleb128 0xb
 3196 0062 3B       		.uleb128 0x3b
 3197 0063 05       		.uleb128 0x5
 3198 0064 49       		.uleb128 0x49
 3199 0065 13       		.uleb128 0x13
 3200 0066 38       		.uleb128 0x38
 3201 0067 0B       		.uleb128 0xb
 3202 0068 00       		.byte	0
 3203 0069 00       		.byte	0
 3204 006a 09       		.uleb128 0x9
 3205 006b 0D       		.uleb128 0xd
 3206 006c 00       		.byte	0
 3207 006d 03       		.uleb128 0x3
 3208 006e 0E       		.uleb128 0xe
 3209 006f 3A       		.uleb128 0x3a
 3210 0070 0B       		.uleb128 0xb
 3211 0071 3B       		.uleb128 0x3b
 3212 0072 05       		.uleb128 0x5
 3213 0073 49       		.uleb128 0x49
 3214 0074 13       		.uleb128 0x13
 3215 0075 38       		.uleb128 0x38
 3216 0076 0B       		.uleb128 0xb
 3217 0077 00       		.byte	0
 3218 0078 00       		.byte	0
 3219 0079 0A       		.uleb128 0xa
 3220 007a 0F       		.uleb128 0xf
 3221 007b 00       		.byte	0
 3222 007c 0B       		.uleb128 0xb
 3223 007d 0B       		.uleb128 0xb
 3224 007e 49       		.uleb128 0x49
 3225 007f 13       		.uleb128 0x13
 3226 0080 00       		.byte	0
 3227 0081 00       		.byte	0
 3228 0082 0B       		.uleb128 0xb
 3229 0083 13       		.uleb128 0x13
 3230 0084 01       		.byte	0x1
 3231 0085 03       		.uleb128 0x3
 3232 0086 0E       		.uleb128 0xe
 3233 0087 0B       		.uleb128 0xb
 3234 0088 0B       		.uleb128 0xb
 3235 0089 3A       		.uleb128 0x3a
 3236 008a 0B       		.uleb128 0xb
 3237 008b 3B       		.uleb128 0x3b
 3238 008c 05       		.uleb128 0x5
 3239 008d 01       		.uleb128 0x1
 3240 008e 13       		.uleb128 0x13
 3241 008f 00       		.byte	0
 3242 0090 00       		.byte	0
 3243 0091 0C       		.uleb128 0xc
 3244 0092 15       		.uleb128 0x15
 3245 0093 01       		.byte	0x1
 3246 0094 27       		.uleb128 0x27
 3247 0095 19       		.uleb128 0x19
 3248 0096 01       		.uleb128 0x1
 3249 0097 13       		.uleb128 0x13
ARM GAS  C:\Users\IDONNO~1.SON\AppData\Local\Temp\ccW0NqxC.s 			page 58


 3250 0098 00       		.byte	0
 3251 0099 00       		.byte	0
 3252 009a 0D       		.uleb128 0xd
 3253 009b 05       		.uleb128 0x5
 3254 009c 00       		.byte	0
 3255 009d 49       		.uleb128 0x49
 3256 009e 13       		.uleb128 0x13
 3257 009f 00       		.byte	0
 3258 00a0 00       		.byte	0
 3259 00a1 0E       		.uleb128 0xe
 3260 00a2 0F       		.uleb128 0xf
 3261 00a3 00       		.byte	0
 3262 00a4 0B       		.uleb128 0xb
 3263 00a5 0B       		.uleb128 0xb
 3264 00a6 00       		.byte	0
 3265 00a7 00       		.byte	0
 3266 00a8 0F       		.uleb128 0xf
 3267 00a9 13       		.uleb128 0x13
 3268 00aa 01       		.byte	0x1
 3269 00ab 03       		.uleb128 0x3
 3270 00ac 0E       		.uleb128 0xe
 3271 00ad 0B       		.uleb128 0xb
 3272 00ae 05       		.uleb128 0x5
 3273 00af 3A       		.uleb128 0x3a
 3274 00b0 0B       		.uleb128 0xb
 3275 00b1 3B       		.uleb128 0x3b
 3276 00b2 05       		.uleb128 0x5
 3277 00b3 01       		.uleb128 0x1
 3278 00b4 13       		.uleb128 0x13
 3279 00b5 00       		.byte	0
 3280 00b6 00       		.byte	0
 3281 00b7 10       		.uleb128 0x10
 3282 00b8 0D       		.uleb128 0xd
 3283 00b9 00       		.byte	0
 3284 00ba 03       		.uleb128 0x3
 3285 00bb 08       		.uleb128 0x8
 3286 00bc 3A       		.uleb128 0x3a
 3287 00bd 0B       		.uleb128 0xb
 3288 00be 3B       		.uleb128 0x3b
 3289 00bf 0B       		.uleb128 0xb
 3290 00c0 49       		.uleb128 0x49
 3291 00c1 13       		.uleb128 0x13
 3292 00c2 38       		.uleb128 0x38
 3293 00c3 0B       		.uleb128 0xb
 3294 00c4 00       		.byte	0
 3295 00c5 00       		.byte	0
 3296 00c6 11       		.uleb128 0x11
 3297 00c7 13       		.uleb128 0x13
 3298 00c8 01       		.byte	0x1
 3299 00c9 0B       		.uleb128 0xb
 3300 00ca 0B       		.uleb128 0xb
 3301 00cb 3A       		.uleb128 0x3a
 3302 00cc 0B       		.uleb128 0xb
 3303 00cd 3B       		.uleb128 0x3b
 3304 00ce 0B       		.uleb128 0xb
 3305 00cf 01       		.uleb128 0x1
 3306 00d0 13       		.uleb128 0x13
ARM GAS  C:\Users\IDONNO~1.SON\AppData\Local\Temp\ccW0NqxC.s 			page 59


 3307 00d1 00       		.byte	0
 3308 00d2 00       		.byte	0
 3309 00d3 12       		.uleb128 0x12
 3310 00d4 17       		.uleb128 0x17
 3311 00d5 01       		.byte	0x1
 3312 00d6 0B       		.uleb128 0xb
 3313 00d7 0B       		.uleb128 0xb
 3314 00d8 3A       		.uleb128 0x3a
 3315 00d9 0B       		.uleb128 0xb
 3316 00da 3B       		.uleb128 0x3b
 3317 00db 0B       		.uleb128 0xb
 3318 00dc 01       		.uleb128 0x1
 3319 00dd 13       		.uleb128 0x13
 3320 00de 00       		.byte	0
 3321 00df 00       		.byte	0
 3322 00e0 13       		.uleb128 0x13
 3323 00e1 0D       		.uleb128 0xd
 3324 00e2 00       		.byte	0
 3325 00e3 03       		.uleb128 0x3
 3326 00e4 0E       		.uleb128 0xe
 3327 00e5 3A       		.uleb128 0x3a
 3328 00e6 0B       		.uleb128 0xb
 3329 00e7 3B       		.uleb128 0x3b
 3330 00e8 05       		.uleb128 0x5
 3331 00e9 49       		.uleb128 0x49
 3332 00ea 13       		.uleb128 0x13
 3333 00eb 00       		.byte	0
 3334 00ec 00       		.byte	0
 3335 00ed 14       		.uleb128 0x14
 3336 00ee 26       		.uleb128 0x26
 3337 00ef 00       		.byte	0
 3338 00f0 49       		.uleb128 0x49
 3339 00f1 13       		.uleb128 0x13
 3340 00f2 00       		.byte	0
 3341 00f3 00       		.byte	0
 3342 00f4 15       		.uleb128 0x15
 3343 00f5 01       		.uleb128 0x1
 3344 00f6 01       		.byte	0x1
 3345 00f7 49       		.uleb128 0x49
 3346 00f8 13       		.uleb128 0x13
 3347 00f9 01       		.uleb128 0x1
 3348 00fa 13       		.uleb128 0x13
 3349 00fb 00       		.byte	0
 3350 00fc 00       		.byte	0
 3351 00fd 16       		.uleb128 0x16
 3352 00fe 21       		.uleb128 0x21
 3353 00ff 00       		.byte	0
 3354 0100 49       		.uleb128 0x49
 3355 0101 13       		.uleb128 0x13
 3356 0102 2F       		.uleb128 0x2f
 3357 0103 0B       		.uleb128 0xb
 3358 0104 00       		.byte	0
 3359 0105 00       		.byte	0
 3360 0106 17       		.uleb128 0x17
 3361 0107 2E       		.uleb128 0x2e
 3362 0108 01       		.byte	0x1
 3363 0109 03       		.uleb128 0x3
ARM GAS  C:\Users\IDONNO~1.SON\AppData\Local\Temp\ccW0NqxC.s 			page 60


 3364 010a 0E       		.uleb128 0xe
 3365 010b 3A       		.uleb128 0x3a
 3366 010c 0B       		.uleb128 0xb
 3367 010d 3B       		.uleb128 0x3b
 3368 010e 05       		.uleb128 0x5
 3369 010f 27       		.uleb128 0x27
 3370 0110 19       		.uleb128 0x19
 3371 0111 20       		.uleb128 0x20
 3372 0112 0B       		.uleb128 0xb
 3373 0113 01       		.uleb128 0x1
 3374 0114 13       		.uleb128 0x13
 3375 0115 00       		.byte	0
 3376 0116 00       		.byte	0
 3377 0117 18       		.uleb128 0x18
 3378 0118 05       		.uleb128 0x5
 3379 0119 00       		.byte	0
 3380 011a 03       		.uleb128 0x3
 3381 011b 0E       		.uleb128 0xe
 3382 011c 3A       		.uleb128 0x3a
 3383 011d 0B       		.uleb128 0xb
 3384 011e 3B       		.uleb128 0x3b
 3385 011f 05       		.uleb128 0x5
 3386 0120 49       		.uleb128 0x49
 3387 0121 13       		.uleb128 0x13
 3388 0122 00       		.byte	0
 3389 0123 00       		.byte	0
 3390 0124 19       		.uleb128 0x19
 3391 0125 2E       		.uleb128 0x2e
 3392 0126 00       		.byte	0
 3393 0127 03       		.uleb128 0x3
 3394 0128 0E       		.uleb128 0xe
 3395 0129 3A       		.uleb128 0x3a
 3396 012a 0B       		.uleb128 0xb
 3397 012b 3B       		.uleb128 0x3b
 3398 012c 05       		.uleb128 0x5
 3399 012d 27       		.uleb128 0x27
 3400 012e 19       		.uleb128 0x19
 3401 012f 20       		.uleb128 0x20
 3402 0130 0B       		.uleb128 0xb
 3403 0131 00       		.byte	0
 3404 0132 00       		.byte	0
 3405 0133 1A       		.uleb128 0x1a
 3406 0134 05       		.uleb128 0x5
 3407 0135 00       		.byte	0
 3408 0136 03       		.uleb128 0x3
 3409 0137 08       		.uleb128 0x8
 3410 0138 3A       		.uleb128 0x3a
 3411 0139 0B       		.uleb128 0xb
 3412 013a 3B       		.uleb128 0x3b
 3413 013b 05       		.uleb128 0x5
 3414 013c 49       		.uleb128 0x49
 3415 013d 13       		.uleb128 0x13
 3416 013e 00       		.byte	0
 3417 013f 00       		.byte	0
 3418 0140 1B       		.uleb128 0x1b
 3419 0141 2E       		.uleb128 0x2e
 3420 0142 01       		.byte	0x1
ARM GAS  C:\Users\IDONNO~1.SON\AppData\Local\Temp\ccW0NqxC.s 			page 61


 3421 0143 03       		.uleb128 0x3
 3422 0144 0E       		.uleb128 0xe
 3423 0145 3A       		.uleb128 0x3a
 3424 0146 0B       		.uleb128 0xb
 3425 0147 3B       		.uleb128 0x3b
 3426 0148 05       		.uleb128 0x5
 3427 0149 27       		.uleb128 0x27
 3428 014a 19       		.uleb128 0x19
 3429 014b 49       		.uleb128 0x49
 3430 014c 13       		.uleb128 0x13
 3431 014d 20       		.uleb128 0x20
 3432 014e 0B       		.uleb128 0xb
 3433 014f 01       		.uleb128 0x1
 3434 0150 13       		.uleb128 0x13
 3435 0151 00       		.byte	0
 3436 0152 00       		.byte	0
 3437 0153 1C       		.uleb128 0x1c
 3438 0154 34       		.uleb128 0x34
 3439 0155 00       		.byte	0
 3440 0156 03       		.uleb128 0x3
 3441 0157 08       		.uleb128 0x8
 3442 0158 3A       		.uleb128 0x3a
 3443 0159 0B       		.uleb128 0xb
 3444 015a 3B       		.uleb128 0x3b
 3445 015b 05       		.uleb128 0x5
 3446 015c 49       		.uleb128 0x49
 3447 015d 13       		.uleb128 0x13
 3448 015e 00       		.byte	0
 3449 015f 00       		.byte	0
 3450 0160 1D       		.uleb128 0x1d
 3451 0161 34       		.uleb128 0x34
 3452 0162 00       		.byte	0
 3453 0163 03       		.uleb128 0x3
 3454 0164 0E       		.uleb128 0xe
 3455 0165 49       		.uleb128 0x49
 3456 0166 13       		.uleb128 0x13
 3457 0167 34       		.uleb128 0x34
 3458 0168 19       		.uleb128 0x19
 3459 0169 1C       		.uleb128 0x1c
 3460 016a 0E       		.uleb128 0xe
 3461 016b 00       		.byte	0
 3462 016c 00       		.byte	0
 3463 016d 1E       		.uleb128 0x1e
 3464 016e 2E       		.uleb128 0x2e
 3465 016f 01       		.byte	0x1
 3466 0170 3F       		.uleb128 0x3f
 3467 0171 19       		.uleb128 0x19
 3468 0172 03       		.uleb128 0x3
 3469 0173 0E       		.uleb128 0xe
 3470 0174 3A       		.uleb128 0x3a
 3471 0175 0B       		.uleb128 0xb
 3472 0176 3B       		.uleb128 0x3b
 3473 0177 0B       		.uleb128 0xb
 3474 0178 27       		.uleb128 0x27
 3475 0179 19       		.uleb128 0x19
 3476 017a 49       		.uleb128 0x49
 3477 017b 13       		.uleb128 0x13
ARM GAS  C:\Users\IDONNO~1.SON\AppData\Local\Temp\ccW0NqxC.s 			page 62


 3478 017c 20       		.uleb128 0x20
 3479 017d 0B       		.uleb128 0xb
 3480 017e 01       		.uleb128 0x1
 3481 017f 13       		.uleb128 0x13
 3482 0180 00       		.byte	0
 3483 0181 00       		.byte	0
 3484 0182 1F       		.uleb128 0x1f
 3485 0183 05       		.uleb128 0x5
 3486 0184 00       		.byte	0
 3487 0185 03       		.uleb128 0x3
 3488 0186 08       		.uleb128 0x8
 3489 0187 3A       		.uleb128 0x3a
 3490 0188 0B       		.uleb128 0xb
 3491 0189 3B       		.uleb128 0x3b
 3492 018a 0B       		.uleb128 0xb
 3493 018b 49       		.uleb128 0x49
 3494 018c 13       		.uleb128 0x13
 3495 018d 00       		.byte	0
 3496 018e 00       		.byte	0
 3497 018f 20       		.uleb128 0x20
 3498 0190 2E       		.uleb128 0x2e
 3499 0191 01       		.byte	0x1
 3500 0192 3F       		.uleb128 0x3f
 3501 0193 19       		.uleb128 0x19
 3502 0194 03       		.uleb128 0x3
 3503 0195 0E       		.uleb128 0xe
 3504 0196 3A       		.uleb128 0x3a
 3505 0197 0B       		.uleb128 0xb
 3506 0198 3B       		.uleb128 0x3b
 3507 0199 05       		.uleb128 0x5
 3508 019a 27       		.uleb128 0x27
 3509 019b 19       		.uleb128 0x19
 3510 019c 49       		.uleb128 0x49
 3511 019d 13       		.uleb128 0x13
 3512 019e 20       		.uleb128 0x20
 3513 019f 0B       		.uleb128 0xb
 3514 01a0 01       		.uleb128 0x1
 3515 01a1 13       		.uleb128 0x13
 3516 01a2 00       		.byte	0
 3517 01a3 00       		.byte	0
 3518 01a4 21       		.uleb128 0x21
 3519 01a5 2E       		.uleb128 0x2e
 3520 01a6 01       		.byte	0x1
 3521 01a7 3F       		.uleb128 0x3f
 3522 01a8 19       		.uleb128 0x19
 3523 01a9 03       		.uleb128 0x3
 3524 01aa 0E       		.uleb128 0xe
 3525 01ab 3A       		.uleb128 0x3a
 3526 01ac 0B       		.uleb128 0xb
 3527 01ad 3B       		.uleb128 0x3b
 3528 01ae 0B       		.uleb128 0xb
 3529 01af 27       		.uleb128 0x27
 3530 01b0 19       		.uleb128 0x19
 3531 01b1 11       		.uleb128 0x11
 3532 01b2 01       		.uleb128 0x1
 3533 01b3 12       		.uleb128 0x12
 3534 01b4 06       		.uleb128 0x6
ARM GAS  C:\Users\IDONNO~1.SON\AppData\Local\Temp\ccW0NqxC.s 			page 63


 3535 01b5 40       		.uleb128 0x40
 3536 01b6 18       		.uleb128 0x18
 3537 01b7 9742     		.uleb128 0x2117
 3538 01b9 19       		.uleb128 0x19
 3539 01ba 01       		.uleb128 0x1
 3540 01bb 13       		.uleb128 0x13
 3541 01bc 00       		.byte	0
 3542 01bd 00       		.byte	0
 3543 01be 22       		.uleb128 0x22
 3544 01bf 05       		.uleb128 0x5
 3545 01c0 00       		.byte	0
 3546 01c1 03       		.uleb128 0x3
 3547 01c2 08       		.uleb128 0x8
 3548 01c3 3A       		.uleb128 0x3a
 3549 01c4 0B       		.uleb128 0xb
 3550 01c5 3B       		.uleb128 0x3b
 3551 01c6 0B       		.uleb128 0xb
 3552 01c7 49       		.uleb128 0x49
 3553 01c8 13       		.uleb128 0x13
 3554 01c9 02       		.uleb128 0x2
 3555 01ca 18       		.uleb128 0x18
 3556 01cb 00       		.byte	0
 3557 01cc 00       		.byte	0
 3558 01cd 23       		.uleb128 0x23
 3559 01ce 34       		.uleb128 0x34
 3560 01cf 00       		.byte	0
 3561 01d0 03       		.uleb128 0x3
 3562 01d1 0E       		.uleb128 0xe
 3563 01d2 49       		.uleb128 0x49
 3564 01d3 13       		.uleb128 0x13
 3565 01d4 34       		.uleb128 0x34
 3566 01d5 19       		.uleb128 0x19
 3567 01d6 00       		.byte	0
 3568 01d7 00       		.byte	0
 3569 01d8 24       		.uleb128 0x24
 3570 01d9 1D       		.uleb128 0x1d
 3571 01da 01       		.byte	0x1
 3572 01db 31       		.uleb128 0x31
 3573 01dc 13       		.uleb128 0x13
 3574 01dd 11       		.uleb128 0x11
 3575 01de 01       		.uleb128 0x1
 3576 01df 12       		.uleb128 0x12
 3577 01e0 06       		.uleb128 0x6
 3578 01e1 58       		.uleb128 0x58
 3579 01e2 0B       		.uleb128 0xb
 3580 01e3 59       		.uleb128 0x59
 3581 01e4 0B       		.uleb128 0xb
 3582 01e5 00       		.byte	0
 3583 01e6 00       		.byte	0
 3584 01e7 25       		.uleb128 0x25
 3585 01e8 05       		.uleb128 0x5
 3586 01e9 00       		.byte	0
 3587 01ea 31       		.uleb128 0x31
 3588 01eb 13       		.uleb128 0x13
 3589 01ec 02       		.uleb128 0x2
 3590 01ed 17       		.uleb128 0x17
 3591 01ee 00       		.byte	0
ARM GAS  C:\Users\IDONNO~1.SON\AppData\Local\Temp\ccW0NqxC.s 			page 64


 3592 01ef 00       		.byte	0
 3593 01f0 26       		.uleb128 0x26
 3594 01f1 05       		.uleb128 0x5
 3595 01f2 00       		.byte	0
 3596 01f3 03       		.uleb128 0x3
 3597 01f4 08       		.uleb128 0x8
 3598 01f5 3A       		.uleb128 0x3a
 3599 01f6 0B       		.uleb128 0xb
 3600 01f7 3B       		.uleb128 0x3b
 3601 01f8 0B       		.uleb128 0xb
 3602 01f9 49       		.uleb128 0x49
 3603 01fa 13       		.uleb128 0x13
 3604 01fb 02       		.uleb128 0x2
 3605 01fc 17       		.uleb128 0x17
 3606 01fd 00       		.byte	0
 3607 01fe 00       		.byte	0
 3608 01ff 27       		.uleb128 0x27
 3609 0200 34       		.uleb128 0x34
 3610 0201 00       		.byte	0
 3611 0202 03       		.uleb128 0x3
 3612 0203 08       		.uleb128 0x8
 3613 0204 3A       		.uleb128 0x3a
 3614 0205 0B       		.uleb128 0xb
 3615 0206 3B       		.uleb128 0x3b
 3616 0207 0B       		.uleb128 0xb
 3617 0208 49       		.uleb128 0x49
 3618 0209 13       		.uleb128 0x13
 3619 020a 02       		.uleb128 0x2
 3620 020b 17       		.uleb128 0x17
 3621 020c 00       		.byte	0
 3622 020d 00       		.byte	0
 3623 020e 28       		.uleb128 0x28
 3624 020f 1D       		.uleb128 0x1d
 3625 0210 01       		.byte	0x1
 3626 0211 31       		.uleb128 0x31
 3627 0212 13       		.uleb128 0x13
 3628 0213 11       		.uleb128 0x11
 3629 0214 01       		.uleb128 0x1
 3630 0215 12       		.uleb128 0x12
 3631 0216 06       		.uleb128 0x6
 3632 0217 58       		.uleb128 0x58
 3633 0218 0B       		.uleb128 0xb
 3634 0219 59       		.uleb128 0x59
 3635 021a 0B       		.uleb128 0xb
 3636 021b 01       		.uleb128 0x1
 3637 021c 13       		.uleb128 0x13
 3638 021d 00       		.byte	0
 3639 021e 00       		.byte	0
 3640 021f 29       		.uleb128 0x29
 3641 0220 0B       		.uleb128 0xb
 3642 0221 01       		.byte	0x1
 3643 0222 11       		.uleb128 0x11
 3644 0223 01       		.uleb128 0x1
 3645 0224 12       		.uleb128 0x12
 3646 0225 06       		.uleb128 0x6
 3647 0226 00       		.byte	0
 3648 0227 00       		.byte	0
ARM GAS  C:\Users\IDONNO~1.SON\AppData\Local\Temp\ccW0NqxC.s 			page 65


 3649 0228 2A       		.uleb128 0x2a
 3650 0229 34       		.uleb128 0x34
 3651 022a 00       		.byte	0
 3652 022b 31       		.uleb128 0x31
 3653 022c 13       		.uleb128 0x13
 3654 022d 02       		.uleb128 0x2
 3655 022e 17       		.uleb128 0x17
 3656 022f 00       		.byte	0
 3657 0230 00       		.byte	0
 3658 0231 2B       		.uleb128 0x2b
 3659 0232 898201   		.uleb128 0x4109
 3660 0235 00       		.byte	0
 3661 0236 11       		.uleb128 0x11
 3662 0237 01       		.uleb128 0x1
 3663 0238 31       		.uleb128 0x31
 3664 0239 13       		.uleb128 0x13
 3665 023a 00       		.byte	0
 3666 023b 00       		.byte	0
 3667 023c 2C       		.uleb128 0x2c
 3668 023d 1D       		.uleb128 0x1d
 3669 023e 01       		.byte	0x1
 3670 023f 31       		.uleb128 0x31
 3671 0240 13       		.uleb128 0x13
 3672 0241 11       		.uleb128 0x11
 3673 0242 01       		.uleb128 0x1
 3674 0243 12       		.uleb128 0x12
 3675 0244 06       		.uleb128 0x6
 3676 0245 58       		.uleb128 0x58
 3677 0246 0B       		.uleb128 0xb
 3678 0247 59       		.uleb128 0x59
 3679 0248 05       		.uleb128 0x5
 3680 0249 00       		.byte	0
 3681 024a 00       		.byte	0
 3682 024b 2D       		.uleb128 0x2d
 3683 024c 34       		.uleb128 0x34
 3684 024d 00       		.byte	0
 3685 024e 31       		.uleb128 0x31
 3686 024f 13       		.uleb128 0x13
 3687 0250 00       		.byte	0
 3688 0251 00       		.byte	0
 3689 0252 2E       		.uleb128 0x2e
 3690 0253 898201   		.uleb128 0x4109
 3691 0256 01       		.byte	0x1
 3692 0257 11       		.uleb128 0x11
 3693 0258 01       		.uleb128 0x1
 3694 0259 31       		.uleb128 0x31
 3695 025a 13       		.uleb128 0x13
 3696 025b 01       		.uleb128 0x1
 3697 025c 13       		.uleb128 0x13
 3698 025d 00       		.byte	0
 3699 025e 00       		.byte	0
 3700 025f 2F       		.uleb128 0x2f
 3701 0260 8A8201   		.uleb128 0x410a
 3702 0263 00       		.byte	0
 3703 0264 02       		.uleb128 0x2
 3704 0265 18       		.uleb128 0x18
 3705 0266 9142     		.uleb128 0x2111
ARM GAS  C:\Users\IDONNO~1.SON\AppData\Local\Temp\ccW0NqxC.s 			page 66


 3706 0268 18       		.uleb128 0x18
 3707 0269 00       		.byte	0
 3708 026a 00       		.byte	0
 3709 026b 30       		.uleb128 0x30
 3710 026c 2E       		.uleb128 0x2e
 3711 026d 01       		.byte	0x1
 3712 026e 3F       		.uleb128 0x3f
 3713 026f 19       		.uleb128 0x19
 3714 0270 03       		.uleb128 0x3
 3715 0271 0E       		.uleb128 0xe
 3716 0272 3A       		.uleb128 0x3a
 3717 0273 0B       		.uleb128 0xb
 3718 0274 3B       		.uleb128 0x3b
 3719 0275 0B       		.uleb128 0xb
 3720 0276 27       		.uleb128 0x27
 3721 0277 19       		.uleb128 0x19
 3722 0278 49       		.uleb128 0x49
 3723 0279 13       		.uleb128 0x13
 3724 027a 11       		.uleb128 0x11
 3725 027b 01       		.uleb128 0x1
 3726 027c 12       		.uleb128 0x12
 3727 027d 06       		.uleb128 0x6
 3728 027e 40       		.uleb128 0x40
 3729 027f 18       		.uleb128 0x18
 3730 0280 9742     		.uleb128 0x2117
 3731 0282 19       		.uleb128 0x19
 3732 0283 01       		.uleb128 0x1
 3733 0284 13       		.uleb128 0x13
 3734 0285 00       		.byte	0
 3735 0286 00       		.byte	0
 3736 0287 31       		.uleb128 0x31
 3737 0288 34       		.uleb128 0x34
 3738 0289 00       		.byte	0
 3739 028a 03       		.uleb128 0x3
 3740 028b 08       		.uleb128 0x8
 3741 028c 3A       		.uleb128 0x3a
 3742 028d 0B       		.uleb128 0xb
 3743 028e 3B       		.uleb128 0x3b
 3744 028f 0B       		.uleb128 0xb
 3745 0290 49       		.uleb128 0x49
 3746 0291 13       		.uleb128 0x13
 3747 0292 00       		.byte	0
 3748 0293 00       		.byte	0
 3749 0294 32       		.uleb128 0x32
 3750 0295 1D       		.uleb128 0x1d
 3751 0296 01       		.byte	0x1
 3752 0297 31       		.uleb128 0x31
 3753 0298 13       		.uleb128 0x13
 3754 0299 52       		.uleb128 0x52
 3755 029a 01       		.uleb128 0x1
 3756 029b 55       		.uleb128 0x55
 3757 029c 17       		.uleb128 0x17
 3758 029d 58       		.uleb128 0x58
 3759 029e 0B       		.uleb128 0xb
 3760 029f 59       		.uleb128 0x59
 3761 02a0 0B       		.uleb128 0xb
 3762 02a1 01       		.uleb128 0x1
ARM GAS  C:\Users\IDONNO~1.SON\AppData\Local\Temp\ccW0NqxC.s 			page 67


 3763 02a2 13       		.uleb128 0x13
 3764 02a3 00       		.byte	0
 3765 02a4 00       		.byte	0
 3766 02a5 33       		.uleb128 0x33
 3767 02a6 0B       		.uleb128 0xb
 3768 02a7 01       		.byte	0x1
 3769 02a8 55       		.uleb128 0x55
 3770 02a9 17       		.uleb128 0x17
 3771 02aa 00       		.byte	0
 3772 02ab 00       		.byte	0
 3773 02ac 34       		.uleb128 0x34
 3774 02ad 898201   		.uleb128 0x4109
 3775 02b0 01       		.byte	0x1
 3776 02b1 11       		.uleb128 0x11
 3777 02b2 01       		.uleb128 0x1
 3778 02b3 31       		.uleb128 0x31
 3779 02b4 13       		.uleb128 0x13
 3780 02b5 00       		.byte	0
 3781 02b6 00       		.byte	0
 3782 02b7 35       		.uleb128 0x35
 3783 02b8 1D       		.uleb128 0x1d
 3784 02b9 01       		.byte	0x1
 3785 02ba 31       		.uleb128 0x31
 3786 02bb 13       		.uleb128 0x13
 3787 02bc 52       		.uleb128 0x52
 3788 02bd 01       		.uleb128 0x1
 3789 02be 55       		.uleb128 0x55
 3790 02bf 17       		.uleb128 0x17
 3791 02c0 58       		.uleb128 0x58
 3792 02c1 0B       		.uleb128 0xb
 3793 02c2 59       		.uleb128 0x59
 3794 02c3 0B       		.uleb128 0xb
 3795 02c4 00       		.byte	0
 3796 02c5 00       		.byte	0
 3797 02c6 36       		.uleb128 0x36
 3798 02c7 1D       		.uleb128 0x1d
 3799 02c8 01       		.byte	0x1
 3800 02c9 31       		.uleb128 0x31
 3801 02ca 13       		.uleb128 0x13
 3802 02cb 52       		.uleb128 0x52
 3803 02cc 01       		.uleb128 0x1
 3804 02cd 55       		.uleb128 0x55
 3805 02ce 17       		.uleb128 0x17
 3806 02cf 58       		.uleb128 0x58
 3807 02d0 0B       		.uleb128 0xb
 3808 02d1 59       		.uleb128 0x59
 3809 02d2 05       		.uleb128 0x5
 3810 02d3 00       		.byte	0
 3811 02d4 00       		.byte	0
 3812 02d5 37       		.uleb128 0x37
 3813 02d6 2E       		.uleb128 0x2e
 3814 02d7 01       		.byte	0x1
 3815 02d8 31       		.uleb128 0x31
 3816 02d9 13       		.uleb128 0x13
 3817 02da 11       		.uleb128 0x11
 3818 02db 01       		.uleb128 0x1
 3819 02dc 12       		.uleb128 0x12
ARM GAS  C:\Users\IDONNO~1.SON\AppData\Local\Temp\ccW0NqxC.s 			page 68


 3820 02dd 06       		.uleb128 0x6
 3821 02de 40       		.uleb128 0x40
 3822 02df 18       		.uleb128 0x18
 3823 02e0 9742     		.uleb128 0x2117
 3824 02e2 19       		.uleb128 0x19
 3825 02e3 01       		.uleb128 0x1
 3826 02e4 13       		.uleb128 0x13
 3827 02e5 00       		.byte	0
 3828 02e6 00       		.byte	0
 3829 02e7 38       		.uleb128 0x38
 3830 02e8 05       		.uleb128 0x5
 3831 02e9 00       		.byte	0
 3832 02ea 03       		.uleb128 0x3
 3833 02eb 0E       		.uleb128 0xe
 3834 02ec 3A       		.uleb128 0x3a
 3835 02ed 0B       		.uleb128 0xb
 3836 02ee 3B       		.uleb128 0x3b
 3837 02ef 0B       		.uleb128 0xb
 3838 02f0 49       		.uleb128 0x49
 3839 02f1 13       		.uleb128 0x13
 3840 02f2 02       		.uleb128 0x2
 3841 02f3 17       		.uleb128 0x17
 3842 02f4 00       		.byte	0
 3843 02f5 00       		.byte	0
 3844 02f6 39       		.uleb128 0x39
 3845 02f7 05       		.uleb128 0x5
 3846 02f8 00       		.byte	0
 3847 02f9 31       		.uleb128 0x31
 3848 02fa 13       		.uleb128 0x13
 3849 02fb 00       		.byte	0
 3850 02fc 00       		.byte	0
 3851 02fd 3A       		.uleb128 0x3a
 3852 02fe 1D       		.uleb128 0x1d
 3853 02ff 01       		.byte	0x1
 3854 0300 31       		.uleb128 0x31
 3855 0301 13       		.uleb128 0x13
 3856 0302 52       		.uleb128 0x52
 3857 0303 01       		.uleb128 0x1
 3858 0304 55       		.uleb128 0x55
 3859 0305 17       		.uleb128 0x17
 3860 0306 58       		.uleb128 0x58
 3861 0307 0B       		.uleb128 0xb
 3862 0308 59       		.uleb128 0x59
 3863 0309 05       		.uleb128 0x5
 3864 030a 01       		.uleb128 0x1
 3865 030b 13       		.uleb128 0x13
 3866 030c 00       		.byte	0
 3867 030d 00       		.byte	0
 3868 030e 3B       		.uleb128 0x3b
 3869 030f 898201   		.uleb128 0x4109
 3870 0312 01       		.byte	0x1
 3871 0313 11       		.uleb128 0x11
 3872 0314 01       		.uleb128 0x1
 3873 0315 9542     		.uleb128 0x2115
 3874 0317 19       		.uleb128 0x19
 3875 0318 31       		.uleb128 0x31
 3876 0319 13       		.uleb128 0x13
ARM GAS  C:\Users\IDONNO~1.SON\AppData\Local\Temp\ccW0NqxC.s 			page 69


 3877 031a 00       		.byte	0
 3878 031b 00       		.byte	0
 3879 031c 3C       		.uleb128 0x3c
 3880 031d 2E       		.uleb128 0x2e
 3881 031e 01       		.byte	0x1
 3882 031f 3F       		.uleb128 0x3f
 3883 0320 19       		.uleb128 0x19
 3884 0321 03       		.uleb128 0x3
 3885 0322 0E       		.uleb128 0xe
 3886 0323 3A       		.uleb128 0x3a
 3887 0324 0B       		.uleb128 0xb
 3888 0325 3B       		.uleb128 0x3b
 3889 0326 05       		.uleb128 0x5
 3890 0327 27       		.uleb128 0x27
 3891 0328 19       		.uleb128 0x19
 3892 0329 11       		.uleb128 0x11
 3893 032a 01       		.uleb128 0x1
 3894 032b 12       		.uleb128 0x12
 3895 032c 06       		.uleb128 0x6
 3896 032d 40       		.uleb128 0x40
 3897 032e 18       		.uleb128 0x18
 3898 032f 9742     		.uleb128 0x2117
 3899 0331 19       		.uleb128 0x19
 3900 0332 01       		.uleb128 0x1
 3901 0333 13       		.uleb128 0x13
 3902 0334 00       		.byte	0
 3903 0335 00       		.byte	0
 3904 0336 3D       		.uleb128 0x3d
 3905 0337 05       		.uleb128 0x5
 3906 0338 00       		.byte	0
 3907 0339 03       		.uleb128 0x3
 3908 033a 08       		.uleb128 0x8
 3909 033b 3A       		.uleb128 0x3a
 3910 033c 0B       		.uleb128 0xb
 3911 033d 3B       		.uleb128 0x3b
 3912 033e 05       		.uleb128 0x5
 3913 033f 49       		.uleb128 0x49
 3914 0340 13       		.uleb128 0x13
 3915 0341 02       		.uleb128 0x2
 3916 0342 17       		.uleb128 0x17
 3917 0343 00       		.byte	0
 3918 0344 00       		.byte	0
 3919 0345 3E       		.uleb128 0x3e
 3920 0346 1D       		.uleb128 0x1d
 3921 0347 01       		.byte	0x1
 3922 0348 31       		.uleb128 0x31
 3923 0349 13       		.uleb128 0x13
 3924 034a 11       		.uleb128 0x11
 3925 034b 01       		.uleb128 0x1
 3926 034c 12       		.uleb128 0x12
 3927 034d 06       		.uleb128 0x6
 3928 034e 58       		.uleb128 0x58
 3929 034f 0B       		.uleb128 0xb
 3930 0350 59       		.uleb128 0x59
 3931 0351 05       		.uleb128 0x5
 3932 0352 01       		.uleb128 0x1
 3933 0353 13       		.uleb128 0x13
ARM GAS  C:\Users\IDONNO~1.SON\AppData\Local\Temp\ccW0NqxC.s 			page 70


 3934 0354 00       		.byte	0
 3935 0355 00       		.byte	0
 3936 0356 3F       		.uleb128 0x3f
 3937 0357 34       		.uleb128 0x34
 3938 0358 00       		.byte	0
 3939 0359 03       		.uleb128 0x3
 3940 035a 08       		.uleb128 0x8
 3941 035b 3A       		.uleb128 0x3a
 3942 035c 0B       		.uleb128 0xb
 3943 035d 3B       		.uleb128 0x3b
 3944 035e 05       		.uleb128 0x5
 3945 035f 49       		.uleb128 0x49
 3946 0360 13       		.uleb128 0x13
 3947 0361 02       		.uleb128 0x2
 3948 0362 18       		.uleb128 0x18
 3949 0363 00       		.byte	0
 3950 0364 00       		.byte	0
 3951 0365 40       		.uleb128 0x40
 3952 0366 898201   		.uleb128 0x4109
 3953 0369 00       		.byte	0
 3954 036a 11       		.uleb128 0x11
 3955 036b 01       		.uleb128 0x1
 3956 036c 9542     		.uleb128 0x2115
 3957 036e 19       		.uleb128 0x19
 3958 036f 31       		.uleb128 0x31
 3959 0370 13       		.uleb128 0x13
 3960 0371 00       		.byte	0
 3961 0372 00       		.byte	0
 3962 0373 41       		.uleb128 0x41
 3963 0374 2E       		.uleb128 0x2e
 3964 0375 01       		.byte	0x1
 3965 0376 3F       		.uleb128 0x3f
 3966 0377 19       		.uleb128 0x19
 3967 0378 03       		.uleb128 0x3
 3968 0379 0E       		.uleb128 0xe
 3969 037a 3A       		.uleb128 0x3a
 3970 037b 0B       		.uleb128 0xb
 3971 037c 3B       		.uleb128 0x3b
 3972 037d 05       		.uleb128 0x5
 3973 037e 27       		.uleb128 0x27
 3974 037f 19       		.uleb128 0x19
 3975 0380 49       		.uleb128 0x49
 3976 0381 13       		.uleb128 0x13
 3977 0382 11       		.uleb128 0x11
 3978 0383 01       		.uleb128 0x1
 3979 0384 12       		.uleb128 0x12
 3980 0385 06       		.uleb128 0x6
 3981 0386 40       		.uleb128 0x40
 3982 0387 18       		.uleb128 0x18
 3983 0388 9742     		.uleb128 0x2117
 3984 038a 19       		.uleb128 0x19
 3985 038b 01       		.uleb128 0x1
 3986 038c 13       		.uleb128 0x13
 3987 038d 00       		.byte	0
 3988 038e 00       		.byte	0
 3989 038f 42       		.uleb128 0x42
 3990 0390 34       		.uleb128 0x34
ARM GAS  C:\Users\IDONNO~1.SON\AppData\Local\Temp\ccW0NqxC.s 			page 71


 3991 0391 00       		.byte	0
 3992 0392 03       		.uleb128 0x3
 3993 0393 08       		.uleb128 0x8
 3994 0394 3A       		.uleb128 0x3a
 3995 0395 0B       		.uleb128 0xb
 3996 0396 3B       		.uleb128 0x3b
 3997 0397 05       		.uleb128 0x5
 3998 0398 49       		.uleb128 0x49
 3999 0399 13       		.uleb128 0x13
 4000 039a 02       		.uleb128 0x2
 4001 039b 17       		.uleb128 0x17
 4002 039c 00       		.byte	0
 4003 039d 00       		.byte	0
 4004 039e 43       		.uleb128 0x43
 4005 039f 0B       		.uleb128 0xb
 4006 03a0 01       		.byte	0x1
 4007 03a1 11       		.uleb128 0x11
 4008 03a2 01       		.uleb128 0x1
 4009 03a3 12       		.uleb128 0x12
 4010 03a4 06       		.uleb128 0x6
 4011 03a5 01       		.uleb128 0x1
 4012 03a6 13       		.uleb128 0x13
 4013 03a7 00       		.byte	0
 4014 03a8 00       		.byte	0
 4015 03a9 44       		.uleb128 0x44
 4016 03aa 34       		.uleb128 0x34
 4017 03ab 00       		.byte	0
 4018 03ac 03       		.uleb128 0x3
 4019 03ad 0E       		.uleb128 0xe
 4020 03ae 3A       		.uleb128 0x3a
 4021 03af 0B       		.uleb128 0xb
 4022 03b0 3B       		.uleb128 0x3b
 4023 03b1 05       		.uleb128 0x5
 4024 03b2 49       		.uleb128 0x49
 4025 03b3 13       		.uleb128 0x13
 4026 03b4 3F       		.uleb128 0x3f
 4027 03b5 19       		.uleb128 0x19
 4028 03b6 3C       		.uleb128 0x3c
 4029 03b7 19       		.uleb128 0x19
 4030 03b8 00       		.byte	0
 4031 03b9 00       		.byte	0
 4032 03ba 45       		.uleb128 0x45
 4033 03bb 34       		.uleb128 0x34
 4034 03bc 00       		.byte	0
 4035 03bd 03       		.uleb128 0x3
 4036 03be 08       		.uleb128 0x8
 4037 03bf 3A       		.uleb128 0x3a
 4038 03c0 0B       		.uleb128 0xb
 4039 03c1 3B       		.uleb128 0x3b
 4040 03c2 05       		.uleb128 0x5
 4041 03c3 49       		.uleb128 0x49
 4042 03c4 13       		.uleb128 0x13
 4043 03c5 3F       		.uleb128 0x3f
 4044 03c6 19       		.uleb128 0x19
 4045 03c7 3C       		.uleb128 0x3c
 4046 03c8 19       		.uleb128 0x19
 4047 03c9 00       		.byte	0
ARM GAS  C:\Users\IDONNO~1.SON\AppData\Local\Temp\ccW0NqxC.s 			page 72


 4048 03ca 00       		.byte	0
 4049 03cb 46       		.uleb128 0x46
 4050 03cc 2E       		.uleb128 0x2e
 4051 03cd 00       		.byte	0
 4052 03ce 3F       		.uleb128 0x3f
 4053 03cf 19       		.uleb128 0x19
 4054 03d0 3C       		.uleb128 0x3c
 4055 03d1 19       		.uleb128 0x19
 4056 03d2 6E       		.uleb128 0x6e
 4057 03d3 0E       		.uleb128 0xe
 4058 03d4 03       		.uleb128 0x3
 4059 03d5 0E       		.uleb128 0xe
 4060 03d6 3A       		.uleb128 0x3a
 4061 03d7 0B       		.uleb128 0xb
 4062 03d8 3B       		.uleb128 0x3b
 4063 03d9 05       		.uleb128 0x5
 4064 03da 00       		.byte	0
 4065 03db 00       		.byte	0
 4066 03dc 00       		.byte	0
 4067              		.section	.debug_loc,"",%progbits
 4068              	.Ldebug_loc0:
 4069              	.LLST0:
 4070 0000 00000000 		.4byte	.LVL0
 4071 0004 04000000 		.4byte	.LVL1
 4072 0008 0100     		.2byte	0x1
 4073 000a 50       		.byte	0x50
 4074 000b 00000000 		.4byte	0
 4075 000f 00000000 		.4byte	0
 4076              	.LLST1:
 4077 0013 00000000 		.4byte	.LVL2
 4078 0017 12000000 		.4byte	.LVL5
 4079 001b 0100     		.2byte	0x1
 4080 001d 50       		.byte	0x50
 4081 001e 12000000 		.4byte	.LVL5
 4082 0022 26000000 		.4byte	.LVL11
 4083 0026 0100     		.2byte	0x1
 4084 0028 54       		.byte	0x54
 4085 0029 26000000 		.4byte	.LVL11
 4086 002d 28000000 		.4byte	.LFE221
 4087 0031 0400     		.2byte	0x4
 4088 0033 F3       		.byte	0xf3
 4089 0034 01       		.uleb128 0x1
 4090 0035 50       		.byte	0x50
 4091 0036 9F       		.byte	0x9f
 4092 0037 00000000 		.4byte	0
 4093 003b 00000000 		.4byte	0
 4094              	.LLST2:
 4095 003f 00000000 		.4byte	.LVL2
 4096 0043 12000000 		.4byte	.LVL5
 4097 0047 0100     		.2byte	0x1
 4098 0049 51       		.byte	0x51
 4099 004a 12000000 		.4byte	.LVL5
 4100 004e 28000000 		.4byte	.LFE221
 4101 0052 0400     		.2byte	0x4
 4102 0054 F3       		.byte	0xf3
 4103 0055 01       		.uleb128 0x1
 4104 0056 51       		.byte	0x51
ARM GAS  C:\Users\IDONNO~1.SON\AppData\Local\Temp\ccW0NqxC.s 			page 73


 4105 0057 9F       		.byte	0x9f
 4106 0058 00000000 		.4byte	0
 4107 005c 00000000 		.4byte	0
 4108              	.LLST3:
 4109 0060 04000000 		.4byte	.LVL3
 4110 0064 20000000 		.4byte	.LVL9
 4111 0068 0100     		.2byte	0x1
 4112 006a 55       		.byte	0x55
 4113 006b 20000000 		.4byte	.LVL9
 4114 006f 24000000 		.4byte	.LVL10
 4115 0073 0300     		.2byte	0x3
 4116 0075 75       		.byte	0x75
 4117 0076 7F       		.sleb128 -1
 4118 0077 9F       		.byte	0x9f
 4119 0078 24000000 		.4byte	.LVL10
 4120 007c 28000000 		.4byte	.LFE221
 4121 0080 0100     		.2byte	0x1
 4122 0082 55       		.byte	0x55
 4123 0083 00000000 		.4byte	0
 4124 0087 00000000 		.4byte	0
 4125              	.LLST4:
 4126 008b 12000000 		.4byte	.LVL5
 4127 008f 1A000000 		.4byte	.LVL7
 4128 0093 0100     		.2byte	0x1
 4129 0095 54       		.byte	0x54
 4130 0096 00000000 		.4byte	0
 4131 009a 00000000 		.4byte	0
 4132              	.LLST5:
 4133 009e 14000000 		.4byte	.LVL6
 4134 00a2 1A000000 		.4byte	.LVL7
 4135 00a6 0100     		.2byte	0x1
 4136 00a8 50       		.byte	0x50
 4137 00a9 00000000 		.4byte	0
 4138 00ad 00000000 		.4byte	0
 4139              	.LLST6:
 4140 00b1 00000000 		.4byte	.LVL12
 4141 00b5 0B000000 		.4byte	.LVL14-1
 4142 00b9 0100     		.2byte	0x1
 4143 00bb 50       		.byte	0x50
 4144 00bc 0B000000 		.4byte	.LVL14-1
 4145 00c0 18000000 		.4byte	.LFE220
 4146 00c4 0400     		.2byte	0x4
 4147 00c6 F3       		.byte	0xf3
 4148 00c7 01       		.uleb128 0x1
 4149 00c8 50       		.byte	0x50
 4150 00c9 9F       		.byte	0x9f
 4151 00ca 00000000 		.4byte	0
 4152 00ce 00000000 		.4byte	0
 4153              	.LLST7:
 4154 00d2 00000000 		.4byte	.LVL12
 4155 00d6 0B000000 		.4byte	.LVL14-1
 4156 00da 0100     		.2byte	0x1
 4157 00dc 51       		.byte	0x51
 4158 00dd 0B000000 		.4byte	.LVL14-1
 4159 00e1 18000000 		.4byte	.LFE220
 4160 00e5 0400     		.2byte	0x4
 4161 00e7 F3       		.byte	0xf3
ARM GAS  C:\Users\IDONNO~1.SON\AppData\Local\Temp\ccW0NqxC.s 			page 74


 4162 00e8 01       		.uleb128 0x1
 4163 00e9 51       		.byte	0x51
 4164 00ea 9F       		.byte	0x9f
 4165 00eb 00000000 		.4byte	0
 4166 00ef 00000000 		.4byte	0
 4167              	.LLST8:
 4168 00f3 00000000 		.4byte	.LVL12
 4169 00f7 08000000 		.4byte	.LVL13
 4170 00fb 0300     		.2byte	0x3
 4171 00fd 08       		.byte	0x8
 4172 00fe 20       		.byte	0x20
 4173 00ff 9F       		.byte	0x9f
 4174 0100 00000000 		.4byte	0
 4175 0104 00000000 		.4byte	0
 4176              	.LLST9:
 4177 0108 10000000 		.4byte	.LVL15
 4178 010c 16000000 		.4byte	.LVL16
 4179 0110 0200     		.2byte	0x2
 4180 0112 30       		.byte	0x30
 4181 0113 9F       		.byte	0x9f
 4182 0114 00000000 		.4byte	0
 4183 0118 00000000 		.4byte	0
 4184              	.LLST10:
 4185 011c 00000000 		.4byte	.LVL17
 4186 0120 12000000 		.4byte	.LVL19
 4187 0124 0100     		.2byte	0x1
 4188 0126 50       		.byte	0x50
 4189 0127 12000000 		.4byte	.LVL19
 4190 012b 1A000000 		.4byte	.LVL21
 4191 012f 0400     		.2byte	0x4
 4192 0131 F3       		.byte	0xf3
 4193 0132 01       		.uleb128 0x1
 4194 0133 50       		.byte	0x50
 4195 0134 9F       		.byte	0x9f
 4196 0135 1A000000 		.4byte	.LVL21
 4197 0139 2E000000 		.4byte	.LVL23
 4198 013d 0100     		.2byte	0x1
 4199 013f 50       		.byte	0x50
 4200 0140 2E000000 		.4byte	.LVL23
 4201 0144 33000000 		.4byte	.LVL25-1
 4202 0148 0100     		.2byte	0x1
 4203 014a 53       		.byte	0x53
 4204 014b 33000000 		.4byte	.LVL25-1
 4205 014f 44000000 		.4byte	.LFE222
 4206 0153 0400     		.2byte	0x4
 4207 0155 F3       		.byte	0xf3
 4208 0156 01       		.uleb128 0x1
 4209 0157 50       		.byte	0x50
 4210 0158 9F       		.byte	0x9f
 4211 0159 00000000 		.4byte	0
 4212 015d 00000000 		.4byte	0
 4213              	.LLST11:
 4214 0161 00000000 		.4byte	.LVL17
 4215 0165 06000000 		.4byte	.LVL18
 4216 0169 0300     		.2byte	0x3
 4217 016b 08       		.byte	0x8
 4218 016c 20       		.byte	0x20
ARM GAS  C:\Users\IDONNO~1.SON\AppData\Local\Temp\ccW0NqxC.s 			page 75


 4219 016d 9F       		.byte	0x9f
 4220 016e 00000000 		.4byte	0
 4221 0172 00000000 		.4byte	0
 4222              	.LLST12:
 4223 0176 06000000 		.4byte	.LVL18
 4224 017a 12000000 		.4byte	.LVL19
 4225 017e 0100     		.2byte	0x1
 4226 0180 50       		.byte	0x50
 4227 0181 1A000000 		.4byte	.LVL21
 4228 0185 2E000000 		.4byte	.LVL23
 4229 0189 0100     		.2byte	0x1
 4230 018b 50       		.byte	0x50
 4231 018c 2E000000 		.4byte	.LVL23
 4232 0190 33000000 		.4byte	.LVL25-1
 4233 0194 0100     		.2byte	0x1
 4234 0196 53       		.byte	0x53
 4235 0197 33000000 		.4byte	.LVL25-1
 4236 019b 38000000 		.4byte	.LVL26
 4237 019f 0400     		.2byte	0x4
 4238 01a1 F3       		.byte	0xf3
 4239 01a2 01       		.uleb128 0x1
 4240 01a3 50       		.byte	0x50
 4241 01a4 9F       		.byte	0x9f
 4242 01a5 00000000 		.4byte	0
 4243 01a9 00000000 		.4byte	0
 4244              	.LLST13:
 4245 01ad 28000000 		.4byte	.LVL22
 4246 01b1 33000000 		.4byte	.LVL25-1
 4247 01b5 0100     		.2byte	0x1
 4248 01b7 53       		.byte	0x53
 4249 01b8 33000000 		.4byte	.LVL25-1
 4250 01bc 38000000 		.4byte	.LVL26
 4251 01c0 0400     		.2byte	0x4
 4252 01c2 F3       		.byte	0xf3
 4253 01c3 01       		.uleb128 0x1
 4254 01c4 50       		.byte	0x50
 4255 01c5 9F       		.byte	0x9f
 4256 01c6 00000000 		.4byte	0
 4257 01ca 00000000 		.4byte	0
 4258              	.LLST14:
 4259 01ce 28000000 		.4byte	.LVL22
 4260 01d2 30000000 		.4byte	.LVL24
 4261 01d6 0100     		.2byte	0x1
 4262 01d8 53       		.byte	0x53
 4263 01d9 00000000 		.4byte	0
 4264 01dd 00000000 		.4byte	0
 4265              	.LLST15:
 4266 01e1 28000000 		.4byte	.LVL22
 4267 01e5 30000000 		.4byte	.LVL24
 4268 01e9 0100     		.2byte	0x1
 4269 01eb 52       		.byte	0x52
 4270 01ec 00000000 		.4byte	0
 4271 01f0 00000000 		.4byte	0
 4272              	.LLST16:
 4273 01f4 12000000 		.4byte	.LVL19
 4274 01f8 18000000 		.4byte	.LVL20
 4275 01fc 0200     		.2byte	0x2
ARM GAS  C:\Users\IDONNO~1.SON\AppData\Local\Temp\ccW0NqxC.s 			page 76


 4276 01fe 30       		.byte	0x30
 4277 01ff 9F       		.byte	0x9f
 4278 0200 38000000 		.4byte	.LVL26
 4279 0204 3E000000 		.4byte	.LVL27
 4280 0208 0200     		.2byte	0x2
 4281 020a 30       		.byte	0x30
 4282 020b 9F       		.byte	0x9f
 4283 020c 00000000 		.4byte	0
 4284 0210 00000000 		.4byte	0
 4285              	.LLST17:
 4286 0214 00000000 		.4byte	.LVL28
 4287 0218 0C000000 		.4byte	.LVL29
 4288 021c 0100     		.2byte	0x1
 4289 021e 50       		.byte	0x50
 4290 021f 0C000000 		.4byte	.LVL29
 4291 0223 0E000000 		.4byte	.LVL30
 4292 0227 0400     		.2byte	0x4
 4293 0229 F3       		.byte	0xf3
 4294 022a 01       		.uleb128 0x1
 4295 022b 50       		.byte	0x50
 4296 022c 9F       		.byte	0x9f
 4297 022d 0E000000 		.4byte	.LVL30
 4298 0231 22000000 		.4byte	.LVL32
 4299 0235 0100     		.2byte	0x1
 4300 0237 50       		.byte	0x50
 4301 0238 22000000 		.4byte	.LVL32
 4302 023c 27000000 		.4byte	.LVL34-1
 4303 0240 0100     		.2byte	0x1
 4304 0242 53       		.byte	0x53
 4305 0243 27000000 		.4byte	.LVL34-1
 4306 0247 34000000 		.4byte	.LFE223
 4307 024b 0400     		.2byte	0x4
 4308 024d F3       		.byte	0xf3
 4309 024e 01       		.uleb128 0x1
 4310 024f 50       		.byte	0x50
 4311 0250 9F       		.byte	0x9f
 4312 0251 00000000 		.4byte	0
 4313 0255 00000000 		.4byte	0
 4314              	.LLST18:
 4315 0259 1C000000 		.4byte	.LVL31
 4316 025d 27000000 		.4byte	.LVL34-1
 4317 0261 0100     		.2byte	0x1
 4318 0263 53       		.byte	0x53
 4319 0264 27000000 		.4byte	.LVL34-1
 4320 0268 2C000000 		.4byte	.LVL35
 4321 026c 0400     		.2byte	0x4
 4322 026e F3       		.byte	0xf3
 4323 026f 01       		.uleb128 0x1
 4324 0270 50       		.byte	0x50
 4325 0271 9F       		.byte	0x9f
 4326 0272 00000000 		.4byte	0
 4327 0276 00000000 		.4byte	0
 4328              	.LLST19:
 4329 027a 1C000000 		.4byte	.LVL31
 4330 027e 24000000 		.4byte	.LVL33
 4331 0282 0100     		.2byte	0x1
 4332 0284 53       		.byte	0x53
ARM GAS  C:\Users\IDONNO~1.SON\AppData\Local\Temp\ccW0NqxC.s 			page 77


 4333 0285 00000000 		.4byte	0
 4334 0289 00000000 		.4byte	0
 4335              	.LLST20:
 4336 028d 1C000000 		.4byte	.LVL31
 4337 0291 24000000 		.4byte	.LVL33
 4338 0295 0100     		.2byte	0x1
 4339 0297 52       		.byte	0x52
 4340 0298 00000000 		.4byte	0
 4341 029c 00000000 		.4byte	0
 4342              	.LLST21:
 4343 02a0 00000000 		.4byte	.LVL36
 4344 02a4 12000000 		.4byte	.LVL38
 4345 02a8 0100     		.2byte	0x1
 4346 02aa 50       		.byte	0x50
 4347 02ab 12000000 		.4byte	.LVL38
 4348 02af 1A000000 		.4byte	.LVL40
 4349 02b3 0400     		.2byte	0x4
 4350 02b5 F3       		.byte	0xf3
 4351 02b6 01       		.uleb128 0x1
 4352 02b7 50       		.byte	0x50
 4353 02b8 9F       		.byte	0x9f
 4354 02b9 1A000000 		.4byte	.LVL40
 4355 02bd 2E000000 		.4byte	.LVL42
 4356 02c1 0100     		.2byte	0x1
 4357 02c3 50       		.byte	0x50
 4358 02c4 2E000000 		.4byte	.LVL42
 4359 02c8 35000000 		.4byte	.LVL44-1
 4360 02cc 0100     		.2byte	0x1
 4361 02ce 53       		.byte	0x53
 4362 02cf 35000000 		.4byte	.LVL44-1
 4363 02d3 3E000000 		.4byte	.LVL46
 4364 02d7 0400     		.2byte	0x4
 4365 02d9 F3       		.byte	0xf3
 4366 02da 01       		.uleb128 0x1
 4367 02db 50       		.byte	0x50
 4368 02dc 9F       		.byte	0x9f
 4369 02dd 3E000000 		.4byte	.LVL46
 4370 02e1 44000000 		.4byte	.LVL47
 4371 02e5 0100     		.2byte	0x1
 4372 02e7 50       		.byte	0x50
 4373 02e8 44000000 		.4byte	.LVL47
 4374 02ec 4C000000 		.4byte	.LFE224
 4375 02f0 0400     		.2byte	0x4
 4376 02f2 F3       		.byte	0xf3
 4377 02f3 01       		.uleb128 0x1
 4378 02f4 50       		.byte	0x50
 4379 02f5 9F       		.byte	0x9f
 4380 02f6 00000000 		.4byte	0
 4381 02fa 00000000 		.4byte	0
 4382              	.LLST22:
 4383 02fe 00000000 		.4byte	.LVL36
 4384 0302 35000000 		.4byte	.LVL44-1
 4385 0306 0100     		.2byte	0x1
 4386 0308 51       		.byte	0x51
 4387 0309 35000000 		.4byte	.LVL44-1
 4388 030d 3E000000 		.4byte	.LVL46
 4389 0311 0400     		.2byte	0x4
ARM GAS  C:\Users\IDONNO~1.SON\AppData\Local\Temp\ccW0NqxC.s 			page 78


 4390 0313 F3       		.byte	0xf3
 4391 0314 01       		.uleb128 0x1
 4392 0315 51       		.byte	0x51
 4393 0316 9F       		.byte	0x9f
 4394 0317 3E000000 		.4byte	.LVL46
 4395 031b 4C000000 		.4byte	.LFE224
 4396 031f 0100     		.2byte	0x1
 4397 0321 51       		.byte	0x51
 4398 0322 00000000 		.4byte	0
 4399 0326 00000000 		.4byte	0
 4400              	.LLST23:
 4401 032a 00000000 		.4byte	.LVL36
 4402 032e 06000000 		.4byte	.LVL37
 4403 0332 0300     		.2byte	0x3
 4404 0334 08       		.byte	0x8
 4405 0335 20       		.byte	0x20
 4406 0336 9F       		.byte	0x9f
 4407 0337 00000000 		.4byte	0
 4408 033b 00000000 		.4byte	0
 4409              	.LLST24:
 4410 033f 06000000 		.4byte	.LVL37
 4411 0343 12000000 		.4byte	.LVL38
 4412 0347 0100     		.2byte	0x1
 4413 0349 51       		.byte	0x51
 4414 034a 1A000000 		.4byte	.LVL40
 4415 034e 35000000 		.4byte	.LVL44-1
 4416 0352 0100     		.2byte	0x1
 4417 0354 51       		.byte	0x51
 4418 0355 35000000 		.4byte	.LVL44-1
 4419 0359 36000000 		.4byte	.LVL44
 4420 035d 0400     		.2byte	0x4
 4421 035f F3       		.byte	0xf3
 4422 0360 01       		.uleb128 0x1
 4423 0361 51       		.byte	0x51
 4424 0362 9F       		.byte	0x9f
 4425 0363 3E000000 		.4byte	.LVL46
 4426 0367 4C000000 		.4byte	.LFE224
 4427 036b 0100     		.2byte	0x1
 4428 036d 51       		.byte	0x51
 4429 036e 00000000 		.4byte	0
 4430 0372 00000000 		.4byte	0
 4431              	.LLST25:
 4432 0376 06000000 		.4byte	.LVL37
 4433 037a 12000000 		.4byte	.LVL38
 4434 037e 0100     		.2byte	0x1
 4435 0380 50       		.byte	0x50
 4436 0381 1A000000 		.4byte	.LVL40
 4437 0385 2E000000 		.4byte	.LVL42
 4438 0389 0100     		.2byte	0x1
 4439 038b 50       		.byte	0x50
 4440 038c 2E000000 		.4byte	.LVL42
 4441 0390 35000000 		.4byte	.LVL44-1
 4442 0394 0100     		.2byte	0x1
 4443 0396 53       		.byte	0x53
 4444 0397 35000000 		.4byte	.LVL44-1
 4445 039b 36000000 		.4byte	.LVL44
 4446 039f 0400     		.2byte	0x4
ARM GAS  C:\Users\IDONNO~1.SON\AppData\Local\Temp\ccW0NqxC.s 			page 79


 4447 03a1 F3       		.byte	0xf3
 4448 03a2 01       		.uleb128 0x1
 4449 03a3 50       		.byte	0x50
 4450 03a4 9F       		.byte	0x9f
 4451 03a5 3E000000 		.4byte	.LVL46
 4452 03a9 44000000 		.4byte	.LVL47
 4453 03ad 0100     		.2byte	0x1
 4454 03af 50       		.byte	0x50
 4455 03b0 44000000 		.4byte	.LVL47
 4456 03b4 4C000000 		.4byte	.LFE224
 4457 03b8 0400     		.2byte	0x4
 4458 03ba F3       		.byte	0xf3
 4459 03bb 01       		.uleb128 0x1
 4460 03bc 50       		.byte	0x50
 4461 03bd 9F       		.byte	0x9f
 4462 03be 00000000 		.4byte	0
 4463 03c2 00000000 		.4byte	0
 4464              	.LLST26:
 4465 03c6 28000000 		.4byte	.LVL41
 4466 03ca 35000000 		.4byte	.LVL44-1
 4467 03ce 0100     		.2byte	0x1
 4468 03d0 53       		.byte	0x53
 4469 03d1 35000000 		.4byte	.LVL44-1
 4470 03d5 36000000 		.4byte	.LVL44
 4471 03d9 0400     		.2byte	0x4
 4472 03db F3       		.byte	0xf3
 4473 03dc 01       		.uleb128 0x1
 4474 03dd 50       		.byte	0x50
 4475 03de 9F       		.byte	0x9f
 4476 03df 00000000 		.4byte	0
 4477 03e3 00000000 		.4byte	0
 4478              	.LLST27:
 4479 03e7 28000000 		.4byte	.LVL41
 4480 03eb 32000000 		.4byte	.LVL43
 4481 03ef 0100     		.2byte	0x1
 4482 03f1 53       		.byte	0x53
 4483 03f2 00000000 		.4byte	0
 4484 03f6 00000000 		.4byte	0
 4485              	.LLST28:
 4486 03fa 28000000 		.4byte	.LVL41
 4487 03fe 32000000 		.4byte	.LVL43
 4488 0402 0100     		.2byte	0x1
 4489 0404 52       		.byte	0x52
 4490 0405 00000000 		.4byte	0
 4491 0409 00000000 		.4byte	0
 4492              	.LLST29:
 4493 040d 12000000 		.4byte	.LVL38
 4494 0411 18000000 		.4byte	.LVL39
 4495 0415 0200     		.2byte	0x2
 4496 0417 30       		.byte	0x30
 4497 0418 9F       		.byte	0x9f
 4498 0419 36000000 		.4byte	.LVL44
 4499 041d 3C000000 		.4byte	.LVL45
 4500 0421 0200     		.2byte	0x2
 4501 0423 30       		.byte	0x30
 4502 0424 9F       		.byte	0x9f
 4503 0425 00000000 		.4byte	0
ARM GAS  C:\Users\IDONNO~1.SON\AppData\Local\Temp\ccW0NqxC.s 			page 80


 4504 0429 00000000 		.4byte	0
 4505              	.LLST30:
 4506 042d 00000000 		.4byte	.LVL48
 4507 0431 04000000 		.4byte	.LVL49
 4508 0435 0100     		.2byte	0x1
 4509 0437 50       		.byte	0x50
 4510 0438 04000000 		.4byte	.LVL49
 4511 043c 2D000000 		.4byte	.LVL53-1
 4512 0440 0100     		.2byte	0x1
 4513 0442 53       		.byte	0x53
 4514 0443 2D000000 		.4byte	.LVL53-1
 4515 0447 2E000000 		.4byte	.LVL53
 4516 044b 0400     		.2byte	0x4
 4517 044d F3       		.byte	0xf3
 4518 044e 01       		.uleb128 0x1
 4519 044f 50       		.byte	0x50
 4520 0450 9F       		.byte	0x9f
 4521 0451 2E000000 		.4byte	.LVL53
 4522 0455 40000000 		.4byte	.LFE225
 4523 0459 0100     		.2byte	0x1
 4524 045b 53       		.byte	0x53
 4525 045c 00000000 		.4byte	0
 4526 0460 00000000 		.4byte	0
 4527              	.LLST31:
 4528 0464 00000000 		.4byte	.LVL48
 4529 0468 2D000000 		.4byte	.LVL53-1
 4530 046c 0100     		.2byte	0x1
 4531 046e 51       		.byte	0x51
 4532 046f 2D000000 		.4byte	.LVL53-1
 4533 0473 2E000000 		.4byte	.LVL53
 4534 0477 0400     		.2byte	0x4
 4535 0479 F3       		.byte	0xf3
 4536 047a 01       		.uleb128 0x1
 4537 047b 51       		.byte	0x51
 4538 047c 9F       		.byte	0x9f
 4539 047d 2E000000 		.4byte	.LVL53
 4540 0481 40000000 		.4byte	.LFE225
 4541 0485 0100     		.2byte	0x1
 4542 0487 51       		.byte	0x51
 4543 0488 00000000 		.4byte	0
 4544 048c 00000000 		.4byte	0
 4545              	.LLST32:
 4546 0490 14000000 		.4byte	.LVL50
 4547 0494 2D000000 		.4byte	.LVL53-1
 4548 0498 0100     		.2byte	0x1
 4549 049a 53       		.byte	0x53
 4550 049b 2D000000 		.4byte	.LVL53-1
 4551 049f 2E000000 		.4byte	.LVL53
 4552 04a3 0400     		.2byte	0x4
 4553 04a5 F3       		.byte	0xf3
 4554 04a6 01       		.uleb128 0x1
 4555 04a7 50       		.byte	0x50
 4556 04a8 9F       		.byte	0x9f
 4557 04a9 00000000 		.4byte	0
 4558 04ad 00000000 		.4byte	0
 4559              	.LLST33:
 4560 04b1 1A000000 		.4byte	.LVL51
ARM GAS  C:\Users\IDONNO~1.SON\AppData\Local\Temp\ccW0NqxC.s 			page 81


 4561 04b5 26000000 		.4byte	.LVL52
 4562 04b9 0100     		.2byte	0x1
 4563 04bb 53       		.byte	0x53
 4564 04bc 00000000 		.4byte	0
 4565 04c0 00000000 		.4byte	0
 4566              	.LLST34:
 4567 04c4 1A000000 		.4byte	.LVL51
 4568 04c8 26000000 		.4byte	.LVL52
 4569 04cc 0100     		.2byte	0x1
 4570 04ce 52       		.byte	0x52
 4571 04cf 00000000 		.4byte	0
 4572 04d3 00000000 		.4byte	0
 4573              	.LLST35:
 4574 04d7 00000000 		.4byte	.LVL54
 4575 04db 1E000000 		.4byte	.LVL59
 4576 04df 0100     		.2byte	0x1
 4577 04e1 50       		.byte	0x50
 4578 04e2 1E000000 		.4byte	.LVL59
 4579 04e6 29000000 		.4byte	.LVL61-1
 4580 04ea 0100     		.2byte	0x1
 4581 04ec 53       		.byte	0x53
 4582 04ed 29000000 		.4byte	.LVL61-1
 4583 04f1 32000000 		.4byte	.LFE226
 4584 04f5 0400     		.2byte	0x4
 4585 04f7 F3       		.byte	0xf3
 4586 04f8 01       		.uleb128 0x1
 4587 04f9 50       		.byte	0x50
 4588 04fa 9F       		.byte	0x9f
 4589 04fb 00000000 		.4byte	0
 4590 04ff 00000000 		.4byte	0
 4591              	.LLST36:
 4592 0503 00000000 		.4byte	.LVL54
 4593 0507 08000000 		.4byte	.LVL55
 4594 050b 0300     		.2byte	0x3
 4595 050d 08       		.byte	0x8
 4596 050e 20       		.byte	0x20
 4597 050f 9F       		.byte	0x9f
 4598 0510 00000000 		.4byte	0
 4599 0514 00000000 		.4byte	0
 4600              	.LLST37:
 4601 0518 12000000 		.4byte	.LVL56
 4602 051c 18000000 		.4byte	.LVL57
 4603 0520 0200     		.2byte	0x2
 4604 0522 30       		.byte	0x30
 4605 0523 9F       		.byte	0x9f
 4606 0524 2A000000 		.4byte	.LVL61
 4607 0528 30000000 		.4byte	.LVL62
 4608 052c 0200     		.2byte	0x2
 4609 052e 30       		.byte	0x30
 4610 052f 9F       		.byte	0x9f
 4611 0530 00000000 		.4byte	0
 4612 0534 00000000 		.4byte	0
 4613              	.LLST38:
 4614 0538 1C000000 		.4byte	.LVL58
 4615 053c 26000000 		.4byte	.LVL60
 4616 0540 0100     		.2byte	0x1
 4617 0542 53       		.byte	0x53
ARM GAS  C:\Users\IDONNO~1.SON\AppData\Local\Temp\ccW0NqxC.s 			page 82


 4618 0543 00000000 		.4byte	0
 4619 0547 00000000 		.4byte	0
 4620              	.LLST39:
 4621 054b 1E000000 		.4byte	.LVL59
 4622 054f 26000000 		.4byte	.LVL60
 4623 0553 0100     		.2byte	0x1
 4624 0555 50       		.byte	0x50
 4625 0556 00000000 		.4byte	0
 4626 055a 00000000 		.4byte	0
 4627              	.LLST40:
 4628 055e 00000000 		.4byte	.LVL63
 4629 0562 18000000 		.4byte	.LVL67
 4630 0566 0100     		.2byte	0x1
 4631 0568 50       		.byte	0x50
 4632 0569 18000000 		.4byte	.LVL67
 4633 056d 1A000000 		.4byte	.LVL68
 4634 0571 0200     		.2byte	0x2
 4635 0573 72       		.byte	0x72
 4636 0574 04       		.sleb128 4
 4637 0575 1A000000 		.4byte	.LVL68
 4638 0579 1E000000 		.4byte	.LFE227
 4639 057d 0400     		.2byte	0x4
 4640 057f F3       		.byte	0xf3
 4641 0580 01       		.uleb128 0x1
 4642 0581 50       		.byte	0x50
 4643 0582 9F       		.byte	0x9f
 4644 0583 00000000 		.4byte	0
 4645 0587 00000000 		.4byte	0
 4646              	.LLST41:
 4647 058b 0C000000 		.4byte	.LVL64
 4648 058f 16000000 		.4byte	.LVL66
 4649 0593 0100     		.2byte	0x1
 4650 0595 50       		.byte	0x50
 4651 0596 00000000 		.4byte	0
 4652 059a 00000000 		.4byte	0
 4653              	.LLST42:
 4654 059e 0E000000 		.4byte	.LVL65
 4655 05a2 16000000 		.4byte	.LVL66
 4656 05a6 0100     		.2byte	0x1
 4657 05a8 53       		.byte	0x53
 4658 05a9 00000000 		.4byte	0
 4659 05ad 00000000 		.4byte	0
 4660              	.LLST43:
 4661 05b1 00000000 		.4byte	.LVL70
 4662 05b5 0C000000 		.4byte	.LVL71
 4663 05b9 0100     		.2byte	0x1
 4664 05bb 50       		.byte	0x50
 4665 05bc 0C000000 		.4byte	.LVL71
 4666 05c0 2C000000 		.4byte	.LVL80
 4667 05c4 0100     		.2byte	0x1
 4668 05c6 55       		.byte	0x55
 4669 05c7 2C000000 		.4byte	.LVL80
 4670 05cb 2E000000 		.4byte	.LFE228
 4671 05cf 0400     		.2byte	0x4
 4672 05d1 F3       		.byte	0xf3
 4673 05d2 01       		.uleb128 0x1
 4674 05d3 50       		.byte	0x50
ARM GAS  C:\Users\IDONNO~1.SON\AppData\Local\Temp\ccW0NqxC.s 			page 83


 4675 05d4 9F       		.byte	0x9f
 4676 05d5 00000000 		.4byte	0
 4677 05d9 00000000 		.4byte	0
 4678              	.LLST44:
 4679 05dd 00000000 		.4byte	.LVL70
 4680 05e1 0C000000 		.4byte	.LVL71
 4681 05e5 0100     		.2byte	0x1
 4682 05e7 51       		.byte	0x51
 4683 05e8 0C000000 		.4byte	.LVL71
 4684 05ec 0E000000 		.4byte	.LVL72
 4685 05f0 0300     		.2byte	0x3
 4686 05f2 74       		.byte	0x74
 4687 05f3 7F       		.sleb128 -1
 4688 05f4 9F       		.byte	0x9f
 4689 05f5 0E000000 		.4byte	.LVL72
 4690 05f9 28000000 		.4byte	.LVL78
 4691 05fd 0100     		.2byte	0x1
 4692 05ff 54       		.byte	0x54
 4693 0600 28000000 		.4byte	.LVL78
 4694 0604 2A000000 		.4byte	.LVL79
 4695 0608 0300     		.2byte	0x3
 4696 060a 74       		.byte	0x74
 4697 060b 01       		.sleb128 1
 4698 060c 9F       		.byte	0x9f
 4699 060d 00000000 		.4byte	0
 4700 0611 00000000 		.4byte	0
 4701              	.LLST45:
 4702 0615 1A000000 		.4byte	.LVL74
 4703 0619 22000000 		.4byte	.LVL76
 4704 061d 0100     		.2byte	0x1
 4705 061f 55       		.byte	0x55
 4706 0620 00000000 		.4byte	0
 4707 0624 00000000 		.4byte	0
 4708              	.LLST46:
 4709 0628 1C000000 		.4byte	.LVL75
 4710 062c 22000000 		.4byte	.LVL76
 4711 0630 0100     		.2byte	0x1
 4712 0632 50       		.byte	0x50
 4713 0633 00000000 		.4byte	0
 4714 0637 00000000 		.4byte	0
 4715              	.LLST47:
 4716 063b 00000000 		.4byte	.LVL81
 4717 063f 14000000 		.4byte	.LVL83
 4718 0643 0100     		.2byte	0x1
 4719 0645 50       		.byte	0x50
 4720 0646 14000000 		.4byte	.LVL83
 4721 064a 50000000 		.4byte	.LVL93
 4722 064e 0400     		.2byte	0x4
 4723 0650 F3       		.byte	0xf3
 4724 0651 01       		.uleb128 0x1
 4725 0652 50       		.byte	0x50
 4726 0653 9F       		.byte	0x9f
 4727 0654 50000000 		.4byte	.LVL93
 4728 0658 54000000 		.4byte	.LVL94
 4729 065c 0100     		.2byte	0x1
 4730 065e 50       		.byte	0x50
 4731 065f 54000000 		.4byte	.LVL94
ARM GAS  C:\Users\IDONNO~1.SON\AppData\Local\Temp\ccW0NqxC.s 			page 84


 4732 0663 5F000000 		.4byte	.LVL97-1
 4733 0667 0100     		.2byte	0x1
 4734 0669 52       		.byte	0x52
 4735 066a 5F000000 		.4byte	.LVL97-1
 4736 066e 6C000000 		.4byte	.LFE229
 4737 0672 0400     		.2byte	0x4
 4738 0674 F3       		.byte	0xf3
 4739 0675 01       		.uleb128 0x1
 4740 0676 50       		.byte	0x50
 4741 0677 9F       		.byte	0x9f
 4742 0678 00000000 		.4byte	0
 4743 067c 00000000 		.4byte	0
 4744              	.LLST48:
 4745 0680 00000000 		.4byte	.LVL81
 4746 0684 14000000 		.4byte	.LVL83
 4747 0688 0100     		.2byte	0x1
 4748 068a 51       		.byte	0x51
 4749 068b 14000000 		.4byte	.LVL83
 4750 068f 50000000 		.4byte	.LVL93
 4751 0693 0400     		.2byte	0x4
 4752 0695 F3       		.byte	0xf3
 4753 0696 01       		.uleb128 0x1
 4754 0697 51       		.byte	0x51
 4755 0698 9F       		.byte	0x9f
 4756 0699 50000000 		.4byte	.LVL93
 4757 069d 5F000000 		.4byte	.LVL97-1
 4758 06a1 0100     		.2byte	0x1
 4759 06a3 51       		.byte	0x51
 4760 06a4 5F000000 		.4byte	.LVL97-1
 4761 06a8 6C000000 		.4byte	.LFE229
 4762 06ac 0200     		.2byte	0x2
 4763 06ae 91       		.byte	0x91
 4764 06af 74       		.sleb128 -12
 4765 06b0 00000000 		.4byte	0
 4766 06b4 00000000 		.4byte	0
 4767              	.LLST49:
 4768 06b8 22000000 		.4byte	.LVL84
 4769 06bc 24000000 		.4byte	.LVL85
 4770 06c0 0200     		.2byte	0x2
 4771 06c2 30       		.byte	0x30
 4772 06c3 9F       		.byte	0x9f
 4773 06c4 24000000 		.4byte	.LVL85
 4774 06c8 2E000000 		.4byte	.LVL87
 4775 06cc 0100     		.2byte	0x1
 4776 06ce 50       		.byte	0x50
 4777 06cf 46000000 		.4byte	.LVL91
 4778 06d3 50000000 		.4byte	.LVL93
 4779 06d7 0100     		.2byte	0x1
 4780 06d9 50       		.byte	0x50
 4781 06da 00000000 		.4byte	0
 4782 06de 00000000 		.4byte	0
 4783              	.LLST50:
 4784 06e2 00000000 		.4byte	.LVL81
 4785 06e6 0A000000 		.4byte	.LVL82
 4786 06ea 0300     		.2byte	0x3
 4787 06ec 08       		.byte	0x8
 4788 06ed 20       		.byte	0x20
ARM GAS  C:\Users\IDONNO~1.SON\AppData\Local\Temp\ccW0NqxC.s 			page 85


 4789 06ee 9F       		.byte	0x9f
 4790 06ef 00000000 		.4byte	0
 4791 06f3 00000000 		.4byte	0
 4792              	.LLST51:
 4793 06f7 24000000 		.4byte	.LVL85
 4794 06fb 2A000000 		.4byte	.LVL86
 4795 06ff 0200     		.2byte	0x2
 4796 0701 30       		.byte	0x30
 4797 0702 9F       		.byte	0x9f
 4798 0703 46000000 		.4byte	.LVL91
 4799 0707 4C000000 		.4byte	.LVL92
 4800 070b 0200     		.2byte	0x2
 4801 070d 30       		.byte	0x30
 4802 070e 9F       		.byte	0x9f
 4803 070f 00000000 		.4byte	0
 4804 0713 00000000 		.4byte	0
 4805              	.LLST52:
 4806 0717 34000000 		.4byte	.LVL88
 4807 071b 50000000 		.4byte	.LVL93
 4808 071f 0100     		.2byte	0x1
 4809 0721 54       		.byte	0x54
 4810 0722 00000000 		.4byte	0
 4811 0726 00000000 		.4byte	0
 4812              	.LLST53:
 4813 072a 34000000 		.4byte	.LVL88
 4814 072e 3E000000 		.4byte	.LVL89
 4815 0732 0100     		.2byte	0x1
 4816 0734 51       		.byte	0x51
 4817 0735 00000000 		.4byte	0
 4818 0739 00000000 		.4byte	0
 4819              	.LLST54:
 4820 073d 34000000 		.4byte	.LVL88
 4821 0741 3E000000 		.4byte	.LVL89
 4822 0745 0100     		.2byte	0x1
 4823 0747 54       		.byte	0x54
 4824 0748 00000000 		.4byte	0
 4825 074c 00000000 		.4byte	0
 4826              	.LLST55:
 4827 0750 56000000 		.4byte	.LVL95
 4828 0754 5C000000 		.4byte	.LVL96
 4829 0758 0100     		.2byte	0x1
 4830 075a 50       		.byte	0x50
 4831 075b 00000000 		.4byte	0
 4832 075f 00000000 		.4byte	0
 4833              		.section	.debug_aranges,"",%progbits
 4834 0000 6C000000 		.4byte	0x6c
 4835 0004 0200     		.2byte	0x2
 4836 0006 00000000 		.4byte	.Ldebug_info0
 4837 000a 04       		.byte	0x4
 4838 000b 00       		.byte	0
 4839 000c 0000     		.2byte	0
 4840 000e 0000     		.2byte	0
 4841 0010 00000000 		.4byte	.LFB219
 4842 0014 08000000 		.4byte	.LFE219-.LFB219
 4843 0018 00000000 		.4byte	.LFB221
 4844 001c 28000000 		.4byte	.LFE221-.LFB221
 4845 0020 00000000 		.4byte	.LFB220
ARM GAS  C:\Users\IDONNO~1.SON\AppData\Local\Temp\ccW0NqxC.s 			page 86


 4846 0024 18000000 		.4byte	.LFE220-.LFB220
 4847 0028 00000000 		.4byte	.LFB222
 4848 002c 44000000 		.4byte	.LFE222-.LFB222
 4849 0030 00000000 		.4byte	.LFB223
 4850 0034 34000000 		.4byte	.LFE223-.LFB223
 4851 0038 00000000 		.4byte	.LFB224
 4852 003c 4C000000 		.4byte	.LFE224-.LFB224
 4853 0040 00000000 		.4byte	.LFB225
 4854 0044 40000000 		.4byte	.LFE225-.LFB225
 4855 0048 00000000 		.4byte	.LFB226
 4856 004c 32000000 		.4byte	.LFE226-.LFB226
 4857 0050 00000000 		.4byte	.LFB227
 4858 0054 1E000000 		.4byte	.LFE227-.LFB227
 4859 0058 00000000 		.4byte	.LFB228
 4860 005c 2E000000 		.4byte	.LFE228-.LFB228
 4861 0060 00000000 		.4byte	.LFB229
 4862 0064 6C000000 		.4byte	.LFE229-.LFB229
 4863 0068 00000000 		.4byte	0
 4864 006c 00000000 		.4byte	0
 4865              		.section	.debug_ranges,"",%progbits
 4866              	.Ldebug_ranges0:
 4867 0000 06000000 		.4byte	.LBB124
 4868 0004 12000000 		.4byte	.LBE124
 4869 0008 1C000000 		.4byte	.LBB142
 4870 000c 38000000 		.4byte	.LBE142
 4871 0010 00000000 		.4byte	0
 4872 0014 00000000 		.4byte	0
 4873 0018 22000000 		.4byte	.LBB128
 4874 001c 2C000000 		.4byte	.LBE128
 4875 0020 2E000000 		.4byte	.LBB131
 4876 0024 30000000 		.4byte	.LBE131
 4877 0028 00000000 		.4byte	0
 4878 002c 00000000 		.4byte	0
 4879 0030 12000000 		.4byte	.LBB133
 4880 0034 18000000 		.4byte	.LBE133
 4881 0038 38000000 		.4byte	.LBB143
 4882 003c 3E000000 		.4byte	.LBE143
 4883 0040 00000000 		.4byte	0
 4884 0044 00000000 		.4byte	0
 4885 0048 16000000 		.4byte	.LBB150
 4886 004c 20000000 		.4byte	.LBE150
 4887 0050 22000000 		.4byte	.LBB153
 4888 0054 24000000 		.4byte	.LBE153
 4889 0058 00000000 		.4byte	0
 4890 005c 00000000 		.4byte	0
 4891 0060 06000000 		.4byte	.LBB173
 4892 0064 12000000 		.4byte	.LBE173
 4893 0068 1C000000 		.4byte	.LBB192
 4894 006c 36000000 		.4byte	.LBE192
 4895 0070 3E000000 		.4byte	.LBB194
 4896 0074 4C000000 		.4byte	.LBE194
 4897 0078 00000000 		.4byte	0
 4898 007c 00000000 		.4byte	0
 4899 0080 24000000 		.4byte	.LBB177
 4900 0084 2C000000 		.4byte	.LBE177
 4901 0088 2E000000 		.4byte	.LBB180
 4902 008c 32000000 		.4byte	.LBE180
ARM GAS  C:\Users\IDONNO~1.SON\AppData\Local\Temp\ccW0NqxC.s 			page 87


 4903 0090 00000000 		.4byte	0
 4904 0094 00000000 		.4byte	0
 4905 0098 12000000 		.4byte	.LBB183
 4906 009c 18000000 		.4byte	.LBE183
 4907 00a0 36000000 		.4byte	.LBB193
 4908 00a4 3C000000 		.4byte	.LBE193
 4909 00a8 00000000 		.4byte	0
 4910 00ac 00000000 		.4byte	0
 4911 00b0 14000000 		.4byte	.LBB199
 4912 00b4 26000000 		.4byte	.LBE199
 4913 00b8 2A000000 		.4byte	.LBB206
 4914 00bc 2E000000 		.4byte	.LBE206
 4915 00c0 00000000 		.4byte	0
 4916 00c4 00000000 		.4byte	0
 4917 00c8 1A000000 		.4byte	.LBB201
 4918 00cc 1C000000 		.4byte	.LBE201
 4919 00d0 1E000000 		.4byte	.LBB204
 4920 00d4 26000000 		.4byte	.LBE204
 4921 00d8 00000000 		.4byte	0
 4922 00dc 00000000 		.4byte	0
 4923 00e0 12000000 		.4byte	.LBB211
 4924 00e4 1C000000 		.4byte	.LBE211
 4925 00e8 2A000000 		.4byte	.LBB224
 4926 00ec 32000000 		.4byte	.LBE224
 4927 00f0 00000000 		.4byte	0
 4928 00f4 00000000 		.4byte	0
 4929 00f8 1C000000 		.4byte	.LBB220
 4930 00fc 22000000 		.4byte	.LBE220
 4931 0100 24000000 		.4byte	.LBB223
 4932 0104 26000000 		.4byte	.LBE223
 4933 0108 00000000 		.4byte	0
 4934 010c 00000000 		.4byte	0
 4935 0110 0C000000 		.4byte	.LBB226
 4936 0114 12000000 		.4byte	.LBE226
 4937 0118 14000000 		.4byte	.LBB229
 4938 011c 16000000 		.4byte	.LBE229
 4939 0120 00000000 		.4byte	0
 4940 0124 00000000 		.4byte	0
 4941 0128 02000000 		.4byte	.LBB232
 4942 012c 04000000 		.4byte	.LBE232
 4943 0130 06000000 		.4byte	.LBB239
 4944 0134 0A000000 		.4byte	.LBE239
 4945 0138 00000000 		.4byte	0
 4946 013c 00000000 		.4byte	0
 4947 0140 24000000 		.4byte	.LBB240
 4948 0144 2A000000 		.4byte	.LBE240
 4949 0148 46000000 		.4byte	.LBB254
 4950 014c 4C000000 		.4byte	.LBE254
 4951 0150 00000000 		.4byte	0
 4952 0154 00000000 		.4byte	0
 4953 0158 30000000 		.4byte	.LBB250
 4954 015c 32000000 		.4byte	.LBE250
 4955 0160 36000000 		.4byte	.LBB253
 4956 0164 3E000000 		.4byte	.LBE253
 4957 0168 00000000 		.4byte	0
 4958 016c 00000000 		.4byte	0
 4959 0170 00000000 		.4byte	.LFB219
ARM GAS  C:\Users\IDONNO~1.SON\AppData\Local\Temp\ccW0NqxC.s 			page 88


 4960 0174 08000000 		.4byte	.LFE219
 4961 0178 00000000 		.4byte	.LFB221
 4962 017c 28000000 		.4byte	.LFE221
 4963 0180 00000000 		.4byte	.LFB220
 4964 0184 18000000 		.4byte	.LFE220
 4965 0188 00000000 		.4byte	.LFB222
 4966 018c 44000000 		.4byte	.LFE222
 4967 0190 00000000 		.4byte	.LFB223
 4968 0194 34000000 		.4byte	.LFE223
 4969 0198 00000000 		.4byte	.LFB224
 4970 019c 4C000000 		.4byte	.LFE224
 4971 01a0 00000000 		.4byte	.LFB225
 4972 01a4 40000000 		.4byte	.LFE225
 4973 01a8 00000000 		.4byte	.LFB226
 4974 01ac 32000000 		.4byte	.LFE226
 4975 01b0 00000000 		.4byte	.LFB227
 4976 01b4 1E000000 		.4byte	.LFE227
 4977 01b8 00000000 		.4byte	.LFB228
 4978 01bc 2E000000 		.4byte	.LFE228
 4979 01c0 00000000 		.4byte	.LFB229
 4980 01c4 6C000000 		.4byte	.LFE229
 4981 01c8 00000000 		.4byte	0
 4982 01cc 00000000 		.4byte	0
 4983              		.section	.debug_line,"",%progbits
 4984              	.Ldebug_line0:
 4985 0000 C9040000 		.section	.debug_str,"MS",%progbits,1
 4985      02003302 
 4985      00000201 
 4985      FB0E0D00 
 4985      01010101 
 4986              	.LASF53:
 4987 0000 72656164 		.ascii	"ready_list_t\000"
 4987      795F6C69 
 4987      73745F74 
 4987      00
 4988              	.LASF113:
 4989 000d 71756575 		.ascii	"queue_insert\000"
 4989      655F696E 
 4989      73657274 
 4989      00
 4990              	.LASF125:
 4991 001a 63685365 		.ascii	"chSemSignalI\000"
 4991      6D536967 
 4991      6E616C49 
 4991      00
 4992              	.LASF91:
 4993 0027 77747472 		.ascii	"wttrp\000"
 4993      7000
 4994              	.LASF88:
 4995 002d 7264796D 		.ascii	"rdymsg\000"
 4995      736700
 4996              	.LASF16:
 4997 0034 75696E74 		.ascii	"uint64_t\000"
 4997      36345F74 
 4997      00
 4998              	.LASF5:
 4999 003d 5F5F7569 		.ascii	"__uint8_t\000"
ARM GAS  C:\Users\IDONNO~1.SON\AppData\Local\Temp\ccW0NqxC.s 			page 89


 4999      6E74385F 
 4999      7400
 5000              	.LASF85:
 5001 0047 706F7274 		.ascii	"port_intctx\000"
 5001      5F696E74 
 5001      63747800 
 5002              	.LASF72:
 5003 0053 73797374 		.ascii	"system_debug_t\000"
 5003      656D5F64 
 5003      65627567 
 5003      5F7400
 5004              	.LASF134:
 5005 0062 474E5520 		.ascii	"GNU C99 5.4.1 20160609 (release) [ARM/embedded-5-br"
 5005      43393920 
 5005      352E342E 
 5005      31203230 
 5005      31363036 
 5006 0095 616E6368 		.ascii	"anch revision 237715] -mcpu=cortex-m4 -mfloat-abi=h"
 5006      20726576 
 5006      6973696F 
 5006      6E203233 
 5006      37373135 
 5007 00c8 61726420 		.ascii	"ard -mfpu=fpv4-sp-d16 -mno-thumb-interwork -mthumb "
 5007      2D6D6670 
 5007      753D6670 
 5007      76342D73 
 5007      702D6431 
 5008 00fb 2D676764 		.ascii	"-ggdb -O2 -std=gnu99 -fomit-frame-pointer -falign-f"
 5008      62202D4F 
 5008      32202D73 
 5008      74643D67 
 5008      6E753939 
 5009 012e 756E6374 		.ascii	"unctions=16 -ffunction-sections -fdata-sections -fn"
 5009      696F6E73 
 5009      3D313620 
 5009      2D666675 
 5009      6E637469 
 5010 0161 6F2D636F 		.ascii	"o-common -fsingle-precision-constant\000"
 5010      6D6D6F6E 
 5010      202D6673 
 5010      696E676C 
 5010      652D7072 
 5011              	.LASF108:
 5012 0186 71756575 		.ascii	"queue_init\000"
 5012      655F696E 
 5012      697400
 5013              	.LASF105:
 5014 0191 706F7274 		.ascii	"port_lock\000"
 5014      5F6C6F63 
 5014      6B00
 5015              	.LASF117:
 5016 019b 71756575 		.ascii	"queue_lifo_remove\000"
 5016      655F6C69 
 5016      666F5F72 
 5016      656D6F76 
 5016      6500
 5017              	.LASF136:
ARM GAS  C:\Users\IDONNO~1.SON\AppData\Local\Temp\ccW0NqxC.s 			page 90


 5018 01ad 443A5C67 		.ascii	"D:\\git\\oroca_bldc_dev\\oroca_bldc_FW\000"
 5018      69745C6F 
 5018      726F6361 
 5018      5F626C64 
 5018      635F6465 
 5019              	.LASF124:
 5020 01d1 63685365 		.ascii	"chSemSignal\000"
 5020      6D536967 
 5020      6E616C00 
 5021              	.LASF89:
 5022 01dd 65786974 		.ascii	"exitcode\000"
 5022      636F6465 
 5022      00
 5023              	.LASF79:
 5024 01e6 6D61696E 		.ascii	"mainthread\000"
 5024      74687265 
 5024      616400
 5025              	.LASF126:
 5026 01f1 63685365 		.ascii	"chSemAddCounterI\000"
 5026      6D416464 
 5026      436F756E 
 5026      74657249 
 5026      00
 5027              	.LASF128:
 5028 0202 49544D5F 		.ascii	"ITM_RxBuffer\000"
 5028      52784275 
 5028      66666572 
 5028      00
 5029              	.LASF52:
 5030 020f 63685F74 		.ascii	"ch_threads_queue\000"
 5030      68726561 
 5030      64735F71 
 5030      75657565 
 5030      00
 5031              	.LASF30:
 5032 0220 705F7072 		.ascii	"p_prio\000"
 5032      696F00
 5033              	.LASF10:
 5034 0227 6C6F6E67 		.ascii	"long long int\000"
 5034      206C6F6E 
 5034      6720696E 
 5034      7400
 5035              	.LASF1:
 5036 0235 7369676E 		.ascii	"signed char\000"
 5036      65642063 
 5036      68617200 
 5037              	.LASF127:
 5038 0241 63685365 		.ascii	"chSemSignalWait\000"
 5038      6D536967 
 5038      6E616C57 
 5038      61697400 
 5039              	.LASF46:
 5040 0251 705F6D70 		.ascii	"p_mpool\000"
 5040      6F6F6C00 
 5041              	.LASF12:
 5042 0259 6C6F6E67 		.ascii	"long long unsigned int\000"
 5042      206C6F6E 
ARM GAS  C:\Users\IDONNO~1.SON\AppData\Local\Temp\ccW0NqxC.s 			page 91


 5042      6720756E 
 5042      7369676E 
 5042      65642069 
 5043              	.LASF99:
 5044 0270 6D5F7175 		.ascii	"m_queue\000"
 5044      65756500 
 5045              	.LASF78:
 5046 0278 76746C69 		.ascii	"vtlist\000"
 5046      737400
 5047              	.LASF106:
 5048 027f 706F7274 		.ascii	"port_unlock\000"
 5048      5F756E6C 
 5048      6F636B00 
 5049              	.LASF21:
 5050 028b 74736C69 		.ascii	"tslices_t\000"
 5050      6365735F 
 5050      7400
 5051              	.LASF76:
 5052 0295 63685F73 		.ascii	"ch_system\000"
 5052      79737465 
 5052      6D00
 5053              	.LASF7:
 5054 029f 6C6F6E67 		.ascii	"long int\000"
 5054      20696E74 
 5054      00
 5055              	.LASF19:
 5056 02a8 74737461 		.ascii	"tstate_t\000"
 5056      74655F74 
 5056      00
 5057              	.LASF32:
 5058 02b1 705F6E65 		.ascii	"p_newer\000"
 5058      77657200 
 5059              	.LASF96:
 5060 02b9 735F7175 		.ascii	"s_queue\000"
 5060      65756500 
 5061              	.LASF130:
 5062 02c1 63685363 		.ascii	"chSchRescheduleS\000"
 5062      68526573 
 5062      63686564 
 5062      756C6553 
 5062      00
 5063              	.LASF58:
 5064 02d2 725F6E65 		.ascii	"r_newer\000"
 5064      77657200 
 5065              	.LASF82:
 5066 02da 72656761 		.ascii	"regarm_t\000"
 5066      726D5F74 
 5066      00
 5067              	.LASF65:
 5068 02e3 76745F70 		.ascii	"vt_prev\000"
 5068      72657600 
 5069              	.LASF104:
 5070 02eb 6D757465 		.ascii	"mutex_t\000"
 5070      785F7400 
 5071              	.LASF109:
 5072 02f3 76616C75 		.ascii	"value\000"
 5072      6500
ARM GAS  C:\Users\IDONNO~1.SON\AppData\Local\Temp\ccW0NqxC.s 			page 92


 5073              	.LASF80:
 5074 02f9 69646C65 		.ascii	"idle_thread_wa\000"
 5074      5F746872 
 5074      6561645F 
 5074      776100
 5075              	.LASF119:
 5076 0308 63685365 		.ascii	"chSemObjectInit\000"
 5076      6D4F626A 
 5076      65637449 
 5076      6E697400 
 5077              	.LASF25:
 5078 0318 636E745F 		.ascii	"cnt_t\000"
 5078      7400
 5079              	.LASF0:
 5080 031e 756E7369 		.ascii	"unsigned int\000"
 5080      676E6564 
 5080      20696E74 
 5080      00
 5081              	.LASF123:
 5082 032b 63685365 		.ascii	"chSemWaitTimeout\000"
 5082      6D576169 
 5082      7454696D 
 5082      656F7574 
 5082      00
 5083              	.LASF64:
 5084 033c 76745F6E 		.ascii	"vt_next\000"
 5084      65787400 
 5085              	.LASF39:
 5086 0344 705F7469 		.ascii	"p_time\000"
 5086      6D6500
 5087              	.LASF92:
 5088 034b 77747365 		.ascii	"wtsemp\000"
 5088      6D7000
 5089              	.LASF66:
 5090 0352 76745F64 		.ascii	"vt_delta\000"
 5090      656C7461 
 5090      00
 5091              	.LASF41:
 5092 035b 705F6D73 		.ascii	"p_msgqueue\000"
 5092      67717565 
 5092      756500
 5093              	.LASF121:
 5094 0366 63685365 		.ascii	"chSemReset\000"
 5094      6D526573 
 5094      657400
 5095              	.LASF97:
 5096 0371 735F636E 		.ascii	"s_cnt\000"
 5096      7400
 5097              	.LASF4:
 5098 0377 73686F72 		.ascii	"short unsigned int\000"
 5098      7420756E 
 5098      7369676E 
 5098      65642069 
 5098      6E7400
 5099              	.LASF49:
 5100 038a 63685F74 		.ascii	"ch_thread\000"
 5100      68726561 
ARM GAS  C:\Users\IDONNO~1.SON\AppData\Local\Temp\ccW0NqxC.s 			page 93


 5100      6400
 5101              	.LASF133:
 5102 0394 63685363 		.ascii	"chSchWakeupS\000"
 5102      6857616B 
 5102      65757053 
 5102      00
 5103              	.LASF23:
 5104 03a1 6D73675F 		.ascii	"msg_t\000"
 5104      7400
 5105              	.LASF75:
 5106 03a7 63685F73 		.ascii	"ch_system_t\000"
 5106      79737465 
 5106      6D5F7400 
 5107              	.LASF18:
 5108 03b3 746D6F64 		.ascii	"tmode_t\000"
 5108      655F7400 
 5109              	.LASF54:
 5110 03bb 63685F72 		.ascii	"ch_ready_list\000"
 5110      65616479 
 5110      5F6C6973 
 5110      7400
 5111              	.LASF24:
 5112 03c9 6576656E 		.ascii	"eventmask_t\000"
 5112      746D6173 
 5112      6B5F7400 
 5113              	.LASF6:
 5114 03d5 5F5F696E 		.ascii	"__int32_t\000"
 5114      7433325F 
 5114      7400
 5115              	.LASF69:
 5116 03df 76697274 		.ascii	"virtual_timers_list_t\000"
 5116      75616C5F 
 5116      74696D65 
 5116      72735F6C 
 5116      6973745F 
 5117              	.LASF83:
 5118 03f5 73746B61 		.ascii	"stkalign_t\000"
 5118      6C69676E 
 5118      5F7400
 5119              	.LASF135:
 5120 0400 6C69622F 		.ascii	"lib/ChibiOS_3.0.2/os/rt/src/chsem.c\000"
 5120      43686962 
 5120      694F535F 
 5120      332E302E 
 5120      322F6F73 
 5121              	.LASF48:
 5122 0424 74687265 		.ascii	"threads_list_t\000"
 5122      6164735F 
 5122      6C697374 
 5122      5F7400
 5123              	.LASF40:
 5124 0433 705F7761 		.ascii	"p_waiting\000"
 5124      6974696E 
 5124      6700
 5125              	.LASF81:
 5126 043d 73697A65 		.ascii	"sizetype\000"
 5126      74797065 
ARM GAS  C:\Users\IDONNO~1.SON\AppData\Local\Temp\ccW0NqxC.s 			page 94


 5126      00
 5127              	.LASF47:
 5128 0446 74687265 		.ascii	"thread_reference_t\000"
 5128      61645F72 
 5128      65666572 
 5128      656E6365 
 5128      5F7400
 5129              	.LASF70:
 5130 0459 63685F76 		.ascii	"ch_virtual_timers_list\000"
 5130      69727475 
 5130      616C5F74 
 5130      696D6572 
 5130      735F6C69 
 5131              	.LASF112:
 5132 0470 63685379 		.ascii	"chSysLock\000"
 5132      734C6F63 
 5132      6B00
 5133              	.LASF33:
 5134 047a 705F6F6C 		.ascii	"p_older\000"
 5134      64657200 
 5135              	.LASF57:
 5136 0482 725F6374 		.ascii	"r_ctx\000"
 5136      7800
 5137              	.LASF87:
 5138 0488 746D5F63 		.ascii	"tm_calibration_t\000"
 5138      616C6962 
 5138      72617469 
 5138      6F6E5F74 
 5138      00
 5139              	.LASF101:
 5140 0499 6D5F6E65 		.ascii	"m_next\000"
 5140      787400
 5141              	.LASF116:
 5142 04a0 74696D65 		.ascii	"time\000"
 5142      00
 5143              	.LASF60:
 5144 04a5 725F6375 		.ascii	"r_current\000"
 5144      7272656E 
 5144      7400
 5145              	.LASF59:
 5146 04af 725F6F6C 		.ascii	"r_older\000"
 5146      64657200 
 5147              	.LASF11:
 5148 04b7 5F5F7569 		.ascii	"__uint64_t\000"
 5148      6E743634 
 5148      5F7400
 5149              	.LASF20:
 5150 04c2 74726566 		.ascii	"trefs_t\000"
 5150      735F7400 
 5151              	.LASF62:
 5152 04ca 76697274 		.ascii	"virtual_timer_t\000"
 5152      75616C5F 
 5152      74696D65 
 5152      725F7400 
 5153              	.LASF29:
 5154 04da 705F7072 		.ascii	"p_prev\000"
 5154      657600
ARM GAS  C:\Users\IDONNO~1.SON\AppData\Local\Temp\ccW0NqxC.s 			page 95


 5155              	.LASF22:
 5156 04e1 74707269 		.ascii	"tprio_t\000"
 5156      6F5F7400 
 5157              	.LASF73:
 5158 04e9 63685F73 		.ascii	"ch_system_debug\000"
 5158      79737465 
 5158      6D5F6465 
 5158      62756700 
 5159              	.LASF14:
 5160 04f9 696E7433 		.ascii	"int32_t\000"
 5160      325F7400 
 5161              	.LASF2:
 5162 0501 756E7369 		.ascii	"unsigned char\000"
 5162      676E6564 
 5162      20636861 
 5162      7200
 5163              	.LASF44:
 5164 050f 705F6D74 		.ascii	"p_mtxlist\000"
 5164      786C6973 
 5164      7400
 5165              	.LASF3:
 5166 0519 73686F72 		.ascii	"short int\000"
 5166      7420696E 
 5166      7400
 5167              	.LASF35:
 5168 0523 705F7374 		.ascii	"p_state\000"
 5168      61746500 
 5169              	.LASF38:
 5170 052b 705F7072 		.ascii	"p_preempt\000"
 5170      65656D70 
 5170      7400
 5171              	.LASF56:
 5172 0535 725F7072 		.ascii	"r_prio\000"
 5172      696F00
 5173              	.LASF94:
 5174 053c 65776D61 		.ascii	"ewmask\000"
 5174      736B00
 5175              	.LASF28:
 5176 0543 705F6E65 		.ascii	"p_next\000"
 5176      787400
 5177              	.LASF36:
 5178 054a 705F666C 		.ascii	"p_flags\000"
 5178      61677300 
 5179              	.LASF111:
 5180 0552 5F5F6675 		.ascii	"__func__\000"
 5180      6E635F5F 
 5180      00
 5181              	.LASF114:
 5182 055b 63685365 		.ascii	"chSemWaitS\000"
 5182      6D576169 
 5182      745300
 5183              	.LASF103:
 5184 0566 73656D61 		.ascii	"semaphore_t\000"
 5184      70686F72 
 5184      655F7400 
 5185              	.LASF63:
 5186 0572 63685F76 		.ascii	"ch_virtual_timer\000"
ARM GAS  C:\Users\IDONNO~1.SON\AppData\Local\Temp\ccW0NqxC.s 			page 96


 5186      69727475 
 5186      616C5F74 
 5186      696D6572 
 5186      00
 5187              	.LASF95:
 5188 0583 63685F73 		.ascii	"ch_semaphore\000"
 5188      656D6170 
 5188      686F7265 
 5188      00
 5189              	.LASF131:
 5190 0590 63685363 		.ascii	"chSchGoSleepS\000"
 5190      68476F53 
 5190      6C656570 
 5190      5300
 5191              	.LASF43:
 5192 059e 705F6570 		.ascii	"p_epending\000"
 5192      656E6469 
 5192      6E6700
 5193              	.LASF15:
 5194 05a9 75696E74 		.ascii	"uint32_t\000"
 5194      33325F74 
 5194      00
 5195              	.LASF93:
 5196 05b2 77746D74 		.ascii	"wtmtxp\000"
 5196      787000
 5197              	.LASF55:
 5198 05b9 725F7175 		.ascii	"r_queue\000"
 5198      65756500 
 5199              	.LASF129:
 5200 05c1 63685363 		.ascii	"chSchReadyI\000"
 5200      68526561 
 5200      64794900 
 5201              	.LASF50:
 5202 05cd 63685F74 		.ascii	"ch_threads_list\000"
 5202      68726561 
 5202      64735F6C 
 5202      69737400 
 5203              	.LASF9:
 5204 05dd 6C6F6E67 		.ascii	"long unsigned int\000"
 5204      20756E73 
 5204      69676E65 
 5204      6420696E 
 5204      7400
 5205              	.LASF102:
 5206 05ef 63686172 		.ascii	"char\000"
 5206      00
 5207              	.LASF115:
 5208 05f4 63685365 		.ascii	"chSemWaitTimeoutS\000"
 5208      6D576169 
 5208      7454696D 
 5208      656F7574 
 5208      5300
 5209              	.LASF27:
 5210 0606 74687265 		.ascii	"thread_t\000"
 5210      61645F74 
 5210      00
 5211              	.LASF118:
ARM GAS  C:\Users\IDONNO~1.SON\AppData\Local\Temp\ccW0NqxC.s 			page 97


 5212 060f 71756575 		.ascii	"queue_fifo_remove\000"
 5212      655F6669 
 5212      666F5F72 
 5212      656D6F76 
 5212      6500
 5213              	.LASF26:
 5214 0621 73797374 		.ascii	"systime_t\000"
 5214      696D655F 
 5214      7400
 5215              	.LASF45:
 5216 062b 705F7265 		.ascii	"p_realprio\000"
 5216      616C7072 
 5216      696F00
 5217              	.LASF61:
 5218 0636 76746675 		.ascii	"vtfunc_t\000"
 5218      6E635F74 
 5218      00
 5219              	.LASF8:
 5220 063f 5F5F7569 		.ascii	"__uint32_t\000"
 5220      6E743332 
 5220      5F7400
 5221              	.LASF107:
 5222 064a 5F5F7365 		.ascii	"__set_BASEPRI\000"
 5222      745F4241 
 5222      53455052 
 5222      4900
 5223              	.LASF122:
 5224 0658 63685365 		.ascii	"chSemWait\000"
 5224      6D576169 
 5224      7400
 5225              	.LASF74:
 5226 0662 70616E69 		.ascii	"panic_msg\000"
 5226      635F6D73 
 5226      6700
 5227              	.LASF86:
 5228 066c 6F666673 		.ascii	"offset\000"
 5228      657400
 5229              	.LASF84:
 5230 0673 636F6E74 		.ascii	"context\000"
 5230      65787400 
 5231              	.LASF17:
 5232 067b 7274636E 		.ascii	"rtcnt_t\000"
 5232      745F7400 
 5233              	.LASF68:
 5234 0683 76745F70 		.ascii	"vt_par\000"
 5234      617200
 5235              	.LASF51:
 5236 068a 74687265 		.ascii	"threads_queue_t\000"
 5236      6164735F 
 5236      71756575 
 5236      655F7400 
 5237              	.LASF98:
 5238 069a 63685F6D 		.ascii	"ch_mutex\000"
 5238      75746578 
 5238      00
 5239              	.LASF37:
 5240 06a3 705F7265 		.ascii	"p_refs\000"
ARM GAS  C:\Users\IDONNO~1.SON\AppData\Local\Temp\ccW0NqxC.s 			page 98


 5240      667300
 5241              	.LASF120:
 5242 06aa 63685365 		.ascii	"chSemResetI\000"
 5242      6D526573 
 5242      65744900 
 5243              	.LASF77:
 5244 06b6 726C6973 		.ascii	"rlist\000"
 5244      7400
 5245              	.LASF13:
 5246 06bc 75696E74 		.ascii	"uint8_t\000"
 5246      385F7400 
 5247              	.LASF90:
 5248 06c4 77746F62 		.ascii	"wtobjp\000"
 5248      6A7000
 5249              	.LASF34:
 5250 06cb 705F6E61 		.ascii	"p_name\000"
 5250      6D6500
 5251              	.LASF71:
 5252 06d2 76745F73 		.ascii	"vt_systime\000"
 5252      79737469 
 5252      6D6500
 5253              	.LASF132:
 5254 06dd 63685363 		.ascii	"chSchGoSleepTimeoutS\000"
 5254      68476F53 
 5254      6C656570 
 5254      54696D65 
 5254      6F757453 
 5255              	.LASF110:
 5256 06f2 63685379 		.ascii	"chSysUnlock\000"
 5256      73556E6C 
 5256      6F636B00 
 5257              	.LASF42:
 5258 06fe 705F6D73 		.ascii	"p_msg\000"
 5258      6700
 5259              	.LASF100:
 5260 0704 6D5F6F77 		.ascii	"m_owner\000"
 5260      6E657200 
 5261              	.LASF31:
 5262 070c 705F6374 		.ascii	"p_ctx\000"
 5262      7800
 5263              	.LASF67:
 5264 0712 76745F66 		.ascii	"vt_func\000"
 5264      756E6300 
 5265              		.ident	"GCC: (GNU Tools for ARM Embedded Processors) 5.4.1 20160609 (release) [ARM/embedded-5-bran
ARM GAS  C:\Users\IDONNO~1.SON\AppData\Local\Temp\ccW0NqxC.s 			page 99


DEFINED SYMBOLS
                            *ABS*:00000000 chsem.c
C:\Users\IDONNO~1.SON\AppData\Local\Temp\ccW0NqxC.s:22     .text.chSemObjectInit:00000000 $t
C:\Users\IDONNO~1.SON\AppData\Local\Temp\ccW0NqxC.s:28     .text.chSemObjectInit:00000000 chSemObjectInit
C:\Users\IDONNO~1.SON\AppData\Local\Temp\ccW0NqxC.s:54     .text.chSemResetI:00000000 $t
C:\Users\IDONNO~1.SON\AppData\Local\Temp\ccW0NqxC.s:60     .text.chSemResetI:00000000 chSemResetI
C:\Users\IDONNO~1.SON\AppData\Local\Temp\ccW0NqxC.s:120    .text.chSemReset:00000000 $t
C:\Users\IDONNO~1.SON\AppData\Local\Temp\ccW0NqxC.s:126    .text.chSemReset:00000000 chSemReset
C:\Users\IDONNO~1.SON\AppData\Local\Temp\ccW0NqxC.s:185    .text.chSemWait:00000000 $t
C:\Users\IDONNO~1.SON\AppData\Local\Temp\ccW0NqxC.s:191    .text.chSemWait:00000000 chSemWait
C:\Users\IDONNO~1.SON\AppData\Local\Temp\ccW0NqxC.s:322    .text.chSemWait:00000040 $d
C:\Users\IDONNO~1.SON\AppData\Local\Temp\ccW0NqxC.s:327    .text.chSemWaitS:00000000 $t
C:\Users\IDONNO~1.SON\AppData\Local\Temp\ccW0NqxC.s:333    .text.chSemWaitS:00000000 chSemWaitS
C:\Users\IDONNO~1.SON\AppData\Local\Temp\ccW0NqxC.s:397    .text.chSemWaitS:00000030 $d
C:\Users\IDONNO~1.SON\AppData\Local\Temp\ccW0NqxC.s:404    .text.chSemWaitTimeout:00000000 $t
C:\Users\IDONNO~1.SON\AppData\Local\Temp\ccW0NqxC.s:410    .text.chSemWaitTimeout:00000000 chSemWaitTimeout
C:\Users\IDONNO~1.SON\AppData\Local\Temp\ccW0NqxC.s:548    .text.chSemWaitTimeout:00000048 $d
C:\Users\IDONNO~1.SON\AppData\Local\Temp\ccW0NqxC.s:555    .text.chSemWaitTimeoutS:00000000 $t
C:\Users\IDONNO~1.SON\AppData\Local\Temp\ccW0NqxC.s:561    .text.chSemWaitTimeoutS:00000000 chSemWaitTimeoutS
C:\Users\IDONNO~1.SON\AppData\Local\Temp\ccW0NqxC.s:643    .text.chSemWaitTimeoutS:0000003c $d
C:\Users\IDONNO~1.SON\AppData\Local\Temp\ccW0NqxC.s:648    .text.chSemSignal:00000000 $t
C:\Users\IDONNO~1.SON\AppData\Local\Temp\ccW0NqxC.s:654    .text.chSemSignal:00000000 chSemSignal
C:\Users\IDONNO~1.SON\AppData\Local\Temp\ccW0NqxC.s:758    .text.chSemSignalI:00000000 $t
C:\Users\IDONNO~1.SON\AppData\Local\Temp\ccW0NqxC.s:764    .text.chSemSignalI:00000000 chSemSignalI
C:\Users\IDONNO~1.SON\AppData\Local\Temp\ccW0NqxC.s:815    .text.chSemAddCounterI:00000000 $t
C:\Users\IDONNO~1.SON\AppData\Local\Temp\ccW0NqxC.s:821    .text.chSemAddCounterI:00000000 chSemAddCounterI
C:\Users\IDONNO~1.SON\AppData\Local\Temp\ccW0NqxC.s:887    .text.chSemSignalWait:00000000 $t
C:\Users\IDONNO~1.SON\AppData\Local\Temp\ccW0NqxC.s:893    .text.chSemSignalWait:00000000 chSemSignalWait
C:\Users\IDONNO~1.SON\AppData\Local\Temp\ccW0NqxC.s:1069   .text.chSemSignalWait:00000068 $d
                     .debug_frame:00000010 $d

UNDEFINED SYMBOLS
chSchReadyI
chSchRescheduleS
chSchGoSleepS
ch
chSchGoSleepTimeoutS
chSchWakeupS
