ARM GAS  C:\Users\IDONNO~1\AppData\Local\Temp\ccRF5WGp.s 			page 1


   1              		.syntax unified
   2              		.cpu cortex-m4
   3              		.eabi_attribute 27, 1
   4              		.eabi_attribute 28, 1
   5              		.fpu fpv4-sp-d16
   6              		.eabi_attribute 20, 1
   7              		.eabi_attribute 21, 1
   8              		.eabi_attribute 23, 3
   9              		.eabi_attribute 24, 1
  10              		.eabi_attribute 25, 1
  11              		.eabi_attribute 26, 1
  12              		.eabi_attribute 30, 2
  13              		.eabi_attribute 34, 1
  14              		.eabi_attribute 18, 4
  15              		.thumb
  16              		.syntax unified
  17              		.file	"chsem.c"
  18              		.text
  19              	.Ltext0:
  20              		.cfi_sections	.debug_frame
  21              		.section	.text.chSemObjectInit,"ax",%progbits
  22              		.align	2
  23              		.p2align 4,,15
  24              		.global	chSemObjectInit
  25              		.thumb
  26              		.thumb_func
  27              		.type	chSemObjectInit, %function
  28              	chSemObjectInit:
  29              	.LFB219:
  30              		.file 1 "lib/ChibiOS_3.0.2/os/rt/src/chsem.c"
  31              		.loc 1 97 0
  32              		.cfi_startproc
  33              		@ args = 0, pretend = 0, frame = 0
  34              		@ frame_needed = 0, uses_anonymous_args = 0
  35              		@ link register save eliminated.
  36              	.LVL0:
  37              	.LBB92:
  38              	.LBB93:
  39              		.file 2 "lib/ChibiOS_3.0.2/os/rt/include/chschd.h"
  40              		.loc 2 604 0
  41 0000 0060     		str	r0, [r0]
  42              		.loc 2 605 0
  43 0002 4060     		str	r0, [r0, #4]
  44              	.LVL1:
  45              	.LBE93:
  46              	.LBE92:
  47              		.loc 1 102 0
  48 0004 8160     		str	r1, [r0, #8]
  49 0006 7047     		bx	lr
  50              		.cfi_endproc
  51              	.LFE219:
  52              		.size	chSemObjectInit, .-chSemObjectInit
  53              		.section	.text.chSemResetI,"ax",%progbits
  54              		.align	2
  55              		.p2align 4,,15
  56              		.global	chSemResetI
  57              		.thumb
ARM GAS  C:\Users\IDONNO~1\AppData\Local\Temp\ccRF5WGp.s 			page 2


  58              		.thumb_func
  59              		.type	chSemResetI, %function
  60              	chSemResetI:
  61              	.LFB221:
  62              		.loc 1 147 0
  63              		.cfi_startproc
  64              		@ args = 0, pretend = 0, frame = 0
  65              		@ frame_needed = 0, uses_anonymous_args = 0
  66              	.LVL2:
  67 0000 70B5     		push	{r4, r5, r6, lr}
  68              		.cfi_def_cfa_offset 16
  69              		.cfi_offset 4, -16
  70              		.cfi_offset 5, -12
  71              		.cfi_offset 6, -8
  72              		.cfi_offset 14, -4
  73              		.loc 1 156 0
  74 0002 8568     		ldr	r5, [r0, #8]
  75              	.LVL3:
  76              		.loc 1 157 0
  77 0004 8160     		str	r1, [r0, #8]
  78              		.loc 1 158 0
  79 0006 0135     		adds	r5, r5, #1
  80              	.LVL4:
  81 0008 002D     		cmp	r5, #0
  82 000a 0CDC     		bgt	.L2
  83 000c 0446     		mov	r4, r0
  84              		.loc 1 159 0
  85 000e 6FF00106 		mvn	r6, #1
  86              	.LVL5:
  87              	.L4:
  88              	.LBB94:
  89              	.LBB95:
  90              		.loc 2 681 0
  91 0012 6068     		ldr	r0, [r4, #4]
  92              	.LVL6:
  93              		.loc 2 683 0
  94 0014 4368     		ldr	r3, [r0, #4]
  95 0016 6360     		str	r3, [r4, #4]
  96              		.loc 2 684 0
  97 0018 1C60     		str	r4, [r3]
  98              	.LVL7:
  99              	.LBE95:
 100              	.LBE94:
 101              		.loc 1 159 0
 102 001a FFF7FEFF 		bl	chSchReadyI
 103              	.LVL8:
 104              		.loc 1 158 0
 105 001e 0135     		adds	r5, r5, #1
 106              	.LVL9:
 107 0020 012D     		cmp	r5, #1
 108              		.loc 1 159 0
 109 0022 4662     		str	r6, [r0, #36]
 110              	.LVL10:
 111              		.loc 1 158 0
 112 0024 F5D1     		bne	.L4
 113              	.LVL11:
 114              	.L2:
ARM GAS  C:\Users\IDONNO~1\AppData\Local\Temp\ccRF5WGp.s 			page 3


 115 0026 70BD     		pop	{r4, r5, r6, pc}
 116              		.cfi_endproc
 117              	.LFE221:
 118              		.size	chSemResetI, .-chSemResetI
 119              		.section	.text.chSemReset,"ax",%progbits
 120              		.align	2
 121              		.p2align 4,,15
 122              		.global	chSemReset
 123              		.thumb
 124              		.thumb_func
 125              		.type	chSemReset, %function
 126              	chSemReset:
 127              	.LFB220:
 128              		.loc 1 120 0
 129              		.cfi_startproc
 130              		@ args = 0, pretend = 0, frame = 0
 131              		@ frame_needed = 0, uses_anonymous_args = 0
 132              	.LVL12:
 133 0000 08B5     		push	{r3, lr}
 134              		.cfi_def_cfa_offset 8
 135              		.cfi_offset 3, -8
 136              		.cfi_offset 14, -4
 137              	.LBB96:
 138              	.LBB97:
 139              	.LBB98:
 140              	.LBB99:
 141              		.file 3 "lib/ChibiOS_3.0.2/os/ext/CMSIS/include/core_cmFunc.h"
 142              		.loc 3 546 0
 143 0002 2023     		movs	r3, #32
 144              		.syntax unified
 145              	@ 546 "lib/ChibiOS_3.0.2/os/ext/CMSIS/include/core_cmFunc.h" 1
 146 0004 83F31188 		MSR basepri, r3
 147              	@ 0 "" 2
 148              	.LVL13:
 149              		.thumb
 150              		.syntax unified
 151              	.LBE99:
 152              	.LBE98:
 153              	.LBE97:
 154              	.LBE96:
 155              		.loc 1 123 0
 156 0008 FFF7FEFF 		bl	chSemResetI
 157              	.LVL14:
 158              		.loc 1 124 0
 159 000c FFF7FEFF 		bl	chSchRescheduleS
 160              	.LVL15:
 161              	.LBB100:
 162              	.LBB101:
 163              	.LBB102:
 164              	.LBB103:
 165              	.LBB104:
 166              		.loc 3 546 0
 167 0010 0023     		movs	r3, #0
 168              		.syntax unified
 169              	@ 546 "lib/ChibiOS_3.0.2/os/ext/CMSIS/include/core_cmFunc.h" 1
 170 0012 83F31188 		MSR basepri, r3
 171              	@ 0 "" 2
ARM GAS  C:\Users\IDONNO~1\AppData\Local\Temp\ccRF5WGp.s 			page 4


 172              	.LVL16:
 173              		.thumb
 174              		.syntax unified
 175 0016 08BD     		pop	{r3, pc}
 176              	.LBE104:
 177              	.LBE103:
 178              	.LBE102:
 179              	.LBE101:
 180              	.LBE100:
 181              		.cfi_endproc
 182              	.LFE220:
 183              		.size	chSemReset, .-chSemReset
 184              		.section	.text.chSemWait,"ax",%progbits
 185              		.align	2
 186              		.p2align 4,,15
 187              		.global	chSemWait
 188              		.thumb
 189              		.thumb_func
 190              		.type	chSemWait, %function
 191              	chSemWait:
 192              	.LFB222:
 193              		.loc 1 175 0
 194              		.cfi_startproc
 195              		@ args = 0, pretend = 0, frame = 0
 196              		@ frame_needed = 0, uses_anonymous_args = 0
 197              	.LVL17:
 198              	.LBB120:
 199              	.LBB121:
 200              	.LBB122:
 201              	.LBB123:
 202              		.loc 3 546 0
 203 0000 2023     		movs	r3, #32
 204              		.syntax unified
 205              	@ 546 "lib/ChibiOS_3.0.2/os/ext/CMSIS/include/core_cmFunc.h" 1
 206 0002 83F31188 		MSR basepri, r3
 207              	@ 0 "" 2
 208              	.LVL18:
 209              		.thumb
 210              		.syntax unified
 211              	.LBE123:
 212              	.LBE122:
 213              	.LBE121:
 214              	.LBE120:
 215              	.LBB124:
 216              	.LBB125:
 217              		.loc 1 205 0
 218 0006 8368     		ldr	r3, [r0, #8]
 219 0008 013B     		subs	r3, r3, #1
 220 000a 002B     		cmp	r3, #0
 221 000c 8360     		str	r3, [r0, #8]
 222 000e 04DB     		blt	.L16
 223              		.loc 1 213 0
 224 0010 0020     		movs	r0, #0
 225              	.LVL19:
 226              	.LBE125:
 227              	.LBE124:
 228              	.LBB133:
ARM GAS  C:\Users\IDONNO~1\AppData\Local\Temp\ccRF5WGp.s 			page 5


 229              	.LBB134:
 230              	.LBB135:
 231              	.LBB136:
 232              	.LBB137:
 233              		.loc 3 546 0
 234 0012 0023     		movs	r3, #0
 235              		.syntax unified
 236              	@ 546 "lib/ChibiOS_3.0.2/os/ext/CMSIS/include/core_cmFunc.h" 1
 237 0014 83F31188 		MSR basepri, r3
 238              	@ 0 "" 2
 239              	.LVL20:
 240              		.thumb
 241              		.syntax unified
 242              	.LBE137:
 243              	.LBE136:
 244              	.LBE135:
 245              	.LBE134:
 246              	.LBE133:
 247              		.loc 1 183 0
 248 0018 7047     		bx	lr
 249              	.LVL21:
 250              	.L16:
 251              		.loc 1 175 0
 252 001a 10B5     		push	{r4, lr}
 253              		.cfi_def_cfa_offset 8
 254              		.cfi_offset 4, -8
 255              		.cfi_offset 14, -4
 256              	.LBB142:
 257              	.LBB132:
 258              	.LBB126:
 259              	.LBB127:
 260              		.loc 1 206 0
 261 001c 084C     		ldr	r4, .L17
 262 001e A269     		ldr	r2, [r4, #24]
 263 0020 5062     		str	r0, [r2, #36]
 264              	.LBB128:
 265              	.LBB129:
 266              		.loc 2 666 0
 267 0022 4168     		ldr	r1, [r0, #4]
 268 0024 5160     		str	r1, [r2, #4]
 269 0026 0346     		mov	r3, r0
 270              	.LVL22:
 271              		.loc 2 665 0
 272 0028 1060     		str	r0, [r2]
 273              		.loc 2 667 0
 274 002a 0A60     		str	r2, [r1]
 275              	.LBE129:
 276              	.LBE128:
 277              		.loc 1 208 0
 278 002c 0520     		movs	r0, #5
 279              	.LVL23:
 280              	.LBB131:
 281              	.LBB130:
 282              		.loc 2 668 0
 283 002e 5A60     		str	r2, [r3, #4]
 284              	.LVL24:
 285              	.LBE130:
ARM GAS  C:\Users\IDONNO~1\AppData\Local\Temp\ccRF5WGp.s 			page 6


 286              	.LBE131:
 287              		.loc 1 208 0
 288 0030 FFF7FEFF 		bl	chSchGoSleepS
 289              	.LVL25:
 290              		.loc 1 210 0
 291 0034 A369     		ldr	r3, [r4, #24]
 292 0036 586A     		ldr	r0, [r3, #36]
 293              	.LVL26:
 294              	.LBE127:
 295              	.LBE126:
 296              	.LBE132:
 297              	.LBE142:
 298              	.LBB143:
 299              	.LBB141:
 300              	.LBB140:
 301              	.LBB139:
 302              	.LBB138:
 303              		.loc 3 546 0
 304 0038 0023     		movs	r3, #0
 305              		.syntax unified
 306              	@ 546 "lib/ChibiOS_3.0.2/os/ext/CMSIS/include/core_cmFunc.h" 1
 307 003a 83F31188 		MSR basepri, r3
 308              	@ 0 "" 2
 309              	.LVL27:
 310              		.thumb
 311              		.syntax unified
 312              	.LBE138:
 313              	.LBE139:
 314              	.LBE140:
 315              	.LBE141:
 316              	.LBE143:
 317              		.loc 1 183 0
 318 003e 10BD     		pop	{r4, pc}
 319              	.L18:
 320              		.align	2
 321              	.L17:
 322 0040 00000000 		.word	ch
 323              		.cfi_endproc
 324              	.LFE222:
 325              		.size	chSemWait, .-chSemWait
 326              		.section	.text.chSemWaitS,"ax",%progbits
 327              		.align	2
 328              		.p2align 4,,15
 329              		.global	chSemWaitS
 330              		.thumb
 331              		.thumb_func
 332              		.type	chSemWaitS, %function
 333              	chSemWaitS:
 334              	.LFB223:
 335              		.loc 1 197 0
 336              		.cfi_startproc
 337              		@ args = 0, pretend = 0, frame = 0
 338              		@ frame_needed = 0, uses_anonymous_args = 0
 339              	.LVL28:
 340              		.loc 1 205 0
 341 0000 8368     		ldr	r3, [r0, #8]
 342 0002 013B     		subs	r3, r3, #1
ARM GAS  C:\Users\IDONNO~1\AppData\Local\Temp\ccRF5WGp.s 			page 7


 343 0004 002B     		cmp	r3, #0
 344 0006 8360     		str	r3, [r0, #8]
 345 0008 01DB     		blt	.L24
 346              		.loc 1 213 0
 347 000a 0020     		movs	r0, #0
 348              	.LVL29:
 349 000c 7047     		bx	lr
 350              	.LVL30:
 351              	.L24:
 352              		.loc 1 197 0
 353 000e 10B5     		push	{r4, lr}
 354              		.cfi_def_cfa_offset 8
 355              		.cfi_offset 4, -8
 356              		.cfi_offset 14, -4
 357              	.LBB148:
 358              	.LBB149:
 359              		.loc 1 206 0
 360 0010 074C     		ldr	r4, .L25
 361 0012 A269     		ldr	r2, [r4, #24]
 362 0014 5062     		str	r0, [r2, #36]
 363              	.LBB150:
 364              	.LBB151:
 365              		.loc 2 666 0
 366 0016 4168     		ldr	r1, [r0, #4]
 367 0018 5160     		str	r1, [r2, #4]
 368 001a 0346     		mov	r3, r0
 369              	.LVL31:
 370              		.loc 2 665 0
 371 001c 1060     		str	r0, [r2]
 372              		.loc 2 667 0
 373 001e 0A60     		str	r2, [r1]
 374              	.LBE151:
 375              	.LBE150:
 376              		.loc 1 208 0
 377 0020 0520     		movs	r0, #5
 378              	.LVL32:
 379              	.LBB153:
 380              	.LBB152:
 381              		.loc 2 668 0
 382 0022 5A60     		str	r2, [r3, #4]
 383              	.LVL33:
 384              	.LBE152:
 385              	.LBE153:
 386              		.loc 1 208 0
 387 0024 FFF7FEFF 		bl	chSchGoSleepS
 388              	.LVL34:
 389              		.loc 1 210 0
 390 0028 A369     		ldr	r3, [r4, #24]
 391 002a 586A     		ldr	r0, [r3, #36]
 392              	.LVL35:
 393 002c 10BD     		pop	{r4, pc}
 394              	.L26:
 395 002e 00BF     		.align	2
 396              	.L25:
 397 0030 00000000 		.word	ch
 398              	.LBE149:
 399              	.LBE148:
ARM GAS  C:\Users\IDONNO~1\AppData\Local\Temp\ccRF5WGp.s 			page 8


 400              		.cfi_endproc
 401              	.LFE223:
 402              		.size	chSemWaitS, .-chSemWaitS
 403              		.section	.text.chSemWaitTimeout,"ax",%progbits
 404              		.align	2
 405              		.p2align 4,,15
 406              		.global	chSemWaitTimeout
 407              		.thumb
 408              		.thumb_func
 409              		.type	chSemWaitTimeout, %function
 410              	chSemWaitTimeout:
 411              	.LFB224:
 412              		.loc 1 235 0
 413              		.cfi_startproc
 414              		@ args = 0, pretend = 0, frame = 0
 415              		@ frame_needed = 0, uses_anonymous_args = 0
 416              	.LVL36:
 417              	.LBB169:
 418              	.LBB170:
 419              	.LBB171:
 420              	.LBB172:
 421              		.loc 3 546 0
 422 0000 2023     		movs	r3, #32
 423              		.syntax unified
 424              	@ 546 "lib/ChibiOS_3.0.2/os/ext/CMSIS/include/core_cmFunc.h" 1
 425 0002 83F31188 		MSR basepri, r3
 426              	@ 0 "" 2
 427              	.LVL37:
 428              		.thumb
 429              		.syntax unified
 430              	.LBE172:
 431              	.LBE171:
 432              	.LBE170:
 433              	.LBE169:
 434              	.LBB173:
 435              	.LBB174:
 436              		.loc 1 272 0
 437 0006 8268     		ldr	r2, [r0, #8]
 438 0008 531E     		subs	r3, r2, #1
 439 000a 002B     		cmp	r3, #0
 440 000c 8360     		str	r3, [r0, #8]
 441 000e 04DB     		blt	.L33
 442              		.loc 1 284 0
 443 0010 0020     		movs	r0, #0
 444              	.LVL38:
 445              	.LBE174:
 446              	.LBE173:
 447              	.LBB183:
 448              	.LBB184:
 449              	.LBB185:
 450              	.LBB186:
 451              	.LBB187:
 452              		.loc 3 546 0
 453 0012 0023     		movs	r3, #0
 454              		.syntax unified
 455              	@ 546 "lib/ChibiOS_3.0.2/os/ext/CMSIS/include/core_cmFunc.h" 1
 456 0014 83F31188 		MSR basepri, r3
ARM GAS  C:\Users\IDONNO~1\AppData\Local\Temp\ccRF5WGp.s 			page 9


 457              	@ 0 "" 2
 458              	.LVL39:
 459              		.thumb
 460              		.syntax unified
 461              	.LBE187:
 462              	.LBE186:
 463              	.LBE185:
 464              	.LBE184:
 465              	.LBE183:
 466              		.loc 1 243 0
 467 0018 7047     		bx	lr
 468              	.LVL40:
 469              	.L33:
 470              		.loc 1 235 0
 471 001a 10B5     		push	{r4, lr}
 472              		.cfi_def_cfa_offset 8
 473              		.cfi_offset 4, -8
 474              		.cfi_offset 14, -4
 475              	.LBB192:
 476              	.LBB181:
 477              		.loc 1 273 0
 478 001c 79B1     		cbz	r1, .L34
 479              	.LBB175:
 480              	.LBB176:
 481              		.loc 1 278 0
 482 001e 0A4A     		ldr	r2, .L35
 483 0020 9269     		ldr	r2, [r2, #24]
 484 0022 5062     		str	r0, [r2, #36]
 485              	.LBB177:
 486              	.LBB178:
 487              		.loc 2 666 0
 488 0024 4468     		ldr	r4, [r0, #4]
 489              	.LVL41:
 490 0026 0346     		mov	r3, r0
 491              	.LVL42:
 492 0028 82E81800 		stmia	r2, {r3, r4}
 493              	.LBE178:
 494              	.LBE177:
 495              		.loc 1 281 0
 496 002c 0520     		movs	r0, #5
 497              	.LVL43:
 498              	.LBB180:
 499              	.LBB179:
 500              		.loc 2 667 0
 501 002e 2260     		str	r2, [r4]
 502              		.loc 2 668 0
 503 0030 5A60     		str	r2, [r3, #4]
 504              	.LVL44:
 505              	.LBE179:
 506              	.LBE180:
 507              		.loc 1 281 0
 508 0032 FFF7FEFF 		bl	chSchGoSleepTimeoutS
 509              	.LVL45:
 510              	.L28:
 511              	.LBE176:
 512              	.LBE175:
 513              	.LBE181:
ARM GAS  C:\Users\IDONNO~1\AppData\Local\Temp\ccRF5WGp.s 			page 10


 514              	.LBE192:
 515              	.LBB193:
 516              	.LBB191:
 517              	.LBB190:
 518              	.LBB189:
 519              	.LBB188:
 520              		.loc 3 546 0
 521 0036 0023     		movs	r3, #0
 522              		.syntax unified
 523              	@ 546 "lib/ChibiOS_3.0.2/os/ext/CMSIS/include/core_cmFunc.h" 1
 524 0038 83F31188 		MSR basepri, r3
 525              	@ 0 "" 2
 526              	.LVL46:
 527              		.thumb
 528              		.syntax unified
 529              	.LBE188:
 530              	.LBE189:
 531              	.LBE190:
 532              	.LBE191:
 533              	.LBE193:
 534              		.loc 1 243 0
 535 003c 10BD     		pop	{r4, pc}
 536              	.LVL47:
 537              	.L34:
 538              	.LBB194:
 539              	.LBB182:
 540              		.loc 1 274 0
 541 003e 8260     		str	r2, [r0, #8]
 542              		.loc 1 276 0
 543 0040 4FF0FF30 		mov	r0, #-1
 544              	.LVL48:
 545 0044 F7E7     		b	.L28
 546              	.L36:
 547 0046 00BF     		.align	2
 548              	.L35:
 549 0048 00000000 		.word	ch
 550              	.LBE182:
 551              	.LBE194:
 552              		.cfi_endproc
 553              	.LFE224:
 554              		.size	chSemWaitTimeout, .-chSemWaitTimeout
 555              		.section	.text.chSemWaitTimeoutS,"ax",%progbits
 556              		.align	2
 557              		.p2align 4,,15
 558              		.global	chSemWaitTimeoutS
 559              		.thumb
 560              		.thumb_func
 561              		.type	chSemWaitTimeoutS, %function
 562              	chSemWaitTimeoutS:
 563              	.LFB225:
 564              		.loc 1 264 0
 565              		.cfi_startproc
 566              		@ args = 0, pretend = 0, frame = 0
 567              		@ frame_needed = 0, uses_anonymous_args = 0
 568              		@ link register save eliminated.
 569              	.LVL49:
 570 0000 0346     		mov	r3, r0
ARM GAS  C:\Users\IDONNO~1\AppData\Local\Temp\ccRF5WGp.s 			page 11


 571              		.loc 1 272 0
 572 0002 8068     		ldr	r0, [r0, #8]
 573              	.LVL50:
 574 0004 421E     		subs	r2, r0, #1
 575 0006 002A     		cmp	r2, #0
 576 0008 9A60     		str	r2, [r3, #8]
 577 000a 01DB     		blt	.L43
 578              		.loc 1 284 0
 579 000c 0020     		movs	r0, #0
 580 000e 7047     		bx	lr
 581              	.L43:
 582              		.loc 1 264 0
 583 0010 10B4     		push	{r4}
 584              		.cfi_def_cfa_offset 4
 585              		.cfi_offset 4, -4
 586              		.loc 1 273 0
 587 0012 61B1     		cbz	r1, .L44
 588              	.LVL51:
 589              	.LBB199:
 590              	.LBB200:
 591              		.loc 1 278 0
 592 0014 094A     		ldr	r2, .L45
 593 0016 9269     		ldr	r2, [r2, #24]
 594 0018 5362     		str	r3, [r2, #36]
 595              	.LVL52:
 596              	.LBB201:
 597              	.LBB202:
 598              		.loc 2 666 0
 599 001a 5C68     		ldr	r4, [r3, #4]
 600              	.LBE202:
 601              	.LBE201:
 602              		.loc 1 281 0
 603 001c 0520     		movs	r0, #5
 604              	.LBB204:
 605              	.LBB203:
 606              		.loc 2 666 0
 607 001e 82E81800 		stmia	r2, {r3, r4}
 608              		.loc 2 667 0
 609 0022 2260     		str	r2, [r4]
 610              		.loc 2 668 0
 611 0024 5A60     		str	r2, [r3, #4]
 612              	.LVL53:
 613              	.LBE203:
 614              	.LBE204:
 615              	.LBE200:
 616              	.LBE199:
 617              		.loc 1 285 0
 618 0026 5DF8044B 		ldr	r4, [sp], #4
 619              		.cfi_remember_state
 620              		.cfi_restore 4
 621              		.cfi_def_cfa_offset 0
 622              	.LBB206:
 623              	.LBB205:
 624              		.loc 1 281 0
 625 002a FFF7FEBF 		b	chSchGoSleepTimeoutS
 626              	.LVL54:
 627              	.L44:
ARM GAS  C:\Users\IDONNO~1\AppData\Local\Temp\ccRF5WGp.s 			page 12


 628              		.cfi_restore_state
 629              	.LBE205:
 630              	.LBE206:
 631              		.loc 1 274 0
 632 002e 9860     		str	r0, [r3, #8]
 633              		.loc 1 285 0
 634 0030 5DF8044B 		ldr	r4, [sp], #4
 635              		.cfi_restore 4
 636              		.cfi_def_cfa_offset 0
 637              		.loc 1 276 0
 638 0034 4FF0FF30 		mov	r0, #-1
 639              		.loc 1 285 0
 640 0038 7047     		bx	lr
 641              	.L46:
 642 003a 00BF     		.align	2
 643              	.L45:
 644 003c 00000000 		.word	ch
 645              		.cfi_endproc
 646              	.LFE225:
 647              		.size	chSemWaitTimeoutS, .-chSemWaitTimeoutS
 648              		.section	.text.chSemSignal,"ax",%progbits
 649              		.align	2
 650              		.p2align 4,,15
 651              		.global	chSemSignal
 652              		.thumb
 653              		.thumb_func
 654              		.type	chSemSignal, %function
 655              	chSemSignal:
 656              	.LFB226:
 657              		.loc 1 294 0
 658              		.cfi_startproc
 659              		@ args = 0, pretend = 0, frame = 0
 660              		@ frame_needed = 0, uses_anonymous_args = 0
 661              	.LVL55:
 662 0000 08B5     		push	{r3, lr}
 663              		.cfi_def_cfa_offset 8
 664              		.cfi_offset 3, -8
 665              		.cfi_offset 14, -4
 666              	.LBB207:
 667              	.LBB208:
 668              	.LBB209:
 669              	.LBB210:
 670              		.loc 3 546 0
 671 0002 2023     		movs	r3, #32
 672              		.syntax unified
 673              	@ 546 "lib/ChibiOS_3.0.2/os/ext/CMSIS/include/core_cmFunc.h" 1
 674 0004 83F31188 		MSR basepri, r3
 675              	@ 0 "" 2
 676              	.LVL56:
 677              		.thumb
 678              		.syntax unified
 679              	.LBE210:
 680              	.LBE209:
 681              	.LBE208:
 682              	.LBE207:
 683              		.loc 1 302 0
 684 0008 8368     		ldr	r3, [r0, #8]
ARM GAS  C:\Users\IDONNO~1\AppData\Local\Temp\ccRF5WGp.s 			page 13


 685 000a 0133     		adds	r3, r3, #1
 686 000c 002B     		cmp	r3, #0
 687 000e 8360     		str	r3, [r0, #8]
 688 0010 03DD     		ble	.L50
 689              	.LVL57:
 690              	.LBB211:
 691              	.LBB212:
 692              	.LBB213:
 693              	.LBB214:
 694              	.LBB215:
 695              		.loc 3 546 0
 696 0012 0023     		movs	r3, #0
 697              		.syntax unified
 698              	@ 546 "lib/ChibiOS_3.0.2/os/ext/CMSIS/include/core_cmFunc.h" 1
 699 0014 83F31188 		MSR basepri, r3
 700              	@ 0 "" 2
 701              	.LVL58:
 702              		.thumb
 703              		.syntax unified
 704 0018 08BD     		pop	{r3, pc}
 705              	.L50:
 706 001a 0346     		mov	r3, r0
 707              	.LVL59:
 708              	.LBE215:
 709              	.LBE214:
 710              	.LBE213:
 711              	.LBE212:
 712              	.LBE211:
 713              	.LBB220:
 714              	.LBB221:
 715              		.loc 2 672 0
 716 001c 0068     		ldr	r0, [r0]
 717              	.LVL60:
 718              		.loc 2 674 0
 719 001e 0268     		ldr	r2, [r0]
 720 0020 1A60     		str	r2, [r3]
 721              	.LBE221:
 722              	.LBE220:
 723              		.loc 1 303 0
 724 0022 0021     		movs	r1, #0
 725              	.LBB223:
 726              	.LBB222:
 727              		.loc 2 675 0
 728 0024 5360     		str	r3, [r2, #4]
 729              	.LVL61:
 730              	.LBE222:
 731              	.LBE223:
 732              		.loc 1 303 0
 733 0026 FFF7FEFF 		bl	chSchWakeupS
 734              	.LVL62:
 735              	.LBB224:
 736              	.LBB219:
 737              	.LBB218:
 738              	.LBB217:
 739              	.LBB216:
 740              		.loc 3 546 0
 741 002a 0023     		movs	r3, #0
ARM GAS  C:\Users\IDONNO~1\AppData\Local\Temp\ccRF5WGp.s 			page 14


 742              		.syntax unified
 743              	@ 546 "lib/ChibiOS_3.0.2/os/ext/CMSIS/include/core_cmFunc.h" 1
 744 002c 83F31188 		MSR basepri, r3
 745              	@ 0 "" 2
 746              	.LVL63:
 747              		.thumb
 748              		.syntax unified
 749 0030 08BD     		pop	{r3, pc}
 750              	.LBE216:
 751              	.LBE217:
 752              	.LBE218:
 753              	.LBE219:
 754              	.LBE224:
 755              		.cfi_endproc
 756              	.LFE226:
 757              		.size	chSemSignal, .-chSemSignal
 758 0032 00BF     		.section	.text.chSemSignalI,"ax",%progbits
 759              		.align	2
 760              		.p2align 4,,15
 761              		.global	chSemSignalI
 762              		.thumb
 763              		.thumb_func
 764              		.type	chSemSignalI, %function
 765              	chSemSignalI:
 766              	.LFB227:
 767              		.loc 1 319 0
 768              		.cfi_startproc
 769              		@ args = 0, pretend = 0, frame = 0
 770              		@ frame_needed = 0, uses_anonymous_args = 0
 771              		@ link register save eliminated.
 772              	.LVL64:
 773              		.loc 1 327 0
 774 0000 8368     		ldr	r3, [r0, #8]
 775 0002 0133     		adds	r3, r3, #1
 776 0004 002B     		cmp	r3, #0
 777 0006 8360     		str	r3, [r0, #8]
 778 0008 00DD     		ble	.L53
 779 000a 7047     		bx	lr
 780              	.L53:
 781              	.LVL65:
 782              	.LBB225:
 783              	.LBB226:
 784              	.LBB227:
 785              		.loc 2 672 0
 786 000c 0368     		ldr	r3, [r0]
 787              	.LVL66:
 788              		.loc 2 674 0
 789 000e 1A68     		ldr	r2, [r3]
 790 0010 0260     		str	r2, [r0]
 791              	.LBE227:
 792              	.LBE226:
 793              		.loc 1 331 0
 794 0012 0021     		movs	r1, #0
 795              	.LBB229:
 796              	.LBB228:
 797              		.loc 2 675 0
 798 0014 5060     		str	r0, [r2, #4]
ARM GAS  C:\Users\IDONNO~1\AppData\Local\Temp\ccRF5WGp.s 			page 15


 799              	.LVL67:
 800              	.LBE228:
 801              	.LBE229:
 802              		.loc 1 332 0
 803 0016 1846     		mov	r0, r3
 804              	.LVL68:
 805              		.loc 1 331 0
 806 0018 5962     		str	r1, [r3, #36]
 807              	.LVL69:
 808              		.loc 1 332 0
 809 001a FFF7FEBF 		b	chSchReadyI
 810              	.LVL70:
 811              	.LBE225:
 812              		.cfi_endproc
 813              	.LFE227:
 814              		.size	chSemSignalI, .-chSemSignalI
 815 001e 00BF     		.section	.text.chSemAddCounterI,"ax",%progbits
 816              		.align	2
 817              		.p2align 4,,15
 818              		.global	chSemAddCounterI
 819              		.thumb
 820              		.thumb_func
 821              		.type	chSemAddCounterI, %function
 822              	chSemAddCounterI:
 823              	.LFB228:
 824              		.loc 1 349 0
 825              		.cfi_startproc
 826              		@ args = 0, pretend = 0, frame = 0
 827              		@ frame_needed = 0, uses_anonymous_args = 0
 828              	.LVL71:
 829 0000 70B5     		push	{r4, r5, r6, lr}
 830              		.cfi_def_cfa_offset 16
 831              		.cfi_offset 4, -16
 832              		.cfi_offset 5, -12
 833              		.cfi_offset 6, -8
 834              		.cfi_offset 14, -4
 835              		.loc 1 357 0
 836 0002 0C1E     		subs	r4, r1, #0
 837 0004 12DD     		ble	.L54
 838 0006 0546     		mov	r5, r0
 839              		.loc 1 359 0
 840 0008 0026     		movs	r6, #0
 841 000a 01E0     		b	.L57
 842              	.LVL72:
 843              	.L56:
 844              		.loc 1 357 0
 845 000c 013C     		subs	r4, r4, #1
 846              	.LVL73:
 847 000e 0DD0     		beq	.L54
 848              	.LVL74:
 849              	.L57:
 850              		.loc 1 358 0
 851 0010 AB68     		ldr	r3, [r5, #8]
 852 0012 0133     		adds	r3, r3, #1
 853 0014 002B     		cmp	r3, #0
 854 0016 AB60     		str	r3, [r5, #8]
 855 0018 F8DC     		bgt	.L56
ARM GAS  C:\Users\IDONNO~1\AppData\Local\Temp\ccRF5WGp.s 			page 16


 856              	.LVL75:
 857              	.LBB230:
 858              	.LBB231:
 859              		.loc 2 672 0
 860 001a 2868     		ldr	r0, [r5]
 861              	.LVL76:
 862              		.loc 2 674 0
 863 001c 0368     		ldr	r3, [r0]
 864 001e 2B60     		str	r3, [r5]
 865              		.loc 2 675 0
 866 0020 5D60     		str	r5, [r3, #4]
 867              	.LVL77:
 868              	.LBE231:
 869              	.LBE230:
 870              		.loc 1 359 0
 871 0022 FFF7FEFF 		bl	chSchReadyI
 872              	.LVL78:
 873              		.loc 1 357 0
 874 0026 013C     		subs	r4, r4, #1
 875              	.LVL79:
 876              		.loc 1 359 0
 877 0028 4662     		str	r6, [r0, #36]
 878              	.LVL80:
 879              		.loc 1 357 0
 880 002a F1D1     		bne	.L57
 881              	.LVL81:
 882              	.L54:
 883 002c 70BD     		pop	{r4, r5, r6, pc}
 884              		.cfi_endproc
 885              	.LFE228:
 886              		.size	chSemAddCounterI, .-chSemAddCounterI
 887 002e 00BF     		.section	.text.chSemSignalWait,"ax",%progbits
 888              		.align	2
 889              		.p2align 4,,15
 890              		.global	chSemSignalWait
 891              		.thumb
 892              		.thumb_func
 893              		.type	chSemSignalWait, %function
 894              	chSemSignalWait:
 895              	.LFB229:
 896              		.loc 1 378 0
 897              		.cfi_startproc
 898              		@ args = 0, pretend = 0, frame = 8
 899              		@ frame_needed = 0, uses_anonymous_args = 0
 900              	.LVL82:
 901 0000 10B5     		push	{r4, lr}
 902              		.cfi_def_cfa_offset 8
 903              		.cfi_offset 4, -8
 904              		.cfi_offset 14, -4
 905              	.LBB232:
 906              	.LBB233:
 907              	.LBB234:
 908              	.LBB235:
 909              		.loc 3 546 0
 910 0002 2023     		movs	r3, #32
 911              	.LBE235:
 912              	.LBE234:
ARM GAS  C:\Users\IDONNO~1\AppData\Local\Temp\ccRF5WGp.s 			page 17


 913              	.LBE233:
 914              	.LBE232:
 915              		.loc 1 378 0
 916 0004 82B0     		sub	sp, sp, #8
 917              		.cfi_def_cfa_offset 16
 918              	.LBB239:
 919              	.LBB238:
 920              	.LBB237:
 921              	.LBB236:
 922              		.loc 3 546 0
 923              		.syntax unified
 924              	@ 546 "lib/ChibiOS_3.0.2/os/ext/CMSIS/include/core_cmFunc.h" 1
 925 0006 83F31188 		MSR basepri, r3
 926              	@ 0 "" 2
 927              	.LVL83:
 928              		.thumb
 929              		.syntax unified
 930              	.LBE236:
 931              	.LBE237:
 932              	.LBE238:
 933              	.LBE239:
 934              		.loc 1 390 0
 935 000a 8368     		ldr	r3, [r0, #8]
 936 000c 0133     		adds	r3, r3, #1
 937 000e 002B     		cmp	r3, #0
 938 0010 8360     		str	r3, [r0, #8]
 939 0012 1DDD     		ble	.L66
 940              	.LVL84:
 941              	.L62:
 942              		.loc 1 393 0
 943 0014 8B68     		ldr	r3, [r1, #8]
 944 0016 013B     		subs	r3, r3, #1
 945 0018 002B     		cmp	r3, #0
 946 001a 8B60     		str	r3, [r1, #8]
 947 001c 07DB     		blt	.L67
 948              		.loc 1 401 0
 949 001e FFF7FEFF 		bl	chSchRescheduleS
 950              	.LVL85:
 951              		.loc 1 402 0
 952 0022 0020     		movs	r0, #0
 953              	.LVL86:
 954              	.LBB240:
 955              	.LBB241:
 956              	.LBB242:
 957              	.LBB243:
 958              	.LBB244:
 959              		.loc 3 546 0
 960 0024 0023     		movs	r3, #0
 961              		.syntax unified
 962              	@ 546 "lib/ChibiOS_3.0.2/os/ext/CMSIS/include/core_cmFunc.h" 1
 963 0026 83F31188 		MSR basepri, r3
 964              	@ 0 "" 2
 965              	.LVL87:
 966              		.thumb
 967              		.syntax unified
 968              	.LBE244:
 969              	.LBE243:
ARM GAS  C:\Users\IDONNO~1\AppData\Local\Temp\ccRF5WGp.s 			page 18


 970              	.LBE242:
 971              	.LBE241:
 972              	.LBE240:
 973              		.loc 1 407 0
 974 002a 02B0     		add	sp, sp, #8
 975              		.cfi_remember_state
 976              		.cfi_def_cfa_offset 8
 977              		@ sp needed
 978 002c 10BD     		pop	{r4, pc}
 979              	.LVL88:
 980              	.L67:
 981              		.cfi_restore_state
 982              	.LBB249:
 983              		.loc 1 394 0
 984 002e 0E4A     		ldr	r2, .L68
 985              	.LBB250:
 986              	.LBB251:
 987              		.loc 2 666 0
 988 0030 4B68     		ldr	r3, [r1, #4]
 989              	.LBE251:
 990              	.LBE250:
 991              		.loc 1 394 0
 992 0032 9469     		ldr	r4, [r2, #24]
 993              	.LVL89:
 994              		.loc 1 397 0
 995 0034 0520     		movs	r0, #5
 996              	.LBB253:
 997              	.LBB252:
 998              		.loc 2 666 0
 999 0036 84E80A00 		stmia	r4, {r1, r3}
 1000              		.loc 2 667 0
 1001 003a 1C60     		str	r4, [r3]
 1002              		.loc 2 668 0
 1003 003c 4C60     		str	r4, [r1, #4]
 1004              	.LVL90:
 1005              	.LBE252:
 1006              	.LBE253:
 1007              		.loc 1 396 0
 1008 003e 6162     		str	r1, [r4, #36]
 1009              		.loc 1 397 0
 1010 0040 FFF7FEFF 		bl	chSchGoSleepS
 1011              	.LVL91:
 1012              		.loc 1 398 0
 1013 0044 606A     		ldr	r0, [r4, #36]
 1014              	.LVL92:
 1015              	.LBE249:
 1016              	.LBB254:
 1017              	.LBB248:
 1018              	.LBB247:
 1019              	.LBB246:
 1020              	.LBB245:
 1021              		.loc 3 546 0
 1022 0046 0023     		movs	r3, #0
 1023              		.syntax unified
 1024              	@ 546 "lib/ChibiOS_3.0.2/os/ext/CMSIS/include/core_cmFunc.h" 1
 1025 0048 83F31188 		MSR basepri, r3
 1026              	@ 0 "" 2
ARM GAS  C:\Users\IDONNO~1\AppData\Local\Temp\ccRF5WGp.s 			page 19


 1027              	.LVL93:
 1028              		.thumb
 1029              		.syntax unified
 1030              	.LBE245:
 1031              	.LBE246:
 1032              	.LBE247:
 1033              	.LBE248:
 1034              	.LBE254:
 1035              		.loc 1 407 0
 1036 004c 02B0     		add	sp, sp, #8
 1037              		.cfi_remember_state
 1038              		.cfi_def_cfa_offset 8
 1039              		@ sp needed
 1040 004e 10BD     		pop	{r4, pc}
 1041              	.LVL94:
 1042              	.L66:
 1043              		.cfi_restore_state
 1044 0050 0246     		mov	r2, r0
 1045              	.LBB255:
 1046              	.LBB256:
 1047              		.loc 2 672 0
 1048 0052 0068     		ldr	r0, [r0]
 1049              	.LVL95:
 1050 0054 0191     		str	r1, [sp, #4]
 1051              	.LVL96:
 1052              		.loc 2 674 0
 1053 0056 0368     		ldr	r3, [r0]
 1054 0058 1360     		str	r3, [r2]
 1055              		.loc 2 675 0
 1056 005a 5A60     		str	r2, [r3, #4]
 1057              	.LVL97:
 1058              	.LBE256:
 1059              	.LBE255:
 1060              		.loc 1 391 0
 1061 005c FFF7FEFF 		bl	chSchReadyI
 1062              	.LVL98:
 1063 0060 0023     		movs	r3, #0
 1064 0062 4362     		str	r3, [r0, #36]
 1065 0064 0199     		ldr	r1, [sp, #4]
 1066 0066 D5E7     		b	.L62
 1067              	.L69:
 1068              		.align	2
 1069              	.L68:
 1070 0068 00000000 		.word	ch
 1071              		.cfi_endproc
 1072              	.LFE229:
 1073              		.size	chSemSignalWait, .-chSemSignalWait
 1074              		.text
 1075              	.Letext0:
 1076              		.file 4 "c:\\program files (x86)\\gnu tools arm embedded\\5.2 2015q4\\arm-none-eabi\\include\\mach
 1077              		.file 5 "c:\\program files (x86)\\gnu tools arm embedded\\5.2 2015q4\\arm-none-eabi\\include\\sys\
 1078              		.file 6 "lib/ChibiOS_3.0.2/os/rt/ports/ARMCMx/compilers/GCC/chtypes.h"
 1079              		.file 7 "lib/ChibiOS_3.0.2/os/rt/include/chsystypes.h"
 1080              		.file 8 "lib/ChibiOS_3.0.2/os/rt/ports/ARMCMx/chcore.h"
 1081              		.file 9 "lib/ChibiOS_3.0.2/os/rt/ports/ARMCMx/chcore_v7m.h"
 1082              		.file 10 "lib/ChibiOS_3.0.2/os/rt/include/chtm.h"
 1083              		.file 11 "lib/ChibiOS_3.0.2/os/rt/include/chsem.h"
ARM GAS  C:\Users\IDONNO~1\AppData\Local\Temp\ccRF5WGp.s 			page 20


 1084              		.file 12 "lib/ChibiOS_3.0.2/os/rt/include/chmtx.h"
 1085              		.file 13 "lib/ChibiOS_3.0.2/os/rt/include/chsys.h"
 1086              		.file 14 "lib/ChibiOS_3.0.2/os/ext/CMSIS/include/core_cm4.h"