ARM GAS  C:\Users\IDONNO~1\AppData\Local\Temp\ccRF5WGp.s 			page 1


   1              		.syntax unified
   2              		.cpu cortex-m4
   3              		.eabi_attribute 27, 1
   4              		.eabi_attribute 28, 1
   5              		.fpu fpv4-sp-d16
   6              		.eabi_attribute 20, 1
   7              		.eabi_attribute 21, 1
   8              		.eabi_attribute 23, 3
   9              		.eabi_attribute 24, 1
  10              		.eabi_attribute 25, 1
  11              		.eabi_attribute 26, 1
  12              		.eabi_attribute 30, 2
  13              		.eabi_attribute 34, 1
  14              		.eabi_attribute 18, 4
  15              		.thumb
  16              		.syntax unified
  17              		.file	"chsem.c"
  18              		.text
  19              	.Ltext0:
  20              		.cfi_sections	.debug_frame
  21              		.section	.text.chSemObjectInit,"ax",%progbits
  22              		.align	2
  23              		.p2align 4,,15
  24              		.global	chSemObjectInit
  25              		.thumb
  26              		.thumb_func
  27              		.type	chSemObjectInit, %function
  28              	chSemObjectInit:
  29              	.LFB219:
  30              		.file 1 "lib/ChibiOS_3.0.2/os/rt/src/chsem.c"
  31              		.loc 1 97 0
  32              		.cfi_startproc
  33              		@ args = 0, pretend = 0, frame = 0
  34              		@ frame_needed = 0, uses_anonymous_args = 0
  35              		@ link register save eliminated.
  36              	.LVL0:
  37              	.LBB92:
  38              	.LBB93:
  39              		.file 2 "lib/ChibiOS_3.0.2/os/rt/include/chschd.h"
  40              		.loc 2 604 0
  41 0000 0060     		str	r0, [r0]
  42              		.loc 2 605 0
  43 0002 4060     		str	r0, [r0, #4]
  44              	.LVL1:
  45              	.LBE93:
  46              	.LBE92:
  47              		.loc 1 102 0
  48 0004 8160     		str	r1, [r0, #8]
  49 0006 7047     		bx	lr
  50              		.cfi_endproc
  51              	.LFE219:
  52              		.size	chSemObjectInit, .-chSemObjectInit
  53              		.section	.text.chSemResetI,"ax",%progbits
  54              		.align	2
  55              		.p2align 4,,15
  56              		.global	chSemResetI
  57              		.thumb
ARM GAS  C:\Users\IDONNO~1\AppData\Local\Temp\ccRF5WGp.s 			page 2


  58              		.thumb_func
  59              		.type	chSemResetI, %function
  60              	chSemResetI:
  61              	.LFB221:
  62              		.loc 1 147 0
  63              		.cfi_startproc
  64              		@ args = 0, pretend = 0, frame = 0
  65              		@ frame_needed = 0, uses_anonymous_args = 0
  66              	.LVL2:
  67 0000 70B5     		push	{r4, r5, r6, lr}
  68              		.cfi_def_cfa_offset 16
  69              		.cfi_offset 4, -16
  70              		.cfi_offset 5, -12
  71              		.cfi_offset 6, -8
  72              		.cfi_offset 14, -4
  73              		.loc 1 156 0
  74 0002 8568     		ldr	r5, [r0, #8]
  75              	.LVL3:
  76              		.loc 1 157 0
  77 0004 8160     		str	r1, [r0, #8]
  78              		.loc 1 158 0
  79 0006 0135     		adds	r5, r5, #1
  80              	.LVL4:
  81 0008 002D     		cmp	r5, #0
  82 000a 0CDC     		bgt	.L2
  83 000c 0446     		mov	r4, r0
  84              		.loc 1 159 0
  85 000e 6FF00106 		mvn	r6, #1
  86              	.LVL5:
  87              	.L4:
  88              	.LBB94:
  89              	.LBB95:
  90              		.loc 2 681 0
  91 0012 6068     		ldr	r0, [r4, #4]
  92              	.LVL6:
  93              		.loc 2 683 0
  94 0014 4368     		ldr	r3, [r0, #4]
  95 0016 6360     		str	r3, [r4, #4]
  96              		.loc 2 684 0
  97 0018 1C60     		str	r4, [r3]
  98              	.LVL7:
  99              	.LBE95:
 100              	.LBE94:
 101              		.loc 1 159 0
 102 001a FFF7FEFF 		bl	chSchReadyI
 103              	.LVL8:
 104              		.loc 1 158 0
 105 001e 0135     		adds	r5, r5, #1
 106              	.LVL9:
 107 0020 012D     		cmp	r5, #1
 108              		.loc 1 159 0
 109 0022 4662     		str	r6, [r0, #36]
 110              	.LVL10:
 111              		.loc 1 158 0
 112 0024 F5D1     		bne	.L4
 113              	.LVL11:
 114              	.L2:
ARM GAS  C:\Users\IDONNO~1\AppData\Local\Temp\ccRF5WGp.s 			page 3


 115 0026 70BD     		pop	{r4, r5, r6, pc}
 116              		.cfi_endproc
 117              	.LFE221:
 118              		.size	chSemResetI, .-chSemResetI
 119              		.section	.text.chSemReset,"ax",%progbits
 120              		.align	2
 121              		.p2align 4,,15
 122              		.global	chSemReset
 123              		.thumb
 124              		.thumb_func
 125              		.type	chSemReset, %function
 126              	chSemReset:
 127              	.LFB220:
 128              		.loc 1 120 0
 129              		.cfi_startproc
 130              		@ args = 0, pretend = 0, frame = 0
 131              		@ frame_needed = 0, uses_anonymous_args = 0
 132              	.LVL12:
 133 0000 08B5     		push	{r3, lr}
 134              		.cfi_def_cfa_offset 8
 135              		.cfi_offset 3, -8
 136              		.cfi_offset 14, -4
 137              	.LBB96:
 138              	.LBB97:
 139              	.LBB98:
 140              	.LBB99:
 141              		.file 3 "lib/ChibiOS_3.0.2/os/ext/CMSIS/include/core_cmFunc.h"
 142              		.loc 3 546 0
 143 0002 2023     		movs	r3, #32
 144              		.syntax unified
 145              	@ 546 "lib/ChibiOS_3.0.2/os/ext/CMSIS/include/core_cmFunc.h" 1
 146 0004 83F31188 		MSR basepri, r3
 147              	@ 0 "" 2
 148              	.LVL13:
 149              		.thumb
 150              		.syntax unified
 151              	.LBE99:
 152              	.LBE98:
 153              	.LBE97:
 154              	.LBE96:
 155              		.loc 1 123 0
 156 0008 FFF7FEFF 		bl	chSemResetI
 157              	.LVL14:
 158              		.loc 1 124 0
 159 000c FFF7FEFF 		bl	chSchRescheduleS
 160              	.LVL15:
 161              	.LBB100:
 162              	.LBB101:
 163              	.LBB102:
 164              	.LBB103:
 165              	.LBB104:
 166              		.loc 3 546 0
 167 0010 0023     		movs	r3, #0
 168              		.syntax unified
 169              	@ 546 "lib/ChibiOS_3.0.2/os/ext/CMSIS/include/core_cmFunc.h" 1
 170 0012 83F31188 		MSR basepri, r3
 171              	@ 0 "" 2
ARM GAS  C:\Users\IDONNO~1\AppData\Local\Temp\ccRF5WGp.s 			page 4


 172              	.LVL16:
 173              		.thumb
 174              		.syntax unified
 175 0016 08BD     		pop	{r3, pc}
 176              	.LBE104:
 177              	.LBE103:
 178              	.LBE102:
 179              	.LBE101:
 180              	.LBE100:
 181              		.cfi_endproc
 182              	.LFE220:
 183              		.size	chSemReset, .-chSemReset
 184              		.section	.text.chSemWait,"ax",%progbits
 185              		.align	2
 186              		.p2align 4,,15
 187              		.global	chSemWait
 188              		.thumb
 189              		.thumb_func
 190              		.type	chSemWait, %function
 191              	chSemWait:
 192              	.LFB222:
 193              		.loc 1 175 0
 194              		.cfi_startproc
 195              		@ args = 0, pretend = 0, frame = 0
 196              		@ frame_needed = 0, uses_anonymous_args = 0
 197              	.LVL17:
 198              	.LBB120:
 199              	.LBB121:
 200              	.LBB122:
 201              	.LBB123:
 202              		.loc 3 546 0
 203 0000 2023     		movs	r3, #32
 204              		.syntax unified
 205              	@ 546 "lib/ChibiOS_3.0.2/os/ext/CMSIS/include/core_cmFunc.h" 1
 206 0002 83F31188 		MSR basepri, r3
 207              	@ 0 "" 2
 208              	.LVL18:
 209              		.thumb
 210              		.syntax unified
 211              	.LBE123:
 212              	.LBE122:
 213              	.LBE121:
 214              	.LBE120:
 215              	.LBB124:
 216              	.LBB125:
 217              		.loc 1 205 0
 218 0006 8368     		ldr	r3, [r0, #8]
 219 0008 013B     		subs	r3, r3, #1
 220 000a 002B     		cmp	r3, #0
 221 000c 8360     		str	r3, [r0, #8]
 222 000e 04DB     		blt	.L16
 223              		.loc 1 213 0
 224 0010 0020     		movs	r0, #0
 225              	.LVL19:
 226              	.LBE125:
 227              	.LBE124:
 228              	.LBB133:
ARM GAS  C:\Users\IDONNO~1\AppData\Local\Temp\ccRF5WGp.s 			page 5


 229              	.LBB134:
 230              	.LBB135:
 231              	.LBB136:
 232              	.LBB137:
 233              		.loc 3 546 0
 234 0012 0023     		movs	r3, #0
 235              		.syntax unified
 236              	@ 546 "lib/ChibiOS_3.0.2/os/ext/CMSIS/include/core_cmFunc.h" 1
 237 0014 83F31188 		MSR basepri, r3
 238              	@ 0 "" 2
 239              	.LVL20:
 240              		.thumb
 241              		.syntax unified
 242              	.LBE137:
 243              	.LBE136:
 244              	.LBE135:
 245              	.LBE134:
 246              	.LBE133:
 247              		.loc 1 183 0
 248 0018 7047     		bx	lr
 249              	.LVL21:
 250              	.L16:
 251              		.loc 1 175 0
 252 001a 10B5     		push	{r4, lr}
 253              		.cfi_def_cfa_offset 8
 254              		.cfi_offset 4, -8
 255              		.cfi_offset 14, -4
 256              	.LBB142:
 257              	.LBB132:
 258              	.LBB126:
 259              	.LBB127:
 260              		.loc 1 206 0
 261 001c 084C     		ldr	r4, .L17
 262 001e A269     		ldr	r2, [r4, #24]
 263 0020 5062     		str	r0, [r2, #36]
 264              	.LBB128:
 265              	.LBB129:
 266              		.loc 2 666 0
 267 0022 4168     		ldr	r1, [r0, #4]
 268 0024 5160     		str	r1, [r2, #4]
 269 0026 0346     		mov	r3, r0
 270              	.LVL22:
 271              		.loc 2 665 0
 272 0028 1060     		str	r0, [r2]
 273              		.loc 2 667 0
 274 002a 0A60     		str	r2, [r1]
 275              	.LBE129:
 276              	.LBE128:
 277              		.loc 1 208 0
 278 002c 0520     		movs	r0, #5
 279              	.LVL23:
 280              	.LBB131:
 281              	.LBB130:
 282              		.loc 2 668 0
 283 002e 5A60     		str	r2, [r3, #4]
 284              	.LVL24:
 285              	.LBE130:
ARM GAS  C:\Users\IDONNO~1\AppData\Local\Temp\ccRF5WGp.s 			page 6


 286              	.LBE131:
 287              		.loc 1 208 0
 288 0030 FFF7FEFF 		bl	chSchGoSleepS
 289              	.LVL25:
 290              		.loc 1 210 0
 291 0034 A369     		ldr	r3, [r4, #24]
 292 0036 586A     		ldr	r0, [r3, #36]
 293              	.LVL26:
 294              	.LBE127:
 295              	.LBE126:
 296              	.LBE132:
 297              	.LBE142:
 298              	.LBB143:
 299              	.LBB141:
 300              	.LBB140:
 301              	.LBB139:
 302              	.LBB138:
 303              		.loc 3 546 0
 304 0038 0023     		movs	r3, #0
 305              		.syntax unified
 306              	@ 546 "lib/ChibiOS_3.0.2/os/ext/CMSIS/include/core_cmFunc.h" 1
 307 003a 83F31188 		MSR basepri, r3
 308              	@ 0 "" 2
 309              	.LVL27:
 310              		.thumb
 311              		.syntax unified
 312              	.LBE138:
 313              	.LBE139:
 314              	.LBE140:
 315              	.LBE141:
 316              	.LBE143:
 317              		.loc 1 183 0
 318 003e 10BD     		pop	{r4, pc}
 319              	.L18:
 320              		.align	2
 321              	.L17:
 322 0040 00000000 		.word	ch
 323              		.cfi_endproc
 324              	.LFE222:
 325              		.size	chSemWait, .-chSemWait
 326              		.section	.text.chSemWaitS,"ax",%progbits
 327              		.align	2
 328              		.p2align 4,,15
 329              		.global	chSemWaitS
 330              		.thumb
 331              		.thumb_func
 332              		.type	chSemWaitS, %function
 333              	chSemWaitS:
 334              	.LFB223:
 335              		.loc 1 197 0
 336              		.cfi_startproc
 337              		@ args = 0, pretend = 0, frame = 0
 338              		@ frame_needed = 0, uses_anonymous_args = 0
 339              	.LVL28:
 340              		.loc 1 205 0
 341 0000 8368     		ldr	r3, [r0, #8]
 342 0002 013B     		subs	r3, r3, #1
ARM GAS  C:\Users\IDONNO~1\AppData\Local\Temp\ccRF5WGp.s 			page 7


 343 0004 002B     		cmp	r3, #0
 344 0006 8360     		str	r3, [r0, #8]
 345 0008 01DB     		blt	.L24
 346              		.loc 1 213 0
 347 000a 0020     		movs	r0, #0
 348              	.LVL29:
 349 000c 7047     		bx	lr
 350              	.LVL30:
 351              	.L24:
 352              		.loc 1 197 0
 353 000e 10B5     		push	{r4, lr}
 354              		.cfi_def_cfa_offset 8
 355              		.cfi_offset 4, -8
 356              		.cfi_offset 14, -4
 357              	.LBB148:
 358              	.LBB149:
 359              		.loc 1 206 0
 360 0010 074C     		ldr	r4, .L25
 361 0012 A269     		ldr	r2, [r4, #24]
 362 0014 5062     		str	r0, [r2, #36]
 363              	.LBB150:
 364              	.LBB151:
 365              		.loc 2 666 0
 366 0016 4168     		ldr	r1, [r0, #4]
 367 0018 5160     		str	r1, [r2, #4]
 368 001a 0346     		mov	r3, r0
 369              	.LVL31:
 370              		.loc 2 665 0
 371 001c 1060     		str	r0, [r2]
 372              		.loc 2 667 0
 373 001e 0A60     		str	r2, [r1]
 374              	.LBE151:
 375              	.LBE150:
 376              		.loc 1 208 0
 377 0020 0520     		movs	r0, #5
 378              	.LVL32:
 379              	.LBB153:
 380              	.LBB152:
 381              		.loc 2 668 0
 382 0022 5A60     		str	r2, [r3, #4]
 383              	.LVL33:
 384              	.LBE152:
 385              	.LBE153:
 386              		.loc 1 208 0
 387 0024 FFF7FEFF 		bl	chSchGoSleepS
 388              	.LVL34:
 389              		.loc 1 210 0
 390 0028 A369     		ldr	r3, [r4, #24]
 391 002a 586A     		ldr	r0, [r3, #36]
 392              	.LVL35:
 393 002c 10BD     		pop	{r4, pc}
 394              	.L26:
 395 002e 00BF     		.align	2
 396              	.L25:
 397 0030 00000000 		.word	ch
 398              	.LBE149:
 399              	.LBE148:
ARM GAS  C:\Users\IDONNO~1\AppData\Local\Temp\ccRF5WGp.s 			page 8


 400              		.cfi_endproc
 401              	.LFE223:
 402              		.size	chSemWaitS, .-chSemWaitS
 403              		.section	.text.chSemWaitTimeout,"ax",%progbits
 404              		.align	2
 405              		.p2align 4,,15
 406              		.global	chSemWaitTimeout
 407              		.thumb
 408              		.thumb_func
 409              		.type	chSemWaitTimeout, %function
 410              	chSemWaitTimeout:
 411              	.LFB224:
 412              		.loc 1 235 0
 413              		.cfi_startproc
 414              		@ args = 0, pretend = 0, frame = 0
 415              		@ frame_needed = 0, uses_anonymous_args = 0
 416              	.LVL36:
 417              	.LBB169:
 418              	.LBB170:
 419              	.LBB171:
 420              	.LBB172:
 421              		.loc 3 546 0
 422 0000 2023     		movs	r3, #32
 423              		.syntax unified
 424              	@ 546 "lib/ChibiOS_3.0.2/os/ext/CMSIS/include/core_cmFunc.h" 1
 425 0002 83F31188 		MSR basepri, r3
 426              	@ 0 "" 2
 427              	.LVL37:
 428              		.thumb
 429              		.syntax unified
 430              	.LBE172:
 431              	.LBE171:
 432              	.LBE170:
 433              	.LBE169:
 434              	.LBB173:
 435              	.LBB174:
 436              		.loc 1 272 0
 437 0006 8268     		ldr	r2, [r0, #8]
 438 0008 531E     		subs	r3, r2, #1
 439 000a 002B     		cmp	r3, #0
 440 000c 8360     		str	r3, [r0, #8]
 441 000e 04DB     		blt	.L33
 442              		.loc 1 284 0
 443 0010 0020     		movs	r0, #0
 444              	.LVL38:
 445              	.LBE174:
 446              	.LBE173:
 447              	.LBB183:
 448              	.LBB184:
 449              	.LBB185:
 450              	.LBB186:
 451              	.LBB187:
 452              		.loc 3 546 0
 453 0012 0023     		movs	r3, #0
 454              		.syntax unified
 455              	@ 546 "lib/ChibiOS_3.0.2/os/ext/CMSIS/include/core_cmFunc.h" 1
 456 0014 83F31188 		MSR basepri, r3
ARM GAS  C:\Users\IDONNO~1\AppData\Local\Temp\ccRF5WGp.s 			page 9


 457              	@ 0 "" 2
 458              	.LVL39:
 459              		.thumb
 460              		.syntax unified
 461              	.LBE187:
 462              	.LBE186:
 463              	.LBE185:
 464              	.LBE184:
 465              	.LBE183:
 466              		.loc 1 243 0
 467 0018 7047     		bx	lr
 468              	.LVL40:
 469              	.L33:
 470              		.loc 1 235 0
 471 001a 10B5     		push	{r4, lr}
 472              		.cfi_def_cfa_offset 8
 473              		.cfi_offset 4, -8
 474              		.cfi_offset 14, -4
 475              	.LBB192:
 476              	.LBB181:
 477              		.loc 1 273 0
 478 001c 79B1     		cbz	r1, .L34
 479              	.LBB175:
 480              	.LBB176:
 481              		.loc 1 278 0
 482 001e 0A4A     		ldr	r2, .L35
 483 0020 9269     		ldr	r2, [r2, #24]
 484 0022 5062     		str	r0, [r2, #36]
 485              	.LBB177:
 486              	.LBB178:
 487              		.loc 2 666 0
 488 0024 4468     		ldr	r4, [r0, #4]
 489              	.LVL41:
 490 0026 0346     		mov	r3, r0
 491              	.LVL42:
 492 0028 82E81800 		stmia	r2, {r3, r4}
 493              	.LBE178:
 494              	.LBE177:
 495              		.loc 1 281 0
 496 002c 0520     		movs	r0, #5
 497              	.LVL43:
 498              	.LBB180:
 499              	.LBB179:
 500              		.loc 2 667 0
 501 002e 2260     		str	r2, [r4]
 502              		.loc 2 668 0
 503 0030 5A60     		str	r2, [r3, #4]
 504              	.LVL44:
 505              	.LBE179:
 506              	.LBE180:
 507              		.loc 1 281 0
 508 0032 FFF7FEFF 		bl	chSchGoSleepTimeoutS
 509              	.LVL45:
 510              	.L28:
 511              	.LBE176:
 512              	.LBE175:
 513              	.LBE181:
ARM GAS  C:\Users\IDONNO~1\AppData\Local\Temp\ccRF5WGp.s 			page 10


 514              	.LBE192:
 515              	.LBB193:
 516              	.LBB191:
 517              	.LBB190:
 518              	.LBB189:
 519              	.LBB188:
 520              		.loc 3 546 0
 521 0036 0023     		movs	r3, #0
 522              		.syntax unified
 523              	@ 546 "lib/ChibiOS_3.0.2/os/ext/CMSIS/include/core_cmFunc.h" 1
 524 0038 83F31188 		MSR basepri, r3
 525              	@ 0 "" 2
 526              	.LVL46:
 527              		.thumb
 528              		.syntax unified
 529              	.LBE188:
 530              	.LBE189:
 531              	.LBE190:
 532              	.LBE191:
 533              	.LBE193:
 534              		.loc 1 243 0
 535 003c 10BD     		pop	{r4, pc}
 536              	.LVL47:
 537              	.L34:
 538              	.LBB194:
 539              	.LBB182:
 540              		.loc 1 274 0
 541 003e 8260     		str	r2, [r0, #8]
 542              		.loc 1 276 0
 543 0040 4FF0FF30 		mov	r0, #-1
 544              	.LVL48:
 545 0044 F7E7     		b	.L28
 546              	.L36:
 547 0046 00BF     		.align	2
 548              	.L35:
 549 0048 00000000 		.word	ch
 550              	.LBE182:
 551              	.LBE194:
 552              		.cfi_endproc
 553              	.LFE224:
 554              		.size	chSemWaitTimeout, .-chSemWaitTimeout
 555              		.section	.text.chSemWaitTimeoutS,"ax",%progbits
 556              		.align	2
 557              		.p2align 4,,15
 558              		.global	chSemWaitTimeoutS
 559              		.thumb
 560              		.thumb_func
 561              		.type	chSemWaitTimeoutS, %function
 562              	chSemWaitTimeoutS:
 563              	.LFB225:
 564              		.loc 1 264 0
 565              		.cfi_startproc
 566              		@ args = 0, pretend = 0, frame = 0
 567              		@ frame_needed = 0, uses_anonymous_args = 0
 568              		@ link register save eliminated.
 569              	.LVL49:
 570 0000 0346     		mov	r3, r0
ARM GAS  C:\Users\IDONNO~1\AppData\Local\Temp\ccRF5WGp.s 			page 11


 571              		.loc 1 272 0
 572 0002 8068     		ldr	r0, [r0, #8]
 573              	.LVL50:
 574 0004 421E     		subs	r2, r0, #1
 575 0006 002A     		cmp	r2, #0
 576 0008 9A60     		str	r2, [r3, #8]
 577 000a 01DB     		blt	.L43
 578              		.loc 1 284 0
 579 000c 0020     		movs	r0, #0
 580 000e 7047     		bx	lr
 581              	.L43:
 582              		.loc 1 264 0
 583 0010 10B4     		push	{r4}
 584              		.cfi_def_cfa_offset 4
 585              		.cfi_offset 4, -4
 586              		.loc 1 273 0
 587 0012 61B1     		cbz	r1, .L44
 588              	.LVL51:
 589              	.LBB199:
 590              	.LBB200:
 591              		.loc 1 278 0
 592 0014 094A     		ldr	r2, .L45
 593 0016 9269     		ldr	r2, [r2, #24]
 594 0018 5362     		str	r3, [r2, #36]
 595              	.LVL52:
 596              	.LBB201:
 597              	.LBB202:
 598              		.loc 2 666 0
 599 001a 5C68     		ldr	r4, [r3, #4]
 600              	.LBE202:
 601              	.LBE201:
 602              		.loc 1 281 0
 603 001c 0520     		movs	r0, #5
 604              	.LBB204:
 605              	.LBB203:
 606              		.loc 2 666 0
 607 001e 82E81800 		stmia	r2, {r3, r4}
 608              		.loc 2 667 0
 609 0022 2260     		str	r2, [r4]
 610              		.loc 2 668 0
 611 0024 5A60     		str	r2, [r3, #4]
 612              	.LVL53:
 613              	.LBE203:
 614              	.LBE204:
 615              	.LBE200:
 616              	.LBE199:
 617              		.loc 1 285 0
 618 0026 5DF8044B 		ldr	r4, [sp], #4
 619              		.cfi_remember_state
 620              		.cfi_restore 4
 621              		.cfi_def_cfa_offset 0
 622              	.LBB206:
 623              	.LBB205:
 624              		.loc 1 281 0
 625 002a FFF7FEBF 		b	chSchGoSleepTimeoutS
 626              	.LVL54:
 627              	.L44:
ARM GAS  C:\Users\IDONNO~1\AppData\Local\Temp\ccRF5WGp.s 			page 12


 628              		.cfi_restore_state
 629              	.LBE205:
 630              	.LBE206:
 631              		.loc 1 274 0
 632 002e 9860     		str	r0, [r3, #8]
 633              		.loc 1 285 0
 634 0030 5DF8044B 		ldr	r4, [sp], #4
 635              		.cfi_restore 4
 636              		.cfi_def_cfa_offset 0
 637              		.loc 1 276 0
 638 0034 4FF0FF30 		mov	r0, #-1
 639              		.loc 1 285 0
 640 0038 7047     		bx	lr
 641              	.L46:
 642 003a 00BF     		.align	2
 643              	.L45:
 644 003c 00000000 		.word	ch
 645              		.cfi_endproc
 646              	.LFE225:
 647              		.size	chSemWaitTimeoutS, .-chSemWaitTimeoutS
 648              		.section	.text.chSemSignal,"ax",%progbits
 649              		.align	2
 650              		.p2align 4,,15
 651              		.global	chSemSignal
 652              		.thumb
 653              		.thumb_func
 654              		.type	chSemSignal, %function
 655              	chSemSignal:
 656              	.LFB226:
 657              		.loc 1 294 0
 658              		.cfi_startproc
 659              		@ args = 0, pretend = 0, frame = 0
 660              		@ frame_needed = 0, uses_anonymous_args = 0
 661              	.LVL55:
 662 0000 08B5     		push	{r3, lr}
 663              		.cfi_def_cfa_offset 8
 664              		.cfi_offset 3, -8
 665              		.cfi_offset 14, -4
 666              	.LBB207:
 667              	.LBB208:
 668              	.LBB209:
 669              	.LBB210:
 670              		.loc 3 546 0
 671 0002 2023     		movs	r3, #32
 672              		.syntax unified
 673              	@ 546 "lib/ChibiOS_3.0.2/os/ext/CMSIS/include/core_cmFunc.h" 1
 674 0004 83F31188 		MSR basepri, r3
 675              	@ 0 "" 2
 676              	.LVL56:
 677              		.thumb
 678              		.syntax unified
 679              	.LBE210:
 680              	.LBE209:
 681              	.LBE208:
 682              	.LBE207:
 683              		.loc 1 302 0
 684 0008 8368     		ldr	r3, [r0, #8]
ARM GAS  C:\Users\IDONNO~1\AppData\Local\Temp\ccRF5WGp.s 			page 13


 685 000a 0133     		adds	r3, r3, #1
 686 000c 002B     		cmp	r3, #0
 687 000e 8360     		str	r3, [r0, #8]
 688 0010 03DD     		ble	.L50
 689              	.LVL57:
 690              	.LBB211:
 691              	.LBB212:
 692              	.LBB213:
 693              	.LBB214:
 694              	.LBB215:
 695              		.loc 3 546 0
 696 0012 0023     		movs	r3, #0
 697              		.syntax unified
 698              	@ 546 "lib/ChibiOS_3.0.2/os/ext/CMSIS/include/core_cmFunc.h" 1
 699 0014 83F31188 		MSR basepri, r3
 700              	@ 0 "" 2
 701              	.LVL58:
 702              		.thumb
 703              		.syntax unified
 704 0018 08BD     		pop	{r3, pc}
 705              	.L50:
 706 001a 0346     		mov	r3, r0
 707              	.LVL59:
 708              	.LBE215:
 709              	.LBE214:
 710              	.LBE213:
 711              	.LBE212:
 712              	.LBE211:
 713              	.LBB220:
 714              	.LBB221:
 715              		.loc 2 672 0
 716 001c 0068     		ldr	r0, [r0]
 717              	.LVL60:
 718              		.loc 2 674 0
 719 001e 0268     		ldr	r2, [r0]
 720 0020 1A60     		str	r2, [r3]
 721              	.LBE221:
 722              	.LBE220:
 723              		.loc 1 303 0
 724 0022 0021     		movs	r1, #0
 725              	.LBB223:
 726              	.LBB222:
 727              		.loc 2 675 0
 728 0024 5360     		str	r3, [r2, #4]
 729              	.LVL61:
 730              	.LBE222:
 731              	.LBE223:
 732              		.loc 1 303 0
 733 0026 FFF7FEFF 		bl	chSchWakeupS
 734              	.LVL62:
 735              	.LBB224:
 736              	.LBB219:
 737              	.LBB218:
 738              	.LBB217:
 739              	.LBB216:
 740              		.loc 3 546 0
 741 002a 0023     		movs	r3, #0
ARM GAS  C:\Users\IDONNO~1\AppData\Local\Temp\ccRF5WGp.s 			page 14


 742              		.syntax unified
 743              	@ 546 "lib/ChibiOS_3.0.2/os/ext/CMSIS/include/core_cmFunc.h" 1
 744 002c 83F31188 		MSR basepri, r3
 745              	@ 0 "" 2
 746              	.LVL63:
 747              		.thumb
 748              		.syntax unified
 749 0030 08BD     		pop	{r3, pc}
 750              	.LBE216:
 751              	.LBE217:
 752              	.LBE218:
 753              	.LBE219:
 754              	.LBE224:
 755              		.cfi_endproc
 756              	.LFE226:
 757              		.size	chSemSignal, .-chSemSignal
 758 0032 00BF     		.section	.text.chSemSignalI,"ax",%progbits
 759              		.align	2
 760              		.p2align 4,,15
 761              		.global	chSemSignalI
 762              		.thumb
 763              		.thumb_func
 764              		.type	chSemSignalI, %function
 765              	chSemSignalI:
 766              	.LFB227:
 767              		.loc 1 319 0
 768              		.cfi_startproc
 769              		@ args = 0, pretend = 0, frame = 0
 770              		@ frame_needed = 0, uses_anonymous_args = 0
 771              		@ link register save eliminated.
 772              	.LVL64:
 773              		.loc 1 327 0
 774 0000 8368     		ldr	r3, [r0, #8]
 775 0002 0133     		adds	r3, r3, #1
 776 0004 002B     		cmp	r3, #0
 777 0006 8360     		str	r3, [r0, #8]
 778 0008 00DD     		ble	.L53
 779 000a 7047     		bx	lr
 780              	.L53:
 781              	.LVL65:
 782              	.LBB225:
 783              	.LBB226:
 784              	.LBB227:
 785              		.loc 2 672 0
 786 000c 0368     		ldr	r3, [r0]
 787              	.LVL66:
 788              		.loc 2 674 0
 789 000e 1A68     		ldr	r2, [r3]
 790 0010 0260     		str	r2, [r0]
 791              	.LBE227:
 792              	.LBE226:
 793              		.loc 1 331 0
 794 0012 0021     		movs	r1, #0
 795              	.LBB229:
 796              	.LBB228:
 797              		.loc 2 675 0
 798 0014 5060     		str	r0, [r2, #4]
ARM GAS  C:\Users\IDONNO~1\AppData\Local\Temp\ccRF5WGp.s 			page 15


 799              	.LVL67:
 800              	.LBE228:
 801              	.LBE229:
 802              		.loc 1 332 0
 803 0016 1846     		mov	r0, r3
 804              	.LVL68:
 805              		.loc 1 331 0
 806 0018 5962     		str	r1, [r3, #36]
 807              	.LVL69:
 808              		.loc 1 332 0
 809 001a FFF7FEBF 		b	chSchReadyI
 810              	.LVL70:
 811              	.LBE225:
 812              		.cfi_endproc
 813              	.LFE227:
 814              		.size	chSemSignalI, .-chSemSignalI
 815 001e 00BF     		.section	.text.chSemAddCounterI,"ax",%progbits
 816              		.align	2
 817              		.p2align 4,,15
 818              		.global	chSemAddCounterI
 819              		.thumb
 820              		.thumb_func
 821              		.type	chSemAddCounterI, %function
 822              	chSemAddCounterI:
 823              	.LFB228:
 824              		.loc 1 349 0
 825              		.cfi_startproc
 826              		@ args = 0, pretend = 0, frame = 0
 827              		@ frame_needed = 0, uses_anonymous_args = 0
 828              	.LVL71:
 829 0000 70B5     		push	{r4, r5, r6, lr}
 830              		.cfi_def_cfa_offset 16
 831              		.cfi_offset 4, -16
 832              		.cfi_offset 5, -12
 833              		.cfi_offset 6, -8
 834              		.cfi_offset 14, -4
 835              		.loc 1 357 0
 836 0002 0C1E     		subs	r4, r1, #0
 837 0004 12DD     		ble	.L54
 838 0006 0546     		mov	r5, r0
 839              		.loc 1 359 0
 840 0008 0026     		movs	r6, #0
 841 000a 01E0     		b	.L57
 842              	.LVL72:
 843              	.L56:
 844              		.loc 1 357 0
 845 000c 013C     		subs	r4, r4, #1
 846              	.LVL73:
 847 000e 0DD0     		beq	.L54
 848              	.LVL74:
 849              	.L57:
 850              		.loc 1 358 0
 851 0010 AB68     		ldr	r3, [r5, #8]
 852 0012 0133     		adds	r3, r3, #1
 853 0014 002B     		cmp	r3, #0
 854 0016 AB60     		str	r3, [r5, #8]
 855 0018 F8DC     		bgt	.L56
ARM GAS  C:\Users\IDONNO~1\AppData\Local\Temp\ccRF5WGp.s 			page 16


 856              	.LVL75:
 857              	.LBB230:
 858              	.LBB231:
 859              		.loc 2 672 0
 860 001a 2868     		ldr	r0, [r5]
 861              	.LVL76:
 862              		.loc 2 674 0
 863 001c 0368     		ldr	r3, [r0]
 864 001e 2B60     		str	r3, [r5]
 865              		.loc 2 675 0
 866 0020 5D60     		str	r5, [r3, #4]
 867              	.LVL77:
 868              	.LBE231:
 869              	.LBE230:
 870              		.loc 1 359 0
 871 0022 FFF7FEFF 		bl	chSchReadyI
 872              	.LVL78:
 873              		.loc 1 357 0
 874 0026 013C     		subs	r4, r4, #1
 875              	.LVL79:
 876              		.loc 1 359 0
 877 0028 4662     		str	r6, [r0, #36]
 878              	.LVL80:
 879              		.loc 1 357 0
 880 002a F1D1     		bne	.L57
 881              	.LVL81:
 882              	.L54:
 883 002c 70BD     		pop	{r4, r5, r6, pc}
 884              		.cfi_endproc
 885              	.LFE228:
 886              		.size	chSemAddCounterI, .-chSemAddCounterI
 887 002e 00BF     		.section	.text.chSemSignalWait,"ax",%progbits
 888              		.align	2
 889              		.p2align 4,,15
 890              		.global	chSemSignalWait
 891              		.thumb
 892              		.thumb_func
 893              		.type	chSemSignalWait, %function
 894              	chSemSignalWait:
 895              	.LFB229:
 896              		.loc 1 378 0
 897              		.cfi_startproc
 898              		@ args = 0, pretend = 0, frame = 8
 899              		@ frame_needed = 0, uses_anonymous_args = 0
 900              	.LVL82:
 901 0000 10B5     		push	{r4, lr}
 902              		.cfi_def_cfa_offset 8
 903              		.cfi_offset 4, -8
 904              		.cfi_offset 14, -4
 905              	.LBB232:
 906              	.LBB233:
 907              	.LBB234:
 908              	.LBB235:
 909              		.loc 3 546 0
 910 0002 2023     		movs	r3, #32
 911              	.LBE235:
 912              	.LBE234:
ARM GAS  C:\Users\IDONNO~1\AppData\Local\Temp\ccRF5WGp.s 			page 17


 913              	.LBE233:
 914              	.LBE232:
 915              		.loc 1 378 0
 916 0004 82B0     		sub	sp, sp, #8
 917              		.cfi_def_cfa_offset 16
 918              	.LBB239:
 919              	.LBB238:
 920              	.LBB237:
 921              	.LBB236:
 922              		.loc 3 546 0
 923              		.syntax unified
 924              	@ 546 "lib/ChibiOS_3.0.2/os/ext/CMSIS/include/core_cmFunc.h" 1
 925 0006 83F31188 		MSR basepri, r3
 926              	@ 0 "" 2
 927              	.LVL83:
 928              		.thumb
 929              		.syntax unified
 930              	.LBE236:
 931              	.LBE237:
 932              	.LBE238:
 933              	.LBE239:
 934              		.loc 1 390 0
 935 000a 8368     		ldr	r3, [r0, #8]
 936 000c 0133     		adds	r3, r3, #1
 937 000e 002B     		cmp	r3, #0
 938 0010 8360     		str	r3, [r0, #8]
 939 0012 1DDD     		ble	.L66
 940              	.LVL84:
 941              	.L62:
 942              		.loc 1 393 0
 943 0014 8B68     		ldr	r3, [r1, #8]
 944 0016 013B     		subs	r3, r3, #1
 945 0018 002B     		cmp	r3, #0
 946 001a 8B60     		str	r3, [r1, #8]
 947 001c 07DB     		blt	.L67
 948              		.loc 1 401 0
 949 001e FFF7FEFF 		bl	chSchRescheduleS
 950              	.LVL85:
 951              		.loc 1 402 0
 952 0022 0020     		movs	r0, #0
 953              	.LVL86:
 954              	.LBB240:
 955              	.LBB241:
 956              	.LBB242:
 957              	.LBB243:
 958              	.LBB244:
 959              		.loc 3 546 0
 960 0024 0023     		movs	r3, #0
 961              		.syntax unified
 962              	@ 546 "lib/ChibiOS_3.0.2/os/ext/CMSIS/include/core_cmFunc.h" 1
 963 0026 83F31188 		MSR basepri, r3
 964              	@ 0 "" 2
 965              	.LVL87:
 966              		.thumb
 967              		.syntax unified
 968              	.LBE244:
 969              	.LBE243:
ARM GAS  C:\Users\IDONNO~1\AppData\Local\Temp\ccRF5WGp.s 			page 18


 970              	.LBE242:
 971              	.LBE241:
 972              	.LBE240:
 973              		.loc 1 407 0
 974 002a 02B0     		add	sp, sp, #8
 975              		.cfi_remember_state
 976              		.cfi_def_cfa_offset 8
 977              		@ sp needed
 978 002c 10BD     		pop	{r4, pc}
 979              	.LVL88:
 980              	.L67:
 981              		.cfi_restore_state
 982              	.LBB249:
 983              		.loc 1 394 0
 984 002e 0E4A     		ldr	r2, .L68
 985              	.LBB250:
 986              	.LBB251:
 987              		.loc 2 666 0
 988 0030 4B68     		ldr	r3, [r1, #4]
 989              	.LBE251:
 990              	.LBE250:
 991              		.loc 1 394 0
 992 0032 9469     		ldr	r4, [r2, #24]
 993              	.LVL89:
 994              		.loc 1 397 0
 995 0034 0520     		movs	r0, #5
 996              	.LBB253:
 997              	.LBB252:
 998              		.loc 2 666 0
 999 0036 84E80A00 		stmia	r4, {r1, r3}
 1000              		.loc 2 667 0
 1001 003a 1C60     		str	r4, [r3]
 1002              		.loc 2 668 0
 1003 003c 4C60     		str	r4, [r1, #4]
 1004              	.LVL90:
 1005              	.LBE252:
 1006              	.LBE253:
 1007              		.loc 1 396 0
 1008 003e 6162     		str	r1, [r4, #36]
 1009              		.loc 1 397 0
 1010 0040 FFF7FEFF 		bl	chSchGoSleepS
 1011              	.LVL91:
 1012              		.loc 1 398 0
 1013 0044 606A     		ldr	r0, [r4, #36]
 1014              	.LVL92:
 1015              	.LBE249:
 1016              	.LBB254:
 1017              	.LBB248:
 1018              	.LBB247:
 1019              	.LBB246:
 1020              	.LBB245:
 1021              		.loc 3 546 0
 1022 0046 0023     		movs	r3, #0
 1023              		.syntax unified
 1024              	@ 546 "lib/ChibiOS_3.0.2/os/ext/CMSIS/include/core_cmFunc.h" 1
 1025 0048 83F31188 		MSR basepri, r3
 1026              	@ 0 "" 2
ARM GAS  C:\Users\IDONNO~1\AppData\Local\Temp\ccRF5WGp.s 			page 19


 1027              	.LVL93:
 1028              		.thumb
 1029              		.syntax unified
 1030              	.LBE245:
 1031              	.LBE246:
 1032              	.LBE247:
 1033              	.LBE248:
 1034              	.LBE254:
 1035              		.loc 1 407 0
 1036 004c 02B0     		add	sp, sp, #8
 1037              		.cfi_remember_state
 1038              		.cfi_def_cfa_offset 8
 1039              		@ sp needed
 1040 004e 10BD     		pop	{r4, pc}
 1041              	.LVL94:
 1042              	.L66:
 1043              		.cfi_restore_state
 1044 0050 0246     		mov	r2, r0
 1045              	.LBB255:
 1046              	.LBB256:
 1047              		.loc 2 672 0
 1048 0052 0068     		ldr	r0, [r0]
 1049              	.LVL95:
 1050 0054 0191     		str	r1, [sp, #4]
 1051              	.LVL96:
 1052              		.loc 2 674 0
 1053 0056 0368     		ldr	r3, [r0]
 1054 0058 1360     		str	r3, [r2]
 1055              		.loc 2 675 0
 1056 005a 5A60     		str	r2, [r3, #4]
 1057              	.LVL97:
 1058              	.LBE256:
 1059              	.LBE255:
 1060              		.loc 1 391 0
 1061 005c FFF7FEFF 		bl	chSchReadyI
 1062              	.LVL98:
 1063 0060 0023     		movs	r3, #0
 1064 0062 4362     		str	r3, [r0, #36]
 1065 0064 0199     		ldr	r1, [sp, #4]
 1066 0066 D5E7     		b	.L62
 1067              	.L69:
 1068              		.align	2
 1069              	.L68:
 1070 0068 00000000 		.word	ch
 1071              		.cfi_endproc
 1072              	.LFE229:
 1073              		.size	chSemSignalWait, .-chSemSignalWait
 1074              		.text
 1075              	.Letext0:
 1076              		.file 4 "c:\\program files (x86)\\gnu tools arm embedded\\5.2 2015q4\\arm-none-eabi\\include\\mach
 1077              		.file 5 "c:\\program files (x86)\\gnu tools arm embedded\\5.2 2015q4\\arm-none-eabi\\include\\sys\
 1078              		.file 6 "lib/ChibiOS_3.0.2/os/rt/ports/ARMCMx/compilers/GCC/chtypes.h"
 1079              		.file 7 "lib/ChibiOS_3.0.2/os/rt/include/chsystypes.h"
 1080              		.file 8 "lib/ChibiOS_3.0.2/os/rt/ports/ARMCMx/chcore.h"
 1081              		.file 9 "lib/ChibiOS_3.0.2/os/rt/ports/ARMCMx/chcore_v7m.h"
 1082              		.file 10 "lib/ChibiOS_3.0.2/os/rt/include/chtm.h"
 1083              		.file 11 "lib/ChibiOS_3.0.2/os/rt/include/chsem.h"
ARM GAS  C:\Users\IDONNO~1\AppData\Local\Temp\ccRF5WGp.s 			page 20


 1084              		.file 12 "lib/ChibiOS_3.0.2/os/rt/include/chmtx.h"
 1085              		.file 13 "lib/ChibiOS_3.0.2/os/rt/include/chsys.h"
 1086              		.file 14 "lib/ChibiOS_3.0.2/os/ext/CMSIS/include/core_cm4.h"
 1087              		.section	.debug_info,"",%progbits
 1088              	.Ldebug_info0:
 1089 0000 D0110000 		.4byte	0x11d0
 1090 0004 0400     		.2byte	0x4
 1091 0006 00000000 		.4byte	.Ldebug_abbrev0
 1092 000a 04       		.byte	0x4
 1093 000b 01       		.uleb128 0x1
 1094 000c D0040000 		.4byte	.LASF134
 1095 0010 0C       		.byte	0xc
 1096 0011 DC020000 		.4byte	.LASF135
 1097 0015 89000000 		.4byte	.LASF136
 1098 0019 70010000 		.4byte	.Ldebug_ranges0+0x170
 1099 001d 00000000 		.4byte	0
 1100 0021 00000000 		.4byte	.Ldebug_line0
 1101 0025 02       		.uleb128 0x2
 1102 0026 04       		.byte	0x4
 1103 0027 05       		.byte	0x5
 1104 0028 696E7400 		.ascii	"int\000"
 1105 002c 03       		.uleb128 0x3
 1106 002d 04       		.byte	0x4
 1107 002e 07       		.byte	0x7
 1108 002f FA010000 		.4byte	.LASF0
 1109 0033 03       		.uleb128 0x3
 1110 0034 01       		.byte	0x1
 1111 0035 06       		.byte	0x6
 1112 0036 11010000 		.4byte	.LASF1
 1113 003a 04       		.uleb128 0x4
 1114 003b 3D000000 		.4byte	.LASF5
 1115 003f 04       		.byte	0x4
 1116 0040 1D       		.byte	0x1d
 1117 0041 45000000 		.4byte	0x45
 1118 0045 03       		.uleb128 0x3
 1119 0046 01       		.byte	0x1
 1120 0047 08       		.byte	0x8
 1121 0048 DD030000 		.4byte	.LASF2
 1122 004c 03       		.uleb128 0x3
 1123 004d 02       		.byte	0x2
 1124 004e 05       		.byte	0x5
 1125 004f F5030000 		.4byte	.LASF3
 1126 0053 03       		.uleb128 0x3
 1127 0054 02       		.byte	0x2
 1128 0055 07       		.byte	0x7
 1129 0056 53020000 		.4byte	.LASF4
 1130 005a 04       		.uleb128 0x4
 1131 005b B1020000 		.4byte	.LASF6
 1132 005f 04       		.byte	0x4
 1133 0060 3F       		.byte	0x3f
 1134 0061 65000000 		.4byte	0x65
 1135 0065 03       		.uleb128 0x3
 1136 0066 04       		.byte	0x4
 1137 0067 05       		.byte	0x5
 1138 0068 7B010000 		.4byte	.LASF7
 1139 006c 04       		.uleb128 0x4
 1140 006d 3F060000 		.4byte	.LASF8
ARM GAS  C:\Users\IDONNO~1\AppData\Local\Temp\ccRF5WGp.s 			page 21


 1141 0071 04       		.byte	0x4
 1142 0072 41       		.byte	0x41
 1143 0073 77000000 		.4byte	0x77
 1144 0077 03       		.uleb128 0x3
 1145 0078 04       		.byte	0x4
 1146 0079 07       		.byte	0x7
 1147 007a B9040000 		.4byte	.LASF9
 1148 007e 03       		.uleb128 0x3
 1149 007f 08       		.byte	0x8
 1150 0080 05       		.byte	0x5
 1151 0081 03010000 		.4byte	.LASF10
 1152 0085 04       		.uleb128 0x4
 1153 0086 93030000 		.4byte	.LASF11
 1154 008a 04       		.byte	0x4
 1155 008b 5B       		.byte	0x5b
 1156 008c 90000000 		.4byte	0x90
 1157 0090 03       		.uleb128 0x3
 1158 0091 08       		.byte	0x8
 1159 0092 07       		.byte	0x7
 1160 0093 35010000 		.4byte	.LASF12
 1161 0097 04       		.uleb128 0x4
 1162 0098 BC060000 		.4byte	.LASF13
 1163 009c 05       		.byte	0x5
 1164 009d 14       		.byte	0x14
 1165 009e 3A000000 		.4byte	0x3a
 1166 00a2 04       		.uleb128 0x4
 1167 00a3 D5030000 		.4byte	.LASF14
 1168 00a7 05       		.byte	0x5
 1169 00a8 1F       		.byte	0x1f
 1170 00a9 5A000000 		.4byte	0x5a
 1171 00ad 04       		.uleb128 0x4
 1172 00ae 85040000 		.4byte	.LASF15
 1173 00b2 05       		.byte	0x5
 1174 00b3 20       		.byte	0x20
 1175 00b4 6C000000 		.4byte	0x6c
 1176 00b8 04       		.uleb128 0x4
 1177 00b9 34000000 		.4byte	.LASF16
 1178 00bd 05       		.byte	0x5
 1179 00be 26       		.byte	0x26
 1180 00bf 85000000 		.4byte	0x85
 1181 00c3 05       		.uleb128 0x5
 1182 00c4 A2000000 		.4byte	0xa2
 1183 00c8 04       		.uleb128 0x4
 1184 00c9 7B060000 		.4byte	.LASF17
 1185 00cd 06       		.byte	0x6
 1186 00ce 45       		.byte	0x45
 1187 00cf AD000000 		.4byte	0xad
 1188 00d3 04       		.uleb128 0x4
 1189 00d4 8F020000 		.4byte	.LASF18
 1190 00d8 06       		.byte	0x6
 1191 00d9 48       		.byte	0x48
 1192 00da 97000000 		.4byte	0x97
 1193 00de 04       		.uleb128 0x4
 1194 00df 84010000 		.4byte	.LASF19
 1195 00e3 06       		.byte	0x6
 1196 00e4 49       		.byte	0x49
 1197 00e5 97000000 		.4byte	0x97
ARM GAS  C:\Users\IDONNO~1\AppData\Local\Temp\ccRF5WGp.s 			page 22


 1198 00e9 04       		.uleb128 0x4
 1199 00ea 9E030000 		.4byte	.LASF20
 1200 00ee 06       		.byte	0x6
 1201 00ef 4A       		.byte	0x4a
 1202 00f0 97000000 		.4byte	0x97
 1203 00f4 04       		.uleb128 0x4
 1204 00f5 67010000 		.4byte	.LASF21
 1205 00f9 06       		.byte	0x6
 1206 00fa 4B       		.byte	0x4b
 1207 00fb 97000000 		.4byte	0x97
 1208 00ff 04       		.uleb128 0x4
 1209 0100 BD030000 		.4byte	.LASF22
 1210 0104 06       		.byte	0x6
 1211 0105 4C       		.byte	0x4c
 1212 0106 AD000000 		.4byte	0xad
 1213 010a 04       		.uleb128 0x4
 1214 010b 7D020000 		.4byte	.LASF23
 1215 010f 06       		.byte	0x6
 1216 0110 4D       		.byte	0x4d
 1217 0111 A2000000 		.4byte	0xa2
 1218 0115 04       		.uleb128 0x4
 1219 0116 A5020000 		.4byte	.LASF24
 1220 011a 06       		.byte	0x6
 1221 011b 4F       		.byte	0x4f
 1222 011c AD000000 		.4byte	0xad
 1223 0120 04       		.uleb128 0x4
 1224 0121 F4010000 		.4byte	.LASF25
 1225 0125 06       		.byte	0x6
 1226 0126 51       		.byte	0x51
 1227 0127 A2000000 		.4byte	0xa2
 1228 012b 04       		.uleb128 0x4
 1229 012c 21060000 		.4byte	.LASF26
 1230 0130 07       		.byte	0x7
 1231 0131 33       		.byte	0x33
 1232 0132 AD000000 		.4byte	0xad
 1233 0136 04       		.uleb128 0x4
 1234 0137 06060000 		.4byte	.LASF27
 1235 013b 07       		.byte	0x7
 1236 013c 3F       		.byte	0x3f
 1237 013d 41010000 		.4byte	0x141
 1238 0141 06       		.uleb128 0x6
 1239 0142 66020000 		.4byte	.LASF49
 1240 0146 48       		.byte	0x48
 1241 0147 02       		.byte	0x2
 1242 0148 C2       		.byte	0xc2
 1243 0149 46020000 		.4byte	0x246
 1244 014d 07       		.uleb128 0x7
 1245 014e 1F040000 		.4byte	.LASF28
 1246 0152 02       		.byte	0x2
 1247 0153 C3       		.byte	0xc3
 1248 0154 51020000 		.4byte	0x251
 1249 0158 00       		.byte	0
 1250 0159 07       		.uleb128 0x7
 1251 015a B6030000 		.4byte	.LASF29
 1252 015e 02       		.byte	0x2
 1253 015f C5       		.byte	0xc5
 1254 0160 51020000 		.4byte	0x251
ARM GAS  C:\Users\IDONNO~1\AppData\Local\Temp\ccRF5WGp.s 			page 23


 1255 0164 04       		.byte	0x4
 1256 0165 07       		.uleb128 0x7
 1257 0166 FC000000 		.4byte	.LASF30
 1258 016a 02       		.byte	0x2
 1259 016b C7       		.byte	0xc7
 1260 016c FF000000 		.4byte	0xff
 1261 0170 08       		.byte	0x8
 1262 0171 07       		.uleb128 0x7
 1263 0172 0C070000 		.4byte	.LASF31
 1264 0176 02       		.byte	0x2
 1265 0177 C8       		.byte	0xc8
 1266 0178 81040000 		.4byte	0x481
 1267 017c 0C       		.byte	0xc
 1268 017d 07       		.uleb128 0x7
 1269 017e 8D010000 		.4byte	.LASF32
 1270 0182 02       		.byte	0x2
 1271 0183 CA       		.byte	0xca
 1272 0184 51020000 		.4byte	0x251
 1273 0188 10       		.byte	0x10
 1274 0189 07       		.uleb128 0x7
 1275 018a 56030000 		.4byte	.LASF33
 1276 018e 02       		.byte	0x2
 1277 018f CB       		.byte	0xcb
 1278 0190 51020000 		.4byte	0x251
 1279 0194 14       		.byte	0x14
 1280 0195 07       		.uleb128 0x7
 1281 0196 CB060000 		.4byte	.LASF34
 1282 019a 02       		.byte	0x2
 1283 019b D2       		.byte	0xd2
 1284 019c C6060000 		.4byte	0x6c6
 1285 01a0 18       		.byte	0x18
 1286 01a1 07       		.uleb128 0x7
 1287 01a2 FF030000 		.4byte	.LASF35
 1288 01a6 02       		.byte	0x2
 1289 01a7 DD       		.byte	0xdd
 1290 01a8 DE000000 		.4byte	0xde
 1291 01ac 1C       		.byte	0x1c
 1292 01ad 07       		.uleb128 0x7
 1293 01ae 26040000 		.4byte	.LASF36
 1294 01b2 02       		.byte	0x2
 1295 01b3 E1       		.byte	0xe1
 1296 01b4 D3000000 		.4byte	0xd3
 1297 01b8 1D       		.byte	0x1d
 1298 01b9 07       		.uleb128 0x7
 1299 01ba A3060000 		.4byte	.LASF37
 1300 01be 02       		.byte	0x2
 1301 01bf E6       		.byte	0xe6
 1302 01c0 E9000000 		.4byte	0xe9
 1303 01c4 1E       		.byte	0x1e
 1304 01c5 07       		.uleb128 0x7
 1305 01c6 07040000 		.4byte	.LASF38
 1306 01ca 02       		.byte	0x2
 1307 01cb EC       		.byte	0xec
 1308 01cc F4000000 		.4byte	0xf4
 1309 01d0 1F       		.byte	0x1f
 1310 01d1 07       		.uleb128 0x7
 1311 01d2 20020000 		.4byte	.LASF39
ARM GAS  C:\Users\IDONNO~1\AppData\Local\Temp\ccRF5WGp.s 			page 24


 1312 01d6 02       		.byte	0x2
 1313 01d7 F3       		.byte	0xf3
 1314 01d8 D8060000 		.4byte	0x6d8
 1315 01dc 20       		.byte	0x20
 1316 01dd 08       		.uleb128 0x8
 1317 01de 705F7500 		.ascii	"p_u\000"
 1318 01e2 02       		.byte	0x2
 1319 01e3 3101     		.2byte	0x131
 1320 01e5 01060000 		.4byte	0x601
 1321 01e9 24       		.byte	0x24
 1322 01ea 09       		.uleb128 0x9
 1323 01eb 0F030000 		.4byte	.LASF40
 1324 01ef 02       		.byte	0x2
 1325 01f0 3601     		.2byte	0x136
 1326 01f2 57020000 		.4byte	0x257
 1327 01f6 28       		.byte	0x28
 1328 01f7 09       		.uleb128 0x9
 1329 01f8 37020000 		.4byte	.LASF41
 1330 01fc 02       		.byte	0x2
 1331 01fd 3C01     		.2byte	0x13c
 1332 01ff 7B020000 		.4byte	0x27b
 1333 0203 2C       		.byte	0x2c
 1334 0204 09       		.uleb128 0x9
 1335 0205 FE060000 		.4byte	.LASF42
 1336 0209 02       		.byte	0x2
 1337 020a 4001     		.2byte	0x140
 1338 020c 0A010000 		.4byte	0x10a
 1339 0210 34       		.byte	0x34
 1340 0211 09       		.uleb128 0x9
 1341 0212 7A040000 		.4byte	.LASF43
 1342 0216 02       		.byte	0x2
 1343 0217 4601     		.2byte	0x146
 1344 0219 15010000 		.4byte	0x115
 1345 021d 38       		.byte	0x38
 1346 021e 09       		.uleb128 0x9
 1347 021f EB030000 		.4byte	.LASF44
 1348 0223 02       		.byte	0x2
 1349 0224 4D01     		.2byte	0x14d
 1350 0226 C0060000 		.4byte	0x6c0
 1351 022a 3C       		.byte	0x3c
 1352 022b 09       		.uleb128 0x9
 1353 022c 2B060000 		.4byte	.LASF45
 1354 0230 02       		.byte	0x2
 1355 0231 5101     		.2byte	0x151
 1356 0233 FF000000 		.4byte	0xff
 1357 0237 40       		.byte	0x40
 1358 0238 09       		.uleb128 0x9
 1359 0239 2D010000 		.4byte	.LASF46
 1360 023d 02       		.byte	0x2
 1361 023e 5801     		.2byte	0x158
 1362 0240 2E030000 		.4byte	0x32e
 1363 0244 44       		.byte	0x44
 1364 0245 00       		.byte	0
 1365 0246 04       		.uleb128 0x4
 1366 0247 22030000 		.4byte	.LASF47
 1367 024b 07       		.byte	0x7
 1368 024c 44       		.byte	0x44
ARM GAS  C:\Users\IDONNO~1\AppData\Local\Temp\ccRF5WGp.s 			page 25


 1369 024d 51020000 		.4byte	0x251
 1370 0251 0A       		.uleb128 0xa
 1371 0252 04       		.byte	0x4
 1372 0253 36010000 		.4byte	0x136
 1373 0257 04       		.uleb128 0x4
 1374 0258 00030000 		.4byte	.LASF48
 1375 025c 07       		.byte	0x7
 1376 025d 49       		.byte	0x49
 1377 025e 62020000 		.4byte	0x262
 1378 0262 06       		.uleb128 0x6
 1379 0263 A9040000 		.4byte	.LASF50
 1380 0267 04       		.byte	0x4
 1381 0268 02       		.byte	0x2
 1382 0269 B0       		.byte	0xb0
 1383 026a 7B020000 		.4byte	0x27b
 1384 026e 07       		.uleb128 0x7
 1385 026f 1F040000 		.4byte	.LASF28
 1386 0273 02       		.byte	0x2
 1387 0274 B1       		.byte	0xb1
 1388 0275 51020000 		.4byte	0x251
 1389 0279 00       		.byte	0
 1390 027a 00       		.byte	0
 1391 027b 04       		.uleb128 0x4
 1392 027c 8A060000 		.4byte	.LASF51
 1393 0280 07       		.byte	0x7
 1394 0281 50       		.byte	0x50
 1395 0282 86020000 		.4byte	0x286
 1396 0286 06       		.uleb128 0x6
 1397 0287 EB000000 		.4byte	.LASF52
 1398 028b 08       		.byte	0x8
 1399 028c 02       		.byte	0x2
 1400 028d B7       		.byte	0xb7
 1401 028e AB020000 		.4byte	0x2ab
 1402 0292 07       		.uleb128 0x7
 1403 0293 1F040000 		.4byte	.LASF28
 1404 0297 02       		.byte	0x2
 1405 0298 B8       		.byte	0xb8
 1406 0299 51020000 		.4byte	0x251
 1407 029d 00       		.byte	0
 1408 029e 07       		.uleb128 0x7
 1409 029f B6030000 		.4byte	.LASF29
 1410 02a3 02       		.byte	0x2
 1411 02a4 B9       		.byte	0xb9
 1412 02a5 51020000 		.4byte	0x251
 1413 02a9 04       		.byte	0x4
 1414 02aa 00       		.byte	0
 1415 02ab 04       		.uleb128 0x4
 1416 02ac 00000000 		.4byte	.LASF53
 1417 02b0 07       		.byte	0x7
 1418 02b1 57       		.byte	0x57
 1419 02b2 B6020000 		.4byte	0x2b6
 1420 02b6 0B       		.uleb128 0xb
 1421 02b7 97020000 		.4byte	.LASF54
 1422 02bb 1C       		.byte	0x1c
 1423 02bc 02       		.byte	0x2
 1424 02bd 9001     		.2byte	0x190
 1425 02bf 12030000 		.4byte	0x312
ARM GAS  C:\Users\IDONNO~1\AppData\Local\Temp\ccRF5WGp.s 			page 26


 1426 02c3 09       		.uleb128 0x9
 1427 02c4 95040000 		.4byte	.LASF55
 1428 02c8 02       		.byte	0x2
 1429 02c9 9101     		.2byte	0x191
 1430 02cb 7B020000 		.4byte	0x27b
 1431 02cf 00       		.byte	0
 1432 02d0 09       		.uleb128 0x9
 1433 02d1 11040000 		.4byte	.LASF56
 1434 02d5 02       		.byte	0x2
 1435 02d6 9201     		.2byte	0x192
 1436 02d8 FF000000 		.4byte	0xff
 1437 02dc 08       		.byte	0x8
 1438 02dd 09       		.uleb128 0x9
 1439 02de 5E030000 		.4byte	.LASF57
 1440 02e2 02       		.byte	0x2
 1441 02e3 9401     		.2byte	0x194
 1442 02e5 81040000 		.4byte	0x481
 1443 02e9 0C       		.byte	0xc
 1444 02ea 09       		.uleb128 0x9
 1445 02eb AE010000 		.4byte	.LASF58
 1446 02ef 02       		.byte	0x2
 1447 02f0 9701     		.2byte	0x197
 1448 02f2 51020000 		.4byte	0x251
 1449 02f6 10       		.byte	0x10
 1450 02f7 09       		.uleb128 0x9
 1451 02f8 8B030000 		.4byte	.LASF59
 1452 02fc 02       		.byte	0x2
 1453 02fd 9801     		.2byte	0x198
 1454 02ff 51020000 		.4byte	0x251
 1455 0303 14       		.byte	0x14
 1456 0304 09       		.uleb128 0x9
 1457 0305 81030000 		.4byte	.LASF60
 1458 0309 02       		.byte	0x2
 1459 030a 9B01     		.2byte	0x19b
 1460 030c 51020000 		.4byte	0x251
 1461 0310 18       		.byte	0x18
 1462 0311 00       		.byte	0
 1463 0312 04       		.uleb128 0x4
 1464 0313 36060000 		.4byte	.LASF61
 1465 0317 07       		.byte	0x7
 1466 0318 5C       		.byte	0x5c
 1467 0319 1D030000 		.4byte	0x31d
 1468 031d 0A       		.uleb128 0xa
 1469 031e 04       		.byte	0x4
 1470 031f 23030000 		.4byte	0x323
 1471 0323 0C       		.uleb128 0xc
 1472 0324 2E030000 		.4byte	0x32e
 1473 0328 0D       		.uleb128 0xd
 1474 0329 2E030000 		.4byte	0x32e
 1475 032d 00       		.byte	0
 1476 032e 0E       		.uleb128 0xe
 1477 032f 04       		.byte	0x4
 1478 0330 04       		.uleb128 0x4
 1479 0331 A6030000 		.4byte	.LASF62
 1480 0335 07       		.byte	0x7
 1481 0336 61       		.byte	0x61
 1482 0337 3B030000 		.4byte	0x33b
ARM GAS  C:\Users\IDONNO~1\AppData\Local\Temp\ccRF5WGp.s 			page 27


 1483 033b 0B       		.uleb128 0xb
 1484 033c 4E040000 		.4byte	.LASF63
 1485 0340 14       		.byte	0x14
 1486 0341 02       		.byte	0x2
 1487 0342 6B01     		.2byte	0x16b
 1488 0344 8A030000 		.4byte	0x38a
 1489 0348 09       		.uleb128 0x9
 1490 0349 18020000 		.4byte	.LASF64
 1491 034d 02       		.byte	0x2
 1492 034e 6C01     		.2byte	0x16c
 1493 0350 DD060000 		.4byte	0x6dd
 1494 0354 00       		.byte	0
 1495 0355 09       		.uleb128 0x9
 1496 0356 BF010000 		.4byte	.LASF65
 1497 035a 02       		.byte	0x2
 1498 035b 6D01     		.2byte	0x16d
 1499 035d DD060000 		.4byte	0x6dd
 1500 0361 04       		.byte	0x4
 1501 0362 09       		.uleb128 0x9
 1502 0363 2E020000 		.4byte	.LASF66
 1503 0367 02       		.byte	0x2
 1504 0368 6E01     		.2byte	0x16e
 1505 036a 2B010000 		.4byte	0x12b
 1506 036e 08       		.byte	0x8
 1507 036f 09       		.uleb128 0x9
 1508 0370 12070000 		.4byte	.LASF67
 1509 0374 02       		.byte	0x2
 1510 0375 6F01     		.2byte	0x16f
 1511 0377 12030000 		.4byte	0x312
 1512 037b 0C       		.byte	0xc
 1513 037c 09       		.uleb128 0x9
 1514 037d 83060000 		.4byte	.LASF68
 1515 0381 02       		.byte	0x2
 1516 0382 7101     		.2byte	0x171
 1517 0384 2E030000 		.4byte	0x32e
 1518 0388 10       		.byte	0x10
 1519 0389 00       		.byte	0
 1520 038a 04       		.uleb128 0x4
 1521 038b BB020000 		.4byte	.LASF69
 1522 038f 07       		.byte	0x7
 1523 0390 66       		.byte	0x66
 1524 0391 95030000 		.4byte	0x395
 1525 0395 0B       		.uleb128 0xb
 1526 0396 35030000 		.4byte	.LASF70
 1527 039a 10       		.byte	0x10
 1528 039b 02       		.byte	0x2
 1529 039c 7B01     		.2byte	0x17b
 1530 039e D7030000 		.4byte	0x3d7
 1531 03a2 09       		.uleb128 0x9
 1532 03a3 18020000 		.4byte	.LASF64
 1533 03a7 02       		.byte	0x2
 1534 03a8 7C01     		.2byte	0x17c
 1535 03aa DD060000 		.4byte	0x6dd
 1536 03ae 00       		.byte	0
 1537 03af 09       		.uleb128 0x9
 1538 03b0 BF010000 		.4byte	.LASF65
 1539 03b4 02       		.byte	0x2
ARM GAS  C:\Users\IDONNO~1\AppData\Local\Temp\ccRF5WGp.s 			page 28


 1540 03b5 7E01     		.2byte	0x17e
 1541 03b7 DD060000 		.4byte	0x6dd
 1542 03bb 04       		.byte	0x4
 1543 03bc 09       		.uleb128 0x9
 1544 03bd 2E020000 		.4byte	.LASF66
 1545 03c1 02       		.byte	0x2
 1546 03c2 8001     		.2byte	0x180
 1547 03c4 2B010000 		.4byte	0x12b
 1548 03c8 08       		.byte	0x8
 1549 03c9 09       		.uleb128 0x9
 1550 03ca D2060000 		.4byte	.LASF71
 1551 03ce 02       		.byte	0x2
 1552 03cf 8201     		.2byte	0x182
 1553 03d1 D8060000 		.4byte	0x6d8
 1554 03d5 0C       		.byte	0xc
 1555 03d6 00       		.byte	0
 1556 03d7 04       		.uleb128 0x4
 1557 03d8 53000000 		.4byte	.LASF72
 1558 03dc 07       		.byte	0x7
 1559 03dd 6B       		.byte	0x6b
 1560 03de E2030000 		.4byte	0x3e2
 1561 03e2 0B       		.uleb128 0xb
 1562 03e3 C5030000 		.4byte	.LASF73
 1563 03e7 04       		.byte	0x4
 1564 03e8 02       		.byte	0x2
 1565 03e9 A201     		.2byte	0x1a2
 1566 03eb FD030000 		.4byte	0x3fd
 1567 03ef 09       		.uleb128 0x9
 1568 03f0 62060000 		.4byte	.LASF74
 1569 03f4 02       		.byte	0x2
 1570 03f5 AA01     		.2byte	0x1aa
 1571 03f7 E3060000 		.4byte	0x6e3
 1572 03fb 00       		.byte	0
 1573 03fc 00       		.byte	0
 1574 03fd 04       		.uleb128 0x4
 1575 03fe 83020000 		.4byte	.LASF75
 1576 0402 07       		.byte	0x7
 1577 0403 70       		.byte	0x70
 1578 0404 08040000 		.4byte	0x408
 1579 0408 0F       		.uleb128 0xf
 1580 0409 71010000 		.4byte	.LASF76
 1581 040d 5802     		.2byte	0x258
 1582 040f 02       		.byte	0x2
 1583 0410 C201     		.2byte	0x1c2
 1584 0412 64040000 		.4byte	0x464
 1585 0416 09       		.uleb128 0x9
 1586 0417 B6060000 		.4byte	.LASF77
 1587 041b 02       		.byte	0x2
 1588 041c C601     		.2byte	0x1c6
 1589 041e AB020000 		.4byte	0x2ab
 1590 0422 00       		.byte	0
 1591 0423 09       		.uleb128 0x9
 1592 0424 54010000 		.4byte	.LASF78
 1593 0428 02       		.byte	0x2
 1594 0429 CA01     		.2byte	0x1ca
 1595 042b 8A030000 		.4byte	0x38a
 1596 042f 1C       		.byte	0x1c
ARM GAS  C:\Users\IDONNO~1\AppData\Local\Temp\ccRF5WGp.s 			page 29


 1597 0430 08       		.uleb128 0x8
 1598 0431 64626700 		.ascii	"dbg\000"
 1599 0435 02       		.byte	0x2
 1600 0436 CE01     		.2byte	0x1ce
 1601 0438 D7030000 		.4byte	0x3d7
 1602 043c 2C       		.byte	0x2c
 1603 043d 09       		.uleb128 0x9
 1604 043e C2000000 		.4byte	.LASF79
 1605 0442 02       		.byte	0x2
 1606 0443 D201     		.2byte	0x1d2
 1607 0445 36010000 		.4byte	0x136
 1608 0449 30       		.byte	0x30
 1609 044a 08       		.uleb128 0x8
 1610 044b 746D00   		.ascii	"tm\000"
 1611 044e 02       		.byte	0x2
 1612 044f D701     		.2byte	0x1d7
 1613 0451 F6050000 		.4byte	0x5f6
 1614 0455 78       		.byte	0x78
 1615 0456 09       		.uleb128 0x9
 1616 0457 D5010000 		.4byte	.LASF80
 1617 045b 02       		.byte	0x2
 1618 045c E301     		.2byte	0x1e3
 1619 045e E8060000 		.4byte	0x6e8
 1620 0462 80       		.byte	0x80
 1621 0463 00       		.byte	0
 1622 0464 03       		.uleb128 0x3
 1623 0465 04       		.byte	0x4
 1624 0466 07       		.byte	0x7
 1625 0467 19030000 		.4byte	.LASF81
 1626 046b 04       		.uleb128 0x4
 1627 046c B6010000 		.4byte	.LASF82
 1628 0470 08       		.byte	0x8
 1629 0471 65       		.byte	0x65
 1630 0472 2E030000 		.4byte	0x32e
 1631 0476 04       		.uleb128 0x4
 1632 0477 D1020000 		.4byte	.LASF83
 1633 047b 08       		.byte	0x8
 1634 047c 6D       		.byte	0x6d
 1635 047d B8000000 		.4byte	0xb8
 1636 0481 06       		.uleb128 0x6
 1637 0482 73060000 		.4byte	.LASF84
 1638 0486 04       		.byte	0x4
 1639 0487 08       		.byte	0x8
 1640 0488 89       		.byte	0x89
 1641 0489 9A040000 		.4byte	0x49a
 1642 048d 10       		.uleb128 0x10
 1643 048e 72313300 		.ascii	"r13\000"
 1644 0492 08       		.byte	0x8
 1645 0493 8A       		.byte	0x8a
 1646 0494 DB050000 		.4byte	0x5db
 1647 0498 00       		.byte	0
 1648 0499 00       		.byte	0
 1649 049a 06       		.uleb128 0x6
 1650 049b 47000000 		.4byte	.LASF85
 1651 049f 64       		.byte	0x64
 1652 04a0 09       		.byte	0x9
 1653 04a1 F4       		.byte	0xf4
ARM GAS  C:\Users\IDONNO~1\AppData\Local\Temp\ccRF5WGp.s 			page 30


 1654 04a2 DB050000 		.4byte	0x5db
 1655 04a6 10       		.uleb128 0x10
 1656 04a7 73313600 		.ascii	"s16\000"
 1657 04ab 09       		.byte	0x9
 1658 04ac F6       		.byte	0xf6
 1659 04ad 6B040000 		.4byte	0x46b
 1660 04b1 00       		.byte	0
 1661 04b2 10       		.uleb128 0x10
 1662 04b3 73313700 		.ascii	"s17\000"
 1663 04b7 09       		.byte	0x9
 1664 04b8 F7       		.byte	0xf7
 1665 04b9 6B040000 		.4byte	0x46b
 1666 04bd 04       		.byte	0x4
 1667 04be 10       		.uleb128 0x10
 1668 04bf 73313800 		.ascii	"s18\000"
 1669 04c3 09       		.byte	0x9
 1670 04c4 F8       		.byte	0xf8
 1671 04c5 6B040000 		.4byte	0x46b
 1672 04c9 08       		.byte	0x8
 1673 04ca 10       		.uleb128 0x10
 1674 04cb 73313900 		.ascii	"s19\000"
 1675 04cf 09       		.byte	0x9
 1676 04d0 F9       		.byte	0xf9
 1677 04d1 6B040000 		.4byte	0x46b
 1678 04d5 0C       		.byte	0xc
 1679 04d6 10       		.uleb128 0x10
 1680 04d7 73323000 		.ascii	"s20\000"
 1681 04db 09       		.byte	0x9
 1682 04dc FA       		.byte	0xfa
 1683 04dd 6B040000 		.4byte	0x46b
 1684 04e1 10       		.byte	0x10
 1685 04e2 10       		.uleb128 0x10
 1686 04e3 73323100 		.ascii	"s21\000"
 1687 04e7 09       		.byte	0x9
 1688 04e8 FB       		.byte	0xfb
 1689 04e9 6B040000 		.4byte	0x46b
 1690 04ed 14       		.byte	0x14
 1691 04ee 10       		.uleb128 0x10
 1692 04ef 73323200 		.ascii	"s22\000"
 1693 04f3 09       		.byte	0x9
 1694 04f4 FC       		.byte	0xfc
 1695 04f5 6B040000 		.4byte	0x46b
 1696 04f9 18       		.byte	0x18
 1697 04fa 10       		.uleb128 0x10
 1698 04fb 73323300 		.ascii	"s23\000"
 1699 04ff 09       		.byte	0x9
 1700 0500 FD       		.byte	0xfd
 1701 0501 6B040000 		.4byte	0x46b
 1702 0505 1C       		.byte	0x1c
 1703 0506 10       		.uleb128 0x10
 1704 0507 73323400 		.ascii	"s24\000"
 1705 050b 09       		.byte	0x9
 1706 050c FE       		.byte	0xfe
 1707 050d 6B040000 		.4byte	0x46b
 1708 0511 20       		.byte	0x20
 1709 0512 10       		.uleb128 0x10
 1710 0513 73323500 		.ascii	"s25\000"
ARM GAS  C:\Users\IDONNO~1\AppData\Local\Temp\ccRF5WGp.s 			page 31


 1711 0517 09       		.byte	0x9
 1712 0518 FF       		.byte	0xff
 1713 0519 6B040000 		.4byte	0x46b
 1714 051d 24       		.byte	0x24
 1715 051e 08       		.uleb128 0x8
 1716 051f 73323600 		.ascii	"s26\000"
 1717 0523 09       		.byte	0x9
 1718 0524 0001     		.2byte	0x100
 1719 0526 6B040000 		.4byte	0x46b
 1720 052a 28       		.byte	0x28
 1721 052b 08       		.uleb128 0x8
 1722 052c 73323700 		.ascii	"s27\000"
 1723 0530 09       		.byte	0x9
 1724 0531 0101     		.2byte	0x101
 1725 0533 6B040000 		.4byte	0x46b
 1726 0537 2C       		.byte	0x2c
 1727 0538 08       		.uleb128 0x8
 1728 0539 73323800 		.ascii	"s28\000"
 1729 053d 09       		.byte	0x9
 1730 053e 0201     		.2byte	0x102
 1731 0540 6B040000 		.4byte	0x46b
 1732 0544 30       		.byte	0x30
 1733 0545 08       		.uleb128 0x8
 1734 0546 73323900 		.ascii	"s29\000"
 1735 054a 09       		.byte	0x9
 1736 054b 0301     		.2byte	0x103
 1737 054d 6B040000 		.4byte	0x46b
 1738 0551 34       		.byte	0x34
 1739 0552 08       		.uleb128 0x8
 1740 0553 73333000 		.ascii	"s30\000"
 1741 0557 09       		.byte	0x9
 1742 0558 0401     		.2byte	0x104
 1743 055a 6B040000 		.4byte	0x46b
 1744 055e 38       		.byte	0x38
 1745 055f 08       		.uleb128 0x8
 1746 0560 73333100 		.ascii	"s31\000"
 1747 0564 09       		.byte	0x9
 1748 0565 0501     		.2byte	0x105
 1749 0567 6B040000 		.4byte	0x46b
 1750 056b 3C       		.byte	0x3c
 1751 056c 08       		.uleb128 0x8
 1752 056d 723400   		.ascii	"r4\000"
 1753 0570 09       		.byte	0x9
 1754 0571 0701     		.2byte	0x107
 1755 0573 6B040000 		.4byte	0x46b
 1756 0577 40       		.byte	0x40
 1757 0578 08       		.uleb128 0x8
 1758 0579 723500   		.ascii	"r5\000"
 1759 057c 09       		.byte	0x9
 1760 057d 0801     		.2byte	0x108
 1761 057f 6B040000 		.4byte	0x46b
 1762 0583 44       		.byte	0x44
 1763 0584 08       		.uleb128 0x8
 1764 0585 723600   		.ascii	"r6\000"
 1765 0588 09       		.byte	0x9
 1766 0589 0901     		.2byte	0x109
 1767 058b 6B040000 		.4byte	0x46b
ARM GAS  C:\Users\IDONNO~1\AppData\Local\Temp\ccRF5WGp.s 			page 32


 1768 058f 48       		.byte	0x48
 1769 0590 08       		.uleb128 0x8
 1770 0591 723700   		.ascii	"r7\000"
 1771 0594 09       		.byte	0x9
 1772 0595 0A01     		.2byte	0x10a
 1773 0597 6B040000 		.4byte	0x46b
 1774 059b 4C       		.byte	0x4c
 1775 059c 08       		.uleb128 0x8
 1776 059d 723800   		.ascii	"r8\000"
 1777 05a0 09       		.byte	0x9
 1778 05a1 0B01     		.2byte	0x10b
 1779 05a3 6B040000 		.4byte	0x46b
 1780 05a7 50       		.byte	0x50
 1781 05a8 08       		.uleb128 0x8
 1782 05a9 723900   		.ascii	"r9\000"
 1783 05ac 09       		.byte	0x9
 1784 05ad 0C01     		.2byte	0x10c
 1785 05af 6B040000 		.4byte	0x46b
 1786 05b3 54       		.byte	0x54
 1787 05b4 08       		.uleb128 0x8
 1788 05b5 72313000 		.ascii	"r10\000"
 1789 05b9 09       		.byte	0x9
 1790 05ba 0D01     		.2byte	0x10d
 1791 05bc 6B040000 		.4byte	0x46b
 1792 05c0 58       		.byte	0x58
 1793 05c1 08       		.uleb128 0x8
 1794 05c2 72313100 		.ascii	"r11\000"
 1795 05c6 09       		.byte	0x9
 1796 05c7 0E01     		.2byte	0x10e
 1797 05c9 6B040000 		.4byte	0x46b
 1798 05cd 5C       		.byte	0x5c
 1799 05ce 08       		.uleb128 0x8
 1800 05cf 6C7200   		.ascii	"lr\000"
 1801 05d2 09       		.byte	0x9
 1802 05d3 0F01     		.2byte	0x10f
 1803 05d5 6B040000 		.4byte	0x46b
 1804 05d9 60       		.byte	0x60
 1805 05da 00       		.byte	0
 1806 05db 0A       		.uleb128 0xa
 1807 05dc 04       		.byte	0x4
 1808 05dd 9A040000 		.4byte	0x49a
 1809 05e1 11       		.uleb128 0x11
 1810 05e2 04       		.byte	0x4
 1811 05e3 0A       		.byte	0xa
 1812 05e4 38       		.byte	0x38
 1813 05e5 F6050000 		.4byte	0x5f6
 1814 05e9 07       		.uleb128 0x7
 1815 05ea 6C060000 		.4byte	.LASF86
 1816 05ee 0A       		.byte	0xa
 1817 05ef 3C       		.byte	0x3c
 1818 05f0 C8000000 		.4byte	0xc8
 1819 05f4 00       		.byte	0
 1820 05f5 00       		.byte	0
 1821 05f6 04       		.uleb128 0x4
 1822 05f7 64030000 		.4byte	.LASF87
 1823 05fb 0A       		.byte	0xa
 1824 05fc 3D       		.byte	0x3d
ARM GAS  C:\Users\IDONNO~1\AppData\Local\Temp\ccRF5WGp.s 			page 33


 1825 05fd E1050000 		.4byte	0x5e1
 1826 0601 12       		.uleb128 0x12
 1827 0602 04       		.byte	0x4
 1828 0603 02       		.byte	0x2
 1829 0604 FA       		.byte	0xfa
 1830 0605 5E060000 		.4byte	0x65e
 1831 0609 13       		.uleb128 0x13
 1832 060a 2D000000 		.4byte	.LASF88
 1833 060e 02       		.byte	0x2
 1834 060f 0101     		.2byte	0x101
 1835 0611 0A010000 		.4byte	0x10a
 1836 0615 13       		.uleb128 0x13
 1837 0616 B9000000 		.4byte	.LASF89
 1838 061a 02       		.byte	0x2
 1839 061b 0801     		.2byte	0x108
 1840 061d 0A010000 		.4byte	0x10a
 1841 0621 13       		.uleb128 0x13
 1842 0622 C4060000 		.4byte	.LASF90
 1843 0626 02       		.byte	0x2
 1844 0627 0F01     		.2byte	0x10f
 1845 0629 2E030000 		.4byte	0x32e
 1846 062d 13       		.uleb128 0x13
 1847 062e 27000000 		.4byte	.LASF91
 1848 0632 02       		.byte	0x2
 1849 0633 1601     		.2byte	0x116
 1850 0635 5E060000 		.4byte	0x65e
 1851 0639 13       		.uleb128 0x13
 1852 063a 27020000 		.4byte	.LASF92
 1853 063e 02       		.byte	0x2
 1854 063f 1E01     		.2byte	0x11e
 1855 0641 89060000 		.4byte	0x689
 1856 0645 13       		.uleb128 0x13
 1857 0646 8E040000 		.4byte	.LASF93
 1858 064a 02       		.byte	0x2
 1859 064b 2701     		.2byte	0x127
 1860 064d C0060000 		.4byte	0x6c0
 1861 0651 13       		.uleb128 0x13
 1862 0652 18040000 		.4byte	.LASF94
 1863 0656 02       		.byte	0x2
 1864 0657 2F01     		.2byte	0x12f
 1865 0659 15010000 		.4byte	0x115
 1866 065d 00       		.byte	0
 1867 065e 0A       		.uleb128 0xa
 1868 065f 04       		.byte	0x4
 1869 0660 46020000 		.4byte	0x246
 1870 0664 06       		.uleb128 0x6
 1871 0665 5F040000 		.4byte	.LASF95
 1872 0669 0C       		.byte	0xc
 1873 066a 0B       		.byte	0xb
 1874 066b 34       		.byte	0x34
 1875 066c 89060000 		.4byte	0x689
 1876 0670 07       		.uleb128 0x7
 1877 0671 95010000 		.4byte	.LASF96
 1878 0675 0B       		.byte	0xb
 1879 0676 35       		.byte	0x35
 1880 0677 7B020000 		.4byte	0x27b
 1881 067b 00       		.byte	0
ARM GAS  C:\Users\IDONNO~1\AppData\Local\Temp\ccRF5WGp.s 			page 34


 1882 067c 07       		.uleb128 0x7
 1883 067d 4D020000 		.4byte	.LASF97
 1884 0681 0B       		.byte	0xb
 1885 0682 37       		.byte	0x37
 1886 0683 20010000 		.4byte	0x120
 1887 0687 08       		.byte	0x8
 1888 0688 00       		.byte	0
 1889 0689 0A       		.uleb128 0xa
 1890 068a 04       		.byte	0x4
 1891 068b 64060000 		.4byte	0x664
 1892 068f 06       		.uleb128 0x6
 1893 0690 9A060000 		.4byte	.LASF98
 1894 0694 10       		.byte	0x10
 1895 0695 0C       		.byte	0xc
 1896 0696 39       		.byte	0x39
 1897 0697 C0060000 		.4byte	0x6c0
 1898 069b 07       		.uleb128 0x7
 1899 069c 4C010000 		.4byte	.LASF99
 1900 06a0 0C       		.byte	0xc
 1901 06a1 3A       		.byte	0x3a
 1902 06a2 7B020000 		.4byte	0x27b
 1903 06a6 00       		.byte	0
 1904 06a7 07       		.uleb128 0x7
 1905 06a8 04070000 		.4byte	.LASF100
 1906 06ac 0C       		.byte	0xc
 1907 06ad 3C       		.byte	0x3c
 1908 06ae 51020000 		.4byte	0x251
 1909 06b2 08       		.byte	0x8
 1910 06b3 07       		.uleb128 0x7
 1911 06b4 75030000 		.4byte	.LASF101
 1912 06b8 0C       		.byte	0xc
 1913 06b9 3E       		.byte	0x3e
 1914 06ba 0E070000 		.4byte	0x70e
 1915 06be 0C       		.byte	0xc
 1916 06bf 00       		.byte	0
 1917 06c0 0A       		.uleb128 0xa
 1918 06c1 04       		.byte	0x4
 1919 06c2 8F060000 		.4byte	0x68f
 1920 06c6 0A       		.uleb128 0xa
 1921 06c7 04       		.byte	0x4
 1922 06c8 D3060000 		.4byte	0x6d3
 1923 06cc 03       		.uleb128 0x3
 1924 06cd 01       		.byte	0x1
 1925 06ce 08       		.byte	0x8
 1926 06cf CB040000 		.4byte	.LASF102
 1927 06d3 14       		.uleb128 0x14
 1928 06d4 CC060000 		.4byte	0x6cc
 1929 06d8 05       		.uleb128 0x5
 1930 06d9 2B010000 		.4byte	0x12b
 1931 06dd 0A       		.uleb128 0xa
 1932 06de 04       		.byte	0x4
 1933 06df 30030000 		.4byte	0x330
 1934 06e3 05       		.uleb128 0x5
 1935 06e4 C6060000 		.4byte	0x6c6
 1936 06e8 15       		.uleb128 0x15
 1937 06e9 76040000 		.4byte	0x476
 1938 06ed F8060000 		.4byte	0x6f8
ARM GAS  C:\Users\IDONNO~1\AppData\Local\Temp\ccRF5WGp.s 			page 35


 1939 06f1 16       		.uleb128 0x16
 1940 06f2 64040000 		.4byte	0x464
 1941 06f6 3A       		.byte	0x3a
 1942 06f7 00       		.byte	0
 1943 06f8 04       		.uleb128 0x4
 1944 06f9 42040000 		.4byte	.LASF103
 1945 06fd 0B       		.byte	0xb
 1946 06fe 38       		.byte	0x38
 1947 06ff 64060000 		.4byte	0x664
 1948 0703 04       		.uleb128 0x4
 1949 0704 C7010000 		.4byte	.LASF104
 1950 0708 0C       		.byte	0xc
 1951 0709 34       		.byte	0x34
 1952 070a 8F060000 		.4byte	0x68f
 1953 070e 0A       		.uleb128 0xa
 1954 070f 04       		.byte	0x4
 1955 0710 03070000 		.4byte	0x703
 1956 0714 17       		.uleb128 0x17
 1957 0715 4A060000 		.4byte	.LASF107
 1958 0719 03       		.byte	0x3
 1959 071a 2002     		.2byte	0x220
 1960 071c 03       		.byte	0x3
 1961 071d 2E070000 		.4byte	0x72e
 1962 0721 18       		.uleb128 0x18
 1963 0722 CF010000 		.4byte	.LASF109
 1964 0726 03       		.byte	0x3
 1965 0727 2002     		.2byte	0x220
 1966 0729 AD000000 		.4byte	0xad
 1967 072d 00       		.byte	0
 1968 072e 19       		.uleb128 0x19
 1969 072f 6D000000 		.4byte	.LASF105
 1970 0733 09       		.byte	0x9
 1971 0734 BC01     		.2byte	0x1bc
 1972 0736 03       		.byte	0x3
 1973 0737 19       		.uleb128 0x19
 1974 0738 5B010000 		.4byte	.LASF106
 1975 073c 09       		.byte	0x9
 1976 073d CA01     		.2byte	0x1ca
 1977 073f 03       		.byte	0x3
 1978 0740 17       		.uleb128 0x17
 1979 0741 62000000 		.4byte	.LASF108
 1980 0745 02       		.byte	0x2
 1981 0746 5A02     		.2byte	0x25a
 1982 0748 03       		.byte	0x3
 1983 0749 5A070000 		.4byte	0x75a
 1984 074d 1A       		.uleb128 0x1a
 1985 074e 74717000 		.ascii	"tqp\000"
 1986 0752 02       		.byte	0x2
 1987 0753 5A02     		.2byte	0x25a
 1988 0755 5A070000 		.4byte	0x75a
 1989 0759 00       		.byte	0
 1990 075a 0A       		.uleb128 0xa
 1991 075b 04       		.byte	0x4
 1992 075c 7B020000 		.4byte	0x27b
 1993 0760 1B       		.uleb128 0x1b
 1994 0761 77000000 		.4byte	.LASF117
 1995 0765 02       		.byte	0x2
ARM GAS  C:\Users\IDONNO~1\AppData\Local\Temp\ccRF5WGp.s 			page 36


 1996 0766 A802     		.2byte	0x2a8
 1997 0768 51020000 		.4byte	0x251
 1998 076c 03       		.byte	0x3
 1999 076d 89070000 		.4byte	0x789
 2000 0771 1A       		.uleb128 0x1a
 2001 0772 74717000 		.ascii	"tqp\000"
 2002 0776 02       		.byte	0x2
 2003 0777 A802     		.2byte	0x2a8
 2004 0779 5A070000 		.4byte	0x75a
 2005 077d 1C       		.uleb128 0x1c
 2006 077e 747000   		.ascii	"tp\000"
 2007 0781 02       		.byte	0x2
 2008 0782 A902     		.2byte	0x2a9
 2009 0784 51020000 		.4byte	0x251
 2010 0788 00       		.byte	0
 2011 0789 17       		.uleb128 0x17
 2012 078a F2060000 		.4byte	.LASF110
 2013 078e 0D       		.byte	0xd
 2014 078f 6601     		.2byte	0x166
 2015 0791 03       		.byte	0x3
 2016 0792 A4070000 		.4byte	0x7a4
 2017 0796 1D       		.uleb128 0x1d
 2018 0797 2E040000 		.4byte	.LASF111
 2019 079b B4070000 		.4byte	0x7b4
 2020 079f F2060000 		.4byte	.LASF110
 2021 07a3 00       		.byte	0
 2022 07a4 15       		.uleb128 0x15
 2023 07a5 CC060000 		.4byte	0x6cc
 2024 07a9 B4070000 		.4byte	0x7b4
 2025 07ad 16       		.uleb128 0x16
 2026 07ae 64040000 		.4byte	0x464
 2027 07b2 0B       		.byte	0xb
 2028 07b3 00       		.byte	0
 2029 07b4 14       		.uleb128 0x14
 2030 07b5 A4070000 		.4byte	0x7a4
 2031 07b9 19       		.uleb128 0x19
 2032 07ba 4C030000 		.4byte	.LASF112
 2033 07be 0D       		.byte	0xd
 2034 07bf 5A01     		.2byte	0x15a
 2035 07c1 03       		.byte	0x3
 2036 07c2 17       		.uleb128 0x17
 2037 07c3 0D000000 		.4byte	.LASF113
 2038 07c7 02       		.byte	0x2
 2039 07c8 9702     		.2byte	0x297
 2040 07ca 03       		.byte	0x3
 2041 07cb E7070000 		.4byte	0x7e7
 2042 07cf 1A       		.uleb128 0x1a
 2043 07d0 747000   		.ascii	"tp\000"
 2044 07d3 02       		.byte	0x2
 2045 07d4 9702     		.2byte	0x297
 2046 07d6 51020000 		.4byte	0x251
 2047 07da 1A       		.uleb128 0x1a
 2048 07db 74717000 		.ascii	"tqp\000"
 2049 07df 02       		.byte	0x2
 2050 07e0 9702     		.2byte	0x297
 2051 07e2 5A070000 		.4byte	0x75a
 2052 07e6 00       		.byte	0
ARM GAS  C:\Users\IDONNO~1\AppData\Local\Temp\ccRF5WGp.s 			page 37


 2053 07e7 1E       		.uleb128 0x1e
 2054 07e8 37040000 		.4byte	.LASF114
 2055 07ec 01       		.byte	0x1
 2056 07ed C5       		.byte	0xc5
 2057 07ee 0A010000 		.4byte	0x10a
 2058 07f2 01       		.byte	0x1
 2059 07f3 0F080000 		.4byte	0x80f
 2060 07f7 1F       		.uleb128 0x1f
 2061 07f8 737000   		.ascii	"sp\000"
 2062 07fb 01       		.byte	0x1
 2063 07fc C5       		.byte	0xc5
 2064 07fd 0F080000 		.4byte	0x80f
 2065 0801 1D       		.uleb128 0x1d
 2066 0802 2E040000 		.4byte	.LASF111
 2067 0806 25080000 		.4byte	0x825
 2068 080a 37040000 		.4byte	.LASF114
 2069 080e 00       		.byte	0
 2070 080f 0A       		.uleb128 0xa
 2071 0810 04       		.byte	0x4
 2072 0811 F8060000 		.4byte	0x6f8
 2073 0815 15       		.uleb128 0x15
 2074 0816 CC060000 		.4byte	0x6cc
 2075 081a 25080000 		.4byte	0x825
 2076 081e 16       		.uleb128 0x16
 2077 081f 64040000 		.4byte	0x464
 2078 0823 0A       		.byte	0xa
 2079 0824 00       		.byte	0
 2080 0825 14       		.uleb128 0x14
 2081 0826 15080000 		.4byte	0x815
 2082 082a 20       		.uleb128 0x20
 2083 082b F4050000 		.4byte	.LASF115
 2084 082f 01       		.byte	0x1
 2085 0830 0801     		.2byte	0x108
 2086 0832 0A010000 		.4byte	0x10a
 2087 0836 01       		.byte	0x1
 2088 0837 60080000 		.4byte	0x860
 2089 083b 1A       		.uleb128 0x1a
 2090 083c 737000   		.ascii	"sp\000"
 2091 083f 01       		.byte	0x1
 2092 0840 0801     		.2byte	0x108
 2093 0842 0F080000 		.4byte	0x80f
 2094 0846 18       		.uleb128 0x18
 2095 0847 7C030000 		.4byte	.LASF116
 2096 084b 01       		.byte	0x1
 2097 084c 0801     		.2byte	0x108
 2098 084e 2B010000 		.4byte	0x12b
 2099 0852 1D       		.uleb128 0x1d
 2100 0853 2E040000 		.4byte	.LASF111
 2101 0857 70080000 		.4byte	0x870
 2102 085b F4050000 		.4byte	.LASF115
 2103 085f 00       		.byte	0
 2104 0860 15       		.uleb128 0x15
 2105 0861 CC060000 		.4byte	0x6cc
 2106 0865 70080000 		.4byte	0x870
 2107 0869 16       		.uleb128 0x16
 2108 086a 64040000 		.4byte	0x464
 2109 086e 11       		.byte	0x11
ARM GAS  C:\Users\IDONNO~1\AppData\Local\Temp\ccRF5WGp.s 			page 38


 2110 086f 00       		.byte	0
 2111 0870 14       		.uleb128 0x14
 2112 0871 60080000 		.4byte	0x860
 2113 0875 1B       		.uleb128 0x1b
 2114 0876 0F060000 		.4byte	.LASF118
 2115 087a 02       		.byte	0x2
 2116 087b 9F02     		.2byte	0x29f
 2117 087d 51020000 		.4byte	0x251
 2118 0881 03       		.byte	0x3
 2119 0882 9E080000 		.4byte	0x89e
 2120 0886 1A       		.uleb128 0x1a
 2121 0887 74717000 		.ascii	"tqp\000"
 2122 088b 02       		.byte	0x2
 2123 088c 9F02     		.2byte	0x29f
 2124 088e 5A070000 		.4byte	0x75a
 2125 0892 1C       		.uleb128 0x1c
 2126 0893 747000   		.ascii	"tp\000"
 2127 0896 02       		.byte	0x2
 2128 0897 A002     		.2byte	0x2a0
 2129 0899 51020000 		.4byte	0x251
 2130 089d 00       		.byte	0
 2131 089e 21       		.uleb128 0x21
 2132 089f E4010000 		.4byte	.LASF119
 2133 08a3 01       		.byte	0x1
 2134 08a4 61       		.byte	0x61
 2135 08a5 00000000 		.4byte	.LFB219
 2136 08a9 08000000 		.4byte	.LFE219-.LFB219
 2137 08ad 01       		.uleb128 0x1
 2138 08ae 9C       		.byte	0x9c
 2139 08af ED080000 		.4byte	0x8ed
 2140 08b3 22       		.uleb128 0x22
 2141 08b4 737000   		.ascii	"sp\000"
 2142 08b7 01       		.byte	0x1
 2143 08b8 61       		.byte	0x61
 2144 08b9 0F080000 		.4byte	0x80f
 2145 08bd 01       		.uleb128 0x1
 2146 08be 50       		.byte	0x50
 2147 08bf 22       		.uleb128 0x22
 2148 08c0 6E00     		.ascii	"n\000"
 2149 08c2 01       		.byte	0x1
 2150 08c3 61       		.byte	0x61
 2151 08c4 20010000 		.4byte	0x120
 2152 08c8 01       		.uleb128 0x1
 2153 08c9 51       		.byte	0x51
 2154 08ca 23       		.uleb128 0x23
 2155 08cb 2E040000 		.4byte	.LASF111
 2156 08cf FD080000 		.4byte	0x8fd
 2157 08d3 24       		.uleb128 0x24
 2158 08d4 40070000 		.4byte	0x740
 2159 08d8 00000000 		.4byte	.LBB92
 2160 08dc 04000000 		.4byte	.LBE92-.LBB92
 2161 08e0 01       		.byte	0x1
 2162 08e1 65       		.byte	0x65
 2163 08e2 25       		.uleb128 0x25
 2164 08e3 4D070000 		.4byte	0x74d
 2165 08e7 00000000 		.4byte	.LLST0
 2166 08eb 00       		.byte	0
ARM GAS  C:\Users\IDONNO~1\AppData\Local\Temp\ccRF5WGp.s 			page 39


 2167 08ec 00       		.byte	0
 2168 08ed 15       		.uleb128 0x15
 2169 08ee CC060000 		.4byte	0x6cc
 2170 08f2 FD080000 		.4byte	0x8fd
 2171 08f6 16       		.uleb128 0x16
 2172 08f7 64040000 		.4byte	0x464
 2173 08fb 0F       		.byte	0xf
 2174 08fc 00       		.byte	0
 2175 08fd 14       		.uleb128 0x14
 2176 08fe ED080000 		.4byte	0x8ed
 2177 0902 21       		.uleb128 0x21
 2178 0903 AA060000 		.4byte	.LASF120
 2179 0907 01       		.byte	0x1
 2180 0908 93       		.byte	0x93
 2181 0909 00000000 		.4byte	.LFB221
 2182 090d 28000000 		.4byte	.LFE221-.LFB221
 2183 0911 01       		.uleb128 0x1
 2184 0912 9C       		.byte	0x9c
 2185 0913 84090000 		.4byte	0x984
 2186 0917 26       		.uleb128 0x26
 2187 0918 737000   		.ascii	"sp\000"
 2188 091b 01       		.byte	0x1
 2189 091c 93       		.byte	0x93
 2190 091d 0F080000 		.4byte	0x80f
 2191 0921 13000000 		.4byte	.LLST1
 2192 0925 26       		.uleb128 0x26
 2193 0926 6E00     		.ascii	"n\000"
 2194 0928 01       		.byte	0x1
 2195 0929 93       		.byte	0x93
 2196 092a 20010000 		.4byte	0x120
 2197 092e 3F000000 		.4byte	.LLST2
 2198 0932 27       		.uleb128 0x27
 2199 0933 636E7400 		.ascii	"cnt\000"
 2200 0937 01       		.byte	0x1
 2201 0938 94       		.byte	0x94
 2202 0939 20010000 		.4byte	0x120
 2203 093d 60000000 		.4byte	.LLST3
 2204 0941 23       		.uleb128 0x23
 2205 0942 2E040000 		.4byte	.LASF111
 2206 0946 84090000 		.4byte	0x984
 2207 094a 28       		.uleb128 0x28
 2208 094b 60070000 		.4byte	0x760
 2209 094f 12000000 		.4byte	.LBB94
 2210 0953 08000000 		.4byte	.LBE94-.LBB94
 2211 0957 01       		.byte	0x1
 2212 0958 9F       		.byte	0x9f
 2213 0959 7A090000 		.4byte	0x97a
 2214 095d 25       		.uleb128 0x25
 2215 095e 71070000 		.4byte	0x771
 2216 0962 8B000000 		.4byte	.LLST4
 2217 0966 29       		.uleb128 0x29
 2218 0967 12000000 		.4byte	.LBB95
 2219 096b 08000000 		.4byte	.LBE95-.LBB95
 2220 096f 2A       		.uleb128 0x2a
 2221 0970 7D070000 		.4byte	0x77d
 2222 0974 9E000000 		.4byte	.LLST5
 2223 0978 00       		.byte	0
ARM GAS  C:\Users\IDONNO~1\AppData\Local\Temp\ccRF5WGp.s 			page 40


 2224 0979 00       		.byte	0
 2225 097a 2B       		.uleb128 0x2b
 2226 097b 1E000000 		.4byte	.LVL8
 2227 097f 97110000 		.4byte	0x1197
 2228 0983 00       		.byte	0
 2229 0984 14       		.uleb128 0x14
 2230 0985 A4070000 		.4byte	0x7a4
 2231 0989 21       		.uleb128 0x21
 2232 098a 42020000 		.4byte	.LASF121
 2233 098e 01       		.byte	0x1
 2234 098f 78       		.byte	0x78
 2235 0990 00000000 		.4byte	.LFB220
 2236 0994 18000000 		.4byte	.LFE220-.LFB220
 2237 0998 01       		.uleb128 0x1
 2238 0999 9C       		.byte	0x9c
 2239 099a 6C0A0000 		.4byte	0xa6c
 2240 099e 26       		.uleb128 0x26
 2241 099f 737000   		.ascii	"sp\000"
 2242 09a2 01       		.byte	0x1
 2243 09a3 78       		.byte	0x78
 2244 09a4 0F080000 		.4byte	0x80f
 2245 09a8 B1000000 		.4byte	.LLST6
 2246 09ac 26       		.uleb128 0x26
 2247 09ad 6E00     		.ascii	"n\000"
 2248 09af 01       		.byte	0x1
 2249 09b0 78       		.byte	0x78
 2250 09b1 20010000 		.4byte	0x120
 2251 09b5 D2000000 		.4byte	.LLST7
 2252 09b9 28       		.uleb128 0x28
 2253 09ba B9070000 		.4byte	0x7b9
 2254 09be 02000000 		.4byte	.LBB96
 2255 09c2 06000000 		.4byte	.LBE96-.LBB96
 2256 09c6 01       		.byte	0x1
 2257 09c7 7A       		.byte	0x7a
 2258 09c8 F8090000 		.4byte	0x9f8
 2259 09cc 2C       		.uleb128 0x2c
 2260 09cd 2E070000 		.4byte	0x72e
 2261 09d1 02000000 		.4byte	.LBB97
 2262 09d5 06000000 		.4byte	.LBE97-.LBB97
 2263 09d9 0D       		.byte	0xd
 2264 09da 5C01     		.2byte	0x15c
 2265 09dc 2C       		.uleb128 0x2c
 2266 09dd 14070000 		.4byte	0x714
 2267 09e1 02000000 		.4byte	.LBB98
 2268 09e5 06000000 		.4byte	.LBE98-.LBB98
 2269 09e9 09       		.byte	0x9
 2270 09ea BF01     		.2byte	0x1bf
 2271 09ec 25       		.uleb128 0x25
 2272 09ed 21070000 		.4byte	0x721
 2273 09f1 F3000000 		.4byte	.LLST8
 2274 09f5 00       		.byte	0
 2275 09f6 00       		.byte	0
 2276 09f7 00       		.byte	0
 2277 09f8 28       		.uleb128 0x28
 2278 09f9 89070000 		.4byte	0x789
 2279 09fd 10000000 		.4byte	.LBB100
 2280 0a01 08000000 		.4byte	.LBE100-.LBB100
ARM GAS  C:\Users\IDONNO~1\AppData\Local\Temp\ccRF5WGp.s 			page 41


 2281 0a05 01       		.byte	0x1
 2282 0a06 7D       		.byte	0x7d
 2283 0a07 460A0000 		.4byte	0xa46
 2284 0a0b 29       		.uleb128 0x29
 2285 0a0c 10000000 		.4byte	.LBB101
 2286 0a10 08000000 		.4byte	.LBE101-.LBB101
 2287 0a14 2D       		.uleb128 0x2d
 2288 0a15 96070000 		.4byte	0x796
 2289 0a19 2C       		.uleb128 0x2c
 2290 0a1a 37070000 		.4byte	0x737
 2291 0a1e 10000000 		.4byte	.LBB102
 2292 0a22 08000000 		.4byte	.LBE102-.LBB102
 2293 0a26 0D       		.byte	0xd
 2294 0a27 7301     		.2byte	0x173
 2295 0a29 2C       		.uleb128 0x2c
 2296 0a2a 14070000 		.4byte	0x714
 2297 0a2e 10000000 		.4byte	.LBB103
 2298 0a32 08000000 		.4byte	.LBE103-.LBB103
 2299 0a36 09       		.byte	0x9
 2300 0a37 CD01     		.2byte	0x1cd
 2301 0a39 25       		.uleb128 0x25
 2302 0a3a 21070000 		.4byte	0x721
 2303 0a3e 08010000 		.4byte	.LLST9
 2304 0a42 00       		.byte	0
 2305 0a43 00       		.byte	0
 2306 0a44 00       		.byte	0
 2307 0a45 00       		.byte	0
 2308 0a46 2E       		.uleb128 0x2e
 2309 0a47 0C000000 		.4byte	.LVL14
 2310 0a4b 02090000 		.4byte	0x902
 2311 0a4f 620A0000 		.4byte	0xa62
 2312 0a53 2F       		.uleb128 0x2f
 2313 0a54 01       		.uleb128 0x1
 2314 0a55 50       		.byte	0x50
 2315 0a56 03       		.uleb128 0x3
 2316 0a57 F3       		.byte	0xf3
 2317 0a58 01       		.uleb128 0x1
 2318 0a59 50       		.byte	0x50
 2319 0a5a 2F       		.uleb128 0x2f
 2320 0a5b 01       		.uleb128 0x1
 2321 0a5c 51       		.byte	0x51
 2322 0a5d 03       		.uleb128 0x3
 2323 0a5e F3       		.byte	0xf3
 2324 0a5f 01       		.uleb128 0x1
 2325 0a60 51       		.byte	0x51
 2326 0a61 00       		.byte	0
 2327 0a62 2B       		.uleb128 0x2b
 2328 0a63 10000000 		.4byte	.LVL15
 2329 0a67 A3110000 		.4byte	0x11a3
 2330 0a6b 00       		.byte	0
 2331 0a6c 30       		.uleb128 0x30
 2332 0a6d 58060000 		.4byte	.LASF122
 2333 0a71 01       		.byte	0x1
 2334 0a72 AF       		.byte	0xaf
 2335 0a73 0A010000 		.4byte	0x10a
 2336 0a77 00000000 		.4byte	.LFB222
 2337 0a7b 44000000 		.4byte	.LFE222-.LFB222
ARM GAS  C:\Users\IDONNO~1\AppData\Local\Temp\ccRF5WGp.s 			page 42


 2338 0a7f 01       		.uleb128 0x1
 2339 0a80 9C       		.byte	0x9c
 2340 0a81 A30B0000 		.4byte	0xba3
 2341 0a85 26       		.uleb128 0x26
 2342 0a86 737000   		.ascii	"sp\000"
 2343 0a89 01       		.byte	0x1
 2344 0a8a AF       		.byte	0xaf
 2345 0a8b 0F080000 		.4byte	0x80f
 2346 0a8f 1C010000 		.4byte	.LLST10
 2347 0a93 31       		.uleb128 0x31
 2348 0a94 6D736700 		.ascii	"msg\000"
 2349 0a98 01       		.byte	0x1
 2350 0a99 B0       		.byte	0xb0
 2351 0a9a 0A010000 		.4byte	0x10a
 2352 0a9e 28       		.uleb128 0x28
 2353 0a9f B9070000 		.4byte	0x7b9
 2354 0aa3 00000000 		.4byte	.LBB120
 2355 0aa7 06000000 		.4byte	.LBE120-.LBB120
 2356 0aab 01       		.byte	0x1
 2357 0aac B2       		.byte	0xb2
 2358 0aad DD0A0000 		.4byte	0xadd
 2359 0ab1 2C       		.uleb128 0x2c
 2360 0ab2 2E070000 		.4byte	0x72e
 2361 0ab6 00000000 		.4byte	.LBB121
 2362 0aba 06000000 		.4byte	.LBE121-.LBB121
 2363 0abe 0D       		.byte	0xd
 2364 0abf 5C01     		.2byte	0x15c
 2365 0ac1 2C       		.uleb128 0x2c
 2366 0ac2 14070000 		.4byte	0x714
 2367 0ac6 00000000 		.4byte	.LBB122
 2368 0aca 06000000 		.4byte	.LBE122-.LBB122
 2369 0ace 09       		.byte	0x9
 2370 0acf BF01     		.2byte	0x1bf
 2371 0ad1 25       		.uleb128 0x25
 2372 0ad2 21070000 		.4byte	0x721
 2373 0ad6 61010000 		.4byte	.LLST11
 2374 0ada 00       		.byte	0
 2375 0adb 00       		.byte	0
 2376 0adc 00       		.byte	0
 2377 0add 32       		.uleb128 0x32
 2378 0ade E7070000 		.4byte	0x7e7
 2379 0ae2 06000000 		.4byte	.LBB124
 2380 0ae6 00000000 		.4byte	.Ldebug_ranges0+0
 2381 0aea 01       		.byte	0x1
 2382 0aeb B3       		.byte	0xb3
 2383 0aec 5C0B0000 		.4byte	0xb5c
 2384 0af0 25       		.uleb128 0x25
 2385 0af1 F7070000 		.4byte	0x7f7
 2386 0af5 76010000 		.4byte	.LLST12
 2387 0af9 33       		.uleb128 0x33
 2388 0afa 00000000 		.4byte	.Ldebug_ranges0+0
 2389 0afe 2D       		.uleb128 0x2d
 2390 0aff 01080000 		.4byte	0x801
 2391 0b03 29       		.uleb128 0x29
 2392 0b04 1C000000 		.4byte	.LBB126
 2393 0b08 1C000000 		.4byte	.LBE126-.LBB126
 2394 0b0c 25       		.uleb128 0x25
ARM GAS  C:\Users\IDONNO~1\AppData\Local\Temp\ccRF5WGp.s 			page 43


 2395 0b0d F7070000 		.4byte	0x7f7
 2396 0b11 AD010000 		.4byte	.LLST13
 2397 0b15 29       		.uleb128 0x29
 2398 0b16 1C000000 		.4byte	.LBB127
 2399 0b1a 1C000000 		.4byte	.LBE127-.LBB127
 2400 0b1e 2D       		.uleb128 0x2d
 2401 0b1f 01080000 		.4byte	0x801
 2402 0b23 32       		.uleb128 0x32
 2403 0b24 C2070000 		.4byte	0x7c2
 2404 0b28 22000000 		.4byte	.LBB128
 2405 0b2c 18000000 		.4byte	.Ldebug_ranges0+0x18
 2406 0b30 01       		.byte	0x1
 2407 0b31 CF       		.byte	0xcf
 2408 0b32 490B0000 		.4byte	0xb49
 2409 0b36 25       		.uleb128 0x25
 2410 0b37 DA070000 		.4byte	0x7da
 2411 0b3b CE010000 		.4byte	.LLST14
 2412 0b3f 25       		.uleb128 0x25
 2413 0b40 CF070000 		.4byte	0x7cf
 2414 0b44 E1010000 		.4byte	.LLST15
 2415 0b48 00       		.byte	0
 2416 0b49 34       		.uleb128 0x34
 2417 0b4a 34000000 		.4byte	.LVL25
 2418 0b4e AF110000 		.4byte	0x11af
 2419 0b52 2F       		.uleb128 0x2f
 2420 0b53 01       		.uleb128 0x1
 2421 0b54 50       		.byte	0x50
 2422 0b55 01       		.uleb128 0x1
 2423 0b56 35       		.byte	0x35
 2424 0b57 00       		.byte	0
 2425 0b58 00       		.byte	0
 2426 0b59 00       		.byte	0
 2427 0b5a 00       		.byte	0
 2428 0b5b 00       		.byte	0
 2429 0b5c 35       		.uleb128 0x35
 2430 0b5d 89070000 		.4byte	0x789
 2431 0b61 12000000 		.4byte	.LBB133
 2432 0b65 30000000 		.4byte	.Ldebug_ranges0+0x30
 2433 0b69 01       		.byte	0x1
 2434 0b6a B4       		.byte	0xb4
 2435 0b6b 33       		.uleb128 0x33
 2436 0b6c 30000000 		.4byte	.Ldebug_ranges0+0x30
 2437 0b70 2D       		.uleb128 0x2d
 2438 0b71 96070000 		.4byte	0x796
 2439 0b75 36       		.uleb128 0x36
 2440 0b76 37070000 		.4byte	0x737
 2441 0b7a 12000000 		.4byte	.LBB135
 2442 0b7e 30000000 		.4byte	.Ldebug_ranges0+0x30
 2443 0b82 0D       		.byte	0xd
 2444 0b83 7301     		.2byte	0x173
 2445 0b85 36       		.uleb128 0x36
 2446 0b86 14070000 		.4byte	0x714
 2447 0b8a 12000000 		.4byte	.LBB136
 2448 0b8e 30000000 		.4byte	.Ldebug_ranges0+0x30
 2449 0b92 09       		.byte	0x9
 2450 0b93 CD01     		.2byte	0x1cd
 2451 0b95 25       		.uleb128 0x25
ARM GAS  C:\Users\IDONNO~1\AppData\Local\Temp\ccRF5WGp.s 			page 44


 2452 0b96 21070000 		.4byte	0x721
 2453 0b9a F4010000 		.4byte	.LLST16
 2454 0b9e 00       		.byte	0
 2455 0b9f 00       		.byte	0
 2456 0ba0 00       		.byte	0
 2457 0ba1 00       		.byte	0
 2458 0ba2 00       		.byte	0
 2459 0ba3 37       		.uleb128 0x37
 2460 0ba4 E7070000 		.4byte	0x7e7
 2461 0ba8 00000000 		.4byte	.LFB223
 2462 0bac 34000000 		.4byte	.LFE223-.LFB223
 2463 0bb0 01       		.uleb128 0x1
 2464 0bb1 9C       		.byte	0x9c
 2465 0bb2 1C0C0000 		.4byte	0xc1c
 2466 0bb6 25       		.uleb128 0x25
 2467 0bb7 F7070000 		.4byte	0x7f7
 2468 0bbb 14020000 		.4byte	.LLST17
 2469 0bbf 2D       		.uleb128 0x2d
 2470 0bc0 01080000 		.4byte	0x801
 2471 0bc4 29       		.uleb128 0x29
 2472 0bc5 10000000 		.4byte	.LBB148
 2473 0bc9 24000000 		.4byte	.LBE148-.LBB148
 2474 0bcd 25       		.uleb128 0x25
 2475 0bce F7070000 		.4byte	0x7f7
 2476 0bd2 59020000 		.4byte	.LLST18
 2477 0bd6 29       		.uleb128 0x29
 2478 0bd7 10000000 		.4byte	.LBB149
 2479 0bdb 24000000 		.4byte	.LBE149-.LBB149
 2480 0bdf 2D       		.uleb128 0x2d
 2481 0be0 01080000 		.4byte	0x801
 2482 0be4 32       		.uleb128 0x32
 2483 0be5 C2070000 		.4byte	0x7c2
 2484 0be9 16000000 		.4byte	.LBB150
 2485 0bed 48000000 		.4byte	.Ldebug_ranges0+0x48
 2486 0bf1 01       		.byte	0x1
 2487 0bf2 CF       		.byte	0xcf
 2488 0bf3 0A0C0000 		.4byte	0xc0a
 2489 0bf7 25       		.uleb128 0x25
 2490 0bf8 DA070000 		.4byte	0x7da
 2491 0bfc 7A020000 		.4byte	.LLST19
 2492 0c00 25       		.uleb128 0x25
 2493 0c01 CF070000 		.4byte	0x7cf
 2494 0c05 8D020000 		.4byte	.LLST20
 2495 0c09 00       		.byte	0
 2496 0c0a 34       		.uleb128 0x34
 2497 0c0b 28000000 		.4byte	.LVL34
 2498 0c0f AF110000 		.4byte	0x11af
 2499 0c13 2F       		.uleb128 0x2f
 2500 0c14 01       		.uleb128 0x1
 2501 0c15 50       		.byte	0x50
 2502 0c16 01       		.uleb128 0x1
 2503 0c17 35       		.byte	0x35
 2504 0c18 00       		.byte	0
 2505 0c19 00       		.byte	0
 2506 0c1a 00       		.byte	0
 2507 0c1b 00       		.byte	0
 2508 0c1c 30       		.uleb128 0x30
ARM GAS  C:\Users\IDONNO~1\AppData\Local\Temp\ccRF5WGp.s 			page 45


 2509 0c1d 07020000 		.4byte	.LASF123
 2510 0c21 01       		.byte	0x1
 2511 0c22 EB       		.byte	0xeb
 2512 0c23 0A010000 		.4byte	0x10a
 2513 0c27 00000000 		.4byte	.LFB224
 2514 0c2b 4C000000 		.4byte	.LFE224-.LFB224
 2515 0c2f 01       		.uleb128 0x1
 2516 0c30 9C       		.byte	0x9c
 2517 0c31 710D0000 		.4byte	0xd71
 2518 0c35 26       		.uleb128 0x26
 2519 0c36 737000   		.ascii	"sp\000"
 2520 0c39 01       		.byte	0x1
 2521 0c3a EB       		.byte	0xeb
 2522 0c3b 0F080000 		.4byte	0x80f
 2523 0c3f A0020000 		.4byte	.LLST21
 2524 0c43 38       		.uleb128 0x38
 2525 0c44 7C030000 		.4byte	.LASF116
 2526 0c48 01       		.byte	0x1
 2527 0c49 EB       		.byte	0xeb
 2528 0c4a 2B010000 		.4byte	0x12b
 2529 0c4e FE020000 		.4byte	.LLST22
 2530 0c52 31       		.uleb128 0x31
 2531 0c53 6D736700 		.ascii	"msg\000"
 2532 0c57 01       		.byte	0x1
 2533 0c58 EC       		.byte	0xec
 2534 0c59 0A010000 		.4byte	0x10a
 2535 0c5d 28       		.uleb128 0x28
 2536 0c5e B9070000 		.4byte	0x7b9
 2537 0c62 00000000 		.4byte	.LBB169
 2538 0c66 06000000 		.4byte	.LBE169-.LBB169
 2539 0c6a 01       		.byte	0x1
 2540 0c6b EE       		.byte	0xee
 2541 0c6c 9C0C0000 		.4byte	0xc9c
 2542 0c70 2C       		.uleb128 0x2c
 2543 0c71 2E070000 		.4byte	0x72e
 2544 0c75 00000000 		.4byte	.LBB170
 2545 0c79 06000000 		.4byte	.LBE170-.LBB170
 2546 0c7d 0D       		.byte	0xd
 2547 0c7e 5C01     		.2byte	0x15c
 2548 0c80 2C       		.uleb128 0x2c
 2549 0c81 14070000 		.4byte	0x714
 2550 0c85 00000000 		.4byte	.LBB171
 2551 0c89 06000000 		.4byte	.LBE171-.LBB171
 2552 0c8d 09       		.byte	0x9
 2553 0c8e BF01     		.2byte	0x1bf
 2554 0c90 25       		.uleb128 0x25
 2555 0c91 21070000 		.4byte	0x721
 2556 0c95 2A030000 		.4byte	.LLST23
 2557 0c99 00       		.byte	0
 2558 0c9a 00       		.byte	0
 2559 0c9b 00       		.byte	0
 2560 0c9c 32       		.uleb128 0x32
 2561 0c9d 2A080000 		.4byte	0x82a
 2562 0ca1 06000000 		.4byte	.LBB173
 2563 0ca5 60000000 		.4byte	.Ldebug_ranges0+0x60
 2564 0ca9 01       		.byte	0x1
 2565 0caa EF       		.byte	0xef
ARM GAS  C:\Users\IDONNO~1\AppData\Local\Temp\ccRF5WGp.s 			page 46


 2566 0cab 2A0D0000 		.4byte	0xd2a
 2567 0caf 25       		.uleb128 0x25
 2568 0cb0 46080000 		.4byte	0x846
 2569 0cb4 3F030000 		.4byte	.LLST24
 2570 0cb8 25       		.uleb128 0x25
 2571 0cb9 3B080000 		.4byte	0x83b
 2572 0cbd 68030000 		.4byte	.LLST25
 2573 0cc1 33       		.uleb128 0x33
 2574 0cc2 60000000 		.4byte	.Ldebug_ranges0+0x60
 2575 0cc6 2D       		.uleb128 0x2d
 2576 0cc7 52080000 		.4byte	0x852
 2577 0ccb 29       		.uleb128 0x29
 2578 0ccc 1E000000 		.4byte	.LBB175
 2579 0cd0 18000000 		.4byte	.LBE175-.LBB175
 2580 0cd4 39       		.uleb128 0x39
 2581 0cd5 46080000 		.4byte	0x846
 2582 0cd9 25       		.uleb128 0x25
 2583 0cda 3B080000 		.4byte	0x83b
 2584 0cde B8030000 		.4byte	.LLST26
 2585 0ce2 29       		.uleb128 0x29
 2586 0ce3 1E000000 		.4byte	.LBB176
 2587 0ce7 18000000 		.4byte	.LBE176-.LBB176
 2588 0ceb 2D       		.uleb128 0x2d
 2589 0cec 52080000 		.4byte	0x852
 2590 0cf0 3A       		.uleb128 0x3a
 2591 0cf1 C2070000 		.4byte	0x7c2
 2592 0cf5 24000000 		.4byte	.LBB177
 2593 0cf9 80000000 		.4byte	.Ldebug_ranges0+0x80
 2594 0cfd 01       		.byte	0x1
 2595 0cfe 1701     		.2byte	0x117
 2596 0d00 170D0000 		.4byte	0xd17
 2597 0d04 25       		.uleb128 0x25
 2598 0d05 DA070000 		.4byte	0x7da
 2599 0d09 D9030000 		.4byte	.LLST27
 2600 0d0d 25       		.uleb128 0x25
 2601 0d0e CF070000 		.4byte	0x7cf
 2602 0d12 EC030000 		.4byte	.LLST28
 2603 0d16 00       		.byte	0
 2604 0d17 34       		.uleb128 0x34
 2605 0d18 36000000 		.4byte	.LVL45
 2606 0d1c BB110000 		.4byte	0x11bb
 2607 0d20 2F       		.uleb128 0x2f
 2608 0d21 01       		.uleb128 0x1
 2609 0d22 50       		.byte	0x50
 2610 0d23 01       		.uleb128 0x1
 2611 0d24 35       		.byte	0x35
 2612 0d25 00       		.byte	0
 2613 0d26 00       		.byte	0
 2614 0d27 00       		.byte	0
 2615 0d28 00       		.byte	0
 2616 0d29 00       		.byte	0
 2617 0d2a 35       		.uleb128 0x35
 2618 0d2b 89070000 		.4byte	0x789
 2619 0d2f 12000000 		.4byte	.LBB183
 2620 0d33 98000000 		.4byte	.Ldebug_ranges0+0x98
 2621 0d37 01       		.byte	0x1
 2622 0d38 F0       		.byte	0xf0
ARM GAS  C:\Users\IDONNO~1\AppData\Local\Temp\ccRF5WGp.s 			page 47


 2623 0d39 33       		.uleb128 0x33
 2624 0d3a 98000000 		.4byte	.Ldebug_ranges0+0x98
 2625 0d3e 2D       		.uleb128 0x2d
 2626 0d3f 96070000 		.4byte	0x796
 2627 0d43 36       		.uleb128 0x36
 2628 0d44 37070000 		.4byte	0x737
 2629 0d48 12000000 		.4byte	.LBB185
 2630 0d4c 98000000 		.4byte	.Ldebug_ranges0+0x98
 2631 0d50 0D       		.byte	0xd
 2632 0d51 7301     		.2byte	0x173
 2633 0d53 36       		.uleb128 0x36
 2634 0d54 14070000 		.4byte	0x714
 2635 0d58 12000000 		.4byte	.LBB186
 2636 0d5c 98000000 		.4byte	.Ldebug_ranges0+0x98
 2637 0d60 09       		.byte	0x9
 2638 0d61 CD01     		.2byte	0x1cd
 2639 0d63 25       		.uleb128 0x25
 2640 0d64 21070000 		.4byte	0x721
 2641 0d68 FF030000 		.4byte	.LLST29
 2642 0d6c 00       		.byte	0
 2643 0d6d 00       		.byte	0
 2644 0d6e 00       		.byte	0
 2645 0d6f 00       		.byte	0
 2646 0d70 00       		.byte	0
 2647 0d71 37       		.uleb128 0x37
 2648 0d72 2A080000 		.4byte	0x82a
 2649 0d76 00000000 		.4byte	.LFB225
 2650 0d7a 40000000 		.4byte	.LFE225-.LFB225
 2651 0d7e 01       		.uleb128 0x1
 2652 0d7f 9C       		.byte	0x9c
 2653 0d80 F10D0000 		.4byte	0xdf1
 2654 0d84 25       		.uleb128 0x25
 2655 0d85 3B080000 		.4byte	0x83b
 2656 0d89 1F040000 		.4byte	.LLST30
 2657 0d8d 25       		.uleb128 0x25
 2658 0d8e 46080000 		.4byte	0x846
 2659 0d92 56040000 		.4byte	.LLST31
 2660 0d96 2D       		.uleb128 0x2d
 2661 0d97 52080000 		.4byte	0x852
 2662 0d9b 33       		.uleb128 0x33
 2663 0d9c B0000000 		.4byte	.Ldebug_ranges0+0xb0
 2664 0da0 39       		.uleb128 0x39
 2665 0da1 46080000 		.4byte	0x846
 2666 0da5 25       		.uleb128 0x25
 2667 0da6 3B080000 		.4byte	0x83b
 2668 0daa 82040000 		.4byte	.LLST32
 2669 0dae 33       		.uleb128 0x33
 2670 0daf B0000000 		.4byte	.Ldebug_ranges0+0xb0
 2671 0db3 2D       		.uleb128 0x2d
 2672 0db4 52080000 		.4byte	0x852
 2673 0db8 3A       		.uleb128 0x3a
 2674 0db9 C2070000 		.4byte	0x7c2
 2675 0dbd 1A000000 		.4byte	.LBB201
 2676 0dc1 C8000000 		.4byte	.Ldebug_ranges0+0xc8
 2677 0dc5 01       		.byte	0x1
 2678 0dc6 1701     		.2byte	0x117
 2679 0dc8 DF0D0000 		.4byte	0xddf
ARM GAS  C:\Users\IDONNO~1\AppData\Local\Temp\ccRF5WGp.s 			page 48


 2680 0dcc 25       		.uleb128 0x25
 2681 0dcd DA070000 		.4byte	0x7da
 2682 0dd1 A3040000 		.4byte	.LLST33
 2683 0dd5 25       		.uleb128 0x25
 2684 0dd6 CF070000 		.4byte	0x7cf
 2685 0dda B6040000 		.4byte	.LLST34
 2686 0dde 00       		.byte	0
 2687 0ddf 3B       		.uleb128 0x3b
 2688 0de0 2E000000 		.4byte	.LVL54
 2689 0de4 BB110000 		.4byte	0x11bb
 2690 0de8 2F       		.uleb128 0x2f
 2691 0de9 01       		.uleb128 0x1
 2692 0dea 50       		.byte	0x50
 2693 0deb 01       		.uleb128 0x1
 2694 0dec 35       		.byte	0x35
 2695 0ded 00       		.byte	0
 2696 0dee 00       		.byte	0
 2697 0def 00       		.byte	0
 2698 0df0 00       		.byte	0
 2699 0df1 3C       		.uleb128 0x3c
 2700 0df2 AD000000 		.4byte	.LASF124
 2701 0df6 01       		.byte	0x1
 2702 0df7 2601     		.2byte	0x126
 2703 0df9 00000000 		.4byte	.LFB226
 2704 0dfd 32000000 		.4byte	.LFE226-.LFB226
 2705 0e01 01       		.uleb128 0x1
 2706 0e02 9C       		.byte	0x9c
 2707 0e03 E70E0000 		.4byte	0xee7
 2708 0e07 3D       		.uleb128 0x3d
 2709 0e08 737000   		.ascii	"sp\000"
 2710 0e0b 01       		.byte	0x1
 2711 0e0c 2601     		.2byte	0x126
 2712 0e0e 0F080000 		.4byte	0x80f
 2713 0e12 C9040000 		.4byte	.LLST35
 2714 0e16 23       		.uleb128 0x23
 2715 0e17 2E040000 		.4byte	.LASF111
 2716 0e1b E70E0000 		.4byte	0xee7
 2717 0e1f 3E       		.uleb128 0x3e
 2718 0e20 B9070000 		.4byte	0x7b9
 2719 0e24 02000000 		.4byte	.LBB207
 2720 0e28 06000000 		.4byte	.LBE207-.LBB207
 2721 0e2c 01       		.byte	0x1
 2722 0e2d 2D01     		.2byte	0x12d
 2723 0e2f 5F0E0000 		.4byte	0xe5f
 2724 0e33 2C       		.uleb128 0x2c
 2725 0e34 2E070000 		.4byte	0x72e
 2726 0e38 02000000 		.4byte	.LBB208
 2727 0e3c 06000000 		.4byte	.LBE208-.LBB208
 2728 0e40 0D       		.byte	0xd
 2729 0e41 5C01     		.2byte	0x15c
 2730 0e43 2C       		.uleb128 0x2c
 2731 0e44 14070000 		.4byte	0x714
 2732 0e48 02000000 		.4byte	.LBB209
 2733 0e4c 06000000 		.4byte	.LBE209-.LBB209
 2734 0e50 09       		.byte	0x9
 2735 0e51 BF01     		.2byte	0x1bf
 2736 0e53 25       		.uleb128 0x25
ARM GAS  C:\Users\IDONNO~1\AppData\Local\Temp\ccRF5WGp.s 			page 49


 2737 0e54 21070000 		.4byte	0x721
 2738 0e58 F5040000 		.4byte	.LLST36
 2739 0e5c 00       		.byte	0
 2740 0e5d 00       		.byte	0
 2741 0e5e 00       		.byte	0
 2742 0e5f 3A       		.uleb128 0x3a
 2743 0e60 89070000 		.4byte	0x789
 2744 0e64 12000000 		.4byte	.LBB211
 2745 0e68 E0000000 		.4byte	.Ldebug_ranges0+0xe0
 2746 0e6c 01       		.byte	0x1
 2747 0e6d 3101     		.2byte	0x131
 2748 0e6f AA0E0000 		.4byte	0xeaa
 2749 0e73 33       		.uleb128 0x33
 2750 0e74 E0000000 		.4byte	.Ldebug_ranges0+0xe0
 2751 0e78 2D       		.uleb128 0x2d
 2752 0e79 96070000 		.4byte	0x796
 2753 0e7d 36       		.uleb128 0x36
 2754 0e7e 37070000 		.4byte	0x737
 2755 0e82 12000000 		.4byte	.LBB213
 2756 0e86 E0000000 		.4byte	.Ldebug_ranges0+0xe0
 2757 0e8a 0D       		.byte	0xd
 2758 0e8b 7301     		.2byte	0x173
 2759 0e8d 36       		.uleb128 0x36
 2760 0e8e 14070000 		.4byte	0x714
 2761 0e92 12000000 		.4byte	.LBB214
 2762 0e96 E0000000 		.4byte	.Ldebug_ranges0+0xe0
 2763 0e9a 09       		.byte	0x9
 2764 0e9b CD01     		.2byte	0x1cd
 2765 0e9d 25       		.uleb128 0x25
 2766 0e9e 21070000 		.4byte	0x721
 2767 0ea2 0A050000 		.4byte	.LLST37
 2768 0ea6 00       		.byte	0
 2769 0ea7 00       		.byte	0
 2770 0ea8 00       		.byte	0
 2771 0ea9 00       		.byte	0
 2772 0eaa 3A       		.uleb128 0x3a
 2773 0eab 75080000 		.4byte	0x875
 2774 0eaf 1C000000 		.4byte	.LBB220
 2775 0eb3 F8000000 		.4byte	.Ldebug_ranges0+0xf8
 2776 0eb7 01       		.byte	0x1
 2777 0eb8 2F01     		.2byte	0x12f
 2778 0eba D70E0000 		.4byte	0xed7
 2779 0ebe 25       		.uleb128 0x25
 2780 0ebf 86080000 		.4byte	0x886
 2781 0ec3 2A050000 		.4byte	.LLST38
 2782 0ec7 33       		.uleb128 0x33
 2783 0ec8 F8000000 		.4byte	.Ldebug_ranges0+0xf8
 2784 0ecc 2A       		.uleb128 0x2a
 2785 0ecd 92080000 		.4byte	0x892
 2786 0ed1 3D050000 		.4byte	.LLST39
 2787 0ed5 00       		.byte	0
 2788 0ed6 00       		.byte	0
 2789 0ed7 34       		.uleb128 0x34
 2790 0ed8 2A000000 		.4byte	.LVL62
 2791 0edc C7110000 		.4byte	0x11c7
 2792 0ee0 2F       		.uleb128 0x2f
 2793 0ee1 01       		.uleb128 0x1
ARM GAS  C:\Users\IDONNO~1\AppData\Local\Temp\ccRF5WGp.s 			page 50


 2794 0ee2 51       		.byte	0x51
 2795 0ee3 01       		.uleb128 0x1
 2796 0ee4 30       		.byte	0x30
 2797 0ee5 00       		.byte	0
 2798 0ee6 00       		.byte	0
 2799 0ee7 14       		.uleb128 0x14
 2800 0ee8 A4070000 		.4byte	0x7a4
 2801 0eec 3C       		.uleb128 0x3c
 2802 0eed 1A000000 		.4byte	.LASF125
 2803 0ef1 01       		.byte	0x1
 2804 0ef2 3F01     		.2byte	0x13f
 2805 0ef4 00000000 		.4byte	.LFB227
 2806 0ef8 1E000000 		.4byte	.LFE227-.LFB227
 2807 0efc 01       		.uleb128 0x1
 2808 0efd 9C       		.byte	0x9c
 2809 0efe 680F0000 		.4byte	0xf68
 2810 0f02 3D       		.uleb128 0x3d
 2811 0f03 737000   		.ascii	"sp\000"
 2812 0f06 01       		.byte	0x1
 2813 0f07 3F01     		.2byte	0x13f
 2814 0f09 0F080000 		.4byte	0x80f
 2815 0f0d 50050000 		.4byte	.LLST40
 2816 0f11 23       		.uleb128 0x23
 2817 0f12 2E040000 		.4byte	.LASF111
 2818 0f16 780F0000 		.4byte	0xf78
 2819 0f1a 29       		.uleb128 0x29
 2820 0f1b 0C000000 		.4byte	.LBB225
 2821 0f1f 12000000 		.4byte	.LBE225-.LBB225
 2822 0f23 3F       		.uleb128 0x3f
 2823 0f24 747000   		.ascii	"tp\000"
 2824 0f27 01       		.byte	0x1
 2825 0f28 4A01     		.2byte	0x14a
 2826 0f2a 51020000 		.4byte	0x251
 2827 0f2e 01       		.uleb128 0x1
 2828 0f2f 53       		.byte	0x53
 2829 0f30 3A       		.uleb128 0x3a
 2830 0f31 75080000 		.4byte	0x875
 2831 0f35 0C000000 		.4byte	.LBB226
 2832 0f39 10010000 		.4byte	.Ldebug_ranges0+0x110
 2833 0f3d 01       		.byte	0x1
 2834 0f3e 4A01     		.2byte	0x14a
 2835 0f40 5D0F0000 		.4byte	0xf5d
 2836 0f44 25       		.uleb128 0x25
 2837 0f45 86080000 		.4byte	0x886
 2838 0f49 7D050000 		.4byte	.LLST41
 2839 0f4d 33       		.uleb128 0x33
 2840 0f4e 10010000 		.4byte	.Ldebug_ranges0+0x110
 2841 0f52 2A       		.uleb128 0x2a
 2842 0f53 92080000 		.4byte	0x892
 2843 0f57 90050000 		.4byte	.LLST42
 2844 0f5b 00       		.byte	0
 2845 0f5c 00       		.byte	0
 2846 0f5d 40       		.uleb128 0x40
 2847 0f5e 1E000000 		.4byte	.LVL70
 2848 0f62 97110000 		.4byte	0x1197
 2849 0f66 00       		.byte	0
 2850 0f67 00       		.byte	0
ARM GAS  C:\Users\IDONNO~1\AppData\Local\Temp\ccRF5WGp.s 			page 51


 2851 0f68 15       		.uleb128 0x15
 2852 0f69 CC060000 		.4byte	0x6cc
 2853 0f6d 780F0000 		.4byte	0xf78
 2854 0f71 16       		.uleb128 0x16
 2855 0f72 64040000 		.4byte	0x464
 2856 0f76 0C       		.byte	0xc
 2857 0f77 00       		.byte	0
 2858 0f78 14       		.uleb128 0x14
 2859 0f79 680F0000 		.4byte	0xf68
 2860 0f7d 3C       		.uleb128 0x3c
 2861 0f7e CD000000 		.4byte	.LASF126
 2862 0f82 01       		.byte	0x1
 2863 0f83 5D01     		.2byte	0x15d
 2864 0f85 00000000 		.4byte	.LFB228
 2865 0f89 2E000000 		.4byte	.LFE228-.LFB228
 2866 0f8d 01       		.uleb128 0x1
 2867 0f8e 9C       		.byte	0x9c
 2868 0f8f F40F0000 		.4byte	0xff4
 2869 0f93 3D       		.uleb128 0x3d
 2870 0f94 737000   		.ascii	"sp\000"
 2871 0f97 01       		.byte	0x1
 2872 0f98 5D01     		.2byte	0x15d
 2873 0f9a 0F080000 		.4byte	0x80f
 2874 0f9e A3050000 		.4byte	.LLST43
 2875 0fa2 3D       		.uleb128 0x3d
 2876 0fa3 6E00     		.ascii	"n\000"
 2877 0fa5 01       		.byte	0x1
 2878 0fa6 5D01     		.2byte	0x15d
 2879 0fa8 20010000 		.4byte	0x120
 2880 0fac CF050000 		.4byte	.LLST44
 2881 0fb0 23       		.uleb128 0x23
 2882 0fb1 2E040000 		.4byte	.LASF111
 2883 0fb5 04100000 		.4byte	0x1004
 2884 0fb9 3E       		.uleb128 0x3e
 2885 0fba 75080000 		.4byte	0x875
 2886 0fbe 1A000000 		.4byte	.LBB230
 2887 0fc2 08000000 		.4byte	.LBE230-.LBB230
 2888 0fc6 01       		.byte	0x1
 2889 0fc7 6701     		.2byte	0x167
 2890 0fc9 EA0F0000 		.4byte	0xfea
 2891 0fcd 25       		.uleb128 0x25
 2892 0fce 86080000 		.4byte	0x886
 2893 0fd2 07060000 		.4byte	.LLST45
 2894 0fd6 29       		.uleb128 0x29
 2895 0fd7 1A000000 		.4byte	.LBB231
 2896 0fdb 08000000 		.4byte	.LBE231-.LBB231
 2897 0fdf 2A       		.uleb128 0x2a
 2898 0fe0 92080000 		.4byte	0x892
 2899 0fe4 1A060000 		.4byte	.LLST46
 2900 0fe8 00       		.byte	0
 2901 0fe9 00       		.byte	0
 2902 0fea 2B       		.uleb128 0x2b
 2903 0feb 26000000 		.4byte	.LVL78
 2904 0fef 97110000 		.4byte	0x1197
 2905 0ff3 00       		.byte	0
 2906 0ff4 15       		.uleb128 0x15
 2907 0ff5 CC060000 		.4byte	0x6cc
ARM GAS  C:\Users\IDONNO~1\AppData\Local\Temp\ccRF5WGp.s 			page 52


 2908 0ff9 04100000 		.4byte	0x1004
 2909 0ffd 16       		.uleb128 0x16
 2910 0ffe 64040000 		.4byte	0x464
 2911 1002 10       		.byte	0x10
 2912 1003 00       		.byte	0
 2913 1004 14       		.uleb128 0x14
 2914 1005 F40F0000 		.4byte	0xff4
 2915 1009 41       		.uleb128 0x41
 2916 100a 1D010000 		.4byte	.LASF127
 2917 100e 01       		.byte	0x1
 2918 100f 7A01     		.2byte	0x17a
 2919 1011 0A010000 		.4byte	0x10a
 2920 1015 00000000 		.4byte	.LFB229
 2921 1019 6C000000 		.4byte	.LFE229-.LFB229
 2922 101d 01       		.uleb128 0x1
 2923 101e 9C       		.byte	0x9c
 2924 101f 7B110000 		.4byte	0x117b
 2925 1023 3D       		.uleb128 0x3d
 2926 1024 73707300 		.ascii	"sps\000"
 2927 1028 01       		.byte	0x1
 2928 1029 7A01     		.2byte	0x17a
 2929 102b 0F080000 		.4byte	0x80f
 2930 102f 2D060000 		.4byte	.LLST47
 2931 1033 3D       		.uleb128 0x3d
 2932 1034 73707700 		.ascii	"spw\000"
 2933 1038 01       		.byte	0x1
 2934 1039 7A01     		.2byte	0x17a
 2935 103b 0F080000 		.4byte	0x80f
 2936 103f 72060000 		.4byte	.LLST48
 2937 1043 42       		.uleb128 0x42
 2938 1044 6D736700 		.ascii	"msg\000"
 2939 1048 01       		.byte	0x1
 2940 1049 7B01     		.2byte	0x17b
 2941 104b 0A010000 		.4byte	0x10a
 2942 104f AA060000 		.4byte	.LLST49
 2943 1053 23       		.uleb128 0x23
 2944 1054 2E040000 		.4byte	.LASF111
 2945 1058 7B110000 		.4byte	0x117b
 2946 105c 3A       		.uleb128 0x3a
 2947 105d B9070000 		.4byte	0x7b9
 2948 1061 02000000 		.4byte	.LBB232
 2949 1065 28010000 		.4byte	.Ldebug_ranges0+0x128
 2950 1069 01       		.byte	0x1
 2951 106a 8501     		.2byte	0x185
 2952 106c 9C100000 		.4byte	0x109c
 2953 1070 36       		.uleb128 0x36
 2954 1071 2E070000 		.4byte	0x72e
 2955 1075 02000000 		.4byte	.LBB233
 2956 1079 28010000 		.4byte	.Ldebug_ranges0+0x128
 2957 107d 0D       		.byte	0xd
 2958 107e 5C01     		.2byte	0x15c
 2959 1080 36       		.uleb128 0x36
 2960 1081 14070000 		.4byte	0x714
 2961 1085 02000000 		.4byte	.LBB234
 2962 1089 28010000 		.4byte	.Ldebug_ranges0+0x128
 2963 108d 09       		.byte	0x9
 2964 108e BF01     		.2byte	0x1bf
ARM GAS  C:\Users\IDONNO~1\AppData\Local\Temp\ccRF5WGp.s 			page 53


 2965 1090 25       		.uleb128 0x25
 2966 1091 21070000 		.4byte	0x721
 2967 1095 D4060000 		.4byte	.LLST50
 2968 1099 00       		.byte	0
 2969 109a 00       		.byte	0
 2970 109b 00       		.byte	0
 2971 109c 3A       		.uleb128 0x3a
 2972 109d 89070000 		.4byte	0x789
 2973 10a1 24000000 		.4byte	.LBB240
 2974 10a5 40010000 		.4byte	.Ldebug_ranges0+0x140
 2975 10a9 01       		.byte	0x1
 2976 10aa 9401     		.2byte	0x194
 2977 10ac E7100000 		.4byte	0x10e7
 2978 10b0 33       		.uleb128 0x33
 2979 10b1 40010000 		.4byte	.Ldebug_ranges0+0x140
 2980 10b5 2D       		.uleb128 0x2d
 2981 10b6 96070000 		.4byte	0x796
 2982 10ba 36       		.uleb128 0x36
 2983 10bb 37070000 		.4byte	0x737
 2984 10bf 24000000 		.4byte	.LBB242
 2985 10c3 40010000 		.4byte	.Ldebug_ranges0+0x140
 2986 10c7 0D       		.byte	0xd
 2987 10c8 7301     		.2byte	0x173
 2988 10ca 36       		.uleb128 0x36
 2989 10cb 14070000 		.4byte	0x714
 2990 10cf 24000000 		.4byte	.LBB243
 2991 10d3 40010000 		.4byte	.Ldebug_ranges0+0x140
 2992 10d7 09       		.byte	0x9
 2993 10d8 CD01     		.2byte	0x1cd
 2994 10da 25       		.uleb128 0x25
 2995 10db 21070000 		.4byte	0x721
 2996 10df E9060000 		.4byte	.LLST51
 2997 10e3 00       		.byte	0
 2998 10e4 00       		.byte	0
 2999 10e5 00       		.byte	0
 3000 10e6 00       		.byte	0
 3001 10e7 43       		.uleb128 0x43
 3002 10e8 2E000000 		.4byte	.LBB249
 3003 10ec 18000000 		.4byte	.LBE249-.LBB249
 3004 10f0 3B110000 		.4byte	0x113b
 3005 10f4 42       		.uleb128 0x42
 3006 10f5 63747000 		.ascii	"ctp\000"
 3007 10f9 01       		.byte	0x1
 3008 10fa 8A01     		.2byte	0x18a
 3009 10fc 51020000 		.4byte	0x251
 3010 1100 09070000 		.4byte	.LLST52
 3011 1104 3A       		.uleb128 0x3a
 3012 1105 C2070000 		.4byte	0x7c2
 3013 1109 30000000 		.4byte	.LBB250
 3014 110d 58010000 		.4byte	.Ldebug_ranges0+0x158
 3015 1111 01       		.byte	0x1
 3016 1112 8B01     		.2byte	0x18b
 3017 1114 2B110000 		.4byte	0x112b
 3018 1118 25       		.uleb128 0x25
 3019 1119 DA070000 		.4byte	0x7da
 3020 111d 1C070000 		.4byte	.LLST53
 3021 1121 25       		.uleb128 0x25
ARM GAS  C:\Users\IDONNO~1\AppData\Local\Temp\ccRF5WGp.s 			page 54


 3022 1122 CF070000 		.4byte	0x7cf
 3023 1126 2F070000 		.4byte	.LLST54
 3024 112a 00       		.byte	0
 3025 112b 34       		.uleb128 0x34
 3026 112c 44000000 		.4byte	.LVL91
 3027 1130 AF110000 		.4byte	0x11af
 3028 1134 2F       		.uleb128 0x2f
 3029 1135 01       		.uleb128 0x1
 3030 1136 50       		.byte	0x50
 3031 1137 01       		.uleb128 0x1
 3032 1138 35       		.byte	0x35
 3033 1139 00       		.byte	0
 3034 113a 00       		.byte	0
 3035 113b 3E       		.uleb128 0x3e
 3036 113c 75080000 		.4byte	0x875
 3037 1140 52000000 		.4byte	.LBB255
 3038 1144 0A000000 		.4byte	.LBE255-.LBB255
 3039 1148 01       		.byte	0x1
 3040 1149 8701     		.2byte	0x187
 3041 114b 68110000 		.4byte	0x1168
 3042 114f 39       		.uleb128 0x39
 3043 1150 86080000 		.4byte	0x886
 3044 1154 29       		.uleb128 0x29
 3045 1155 52000000 		.4byte	.LBB256
 3046 1159 0A000000 		.4byte	.LBE256-.LBB256
 3047 115d 2A       		.uleb128 0x2a
 3048 115e 92080000 		.4byte	0x892
 3049 1162 42070000 		.4byte	.LLST55
 3050 1166 00       		.byte	0
 3051 1167 00       		.byte	0
 3052 1168 2B       		.uleb128 0x2b
 3053 1169 22000000 		.4byte	.LVL85
 3054 116d A3110000 		.4byte	0x11a3
 3055 1171 2B       		.uleb128 0x2b
 3056 1172 60000000 		.4byte	.LVL98
 3057 1176 97110000 		.4byte	0x1197
 3058 117a 00       		.byte	0
 3059 117b 14       		.uleb128 0x14
 3060 117c ED080000 		.4byte	0x8ed
 3061 1180 44       		.uleb128 0x44
 3062 1181 DE000000 		.4byte	.LASF128
 3063 1185 0E       		.byte	0xe
 3064 1186 A706     		.2byte	0x6a7
 3065 1188 C3000000 		.4byte	0xc3
 3066 118c 45       		.uleb128 0x45
 3067 118d 636800   		.ascii	"ch\000"
 3068 1190 02       		.byte	0x2
 3069 1191 0902     		.2byte	0x209
 3070 1193 FD030000 		.4byte	0x3fd
 3071 1197 46       		.uleb128 0x46
 3072 1198 9D040000 		.4byte	.LASF129
 3073 119c 9D040000 		.4byte	.LASF129
 3074 11a0 02       		.byte	0x2
 3075 11a1 1302     		.2byte	0x213
 3076 11a3 46       		.uleb128 0x46
 3077 11a4 9D010000 		.4byte	.LASF130
 3078 11a8 9D010000 		.4byte	.LASF130
ARM GAS  C:\Users\IDONNO~1\AppData\Local\Temp\ccRF5WGp.s 			page 55


 3079 11ac 02       		.byte	0x2
 3080 11ad 1702     		.2byte	0x217
 3081 11af 46       		.uleb128 0x46
 3082 11b0 6C040000 		.4byte	.LASF131
 3083 11b4 6C040000 		.4byte	.LASF131
 3084 11b8 02       		.byte	0x2
 3085 11b9 1402     		.2byte	0x214
 3086 11bb 46       		.uleb128 0x46
 3087 11bc DD060000 		.4byte	.LASF132
 3088 11c0 DD060000 		.4byte	.LASF132
 3089 11c4 02       		.byte	0x2
 3090 11c5 1502     		.2byte	0x215
 3091 11c7 46       		.uleb128 0x46
 3092 11c8 70020000 		.4byte	.LASF133
 3093 11cc 70020000 		.4byte	.LASF133
 3094 11d0 02       		.byte	0x2
 3095 11d1 1602     		.2byte	0x216
 3096 11d3 00       		.byte	0
 3097              		.section	.debug_abbrev,"",%progbits
 3098              	.Ldebug_abbrev0:
 3099 0000 01       		.uleb128 0x1
 3100 0001 11       		.uleb128 0x11
 3101 0002 01       		.byte	0x1
 3102 0003 25       		.uleb128 0x25
 3103 0004 0E       		.uleb128 0xe
 3104 0005 13       		.uleb128 0x13
 3105 0006 0B       		.uleb128 0xb
 3106 0007 03       		.uleb128 0x3
 3107 0008 0E       		.uleb128 0xe
 3108 0009 1B       		.uleb128 0x1b
 3109 000a 0E       		.uleb128 0xe
 3110 000b 55       		.uleb128 0x55
 3111 000c 17       		.uleb128 0x17
 3112 000d 11       		.uleb128 0x11
 3113 000e 01       		.uleb128 0x1
 3114 000f 10       		.uleb128 0x10
 3115 0010 17       		.uleb128 0x17
 3116 0011 00       		.byte	0
 3117 0012 00       		.byte	0
 3118 0013 02       		.uleb128 0x2
 3119 0014 24       		.uleb128 0x24
 3120 0015 00       		.byte	0
 3121 0016 0B       		.uleb128 0xb
 3122 0017 0B       		.uleb128 0xb
 3123 0018 3E       		.uleb128 0x3e
 3124 0019 0B       		.uleb128 0xb
 3125 001a 03       		.uleb128 0x3
 3126 001b 08       		.uleb128 0x8
 3127 001c 00       		.byte	0
 3128 001d 00       		.byte	0
 3129 001e 03       		.uleb128 0x3
 3130 001f 24       		.uleb128 0x24
 3131 0020 00       		.byte	0
 3132 0021 0B       		.uleb128 0xb
 3133 0022 0B       		.uleb128 0xb
 3134 0023 3E       		.uleb128 0x3e
 3135 0024 0B       		.uleb128 0xb
ARM GAS  C:\Users\IDONNO~1\AppData\Local\Temp\ccRF5WGp.s 			page 56


 3136 0025 03       		.uleb128 0x3
 3137 0026 0E       		.uleb128 0xe
 3138 0027 00       		.byte	0
 3139 0028 00       		.byte	0
 3140 0029 04       		.uleb128 0x4
 3141 002a 16       		.uleb128 0x16
 3142 002b 00       		.byte	0
 3143 002c 03       		.uleb128 0x3
 3144 002d 0E       		.uleb128 0xe
 3145 002e 3A       		.uleb128 0x3a
 3146 002f 0B       		.uleb128 0xb
 3147 0030 3B       		.uleb128 0x3b
 3148 0031 0B       		.uleb128 0xb
 3149 0032 49       		.uleb128 0x49
 3150 0033 13       		.uleb128 0x13
 3151 0034 00       		.byte	0
 3152 0035 00       		.byte	0
 3153 0036 05       		.uleb128 0x5
 3154 0037 35       		.uleb128 0x35
 3155 0038 00       		.byte	0
 3156 0039 49       		.uleb128 0x49
 3157 003a 13       		.uleb128 0x13
 3158 003b 00       		.byte	0
 3159 003c 00       		.byte	0
 3160 003d 06       		.uleb128 0x6
 3161 003e 13       		.uleb128 0x13
 3162 003f 01       		.byte	0x1
 3163 0040 03       		.uleb128 0x3
 3164 0041 0E       		.uleb128 0xe
 3165 0042 0B       		.uleb128 0xb
 3166 0043 0B       		.uleb128 0xb
 3167 0044 3A       		.uleb128 0x3a
 3168 0045 0B       		.uleb128 0xb
 3169 0046 3B       		.uleb128 0x3b
 3170 0047 0B       		.uleb128 0xb
 3171 0048 01       		.uleb128 0x1
 3172 0049 13       		.uleb128 0x13
 3173 004a 00       		.byte	0
 3174 004b 00       		.byte	0
 3175 004c 07       		.uleb128 0x7
 3176 004d 0D       		.uleb128 0xd
 3177 004e 00       		.byte	0
 3178 004f 03       		.uleb128 0x3
 3179 0050 0E       		.uleb128 0xe
 3180 0051 3A       		.uleb128 0x3a
 3181 0052 0B       		.uleb128 0xb
 3182 0053 3B       		.uleb128 0x3b
 3183 0054 0B       		.uleb128 0xb
 3184 0055 49       		.uleb128 0x49
 3185 0056 13       		.uleb128 0x13
 3186 0057 38       		.uleb128 0x38
 3187 0058 0B       		.uleb128 0xb
 3188 0059 00       		.byte	0
 3189 005a 00       		.byte	0
 3190 005b 08       		.uleb128 0x8
 3191 005c 0D       		.uleb128 0xd
 3192 005d 00       		.byte	0
ARM GAS  C:\Users\IDONNO~1\AppData\Local\Temp\ccRF5WGp.s 			page 57


 3193 005e 03       		.uleb128 0x3
 3194 005f 08       		.uleb128 0x8
 3195 0060 3A       		.uleb128 0x3a
 3196 0061 0B       		.uleb128 0xb
 3197 0062 3B       		.uleb128 0x3b
 3198 0063 05       		.uleb128 0x5
 3199 0064 49       		.uleb128 0x49
 3200 0065 13       		.uleb128 0x13
 3201 0066 38       		.uleb128 0x38
 3202 0067 0B       		.uleb128 0xb
 3203 0068 00       		.byte	0
 3204 0069 00       		.byte	0
 3205 006a 09       		.uleb128 0x9
 3206 006b 0D       		.uleb128 0xd
 3207 006c 00       		.byte	0
 3208 006d 03       		.uleb128 0x3
 3209 006e 0E       		.uleb128 0xe
 3210 006f 3A       		.uleb128 0x3a
 3211 0070 0B       		.uleb128 0xb
 3212 0071 3B       		.uleb128 0x3b
 3213 0072 05       		.uleb128 0x5
 3214 0073 49       		.uleb128 0x49
 3215 0074 13       		.uleb128 0x13
 3216 0075 38       		.uleb128 0x38
 3217 0076 0B       		.uleb128 0xb
 3218 0077 00       		.byte	0
 3219 0078 00       		.byte	0
 3220 0079 0A       		.uleb128 0xa
 3221 007a 0F       		.uleb128 0xf
 3222 007b 00       		.byte	0
 3223 007c 0B       		.uleb128 0xb
 3224 007d 0B       		.uleb128 0xb
 3225 007e 49       		.uleb128 0x49
 3226 007f 13       		.uleb128 0x13
 3227 0080 00       		.byte	0
 3228 0081 00       		.byte	0
 3229 0082 0B       		.uleb128 0xb
 3230 0083 13       		.uleb128 0x13
 3231 0084 01       		.byte	0x1
 3232 0085 03       		.uleb128 0x3
 3233 0086 0E       		.uleb128 0xe
 3234 0087 0B       		.uleb128 0xb
 3235 0088 0B       		.uleb128 0xb
 3236 0089 3A       		.uleb128 0x3a
 3237 008a 0B       		.uleb128 0xb
 3238 008b 3B       		.uleb128 0x3b
 3239 008c 05       		.uleb128 0x5
 3240 008d 01       		.uleb128 0x1
 3241 008e 13       		.uleb128 0x13
 3242 008f 00       		.byte	0
 3243 0090 00       		.byte	0
 3244 0091 0C       		.uleb128 0xc
 3245 0092 15       		.uleb128 0x15
 3246 0093 01       		.byte	0x1
 3247 0094 27       		.uleb128 0x27
 3248 0095 19       		.uleb128 0x19
 3249 0096 01       		.uleb128 0x1
ARM GAS  C:\Users\IDONNO~1\AppData\Local\Temp\ccRF5WGp.s 			page 58


 3250 0097 13       		.uleb128 0x13
 3251 0098 00       		.byte	0
 3252 0099 00       		.byte	0
 3253 009a 0D       		.uleb128 0xd
 3254 009b 05       		.uleb128 0x5
 3255 009c 00       		.byte	0
 3256 009d 49       		.uleb128 0x49
 3257 009e 13       		.uleb128 0x13
 3258 009f 00       		.byte	0
 3259 00a0 00       		.byte	0
 3260 00a1 0E       		.uleb128 0xe
 3261 00a2 0F       		.uleb128 0xf
 3262 00a3 00       		.byte	0
 3263 00a4 0B       		.uleb128 0xb
 3264 00a5 0B       		.uleb128 0xb
 3265 00a6 00       		.byte	0
 3266 00a7 00       		.byte	0
 3267 00a8 0F       		.uleb128 0xf
 3268 00a9 13       		.uleb128 0x13
 3269 00aa 01       		.byte	0x1
 3270 00ab 03       		.uleb128 0x3
 3271 00ac 0E       		.uleb128 0xe
 3272 00ad 0B       		.uleb128 0xb
 3273 00ae 05       		.uleb128 0x5
 3274 00af 3A       		.uleb128 0x3a
 3275 00b0 0B       		.uleb128 0xb
 3276 00b1 3B       		.uleb128 0x3b
 3277 00b2 05       		.uleb128 0x5
 3278 00b3 01       		.uleb128 0x1
 3279 00b4 13       		.uleb128 0x13
 3280 00b5 00       		.byte	0
 3281 00b6 00       		.byte	0
 3282 00b7 10       		.uleb128 0x10
 3283 00b8 0D       		.uleb128 0xd
 3284 00b9 00       		.byte	0
 3285 00ba 03       		.uleb128 0x3
 3286 00bb 08       		.uleb128 0x8
 3287 00bc 3A       		.uleb128 0x3a
 3288 00bd 0B       		.uleb128 0xb
 3289 00be 3B       		.uleb128 0x3b
 3290 00bf 0B       		.uleb128 0xb
 3291 00c0 49       		.uleb128 0x49
 3292 00c1 13       		.uleb128 0x13
 3293 00c2 38       		.uleb128 0x38
 3294 00c3 0B       		.uleb128 0xb
 3295 00c4 00       		.byte	0
 3296 00c5 00       		.byte	0
 3297 00c6 11       		.uleb128 0x11
 3298 00c7 13       		.uleb128 0x13
 3299 00c8 01       		.byte	0x1
 3300 00c9 0B       		.uleb128 0xb
 3301 00ca 0B       		.uleb128 0xb
 3302 00cb 3A       		.uleb128 0x3a
 3303 00cc 0B       		.uleb128 0xb
 3304 00cd 3B       		.uleb128 0x3b
 3305 00ce 0B       		.uleb128 0xb
 3306 00cf 01       		.uleb128 0x1
ARM GAS  C:\Users\IDONNO~1\AppData\Local\Temp\ccRF5WGp.s 			page 59


 3307 00d0 13       		.uleb128 0x13
 3308 00d1 00       		.byte	0
 3309 00d2 00       		.byte	0
 3310 00d3 12       		.uleb128 0x12
 3311 00d4 17       		.uleb128 0x17
 3312 00d5 01       		.byte	0x1
 3313 00d6 0B       		.uleb128 0xb
 3314 00d7 0B       		.uleb128 0xb
 3315 00d8 3A       		.uleb128 0x3a
 3316 00d9 0B       		.uleb128 0xb
 3317 00da 3B       		.uleb128 0x3b
 3318 00db 0B       		.uleb128 0xb
 3319 00dc 01       		.uleb128 0x1
 3320 00dd 13       		.uleb128 0x13
 3321 00de 00       		.byte	0
 3322 00df 00       		.byte	0
 3323 00e0 13       		.uleb128 0x13
 3324 00e1 0D       		.uleb128 0xd
 3325 00e2 00       		.byte	0
 3326 00e3 03       		.uleb128 0x3
 3327 00e4 0E       		.uleb128 0xe
 3328 00e5 3A       		.uleb128 0x3a
 3329 00e6 0B       		.uleb128 0xb
 3330 00e7 3B       		.uleb128 0x3b
 3331 00e8 05       		.uleb128 0x5
 3332 00e9 49       		.uleb128 0x49
 3333 00ea 13       		.uleb128 0x13
 3334 00eb 00       		.byte	0
 3335 00ec 00       		.byte	0
 3336 00ed 14       		.uleb128 0x14
 3337 00ee 26       		.uleb128 0x26
 3338 00ef 00       		.byte	0
 3339 00f0 49       		.uleb128 0x49
 3340 00f1 13       		.uleb128 0x13
 3341 00f2 00       		.byte	0
 3342 00f3 00       		.byte	0
 3343 00f4 15       		.uleb128 0x15
 3344 00f5 01       		.uleb128 0x1
 3345 00f6 01       		.byte	0x1
 3346 00f7 49       		.uleb128 0x49
 3347 00f8 13       		.uleb128 0x13
 3348 00f9 01       		.uleb128 0x1
 3349 00fa 13       		.uleb128 0x13
 3350 00fb 00       		.byte	0
 3351 00fc 00       		.byte	0
 3352 00fd 16       		.uleb128 0x16
 3353 00fe 21       		.uleb128 0x21
 3354 00ff 00       		.byte	0
 3355 0100 49       		.uleb128 0x49
 3356 0101 13       		.uleb128 0x13
 3357 0102 2F       		.uleb128 0x2f
 3358 0103 0B       		.uleb128 0xb
 3359 0104 00       		.byte	0
 3360 0105 00       		.byte	0
 3361 0106 17       		.uleb128 0x17
 3362 0107 2E       		.uleb128 0x2e
 3363 0108 01       		.byte	0x1
ARM GAS  C:\Users\IDONNO~1\AppData\Local\Temp\ccRF5WGp.s 			page 60


 3364 0109 03       		.uleb128 0x3
 3365 010a 0E       		.uleb128 0xe
 3366 010b 3A       		.uleb128 0x3a
 3367 010c 0B       		.uleb128 0xb
 3368 010d 3B       		.uleb128 0x3b
 3369 010e 05       		.uleb128 0x5
 3370 010f 27       		.uleb128 0x27
 3371 0110 19       		.uleb128 0x19
 3372 0111 20       		.uleb128 0x20
 3373 0112 0B       		.uleb128 0xb
 3374 0113 01       		.uleb128 0x1
 3375 0114 13       		.uleb128 0x13
 3376 0115 00       		.byte	0
 3377 0116 00       		.byte	0
 3378 0117 18       		.uleb128 0x18
 3379 0118 05       		.uleb128 0x5
 3380 0119 00       		.byte	0
 3381 011a 03       		.uleb128 0x3
 3382 011b 0E       		.uleb128 0xe
 3383 011c 3A       		.uleb128 0x3a
 3384 011d 0B       		.uleb128 0xb
 3385 011e 3B       		.uleb128 0x3b
 3386 011f 05       		.uleb128 0x5
 3387 0120 49       		.uleb128 0x49
 3388 0121 13       		.uleb128 0x13
 3389 0122 00       		.byte	0
 3390 0123 00       		.byte	0
 3391 0124 19       		.uleb128 0x19
 3392 0125 2E       		.uleb128 0x2e
 3393 0126 00       		.byte	0
 3394 0127 03       		.uleb128 0x3
 3395 0128 0E       		.uleb128 0xe
 3396 0129 3A       		.uleb128 0x3a
 3397 012a 0B       		.uleb128 0xb
 3398 012b 3B       		.uleb128 0x3b
 3399 012c 05       		.uleb128 0x5
 3400 012d 27       		.uleb128 0x27
 3401 012e 19       		.uleb128 0x19
 3402 012f 20       		.uleb128 0x20
 3403 0130 0B       		.uleb128 0xb
 3404 0131 00       		.byte	0
 3405 0132 00       		.byte	0
 3406 0133 1A       		.uleb128 0x1a
 3407 0134 05       		.uleb128 0x5
 3408 0135 00       		.byte	0
 3409 0136 03       		.uleb128 0x3
 3410 0137 08       		.uleb128 0x8
 3411 0138 3A       		.uleb128 0x3a
 3412 0139 0B       		.uleb128 0xb
 3413 013a 3B       		.uleb128 0x3b
 3414 013b 05       		.uleb128 0x5
 3415 013c 49       		.uleb128 0x49
 3416 013d 13       		.uleb128 0x13
 3417 013e 00       		.byte	0
 3418 013f 00       		.byte	0
 3419 0140 1B       		.uleb128 0x1b
 3420 0141 2E       		.uleb128 0x2e
ARM GAS  C:\Users\IDONNO~1\AppData\Local\Temp\ccRF5WGp.s 			page 61


 3421 0142 01       		.byte	0x1
 3422 0143 03       		.uleb128 0x3
 3423 0144 0E       		.uleb128 0xe
 3424 0145 3A       		.uleb128 0x3a
 3425 0146 0B       		.uleb128 0xb
 3426 0147 3B       		.uleb128 0x3b
 3427 0148 05       		.uleb128 0x5
 3428 0149 27       		.uleb128 0x27
 3429 014a 19       		.uleb128 0x19
 3430 014b 49       		.uleb128 0x49
 3431 014c 13       		.uleb128 0x13
 3432 014d 20       		.uleb128 0x20
 3433 014e 0B       		.uleb128 0xb
 3434 014f 01       		.uleb128 0x1
 3435 0150 13       		.uleb128 0x13
 3436 0151 00       		.byte	0
 3437 0152 00       		.byte	0
 3438 0153 1C       		.uleb128 0x1c
 3439 0154 34       		.uleb128 0x34
 3440 0155 00       		.byte	0
 3441 0156 03       		.uleb128 0x3
 3442 0157 08       		.uleb128 0x8
 3443 0158 3A       		.uleb128 0x3a
 3444 0159 0B       		.uleb128 0xb
 3445 015a 3B       		.uleb128 0x3b
 3446 015b 05       		.uleb128 0x5
 3447 015c 49       		.uleb128 0x49
 3448 015d 13       		.uleb128 0x13
 3449 015e 00       		.byte	0
 3450 015f 00       		.byte	0
 3451 0160 1D       		.uleb128 0x1d
 3452 0161 34       		.uleb128 0x34
 3453 0162 00       		.byte	0
 3454 0163 03       		.uleb128 0x3
 3455 0164 0E       		.uleb128 0xe
 3456 0165 49       		.uleb128 0x49
 3457 0166 13       		.uleb128 0x13
 3458 0167 34       		.uleb128 0x34
 3459 0168 19       		.uleb128 0x19
 3460 0169 1C       		.uleb128 0x1c
 3461 016a 0E       		.uleb128 0xe
 3462 016b 00       		.byte	0
 3463 016c 00       		.byte	0
 3464 016d 1E       		.uleb128 0x1e
 3465 016e 2E       		.uleb128 0x2e
 3466 016f 01       		.byte	0x1
 3467 0170 3F       		.uleb128 0x3f
 3468 0171 19       		.uleb128 0x19
 3469 0172 03       		.uleb128 0x3
 3470 0173 0E       		.uleb128 0xe
 3471 0174 3A       		.uleb128 0x3a
 3472 0175 0B       		.uleb128 0xb
 3473 0176 3B       		.uleb128 0x3b
 3474 0177 0B       		.uleb128 0xb
 3475 0178 27       		.uleb128 0x27
 3476 0179 19       		.uleb128 0x19
 3477 017a 49       		.uleb128 0x49
ARM GAS  C:\Users\IDONNO~1\AppData\Local\Temp\ccRF5WGp.s 			page 62


 3478 017b 13       		.uleb128 0x13
 3479 017c 20       		.uleb128 0x20
 3480 017d 0B       		.uleb128 0xb
 3481 017e 01       		.uleb128 0x1
 3482 017f 13       		.uleb128 0x13
 3483 0180 00       		.byte	0
 3484 0181 00       		.byte	0
 3485 0182 1F       		.uleb128 0x1f
 3486 0183 05       		.uleb128 0x5
 3487 0184 00       		.byte	0
 3488 0185 03       		.uleb128 0x3
 3489 0186 08       		.uleb128 0x8
 3490 0187 3A       		.uleb128 0x3a
 3491 0188 0B       		.uleb128 0xb
 3492 0189 3B       		.uleb128 0x3b
 3493 018a 0B       		.uleb128 0xb
 3494 018b 49       		.uleb128 0x49
 3495 018c 13       		.uleb128 0x13
 3496 018d 00       		.byte	0
 3497 018e 00       		.byte	0
 3498 018f 20       		.uleb128 0x20
 3499 0190 2E       		.uleb128 0x2e
 3500 0191 01       		.byte	0x1
 3501 0192 3F       		.uleb128 0x3f
 3502 0193 19       		.uleb128 0x19
 3503 0194 03       		.uleb128 0x3
 3504 0195 0E       		.uleb128 0xe
 3505 0196 3A       		.uleb128 0x3a
 3506 0197 0B       		.uleb128 0xb
 3507 0198 3B       		.uleb128 0x3b
 3508 0199 05       		.uleb128 0x5
 3509 019a 27       		.uleb128 0x27
 3510 019b 19       		.uleb128 0x19
 3511 019c 49       		.uleb128 0x49
 3512 019d 13       		.uleb128 0x13
 3513 019e 20       		.uleb128 0x20
 3514 019f 0B       		.uleb128 0xb
 3515 01a0 01       		.uleb128 0x1
 3516 01a1 13       		.uleb128 0x13
 3517 01a2 00       		.byte	0
 3518 01a3 00       		.byte	0
 3519 01a4 21       		.uleb128 0x21
 3520 01a5 2E       		.uleb128 0x2e
 3521 01a6 01       		.byte	0x1
 3522 01a7 3F       		.uleb128 0x3f
 3523 01a8 19       		.uleb128 0x19
 3524 01a9 03       		.uleb128 0x3
 3525 01aa 0E       		.uleb128 0xe
 3526 01ab 3A       		.uleb128 0x3a
 3527 01ac 0B       		.uleb128 0xb
 3528 01ad 3B       		.uleb128 0x3b
 3529 01ae 0B       		.uleb128 0xb
 3530 01af 27       		.uleb128 0x27
 3531 01b0 19       		.uleb128 0x19
 3532 01b1 11       		.uleb128 0x11
 3533 01b2 01       		.uleb128 0x1
 3534 01b3 12       		.uleb128 0x12
ARM GAS  C:\Users\IDONNO~1\AppData\Local\Temp\ccRF5WGp.s 			page 63


 3535 01b4 06       		.uleb128 0x6
 3536 01b5 40       		.uleb128 0x40
 3537 01b6 18       		.uleb128 0x18
 3538 01b7 9742     		.uleb128 0x2117
 3539 01b9 19       		.uleb128 0x19
 3540 01ba 01       		.uleb128 0x1
 3541 01bb 13       		.uleb128 0x13
 3542 01bc 00       		.byte	0
 3543 01bd 00       		.byte	0
 3544 01be 22       		.uleb128 0x22
 3545 01bf 05       		.uleb128 0x5
 3546 01c0 00       		.byte	0
 3547 01c1 03       		.uleb128 0x3
 3548 01c2 08       		.uleb128 0x8
 3549 01c3 3A       		.uleb128 0x3a
 3550 01c4 0B       		.uleb128 0xb
 3551 01c5 3B       		.uleb128 0x3b
 3552 01c6 0B       		.uleb128 0xb
 3553 01c7 49       		.uleb128 0x49
 3554 01c8 13       		.uleb128 0x13
 3555 01c9 02       		.uleb128 0x2
 3556 01ca 18       		.uleb128 0x18
 3557 01cb 00       		.byte	0
 3558 01cc 00       		.byte	0
 3559 01cd 23       		.uleb128 0x23
 3560 01ce 34       		.uleb128 0x34
 3561 01cf 00       		.byte	0
 3562 01d0 03       		.uleb128 0x3
 3563 01d1 0E       		.uleb128 0xe
 3564 01d2 49       		.uleb128 0x49
 3565 01d3 13       		.uleb128 0x13
 3566 01d4 34       		.uleb128 0x34
 3567 01d5 19       		.uleb128 0x19
 3568 01d6 00       		.byte	0
 3569 01d7 00       		.byte	0
 3570 01d8 24       		.uleb128 0x24
 3571 01d9 1D       		.uleb128 0x1d
 3572 01da 01       		.byte	0x1
 3573 01db 31       		.uleb128 0x31
 3574 01dc 13       		.uleb128 0x13
 3575 01dd 11       		.uleb128 0x11
 3576 01de 01       		.uleb128 0x1
 3577 01df 12       		.uleb128 0x12
 3578 01e0 06       		.uleb128 0x6
 3579 01e1 58       		.uleb128 0x58
 3580 01e2 0B       		.uleb128 0xb
 3581 01e3 59       		.uleb128 0x59
 3582 01e4 0B       		.uleb128 0xb
 3583 01e5 00       		.byte	0
 3584 01e6 00       		.byte	0
 3585 01e7 25       		.uleb128 0x25
 3586 01e8 05       		.uleb128 0x5
 3587 01e9 00       		.byte	0
 3588 01ea 31       		.uleb128 0x31
 3589 01eb 13       		.uleb128 0x13
 3590 01ec 02       		.uleb128 0x2
 3591 01ed 17       		.uleb128 0x17
ARM GAS  C:\Users\IDONNO~1\AppData\Local\Temp\ccRF5WGp.s 			page 64


 3592 01ee 00       		.byte	0
 3593 01ef 00       		.byte	0
 3594 01f0 26       		.uleb128 0x26
 3595 01f1 05       		.uleb128 0x5
 3596 01f2 00       		.byte	0
 3597 01f3 03       		.uleb128 0x3
 3598 01f4 08       		.uleb128 0x8
 3599 01f5 3A       		.uleb128 0x3a
 3600 01f6 0B       		.uleb128 0xb
 3601 01f7 3B       		.uleb128 0x3b
 3602 01f8 0B       		.uleb128 0xb
 3603 01f9 49       		.uleb128 0x49
 3604 01fa 13       		.uleb128 0x13
 3605 01fb 02       		.uleb128 0x2
 3606 01fc 17       		.uleb128 0x17
 3607 01fd 00       		.byte	0
 3608 01fe 00       		.byte	0
 3609 01ff 27       		.uleb128 0x27
 3610 0200 34       		.uleb128 0x34
 3611 0201 00       		.byte	0
 3612 0202 03       		.uleb128 0x3
 3613 0203 08       		.uleb128 0x8
 3614 0204 3A       		.uleb128 0x3a
 3615 0205 0B       		.uleb128 0xb
 3616 0206 3B       		.uleb128 0x3b
 3617 0207 0B       		.uleb128 0xb
 3618 0208 49       		.uleb128 0x49
 3619 0209 13       		.uleb128 0x13
 3620 020a 02       		.uleb128 0x2
 3621 020b 17       		.uleb128 0x17
 3622 020c 00       		.byte	0
 3623 020d 00       		.byte	0
 3624 020e 28       		.uleb128 0x28
 3625 020f 1D       		.uleb128 0x1d
 3626 0210 01       		.byte	0x1
 3627 0211 31       		.uleb128 0x31
 3628 0212 13       		.uleb128 0x13
 3629 0213 11       		.uleb128 0x11
 3630 0214 01       		.uleb128 0x1
 3631 0215 12       		.uleb128 0x12
 3632 0216 06       		.uleb128 0x6
 3633 0217 58       		.uleb128 0x58
 3634 0218 0B       		.uleb128 0xb
 3635 0219 59       		.uleb128 0x59
 3636 021a 0B       		.uleb128 0xb
 3637 021b 01       		.uleb128 0x1
 3638 021c 13       		.uleb128 0x13
 3639 021d 00       		.byte	0
 3640 021e 00       		.byte	0
 3641 021f 29       		.uleb128 0x29
 3642 0220 0B       		.uleb128 0xb
 3643 0221 01       		.byte	0x1
 3644 0222 11       		.uleb128 0x11
 3645 0223 01       		.uleb128 0x1
 3646 0224 12       		.uleb128 0x12
 3647 0225 06       		.uleb128 0x6
 3648 0226 00       		.byte	0
ARM GAS  C:\Users\IDONNO~1\AppData\Local\Temp\ccRF5WGp.s 			page 65


 3649 0227 00       		.byte	0
 3650 0228 2A       		.uleb128 0x2a
 3651 0229 34       		.uleb128 0x34
 3652 022a 00       		.byte	0
 3653 022b 31       		.uleb128 0x31
 3654 022c 13       		.uleb128 0x13
 3655 022d 02       		.uleb128 0x2
 3656 022e 17       		.uleb128 0x17
 3657 022f 00       		.byte	0
 3658 0230 00       		.byte	0
 3659 0231 2B       		.uleb128 0x2b
 3660 0232 898201   		.uleb128 0x4109
 3661 0235 00       		.byte	0
 3662 0236 11       		.uleb128 0x11
 3663 0237 01       		.uleb128 0x1
 3664 0238 31       		.uleb128 0x31
 3665 0239 13       		.uleb128 0x13
 3666 023a 00       		.byte	0
 3667 023b 00       		.byte	0
 3668 023c 2C       		.uleb128 0x2c
 3669 023d 1D       		.uleb128 0x1d
 3670 023e 01       		.byte	0x1
 3671 023f 31       		.uleb128 0x31
 3672 0240 13       		.uleb128 0x13
 3673 0241 11       		.uleb128 0x11
 3674 0242 01       		.uleb128 0x1
 3675 0243 12       		.uleb128 0x12
 3676 0244 06       		.uleb128 0x6
 3677 0245 58       		.uleb128 0x58
 3678 0246 0B       		.uleb128 0xb
 3679 0247 59       		.uleb128 0x59
 3680 0248 05       		.uleb128 0x5
 3681 0249 00       		.byte	0
 3682 024a 00       		.byte	0
 3683 024b 2D       		.uleb128 0x2d
 3684 024c 34       		.uleb128 0x34
 3685 024d 00       		.byte	0
 3686 024e 31       		.uleb128 0x31
 3687 024f 13       		.uleb128 0x13
 3688 0250 00       		.byte	0
 3689 0251 00       		.byte	0
 3690 0252 2E       		.uleb128 0x2e
 3691 0253 898201   		.uleb128 0x4109
 3692 0256 01       		.byte	0x1
 3693 0257 11       		.uleb128 0x11
 3694 0258 01       		.uleb128 0x1
 3695 0259 31       		.uleb128 0x31
 3696 025a 13       		.uleb128 0x13
 3697 025b 01       		.uleb128 0x1
 3698 025c 13       		.uleb128 0x13
 3699 025d 00       		.byte	0
 3700 025e 00       		.byte	0
 3701 025f 2F       		.uleb128 0x2f
 3702 0260 8A8201   		.uleb128 0x410a
 3703 0263 00       		.byte	0
 3704 0264 02       		.uleb128 0x2
 3705 0265 18       		.uleb128 0x18
ARM GAS  C:\Users\IDONNO~1\AppData\Local\Temp\ccRF5WGp.s 			page 66


 3706 0266 9142     		.uleb128 0x2111
 3707 0268 18       		.uleb128 0x18
 3708 0269 00       		.byte	0
 3709 026a 00       		.byte	0
 3710 026b 30       		.uleb128 0x30
 3711 026c 2E       		.uleb128 0x2e
 3712 026d 01       		.byte	0x1
 3713 026e 3F       		.uleb128 0x3f
 3714 026f 19       		.uleb128 0x19
 3715 0270 03       		.uleb128 0x3
 3716 0271 0E       		.uleb128 0xe
 3717 0272 3A       		.uleb128 0x3a
 3718 0273 0B       		.uleb128 0xb
 3719 0274 3B       		.uleb128 0x3b
 3720 0275 0B       		.uleb128 0xb
 3721 0276 27       		.uleb128 0x27
 3722 0277 19       		.uleb128 0x19
 3723 0278 49       		.uleb128 0x49
 3724 0279 13       		.uleb128 0x13
 3725 027a 11       		.uleb128 0x11
 3726 027b 01       		.uleb128 0x1
 3727 027c 12       		.uleb128 0x12
 3728 027d 06       		.uleb128 0x6
 3729 027e 40       		.uleb128 0x40
 3730 027f 18       		.uleb128 0x18
 3731 0280 9742     		.uleb128 0x2117
 3732 0282 19       		.uleb128 0x19
 3733 0283 01       		.uleb128 0x1
 3734 0284 13       		.uleb128 0x13
 3735 0285 00       		.byte	0
 3736 0286 00       		.byte	0
 3737 0287 31       		.uleb128 0x31
 3738 0288 34       		.uleb128 0x34
 3739 0289 00       		.byte	0
 3740 028a 03       		.uleb128 0x3
 3741 028b 08       		.uleb128 0x8
 3742 028c 3A       		.uleb128 0x3a
 3743 028d 0B       		.uleb128 0xb
 3744 028e 3B       		.uleb128 0x3b
 3745 028f 0B       		.uleb128 0xb
 3746 0290 49       		.uleb128 0x49
 3747 0291 13       		.uleb128 0x13
 3748 0292 00       		.byte	0
 3749 0293 00       		.byte	0
 3750 0294 32       		.uleb128 0x32
 3751 0295 1D       		.uleb128 0x1d
 3752 0296 01       		.byte	0x1
 3753 0297 31       		.uleb128 0x31
 3754 0298 13       		.uleb128 0x13
 3755 0299 52       		.uleb128 0x52
 3756 029a 01       		.uleb128 0x1
 3757 029b 55       		.uleb128 0x55
 3758 029c 17       		.uleb128 0x17
 3759 029d 58       		.uleb128 0x58
 3760 029e 0B       		.uleb128 0xb
 3761 029f 59       		.uleb128 0x59
 3762 02a0 0B       		.uleb128 0xb
ARM GAS  C:\Users\IDONNO~1\AppData\Local\Temp\ccRF5WGp.s 			page 67


 3763 02a1 01       		.uleb128 0x1
 3764 02a2 13       		.uleb128 0x13
 3765 02a3 00       		.byte	0
 3766 02a4 00       		.byte	0
 3767 02a5 33       		.uleb128 0x33
 3768 02a6 0B       		.uleb128 0xb
 3769 02a7 01       		.byte	0x1
 3770 02a8 55       		.uleb128 0x55
 3771 02a9 17       		.uleb128 0x17
 3772 02aa 00       		.byte	0
 3773 02ab 00       		.byte	0
 3774 02ac 34       		.uleb128 0x34
 3775 02ad 898201   		.uleb128 0x4109
 3776 02b0 01       		.byte	0x1
 3777 02b1 11       		.uleb128 0x11
 3778 02b2 01       		.uleb128 0x1
 3779 02b3 31       		.uleb128 0x31
 3780 02b4 13       		.uleb128 0x13
 3781 02b5 00       		.byte	0
 3782 02b6 00       		.byte	0
 3783 02b7 35       		.uleb128 0x35
 3784 02b8 1D       		.uleb128 0x1d
 3785 02b9 01       		.byte	0x1
 3786 02ba 31       		.uleb128 0x31
 3787 02bb 13       		.uleb128 0x13
 3788 02bc 52       		.uleb128 0x52
 3789 02bd 01       		.uleb128 0x1
 3790 02be 55       		.uleb128 0x55
 3791 02bf 17       		.uleb128 0x17
 3792 02c0 58       		.uleb128 0x58
 3793 02c1 0B       		.uleb128 0xb
 3794 02c2 59       		.uleb128 0x59
 3795 02c3 0B       		.uleb128 0xb
 3796 02c4 00       		.byte	0
 3797 02c5 00       		.byte	0
 3798 02c6 36       		.uleb128 0x36
 3799 02c7 1D       		.uleb128 0x1d
 3800 02c8 01       		.byte	0x1
 3801 02c9 31       		.uleb128 0x31
 3802 02ca 13       		.uleb128 0x13
 3803 02cb 52       		.uleb128 0x52
 3804 02cc 01       		.uleb128 0x1
 3805 02cd 55       		.uleb128 0x55
 3806 02ce 17       		.uleb128 0x17
 3807 02cf 58       		.uleb128 0x58
 3808 02d0 0B       		.uleb128 0xb
 3809 02d1 59       		.uleb128 0x59
 3810 02d2 05       		.uleb128 0x5
 3811 02d3 00       		.byte	0
 3812 02d4 00       		.byte	0
 3813 02d5 37       		.uleb128 0x37
 3814 02d6 2E       		.uleb128 0x2e
 3815 02d7 01       		.byte	0x1
 3816 02d8 31       		.uleb128 0x31
 3817 02d9 13       		.uleb128 0x13
 3818 02da 11       		.uleb128 0x11
 3819 02db 01       		.uleb128 0x1
ARM GAS  C:\Users\IDONNO~1\AppData\Local\Temp\ccRF5WGp.s 			page 68


 3820 02dc 12       		.uleb128 0x12
 3821 02dd 06       		.uleb128 0x6
 3822 02de 40       		.uleb128 0x40
 3823 02df 18       		.uleb128 0x18
 3824 02e0 9742     		.uleb128 0x2117
 3825 02e2 19       		.uleb128 0x19
 3826 02e3 01       		.uleb128 0x1
 3827 02e4 13       		.uleb128 0x13
 3828 02e5 00       		.byte	0
 3829 02e6 00       		.byte	0
 3830 02e7 38       		.uleb128 0x38
 3831 02e8 05       		.uleb128 0x5
 3832 02e9 00       		.byte	0
 3833 02ea 03       		.uleb128 0x3
 3834 02eb 0E       		.uleb128 0xe
 3835 02ec 3A       		.uleb128 0x3a
 3836 02ed 0B       		.uleb128 0xb
 3837 02ee 3B       		.uleb128 0x3b
 3838 02ef 0B       		.uleb128 0xb
 3839 02f0 49       		.uleb128 0x49
 3840 02f1 13       		.uleb128 0x13
 3841 02f2 02       		.uleb128 0x2
 3842 02f3 17       		.uleb128 0x17
 3843 02f4 00       		.byte	0
 3844 02f5 00       		.byte	0
 3845 02f6 39       		.uleb128 0x39
 3846 02f7 05       		.uleb128 0x5
 3847 02f8 00       		.byte	0
 3848 02f9 31       		.uleb128 0x31
 3849 02fa 13       		.uleb128 0x13
 3850 02fb 00       		.byte	0
 3851 02fc 00       		.byte	0
 3852 02fd 3A       		.uleb128 0x3a
 3853 02fe 1D       		.uleb128 0x1d
 3854 02ff 01       		.byte	0x1
 3855 0300 31       		.uleb128 0x31
 3856 0301 13       		.uleb128 0x13
 3857 0302 52       		.uleb128 0x52
 3858 0303 01       		.uleb128 0x1
 3859 0304 55       		.uleb128 0x55
 3860 0305 17       		.uleb128 0x17
 3861 0306 58       		.uleb128 0x58
 3862 0307 0B       		.uleb128 0xb
 3863 0308 59       		.uleb128 0x59
 3864 0309 05       		.uleb128 0x5
 3865 030a 01       		.uleb128 0x1
 3866 030b 13       		.uleb128 0x13
 3867 030c 00       		.byte	0
 3868 030d 00       		.byte	0
 3869 030e 3B       		.uleb128 0x3b
 3870 030f 898201   		.uleb128 0x4109
 3871 0312 01       		.byte	0x1
 3872 0313 11       		.uleb128 0x11
 3873 0314 01       		.uleb128 0x1
 3874 0315 9542     		.uleb128 0x2115
 3875 0317 19       		.uleb128 0x19
 3876 0318 31       		.uleb128 0x31
ARM GAS  C:\Users\IDONNO~1\AppData\Local\Temp\ccRF5WGp.s 			page 69


 3877 0319 13       		.uleb128 0x13
 3878 031a 00       		.byte	0
 3879 031b 00       		.byte	0
 3880 031c 3C       		.uleb128 0x3c
 3881 031d 2E       		.uleb128 0x2e
 3882 031e 01       		.byte	0x1
 3883 031f 3F       		.uleb128 0x3f
 3884 0320 19       		.uleb128 0x19
 3885 0321 03       		.uleb128 0x3
 3886 0322 0E       		.uleb128 0xe
 3887 0323 3A       		.uleb128 0x3a
 3888 0324 0B       		.uleb128 0xb
 3889 0325 3B       		.uleb128 0x3b
 3890 0326 05       		.uleb128 0x5
 3891 0327 27       		.uleb128 0x27
 3892 0328 19       		.uleb128 0x19
 3893 0329 11       		.uleb128 0x11
 3894 032a 01       		.uleb128 0x1
 3895 032b 12       		.uleb128 0x12
 3896 032c 06       		.uleb128 0x6
 3897 032d 40       		.uleb128 0x40
 3898 032e 18       		.uleb128 0x18
 3899 032f 9742     		.uleb128 0x2117
 3900 0331 19       		.uleb128 0x19
 3901 0332 01       		.uleb128 0x1
 3902 0333 13       		.uleb128 0x13
 3903 0334 00       		.byte	0
 3904 0335 00       		.byte	0
 3905 0336 3D       		.uleb128 0x3d
 3906 0337 05       		.uleb128 0x5
 3907 0338 00       		.byte	0
 3908 0339 03       		.uleb128 0x3
 3909 033a 08       		.uleb128 0x8
 3910 033b 3A       		.uleb128 0x3a
 3911 033c 0B       		.uleb128 0xb
 3912 033d 3B       		.uleb128 0x3b
 3913 033e 05       		.uleb128 0x5
 3914 033f 49       		.uleb128 0x49
 3915 0340 13       		.uleb128 0x13
 3916 0341 02       		.uleb128 0x2
 3917 0342 17       		.uleb128 0x17
 3918 0343 00       		.byte	0
 3919 0344 00       		.byte	0
 3920 0345 3E       		.uleb128 0x3e
 3921 0346 1D       		.uleb128 0x1d
 3922 0347 01       		.byte	0x1
 3923 0348 31       		.uleb128 0x31
 3924 0349 13       		.uleb128 0x13
 3925 034a 11       		.uleb128 0x11
 3926 034b 01       		.uleb128 0x1
 3927 034c 12       		.uleb128 0x12
 3928 034d 06       		.uleb128 0x6
 3929 034e 58       		.uleb128 0x58
 3930 034f 0B       		.uleb128 0xb
 3931 0350 59       		.uleb128 0x59
 3932 0351 05       		.uleb128 0x5
 3933 0352 01       		.uleb128 0x1
ARM GAS  C:\Users\IDONNO~1\AppData\Local\Temp\ccRF5WGp.s 			page 70


 3934 0353 13       		.uleb128 0x13
 3935 0354 00       		.byte	0
 3936 0355 00       		.byte	0
 3937 0356 3F       		.uleb128 0x3f
 3938 0357 34       		.uleb128 0x34
 3939 0358 00       		.byte	0
 3940 0359 03       		.uleb128 0x3
 3941 035a 08       		.uleb128 0x8
 3942 035b 3A       		.uleb128 0x3a
 3943 035c 0B       		.uleb128 0xb
 3944 035d 3B       		.uleb128 0x3b
 3945 035e 05       		.uleb128 0x5
 3946 035f 49       		.uleb128 0x49
 3947 0360 13       		.uleb128 0x13
 3948 0361 02       		.uleb128 0x2
 3949 0362 18       		.uleb128 0x18
 3950 0363 00       		.byte	0
 3951 0364 00       		.byte	0
 3952 0365 40       		.uleb128 0x40
 3953 0366 898201   		.uleb128 0x4109
 3954 0369 00       		.byte	0
 3955 036a 11       		.uleb128 0x11
 3956 036b 01       		.uleb128 0x1
 3957 036c 9542     		.uleb128 0x2115
 3958 036e 19       		.uleb128 0x19
 3959 036f 31       		.uleb128 0x31
 3960 0370 13       		.uleb128 0x13
 3961 0371 00       		.byte	0
 3962 0372 00       		.byte	0
 3963 0373 41       		.uleb128 0x41
 3964 0374 2E       		.uleb128 0x2e
 3965 0375 01       		.byte	0x1
 3966 0376 3F       		.uleb128 0x3f
 3967 0377 19       		.uleb128 0x19
 3968 0378 03       		.uleb128 0x3
 3969 0379 0E       		.uleb128 0xe
 3970 037a 3A       		.uleb128 0x3a
 3971 037b 0B       		.uleb128 0xb
 3972 037c 3B       		.uleb128 0x3b
 3973 037d 05       		.uleb128 0x5
 3974 037e 27       		.uleb128 0x27
 3975 037f 19       		.uleb128 0x19
 3976 0380 49       		.uleb128 0x49
 3977 0381 13       		.uleb128 0x13
 3978 0382 11       		.uleb128 0x11
 3979 0383 01       		.uleb128 0x1
 3980 0384 12       		.uleb128 0x12
 3981 0385 06       		.uleb128 0x6
 3982 0386 40       		.uleb128 0x40
 3983 0387 18       		.uleb128 0x18
 3984 0388 9742     		.uleb128 0x2117
 3985 038a 19       		.uleb128 0x19
 3986 038b 01       		.uleb128 0x1
 3987 038c 13       		.uleb128 0x13
 3988 038d 00       		.byte	0
 3989 038e 00       		.byte	0
 3990 038f 42       		.uleb128 0x42
ARM GAS  C:\Users\IDONNO~1\AppData\Local\Temp\ccRF5WGp.s 			page 71


 3991 0390 34       		.uleb128 0x34
 3992 0391 00       		.byte	0
 3993 0392 03       		.uleb128 0x3
 3994 0393 08       		.uleb128 0x8
 3995 0394 3A       		.uleb128 0x3a
 3996 0395 0B       		.uleb128 0xb
 3997 0396 3B       		.uleb128 0x3b
 3998 0397 05       		.uleb128 0x5
 3999 0398 49       		.uleb128 0x49
 4000 0399 13       		.uleb128 0x13
 4001 039a 02       		.uleb128 0x2
 4002 039b 17       		.uleb128 0x17
 4003 039c 00       		.byte	0
 4004 039d 00       		.byte	0
 4005 039e 43       		.uleb128 0x43
 4006 039f 0B       		.uleb128 0xb
 4007 03a0 01       		.byte	0x1
 4008 03a1 11       		.uleb128 0x11
 4009 03a2 01       		.uleb128 0x1
 4010 03a3 12       		.uleb128 0x12
 4011 03a4 06       		.uleb128 0x6
 4012 03a5 01       		.uleb128 0x1
 4013 03a6 13       		.uleb128 0x13
 4014 03a7 00       		.byte	0
 4015 03a8 00       		.byte	0
 4016 03a9 44       		.uleb128 0x44
 4017 03aa 34       		.uleb128 0x34
 4018 03ab 00       		.byte	0
 4019 03ac 03       		.uleb128 0x3
 4020 03ad 0E       		.uleb128 0xe
 4021 03ae 3A       		.uleb128 0x3a
 4022 03af 0B       		.uleb128 0xb
 4023 03b0 3B       		.uleb128 0x3b
 4024 03b1 05       		.uleb128 0x5
 4025 03b2 49       		.uleb128 0x49
 4026 03b3 13       		.uleb128 0x13
 4027 03b4 3F       		.uleb128 0x3f
 4028 03b5 19       		.uleb128 0x19
 4029 03b6 3C       		.uleb128 0x3c
 4030 03b7 19       		.uleb128 0x19
 4031 03b8 00       		.byte	0
 4032 03b9 00       		.byte	0
 4033 03ba 45       		.uleb128 0x45
 4034 03bb 34       		.uleb128 0x34
 4035 03bc 00       		.byte	0
 4036 03bd 03       		.uleb128 0x3
 4037 03be 08       		.uleb128 0x8
 4038 03bf 3A       		.uleb128 0x3a
 4039 03c0 0B       		.uleb128 0xb
 4040 03c1 3B       		.uleb128 0x3b
 4041 03c2 05       		.uleb128 0x5
 4042 03c3 49       		.uleb128 0x49
 4043 03c4 13       		.uleb128 0x13
 4044 03c5 3F       		.uleb128 0x3f
 4045 03c6 19       		.uleb128 0x19
 4046 03c7 3C       		.uleb128 0x3c
 4047 03c8 19       		.uleb128 0x19
ARM GAS  C:\Users\IDONNO~1\AppData\Local\Temp\ccRF5WGp.s 			page 72


 4048 03c9 00       		.byte	0
 4049 03ca 00       		.byte	0
 4050 03cb 46       		.uleb128 0x46
 4051 03cc 2E       		.uleb128 0x2e
 4052 03cd 00       		.byte	0
 4053 03ce 3F       		.uleb128 0x3f
 4054 03cf 19       		.uleb128 0x19
 4055 03d0 3C       		.uleb128 0x3c
 4056 03d1 19       		.uleb128 0x19
 4057 03d2 6E       		.uleb128 0x6e
 4058 03d3 0E       		.uleb128 0xe
 4059 03d4 03       		.uleb128 0x3
 4060 03d5 0E       		.uleb128 0xe
 4061 03d6 3A       		.uleb128 0x3a
 4062 03d7 0B       		.uleb128 0xb
 4063 03d8 3B       		.uleb128 0x3b
 4064 03d9 05       		.uleb128 0x5
 4065 03da 00       		.byte	0
 4066 03db 00       		.byte	0
 4067 03dc 00       		.byte	0
 4068              		.section	.debug_loc,"",%progbits
 4069              	.Ldebug_loc0:
 4070              	.LLST0:
 4071 0000 00000000 		.4byte	.LVL0
 4072 0004 04000000 		.4byte	.LVL1
 4073 0008 0100     		.2byte	0x1
 4074 000a 50       		.byte	0x50
 4075 000b 00000000 		.4byte	0
 4076 000f 00000000 		.4byte	0
 4077              	.LLST1:
 4078 0013 00000000 		.4byte	.LVL2
 4079 0017 12000000 		.4byte	.LVL5
 4080 001b 0100     		.2byte	0x1
 4081 001d 50       		.byte	0x50
 4082 001e 12000000 		.4byte	.LVL5
 4083 0022 26000000 		.4byte	.LVL11
 4084 0026 0100     		.2byte	0x1
 4085 0028 54       		.byte	0x54
 4086 0029 26000000 		.4byte	.LVL11
 4087 002d 28000000 		.4byte	.LFE221
 4088 0031 0400     		.2byte	0x4
 4089 0033 F3       		.byte	0xf3
 4090 0034 01       		.uleb128 0x1
 4091 0035 50       		.byte	0x50
 4092 0036 9F       		.byte	0x9f
 4093 0037 00000000 		.4byte	0
 4094 003b 00000000 		.4byte	0
 4095              	.LLST2:
 4096 003f 00000000 		.4byte	.LVL2
 4097 0043 12000000 		.4byte	.LVL5
 4098 0047 0100     		.2byte	0x1
 4099 0049 51       		.byte	0x51
 4100 004a 12000000 		.4byte	.LVL5
 4101 004e 28000000 		.4byte	.LFE221
 4102 0052 0400     		.2byte	0x4
 4103 0054 F3       		.byte	0xf3
 4104 0055 01       		.uleb128 0x1
ARM GAS  C:\Users\IDONNO~1\AppData\Local\Temp\ccRF5WGp.s 			page 73


 4105 0056 51       		.byte	0x51
 4106 0057 9F       		.byte	0x9f
 4107 0058 00000000 		.4byte	0
 4108 005c 00000000 		.4byte	0
 4109              	.LLST3:
 4110 0060 04000000 		.4byte	.LVL3
 4111 0064 20000000 		.4byte	.LVL9
 4112 0068 0100     		.2byte	0x1
 4113 006a 55       		.byte	0x55
 4114 006b 20000000 		.4byte	.LVL9
 4115 006f 24000000 		.4byte	.LVL10
 4116 0073 0300     		.2byte	0x3
 4117 0075 75       		.byte	0x75
 4118 0076 7F       		.sleb128 -1
 4119 0077 9F       		.byte	0x9f
 4120 0078 24000000 		.4byte	.LVL10
 4121 007c 28000000 		.4byte	.LFE221
 4122 0080 0100     		.2byte	0x1
 4123 0082 55       		.byte	0x55
 4124 0083 00000000 		.4byte	0
 4125 0087 00000000 		.4byte	0
 4126              	.LLST4:
 4127 008b 12000000 		.4byte	.LVL5
 4128 008f 1A000000 		.4byte	.LVL7
 4129 0093 0100     		.2byte	0x1
 4130 0095 54       		.byte	0x54
 4131 0096 00000000 		.4byte	0
 4132 009a 00000000 		.4byte	0
 4133              	.LLST5:
 4134 009e 14000000 		.4byte	.LVL6
 4135 00a2 1A000000 		.4byte	.LVL7
 4136 00a6 0100     		.2byte	0x1
 4137 00a8 50       		.byte	0x50
 4138 00a9 00000000 		.4byte	0
 4139 00ad 00000000 		.4byte	0
 4140              	.LLST6:
 4141 00b1 00000000 		.4byte	.LVL12
 4142 00b5 0B000000 		.4byte	.LVL14-1
 4143 00b9 0100     		.2byte	0x1
 4144 00bb 50       		.byte	0x50
 4145 00bc 0B000000 		.4byte	.LVL14-1
 4146 00c0 18000000 		.4byte	.LFE220
 4147 00c4 0400     		.2byte	0x4
 4148 00c6 F3       		.byte	0xf3
 4149 00c7 01       		.uleb128 0x1
 4150 00c8 50       		.byte	0x50
 4151 00c9 9F       		.byte	0x9f
 4152 00ca 00000000 		.4byte	0
 4153 00ce 00000000 		.4byte	0
 4154              	.LLST7:
 4155 00d2 00000000 		.4byte	.LVL12
 4156 00d6 0B000000 		.4byte	.LVL14-1
 4157 00da 0100     		.2byte	0x1
 4158 00dc 51       		.byte	0x51
 4159 00dd 0B000000 		.4byte	.LVL14-1
 4160 00e1 18000000 		.4byte	.LFE220
 4161 00e5 0400     		.2byte	0x4
ARM GAS  C:\Users\IDONNO~1\AppData\Local\Temp\ccRF5WGp.s 			page 74


 4162 00e7 F3       		.byte	0xf3
 4163 00e8 01       		.uleb128 0x1
 4164 00e9 51       		.byte	0x51
 4165 00ea 9F       		.byte	0x9f
 4166 00eb 00000000 		.4byte	0
 4167 00ef 00000000 		.4byte	0
 4168              	.LLST8:
 4169 00f3 00000000 		.4byte	.LVL12
 4170 00f7 08000000 		.4byte	.LVL13
 4171 00fb 0300     		.2byte	0x3
 4172 00fd 08       		.byte	0x8
 4173 00fe 20       		.byte	0x20
 4174 00ff 9F       		.byte	0x9f
 4175 0100 00000000 		.4byte	0
 4176 0104 00000000 		.4byte	0
 4177              	.LLST9:
 4178 0108 10000000 		.4byte	.LVL15
 4179 010c 16000000 		.4byte	.LVL16
 4180 0110 0200     		.2byte	0x2
 4181 0112 30       		.byte	0x30
 4182 0113 9F       		.byte	0x9f
 4183 0114 00000000 		.4byte	0
 4184 0118 00000000 		.4byte	0
 4185              	.LLST10:
 4186 011c 00000000 		.4byte	.LVL17
 4187 0120 12000000 		.4byte	.LVL19
 4188 0124 0100     		.2byte	0x1
 4189 0126 50       		.byte	0x50
 4190 0127 12000000 		.4byte	.LVL19
 4191 012b 1A000000 		.4byte	.LVL21
 4192 012f 0400     		.2byte	0x4
 4193 0131 F3       		.byte	0xf3
 4194 0132 01       		.uleb128 0x1
 4195 0133 50       		.byte	0x50
 4196 0134 9F       		.byte	0x9f
 4197 0135 1A000000 		.4byte	.LVL21
 4198 0139 2E000000 		.4byte	.LVL23
 4199 013d 0100     		.2byte	0x1
 4200 013f 50       		.byte	0x50
 4201 0140 2E000000 		.4byte	.LVL23
 4202 0144 33000000 		.4byte	.LVL25-1
 4203 0148 0100     		.2byte	0x1
 4204 014a 53       		.byte	0x53
 4205 014b 33000000 		.4byte	.LVL25-1
 4206 014f 44000000 		.4byte	.LFE222
 4207 0153 0400     		.2byte	0x4
 4208 0155 F3       		.byte	0xf3
 4209 0156 01       		.uleb128 0x1
 4210 0157 50       		.byte	0x50
 4211 0158 9F       		.byte	0x9f
 4212 0159 00000000 		.4byte	0
 4213 015d 00000000 		.4byte	0
 4214              	.LLST11:
 4215 0161 00000000 		.4byte	.LVL17
 4216 0165 06000000 		.4byte	.LVL18
 4217 0169 0300     		.2byte	0x3
 4218 016b 08       		.byte	0x8
ARM GAS  C:\Users\IDONNO~1\AppData\Local\Temp\ccRF5WGp.s 			page 75


 4219 016c 20       		.byte	0x20
 4220 016d 9F       		.byte	0x9f
 4221 016e 00000000 		.4byte	0
 4222 0172 00000000 		.4byte	0
 4223              	.LLST12:
 4224 0176 06000000 		.4byte	.LVL18
 4225 017a 12000000 		.4byte	.LVL19
 4226 017e 0100     		.2byte	0x1
 4227 0180 50       		.byte	0x50
 4228 0181 1A000000 		.4byte	.LVL21
 4229 0185 2E000000 		.4byte	.LVL23
 4230 0189 0100     		.2byte	0x1
 4231 018b 50       		.byte	0x50
 4232 018c 2E000000 		.4byte	.LVL23
 4233 0190 33000000 		.4byte	.LVL25-1
 4234 0194 0100     		.2byte	0x1
 4235 0196 53       		.byte	0x53
 4236 0197 33000000 		.4byte	.LVL25-1
 4237 019b 38000000 		.4byte	.LVL26
 4238 019f 0400     		.2byte	0x4
 4239 01a1 F3       		.byte	0xf3
 4240 01a2 01       		.uleb128 0x1
 4241 01a3 50       		.byte	0x50
 4242 01a4 9F       		.byte	0x9f
 4243 01a5 00000000 		.4byte	0
 4244 01a9 00000000 		.4byte	0
 4245              	.LLST13:
 4246 01ad 28000000 		.4byte	.LVL22
 4247 01b1 33000000 		.4byte	.LVL25-1
 4248 01b5 0100     		.2byte	0x1
 4249 01b7 53       		.byte	0x53
 4250 01b8 33000000 		.4byte	.LVL25-1
 4251 01bc 38000000 		.4byte	.LVL26
 4252 01c0 0400     		.2byte	0x4
 4253 01c2 F3       		.byte	0xf3
 4254 01c3 01       		.uleb128 0x1
 4255 01c4 50       		.byte	0x50
 4256 01c5 9F       		.byte	0x9f
 4257 01c6 00000000 		.4byte	0
 4258 01ca 00000000 		.4byte	0
 4259              	.LLST14:
 4260 01ce 28000000 		.4byte	.LVL22
 4261 01d2 30000000 		.4byte	.LVL24
 4262 01d6 0100     		.2byte	0x1
 4263 01d8 53       		.byte	0x53
 4264 01d9 00000000 		.4byte	0
 4265 01dd 00000000 		.4byte	0
 4266              	.LLST15:
 4267 01e1 28000000 		.4byte	.LVL22
 4268 01e5 30000000 		.4byte	.LVL24
 4269 01e9 0100     		.2byte	0x1
 4270 01eb 52       		.byte	0x52
 4271 01ec 00000000 		.4byte	0
 4272 01f0 00000000 		.4byte	0
 4273              	.LLST16:
 4274 01f4 12000000 		.4byte	.LVL19
 4275 01f8 18000000 		.4byte	.LVL20
ARM GAS  C:\Users\IDONNO~1\AppData\Local\Temp\ccRF5WGp.s 			page 76


 4276 01fc 0200     		.2byte	0x2
 4277 01fe 30       		.byte	0x30
 4278 01ff 9F       		.byte	0x9f
 4279 0200 38000000 		.4byte	.LVL26
 4280 0204 3E000000 		.4byte	.LVL27
 4281 0208 0200     		.2byte	0x2
 4282 020a 30       		.byte	0x30
 4283 020b 9F       		.byte	0x9f
 4284 020c 00000000 		.4byte	0
 4285 0210 00000000 		.4byte	0
 4286              	.LLST17:
 4287 0214 00000000 		.4byte	.LVL28
 4288 0218 0C000000 		.4byte	.LVL29
 4289 021c 0100     		.2byte	0x1
 4290 021e 50       		.byte	0x50
 4291 021f 0C000000 		.4byte	.LVL29
 4292 0223 0E000000 		.4byte	.LVL30
 4293 0227 0400     		.2byte	0x4
 4294 0229 F3       		.byte	0xf3
 4295 022a 01       		.uleb128 0x1
 4296 022b 50       		.byte	0x50
 4297 022c 9F       		.byte	0x9f
 4298 022d 0E000000 		.4byte	.LVL30
 4299 0231 22000000 		.4byte	.LVL32
 4300 0235 0100     		.2byte	0x1
 4301 0237 50       		.byte	0x50
 4302 0238 22000000 		.4byte	.LVL32
 4303 023c 27000000 		.4byte	.LVL34-1
 4304 0240 0100     		.2byte	0x1
 4305 0242 53       		.byte	0x53
 4306 0243 27000000 		.4byte	.LVL34-1
 4307 0247 34000000 		.4byte	.LFE223
 4308 024b 0400     		.2byte	0x4
 4309 024d F3       		.byte	0xf3
 4310 024e 01       		.uleb128 0x1
 4311 024f 50       		.byte	0x50
 4312 0250 9F       		.byte	0x9f
 4313 0251 00000000 		.4byte	0
 4314 0255 00000000 		.4byte	0
 4315              	.LLST18:
 4316 0259 1C000000 		.4byte	.LVL31
 4317 025d 27000000 		.4byte	.LVL34-1
 4318 0261 0100     		.2byte	0x1
 4319 0263 53       		.byte	0x53
 4320 0264 27000000 		.4byte	.LVL34-1
 4321 0268 2C000000 		.4byte	.LVL35
 4322 026c 0400     		.2byte	0x4
 4323 026e F3       		.byte	0xf3
 4324 026f 01       		.uleb128 0x1
 4325 0270 50       		.byte	0x50
 4326 0271 9F       		.byte	0x9f
 4327 0272 00000000 		.4byte	0
 4328 0276 00000000 		.4byte	0
 4329              	.LLST19:
 4330 027a 1C000000 		.4byte	.LVL31
 4331 027e 24000000 		.4byte	.LVL33
 4332 0282 0100     		.2byte	0x1
ARM GAS  C:\Users\IDONNO~1\AppData\Local\Temp\ccRF5WGp.s 			page 77


 4333 0284 53       		.byte	0x53
 4334 0285 00000000 		.4byte	0
 4335 0289 00000000 		.4byte	0
 4336              	.LLST20:
 4337 028d 1C000000 		.4byte	.LVL31
 4338 0291 24000000 		.4byte	.LVL33
 4339 0295 0100     		.2byte	0x1
 4340 0297 52       		.byte	0x52
 4341 0298 00000000 		.4byte	0
 4342 029c 00000000 		.4byte	0
 4343              	.LLST21:
 4344 02a0 00000000 		.4byte	.LVL36
 4345 02a4 12000000 		.4byte	.LVL38
 4346 02a8 0100     		.2byte	0x1
 4347 02aa 50       		.byte	0x50
 4348 02ab 12000000 		.4byte	.LVL38
 4349 02af 1A000000 		.4byte	.LVL40
 4350 02b3 0400     		.2byte	0x4
 4351 02b5 F3       		.byte	0xf3
 4352 02b6 01       		.uleb128 0x1
 4353 02b7 50       		.byte	0x50
 4354 02b8 9F       		.byte	0x9f
 4355 02b9 1A000000 		.4byte	.LVL40
 4356 02bd 2E000000 		.4byte	.LVL43
 4357 02c1 0100     		.2byte	0x1
 4358 02c3 50       		.byte	0x50
 4359 02c4 2E000000 		.4byte	.LVL43
 4360 02c8 35000000 		.4byte	.LVL45-1
 4361 02cc 0100     		.2byte	0x1
 4362 02ce 53       		.byte	0x53
 4363 02cf 35000000 		.4byte	.LVL45-1
 4364 02d3 3E000000 		.4byte	.LVL47
 4365 02d7 0400     		.2byte	0x4
 4366 02d9 F3       		.byte	0xf3
 4367 02da 01       		.uleb128 0x1
 4368 02db 50       		.byte	0x50
 4369 02dc 9F       		.byte	0x9f
 4370 02dd 3E000000 		.4byte	.LVL47
 4371 02e1 44000000 		.4byte	.LVL48
 4372 02e5 0100     		.2byte	0x1
 4373 02e7 50       		.byte	0x50
 4374 02e8 44000000 		.4byte	.LVL48
 4375 02ec 4C000000 		.4byte	.LFE224
 4376 02f0 0400     		.2byte	0x4
 4377 02f2 F3       		.byte	0xf3
 4378 02f3 01       		.uleb128 0x1
 4379 02f4 50       		.byte	0x50
 4380 02f5 9F       		.byte	0x9f
 4381 02f6 00000000 		.4byte	0
 4382 02fa 00000000 		.4byte	0
 4383              	.LLST22:
 4384 02fe 00000000 		.4byte	.LVL36
 4385 0302 35000000 		.4byte	.LVL45-1
 4386 0306 0100     		.2byte	0x1
 4387 0308 51       		.byte	0x51
 4388 0309 35000000 		.4byte	.LVL45-1
 4389 030d 3E000000 		.4byte	.LVL47
ARM GAS  C:\Users\IDONNO~1\AppData\Local\Temp\ccRF5WGp.s 			page 78


 4390 0311 0400     		.2byte	0x4
 4391 0313 F3       		.byte	0xf3
 4392 0314 01       		.uleb128 0x1
 4393 0315 51       		.byte	0x51
 4394 0316 9F       		.byte	0x9f
 4395 0317 3E000000 		.4byte	.LVL47
 4396 031b 4C000000 		.4byte	.LFE224
 4397 031f 0100     		.2byte	0x1
 4398 0321 51       		.byte	0x51
 4399 0322 00000000 		.4byte	0
 4400 0326 00000000 		.4byte	0
 4401              	.LLST23:
 4402 032a 00000000 		.4byte	.LVL36
 4403 032e 06000000 		.4byte	.LVL37
 4404 0332 0300     		.2byte	0x3
 4405 0334 08       		.byte	0x8
 4406 0335 20       		.byte	0x20
 4407 0336 9F       		.byte	0x9f
 4408 0337 00000000 		.4byte	0
 4409 033b 00000000 		.4byte	0
 4410              	.LLST24:
 4411 033f 06000000 		.4byte	.LVL37
 4412 0343 12000000 		.4byte	.LVL38
 4413 0347 0100     		.2byte	0x1
 4414 0349 54       		.byte	0x54
 4415 034a 1A000000 		.4byte	.LVL40
 4416 034e 26000000 		.4byte	.LVL41
 4417 0352 0100     		.2byte	0x1
 4418 0354 54       		.byte	0x54
 4419 0355 3E000000 		.4byte	.LVL47
 4420 0359 4C000000 		.4byte	.LFE224
 4421 035d 0100     		.2byte	0x1
 4422 035f 54       		.byte	0x54
 4423 0360 00000000 		.4byte	0
 4424 0364 00000000 		.4byte	0
 4425              	.LLST25:
 4426 0368 06000000 		.4byte	.LVL37
 4427 036c 12000000 		.4byte	.LVL38
 4428 0370 0100     		.2byte	0x1
 4429 0372 50       		.byte	0x50
 4430 0373 1A000000 		.4byte	.LVL40
 4431 0377 2E000000 		.4byte	.LVL43
 4432 037b 0100     		.2byte	0x1
 4433 037d 50       		.byte	0x50
 4434 037e 2E000000 		.4byte	.LVL43
 4435 0382 35000000 		.4byte	.LVL45-1
 4436 0386 0100     		.2byte	0x1
 4437 0388 53       		.byte	0x53
 4438 0389 35000000 		.4byte	.LVL45-1
 4439 038d 36000000 		.4byte	.LVL45
 4440 0391 0400     		.2byte	0x4
 4441 0393 F3       		.byte	0xf3
 4442 0394 01       		.uleb128 0x1
 4443 0395 50       		.byte	0x50
 4444 0396 9F       		.byte	0x9f
 4445 0397 3E000000 		.4byte	.LVL47
 4446 039b 44000000 		.4byte	.LVL48
ARM GAS  C:\Users\IDONNO~1\AppData\Local\Temp\ccRF5WGp.s 			page 79


 4447 039f 0100     		.2byte	0x1
 4448 03a1 50       		.byte	0x50
 4449 03a2 44000000 		.4byte	.LVL48
 4450 03a6 4C000000 		.4byte	.LFE224
 4451 03aa 0400     		.2byte	0x4
 4452 03ac F3       		.byte	0xf3
 4453 03ad 01       		.uleb128 0x1
 4454 03ae 50       		.byte	0x50
 4455 03af 9F       		.byte	0x9f
 4456 03b0 00000000 		.4byte	0
 4457 03b4 00000000 		.4byte	0
 4458              	.LLST26:
 4459 03b8 28000000 		.4byte	.LVL42
 4460 03bc 35000000 		.4byte	.LVL45-1
 4461 03c0 0100     		.2byte	0x1
 4462 03c2 53       		.byte	0x53
 4463 03c3 35000000 		.4byte	.LVL45-1
 4464 03c7 36000000 		.4byte	.LVL45
 4465 03cb 0400     		.2byte	0x4
 4466 03cd F3       		.byte	0xf3
 4467 03ce 01       		.uleb128 0x1
 4468 03cf 50       		.byte	0x50
 4469 03d0 9F       		.byte	0x9f
 4470 03d1 00000000 		.4byte	0
 4471 03d5 00000000 		.4byte	0
 4472              	.LLST27:
 4473 03d9 28000000 		.4byte	.LVL42
 4474 03dd 32000000 		.4byte	.LVL44
 4475 03e1 0100     		.2byte	0x1
 4476 03e3 53       		.byte	0x53
 4477 03e4 00000000 		.4byte	0
 4478 03e8 00000000 		.4byte	0
 4479              	.LLST28:
 4480 03ec 28000000 		.4byte	.LVL42
 4481 03f0 32000000 		.4byte	.LVL44
 4482 03f4 0100     		.2byte	0x1
 4483 03f6 52       		.byte	0x52
 4484 03f7 00000000 		.4byte	0
 4485 03fb 00000000 		.4byte	0
 4486              	.LLST29:
 4487 03ff 12000000 		.4byte	.LVL38
 4488 0403 18000000 		.4byte	.LVL39
 4489 0407 0200     		.2byte	0x2
 4490 0409 30       		.byte	0x30
 4491 040a 9F       		.byte	0x9f
 4492 040b 36000000 		.4byte	.LVL45
 4493 040f 3C000000 		.4byte	.LVL46
 4494 0413 0200     		.2byte	0x2
 4495 0415 30       		.byte	0x30
 4496 0416 9F       		.byte	0x9f
 4497 0417 00000000 		.4byte	0
 4498 041b 00000000 		.4byte	0
 4499              	.LLST30:
 4500 041f 00000000 		.4byte	.LVL49
 4501 0423 04000000 		.4byte	.LVL50
 4502 0427 0100     		.2byte	0x1
 4503 0429 50       		.byte	0x50
ARM GAS  C:\Users\IDONNO~1\AppData\Local\Temp\ccRF5WGp.s 			page 80


 4504 042a 04000000 		.4byte	.LVL50
 4505 042e 2D000000 		.4byte	.LVL54-1
 4506 0432 0100     		.2byte	0x1
 4507 0434 53       		.byte	0x53
 4508 0435 2D000000 		.4byte	.LVL54-1
 4509 0439 2E000000 		.4byte	.LVL54
 4510 043d 0400     		.2byte	0x4
 4511 043f F3       		.byte	0xf3
 4512 0440 01       		.uleb128 0x1
 4513 0441 50       		.byte	0x50
 4514 0442 9F       		.byte	0x9f
 4515 0443 2E000000 		.4byte	.LVL54
 4516 0447 40000000 		.4byte	.LFE225
 4517 044b 0100     		.2byte	0x1
 4518 044d 53       		.byte	0x53
 4519 044e 00000000 		.4byte	0
 4520 0452 00000000 		.4byte	0
 4521              	.LLST31:
 4522 0456 00000000 		.4byte	.LVL49
 4523 045a 2D000000 		.4byte	.LVL54-1
 4524 045e 0100     		.2byte	0x1
 4525 0460 51       		.byte	0x51
 4526 0461 2D000000 		.4byte	.LVL54-1
 4527 0465 2E000000 		.4byte	.LVL54
 4528 0469 0400     		.2byte	0x4
 4529 046b F3       		.byte	0xf3
 4530 046c 01       		.uleb128 0x1
 4531 046d 51       		.byte	0x51
 4532 046e 9F       		.byte	0x9f
 4533 046f 2E000000 		.4byte	.LVL54
 4534 0473 40000000 		.4byte	.LFE225
 4535 0477 0100     		.2byte	0x1
 4536 0479 51       		.byte	0x51
 4537 047a 00000000 		.4byte	0
 4538 047e 00000000 		.4byte	0
 4539              	.LLST32:
 4540 0482 14000000 		.4byte	.LVL51
 4541 0486 2D000000 		.4byte	.LVL54-1
 4542 048a 0100     		.2byte	0x1
 4543 048c 53       		.byte	0x53
 4544 048d 2D000000 		.4byte	.LVL54-1
 4545 0491 2E000000 		.4byte	.LVL54
 4546 0495 0400     		.2byte	0x4
 4547 0497 F3       		.byte	0xf3
 4548 0498 01       		.uleb128 0x1
 4549 0499 50       		.byte	0x50
 4550 049a 9F       		.byte	0x9f
 4551 049b 00000000 		.4byte	0
 4552 049f 00000000 		.4byte	0
 4553              	.LLST33:
 4554 04a3 1A000000 		.4byte	.LVL52
 4555 04a7 26000000 		.4byte	.LVL53
 4556 04ab 0100     		.2byte	0x1
 4557 04ad 53       		.byte	0x53
 4558 04ae 00000000 		.4byte	0
 4559 04b2 00000000 		.4byte	0
 4560              	.LLST34:
ARM GAS  C:\Users\IDONNO~1\AppData\Local\Temp\ccRF5WGp.s 			page 81


 4561 04b6 1A000000 		.4byte	.LVL52
 4562 04ba 26000000 		.4byte	.LVL53
 4563 04be 0100     		.2byte	0x1
 4564 04c0 52       		.byte	0x52
 4565 04c1 00000000 		.4byte	0
 4566 04c5 00000000 		.4byte	0
 4567              	.LLST35:
 4568 04c9 00000000 		.4byte	.LVL55
 4569 04cd 1E000000 		.4byte	.LVL60
 4570 04d1 0100     		.2byte	0x1
 4571 04d3 50       		.byte	0x50
 4572 04d4 1E000000 		.4byte	.LVL60
 4573 04d8 29000000 		.4byte	.LVL62-1
 4574 04dc 0100     		.2byte	0x1
 4575 04de 53       		.byte	0x53
 4576 04df 29000000 		.4byte	.LVL62-1
 4577 04e3 32000000 		.4byte	.LFE226
 4578 04e7 0400     		.2byte	0x4
 4579 04e9 F3       		.byte	0xf3
 4580 04ea 01       		.uleb128 0x1
 4581 04eb 50       		.byte	0x50
 4582 04ec 9F       		.byte	0x9f
 4583 04ed 00000000 		.4byte	0
 4584 04f1 00000000 		.4byte	0
 4585              	.LLST36:
 4586 04f5 00000000 		.4byte	.LVL55
 4587 04f9 08000000 		.4byte	.LVL56
 4588 04fd 0300     		.2byte	0x3
 4589 04ff 08       		.byte	0x8
 4590 0500 20       		.byte	0x20
 4591 0501 9F       		.byte	0x9f
 4592 0502 00000000 		.4byte	0
 4593 0506 00000000 		.4byte	0
 4594              	.LLST37:
 4595 050a 12000000 		.4byte	.LVL57
 4596 050e 18000000 		.4byte	.LVL58
 4597 0512 0200     		.2byte	0x2
 4598 0514 30       		.byte	0x30
 4599 0515 9F       		.byte	0x9f
 4600 0516 2A000000 		.4byte	.LVL62
 4601 051a 30000000 		.4byte	.LVL63
 4602 051e 0200     		.2byte	0x2
 4603 0520 30       		.byte	0x30
 4604 0521 9F       		.byte	0x9f
 4605 0522 00000000 		.4byte	0
 4606 0526 00000000 		.4byte	0
 4607              	.LLST38:
 4608 052a 1C000000 		.4byte	.LVL59
 4609 052e 26000000 		.4byte	.LVL61
 4610 0532 0100     		.2byte	0x1
 4611 0534 53       		.byte	0x53
 4612 0535 00000000 		.4byte	0
 4613 0539 00000000 		.4byte	0
 4614              	.LLST39:
 4615 053d 1E000000 		.4byte	.LVL60
 4616 0541 26000000 		.4byte	.LVL61
 4617 0545 0100     		.2byte	0x1
ARM GAS  C:\Users\IDONNO~1\AppData\Local\Temp\ccRF5WGp.s 			page 82


 4618 0547 50       		.byte	0x50
 4619 0548 00000000 		.4byte	0
 4620 054c 00000000 		.4byte	0
 4621              	.LLST40:
 4622 0550 00000000 		.4byte	.LVL64
 4623 0554 18000000 		.4byte	.LVL68
 4624 0558 0100     		.2byte	0x1
 4625 055a 50       		.byte	0x50
 4626 055b 18000000 		.4byte	.LVL68
 4627 055f 1A000000 		.4byte	.LVL69
 4628 0563 0200     		.2byte	0x2
 4629 0565 72       		.byte	0x72
 4630 0566 04       		.sleb128 4
 4631 0567 1A000000 		.4byte	.LVL69
 4632 056b 1E000000 		.4byte	.LFE227
 4633 056f 0400     		.2byte	0x4
 4634 0571 F3       		.byte	0xf3
 4635 0572 01       		.uleb128 0x1
 4636 0573 50       		.byte	0x50
 4637 0574 9F       		.byte	0x9f
 4638 0575 00000000 		.4byte	0
 4639 0579 00000000 		.4byte	0
 4640              	.LLST41:
 4641 057d 0C000000 		.4byte	.LVL65
 4642 0581 16000000 		.4byte	.LVL67
 4643 0585 0100     		.2byte	0x1
 4644 0587 50       		.byte	0x50
 4645 0588 00000000 		.4byte	0
 4646 058c 00000000 		.4byte	0
 4647              	.LLST42:
 4648 0590 0E000000 		.4byte	.LVL66
 4649 0594 16000000 		.4byte	.LVL67
 4650 0598 0100     		.2byte	0x1
 4651 059a 53       		.byte	0x53
 4652 059b 00000000 		.4byte	0
 4653 059f 00000000 		.4byte	0
 4654              	.LLST43:
 4655 05a3 00000000 		.4byte	.LVL71
 4656 05a7 0C000000 		.4byte	.LVL72
 4657 05ab 0100     		.2byte	0x1
 4658 05ad 50       		.byte	0x50
 4659 05ae 0C000000 		.4byte	.LVL72
 4660 05b2 2C000000 		.4byte	.LVL81
 4661 05b6 0100     		.2byte	0x1
 4662 05b8 55       		.byte	0x55
 4663 05b9 2C000000 		.4byte	.LVL81
 4664 05bd 2E000000 		.4byte	.LFE228
 4665 05c1 0400     		.2byte	0x4
 4666 05c3 F3       		.byte	0xf3
 4667 05c4 01       		.uleb128 0x1
 4668 05c5 50       		.byte	0x50
 4669 05c6 9F       		.byte	0x9f
 4670 05c7 00000000 		.4byte	0
 4671 05cb 00000000 		.4byte	0
 4672              	.LLST44:
 4673 05cf 00000000 		.4byte	.LVL71
 4674 05d3 0C000000 		.4byte	.LVL72
ARM GAS  C:\Users\IDONNO~1\AppData\Local\Temp\ccRF5WGp.s 			page 83


 4675 05d7 0100     		.2byte	0x1
 4676 05d9 51       		.byte	0x51
 4677 05da 0C000000 		.4byte	.LVL72
 4678 05de 0E000000 		.4byte	.LVL73
 4679 05e2 0300     		.2byte	0x3
 4680 05e4 74       		.byte	0x74
 4681 05e5 7F       		.sleb128 -1
 4682 05e6 9F       		.byte	0x9f
 4683 05e7 0E000000 		.4byte	.LVL73
 4684 05eb 28000000 		.4byte	.LVL79
 4685 05ef 0100     		.2byte	0x1
 4686 05f1 54       		.byte	0x54
 4687 05f2 28000000 		.4byte	.LVL79
 4688 05f6 2A000000 		.4byte	.LVL80
 4689 05fa 0300     		.2byte	0x3
 4690 05fc 74       		.byte	0x74
 4691 05fd 01       		.sleb128 1
 4692 05fe 9F       		.byte	0x9f
 4693 05ff 00000000 		.4byte	0
 4694 0603 00000000 		.4byte	0
 4695              	.LLST45:
 4696 0607 1A000000 		.4byte	.LVL75
 4697 060b 22000000 		.4byte	.LVL77
 4698 060f 0100     		.2byte	0x1
 4699 0611 55       		.byte	0x55
 4700 0612 00000000 		.4byte	0
 4701 0616 00000000 		.4byte	0
 4702              	.LLST46:
 4703 061a 1C000000 		.4byte	.LVL76
 4704 061e 22000000 		.4byte	.LVL77
 4705 0622 0100     		.2byte	0x1
 4706 0624 50       		.byte	0x50
 4707 0625 00000000 		.4byte	0
 4708 0629 00000000 		.4byte	0
 4709              	.LLST47:
 4710 062d 00000000 		.4byte	.LVL82
 4711 0631 14000000 		.4byte	.LVL84
 4712 0635 0100     		.2byte	0x1
 4713 0637 50       		.byte	0x50
 4714 0638 14000000 		.4byte	.LVL84
 4715 063c 50000000 		.4byte	.LVL94
 4716 0640 0400     		.2byte	0x4
 4717 0642 F3       		.byte	0xf3
 4718 0643 01       		.uleb128 0x1
 4719 0644 50       		.byte	0x50
 4720 0645 9F       		.byte	0x9f
 4721 0646 50000000 		.4byte	.LVL94
 4722 064a 54000000 		.4byte	.LVL95
 4723 064e 0100     		.2byte	0x1
 4724 0650 50       		.byte	0x50
 4725 0651 54000000 		.4byte	.LVL95
 4726 0655 5F000000 		.4byte	.LVL98-1
 4727 0659 0100     		.2byte	0x1
 4728 065b 52       		.byte	0x52
 4729 065c 5F000000 		.4byte	.LVL98-1
 4730 0660 6C000000 		.4byte	.LFE229
 4731 0664 0400     		.2byte	0x4
ARM GAS  C:\Users\IDONNO~1\AppData\Local\Temp\ccRF5WGp.s 			page 84


 4732 0666 F3       		.byte	0xf3
 4733 0667 01       		.uleb128 0x1
 4734 0668 50       		.byte	0x50
 4735 0669 9F       		.byte	0x9f
 4736 066a 00000000 		.4byte	0
 4737 066e 00000000 		.4byte	0
 4738              	.LLST48:
 4739 0672 00000000 		.4byte	.LVL82
 4740 0676 14000000 		.4byte	.LVL84
 4741 067a 0100     		.2byte	0x1
 4742 067c 51       		.byte	0x51
 4743 067d 14000000 		.4byte	.LVL84
 4744 0681 50000000 		.4byte	.LVL94
 4745 0685 0400     		.2byte	0x4
 4746 0687 F3       		.byte	0xf3
 4747 0688 01       		.uleb128 0x1
 4748 0689 51       		.byte	0x51
 4749 068a 9F       		.byte	0x9f
 4750 068b 50000000 		.4byte	.LVL94
 4751 068f 5F000000 		.4byte	.LVL98-1
 4752 0693 0100     		.2byte	0x1
 4753 0695 51       		.byte	0x51
 4754 0696 5F000000 		.4byte	.LVL98-1
 4755 069a 6C000000 		.4byte	.LFE229
 4756 069e 0200     		.2byte	0x2
 4757 06a0 91       		.byte	0x91
 4758 06a1 74       		.sleb128 -12
 4759 06a2 00000000 		.4byte	0
 4760 06a6 00000000 		.4byte	0
 4761              	.LLST49:
 4762 06aa 22000000 		.4byte	.LVL85
 4763 06ae 24000000 		.4byte	.LVL86
 4764 06b2 0200     		.2byte	0x2
 4765 06b4 30       		.byte	0x30
 4766 06b5 9F       		.byte	0x9f
 4767 06b6 24000000 		.4byte	.LVL86
 4768 06ba 2E000000 		.4byte	.LVL88
 4769 06be 0100     		.2byte	0x1
 4770 06c0 50       		.byte	0x50
 4771 06c1 46000000 		.4byte	.LVL92
 4772 06c5 50000000 		.4byte	.LVL94
 4773 06c9 0100     		.2byte	0x1
 4774 06cb 50       		.byte	0x50
 4775 06cc 00000000 		.4byte	0
 4776 06d0 00000000 		.4byte	0
 4777              	.LLST50:
 4778 06d4 00000000 		.4byte	.LVL82
 4779 06d8 0A000000 		.4byte	.LVL83
 4780 06dc 0300     		.2byte	0x3
 4781 06de 08       		.byte	0x8
 4782 06df 20       		.byte	0x20
 4783 06e0 9F       		.byte	0x9f
 4784 06e1 00000000 		.4byte	0
 4785 06e5 00000000 		.4byte	0
 4786              	.LLST51:
 4787 06e9 24000000 		.4byte	.LVL86
 4788 06ed 2A000000 		.4byte	.LVL87
ARM GAS  C:\Users\IDONNO~1\AppData\Local\Temp\ccRF5WGp.s 			page 85


 4789 06f1 0200     		.2byte	0x2
 4790 06f3 30       		.byte	0x30
 4791 06f4 9F       		.byte	0x9f
 4792 06f5 46000000 		.4byte	.LVL92
 4793 06f9 4C000000 		.4byte	.LVL93
 4794 06fd 0200     		.2byte	0x2
 4795 06ff 30       		.byte	0x30
 4796 0700 9F       		.byte	0x9f
 4797 0701 00000000 		.4byte	0
 4798 0705 00000000 		.4byte	0
 4799              	.LLST52:
 4800 0709 34000000 		.4byte	.LVL89
 4801 070d 50000000 		.4byte	.LVL94
 4802 0711 0100     		.2byte	0x1
 4803 0713 54       		.byte	0x54
 4804 0714 00000000 		.4byte	0
 4805 0718 00000000 		.4byte	0
 4806              	.LLST53:
 4807 071c 34000000 		.4byte	.LVL89
 4808 0720 3E000000 		.4byte	.LVL90
 4809 0724 0100     		.2byte	0x1
 4810 0726 51       		.byte	0x51
 4811 0727 00000000 		.4byte	0
 4812 072b 00000000 		.4byte	0
 4813              	.LLST54:
 4814 072f 34000000 		.4byte	.LVL89
 4815 0733 3E000000 		.4byte	.LVL90
 4816 0737 0100     		.2byte	0x1
 4817 0739 54       		.byte	0x54
 4818 073a 00000000 		.4byte	0
 4819 073e 00000000 		.4byte	0
 4820              	.LLST55:
 4821 0742 56000000 		.4byte	.LVL96
 4822 0746 5C000000 		.4byte	.LVL97
 4823 074a 0100     		.2byte	0x1
 4824 074c 50       		.byte	0x50
 4825 074d 00000000 		.4byte	0
 4826 0751 00000000 		.4byte	0
 4827              		.section	.debug_aranges,"",%progbits
 4828 0000 6C000000 		.4byte	0x6c
 4829 0004 0200     		.2byte	0x2
 4830 0006 00000000 		.4byte	.Ldebug_info0
 4831 000a 04       		.byte	0x4
 4832 000b 00       		.byte	0
 4833 000c 0000     		.2byte	0
 4834 000e 0000     		.2byte	0
 4835 0010 00000000 		.4byte	.LFB219
 4836 0014 08000000 		.4byte	.LFE219-.LFB219
 4837 0018 00000000 		.4byte	.LFB221
 4838 001c 28000000 		.4byte	.LFE221-.LFB221
 4839 0020 00000000 		.4byte	.LFB220
 4840 0024 18000000 		.4byte	.LFE220-.LFB220
 4841 0028 00000000 		.4byte	.LFB222
 4842 002c 44000000 		.4byte	.LFE222-.LFB222
 4843 0030 00000000 		.4byte	.LFB223
 4844 0034 34000000 		.4byte	.LFE223-.LFB223
 4845 0038 00000000 		.4byte	.LFB224
ARM GAS  C:\Users\IDONNO~1\AppData\Local\Temp\ccRF5WGp.s 			page 86


 4846 003c 4C000000 		.4byte	.LFE224-.LFB224
 4847 0040 00000000 		.4byte	.LFB225
 4848 0044 40000000 		.4byte	.LFE225-.LFB225
 4849 0048 00000000 		.4byte	.LFB226
 4850 004c 32000000 		.4byte	.LFE226-.LFB226
 4851 0050 00000000 		.4byte	.LFB227
 4852 0054 1E000000 		.4byte	.LFE227-.LFB227
 4853 0058 00000000 		.4byte	.LFB228
 4854 005c 2E000000 		.4byte	.LFE228-.LFB228
 4855 0060 00000000 		.4byte	.LFB229
 4856 0064 6C000000 		.4byte	.LFE229-.LFB229
 4857 0068 00000000 		.4byte	0
 4858 006c 00000000 		.4byte	0
 4859              		.section	.debug_ranges,"",%progbits
 4860              	.Ldebug_ranges0:
 4861 0000 06000000 		.4byte	.LBB124
 4862 0004 12000000 		.4byte	.LBE124
 4863 0008 1C000000 		.4byte	.LBB142
 4864 000c 38000000 		.4byte	.LBE142
 4865 0010 00000000 		.4byte	0
 4866 0014 00000000 		.4byte	0
 4867 0018 22000000 		.4byte	.LBB128
 4868 001c 2C000000 		.4byte	.LBE128
 4869 0020 2E000000 		.4byte	.LBB131
 4870 0024 30000000 		.4byte	.LBE131
 4871 0028 00000000 		.4byte	0
 4872 002c 00000000 		.4byte	0
 4873 0030 12000000 		.4byte	.LBB133
 4874 0034 18000000 		.4byte	.LBE133
 4875 0038 38000000 		.4byte	.LBB143
 4876 003c 3E000000 		.4byte	.LBE143
 4877 0040 00000000 		.4byte	0
 4878 0044 00000000 		.4byte	0
 4879 0048 16000000 		.4byte	.LBB150
 4880 004c 20000000 		.4byte	.LBE150
 4881 0050 22000000 		.4byte	.LBB153
 4882 0054 24000000 		.4byte	.LBE153
 4883 0058 00000000 		.4byte	0
 4884 005c 00000000 		.4byte	0
 4885 0060 06000000 		.4byte	.LBB173
 4886 0064 12000000 		.4byte	.LBE173
 4887 0068 1C000000 		.4byte	.LBB192
 4888 006c 36000000 		.4byte	.LBE192
 4889 0070 3E000000 		.4byte	.LBB194
 4890 0074 4C000000 		.4byte	.LBE194
 4891 0078 00000000 		.4byte	0
 4892 007c 00000000 		.4byte	0
 4893 0080 24000000 		.4byte	.LBB177
 4894 0084 2C000000 		.4byte	.LBE177
 4895 0088 2E000000 		.4byte	.LBB180
 4896 008c 32000000 		.4byte	.LBE180
 4897 0090 00000000 		.4byte	0
 4898 0094 00000000 		.4byte	0
 4899 0098 12000000 		.4byte	.LBB183
 4900 009c 18000000 		.4byte	.LBE183
 4901 00a0 36000000 		.4byte	.LBB193
 4902 00a4 3C000000 		.4byte	.LBE193
ARM GAS  C:\Users\IDONNO~1\AppData\Local\Temp\ccRF5WGp.s 			page 87


 4903 00a8 00000000 		.4byte	0
 4904 00ac 00000000 		.4byte	0
 4905 00b0 14000000 		.4byte	.LBB199
 4906 00b4 26000000 		.4byte	.LBE199
 4907 00b8 2A000000 		.4byte	.LBB206
 4908 00bc 2E000000 		.4byte	.LBE206
 4909 00c0 00000000 		.4byte	0
 4910 00c4 00000000 		.4byte	0
 4911 00c8 1A000000 		.4byte	.LBB201
 4912 00cc 1C000000 		.4byte	.LBE201
 4913 00d0 1E000000 		.4byte	.LBB204
 4914 00d4 26000000 		.4byte	.LBE204
 4915 00d8 00000000 		.4byte	0
 4916 00dc 00000000 		.4byte	0
 4917 00e0 12000000 		.4byte	.LBB211
 4918 00e4 1C000000 		.4byte	.LBE211
 4919 00e8 2A000000 		.4byte	.LBB224
 4920 00ec 32000000 		.4byte	.LBE224
 4921 00f0 00000000 		.4byte	0
 4922 00f4 00000000 		.4byte	0
 4923 00f8 1C000000 		.4byte	.LBB220
 4924 00fc 22000000 		.4byte	.LBE220
 4925 0100 24000000 		.4byte	.LBB223
 4926 0104 26000000 		.4byte	.LBE223
 4927 0108 00000000 		.4byte	0
 4928 010c 00000000 		.4byte	0
 4929 0110 0C000000 		.4byte	.LBB226
 4930 0114 12000000 		.4byte	.LBE226
 4931 0118 14000000 		.4byte	.LBB229
 4932 011c 16000000 		.4byte	.LBE229
 4933 0120 00000000 		.4byte	0
 4934 0124 00000000 		.4byte	0
 4935 0128 02000000 		.4byte	.LBB232
 4936 012c 04000000 		.4byte	.LBE232
 4937 0130 06000000 		.4byte	.LBB239
 4938 0134 0A000000 		.4byte	.LBE239
 4939 0138 00000000 		.4byte	0
 4940 013c 00000000 		.4byte	0
 4941 0140 24000000 		.4byte	.LBB240
 4942 0144 2A000000 		.4byte	.LBE240
 4943 0148 46000000 		.4byte	.LBB254
 4944 014c 4C000000 		.4byte	.LBE254
 4945 0150 00000000 		.4byte	0
 4946 0154 00000000 		.4byte	0
 4947 0158 30000000 		.4byte	.LBB250
 4948 015c 32000000 		.4byte	.LBE250
 4949 0160 36000000 		.4byte	.LBB253
 4950 0164 3E000000 		.4byte	.LBE253
 4951 0168 00000000 		.4byte	0
 4952 016c 00000000 		.4byte	0
 4953 0170 00000000 		.4byte	.LFB219
 4954 0174 08000000 		.4byte	.LFE219
 4955 0178 00000000 		.4byte	.LFB221
 4956 017c 28000000 		.4byte	.LFE221
 4957 0180 00000000 		.4byte	.LFB220
 4958 0184 18000000 		.4byte	.LFE220
 4959 0188 00000000 		.4byte	.LFB222
ARM GAS  C:\Users\IDONNO~1\AppData\Local\Temp\ccRF5WGp.s 			page 88


 4960 018c 44000000 		.4byte	.LFE222
 4961 0190 00000000 		.4byte	.LFB223
 4962 0194 34000000 		.4byte	.LFE223
 4963 0198 00000000 		.4byte	.LFB224
 4964 019c 4C000000 		.4byte	.LFE224
 4965 01a0 00000000 		.4byte	.LFB225
 4966 01a4 40000000 		.4byte	.LFE225
 4967 01a8 00000000 		.4byte	.LFB226
 4968 01ac 32000000 		.4byte	.LFE226
 4969 01b0 00000000 		.4byte	.LFB227
 4970 01b4 1E000000 		.4byte	.LFE227
 4971 01b8 00000000 		.4byte	.LFB228
 4972 01bc 2E000000 		.4byte	.LFE228
 4973 01c0 00000000 		.4byte	.LFB229
 4974 01c4 6C000000 		.4byte	.LFE229
 4975 01c8 00000000 		.4byte	0
 4976 01cc 00000000 		.4byte	0
 4977              		.section	.debug_line,"",%progbits
 4978              	.Ldebug_line0:
 4979 0000 C9040000 		.section	.debug_str,"MS",%progbits,1
 4979      02003302 
 4979      00000201 
 4979      FB0E0D00 
 4979      01010101 
 4980              	.LASF53:
 4981 0000 72656164 		.ascii	"ready_list_t\000"
 4981      795F6C69 
 4981      73745F74 
 4981      00
 4982              	.LASF113:
 4983 000d 71756575 		.ascii	"queue_insert\000"
 4983      655F696E 
 4983      73657274 
 4983      00
 4984              	.LASF125:
 4985 001a 63685365 		.ascii	"chSemSignalI\000"
 4985      6D536967 
 4985      6E616C49 
 4985      00
 4986              	.LASF91:
 4987 0027 77747472 		.ascii	"wttrp\000"
 4987      7000
 4988              	.LASF88:
 4989 002d 7264796D 		.ascii	"rdymsg\000"
 4989      736700
 4990              	.LASF16:
 4991 0034 75696E74 		.ascii	"uint64_t\000"
 4991      36345F74 
 4991      00
 4992              	.LASF5:
 4993 003d 5F5F7569 		.ascii	"__uint8_t\000"
 4993      6E74385F 
 4993      7400
 4994              	.LASF85:
 4995 0047 706F7274 		.ascii	"port_intctx\000"
 4995      5F696E74 
 4995      63747800 
ARM GAS  C:\Users\IDONNO~1\AppData\Local\Temp\ccRF5WGp.s 			page 89


 4996              	.LASF72:
 4997 0053 73797374 		.ascii	"system_debug_t\000"
 4997      656D5F64 
 4997      65627567 
 4997      5F7400
 4998              	.LASF108:
 4999 0062 71756575 		.ascii	"queue_init\000"
 4999      655F696E 
 4999      697400
 5000              	.LASF105:
 5001 006d 706F7274 		.ascii	"port_lock\000"
 5001      5F6C6F63 
 5001      6B00
 5002              	.LASF117:
 5003 0077 71756575 		.ascii	"queue_lifo_remove\000"
 5003      655F6C69 
 5003      666F5F72 
 5003      656D6F76 
 5003      6500
 5004              	.LASF136:
 5005 0089 443A5C67 		.ascii	"D:\\git\\oroca_bldc_dev\\oroca_bldc_FW\000"
 5005      69745C6F 
 5005      726F6361 
 5005      5F626C64 
 5005      635F6465 
 5006              	.LASF124:
 5007 00ad 63685365 		.ascii	"chSemSignal\000"
 5007      6D536967 
 5007      6E616C00 
 5008              	.LASF89:
 5009 00b9 65786974 		.ascii	"exitcode\000"
 5009      636F6465 
 5009      00
 5010              	.LASF79:
 5011 00c2 6D61696E 		.ascii	"mainthread\000"
 5011      74687265 
 5011      616400
 5012              	.LASF126:
 5013 00cd 63685365 		.ascii	"chSemAddCounterI\000"
 5013      6D416464 
 5013      436F756E 
 5013      74657249 
 5013      00
 5014              	.LASF128:
 5015 00de 49544D5F 		.ascii	"ITM_RxBuffer\000"
 5015      52784275 
 5015      66666572 
 5015      00
 5016              	.LASF52:
 5017 00eb 63685F74 		.ascii	"ch_threads_queue\000"
 5017      68726561 
 5017      64735F71 
 5017      75657565 
 5017      00
 5018              	.LASF30:
 5019 00fc 705F7072 		.ascii	"p_prio\000"
 5019      696F00
ARM GAS  C:\Users\IDONNO~1\AppData\Local\Temp\ccRF5WGp.s 			page 90


 5020              	.LASF10:
 5021 0103 6C6F6E67 		.ascii	"long long int\000"
 5021      206C6F6E 
 5021      6720696E 
 5021      7400
 5022              	.LASF1:
 5023 0111 7369676E 		.ascii	"signed char\000"
 5023      65642063 
 5023      68617200 
 5024              	.LASF127:
 5025 011d 63685365 		.ascii	"chSemSignalWait\000"
 5025      6D536967 
 5025      6E616C57 
 5025      61697400 
 5026              	.LASF46:
 5027 012d 705F6D70 		.ascii	"p_mpool\000"
 5027      6F6F6C00 
 5028              	.LASF12:
 5029 0135 6C6F6E67 		.ascii	"long long unsigned int\000"
 5029      206C6F6E 
 5029      6720756E 
 5029      7369676E 
 5029      65642069 
 5030              	.LASF99:
 5031 014c 6D5F7175 		.ascii	"m_queue\000"
 5031      65756500 
 5032              	.LASF78:
 5033 0154 76746C69 		.ascii	"vtlist\000"
 5033      737400
 5034              	.LASF106:
 5035 015b 706F7274 		.ascii	"port_unlock\000"
 5035      5F756E6C 
 5035      6F636B00 
 5036              	.LASF21:
 5037 0167 74736C69 		.ascii	"tslices_t\000"
 5037      6365735F 
 5037      7400
 5038              	.LASF76:
 5039 0171 63685F73 		.ascii	"ch_system\000"
 5039      79737465 
 5039      6D00
 5040              	.LASF7:
 5041 017b 6C6F6E67 		.ascii	"long int\000"
 5041      20696E74 
 5041      00
 5042              	.LASF19:
 5043 0184 74737461 		.ascii	"tstate_t\000"
 5043      74655F74 
 5043      00
 5044              	.LASF32:
 5045 018d 705F6E65 		.ascii	"p_newer\000"
 5045      77657200 
 5046              	.LASF96:
 5047 0195 735F7175 		.ascii	"s_queue\000"
 5047      65756500 
 5048              	.LASF130:
 5049 019d 63685363 		.ascii	"chSchRescheduleS\000"
ARM GAS  C:\Users\IDONNO~1\AppData\Local\Temp\ccRF5WGp.s 			page 91


 5049      68526573 
 5049      63686564 
 5049      756C6553 
 5049      00
 5050              	.LASF58:
 5051 01ae 725F6E65 		.ascii	"r_newer\000"
 5051      77657200 
 5052              	.LASF82:
 5053 01b6 72656761 		.ascii	"regarm_t\000"
 5053      726D5F74 
 5053      00
 5054              	.LASF65:
 5055 01bf 76745F70 		.ascii	"vt_prev\000"
 5055      72657600 
 5056              	.LASF104:
 5057 01c7 6D757465 		.ascii	"mutex_t\000"
 5057      785F7400 
 5058              	.LASF109:
 5059 01cf 76616C75 		.ascii	"value\000"
 5059      6500
 5060              	.LASF80:
 5061 01d5 69646C65 		.ascii	"idle_thread_wa\000"
 5061      5F746872 
 5061      6561645F 
 5061      776100
 5062              	.LASF119:
 5063 01e4 63685365 		.ascii	"chSemObjectInit\000"
 5063      6D4F626A 
 5063      65637449 
 5063      6E697400 
 5064              	.LASF25:
 5065 01f4 636E745F 		.ascii	"cnt_t\000"
 5065      7400
 5066              	.LASF0:
 5067 01fa 756E7369 		.ascii	"unsigned int\000"
 5067      676E6564 
 5067      20696E74 
 5067      00
 5068              	.LASF123:
 5069 0207 63685365 		.ascii	"chSemWaitTimeout\000"
 5069      6D576169 
 5069      7454696D 
 5069      656F7574 
 5069      00
 5070              	.LASF64:
 5071 0218 76745F6E 		.ascii	"vt_next\000"
 5071      65787400 
 5072              	.LASF39:
 5073 0220 705F7469 		.ascii	"p_time\000"
 5073      6D6500
 5074              	.LASF92:
 5075 0227 77747365 		.ascii	"wtsemp\000"
 5075      6D7000
 5076              	.LASF66:
 5077 022e 76745F64 		.ascii	"vt_delta\000"
 5077      656C7461 
 5077      00
ARM GAS  C:\Users\IDONNO~1\AppData\Local\Temp\ccRF5WGp.s 			page 92


 5078              	.LASF41:
 5079 0237 705F6D73 		.ascii	"p_msgqueue\000"
 5079      67717565 
 5079      756500
 5080              	.LASF121:
 5081 0242 63685365 		.ascii	"chSemReset\000"
 5081      6D526573 
 5081      657400
 5082              	.LASF97:
 5083 024d 735F636E 		.ascii	"s_cnt\000"
 5083      7400
 5084              	.LASF4:
 5085 0253 73686F72 		.ascii	"short unsigned int\000"
 5085      7420756E 
 5085      7369676E 
 5085      65642069 
 5085      6E7400
 5086              	.LASF49:
 5087 0266 63685F74 		.ascii	"ch_thread\000"
 5087      68726561 
 5087      6400
 5088              	.LASF133:
 5089 0270 63685363 		.ascii	"chSchWakeupS\000"
 5089      6857616B 
 5089      65757053 
 5089      00
 5090              	.LASF23:
 5091 027d 6D73675F 		.ascii	"msg_t\000"
 5091      7400
 5092              	.LASF75:
 5093 0283 63685F73 		.ascii	"ch_system_t\000"
 5093      79737465 
 5093      6D5F7400 
 5094              	.LASF18:
 5095 028f 746D6F64 		.ascii	"tmode_t\000"
 5095      655F7400 
 5096              	.LASF54:
 5097 0297 63685F72 		.ascii	"ch_ready_list\000"
 5097      65616479 
 5097      5F6C6973 
 5097      7400
 5098              	.LASF24:
 5099 02a5 6576656E 		.ascii	"eventmask_t\000"
 5099      746D6173 
 5099      6B5F7400 
 5100              	.LASF6:
 5101 02b1 5F5F696E 		.ascii	"__int32_t\000"
 5101      7433325F 
 5101      7400
 5102              	.LASF69:
 5103 02bb 76697274 		.ascii	"virtual_timers_list_t\000"
 5103      75616C5F 
 5103      74696D65 
 5103      72735F6C 
 5103      6973745F 
 5104              	.LASF83:
 5105 02d1 73746B61 		.ascii	"stkalign_t\000"
ARM GAS  C:\Users\IDONNO~1\AppData\Local\Temp\ccRF5WGp.s 			page 93


 5105      6C69676E 
 5105      5F7400
 5106              	.LASF135:
 5107 02dc 6C69622F 		.ascii	"lib/ChibiOS_3.0.2/os/rt/src/chsem.c\000"
 5107      43686962 
 5107      694F535F 
 5107      332E302E 
 5107      322F6F73 
 5108              	.LASF48:
 5109 0300 74687265 		.ascii	"threads_list_t\000"
 5109      6164735F 
 5109      6C697374 
 5109      5F7400
 5110              	.LASF40:
 5111 030f 705F7761 		.ascii	"p_waiting\000"
 5111      6974696E 
 5111      6700
 5112              	.LASF81:
 5113 0319 73697A65 		.ascii	"sizetype\000"
 5113      74797065 
 5113      00
 5114              	.LASF47:
 5115 0322 74687265 		.ascii	"thread_reference_t\000"
 5115      61645F72 
 5115      65666572 
 5115      656E6365 
 5115      5F7400
 5116              	.LASF70:
 5117 0335 63685F76 		.ascii	"ch_virtual_timers_list\000"
 5117      69727475 
 5117      616C5F74 
 5117      696D6572 
 5117      735F6C69 
 5118              	.LASF112:
 5119 034c 63685379 		.ascii	"chSysLock\000"
 5119      734C6F63 
 5119      6B00
 5120              	.LASF33:
 5121 0356 705F6F6C 		.ascii	"p_older\000"
 5121      64657200 
 5122              	.LASF57:
 5123 035e 725F6374 		.ascii	"r_ctx\000"
 5123      7800
 5124              	.LASF87:
 5125 0364 746D5F63 		.ascii	"tm_calibration_t\000"
 5125      616C6962 
 5125      72617469 
 5125      6F6E5F74 
 5125      00
 5126              	.LASF101:
 5127 0375 6D5F6E65 		.ascii	"m_next\000"
 5127      787400
 5128              	.LASF116:
 5129 037c 74696D65 		.ascii	"time\000"
 5129      00
 5130              	.LASF60:
 5131 0381 725F6375 		.ascii	"r_current\000"
ARM GAS  C:\Users\IDONNO~1\AppData\Local\Temp\ccRF5WGp.s 			page 94


 5131      7272656E 
 5131      7400
 5132              	.LASF59:
 5133 038b 725F6F6C 		.ascii	"r_older\000"
 5133      64657200 
 5134              	.LASF11:
 5135 0393 5F5F7569 		.ascii	"__uint64_t\000"
 5135      6E743634 
 5135      5F7400
 5136              	.LASF20:
 5137 039e 74726566 		.ascii	"trefs_t\000"
 5137      735F7400 
 5138              	.LASF62:
 5139 03a6 76697274 		.ascii	"virtual_timer_t\000"
 5139      75616C5F 
 5139      74696D65 
 5139      725F7400 
 5140              	.LASF29:
 5141 03b6 705F7072 		.ascii	"p_prev\000"
 5141      657600
 5142              	.LASF22:
 5143 03bd 74707269 		.ascii	"tprio_t\000"
 5143      6F5F7400 
 5144              	.LASF73:
 5145 03c5 63685F73 		.ascii	"ch_system_debug\000"
 5145      79737465 
 5145      6D5F6465 
 5145      62756700 
 5146              	.LASF14:
 5147 03d5 696E7433 		.ascii	"int32_t\000"
 5147      325F7400 
 5148              	.LASF2:
 5149 03dd 756E7369 		.ascii	"unsigned char\000"
 5149      676E6564 
 5149      20636861 
 5149      7200
 5150              	.LASF44:
 5151 03eb 705F6D74 		.ascii	"p_mtxlist\000"
 5151      786C6973 
 5151      7400
 5152              	.LASF3:
 5153 03f5 73686F72 		.ascii	"short int\000"
 5153      7420696E 
 5153      7400
 5154              	.LASF35:
 5155 03ff 705F7374 		.ascii	"p_state\000"
 5155      61746500 
 5156              	.LASF38:
 5157 0407 705F7072 		.ascii	"p_preempt\000"
 5157      65656D70 
 5157      7400
 5158              	.LASF56:
 5159 0411 725F7072 		.ascii	"r_prio\000"
 5159      696F00
 5160              	.LASF94:
 5161 0418 65776D61 		.ascii	"ewmask\000"
 5161      736B00
ARM GAS  C:\Users\IDONNO~1\AppData\Local\Temp\ccRF5WGp.s 			page 95


 5162              	.LASF28:
 5163 041f 705F6E65 		.ascii	"p_next\000"
 5163      787400
 5164              	.LASF36:
 5165 0426 705F666C 		.ascii	"p_flags\000"
 5165      61677300 
 5166              	.LASF111:
 5167 042e 5F5F6675 		.ascii	"__func__\000"
 5167      6E635F5F 
 5167      00
 5168              	.LASF114:
 5169 0437 63685365 		.ascii	"chSemWaitS\000"
 5169      6D576169 
 5169      745300
 5170              	.LASF103:
 5171 0442 73656D61 		.ascii	"semaphore_t\000"
 5171      70686F72 
 5171      655F7400 
 5172              	.LASF63:
 5173 044e 63685F76 		.ascii	"ch_virtual_timer\000"
 5173      69727475 
 5173      616C5F74 
 5173      696D6572 
 5173      00
 5174              	.LASF95:
 5175 045f 63685F73 		.ascii	"ch_semaphore\000"
 5175      656D6170 
 5175      686F7265 
 5175      00
 5176              	.LASF131:
 5177 046c 63685363 		.ascii	"chSchGoSleepS\000"
 5177      68476F53 
 5177      6C656570 
 5177      5300
 5178              	.LASF43:
 5179 047a 705F6570 		.ascii	"p_epending\000"
 5179      656E6469 
 5179      6E6700
 5180              	.LASF15:
 5181 0485 75696E74 		.ascii	"uint32_t\000"
 5181      33325F74 
 5181      00
 5182              	.LASF93:
 5183 048e 77746D74 		.ascii	"wtmtxp\000"
 5183      787000
 5184              	.LASF55:
 5185 0495 725F7175 		.ascii	"r_queue\000"
 5185      65756500 
 5186              	.LASF129:
 5187 049d 63685363 		.ascii	"chSchReadyI\000"
 5187      68526561 
 5187      64794900 
 5188              	.LASF50:
 5189 04a9 63685F74 		.ascii	"ch_threads_list\000"
 5189      68726561 
 5189      64735F6C 
 5189      69737400 
ARM GAS  C:\Users\IDONNO~1\AppData\Local\Temp\ccRF5WGp.s 			page 96


 5190              	.LASF9:
 5191 04b9 6C6F6E67 		.ascii	"long unsigned int\000"
 5191      20756E73 
 5191      69676E65 
 5191      6420696E 
 5191      7400
 5192              	.LASF102:
 5193 04cb 63686172 		.ascii	"char\000"
 5193      00
 5194              	.LASF134:
 5195 04d0 474E5520 		.ascii	"GNU C99 5.2.1 20151202 (release) [ARM/embedded-5-br"
 5195      43393920 
 5195      352E322E 
 5195      31203230 
 5195      31353132 
 5196 0503 616E6368 		.ascii	"anch revision 231848] -mcpu=cortex-m4 -mfloat-abi=h"
 5196      20726576 
 5196      6973696F 
 5196      6E203233 
 5196      31383438 
 5197 0536 61726420 		.ascii	"ard -mfpu=fpv4-sp-d16 -mno-thumb-interwork -mthumb "
 5197      2D6D6670 
 5197      753D6670 
 5197      76342D73 
 5197      702D6431 
 5198 0569 2D676764 		.ascii	"-ggdb -O2 -std=gnu99 -fomit-frame-pointer -falign-f"
 5198      62202D4F 
 5198      32202D73 
 5198      74643D67 
 5198      6E753939 
 5199 059c 756E6374 		.ascii	"unctions=16 -ffunction-sections -fdata-sections -fn"
 5199      696F6E73 
 5199      3D313620 
 5199      2D666675 
 5199      6E637469 
 5200 05cf 6F2D636F 		.ascii	"o-common -fsingle-precision-constant\000"
 5200      6D6D6F6E 
 5200      202D6673 
 5200      696E676C 
 5200      652D7072 
 5201              	.LASF115:
 5202 05f4 63685365 		.ascii	"chSemWaitTimeoutS\000"
 5202      6D576169 
 5202      7454696D 
 5202      656F7574 
 5202      5300
 5203              	.LASF27:
 5204 0606 74687265 		.ascii	"thread_t\000"
 5204      61645F74 
 5204      00
 5205              	.LASF118:
 5206 060f 71756575 		.ascii	"queue_fifo_remove\000"
 5206      655F6669 
 5206      666F5F72 
 5206      656D6F76 
 5206      6500
 5207              	.LASF26:
ARM GAS  C:\Users\IDONNO~1\AppData\Local\Temp\ccRF5WGp.s 			page 97


 5208 0621 73797374 		.ascii	"systime_t\000"
 5208      696D655F 
 5208      7400
 5209              	.LASF45:
 5210 062b 705F7265 		.ascii	"p_realprio\000"
 5210      616C7072 
 5210      696F00
 5211              	.LASF61:
 5212 0636 76746675 		.ascii	"vtfunc_t\000"
 5212      6E635F74 
 5212      00
 5213              	.LASF8:
 5214 063f 5F5F7569 		.ascii	"__uint32_t\000"
 5214      6E743332 
 5214      5F7400
 5215              	.LASF107:
 5216 064a 5F5F7365 		.ascii	"__set_BASEPRI\000"
 5216      745F4241 
 5216      53455052 
 5216      4900
 5217              	.LASF122:
 5218 0658 63685365 		.ascii	"chSemWait\000"
 5218      6D576169 
 5218      7400
 5219              	.LASF74:
 5220 0662 70616E69 		.ascii	"panic_msg\000"
 5220      635F6D73 
 5220      6700
 5221              	.LASF86:
 5222 066c 6F666673 		.ascii	"offset\000"
 5222      657400
 5223              	.LASF84:
 5224 0673 636F6E74 		.ascii	"context\000"
 5224      65787400 
 5225              	.LASF17:
 5226 067b 7274636E 		.ascii	"rtcnt_t\000"
 5226      745F7400 
 5227              	.LASF68:
 5228 0683 76745F70 		.ascii	"vt_par\000"
 5228      617200
 5229              	.LASF51:
 5230 068a 74687265 		.ascii	"threads_queue_t\000"
 5230      6164735F 
 5230      71756575 
 5230      655F7400 
 5231              	.LASF98:
 5232 069a 63685F6D 		.ascii	"ch_mutex\000"
 5232      75746578 
 5232      00
 5233              	.LASF37:
 5234 06a3 705F7265 		.ascii	"p_refs\000"
 5234      667300
 5235              	.LASF120:
 5236 06aa 63685365 		.ascii	"chSemResetI\000"
 5236      6D526573 
 5236      65744900 
 5237              	.LASF77:
ARM GAS  C:\Users\IDONNO~1\AppData\Local\Temp\ccRF5WGp.s 			page 98


 5238 06b6 726C6973 		.ascii	"rlist\000"
 5238      7400
 5239              	.LASF13:
 5240 06bc 75696E74 		.ascii	"uint8_t\000"
 5240      385F7400 
 5241              	.LASF90:
 5242 06c4 77746F62 		.ascii	"wtobjp\000"
 5242      6A7000
 5243              	.LASF34:
 5244 06cb 705F6E61 		.ascii	"p_name\000"
 5244      6D6500
 5245              	.LASF71:
 5246 06d2 76745F73 		.ascii	"vt_systime\000"
 5246      79737469 
 5246      6D6500
 5247              	.LASF132:
 5248 06dd 63685363 		.ascii	"chSchGoSleepTimeoutS\000"
 5248      68476F53 
 5248      6C656570 
 5248      54696D65 
 5248      6F757453 
 5249              	.LASF110:
 5250 06f2 63685379 		.ascii	"chSysUnlock\000"
 5250      73556E6C 
 5250      6F636B00 
 5251              	.LASF42:
 5252 06fe 705F6D73 		.ascii	"p_msg\000"
 5252      6700
 5253              	.LASF100:
 5254 0704 6D5F6F77 		.ascii	"m_owner\000"
 5254      6E657200 
 5255              	.LASF31:
 5256 070c 705F6374 		.ascii	"p_ctx\000"
 5256      7800
 5257              	.LASF67:
 5258 0712 76745F66 		.ascii	"vt_func\000"
 5258      756E6300 
 5259              		.ident	"GCC: (GNU Tools for ARM Embedded Processors) 5.2.1 20151202 (release) [ARM/embedded-5-bran
ARM GAS  C:\Users\IDONNO~1\AppData\Local\Temp\ccRF5WGp.s 			page 99


DEFINED SYMBOLS
                            *ABS*:00000000 chsem.c
C:\Users\IDONNO~1\AppData\Local\Temp\ccRF5WGp.s:22     .text.chSemObjectInit:00000000 $t
C:\Users\IDONNO~1\AppData\Local\Temp\ccRF5WGp.s:28     .text.chSemObjectInit:00000000 chSemObjectInit
C:\Users\IDONNO~1\AppData\Local\Temp\ccRF5WGp.s:54     .text.chSemResetI:00000000 $t
C:\Users\IDONNO~1\AppData\Local\Temp\ccRF5WGp.s:60     .text.chSemResetI:00000000 chSemResetI
C:\Users\IDONNO~1\AppData\Local\Temp\ccRF5WGp.s:120    .text.chSemReset:00000000 $t
C:\Users\IDONNO~1\AppData\Local\Temp\ccRF5WGp.s:126    .text.chSemReset:00000000 chSemReset
C:\Users\IDONNO~1\AppData\Local\Temp\ccRF5WGp.s:185    .text.chSemWait:00000000 $t
C:\Users\IDONNO~1\AppData\Local\Temp\ccRF5WGp.s:191    .text.chSemWait:00000000 chSemWait
C:\Users\IDONNO~1\AppData\Local\Temp\ccRF5WGp.s:322    .text.chSemWait:00000040 $d
C:\Users\IDONNO~1\AppData\Local\Temp\ccRF5WGp.s:327    .text.chSemWaitS:00000000 $t
C:\Users\IDONNO~1\AppData\Local\Temp\ccRF5WGp.s:333    .text.chSemWaitS:00000000 chSemWaitS
C:\Users\IDONNO~1\AppData\Local\Temp\ccRF5WGp.s:397    .text.chSemWaitS:00000030 $d
C:\Users\IDONNO~1\AppData\Local\Temp\ccRF5WGp.s:404    .text.chSemWaitTimeout:00000000 $t
C:\Users\IDONNO~1\AppData\Local\Temp\ccRF5WGp.s:410    .text.chSemWaitTimeout:00000000 chSemWaitTimeout
C:\Users\IDONNO~1\AppData\Local\Temp\ccRF5WGp.s:549    .text.chSemWaitTimeout:00000048 $d
C:\Users\IDONNO~1\AppData\Local\Temp\ccRF5WGp.s:556    .text.chSemWaitTimeoutS:00000000 $t
C:\Users\IDONNO~1\AppData\Local\Temp\ccRF5WGp.s:562    .text.chSemWaitTimeoutS:00000000 chSemWaitTimeoutS
C:\Users\IDONNO~1\AppData\Local\Temp\ccRF5WGp.s:644    .text.chSemWaitTimeoutS:0000003c $d
C:\Users\IDONNO~1\AppData\Local\Temp\ccRF5WGp.s:649    .text.chSemSignal:00000000 $t
C:\Users\IDONNO~1\AppData\Local\Temp\ccRF5WGp.s:655    .text.chSemSignal:00000000 chSemSignal
C:\Users\IDONNO~1\AppData\Local\Temp\ccRF5WGp.s:759    .text.chSemSignalI:00000000 $t
C:\Users\IDONNO~1\AppData\Local\Temp\ccRF5WGp.s:765    .text.chSemSignalI:00000000 chSemSignalI
C:\Users\IDONNO~1\AppData\Local\Temp\ccRF5WGp.s:816    .text.chSemAddCounterI:00000000 $t
C:\Users\IDONNO~1\AppData\Local\Temp\ccRF5WGp.s:822    .text.chSemAddCounterI:00000000 chSemAddCounterI
C:\Users\IDONNO~1\AppData\Local\Temp\ccRF5WGp.s:888    .text.chSemSignalWait:00000000 $t
C:\Users\IDONNO~1\AppData\Local\Temp\ccRF5WGp.s:894    .text.chSemSignalWait:00000000 chSemSignalWait
C:\Users\IDONNO~1\AppData\Local\Temp\ccRF5WGp.s:1070   .text.chSemSignalWait:00000068 $d
                     .debug_frame:00000010 $d

UNDEFINED SYMBOLS
chSchReadyI
chSchRescheduleS
chSchGoSleepS
ch
chSchGoSleepTimeoutS
chSchWakeupS
