ARM GAS  C:\Users\IDONNO~1.SON\AppData\Local\Temp\ccvJwD9O.s 			page 1


   1              		.syntax unified
   2              		.cpu cortex-m4
   3              		.eabi_attribute 27, 1
   4              		.eabi_attribute 28, 1
   5              		.fpu fpv4-sp-d16
   6              		.eabi_attribute 20, 1
   7              		.eabi_attribute 21, 1
   8              		.eabi_attribute 23, 3
   9              		.eabi_attribute 24, 1
  10              		.eabi_attribute 25, 1
  11              		.eabi_attribute 26, 1
  12              		.eabi_attribute 30, 2
  13              		.eabi_attribute 34, 1
  14              		.eabi_attribute 18, 4
  15              		.thumb
  16              		.syntax unified
  17              		.file	"chsys.c"
  18              		.text
  19              	.Ltext0:
  20              		.cfi_sections	.debug_frame
  21              		.section	.text._idle_thread,"ax",%progbits
  22              		.align	2
  23              		.p2align 4,,15
  24              		.thumb
  25              		.thumb_func
  26              		.type	_idle_thread, %function
  27              	_idle_thread:
  28              	.LFB219:
  29              		.file 1 "lib/ChibiOS_3.0.2/os/rt/src/chsys.c"
  30              		.loc 1 65 0
  31              		.cfi_startproc
  32              		@ Volatile: function does not return.
  33              		@ args = 0, pretend = 0, frame = 0
  34              		@ frame_needed = 0, uses_anonymous_args = 0
  35              		@ link register save eliminated.
  36              	.LVL0:
  37              	.L2:
  38 0000 FEE7     		b	.L2
  39              		.cfi_endproc
  40              	.LFE219:
  41              		.size	_idle_thread, .-_idle_thread
  42 0002 00BF     		.section	.text.chSysInit,"ax",%progbits
  43              		.align	2
  44              		.p2align 4,,15
  45              		.global	chSysInit
  46              		.thumb
  47              		.thumb_func
  48              		.type	chSysInit, %function
  49              	chSysInit:
  50              	.LFB220:
  51              		.loc 1 93 0
  52              		.cfi_startproc
  53              		@ args = 0, pretend = 0, frame = 0
  54              		@ frame_needed = 0, uses_anonymous_args = 0
  55              	.LBB137:
  56              	.LBB138:
  57              		.file 2 "lib/ChibiOS_3.0.2/os/rt/ports/ARMCMx/chcore_v7m.h"
ARM GAS  C:\Users\IDONNO~1.SON\AppData\Local\Temp\ccvJwD9O.s 			page 2


  58              		.loc 2 377 0
  59 0000 204B     		ldr	r3, .L5
  60              	.LBB139:
  61              	.LBB140:
  62              		.file 3 "lib/ChibiOS_3.0.2/os/ext/CMSIS/include/core_cm4.h"
  63              		.loc 3 1442 0
  64 0002 214A     		ldr	r2, .L5+4
  65              	.LBE140:
  66              	.LBE139:
  67              		.loc 2 384 0
  68 0004 2148     		ldr	r0, .L5+8
  69              	.LBE138:
  70              	.LBE137:
  71              		.loc 1 93 0
  72 0006 F0B5     		push	{r4, r5, r6, r7, lr}
  73              		.cfi_def_cfa_offset 20
  74              		.cfi_offset 4, -20
  75              		.cfi_offset 5, -16
  76              		.cfi_offset 6, -12
  77              		.cfi_offset 7, -8
  78              		.cfi_offset 14, -4
  79              	.LBB156:
  80              	.LBB153:
  81              		.loc 2 377 0
  82 0008 0024     		movs	r4, #0
  83 000a 9C60     		str	r4, [r3, #8]
  84              	.LVL1:
  85              	.LBB143:
  86              	.LBB141:
  87              		.loc 3 1440 0
  88 000c DF68     		ldr	r7, [r3, #12]
  89              	.LVL2:
  90              	.LBE141:
  91              	.LBE143:
  92              		.loc 2 383 0
  93 000e 204E     		ldr	r6, .L5+12
  94              	.LBE153:
  95              	.LBE156:
  96              		.loc 1 119 0
  97 0010 204D     		ldr	r5, .L5+16
  98              	.LBB157:
  99              	.LBB154:
 100              	.LBB144:
 101              	.LBB142:
 102              		.loc 3 1441 0
 103 0012 4FF6FF01 		movw	r1, #63743
 104 0016 3940     		ands	r1, r1, r7
 105              	.LVL3:
 106              		.loc 3 1442 0
 107 0018 0A43     		orrs	r2, r2, r1
 108              	.LVL4:
 109              		.loc 3 1445 0
 110 001a DA60     		str	r2, [r3, #12]
 111              	.LVL5:
 112              	.LBE142:
 113              	.LBE144:
 114              		.loc 2 383 0
ARM GAS  C:\Users\IDONNO~1.SON\AppData\Local\Temp\ccvJwD9O.s 			page 3


 115 001c F268     		ldr	r2, [r6, #12]
 116 001e 42F08072 		orr	r2, r2, #16777216
 117 0022 F260     		str	r2, [r6, #12]
 118              		.loc 2 384 0
 119 0024 0268     		ldr	r2, [r0]
 120              	.LBB145:
 121              	.LBB146:
 122              		.loc 3 1553 0
 123 0026 2021     		movs	r1, #32
 124              	.LBE146:
 125              	.LBE145:
 126              		.loc 2 384 0
 127 0028 42F00102 		orr	r2, r2, #1
 128              	.LBB148:
 129              	.LBB149:
 130              		.loc 3 1553 0
 131 002c 1026     		movs	r6, #16
 132              	.LBE149:
 133              	.LBE148:
 134              		.loc 2 384 0
 135 002e 0260     		str	r2, [r0]
 136              	.LVL6:
 137              	.LBE154:
 138              	.LBE157:
 139              		.loc 1 93 0
 140 0030 83B0     		sub	sp, sp, #12
 141              		.cfi_def_cfa_offset 32
 142              	.LBB158:
 143              	.LBB155:
 144              	.LBB151:
 145              	.LBB150:
 146              		.loc 3 1553 0
 147 0032 DE77     		strb	r6, [r3, #31]
 148              	.LVL7:
 149              	.LBE150:
 150              	.LBE151:
 151              	.LBB152:
 152              	.LBB147:
 153 0034 83F82210 		strb	r1, [r3, #34]
 154              	.LVL8:
 155              	.LBE147:
 156              	.LBE152:
 157              	.LBE155:
 158              	.LBE158:
 159              		.loc 1 99 0
 160 0038 FFF7FEFF 		bl	_scheduler_init
 161              	.LVL9:
 162              		.loc 1 100 0
 163 003c FFF7FEFF 		bl	_vt_init
 164              	.LVL10:
 165              		.loc 1 102 0
 166 0040 FFF7FEFF 		bl	_tm_init
 167              	.LVL11:
 168              		.loc 1 105 0
 169 0044 FFF7FEFF 		bl	_core_init
 170              	.LVL12:
 171              		.loc 1 108 0
ARM GAS  C:\Users\IDONNO~1.SON\AppData\Local\Temp\ccvJwD9O.s 			page 4


 172 0048 FFF7FEFF 		bl	_heap_init
 173              	.LVL13:
 174              		.loc 1 119 0
 175 004c 2846     		mov	r0, r5
 176 004e 4021     		movs	r1, #64
 177 0050 FFF7FEFF 		bl	_thread_init
 178              	.LVL14:
 179 0054 A5F13003 		sub	r3, r5, #48
 180              		.loc 1 125 0
 181 0058 0122     		movs	r2, #1
 182              		.loc 1 119 0
 183 005a 9861     		str	r0, [r3, #24]
 184              		.loc 1 125 0
 185 005c 0277     		strb	r2, [r0, #28]
 186              	.LVL15:
 187              	.LBB159:
 188              	.LBB160:
 189              	.LBB161:
 190              	.LBB162:
 191              		.file 4 "lib/ChibiOS_3.0.2/os/ext/CMSIS/include/core_cmFunc.h"
 192              		.loc 4 546 0
 193              		.syntax unified
 194              	@ 546 "lib/ChibiOS_3.0.2/os/ext/CMSIS/include/core_cmFunc.h" 1
 195 005e 84F31188 		MSR basepri, r4
 196              	@ 0 "" 2
 197              	.LVL16:
 198              		.thumb
 199              		.syntax unified
 200              	.LBE162:
 201              	.LBE161:
 202              	.LBB163:
 203              	.LBB164:
 204              		.loc 4 331 0
 205              		.syntax unified
 206              	@ 331 "lib/ChibiOS_3.0.2/os/ext/CMSIS/include/core_cmFunc.h" 1
 207 0062 62B6     		cpsie i
 208              	@ 0 "" 2
 209              	.LVL17:
 210              		.thumb
 211              		.syntax unified
 212              	.LBE164:
 213              	.LBE163:
 214              	.LBE160:
 215              	.LBE159:
 216              	.LBB165:
 217              	.LBB166:
 218              		.file 5 "lib/ChibiOS_3.0.2/os/rt/include/chregistry.h"
 219              		.loc 5 135 0
 220 0064 9B69     		ldr	r3, [r3, #24]
 221 0066 0C49     		ldr	r1, .L5+20
 222 0068 9961     		str	r1, [r3, #24]
 223              	.LVL18:
 224              	.LBE166:
 225              	.LBE165:
 226              	.LBB167:
 227              		.loc 1 144 0
 228 006a 05F15000 		add	r0, r5, #80
ARM GAS  C:\Users\IDONNO~1.SON\AppData\Local\Temp\ccvJwD9O.s 			page 5


 229 006e 0094     		str	r4, [sp]
 230 0070 0A4B     		ldr	r3, .L5+24
 231 0072 4FF4EC71 		mov	r1, #472
 232 0076 FFF7FEFF 		bl	chThdCreateStatic
 233              	.LVL19:
 234              	.LBB168:
 235              	.LBB169:
 236              		.loc 5 175 0
 237 007a 094B     		ldr	r3, .L5+28
 238 007c 8361     		str	r3, [r0, #24]
 239              	.LVL20:
 240              	.LBE169:
 241              	.LBE168:
 242              	.LBE167:
 243              		.loc 1 152 0
 244 007e 03B0     		add	sp, sp, #12
 245              		.cfi_def_cfa_offset 20
 246              		@ sp needed
 247 0080 F0BD     		pop	{r4, r5, r6, r7, pc}
 248              	.L6:
 249 0082 00BF     		.align	2
 250              	.L5:
 251 0084 00ED00E0 		.word	-536810240
 252 0088 0003FA05 		.word	100270848
 253 008c 001000E0 		.word	-536866816
 254 0090 F0ED00E0 		.word	-536810000
 255 0094 30000000 		.word	ch+48
 256 0098 00000000 		.word	ch_debug
 257 009c 00000000 		.word	_idle_thread
 258 00a0 00000000 		.word	.LC0
 259              		.cfi_endproc
 260              	.LFE220:
 261              		.size	chSysInit, .-chSysInit
 262              		.section	.text.chSysHalt,"ax",%progbits
 263              		.align	2
 264              		.p2align 4,,15
 265              		.global	chSysHalt
 266              		.thumb
 267              		.thumb_func
 268              		.type	chSysHalt, %function
 269              	chSysHalt:
 270              	.LFB221:
 271              		.loc 1 166 0
 272              		.cfi_startproc
 273              		@ Volatile: function does not return.
 274              		@ args = 0, pretend = 0, frame = 0
 275              		@ frame_needed = 0, uses_anonymous_args = 0
 276              		@ link register save eliminated.
 277              	.LVL21:
 278              	.LBB170:
 279              	.LBB171:
 280              	.LBB172:
 281              		.loc 4 342 0
 282              		.syntax unified
 283              	@ 342 "lib/ChibiOS_3.0.2/os/ext/CMSIS/include/core_cmFunc.h" 1
 284 0000 72B6     		cpsid i
 285              	@ 0 "" 2
ARM GAS  C:\Users\IDONNO~1.SON\AppData\Local\Temp\ccvJwD9O.s 			page 6


 286              		.thumb
 287              		.syntax unified
 288              	.LBE172:
 289              	.LBE171:
 290              	.LBE170:
 291              		.loc 1 175 0
 292 0002 014B     		ldr	r3, .L10
 293 0004 D862     		str	r0, [r3, #44]
 294              	.L8:
 295 0006 FEE7     		b	.L8
 296              	.L11:
 297              		.align	2
 298              	.L10:
 299 0008 00000000 		.word	ch
 300              		.cfi_endproc
 301              	.LFE221:
 302              		.size	chSysHalt, .-chSysHalt
 303              		.section	.text.chSysIntegrityCheckI,"ax",%progbits
 304              		.align	2
 305              		.p2align 4,,15
 306              		.global	chSysIntegrityCheckI
 307              		.thumb
 308              		.thumb_func
 309              		.type	chSysIntegrityCheckI, %function
 310              	chSysIntegrityCheckI:
 311              	.LFB222:
 312              		.loc 1 206 0
 313              		.cfi_startproc
 314              		@ args = 0, pretend = 0, frame = 0
 315              		@ frame_needed = 0, uses_anonymous_args = 0
 316              		@ link register save eliminated.
 317              	.LVL22:
 318              		.loc 1 212 0
 319 0000 C207     		lsls	r2, r0, #31
 320              		.loc 1 206 0
 321 0002 10B4     		push	{r4}
 322              		.cfi_def_cfa_offset 4
 323              		.cfi_offset 4, -4
 324              		.loc 1 212 0
 325 0004 12D5     		bpl	.L13
 326              	.LVL23:
 327              	.LBB173:
 328              		.loc 1 217 0
 329 0006 2D4A     		ldr	r2, .L51
 330 0008 1168     		ldr	r1, [r2]
 331              	.LVL24:
 332              		.loc 1 218 0
 333 000a 9142     		cmp	r1, r2
 334 000c 44D0     		beq	.L14
 335 000e 0023     		movs	r3, #0
 336              	.LVL25:
 337              	.L15:
 338              		.loc 1 220 0
 339 0010 0968     		ldr	r1, [r1]
 340              	.LVL26:
 341              		.loc 1 218 0
 342 0012 9142     		cmp	r1, r2
ARM GAS  C:\Users\IDONNO~1.SON\AppData\Local\Temp\ccvJwD9O.s 			page 7


 343              		.loc 1 219 0
 344 0014 03F10103 		add	r3, r3, #1
 345              	.LVL27:
 346              		.loc 1 218 0
 347 0018 FAD1     		bne	.L15
 348              		.loc 1 224 0
 349 001a 4C68     		ldr	r4, [r1, #4]
 350              	.LVL28:
 351              		.loc 1 225 0
 352 001c 8C42     		cmp	r4, r1
 353 001e 37D0     		beq	.L33
 354              	.LVL29:
 355              	.L17:
 356              		.loc 1 227 0
 357 0020 6468     		ldr	r4, [r4, #4]
 358              	.LVL30:
 359              		.loc 1 225 0
 360 0022 9442     		cmp	r4, r2
 361              		.loc 1 226 0
 362 0024 03F1FF33 		add	r3, r3, #-1
 363              	.LVL31:
 364              		.loc 1 225 0
 365 0028 FAD1     		bne	.L17
 366              		.loc 1 231 0
 367 002a 8BBB     		cbnz	r3, .L33
 368              	.LVL32:
 369              	.L13:
 370              	.LBE173:
 371              		.loc 1 237 0
 372 002c 8307     		lsls	r3, r0, #30
 373 002e 14D5     		bpl	.L18
 374              	.LVL33:
 375              	.LBB174:
 376              		.loc 1 242 0
 377 0030 224A     		ldr	r2, .L51
 378 0032 1446     		mov	r4, r2
 379 0034 54F81C1F 		ldr	r1, [r4, #28]!
 380              	.LVL34:
 381              		.loc 1 243 0
 382 0038 A142     		cmp	r1, r4
 383 003a 33D0     		beq	.L19
 384 003c 0023     		movs	r3, #0
 385              	.LVL35:
 386              	.L20:
 387              		.loc 1 245 0
 388 003e 0968     		ldr	r1, [r1]
 389              	.LVL36:
 390              		.loc 1 243 0
 391 0040 A142     		cmp	r1, r4
 392              		.loc 1 244 0
 393 0042 03F10103 		add	r3, r3, #1
 394              	.LVL37:
 395              		.loc 1 243 0
 396 0046 FAD1     		bne	.L20
 397              		.loc 1 249 0
 398 0048 126A     		ldr	r2, [r2, #32]
 399              	.LVL38:
ARM GAS  C:\Users\IDONNO~1.SON\AppData\Local\Temp\ccvJwD9O.s 			page 8


 400              		.loc 1 250 0
 401 004a 8A42     		cmp	r2, r1
 402 004c 20D0     		beq	.L33
 403              	.LVL39:
 404              	.L21:
 405              		.loc 1 252 0
 406 004e 5268     		ldr	r2, [r2, #4]
 407              	.LVL40:
 408              		.loc 1 250 0
 409 0050 A242     		cmp	r2, r4
 410              		.loc 1 251 0
 411 0052 03F1FF33 		add	r3, r3, #-1
 412              	.LVL41:
 413              		.loc 1 250 0
 414 0056 FAD1     		bne	.L21
 415              		.loc 1 256 0
 416 0058 D3B9     		cbnz	r3, .L33
 417              	.LVL42:
 418              	.L18:
 419              	.LBE174:
 420              		.loc 1 262 0
 421 005a 10F00400 		ands	r0, r0, #4
 422              	.LVL43:
 423 005e 14D0     		beq	.L49
 424              	.LVL44:
 425              	.LBB175:
 426              		.loc 1 267 0
 427 0060 164A     		ldr	r2, .L51
 428 0062 1369     		ldr	r3, [r2, #16]
 429              	.LVL45:
 430              		.loc 1 268 0
 431 0064 9342     		cmp	r3, r2
 432 0066 23D0     		beq	.L22
 433 0068 0020     		movs	r0, #0
 434              	.LVL46:
 435              	.L23:
 436              		.loc 1 270 0
 437 006a 1B69     		ldr	r3, [r3, #16]
 438              	.LVL47:
 439              		.loc 1 268 0
 440 006c 9342     		cmp	r3, r2
 441              		.loc 1 269 0
 442 006e 00F10100 		add	r0, r0, #1
 443              	.LVL48:
 444              		.loc 1 268 0
 445 0072 FAD1     		bne	.L23
 446              		.loc 1 274 0
 447 0074 5969     		ldr	r1, [r3, #20]
 448              	.LVL49:
 449              		.loc 1 275 0
 450 0076 9942     		cmp	r1, r3
 451 0078 0AD0     		beq	.L33
 452              	.LVL50:
 453              	.L24:
 454              		.loc 1 277 0
 455 007a 4969     		ldr	r1, [r1, #20]
 456              	.LVL51:
ARM GAS  C:\Users\IDONNO~1.SON\AppData\Local\Temp\ccvJwD9O.s 			page 9


 457              		.loc 1 275 0
 458 007c 9142     		cmp	r1, r2
 459              		.loc 1 276 0
 460 007e 00F1FF30 		add	r0, r0, #-1
 461              	.LVL52:
 462              		.loc 1 275 0
 463 0082 FAD1     		bne	.L24
 464              		.loc 1 281 0
 465 0084 0030     		adds	r0, r0, #0
 466 0086 18BF     		it	ne
 467 0088 0120     		movne	r0, #1
 468              	.LVL53:
 469              	.L49:
 470              	.LBE175:
 471              		.loc 1 294 0
 472 008a 5DF8044B 		ldr	r4, [sp], #4
 473              		.cfi_remember_state
 474              		.cfi_restore 4
 475              		.cfi_def_cfa_offset 0
 476 008e 7047     		bx	lr
 477              	.L33:
 478              		.cfi_restore_state
 479              	.LBB176:
 480              		.loc 1 232 0
 481 0090 0120     		movs	r0, #1
 482              	.LBE176:
 483              		.loc 1 294 0
 484 0092 5DF8044B 		ldr	r4, [sp], #4
 485              		.cfi_remember_state
 486              		.cfi_restore 4
 487              		.cfi_def_cfa_offset 0
 488 0096 7047     		bx	lr
 489              	.LVL54:
 490              	.L14:
 491              		.cfi_restore_state
 492              	.LBB177:
 493              		.loc 1 224 0
 494 0098 5468     		ldr	r4, [r2, #4]
 495              	.LVL55:
 496              		.loc 1 225 0
 497 009a 9442     		cmp	r4, r2
 498              		.loc 1 216 0
 499 009c 18BF     		it	ne
 500 009e 0023     		movne	r3, #0
 501              		.loc 1 225 0
 502 00a0 BED1     		bne	.L17
 503 00a2 C3E7     		b	.L13
 504              	.LVL56:
 505              	.L19:
 506              	.LBE177:
 507              	.LBB178:
 508              		.loc 1 249 0
 509 00a4 126A     		ldr	r2, [r2, #32]
 510              	.LVL57:
 511              		.loc 1 250 0
 512 00a6 A242     		cmp	r2, r4
 513              		.loc 1 241 0
ARM GAS  C:\Users\IDONNO~1.SON\AppData\Local\Temp\ccvJwD9O.s 			page 10


 514 00a8 18BF     		it	ne
 515 00aa 0023     		movne	r3, #0
 516              		.loc 1 250 0
 517 00ac CFD1     		bne	.L21
 518 00ae D4E7     		b	.L18
 519              	.LVL58:
 520              	.L22:
 521              	.LBE178:
 522              	.LBB179:
 523              		.loc 1 274 0
 524 00b0 5969     		ldr	r1, [r3, #20]
 525              	.LVL59:
 526              		.loc 1 275 0
 527 00b2 9942     		cmp	r1, r3
 528              		.loc 1 266 0
 529 00b4 4FF00000 		mov	r0, #0
 530              		.loc 1 275 0
 531 00b8 DFD1     		bne	.L24
 532 00ba E6E7     		b	.L49
 533              	.L52:
 534              		.align	2
 535              	.L51:
 536 00bc 00000000 		.word	ch
 537              	.LBE179:
 538              		.cfi_endproc
 539              	.LFE222:
 540              		.size	chSysIntegrityCheckI, .-chSysIntegrityCheckI
 541              		.section	.text.chSysTimerHandlerI,"ax",%progbits
 542              		.align	2
 543              		.p2align 4,,15
 544              		.global	chSysTimerHandlerI
 545              		.thumb
 546              		.thumb_func
 547              		.type	chSysTimerHandlerI, %function
 548              	chSysTimerHandlerI:
 549              	.LFB223:
 550              		.loc 1 307 0
 551              		.cfi_startproc
 552              		@ args = 0, pretend = 0, frame = 0
 553              		@ frame_needed = 0, uses_anonymous_args = 0
 554 0000 F8B5     		push	{r3, r4, r5, r6, r7, lr}
 555              		.cfi_def_cfa_offset 24
 556              		.cfi_offset 3, -24
 557              		.cfi_offset 4, -20
 558              		.cfi_offset 5, -16
 559              		.cfi_offset 6, -12
 560              		.cfi_offset 7, -8
 561              		.cfi_offset 14, -4
 562              		.loc 1 313 0
 563 0002 134D     		ldr	r5, .L64
 564 0004 AA69     		ldr	r2, [r5, #24]
 565 0006 D37F     		ldrb	r3, [r2, #31]	@ zero_extendqisi2
 566 0008 0BB1     		cbz	r3, .L54
 567              		.loc 1 315 0
 568 000a 013B     		subs	r3, r3, #1
 569 000c D377     		strb	r3, [r2, #31]
 570              	.L54:
ARM GAS  C:\Users\IDONNO~1.SON\AppData\Local\Temp\ccvJwD9O.s 			page 11


 571              		.loc 1 319 0
 572 000e 116A     		ldr	r1, [r2, #32]
 573              	.LBB193:
 574              	.LBB194:
 575              		.file 6 "lib/ChibiOS_3.0.2/os/rt/include/chvt.h"
 576              		.loc 6 472 0
 577 0010 EB69     		ldr	r3, [r5, #28]
 578 0012 104E     		ldr	r6, .L64+4
 579              	.LBE194:
 580              	.LBE193:
 581              		.loc 1 319 0
 582 0014 0131     		adds	r1, r1, #1
 583 0016 1162     		str	r1, [r2, #32]
 584              	.LBB212:
 585              	.LBB211:
 586              		.loc 6 471 0
 587 0018 AA6A     		ldr	r2, [r5, #40]
 588              		.loc 6 472 0
 589 001a B342     		cmp	r3, r6
 590              		.loc 6 471 0
 591 001c 02F10102 		add	r2, r2, #1
 592 0020 AA62     		str	r2, [r5, #40]
 593              		.loc 6 472 0
 594 0022 13D0     		beq	.L53
 595              		.loc 6 474 0
 596 0024 9C68     		ldr	r4, [r3, #8]
 597 0026 013C     		subs	r4, r4, #1
 598 0028 9C60     		str	r4, [r3, #8]
 599              		.loc 6 475 0
 600 002a 7CB9     		cbnz	r4, .L53
 601              	.LBB195:
 602              	.LBB196:
 603              	.LBB197:
 604              	.LBB198:
 605              	.LBB199:
 606              	.LBB200:
 607              		.loc 4 546 0
 608 002c 2027     		movs	r7, #32
 609              	.L57:
 610              	.LVL60:
 611              	.LBE200:
 612              	.LBE199:
 613              	.LBE198:
 614              	.LBE197:
 615              	.LBE196:
 616              		.loc 6 482 0
 617 002e 1A68     		ldr	r2, [r3]
 618              		.loc 6 480 0
 619 0030 D968     		ldr	r1, [r3, #12]
 620              	.LVL61:
 621              		.loc 6 481 0
 622 0032 DC60     		str	r4, [r3, #12]
 623              		.loc 6 482 0
 624 0034 5660     		str	r6, [r2, #4]
 625              		.loc 6 483 0
 626 0036 EA61     		str	r2, [r5, #28]
 627              	.LVL62:
ARM GAS  C:\Users\IDONNO~1.SON\AppData\Local\Temp\ccvJwD9O.s 			page 12


 628              	.LBB205:
 629              	.LBB206:
 630              	.LBB207:
 631              	.LBB208:
 632              	.LBB209:
 633              		.loc 4 546 0
 634              		.syntax unified
 635              	@ 546 "lib/ChibiOS_3.0.2/os/ext/CMSIS/include/core_cmFunc.h" 1
 636 0038 84F31188 		MSR basepri, r4
 637              	@ 0 "" 2
 638              	.LVL63:
 639              		.thumb
 640              		.syntax unified
 641              	.LBE209:
 642              	.LBE208:
 643              	.LBE207:
 644              	.LBE206:
 645              	.LBE205:
 646              		.loc 6 485 0
 647 003c 1869     		ldr	r0, [r3, #16]
 648 003e 8847     		blx	r1
 649              	.LVL64:
 650              	.LBB210:
 651              	.LBB204:
 652              	.LBB203:
 653              	.LBB202:
 654              	.LBB201:
 655              		.loc 4 546 0
 656              		.syntax unified
 657              	@ 546 "lib/ChibiOS_3.0.2/os/ext/CMSIS/include/core_cmFunc.h" 1
 658 0040 87F31188 		MSR basepri, r7
 659              	@ 0 "" 2
 660              	.LVL65:
 661              		.thumb
 662              		.syntax unified
 663              	.LBE201:
 664              	.LBE202:
 665              	.LBE203:
 666              	.LBE204:
 667              	.LBE210:
 668              	.LBE195:
 669              		.loc 6 475 0
 670 0044 EB69     		ldr	r3, [r5, #28]
 671 0046 9A68     		ldr	r2, [r3, #8]
 672 0048 002A     		cmp	r2, #0
 673 004a F0D0     		beq	.L57
 674              	.L53:
 675 004c F8BD     		pop	{r3, r4, r5, r6, r7, pc}
 676              	.L65:
 677 004e 00BF     		.align	2
 678              	.L64:
 679 0050 00000000 		.word	ch
 680 0054 1C000000 		.word	ch+28
 681              	.LBE211:
 682              	.LBE212:
 683              		.cfi_endproc
 684              	.LFE223:
ARM GAS  C:\Users\IDONNO~1.SON\AppData\Local\Temp\ccvJwD9O.s 			page 13


 685              		.size	chSysTimerHandlerI, .-chSysTimerHandlerI
 686              		.section	.text.chSysGetStatusAndLockX,"ax",%progbits
 687              		.align	2
 688              		.p2align 4,,15
 689              		.global	chSysGetStatusAndLockX
 690              		.thumb
 691              		.thumb_func
 692              		.type	chSysGetStatusAndLockX, %function
 693              	chSysGetStatusAndLockX:
 694              	.LFB224:
 695              		.loc 1 340 0
 696              		.cfi_startproc
 697              		@ args = 0, pretend = 0, frame = 0
 698              		@ frame_needed = 0, uses_anonymous_args = 0
 699              		@ link register save eliminated.
 700              	.LBB213:
 701              	.LBB214:
 702              	.LBB215:
 703              	.LBB216:
 704              		.loc 4 533 0
 705              		.syntax unified
 706              	@ 533 "lib/ChibiOS_3.0.2/os/ext/CMSIS/include/core_cmFunc.h" 1
 707 0000 EFF31280 		MRS r0, basepri_max
 708              	@ 0 "" 2
 709              		.thumb
 710              		.syntax unified
 711              	.LBE216:
 712              	.LBE215:
 713              	.LBE214:
 714              	.LBE213:
 715              		.loc 1 343 0
 716 0004 20B9     		cbnz	r0, .L67
 717              	.LBB217:
 718              	.LBB218:
 719              	.LBB219:
 720              	.LBB220:
 721              		.loc 4 383 0
 722              		.syntax unified
 723              	@ 383 "lib/ChibiOS_3.0.2/os/ext/CMSIS/include/core_cmFunc.h" 1
 724 0006 EFF30583 		MRS r3, ipsr
 725              	@ 0 "" 2
 726              	.LVL66:
 727              		.thumb
 728              		.syntax unified
 729              	.LBE220:
 730              	.LBE219:
 731              	.LBE218:
 732              	.LBE217:
 733              	.LBB221:
 734              	.LBB222:
 735              	.LBB223:
 736              	.LBB224:
 737              		.loc 4 546 0
 738 000a 2023     		movs	r3, #32
 739              		.syntax unified
 740              	@ 546 "lib/ChibiOS_3.0.2/os/ext/CMSIS/include/core_cmFunc.h" 1
 741 000c 83F31188 		MSR basepri, r3
ARM GAS  C:\Users\IDONNO~1.SON\AppData\Local\Temp\ccvJwD9O.s 			page 14


 742              	@ 0 "" 2
 743              	.LVL67:
 744              		.thumb
 745              		.syntax unified
 746              	.L67:
 747              	.LBE224:
 748              	.LBE223:
 749              	.LBE222:
 750              	.LBE221:
 751              		.loc 1 352 0
 752 0010 7047     		bx	lr
 753              		.cfi_endproc
 754              	.LFE224:
 755              		.size	chSysGetStatusAndLockX, .-chSysGetStatusAndLockX
 756 0012 00BF     		.section	.text.chSysRestoreStatusX,"ax",%progbits
 757              		.align	2
 758              		.p2align 4,,15
 759              		.global	chSysRestoreStatusX
 760              		.thumb
 761              		.thumb_func
 762              		.type	chSysRestoreStatusX, %function
 763              	chSysRestoreStatusX:
 764              	.LFB225:
 765              		.loc 1 363 0
 766              		.cfi_startproc
 767              		@ args = 0, pretend = 0, frame = 0
 768              		@ frame_needed = 0, uses_anonymous_args = 0
 769              	.LVL68:
 770              		.loc 1 365 0
 771 0000 68B9     		cbnz	r0, .L73
 772              		.loc 1 363 0
 773 0002 10B5     		push	{r4, lr}
 774              		.cfi_def_cfa_offset 8
 775              		.cfi_offset 4, -8
 776              		.cfi_offset 14, -4
 777              	.LBB225:
 778              	.LBB226:
 779              	.LBB227:
 780              	.LBB228:
 781              		.loc 4 383 0
 782              		.syntax unified
 783              	@ 383 "lib/ChibiOS_3.0.2/os/ext/CMSIS/include/core_cmFunc.h" 1
 784 0004 EFF30584 		MRS r4, ipsr
 785              	@ 0 "" 2
 786              		.thumb
 787              		.syntax unified
 788              	.LBE228:
 789              	.LBE227:
 790              	.LBE226:
 791              	.LBE225:
 792              		.loc 1 366 0
 793 0008 C4F30804 		ubfx	r4, r4, #0, #9
 794 000c 14B1     		cbz	r4, .L71
 795              	.LVL69:
 796              	.LBB229:
 797              	.LBB230:
 798              	.LBB231:
ARM GAS  C:\Users\IDONNO~1.SON\AppData\Local\Temp\ccvJwD9O.s 			page 15


 799              	.LBB232:
 800              	.LBB233:
 801              		.loc 4 546 0
 802              		.syntax unified
 803              	@ 546 "lib/ChibiOS_3.0.2/os/ext/CMSIS/include/core_cmFunc.h" 1
 804 000e 80F31188 		MSR basepri, r0
 805              	@ 0 "" 2
 806              	.LVL70:
 807              		.thumb
 808              		.syntax unified
 809 0012 10BD     		pop	{r4, pc}
 810              	.L71:
 811              	.LBE233:
 812              	.LBE232:
 813              	.LBE231:
 814              	.LBE230:
 815              	.LBE229:
 816              		.loc 1 370 0
 817 0014 FFF7FEFF 		bl	chSchRescheduleS
 818              	.LVL71:
 819              	.LBB234:
 820              	.LBB235:
 821              	.LBB236:
 822              	.LBB237:
 823              	.LBB238:
 824              		.loc 4 546 0
 825              		.syntax unified
 826              	@ 546 "lib/ChibiOS_3.0.2/os/ext/CMSIS/include/core_cmFunc.h" 1
 827 0018 84F31188 		MSR basepri, r4
 828              	@ 0 "" 2
 829              	.LVL72:
 830              		.thumb
 831              		.syntax unified
 832 001c 10BD     		pop	{r4, pc}
 833              	.LVL73:
 834              	.L73:
 835              		.cfi_def_cfa_offset 0
 836              		.cfi_restore 4
 837              		.cfi_restore 14
 838 001e 7047     		bx	lr
 839              	.LBE238:
 840              	.LBE237:
 841              	.LBE236:
 842              	.LBE235:
 843              	.LBE234:
 844              		.cfi_endproc
 845              	.LFE225:
 846              		.size	chSysRestoreStatusX, .-chSysRestoreStatusX
 847              		.section	.text.chSysIsCounterWithinX,"ax",%progbits
 848              		.align	2
 849              		.p2align 4,,15
 850              		.global	chSysIsCounterWithinX
 851              		.thumb
 852              		.thumb_func
 853              		.type	chSysIsCounterWithinX, %function
 854              	chSysIsCounterWithinX:
 855              	.LFB226:
ARM GAS  C:\Users\IDONNO~1.SON\AppData\Local\Temp\ccvJwD9O.s 			page 16


 856              		.loc 1 395 0
 857              		.cfi_startproc
 858              		@ args = 0, pretend = 0, frame = 0
 859              		@ frame_needed = 0, uses_anonymous_args = 0
 860              		@ link register save eliminated.
 861              	.LVL74:
 862              		.loc 1 397 0
 863 0000 401A     		subs	r0, r0, r1
 864              	.LVL75:
 865 0002 521A     		subs	r2, r2, r1
 866              	.LVL76:
 867              		.loc 1 398 0
 868 0004 9042     		cmp	r0, r2
 869 0006 2CBF     		ite	cs
 870 0008 0020     		movcs	r0, #0
 871 000a 0120     		movcc	r0, #1
 872 000c 7047     		bx	lr
 873              		.cfi_endproc
 874              	.LFE226:
 875              		.size	chSysIsCounterWithinX, .-chSysIsCounterWithinX
 876 000e 00BF     		.section	.text.chSysPolledDelayX,"ax",%progbits
 877              		.align	2
 878              		.p2align 4,,15
 879              		.global	chSysPolledDelayX
 880              		.thumb
 881              		.thumb_func
 882              		.type	chSysPolledDelayX, %function
 883              	chSysPolledDelayX:
 884              	.LFB227:
 885              		.loc 1 411 0
 886              		.cfi_startproc
 887              		@ args = 0, pretend = 0, frame = 0
 888              		@ frame_needed = 0, uses_anonymous_args = 0
 889              		@ link register save eliminated.
 890              	.LVL77:
 891              	.LBB239:
 892              	.LBB240:
 893              		.loc 2 548 0
 894 0000 034A     		ldr	r2, .L78
 895 0002 5168     		ldr	r1, [r2, #4]
 896              	.LVL78:
 897              	.L76:
 898              	.LBE240:
 899              	.LBE239:
 900              	.LBB241:
 901              	.LBB242:
 902              		.loc 2 548 0 is_stmt 0 discriminator 1
 903 0004 5368     		ldr	r3, [r2, #4]
 904              	.LBE242:
 905              	.LBE241:
 906              		.loc 1 415 0 is_stmt 1 discriminator 1
 907 0006 5B1A     		subs	r3, r3, r1
 908 0008 8342     		cmp	r3, r0
 909 000a FBD3     		bcc	.L76
 910              		.loc 1 417 0
 911 000c 7047     		bx	lr
 912              	.L79:
ARM GAS  C:\Users\IDONNO~1.SON\AppData\Local\Temp\ccvJwD9O.s 			page 17


 913 000e 00BF     		.align	2
 914              	.L78:
 915 0010 001000E0 		.word	-536866816
 916              		.cfi_endproc
 917              	.LFE227:
 918              		.size	chSysPolledDelayX, .-chSysPolledDelayX
 919              		.section	.rodata.str1.4,"aMS",%progbits,1
 920              		.align	2
 921              	.LC0:
 922 0000 69646C65 		.ascii	"idle\000"
 922      00
 923              		.text
 924              	.Letext0:
 925              		.file 7 "c:\\program files (x86)\\gnu tools arm embedded\\5.4 2016q2\\arm-none-eabi\\include\\mach
 926              		.file 8 "c:\\program files (x86)\\gnu tools arm embedded\\5.4 2016q2\\arm-none-eabi\\include\\sys\
 927              		.file 9 "lib/ChibiOS_3.0.2/os/rt/ports/ARMCMx/compilers/GCC/chtypes.h"
 928              		.file 10 "lib/ChibiOS_3.0.2/os/rt/include/chsystypes.h"
 929              		.file 11 "lib/ChibiOS_3.0.2/os/rt/include/chschd.h"
 930              		.file 12 "lib/ChibiOS_3.0.2/os/ext/CMSIS/ST/stm32f407xx.h"
 931              		.file 13 "lib/ChibiOS_3.0.2/os/rt/ports/ARMCMx/chcore.h"
 932              		.file 14 "lib/ChibiOS_3.0.2/os/rt/include/chtm.h"
 933              		.file 15 "lib/ChibiOS_3.0.2/os/rt/include/chsem.h"
 934              		.file 16 "lib/ChibiOS_3.0.2/os/rt/include/chmtx.h"
 935              		.file 17 "lib/ChibiOS_3.0.2/os/rt/include/chthreads.h"
 936              		.file 18 "lib/ChibiOS_3.0.2/os/rt/include/chsys.h"
 937              		.file 19 "lib/ChibiOS_3.0.2/os/rt/include/chmemcore.h"
 938              		.file 20 "lib/ChibiOS_3.0.2/os/rt/include/chheap.h"