ARM GAS  C:\Users\IDONNO~1\AppData\Local\Temp\cc9oFEWr.s 			page 1


   1              		.syntax unified
   2              		.cpu cortex-m4
   3              		.eabi_attribute 27, 1
   4              		.eabi_attribute 28, 1
   5              		.fpu fpv4-sp-d16
   6              		.eabi_attribute 20, 1
   7              		.eabi_attribute 21, 1
   8              		.eabi_attribute 23, 3
   9              		.eabi_attribute 24, 1
  10              		.eabi_attribute 25, 1
  11              		.eabi_attribute 26, 1
  12              		.eabi_attribute 30, 2
  13              		.eabi_attribute 34, 1
  14              		.eabi_attribute 18, 4
  15              		.thumb
  16              		.syntax unified
  17              		.file	"chthreads.c"
  18              		.text
  19              	.Ltext0:
  20              		.cfi_sections	.debug_frame
  21              		.section	.text._thread_init,"ax",%progbits
  22              		.align	2
  23              		.p2align 4,,15
  24              		.global	_thread_init
  25              		.thumb
  26              		.thumb_func
  27              		.type	_thread_init, %function
  28              	_thread_init:
  29              	.LFB219:
  30              		.file 1 "lib/ChibiOS_3.0.2/os/rt/src/chthreads.c"
  31              		.loc 1 91 0
  32              		.cfi_startproc
  33              		@ args = 0, pretend = 0, frame = 0
  34              		@ frame_needed = 0, uses_anonymous_args = 0
  35              	.LVL0:
  36 0000 F0B5     		push	{r4, r5, r6, r7, lr}
  37              		.cfi_def_cfa_offset 20
  38              		.cfi_offset 4, -20
  39              		.cfi_offset 5, -16
  40              		.cfi_offset 6, -12
  41              		.cfi_offset 7, -8
  42              		.cfi_offset 14, -4
  43              		.loc 1 114 0
  44 0002 0F4C     		ldr	r4, .L3
  45              		.loc 1 100 0
  46 0004 0164     		str	r1, [r0, #64]
  47              		.loc 1 114 0
  48 0006 6569     		ldr	r5, [r4, #20]
  49              		.loc 1 93 0
  50 0008 8160     		str	r1, [r0, #8]
  51              		.loc 1 94 0
  52 000a 0226     		movs	r6, #2
  53              		.loc 1 95 0
  54 000c 0022     		movs	r2, #0
  55              		.loc 1 94 0
  56 000e 0677     		strb	r6, [r0, #28]
  57              		.loc 1 120 0
ARM GAS  C:\Users\IDONNO~1\AppData\Local\Temp\cc9oFEWr.s 			page 2


  58 0010 00F12C01 		add	r1, r0, #44
  59              	.LVL1:
  60              		.loc 1 97 0
  61 0014 4FF0040E 		mov	lr, #4
  62              		.loc 1 110 0
  63 0018 0127     		movs	r7, #1
  64              		.loc 1 117 0
  65 001a 00F12806 		add	r6, r0, #40
  66              		.loc 1 114 0
  67 001e 4561     		str	r5, [r0, #20]
  68 0020 0461     		str	r4, [r0, #16]
  69              		.loc 1 97 0
  70 0022 80F81FE0 		strb	lr, [r0, #31]
  71              		.loc 1 110 0
  72 0026 8777     		strb	r7, [r0, #30]
  73              		.loc 1 95 0
  74 0028 4277     		strb	r2, [r0, #29]
  75              		.loc 1 101 0
  76 002a C263     		str	r2, [r0, #60]
  77              		.loc 1 104 0
  78 002c 8263     		str	r2, [r0, #56]
  79              		.loc 1 107 0
  80 002e 0262     		str	r2, [r0, #32]
  81              		.loc 1 113 0
  82 0030 8261     		str	r2, [r0, #24]
  83              		.loc 1 114 0
  84 0032 2861     		str	r0, [r5, #16]
  85 0034 6061     		str	r0, [r4, #20]
  86              	.LVL2:
  87              	.LBB188:
  88              	.LBB189:
  89              		.file 2 "lib/ChibiOS_3.0.2/os/rt/include/chschd.h"
  90              		.loc 2 566 0
  91 0036 8662     		str	r6, [r0, #40]
  92              	.LVL3:
  93              	.LBE189:
  94              	.LBE188:
  95              	.LBB190:
  96              	.LBB191:
  97              		.loc 2 604 0
  98 0038 C162     		str	r1, [r0, #44]
  99              		.loc 2 605 0
 100 003a 0163     		str	r1, [r0, #48]
 101              	.LVL4:
 102              	.LBE191:
 103              	.LBE190:
 104              		.loc 1 133 0
 105 003c F0BD     		pop	{r4, r5, r6, r7, pc}
 106              	.L4:
 107 003e 00BF     		.align	2
 108              	.L3:
 109 0040 00000000 		.word	ch
 110              		.cfi_endproc
 111              	.LFE219:
 112              		.size	_thread_init, .-_thread_init
 113              		.section	.text.chThdCreateI,"ax",%progbits
 114              		.align	2
ARM GAS  C:\Users\IDONNO~1\AppData\Local\Temp\cc9oFEWr.s 			page 3


 115              		.p2align 4,,15
 116              		.global	chThdCreateI
 117              		.thumb
 118              		.thumb_func
 119              		.type	chThdCreateI, %function
 120              	chThdCreateI:
 121              	.LFB220:
 122              		.loc 1 178 0
 123              		.cfi_startproc
 124              		@ args = 4, pretend = 0, frame = 0
 125              		@ frame_needed = 0, uses_anonymous_args = 0
 126              	.LVL5:
 127              		.loc 1 187 0
 128 0000 6439     		subs	r1, r1, #100
 129              	.LVL6:
 130              		.loc 1 178 0
 131 0002 F0B5     		push	{r4, r5, r6, r7, lr}
 132              		.cfi_def_cfa_offset 20
 133              		.cfi_offset 4, -20
 134              		.cfi_offset 5, -16
 135              		.cfi_offset 6, -12
 136              		.cfi_offset 7, -8
 137              		.cfi_offset 14, -4
 138              		.loc 1 187 0
 139 0004 0144     		add	r1, r1, r0
 140              	.LVL7:
 141              	.LBB192:
 142              	.LBB193:
 143              		.loc 1 114 0
 144 0006 124E     		ldr	r6, .L7
 145              	.LBE193:
 146              	.LBE192:
 147              		.loc 1 187 0
 148 0008 124D     		ldr	r5, .L7+4
 149              	.LBB201:
 150              	.LBB198:
 151              		.loc 1 114 0
 152 000a 7769     		ldr	r7, [r6, #20]
 153              	.LBE198:
 154              	.LBE201:
 155              		.loc 1 187 0
 156 000c C160     		str	r1, [r0, #12]
 157 000e 0B64     		str	r3, [r1, #64]
 158 0010 059B     		ldr	r3, [sp, #20]
 159              	.LVL8:
 160 0012 4B64     		str	r3, [r1, #68]
 161              	.LBB202:
 162              	.LBB199:
 163              		.loc 1 94 0
 164 0014 0223     		movs	r3, #2
 165              	.LBE199:
 166              	.LBE202:
 167              		.loc 1 187 0
 168 0016 0D66     		str	r5, [r1, #96]
 169              	.LVL9:
 170              	.LBB203:
 171              	.LBB200:
ARM GAS  C:\Users\IDONNO~1\AppData\Local\Temp\cc9oFEWr.s 			page 4


 172              		.loc 1 97 0
 173 0018 4FF0040E 		mov	lr, #4
 174              		.loc 1 93 0
 175 001c 8260     		str	r2, [r0, #8]
 176              		.loc 1 100 0
 177 001e 0264     		str	r2, [r0, #64]
 178              		.loc 1 94 0
 179 0020 0377     		strb	r3, [r0, #28]
 180              	.LVL10:
 181              		.loc 1 120 0
 182 0022 00F12C02 		add	r2, r0, #44
 183              	.LVL11:
 184              		.loc 1 95 0
 185 0026 0023     		movs	r3, #0
 186              		.loc 1 110 0
 187 0028 0125     		movs	r5, #1
 188              		.loc 1 117 0
 189 002a 00F12801 		add	r1, r0, #40
 190              		.loc 1 114 0
 191 002e 0661     		str	r6, [r0, #16]
 192 0030 4761     		str	r7, [r0, #20]
 193              		.loc 1 97 0
 194 0032 80F81FE0 		strb	lr, [r0, #31]
 195              		.loc 1 110 0
 196 0036 8577     		strb	r5, [r0, #30]
 197              		.loc 1 95 0
 198 0038 4377     		strb	r3, [r0, #29]
 199              		.loc 1 101 0
 200 003a C363     		str	r3, [r0, #60]
 201              		.loc 1 104 0
 202 003c 8363     		str	r3, [r0, #56]
 203              		.loc 1 107 0
 204 003e 0362     		str	r3, [r0, #32]
 205              		.loc 1 113 0
 206 0040 8361     		str	r3, [r0, #24]
 207              		.loc 1 114 0
 208 0042 3861     		str	r0, [r7, #16]
 209              	.LBB194:
 210              	.LBB195:
 211              		.loc 2 566 0
 212 0044 8162     		str	r1, [r0, #40]
 213              	.LBE195:
 214              	.LBE194:
 215              		.loc 1 114 0
 216 0046 7061     		str	r0, [r6, #20]
 217              	.LVL12:
 218              	.LBB196:
 219              	.LBB197:
 220              		.loc 2 604 0
 221 0048 C262     		str	r2, [r0, #44]
 222              		.loc 2 605 0
 223 004a 0263     		str	r2, [r0, #48]
 224              	.LVL13:
 225              	.LBE197:
 226              	.LBE196:
 227              	.LBE200:
 228              	.LBE203:
ARM GAS  C:\Users\IDONNO~1\AppData\Local\Temp\cc9oFEWr.s 			page 5


 229              		.loc 1 190 0
 230 004c F0BD     		pop	{r4, r5, r6, r7, pc}
 231              	.LVL14:
 232              	.L8:
 233 004e 00BF     		.align	2
 234              	.L7:
 235 0050 00000000 		.word	ch
 236 0054 00000000 		.word	_port_thread_start
 237              		.cfi_endproc
 238              	.LFE220:
 239              		.size	chThdCreateI, .-chThdCreateI
 240              		.section	.text.chThdCreateStatic,"ax",%progbits
 241              		.align	2
 242              		.p2align 4,,15
 243              		.global	chThdCreateStatic
 244              		.thumb
 245              		.thumb_func
 246              		.type	chThdCreateStatic, %function
 247              	chThdCreateStatic:
 248              	.LFB221:
 249              		.loc 1 209 0
 250              		.cfi_startproc
 251              		@ args = 4, pretend = 0, frame = 0
 252              		@ frame_needed = 0, uses_anonymous_args = 0
 253              	.LVL15:
 254 0000 F8B5     		push	{r3, r4, r5, r6, r7, lr}
 255              		.cfi_def_cfa_offset 24
 256              		.cfi_offset 3, -24
 257              		.cfi_offset 4, -20
 258              		.cfi_offset 5, -16
 259              		.cfi_offset 6, -12
 260              		.cfi_offset 7, -8
 261              		.cfi_offset 14, -4
 262              		.loc 1 209 0
 263 0002 1D46     		mov	r5, r3
 264 0004 0446     		mov	r4, r0
 265              	.LBB204:
 266              	.LBB205:
 267              	.LBB206:
 268              	.LBB207:
 269              		.file 3 "lib/ChibiOS_3.0.2/os/ext/CMSIS/include/core_cmFunc.h"
 270              		.loc 3 546 0
 271 0006 2023     		movs	r3, #32
 272              	.LVL16:
 273              		.syntax unified
 274              	@ 546 "lib/ChibiOS_3.0.2/os/ext/CMSIS/include/core_cmFunc.h" 1
 275 0008 83F31188 		MSR basepri, r3
 276              	@ 0 "" 2
 277              	.LVL17:
 278              		.thumb
 279              		.syntax unified
 280              	.LBE207:
 281              	.LBE206:
 282              	.LBE205:
 283              	.LBE204:
 284              	.LBB208:
 285              	.LBB209:
ARM GAS  C:\Users\IDONNO~1\AppData\Local\Temp\cc9oFEWr.s 			page 6


 286              		.loc 1 187 0
 287 000c 6439     		subs	r1, r1, #100
 288              	.LVL18:
 289 000e 0144     		add	r1, r1, r0
 290              	.LVL19:
 291              	.LBB210:
 292              	.LBB211:
 293              		.loc 1 114 0
 294 0010 134E     		ldr	r6, .L11
 295              	.LBE211:
 296              	.LBE210:
 297              		.loc 1 187 0
 298 0012 144B     		ldr	r3, .L11+4
 299              	.LBB219:
 300              	.LBB216:
 301              		.loc 1 114 0
 302 0014 7769     		ldr	r7, [r6, #20]
 303              	.LBE216:
 304              	.LBE219:
 305              		.loc 1 187 0
 306 0016 C160     		str	r1, [r0, #12]
 307 0018 0D64     		str	r5, [r1, #64]
 308 001a 069D     		ldr	r5, [sp, #24]
 309              	.LVL20:
 310 001c 4D64     		str	r5, [r1, #68]
 311 001e 0B66     		str	r3, [r1, #96]
 312              	.LVL21:
 313              	.LBB220:
 314              	.LBB217:
 315              		.loc 1 94 0
 316 0020 0225     		movs	r5, #2
 317              		.loc 1 97 0
 318 0022 0423     		movs	r3, #4
 319              		.loc 1 93 0
 320 0024 8260     		str	r2, [r0, #8]
 321              		.loc 1 100 0
 322 0026 0264     		str	r2, [r0, #64]
 323              		.loc 1 94 0
 324 0028 0577     		strb	r5, [r0, #28]
 325              	.LVL22:
 326              		.loc 1 97 0
 327 002a C377     		strb	r3, [r0, #31]
 328              		.loc 1 95 0
 329 002c 0025     		movs	r5, #0
 330              		.loc 1 120 0
 331 002e 00F12C03 		add	r3, r0, #44
 332              		.loc 1 117 0
 333 0032 00F12802 		add	r2, r0, #40
 334              	.LVL23:
 335              		.loc 1 110 0
 336 0036 0121     		movs	r1, #1
 337 0038 8177     		strb	r1, [r0, #30]
 338              		.loc 1 114 0
 339 003a 0661     		str	r6, [r0, #16]
 340 003c 4761     		str	r7, [r0, #20]
 341              		.loc 1 95 0
 342 003e 4577     		strb	r5, [r0, #29]
ARM GAS  C:\Users\IDONNO~1\AppData\Local\Temp\cc9oFEWr.s 			page 7


 343              		.loc 1 101 0
 344 0040 C563     		str	r5, [r0, #60]
 345              		.loc 1 104 0
 346 0042 8563     		str	r5, [r0, #56]
 347              		.loc 1 107 0
 348 0044 0562     		str	r5, [r0, #32]
 349              		.loc 1 113 0
 350 0046 8561     		str	r5, [r0, #24]
 351              	.LBE217:
 352              	.LBE220:
 353              	.LBE209:
 354              	.LBE208:
 355              		.loc 1 223 0
 356 0048 2946     		mov	r1, r5
 357              	.LBB223:
 358              	.LBB222:
 359              	.LBB221:
 360              	.LBB218:
 361              		.loc 1 114 0
 362 004a 3861     		str	r0, [r7, #16]
 363              	.LBB212:
 364              	.LBB213:
 365              		.loc 2 566 0
 366 004c 8262     		str	r2, [r0, #40]
 367              	.LBE213:
 368              	.LBE212:
 369              	.LBB214:
 370              	.LBB215:
 371              		.loc 2 604 0
 372 004e C362     		str	r3, [r0, #44]
 373              		.loc 2 605 0
 374 0050 0363     		str	r3, [r0, #48]
 375              	.LBE215:
 376              	.LBE214:
 377              		.loc 1 114 0
 378 0052 7061     		str	r0, [r6, #20]
 379              	.LVL24:
 380              	.LBE218:
 381              	.LBE221:
 382              	.LBE222:
 383              	.LBE223:
 384              		.loc 1 223 0
 385 0054 FFF7FEFF 		bl	chSchWakeupS
 386              	.LVL25:
 387              	.LBB224:
 388              	.LBB225:
 389              	.LBB226:
 390              	.LBB227:
 391              	.LBB228:
 392              		.loc 3 546 0
 393              		.syntax unified
 394              	@ 546 "lib/ChibiOS_3.0.2/os/ext/CMSIS/include/core_cmFunc.h" 1
 395 0058 85F31188 		MSR basepri, r5
 396              	@ 0 "" 2
 397              	.LVL26:
 398              		.thumb
 399              		.syntax unified
ARM GAS  C:\Users\IDONNO~1\AppData\Local\Temp\cc9oFEWr.s 			page 8


 400              	.LBE228:
 401              	.LBE227:
 402              	.LBE226:
 403              	.LBE225:
 404              	.LBE224:
 405              		.loc 1 227 0
 406 005c 2046     		mov	r0, r4
 407 005e F8BD     		pop	{r3, r4, r5, r6, r7, pc}
 408              	.LVL27:
 409              	.L12:
 410              		.align	2
 411              	.L11:
 412 0060 00000000 		.word	ch
 413 0064 00000000 		.word	_port_thread_start
 414              		.cfi_endproc
 415              	.LFE221:
 416              		.size	chThdCreateStatic, .-chThdCreateStatic
 417              		.section	.text.chThdStart,"ax",%progbits
 418              		.align	2
 419              		.p2align 4,,15
 420              		.global	chThdStart
 421              		.thumb
 422              		.thumb_func
 423              		.type	chThdStart, %function
 424              	chThdStart:
 425              	.LFB222:
 426              		.loc 1 238 0
 427              		.cfi_startproc
 428              		@ args = 0, pretend = 0, frame = 0
 429              		@ frame_needed = 0, uses_anonymous_args = 0
 430              	.LVL28:
 431 0000 08B5     		push	{r3, lr}
 432              		.cfi_def_cfa_offset 8
 433              		.cfi_offset 3, -8
 434              		.cfi_offset 14, -4
 435              	.LBB229:
 436              	.LBB230:
 437              	.LBB231:
 438              	.LBB232:
 439              		.loc 3 546 0
 440 0002 2023     		movs	r3, #32
 441              		.syntax unified
 442              	@ 546 "lib/ChibiOS_3.0.2/os/ext/CMSIS/include/core_cmFunc.h" 1
 443 0004 83F31188 		MSR basepri, r3
 444              	@ 0 "" 2
 445              	.LVL29:
 446              		.thumb
 447              		.syntax unified
 448              	.LBE232:
 449              	.LBE231:
 450              	.LBE230:
 451              	.LBE229:
 452              	.LBB233:
 453              	.LBB234:
 454              		.file 4 "lib/ChibiOS_3.0.2/os/rt/include/chthreads.h"
 455              		.loc 4 249 0
 456 0008 FFF7FEFF 		bl	chSchReadyI
ARM GAS  C:\Users\IDONNO~1\AppData\Local\Temp\cc9oFEWr.s 			page 9


 457              	.LVL30:
 458              	.LBE234:
 459              	.LBE233:
 460              	.LBB235:
 461              	.LBB236:
 462              	.LBB237:
 463              	.LBB238:
 464              	.LBB239:
 465              		.loc 3 546 0
 466 000c 0023     		movs	r3, #0
 467              		.syntax unified
 468              	@ 546 "lib/ChibiOS_3.0.2/os/ext/CMSIS/include/core_cmFunc.h" 1
 469 000e 83F31188 		MSR basepri, r3
 470              	@ 0 "" 2
 471              	.LVL31:
 472              		.thumb
 473              		.syntax unified
 474              	.LBE239:
 475              	.LBE238:
 476              	.LBE237:
 477              	.LBE236:
 478              	.LBE235:
 479              		.loc 1 245 0
 480 0012 08BD     		pop	{r3, pc}
 481              		.cfi_endproc
 482              	.LFE222:
 483              		.size	chThdStart, .-chThdStart
 484              		.section	.text.chThdSetPriority,"ax",%progbits
 485              		.align	2
 486              		.p2align 4,,15
 487              		.global	chThdSetPriority
 488              		.thumb
 489              		.thumb_func
 490              		.type	chThdSetPriority, %function
 491              	chThdSetPriority:
 492              	.LFB223:
 493              		.loc 1 259 0
 494              		.cfi_startproc
 495              		@ args = 0, pretend = 0, frame = 0
 496              		@ frame_needed = 0, uses_anonymous_args = 0
 497              	.LVL32:
 498 0000 10B5     		push	{r4, lr}
 499              		.cfi_def_cfa_offset 8
 500              		.cfi_offset 4, -8
 501              		.cfi_offset 14, -4
 502              	.LBB240:
 503              	.LBB241:
 504              	.LBB242:
 505              	.LBB243:
 506              		.loc 3 546 0
 507 0002 2023     		movs	r3, #32
 508              		.syntax unified
 509              	@ 546 "lib/ChibiOS_3.0.2/os/ext/CMSIS/include/core_cmFunc.h" 1
 510 0004 83F31188 		MSR basepri, r3
 511              	@ 0 "" 2
 512              	.LVL33:
 513              		.thumb
ARM GAS  C:\Users\IDONNO~1\AppData\Local\Temp\cc9oFEWr.s 			page 10


 514              		.syntax unified
 515              	.LBE243:
 516              	.LBE242:
 517              	.LBE241:
 518              	.LBE240:
 519              		.loc 1 266 0
 520 0008 084B     		ldr	r3, .L20
 521 000a 9B69     		ldr	r3, [r3, #24]
 522 000c 1C6C     		ldr	r4, [r3, #64]
 523              	.LVL34:
 524              		.loc 1 267 0
 525 000e 9968     		ldr	r1, [r3, #8]
 526 0010 8C42     		cmp	r4, r1
 527 0012 01D0     		beq	.L16
 528              		.loc 1 267 0 is_stmt 0 discriminator 1
 529 0014 8142     		cmp	r1, r0
 530 0016 00D2     		bcs	.L17
 531              	.L16:
 532              		.loc 1 268 0 is_stmt 1
 533 0018 9860     		str	r0, [r3, #8]
 534              	.L17:
 535              		.loc 1 270 0
 536 001a 1864     		str	r0, [r3, #64]
 537              		.loc 1 275 0
 538 001c FFF7FEFF 		bl	chSchRescheduleS
 539              	.LVL35:
 540              	.LBB244:
 541              	.LBB245:
 542              	.LBB246:
 543              	.LBB247:
 544              	.LBB248:
 545              		.loc 3 546 0
 546 0020 0023     		movs	r3, #0
 547              		.syntax unified
 548              	@ 546 "lib/ChibiOS_3.0.2/os/ext/CMSIS/include/core_cmFunc.h" 1
 549 0022 83F31188 		MSR basepri, r3
 550              	@ 0 "" 2
 551              	.LVL36:
 552              		.thumb
 553              		.syntax unified
 554              	.LBE248:
 555              	.LBE247:
 556              	.LBE246:
 557              	.LBE245:
 558              	.LBE244:
 559              		.loc 1 279 0
 560 0026 2046     		mov	r0, r4
 561 0028 10BD     		pop	{r4, pc}
 562              	.LVL37:
 563              	.L21:
 564 002a 00BF     		.align	2
 565              	.L20:
 566 002c 00000000 		.word	ch
 567              		.cfi_endproc
 568              	.LFE223:
 569              		.size	chThdSetPriority, .-chThdSetPriority
 570              		.section	.text.chThdTerminate,"ax",%progbits
ARM GAS  C:\Users\IDONNO~1\AppData\Local\Temp\cc9oFEWr.s 			page 11


 571              		.align	2
 572              		.p2align 4,,15
 573              		.global	chThdTerminate
 574              		.thumb
 575              		.thumb_func
 576              		.type	chThdTerminate, %function
 577              	chThdTerminate:
 578              	.LFB224:
 579              		.loc 1 293 0
 580              		.cfi_startproc
 581              		@ args = 0, pretend = 0, frame = 0
 582              		@ frame_needed = 0, uses_anonymous_args = 0
 583              		@ link register save eliminated.
 584              	.LVL38:
 585              	.LBB249:
 586              	.LBB250:
 587              	.LBB251:
 588              	.LBB252:
 589              		.loc 3 546 0
 590 0000 2023     		movs	r3, #32
 591              		.syntax unified
 592              	@ 546 "lib/ChibiOS_3.0.2/os/ext/CMSIS/include/core_cmFunc.h" 1
 593 0002 83F31188 		MSR basepri, r3
 594              	@ 0 "" 2
 595              	.LVL39:
 596              		.thumb
 597              		.syntax unified
 598              	.LBE252:
 599              	.LBE251:
 600              	.LBE250:
 601              	.LBE249:
 602              		.loc 1 296 0
 603 0006 437F     		ldrb	r3, [r0, #29]	@ zero_extendqisi2
 604 0008 43F00403 		orr	r3, r3, #4
 605 000c 4377     		strb	r3, [r0, #29]
 606              	.LVL40:
 607              	.LBB253:
 608              	.LBB254:
 609              	.LBB255:
 610              	.LBB256:
 611              	.LBB257:
 612              		.loc 3 546 0
 613 000e 0023     		movs	r3, #0
 614              		.syntax unified
 615              	@ 546 "lib/ChibiOS_3.0.2/os/ext/CMSIS/include/core_cmFunc.h" 1
 616 0010 83F31188 		MSR basepri, r3
 617              	@ 0 "" 2
 618              	.LVL41:
 619              		.thumb
 620              		.syntax unified
 621 0014 7047     		bx	lr
 622              	.LBE257:
 623              	.LBE256:
 624              	.LBE255:
 625              	.LBE254:
 626              	.LBE253:
 627              		.cfi_endproc
ARM GAS  C:\Users\IDONNO~1\AppData\Local\Temp\cc9oFEWr.s 			page 12


 628              	.LFE224:
 629              		.size	chThdTerminate, .-chThdTerminate
 630 0016 00BF     		.section	.text.chThdSleep,"ax",%progbits
 631              		.align	2
 632              		.p2align 4,,15
 633              		.global	chThdSleep
 634              		.thumb
 635              		.thumb_func
 636              		.type	chThdSleep, %function
 637              	chThdSleep:
 638              	.LFB225:
 639              		.loc 1 312 0
 640              		.cfi_startproc
 641              		@ args = 0, pretend = 0, frame = 0
 642              		@ frame_needed = 0, uses_anonymous_args = 0
 643              	.LVL42:
 644 0000 08B5     		push	{r3, lr}
 645              		.cfi_def_cfa_offset 8
 646              		.cfi_offset 3, -8
 647              		.cfi_offset 14, -4
 648              		.loc 1 312 0
 649 0002 0146     		mov	r1, r0
 650              	.LBB258:
 651              	.LBB259:
 652              	.LBB260:
 653              	.LBB261:
 654              		.loc 3 546 0
 655 0004 2023     		movs	r3, #32
 656              		.syntax unified
 657              	@ 546 "lib/ChibiOS_3.0.2/os/ext/CMSIS/include/core_cmFunc.h" 1
 658 0006 83F31188 		MSR basepri, r3
 659              	@ 0 "" 2
 660              	.LVL43:
 661              		.thumb
 662              		.syntax unified
 663              	.LBE261:
 664              	.LBE260:
 665              	.LBE259:
 666              	.LBE258:
 667              	.LBB262:
 668              	.LBB263:
 669              		.loc 4 268 0
 670 000a 0820     		movs	r0, #8
 671              	.LVL44:
 672 000c FFF7FEFF 		bl	chSchGoSleepTimeoutS
 673              	.LVL45:
 674              	.LBE263:
 675              	.LBE262:
 676              	.LBB264:
 677              	.LBB265:
 678              	.LBB266:
 679              	.LBB267:
 680              	.LBB268:
 681              		.loc 3 546 0
 682 0010 0023     		movs	r3, #0
 683              		.syntax unified
 684              	@ 546 "lib/ChibiOS_3.0.2/os/ext/CMSIS/include/core_cmFunc.h" 1
ARM GAS  C:\Users\IDONNO~1\AppData\Local\Temp\cc9oFEWr.s 			page 13


 685 0012 83F31188 		MSR basepri, r3
 686              	@ 0 "" 2
 687              	.LVL46:
 688              		.thumb
 689              		.syntax unified
 690 0016 08BD     		pop	{r3, pc}
 691              	.LBE268:
 692              	.LBE267:
 693              	.LBE266:
 694              	.LBE265:
 695              	.LBE264:
 696              		.cfi_endproc
 697              	.LFE225:
 698              		.size	chThdSleep, .-chThdSleep
 699              		.section	.text.chThdSleepUntil,"ax",%progbits
 700              		.align	2
 701              		.p2align 4,,15
 702              		.global	chThdSleepUntil
 703              		.thumb
 704              		.thumb_func
 705              		.type	chThdSleepUntil, %function
 706              	chThdSleepUntil:
 707              	.LFB226:
 708              		.loc 1 332 0
 709              		.cfi_startproc
 710              		@ args = 0, pretend = 0, frame = 0
 711              		@ frame_needed = 0, uses_anonymous_args = 0
 712              	.LVL47:
 713 0000 08B5     		push	{r3, lr}
 714              		.cfi_def_cfa_offset 8
 715              		.cfi_offset 3, -8
 716              		.cfi_offset 14, -4
 717              	.LBB269:
 718              	.LBB270:
 719              	.LBB271:
 720              	.LBB272:
 721              		.loc 3 546 0
 722 0002 2023     		movs	r3, #32
 723              		.syntax unified
 724              	@ 546 "lib/ChibiOS_3.0.2/os/ext/CMSIS/include/core_cmFunc.h" 1
 725 0004 83F31188 		MSR basepri, r3
 726              	@ 0 "" 2
 727              	.LVL48:
 728              		.thumb
 729              		.syntax unified
 730              	.LBE272:
 731              	.LBE271:
 732              	.LBE270:
 733              	.LBE269:
 734              	.LBB273:
 735              	.LBB274:
 736              		.file 5 "lib/ChibiOS_3.0.2/os/rt/include/chvt.h"
 737              		.loc 5 231 0
 738 0008 054B     		ldr	r3, .L31
 739 000a 996A     		ldr	r1, [r3, #40]
 740              	.LVL49:
 741              	.LBE274:
ARM GAS  C:\Users\IDONNO~1\AppData\Local\Temp\cc9oFEWr.s 			page 14


 742              	.LBE273:
 743              		.loc 1 336 0
 744 000c 411A     		subs	r1, r0, r1
 745              	.LVL50:
 746 000e 02D0     		beq	.L26
 747              	.LVL51:
 748              	.LBB275:
 749              	.LBB276:
 750              		.loc 4 268 0
 751 0010 0820     		movs	r0, #8
 752 0012 FFF7FEFF 		bl	chSchGoSleepTimeoutS
 753              	.LVL52:
 754              	.L26:
 755              	.LBE276:
 756              	.LBE275:
 757              	.LBB277:
 758              	.LBB278:
 759              	.LBB279:
 760              	.LBB280:
 761              	.LBB281:
 762              		.loc 3 546 0
 763 0016 0023     		movs	r3, #0
 764              		.syntax unified
 765              	@ 546 "lib/ChibiOS_3.0.2/os/ext/CMSIS/include/core_cmFunc.h" 1
 766 0018 83F31188 		MSR basepri, r3
 767              	@ 0 "" 2
 768              	.LVL53:
 769              		.thumb
 770              		.syntax unified
 771 001c 08BD     		pop	{r3, pc}
 772              	.L32:
 773 001e 00BF     		.align	2
 774              	.L31:
 775 0020 00000000 		.word	ch
 776              	.LBE281:
 777              	.LBE280:
 778              	.LBE279:
 779              	.LBE278:
 780              	.LBE277:
 781              		.cfi_endproc
 782              	.LFE226:
 783              		.size	chThdSleepUntil, .-chThdSleepUntil
 784              		.section	.text.chThdSleepUntilWindowed,"ax",%progbits
 785              		.align	2
 786              		.p2align 4,,15
 787              		.global	chThdSleepUntilWindowed
 788              		.thumb
 789              		.thumb_func
 790              		.type	chThdSleepUntilWindowed, %function
 791              	chThdSleepUntilWindowed:
 792              	.LFB227:
 793              		.loc 1 356 0
 794              		.cfi_startproc
 795              		@ args = 0, pretend = 0, frame = 0
 796              		@ frame_needed = 0, uses_anonymous_args = 0
 797              	.LVL54:
 798 0000 10B5     		push	{r4, lr}
ARM GAS  C:\Users\IDONNO~1\AppData\Local\Temp\cc9oFEWr.s 			page 15


 799              		.cfi_def_cfa_offset 8
 800              		.cfi_offset 4, -8
 801              		.cfi_offset 14, -4
 802              	.LBB282:
 803              	.LBB283:
 804              	.LBB284:
 805              	.LBB285:
 806              		.loc 3 546 0
 807 0002 2023     		movs	r3, #32
 808              	.LBE285:
 809              	.LBE284:
 810              	.LBE283:
 811              	.LBE282:
 812              		.loc 1 356 0
 813 0004 0C46     		mov	r4, r1
 814              	.LBB289:
 815              	.LBB288:
 816              	.LBB287:
 817              	.LBB286:
 818              		.loc 3 546 0
 819              		.syntax unified
 820              	@ 546 "lib/ChibiOS_3.0.2/os/ext/CMSIS/include/core_cmFunc.h" 1
 821 0006 83F31188 		MSR basepri, r3
 822              	@ 0 "" 2
 823              	.LVL55:
 824              		.thumb
 825              		.syntax unified
 826              	.LBE286:
 827              	.LBE287:
 828              	.LBE288:
 829              	.LBE289:
 830              	.LBB290:
 831              	.LBB291:
 832              		.loc 5 231 0
 833 000a 074B     		ldr	r3, .L36
 834 000c 996A     		ldr	r1, [r3, #40]
 835              	.LVL56:
 836              	.LBE291:
 837              	.LBE290:
 838              		.loc 1 361 0
 839 000e 231A     		subs	r3, r4, r0
 840 0010 081A     		subs	r0, r1, r0
 841              	.LVL57:
 842 0012 9842     		cmp	r0, r3
 843 0014 03D2     		bcs	.L34
 844              	.LVL58:
 845              	.LBB292:
 846              	.LBB293:
 847              		.loc 4 268 0
 848 0016 611A     		subs	r1, r4, r1
 849              	.LVL59:
 850 0018 0820     		movs	r0, #8
 851 001a FFF7FEFF 		bl	chSchGoSleepTimeoutS
 852              	.LVL60:
 853              	.L34:
 854              	.LBE293:
 855              	.LBE292:
ARM GAS  C:\Users\IDONNO~1\AppData\Local\Temp\cc9oFEWr.s 			page 16


 856              	.LBB294:
 857              	.LBB295:
 858              	.LBB296:
 859              	.LBB297:
 860              	.LBB298:
 861              		.loc 3 546 0
 862 001e 0023     		movs	r3, #0
 863              		.syntax unified
 864              	@ 546 "lib/ChibiOS_3.0.2/os/ext/CMSIS/include/core_cmFunc.h" 1
 865 0020 83F31188 		MSR basepri, r3
 866              	@ 0 "" 2
 867              	.LVL61:
 868              		.thumb
 869              		.syntax unified
 870              	.LBE298:
 871              	.LBE297:
 872              	.LBE296:
 873              	.LBE295:
 874              	.LBE294:
 875              		.loc 1 367 0
 876 0024 2046     		mov	r0, r4
 877 0026 10BD     		pop	{r4, pc}
 878              	.LVL62:
 879              	.L37:
 880              		.align	2
 881              	.L36:
 882 0028 00000000 		.word	ch
 883              		.cfi_endproc
 884              	.LFE227:
 885              		.size	chThdSleepUntilWindowed, .-chThdSleepUntilWindowed
 886              		.section	.text.chThdYield,"ax",%progbits
 887              		.align	2
 888              		.p2align 4,,15
 889              		.global	chThdYield
 890              		.thumb
 891              		.thumb_func
 892              		.type	chThdYield, %function
 893              	chThdYield:
 894              	.LFB228:
 895              		.loc 1 376 0
 896              		.cfi_startproc
 897              		@ args = 0, pretend = 0, frame = 0
 898              		@ frame_needed = 0, uses_anonymous_args = 0
 899              	.LVL63:
 900 0000 08B5     		push	{r3, lr}
 901              		.cfi_def_cfa_offset 8
 902              		.cfi_offset 3, -8
 903              		.cfi_offset 14, -4
 904              	.LBB299:
 905              	.LBB300:
 906              	.LBB301:
 907              	.LBB302:
 908              		.loc 3 546 0
 909 0002 2023     		movs	r3, #32
 910              		.syntax unified
 911              	@ 546 "lib/ChibiOS_3.0.2/os/ext/CMSIS/include/core_cmFunc.h" 1
 912 0004 83F31188 		MSR basepri, r3
ARM GAS  C:\Users\IDONNO~1\AppData\Local\Temp\cc9oFEWr.s 			page 17


 913              	@ 0 "" 2
 914              	.LVL64:
 915              		.thumb
 916              		.syntax unified
 917              	.LBE302:
 918              	.LBE301:
 919              	.LBE300:
 920              	.LBE299:
 921              	.LBB303:
 922              	.LBB304:
 923              	.LBB305:
 924              	.LBB306:
 925              		.loc 2 731 0
 926 0008 064B     		ldr	r3, .L41
 927 000a 1A68     		ldr	r2, [r3]
 928 000c 9B69     		ldr	r3, [r3, #24]
 929              	.LBE306:
 930              	.LBE305:
 931              		.loc 2 745 0
 932 000e 9268     		ldr	r2, [r2, #8]
 933 0010 9B68     		ldr	r3, [r3, #8]
 934 0012 9A42     		cmp	r2, r3
 935 0014 01D3     		bcc	.L39
 936              		.loc 2 746 0
 937 0016 FFF7FEFF 		bl	chSchDoRescheduleBehind
 938              	.LVL65:
 939              	.L39:
 940              	.LBE304:
 941              	.LBE303:
 942              	.LBB307:
 943              	.LBB308:
 944              	.LBB309:
 945              	.LBB310:
 946              	.LBB311:
 947              		.loc 3 546 0
 948 001a 0023     		movs	r3, #0
 949              		.syntax unified
 950              	@ 546 "lib/ChibiOS_3.0.2/os/ext/CMSIS/include/core_cmFunc.h" 1
 951 001c 83F31188 		MSR basepri, r3
 952              	@ 0 "" 2
 953              	.LVL66:
 954              		.thumb
 955              		.syntax unified
 956 0020 08BD     		pop	{r3, pc}
 957              	.L42:
 958 0022 00BF     		.align	2
 959              	.L41:
 960 0024 00000000 		.word	ch
 961              	.LBE311:
 962              	.LBE310:
 963              	.LBE309:
 964              	.LBE308:
 965              	.LBE307:
 966              		.cfi_endproc
 967              	.LFE228:
 968              		.size	chThdYield, .-chThdYield
 969              		.section	.text.chThdExitS,"ax",%progbits
ARM GAS  C:\Users\IDONNO~1\AppData\Local\Temp\cc9oFEWr.s 			page 18


 970              		.align	2
 971              		.p2align 4,,15
 972              		.global	chThdExitS
 973              		.thumb
 974              		.thumb_func
 975              		.type	chThdExitS, %function
 976              	chThdExitS:
 977              	.LFB230:
 978              		.loc 1 418 0
 979              		.cfi_startproc
 980              		@ args = 0, pretend = 0, frame = 0
 981              		@ frame_needed = 0, uses_anonymous_args = 0
 982              	.LVL67:
 983 0000 38B5     		push	{r3, r4, r5, lr}
 984              		.cfi_def_cfa_offset 16
 985              		.cfi_offset 3, -16
 986              		.cfi_offset 4, -12
 987              		.cfi_offset 5, -8
 988              		.cfi_offset 14, -4
 989              		.loc 1 419 0
 990 0002 0E4B     		ldr	r3, .L51
 991 0004 9C69     		ldr	r4, [r3, #24]
 992              	.LVL68:
 993              	.LBB312:
 994              	.LBB313:
 995              		.loc 2 592 0
 996 0006 A36A     		ldr	r3, [r4, #40]
 997              	.LBE313:
 998              	.LBE312:
 999              		.loc 1 421 0
 1000 0008 6062     		str	r0, [r4, #36]
 1001              		.loc 1 426 0
 1002 000a 04F12805 		add	r5, r4, #40
 1003 000e 9D42     		cmp	r5, r3
 1004 0010 07D0     		beq	.L48
 1005              	.LVL69:
 1006              	.L47:
 1007              	.LBB315:
 1008              	.LBB316:
 1009              		.loc 2 646 0
 1010 0012 1A68     		ldr	r2, [r3]
 1011 0014 A262     		str	r2, [r4, #40]
 1012              	.LVL70:
 1013              	.LBE316:
 1014              	.LBE315:
 1015              		.loc 1 427 0
 1016 0016 1846     		mov	r0, r3
 1017 0018 FFF7FEFF 		bl	chSchReadyI
 1018              	.LVL71:
 1019              	.LBB317:
 1020              	.LBB314:
 1021              		.loc 2 592 0
 1022 001c A36A     		ldr	r3, [r4, #40]
 1023              	.LVL72:
 1024              	.LBE314:
 1025              	.LBE317:
 1026              		.loc 1 426 0
ARM GAS  C:\Users\IDONNO~1\AppData\Local\Temp\cc9oFEWr.s 			page 19


 1027 001e AB42     		cmp	r3, r5
 1028 0020 F7D1     		bne	.L47
 1029              	.L48:
 1030              		.loc 1 433 0
 1031 0022 637F     		ldrb	r3, [r4, #29]	@ zero_extendqisi2
 1032 0024 9B07     		lsls	r3, r3, #30
 1033 0026 04D1     		bne	.L46
 1034              		.loc 1 434 0
 1035 0028 6369     		ldr	r3, [r4, #20]
 1036 002a 2269     		ldr	r2, [r4, #16]
 1037 002c 1A61     		str	r2, [r3, #16]
 1038 002e 2269     		ldr	r2, [r4, #16]
 1039 0030 5361     		str	r3, [r2, #20]
 1040              	.L46:
 1041              		.loc 1 437 0
 1042 0032 0F20     		movs	r0, #15
 1043              		.loc 1 441 0
 1044 0034 BDE83840 		pop	{r3, r4, r5, lr}
 1045              		.cfi_restore 14
 1046              		.cfi_restore 5
 1047              		.cfi_restore 4
 1048              		.cfi_restore 3
 1049              		.cfi_def_cfa_offset 0
 1050              	.LVL73:
 1051              		.loc 1 437 0
 1052 0038 FFF7FEBF 		b	chSchGoSleepS
 1053              	.LVL74:
 1054              	.L52:
 1055              		.align	2
 1056              	.L51:
 1057 003c 00000000 		.word	ch
 1058              		.cfi_endproc
 1059              	.LFE230:
 1060              		.size	chThdExitS, .-chThdExitS
 1061              		.section	.text.chThdExit,"ax",%progbits
 1062              		.align	2
 1063              		.p2align 4,,15
 1064              		.global	chThdExit
 1065              		.thumb
 1066              		.thumb_func
 1067              		.type	chThdExit, %function
 1068              	chThdExit:
 1069              	.LFB229:
 1070              		.loc 1 397 0
 1071              		.cfi_startproc
 1072              		@ args = 0, pretend = 0, frame = 0
 1073              		@ frame_needed = 0, uses_anonymous_args = 0
 1074              		@ link register save eliminated.
 1075              	.LVL75:
 1076              	.LBB318:
 1077              	.LBB319:
 1078              	.LBB320:
 1079              	.LBB321:
 1080              		.loc 3 546 0
 1081 0000 2023     		movs	r3, #32
 1082              		.syntax unified
 1083              	@ 546 "lib/ChibiOS_3.0.2/os/ext/CMSIS/include/core_cmFunc.h" 1
ARM GAS  C:\Users\IDONNO~1\AppData\Local\Temp\cc9oFEWr.s 			page 20


 1084 0002 83F31188 		MSR basepri, r3
 1085              	@ 0 "" 2
 1086              	.LVL76:
 1087              		.thumb
 1088              		.syntax unified
 1089              	.LBE321:
 1090              	.LBE320:
 1091              	.LBE319:
 1092              	.LBE318:
 1093              		.loc 1 400 0
 1094 0006 FFF7FEBF 		b	chThdExitS
 1095              	.LVL77:
 1096              		.cfi_endproc
 1097              	.LFE229:
 1098              		.size	chThdExit, .-chThdExit
 1099 000a 00BF     		.section	.text.chThdWait,"ax",%progbits
 1100              		.align	2
 1101              		.p2align 4,,15
 1102              		.global	chThdWait
 1103              		.thumb
 1104              		.thumb_func
 1105              		.type	chThdWait, %function
 1106              	chThdWait:
 1107              	.LFB231:
 1108              		.loc 1 475 0
 1109              		.cfi_startproc
 1110              		@ args = 0, pretend = 0, frame = 0
 1111              		@ frame_needed = 0, uses_anonymous_args = 0
 1112              	.LVL78:
 1113 0000 38B5     		push	{r3, r4, r5, lr}
 1114              		.cfi_def_cfa_offset 16
 1115              		.cfi_offset 3, -16
 1116              		.cfi_offset 4, -12
 1117              		.cfi_offset 5, -8
 1118              		.cfi_offset 14, -4
 1119              		.loc 1 475 0
 1120 0002 0446     		mov	r4, r0
 1121              	.LBB322:
 1122              	.LBB323:
 1123              	.LBB324:
 1124              	.LBB325:
 1125              		.loc 3 546 0
 1126 0004 2023     		movs	r3, #32
 1127              		.syntax unified
 1128              	@ 546 "lib/ChibiOS_3.0.2/os/ext/CMSIS/include/core_cmFunc.h" 1
 1129 0006 83F31188 		MSR basepri, r3
 1130              	@ 0 "" 2
 1131              	.LVL79:
 1132              		.thumb
 1133              		.syntax unified
 1134              	.LBE325:
 1135              	.LBE324:
 1136              	.LBE323:
 1137              	.LBE322:
 1138              		.loc 1 485 0
 1139 000a 037F     		ldrb	r3, [r0, #28]	@ zero_extendqisi2
 1140 000c 0F2B     		cmp	r3, #15
ARM GAS  C:\Users\IDONNO~1\AppData\Local\Temp\cc9oFEWr.s 			page 21


 1141 000e 07D0     		beq	.L55
 1142              		.loc 1 486 0
 1143 0010 084B     		ldr	r3, .L60
 1144              	.LBB326:
 1145              	.LBB327:
 1146              		.loc 2 639 0
 1147 0012 826A     		ldr	r2, [r0, #40]
 1148              	.LBE327:
 1149              	.LBE326:
 1150              		.loc 1 486 0
 1151 0014 9B69     		ldr	r3, [r3, #24]
 1152              	.LVL80:
 1153              		.loc 1 487 0
 1154 0016 0920     		movs	r0, #9
 1155              	.LVL81:
 1156              	.LBB329:
 1157              	.LBB328:
 1158              		.loc 2 639 0
 1159 0018 1A60     		str	r2, [r3]
 1160              		.loc 2 640 0
 1161 001a A362     		str	r3, [r4, #40]
 1162              	.LVL82:
 1163              	.LBE328:
 1164              	.LBE329:
 1165              		.loc 1 487 0
 1166 001c FFF7FEFF 		bl	chSchGoSleepS
 1167              	.LVL83:
 1168              	.L55:
 1169              		.loc 1 489 0
 1170 0020 656A     		ldr	r5, [r4, #36]
 1171              	.LVL84:
 1172              	.LBB330:
 1173              	.LBB331:
 1174              	.LBB332:
 1175              	.LBB333:
 1176              	.LBB334:
 1177              		.loc 3 546 0
 1178 0022 0023     		movs	r3, #0
 1179              		.syntax unified
 1180              	@ 546 "lib/ChibiOS_3.0.2/os/ext/CMSIS/include/core_cmFunc.h" 1
 1181 0024 83F31188 		MSR basepri, r3
 1182              	@ 0 "" 2
 1183              	.LVL85:
 1184              		.thumb
 1185              		.syntax unified
 1186              	.LBE334:
 1187              	.LBE333:
 1188              	.LBE332:
 1189              	.LBE331:
 1190              	.LBE330:
 1191              		.loc 1 494 0
 1192 0028 2046     		mov	r0, r4
 1193 002a FFF7FEFF 		bl	chThdRelease
 1194              	.LVL86:
 1195              		.loc 1 498 0
 1196 002e 2846     		mov	r0, r5
 1197 0030 38BD     		pop	{r3, r4, r5, pc}
ARM GAS  C:\Users\IDONNO~1\AppData\Local\Temp\cc9oFEWr.s 			page 22


 1198              	.LVL87:
 1199              	.L61:
 1200 0032 00BF     		.align	2
 1201              	.L60:
 1202 0034 00000000 		.word	ch
 1203              		.cfi_endproc
 1204              	.LFE231:
 1205              		.size	chThdWait, .-chThdWait
 1206              		.section	.text.chThdSuspendS,"ax",%progbits
 1207              		.align	2
 1208              		.p2align 4,,15
 1209              		.global	chThdSuspendS
 1210              		.thumb
 1211              		.thumb_func
 1212              		.type	chThdSuspendS, %function
 1213              	chThdSuspendS:
 1214              	.LFB232:
 1215              		.loc 1 511 0
 1216              		.cfi_startproc
 1217              		@ args = 0, pretend = 0, frame = 0
 1218              		@ frame_needed = 0, uses_anonymous_args = 0
 1219              	.LVL88:
 1220 0000 10B5     		push	{r4, lr}
 1221              		.cfi_def_cfa_offset 8
 1222              		.cfi_offset 4, -8
 1223              		.cfi_offset 14, -4
 1224              	.LBB335:
 1225              	.LBB336:
 1226              		.loc 4 176 0
 1227 0002 054C     		ldr	r4, .L64
 1228 0004 A369     		ldr	r3, [r4, #24]
 1229              	.LBE336:
 1230              	.LBE335:
 1231              		.loc 1 516 0
 1232 0006 0360     		str	r3, [r0]
 1233              		.loc 1 511 0
 1234 0008 0246     		mov	r2, r0
 1235              		.loc 1 517 0
 1236 000a 5A62     		str	r2, [r3, #36]
 1237              		.loc 1 518 0
 1238 000c 0320     		movs	r0, #3
 1239              	.LVL89:
 1240 000e FFF7FEFF 		bl	chSchGoSleepS
 1241              	.LVL90:
 1242              		.loc 1 520 0
 1243 0012 A369     		ldr	r3, [r4, #24]
 1244              		.loc 1 521 0
 1245 0014 586A     		ldr	r0, [r3, #36]
 1246 0016 10BD     		pop	{r4, pc}
 1247              	.L65:
 1248              		.align	2
 1249              	.L64:
 1250 0018 00000000 		.word	ch
 1251              		.cfi_endproc
 1252              	.LFE232:
 1253              		.size	chThdSuspendS, .-chThdSuspendS
 1254              		.section	.text.chThdSuspendTimeoutS,"ax",%progbits
ARM GAS  C:\Users\IDONNO~1\AppData\Local\Temp\cc9oFEWr.s 			page 23


 1255              		.align	2
 1256              		.p2align 4,,15
 1257              		.global	chThdSuspendTimeoutS
 1258              		.thumb
 1259              		.thumb_func
 1260              		.type	chThdSuspendTimeoutS, %function
 1261              	chThdSuspendTimeoutS:
 1262              	.LFB233:
 1263              		.loc 1 542 0
 1264              		.cfi_startproc
 1265              		@ args = 0, pretend = 0, frame = 0
 1266              		@ frame_needed = 0, uses_anonymous_args = 0
 1267              		@ link register save eliminated.
 1268              	.LVL91:
 1269              	.LBB337:
 1270              	.LBB338:
 1271              		.loc 4 176 0
 1272 0000 054B     		ldr	r3, .L68
 1273              	.LBE338:
 1274              	.LBE337:
 1275              		.loc 1 542 0
 1276 0002 0246     		mov	r2, r0
 1277              	.LBB340:
 1278              	.LBB339:
 1279              		.loc 4 176 0
 1280 0004 9B69     		ldr	r3, [r3, #24]
 1281              	.LBE339:
 1282              	.LBE340:
 1283              		.loc 1 547 0
 1284 0006 21B1     		cbz	r1, .L67
 1285              		.loc 1 551 0
 1286 0008 0360     		str	r3, [r0]
 1287              		.loc 1 554 0
 1288 000a 0320     		movs	r0, #3
 1289              	.LVL92:
 1290              		.loc 1 552 0
 1291 000c 5A62     		str	r2, [r3, #36]
 1292              		.loc 1 554 0
 1293 000e FFF7FEBF 		b	chSchGoSleepTimeoutS
 1294              	.LVL93:
 1295              	.L67:
 1296              		.loc 1 555 0
 1297 0012 4FF0FF30 		mov	r0, #-1
 1298              	.LVL94:
 1299 0016 7047     		bx	lr
 1300              	.L69:
 1301              		.align	2
 1302              	.L68:
 1303 0018 00000000 		.word	ch
 1304              		.cfi_endproc
 1305              	.LFE233:
 1306              		.size	chThdSuspendTimeoutS, .-chThdSuspendTimeoutS
 1307              		.section	.text.chThdResumeI,"ax",%progbits
 1308              		.align	2
 1309              		.p2align 4,,15
 1310              		.global	chThdResumeI
 1311              		.thumb
ARM GAS  C:\Users\IDONNO~1\AppData\Local\Temp\cc9oFEWr.s 			page 24


 1312              		.thumb_func
 1313              		.type	chThdResumeI, %function
 1314              	chThdResumeI:
 1315              	.LFB234:
 1316              		.loc 1 567 0
 1317              		.cfi_startproc
 1318              		@ args = 0, pretend = 0, frame = 0
 1319              		@ frame_needed = 0, uses_anonymous_args = 0
 1320              		@ link register save eliminated.
 1321              	.LVL95:
 1322              		.loc 1 569 0
 1323 0000 0368     		ldr	r3, [r0]
 1324 0002 2BB1     		cbz	r3, .L70
 1325              	.LVL96:
 1326              	.LBB341:
 1327              		.loc 1 575 0
 1328 0004 0022     		movs	r2, #0
 1329 0006 0260     		str	r2, [r0]
 1330              		.loc 1 577 0
 1331 0008 1846     		mov	r0, r3
 1332              	.LVL97:
 1333              		.loc 1 576 0
 1334 000a 5962     		str	r1, [r3, #36]
 1335              		.loc 1 577 0
 1336 000c FFF7FEBF 		b	chSchReadyI
 1337              	.LVL98:
 1338              	.L70:
 1339 0010 7047     		bx	lr
 1340              	.LBE341:
 1341              		.cfi_endproc
 1342              	.LFE234:
 1343              		.size	chThdResumeI, .-chThdResumeI
 1344 0012 00BF     		.section	.text.chThdResumeS,"ax",%progbits
 1345              		.align	2
 1346              		.p2align 4,,15
 1347              		.global	chThdResumeS
 1348              		.thumb
 1349              		.thumb_func
 1350              		.type	chThdResumeS, %function
 1351              	chThdResumeS:
 1352              	.LFB235:
 1353              		.loc 1 591 0
 1354              		.cfi_startproc
 1355              		@ args = 0, pretend = 0, frame = 0
 1356              		@ frame_needed = 0, uses_anonymous_args = 0
 1357              		@ link register save eliminated.
 1358              	.LVL99:
 1359              		.loc 1 591 0
 1360 0000 0346     		mov	r3, r0
 1361              		.loc 1 593 0
 1362 0002 0068     		ldr	r0, [r0]
 1363              	.LVL100:
 1364 0004 18B1     		cbz	r0, .L72
 1365              	.LVL101:
 1366              	.LBB342:
 1367              		.loc 1 599 0
 1368 0006 0022     		movs	r2, #0
ARM GAS  C:\Users\IDONNO~1\AppData\Local\Temp\cc9oFEWr.s 			page 25


 1369 0008 1A60     		str	r2, [r3]
 1370              		.loc 1 600 0
 1371 000a FFF7FEBF 		b	chSchWakeupS
 1372              	.LVL102:
 1373              	.L72:
 1374 000e 7047     		bx	lr
 1375              	.LBE342:
 1376              		.cfi_endproc
 1377              	.LFE235:
 1378              		.size	chThdResumeS, .-chThdResumeS
 1379              		.section	.text.chThdResume,"ax",%progbits
 1380              		.align	2
 1381              		.p2align 4,,15
 1382              		.global	chThdResume
 1383              		.thumb
 1384              		.thumb_func
 1385              		.type	chThdResume, %function
 1386              	chThdResume:
 1387              	.LFB236:
 1388              		.loc 1 614 0
 1389              		.cfi_startproc
 1390              		@ args = 0, pretend = 0, frame = 0
 1391              		@ frame_needed = 0, uses_anonymous_args = 0
 1392              	.LVL103:
 1393              	.LBB343:
 1394              	.LBB344:
 1395              	.LBB345:
 1396              	.LBB346:
 1397              		.loc 3 546 0
 1398 0000 2023     		movs	r3, #32
 1399              		.syntax unified
 1400              	@ 546 "lib/ChibiOS_3.0.2/os/ext/CMSIS/include/core_cmFunc.h" 1
 1401 0002 83F31188 		MSR basepri, r3
 1402              	@ 0 "" 2
 1403              	.LVL104:
 1404              		.thumb
 1405              		.syntax unified
 1406              	.LBE346:
 1407              	.LBE345:
 1408              	.LBE344:
 1409              	.LBE343:
 1410              	.LBB347:
 1411              	.LBB348:
 1412              		.loc 1 593 0
 1413 0006 0268     		ldr	r2, [r0]
 1414 0008 52B1     		cbz	r2, .L80
 1415 000a 0346     		mov	r3, r0
 1416              	.LVL105:
 1417              	.LBE348:
 1418              	.LBE347:
 1419              		.loc 1 614 0
 1420 000c 10B5     		push	{r4, lr}
 1421              		.cfi_def_cfa_offset 8
 1422              		.cfi_offset 4, -8
 1423              		.cfi_offset 14, -4
 1424              	.LBB351:
 1425              	.LBB350:
ARM GAS  C:\Users\IDONNO~1\AppData\Local\Temp\cc9oFEWr.s 			page 26


 1426              	.LBB349:
 1427              		.loc 1 599 0
 1428 000e 0024     		movs	r4, #0
 1429 0010 1C60     		str	r4, [r3]
 1430              		.loc 1 600 0
 1431 0012 1046     		mov	r0, r2
 1432              	.LVL106:
 1433 0014 FFF7FEFF 		bl	chSchWakeupS
 1434              	.LVL107:
 1435              	.LBE349:
 1436              	.LBE350:
 1437              	.LBE351:
 1438              	.LBB352:
 1439              	.LBB353:
 1440              	.LBB354:
 1441              	.LBB355:
 1442              	.LBB356:
 1443              		.loc 3 546 0
 1444 0018 0023     		movs	r3, #0
 1445              		.syntax unified
 1446              	@ 546 "lib/ChibiOS_3.0.2/os/ext/CMSIS/include/core_cmFunc.h" 1
 1447 001a 83F31188 		MSR basepri, r3
 1448              	@ 0 "" 2
 1449              	.LVL108:
 1450              		.thumb
 1451              		.syntax unified
 1452 001e 10BD     		pop	{r4, pc}
 1453              	.LVL109:
 1454              	.L80:
 1455              		.cfi_def_cfa_offset 0
 1456              		.cfi_restore 4
 1457              		.cfi_restore 14
 1458 0020 0023     		movs	r3, #0
 1459              		.syntax unified
 1460              	@ 546 "lib/ChibiOS_3.0.2/os/ext/CMSIS/include/core_cmFunc.h" 1
 1461 0022 83F31188 		MSR basepri, r3
 1462              	@ 0 "" 2
 1463              	.LVL110:
 1464              		.thumb
 1465              		.syntax unified
 1466 0026 7047     		bx	lr
 1467              	.LBE356:
 1468              	.LBE355:
 1469              	.LBE354:
 1470              	.LBE353:
 1471              	.LBE352:
 1472              		.cfi_endproc
 1473              	.LFE236:
 1474              		.size	chThdResume, .-chThdResume
 1475              		.section	.text.chThdEnqueueTimeoutS,"ax",%progbits
 1476              		.align	2
 1477              		.p2align 4,,15
 1478              		.global	chThdEnqueueTimeoutS
 1479              		.thumb
 1480              		.thumb_func
 1481              		.type	chThdEnqueueTimeoutS, %function
 1482              	chThdEnqueueTimeoutS:
ARM GAS  C:\Users\IDONNO~1\AppData\Local\Temp\cc9oFEWr.s 			page 27


 1483              	.LFB237:
 1484              		.loc 1 644 0
 1485              		.cfi_startproc
 1486              		@ args = 0, pretend = 0, frame = 0
 1487              		@ frame_needed = 0, uses_anonymous_args = 0
 1488              		@ link register save eliminated.
 1489              	.LVL111:
 1490              		.loc 1 646 0
 1491 0000 69B1     		cbz	r1, .L82
 1492              		.loc 1 650 0
 1493 0002 084B     		ldr	r3, .L84
 1494              		.loc 1 644 0
 1495 0004 10B4     		push	{r4}
 1496              		.cfi_def_cfa_offset 4
 1497              		.cfi_offset 4, -4
 1498 0006 0246     		mov	r2, r0
 1499              	.LBB357:
 1500              	.LBB358:
 1501              		.loc 2 666 0
 1502 0008 4468     		ldr	r4, [r0, #4]
 1503              	.LBE358:
 1504              	.LBE357:
 1505              		.loc 1 650 0
 1506 000a 9B69     		ldr	r3, [r3, #24]
 1507              	.LVL112:
 1508              		.loc 1 652 0
 1509 000c 0420     		movs	r0, #4
 1510              	.LVL113:
 1511              	.LBB360:
 1512              	.LBB359:
 1513              		.loc 2 666 0
 1514 000e 83E81400 		stmia	r3, {r2, r4}
 1515              		.loc 2 667 0
 1516 0012 2360     		str	r3, [r4]
 1517              		.loc 2 668 0
 1518 0014 5360     		str	r3, [r2, #4]
 1519              	.LVL114:
 1520              	.LBE359:
 1521              	.LBE360:
 1522              		.loc 1 653 0
 1523 0016 5DF8044B 		ldr	r4, [sp], #4
 1524              		.cfi_restore 4
 1525              		.cfi_def_cfa_offset 0
 1526              		.loc 1 652 0
 1527 001a FFF7FEBF 		b	chSchGoSleepTimeoutS
 1528              	.LVL115:
 1529              	.L82:
 1530              		.loc 1 653 0
 1531 001e 4FF0FF30 		mov	r0, #-1
 1532              	.LVL116:
 1533 0022 7047     		bx	lr
 1534              	.L85:
 1535              		.align	2
 1536              	.L84:
 1537 0024 00000000 		.word	ch
 1538              		.cfi_endproc
 1539              	.LFE237:
ARM GAS  C:\Users\IDONNO~1\AppData\Local\Temp\cc9oFEWr.s 			page 28


 1540              		.size	chThdEnqueueTimeoutS, .-chThdEnqueueTimeoutS
 1541              		.section	.text.chThdDequeueNextI,"ax",%progbits
 1542              		.align	2
 1543              		.p2align 4,,15
 1544              		.global	chThdDequeueNextI
 1545              		.thumb
 1546              		.thumb_func
 1547              		.type	chThdDequeueNextI, %function
 1548              	chThdDequeueNextI:
 1549              	.LFB238:
 1550              		.loc 1 664 0
 1551              		.cfi_startproc
 1552              		@ args = 0, pretend = 0, frame = 0
 1553              		@ frame_needed = 0, uses_anonymous_args = 0
 1554              		@ link register save eliminated.
 1555              	.LVL117:
 1556              	.LBB361:
 1557              	.LBB362:
 1558              		.loc 2 631 0
 1559 0000 0268     		ldr	r2, [r0]
 1560              	.LBE362:
 1561              	.LBE361:
 1562              		.loc 1 666 0
 1563 0002 9042     		cmp	r0, r2
 1564 0004 0AD0     		beq	.L89
 1565              		.loc 1 664 0
 1566 0006 10B4     		push	{r4}
 1567              		.cfi_def_cfa_offset 4
 1568              		.cfi_offset 4, -4
 1569              	.LBB363:
 1570              	.LBB364:
 1571              	.LBB365:
 1572              	.LBB366:
 1573              		.loc 2 674 0
 1574 0008 1468     		ldr	r4, [r2]
 1575 000a 0460     		str	r4, [r0]
 1576 000c 0346     		mov	r3, r0
 1577              	.LVL118:
 1578              		.loc 2 675 0
 1579 000e 6360     		str	r3, [r4, #4]
 1580              	.LVL119:
 1581              	.LBE366:
 1582              	.LBE365:
 1583              		.loc 4 321 0
 1584 0010 5162     		str	r1, [r2, #36]
 1585              		.loc 4 322 0
 1586 0012 1046     		mov	r0, r2
 1587              	.LVL120:
 1588              	.LBE364:
 1589              	.LBE363:
 1590              		.loc 1 669 0
 1591 0014 5DF8044B 		ldr	r4, [sp], #4
 1592              		.cfi_restore 4
 1593              		.cfi_def_cfa_offset 0
 1594              	.LBB368:
 1595              	.LBB367:
 1596              		.loc 4 322 0
ARM GAS  C:\Users\IDONNO~1\AppData\Local\Temp\cc9oFEWr.s 			page 29


 1597 0018 FFF7FEBF 		b	chSchReadyI
 1598              	.LVL121:
 1599              	.L89:
 1600 001c 7047     		bx	lr
 1601              	.LBE367:
 1602              	.LBE368:
 1603              		.cfi_endproc
 1604              	.LFE238:
 1605              		.size	chThdDequeueNextI, .-chThdDequeueNextI
 1606 001e 00BF     		.section	.text.chThdDequeueAllI,"ax",%progbits
 1607              		.align	2
 1608              		.p2align 4,,15
 1609              		.global	chThdDequeueAllI
 1610              		.thumb
 1611              		.thumb_func
 1612              		.type	chThdDequeueAllI, %function
 1613              	chThdDequeueAllI:
 1614              	.LFB239:
 1615              		.loc 1 679 0
 1616              		.cfi_startproc
 1617              		@ args = 0, pretend = 0, frame = 0
 1618              		@ frame_needed = 0, uses_anonymous_args = 0
 1619              	.LVL122:
 1620 0000 38B5     		push	{r3, r4, r5, lr}
 1621              		.cfi_def_cfa_offset 16
 1622              		.cfi_offset 3, -16
 1623              		.cfi_offset 4, -12
 1624              		.cfi_offset 5, -8
 1625              		.cfi_offset 14, -4
 1626              	.LBB369:
 1627              	.LBB370:
 1628              		.loc 2 631 0
 1629 0002 0368     		ldr	r3, [r0]
 1630              	.LVL123:
 1631              	.LBE370:
 1632              	.LBE369:
 1633              		.loc 1 681 0
 1634 0004 9842     		cmp	r0, r3
 1635 0006 0BD0     		beq	.L90
 1636 0008 0446     		mov	r4, r0
 1637 000a 0D46     		mov	r5, r1
 1638              	.LVL124:
 1639              	.L92:
 1640              	.LBB372:
 1641              	.LBB373:
 1642              	.LBB374:
 1643              	.LBB375:
 1644              		.loc 2 674 0
 1645 000c 1A68     		ldr	r2, [r3]
 1646 000e 2260     		str	r2, [r4]
 1647              	.LBE375:
 1648              	.LBE374:
 1649              		.loc 4 322 0
 1650 0010 1846     		mov	r0, r3
 1651              	.LBB377:
 1652              	.LBB376:
 1653              		.loc 2 675 0
ARM GAS  C:\Users\IDONNO~1\AppData\Local\Temp\cc9oFEWr.s 			page 30


 1654 0012 5460     		str	r4, [r2, #4]
 1655              	.LVL125:
 1656              	.LBE376:
 1657              	.LBE377:
 1658              		.loc 4 321 0
 1659 0014 5D62     		str	r5, [r3, #36]
 1660              		.loc 4 322 0
 1661 0016 FFF7FEFF 		bl	chSchReadyI
 1662              	.LVL126:
 1663              	.LBE373:
 1664              	.LBE372:
 1665              	.LBB378:
 1666              	.LBB371:
 1667              		.loc 2 631 0
 1668 001a 2368     		ldr	r3, [r4]
 1669              	.LVL127:
 1670              	.LBE371:
 1671              	.LBE378:
 1672              		.loc 1 681 0
 1673 001c 9C42     		cmp	r4, r3
 1674 001e F5D1     		bne	.L92
 1675              	.LVL128:
 1676              	.L90:
 1677 0020 38BD     		pop	{r3, r4, r5, pc}
 1678              		.cfi_endproc
 1679              	.LFE239:
 1680              		.size	chThdDequeueAllI, .-chThdDequeueAllI
 1681 0022 00BF     		.text
 1682              	.Letext0:
 1683              		.file 6 "c:\\program files (x86)\\gnu tools arm embedded\\5.2 2015q4\\lib\\gcc\\arm-none-eabi\\5.2
 1684              		.file 7 "c:\\program files (x86)\\gnu tools arm embedded\\5.2 2015q4\\arm-none-eabi\\include\\mach
 1685              		.file 8 "c:\\program files (x86)\\gnu tools arm embedded\\5.2 2015q4\\arm-none-eabi\\include\\sys\
 1686              		.file 9 "lib/ChibiOS_3.0.2/os/rt/ports/ARMCMx/compilers/GCC/chtypes.h"
 1687              		.file 10 "lib/ChibiOS_3.0.2/os/rt/include/chsystypes.h"
 1688              		.file 11 "lib/ChibiOS_3.0.2/os/rt/ports/ARMCMx/chcore.h"
 1689              		.file 12 "lib/ChibiOS_3.0.2/os/rt/ports/ARMCMx/chcore_v7m.h"
 1690              		.file 13 "lib/ChibiOS_3.0.2/os/rt/include/chtm.h"
 1691              		.file 14 "lib/ChibiOS_3.0.2/os/rt/include/chsem.h"
 1692              		.file 15 "lib/ChibiOS_3.0.2/os/rt/include/chmtx.h"
 1693              		.file 16 "lib/ChibiOS_3.0.2/os/rt/include/chsys.h"
 1694              		.file 17 "lib/ChibiOS_3.0.2/os/rt/include/chdynamic.h"
 1695              		.file 18 "lib/ChibiOS_3.0.2/os/ext/CMSIS/include/core_cm4.h"