ARM GAS  C:\Users\IDONNO~1.SON\AppData\Local\Temp\ccloRQn9.s 			page 1


   1              		.syntax unified
   2              		.cpu cortex-m4
   3              		.eabi_attribute 27, 1
   4              		.eabi_attribute 28, 1
   5              		.fpu fpv4-sp-d16
   6              		.eabi_attribute 20, 1
   7              		.eabi_attribute 21, 1
   8              		.eabi_attribute 23, 3
   9              		.eabi_attribute 24, 1
  10              		.eabi_attribute 25, 1
  11              		.eabi_attribute 26, 1
  12              		.eabi_attribute 30, 2
  13              		.eabi_attribute 34, 1
  14              		.eabi_attribute 18, 4
  15              		.thumb
  16              		.syntax unified
  17              		.file	"chtm.c"
  18              		.text
  19              	.Ltext0:
  20              		.cfi_sections	.debug_frame
  21              		.section	.text.chTMObjectInit,"ax",%progbits
  22              		.align	2
  23              		.p2align 4,,15
  24              		.global	chTMObjectInit
  25              		.thumb
  26              		.thumb_func
  27              		.type	chTMObjectInit, %function
  28              	chTMObjectInit:
  29              	.LFB221:
  30              		.file 1 "lib/ChibiOS_3.0.2/os/rt/src/chtm.c"
  31              		.loc 1 99 0
  32              		.cfi_startproc
  33              		@ args = 0, pretend = 0, frame = 0
  34              		@ frame_needed = 0, uses_anonymous_args = 0
  35              		@ link register save eliminated.
  36              	.LVL0:
  37              		.loc 1 105 0
  38 0000 0022     		movs	r2, #0
  39 0002 0023     		movs	r3, #0
  40 0004 C0E90423 		strd	r2, [r0, #16]
  41              		.loc 1 102 0
  42 0008 0023     		movs	r3, #0
  43 000a 4FF0FF32 		mov	r2, #-1
  44 000e 80E80C00 		stmia	r0, {r2, r3}
  45              		.loc 1 103 0
  46 0012 8360     		str	r3, [r0, #8]
  47              		.loc 1 104 0
  48 0014 C360     		str	r3, [r0, #12]
  49 0016 7047     		bx	lr
  50              		.cfi_endproc
  51              	.LFE221:
  52              		.size	chTMObjectInit, .-chTMObjectInit
  53              		.section	.text.chTMStartMeasurementX,"ax",%progbits
  54              		.align	2
  55              		.p2align 4,,15
  56              		.global	chTMStartMeasurementX
  57              		.thumb
ARM GAS  C:\Users\IDONNO~1.SON\AppData\Local\Temp\ccloRQn9.s 			page 2


  58              		.thumb_func
  59              		.type	chTMStartMeasurementX, %function
  60              	chTMStartMeasurementX:
  61              	.LFB222:
  62              		.loc 1 116 0
  63              		.cfi_startproc
  64              		@ args = 0, pretend = 0, frame = 0
  65              		@ frame_needed = 0, uses_anonymous_args = 0
  66              		@ link register save eliminated.
  67              	.LVL1:
  68              	.LBB14:
  69              	.LBB15:
  70              		.file 2 "lib/ChibiOS_3.0.2/os/rt/ports/ARMCMx/chcore_v7m.h"
  71              		.loc 2 548 0
  72 0000 014B     		ldr	r3, .L3
  73 0002 5B68     		ldr	r3, [r3, #4]
  74              	.LBE15:
  75              	.LBE14:
  76              		.loc 1 118 0
  77 0004 8360     		str	r3, [r0, #8]
  78 0006 7047     		bx	lr
  79              	.L4:
  80              		.align	2
  81              	.L3:
  82 0008 001000E0 		.word	-536866816
  83              		.cfi_endproc
  84              	.LFE222:
  85              		.size	chTMStartMeasurementX, .-chTMStartMeasurementX
  86              		.section	.text.chTMStopMeasurementX,"ax",%progbits
  87              		.align	2
  88              		.p2align 4,,15
  89              		.global	chTMStopMeasurementX
  90              		.thumb
  91              		.thumb_func
  92              		.type	chTMStopMeasurementX, %function
  93              	chTMStopMeasurementX:
  94              	.LFB223:
  95              		.loc 1 129 0
  96              		.cfi_startproc
  97              		@ args = 0, pretend = 0, frame = 0
  98              		@ frame_needed = 0, uses_anonymous_args = 0
  99              		@ link register save eliminated.
 100              	.LVL2:
 101              	.LBB16:
 102              	.LBB17:
 103              		.loc 2 548 0
 104 0000 0F4B     		ldr	r3, .L11
 105              	.LBE17:
 106              	.LBE16:
 107              		.loc 1 131 0
 108 0002 1049     		ldr	r1, .L11+4
 109              	.LBB19:
 110              	.LBB18:
 111              		.loc 2 548 0
 112 0004 5A68     		ldr	r2, [r3, #4]
 113              	.LBE18:
 114              	.LBE19:
ARM GAS  C:\Users\IDONNO~1.SON\AppData\Local\Temp\ccloRQn9.s 			page 3


 115              	.LBB20:
 116              	.LBB21:
 117              		.loc 1 58 0
 118 0006 8368     		ldr	r3, [r0, #8]
 119              	.LBE21:
 120              	.LBE20:
 121              		.loc 1 129 0
 122 0008 F0B4     		push	{r4, r5, r6, r7}
 123              		.cfi_def_cfa_offset 16
 124              		.cfi_offset 4, -16
 125              		.cfi_offset 5, -12
 126              		.cfi_offset 6, -8
 127              		.cfi_offset 7, -4
 128              		.loc 1 131 0
 129 000a 8F6F     		ldr	r7, [r1, #120]
 130              	.LVL3:
 131              	.LBB24:
 132              	.LBB22:
 133              		.loc 1 57 0
 134 000c C668     		ldr	r6, [r0, #12]
 135              		.loc 1 61 0
 136 000e 4168     		ldr	r1, [r0, #4]
 137              		.loc 1 59 0
 138 0010 D0E90445 		ldrd	r4, [r0, #16]
 139              		.loc 1 58 0
 140 0014 D31A     		subs	r3, r2, r3
 141 0016 DB1B     		subs	r3, r3, r7
 142              		.loc 1 59 0
 143 0018 E418     		adds	r4, r4, r3
 144 001a 45F10005 		adc	r5, r5, #0
 145              		.loc 1 57 0
 146 001e 0136     		adds	r6, r6, #1
 147              		.loc 1 61 0
 148 0020 8B42     		cmp	r3, r1
 149              		.loc 1 57 0
 150 0022 C660     		str	r6, [r0, #12]
 151              		.loc 1 58 0
 152 0024 8360     		str	r3, [r0, #8]
 153              		.loc 1 59 0
 154 0026 C0E90445 		strd	r4, [r0, #16]
 155              		.loc 1 61 0
 156 002a 05D8     		bhi	.L10
 157              		.loc 1 64 0
 158 002c 0268     		ldr	r2, [r0]
 159 002e 9342     		cmp	r3, r2
 160              		.loc 1 65 0
 161 0030 38BF     		it	cc
 162 0032 0360     		strcc	r3, [r0]
 163              	.LVL4:
 164              	.LBE22:
 165              	.LBE24:
 166              		.loc 1 132 0
 167 0034 F0BC     		pop	{r4, r5, r6, r7}
 168              		.cfi_remember_state
 169              		.cfi_restore 7
 170              		.cfi_restore 6
 171              		.cfi_restore 5
ARM GAS  C:\Users\IDONNO~1.SON\AppData\Local\Temp\ccloRQn9.s 			page 4


 172              		.cfi_restore 4
 173              		.cfi_def_cfa_offset 0
 174 0036 7047     		bx	lr
 175              	.LVL5:
 176              	.L10:
 177              		.cfi_restore_state
 178              	.LBB25:
 179              	.LBB23:
 180              		.loc 1 62 0
 181 0038 4360     		str	r3, [r0, #4]
 182              	.LBE23:
 183              	.LBE25:
 184              		.loc 1 132 0
 185 003a F0BC     		pop	{r4, r5, r6, r7}
 186              		.cfi_restore 4
 187              		.cfi_restore 5
 188              		.cfi_restore 6
 189              		.cfi_restore 7
 190              		.cfi_def_cfa_offset 0
 191              	.LVL6:
 192 003c 7047     		bx	lr
 193              	.L12:
 194 003e 00BF     		.align	2
 195              	.L11:
 196 0040 001000E0 		.word	-536866816
 197 0044 00000000 		.word	ch
 198              		.cfi_endproc
 199              	.LFE223:
 200              		.size	chTMStopMeasurementX, .-chTMStopMeasurementX
 201              		.section	.text._tm_init,"ax",%progbits
 202              		.align	2
 203              		.p2align 4,,15
 204              		.global	_tm_init
 205              		.thumb
 206              		.thumb_func
 207              		.type	_tm_init, %function
 208              	_tm_init:
 209              	.LFB220:
 210              		.loc 1 79 0
 211              		.cfi_startproc
 212              		@ args = 0, pretend = 0, frame = 24
 213              		@ frame_needed = 0, uses_anonymous_args = 0
 214 0000 D0B5     		push	{r4, r6, r7, lr}
 215              		.cfi_def_cfa_offset 16
 216              		.cfi_offset 4, -16
 217              		.cfi_offset 6, -12
 218              		.cfi_offset 7, -8
 219              		.cfi_offset 14, -4
 220              		.loc 1 85 0
 221 0002 0C4C     		ldr	r4, .L15
 222              		.loc 1 79 0
 223 0004 86B0     		sub	sp, sp, #24
 224              		.cfi_def_cfa_offset 40
 225              		.loc 1 85 0
 226 0006 0023     		movs	r3, #0
 227              	.LBB26:
 228              	.LBB27:
ARM GAS  C:\Users\IDONNO~1.SON\AppData\Local\Temp\ccloRQn9.s 			page 5


 229              		.loc 1 101 0
 230 0008 4FF0FF32 		mov	r2, #-1
 231              	.LBE27:
 232              	.LBE26:
 233              		.loc 1 87 0
 234 000c 6846     		mov	r0, sp
 235              	.LBB30:
 236              	.LBB28:
 237              		.loc 1 105 0
 238 000e 0026     		movs	r6, #0
 239 0010 0027     		movs	r7, #0
 240              	.LBE28:
 241              	.LBE30:
 242              		.loc 1 85 0
 243 0012 A367     		str	r3, [r4, #120]
 244              	.LVL7:
 245              	.LBB31:
 246              	.LBB29:
 247              		.loc 1 102 0
 248 0014 0193     		str	r3, [sp, #4]
 249              		.loc 1 103 0
 250 0016 0293     		str	r3, [sp, #8]
 251              		.loc 1 104 0
 252 0018 0393     		str	r3, [sp, #12]
 253              		.loc 1 101 0
 254 001a 0092     		str	r2, [sp]
 255              		.loc 1 105 0
 256 001c CDE90467 		strd	r6, [sp, #16]
 257              	.LVL8:
 258              	.LBE29:
 259              	.LBE31:
 260              		.loc 1 87 0
 261 0020 FFF7FEFF 		bl	chTMStartMeasurementX
 262              	.LVL9:
 263              		.loc 1 88 0
 264 0024 6846     		mov	r0, sp
 265 0026 FFF7FEFF 		bl	chTMStopMeasurementX
 266              	.LVL10:
 267              		.loc 1 89 0
 268 002a 029B     		ldr	r3, [sp, #8]
 269 002c A367     		str	r3, [r4, #120]
 270              		.loc 1 90 0
 271 002e 06B0     		add	sp, sp, #24
 272              		.cfi_def_cfa_offset 16
 273              		@ sp needed
 274 0030 D0BD     		pop	{r4, r6, r7, pc}
 275              	.L16:
 276 0032 00BF     		.align	2
 277              	.L15:
 278 0034 00000000 		.word	ch
 279              		.cfi_endproc
 280              	.LFE220:
 281              		.size	_tm_init, .-_tm_init
 282              		.section	.text.chTMChainMeasurementToX,"ax",%progbits
 283              		.align	2
 284              		.p2align 4,,15
 285              		.global	chTMChainMeasurementToX
ARM GAS  C:\Users\IDONNO~1.SON\AppData\Local\Temp\ccloRQn9.s 			page 6


 286              		.thumb
 287              		.thumb_func
 288              		.type	chTMChainMeasurementToX, %function
 289              	chTMChainMeasurementToX:
 290              	.LFB224:
 291              		.loc 1 147 0
 292              		.cfi_startproc
 293              		@ args = 0, pretend = 0, frame = 0
 294              		@ frame_needed = 0, uses_anonymous_args = 0
 295              		@ link register save eliminated.
 296              	.LVL11:
 297              	.LBB32:
 298              	.LBB33:
 299              		.loc 2 548 0
 300 0000 0E4B     		ldr	r3, .L22
 301              	.LBE33:
 302              	.LBE32:
 303              	.LBB35:
 304              	.LBB36:
 305              		.loc 1 61 0
 306 0002 4268     		ldr	r2, [r0, #4]
 307              	.LBE36:
 308              	.LBE35:
 309              	.LBB39:
 310              	.LBB34:
 311              		.loc 2 548 0
 312 0004 5B68     		ldr	r3, [r3, #4]
 313              	.LBE34:
 314              	.LBE39:
 315              		.loc 1 147 0
 316 0006 70B4     		push	{r4, r5, r6}
 317              		.cfi_def_cfa_offset 12
 318              		.cfi_offset 4, -12
 319              		.cfi_offset 5, -8
 320              		.cfi_offset 6, -4
 321              		.loc 1 150 0
 322 0008 8B60     		str	r3, [r1, #8]
 323              	.LVL12:
 324              	.LBB40:
 325              	.LBB37:
 326              		.loc 1 59 0
 327 000a D0E90445 		ldrd	r4, [r0, #16]
 328              		.loc 1 58 0
 329 000e 8668     		ldr	r6, [r0, #8]
 330              		.loc 1 57 0
 331 0010 C168     		ldr	r1, [r0, #12]
 332              	.LVL13:
 333              		.loc 1 58 0
 334 0012 9B1B     		subs	r3, r3, r6
 335              	.LVL14:
 336              		.loc 1 59 0
 337 0014 E418     		adds	r4, r4, r3
 338 0016 45F10005 		adc	r5, r5, #0
 339              		.loc 1 57 0
 340 001a 0131     		adds	r1, r1, #1
 341              		.loc 1 61 0
 342 001c 9342     		cmp	r3, r2
ARM GAS  C:\Users\IDONNO~1.SON\AppData\Local\Temp\ccloRQn9.s 			page 7


 343              		.loc 1 57 0
 344 001e C160     		str	r1, [r0, #12]
 345              		.loc 1 58 0
 346 0020 8360     		str	r3, [r0, #8]
 347              	.LVL15:
 348              		.loc 1 59 0
 349 0022 C0E90445 		strd	r4, [r0, #16]
 350              		.loc 1 61 0
 351 0026 05D8     		bhi	.L21
 352              		.loc 1 64 0
 353 0028 0268     		ldr	r2, [r0]
 354 002a 9342     		cmp	r3, r2
 355              		.loc 1 65 0
 356 002c 38BF     		it	cc
 357 002e 0360     		strcc	r3, [r0]
 358              	.LVL16:
 359              	.LBE37:
 360              	.LBE40:
 361              		.loc 1 154 0
 362 0030 70BC     		pop	{r4, r5, r6}
 363              		.cfi_remember_state
 364              		.cfi_restore 6
 365              		.cfi_restore 5
 366              		.cfi_restore 4
 367              		.cfi_def_cfa_offset 0
 368 0032 7047     		bx	lr
 369              	.LVL17:
 370              	.L21:
 371              		.cfi_restore_state
 372              	.LBB41:
 373              	.LBB38:
 374              		.loc 1 62 0
 375 0034 4360     		str	r3, [r0, #4]
 376              	.LBE38:
 377              	.LBE41:
 378              		.loc 1 154 0
 379 0036 70BC     		pop	{r4, r5, r6}
 380              		.cfi_restore 4
 381              		.cfi_restore 5
 382              		.cfi_restore 6
 383              		.cfi_def_cfa_offset 0
 384 0038 7047     		bx	lr
 385              	.L23:
 386 003a 00BF     		.align	2
 387              	.L22:
 388 003c 001000E0 		.word	-536866816
 389              		.cfi_endproc
 390              	.LFE224:
 391              		.size	chTMChainMeasurementToX, .-chTMChainMeasurementToX
 392              		.text
 393              	.Letext0:
 394              		.file 3 "c:\\program files (x86)\\gnu tools arm embedded\\5.4 2016q2\\arm-none-eabi\\include\\mach
 395              		.file 4 "c:\\program files (x86)\\gnu tools arm embedded\\5.4 2016q2\\arm-none-eabi\\include\\sys\
 396              		.file 5 "lib/ChibiOS_3.0.2/os/rt/ports/ARMCMx/compilers/GCC/chtypes.h"
 397              		.file 6 "lib/ChibiOS_3.0.2/os/rt/include/chsystypes.h"
 398              		.file 7 "lib/ChibiOS_3.0.2/os/rt/include/chschd.h"
 399              		.file 8 "lib/ChibiOS_3.0.2/os/ext/CMSIS/include/core_cm4.h"
ARM GAS  C:\Users\IDONNO~1.SON\AppData\Local\Temp\ccloRQn9.s 			page 8


 400              		.file 9 "lib/ChibiOS_3.0.2/os/rt/ports/ARMCMx/chcore.h"
 401              		.file 10 "lib/ChibiOS_3.0.2/os/rt/include/chtm.h"
 402              		.file 11 "lib/ChibiOS_3.0.2/os/rt/include/chsem.h"
 403              		.file 12 "lib/ChibiOS_3.0.2/os/rt/include/chmtx.h"