ARM GAS  C:\Users\IDONNO~1\AppData\Local\Temp\cc96zqnk.s 			page 1


   1              		.syntax unified
   2              		.cpu cortex-m4
   3              		.eabi_attribute 27, 1
   4              		.eabi_attribute 28, 1
   5              		.fpu fpv4-sp-d16
   6              		.eabi_attribute 20, 1
   7              		.eabi_attribute 21, 1
   8              		.eabi_attribute 23, 3
   9              		.eabi_attribute 24, 1
  10              		.eabi_attribute 25, 1
  11              		.eabi_attribute 26, 1
  12              		.eabi_attribute 30, 2
  13              		.eabi_attribute 34, 1
  14              		.eabi_attribute 18, 4
  15              		.thumb
  16              		.syntax unified
  17              		.file	"comm_can.c"
  18              		.text
  19              	.Ltext0:
  20              		.cfi_sections	.debug_frame
  21              		.section	.text.cancom_process_thread,"ax",%progbits
  22              		.align	2
  23              		.p2align 4,,15
  24              		.thumb
  25              		.thumb_func
  26              		.type	cancom_process_thread, %function
  27              	cancom_process_thread:
  28              	.LFB258:
  29              		.file 1 "src/core/comm_can.c"
  30              		.loc 1 133 0
  31              		.cfi_startproc
  32              		@ args = 0, pretend = 0, frame = 0
  33              		@ frame_needed = 0, uses_anonymous_args = 0
  34              	.LVL0:
  35              	.LBB24:
  36              	.LBB25:
  37              		.file 2 "lib/ChibiOS_3.0.2/os/rt/include/chregistry.h"
  38              		.loc 2 135 0
  39 0000 0D4B     		ldr	r3, .L11
  40              	.LBE25:
  41              	.LBE24:
  42              		.loc 1 137 0
  43 0002 0E4A     		ldr	r2, .L11+4
  44              	.LBB28:
  45              	.LBB26:
  46              		.loc 2 135 0
  47 0004 9B69     		ldr	r3, [r3, #24]
  48 0006 0E49     		ldr	r1, .L11+8
  49              	.LBE26:
  50              	.LBE28:
  51              		.loc 1 133 0
  52 0008 70B5     		push	{r4, r5, r6, lr}
  53              		.cfi_def_cfa_offset 16
  54              		.cfi_offset 4, -16
  55              		.cfi_offset 5, -12
  56              		.cfi_offset 6, -8
  57              		.cfi_offset 14, -4
ARM GAS  C:\Users\IDONNO~1\AppData\Local\Temp\cc96zqnk.s 			page 2


  58 000a 0E4C     		ldr	r4, .L11+12
  59 000c 0E4D     		ldr	r5, .L11+16
  60              	.LBB29:
  61              	.LBB27:
  62              		.loc 2 135 0
  63 000e 9961     		str	r1, [r3, #24]
  64              	.LVL1:
  65              	.LBE27:
  66              	.LBE29:
  67              		.loc 1 137 0
  68 0010 1360     		str	r3, [r2]
  69              	.LVL2:
  70              		.loc 1 157 0
  71 0012 0026     		movs	r6, #0
  72              	.LVL3:
  73              	.L4:
  74              		.loc 1 148 0
  75 0014 0120     		movs	r0, #1
  76 0016 FFF7FEFF 		bl	chEvtWaitAny
  77              	.LVL4:
  78              		.loc 1 150 0
  79 001a 2268     		ldr	r2, [r4]
  80 001c 2968     		ldr	r1, [r5]
  81 001e 9142     		cmp	r1, r2
  82 0020 05D0     		beq	.L2
  83 0022 8A1A     		subs	r2, r1, r2
  84 0024 0023     		movs	r3, #0
  85              	.L3:
  86 0026 0133     		adds	r3, r3, #1
  87 0028 9342     		cmp	r3, r2
  88 002a FCD1     		bne	.L3
  89 002c 2160     		str	r1, [r4]
  90              	.L2:
  91              		.loc 1 155 0
  92 002e 6429     		cmp	r1, #100
  93              		.loc 1 157 0
  94 0030 08BF     		it	eq
  95 0032 2660     		streq	r6, [r4]
  96 0034 EEE7     		b	.L4
  97              	.L12:
  98 0036 00BF     		.align	2
  99              	.L11:
 100 0038 00000000 		.word	ch
 101 003c 00000000 		.word	.LANCHOR0
 102 0040 00000000 		.word	.LC0
 103 0044 00000000 		.word	.LANCHOR1
 104 0048 00000000 		.word	.LANCHOR2
 105              		.cfi_endproc
 106              	.LFE258:
 107              		.size	cancom_process_thread, .-cancom_process_thread
 108              		.section	.text.cancom_status_thread,"ax",%progbits
 109              		.align	2
 110              		.p2align 4,,15
 111              		.thumb
 112              		.thumb_func
 113              		.type	cancom_status_thread, %function
 114              	cancom_status_thread:
ARM GAS  C:\Users\IDONNO~1\AppData\Local\Temp\cc96zqnk.s 			page 3


 115              	.LFB259:
 116              		.loc 1 164 0
 117              		.cfi_startproc
 118              		@ Volatile: function does not return.
 119              		@ args = 0, pretend = 0, frame = 0
 120              		@ frame_needed = 0, uses_anonymous_args = 0
 121              	.LVL5:
 122 0000 08B5     		push	{r3, lr}
 123              		.cfi_def_cfa_offset 8
 124              		.cfi_offset 3, -8
 125              		.cfi_offset 14, -4
 126              	.LBB30:
 127              	.LBB31:
 128              		.loc 2 135 0
 129 0002 044B     		ldr	r3, .L16
 130 0004 044A     		ldr	r2, .L16+4
 131 0006 9B69     		ldr	r3, [r3, #24]
 132 0008 9A61     		str	r2, [r3, #24]
 133              	.LVL6:
 134              	.L14:
 135              	.LBE31:
 136              	.LBE30:
 137              		.loc 1 185 0 discriminator 1
 138 000a 4FF47A70 		mov	r0, #1000
 139 000e FFF7FEFF 		bl	chThdSleep
 140              	.LVL7:
 141 0012 FAE7     		b	.L14
 142              	.L17:
 143              		.align	2
 144              	.L16:
 145 0014 00000000 		.word	ch
 146 0018 10000000 		.word	.LC1
 147              		.cfi_endproc
 148              	.LFE259:
 149              		.size	cancom_status_thread, .-cancom_status_thread
 150              		.section	.text.cancom_read_thread,"ax",%progbits
 151              		.align	2
 152              		.p2align 4,,15
 153              		.thumb
 154              		.thumb_func
 155              		.type	cancom_read_thread, %function
 156              	cancom_read_thread:
 157              	.LFB257:
 158              		.loc 1 99 0
 159              		.cfi_startproc
 160              		@ args = 0, pretend = 0, frame = 40
 161              		@ frame_needed = 0, uses_anonymous_args = 0
 162              	.LVL8:
 163 0000 F0B5     		push	{r4, r5, r6, r7, lr}
 164              		.cfi_def_cfa_offset 20
 165              		.cfi_offset 4, -20
 166              		.cfi_offset 5, -16
 167              		.cfi_offset 6, -12
 168              		.cfi_offset 7, -8
 169              		.cfi_offset 14, -4
 170              	.LBB32:
 171              	.LBB33:
ARM GAS  C:\Users\IDONNO~1\AppData\Local\Temp\cc96zqnk.s 			page 4


 172              		.loc 2 135 0
 173 0002 1F4E     		ldr	r6, .L30
 174 0004 1F4A     		ldr	r2, .L30+4
 175 0006 B369     		ldr	r3, [r6, #24]
 176              	.LBE33:
 177              	.LBE32:
 178              	.LBB35:
 179              	.LBB36:
 180              	.LBB37:
 181              		.file 3 "lib/ChibiOS_3.0.2/os/rt/include/chevents.h"
 182              		.loc 3 193 0
 183 0008 1F48     		ldr	r0, .L30+8
 184              	.LVL9:
 185              	.LBE37:
 186              	.LBE36:
 187              	.LBE35:
 188              	.LBB40:
 189              	.LBB34:
 190              		.loc 2 135 0
 191 000a 9A61     		str	r2, [r3, #24]
 192              	.LVL10:
 193              	.LBE34:
 194              	.LBE40:
 195              		.loc 1 99 0
 196 000c 8BB0     		sub	sp, sp, #44
 197              		.cfi_def_cfa_offset 64
 198              	.LVL11:
 199              	.LBB41:
 200              	.LBB39:
 201              	.LBB38:
 202              		.loc 3 193 0
 203 000e 6946     		mov	r1, sp
 204 0010 4FF0FF33 		mov	r3, #-1
 205 0014 0122     		movs	r2, #1
 206 0016 FFF7FEFF 		bl	chEvtRegisterMaskWithFlags
 207              	.LVL12:
 208 001a 1C4C     		ldr	r4, .L30+12
 209              	.L19:
 210              	.LBE38:
 211              	.LBE39:
 212              	.LBE41:
 213              	.LBB42:
 214              	.LBB43:
 215              		.file 4 "lib/ChibiOS_3.0.2/os/rt/include/chthreads.h"
 216              		.loc 4 233 0
 217 001c B369     		ldr	r3, [r6, #24]
 218              	.LBE43:
 219              	.LBE42:
 220              		.loc 1 108 0
 221 001e 5B7F     		ldrb	r3, [r3, #29]	@ zero_extendqisi2
 222 0020 03F00403 		and	r3, r3, #4
 223 0024 03F0FF05 		and	r5, r3, #255
 224 0028 1BBB     		cbnz	r3, .L29
 225              	.LBB44:
 226              		.loc 1 110 0
 227 002a 6421     		movs	r1, #100
 228 002c 4FF0FF30 		mov	r0, #-1
ARM GAS  C:\Users\IDONNO~1\AppData\Local\Temp\cc96zqnk.s 			page 5


 229 0030 FFF7FEFF 		bl	chEvtWaitAnyTimeout
 230              	.LVL13:
 231 0034 0028     		cmp	r0, #0
 232 0036 F1D0     		beq	.L19
 233              		.loc 1 115 0
 234 0038 05AA     		add	r2, sp, #20
 235 003a 2B46     		mov	r3, r5
 236 003c 2946     		mov	r1, r5
 237 003e 1448     		ldr	r0, .L30+16
 238 0040 FFF7FEFF 		bl	canReceive
 239              	.LVL14:
 240              		.loc 1 117 0
 241 0044 0028     		cmp	r0, #0
 242 0046 E9D1     		bne	.L19
 243 0048 124F     		ldr	r7, .L30+20
 244              		.loc 1 122 0
 245 004a 0546     		mov	r5, r0
 246              	.L24:
 247              	.LVL15:
 248              		.loc 1 119 0
 249 004c 2368     		ldr	r3, [r4]
 250              		.loc 1 125 0
 251 004e 3868     		ldr	r0, [r7]
 252              		.loc 1 119 0
 253 0050 0133     		adds	r3, r3, #1
 254 0052 642B     		cmp	r3, #100
 255 0054 08BF     		it	eq
 256 0056 2B46     		moveq	r3, r5
 257              		.loc 1 125 0
 258 0058 0121     		movs	r1, #1
 259              		.loc 1 119 0
 260 005a 2360     		str	r3, [r4]
 261              		.loc 1 125 0
 262 005c FFF7FEFF 		bl	chEvtSignal
 263              	.LVL16:
 264              		.loc 1 126 0
 265 0060 0023     		movs	r3, #0
 266 0062 1946     		mov	r1, r3
 267 0064 05AA     		add	r2, sp, #20
 268 0066 0A48     		ldr	r0, .L30+16
 269 0068 FFF7FEFF 		bl	canReceive
 270              	.LVL17:
 271              		.loc 1 117 0
 272 006c 0028     		cmp	r0, #0
 273 006e EDD0     		beq	.L24
 274 0070 D4E7     		b	.L19
 275              	.LVL18:
 276              	.L29:
 277              	.LBE44:
 278              		.loc 1 130 0
 279 0072 6946     		mov	r1, sp
 280 0074 0448     		ldr	r0, .L30+8
 281              	.LVL19:
 282 0076 FFF7FEFF 		bl	chEvtUnregister
 283              	.LVL20:
 284              		.loc 1 131 0
 285 007a 0BB0     		add	sp, sp, #44
ARM GAS  C:\Users\IDONNO~1\AppData\Local\Temp\cc96zqnk.s 			page 6


 286              		.cfi_def_cfa_offset 20
 287              	.LVL21:
 288              		@ sp needed
 289 007c F0BD     		pop	{r4, r5, r6, r7, pc}
 290              	.LVL22:
 291              	.L31:
 292 007e 00BF     		.align	2
 293              	.L30:
 294 0080 00000000 		.word	ch
 295 0084 1C000000 		.word	.LC2
 296 0088 18000000 		.word	CAND1+24
 297 008c 00000000 		.word	.LANCHOR2
 298 0090 00000000 		.word	CAND1
 299 0094 00000000 		.word	.LANCHOR0
 300              		.cfi_endproc
 301              	.LFE257:
 302              		.size	cancom_read_thread, .-cancom_read_thread
 303              		.section	.text.comm_can_init,"ax",%progbits
 304              		.align	2
 305              		.p2align 4,,15
 306              		.global	comm_can_init
 307              		.thumb
 308              		.thumb_func
 309              		.type	comm_can_init, %function
 310              	comm_can_init:
 311              	.LFB256:
 312              		.loc 1 78 0
 313              		.cfi_startproc
 314              		@ args = 0, pretend = 0, frame = 0
 315              		@ frame_needed = 0, uses_anonymous_args = 0
 316 0000 30B5     		push	{r4, r5, lr}
 317              		.cfi_def_cfa_offset 12
 318              		.cfi_offset 4, -12
 319              		.cfi_offset 5, -8
 320              		.cfi_offset 14, -4
 321              		.loc 1 84 0
 322 0002 1B4B     		ldr	r3, .L34
 323              		.loc 1 83 0
 324 0004 1B4A     		ldr	r2, .L34+4
 325              		.loc 1 88 0
 326 0006 1C4D     		ldr	r5, .L34+8
 327              		.loc 1 86 0
 328 0008 1C48     		ldr	r0, .L34+12
 329              		.loc 1 78 0
 330 000a 83B0     		sub	sp, sp, #12
 331              		.cfi_def_cfa_offset 24
 332              		.loc 1 83 0
 333 000c 0024     		movs	r4, #0
 334              		.loc 1 84 0
 335 000e 1C60     		str	r4, [r3]
 336              		.loc 1 83 0
 337 0010 1460     		str	r4, [r2]
 338              		.loc 1 86 0
 339 0012 FFF7FEFF 		bl	chMtxObjectInit
 340              	.LVL23:
 341              		.loc 1 88 0
 342 0016 2846     		mov	r0, r5
ARM GAS  C:\Users\IDONNO~1\AppData\Local\Temp\cc96zqnk.s 			page 7


 343 0018 40F28A42 		movw	r2, #1162
 344 001c 4FF48071 		mov	r1, #256
 345 0020 FFF7FEFF 		bl	_pal_lld_setgroupmode
 346              	.LVL24:
 347              		.loc 1 89 0
 348 0024 2846     		mov	r0, r5
 349 0026 40F28A42 		movw	r2, #1162
 350 002a 4FF40071 		mov	r1, #512
 351 002e FFF7FEFF 		bl	_pal_lld_setgroupmode
 352              	.LVL25:
 353              		.loc 1 91 0
 354 0032 1349     		ldr	r1, .L34+16
 355 0034 1348     		ldr	r0, .L34+20
 356 0036 FFF7FEFF 		bl	canStart
 357              	.LVL26:
 358              		.loc 1 93 0
 359 003a 0094     		str	r4, [sp]
 360 003c 124B     		ldr	r3, .L34+24
 361 003e 1348     		ldr	r0, .L34+28
 362 0040 4122     		movs	r2, #65
 363 0042 4FF46671 		mov	r1, #920
 364 0046 FFF7FEFF 		bl	chThdCreateStatic
 365              	.LVL27:
 366              		.loc 1 94 0
 367 004a 0094     		str	r4, [sp]
 368 004c 104B     		ldr	r3, .L34+32
 369 004e 1148     		ldr	r0, .L34+36
 370 0050 4022     		movs	r2, #64
 371 0052 4FF4B361 		mov	r1, #1432
 372 0056 FFF7FEFF 		bl	chThdCreateStatic
 373              	.LVL28:
 374              		.loc 1 95 0
 375 005a 0094     		str	r4, [sp]
 376 005c 0E4B     		ldr	r3, .L34+40
 377 005e 0F48     		ldr	r0, .L34+44
 378 0060 4022     		movs	r2, #64
 379 0062 41F29811 		movw	r1, #4504
 380 0066 FFF7FEFF 		bl	chThdCreateStatic
 381              	.LVL29:
 382              		.loc 1 96 0
 383 006a 03B0     		add	sp, sp, #12
 384              		.cfi_def_cfa_offset 12
 385              		@ sp needed
 386 006c 30BD     		pop	{r4, r5, pc}
 387              	.L35:
 388 006e 00BF     		.align	2
 389              	.L34:
 390 0070 00000000 		.word	.LANCHOR2
 391 0074 00000000 		.word	.LANCHOR1
 392 0078 00040240 		.word	1073873920
 393 007c 00000000 		.word	.LANCHOR3
 394 0080 00000000 		.word	.LANCHOR4
 395 0084 00000000 		.word	CAND1
 396 0088 00000000 		.word	cancom_read_thread
 397 008c 00000000 		.word	.LANCHOR5
 398 0090 00000000 		.word	cancom_status_thread
 399 0094 00000000 		.word	.LANCHOR6
ARM GAS  C:\Users\IDONNO~1\AppData\Local\Temp\cc96zqnk.s 			page 8


 400 0098 00000000 		.word	cancom_process_thread
 401 009c 00000000 		.word	.LANCHOR7
 402              		.cfi_endproc
 403              	.LFE256:
 404              		.size	comm_can_init, .-comm_can_init
 405              		.section	.text.comm_can_transmit,"ax",%progbits
 406              		.align	2
 407              		.p2align 4,,15
 408              		.global	comm_can_transmit
 409              		.thumb
 410              		.thumb_func
 411              		.type	comm_can_transmit, %function
 412              	comm_can_transmit:
 413              	.LFB260:
 414              		.loc 1 189 0
 415              		.cfi_startproc
 416              		@ args = 0, pretend = 0, frame = 0
 417              		@ frame_needed = 0, uses_anonymous_args = 0
 418              		@ link register save eliminated.
 419              	.LVL30:
 420 0000 7047     		bx	lr
 421              		.cfi_endproc
 422              	.LFE260:
 423              		.size	comm_can_transmit, .-comm_can_transmit
 424 0002 00BF     		.section	.text.comm_can_send_buffer,"ax",%progbits
 425              		.align	2
 426              		.p2align 4,,15
 427              		.global	comm_can_send_buffer
 428              		.thumb
 429              		.thumb_func
 430              		.type	comm_can_send_buffer, %function
 431              	comm_can_send_buffer:
 432              	.LFB261:
 433              		.loc 1 228 0
 434              		.cfi_startproc
 435              		@ args = 0, pretend = 0, frame = 0
 436              		@ frame_needed = 0, uses_anonymous_args = 0
 437              		@ link register save eliminated.
 438              	.LVL31:
 439 0000 7047     		bx	lr
 440              		.cfi_endproc
 441              	.LFE261:
 442              		.size	comm_can_send_buffer, .-comm_can_send_buffer
 443 0002 00BF     		.section	.bss.cancom_process_thread_wa,"aw",%nobits
 444              		.align	3
 445              		.set	.LANCHOR7,. + 0
 446              		.type	cancom_process_thread_wa, %object
 447              		.size	cancom_process_thread_wa, 4504
 448              	cancom_process_thread_wa:
 449 0000 00000000 		.space	4504
 449      00000000 
 449      00000000 
 449      00000000 
 449      00000000 
 450              		.section	.bss.rx_frame_read,"aw",%nobits
 451              		.align	2
 452              		.set	.LANCHOR1,. + 0
ARM GAS  C:\Users\IDONNO~1\AppData\Local\Temp\cc96zqnk.s 			page 9


 453              		.type	rx_frame_read, %object
 454              		.size	rx_frame_read, 4
 455              	rx_frame_read:
 456 0000 00000000 		.space	4
 457              		.section	.rodata.cancfg,"a",%progbits
 458              		.align	2
 459              		.set	.LANCHOR4,. + 0
 460              		.type	cancfg, %object
 461              		.size	cancfg, 8
 462              	cancfg:
 463 0000 64000000 		.word	100
 464 0004 06001800 		.word	1572870
 465              		.section	.bss.cancom_status_thread_wa,"aw",%nobits
 466              		.align	3
 467              		.set	.LANCHOR6,. + 0
 468              		.type	cancom_status_thread_wa, %object
 469              		.size	cancom_status_thread_wa, 1432
 470              	cancom_status_thread_wa:
 471 0000 00000000 		.space	1432
 471      00000000 
 471      00000000 
 471      00000000 
 471      00000000 
 472              		.section	.rodata.str1.4,"aMS",%progbits,1
 473              		.align	2
 474              	.LC0:
 475 0000 43616E63 		.ascii	"Cancom process\000"
 475      6F6D2070 
 475      726F6365 
 475      737300
 476 000f 00       		.space	1
 477              	.LC1:
 478 0010 43414E20 		.ascii	"CAN status\000"
 478      73746174 
 478      757300
 479 001b 00       		.space	1
 480              	.LC2:
 481 001c 43414E00 		.ascii	"CAN\000"
 482              		.section	.bss.can_mtx,"aw",%nobits
 483              		.align	2
 484              		.set	.LANCHOR3,. + 0
 485              		.type	can_mtx, %object
 486              		.size	can_mtx, 16
 487              	can_mtx:
 488 0000 00000000 		.space	16
 488      00000000 
 488      00000000 
 488      00000000 
 489              		.section	.bss.cancom_read_thread_wa,"aw",%nobits
 490              		.align	3
 491              		.set	.LANCHOR5,. + 0
 492              		.type	cancom_read_thread_wa, %object
 493              		.size	cancom_read_thread_wa, 920
 494              	cancom_read_thread_wa:
 495 0000 00000000 		.space	920
 495      00000000 
 495      00000000 
ARM GAS  C:\Users\IDONNO~1\AppData\Local\Temp\cc96zqnk.s 			page 10


 495      00000000 
 495      00000000 
 496              		.section	.bss.process_tp,"aw",%nobits
 497              		.align	2
 498              		.set	.LANCHOR0,. + 0
 499              		.type	process_tp, %object
 500              		.size	process_tp, 4
 501              	process_tp:
 502 0000 00000000 		.space	4
 503              		.section	.bss.rx_frame_write,"aw",%nobits
 504              		.align	2
 505              		.set	.LANCHOR2,. + 0
 506              		.type	rx_frame_write, %object
 507              		.size	rx_frame_write, 4
 508              	rx_frame_write:
 509 0000 00000000 		.space	4
 510              		.text
 511              	.Letext0:
 512              		.file 5 "c:\\program files (x86)\\gnu tools arm embedded\\5.4 2016q3\\lib\\gcc\\arm-none-eabi\\5.4
 513              		.file 6 "c:\\program files (x86)\\gnu tools arm embedded\\5.4 2016q3\\arm-none-eabi\\include\\mach
 514              		.file 7 "c:\\program files (x86)\\gnu tools arm embedded\\5.4 2016q3\\arm-none-eabi\\include\\sys\
 515              		.file 8 "lib/ChibiOS_3.0.2/os/rt/ports/ARMCMx/compilers/GCC/chtypes.h"
 516              		.file 9 "lib/ChibiOS_3.0.2/os/rt/include/chsystypes.h"
 517              		.file 10 "lib/ChibiOS_3.0.2/os/rt/include/chschd.h"
 518              		.file 11 "lib/ChibiOS_3.0.2/os/ext/CMSIS/ST/stm32f407xx.h"
 519              		.file 12 "lib/ChibiOS_3.0.2/os/rt/ports/ARMCMx/chcore.h"
 520              		.file 13 "lib/ChibiOS_3.0.2/os/rt/ports/ARMCMx/chcore_v7m.h"
 521              		.file 14 "lib/ChibiOS_3.0.2/os/rt/include/chtm.h"
 522              		.file 15 "lib/ChibiOS_3.0.2/os/rt/include/chsem.h"
 523              		.file 16 "lib/ChibiOS_3.0.2/os/rt/include/chmtx.h"
 524              		.file 17 "lib/ChibiOS_3.0.2/os/hal/ports/STM32/LLD/GPIOv2/pal_lld.h"
 525              		.file 18 "lib/ChibiOS_3.0.2/os/hal/include/can.h"
 526              		.file 19 "lib/ChibiOS_3.0.2/os/hal/ports/STM32/LLD/can_lld.h"
 527              		.file 20 "lib/ChibiOS_3.0.2/os/ext/CMSIS/include/core_cm4.h"