ARM GAS  C:\Users\IDONNO~1\AppData\Local\Temp\cc96zqnk.s 			page 1


   1              		.syntax unified
   2              		.cpu cortex-m4
   3              		.eabi_attribute 27, 1
   4              		.eabi_attribute 28, 1
   5              		.fpu fpv4-sp-d16
   6              		.eabi_attribute 20, 1
   7              		.eabi_attribute 21, 1
   8              		.eabi_attribute 23, 3
   9              		.eabi_attribute 24, 1
  10              		.eabi_attribute 25, 1
  11              		.eabi_attribute 26, 1
  12              		.eabi_attribute 30, 2
  13              		.eabi_attribute 34, 1
  14              		.eabi_attribute 18, 4
  15              		.thumb
  16              		.syntax unified
  17              		.file	"comm_can.c"
  18              		.text
  19              	.Ltext0:
  20              		.cfi_sections	.debug_frame
  21              		.section	.text.cancom_process_thread,"ax",%progbits
  22              		.align	2
  23              		.p2align 4,,15
  24              		.thumb
  25              		.thumb_func
  26              		.type	cancom_process_thread, %function
  27              	cancom_process_thread:
  28              	.LFB258:
  29              		.file 1 "src/core/comm_can.c"
  30              		.loc 1 133 0
  31              		.cfi_startproc
  32              		@ args = 0, pretend = 0, frame = 0
  33              		@ frame_needed = 0, uses_anonymous_args = 0
  34              	.LVL0:
  35              	.LBB24:
  36              	.LBB25:
  37              		.file 2 "lib/ChibiOS_3.0.2/os/rt/include/chregistry.h"
  38              		.loc 2 135 0
  39 0000 0D4B     		ldr	r3, .L11
  40              	.LBE25:
  41              	.LBE24:
  42              		.loc 1 137 0
  43 0002 0E4A     		ldr	r2, .L11+4
  44              	.LBB28:
  45              	.LBB26:
  46              		.loc 2 135 0
  47 0004 9B69     		ldr	r3, [r3, #24]
  48 0006 0E49     		ldr	r1, .L11+8
  49              	.LBE26:
  50              	.LBE28:
  51              		.loc 1 133 0
  52 0008 70B5     		push	{r4, r5, r6, lr}
  53              		.cfi_def_cfa_offset 16
  54              		.cfi_offset 4, -16
  55              		.cfi_offset 5, -12
  56              		.cfi_offset 6, -8
  57              		.cfi_offset 14, -4
ARM GAS  C:\Users\IDONNO~1\AppData\Local\Temp\cc96zqnk.s 			page 2


  58 000a 0E4C     		ldr	r4, .L11+12
  59 000c 0E4D     		ldr	r5, .L11+16
  60              	.LBB29:
  61              	.LBB27:
  62              		.loc 2 135 0
  63 000e 9961     		str	r1, [r3, #24]
  64              	.LVL1:
  65              	.LBE27:
  66              	.LBE29:
  67              		.loc 1 137 0
  68 0010 1360     		str	r3, [r2]
  69              	.LVL2:
  70              		.loc 1 157 0
  71 0012 0026     		movs	r6, #0
  72              	.LVL3:
  73              	.L4:
  74              		.loc 1 148 0
  75 0014 0120     		movs	r0, #1
  76 0016 FFF7FEFF 		bl	chEvtWaitAny
  77              	.LVL4:
  78              		.loc 1 150 0
  79 001a 2268     		ldr	r2, [r4]
  80 001c 2968     		ldr	r1, [r5]
  81 001e 9142     		cmp	r1, r2
  82 0020 05D0     		beq	.L2
  83 0022 8A1A     		subs	r2, r1, r2
  84 0024 0023     		movs	r3, #0
  85              	.L3:
  86 0026 0133     		adds	r3, r3, #1
  87 0028 9342     		cmp	r3, r2
  88 002a FCD1     		bne	.L3
  89 002c 2160     		str	r1, [r4]
  90              	.L2:
  91              		.loc 1 155 0
  92 002e 6429     		cmp	r1, #100
  93              		.loc 1 157 0
  94 0030 08BF     		it	eq
  95 0032 2660     		streq	r6, [r4]
  96 0034 EEE7     		b	.L4
  97              	.L12:
  98 0036 00BF     		.align	2
  99              	.L11:
 100 0038 00000000 		.word	ch
 101 003c 00000000 		.word	.LANCHOR0
 102 0040 00000000 		.word	.LC0
 103 0044 00000000 		.word	.LANCHOR1
 104 0048 00000000 		.word	.LANCHOR2
 105              		.cfi_endproc
 106              	.LFE258:
 107              		.size	cancom_process_thread, .-cancom_process_thread
 108              		.section	.text.cancom_status_thread,"ax",%progbits
 109              		.align	2
 110              		.p2align 4,,15
 111              		.thumb
 112              		.thumb_func
 113              		.type	cancom_status_thread, %function
 114              	cancom_status_thread:
ARM GAS  C:\Users\IDONNO~1\AppData\Local\Temp\cc96zqnk.s 			page 3


 115              	.LFB259:
 116              		.loc 1 164 0
 117              		.cfi_startproc
 118              		@ Volatile: function does not return.
 119              		@ args = 0, pretend = 0, frame = 0
 120              		@ frame_needed = 0, uses_anonymous_args = 0
 121              	.LVL5:
 122 0000 08B5     		push	{r3, lr}
 123              		.cfi_def_cfa_offset 8
 124              		.cfi_offset 3, -8
 125              		.cfi_offset 14, -4
 126              	.LBB30:
 127              	.LBB31:
 128              		.loc 2 135 0
 129 0002 044B     		ldr	r3, .L16
 130 0004 044A     		ldr	r2, .L16+4
 131 0006 9B69     		ldr	r3, [r3, #24]
 132 0008 9A61     		str	r2, [r3, #24]
 133              	.LVL6:
 134              	.L14:
 135              	.LBE31:
 136              	.LBE30:
 137              		.loc 1 185 0 discriminator 1
 138 000a 4FF47A70 		mov	r0, #1000
 139 000e FFF7FEFF 		bl	chThdSleep
 140              	.LVL7:
 141 0012 FAE7     		b	.L14
 142              	.L17:
 143              		.align	2
 144              	.L16:
 145 0014 00000000 		.word	ch
 146 0018 10000000 		.word	.LC1
 147              		.cfi_endproc
 148              	.LFE259:
 149              		.size	cancom_status_thread, .-cancom_status_thread
 150              		.section	.text.cancom_read_thread,"ax",%progbits
 151              		.align	2
 152              		.p2align 4,,15
 153              		.thumb
 154              		.thumb_func
 155              		.type	cancom_read_thread, %function
 156              	cancom_read_thread:
 157              	.LFB257:
 158              		.loc 1 99 0
 159              		.cfi_startproc
 160              		@ args = 0, pretend = 0, frame = 40
 161              		@ frame_needed = 0, uses_anonymous_args = 0
 162              	.LVL8:
 163 0000 F0B5     		push	{r4, r5, r6, r7, lr}
 164              		.cfi_def_cfa_offset 20
 165              		.cfi_offset 4, -20
 166              		.cfi_offset 5, -16
 167              		.cfi_offset 6, -12
 168              		.cfi_offset 7, -8
 169              		.cfi_offset 14, -4
 170              	.LBB32:
 171              	.LBB33:
ARM GAS  C:\Users\IDONNO~1\AppData\Local\Temp\cc96zqnk.s 			page 4


 172              		.loc 2 135 0
 173 0002 1F4E     		ldr	r6, .L30
 174 0004 1F4A     		ldr	r2, .L30+4
 175 0006 B369     		ldr	r3, [r6, #24]
 176              	.LBE33:
 177              	.LBE32:
 178              	.LBB35:
 179              	.LBB36:
 180              	.LBB37:
 181              		.file 3 "lib/ChibiOS_3.0.2/os/rt/include/chevents.h"
 182              		.loc 3 193 0
 183 0008 1F48     		ldr	r0, .L30+8
 184              	.LVL9:
 185              	.LBE37:
 186              	.LBE36:
 187              	.LBE35:
 188              	.LBB40:
 189              	.LBB34:
 190              		.loc 2 135 0
 191 000a 9A61     		str	r2, [r3, #24]
 192              	.LVL10:
 193              	.LBE34:
 194              	.LBE40:
 195              		.loc 1 99 0
 196 000c 8BB0     		sub	sp, sp, #44
 197              		.cfi_def_cfa_offset 64
 198              	.LVL11:
 199              	.LBB41:
 200              	.LBB39:
 201              	.LBB38:
 202              		.loc 3 193 0
 203 000e 6946     		mov	r1, sp
 204 0010 4FF0FF33 		mov	r3, #-1
 205 0014 0122     		movs	r2, #1
 206 0016 FFF7FEFF 		bl	chEvtRegisterMaskWithFlags
 207              	.LVL12:
 208 001a 1C4C     		ldr	r4, .L30+12
 209              	.L19:
 210              	.LBE38:
 211              	.LBE39:
 212              	.LBE41:
 213              	.LBB42:
 214              	.LBB43:
 215              		.file 4 "lib/ChibiOS_3.0.2/os/rt/include/chthreads.h"
 216              		.loc 4 233 0
 217 001c B369     		ldr	r3, [r6, #24]
 218              	.LBE43:
 219              	.LBE42:
 220              		.loc 1 108 0
 221 001e 5B7F     		ldrb	r3, [r3, #29]	@ zero_extendqisi2
 222 0020 03F00403 		and	r3, r3, #4
 223 0024 03F0FF05 		and	r5, r3, #255
 224 0028 1BBB     		cbnz	r3, .L29
 225              	.LBB44:
 226              		.loc 1 110 0
 227 002a 6421     		movs	r1, #100
 228 002c 4FF0FF30 		mov	r0, #-1
ARM GAS  C:\Users\IDONNO~1\AppData\Local\Temp\cc96zqnk.s 			page 5


 229 0030 FFF7FEFF 		bl	chEvtWaitAnyTimeout
 230              	.LVL13:
 231 0034 0028     		cmp	r0, #0
 232 0036 F1D0     		beq	.L19
 233              		.loc 1 115 0
 234 0038 05AA     		add	r2, sp, #20
 235 003a 2B46     		mov	r3, r5
 236 003c 2946     		mov	r1, r5
 237 003e 1448     		ldr	r0, .L30+16
 238 0040 FFF7FEFF 		bl	canReceive
 239              	.LVL14:
 240              		.loc 1 117 0
 241 0044 0028     		cmp	r0, #0
 242 0046 E9D1     		bne	.L19
 243 0048 124F     		ldr	r7, .L30+20
 244              		.loc 1 122 0
 245 004a 0546     		mov	r5, r0
 246              	.L24:
 247              	.LVL15:
 248              		.loc 1 119 0
 249 004c 2368     		ldr	r3, [r4]
 250              		.loc 1 125 0
 251 004e 3868     		ldr	r0, [r7]
 252              		.loc 1 119 0
 253 0050 0133     		adds	r3, r3, #1
 254 0052 642B     		cmp	r3, #100
 255 0054 08BF     		it	eq
 256 0056 2B46     		moveq	r3, r5
 257              		.loc 1 125 0
 258 0058 0121     		movs	r1, #1
 259              		.loc 1 119 0
 260 005a 2360     		str	r3, [r4]
 261              		.loc 1 125 0
 262 005c FFF7FEFF 		bl	chEvtSignal
 263              	.LVL16:
 264              		.loc 1 126 0
 265 0060 0023     		movs	r3, #0
 266 0062 1946     		mov	r1, r3
 267 0064 05AA     		add	r2, sp, #20
 268 0066 0A48     		ldr	r0, .L30+16
 269 0068 FFF7FEFF 		bl	canReceive
 270              	.LVL17:
 271              		.loc 1 117 0
 272 006c 0028     		cmp	r0, #0
 273 006e EDD0     		beq	.L24
 274 0070 D4E7     		b	.L19
 275              	.LVL18:
 276              	.L29:
 277              	.LBE44:
 278              		.loc 1 130 0
 279 0072 6946     		mov	r1, sp
 280 0074 0448     		ldr	r0, .L30+8
 281              	.LVL19:
 282 0076 FFF7FEFF 		bl	chEvtUnregister
 283              	.LVL20:
 284              		.loc 1 131 0
 285 007a 0BB0     		add	sp, sp, #44
ARM GAS  C:\Users\IDONNO~1\AppData\Local\Temp\cc96zqnk.s 			page 6


 286              		.cfi_def_cfa_offset 20
 287              	.LVL21:
 288              		@ sp needed
 289 007c F0BD     		pop	{r4, r5, r6, r7, pc}
 290              	.LVL22:
 291              	.L31:
 292 007e 00BF     		.align	2
 293              	.L30:
 294 0080 00000000 		.word	ch
 295 0084 1C000000 		.word	.LC2
 296 0088 18000000 		.word	CAND1+24
 297 008c 00000000 		.word	.LANCHOR2
 298 0090 00000000 		.word	CAND1
 299 0094 00000000 		.word	.LANCHOR0
 300              		.cfi_endproc
 301              	.LFE257:
 302              		.size	cancom_read_thread, .-cancom_read_thread
 303              		.section	.text.comm_can_init,"ax",%progbits
 304              		.align	2
 305              		.p2align 4,,15
 306              		.global	comm_can_init
 307              		.thumb
 308              		.thumb_func
 309              		.type	comm_can_init, %function
 310              	comm_can_init:
 311              	.LFB256:
 312              		.loc 1 78 0
 313              		.cfi_startproc
 314              		@ args = 0, pretend = 0, frame = 0
 315              		@ frame_needed = 0, uses_anonymous_args = 0
 316 0000 30B5     		push	{r4, r5, lr}
 317              		.cfi_def_cfa_offset 12
 318              		.cfi_offset 4, -12
 319              		.cfi_offset 5, -8
 320              		.cfi_offset 14, -4
 321              		.loc 1 84 0
 322 0002 1B4B     		ldr	r3, .L34
 323              		.loc 1 83 0
 324 0004 1B4A     		ldr	r2, .L34+4
 325              		.loc 1 88 0
 326 0006 1C4D     		ldr	r5, .L34+8
 327              		.loc 1 86 0
 328 0008 1C48     		ldr	r0, .L34+12
 329              		.loc 1 78 0
 330 000a 83B0     		sub	sp, sp, #12
 331              		.cfi_def_cfa_offset 24
 332              		.loc 1 83 0
 333 000c 0024     		movs	r4, #0
 334              		.loc 1 84 0
 335 000e 1C60     		str	r4, [r3]
 336              		.loc 1 83 0
 337 0010 1460     		str	r4, [r2]
 338              		.loc 1 86 0
 339 0012 FFF7FEFF 		bl	chMtxObjectInit
 340              	.LVL23:
 341              		.loc 1 88 0
 342 0016 2846     		mov	r0, r5
ARM GAS  C:\Users\IDONNO~1\AppData\Local\Temp\cc96zqnk.s 			page 7


 343 0018 40F28A42 		movw	r2, #1162
 344 001c 4FF48071 		mov	r1, #256
 345 0020 FFF7FEFF 		bl	_pal_lld_setgroupmode
 346              	.LVL24:
 347              		.loc 1 89 0
 348 0024 2846     		mov	r0, r5
 349 0026 40F28A42 		movw	r2, #1162
 350 002a 4FF40071 		mov	r1, #512
 351 002e FFF7FEFF 		bl	_pal_lld_setgroupmode
 352              	.LVL25:
 353              		.loc 1 91 0
 354 0032 1349     		ldr	r1, .L34+16
 355 0034 1348     		ldr	r0, .L34+20
 356 0036 FFF7FEFF 		bl	canStart
 357              	.LVL26:
 358              		.loc 1 93 0
 359 003a 0094     		str	r4, [sp]
 360 003c 124B     		ldr	r3, .L34+24
 361 003e 1348     		ldr	r0, .L34+28
 362 0040 4122     		movs	r2, #65
 363 0042 4FF46671 		mov	r1, #920
 364 0046 FFF7FEFF 		bl	chThdCreateStatic
 365              	.LVL27:
 366              		.loc 1 94 0
 367 004a 0094     		str	r4, [sp]
 368 004c 104B     		ldr	r3, .L34+32
 369 004e 1148     		ldr	r0, .L34+36
 370 0050 4022     		movs	r2, #64
 371 0052 4FF4B361 		mov	r1, #1432
 372 0056 FFF7FEFF 		bl	chThdCreateStatic
 373              	.LVL28:
 374              		.loc 1 95 0
 375 005a 0094     		str	r4, [sp]
 376 005c 0E4B     		ldr	r3, .L34+40
 377 005e 0F48     		ldr	r0, .L34+44
 378 0060 4022     		movs	r2, #64
 379 0062 41F29811 		movw	r1, #4504
 380 0066 FFF7FEFF 		bl	chThdCreateStatic
 381              	.LVL29:
 382              		.loc 1 96 0
 383 006a 03B0     		add	sp, sp, #12
 384              		.cfi_def_cfa_offset 12
 385              		@ sp needed
 386 006c 30BD     		pop	{r4, r5, pc}
 387              	.L35:
 388 006e 00BF     		.align	2
 389              	.L34:
 390 0070 00000000 		.word	.LANCHOR2
 391 0074 00000000 		.word	.LANCHOR1
 392 0078 00040240 		.word	1073873920
 393 007c 00000000 		.word	.LANCHOR3
 394 0080 00000000 		.word	.LANCHOR4
 395 0084 00000000 		.word	CAND1
 396 0088 00000000 		.word	cancom_read_thread
 397 008c 00000000 		.word	.LANCHOR5
 398 0090 00000000 		.word	cancom_status_thread
 399 0094 00000000 		.word	.LANCHOR6
ARM GAS  C:\Users\IDONNO~1\AppData\Local\Temp\cc96zqnk.s 			page 8


 400 0098 00000000 		.word	cancom_process_thread
 401 009c 00000000 		.word	.LANCHOR7
 402              		.cfi_endproc
 403              	.LFE256:
 404              		.size	comm_can_init, .-comm_can_init
 405              		.section	.text.comm_can_transmit,"ax",%progbits
 406              		.align	2
 407              		.p2align 4,,15
 408              		.global	comm_can_transmit
 409              		.thumb
 410              		.thumb_func
 411              		.type	comm_can_transmit, %function
 412              	comm_can_transmit:
 413              	.LFB260:
 414              		.loc 1 189 0
 415              		.cfi_startproc
 416              		@ args = 0, pretend = 0, frame = 0
 417              		@ frame_needed = 0, uses_anonymous_args = 0
 418              		@ link register save eliminated.
 419              	.LVL30:
 420 0000 7047     		bx	lr
 421              		.cfi_endproc
 422              	.LFE260:
 423              		.size	comm_can_transmit, .-comm_can_transmit
 424 0002 00BF     		.section	.text.comm_can_send_buffer,"ax",%progbits
 425              		.align	2
 426              		.p2align 4,,15
 427              		.global	comm_can_send_buffer
 428              		.thumb
 429              		.thumb_func
 430              		.type	comm_can_send_buffer, %function
 431              	comm_can_send_buffer:
 432              	.LFB261:
 433              		.loc 1 228 0
 434              		.cfi_startproc
 435              		@ args = 0, pretend = 0, frame = 0
 436              		@ frame_needed = 0, uses_anonymous_args = 0
 437              		@ link register save eliminated.
 438              	.LVL31:
 439 0000 7047     		bx	lr
 440              		.cfi_endproc
 441              	.LFE261:
 442              		.size	comm_can_send_buffer, .-comm_can_send_buffer
 443 0002 00BF     		.section	.bss.cancom_process_thread_wa,"aw",%nobits
 444              		.align	3
 445              		.set	.LANCHOR7,. + 0
 446              		.type	cancom_process_thread_wa, %object
 447              		.size	cancom_process_thread_wa, 4504
 448              	cancom_process_thread_wa:
 449 0000 00000000 		.space	4504
 449      00000000 
 449      00000000 
 449      00000000 
 449      00000000 
 450              		.section	.bss.rx_frame_read,"aw",%nobits
 451              		.align	2
 452              		.set	.LANCHOR1,. + 0
ARM GAS  C:\Users\IDONNO~1\AppData\Local\Temp\cc96zqnk.s 			page 9


 453              		.type	rx_frame_read, %object
 454              		.size	rx_frame_read, 4
 455              	rx_frame_read:
 456 0000 00000000 		.space	4
 457              		.section	.rodata.cancfg,"a",%progbits
 458              		.align	2
 459              		.set	.LANCHOR4,. + 0
 460              		.type	cancfg, %object
 461              		.size	cancfg, 8
 462              	cancfg:
 463 0000 64000000 		.word	100
 464 0004 06001800 		.word	1572870
 465              		.section	.bss.cancom_status_thread_wa,"aw",%nobits
 466              		.align	3
 467              		.set	.LANCHOR6,. + 0
 468              		.type	cancom_status_thread_wa, %object
 469              		.size	cancom_status_thread_wa, 1432
 470              	cancom_status_thread_wa:
 471 0000 00000000 		.space	1432
 471      00000000 
 471      00000000 
 471      00000000 
 471      00000000 
 472              		.section	.rodata.str1.4,"aMS",%progbits,1
 473              		.align	2
 474              	.LC0:
 475 0000 43616E63 		.ascii	"Cancom process\000"
 475      6F6D2070 
 475      726F6365 
 475      737300
 476 000f 00       		.space	1
 477              	.LC1:
 478 0010 43414E20 		.ascii	"CAN status\000"
 478      73746174 
 478      757300
 479 001b 00       		.space	1
 480              	.LC2:
 481 001c 43414E00 		.ascii	"CAN\000"
 482              		.section	.bss.can_mtx,"aw",%nobits
 483              		.align	2
 484              		.set	.LANCHOR3,. + 0
 485              		.type	can_mtx, %object
 486              		.size	can_mtx, 16
 487              	can_mtx:
 488 0000 00000000 		.space	16
 488      00000000 
 488      00000000 
 488      00000000 
 489              		.section	.bss.cancom_read_thread_wa,"aw",%nobits
 490              		.align	3
 491              		.set	.LANCHOR5,. + 0
 492              		.type	cancom_read_thread_wa, %object
 493              		.size	cancom_read_thread_wa, 920
 494              	cancom_read_thread_wa:
 495 0000 00000000 		.space	920
 495      00000000 
 495      00000000 
ARM GAS  C:\Users\IDONNO~1\AppData\Local\Temp\cc96zqnk.s 			page 10


 495      00000000 
 495      00000000 
 496              		.section	.bss.process_tp,"aw",%nobits
 497              		.align	2
 498              		.set	.LANCHOR0,. + 0
 499              		.type	process_tp, %object
 500              		.size	process_tp, 4
 501              	process_tp:
 502 0000 00000000 		.space	4
 503              		.section	.bss.rx_frame_write,"aw",%nobits
 504              		.align	2
 505              		.set	.LANCHOR2,. + 0
 506              		.type	rx_frame_write, %object
 507              		.size	rx_frame_write, 4
 508              	rx_frame_write:
 509 0000 00000000 		.space	4
 510              		.text
 511              	.Letext0:
 512              		.file 5 "c:\\program files (x86)\\gnu tools arm embedded\\5.4 2016q3\\lib\\gcc\\arm-none-eabi\\5.4
 513              		.file 6 "c:\\program files (x86)\\gnu tools arm embedded\\5.4 2016q3\\arm-none-eabi\\include\\mach
 514              		.file 7 "c:\\program files (x86)\\gnu tools arm embedded\\5.4 2016q3\\arm-none-eabi\\include\\sys\
 515              		.file 8 "lib/ChibiOS_3.0.2/os/rt/ports/ARMCMx/compilers/GCC/chtypes.h"
 516              		.file 9 "lib/ChibiOS_3.0.2/os/rt/include/chsystypes.h"
 517              		.file 10 "lib/ChibiOS_3.0.2/os/rt/include/chschd.h"
 518              		.file 11 "lib/ChibiOS_3.0.2/os/ext/CMSIS/ST/stm32f407xx.h"
 519              		.file 12 "lib/ChibiOS_3.0.2/os/rt/ports/ARMCMx/chcore.h"
 520              		.file 13 "lib/ChibiOS_3.0.2/os/rt/ports/ARMCMx/chcore_v7m.h"
 521              		.file 14 "lib/ChibiOS_3.0.2/os/rt/include/chtm.h"
 522              		.file 15 "lib/ChibiOS_3.0.2/os/rt/include/chsem.h"
 523              		.file 16 "lib/ChibiOS_3.0.2/os/rt/include/chmtx.h"
 524              		.file 17 "lib/ChibiOS_3.0.2/os/hal/ports/STM32/LLD/GPIOv2/pal_lld.h"
 525              		.file 18 "lib/ChibiOS_3.0.2/os/hal/include/can.h"
 526              		.file 19 "lib/ChibiOS_3.0.2/os/hal/ports/STM32/LLD/can_lld.h"
 527              		.file 20 "lib/ChibiOS_3.0.2/os/ext/CMSIS/include/core_cm4.h"
 528              		.section	.debug_info,"",%progbits
 529              	.Ldebug_info0:
 530 0000 77130000 		.4byte	0x1377
 531 0004 0400     		.2byte	0x4
 532 0006 00000000 		.4byte	.Ldebug_abbrev0
 533 000a 04       		.byte	0x4
 534 000b 01       		.uleb128 0x1
 535 000c 78030000 		.4byte	.LASF227
 536 0010 0C       		.byte	0xc
 537 0011 BB010000 		.4byte	.LASF228
 538 0015 AF020000 		.4byte	.LASF229
 539 0019 50000000 		.4byte	.Ldebug_ranges0+0x50
 540 001d 00000000 		.4byte	0
 541 0021 00000000 		.4byte	.Ldebug_line0
 542 0025 02       		.uleb128 0x2
 543 0026 04       		.byte	0x4
 544 0027 05       		.byte	0x5
 545 0028 696E7400 		.ascii	"int\000"
 546 002c 03       		.uleb128 0x3
 547 002d 5D030000 		.4byte	.LASF2
 548 0031 05       		.byte	0x5
 549 0032 D8       		.byte	0xd8
 550 0033 37000000 		.4byte	0x37
ARM GAS  C:\Users\IDONNO~1\AppData\Local\Temp\cc96zqnk.s 			page 11


 551 0037 04       		.uleb128 0x4
 552 0038 04       		.byte	0x4
 553 0039 07       		.byte	0x7
 554 003a C3000000 		.4byte	.LASF0
 555 003e 04       		.uleb128 0x4
 556 003f 01       		.byte	0x1
 557 0040 06       		.byte	0x6
 558 0041 3A0A0000 		.4byte	.LASF1
 559 0045 03       		.uleb128 0x3
 560 0046 9A080000 		.4byte	.LASF3
 561 004a 06       		.byte	0x6
 562 004b 1D       		.byte	0x1d
 563 004c 50000000 		.4byte	0x50
 564 0050 04       		.uleb128 0x4
 565 0051 01       		.byte	0x1
 566 0052 08       		.byte	0x8
 567 0053 51090000 		.4byte	.LASF4
 568 0057 04       		.uleb128 0x4
 569 0058 02       		.byte	0x2
 570 0059 05       		.byte	0x5
 571 005a E3070000 		.4byte	.LASF5
 572 005e 03       		.uleb128 0x3
 573 005f F7020000 		.4byte	.LASF6
 574 0063 06       		.byte	0x6
 575 0064 2B       		.byte	0x2b
 576 0065 69000000 		.4byte	0x69
 577 0069 04       		.uleb128 0x4
 578 006a 02       		.byte	0x2
 579 006b 07       		.byte	0x7
 580 006c 4B0A0000 		.4byte	.LASF7
 581 0070 03       		.uleb128 0x3
 582 0071 F2000000 		.4byte	.LASF8
 583 0075 06       		.byte	0x6
 584 0076 3F       		.byte	0x3f
 585 0077 7B000000 		.4byte	0x7b
 586 007b 04       		.uleb128 0x4
 587 007c 04       		.byte	0x4
 588 007d 05       		.byte	0x5
 589 007e 29080000 		.4byte	.LASF9
 590 0082 03       		.uleb128 0x3
 591 0083 5F090000 		.4byte	.LASF10
 592 0087 06       		.byte	0x6
 593 0088 41       		.byte	0x41
 594 0089 8D000000 		.4byte	0x8d
 595 008d 04       		.uleb128 0x4
 596 008e 04       		.byte	0x4
 597 008f 07       		.byte	0x7
 598 0090 EE060000 		.4byte	.LASF11
 599 0094 04       		.uleb128 0x4
 600 0095 08       		.byte	0x8
 601 0096 05       		.byte	0x5
 602 0097 24050000 		.4byte	.LASF12
 603 009b 03       		.uleb128 0x3
 604 009c 5B060000 		.4byte	.LASF13
 605 00a0 06       		.byte	0x6
 606 00a1 5B       		.byte	0x5b
 607 00a2 A6000000 		.4byte	0xa6
ARM GAS  C:\Users\IDONNO~1\AppData\Local\Temp\cc96zqnk.s 			page 12


 608 00a6 04       		.uleb128 0x4
 609 00a7 08       		.byte	0x8
 610 00a8 07       		.byte	0x7
 611 00a9 88020000 		.4byte	.LASF14
 612 00ad 04       		.uleb128 0x4
 613 00ae 04       		.byte	0x4
 614 00af 07       		.byte	0x7
 615 00b0 E9080000 		.4byte	.LASF15
 616 00b4 05       		.uleb128 0x5
 617 00b5 04       		.byte	0x4
 618 00b6 04       		.uleb128 0x4
 619 00b7 01       		.byte	0x1
 620 00b8 08       		.byte	0x8
 621 00b9 62000000 		.4byte	.LASF16
 622 00bd 06       		.uleb128 0x6
 623 00be 04       		.byte	0x4
 624 00bf C3000000 		.4byte	0xc3
 625 00c3 07       		.uleb128 0x7
 626 00c4 B6000000 		.4byte	0xb6
 627 00c8 03       		.uleb128 0x3
 628 00c9 4C050000 		.4byte	.LASF17
 629 00cd 07       		.byte	0x7
 630 00ce 18       		.byte	0x18
 631 00cf 45000000 		.4byte	0x45
 632 00d3 03       		.uleb128 0x3
 633 00d4 4D070000 		.4byte	.LASF18
 634 00d8 07       		.byte	0x7
 635 00d9 24       		.byte	0x24
 636 00da 5E000000 		.4byte	0x5e
 637 00de 03       		.uleb128 0x3
 638 00df 25090000 		.4byte	.LASF19
 639 00e3 07       		.byte	0x7
 640 00e4 2C       		.byte	0x2c
 641 00e5 70000000 		.4byte	0x70
 642 00e9 03       		.uleb128 0x3
 643 00ea D0000000 		.4byte	.LASF20
 644 00ee 07       		.byte	0x7
 645 00ef 30       		.byte	0x30
 646 00f0 82000000 		.4byte	0x82
 647 00f4 03       		.uleb128 0x3
 648 00f5 85080000 		.4byte	.LASF21
 649 00f9 07       		.byte	0x7
 650 00fa 3C       		.byte	0x3c
 651 00fb 9B000000 		.4byte	0x9b
 652 00ff 08       		.uleb128 0x8
 653 0100 DE000000 		.4byte	0xde
 654 0104 08       		.uleb128 0x8
 655 0105 E9000000 		.4byte	0xe9
 656 0109 03       		.uleb128 0x3
 657 010a 85070000 		.4byte	.LASF22
 658 010e 08       		.byte	0x8
 659 010f 45       		.byte	0x45
 660 0110 E9000000 		.4byte	0xe9
 661 0114 03       		.uleb128 0x3
 662 0115 32070000 		.4byte	.LASF23
 663 0119 08       		.byte	0x8
 664 011a 48       		.byte	0x48
ARM GAS  C:\Users\IDONNO~1\AppData\Local\Temp\cc96zqnk.s 			page 13


 665 011b C8000000 		.4byte	0xc8
 666 011f 03       		.uleb128 0x3
 667 0120 11050000 		.4byte	.LASF24
 668 0124 08       		.byte	0x8
 669 0125 49       		.byte	0x49
 670 0126 C8000000 		.4byte	0xc8
 671 012a 03       		.uleb128 0x3
 672 012b F2080000 		.4byte	.LASF25
 673 012f 08       		.byte	0x8
 674 0130 4A       		.byte	0x4a
 675 0131 C8000000 		.4byte	0xc8
 676 0135 03       		.uleb128 0x3
 677 0136 A6060000 		.4byte	.LASF26
 678 013a 08       		.byte	0x8
 679 013b 4B       		.byte	0x4b
 680 013c C8000000 		.4byte	0xc8
 681 0140 03       		.uleb128 0x3
 682 0141 32020000 		.4byte	.LASF27
 683 0145 08       		.byte	0x8
 684 0146 4C       		.byte	0x4c
 685 0147 E9000000 		.4byte	0xe9
 686 014b 03       		.uleb128 0x3
 687 014c 22060000 		.4byte	.LASF28
 688 0150 08       		.byte	0x8
 689 0151 4D       		.byte	0x4d
 690 0152 DE000000 		.4byte	0xde
 691 0156 03       		.uleb128 0x3
 692 0157 A90A0000 		.4byte	.LASF29
 693 015b 08       		.byte	0x8
 694 015c 4E       		.byte	0x4e
 695 015d DE000000 		.4byte	0xde
 696 0161 03       		.uleb128 0x3
 697 0162 E7010000 		.4byte	.LASF30
 698 0166 08       		.byte	0x8
 699 0167 4F       		.byte	0x4f
 700 0168 E9000000 		.4byte	0xe9
 701 016c 03       		.uleb128 0x3
 702 016d E6050000 		.4byte	.LASF31
 703 0171 08       		.byte	0x8
 704 0172 50       		.byte	0x50
 705 0173 E9000000 		.4byte	0xe9
 706 0177 03       		.uleb128 0x3
 707 0178 02030000 		.4byte	.LASF32
 708 017c 08       		.byte	0x8
 709 017d 51       		.byte	0x51
 710 017e DE000000 		.4byte	0xde
 711 0182 03       		.uleb128 0x3
 712 0183 94000000 		.4byte	.LASF33
 713 0187 09       		.byte	0x9
 714 0188 33       		.byte	0x33
 715 0189 E9000000 		.4byte	0xe9
 716 018d 03       		.uleb128 0x3
 717 018e 4A030000 		.4byte	.LASF34
 718 0192 09       		.byte	0x9
 719 0193 3F       		.byte	0x3f
 720 0194 98010000 		.4byte	0x198
 721 0198 09       		.uleb128 0x9
ARM GAS  C:\Users\IDONNO~1\AppData\Local\Temp\cc96zqnk.s 			page 14


 722 0199 92050000 		.4byte	.LASF56
 723 019d 48       		.byte	0x48
 724 019e 0A       		.byte	0xa
 725 019f C2       		.byte	0xc2
 726 01a0 9D020000 		.4byte	0x29d
 727 01a4 0A       		.uleb128 0xa
 728 01a5 7E080000 		.4byte	.LASF35
 729 01a9 0A       		.byte	0xa
 730 01aa C3       		.byte	0xc3
 731 01ab A8020000 		.4byte	0x2a8
 732 01af 00       		.byte	0
 733 01b0 0A       		.uleb128 0xa
 734 01b1 E2080000 		.4byte	.LASF36
 735 01b5 0A       		.byte	0xa
 736 01b6 C5       		.byte	0xc5
 737 01b7 A8020000 		.4byte	0x2a8
 738 01bb 04       		.byte	0x4
 739 01bc 0A       		.uleb128 0xa
 740 01bd 67000000 		.4byte	.LASF37
 741 01c1 0A       		.byte	0xa
 742 01c2 C7       		.byte	0xc7
 743 01c3 40010000 		.4byte	0x140
 744 01c7 08       		.byte	0x8
 745 01c8 0A       		.uleb128 0xa
 746 01c9 8E080000 		.4byte	.LASF38
 747 01cd 0A       		.byte	0xa
 748 01ce C8       		.byte	0xc8
 749 01cf 39070000 		.4byte	0x739
 750 01d3 0C       		.byte	0xc
 751 01d4 0A       		.uleb128 0xa
 752 01d5 25030000 		.4byte	.LASF39
 753 01d9 0A       		.byte	0xa
 754 01da CA       		.byte	0xca
 755 01db A8020000 		.4byte	0x2a8
 756 01df 10       		.byte	0x10
 757 01e0 0A       		.uleb128 0xa
 758 01e1 3C050000 		.4byte	.LASF40
 759 01e5 0A       		.byte	0xa
 760 01e6 CB       		.byte	0xcb
 761 01e7 A8020000 		.4byte	0x2a8
 762 01eb 14       		.byte	0x14
 763 01ec 0A       		.uleb128 0xa
 764 01ed CC040000 		.4byte	.LASF41
 765 01f1 0A       		.byte	0xa
 766 01f2 D2       		.byte	0xd2
 767 01f3 BD000000 		.4byte	0xbd
 768 01f7 18       		.byte	0x18
 769 01f8 0A       		.uleb128 0xa
 770 01f9 44050000 		.4byte	.LASF42
 771 01fd 0A       		.byte	0xa
 772 01fe DD       		.byte	0xdd
 773 01ff 1F010000 		.4byte	0x11f
 774 0203 1C       		.byte	0x1c
 775 0204 0A       		.uleb128 0xa
 776 0205 53060000 		.4byte	.LASF43
 777 0209 0A       		.byte	0xa
 778 020a E1       		.byte	0xe1
ARM GAS  C:\Users\IDONNO~1\AppData\Local\Temp\cc96zqnk.s 			page 15


 779 020b 14010000 		.4byte	0x114
 780 020f 1D       		.byte	0x1d
 781 0210 0A       		.uleb128 0xa
 782 0211 110A0000 		.4byte	.LASF44
 783 0215 0A       		.byte	0xa
 784 0216 E6       		.byte	0xe6
 785 0217 2A010000 		.4byte	0x12a
 786 021b 1E       		.byte	0x1e
 787 021c 0A       		.uleb128 0xa
 788 021d A6090000 		.4byte	.LASF45
 789 0221 0A       		.byte	0xa
 790 0222 EC       		.byte	0xec
 791 0223 35010000 		.4byte	0x135
 792 0227 1F       		.byte	0x1f
 793 0228 0A       		.uleb128 0xa
 794 0229 51000000 		.4byte	.LASF46
 795 022d 0A       		.byte	0xa
 796 022e F3       		.byte	0xf3
 797 022f 7E090000 		.4byte	0x97e
 798 0233 20       		.byte	0x20
 799 0234 0B       		.uleb128 0xb
 800 0235 705F7500 		.ascii	"p_u\000"
 801 0239 0A       		.byte	0xa
 802 023a 3101     		.2byte	0x131
 803 023c B9080000 		.4byte	0x8b9
 804 0240 24       		.byte	0x24
 805 0241 0C       		.uleb128 0xc
 806 0242 E8000000 		.4byte	.LASF47
 807 0246 0A       		.byte	0xa
 808 0247 3601     		.2byte	0x136
 809 0249 AE020000 		.4byte	0x2ae
 810 024d 28       		.byte	0x28
 811 024e 0C       		.uleb128 0xc
 812 024f B8000000 		.4byte	.LASF48
 813 0253 0A       		.byte	0xa
 814 0254 3C01     		.2byte	0x13c
 815 0256 D2020000 		.4byte	0x2d2
 816 025a 2C       		.byte	0x2c
 817 025b 0C       		.uleb128 0xc
 818 025c 1F070000 		.4byte	.LASF49
 819 0260 0A       		.byte	0xa
 820 0261 4001     		.2byte	0x140
 821 0263 4B010000 		.4byte	0x14b
 822 0267 34       		.byte	0x34
 823 0268 0C       		.uleb128 0xc
 824 0269 D6090000 		.4byte	.LASF50
 825 026d 0A       		.byte	0xa
 826 026e 4601     		.2byte	0x146
 827 0270 61010000 		.4byte	0x161
 828 0274 38       		.byte	0x38
 829 0275 0C       		.uleb128 0xc
 830 0276 88050000 		.4byte	.LASF51
 831 027a 0A       		.byte	0xa
 832 027b 4D01     		.2byte	0x14d
 833 027d 78090000 		.4byte	0x978
 834 0281 3C       		.byte	0x3c
 835 0282 0C       		.uleb128 0xc
ARM GAS  C:\Users\IDONNO~1\AppData\Local\Temp\cc96zqnk.s 			page 16


 836 0283 A6070000 		.4byte	.LASF52
 837 0287 0A       		.byte	0xa
 838 0288 5101     		.2byte	0x151
 839 028a 40010000 		.4byte	0x140
 840 028e 40       		.byte	0x40
 841 028f 0C       		.uleb128 0xc
 842 0290 80050000 		.4byte	.LASF53
 843 0294 0A       		.byte	0xa
 844 0295 5801     		.2byte	0x158
 845 0297 B4000000 		.4byte	0xb4
 846 029b 44       		.byte	0x44
 847 029c 00       		.byte	0
 848 029d 03       		.uleb128 0x3
 849 029e 56070000 		.4byte	.LASF54
 850 02a2 09       		.byte	0x9
 851 02a3 44       		.byte	0x44
 852 02a4 A8020000 		.4byte	0x2a8
 853 02a8 06       		.uleb128 0x6
 854 02a9 04       		.byte	0x4
 855 02aa 8D010000 		.4byte	0x18d
 856 02ae 03       		.uleb128 0x3
 857 02af D9000000 		.4byte	.LASF55
 858 02b3 09       		.byte	0x9
 859 02b4 49       		.byte	0x49
 860 02b5 B9020000 		.4byte	0x2b9
 861 02b9 09       		.uleb128 0x9
 862 02ba 13000000 		.4byte	.LASF57
 863 02be 04       		.byte	0x4
 864 02bf 0A       		.byte	0xa
 865 02c0 B0       		.byte	0xb0
 866 02c1 D2020000 		.4byte	0x2d2
 867 02c5 0A       		.uleb128 0xa
 868 02c6 7E080000 		.4byte	.LASF35
 869 02ca 0A       		.byte	0xa
 870 02cb B1       		.byte	0xb1
 871 02cc A8020000 		.4byte	0x2a8
 872 02d0 00       		.byte	0
 873 02d1 00       		.byte	0
 874 02d2 03       		.uleb128 0x3
 875 02d3 23000000 		.4byte	.LASF58
 876 02d7 09       		.byte	0x9
 877 02d8 50       		.byte	0x50
 878 02d9 DD020000 		.4byte	0x2dd
 879 02dd 09       		.uleb128 0x9
 880 02de D5050000 		.4byte	.LASF59
 881 02e2 08       		.byte	0x8
 882 02e3 0A       		.byte	0xa
 883 02e4 B7       		.byte	0xb7
 884 02e5 02030000 		.4byte	0x302
 885 02e9 0A       		.uleb128 0xa
 886 02ea 7E080000 		.4byte	.LASF35
 887 02ee 0A       		.byte	0xa
 888 02ef B8       		.byte	0xb8
 889 02f0 A8020000 		.4byte	0x2a8
 890 02f4 00       		.byte	0
 891 02f5 0A       		.uleb128 0xa
 892 02f6 E2080000 		.4byte	.LASF36
ARM GAS  C:\Users\IDONNO~1\AppData\Local\Temp\cc96zqnk.s 			page 17


 893 02fa 0A       		.byte	0xa
 894 02fb B9       		.byte	0xb9
 895 02fc A8020000 		.4byte	0x2a8
 896 0300 04       		.byte	0x4
 897 0301 00       		.byte	0
 898 0302 03       		.uleb128 0x3
 899 0303 10090000 		.4byte	.LASF60
 900 0307 09       		.byte	0x9
 901 0308 57       		.byte	0x57
 902 0309 0D030000 		.4byte	0x30d
 903 030d 0D       		.uleb128 0xd
 904 030e 22010000 		.4byte	.LASF61
 905 0312 1C       		.byte	0x1c
 906 0313 0A       		.byte	0xa
 907 0314 9001     		.2byte	0x190
 908 0316 69030000 		.4byte	0x369
 909 031a 0C       		.uleb128 0xc
 910 031b 02060000 		.4byte	.LASF62
 911 031f 0A       		.byte	0xa
 912 0320 9101     		.2byte	0x191
 913 0322 D2020000 		.4byte	0x2d2
 914 0326 00       		.byte	0
 915 0327 0C       		.uleb128 0xc
 916 0328 F3010000 		.4byte	.LASF63
 917 032c 0A       		.byte	0xa
 918 032d 9201     		.2byte	0x192
 919 032f 40010000 		.4byte	0x140
 920 0333 08       		.byte	0x8
 921 0334 0C       		.uleb128 0xc
 922 0335 5E0A0000 		.4byte	.LASF64
 923 0339 0A       		.byte	0xa
 924 033a 9401     		.2byte	0x194
 925 033c 39070000 		.4byte	0x739
 926 0340 0C       		.byte	0xc
 927 0341 0C       		.uleb128 0xc
 928 0342 FD040000 		.4byte	.LASF65
 929 0346 0A       		.byte	0xa
 930 0347 9701     		.2byte	0x197
 931 0349 A8020000 		.4byte	0x2a8
 932 034d 10       		.byte	0x10
 933 034e 0C       		.uleb128 0xc
 934 034f B0060000 		.4byte	.LASF66
 935 0353 0A       		.byte	0xa
 936 0354 9801     		.2byte	0x198
 937 0356 A8020000 		.4byte	0x2a8
 938 035a 14       		.byte	0x14
 939 035b 0C       		.uleb128 0xc
 940 035c F8070000 		.4byte	.LASF67
 941 0360 0A       		.byte	0xa
 942 0361 9B01     		.2byte	0x19b
 943 0363 A8020000 		.4byte	0x2a8
 944 0367 18       		.byte	0x18
 945 0368 00       		.byte	0
 946 0369 03       		.uleb128 0x3
 947 036a 63010000 		.4byte	.LASF68
 948 036e 09       		.byte	0x9
 949 036f 5C       		.byte	0x5c
ARM GAS  C:\Users\IDONNO~1\AppData\Local\Temp\cc96zqnk.s 			page 18


 950 0370 74030000 		.4byte	0x374
 951 0374 06       		.uleb128 0x6
 952 0375 04       		.byte	0x4
 953 0376 7A030000 		.4byte	0x37a
 954 037a 0E       		.uleb128 0xe
 955 037b 85030000 		.4byte	0x385
 956 037f 0F       		.uleb128 0xf
 957 0380 B4000000 		.4byte	0xb4
 958 0384 00       		.byte	0
 959 0385 03       		.uleb128 0x3
 960 0386 66060000 		.4byte	.LASF69
 961 038a 09       		.byte	0x9
 962 038b 61       		.byte	0x61
 963 038c 90030000 		.4byte	0x390
 964 0390 0D       		.uleb128 0xd
 965 0391 52020000 		.4byte	.LASF70
 966 0395 14       		.byte	0x14
 967 0396 0A       		.byte	0xa
 968 0397 6B01     		.2byte	0x16b
 969 0399 DF030000 		.4byte	0x3df
 970 039d 0C       		.uleb128 0xc
 971 039e E1090000 		.4byte	.LASF71
 972 03a2 0A       		.byte	0xa
 973 03a3 6C01     		.2byte	0x16c
 974 03a5 83090000 		.4byte	0x983
 975 03a9 00       		.byte	0
 976 03aa 0C       		.uleb128 0xc
 977 03ab A10A0000 		.4byte	.LASF72
 978 03af 0A       		.byte	0xa
 979 03b0 6D01     		.2byte	0x16d
 980 03b2 83090000 		.4byte	0x983
 981 03b6 04       		.byte	0x4
 982 03b7 0C       		.uleb128 0xc
 983 03b8 E9040000 		.4byte	.LASF73
 984 03bc 0A       		.byte	0xa
 985 03bd 6E01     		.2byte	0x16e
 986 03bf 82010000 		.4byte	0x182
 987 03c3 08       		.byte	0x8
 988 03c4 0C       		.uleb128 0xc
 989 03c5 990A0000 		.4byte	.LASF74
 990 03c9 0A       		.byte	0xa
 991 03ca 6F01     		.2byte	0x16f
 992 03cc 69030000 		.4byte	0x369
 993 03d0 0C       		.byte	0xc
 994 03d1 0C       		.uleb128 0xc
 995 03d2 FA010000 		.4byte	.LASF75
 996 03d6 0A       		.byte	0xa
 997 03d7 7101     		.2byte	0x171
 998 03d9 B4000000 		.4byte	0xb4
 999 03dd 10       		.byte	0x10
 1000 03de 00       		.byte	0
 1001 03df 03       		.uleb128 0x3
 1002 03e0 6A090000 		.4byte	.LASF76
 1003 03e4 09       		.byte	0x9
 1004 03e5 66       		.byte	0x66
 1005 03e6 EA030000 		.4byte	0x3ea
 1006 03ea 0D       		.uleb128 0xd
ARM GAS  C:\Users\IDONNO~1\AppData\Local\Temp\cc96zqnk.s 			page 19


 1007 03eb 33030000 		.4byte	.LASF77
 1008 03ef 10       		.byte	0x10
 1009 03f0 0A       		.byte	0xa
 1010 03f1 7B01     		.2byte	0x17b
 1011 03f3 2C040000 		.4byte	0x42c
 1012 03f7 0C       		.uleb128 0xc
 1013 03f8 E1090000 		.4byte	.LASF71
 1014 03fc 0A       		.byte	0xa
 1015 03fd 7C01     		.2byte	0x17c
 1016 03ff 83090000 		.4byte	0x983
 1017 0403 00       		.byte	0
 1018 0404 0C       		.uleb128 0xc
 1019 0405 A10A0000 		.4byte	.LASF72
 1020 0409 0A       		.byte	0xa
 1021 040a 7E01     		.2byte	0x17e
 1022 040c 83090000 		.4byte	0x983
 1023 0410 04       		.byte	0x4
 1024 0411 0C       		.uleb128 0xc
 1025 0412 E9040000 		.4byte	.LASF73
 1026 0416 0A       		.byte	0xa
 1027 0417 8001     		.2byte	0x180
 1028 0419 82010000 		.4byte	0x182
 1029 041d 08       		.byte	0x8
 1030 041e 0C       		.uleb128 0xc
 1031 041f AD000000 		.4byte	.LASF78
 1032 0423 0A       		.byte	0xa
 1033 0424 8201     		.2byte	0x182
 1034 0426 7E090000 		.4byte	0x97e
 1035 042a 0C       		.byte	0xc
 1036 042b 00       		.byte	0
 1037 042c 03       		.uleb128 0x3
 1038 042d C0050000 		.4byte	.LASF79
 1039 0431 09       		.byte	0x9
 1040 0432 6B       		.byte	0x6b
 1041 0433 37040000 		.4byte	0x437
 1042 0437 0D       		.uleb128 0xd
 1043 0438 77010000 		.4byte	.LASF80
 1044 043c 04       		.byte	0x4
 1045 043d 0A       		.byte	0xa
 1046 043e A201     		.2byte	0x1a2
 1047 0440 52040000 		.4byte	0x452
 1048 0444 0C       		.uleb128 0xc
 1049 0445 8A090000 		.4byte	.LASF81
 1050 0449 0A       		.byte	0xa
 1051 044a AA01     		.2byte	0x1aa
 1052 044c 89090000 		.4byte	0x989
 1053 0450 00       		.byte	0
 1054 0451 00       		.byte	0
 1055 0452 03       		.uleb128 0x3
 1056 0453 FF090000 		.4byte	.LASF82
 1057 0457 09       		.byte	0x9
 1058 0458 70       		.byte	0x70
 1059 0459 5D040000 		.4byte	0x45d
 1060 045d 10       		.uleb128 0x10
 1061 045e 6D080000 		.4byte	.LASF83
 1062 0462 5802     		.2byte	0x258
 1063 0464 0A       		.byte	0xa
ARM GAS  C:\Users\IDONNO~1\AppData\Local\Temp\cc96zqnk.s 			page 20


 1064 0465 C201     		.2byte	0x1c2
 1065 0467 B9040000 		.4byte	0x4b9
 1066 046b 0C       		.uleb128 0xc
 1067 046c 94080000 		.4byte	.LASF84
 1068 0470 0A       		.byte	0xa
 1069 0471 C601     		.2byte	0x1c6
 1070 0473 02030000 		.4byte	0x302
 1071 0477 00       		.byte	0
 1072 0478 0C       		.uleb128 0xc
 1073 0479 1B010000 		.4byte	.LASF85
 1074 047d 0A       		.byte	0xa
 1075 047e CA01     		.2byte	0x1ca
 1076 0480 DF030000 		.4byte	0x3df
 1077 0484 1C       		.byte	0x1c
 1078 0485 0B       		.uleb128 0xb
 1079 0486 64626700 		.ascii	"dbg\000"
 1080 048a 0A       		.byte	0xa
 1081 048b CE01     		.2byte	0x1ce
 1082 048d 2C040000 		.4byte	0x42c
 1083 0491 2C       		.byte	0x2c
 1084 0492 0C       		.uleb128 0xc
 1085 0493 3A070000 		.4byte	.LASF86
 1086 0497 0A       		.byte	0xa
 1087 0498 D201     		.2byte	0x1d2
 1088 049a 8D010000 		.4byte	0x18d
 1089 049e 30       		.byte	0x30
 1090 049f 0B       		.uleb128 0xb
 1091 04a0 746D00   		.ascii	"tm\000"
 1092 04a3 0A       		.byte	0xa
 1093 04a4 D701     		.2byte	0x1d7
 1094 04a6 AE080000 		.4byte	0x8ae
 1095 04aa 78       		.byte	0x78
 1096 04ab 0C       		.uleb128 0xc
 1097 04ac 30010000 		.4byte	.LASF87
 1098 04b0 0A       		.byte	0xa
 1099 04b1 E301     		.2byte	0x1e3
 1100 04b3 8E090000 		.4byte	0x98e
 1101 04b7 80       		.byte	0x80
 1102 04b8 00       		.byte	0
 1103 04b9 11       		.uleb128 0x11
 1104 04ba E9000000 		.4byte	0xe9
 1105 04be C9040000 		.4byte	0x4c9
 1106 04c2 12       		.uleb128 0x12
 1107 04c3 AD000000 		.4byte	0xad
 1108 04c7 01       		.byte	0x1
 1109 04c8 00       		.byte	0
 1110 04c9 11       		.uleb128 0x11
 1111 04ca E9000000 		.4byte	0xe9
 1112 04ce D9040000 		.4byte	0x4d9
 1113 04d2 12       		.uleb128 0x12
 1114 04d3 AD000000 		.4byte	0xad
 1115 04d7 07       		.byte	0x7
 1116 04d8 00       		.byte	0
 1117 04d9 13       		.uleb128 0x13
 1118 04da 10       		.byte	0x10
 1119 04db 0B       		.byte	0xb
 1120 04dc E9       		.byte	0xe9
ARM GAS  C:\Users\IDONNO~1\AppData\Local\Temp\cc96zqnk.s 			page 21


 1121 04dd 12050000 		.4byte	0x512
 1122 04e1 14       		.uleb128 0x14
 1123 04e2 54495200 		.ascii	"TIR\000"
 1124 04e6 0B       		.byte	0xb
 1125 04e7 EB       		.byte	0xeb
 1126 04e8 04010000 		.4byte	0x104
 1127 04ec 00       		.byte	0
 1128 04ed 0A       		.uleb128 0xa
 1129 04ee 00070000 		.4byte	.LASF88
 1130 04f2 0B       		.byte	0xb
 1131 04f3 EC       		.byte	0xec
 1132 04f4 04010000 		.4byte	0x104
 1133 04f8 04       		.byte	0x4
 1134 04f9 0A       		.uleb128 0xa
 1135 04fa B6040000 		.4byte	.LASF89
 1136 04fe 0B       		.byte	0xb
 1137 04ff ED       		.byte	0xed
 1138 0500 04010000 		.4byte	0x104
 1139 0504 08       		.byte	0x8
 1140 0505 0A       		.uleb128 0xa
 1141 0506 2D090000 		.4byte	.LASF90
 1142 050a 0B       		.byte	0xb
 1143 050b EE       		.byte	0xee
 1144 050c 04010000 		.4byte	0x104
 1145 0510 0C       		.byte	0xc
 1146 0511 00       		.byte	0
 1147 0512 03       		.uleb128 0x3
 1148 0513 6A050000 		.4byte	.LASF91
 1149 0517 0B       		.byte	0xb
 1150 0518 EF       		.byte	0xef
 1151 0519 D9040000 		.4byte	0x4d9
 1152 051d 13       		.uleb128 0x13
 1153 051e 10       		.byte	0x10
 1154 051f 0B       		.byte	0xb
 1155 0520 F5       		.byte	0xf5
 1156 0521 56050000 		.4byte	0x556
 1157 0525 14       		.uleb128 0x14
 1158 0526 52495200 		.ascii	"RIR\000"
 1159 052a 0B       		.byte	0xb
 1160 052b F7       		.byte	0xf7
 1161 052c 04010000 		.4byte	0x104
 1162 0530 00       		.byte	0
 1163 0531 0A       		.uleb128 0xa
 1164 0532 1A050000 		.4byte	.LASF92
 1165 0536 0B       		.byte	0xb
 1166 0537 F8       		.byte	0xf8
 1167 0538 04010000 		.4byte	0x104
 1168 053c 04       		.byte	0x4
 1169 053d 0A       		.uleb128 0xa
 1170 053e 460A0000 		.4byte	.LASF93
 1171 0542 0B       		.byte	0xb
 1172 0543 F9       		.byte	0xf9
 1173 0544 04010000 		.4byte	0x104
 1174 0548 08       		.byte	0x8
 1175 0549 0A       		.uleb128 0xa
 1176 054a 8D070000 		.4byte	.LASF94
 1177 054e 0B       		.byte	0xb
ARM GAS  C:\Users\IDONNO~1\AppData\Local\Temp\cc96zqnk.s 			page 22


 1178 054f FA       		.byte	0xfa
 1179 0550 04010000 		.4byte	0x104
 1180 0554 0C       		.byte	0xc
 1181 0555 00       		.byte	0
 1182 0556 03       		.uleb128 0x3
 1183 0557 07020000 		.4byte	.LASF95
 1184 055b 0B       		.byte	0xb
 1185 055c FB       		.byte	0xfb
 1186 055d 1D050000 		.4byte	0x51d
 1187 0561 15       		.uleb128 0x15
 1188 0562 08       		.byte	0x8
 1189 0563 0B       		.byte	0xb
 1190 0564 0101     		.2byte	0x101
 1191 0566 85050000 		.4byte	0x585
 1192 056a 0B       		.uleb128 0xb
 1193 056b 46523100 		.ascii	"FR1\000"
 1194 056f 0B       		.byte	0xb
 1195 0570 0301     		.2byte	0x103
 1196 0572 04010000 		.4byte	0x104
 1197 0576 00       		.byte	0
 1198 0577 0B       		.uleb128 0xb
 1199 0578 46523200 		.ascii	"FR2\000"
 1200 057c 0B       		.byte	0xb
 1201 057d 0401     		.2byte	0x104
 1202 057f 04010000 		.4byte	0x104
 1203 0583 04       		.byte	0x4
 1204 0584 00       		.byte	0
 1205 0585 16       		.uleb128 0x16
 1206 0586 1F0A0000 		.4byte	.LASF96
 1207 058a 0B       		.byte	0xb
 1208 058b 0501     		.2byte	0x105
 1209 058d 61050000 		.4byte	0x561
 1210 0591 17       		.uleb128 0x17
 1211 0592 2003     		.2byte	0x320
 1212 0594 0B       		.byte	0xb
 1213 0595 0B01     		.2byte	0x10b
 1214 0597 C7060000 		.4byte	0x6c7
 1215 059b 0B       		.uleb128 0xb
 1216 059c 4D435200 		.ascii	"MCR\000"
 1217 05a0 0B       		.byte	0xb
 1218 05a1 0D01     		.2byte	0x10d
 1219 05a3 04010000 		.4byte	0x104
 1220 05a7 00       		.byte	0
 1221 05a8 0B       		.uleb128 0xb
 1222 05a9 4D535200 		.ascii	"MSR\000"
 1223 05ad 0B       		.byte	0xb
 1224 05ae 0E01     		.2byte	0x10e
 1225 05b0 04010000 		.4byte	0x104
 1226 05b4 04       		.byte	0x4
 1227 05b5 0B       		.uleb128 0xb
 1228 05b6 54535200 		.ascii	"TSR\000"
 1229 05ba 0B       		.byte	0xb
 1230 05bb 0F01     		.2byte	0x10f
 1231 05bd 04010000 		.4byte	0x104
 1232 05c1 08       		.byte	0x8
 1233 05c2 0C       		.uleb128 0xc
 1234 05c3 C7090000 		.4byte	.LASF97
ARM GAS  C:\Users\IDONNO~1\AppData\Local\Temp\cc96zqnk.s 			page 23


 1235 05c7 0B       		.byte	0xb
 1236 05c8 1001     		.2byte	0x110
 1237 05ca 04010000 		.4byte	0x104
 1238 05ce 0C       		.byte	0xc
 1239 05cf 0C       		.uleb128 0xc
 1240 05d0 940A0000 		.4byte	.LASF98
 1241 05d4 0B       		.byte	0xb
 1242 05d5 1101     		.2byte	0x111
 1243 05d7 04010000 		.4byte	0x104
 1244 05db 10       		.byte	0x10
 1245 05dc 0B       		.uleb128 0xb
 1246 05dd 49455200 		.ascii	"IER\000"
 1247 05e1 0B       		.byte	0xb
 1248 05e2 1201     		.2byte	0x112
 1249 05e4 04010000 		.4byte	0x104
 1250 05e8 14       		.byte	0x14
 1251 05e9 0B       		.uleb128 0xb
 1252 05ea 45535200 		.ascii	"ESR\000"
 1253 05ee 0B       		.byte	0xb
 1254 05ef 1301     		.2byte	0x113
 1255 05f1 04010000 		.4byte	0x104
 1256 05f5 18       		.byte	0x18
 1257 05f6 0B       		.uleb128 0xb
 1258 05f7 42545200 		.ascii	"BTR\000"
 1259 05fb 0B       		.byte	0xb
 1260 05fc 1401     		.2byte	0x114
 1261 05fe 04010000 		.4byte	0x104
 1262 0602 1C       		.byte	0x1c
 1263 0603 0C       		.uleb128 0xc
 1264 0604 48020000 		.4byte	.LASF99
 1265 0608 0B       		.byte	0xb
 1266 0609 1501     		.2byte	0x115
 1267 060b C7060000 		.4byte	0x6c7
 1268 060f 20       		.byte	0x20
 1269 0610 18       		.uleb128 0x18
 1270 0611 09010000 		.4byte	.LASF100
 1271 0615 0B       		.byte	0xb
 1272 0616 1601     		.2byte	0x116
 1273 0618 D7060000 		.4byte	0x6d7
 1274 061c 8001     		.2byte	0x180
 1275 061e 18       		.uleb128 0x18
 1276 061f 9C050000 		.4byte	.LASF101
 1277 0623 0B       		.byte	0xb
 1278 0624 1701     		.2byte	0x117
 1279 0626 E7060000 		.4byte	0x6e7
 1280 062a B001     		.2byte	0x1b0
 1281 062c 18       		.uleb128 0x18
 1282 062d B1070000 		.4byte	.LASF102
 1283 0631 0B       		.byte	0xb
 1284 0632 1801     		.2byte	0x118
 1285 0634 F7060000 		.4byte	0x6f7
 1286 0638 D001     		.2byte	0x1d0
 1287 063a 19       		.uleb128 0x19
 1288 063b 464D5200 		.ascii	"FMR\000"
 1289 063f 0B       		.byte	0xb
 1290 0640 1901     		.2byte	0x119
 1291 0642 04010000 		.4byte	0x104
ARM GAS  C:\Users\IDONNO~1\AppData\Local\Temp\cc96zqnk.s 			page 24


 1292 0646 0002     		.2byte	0x200
 1293 0648 18       		.uleb128 0x18
 1294 0649 0B090000 		.4byte	.LASF103
 1295 064d 0B       		.byte	0xb
 1296 064e 1A01     		.2byte	0x11a
 1297 0650 04010000 		.4byte	0x104
 1298 0654 0402     		.2byte	0x204
 1299 0656 18       		.uleb128 0x18
 1300 0657 BB070000 		.4byte	.LASF104
 1301 065b 0B       		.byte	0xb
 1302 065c 1B01     		.2byte	0x11b
 1303 065e E9000000 		.4byte	0xe9
 1304 0662 0802     		.2byte	0x208
 1305 0664 18       		.uleb128 0x18
 1306 0665 6C010000 		.4byte	.LASF105
 1307 0669 0B       		.byte	0xb
 1308 066a 1C01     		.2byte	0x11c
 1309 066c 04010000 		.4byte	0x104
 1310 0670 0C02     		.2byte	0x20c
 1311 0672 18       		.uleb128 0x18
 1312 0673 C5070000 		.4byte	.LASF106
 1313 0677 0B       		.byte	0xb
 1314 0678 1D01     		.2byte	0x11d
 1315 067a E9000000 		.4byte	0xe9
 1316 067e 1002     		.2byte	0x210
 1317 0680 18       		.uleb128 0x18
 1318 0681 3A000000 		.4byte	.LASF107
 1319 0685 0B       		.byte	0xb
 1320 0686 1E01     		.2byte	0x11e
 1321 0688 04010000 		.4byte	0x104
 1322 068c 1402     		.2byte	0x214
 1323 068e 18       		.uleb128 0x18
 1324 068f CF070000 		.4byte	.LASF108
 1325 0693 0B       		.byte	0xb
 1326 0694 1F01     		.2byte	0x11f
 1327 0696 E9000000 		.4byte	0xe9
 1328 069a 1802     		.2byte	0x218
 1329 069c 18       		.uleb128 0x18
 1330 069d 5D000000 		.4byte	.LASF109
 1331 06a1 0B       		.byte	0xb
 1332 06a2 2001     		.2byte	0x120
 1333 06a4 04010000 		.4byte	0x104
 1334 06a8 1C02     		.2byte	0x21c
 1335 06aa 18       		.uleb128 0x18
 1336 06ab D9070000 		.4byte	.LASF110
 1337 06af 0B       		.byte	0xb
 1338 06b0 2101     		.2byte	0x121
 1339 06b2 C9040000 		.4byte	0x4c9
 1340 06b6 2002     		.2byte	0x220
 1341 06b8 18       		.uleb128 0x18
 1342 06b9 91010000 		.4byte	.LASF111
 1343 06bd 0B       		.byte	0xb
 1344 06be 2201     		.2byte	0x122
 1345 06c0 07070000 		.4byte	0x707
 1346 06c4 4002     		.2byte	0x240
 1347 06c6 00       		.byte	0
 1348 06c7 11       		.uleb128 0x11
ARM GAS  C:\Users\IDONNO~1\AppData\Local\Temp\cc96zqnk.s 			page 25


 1349 06c8 E9000000 		.4byte	0xe9
 1350 06cc D7060000 		.4byte	0x6d7
 1351 06d0 12       		.uleb128 0x12
 1352 06d1 AD000000 		.4byte	0xad
 1353 06d5 57       		.byte	0x57
 1354 06d6 00       		.byte	0
 1355 06d7 11       		.uleb128 0x11
 1356 06d8 12050000 		.4byte	0x512
 1357 06dc E7060000 		.4byte	0x6e7
 1358 06e0 12       		.uleb128 0x12
 1359 06e1 AD000000 		.4byte	0xad
 1360 06e5 02       		.byte	0x2
 1361 06e6 00       		.byte	0
 1362 06e7 11       		.uleb128 0x11
 1363 06e8 56050000 		.4byte	0x556
 1364 06ec F7060000 		.4byte	0x6f7
 1365 06f0 12       		.uleb128 0x12
 1366 06f1 AD000000 		.4byte	0xad
 1367 06f5 01       		.byte	0x1
 1368 06f6 00       		.byte	0
 1369 06f7 11       		.uleb128 0x11
 1370 06f8 E9000000 		.4byte	0xe9
 1371 06fc 07070000 		.4byte	0x707
 1372 0700 12       		.uleb128 0x12
 1373 0701 AD000000 		.4byte	0xad
 1374 0705 0B       		.byte	0xb
 1375 0706 00       		.byte	0
 1376 0707 11       		.uleb128 0x11
 1377 0708 85050000 		.4byte	0x585
 1378 070c 17070000 		.4byte	0x717
 1379 0710 12       		.uleb128 0x12
 1380 0711 AD000000 		.4byte	0xad
 1381 0715 1B       		.byte	0x1b
 1382 0716 00       		.byte	0
 1383 0717 16       		.uleb128 0x16
 1384 0718 D7060000 		.4byte	.LASF112
 1385 071c 0B       		.byte	0xb
 1386 071d 2301     		.2byte	0x123
 1387 071f 91050000 		.4byte	0x591
 1388 0723 03       		.uleb128 0x3
 1389 0724 B7050000 		.4byte	.LASF113
 1390 0728 0C       		.byte	0xc
 1391 0729 65       		.byte	0x65
 1392 072a B4000000 		.4byte	0xb4
 1393 072e 03       		.uleb128 0x3
 1394 072f B0090000 		.4byte	.LASF114
 1395 0733 0C       		.byte	0xc
 1396 0734 6D       		.byte	0x6d
 1397 0735 F4000000 		.4byte	0xf4
 1398 0739 09       		.uleb128 0x9
 1399 073a 38060000 		.4byte	.LASF115
 1400 073e 04       		.byte	0x4
 1401 073f 0C       		.byte	0xc
 1402 0740 89       		.byte	0x89
 1403 0741 52070000 		.4byte	0x752
 1404 0745 14       		.uleb128 0x14
 1405 0746 72313300 		.ascii	"r13\000"
ARM GAS  C:\Users\IDONNO~1\AppData\Local\Temp\cc96zqnk.s 			page 26


 1406 074a 0C       		.byte	0xc
 1407 074b 8A       		.byte	0x8a
 1408 074c 93080000 		.4byte	0x893
 1409 0750 00       		.byte	0
 1410 0751 00       		.byte	0
 1411 0752 09       		.uleb128 0x9
 1412 0753 32080000 		.4byte	.LASF116
 1413 0757 64       		.byte	0x64
 1414 0758 0D       		.byte	0xd
 1415 0759 F4       		.byte	0xf4
 1416 075a 93080000 		.4byte	0x893
 1417 075e 14       		.uleb128 0x14
 1418 075f 73313600 		.ascii	"s16\000"
 1419 0763 0D       		.byte	0xd
 1420 0764 F6       		.byte	0xf6
 1421 0765 23070000 		.4byte	0x723
 1422 0769 00       		.byte	0
 1423 076a 14       		.uleb128 0x14
 1424 076b 73313700 		.ascii	"s17\000"
 1425 076f 0D       		.byte	0xd
 1426 0770 F7       		.byte	0xf7
 1427 0771 23070000 		.4byte	0x723
 1428 0775 04       		.byte	0x4
 1429 0776 14       		.uleb128 0x14
 1430 0777 73313800 		.ascii	"s18\000"
 1431 077b 0D       		.byte	0xd
 1432 077c F8       		.byte	0xf8
 1433 077d 23070000 		.4byte	0x723
 1434 0781 08       		.byte	0x8
 1435 0782 14       		.uleb128 0x14
 1436 0783 73313900 		.ascii	"s19\000"
 1437 0787 0D       		.byte	0xd
 1438 0788 F9       		.byte	0xf9
 1439 0789 23070000 		.4byte	0x723
 1440 078d 0C       		.byte	0xc
 1441 078e 14       		.uleb128 0x14
 1442 078f 73323000 		.ascii	"s20\000"
 1443 0793 0D       		.byte	0xd
 1444 0794 FA       		.byte	0xfa
 1445 0795 23070000 		.4byte	0x723
 1446 0799 10       		.byte	0x10
 1447 079a 14       		.uleb128 0x14
 1448 079b 73323100 		.ascii	"s21\000"
 1449 079f 0D       		.byte	0xd
 1450 07a0 FB       		.byte	0xfb
 1451 07a1 23070000 		.4byte	0x723
 1452 07a5 14       		.byte	0x14
 1453 07a6 14       		.uleb128 0x14
 1454 07a7 73323200 		.ascii	"s22\000"
 1455 07ab 0D       		.byte	0xd
 1456 07ac FC       		.byte	0xfc
 1457 07ad 23070000 		.4byte	0x723
 1458 07b1 18       		.byte	0x18
 1459 07b2 14       		.uleb128 0x14
 1460 07b3 73323300 		.ascii	"s23\000"
 1461 07b7 0D       		.byte	0xd
 1462 07b8 FD       		.byte	0xfd
ARM GAS  C:\Users\IDONNO~1\AppData\Local\Temp\cc96zqnk.s 			page 27


 1463 07b9 23070000 		.4byte	0x723
 1464 07bd 1C       		.byte	0x1c
 1465 07be 14       		.uleb128 0x14
 1466 07bf 73323400 		.ascii	"s24\000"
 1467 07c3 0D       		.byte	0xd
 1468 07c4 FE       		.byte	0xfe
 1469 07c5 23070000 		.4byte	0x723
 1470 07c9 20       		.byte	0x20
 1471 07ca 14       		.uleb128 0x14
 1472 07cb 73323500 		.ascii	"s25\000"
 1473 07cf 0D       		.byte	0xd
 1474 07d0 FF       		.byte	0xff
 1475 07d1 23070000 		.4byte	0x723
 1476 07d5 24       		.byte	0x24
 1477 07d6 0B       		.uleb128 0xb
 1478 07d7 73323600 		.ascii	"s26\000"
 1479 07db 0D       		.byte	0xd
 1480 07dc 0001     		.2byte	0x100
 1481 07de 23070000 		.4byte	0x723
 1482 07e2 28       		.byte	0x28
 1483 07e3 0B       		.uleb128 0xb
 1484 07e4 73323700 		.ascii	"s27\000"
 1485 07e8 0D       		.byte	0xd
 1486 07e9 0101     		.2byte	0x101
 1487 07eb 23070000 		.4byte	0x723
 1488 07ef 2C       		.byte	0x2c
 1489 07f0 0B       		.uleb128 0xb
 1490 07f1 73323800 		.ascii	"s28\000"
 1491 07f5 0D       		.byte	0xd
 1492 07f6 0201     		.2byte	0x102
 1493 07f8 23070000 		.4byte	0x723
 1494 07fc 30       		.byte	0x30
 1495 07fd 0B       		.uleb128 0xb
 1496 07fe 73323900 		.ascii	"s29\000"
 1497 0802 0D       		.byte	0xd
 1498 0803 0301     		.2byte	0x103
 1499 0805 23070000 		.4byte	0x723
 1500 0809 34       		.byte	0x34
 1501 080a 0B       		.uleb128 0xb
 1502 080b 73333000 		.ascii	"s30\000"
 1503 080f 0D       		.byte	0xd
 1504 0810 0401     		.2byte	0x104
 1505 0812 23070000 		.4byte	0x723
 1506 0816 38       		.byte	0x38
 1507 0817 0B       		.uleb128 0xb
 1508 0818 73333100 		.ascii	"s31\000"
 1509 081c 0D       		.byte	0xd
 1510 081d 0501     		.2byte	0x105
 1511 081f 23070000 		.4byte	0x723
 1512 0823 3C       		.byte	0x3c
 1513 0824 0B       		.uleb128 0xb
 1514 0825 723400   		.ascii	"r4\000"
 1515 0828 0D       		.byte	0xd
 1516 0829 0701     		.2byte	0x107
 1517 082b 23070000 		.4byte	0x723
 1518 082f 40       		.byte	0x40
 1519 0830 0B       		.uleb128 0xb
ARM GAS  C:\Users\IDONNO~1\AppData\Local\Temp\cc96zqnk.s 			page 28


 1520 0831 723500   		.ascii	"r5\000"
 1521 0834 0D       		.byte	0xd
 1522 0835 0801     		.2byte	0x108
 1523 0837 23070000 		.4byte	0x723
 1524 083b 44       		.byte	0x44
 1525 083c 0B       		.uleb128 0xb
 1526 083d 723600   		.ascii	"r6\000"
 1527 0840 0D       		.byte	0xd
 1528 0841 0901     		.2byte	0x109
 1529 0843 23070000 		.4byte	0x723
 1530 0847 48       		.byte	0x48
 1531 0848 0B       		.uleb128 0xb
 1532 0849 723700   		.ascii	"r7\000"
 1533 084c 0D       		.byte	0xd
 1534 084d 0A01     		.2byte	0x10a
 1535 084f 23070000 		.4byte	0x723
 1536 0853 4C       		.byte	0x4c
 1537 0854 0B       		.uleb128 0xb
 1538 0855 723800   		.ascii	"r8\000"
 1539 0858 0D       		.byte	0xd
 1540 0859 0B01     		.2byte	0x10b
 1541 085b 23070000 		.4byte	0x723
 1542 085f 50       		.byte	0x50
 1543 0860 0B       		.uleb128 0xb
 1544 0861 723900   		.ascii	"r9\000"
 1545 0864 0D       		.byte	0xd
 1546 0865 0C01     		.2byte	0x10c
 1547 0867 23070000 		.4byte	0x723
 1548 086b 54       		.byte	0x54
 1549 086c 0B       		.uleb128 0xb
 1550 086d 72313000 		.ascii	"r10\000"
 1551 0871 0D       		.byte	0xd
 1552 0872 0D01     		.2byte	0x10d
 1553 0874 23070000 		.4byte	0x723
 1554 0878 58       		.byte	0x58
 1555 0879 0B       		.uleb128 0xb
 1556 087a 72313100 		.ascii	"r11\000"
 1557 087e 0D       		.byte	0xd
 1558 087f 0E01     		.2byte	0x10e
 1559 0881 23070000 		.4byte	0x723
 1560 0885 5C       		.byte	0x5c
 1561 0886 0B       		.uleb128 0xb
 1562 0887 6C7200   		.ascii	"lr\000"
 1563 088a 0D       		.byte	0xd
 1564 088b 0F01     		.2byte	0x10f
 1565 088d 23070000 		.4byte	0x723
 1566 0891 60       		.byte	0x60
 1567 0892 00       		.byte	0
 1568 0893 06       		.uleb128 0x6
 1569 0894 04       		.byte	0x4
 1570 0895 52070000 		.4byte	0x752
 1571 0899 13       		.uleb128 0x13
 1572 089a 04       		.byte	0x4
 1573 089b 0E       		.byte	0xe
 1574 089c 38       		.byte	0x38
 1575 089d AE080000 		.4byte	0x8ae
 1576 08a1 0A       		.uleb128 0xa
ARM GAS  C:\Users\IDONNO~1\AppData\Local\Temp\cc96zqnk.s 			page 29


 1577 08a2 6B030000 		.4byte	.LASF117
 1578 08a6 0E       		.byte	0xe
 1579 08a7 3C       		.byte	0x3c
 1580 08a8 09010000 		.4byte	0x109
 1581 08ac 00       		.byte	0
 1582 08ad 00       		.byte	0
 1583 08ae 03       		.uleb128 0x3
 1584 08af 40000000 		.4byte	.LASF118
 1585 08b3 0E       		.byte	0xe
 1586 08b4 3D       		.byte	0x3d
 1587 08b5 99080000 		.4byte	0x899
 1588 08b9 1A       		.uleb128 0x1a
 1589 08ba 04       		.byte	0x4
 1590 08bb 0A       		.byte	0xa
 1591 08bc FA       		.byte	0xfa
 1592 08bd 16090000 		.4byte	0x916
 1593 08c1 1B       		.uleb128 0x1b
 1594 08c2 64030000 		.4byte	.LASF119
 1595 08c6 0A       		.byte	0xa
 1596 08c7 0101     		.2byte	0x101
 1597 08c9 4B010000 		.4byte	0x14b
 1598 08cd 1B       		.uleb128 0x1b
 1599 08ce D40A0000 		.4byte	.LASF120
 1600 08d2 0A       		.byte	0xa
 1601 08d3 0801     		.2byte	0x108
 1602 08d5 4B010000 		.4byte	0x14b
 1603 08d9 1B       		.uleb128 0x1b
 1604 08da 14010000 		.4byte	.LASF121
 1605 08de 0A       		.byte	0xa
 1606 08df 0F01     		.2byte	0x10f
 1607 08e1 B4000000 		.4byte	0xb4
 1608 08e5 1B       		.uleb128 0x1b
 1609 08e6 0B0A0000 		.4byte	.LASF122
 1610 08ea 0A       		.byte	0xa
 1611 08eb 1601     		.2byte	0x116
 1612 08ed 16090000 		.4byte	0x916
 1613 08f1 1B       		.uleb128 0x1b
 1614 08f2 32090000 		.4byte	.LASF123
 1615 08f6 0A       		.byte	0xa
 1616 08f7 1E01     		.2byte	0x11e
 1617 08f9 41090000 		.4byte	0x941
 1618 08fd 1B       		.uleb128 0x1b
 1619 08fe 33000000 		.4byte	.LASF124
 1620 0902 0A       		.byte	0xa
 1621 0903 2701     		.2byte	0x127
 1622 0905 78090000 		.4byte	0x978
 1623 0909 1B       		.uleb128 0x1b
 1624 090a 3F010000 		.4byte	.LASF125
 1625 090e 0A       		.byte	0xa
 1626 090f 2F01     		.2byte	0x12f
 1627 0911 61010000 		.4byte	0x161
 1628 0915 00       		.byte	0
 1629 0916 06       		.uleb128 0x6
 1630 0917 04       		.byte	0x4
 1631 0918 9D020000 		.4byte	0x29d
 1632 091c 09       		.uleb128 0x9
 1633 091d 25020000 		.4byte	.LASF126
ARM GAS  C:\Users\IDONNO~1\AppData\Local\Temp\cc96zqnk.s 			page 30


 1634 0921 0C       		.byte	0xc
 1635 0922 0F       		.byte	0xf
 1636 0923 34       		.byte	0x34
 1637 0924 41090000 		.4byte	0x941
 1638 0928 0A       		.uleb128 0xa
 1639 0929 A5000000 		.4byte	.LASF127
 1640 092d 0F       		.byte	0xf
 1641 092e 35       		.byte	0x35
 1642 092f D2020000 		.4byte	0x2d2
 1643 0933 00       		.byte	0
 1644 0934 0A       		.uleb128 0xa
 1645 0935 71010000 		.4byte	.LASF128
 1646 0939 0F       		.byte	0xf
 1647 093a 37       		.byte	0x37
 1648 093b 77010000 		.4byte	0x177
 1649 093f 08       		.byte	0x8
 1650 0940 00       		.byte	0
 1651 0941 06       		.uleb128 0x6
 1652 0942 04       		.byte	0x4
 1653 0943 1C090000 		.4byte	0x91c
 1654 0947 09       		.uleb128 0x9
 1655 0948 A4040000 		.4byte	.LASF129
 1656 094c 10       		.byte	0x10
 1657 094d 10       		.byte	0x10
 1658 094e 39       		.byte	0x39
 1659 094f 78090000 		.4byte	0x978
 1660 0953 0A       		.uleb128 0xa
 1661 0954 21080000 		.4byte	.LASF130
 1662 0958 10       		.byte	0x10
 1663 0959 3A       		.byte	0x3a
 1664 095a D2020000 		.4byte	0x2d2
 1665 095e 00       		.byte	0
 1666 095f 0A       		.uleb128 0xa
 1667 0960 9C040000 		.4byte	.LASF131
 1668 0964 10       		.byte	0x10
 1669 0965 3C       		.byte	0x3c
 1670 0966 A8020000 		.4byte	0x2a8
 1671 096a 08       		.byte	0x8
 1672 096b 0A       		.uleb128 0xa
 1673 096c 180A0000 		.4byte	.LASF132
 1674 0970 10       		.byte	0x10
 1675 0971 3E       		.byte	0x3e
 1676 0972 A9090000 		.4byte	0x9a9
 1677 0976 0C       		.byte	0xc
 1678 0977 00       		.byte	0
 1679 0978 06       		.uleb128 0x6
 1680 0979 04       		.byte	0x4
 1681 097a 47090000 		.4byte	0x947
 1682 097e 08       		.uleb128 0x8
 1683 097f 82010000 		.4byte	0x182
 1684 0983 06       		.uleb128 0x6
 1685 0984 04       		.byte	0x4
 1686 0985 85030000 		.4byte	0x385
 1687 0989 08       		.uleb128 0x8
 1688 098a BD000000 		.4byte	0xbd
 1689 098e 11       		.uleb128 0x11
 1690 098f 2E070000 		.4byte	0x72e
ARM GAS  C:\Users\IDONNO~1\AppData\Local\Temp\cc96zqnk.s 			page 31


 1691 0993 9E090000 		.4byte	0x99e
 1692 0997 12       		.uleb128 0x12
 1693 0998 AD000000 		.4byte	0xad
 1694 099c 3A       		.byte	0x3a
 1695 099d 00       		.byte	0
 1696 099e 03       		.uleb128 0x3
 1697 099f 49090000 		.4byte	.LASF133
 1698 09a3 10       		.byte	0x10
 1699 09a4 34       		.byte	0x34
 1700 09a5 47090000 		.4byte	0x947
 1701 09a9 06       		.uleb128 0x6
 1702 09aa 04       		.byte	0x4
 1703 09ab 9E090000 		.4byte	0x99e
 1704 09af 03       		.uleb128 0x3
 1705 09b0 FA080000 		.4byte	.LASF134
 1706 09b4 03       		.byte	0x3
 1707 09b5 34       		.byte	0x34
 1708 09b6 BA090000 		.4byte	0x9ba
 1709 09ba 09       		.uleb128 0x9
 1710 09bb F3050000 		.4byte	.LASF135
 1711 09bf 14       		.byte	0x14
 1712 09c0 03       		.byte	0x3
 1713 09c1 39       		.byte	0x39
 1714 09c2 030A0000 		.4byte	0xa03
 1715 09c6 0A       		.uleb128 0xa
 1716 09c7 17070000 		.4byte	.LASF136
 1717 09cb 03       		.byte	0x3
 1718 09cc 3A       		.byte	0x3a
 1719 09cd 030A0000 		.4byte	0xa03
 1720 09d1 00       		.byte	0
 1721 09d2 0A       		.uleb128 0xa
 1722 09d3 B1080000 		.4byte	.LASF137
 1723 09d7 03       		.byte	0x3
 1724 09d8 3D       		.byte	0x3d
 1725 09d9 A8020000 		.4byte	0x2a8
 1726 09dd 04       		.byte	0x4
 1727 09de 0A       		.uleb128 0xa
 1728 09df 80090000 		.4byte	.LASF138
 1729 09e3 03       		.byte	0x3
 1730 09e4 3F       		.byte	0x3f
 1731 09e5 61010000 		.4byte	0x161
 1732 09e9 08       		.byte	0x8
 1733 09ea 0A       		.uleb128 0xa
 1734 09eb CB0A0000 		.4byte	.LASF139
 1735 09ef 03       		.byte	0x3
 1736 09f0 41       		.byte	0x41
 1737 09f1 6C010000 		.4byte	0x16c
 1738 09f5 0C       		.byte	0xc
 1739 09f6 0A       		.uleb128 0xa
 1740 09f7 53030000 		.4byte	.LASF140
 1741 09fb 03       		.byte	0x3
 1742 09fc 43       		.byte	0x43
 1743 09fd 6C010000 		.4byte	0x16c
 1744 0a01 10       		.byte	0x10
 1745 0a02 00       		.byte	0
 1746 0a03 06       		.uleb128 0x6
 1747 0a04 04       		.byte	0x4
ARM GAS  C:\Users\IDONNO~1\AppData\Local\Temp\cc96zqnk.s 			page 32


 1748 0a05 AF090000 		.4byte	0x9af
 1749 0a09 09       		.uleb128 0x9
 1750 0a0a 87000000 		.4byte	.LASF141
 1751 0a0e 04       		.byte	0x4
 1752 0a0f 03       		.byte	0x3
 1753 0a10 4A       		.byte	0x4a
 1754 0a11 220A0000 		.4byte	0xa22
 1755 0a15 0A       		.uleb128 0xa
 1756 0a16 63020000 		.4byte	.LASF142
 1757 0a1a 03       		.byte	0x3
 1758 0a1b 4B       		.byte	0x4b
 1759 0a1c 030A0000 		.4byte	0xa03
 1760 0a20 00       		.byte	0
 1761 0a21 00       		.byte	0
 1762 0a22 03       		.uleb128 0x3
 1763 0a23 E8020000 		.4byte	.LASF143
 1764 0a27 03       		.byte	0x3
 1765 0a28 4E       		.byte	0x4e
 1766 0a29 090A0000 		.4byte	0xa09
 1767 0a2d 06       		.uleb128 0x6
 1768 0a2e 04       		.byte	0x4
 1769 0a2f C8000000 		.4byte	0xc8
 1770 0a33 04       		.uleb128 0x4
 1771 0a34 01       		.byte	0x1
 1772 0a35 02       		.byte	0x2
 1773 0a36 72030000 		.4byte	.LASF144
 1774 0a3a 13       		.uleb128 0x13
 1775 0a3b 04       		.byte	0x4
 1776 0a3c 11       		.byte	0x11
 1777 0a3d B3       		.byte	0xb3
 1778 0a3e 5B0A0000 		.4byte	0xa5b
 1779 0a42 14       		.uleb128 0x14
 1780 0a43 73657400 		.ascii	"set\000"
 1781 0a47 11       		.byte	0x11
 1782 0a48 B4       		.byte	0xb4
 1783 0a49 D3000000 		.4byte	0xd3
 1784 0a4d 00       		.byte	0
 1785 0a4e 0A       		.uleb128 0xa
 1786 0a4f 2D030000 		.4byte	.LASF145
 1787 0a53 11       		.byte	0x11
 1788 0a54 B5       		.byte	0xb5
 1789 0a55 D3000000 		.4byte	0xd3
 1790 0a59 02       		.byte	0x2
 1791 0a5a 00       		.byte	0
 1792 0a5b 1A       		.uleb128 0x1a
 1793 0a5c 04       		.byte	0x4
 1794 0a5d 11       		.byte	0x11
 1795 0a5e B1       		.byte	0xb1
 1796 0a5f 760A0000 		.4byte	0xa76
 1797 0a63 1C       		.uleb128 0x1c
 1798 0a64 5700     		.ascii	"W\000"
 1799 0a66 11       		.byte	0x11
 1800 0a67 B2       		.byte	0xb2
 1801 0a68 E9000000 		.4byte	0xe9
 1802 0a6c 1C       		.uleb128 0x1c
 1803 0a6d 4800     		.ascii	"H\000"
 1804 0a6f 11       		.byte	0x11
ARM GAS  C:\Users\IDONNO~1\AppData\Local\Temp\cc96zqnk.s 			page 33


 1805 0a70 B6       		.byte	0xb6
 1806 0a71 3A0A0000 		.4byte	0xa3a
 1807 0a75 00       		.byte	0
 1808 0a76 13       		.uleb128 0x13
 1809 0a77 2C       		.byte	0x2c
 1810 0a78 11       		.byte	0x11
 1811 0a79 A9       		.byte	0xa9
 1812 0a7a 030B0000 		.4byte	0xb03
 1813 0a7e 0A       		.uleb128 0xa
 1814 0a7f 08030000 		.4byte	.LASF146
 1815 0a83 11       		.byte	0x11
 1816 0a84 AB       		.byte	0xab
 1817 0a85 04010000 		.4byte	0x104
 1818 0a89 00       		.byte	0
 1819 0a8a 0A       		.uleb128 0xa
 1820 0a8b 77080000 		.4byte	.LASF147
 1821 0a8f 11       		.byte	0x11
 1822 0a90 AC       		.byte	0xac
 1823 0a91 04010000 		.4byte	0x104
 1824 0a95 04       		.byte	0x4
 1825 0a96 0A       		.uleb128 0xa
 1826 0a97 45070000 		.4byte	.LASF148
 1827 0a9b 11       		.byte	0x11
 1828 0a9c AD       		.byte	0xad
 1829 0a9d 04010000 		.4byte	0x104
 1830 0aa1 08       		.byte	0x8
 1831 0aa2 0A       		.uleb128 0xa
 1832 0aa3 C6040000 		.4byte	.LASF149
 1833 0aa7 11       		.byte	0x11
 1834 0aa8 AE       		.byte	0xae
 1835 0aa9 04010000 		.4byte	0x104
 1836 0aad 0C       		.byte	0xc
 1837 0aae 14       		.uleb128 0x14
 1838 0aaf 49445200 		.ascii	"IDR\000"
 1839 0ab3 11       		.byte	0x11
 1840 0ab4 AF       		.byte	0xaf
 1841 0ab5 04010000 		.4byte	0x104
 1842 0ab9 10       		.byte	0x10
 1843 0aba 14       		.uleb128 0x14
 1844 0abb 4F445200 		.ascii	"ODR\000"
 1845 0abf 11       		.byte	0x11
 1846 0ac0 B0       		.byte	0xb0
 1847 0ac1 04010000 		.4byte	0x104
 1848 0ac5 14       		.byte	0x14
 1849 0ac6 0A       		.uleb128 0xa
 1850 0ac7 58000000 		.4byte	.LASF150
 1851 0acb 11       		.byte	0x11
 1852 0acc B7       		.byte	0xb7
 1853 0acd 030B0000 		.4byte	0xb03
 1854 0ad1 18       		.byte	0x18
 1855 0ad2 0A       		.uleb128 0xa
 1856 0ad3 EF0A0000 		.4byte	.LASF151
 1857 0ad7 11       		.byte	0x11
 1858 0ad8 B8       		.byte	0xb8
 1859 0ad9 04010000 		.4byte	0x104
 1860 0add 1C       		.byte	0x1c
 1861 0ade 0A       		.uleb128 0xa
ARM GAS  C:\Users\IDONNO~1\AppData\Local\Temp\cc96zqnk.s 			page 34


 1862 0adf 20030000 		.4byte	.LASF152
 1863 0ae3 11       		.byte	0x11
 1864 0ae4 B9       		.byte	0xb9
 1865 0ae5 04010000 		.4byte	0x104
 1866 0ae9 20       		.byte	0x20
 1867 0aea 0A       		.uleb128 0xa
 1868 0aeb 0E030000 		.4byte	.LASF153
 1869 0aef 11       		.byte	0x11
 1870 0af0 BA       		.byte	0xba
 1871 0af1 04010000 		.4byte	0x104
 1872 0af5 24       		.byte	0x24
 1873 0af6 14       		.uleb128 0x14
 1874 0af7 42525200 		.ascii	"BRR\000"
 1875 0afb 11       		.byte	0x11
 1876 0afc BB       		.byte	0xbb
 1877 0afd 04010000 		.4byte	0x104
 1878 0b01 28       		.byte	0x28
 1879 0b02 00       		.byte	0
 1880 0b03 08       		.uleb128 0x8
 1881 0b04 5B0A0000 		.4byte	0xa5b
 1882 0b08 03       		.uleb128 0x3
 1883 0b09 13030000 		.4byte	.LASF154
 1884 0b0d 11       		.byte	0x11
 1885 0b0e BC       		.byte	0xbc
 1886 0b0f 760A0000 		.4byte	0xa76
 1887 0b13 16       		.uleb128 0x16
 1888 0b14 46060000 		.4byte	.LASF155
 1889 0b18 11       		.byte	0x11
 1890 0b19 0E01     		.2byte	0x10e
 1891 0b1b E9000000 		.4byte	0xe9
 1892 0b1f 1D       		.uleb128 0x1d
 1893 0b20 01       		.byte	0x1
 1894 0b21 50000000 		.4byte	0x50
 1895 0b25 12       		.byte	0x12
 1896 0b26 5F       		.byte	0x5f
 1897 0b27 4A0B0000 		.4byte	0xb4a
 1898 0b2b 1E       		.uleb128 0x1e
 1899 0b2c BB040000 		.4byte	.LASF156
 1900 0b30 00       		.byte	0
 1901 0b31 1E       		.uleb128 0x1e
 1902 0b32 69070000 		.4byte	.LASF157
 1903 0b36 01       		.byte	0x1
 1904 0b37 1E       		.uleb128 0x1e
 1905 0b38 99070000 		.4byte	.LASF158
 1906 0b3c 02       		.byte	0x2
 1907 0b3d 1E       		.uleb128 0x1e
 1908 0b3e 32050000 		.4byte	.LASF159
 1909 0b42 03       		.byte	0x3
 1910 0b43 1E       		.uleb128 0x1e
 1911 0b44 D8080000 		.4byte	.LASF160
 1912 0b48 04       		.byte	0x4
 1913 0b49 00       		.byte	0
 1914 0b4a 03       		.uleb128 0x3
 1915 0b4b F2040000 		.4byte	.LASF161
 1916 0b4f 12       		.byte	0x12
 1917 0b50 65       		.byte	0x65
 1918 0b51 1F0B0000 		.4byte	0xb1f
ARM GAS  C:\Users\IDONNO~1\AppData\Local\Temp\cc96zqnk.s 			page 35


 1919 0b55 11       		.uleb128 0x11
 1920 0b56 C8000000 		.4byte	0xc8
 1921 0b5a 650B0000 		.4byte	0xb65
 1922 0b5e 12       		.uleb128 0x12
 1923 0b5f AD000000 		.4byte	0xad
 1924 0b63 07       		.byte	0x7
 1925 0b64 00       		.byte	0
 1926 0b65 11       		.uleb128 0x11
 1927 0b66 D3000000 		.4byte	0xd3
 1928 0b6a 750B0000 		.4byte	0xb75
 1929 0b6e 12       		.uleb128 0x12
 1930 0b6f AD000000 		.4byte	0xad
 1931 0b73 03       		.byte	0x3
 1932 0b74 00       		.byte	0
 1933 0b75 13       		.uleb128 0x13
 1934 0b76 04       		.byte	0x4
 1935 0b77 13       		.byte	0x13
 1936 0b78 B4       		.byte	0xb4
 1937 0b79 960B0000 		.4byte	0xb96
 1938 0b7d 14       		.uleb128 0x14
 1939 0b7e 464D4900 		.ascii	"FMI\000"
 1940 0b82 13       		.byte	0x13
 1941 0b83 B5       		.byte	0xb5
 1942 0b84 C8000000 		.4byte	0xc8
 1943 0b88 00       		.byte	0
 1944 0b89 0A       		.uleb128 0xa
 1945 0b8a 04010000 		.4byte	.LASF162
 1946 0b8e 13       		.byte	0x13
 1947 0b8f B6       		.byte	0xb6
 1948 0b90 D3000000 		.4byte	0xd3
 1949 0b94 02       		.byte	0x2
 1950 0b95 00       		.byte	0
 1951 0b96 13       		.uleb128 0x13
 1952 0b97 01       		.byte	0x1
 1953 0b98 13       		.byte	0x13
 1954 0b99 B8       		.byte	0xb8
 1955 0b9a CC0B0000 		.4byte	0xbcc
 1956 0b9e 1F       		.uleb128 0x1f
 1957 0b9f 444C4300 		.ascii	"DLC\000"
 1958 0ba3 13       		.byte	0x13
 1959 0ba4 B9       		.byte	0xb9
 1960 0ba5 C8000000 		.4byte	0xc8
 1961 0ba9 01       		.byte	0x1
 1962 0baa 04       		.byte	0x4
 1963 0bab 04       		.byte	0x4
 1964 0bac 00       		.byte	0
 1965 0bad 1F       		.uleb128 0x1f
 1966 0bae 52545200 		.ascii	"RTR\000"
 1967 0bb2 13       		.byte	0x13
 1968 0bb3 BA       		.byte	0xba
 1969 0bb4 C8000000 		.4byte	0xc8
 1970 0bb8 01       		.byte	0x1
 1971 0bb9 01       		.byte	0x1
 1972 0bba 03       		.byte	0x3
 1973 0bbb 00       		.byte	0
 1974 0bbc 1F       		.uleb128 0x1f
 1975 0bbd 49444500 		.ascii	"IDE\000"
ARM GAS  C:\Users\IDONNO~1\AppData\Local\Temp\cc96zqnk.s 			page 36


 1976 0bc1 13       		.byte	0x13
 1977 0bc2 BB       		.byte	0xbb
 1978 0bc3 C8000000 		.4byte	0xc8
 1979 0bc7 01       		.byte	0x1
 1980 0bc8 01       		.byte	0x1
 1981 0bc9 02       		.byte	0x2
 1982 0bca 00       		.byte	0
 1983 0bcb 00       		.byte	0
 1984 0bcc 13       		.uleb128 0x13
 1985 0bcd 04       		.byte	0x4
 1986 0bce 13       		.byte	0x13
 1987 0bcf BE       		.byte	0xbe
 1988 0bd0 E40B0000 		.4byte	0xbe4
 1989 0bd4 1F       		.uleb128 0x1f
 1990 0bd5 53494400 		.ascii	"SID\000"
 1991 0bd9 13       		.byte	0x13
 1992 0bda BF       		.byte	0xbf
 1993 0bdb E9000000 		.4byte	0xe9
 1994 0bdf 04       		.byte	0x4
 1995 0be0 0B       		.byte	0xb
 1996 0be1 15       		.byte	0x15
 1997 0be2 00       		.byte	0
 1998 0be3 00       		.byte	0
 1999 0be4 13       		.uleb128 0x13
 2000 0be5 04       		.byte	0x4
 2001 0be6 13       		.byte	0x13
 2002 0be7 C1       		.byte	0xc1
 2003 0be8 FC0B0000 		.4byte	0xbfc
 2004 0bec 1F       		.uleb128 0x1f
 2005 0bed 45494400 		.ascii	"EID\000"
 2006 0bf1 13       		.byte	0x13
 2007 0bf2 C2       		.byte	0xc2
 2008 0bf3 E9000000 		.4byte	0xe9
 2009 0bf7 04       		.byte	0x4
 2010 0bf8 1D       		.byte	0x1d
 2011 0bf9 03       		.byte	0x3
 2012 0bfa 00       		.byte	0
 2013 0bfb 00       		.byte	0
 2014 0bfc 1A       		.uleb128 0x1a
 2015 0bfd 04       		.byte	0x4
 2016 0bfe 13       		.byte	0x13
 2017 0bff BD       		.byte	0xbd
 2018 0c00 0F0C0000 		.4byte	0xc0f
 2019 0c04 20       		.uleb128 0x20
 2020 0c05 CC0B0000 		.4byte	0xbcc
 2021 0c09 20       		.uleb128 0x20
 2022 0c0a E40B0000 		.4byte	0xbe4
 2023 0c0e 00       		.byte	0
 2024 0c0f 1A       		.uleb128 0x1a
 2025 0c10 08       		.byte	0x8
 2026 0c11 13       		.byte	0x13
 2027 0c12 C5       		.byte	0xc5
 2028 0c13 390C0000 		.4byte	0xc39
 2029 0c17 21       		.uleb128 0x21
 2030 0c18 CF050000 		.4byte	.LASF163
 2031 0c1c 13       		.byte	0x13
 2032 0c1d C6       		.byte	0xc6
ARM GAS  C:\Users\IDONNO~1\AppData\Local\Temp\cc96zqnk.s 			page 37


 2033 0c1e 550B0000 		.4byte	0xb55
 2034 0c22 21       		.uleb128 0x21
 2035 0c23 8D0A0000 		.4byte	.LASF164
 2036 0c27 13       		.byte	0x13
 2037 0c28 C7       		.byte	0xc7
 2038 0c29 650B0000 		.4byte	0xb65
 2039 0c2d 21       		.uleb128 0x21
 2040 0c2e 9E000000 		.4byte	.LASF165
 2041 0c32 13       		.byte	0x13
 2042 0c33 C8       		.byte	0xc8
 2043 0c34 B9040000 		.4byte	0x4b9
 2044 0c38 00       		.byte	0
 2045 0c39 13       		.uleb128 0x13
 2046 0c3a 14       		.byte	0x14
 2047 0c3b 13       		.byte	0x13
 2048 0c3c B3       		.byte	0xb3
 2049 0c3d 5A0C0000 		.4byte	0xc5a
 2050 0c41 22       		.uleb128 0x22
 2051 0c42 750B0000 		.4byte	0xb75
 2052 0c46 00       		.byte	0
 2053 0c47 22       		.uleb128 0x22
 2054 0c48 960B0000 		.4byte	0xb96
 2055 0c4c 04       		.byte	0x4
 2056 0c4d 22       		.uleb128 0x22
 2057 0c4e FC0B0000 		.4byte	0xbfc
 2058 0c52 08       		.byte	0x8
 2059 0c53 22       		.uleb128 0x22
 2060 0c54 0F0C0000 		.4byte	0xc0f
 2061 0c58 0C       		.byte	0xc
 2062 0c59 00       		.byte	0
 2063 0c5a 03       		.uleb128 0x3
 2064 0c5b 16080000 		.4byte	.LASF166
 2065 0c5f 13       		.byte	0x13
 2066 0c60 CA       		.byte	0xca
 2067 0c61 390C0000 		.4byte	0xc39
 2068 0c65 13       		.uleb128 0x13
 2069 0c66 08       		.byte	0x8
 2070 0c67 13       		.byte	0x13
 2071 0c68 F4       		.byte	0xf4
 2072 0c69 870C0000 		.4byte	0xc87
 2073 0c6d 14       		.uleb128 0x14
 2074 0c6e 6D637200 		.ascii	"mcr\000"
 2075 0c72 13       		.byte	0x13
 2076 0c73 FA       		.byte	0xfa
 2077 0c74 E9000000 		.4byte	0xe9
 2078 0c78 00       		.byte	0
 2079 0c79 0B       		.uleb128 0xb
 2080 0c7a 62747200 		.ascii	"btr\000"
 2081 0c7e 13       		.byte	0x13
 2082 0c7f 0001     		.2byte	0x100
 2083 0c81 E9000000 		.4byte	0xe9
 2084 0c85 04       		.byte	0x4
 2085 0c86 00       		.byte	0
 2086 0c87 16       		.uleb128 0x16
 2087 0c88 87010000 		.4byte	.LASF167
 2088 0c8c 13       		.byte	0x13
 2089 0c8d 0101     		.2byte	0x101
ARM GAS  C:\Users\IDONNO~1\AppData\Local\Temp\cc96zqnk.s 			page 38


 2090 0c8f 650C0000 		.4byte	0xc65
 2091 0c93 15       		.uleb128 0x15
 2092 0c94 30       		.byte	0x30
 2093 0c95 13       		.byte	0x13
 2094 0c96 0601     		.2byte	0x106
 2095 0c98 1F0D0000 		.4byte	0xd1f
 2096 0c9c 0C       		.uleb128 0xc
 2097 0c9d 39090000 		.4byte	.LASF168
 2098 0ca1 13       		.byte	0x13
 2099 0ca2 0A01     		.2byte	0x10a
 2100 0ca4 4A0B0000 		.4byte	0xb4a
 2101 0ca8 00       		.byte	0
 2102 0ca9 0C       		.uleb128 0xc
 2103 0caa 92070000 		.4byte	.LASF169
 2104 0cae 13       		.byte	0x13
 2105 0caf 0E01     		.2byte	0x10e
 2106 0cb1 1F0D0000 		.4byte	0xd1f
 2107 0cb5 04       		.byte	0x4
 2108 0cb6 0C       		.uleb128 0xc
 2109 0cb7 A4080000 		.4byte	.LASF170
 2110 0cbb 13       		.byte	0x13
 2111 0cbc 1201     		.2byte	0x112
 2112 0cbe D2020000 		.4byte	0x2d2
 2113 0cc2 08       		.byte	0x8
 2114 0cc3 0C       		.uleb128 0xc
 2115 0cc4 FC000000 		.4byte	.LASF171
 2116 0cc8 13       		.byte	0x13
 2117 0cc9 1601     		.2byte	0x116
 2118 0ccb D2020000 		.4byte	0x2d2
 2119 0ccf 10       		.byte	0x10
 2120 0cd0 0C       		.uleb128 0xc
 2121 0cd1 25070000 		.4byte	.LASF172
 2122 0cd5 13       		.byte	0x13
 2123 0cd6 2301     		.2byte	0x123
 2124 0cd8 220A0000 		.4byte	0xa22
 2125 0cdc 18       		.byte	0x18
 2126 0cdd 0C       		.uleb128 0xc
 2127 0cde CF010000 		.4byte	.LASF173
 2128 0ce2 13       		.byte	0x13
 2129 0ce3 2A01     		.2byte	0x12a
 2130 0ce5 220A0000 		.4byte	0xa22
 2131 0ce9 1C       		.byte	0x1c
 2132 0cea 0C       		.uleb128 0xc
 2133 0ceb 61080000 		.4byte	.LASF174
 2134 0cef 13       		.byte	0x13
 2135 0cf0 3001     		.2byte	0x130
 2136 0cf2 220A0000 		.4byte	0xa22
 2137 0cf6 20       		.byte	0x20
 2138 0cf7 0C       		.uleb128 0xc
 2139 0cf8 05050000 		.4byte	.LASF175
 2140 0cfc 13       		.byte	0x13
 2141 0cfd 3501     		.2byte	0x135
 2142 0cff 220A0000 		.4byte	0xa22
 2143 0d03 24       		.byte	0x24
 2144 0d04 0C       		.uleb128 0xc
 2145 0d05 4F010000 		.4byte	.LASF176
 2146 0d09 13       		.byte	0x13
ARM GAS  C:\Users\IDONNO~1\AppData\Local\Temp\cc96zqnk.s 			page 39


 2147 0d0a 3901     		.2byte	0x139
 2148 0d0c 220A0000 		.4byte	0xa22
 2149 0d10 28       		.byte	0x28
 2150 0d11 0B       		.uleb128 0xb
 2151 0d12 63616E00 		.ascii	"can\000"
 2152 0d16 13       		.byte	0x13
 2153 0d17 3F01     		.2byte	0x13f
 2154 0d19 2A0D0000 		.4byte	0xd2a
 2155 0d1d 2C       		.byte	0x2c
 2156 0d1e 00       		.byte	0
 2157 0d1f 06       		.uleb128 0x6
 2158 0d20 04       		.byte	0x4
 2159 0d21 250D0000 		.4byte	0xd25
 2160 0d25 07       		.uleb128 0x7
 2161 0d26 870C0000 		.4byte	0xc87
 2162 0d2a 06       		.uleb128 0x6
 2163 0d2b 04       		.byte	0x4
 2164 0d2c 17070000 		.4byte	0x717
 2165 0d30 16       		.uleb128 0x16
 2166 0d31 CC090000 		.4byte	.LASF177
 2167 0d35 13       		.byte	0x13
 2168 0d36 4001     		.2byte	0x140
 2169 0d38 930C0000 		.4byte	0xc93
 2170 0d3c 04       		.uleb128 0x4
 2171 0d3d 04       		.byte	0x4
 2172 0d3e 04       		.byte	0x4
 2173 0d3f 01020000 		.4byte	.LASF178
 2174 0d43 23       		.uleb128 0x23
 2175 0d44 7F0A0000 		.4byte	.LASF185
 2176 0d48 04       		.byte	0x4
 2177 0d49 AE       		.byte	0xae
 2178 0d4a A8020000 		.4byte	0x2a8
 2179 0d4e 03       		.byte	0x3
 2180 0d4f 24       		.uleb128 0x24
 2181 0d50 72070000 		.4byte	.LASF179
 2182 0d54 02       		.byte	0x2
 2183 0d55 84       		.byte	0x84
 2184 0d56 03       		.byte	0x3
 2185 0d57 670D0000 		.4byte	0xd67
 2186 0d5b 25       		.uleb128 0x25
 2187 0d5c AC080000 		.4byte	.LASF181
 2188 0d60 02       		.byte	0x2
 2189 0d61 84       		.byte	0x84
 2190 0d62 BD000000 		.4byte	0xbd
 2191 0d66 00       		.byte	0
 2192 0d67 24       		.uleb128 0x24
 2193 0d68 94060000 		.4byte	.LASF180
 2194 0d6c 03       		.byte	0x3
 2195 0d6d BD       		.byte	0xbd
 2196 0d6e 03       		.byte	0x3
 2197 0d6f 950D0000 		.4byte	0xd95
 2198 0d73 26       		.uleb128 0x26
 2199 0d74 65737000 		.ascii	"esp\000"
 2200 0d78 03       		.byte	0x3
 2201 0d79 BD       		.byte	0xbd
 2202 0d7a 950D0000 		.4byte	0xd95
 2203 0d7e 26       		.uleb128 0x26
ARM GAS  C:\Users\IDONNO~1\AppData\Local\Temp\cc96zqnk.s 			page 40


 2204 0d7f 656C7000 		.ascii	"elp\000"
 2205 0d83 03       		.byte	0x3
 2206 0d84 BE       		.byte	0xbe
 2207 0d85 030A0000 		.4byte	0xa03
 2208 0d89 25       		.uleb128 0x25
 2209 0d8a 94090000 		.4byte	.LASF182
 2210 0d8e 03       		.byte	0x3
 2211 0d8f BF       		.byte	0xbf
 2212 0d90 61010000 		.4byte	0x161
 2213 0d94 00       		.byte	0
 2214 0d95 06       		.uleb128 0x6
 2215 0d96 04       		.byte	0x4
 2216 0d97 220A0000 		.4byte	0xa22
 2217 0d9b 24       		.uleb128 0x24
 2218 0d9c 7A020000 		.4byte	.LASF183
 2219 0da0 03       		.byte	0x3
 2220 0da1 D1       		.byte	0xd1
 2221 0da2 03       		.byte	0x3
 2222 0da3 C90D0000 		.4byte	0xdc9
 2223 0da7 26       		.uleb128 0x26
 2224 0da8 65737000 		.ascii	"esp\000"
 2225 0dac 03       		.byte	0x3
 2226 0dad D1       		.byte	0xd1
 2227 0dae 950D0000 		.4byte	0xd95
 2228 0db2 26       		.uleb128 0x26
 2229 0db3 656C7000 		.ascii	"elp\000"
 2230 0db7 03       		.byte	0x3
 2231 0db8 D2       		.byte	0xd2
 2232 0db9 030A0000 		.4byte	0xa03
 2233 0dbd 25       		.uleb128 0x25
 2234 0dbe 1F020000 		.4byte	.LASF184
 2235 0dc2 03       		.byte	0x3
 2236 0dc3 D3       		.byte	0xd3
 2237 0dc4 56010000 		.4byte	0x156
 2238 0dc8 00       		.byte	0
 2239 0dc9 23       		.uleb128 0x23
 2240 0dca 54050000 		.4byte	.LASF186
 2241 0dce 04       		.byte	0x4
 2242 0dcf E7       		.byte	0xe7
 2243 0dd0 330A0000 		.4byte	0xa33
 2244 0dd4 03       		.byte	0x3
 2245 0dd5 27       		.uleb128 0x27
 2246 0dd6 D3040000 		.4byte	.LASF192
 2247 0dda 01       		.byte	0x1
 2248 0ddb 85       		.byte	0x85
 2249 0ddc 00000000 		.4byte	.LFB258
 2250 0de0 4C000000 		.4byte	.LFE258-.LFB258
 2251 0de4 01       		.uleb128 0x1
 2252 0de5 9C       		.byte	0x9c
 2253 0de6 690E0000 		.4byte	0xe69
 2254 0dea 28       		.uleb128 0x28
 2255 0deb 61726700 		.ascii	"arg\000"
 2256 0def 01       		.byte	0x1
 2257 0df0 85       		.byte	0x85
 2258 0df1 B4000000 		.4byte	0xb4
 2259 0df5 00000000 		.4byte	.LLST0
 2260 0df9 29       		.uleb128 0x29
ARM GAS  C:\Users\IDONNO~1\AppData\Local\Temp\cc96zqnk.s 			page 41


 2261 0dfa 696E6400 		.ascii	"ind\000"
 2262 0dfe 01       		.byte	0x1
 2263 0dff 8B       		.byte	0x8b
 2264 0e00 DE000000 		.4byte	0xde
 2265 0e04 00       		.byte	0
 2266 0e05 2A       		.uleb128 0x2a
 2267 0e06 CD060000 		.4byte	.LASF187
 2268 0e0a 01       		.byte	0x1
 2269 0e0b 8C       		.byte	0x8c
 2270 0e0c 37000000 		.4byte	0x37
 2271 0e10 2A       		.uleb128 0x2a
 2272 0e11 B30A0000 		.4byte	.LASF188
 2273 0e15 01       		.byte	0x1
 2274 0e16 8D       		.byte	0x8d
 2275 0e17 37000000 		.4byte	0x37
 2276 0e1b 2A       		.uleb128 0x2a
 2277 0e1c 6B020000 		.4byte	.LASF189
 2278 0e20 01       		.byte	0x1
 2279 0e21 8E       		.byte	0x8e
 2280 0e22 C8000000 		.4byte	0xc8
 2281 0e26 2A       		.uleb128 0x2a
 2282 0e27 AD040000 		.4byte	.LASF190
 2283 0e2b 01       		.byte	0x1
 2284 0e2c 8F       		.byte	0x8f
 2285 0e2d C8000000 		.4byte	0xc8
 2286 0e31 2A       		.uleb128 0x2a
 2287 0e32 BD080000 		.4byte	.LASF191
 2288 0e36 01       		.byte	0x1
 2289 0e37 90       		.byte	0x90
 2290 0e38 330A0000 		.4byte	0xa33
 2291 0e3c 2B       		.uleb128 0x2b
 2292 0e3d 4F0D0000 		.4byte	0xd4f
 2293 0e41 00000000 		.4byte	.LBB24
 2294 0e45 00000000 		.4byte	.Ldebug_ranges0+0
 2295 0e49 01       		.byte	0x1
 2296 0e4a 88       		.byte	0x88
 2297 0e4b 590E0000 		.4byte	0xe59
 2298 0e4f 2C       		.uleb128 0x2c
 2299 0e50 5B0D0000 		.4byte	0xd5b
 2300 0e54 21000000 		.4byte	.LLST1
 2301 0e58 00       		.byte	0
 2302 0e59 2D       		.uleb128 0x2d
 2303 0e5a 1A000000 		.4byte	.LVL4
 2304 0e5e 00130000 		.4byte	0x1300
 2305 0e62 2E       		.uleb128 0x2e
 2306 0e63 01       		.uleb128 0x1
 2307 0e64 50       		.byte	0x50
 2308 0e65 01       		.uleb128 0x1
 2309 0e66 31       		.byte	0x31
 2310 0e67 00       		.byte	0
 2311 0e68 00       		.byte	0
 2312 0e69 27       		.uleb128 0x27
 2313 0e6a B8060000 		.4byte	.LASF193
 2314 0e6e 01       		.byte	0x1
 2315 0e6f A3       		.byte	0xa3
 2316 0e70 00000000 		.4byte	.LFB259
 2317 0e74 1C000000 		.4byte	.LFE259-.LFB259
ARM GAS  C:\Users\IDONNO~1\AppData\Local\Temp\cc96zqnk.s 			page 42


 2318 0e78 01       		.uleb128 0x1
 2319 0e79 9C       		.byte	0x9c
 2320 0e7a BF0E0000 		.4byte	0xebf
 2321 0e7e 28       		.uleb128 0x28
 2322 0e7f 61726700 		.ascii	"arg\000"
 2323 0e83 01       		.byte	0x1
 2324 0e84 A3       		.byte	0xa3
 2325 0e85 B4000000 		.4byte	0xb4
 2326 0e89 39000000 		.4byte	.LLST2
 2327 0e8d 2F       		.uleb128 0x2f
 2328 0e8e 4F0D0000 		.4byte	0xd4f
 2329 0e92 02000000 		.4byte	.LBB30
 2330 0e96 08000000 		.4byte	.LBE30-.LBB30
 2331 0e9a 01       		.byte	0x1
 2332 0e9b A6       		.byte	0xa6
 2333 0e9c AD0E0000 		.4byte	0xead
 2334 0ea0 30       		.uleb128 0x30
 2335 0ea1 5B0D0000 		.4byte	0xd5b
 2336 0ea5 06       		.uleb128 0x6
 2337 0ea6 03       		.byte	0x3
 2338 0ea7 10000000 		.4byte	.LC1
 2339 0eab 9F       		.byte	0x9f
 2340 0eac 00       		.byte	0
 2341 0ead 2D       		.uleb128 0x2d
 2342 0eae 12000000 		.4byte	.LVL7
 2343 0eb2 0B130000 		.4byte	0x130b
 2344 0eb6 2E       		.uleb128 0x2e
 2345 0eb7 01       		.uleb128 0x1
 2346 0eb8 50       		.byte	0x50
 2347 0eb9 03       		.uleb128 0x3
 2348 0eba 0A       		.byte	0xa
 2349 0ebb E803     		.2byte	0x3e8
 2350 0ebd 00       		.byte	0
 2351 0ebe 00       		.byte	0
 2352 0ebf 31       		.uleb128 0x31
 2353 0ec0 00000000 		.4byte	.LASF230
 2354 0ec4 01       		.byte	0x1
 2355 0ec5 62       		.byte	0x62
 2356 0ec6 00000000 		.4byte	.LFB257
 2357 0eca 98000000 		.4byte	.LFE257-.LFB257
 2358 0ece 01       		.uleb128 0x1
 2359 0ecf 9C       		.byte	0x9c
 2360 0ed0 31100000 		.4byte	0x1031
 2361 0ed4 28       		.uleb128 0x28
 2362 0ed5 61726700 		.ascii	"arg\000"
 2363 0ed9 01       		.byte	0x1
 2364 0eda 62       		.byte	0x62
 2365 0edb B4000000 		.4byte	0xb4
 2366 0edf 5A000000 		.4byte	.LLST3
 2367 0ee3 32       		.uleb128 0x32
 2368 0ee4 656C00   		.ascii	"el\000"
 2369 0ee7 01       		.byte	0x1
 2370 0ee8 67       		.byte	0x67
 2371 0ee9 AF090000 		.4byte	0x9af
 2372 0eed 02       		.uleb128 0x2
 2373 0eee 91       		.byte	0x91
 2374 0eef 40       		.sleb128 -64
ARM GAS  C:\Users\IDONNO~1\AppData\Local\Temp\cc96zqnk.s 			page 43


 2375 0ef0 33       		.uleb128 0x33
 2376 0ef1 B5010000 		.4byte	.LASF194
 2377 0ef5 01       		.byte	0x1
 2378 0ef6 68       		.byte	0x68
 2379 0ef7 5A0C0000 		.4byte	0xc5a
 2380 0efb 02       		.uleb128 0x2
 2381 0efc 91       		.byte	0x91
 2382 0efd 54       		.sleb128 -44
 2383 0efe 2B       		.uleb128 0x2b
 2384 0eff 4F0D0000 		.4byte	0xd4f
 2385 0f03 02000000 		.4byte	.LBB32
 2386 0f07 20000000 		.4byte	.Ldebug_ranges0+0x20
 2387 0f0b 01       		.byte	0x1
 2388 0f0c 65       		.byte	0x65
 2389 0f0d 1B0F0000 		.4byte	0xf1b
 2390 0f11 2C       		.uleb128 0x2c
 2391 0f12 5B0D0000 		.4byte	0xd5b
 2392 0f16 7B000000 		.4byte	.LLST4
 2393 0f1a 00       		.byte	0
 2394 0f1b 2B       		.uleb128 0x2b
 2395 0f1c 9B0D0000 		.4byte	0xd9b
 2396 0f20 08000000 		.4byte	.LBB35
 2397 0f24 38000000 		.4byte	.Ldebug_ranges0+0x38
 2398 0f28 01       		.byte	0x1
 2399 0f29 6A       		.byte	0x6a
 2400 0f2a 8D0F0000 		.4byte	0xf8d
 2401 0f2e 34       		.uleb128 0x34
 2402 0f2f BD0D0000 		.4byte	0xdbd
 2403 0f33 00       		.byte	0
 2404 0f34 2C       		.uleb128 0x2c
 2405 0f35 B20D0000 		.4byte	0xdb2
 2406 0f39 93000000 		.4byte	.LLST5
 2407 0f3d 2C       		.uleb128 0x2c
 2408 0f3e A70D0000 		.4byte	0xda7
 2409 0f42 C0000000 		.4byte	.LLST6
 2410 0f46 35       		.uleb128 0x35
 2411 0f47 670D0000 		.4byte	0xd67
 2412 0f4b 08000000 		.4byte	.LBB36
 2413 0f4f 38000000 		.4byte	.Ldebug_ranges0+0x38
 2414 0f53 03       		.byte	0x3
 2415 0f54 D5       		.byte	0xd5
 2416 0f55 2C       		.uleb128 0x2c
 2417 0f56 890D0000 		.4byte	0xd89
 2418 0f5a DE000000 		.4byte	.LLST7
 2419 0f5e 2C       		.uleb128 0x2c
 2420 0f5f 7E0D0000 		.4byte	0xd7e
 2421 0f63 F2000000 		.4byte	.LLST8
 2422 0f67 2C       		.uleb128 0x2c
 2423 0f68 730D0000 		.4byte	0xd73
 2424 0f6c 05010000 		.4byte	.LLST9
 2425 0f70 2D       		.uleb128 0x2d
 2426 0f71 1A000000 		.4byte	.LVL12
 2427 0f75 16130000 		.4byte	0x1316
 2428 0f79 2E       		.uleb128 0x2e
 2429 0f7a 01       		.uleb128 0x1
 2430 0f7b 51       		.byte	0x51
 2431 0f7c 02       		.uleb128 0x2
ARM GAS  C:\Users\IDONNO~1\AppData\Local\Temp\cc96zqnk.s 			page 44


 2432 0f7d 7D       		.byte	0x7d
 2433 0f7e 00       		.sleb128 0
 2434 0f7f 2E       		.uleb128 0x2e
 2435 0f80 01       		.uleb128 0x1
 2436 0f81 52       		.byte	0x52
 2437 0f82 01       		.uleb128 0x1
 2438 0f83 31       		.byte	0x31
 2439 0f84 2E       		.uleb128 0x2e
 2440 0f85 01       		.uleb128 0x1
 2441 0f86 53       		.byte	0x53
 2442 0f87 02       		.uleb128 0x2
 2443 0f88 09       		.byte	0x9
 2444 0f89 FF       		.byte	0xff
 2445 0f8a 00       		.byte	0
 2446 0f8b 00       		.byte	0
 2447 0f8c 00       		.byte	0
 2448 0f8d 36       		.uleb128 0x36
 2449 0f8e C90D0000 		.4byte	0xdc9
 2450 0f92 1C000000 		.4byte	.LBB42
 2451 0f96 02000000 		.4byte	.LBE42-.LBB42
 2452 0f9a 01       		.byte	0x1
 2453 0f9b 6C       		.byte	0x6c
 2454 0f9c 37       		.uleb128 0x37
 2455 0f9d 2A000000 		.4byte	.LBB44
 2456 0fa1 48000000 		.4byte	.LBE44-.LBB44
 2457 0fa5 20100000 		.4byte	0x1020
 2458 0fa9 38       		.uleb128 0x38
 2459 0faa 73020000 		.4byte	.LASF195
 2460 0fae 01       		.byte	0x1
 2461 0faf 73       		.byte	0x73
 2462 0fb0 4B010000 		.4byte	0x14b
 2463 0fb4 18010000 		.4byte	.LLST10
 2464 0fb8 39       		.uleb128 0x39
 2465 0fb9 34000000 		.4byte	.LVL13
 2466 0fbd 21130000 		.4byte	0x1321
 2467 0fc1 D20F0000 		.4byte	0xfd2
 2468 0fc5 2E       		.uleb128 0x2e
 2469 0fc6 01       		.uleb128 0x1
 2470 0fc7 50       		.byte	0x50
 2471 0fc8 02       		.uleb128 0x2
 2472 0fc9 09       		.byte	0x9
 2473 0fca FF       		.byte	0xff
 2474 0fcb 2E       		.uleb128 0x2e
 2475 0fcc 01       		.uleb128 0x1
 2476 0fcd 51       		.byte	0x51
 2477 0fce 02       		.uleb128 0x2
 2478 0fcf 08       		.byte	0x8
 2479 0fd0 64       		.byte	0x64
 2480 0fd1 00       		.byte	0
 2481 0fd2 39       		.uleb128 0x39
 2482 0fd3 44000000 		.4byte	.LVL14
 2483 0fd7 2C130000 		.4byte	0x132c
 2484 0fdb F20F0000 		.4byte	0xff2
 2485 0fdf 2E       		.uleb128 0x2e
 2486 0fe0 01       		.uleb128 0x1
 2487 0fe1 51       		.byte	0x51
 2488 0fe2 02       		.uleb128 0x2
ARM GAS  C:\Users\IDONNO~1\AppData\Local\Temp\cc96zqnk.s 			page 45


 2489 0fe3 75       		.byte	0x75
 2490 0fe4 00       		.sleb128 0
 2491 0fe5 2E       		.uleb128 0x2e
 2492 0fe6 01       		.uleb128 0x1
 2493 0fe7 52       		.byte	0x52
 2494 0fe8 02       		.uleb128 0x2
 2495 0fe9 91       		.byte	0x91
 2496 0fea 54       		.sleb128 -44
 2497 0feb 2E       		.uleb128 0x2e
 2498 0fec 01       		.uleb128 0x1
 2499 0fed 53       		.byte	0x53
 2500 0fee 02       		.uleb128 0x2
 2501 0fef 75       		.byte	0x75
 2502 0ff0 00       		.sleb128 0
 2503 0ff1 00       		.byte	0
 2504 0ff2 39       		.uleb128 0x39
 2505 0ff3 60000000 		.4byte	.LVL16
 2506 0ff7 37130000 		.4byte	0x1337
 2507 0ffb 05100000 		.4byte	0x1005
 2508 0fff 2E       		.uleb128 0x2e
 2509 1000 01       		.uleb128 0x1
 2510 1001 51       		.byte	0x51
 2511 1002 01       		.uleb128 0x1
 2512 1003 31       		.byte	0x31
 2513 1004 00       		.byte	0
 2514 1005 2D       		.uleb128 0x2d
 2515 1006 6C000000 		.4byte	.LVL17
 2516 100a 2C130000 		.4byte	0x132c
 2517 100e 2E       		.uleb128 0x2e
 2518 100f 01       		.uleb128 0x1
 2519 1010 51       		.byte	0x51
 2520 1011 01       		.uleb128 0x1
 2521 1012 30       		.byte	0x30
 2522 1013 2E       		.uleb128 0x2e
 2523 1014 01       		.uleb128 0x1
 2524 1015 52       		.byte	0x52
 2525 1016 02       		.uleb128 0x2
 2526 1017 91       		.byte	0x91
 2527 1018 54       		.sleb128 -44
 2528 1019 2E       		.uleb128 0x2e
 2529 101a 01       		.uleb128 0x1
 2530 101b 53       		.byte	0x53
 2531 101c 01       		.uleb128 0x1
 2532 101d 30       		.byte	0x30
 2533 101e 00       		.byte	0
 2534 101f 00       		.byte	0
 2535 1020 2D       		.uleb128 0x2d
 2536 1021 7A000000 		.4byte	.LVL20
 2537 1025 42130000 		.4byte	0x1342
 2538 1029 2E       		.uleb128 0x2e
 2539 102a 01       		.uleb128 0x1
 2540 102b 51       		.byte	0x51
 2541 102c 02       		.uleb128 0x2
 2542 102d 7D       		.byte	0x7d
 2543 102e 00       		.sleb128 0
 2544 102f 00       		.byte	0
 2545 1030 00       		.byte	0
ARM GAS  C:\Users\IDONNO~1\AppData\Local\Temp\cc96zqnk.s 			page 46


 2546 1031 3A       		.uleb128 0x3a
 2547 1032 3A020000 		.4byte	.LASF196
 2548 1036 01       		.byte	0x1
 2549 1037 4E       		.byte	0x4e
 2550 1038 00000000 		.4byte	.LFB256
 2551 103c A0000000 		.4byte	.LFE256-.LFB256
 2552 1040 01       		.uleb128 0x1
 2553 1041 9C       		.byte	0x9c
 2554 1042 51110000 		.4byte	0x1151
 2555 1046 39       		.uleb128 0x39
 2556 1047 16000000 		.4byte	.LVL23
 2557 104b 4D130000 		.4byte	0x134d
 2558 104f 5D100000 		.4byte	0x105d
 2559 1053 2E       		.uleb128 0x2e
 2560 1054 01       		.uleb128 0x1
 2561 1055 50       		.byte	0x50
 2562 1056 05       		.uleb128 0x5
 2563 1057 03       		.byte	0x3
 2564 1058 00000000 		.4byte	.LANCHOR3
 2565 105c 00       		.byte	0
 2566 105d 39       		.uleb128 0x39
 2567 105e 24000000 		.4byte	.LVL24
 2568 1062 58130000 		.4byte	0x1358
 2569 1066 7F100000 		.4byte	0x107f
 2570 106a 2E       		.uleb128 0x2e
 2571 106b 01       		.uleb128 0x1
 2572 106c 50       		.byte	0x50
 2573 106d 02       		.uleb128 0x2
 2574 106e 75       		.byte	0x75
 2575 106f 00       		.sleb128 0
 2576 1070 2E       		.uleb128 0x2e
 2577 1071 01       		.uleb128 0x1
 2578 1072 51       		.byte	0x51
 2579 1073 03       		.uleb128 0x3
 2580 1074 0A       		.byte	0xa
 2581 1075 0001     		.2byte	0x100
 2582 1077 2E       		.uleb128 0x2e
 2583 1078 01       		.uleb128 0x1
 2584 1079 52       		.byte	0x52
 2585 107a 03       		.uleb128 0x3
 2586 107b 0A       		.byte	0xa
 2587 107c 8A04     		.2byte	0x48a
 2588 107e 00       		.byte	0
 2589 107f 39       		.uleb128 0x39
 2590 1080 32000000 		.4byte	.LVL25
 2591 1084 58130000 		.4byte	0x1358
 2592 1088 A1100000 		.4byte	0x10a1
 2593 108c 2E       		.uleb128 0x2e
 2594 108d 01       		.uleb128 0x1
 2595 108e 50       		.byte	0x50
 2596 108f 02       		.uleb128 0x2
 2597 1090 75       		.byte	0x75
 2598 1091 00       		.sleb128 0
 2599 1092 2E       		.uleb128 0x2e
 2600 1093 01       		.uleb128 0x1
 2601 1094 51       		.byte	0x51
 2602 1095 03       		.uleb128 0x3
ARM GAS  C:\Users\IDONNO~1\AppData\Local\Temp\cc96zqnk.s 			page 47


 2603 1096 0A       		.byte	0xa
 2604 1097 0002     		.2byte	0x200
 2605 1099 2E       		.uleb128 0x2e
 2606 109a 01       		.uleb128 0x1
 2607 109b 52       		.byte	0x52
 2608 109c 03       		.uleb128 0x3
 2609 109d 0A       		.byte	0xa
 2610 109e 8A04     		.2byte	0x48a
 2611 10a0 00       		.byte	0
 2612 10a1 39       		.uleb128 0x39
 2613 10a2 3A000000 		.4byte	.LVL26
 2614 10a6 64130000 		.4byte	0x1364
 2615 10aa B8100000 		.4byte	0x10b8
 2616 10ae 2E       		.uleb128 0x2e
 2617 10af 01       		.uleb128 0x1
 2618 10b0 51       		.byte	0x51
 2619 10b1 05       		.uleb128 0x5
 2620 10b2 03       		.byte	0x3
 2621 10b3 00000000 		.4byte	.LANCHOR4
 2622 10b7 00       		.byte	0
 2623 10b8 39       		.uleb128 0x39
 2624 10b9 4A000000 		.4byte	.LVL27
 2625 10bd 6F130000 		.4byte	0x136f
 2626 10c1 EC100000 		.4byte	0x10ec
 2627 10c5 2E       		.uleb128 0x2e
 2628 10c6 01       		.uleb128 0x1
 2629 10c7 50       		.byte	0x50
 2630 10c8 05       		.uleb128 0x5
 2631 10c9 03       		.byte	0x3
 2632 10ca 00000000 		.4byte	.LANCHOR5
 2633 10ce 2E       		.uleb128 0x2e
 2634 10cf 01       		.uleb128 0x1
 2635 10d0 51       		.byte	0x51
 2636 10d1 03       		.uleb128 0x3
 2637 10d2 0A       		.byte	0xa
 2638 10d3 9803     		.2byte	0x398
 2639 10d5 2E       		.uleb128 0x2e
 2640 10d6 01       		.uleb128 0x1
 2641 10d7 52       		.byte	0x52
 2642 10d8 02       		.uleb128 0x2
 2643 10d9 08       		.byte	0x8
 2644 10da 41       		.byte	0x41
 2645 10db 2E       		.uleb128 0x2e
 2646 10dc 01       		.uleb128 0x1
 2647 10dd 53       		.byte	0x53
 2648 10de 05       		.uleb128 0x5
 2649 10df 03       		.byte	0x3
 2650 10e0 00000000 		.4byte	cancom_read_thread
 2651 10e4 2E       		.uleb128 0x2e
 2652 10e5 02       		.uleb128 0x2
 2653 10e6 7D       		.byte	0x7d
 2654 10e7 00       		.sleb128 0
 2655 10e8 02       		.uleb128 0x2
 2656 10e9 74       		.byte	0x74
 2657 10ea 00       		.sleb128 0
 2658 10eb 00       		.byte	0
 2659 10ec 39       		.uleb128 0x39
ARM GAS  C:\Users\IDONNO~1\AppData\Local\Temp\cc96zqnk.s 			page 48


 2660 10ed 5A000000 		.4byte	.LVL28
 2661 10f1 6F130000 		.4byte	0x136f
 2662 10f5 20110000 		.4byte	0x1120
 2663 10f9 2E       		.uleb128 0x2e
 2664 10fa 01       		.uleb128 0x1
 2665 10fb 50       		.byte	0x50
 2666 10fc 05       		.uleb128 0x5
 2667 10fd 03       		.byte	0x3
 2668 10fe 00000000 		.4byte	.LANCHOR6
 2669 1102 2E       		.uleb128 0x2e
 2670 1103 01       		.uleb128 0x1
 2671 1104 51       		.byte	0x51
 2672 1105 03       		.uleb128 0x3
 2673 1106 0A       		.byte	0xa
 2674 1107 9805     		.2byte	0x598
 2675 1109 2E       		.uleb128 0x2e
 2676 110a 01       		.uleb128 0x1
 2677 110b 52       		.byte	0x52
 2678 110c 02       		.uleb128 0x2
 2679 110d 08       		.byte	0x8
 2680 110e 40       		.byte	0x40
 2681 110f 2E       		.uleb128 0x2e
 2682 1110 01       		.uleb128 0x1
 2683 1111 53       		.byte	0x53
 2684 1112 05       		.uleb128 0x5
 2685 1113 03       		.byte	0x3
 2686 1114 00000000 		.4byte	cancom_status_thread
 2687 1118 2E       		.uleb128 0x2e
 2688 1119 02       		.uleb128 0x2
 2689 111a 7D       		.byte	0x7d
 2690 111b 00       		.sleb128 0
 2691 111c 02       		.uleb128 0x2
 2692 111d 74       		.byte	0x74
 2693 111e 00       		.sleb128 0
 2694 111f 00       		.byte	0
 2695 1120 2D       		.uleb128 0x2d
 2696 1121 6A000000 		.4byte	.LVL29
 2697 1125 6F130000 		.4byte	0x136f
 2698 1129 2E       		.uleb128 0x2e
 2699 112a 01       		.uleb128 0x1
 2700 112b 50       		.byte	0x50
 2701 112c 05       		.uleb128 0x5
 2702 112d 03       		.byte	0x3
 2703 112e 00000000 		.4byte	.LANCHOR7
 2704 1132 2E       		.uleb128 0x2e
 2705 1133 01       		.uleb128 0x1
 2706 1134 51       		.byte	0x51
 2707 1135 03       		.uleb128 0x3
 2708 1136 0A       		.byte	0xa
 2709 1137 9811     		.2byte	0x1198
 2710 1139 2E       		.uleb128 0x2e
 2711 113a 01       		.uleb128 0x1
 2712 113b 52       		.byte	0x52
 2713 113c 02       		.uleb128 0x2
 2714 113d 08       		.byte	0x8
 2715 113e 40       		.byte	0x40
 2716 113f 2E       		.uleb128 0x2e
ARM GAS  C:\Users\IDONNO~1\AppData\Local\Temp\cc96zqnk.s 			page 49


 2717 1140 01       		.uleb128 0x1
 2718 1141 53       		.byte	0x53
 2719 1142 05       		.uleb128 0x5
 2720 1143 03       		.byte	0x3
 2721 1144 00000000 		.4byte	cancom_process_thread
 2722 1148 2E       		.uleb128 0x2e
 2723 1149 02       		.uleb128 0x2
 2724 114a 7D       		.byte	0x7d
 2725 114b 00       		.sleb128 0
 2726 114c 02       		.uleb128 0x2
 2727 114d 74       		.byte	0x74
 2728 114e 00       		.sleb128 0
 2729 114f 00       		.byte	0
 2730 1150 00       		.byte	0
 2731 1151 3A       		.uleb128 0x3a
 2732 1152 82060000 		.4byte	.LASF197
 2733 1156 01       		.byte	0x1
 2734 1157 BD       		.byte	0xbd
 2735 1158 00000000 		.4byte	.LFB260
 2736 115c 02000000 		.4byte	.LFE260-.LFB260
 2737 1160 01       		.uleb128 0x1
 2738 1161 9C       		.byte	0x9c
 2739 1162 8D110000 		.4byte	0x118d
 2740 1166 3B       		.uleb128 0x3b
 2741 1167 696400   		.ascii	"id\000"
 2742 116a 01       		.byte	0x1
 2743 116b BD       		.byte	0xbd
 2744 116c E9000000 		.4byte	0xe9
 2745 1170 01       		.uleb128 0x1
 2746 1171 50       		.byte	0x50
 2747 1172 3C       		.uleb128 0x3c
 2748 1173 1F050000 		.4byte	.LASF198
 2749 1177 01       		.byte	0x1
 2750 1178 BD       		.byte	0xbd
 2751 1179 2D0A0000 		.4byte	0xa2d
 2752 117d 01       		.uleb128 0x1
 2753 117e 51       		.byte	0x51
 2754 117f 3B       		.uleb128 0x3b
 2755 1180 6C656E00 		.ascii	"len\000"
 2756 1184 01       		.byte	0x1
 2757 1185 BD       		.byte	0xbd
 2758 1186 C8000000 		.4byte	0xc8
 2759 118a 01       		.uleb128 0x1
 2760 118b 52       		.byte	0x52
 2761 118c 00       		.byte	0
 2762 118d 3A       		.uleb128 0x3a
 2763 118e D3020000 		.4byte	.LASF199
 2764 1192 01       		.byte	0x1
 2765 1193 E3       		.byte	0xe3
 2766 1194 00000000 		.4byte	.LFB261
 2767 1198 02000000 		.4byte	.LFE261-.LFB261
 2768 119c 01       		.uleb128 0x1
 2769 119d 9C       		.byte	0x9c
 2770 119e E2110000 		.4byte	0x11e2
 2771 11a2 3C       		.uleb128 0x3c
 2772 11a3 A9050000 		.4byte	.LASF200
 2773 11a7 01       		.byte	0x1
ARM GAS  C:\Users\IDONNO~1\AppData\Local\Temp\cc96zqnk.s 			page 50


 2774 11a8 E3       		.byte	0xe3
 2775 11a9 C8000000 		.4byte	0xc8
 2776 11ad 01       		.uleb128 0x1
 2777 11ae 50       		.byte	0x50
 2778 11af 3C       		.uleb128 0x3c
 2779 11b0 1F050000 		.4byte	.LASF198
 2780 11b4 01       		.byte	0x1
 2781 11b5 E3       		.byte	0xe3
 2782 11b6 2D0A0000 		.4byte	0xa2d
 2783 11ba 01       		.uleb128 0x1
 2784 11bb 51       		.byte	0x51
 2785 11bc 3B       		.uleb128 0x3b
 2786 11bd 6C656E00 		.ascii	"len\000"
 2787 11c1 01       		.byte	0x1
 2788 11c2 E3       		.byte	0xe3
 2789 11c3 37000000 		.4byte	0x37
 2790 11c7 01       		.uleb128 0x1
 2791 11c8 52       		.byte	0x52
 2792 11c9 3C       		.uleb128 0x3c
 2793 11ca A1010000 		.4byte	.LASF201
 2794 11ce 01       		.byte	0x1
 2795 11cf E3       		.byte	0xe3
 2796 11d0 330A0000 		.4byte	0xa33
 2797 11d4 01       		.uleb128 0x1
 2798 11d5 53       		.byte	0x53
 2799 11d6 2A       		.uleb128 0x2a
 2800 11d7 76060000 		.4byte	.LASF202
 2801 11db 01       		.byte	0x1
 2802 11dc E5       		.byte	0xe5
 2803 11dd 550B0000 		.4byte	0xb55
 2804 11e1 00       		.byte	0
 2805 11e2 11       		.uleb128 0x11
 2806 11e3 2E070000 		.4byte	0x72e
 2807 11e7 F2110000 		.4byte	0x11f2
 2808 11eb 12       		.uleb128 0x12
 2809 11ec AD000000 		.4byte	0xad
 2810 11f0 72       		.byte	0x72
 2811 11f1 00       		.byte	0
 2812 11f2 33       		.uleb128 0x33
 2813 11f3 3E080000 		.4byte	.LASF203
 2814 11f7 01       		.byte	0x1
 2815 11f8 2F       		.byte	0x2f
 2816 11f9 E2110000 		.4byte	0x11e2
 2817 11fd 05       		.uleb128 0x5
 2818 11fe 03       		.byte	0x3
 2819 11ff 00000000 		.4byte	cancom_read_thread_wa
 2820 1203 11       		.uleb128 0x11
 2821 1204 2E070000 		.4byte	0x72e
 2822 1208 14120000 		.4byte	0x1214
 2823 120c 3D       		.uleb128 0x3d
 2824 120d AD000000 		.4byte	0xad
 2825 1211 3202     		.2byte	0x232
 2826 1213 00       		.byte	0
 2827 1214 33       		.uleb128 0x33
 2828 1215 6E000000 		.4byte	.LASF204
 2829 1219 01       		.byte	0x1
 2830 121a 30       		.byte	0x30
ARM GAS  C:\Users\IDONNO~1\AppData\Local\Temp\cc96zqnk.s 			page 51


 2831 121b 03120000 		.4byte	0x1203
 2832 121f 05       		.uleb128 0x5
 2833 1220 03       		.byte	0x3
 2834 1221 00000000 		.4byte	cancom_process_thread_wa
 2835 1225 11       		.uleb128 0x11
 2836 1226 2E070000 		.4byte	0x72e
 2837 122a 35120000 		.4byte	0x1235
 2838 122e 12       		.uleb128 0x12
 2839 122f AD000000 		.4byte	0xad
 2840 1233 B2       		.byte	0xb2
 2841 1234 00       		.byte	0
 2842 1235 33       		.uleb128 0x33
 2843 1236 0A060000 		.4byte	.LASF205
 2844 123a 01       		.byte	0x1
 2845 123b 31       		.byte	0x31
 2846 123c 25120000 		.4byte	0x1225
 2847 1240 05       		.uleb128 0x5
 2848 1241 03       		.byte	0x3
 2849 1242 00000000 		.4byte	cancom_status_thread_wa
 2850 1246 33       		.uleb128 0x33
 2851 1247 1D090000 		.4byte	.LASF206
 2852 124b 01       		.byte	0x1
 2853 124c 38       		.byte	0x38
 2854 124d 9E090000 		.4byte	0x99e
 2855 1251 05       		.uleb128 0x5
 2856 1252 03       		.byte	0x3
 2857 1253 00000000 		.4byte	can_mtx
 2858 1257 11       		.uleb128 0x11
 2859 1258 C8000000 		.4byte	0xc8
 2860 125c 68120000 		.4byte	0x1268
 2861 1260 3D       		.uleb128 0x3d
 2862 1261 AD000000 		.4byte	0xad
 2863 1265 FF03     		.2byte	0x3ff
 2864 1267 00       		.byte	0
 2865 1268 2A       		.uleb128 0x2a
 2866 1269 3F090000 		.4byte	.LASF207
 2867 126d 01       		.byte	0x1
 2868 126e 39       		.byte	0x39
 2869 126f 57120000 		.4byte	0x1257
 2870 1273 2A       		.uleb128 0x2a
 2871 1274 DD0A0000 		.4byte	.LASF208
 2872 1278 01       		.byte	0x1
 2873 1279 3A       		.byte	0x3a
 2874 127a 37000000 		.4byte	0x37
 2875 127e 11       		.uleb128 0x11
 2876 127f 5A0C0000 		.4byte	0xc5a
 2877 1283 8E120000 		.4byte	0x128e
 2878 1287 12       		.uleb128 0x12
 2879 1288 AD000000 		.4byte	0xad
 2880 128c 63       		.byte	0x63
 2881 128d 00       		.byte	0
 2882 128e 2A       		.uleb128 0x2a
 2883 128f DD010000 		.4byte	.LASF209
 2884 1293 01       		.byte	0x1
 2885 1294 3B       		.byte	0x3b
 2886 1295 7E120000 		.4byte	0x127e
 2887 1299 33       		.uleb128 0x33
ARM GAS  C:\Users\IDONNO~1\AppData\Local\Temp\cc96zqnk.s 			page 52


 2888 129a BD0A0000 		.4byte	.LASF210
 2889 129e 01       		.byte	0x1
 2890 129f 3C       		.byte	0x3c
 2891 12a0 25000000 		.4byte	0x25
 2892 12a4 05       		.uleb128 0x5
 2893 12a5 03       		.byte	0x3
 2894 12a6 00000000 		.4byte	rx_frame_read
 2895 12aa 33       		.uleb128 0x33
 2896 12ab A6010000 		.4byte	.LASF211
 2897 12af 01       		.byte	0x1
 2898 12b0 3D       		.byte	0x3d
 2899 12b1 25000000 		.4byte	0x25
 2900 12b5 05       		.uleb128 0x5
 2901 12b6 03       		.byte	0x3
 2902 12b7 00000000 		.4byte	rx_frame_write
 2903 12bb 33       		.uleb128 0x33
 2904 12bc ED070000 		.4byte	.LASF212
 2905 12c0 01       		.byte	0x1
 2906 12c1 3E       		.byte	0x3e
 2907 12c2 A8020000 		.4byte	0x2a8
 2908 12c6 05       		.uleb128 0x5
 2909 12c7 03       		.byte	0x3
 2910 12c8 00000000 		.4byte	process_tp
 2911 12cc 33       		.uleb128 0x33
 2912 12cd 5C010000 		.4byte	.LASF213
 2913 12d1 01       		.byte	0x1
 2914 12d2 45       		.byte	0x45
 2915 12d3 250D0000 		.4byte	0xd25
 2916 12d7 05       		.uleb128 0x5
 2917 12d8 03       		.byte	0x3
 2918 12d9 00000000 		.4byte	cancfg
 2919 12dd 3E       		.uleb128 0x3e
 2920 12de 54080000 		.4byte	.LASF214
 2921 12e2 14       		.byte	0x14
 2922 12e3 A706     		.2byte	0x6a7
 2923 12e5 FF000000 		.4byte	0xff
 2924 12e9 3F       		.uleb128 0x3f
 2925 12ea 636800   		.ascii	"ch\000"
 2926 12ed 0A       		.byte	0xa
 2927 12ee 0902     		.2byte	0x209
 2928 12f0 52040000 		.4byte	0x452
 2929 12f4 3E       		.uleb128 0x3e
 2930 12f5 40060000 		.4byte	.LASF215
 2931 12f9 13       		.byte	0x13
 2932 12fa 4B01     		.2byte	0x14b
 2933 12fc 300D0000 		.4byte	0xd30
 2934 1300 40       		.uleb128 0x40
 2935 1301 CB080000 		.4byte	.LASF216
 2936 1305 CB080000 		.4byte	.LASF216
 2937 1309 03       		.byte	0x3
 2938 130a 8B       		.byte	0x8b
 2939 130b 40       		.uleb128 0x40
 2940 130c 9B090000 		.4byte	.LASF217
 2941 1310 9B090000 		.4byte	.LASF217
 2942 1314 04       		.byte	0x4
 2943 1315 96       		.byte	0x96
 2944 1316 40       		.uleb128 0x40
ARM GAS  C:\Users\IDONNO~1\AppData\Local\Temp\cc96zqnk.s 			page 53


 2945 1317 640A0000 		.4byte	.LASF218
 2946 131b 640A0000 		.4byte	.LASF218
 2947 131f 03       		.byte	0x3
 2948 1320 7B       		.byte	0x7b
 2949 1321 40       		.uleb128 0x40
 2950 1322 02080000 		.4byte	.LASF219
 2951 1326 02080000 		.4byte	.LASF219
 2952 132a 03       		.byte	0x3
 2953 132b 90       		.byte	0x90
 2954 132c 40       		.uleb128 0x40
 2955 132d E3060000 		.4byte	.LASF220
 2956 1331 E3060000 		.4byte	.LASF220
 2957 1335 12       		.byte	0x12
 2958 1336 86       		.byte	0x86
 2959 1337 40       		.uleb128 0x40
 2960 1338 BB090000 		.4byte	.LASF221
 2961 133c BB090000 		.4byte	.LASF221
 2962 1340 03       		.byte	0x3
 2963 1341 84       		.byte	0x84
 2964 1342 40       		.uleb128 0x40
 2965 1343 28060000 		.4byte	.LASF222
 2966 1347 28060000 		.4byte	.LASF222
 2967 134b 03       		.byte	0x3
 2968 134c 7F       		.byte	0x7f
 2969 134d 40       		.uleb128 0x40
 2970 134e 9F020000 		.4byte	.LASF223
 2971 1352 9F020000 		.4byte	.LASF223
 2972 1356 10       		.byte	0x10
 2973 1357 67       		.byte	0x67
 2974 1358 41       		.uleb128 0x41
 2975 1359 E9090000 		.4byte	.LASF224
 2976 135d E9090000 		.4byte	.LASF224
 2977 1361 11       		.byte	0x11
 2978 1362 E001     		.2byte	0x1e0
 2979 1364 40       		.uleb128 0x40
 2980 1365 46010000 		.4byte	.LASF225
 2981 1369 46010000 		.4byte	.LASF225
 2982 136d 12       		.byte	0x12
 2983 136e 80       		.byte	0x80
 2984 136f 40       		.uleb128 0x40
 2985 1370 05070000 		.4byte	.LASF226
 2986 1374 05070000 		.4byte	.LASF226
 2987 1378 04       		.byte	0x4
 2988 1379 89       		.byte	0x89
 2989 137a 00       		.byte	0
 2990              		.section	.debug_abbrev,"",%progbits
 2991              	.Ldebug_abbrev0:
 2992 0000 01       		.uleb128 0x1
 2993 0001 11       		.uleb128 0x11
 2994 0002 01       		.byte	0x1
 2995 0003 25       		.uleb128 0x25
 2996 0004 0E       		.uleb128 0xe
 2997 0005 13       		.uleb128 0x13
 2998 0006 0B       		.uleb128 0xb
 2999 0007 03       		.uleb128 0x3
 3000 0008 0E       		.uleb128 0xe
 3001 0009 1B       		.uleb128 0x1b
ARM GAS  C:\Users\IDONNO~1\AppData\Local\Temp\cc96zqnk.s 			page 54


 3002 000a 0E       		.uleb128 0xe
 3003 000b 55       		.uleb128 0x55
 3004 000c 17       		.uleb128 0x17
 3005 000d 11       		.uleb128 0x11
 3006 000e 01       		.uleb128 0x1
 3007 000f 10       		.uleb128 0x10
 3008 0010 17       		.uleb128 0x17
 3009 0011 00       		.byte	0
 3010 0012 00       		.byte	0
 3011 0013 02       		.uleb128 0x2
 3012 0014 24       		.uleb128 0x24
 3013 0015 00       		.byte	0
 3014 0016 0B       		.uleb128 0xb
 3015 0017 0B       		.uleb128 0xb
 3016 0018 3E       		.uleb128 0x3e
 3017 0019 0B       		.uleb128 0xb
 3018 001a 03       		.uleb128 0x3
 3019 001b 08       		.uleb128 0x8
 3020 001c 00       		.byte	0
 3021 001d 00       		.byte	0
 3022 001e 03       		.uleb128 0x3
 3023 001f 16       		.uleb128 0x16
 3024 0020 00       		.byte	0
 3025 0021 03       		.uleb128 0x3
 3026 0022 0E       		.uleb128 0xe
 3027 0023 3A       		.uleb128 0x3a
 3028 0024 0B       		.uleb128 0xb
 3029 0025 3B       		.uleb128 0x3b
 3030 0026 0B       		.uleb128 0xb
 3031 0027 49       		.uleb128 0x49
 3032 0028 13       		.uleb128 0x13
 3033 0029 00       		.byte	0
 3034 002a 00       		.byte	0
 3035 002b 04       		.uleb128 0x4
 3036 002c 24       		.uleb128 0x24
 3037 002d 00       		.byte	0
 3038 002e 0B       		.uleb128 0xb
 3039 002f 0B       		.uleb128 0xb
 3040 0030 3E       		.uleb128 0x3e
 3041 0031 0B       		.uleb128 0xb
 3042 0032 03       		.uleb128 0x3
 3043 0033 0E       		.uleb128 0xe
 3044 0034 00       		.byte	0
 3045 0035 00       		.byte	0
 3046 0036 05       		.uleb128 0x5
 3047 0037 0F       		.uleb128 0xf
 3048 0038 00       		.byte	0
 3049 0039 0B       		.uleb128 0xb
 3050 003a 0B       		.uleb128 0xb
 3051 003b 00       		.byte	0
 3052 003c 00       		.byte	0
 3053 003d 06       		.uleb128 0x6
 3054 003e 0F       		.uleb128 0xf
 3055 003f 00       		.byte	0
 3056 0040 0B       		.uleb128 0xb
 3057 0041 0B       		.uleb128 0xb
 3058 0042 49       		.uleb128 0x49
ARM GAS  C:\Users\IDONNO~1\AppData\Local\Temp\cc96zqnk.s 			page 55


 3059 0043 13       		.uleb128 0x13
 3060 0044 00       		.byte	0
 3061 0045 00       		.byte	0
 3062 0046 07       		.uleb128 0x7
 3063 0047 26       		.uleb128 0x26
 3064 0048 00       		.byte	0
 3065 0049 49       		.uleb128 0x49
 3066 004a 13       		.uleb128 0x13
 3067 004b 00       		.byte	0
 3068 004c 00       		.byte	0
 3069 004d 08       		.uleb128 0x8
 3070 004e 35       		.uleb128 0x35
 3071 004f 00       		.byte	0
 3072 0050 49       		.uleb128 0x49
 3073 0051 13       		.uleb128 0x13
 3074 0052 00       		.byte	0
 3075 0053 00       		.byte	0
 3076 0054 09       		.uleb128 0x9
 3077 0055 13       		.uleb128 0x13
 3078 0056 01       		.byte	0x1
 3079 0057 03       		.uleb128 0x3
 3080 0058 0E       		.uleb128 0xe
 3081 0059 0B       		.uleb128 0xb
 3082 005a 0B       		.uleb128 0xb
 3083 005b 3A       		.uleb128 0x3a
 3084 005c 0B       		.uleb128 0xb
 3085 005d 3B       		.uleb128 0x3b
 3086 005e 0B       		.uleb128 0xb
 3087 005f 01       		.uleb128 0x1
 3088 0060 13       		.uleb128 0x13
 3089 0061 00       		.byte	0
 3090 0062 00       		.byte	0
 3091 0063 0A       		.uleb128 0xa
 3092 0064 0D       		.uleb128 0xd
 3093 0065 00       		.byte	0
 3094 0066 03       		.uleb128 0x3
 3095 0067 0E       		.uleb128 0xe
 3096 0068 3A       		.uleb128 0x3a
 3097 0069 0B       		.uleb128 0xb
 3098 006a 3B       		.uleb128 0x3b
 3099 006b 0B       		.uleb128 0xb
 3100 006c 49       		.uleb128 0x49
 3101 006d 13       		.uleb128 0x13
 3102 006e 38       		.uleb128 0x38
 3103 006f 0B       		.uleb128 0xb
 3104 0070 00       		.byte	0
 3105 0071 00       		.byte	0
 3106 0072 0B       		.uleb128 0xb
 3107 0073 0D       		.uleb128 0xd
 3108 0074 00       		.byte	0
 3109 0075 03       		.uleb128 0x3
 3110 0076 08       		.uleb128 0x8
 3111 0077 3A       		.uleb128 0x3a
 3112 0078 0B       		.uleb128 0xb
 3113 0079 3B       		.uleb128 0x3b
 3114 007a 05       		.uleb128 0x5
 3115 007b 49       		.uleb128 0x49
ARM GAS  C:\Users\IDONNO~1\AppData\Local\Temp\cc96zqnk.s 			page 56


 3116 007c 13       		.uleb128 0x13
 3117 007d 38       		.uleb128 0x38
 3118 007e 0B       		.uleb128 0xb
 3119 007f 00       		.byte	0
 3120 0080 00       		.byte	0
 3121 0081 0C       		.uleb128 0xc
 3122 0082 0D       		.uleb128 0xd
 3123 0083 00       		.byte	0
 3124 0084 03       		.uleb128 0x3
 3125 0085 0E       		.uleb128 0xe
 3126 0086 3A       		.uleb128 0x3a
 3127 0087 0B       		.uleb128 0xb
 3128 0088 3B       		.uleb128 0x3b
 3129 0089 05       		.uleb128 0x5
 3130 008a 49       		.uleb128 0x49
 3131 008b 13       		.uleb128 0x13
 3132 008c 38       		.uleb128 0x38
 3133 008d 0B       		.uleb128 0xb
 3134 008e 00       		.byte	0
 3135 008f 00       		.byte	0
 3136 0090 0D       		.uleb128 0xd
 3137 0091 13       		.uleb128 0x13
 3138 0092 01       		.byte	0x1
 3139 0093 03       		.uleb128 0x3
 3140 0094 0E       		.uleb128 0xe
 3141 0095 0B       		.uleb128 0xb
 3142 0096 0B       		.uleb128 0xb
 3143 0097 3A       		.uleb128 0x3a
 3144 0098 0B       		.uleb128 0xb
 3145 0099 3B       		.uleb128 0x3b
 3146 009a 05       		.uleb128 0x5
 3147 009b 01       		.uleb128 0x1
 3148 009c 13       		.uleb128 0x13
 3149 009d 00       		.byte	0
 3150 009e 00       		.byte	0
 3151 009f 0E       		.uleb128 0xe
 3152 00a0 15       		.uleb128 0x15
 3153 00a1 01       		.byte	0x1
 3154 00a2 27       		.uleb128 0x27
 3155 00a3 19       		.uleb128 0x19
 3156 00a4 01       		.uleb128 0x1
 3157 00a5 13       		.uleb128 0x13
 3158 00a6 00       		.byte	0
 3159 00a7 00       		.byte	0
 3160 00a8 0F       		.uleb128 0xf
 3161 00a9 05       		.uleb128 0x5
 3162 00aa 00       		.byte	0
 3163 00ab 49       		.uleb128 0x49
 3164 00ac 13       		.uleb128 0x13
 3165 00ad 00       		.byte	0
 3166 00ae 00       		.byte	0
 3167 00af 10       		.uleb128 0x10
 3168 00b0 13       		.uleb128 0x13
 3169 00b1 01       		.byte	0x1
 3170 00b2 03       		.uleb128 0x3
 3171 00b3 0E       		.uleb128 0xe
 3172 00b4 0B       		.uleb128 0xb
ARM GAS  C:\Users\IDONNO~1\AppData\Local\Temp\cc96zqnk.s 			page 57


 3173 00b5 05       		.uleb128 0x5
 3174 00b6 3A       		.uleb128 0x3a
 3175 00b7 0B       		.uleb128 0xb
 3176 00b8 3B       		.uleb128 0x3b
 3177 00b9 05       		.uleb128 0x5
 3178 00ba 01       		.uleb128 0x1
 3179 00bb 13       		.uleb128 0x13
 3180 00bc 00       		.byte	0
 3181 00bd 00       		.byte	0
 3182 00be 11       		.uleb128 0x11
 3183 00bf 01       		.uleb128 0x1
 3184 00c0 01       		.byte	0x1
 3185 00c1 49       		.uleb128 0x49
 3186 00c2 13       		.uleb128 0x13
 3187 00c3 01       		.uleb128 0x1
 3188 00c4 13       		.uleb128 0x13
 3189 00c5 00       		.byte	0
 3190 00c6 00       		.byte	0
 3191 00c7 12       		.uleb128 0x12
 3192 00c8 21       		.uleb128 0x21
 3193 00c9 00       		.byte	0
 3194 00ca 49       		.uleb128 0x49
 3195 00cb 13       		.uleb128 0x13
 3196 00cc 2F       		.uleb128 0x2f
 3197 00cd 0B       		.uleb128 0xb
 3198 00ce 00       		.byte	0
 3199 00cf 00       		.byte	0
 3200 00d0 13       		.uleb128 0x13
 3201 00d1 13       		.uleb128 0x13
 3202 00d2 01       		.byte	0x1
 3203 00d3 0B       		.uleb128 0xb
 3204 00d4 0B       		.uleb128 0xb
 3205 00d5 3A       		.uleb128 0x3a
 3206 00d6 0B       		.uleb128 0xb
 3207 00d7 3B       		.uleb128 0x3b
 3208 00d8 0B       		.uleb128 0xb
 3209 00d9 01       		.uleb128 0x1
 3210 00da 13       		.uleb128 0x13
 3211 00db 00       		.byte	0
 3212 00dc 00       		.byte	0
 3213 00dd 14       		.uleb128 0x14
 3214 00de 0D       		.uleb128 0xd
 3215 00df 00       		.byte	0
 3216 00e0 03       		.uleb128 0x3
 3217 00e1 08       		.uleb128 0x8
 3218 00e2 3A       		.uleb128 0x3a
 3219 00e3 0B       		.uleb128 0xb
 3220 00e4 3B       		.uleb128 0x3b
 3221 00e5 0B       		.uleb128 0xb
 3222 00e6 49       		.uleb128 0x49
 3223 00e7 13       		.uleb128 0x13
 3224 00e8 38       		.uleb128 0x38
 3225 00e9 0B       		.uleb128 0xb
 3226 00ea 00       		.byte	0
 3227 00eb 00       		.byte	0
 3228 00ec 15       		.uleb128 0x15
 3229 00ed 13       		.uleb128 0x13
ARM GAS  C:\Users\IDONNO~1\AppData\Local\Temp\cc96zqnk.s 			page 58


 3230 00ee 01       		.byte	0x1
 3231 00ef 0B       		.uleb128 0xb
 3232 00f0 0B       		.uleb128 0xb
 3233 00f1 3A       		.uleb128 0x3a
 3234 00f2 0B       		.uleb128 0xb
 3235 00f3 3B       		.uleb128 0x3b
 3236 00f4 05       		.uleb128 0x5
 3237 00f5 01       		.uleb128 0x1
 3238 00f6 13       		.uleb128 0x13
 3239 00f7 00       		.byte	0
 3240 00f8 00       		.byte	0
 3241 00f9 16       		.uleb128 0x16
 3242 00fa 16       		.uleb128 0x16
 3243 00fb 00       		.byte	0
 3244 00fc 03       		.uleb128 0x3
 3245 00fd 0E       		.uleb128 0xe
 3246 00fe 3A       		.uleb128 0x3a
 3247 00ff 0B       		.uleb128 0xb
 3248 0100 3B       		.uleb128 0x3b
 3249 0101 05       		.uleb128 0x5
 3250 0102 49       		.uleb128 0x49
 3251 0103 13       		.uleb128 0x13
 3252 0104 00       		.byte	0
 3253 0105 00       		.byte	0
 3254 0106 17       		.uleb128 0x17
 3255 0107 13       		.uleb128 0x13
 3256 0108 01       		.byte	0x1
 3257 0109 0B       		.uleb128 0xb
 3258 010a 05       		.uleb128 0x5
 3259 010b 3A       		.uleb128 0x3a
 3260 010c 0B       		.uleb128 0xb
 3261 010d 3B       		.uleb128 0x3b
 3262 010e 05       		.uleb128 0x5
 3263 010f 01       		.uleb128 0x1
 3264 0110 13       		.uleb128 0x13
 3265 0111 00       		.byte	0
 3266 0112 00       		.byte	0
 3267 0113 18       		.uleb128 0x18
 3268 0114 0D       		.uleb128 0xd
 3269 0115 00       		.byte	0
 3270 0116 03       		.uleb128 0x3
 3271 0117 0E       		.uleb128 0xe
 3272 0118 3A       		.uleb128 0x3a
 3273 0119 0B       		.uleb128 0xb
 3274 011a 3B       		.uleb128 0x3b
 3275 011b 05       		.uleb128 0x5
 3276 011c 49       		.uleb128 0x49
 3277 011d 13       		.uleb128 0x13
 3278 011e 38       		.uleb128 0x38
 3279 011f 05       		.uleb128 0x5
 3280 0120 00       		.byte	0
 3281 0121 00       		.byte	0
 3282 0122 19       		.uleb128 0x19
 3283 0123 0D       		.uleb128 0xd
 3284 0124 00       		.byte	0
 3285 0125 03       		.uleb128 0x3
 3286 0126 08       		.uleb128 0x8
ARM GAS  C:\Users\IDONNO~1\AppData\Local\Temp\cc96zqnk.s 			page 59


 3287 0127 3A       		.uleb128 0x3a
 3288 0128 0B       		.uleb128 0xb
 3289 0129 3B       		.uleb128 0x3b
 3290 012a 05       		.uleb128 0x5
 3291 012b 49       		.uleb128 0x49
 3292 012c 13       		.uleb128 0x13
 3293 012d 38       		.uleb128 0x38
 3294 012e 05       		.uleb128 0x5
 3295 012f 00       		.byte	0
 3296 0130 00       		.byte	0
 3297 0131 1A       		.uleb128 0x1a
 3298 0132 17       		.uleb128 0x17
 3299 0133 01       		.byte	0x1
 3300 0134 0B       		.uleb128 0xb
 3301 0135 0B       		.uleb128 0xb
 3302 0136 3A       		.uleb128 0x3a
 3303 0137 0B       		.uleb128 0xb
 3304 0138 3B       		.uleb128 0x3b
 3305 0139 0B       		.uleb128 0xb
 3306 013a 01       		.uleb128 0x1
 3307 013b 13       		.uleb128 0x13
 3308 013c 00       		.byte	0
 3309 013d 00       		.byte	0
 3310 013e 1B       		.uleb128 0x1b
 3311 013f 0D       		.uleb128 0xd
 3312 0140 00       		.byte	0
 3313 0141 03       		.uleb128 0x3
 3314 0142 0E       		.uleb128 0xe
 3315 0143 3A       		.uleb128 0x3a
 3316 0144 0B       		.uleb128 0xb
 3317 0145 3B       		.uleb128 0x3b
 3318 0146 05       		.uleb128 0x5
 3319 0147 49       		.uleb128 0x49
 3320 0148 13       		.uleb128 0x13
 3321 0149 00       		.byte	0
 3322 014a 00       		.byte	0
 3323 014b 1C       		.uleb128 0x1c
 3324 014c 0D       		.uleb128 0xd
 3325 014d 00       		.byte	0
 3326 014e 03       		.uleb128 0x3
 3327 014f 08       		.uleb128 0x8
 3328 0150 3A       		.uleb128 0x3a
 3329 0151 0B       		.uleb128 0xb
 3330 0152 3B       		.uleb128 0x3b
 3331 0153 0B       		.uleb128 0xb
 3332 0154 49       		.uleb128 0x49
 3333 0155 13       		.uleb128 0x13
 3334 0156 00       		.byte	0
 3335 0157 00       		.byte	0
 3336 0158 1D       		.uleb128 0x1d
 3337 0159 04       		.uleb128 0x4
 3338 015a 01       		.byte	0x1
 3339 015b 0B       		.uleb128 0xb
 3340 015c 0B       		.uleb128 0xb
 3341 015d 49       		.uleb128 0x49
 3342 015e 13       		.uleb128 0x13
 3343 015f 3A       		.uleb128 0x3a
ARM GAS  C:\Users\IDONNO~1\AppData\Local\Temp\cc96zqnk.s 			page 60


 3344 0160 0B       		.uleb128 0xb
 3345 0161 3B       		.uleb128 0x3b
 3346 0162 0B       		.uleb128 0xb
 3347 0163 01       		.uleb128 0x1
 3348 0164 13       		.uleb128 0x13
 3349 0165 00       		.byte	0
 3350 0166 00       		.byte	0
 3351 0167 1E       		.uleb128 0x1e
 3352 0168 28       		.uleb128 0x28
 3353 0169 00       		.byte	0
 3354 016a 03       		.uleb128 0x3
 3355 016b 0E       		.uleb128 0xe
 3356 016c 1C       		.uleb128 0x1c
 3357 016d 0B       		.uleb128 0xb
 3358 016e 00       		.byte	0
 3359 016f 00       		.byte	0
 3360 0170 1F       		.uleb128 0x1f
 3361 0171 0D       		.uleb128 0xd
 3362 0172 00       		.byte	0
 3363 0173 03       		.uleb128 0x3
 3364 0174 08       		.uleb128 0x8
 3365 0175 3A       		.uleb128 0x3a
 3366 0176 0B       		.uleb128 0xb
 3367 0177 3B       		.uleb128 0x3b
 3368 0178 0B       		.uleb128 0xb
 3369 0179 49       		.uleb128 0x49
 3370 017a 13       		.uleb128 0x13
 3371 017b 0B       		.uleb128 0xb
 3372 017c 0B       		.uleb128 0xb
 3373 017d 0D       		.uleb128 0xd
 3374 017e 0B       		.uleb128 0xb
 3375 017f 0C       		.uleb128 0xc
 3376 0180 0B       		.uleb128 0xb
 3377 0181 38       		.uleb128 0x38
 3378 0182 0B       		.uleb128 0xb
 3379 0183 00       		.byte	0
 3380 0184 00       		.byte	0
 3381 0185 20       		.uleb128 0x20
 3382 0186 0D       		.uleb128 0xd
 3383 0187 00       		.byte	0
 3384 0188 49       		.uleb128 0x49
 3385 0189 13       		.uleb128 0x13
 3386 018a 00       		.byte	0
 3387 018b 00       		.byte	0
 3388 018c 21       		.uleb128 0x21
 3389 018d 0D       		.uleb128 0xd
 3390 018e 00       		.byte	0
 3391 018f 03       		.uleb128 0x3
 3392 0190 0E       		.uleb128 0xe
 3393 0191 3A       		.uleb128 0x3a
 3394 0192 0B       		.uleb128 0xb
 3395 0193 3B       		.uleb128 0x3b
 3396 0194 0B       		.uleb128 0xb
 3397 0195 49       		.uleb128 0x49
 3398 0196 13       		.uleb128 0x13
 3399 0197 00       		.byte	0
 3400 0198 00       		.byte	0
ARM GAS  C:\Users\IDONNO~1\AppData\Local\Temp\cc96zqnk.s 			page 61


 3401 0199 22       		.uleb128 0x22
 3402 019a 0D       		.uleb128 0xd
 3403 019b 00       		.byte	0
 3404 019c 49       		.uleb128 0x49
 3405 019d 13       		.uleb128 0x13
 3406 019e 38       		.uleb128 0x38
 3407 019f 0B       		.uleb128 0xb
 3408 01a0 00       		.byte	0
 3409 01a1 00       		.byte	0
 3410 01a2 23       		.uleb128 0x23
 3411 01a3 2E       		.uleb128 0x2e
 3412 01a4 00       		.byte	0
 3413 01a5 03       		.uleb128 0x3
 3414 01a6 0E       		.uleb128 0xe
 3415 01a7 3A       		.uleb128 0x3a
 3416 01a8 0B       		.uleb128 0xb
 3417 01a9 3B       		.uleb128 0x3b
 3418 01aa 0B       		.uleb128 0xb
 3419 01ab 27       		.uleb128 0x27
 3420 01ac 19       		.uleb128 0x19
 3421 01ad 49       		.uleb128 0x49
 3422 01ae 13       		.uleb128 0x13
 3423 01af 20       		.uleb128 0x20
 3424 01b0 0B       		.uleb128 0xb
 3425 01b1 00       		.byte	0
 3426 01b2 00       		.byte	0
 3427 01b3 24       		.uleb128 0x24
 3428 01b4 2E       		.uleb128 0x2e
 3429 01b5 01       		.byte	0x1
 3430 01b6 03       		.uleb128 0x3
 3431 01b7 0E       		.uleb128 0xe
 3432 01b8 3A       		.uleb128 0x3a
 3433 01b9 0B       		.uleb128 0xb
 3434 01ba 3B       		.uleb128 0x3b
 3435 01bb 0B       		.uleb128 0xb
 3436 01bc 27       		.uleb128 0x27
 3437 01bd 19       		.uleb128 0x19
 3438 01be 20       		.uleb128 0x20
 3439 01bf 0B       		.uleb128 0xb
 3440 01c0 01       		.uleb128 0x1
 3441 01c1 13       		.uleb128 0x13
 3442 01c2 00       		.byte	0
 3443 01c3 00       		.byte	0
 3444 01c4 25       		.uleb128 0x25
 3445 01c5 05       		.uleb128 0x5
 3446 01c6 00       		.byte	0
 3447 01c7 03       		.uleb128 0x3
 3448 01c8 0E       		.uleb128 0xe
 3449 01c9 3A       		.uleb128 0x3a
 3450 01ca 0B       		.uleb128 0xb
 3451 01cb 3B       		.uleb128 0x3b
 3452 01cc 0B       		.uleb128 0xb
 3453 01cd 49       		.uleb128 0x49
 3454 01ce 13       		.uleb128 0x13
 3455 01cf 00       		.byte	0
 3456 01d0 00       		.byte	0
 3457 01d1 26       		.uleb128 0x26
ARM GAS  C:\Users\IDONNO~1\AppData\Local\Temp\cc96zqnk.s 			page 62


 3458 01d2 05       		.uleb128 0x5
 3459 01d3 00       		.byte	0
 3460 01d4 03       		.uleb128 0x3
 3461 01d5 08       		.uleb128 0x8
 3462 01d6 3A       		.uleb128 0x3a
 3463 01d7 0B       		.uleb128 0xb
 3464 01d8 3B       		.uleb128 0x3b
 3465 01d9 0B       		.uleb128 0xb
 3466 01da 49       		.uleb128 0x49
 3467 01db 13       		.uleb128 0x13
 3468 01dc 00       		.byte	0
 3469 01dd 00       		.byte	0
 3470 01de 27       		.uleb128 0x27
 3471 01df 2E       		.uleb128 0x2e
 3472 01e0 01       		.byte	0x1
 3473 01e1 03       		.uleb128 0x3
 3474 01e2 0E       		.uleb128 0xe
 3475 01e3 3A       		.uleb128 0x3a
 3476 01e4 0B       		.uleb128 0xb
 3477 01e5 3B       		.uleb128 0x3b
 3478 01e6 0B       		.uleb128 0xb
 3479 01e7 27       		.uleb128 0x27
 3480 01e8 19       		.uleb128 0x19
 3481 01e9 8701     		.uleb128 0x87
 3482 01eb 19       		.uleb128 0x19
 3483 01ec 11       		.uleb128 0x11
 3484 01ed 01       		.uleb128 0x1
 3485 01ee 12       		.uleb128 0x12
 3486 01ef 06       		.uleb128 0x6
 3487 01f0 40       		.uleb128 0x40
 3488 01f1 18       		.uleb128 0x18
 3489 01f2 9742     		.uleb128 0x2117
 3490 01f4 19       		.uleb128 0x19
 3491 01f5 01       		.uleb128 0x1
 3492 01f6 13       		.uleb128 0x13
 3493 01f7 00       		.byte	0
 3494 01f8 00       		.byte	0
 3495 01f9 28       		.uleb128 0x28
 3496 01fa 05       		.uleb128 0x5
 3497 01fb 00       		.byte	0
 3498 01fc 03       		.uleb128 0x3
 3499 01fd 08       		.uleb128 0x8
 3500 01fe 3A       		.uleb128 0x3a
 3501 01ff 0B       		.uleb128 0xb
 3502 0200 3B       		.uleb128 0x3b
 3503 0201 0B       		.uleb128 0xb
 3504 0202 49       		.uleb128 0x49
 3505 0203 13       		.uleb128 0x13
 3506 0204 02       		.uleb128 0x2
 3507 0205 17       		.uleb128 0x17
 3508 0206 00       		.byte	0
 3509 0207 00       		.byte	0
 3510 0208 29       		.uleb128 0x29
 3511 0209 34       		.uleb128 0x34
 3512 020a 00       		.byte	0
 3513 020b 03       		.uleb128 0x3
 3514 020c 08       		.uleb128 0x8
ARM GAS  C:\Users\IDONNO~1\AppData\Local\Temp\cc96zqnk.s 			page 63


 3515 020d 3A       		.uleb128 0x3a
 3516 020e 0B       		.uleb128 0xb
 3517 020f 3B       		.uleb128 0x3b
 3518 0210 0B       		.uleb128 0xb
 3519 0211 49       		.uleb128 0x49
 3520 0212 13       		.uleb128 0x13
 3521 0213 1C       		.uleb128 0x1c
 3522 0214 0B       		.uleb128 0xb
 3523 0215 00       		.byte	0
 3524 0216 00       		.byte	0
 3525 0217 2A       		.uleb128 0x2a
 3526 0218 34       		.uleb128 0x34
 3527 0219 00       		.byte	0
 3528 021a 03       		.uleb128 0x3
 3529 021b 0E       		.uleb128 0xe
 3530 021c 3A       		.uleb128 0x3a
 3531 021d 0B       		.uleb128 0xb
 3532 021e 3B       		.uleb128 0x3b
 3533 021f 0B       		.uleb128 0xb
 3534 0220 49       		.uleb128 0x49
 3535 0221 13       		.uleb128 0x13
 3536 0222 00       		.byte	0
 3537 0223 00       		.byte	0
 3538 0224 2B       		.uleb128 0x2b
 3539 0225 1D       		.uleb128 0x1d
 3540 0226 01       		.byte	0x1
 3541 0227 31       		.uleb128 0x31
 3542 0228 13       		.uleb128 0x13
 3543 0229 52       		.uleb128 0x52
 3544 022a 01       		.uleb128 0x1
 3545 022b 55       		.uleb128 0x55
 3546 022c 17       		.uleb128 0x17
 3547 022d 58       		.uleb128 0x58
 3548 022e 0B       		.uleb128 0xb
 3549 022f 59       		.uleb128 0x59
 3550 0230 0B       		.uleb128 0xb
 3551 0231 01       		.uleb128 0x1
 3552 0232 13       		.uleb128 0x13
 3553 0233 00       		.byte	0
 3554 0234 00       		.byte	0
 3555 0235 2C       		.uleb128 0x2c
 3556 0236 05       		.uleb128 0x5
 3557 0237 00       		.byte	0
 3558 0238 31       		.uleb128 0x31
 3559 0239 13       		.uleb128 0x13
 3560 023a 02       		.uleb128 0x2
 3561 023b 17       		.uleb128 0x17
 3562 023c 00       		.byte	0
 3563 023d 00       		.byte	0
 3564 023e 2D       		.uleb128 0x2d
 3565 023f 898201   		.uleb128 0x4109
 3566 0242 01       		.byte	0x1
 3567 0243 11       		.uleb128 0x11
 3568 0244 01       		.uleb128 0x1
 3569 0245 31       		.uleb128 0x31
 3570 0246 13       		.uleb128 0x13
 3571 0247 00       		.byte	0
ARM GAS  C:\Users\IDONNO~1\AppData\Local\Temp\cc96zqnk.s 			page 64


 3572 0248 00       		.byte	0
 3573 0249 2E       		.uleb128 0x2e
 3574 024a 8A8201   		.uleb128 0x410a
 3575 024d 00       		.byte	0
 3576 024e 02       		.uleb128 0x2
 3577 024f 18       		.uleb128 0x18
 3578 0250 9142     		.uleb128 0x2111
 3579 0252 18       		.uleb128 0x18
 3580 0253 00       		.byte	0
 3581 0254 00       		.byte	0
 3582 0255 2F       		.uleb128 0x2f
 3583 0256 1D       		.uleb128 0x1d
 3584 0257 01       		.byte	0x1
 3585 0258 31       		.uleb128 0x31
 3586 0259 13       		.uleb128 0x13
 3587 025a 11       		.uleb128 0x11
 3588 025b 01       		.uleb128 0x1
 3589 025c 12       		.uleb128 0x12
 3590 025d 06       		.uleb128 0x6
 3591 025e 58       		.uleb128 0x58
 3592 025f 0B       		.uleb128 0xb
 3593 0260 59       		.uleb128 0x59
 3594 0261 0B       		.uleb128 0xb
 3595 0262 01       		.uleb128 0x1
 3596 0263 13       		.uleb128 0x13
 3597 0264 00       		.byte	0
 3598 0265 00       		.byte	0
 3599 0266 30       		.uleb128 0x30
 3600 0267 05       		.uleb128 0x5
 3601 0268 00       		.byte	0
 3602 0269 31       		.uleb128 0x31
 3603 026a 13       		.uleb128 0x13
 3604 026b 02       		.uleb128 0x2
 3605 026c 18       		.uleb128 0x18
 3606 026d 00       		.byte	0
 3607 026e 00       		.byte	0
 3608 026f 31       		.uleb128 0x31
 3609 0270 2E       		.uleb128 0x2e
 3610 0271 01       		.byte	0x1
 3611 0272 03       		.uleb128 0x3
 3612 0273 0E       		.uleb128 0xe
 3613 0274 3A       		.uleb128 0x3a
 3614 0275 0B       		.uleb128 0xb
 3615 0276 3B       		.uleb128 0x3b
 3616 0277 0B       		.uleb128 0xb
 3617 0278 27       		.uleb128 0x27
 3618 0279 19       		.uleb128 0x19
 3619 027a 11       		.uleb128 0x11
 3620 027b 01       		.uleb128 0x1
 3621 027c 12       		.uleb128 0x12
 3622 027d 06       		.uleb128 0x6
 3623 027e 40       		.uleb128 0x40
 3624 027f 18       		.uleb128 0x18
 3625 0280 9742     		.uleb128 0x2117
 3626 0282 19       		.uleb128 0x19
 3627 0283 01       		.uleb128 0x1
 3628 0284 13       		.uleb128 0x13
ARM GAS  C:\Users\IDONNO~1\AppData\Local\Temp\cc96zqnk.s 			page 65


 3629 0285 00       		.byte	0
 3630 0286 00       		.byte	0
 3631 0287 32       		.uleb128 0x32
 3632 0288 34       		.uleb128 0x34
 3633 0289 00       		.byte	0
 3634 028a 03       		.uleb128 0x3
 3635 028b 08       		.uleb128 0x8
 3636 028c 3A       		.uleb128 0x3a
 3637 028d 0B       		.uleb128 0xb
 3638 028e 3B       		.uleb128 0x3b
 3639 028f 0B       		.uleb128 0xb
 3640 0290 49       		.uleb128 0x49
 3641 0291 13       		.uleb128 0x13
 3642 0292 02       		.uleb128 0x2
 3643 0293 18       		.uleb128 0x18
 3644 0294 00       		.byte	0
 3645 0295 00       		.byte	0
 3646 0296 33       		.uleb128 0x33
 3647 0297 34       		.uleb128 0x34
 3648 0298 00       		.byte	0
 3649 0299 03       		.uleb128 0x3
 3650 029a 0E       		.uleb128 0xe
 3651 029b 3A       		.uleb128 0x3a
 3652 029c 0B       		.uleb128 0xb
 3653 029d 3B       		.uleb128 0x3b
 3654 029e 0B       		.uleb128 0xb
 3655 029f 49       		.uleb128 0x49
 3656 02a0 13       		.uleb128 0x13
 3657 02a1 02       		.uleb128 0x2
 3658 02a2 18       		.uleb128 0x18
 3659 02a3 00       		.byte	0
 3660 02a4 00       		.byte	0
 3661 02a5 34       		.uleb128 0x34
 3662 02a6 05       		.uleb128 0x5
 3663 02a7 00       		.byte	0
 3664 02a8 31       		.uleb128 0x31
 3665 02a9 13       		.uleb128 0x13
 3666 02aa 1C       		.uleb128 0x1c
 3667 02ab 0B       		.uleb128 0xb
 3668 02ac 00       		.byte	0
 3669 02ad 00       		.byte	0
 3670 02ae 35       		.uleb128 0x35
 3671 02af 1D       		.uleb128 0x1d
 3672 02b0 01       		.byte	0x1
 3673 02b1 31       		.uleb128 0x31
 3674 02b2 13       		.uleb128 0x13
 3675 02b3 52       		.uleb128 0x52
 3676 02b4 01       		.uleb128 0x1
 3677 02b5 55       		.uleb128 0x55
 3678 02b6 17       		.uleb128 0x17
 3679 02b7 58       		.uleb128 0x58
 3680 02b8 0B       		.uleb128 0xb
 3681 02b9 59       		.uleb128 0x59
 3682 02ba 0B       		.uleb128 0xb
 3683 02bb 00       		.byte	0
 3684 02bc 00       		.byte	0
 3685 02bd 36       		.uleb128 0x36
ARM GAS  C:\Users\IDONNO~1\AppData\Local\Temp\cc96zqnk.s 			page 66


 3686 02be 1D       		.uleb128 0x1d
 3687 02bf 00       		.byte	0
 3688 02c0 31       		.uleb128 0x31
 3689 02c1 13       		.uleb128 0x13
 3690 02c2 11       		.uleb128 0x11
 3691 02c3 01       		.uleb128 0x1
 3692 02c4 12       		.uleb128 0x12
 3693 02c5 06       		.uleb128 0x6
 3694 02c6 58       		.uleb128 0x58
 3695 02c7 0B       		.uleb128 0xb
 3696 02c8 59       		.uleb128 0x59
 3697 02c9 0B       		.uleb128 0xb
 3698 02ca 00       		.byte	0
 3699 02cb 00       		.byte	0
 3700 02cc 37       		.uleb128 0x37
 3701 02cd 0B       		.uleb128 0xb
 3702 02ce 01       		.byte	0x1
 3703 02cf 11       		.uleb128 0x11
 3704 02d0 01       		.uleb128 0x1
 3705 02d1 12       		.uleb128 0x12
 3706 02d2 06       		.uleb128 0x6
 3707 02d3 01       		.uleb128 0x1
 3708 02d4 13       		.uleb128 0x13
 3709 02d5 00       		.byte	0
 3710 02d6 00       		.byte	0
 3711 02d7 38       		.uleb128 0x38
 3712 02d8 34       		.uleb128 0x34
 3713 02d9 00       		.byte	0
 3714 02da 03       		.uleb128 0x3
 3715 02db 0E       		.uleb128 0xe
 3716 02dc 3A       		.uleb128 0x3a
 3717 02dd 0B       		.uleb128 0xb
 3718 02de 3B       		.uleb128 0x3b
 3719 02df 0B       		.uleb128 0xb
 3720 02e0 49       		.uleb128 0x49
 3721 02e1 13       		.uleb128 0x13
 3722 02e2 02       		.uleb128 0x2
 3723 02e3 17       		.uleb128 0x17
 3724 02e4 00       		.byte	0
 3725 02e5 00       		.byte	0
 3726 02e6 39       		.uleb128 0x39
 3727 02e7 898201   		.uleb128 0x4109
 3728 02ea 01       		.byte	0x1
 3729 02eb 11       		.uleb128 0x11
 3730 02ec 01       		.uleb128 0x1
 3731 02ed 31       		.uleb128 0x31
 3732 02ee 13       		.uleb128 0x13
 3733 02ef 01       		.uleb128 0x1
 3734 02f0 13       		.uleb128 0x13
 3735 02f1 00       		.byte	0
 3736 02f2 00       		.byte	0
 3737 02f3 3A       		.uleb128 0x3a
 3738 02f4 2E       		.uleb128 0x2e
 3739 02f5 01       		.byte	0x1
 3740 02f6 3F       		.uleb128 0x3f
 3741 02f7 19       		.uleb128 0x19
 3742 02f8 03       		.uleb128 0x3
ARM GAS  C:\Users\IDONNO~1\AppData\Local\Temp\cc96zqnk.s 			page 67


 3743 02f9 0E       		.uleb128 0xe
 3744 02fa 3A       		.uleb128 0x3a
 3745 02fb 0B       		.uleb128 0xb
 3746 02fc 3B       		.uleb128 0x3b
 3747 02fd 0B       		.uleb128 0xb
 3748 02fe 27       		.uleb128 0x27
 3749 02ff 19       		.uleb128 0x19
 3750 0300 11       		.uleb128 0x11
 3751 0301 01       		.uleb128 0x1
 3752 0302 12       		.uleb128 0x12
 3753 0303 06       		.uleb128 0x6
 3754 0304 40       		.uleb128 0x40
 3755 0305 18       		.uleb128 0x18
 3756 0306 9742     		.uleb128 0x2117
 3757 0308 19       		.uleb128 0x19
 3758 0309 01       		.uleb128 0x1
 3759 030a 13       		.uleb128 0x13
 3760 030b 00       		.byte	0
 3761 030c 00       		.byte	0
 3762 030d 3B       		.uleb128 0x3b
 3763 030e 05       		.uleb128 0x5
 3764 030f 00       		.byte	0
 3765 0310 03       		.uleb128 0x3
 3766 0311 08       		.uleb128 0x8
 3767 0312 3A       		.uleb128 0x3a
 3768 0313 0B       		.uleb128 0xb
 3769 0314 3B       		.uleb128 0x3b
 3770 0315 0B       		.uleb128 0xb
 3771 0316 49       		.uleb128 0x49
 3772 0317 13       		.uleb128 0x13
 3773 0318 02       		.uleb128 0x2
 3774 0319 18       		.uleb128 0x18
 3775 031a 00       		.byte	0
 3776 031b 00       		.byte	0
 3777 031c 3C       		.uleb128 0x3c
 3778 031d 05       		.uleb128 0x5
 3779 031e 00       		.byte	0
 3780 031f 03       		.uleb128 0x3
 3781 0320 0E       		.uleb128 0xe
 3782 0321 3A       		.uleb128 0x3a
 3783 0322 0B       		.uleb128 0xb
 3784 0323 3B       		.uleb128 0x3b
 3785 0324 0B       		.uleb128 0xb
 3786 0325 49       		.uleb128 0x49
 3787 0326 13       		.uleb128 0x13
 3788 0327 02       		.uleb128 0x2
 3789 0328 18       		.uleb128 0x18
 3790 0329 00       		.byte	0
 3791 032a 00       		.byte	0
 3792 032b 3D       		.uleb128 0x3d
 3793 032c 21       		.uleb128 0x21
 3794 032d 00       		.byte	0
 3795 032e 49       		.uleb128 0x49
 3796 032f 13       		.uleb128 0x13
 3797 0330 2F       		.uleb128 0x2f
 3798 0331 05       		.uleb128 0x5
 3799 0332 00       		.byte	0
ARM GAS  C:\Users\IDONNO~1\AppData\Local\Temp\cc96zqnk.s 			page 68


 3800 0333 00       		.byte	0
 3801 0334 3E       		.uleb128 0x3e
 3802 0335 34       		.uleb128 0x34
 3803 0336 00       		.byte	0
 3804 0337 03       		.uleb128 0x3
 3805 0338 0E       		.uleb128 0xe
 3806 0339 3A       		.uleb128 0x3a
 3807 033a 0B       		.uleb128 0xb
 3808 033b 3B       		.uleb128 0x3b
 3809 033c 05       		.uleb128 0x5
 3810 033d 49       		.uleb128 0x49
 3811 033e 13       		.uleb128 0x13
 3812 033f 3F       		.uleb128 0x3f
 3813 0340 19       		.uleb128 0x19
 3814 0341 3C       		.uleb128 0x3c
 3815 0342 19       		.uleb128 0x19
 3816 0343 00       		.byte	0
 3817 0344 00       		.byte	0
 3818 0345 3F       		.uleb128 0x3f
 3819 0346 34       		.uleb128 0x34
 3820 0347 00       		.byte	0
 3821 0348 03       		.uleb128 0x3
 3822 0349 08       		.uleb128 0x8
 3823 034a 3A       		.uleb128 0x3a
 3824 034b 0B       		.uleb128 0xb
 3825 034c 3B       		.uleb128 0x3b
 3826 034d 05       		.uleb128 0x5
 3827 034e 49       		.uleb128 0x49
 3828 034f 13       		.uleb128 0x13
 3829 0350 3F       		.uleb128 0x3f
 3830 0351 19       		.uleb128 0x19
 3831 0352 3C       		.uleb128 0x3c
 3832 0353 19       		.uleb128 0x19
 3833 0354 00       		.byte	0
 3834 0355 00       		.byte	0
 3835 0356 40       		.uleb128 0x40
 3836 0357 2E       		.uleb128 0x2e
 3837 0358 00       		.byte	0
 3838 0359 3F       		.uleb128 0x3f
 3839 035a 19       		.uleb128 0x19
 3840 035b 3C       		.uleb128 0x3c
 3841 035c 19       		.uleb128 0x19
 3842 035d 6E       		.uleb128 0x6e
 3843 035e 0E       		.uleb128 0xe
 3844 035f 03       		.uleb128 0x3
 3845 0360 0E       		.uleb128 0xe
 3846 0361 3A       		.uleb128 0x3a
 3847 0362 0B       		.uleb128 0xb
 3848 0363 3B       		.uleb128 0x3b
 3849 0364 0B       		.uleb128 0xb
 3850 0365 00       		.byte	0
 3851 0366 00       		.byte	0
 3852 0367 41       		.uleb128 0x41
 3853 0368 2E       		.uleb128 0x2e
 3854 0369 00       		.byte	0
 3855 036a 3F       		.uleb128 0x3f
 3856 036b 19       		.uleb128 0x19
ARM GAS  C:\Users\IDONNO~1\AppData\Local\Temp\cc96zqnk.s 			page 69


 3857 036c 3C       		.uleb128 0x3c
 3858 036d 19       		.uleb128 0x19
 3859 036e 6E       		.uleb128 0x6e
 3860 036f 0E       		.uleb128 0xe
 3861 0370 03       		.uleb128 0x3
 3862 0371 0E       		.uleb128 0xe
 3863 0372 3A       		.uleb128 0x3a
 3864 0373 0B       		.uleb128 0xb
 3865 0374 3B       		.uleb128 0x3b
 3866 0375 05       		.uleb128 0x5
 3867 0376 00       		.byte	0
 3868 0377 00       		.byte	0
 3869 0378 00       		.byte	0
 3870              		.section	.debug_loc,"",%progbits
 3871              	.Ldebug_loc0:
 3872              	.LLST0:
 3873 0000 00000000 		.4byte	.LVL0
 3874 0004 14000000 		.4byte	.LVL3
 3875 0008 0100     		.2byte	0x1
 3876 000a 50       		.byte	0x50
 3877 000b 14000000 		.4byte	.LVL3
 3878 000f 4C000000 		.4byte	.LFE258
 3879 0013 0400     		.2byte	0x4
 3880 0015 F3       		.byte	0xf3
 3881 0016 01       		.uleb128 0x1
 3882 0017 50       		.byte	0x50
 3883 0018 9F       		.byte	0x9f
 3884 0019 00000000 		.4byte	0
 3885 001d 00000000 		.4byte	0
 3886              	.LLST1:
 3887 0021 00000000 		.4byte	.LVL0
 3888 0025 10000000 		.4byte	.LVL1
 3889 0029 0600     		.2byte	0x6
 3890 002b 03       		.byte	0x3
 3891 002c 00000000 		.4byte	.LC0
 3892 0030 9F       		.byte	0x9f
 3893 0031 00000000 		.4byte	0
 3894 0035 00000000 		.4byte	0
 3895              	.LLST2:
 3896 0039 00000000 		.4byte	.LVL5
 3897 003d 0A000000 		.4byte	.LVL6
 3898 0041 0100     		.2byte	0x1
 3899 0043 50       		.byte	0x50
 3900 0044 0A000000 		.4byte	.LVL6
 3901 0048 1C000000 		.4byte	.LFE259
 3902 004c 0400     		.2byte	0x4
 3903 004e F3       		.byte	0xf3
 3904 004f 01       		.uleb128 0x1
 3905 0050 50       		.byte	0x50
 3906 0051 9F       		.byte	0x9f
 3907 0052 00000000 		.4byte	0
 3908 0056 00000000 		.4byte	0
 3909              	.LLST3:
 3910 005a 00000000 		.4byte	.LVL8
 3911 005e 0A000000 		.4byte	.LVL9
 3912 0062 0100     		.2byte	0x1
 3913 0064 50       		.byte	0x50
ARM GAS  C:\Users\IDONNO~1\AppData\Local\Temp\cc96zqnk.s 			page 70


 3914 0065 0A000000 		.4byte	.LVL9
 3915 0069 98000000 		.4byte	.LFE257
 3916 006d 0400     		.2byte	0x4
 3917 006f F3       		.byte	0xf3
 3918 0070 01       		.uleb128 0x1
 3919 0071 50       		.byte	0x50
 3920 0072 9F       		.byte	0x9f
 3921 0073 00000000 		.4byte	0
 3922 0077 00000000 		.4byte	0
 3923              	.LLST4:
 3924 007b 00000000 		.4byte	.LVL8
 3925 007f 0C000000 		.4byte	.LVL10
 3926 0083 0600     		.2byte	0x6
 3927 0085 03       		.byte	0x3
 3928 0086 1C000000 		.4byte	.LC2
 3929 008a 9F       		.byte	0x9f
 3930 008b 00000000 		.4byte	0
 3931 008f 00000000 		.4byte	0
 3932              	.LLST5:
 3933 0093 0E000000 		.4byte	.LVL11
 3934 0097 7C000000 		.4byte	.LVL21
 3935 009b 0100     		.2byte	0x1
 3936 009d 5D       		.byte	0x5d
 3937 009e 7C000000 		.4byte	.LVL21
 3938 00a2 7E000000 		.4byte	.LVL22
 3939 00a6 0300     		.2byte	0x3
 3940 00a8 91       		.byte	0x91
 3941 00a9 40       		.sleb128 -64
 3942 00aa 9F       		.byte	0x9f
 3943 00ab 7E000000 		.4byte	.LVL22
 3944 00af 98000000 		.4byte	.LFE257
 3945 00b3 0300     		.2byte	0x3
 3946 00b5 7D       		.byte	0x7d
 3947 00b6 40       		.sleb128 -64
 3948 00b7 9F       		.byte	0x9f
 3949 00b8 00000000 		.4byte	0
 3950 00bc 00000000 		.4byte	0
 3951              	.LLST6:
 3952 00c0 0C000000 		.4byte	.LVL10
 3953 00c4 19000000 		.4byte	.LVL12-1
 3954 00c8 0100     		.2byte	0x1
 3955 00ca 50       		.byte	0x50
 3956 00cb 76000000 		.4byte	.LVL19
 3957 00cf 79000000 		.4byte	.LVL20-1
 3958 00d3 0100     		.2byte	0x1
 3959 00d5 50       		.byte	0x50
 3960 00d6 00000000 		.4byte	0
 3961 00da 00000000 		.4byte	0
 3962              	.LLST7:
 3963 00de 0E000000 		.4byte	.LVL11
 3964 00e2 1A000000 		.4byte	.LVL12
 3965 00e6 0200     		.2byte	0x2
 3966 00e8 31       		.byte	0x31
 3967 00e9 9F       		.byte	0x9f
 3968 00ea 00000000 		.4byte	0
 3969 00ee 00000000 		.4byte	0
 3970              	.LLST8:
ARM GAS  C:\Users\IDONNO~1\AppData\Local\Temp\cc96zqnk.s 			page 71


 3971 00f2 0E000000 		.4byte	.LVL11
 3972 00f6 1A000000 		.4byte	.LVL12
 3973 00fa 0100     		.2byte	0x1
 3974 00fc 5D       		.byte	0x5d
 3975 00fd 00000000 		.4byte	0
 3976 0101 00000000 		.4byte	0
 3977              	.LLST9:
 3978 0105 0E000000 		.4byte	.LVL11
 3979 0109 19000000 		.4byte	.LVL12-1
 3980 010d 0100     		.2byte	0x1
 3981 010f 50       		.byte	0x50
 3982 0110 00000000 		.4byte	0
 3983 0114 00000000 		.4byte	0
 3984              	.LLST10:
 3985 0118 44000000 		.4byte	.LVL14
 3986 011c 4C000000 		.4byte	.LVL15
 3987 0120 0100     		.2byte	0x1
 3988 0122 50       		.byte	0x50
 3989 0123 4C000000 		.4byte	.LVL15
 3990 0127 6C000000 		.4byte	.LVL17
 3991 012b 0200     		.2byte	0x2
 3992 012d 30       		.byte	0x30
 3993 012e 9F       		.byte	0x9f
 3994 012f 6C000000 		.4byte	.LVL17
 3995 0133 72000000 		.4byte	.LVL18
 3996 0137 0100     		.2byte	0x1
 3997 0139 50       		.byte	0x50
 3998 013a 00000000 		.4byte	0
 3999 013e 00000000 		.4byte	0
 4000              		.section	.debug_aranges,"",%progbits
 4001 0000 44000000 		.4byte	0x44
 4002 0004 0200     		.2byte	0x2
 4003 0006 00000000 		.4byte	.Ldebug_info0
 4004 000a 04       		.byte	0x4
 4005 000b 00       		.byte	0
 4006 000c 0000     		.2byte	0
 4007 000e 0000     		.2byte	0
 4008 0010 00000000 		.4byte	.LFB258
 4009 0014 4C000000 		.4byte	.LFE258-.LFB258
 4010 0018 00000000 		.4byte	.LFB259
 4011 001c 1C000000 		.4byte	.LFE259-.LFB259
 4012 0020 00000000 		.4byte	.LFB257
 4013 0024 98000000 		.4byte	.LFE257-.LFB257
 4014 0028 00000000 		.4byte	.LFB256
 4015 002c A0000000 		.4byte	.LFE256-.LFB256
 4016 0030 00000000 		.4byte	.LFB260
 4017 0034 02000000 		.4byte	.LFE260-.LFB260
 4018 0038 00000000 		.4byte	.LFB261
 4019 003c 02000000 		.4byte	.LFE261-.LFB261
 4020 0040 00000000 		.4byte	0
 4021 0044 00000000 		.4byte	0
 4022              		.section	.debug_ranges,"",%progbits
 4023              	.Ldebug_ranges0:
 4024 0000 00000000 		.4byte	.LBB24
 4025 0004 02000000 		.4byte	.LBE24
 4026 0008 04000000 		.4byte	.LBB28
 4027 000c 08000000 		.4byte	.LBE28
ARM GAS  C:\Users\IDONNO~1\AppData\Local\Temp\cc96zqnk.s 			page 72


 4028 0010 0E000000 		.4byte	.LBB29
 4029 0014 10000000 		.4byte	.LBE29
 4030 0018 00000000 		.4byte	0
 4031 001c 00000000 		.4byte	0
 4032 0020 02000000 		.4byte	.LBB32
 4033 0024 08000000 		.4byte	.LBE32
 4034 0028 0A000000 		.4byte	.LBB40
 4035 002c 0C000000 		.4byte	.LBE40
 4036 0030 00000000 		.4byte	0
 4037 0034 00000000 		.4byte	0
 4038 0038 08000000 		.4byte	.LBB35
 4039 003c 0A000000 		.4byte	.LBE35
 4040 0040 0E000000 		.4byte	.LBB41
 4041 0044 1C000000 		.4byte	.LBE41
 4042 0048 00000000 		.4byte	0
 4043 004c 00000000 		.4byte	0
 4044 0050 00000000 		.4byte	.LFB258
 4045 0054 4C000000 		.4byte	.LFE258
 4046 0058 00000000 		.4byte	.LFB259
 4047 005c 1C000000 		.4byte	.LFE259
 4048 0060 00000000 		.4byte	.LFB257
 4049 0064 98000000 		.4byte	.LFE257
 4050 0068 00000000 		.4byte	.LFB256
 4051 006c A0000000 		.4byte	.LFE256
 4052 0070 00000000 		.4byte	.LFB260
 4053 0074 02000000 		.4byte	.LFE260
 4054 0078 00000000 		.4byte	.LFB261
 4055 007c 02000000 		.4byte	.LFE261
 4056 0080 00000000 		.4byte	0
 4057 0084 00000000 		.4byte	0
 4058              		.section	.debug_line,"",%progbits
 4059              	.Ldebug_line0:
 4060 0000 49040000 		.section	.debug_str,"MS",%progbits,1
 4060      02006D03 
 4060      00000201 
 4060      FB0E0D00 
 4060      01010101 
 4061              	.LASF230:
 4062 0000 63616E63 		.ascii	"cancom_read_thread\000"
 4062      6F6D5F72 
 4062      6561645F 
 4062      74687265 
 4062      616400
 4063              	.LASF57:
 4064 0013 63685F74 		.ascii	"ch_threads_list\000"
 4064      68726561 
 4064      64735F6C 
 4064      69737400 
 4065              	.LASF58:
 4066 0023 74687265 		.ascii	"threads_queue_t\000"
 4066      6164735F 
 4066      71756575 
 4066      655F7400 
 4067              	.LASF124:
 4068 0033 77746D74 		.ascii	"wtmtxp\000"
 4068      787000
 4069              	.LASF107:
ARM GAS  C:\Users\IDONNO~1\AppData\Local\Temp\cc96zqnk.s 			page 73


 4070 003a 46464131 		.ascii	"FFA1R\000"
 4070      5200
 4071              	.LASF118:
 4072 0040 746D5F63 		.ascii	"tm_calibration_t\000"
 4072      616C6962 
 4072      72617469 
 4072      6F6E5F74 
 4072      00
 4073              	.LASF46:
 4074 0051 705F7469 		.ascii	"p_time\000"
 4074      6D6500
 4075              	.LASF150:
 4076 0058 42535252 		.ascii	"BSRR\000"
 4076      00
 4077              	.LASF109:
 4078 005d 46413152 		.ascii	"FA1R\000"
 4078      00
 4079              	.LASF16:
 4080 0062 63686172 		.ascii	"char\000"
 4080      00
 4081              	.LASF37:
 4082 0067 705F7072 		.ascii	"p_prio\000"
 4082      696F00
 4083              	.LASF204:
 4084 006e 63616E63 		.ascii	"cancom_process_thread_wa\000"
 4084      6F6D5F70 
 4084      726F6365 
 4084      73735F74 
 4084      68726561 
 4085              	.LASF141:
 4086 0087 6576656E 		.ascii	"event_source\000"
 4086      745F736F 
 4086      75726365 
 4086      00
 4087              	.LASF33:
 4088 0094 73797374 		.ascii	"systime_t\000"
 4088      696D655F 
 4088      7400
 4089              	.LASF165:
 4090 009e 64617461 		.ascii	"data32\000"
 4090      333200
 4091              	.LASF127:
 4092 00a5 735F7175 		.ascii	"s_queue\000"
 4092      65756500 
 4093              	.LASF78:
 4094 00ad 76745F73 		.ascii	"vt_systime\000"
 4094      79737469 
 4094      6D6500
 4095              	.LASF48:
 4096 00b8 705F6D73 		.ascii	"p_msgqueue\000"
 4096      67717565 
 4096      756500
 4097              	.LASF0:
 4098 00c3 756E7369 		.ascii	"unsigned int\000"
 4098      676E6564 
 4098      20696E74 
 4098      00
ARM GAS  C:\Users\IDONNO~1\AppData\Local\Temp\cc96zqnk.s 			page 74


 4099              	.LASF20:
 4100 00d0 75696E74 		.ascii	"uint32_t\000"
 4100      33325F74 
 4100      00
 4101              	.LASF55:
 4102 00d9 74687265 		.ascii	"threads_list_t\000"
 4102      6164735F 
 4102      6C697374 
 4102      5F7400
 4103              	.LASF47:
 4104 00e8 705F7761 		.ascii	"p_waiting\000"
 4104      6974696E 
 4104      6700
 4105              	.LASF8:
 4106 00f2 5F5F696E 		.ascii	"__int32_t\000"
 4106      7433325F 
 4106      7400
 4107              	.LASF171:
 4108 00fc 72787175 		.ascii	"rxqueue\000"
 4108      65756500 
 4109              	.LASF162:
 4110 0104 54494D45 		.ascii	"TIME\000"
 4110      00
 4111              	.LASF100:
 4112 0109 7354784D 		.ascii	"sTxMailBox\000"
 4112      61696C42 
 4112      6F7800
 4113              	.LASF121:
 4114 0114 77746F62 		.ascii	"wtobjp\000"
 4114      6A7000
 4115              	.LASF85:
 4116 011b 76746C69 		.ascii	"vtlist\000"
 4116      737400
 4117              	.LASF61:
 4118 0122 63685F72 		.ascii	"ch_ready_list\000"
 4118      65616479 
 4118      5F6C6973 
 4118      7400
 4119              	.LASF87:
 4120 0130 69646C65 		.ascii	"idle_thread_wa\000"
 4120      5F746872 
 4120      6561645F 
 4120      776100
 4121              	.LASF125:
 4122 013f 65776D61 		.ascii	"ewmask\000"
 4122      736B00
 4123              	.LASF225:
 4124 0146 63616E53 		.ascii	"canStart\000"
 4124      74617274 
 4124      00
 4125              	.LASF176:
 4126 014f 77616B65 		.ascii	"wakeup_event\000"
 4126      75705F65 
 4126      76656E74 
 4126      00
 4127              	.LASF213:
 4128 015c 63616E63 		.ascii	"cancfg\000"
ARM GAS  C:\Users\IDONNO~1\AppData\Local\Temp\cc96zqnk.s 			page 75


 4128      666700
 4129              	.LASF68:
 4130 0163 76746675 		.ascii	"vtfunc_t\000"
 4130      6E635F74 
 4130      00
 4131              	.LASF105:
 4132 016c 46533152 		.ascii	"FS1R\000"
 4132      00
 4133              	.LASF128:
 4134 0171 735F636E 		.ascii	"s_cnt\000"
 4134      7400
 4135              	.LASF80:
 4136 0177 63685F73 		.ascii	"ch_system_debug\000"
 4136      79737465 
 4136      6D5F6465 
 4136      62756700 
 4137              	.LASF167:
 4138 0187 43414E43 		.ascii	"CANConfig\000"
 4138      6F6E6669 
 4138      6700
 4139              	.LASF111:
 4140 0191 7346696C 		.ascii	"sFilterRegister\000"
 4140      74657252 
 4140      65676973 
 4140      74657200 
 4141              	.LASF201:
 4142 01a1 73656E64 		.ascii	"send\000"
 4142      00
 4143              	.LASF211:
 4144 01a6 72785F66 		.ascii	"rx_frame_write\000"
 4144      72616D65 
 4144      5F777269 
 4144      746500
 4145              	.LASF194:
 4146 01b5 72786D73 		.ascii	"rxmsg\000"
 4146      6700
 4147              	.LASF228:
 4148 01bb 7372632F 		.ascii	"src/core/comm_can.c\000"
 4148      636F7265 
 4148      2F636F6D 
 4148      6D5F6361 
 4148      6E2E6300 
 4149              	.LASF173:
 4150 01cf 7478656D 		.ascii	"txempty_event\000"
 4150      7074795F 
 4150      6576656E 
 4150      7400
 4151              	.LASF209:
 4152 01dd 72785F66 		.ascii	"rx_frames\000"
 4152      72616D65 
 4152      7300
 4153              	.LASF30:
 4154 01e7 6576656E 		.ascii	"eventmask_t\000"
 4154      746D6173 
 4154      6B5F7400 
 4155              	.LASF63:
 4156 01f3 725F7072 		.ascii	"r_prio\000"
ARM GAS  C:\Users\IDONNO~1\AppData\Local\Temp\cc96zqnk.s 			page 76


 4156      696F00
 4157              	.LASF75:
 4158 01fa 76745F70 		.ascii	"vt_par\000"
 4158      617200
 4159              	.LASF178:
 4160 0201 666C6F61 		.ascii	"float\000"
 4160      7400
 4161              	.LASF95:
 4162 0207 43414E5F 		.ascii	"CAN_FIFOMailBox_TypeDef\000"
 4162      4649464F 
 4162      4D61696C 
 4162      426F785F 
 4162      54797065 
 4163              	.LASF184:
 4164 021f 6576656E 		.ascii	"event\000"
 4164      7400
 4165              	.LASF126:
 4166 0225 63685F73 		.ascii	"ch_semaphore\000"
 4166      656D6170 
 4166      686F7265 
 4166      00
 4167              	.LASF27:
 4168 0232 74707269 		.ascii	"tprio_t\000"
 4168      6F5F7400 
 4169              	.LASF196:
 4170 023a 636F6D6D 		.ascii	"comm_can_init\000"
 4170      5F63616E 
 4170      5F696E69 
 4170      7400
 4171              	.LASF99:
 4172 0248 52455345 		.ascii	"RESERVED0\000"
 4172      52564544 
 4172      3000
 4173              	.LASF70:
 4174 0252 63685F76 		.ascii	"ch_virtual_timer\000"
 4174      69727475 
 4174      616C5F74 
 4174      696D6572 
 4174      00
 4175              	.LASF142:
 4176 0263 65735F6E 		.ascii	"es_next\000"
 4176      65787400 
 4177              	.LASF189:
 4178 026b 6372635F 		.ascii	"crc_low\000"
 4178      6C6F7700 
 4179              	.LASF195:
 4180 0273 72657375 		.ascii	"result\000"
 4180      6C7400
 4181              	.LASF183:
 4182 027a 63684576 		.ascii	"chEvtRegister\000"
 4182      74526567 
 4182      69737465 
 4182      7200
 4183              	.LASF14:
 4184 0288 6C6F6E67 		.ascii	"long long unsigned int\000"
 4184      206C6F6E 
 4184      6720756E 
ARM GAS  C:\Users\IDONNO~1\AppData\Local\Temp\cc96zqnk.s 			page 77


 4184      7369676E 
 4184      65642069 
 4185              	.LASF223:
 4186 029f 63684D74 		.ascii	"chMtxObjectInit\000"
 4186      784F626A 
 4186      65637449 
 4186      6E697400 
 4187              	.LASF229:
 4188 02af 443A5C67 		.ascii	"D:\\git\\oroca_bldc_dev\\oroca_bldc_FW\000"
 4188      69745C6F 
 4188      726F6361 
 4188      5F626C64 
 4188      635F6465 
 4189              	.LASF199:
 4190 02d3 636F6D6D 		.ascii	"comm_can_send_buffer\000"
 4190      5F63616E 
 4190      5F73656E 
 4190      645F6275 
 4190      66666572 
 4191              	.LASF143:
 4192 02e8 6576656E 		.ascii	"event_source_t\000"
 4192      745F736F 
 4192      75726365 
 4192      5F7400
 4193              	.LASF6:
 4194 02f7 5F5F7569 		.ascii	"__uint16_t\000"
 4194      6E743136 
 4194      5F7400
 4195              	.LASF32:
 4196 0302 636E745F 		.ascii	"cnt_t\000"
 4196      7400
 4197              	.LASF146:
 4198 0308 4D4F4445 		.ascii	"MODER\000"
 4198      5200
 4199              	.LASF153:
 4200 030e 41465248 		.ascii	"AFRH\000"
 4200      00
 4201              	.LASF154:
 4202 0313 73746D33 		.ascii	"stm32_gpio_t\000"
 4202      325F6770 
 4202      696F5F74 
 4202      00
 4203              	.LASF152:
 4204 0320 4146524C 		.ascii	"AFRL\000"
 4204      00
 4205              	.LASF39:
 4206 0325 705F6E65 		.ascii	"p_newer\000"
 4206      77657200 
 4207              	.LASF145:
 4208 032d 636C6561 		.ascii	"clear\000"
 4208      7200
 4209              	.LASF77:
 4210 0333 63685F76 		.ascii	"ch_virtual_timers_list\000"
 4210      69727475 
 4210      616C5F74 
 4210      696D6572 
 4210      735F6C69 
ARM GAS  C:\Users\IDONNO~1\AppData\Local\Temp\cc96zqnk.s 			page 78


 4211              	.LASF34:
 4212 034a 74687265 		.ascii	"thread_t\000"
 4212      61645F74 
 4212      00
 4213              	.LASF140:
 4214 0353 656C5F77 		.ascii	"el_wflags\000"
 4214      666C6167 
 4214      7300
 4215              	.LASF2:
 4216 035d 73697A65 		.ascii	"size_t\000"
 4216      5F7400
 4217              	.LASF119:
 4218 0364 7264796D 		.ascii	"rdymsg\000"
 4218      736700
 4219              	.LASF117:
 4220 036b 6F666673 		.ascii	"offset\000"
 4220      657400
 4221              	.LASF144:
 4222 0372 5F426F6F 		.ascii	"_Bool\000"
 4222      6C00
 4223              	.LASF227:
 4224 0378 474E5520 		.ascii	"GNU C99 5.4.1 20160919 (release) [ARM/embedded-5-br"
 4224      43393920 
 4224      352E342E 
 4224      31203230 
 4224      31363039 
 4225 03ab 616E6368 		.ascii	"anch revision 240496] -mcpu=cortex-m4 -mfloat-abi=h"
 4225      20726576 
 4225      6973696F 
 4225      6E203234 
 4225      30343936 
 4226 03de 61726420 		.ascii	"ard -mfpu=fpv4-sp-d16 -mno-thumb-interwork -mthumb "
 4226      2D6D6670 
 4226      753D6670 
 4226      76342D73 
 4226      702D6431 
 4227 0411 2D676764 		.ascii	"-ggdb -O2 -std=gnu99 -fomit-frame-pointer -falign-f"
 4227      62202D4F 
 4227      32202D73 
 4227      74643D67 
 4227      6E753939 
 4228 0444 756E6374 		.ascii	"unctions=16 -ffunction-sections -fdata-sections -fn"
 4228      696F6E73 
 4228      3D313620 
 4228      2D666675 
 4228      6E637469 
 4229 0477 6F2D636F 		.ascii	"o-common -fsingle-precision-constant\000"
 4229      6D6D6F6E 
 4229      202D6673 
 4229      696E676C 
 4229      652D7072 
 4230              	.LASF131:
 4231 049c 6D5F6F77 		.ascii	"m_owner\000"
 4231      6E657200 
 4232              	.LASF129:
 4233 04a4 63685F6D 		.ascii	"ch_mutex\000"
 4233      75746578 
ARM GAS  C:\Users\IDONNO~1\AppData\Local\Temp\cc96zqnk.s 			page 79


 4233      00
 4234              	.LASF190:
 4235 04ad 6372635F 		.ascii	"crc_high\000"
 4235      68696768 
 4235      00
 4236              	.LASF89:
 4237 04b6 54444C52 		.ascii	"TDLR\000"
 4237      00
 4238              	.LASF156:
 4239 04bb 43414E5F 		.ascii	"CAN_UNINIT\000"
 4239      554E494E 
 4239      495400
 4240              	.LASF149:
 4241 04c6 50555044 		.ascii	"PUPDR\000"
 4241      5200
 4242              	.LASF41:
 4243 04cc 705F6E61 		.ascii	"p_name\000"
 4243      6D6500
 4244              	.LASF192:
 4245 04d3 63616E63 		.ascii	"cancom_process_thread\000"
 4245      6F6D5F70 
 4245      726F6365 
 4245      73735F74 
 4245      68726561 
 4246              	.LASF73:
 4247 04e9 76745F64 		.ascii	"vt_delta\000"
 4247      656C7461 
 4247      00
 4248              	.LASF161:
 4249 04f2 63616E73 		.ascii	"canstate_t\000"
 4249      74617465 
 4249      5F7400
 4250              	.LASF65:
 4251 04fd 725F6E65 		.ascii	"r_newer\000"
 4251      77657200 
 4252              	.LASF175:
 4253 0505 736C6565 		.ascii	"sleep_event\000"
 4253      705F6576 
 4253      656E7400 
 4254              	.LASF24:
 4255 0511 74737461 		.ascii	"tstate_t\000"
 4255      74655F74 
 4255      00
 4256              	.LASF92:
 4257 051a 52445452 		.ascii	"RDTR\000"
 4257      00
 4258              	.LASF198:
 4259 051f 64617461 		.ascii	"data\000"
 4259      00
 4260              	.LASF12:
 4261 0524 6C6F6E67 		.ascii	"long long int\000"
 4261      206C6F6E 
 4261      6720696E 
 4261      7400
 4262              	.LASF159:
 4263 0532 43414E5F 		.ascii	"CAN_READY\000"
 4263      52454144 
ARM GAS  C:\Users\IDONNO~1\AppData\Local\Temp\cc96zqnk.s 			page 80


 4263      5900
 4264              	.LASF40:
 4265 053c 705F6F6C 		.ascii	"p_older\000"
 4265      64657200 
 4266              	.LASF42:
 4267 0544 705F7374 		.ascii	"p_state\000"
 4267      61746500 
 4268              	.LASF17:
 4269 054c 75696E74 		.ascii	"uint8_t\000"
 4269      385F7400 
 4270              	.LASF186:
 4271 0554 63685468 		.ascii	"chThdShouldTerminateX\000"
 4271      6453686F 
 4271      756C6454 
 4271      65726D69 
 4271      6E617465 
 4272              	.LASF91:
 4273 056a 43414E5F 		.ascii	"CAN_TxMailBox_TypeDef\000"
 4273      54784D61 
 4273      696C426F 
 4273      785F5479 
 4273      70654465 
 4274              	.LASF53:
 4275 0580 705F6D70 		.ascii	"p_mpool\000"
 4275      6F6F6C00 
 4276              	.LASF51:
 4277 0588 705F6D74 		.ascii	"p_mtxlist\000"
 4277      786C6973 
 4277      7400
 4278              	.LASF56:
 4279 0592 63685F74 		.ascii	"ch_thread\000"
 4279      68726561 
 4279      6400
 4280              	.LASF101:
 4281 059c 73464946 		.ascii	"sFIFOMailBox\000"
 4281      4F4D6169 
 4281      6C426F78 
 4281      00
 4282              	.LASF200:
 4283 05a9 636F6E74 		.ascii	"controller_id\000"
 4283      726F6C6C 
 4283      65725F69 
 4283      6400
 4284              	.LASF113:
 4285 05b7 72656761 		.ascii	"regarm_t\000"
 4285      726D5F74 
 4285      00
 4286              	.LASF79:
 4287 05c0 73797374 		.ascii	"system_debug_t\000"
 4287      656D5F64 
 4287      65627567 
 4287      5F7400
 4288              	.LASF163:
 4289 05cf 64617461 		.ascii	"data8\000"
 4289      3800
 4290              	.LASF59:
 4291 05d5 63685F74 		.ascii	"ch_threads_queue\000"
ARM GAS  C:\Users\IDONNO~1\AppData\Local\Temp\cc96zqnk.s 			page 81


 4291      68726561 
 4291      64735F71 
 4291      75657565 
 4291      00
 4292              	.LASF31:
 4293 05e6 6576656E 		.ascii	"eventflags_t\000"
 4293      74666C61 
 4293      67735F74 
 4293      00
 4294              	.LASF135:
 4295 05f3 6576656E 		.ascii	"event_listener\000"
 4295      745F6C69 
 4295      7374656E 
 4295      657200
 4296              	.LASF62:
 4297 0602 725F7175 		.ascii	"r_queue\000"
 4297      65756500 
 4298              	.LASF205:
 4299 060a 63616E63 		.ascii	"cancom_status_thread_wa\000"
 4299      6F6D5F73 
 4299      74617475 
 4299      735F7468 
 4299      72656164 
 4300              	.LASF28:
 4301 0622 6D73675F 		.ascii	"msg_t\000"
 4301      7400
 4302              	.LASF222:
 4303 0628 63684576 		.ascii	"chEvtUnregister\000"
 4303      74556E72 
 4303      65676973 
 4303      74657200 
 4304              	.LASF115:
 4305 0638 636F6E74 		.ascii	"context\000"
 4305      65787400 
 4306              	.LASF215:
 4307 0640 43414E44 		.ascii	"CAND1\000"
 4307      3100
 4308              	.LASF155:
 4309 0646 696F706F 		.ascii	"ioportmask_t\000"
 4309      72746D61 
 4309      736B5F74 
 4309      00
 4310              	.LASF43:
 4311 0653 705F666C 		.ascii	"p_flags\000"
 4311      61677300 
 4312              	.LASF13:
 4313 065b 5F5F7569 		.ascii	"__uint64_t\000"
 4313      6E743634 
 4313      5F7400
 4314              	.LASF69:
 4315 0666 76697274 		.ascii	"virtual_timer_t\000"
 4315      75616C5F 
 4315      74696D65 
 4315      725F7400 
 4316              	.LASF202:
 4317 0676 73656E64 		.ascii	"send_buffer\000"
 4317      5F627566 
ARM GAS  C:\Users\IDONNO~1\AppData\Local\Temp\cc96zqnk.s 			page 82


 4317      66657200 
 4318              	.LASF197:
 4319 0682 636F6D6D 		.ascii	"comm_can_transmit\000"
 4319      5F63616E 
 4319      5F747261 
 4319      6E736D69 
 4319      7400
 4320              	.LASF180:
 4321 0694 63684576 		.ascii	"chEvtRegisterMask\000"
 4321      74526567 
 4321      69737465 
 4321      724D6173 
 4321      6B00
 4322              	.LASF26:
 4323 06a6 74736C69 		.ascii	"tslices_t\000"
 4323      6365735F 
 4323      7400
 4324              	.LASF66:
 4325 06b0 725F6F6C 		.ascii	"r_older\000"
 4325      64657200 
 4326              	.LASF193:
 4327 06b8 63616E63 		.ascii	"cancom_status_thread\000"
 4327      6F6D5F73 
 4327      74617475 
 4327      735F7468 
 4327      72656164 
 4328              	.LASF187:
 4329 06cd 72786275 		.ascii	"rxbuf_len\000"
 4329      665F6C65 
 4329      6E00
 4330              	.LASF112:
 4331 06d7 43414E5F 		.ascii	"CAN_TypeDef\000"
 4331      54797065 
 4331      44656600 
 4332              	.LASF220:
 4333 06e3 63616E52 		.ascii	"canReceive\000"
 4333      65636569 
 4333      766500
 4334              	.LASF11:
 4335 06ee 6C6F6E67 		.ascii	"long unsigned int\000"
 4335      20756E73 
 4335      69676E65 
 4335      6420696E 
 4335      7400
 4336              	.LASF88:
 4337 0700 54445452 		.ascii	"TDTR\000"
 4337      00
 4338              	.LASF226:
 4339 0705 63685468 		.ascii	"chThdCreateStatic\000"
 4339      64437265 
 4339      61746553 
 4339      74617469 
 4339      6300
 4340              	.LASF136:
 4341 0717 656C5F6E 		.ascii	"el_next\000"
 4341      65787400 
 4342              	.LASF49:
ARM GAS  C:\Users\IDONNO~1\AppData\Local\Temp\cc96zqnk.s 			page 83


 4343 071f 705F6D73 		.ascii	"p_msg\000"
 4343      6700
 4344              	.LASF172:
 4345 0725 72786675 		.ascii	"rxfull_event\000"
 4345      6C6C5F65 
 4345      76656E74 
 4345      00
 4346              	.LASF23:
 4347 0732 746D6F64 		.ascii	"tmode_t\000"
 4347      655F7400 
 4348              	.LASF86:
 4349 073a 6D61696E 		.ascii	"mainthread\000"
 4349      74687265 
 4349      616400
 4350              	.LASF148:
 4351 0745 4F535045 		.ascii	"OSPEEDR\000"
 4351      45445200 
 4352              	.LASF18:
 4353 074d 75696E74 		.ascii	"uint16_t\000"
 4353      31365F74 
 4353      00
 4354              	.LASF54:
 4355 0756 74687265 		.ascii	"thread_reference_t\000"
 4355      61645F72 
 4355      65666572 
 4355      656E6365 
 4355      5F7400
 4356              	.LASF157:
 4357 0769 43414E5F 		.ascii	"CAN_STOP\000"
 4357      53544F50 
 4357      00
 4358              	.LASF179:
 4359 0772 63685265 		.ascii	"chRegSetThreadName\000"
 4359      67536574 
 4359      54687265 
 4359      61644E61 
 4359      6D6500
 4360              	.LASF22:
 4361 0785 7274636E 		.ascii	"rtcnt_t\000"
 4361      745F7400 
 4362              	.LASF94:
 4363 078d 52444852 		.ascii	"RDHR\000"
 4363      00
 4364              	.LASF169:
 4365 0792 636F6E66 		.ascii	"config\000"
 4365      696700
 4366              	.LASF158:
 4367 0799 43414E5F 		.ascii	"CAN_STARTING\000"
 4367      53544152 
 4367      54494E47 
 4367      00
 4368              	.LASF52:
 4369 07a6 705F7265 		.ascii	"p_realprio\000"
 4369      616C7072 
 4369      696F00
 4370              	.LASF102:
 4371 07b1 52455345 		.ascii	"RESERVED1\000"
ARM GAS  C:\Users\IDONNO~1\AppData\Local\Temp\cc96zqnk.s 			page 84


 4371      52564544 
 4371      3100
 4372              	.LASF104:
 4373 07bb 52455345 		.ascii	"RESERVED2\000"
 4373      52564544 
 4373      3200
 4374              	.LASF106:
 4375 07c5 52455345 		.ascii	"RESERVED3\000"
 4375      52564544 
 4375      3300
 4376              	.LASF108:
 4377 07cf 52455345 		.ascii	"RESERVED4\000"
 4377      52564544 
 4377      3400
 4378              	.LASF110:
 4379 07d9 52455345 		.ascii	"RESERVED5\000"
 4379      52564544 
 4379      3500
 4380              	.LASF5:
 4381 07e3 73686F72 		.ascii	"short int\000"
 4381      7420696E 
 4381      7400
 4382              	.LASF212:
 4383 07ed 70726F63 		.ascii	"process_tp\000"
 4383      6573735F 
 4383      747000
 4384              	.LASF67:
 4385 07f8 725F6375 		.ascii	"r_current\000"
 4385      7272656E 
 4385      7400
 4386              	.LASF219:
 4387 0802 63684576 		.ascii	"chEvtWaitAnyTimeout\000"
 4387      74576169 
 4387      74416E79 
 4387      54696D65 
 4387      6F757400 
 4388              	.LASF166:
 4389 0816 43414E52 		.ascii	"CANRxFrame\000"
 4389      78467261 
 4389      6D6500
 4390              	.LASF130:
 4391 0821 6D5F7175 		.ascii	"m_queue\000"
 4391      65756500 
 4392              	.LASF9:
 4393 0829 6C6F6E67 		.ascii	"long int\000"
 4393      20696E74 
 4393      00
 4394              	.LASF116:
 4395 0832 706F7274 		.ascii	"port_intctx\000"
 4395      5F696E74 
 4395      63747800 
 4396              	.LASF203:
 4397 083e 63616E63 		.ascii	"cancom_read_thread_wa\000"
 4397      6F6D5F72 
 4397      6561645F 
 4397      74687265 
 4397      61645F77 
ARM GAS  C:\Users\IDONNO~1\AppData\Local\Temp\cc96zqnk.s 			page 85


 4398              	.LASF214:
 4399 0854 49544D5F 		.ascii	"ITM_RxBuffer\000"
 4399      52784275 
 4399      66666572 
 4399      00
 4400              	.LASF174:
 4401 0861 6572726F 		.ascii	"error_event\000"
 4401      725F6576 
 4401      656E7400 
 4402              	.LASF83:
 4403 086d 63685F73 		.ascii	"ch_system\000"
 4403      79737465 
 4403      6D00
 4404              	.LASF147:
 4405 0877 4F545950 		.ascii	"OTYPER\000"
 4405      455200
 4406              	.LASF35:
 4407 087e 705F6E65 		.ascii	"p_next\000"
 4407      787400
 4408              	.LASF21:
 4409 0885 75696E74 		.ascii	"uint64_t\000"
 4409      36345F74 
 4409      00
 4410              	.LASF38:
 4411 088e 705F6374 		.ascii	"p_ctx\000"
 4411      7800
 4412              	.LASF84:
 4413 0894 726C6973 		.ascii	"rlist\000"
 4413      7400
 4414              	.LASF3:
 4415 089a 5F5F7569 		.ascii	"__uint8_t\000"
 4415      6E74385F 
 4415      7400
 4416              	.LASF170:
 4417 08a4 74787175 		.ascii	"txqueue\000"
 4417      65756500 
 4418              	.LASF181:
 4419 08ac 6E616D65 		.ascii	"name\000"
 4419      00
 4420              	.LASF137:
 4421 08b1 656C5F6C 		.ascii	"el_listener\000"
 4421      69737465 
 4421      6E657200 
 4422              	.LASF191:
 4423 08bd 636F6D6D 		.ascii	"commands_send\000"
 4423      616E6473 
 4423      5F73656E 
 4423      6400
 4424              	.LASF216:
 4425 08cb 63684576 		.ascii	"chEvtWaitAny\000"
 4425      74576169 
 4425      74416E79 
 4425      00
 4426              	.LASF160:
 4427 08d8 43414E5F 		.ascii	"CAN_SLEEP\000"
 4427      534C4545 
 4427      5000
ARM GAS  C:\Users\IDONNO~1\AppData\Local\Temp\cc96zqnk.s 			page 86


 4428              	.LASF36:
 4429 08e2 705F7072 		.ascii	"p_prev\000"
 4429      657600
 4430              	.LASF15:
 4431 08e9 73697A65 		.ascii	"sizetype\000"
 4431      74797065 
 4431      00
 4432              	.LASF25:
 4433 08f2 74726566 		.ascii	"trefs_t\000"
 4433      735F7400 
 4434              	.LASF134:
 4435 08fa 6576656E 		.ascii	"event_listener_t\000"
 4435      745F6C69 
 4435      7374656E 
 4435      65725F74 
 4435      00
 4436              	.LASF103:
 4437 090b 464D3152 		.ascii	"FM1R\000"
 4437      00
 4438              	.LASF60:
 4439 0910 72656164 		.ascii	"ready_list_t\000"
 4439      795F6C69 
 4439      73745F74 
 4439      00
 4440              	.LASF206:
 4441 091d 63616E5F 		.ascii	"can_mtx\000"
 4441      6D747800 
 4442              	.LASF19:
 4443 0925 696E7433 		.ascii	"int32_t\000"
 4443      325F7400 
 4444              	.LASF90:
 4445 092d 54444852 		.ascii	"TDHR\000"
 4445      00
 4446              	.LASF123:
 4447 0932 77747365 		.ascii	"wtsemp\000"
 4447      6D7000
 4448              	.LASF168:
 4449 0939 73746174 		.ascii	"state\000"
 4449      6500
 4450              	.LASF207:
 4451 093f 72785F62 		.ascii	"rx_buffer\000"
 4451      75666665 
 4451      7200
 4452              	.LASF133:
 4453 0949 6D757465 		.ascii	"mutex_t\000"
 4453      785F7400 
 4454              	.LASF4:
 4455 0951 756E7369 		.ascii	"unsigned char\000"
 4455      676E6564 
 4455      20636861 
 4455      7200
 4456              	.LASF10:
 4457 095f 5F5F7569 		.ascii	"__uint32_t\000"
 4457      6E743332 
 4457      5F7400
 4458              	.LASF76:
 4459 096a 76697274 		.ascii	"virtual_timers_list_t\000"
ARM GAS  C:\Users\IDONNO~1\AppData\Local\Temp\cc96zqnk.s 			page 87


 4459      75616C5F 
 4459      74696D65 
 4459      72735F6C 
 4459      6973745F 
 4460              	.LASF138:
 4461 0980 656C5F65 		.ascii	"el_events\000"
 4461      76656E74 
 4461      7300
 4462              	.LASF81:
 4463 098a 70616E69 		.ascii	"panic_msg\000"
 4463      635F6D73 
 4463      6700
 4464              	.LASF182:
 4465 0994 6576656E 		.ascii	"events\000"
 4465      747300
 4466              	.LASF217:
 4467 099b 63685468 		.ascii	"chThdSleep\000"
 4467      64536C65 
 4467      657000
 4468              	.LASF45:
 4469 09a6 705F7072 		.ascii	"p_preempt\000"
 4469      65656D70 
 4469      7400
 4470              	.LASF114:
 4471 09b0 73746B61 		.ascii	"stkalign_t\000"
 4471      6C69676E 
 4471      5F7400
 4472              	.LASF221:
 4473 09bb 63684576 		.ascii	"chEvtSignal\000"
 4473      74536967 
 4473      6E616C00 
 4474              	.LASF97:
 4475 09c7 52463052 		.ascii	"RF0R\000"
 4475      00
 4476              	.LASF177:
 4477 09cc 43414E44 		.ascii	"CANDriver\000"
 4477      72697665 
 4477      7200
 4478              	.LASF50:
 4479 09d6 705F6570 		.ascii	"p_epending\000"
 4479      656E6469 
 4479      6E6700
 4480              	.LASF71:
 4481 09e1 76745F6E 		.ascii	"vt_next\000"
 4481      65787400 
 4482              	.LASF224:
 4483 09e9 5F70616C 		.ascii	"_pal_lld_setgroupmode\000"
 4483      5F6C6C64 
 4483      5F736574 
 4483      67726F75 
 4483      706D6F64 
 4484              	.LASF82:
 4485 09ff 63685F73 		.ascii	"ch_system_t\000"
 4485      79737465 
 4485      6D5F7400 
 4486              	.LASF122:
 4487 0a0b 77747472 		.ascii	"wttrp\000"
ARM GAS  C:\Users\IDONNO~1\AppData\Local\Temp\cc96zqnk.s 			page 88


 4487      7000
 4488              	.LASF44:
 4489 0a11 705F7265 		.ascii	"p_refs\000"
 4489      667300
 4490              	.LASF132:
 4491 0a18 6D5F6E65 		.ascii	"m_next\000"
 4491      787400
 4492              	.LASF96:
 4493 0a1f 43414E5F 		.ascii	"CAN_FilterRegister_TypeDef\000"
 4493      46696C74 
 4493      65725265 
 4493      67697374 
 4493      65725F54 
 4494              	.LASF1:
 4495 0a3a 7369676E 		.ascii	"signed char\000"
 4495      65642063 
 4495      68617200 
 4496              	.LASF93:
 4497 0a46 52444C52 		.ascii	"RDLR\000"
 4497      00
 4498              	.LASF7:
 4499 0a4b 73686F72 		.ascii	"short unsigned int\000"
 4499      7420756E 
 4499      7369676E 
 4499      65642069 
 4499      6E7400
 4500              	.LASF64:
 4501 0a5e 725F6374 		.ascii	"r_ctx\000"
 4501      7800
 4502              	.LASF218:
 4503 0a64 63684576 		.ascii	"chEvtRegisterMaskWithFlags\000"
 4503      74526567 
 4503      69737465 
 4503      724D6173 
 4503      6B576974 
 4504              	.LASF185:
 4505 0a7f 63685468 		.ascii	"chThdGetSelfX\000"
 4505      64476574 
 4505      53656C66 
 4505      5800
 4506              	.LASF164:
 4507 0a8d 64617461 		.ascii	"data16\000"
 4507      313600
 4508              	.LASF98:
 4509 0a94 52463152 		.ascii	"RF1R\000"
 4509      00
 4510              	.LASF74:
 4511 0a99 76745F66 		.ascii	"vt_func\000"
 4511      756E6300 
 4512              	.LASF72:
 4513 0aa1 76745F70 		.ascii	"vt_prev\000"
 4513      72657600 
 4514              	.LASF29:
 4515 0aa9 6576656E 		.ascii	"eventid_t\000"
 4515      7469645F 
 4515      7400
 4516              	.LASF188:
ARM GAS  C:\Users\IDONNO~1\AppData\Local\Temp\cc96zqnk.s 			page 89


 4517 0ab3 72786275 		.ascii	"rxbuf_ind\000"
 4517      665F696E 
 4517      6400
 4518              	.LASF210:
 4519 0abd 72785F66 		.ascii	"rx_frame_read\000"
 4519      72616D65 
 4519      5F726561 
 4519      6400
 4520              	.LASF139:
 4521 0acb 656C5F66 		.ascii	"el_flags\000"
 4521      6C616773 
 4521      00
 4522              	.LASF120:
 4523 0ad4 65786974 		.ascii	"exitcode\000"
 4523      636F6465 
 4523      00
 4524              	.LASF208:
 4525 0add 72785F62 		.ascii	"rx_buffer_last_id\000"
 4525      75666665 
 4525      725F6C61 
 4525      73745F69 
 4525      6400
 4526              	.LASF151:
 4527 0aef 4C434B52 		.ascii	"LCKR\000"
 4527      00
 4528              		.ident	"GCC: (GNU Tools for ARM Embedded Processors) 5.4.1 20160919 (release) [ARM/embedded-5-bran
ARM GAS  C:\Users\IDONNO~1\AppData\Local\Temp\cc96zqnk.s 			page 90


DEFINED SYMBOLS
                            *ABS*:00000000 comm_can.c
C:\Users\IDONNO~1\AppData\Local\Temp\cc96zqnk.s:22     .text.cancom_process_thread:00000000 $t
C:\Users\IDONNO~1\AppData\Local\Temp\cc96zqnk.s:27     .text.cancom_process_thread:00000000 cancom_process_thread
C:\Users\IDONNO~1\AppData\Local\Temp\cc96zqnk.s:100    .text.cancom_process_thread:00000038 $d
C:\Users\IDONNO~1\AppData\Local\Temp\cc96zqnk.s:109    .text.cancom_status_thread:00000000 $t
C:\Users\IDONNO~1\AppData\Local\Temp\cc96zqnk.s:114    .text.cancom_status_thread:00000000 cancom_status_thread
C:\Users\IDONNO~1\AppData\Local\Temp\cc96zqnk.s:145    .text.cancom_status_thread:00000014 $d
C:\Users\IDONNO~1\AppData\Local\Temp\cc96zqnk.s:151    .text.cancom_read_thread:00000000 $t
C:\Users\IDONNO~1\AppData\Local\Temp\cc96zqnk.s:156    .text.cancom_read_thread:00000000 cancom_read_thread
C:\Users\IDONNO~1\AppData\Local\Temp\cc96zqnk.s:294    .text.cancom_read_thread:00000080 $d
C:\Users\IDONNO~1\AppData\Local\Temp\cc96zqnk.s:304    .text.comm_can_init:00000000 $t
C:\Users\IDONNO~1\AppData\Local\Temp\cc96zqnk.s:310    .text.comm_can_init:00000000 comm_can_init
C:\Users\IDONNO~1\AppData\Local\Temp\cc96zqnk.s:390    .text.comm_can_init:00000070 $d
C:\Users\IDONNO~1\AppData\Local\Temp\cc96zqnk.s:406    .text.comm_can_transmit:00000000 $t
C:\Users\IDONNO~1\AppData\Local\Temp\cc96zqnk.s:412    .text.comm_can_transmit:00000000 comm_can_transmit
C:\Users\IDONNO~1\AppData\Local\Temp\cc96zqnk.s:425    .text.comm_can_send_buffer:00000000 $t
C:\Users\IDONNO~1\AppData\Local\Temp\cc96zqnk.s:431    .text.comm_can_send_buffer:00000000 comm_can_send_buffer
C:\Users\IDONNO~1\AppData\Local\Temp\cc96zqnk.s:444    .bss.cancom_process_thread_wa:00000000 $d
C:\Users\IDONNO~1\AppData\Local\Temp\cc96zqnk.s:448    .bss.cancom_process_thread_wa:00000000 cancom_process_thread_wa
C:\Users\IDONNO~1\AppData\Local\Temp\cc96zqnk.s:451    .bss.rx_frame_read:00000000 $d
C:\Users\IDONNO~1\AppData\Local\Temp\cc96zqnk.s:455    .bss.rx_frame_read:00000000 rx_frame_read
C:\Users\IDONNO~1\AppData\Local\Temp\cc96zqnk.s:458    .rodata.cancfg:00000000 $d
C:\Users\IDONNO~1\AppData\Local\Temp\cc96zqnk.s:462    .rodata.cancfg:00000000 cancfg
C:\Users\IDONNO~1\AppData\Local\Temp\cc96zqnk.s:466    .bss.cancom_status_thread_wa:00000000 $d
C:\Users\IDONNO~1\AppData\Local\Temp\cc96zqnk.s:470    .bss.cancom_status_thread_wa:00000000 cancom_status_thread_wa
C:\Users\IDONNO~1\AppData\Local\Temp\cc96zqnk.s:473    .rodata.str1.4:00000000 $d
C:\Users\IDONNO~1\AppData\Local\Temp\cc96zqnk.s:483    .bss.can_mtx:00000000 $d
C:\Users\IDONNO~1\AppData\Local\Temp\cc96zqnk.s:487    .bss.can_mtx:00000000 can_mtx
C:\Users\IDONNO~1\AppData\Local\Temp\cc96zqnk.s:490    .bss.cancom_read_thread_wa:00000000 $d
C:\Users\IDONNO~1\AppData\Local\Temp\cc96zqnk.s:494    .bss.cancom_read_thread_wa:00000000 cancom_read_thread_wa
C:\Users\IDONNO~1\AppData\Local\Temp\cc96zqnk.s:497    .bss.process_tp:00000000 $d
C:\Users\IDONNO~1\AppData\Local\Temp\cc96zqnk.s:501    .bss.process_tp:00000000 process_tp
C:\Users\IDONNO~1\AppData\Local\Temp\cc96zqnk.s:504    .bss.rx_frame_write:00000000 $d
C:\Users\IDONNO~1\AppData\Local\Temp\cc96zqnk.s:508    .bss.rx_frame_write:00000000 rx_frame_write
                     .debug_frame:00000010 $d

UNDEFINED SYMBOLS
chEvtWaitAny
ch
chThdSleep
chEvtRegisterMaskWithFlags
chEvtWaitAnyTimeout
canReceive
chEvtSignal
chEvtUnregister
CAND1
chMtxObjectInit
_pal_lld_setgroupmode
canStart
chThdCreateStatic
