ARM GAS  C:\Users\IDONNO~1.SON\AppData\Local\Temp\ccLhRrVm.s 			page 1


   1              		.syntax unified
   2              		.cpu cortex-m4
   3              		.eabi_attribute 27, 1
   4              		.eabi_attribute 28, 1
   5              		.fpu fpv4-sp-d16
   6              		.eabi_attribute 20, 1
   7              		.eabi_attribute 21, 1
   8              		.eabi_attribute 23, 3
   9              		.eabi_attribute 24, 1
  10              		.eabi_attribute 25, 1
  11              		.eabi_attribute 26, 1
  12              		.eabi_attribute 30, 2
  13              		.eabi_attribute 34, 1
  14              		.eabi_attribute 18, 4
  15              		.thumb
  16              		.syntax unified
  17              		.file	"comm_usb.c"
  18              		.text
  19              	.Ltext0:
  20              		.cfi_sections	.debug_frame
  21              		.section	.text.comm_usb_init,"ax",%progbits
  22              		.align	2
  23              		.p2align 4,,15
  24              		.global	comm_usb_init
  25              		.thumb
  26              		.thumb_func
  27              		.type	comm_usb_init, %function
  28              	comm_usb_init:
  29              	.LFB261:
  30              		.file 1 "src/core/comm_usb.c"
  31              		.loc 1 118 0
  32              		.cfi_startproc
  33              		@ args = 0, pretend = 0, frame = 0
  34              		@ frame_needed = 0, uses_anonymous_args = 0
  35 0000 08B5     		push	{r3, lr}
  36              		.cfi_def_cfa_offset 8
  37              		.cfi_offset 3, -8
  38              		.cfi_offset 14, -4
  39              		.loc 1 119 0
  40 0002 FFF7FEFF 		bl	usb_uart_init
  41              	.LVL0:
  42              		.loc 1 122 0
  43 0006 0248     		ldr	r0, .L3
  44              		.loc 1 127 0
  45 0008 BDE80840 		pop	{r3, lr}
  46              		.cfi_restore 14
  47              		.cfi_restore 3
  48              		.cfi_def_cfa_offset 0
  49              		.loc 1 122 0
  50 000c FFF7FEBF 		b	chMtxObjectInit
  51              	.LVL1:
  52              	.L4:
  53              		.align	2
  54              	.L3:
  55 0010 00000000 		.word	.LANCHOR0
  56              		.cfi_endproc
  57              	.LFE261:
ARM GAS  C:\Users\IDONNO~1.SON\AppData\Local\Temp\ccLhRrVm.s 			page 2


  58              		.size	comm_usb_init, .-comm_usb_init
  59              		.section	.bss.send_mutex,"aw",%nobits
  60              		.align	2
  61              		.set	.LANCHOR0,. + 0
  62              		.type	send_mutex, %object
  63              		.size	send_mutex, 16
  64              	send_mutex:
  65 0000 00000000 		.space	16
  65      00000000 
  65      00000000 
  65      00000000 
  66              		.text
  67              	.Letext0:
  68              		.file 2 "c:\\program files (x86)\\gnu tools arm embedded\\5.4 2016q2\\lib\\gcc\\arm-none-eabi\\5.4
  69              		.file 3 "c:\\program files (x86)\\gnu tools arm embedded\\5.4 2016q2\\arm-none-eabi\\include\\mach
  70              		.file 4 "c:\\program files (x86)\\gnu tools arm embedded\\5.4 2016q2\\arm-none-eabi\\include\\sys\
  71              		.file 5 "lib/ChibiOS_3.0.2/os/rt/ports/ARMCMx/compilers/GCC/chtypes.h"
  72              		.file 6 "lib/ChibiOS_3.0.2/os/rt/include/chsystypes.h"
  73              		.file 7 "lib/ChibiOS_3.0.2/os/rt/include/chschd.h"
  74              		.file 8 "lib/ChibiOS_3.0.2/os/rt/ports/ARMCMx/chcore.h"
  75              		.file 9 "lib/ChibiOS_3.0.2/os/rt/ports/ARMCMx/chcore_v7m.h"
  76              		.file 10 "lib/ChibiOS_3.0.2/os/rt/include/chtm.h"
  77              		.file 11 "lib/ChibiOS_3.0.2/os/rt/include/chsem.h"
  78              		.file 12 "lib/ChibiOS_3.0.2/os/rt/include/chmtx.h"
  79              		.file 13 "lib/ChibiOS_3.0.2/os/rt/include/chevents.h"
  80              		.file 14 "lib/ChibiOS_3.0.2/os/rt/include/chqueues.h"
  81              		.file 15 "lib/ChibiOS_3.0.2/os/hal/include/usb.h"
  82              		.file 16 "lib/ChibiOS_3.0.2/os/hal/ports/STM32/LLD/OTGv1/usb_lld.h"
  83              		.file 17 "lib/ChibiOS_3.0.2/os/hal/ports/STM32/LLD/OTGv1/stm32_otg.h"
  84              		.file 18 "lib/ChibiOS_3.0.2/os/hal/include/serial_usb.h"
  85              		.file 19 "lib/ChibiOS_3.0.2/os/ext/CMSIS/include/core_cm4.h"
  86              		.file 20 "src/core/usb_uart.h"