ARM GAS  C:\Users\IDONNO~1\AppData\Local\Temp\ccKMQqwp.s 			page 1


   1              		.syntax unified
   2              		.cpu cortex-m4
   3              		.eabi_attribute 27, 1
   4              		.eabi_attribute 28, 1
   5              		.fpu fpv4-sp-d16
   6              		.eabi_attribute 20, 1
   7              		.eabi_attribute 21, 1
   8              		.eabi_attribute 23, 3
   9              		.eabi_attribute 24, 1
  10              		.eabi_attribute 25, 1
  11              		.eabi_attribute 26, 1
  12              		.eabi_attribute 30, 2
  13              		.eabi_attribute 34, 1
  14              		.eabi_attribute 18, 4
  15              		.thumb
  16              		.syntax unified
  17              		.file	"conf_general.c"
  18              		.text
  19              	.Ltext0:
  20              		.cfi_sections	.debug_frame
  21              		.section	.text.conf_general_init,"ax",%progbits
  22              		.align	2
  23              		.p2align 4,,15
  24              		.global	conf_general_init
  25              		.thumb
  26              		.thumb_func
  27              		.type	conf_general_init, %function
  28              	conf_general_init:
  29              	.LFB219:
  30              		.file 1 "src/core/conf_general.c"
  31              		.loc 1 113 0
  32              		.cfi_startproc
  33              		@ args = 0, pretend = 0, frame = 0
  34              		@ frame_needed = 0, uses_anonymous_args = 0
  35 0000 08B5     		push	{r3, lr}
  36              		.cfi_def_cfa_offset 8
  37              		.cfi_offset 3, -8
  38              		.cfi_offset 14, -4
  39              		.loc 1 115 0
  40 0002 4FF4A072 		mov	r2, #320
  41 0006 0021     		movs	r1, #0
  42 0008 0F48     		ldr	r0, .L8
  43 000a FFF7FEFF 		bl	memset
  44              	.LVL0:
  45 000e 0F49     		ldr	r1, .L8+4
  46 0010 4FF47A73 		mov	r3, #1000
  47 0014 01F18C02 		add	r2, r1, #140
  48              	.LVL1:
  49              	.L2:
  50              	.LBB2:
  51              		.loc 1 119 0 discriminator 3
  52 0018 21F8023F 		strh	r3, [r1, #2]!	@ movhi
  53 001c 0133     		adds	r3, r3, #1
  54              		.loc 1 118 0 discriminator 3
  55 001e 8A42     		cmp	r2, r1
  56 0020 9BB2     		uxth	r3, r3
  57 0022 F9D1     		bne	.L2
ARM GAS  C:\Users\IDONNO~1\AppData\Local\Temp\ccKMQqwp.s 			page 2


  58 0024 0A49     		ldr	r1, .L8+8
  59              		.loc 1 118 0 is_stmt 0
  60 0026 4FF4FA63 		mov	r3, #2000
  61              	.L3:
  62              	.LBE2:
  63              	.LBB3:
  64              		.loc 1 123 0 is_stmt 1 discriminator 3
  65 002a 22F8023F 		strh	r3, [r2, #2]!	@ movhi
  66              	.LVL2:
  67 002e 0133     		adds	r3, r3, #1
  68              		.loc 1 122 0 discriminator 3
  69 0030 9142     		cmp	r1, r2
  70 0032 9BB2     		uxth	r3, r3
  71 0034 F9D1     		bne	.L3
  72              	.LBE3:
  73              		.loc 1 126 0
  74 0036 FFF7FEFF 		bl	FLASH_Unlock
  75              	.LVL3:
  76              		.loc 1 127 0
  77 003a F220     		movs	r0, #242
  78 003c FFF7FEFF 		bl	FLASH_ClearFlag
  79              	.LVL4:
  80              		.loc 1 130 0
  81 0040 BDE80840 		pop	{r3, lr}
  82              		.cfi_restore 14
  83              		.cfi_restore 3
  84              		.cfi_def_cfa_offset 0
  85              		.loc 1 129 0
  86 0044 FFF7FEBF 		b	EE_Init
  87              	.LVL5:
  88              	.L9:
  89              		.align	2
  90              	.L8:
  91 0048 00000000 		.word	.LANCHOR0
  92 004c FEFFFFFF 		.word	.LANCHOR0-2
  93 0050 16010000 		.word	.LANCHOR0+278
  94              		.cfi_endproc
  95              	.LFE219:
  96              		.size	conf_general_init, .-conf_general_init
  97              		.section	.text.conf_general_read_app_configuration,"ax",%progbits
  98              		.align	2
  99              		.p2align 4,,15
 100              		.global	conf_general_read_app_configuration
 101              		.thumb
 102              		.thumb_func
 103              		.type	conf_general_read_app_configuration, %function
 104              	conf_general_read_app_configuration:
 105              	.LFB220:
 106              		.loc 1 138 0
 107              		.cfi_startproc
 108              		@ args = 0, pretend = 0, frame = 8
 109              		@ frame_needed = 0, uses_anonymous_args = 0
 110              	.LVL6:
 111 0000 F0B5     		push	{r4, r5, r6, r7, lr}
 112              		.cfi_def_cfa_offset 20
 113              		.cfi_offset 4, -20
 114              		.cfi_offset 5, -16
ARM GAS  C:\Users\IDONNO~1\AppData\Local\Temp\ccKMQqwp.s 			page 3


 115              		.cfi_offset 6, -12
 116              		.cfi_offset 7, -8
 117              		.cfi_offset 14, -4
 118 0002 0646     		mov	r6, r0
 119              	.LVL7:
 120 0004 83B0     		sub	sp, sp, #12
 121              		.cfi_def_cfa_offset 32
 122 0006 451C     		adds	r5, r0, #1
 123              		.loc 1 138 0
 124 0008 4FF4FA64 		mov	r4, #2000
 125              	.LBB4:
 126              		.loc 1 143 0
 127 000c 40F61607 		movw	r7, #2070
 128 0010 09E0     		b	.L12
 129              	.LVL8:
 130              	.L16:
 131              		.loc 1 145 0
 132 0012 BDF80630 		ldrh	r3, [sp, #6]
 133              		.loc 1 143 0
 134 0016 BC42     		cmp	r4, r7
 135              		.loc 1 145 0
 136 0018 4FEA1322 		lsr	r2, r3, #8
 137 001c 05F8012C 		strb	r2, [r5, #-1]
 138              		.loc 1 146 0
 139 0020 05F8023B 		strb	r3, [r5], #2
 140              		.loc 1 143 0
 141 0024 61D0     		beq	.L10
 142              	.L12:
 143              		.loc 1 144 0
 144 0026 2046     		mov	r0, r4
 145 0028 0DF10601 		add	r1, sp, #6
 146 002c FFF7FEFF 		bl	EE_ReadVariable
 147              	.LVL9:
 148 0030 0134     		adds	r4, r4, #1
 149 0032 A4B2     		uxth	r4, r4
 150 0034 0028     		cmp	r0, #0
 151 0036 ECD0     		beq	.L16
 152              	.LVL10:
 153              	.LBE4:
 154              		.loc 1 155 0
 155 0038 8C22     		movs	r2, #140
 156 003a 0021     		movs	r1, #0
 157              		.loc 1 157 0
 158 003c 4FF47A75 		mov	r5, #1000
 159              		.loc 1 155 0
 160 0040 3046     		mov	r0, r6
 161 0042 FFF7FEFF 		bl	memset
 162              	.LVL11:
 163              		.loc 1 174 0
 164 0046 2A4A     		ldr	r2, .L17
 165              		.loc 1 157 0
 166 0048 7560     		str	r5, [r6, #4]
 167              		.loc 1 164 0
 168 004a 0325     		movs	r5, #3
 169              		.loc 1 174 0
 170 004c 7263     		str	r2, [r6, #52]	@ float
 171              		.loc 1 188 0
ARM GAS  C:\Users\IDONNO~1\AppData\Local\Temp\ccKMQqwp.s 			page 4


 172 004e B265     		str	r2, [r6, #88]	@ float
 173              		.loc 1 164 0
 174 0050 3575     		strb	r5, [r6, #20]
 175              		.loc 1 160 0
 176 0052 4FF4FA72 		mov	r2, #500
 177              		.loc 1 170 0
 178 0056 4FF08045 		mov	r5, #1073741824
 179              		.loc 1 167 0
 180 005a 264B     		ldr	r3, .L17+4
 181              		.loc 1 160 0
 182 005c 3261     		str	r2, [r6, #16]
 183              		.loc 1 192 0
 184 005e 7266     		str	r2, [r6, #100]
 185              		.loc 1 170 0
 186 0060 B562     		str	r5, [r6, #40]	@ float
 187              		.loc 1 169 0
 188 0062 4FF07E52 		mov	r2, #1065353216
 189              		.loc 1 182 0
 190 0066 244D     		ldr	r5, .L17+8
 191              		.loc 1 168 0
 192 0068 244C     		ldr	r4, .L17+12
 193              		.loc 1 173 0
 194 006a 2548     		ldr	r0, .L17+16
 195              		.loc 1 177 0
 196 006c 2549     		ldr	r1, .L17+20
 197              		.loc 1 167 0
 198 006e F361     		str	r3, [r6, #28]	@ float
 199              		.loc 1 169 0
 200 0070 7262     		str	r2, [r6, #36]	@ float
 201              		.loc 1 156 0
 202 0072 0023     		movs	r3, #0
 203              		.loc 1 172 0
 204 0074 0122     		movs	r2, #1
 205              		.loc 1 182 0
 206 0076 F564     		str	r5, [r6, #76]	@ float
 207              		.loc 1 181 0
 208 0078 DFF890E0 		ldr	lr, .L17+28
 209              		.loc 1 168 0
 210 007c 3462     		str	r4, [r6, #32]	@ float
 211              		.loc 1 194 0
 212 007e 4FF4E135 		mov	r5, #115200
 213              		.loc 1 180 0
 214 0082 7464     		str	r4, [r6, #68]	@ float
 215              		.loc 1 194 0
 216 0084 B566     		str	r5, [r6, #104]
 217              		.loc 1 199 0
 218 0086 204F     		ldr	r7, .L17+24
 219              		.loc 1 173 0
 220 0088 3063     		str	r0, [r6, #48]	@ float
 221              		.loc 1 187 0
 222 008a 7065     		str	r0, [r6, #84]	@ float
 223              		.loc 1 177 0
 224 008c F163     		str	r1, [r6, #60]	@ float
 225              		.loc 1 191 0
 226 008e 3166     		str	r1, [r6, #96]	@ float
 227              		.loc 1 181 0
 228 0090 C6F848E0 		str	lr, [r6, #72]	@ float
ARM GAS  C:\Users\IDONNO~1\AppData\Local\Temp\ccKMQqwp.s 			page 5


 229              		.loc 1 156 0
 230 0094 3370     		strb	r3, [r6]
 231              		.loc 1 159 0
 232 0096 3373     		strb	r3, [r6, #12]
 233              		.loc 1 166 0
 234 0098 3376     		strb	r3, [r6, #24]
 235              		.loc 1 171 0
 236 009a 86F82C30 		strb	r3, [r6, #44]
 237              		.loc 1 175 0
 238 009e 86F83830 		strb	r3, [r6, #56]
 239              		.loc 1 176 0
 240 00a2 86F83930 		strb	r3, [r6, #57]
 241              		.loc 1 179 0
 242 00a6 86F84030 		strb	r3, [r6, #64]
 243              		.loc 1 185 0
 244 00aa 86F85230 		strb	r3, [r6, #82]
 245              		.loc 1 186 0
 246 00ae 86F85330 		strb	r3, [r6, #83]
 247              		.loc 1 189 0
 248 00b2 86F85C30 		strb	r3, [r6, #92]
 249              		.loc 1 190 0
 250 00b6 86F85D30 		strb	r3, [r6, #93]
 251              		.loc 1 172 0
 252 00ba 86F82D20 		strb	r2, [r6, #45]
 253              		.loc 1 183 0
 254 00be 86F85020 		strb	r2, [r6, #80]
 255              		.loc 1 184 0
 256 00c2 86F85120 		strb	r2, [r6, #81]
 257              		.loc 1 200 0
 258 00c6 4FF07C55 		mov	r5, #1056964608
 259              		.loc 1 196 0
 260 00ca 86F86C20 		strb	r2, [r6, #108]
 261              		.loc 1 197 0
 262 00ce 3467     		str	r4, [r6, #112]	@ float
 263              		.loc 1 201 0
 264 00d0 4FF07A54 		mov	r4, #1048576000
 265              		.loc 1 198 0
 266 00d4 7067     		str	r0, [r6, #116]	@ float
 267              		.loc 1 202 0
 268 00d6 86F88420 		strb	r2, [r6, #132]
 269              		.loc 1 203 0
 270 00da 86F88530 		strb	r3, [r6, #133]
 271              		.loc 1 204 0
 272 00de C6F88810 		str	r1, [r6, #136]	@ float
 273              		.loc 1 199 0
 274 00e2 B767     		str	r7, [r6, #120]	@ float
 275              		.loc 1 200 0
 276 00e4 F567     		str	r5, [r6, #124]	@ float
 277              		.loc 1 201 0
 278 00e6 C6F88040 		str	r4, [r6, #128]	@ float
 279              	.LVL12:
 280              	.L10:
 281              		.loc 1 206 0
 282 00ea 03B0     		add	sp, sp, #12
 283              		.cfi_def_cfa_offset 20
 284              		@ sp needed
 285 00ec F0BD     		pop	{r4, r5, r6, r7, pc}
ARM GAS  C:\Users\IDONNO~1\AppData\Local\Temp\ccKMQqwp.s 			page 6


 286              	.LVL13:
 287              	.L18:
 288 00ee 00BF     		.align	2
 289              	.L17:
 290 00f0 00504348 		.word	1212370944
 291 00f4 00606A46 		.word	1181376512
 292 00f8 00004040 		.word	1077936128
 293 00fc 9A99193E 		.word	1041865114
 294 0100 007C1248 		.word	1209170944
 295 0104 00803B45 		.word	1161527296
 296 0108 00247448 		.word	1215570944
 297 010c 6666663F 		.word	1063675494
 298              		.cfi_endproc
 299              	.LFE220:
 300              		.size	conf_general_read_app_configuration, .-conf_general_read_app_configuration
 301              		.section	.text.conf_general_store_app_configuration,"ax",%progbits
 302              		.align	2
 303              		.p2align 4,,15
 304              		.global	conf_general_store_app_configuration
 305              		.thumb
 306              		.thumb_func
 307              		.type	conf_general_store_app_configuration, %function
 308              	conf_general_store_app_configuration:
 309              	.LFB221:
 310              		.loc 1 214 0
 311              		.cfi_startproc
 312              		@ args = 0, pretend = 0, frame = 0
 313              		@ frame_needed = 0, uses_anonymous_args = 0
 314              	.LVL14:
 315 0000 70B5     		push	{r4, r5, r6, lr}
 316              		.cfi_def_cfa_offset 16
 317              		.cfi_offset 4, -16
 318              		.cfi_offset 5, -12
 319              		.cfi_offset 6, -8
 320              		.cfi_offset 14, -4
 321              		.loc 1 214 0
 322 0002 0546     		mov	r5, r0
 323              		.loc 1 217 0
 324 0004 FFF7FEFF 		bl	utils_sys_lock_cnt
 325              	.LVL15:
 326              		.loc 1 218 0
 327 0008 0021     		movs	r1, #0
 328 000a 4FF40060 		mov	r0, #2048
 329 000e FFF7FEFF 		bl	RCC_APB1PeriphClockCmd
 330              	.LVL16:
 331              		.loc 1 224 0
 332 0012 F220     		movs	r0, #242
 333 0014 FFF7FEFF 		bl	FLASH_ClearFlag
 334              	.LVL17:
 335 0018 0135     		adds	r5, r5, #1
 336              	.LVL18:
 337 001a 4FF4FA64 		mov	r4, #2000
 338              	.LBB5:
 339              		.loc 1 227 0
 340 001e 40F61606 		movw	r6, #2070
 341 0022 01E0     		b	.L21
 342              	.LVL19:
ARM GAS  C:\Users\IDONNO~1\AppData\Local\Temp\ccKMQqwp.s 			page 7


 343              	.L26:
 344              		.loc 1 227 0 is_stmt 0 discriminator 2
 345 0024 B442     		cmp	r4, r6
 346 0026 17D0     		beq	.L25
 347              	.L21:
 348              		.loc 1 228 0 is_stmt 1
 349 0028 15F8011C 		ldrb	r1, [r5, #-1]	@ zero_extendqisi2
 350              	.LVL20:
 351              		.loc 1 231 0
 352 002c 2B78     		ldrb	r3, [r5]	@ zero_extendqisi2
 353 002e 2046     		mov	r0, r4
 354 0030 43EA0121 		orr	r1, r3, r1, lsl #8
 355              	.LVL21:
 356 0034 FFF7FEFF 		bl	EE_WriteVariable
 357              	.LVL22:
 358 0038 0134     		adds	r4, r4, #1
 359 003a 0928     		cmp	r0, #9
 360 003c A4B2     		uxth	r4, r4
 361 003e 05F10205 		add	r5, r5, #2
 362 0042 EFD0     		beq	.L26
 363              		.loc 1 232 0
 364 0044 0024     		movs	r4, #0
 365              	.L20:
 366              	.LVL23:
 367              	.LBE5:
 368              		.loc 1 237 0
 369 0046 0121     		movs	r1, #1
 370 0048 4FF40060 		mov	r0, #2048
 371 004c FFF7FEFF 		bl	RCC_APB1PeriphClockCmd
 372              	.LVL24:
 373              		.loc 1 238 0
 374 0050 FFF7FEFF 		bl	utils_sys_unlock_cnt
 375              	.LVL25:
 376              		.loc 1 241 0
 377 0054 2046     		mov	r0, r4
 378 0056 70BD     		pop	{r4, r5, r6, pc}
 379              	.LVL26:
 380              	.L25:
 381              		.loc 1 220 0
 382 0058 0124     		movs	r4, #1
 383              	.LBB6:
 384 005a F4E7     		b	.L20
 385              	.LBE6:
 386              		.cfi_endproc
 387              	.LFE221:
 388              		.size	conf_general_store_app_configuration, .-conf_general_store_app_configuration
 389              		.section	.text.conf_general_read_mc_configuration,"ax",%progbits
 390              		.align	2
 391              		.p2align 4,,15
 392              		.global	conf_general_read_mc_configuration
 393              		.thumb
 394              		.thumb_func
 395              		.type	conf_general_read_mc_configuration, %function
 396              	conf_general_read_mc_configuration:
 397              	.LFB222:
 398              		.loc 1 249 0
 399              		.cfi_startproc
ARM GAS  C:\Users\IDONNO~1\AppData\Local\Temp\ccKMQqwp.s 			page 8


 400              		@ args = 0, pretend = 0, frame = 8
 401              		@ frame_needed = 0, uses_anonymous_args = 0
 402              	.LVL27:
 403 0000 F0B5     		push	{r4, r5, r6, r7, lr}
 404              		.cfi_def_cfa_offset 20
 405              		.cfi_offset 4, -20
 406              		.cfi_offset 5, -16
 407              		.cfi_offset 6, -12
 408              		.cfi_offset 7, -8
 409              		.cfi_offset 14, -4
 410 0002 0646     		mov	r6, r0
 411              	.LVL28:
 412 0004 83B0     		sub	sp, sp, #12
 413              		.cfi_def_cfa_offset 32
 414 0006 451C     		adds	r5, r0, #1
 415              		.loc 1 249 0
 416 0008 4FF47A74 		mov	r4, #1000
 417 000c 0AE0     		b	.L29
 418              	.LVL29:
 419              	.L33:
 420              	.LBB7:
 421              		.loc 1 256 0
 422 000e BDF80630 		ldrh	r3, [sp, #6]
 423              		.loc 1 254 0
 424 0012 B4F5886F 		cmp	r4, #1088
 425              		.loc 1 256 0
 426 0016 4FEA1322 		lsr	r2, r3, #8
 427 001a 05F8012C 		strb	r2, [r5, #-1]
 428              		.loc 1 257 0
 429 001e 05F8023B 		strb	r3, [r5], #2
 430              		.loc 1 254 0
 431 0022 76D0     		beq	.L27
 432              	.L29:
 433              		.loc 1 255 0
 434 0024 2046     		mov	r0, r4
 435 0026 0DF10601 		add	r1, sp, #6
 436 002a FFF7FEFF 		bl	EE_ReadVariable
 437              	.LVL30:
 438 002e 0134     		adds	r4, r4, #1
 439 0030 A4B2     		uxth	r4, r4
 440 0032 0028     		cmp	r0, #0
 441 0034 EBD0     		beq	.L33
 442              	.LVL31:
 443              	.LBE7:
 444              		.loc 1 270 0
 445 0036 384A     		ldr	r2, .L34
 446 0038 B260     		str	r2, [r6, #8]	@ float
 447              		.loc 1 290 0
 448 003a 3265     		str	r2, [r6, #80]	@ float
 449              		.loc 1 282 0
 450 003c 374A     		ldr	r2, .L34+4
 451 003e 7263     		str	r2, [r6, #52]	@ float
 452              		.loc 1 284 0
 453 0040 F263     		str	r2, [r6, #60]	@ float
 454              		.loc 1 265 0
 455 0042 0122     		movs	r2, #1
 456              		.loc 1 269 0
ARM GAS  C:\Users\IDONNO~1\AppData\Local\Temp\ccKMQqwp.s 			page 9


 457 0044 364B     		ldr	r3, .L34+8
 458              		.loc 1 265 0
 459 0046 3270     		strb	r2, [r6]
 460              		.loc 1 280 0
 461 0048 86F83020 		strb	r2, [r6, #48]
 462              		.loc 1 281 0
 463 004c 86F83120 		strb	r2, [r6, #49]
 464              		.loc 1 294 0
 465 0050 86F85C20 		strb	r2, [r6, #92]
 466              		.loc 1 272 0
 467 0054 334A     		ldr	r2, .L34+12
 468              		.loc 1 273 0
 469 0056 DFF810E1 		ldr	lr, .L34+80
 470              		.loc 1 274 0
 471 005a 334D     		ldr	r5, .L34+16
 472              		.loc 1 275 0
 473 005c 334F     		ldr	r7, .L34+20
 474              		.loc 1 276 0
 475 005e 344C     		ldr	r4, .L34+24
 476              		.loc 1 277 0
 477 0060 3448     		ldr	r0, .L34+28
 478              		.loc 1 269 0
 479 0062 7360     		str	r3, [r6, #4]	@ float
 480              		.loc 1 271 0
 481 0064 F360     		str	r3, [r6, #12]	@ float
 482              		.loc 1 289 0
 483 0066 F364     		str	r3, [r6, #76]	@ float
 484              		.loc 1 291 0
 485 0068 7365     		str	r3, [r6, #84]	@ float
 486              		.loc 1 279 0
 487 006a 3349     		ldr	r1, .L34+32
 488              		.loc 1 283 0
 489 006c 334B     		ldr	r3, .L34+36
 490              		.loc 1 272 0
 491 006e 3261     		str	r2, [r6, #16]	@ float
 492              		.loc 1 292 0
 493 0070 B265     		str	r2, [r6, #88]	@ float
 494              		.loc 1 278 0
 495 0072 4FF08242 		mov	r2, #1090519040
 496              		.loc 1 273 0
 497 0076 C6F814E0 		str	lr, [r6, #20]	@ float
 498              		.loc 1 274 0
 499 007a B561     		str	r5, [r6, #24]	@ float
 500              		.loc 1 275 0
 501 007c F761     		str	r7, [r6, #28]	@ float
 502              		.loc 1 286 0
 503 007e 304D     		ldr	r5, .L34+40
 504              		.loc 1 287 0
 505 0080 DFF8E8C0 		ldr	ip, .L34+84
 506              		.loc 1 276 0
 507 0084 3462     		str	r4, [r6, #32]	@ float
 508              		.loc 1 277 0
 509 0086 7062     		str	r0, [r6, #36]	@ float
 510              		.loc 1 295 0
 511 0088 2E4C     		ldr	r4, .L34+44
 512              		.loc 1 297 0
 513 008a 2F48     		ldr	r0, .L34+48
ARM GAS  C:\Users\IDONNO~1\AppData\Local\Temp\ccKMQqwp.s 			page 10


 514              		.loc 1 279 0
 515 008c F162     		str	r1, [r6, #44]	@ float
 516              		.loc 1 298 0
 517 008e DFF8E0E0 		ldr	lr, .L34+88
 518              		.loc 1 299 0
 519 0092 2E49     		ldr	r1, .L34+52
 520              		.loc 1 283 0
 521 0094 B363     		str	r3, [r6, #56]	@ float
 522              		.loc 1 285 0
 523 0096 3364     		str	r3, [r6, #64]	@ float
 524              		.loc 1 300 0
 525 0098 2D4F     		ldr	r7, .L34+56
 526              		.loc 1 278 0
 527 009a B262     		str	r2, [r6, #40]	@ float
 528              		.loc 1 266 0
 529 009c 0023     		movs	r3, #0
 530              		.loc 1 296 0
 531 009e 2D4A     		ldr	r2, .L34+60
 532              		.loc 1 286 0
 533 00a0 7564     		str	r5, [r6, #68]	@ float
 534              		.loc 1 287 0
 535 00a2 C6F848C0 		str	ip, [r6, #72]	@ float
 536              		.loc 1 295 0
 537 00a6 3466     		str	r4, [r6, #96]	@ float
 538              		.loc 1 297 0
 539 00a8 7066     		str	r0, [r6, #100]	@ float
 540              		.loc 1 307 0
 541 00aa 2B4C     		ldr	r4, .L34+64
 542              		.loc 1 308 0
 543 00ac 2B48     		ldr	r0, .L34+68
 544              		.loc 1 298 0
 545 00ae C6F86CE0 		str	lr, [r6, #108]	@ float
 546              		.loc 1 299 0
 547 00b2 3167     		str	r1, [r6, #112]	@ float
 548              		.loc 1 266 0
 549 00b4 7370     		strb	r3, [r6, #1]
 550              		.loc 1 309 0
 551 00b6 0021     		movs	r1, #0
 552              		.loc 1 267 0
 553 00b8 B370     		strb	r3, [r6, #2]
 554              		.loc 1 296 0
 555 00ba B266     		str	r2, [r6, #104]	@ float
 556              		.loc 1 301 0
 557 00bc DFF8B4C0 		ldr	ip, .L34+92
 558              		.loc 1 300 0
 559 00c0 7767     		str	r7, [r6, #116]	@ float
 560              		.loc 1 310 0
 561 00c2 DFF8B4E0 		ldr	lr, .L34+96
 562              		.loc 1 316 0
 563 00c6 C6F89C50 		str	r5, [r6, #156]	@ float
 564              		.loc 1 318 0
 565 00ca 254F     		ldr	r7, .L34+72
 566              		.loc 1 303 0
 567 00cc 86F87C30 		strb	r3, [r6, #124]
 568              		.loc 1 304 0
 569 00d0 86F87D30 		strb	r3, [r6, #125]
 570              		.loc 1 305 0
ARM GAS  C:\Users\IDONNO~1\AppData\Local\Temp\ccKMQqwp.s 			page 11


 571 00d4 86F87E30 		strb	r3, [r6, #126]
 572              		.loc 1 319 0
 573 00d8 224D     		ldr	r5, .L34+76
 574              		.loc 1 301 0
 575 00da C6F878C0 		str	ip, [r6, #120]	@ float
 576              		.loc 1 317 0
 577 00de 4FF07E52 		mov	r2, #1065353216
 578              		.loc 1 321 0
 579 00e2 40F6B833 		movw	r3, #3000
 580              		.loc 1 307 0
 581 00e6 C6F88040 		str	r4, [r6, #128]	@ float
 582              		.loc 1 312 0
 583 00ea C6F89040 		str	r4, [r6, #144]	@ float
 584              		.loc 1 308 0
 585 00ee C6F88400 		str	r0, [r6, #132]	@ float
 586              		.loc 1 313 0
 587 00f2 C6F89400 		str	r0, [r6, #148]	@ float
 588              		.loc 1 309 0
 589 00f6 C6F88810 		str	r1, [r6, #136]	@ float
 590              		.loc 1 314 0
 591 00fa C6F89810 		str	r1, [r6, #152]	@ float
 592              		.loc 1 310 0
 593 00fe C6F88CE0 		str	lr, [r6, #140]	@ float
 594              		.loc 1 318 0
 595 0102 C6F8A470 		str	r7, [r6, #164]	@ float
 596              		.loc 1 319 0
 597 0106 C6F8A850 		str	r5, [r6, #168]	@ float
 598              		.loc 1 317 0
 599 010a C6F8A020 		str	r2, [r6, #160]	@ float
 600              		.loc 1 321 0
 601 010e C6F8AC30 		str	r3, [r6, #172]
 602              	.LVL32:
 603              	.L27:
 604              		.loc 1 323 0
 605 0112 03B0     		add	sp, sp, #12
 606              		.cfi_def_cfa_offset 20
 607              		@ sp needed
 608 0114 F0BD     		pop	{r4, r5, r6, r7, pc}
 609              	.LVL33:
 610              	.L35:
 611 0116 00BF     		.align	2
 612              	.L34:
 613 0118 000070C2 		.word	-1032847360
 614 011c 0000A042 		.word	1117782016
 615 0120 00007042 		.word	1114636288
 616 0124 0000A0C1 		.word	-1046478848
 617 0128 0050C3C7 		.word	-943501312
 618 012c 0050C347 		.word	1203982336
 619 0130 00009643 		.word	1133903872
 620 0134 0080BB44 		.word	1153138688
 621 0138 00004842 		.word	1112014848
 622 013c 0000C842 		.word	1120403456
 623 0140 0AD7233C 		.word	1008981770
 624 0144 00001643 		.word	1125515264
 625 0148 00808944 		.word	1149861888
 626 014c CDCC4C3F 		.word	1061997773
 627 0150 00409C47 		.word	1201422336
ARM GAS  C:\Users\IDONNO~1\AppData\Local\Temp\ccKMQqwp.s 			page 12


 628 0154 00002041 		.word	1092616192
 629 0158 17B7D138 		.word	953267991
 630 015c 6F12033B 		.word	990057071
 631 0160 99BB963B 		.word	999734169
 632 0164 0AD7233D 		.word	1025758986
 633 0168 00000243 		.word	1124204544
 634 016c 3333733F 		.word	1064514355
 635 0170 00007842 		.word	1115160576
 636 0174 00001644 		.word	1142292480
 637 0178 00006144 		.word	1147207680
 638              		.cfi_endproc
 639              	.LFE222:
 640              		.size	conf_general_read_mc_configuration, .-conf_general_read_mc_configuration
 641              		.section	.text.conf_general_store_mc_configuration,"ax",%progbits
 642              		.align	2
 643              		.p2align 4,,15
 644              		.global	conf_general_store_mc_configuration
 645              		.thumb
 646              		.thumb_func
 647              		.type	conf_general_store_mc_configuration, %function
 648              	conf_general_store_mc_configuration:
 649              	.LFB223:
 650              		.loc 1 331 0
 651              		.cfi_startproc
 652              		@ args = 0, pretend = 0, frame = 0
 653              		@ frame_needed = 0, uses_anonymous_args = 0
 654              	.LVL34:
 655 0000 38B5     		push	{r3, r4, r5, lr}
 656              		.cfi_def_cfa_offset 16
 657              		.cfi_offset 3, -16
 658              		.cfi_offset 4, -12
 659              		.cfi_offset 5, -8
 660              		.cfi_offset 14, -4
 661              		.loc 1 331 0
 662 0002 0546     		mov	r5, r0
 663              		.loc 1 334 0
 664 0004 FFF7FEFF 		bl	utils_sys_lock_cnt
 665              	.LVL35:
 666              		.loc 1 335 0
 667 0008 0021     		movs	r1, #0
 668 000a 4FF40060 		mov	r0, #2048
 669 000e FFF7FEFF 		bl	RCC_APB1PeriphClockCmd
 670              	.LVL36:
 671              		.loc 1 341 0
 672 0012 F220     		movs	r0, #242
 673 0014 FFF7FEFF 		bl	FLASH_ClearFlag
 674              	.LVL37:
 675 0018 0135     		adds	r5, r5, #1
 676              	.LVL38:
 677 001a 4FF47A74 		mov	r4, #1000
 678 001e 02E0     		b	.L38
 679              	.LVL39:
 680              	.L43:
 681              	.LBB8:
 682              		.loc 1 344 0 discriminator 2
 683 0020 B4F5886F 		cmp	r4, #1088
 684 0024 17D0     		beq	.L42
ARM GAS  C:\Users\IDONNO~1\AppData\Local\Temp\ccKMQqwp.s 			page 13


 685              	.L38:
 686              		.loc 1 345 0
 687 0026 15F8011C 		ldrb	r1, [r5, #-1]	@ zero_extendqisi2
 688              	.LVL40:
 689              		.loc 1 348 0
 690 002a 2B78     		ldrb	r3, [r5]	@ zero_extendqisi2
 691 002c 2046     		mov	r0, r4
 692 002e 43EA0121 		orr	r1, r3, r1, lsl #8
 693              	.LVL41:
 694 0032 FFF7FEFF 		bl	EE_WriteVariable
 695              	.LVL42:
 696 0036 0134     		adds	r4, r4, #1
 697 0038 0928     		cmp	r0, #9
 698 003a A4B2     		uxth	r4, r4
 699 003c 05F10205 		add	r5, r5, #2
 700 0040 EED0     		beq	.L43
 701              		.loc 1 349 0
 702 0042 0024     		movs	r4, #0
 703              	.L37:
 704              	.LVL43:
 705              	.LBE8:
 706              		.loc 1 354 0
 707 0044 0121     		movs	r1, #1
 708 0046 4FF40060 		mov	r0, #2048
 709 004a FFF7FEFF 		bl	RCC_APB1PeriphClockCmd
 710              	.LVL44:
 711              		.loc 1 355 0
 712 004e FFF7FEFF 		bl	utils_sys_unlock_cnt
 713              	.LVL45:
 714              		.loc 1 358 0
 715 0052 2046     		mov	r0, r4
 716 0054 38BD     		pop	{r3, r4, r5, pc}
 717              	.LVL46:
 718              	.L42:
 719              		.loc 1 337 0
 720 0056 0124     		movs	r4, #1
 721              	.LBB9:
 722 0058 F4E7     		b	.L37
 723              	.LBE9:
 724              		.cfi_endproc
 725              	.LFE223:
 726              		.size	conf_general_store_mc_configuration, .-conf_general_store_mc_configuration
 727 005a 00BF     		.section	.text.conf_general_detect_motor_param,"ax",%progbits
 728              		.align	2
 729              		.p2align 4,,15
 730              		.global	conf_general_detect_motor_param
 731              		.thumb
 732              		.thumb_func
 733              		.type	conf_general_detect_motor_param, %function
 734              	conf_general_detect_motor_param:
 735              	.LFB224:
 736              		.loc 1 361 0
 737              		.cfi_startproc
 738              		@ args = 0, pretend = 0, frame = 0
 739              		@ frame_needed = 0, uses_anonymous_args = 0
 740              		@ link register save eliminated.
 741              	.LVL47:
ARM GAS  C:\Users\IDONNO~1\AppData\Local\Temp\ccKMQqwp.s 			page 14


 742              		.loc 1 454 0
 743 0000 0020     		movs	r0, #0
 744              	.LVL48:
 745 0002 7047     		bx	lr
 746              		.cfi_endproc
 747              	.LFE224:
 748              		.size	conf_general_detect_motor_param, .-conf_general_detect_motor_param
 749              		.global	VirtAddVarTab
 750              		.section	.bss.VirtAddVarTab,"aw",%nobits
 751              		.align	2
 752              		.set	.LANCHOR0,. + 0
 753              		.type	VirtAddVarTab, %object
 754              		.size	VirtAddVarTab, 320
 755              	VirtAddVarTab:
 756 0000 00000000 		.space	320
 756      00000000 
 756      00000000 
 756      00000000 
 756      00000000 
 757              		.text
 758              	.Letext0:
 759              		.file 2 "c:\\program files (x86)\\gnu tools arm embedded\\5.2 2015q4\\arm-none-eabi\\include\\mach
 760              		.file 3 "c:\\program files (x86)\\gnu tools arm embedded\\5.2 2015q4\\arm-none-eabi\\include\\sys\
 761              		.file 4 "c:\\program files (x86)\\gnu tools arm embedded\\5.2 2015q4\\lib\\gcc\\arm-none-eabi\\5.2
 762              		.file 5 "lib/ChibiOS_3.0.2/os/rt/ports/ARMCMx/compilers/GCC/chtypes.h"
 763              		.file 6 "lib/ChibiOS_3.0.2/os/rt/include/chsystypes.h"
 764              		.file 7 "lib/ChibiOS_3.0.2/os/rt/include/chschd.h"
 765              		.file 8 "lib/ChibiOS_3.0.2/os/rt/ports/ARMCMx/chcore.h"
 766              		.file 9 "lib/ChibiOS_3.0.2/os/rt/ports/ARMCMx/chcore_v7m.h"
 767              		.file 10 "lib/ChibiOS_3.0.2/os/rt/include/chtm.h"
 768              		.file 11 "lib/ChibiOS_3.0.2/os/rt/include/chsem.h"
 769              		.file 12 "lib/ChibiOS_3.0.2/os/rt/include/chmtx.h"
 770              		.file 13 "lib/ChibiOS_3.0.2/os/ext/CMSIS/ST/stm32f4xx.h"
 771              		.file 14 "src/core/datatypes.h"
 772              		.file 15 "lib/ChibiOS_3.0.2/ext/stdperiph_stm32f4/inc/stm32f4xx_flash.h"
 773              		.file 16 "lib/ChibiOS_3.0.2/os/ext/CMSIS/include/core_cm4.h"
 774              		.file 17 "src/core/eeprom.h"
 775              		.file 18 "src/core/utils.h"
 776              		.file 19 "lib/ChibiOS_3.0.2/ext/stdperiph_stm32f4/inc/stm32f4xx_rcc.h"