ARM GAS  C:\Users\IDONNO~1\AppData\Local\Temp\ccKMQqwp.s 			page 1


   1              		.syntax unified
   2              		.cpu cortex-m4
   3              		.eabi_attribute 27, 1
   4              		.eabi_attribute 28, 1
   5              		.fpu fpv4-sp-d16
   6              		.eabi_attribute 20, 1
   7              		.eabi_attribute 21, 1
   8              		.eabi_attribute 23, 3
   9              		.eabi_attribute 24, 1
  10              		.eabi_attribute 25, 1
  11              		.eabi_attribute 26, 1
  12              		.eabi_attribute 30, 2
  13              		.eabi_attribute 34, 1
  14              		.eabi_attribute 18, 4
  15              		.thumb
  16              		.syntax unified
  17              		.file	"conf_general.c"
  18              		.text
  19              	.Ltext0:
  20              		.cfi_sections	.debug_frame
  21              		.section	.text.conf_general_init,"ax",%progbits
  22              		.align	2
  23              		.p2align 4,,15
  24              		.global	conf_general_init
  25              		.thumb
  26              		.thumb_func
  27              		.type	conf_general_init, %function
  28              	conf_general_init:
  29              	.LFB219:
  30              		.file 1 "src/core/conf_general.c"
  31              		.loc 1 113 0
  32              		.cfi_startproc
  33              		@ args = 0, pretend = 0, frame = 0
  34              		@ frame_needed = 0, uses_anonymous_args = 0
  35 0000 08B5     		push	{r3, lr}
  36              		.cfi_def_cfa_offset 8
  37              		.cfi_offset 3, -8
  38              		.cfi_offset 14, -4
  39              		.loc 1 115 0
  40 0002 4FF4A072 		mov	r2, #320
  41 0006 0021     		movs	r1, #0
  42 0008 0F48     		ldr	r0, .L8
  43 000a FFF7FEFF 		bl	memset
  44              	.LVL0:
  45 000e 0F49     		ldr	r1, .L8+4
  46 0010 4FF47A73 		mov	r3, #1000
  47 0014 01F18C02 		add	r2, r1, #140
  48              	.LVL1:
  49              	.L2:
  50              	.LBB2:
  51              		.loc 1 119 0 discriminator 3
  52 0018 21F8023F 		strh	r3, [r1, #2]!	@ movhi
  53 001c 0133     		adds	r3, r3, #1
  54              		.loc 1 118 0 discriminator 3
  55 001e 8A42     		cmp	r2, r1
  56 0020 9BB2     		uxth	r3, r3
  57 0022 F9D1     		bne	.L2
ARM GAS  C:\Users\IDONNO~1\AppData\Local\Temp\ccKMQqwp.s 			page 2


  58 0024 0A49     		ldr	r1, .L8+8
  59              		.loc 1 118 0 is_stmt 0
  60 0026 4FF4FA63 		mov	r3, #2000
  61              	.L3:
  62              	.LBE2:
  63              	.LBB3:
  64              		.loc 1 123 0 is_stmt 1 discriminator 3
  65 002a 22F8023F 		strh	r3, [r2, #2]!	@ movhi
  66              	.LVL2:
  67 002e 0133     		adds	r3, r3, #1
  68              		.loc 1 122 0 discriminator 3
  69 0030 9142     		cmp	r1, r2
  70 0032 9BB2     		uxth	r3, r3
  71 0034 F9D1     		bne	.L3
  72              	.LBE3:
  73              		.loc 1 126 0
  74 0036 FFF7FEFF 		bl	FLASH_Unlock
  75              	.LVL3:
  76              		.loc 1 127 0
  77 003a F220     		movs	r0, #242
  78 003c FFF7FEFF 		bl	FLASH_ClearFlag
  79              	.LVL4:
  80              		.loc 1 130 0
  81 0040 BDE80840 		pop	{r3, lr}
  82              		.cfi_restore 14
  83              		.cfi_restore 3
  84              		.cfi_def_cfa_offset 0
  85              		.loc 1 129 0
  86 0044 FFF7FEBF 		b	EE_Init
  87              	.LVL5:
  88              	.L9:
  89              		.align	2
  90              	.L8:
  91 0048 00000000 		.word	.LANCHOR0
  92 004c FEFFFFFF 		.word	.LANCHOR0-2
  93 0050 16010000 		.word	.LANCHOR0+278
  94              		.cfi_endproc
  95              	.LFE219:
  96              		.size	conf_general_init, .-conf_general_init
  97              		.section	.text.conf_general_read_app_configuration,"ax",%progbits
  98              		.align	2
  99              		.p2align 4,,15
 100              		.global	conf_general_read_app_configuration
 101              		.thumb
 102              		.thumb_func
 103              		.type	conf_general_read_app_configuration, %function
 104              	conf_general_read_app_configuration:
 105              	.LFB220:
 106              		.loc 1 138 0
 107              		.cfi_startproc
 108              		@ args = 0, pretend = 0, frame = 8
 109              		@ frame_needed = 0, uses_anonymous_args = 0
 110              	.LVL6:
 111 0000 F0B5     		push	{r4, r5, r6, r7, lr}
 112              		.cfi_def_cfa_offset 20
 113              		.cfi_offset 4, -20
 114              		.cfi_offset 5, -16
ARM GAS  C:\Users\IDONNO~1\AppData\Local\Temp\ccKMQqwp.s 			page 3


 115              		.cfi_offset 6, -12
 116              		.cfi_offset 7, -8
 117              		.cfi_offset 14, -4
 118 0002 0646     		mov	r6, r0
 119              	.LVL7:
 120 0004 83B0     		sub	sp, sp, #12
 121              		.cfi_def_cfa_offset 32
 122 0006 451C     		adds	r5, r0, #1
 123              		.loc 1 138 0
 124 0008 4FF4FA64 		mov	r4, #2000
 125              	.LBB4:
 126              		.loc 1 143 0
 127 000c 40F61607 		movw	r7, #2070
 128 0010 09E0     		b	.L12
 129              	.LVL8:
 130              	.L16:
 131              		.loc 1 145 0
 132 0012 BDF80630 		ldrh	r3, [sp, #6]
 133              		.loc 1 143 0
 134 0016 BC42     		cmp	r4, r7
 135              		.loc 1 145 0
 136 0018 4FEA1322 		lsr	r2, r3, #8
 137 001c 05F8012C 		strb	r2, [r5, #-1]
 138              		.loc 1 146 0
 139 0020 05F8023B 		strb	r3, [r5], #2
 140              		.loc 1 143 0
 141 0024 61D0     		beq	.L10
 142              	.L12:
 143              		.loc 1 144 0
 144 0026 2046     		mov	r0, r4
 145 0028 0DF10601 		add	r1, sp, #6
 146 002c FFF7FEFF 		bl	EE_ReadVariable
 147              	.LVL9:
 148 0030 0134     		adds	r4, r4, #1
 149 0032 A4B2     		uxth	r4, r4
 150 0034 0028     		cmp	r0, #0
 151 0036 ECD0     		beq	.L16
 152              	.LVL10:
 153              	.LBE4:
 154              		.loc 1 155 0
 155 0038 8C22     		movs	r2, #140
 156 003a 0021     		movs	r1, #0
 157              		.loc 1 157 0
 158 003c 4FF47A75 		mov	r5, #1000
 159              		.loc 1 155 0
 160 0040 3046     		mov	r0, r6
 161 0042 FFF7FEFF 		bl	memset
 162              	.LVL11:
 163              		.loc 1 174 0
 164 0046 2A4A     		ldr	r2, .L17
 165              		.loc 1 157 0
 166 0048 7560     		str	r5, [r6, #4]
 167              		.loc 1 164 0
 168 004a 0325     		movs	r5, #3
 169              		.loc 1 174 0
 170 004c 7263     		str	r2, [r6, #52]	@ float
 171              		.loc 1 188 0
ARM GAS  C:\Users\IDONNO~1\AppData\Local\Temp\ccKMQqwp.s 			page 4


 172 004e B265     		str	r2, [r6, #88]	@ float
 173              		.loc 1 164 0
 174 0050 3575     		strb	r5, [r6, #20]
 175              		.loc 1 160 0
 176 0052 4FF4FA72 		mov	r2, #500
 177              		.loc 1 170 0
 178 0056 4FF08045 		mov	r5, #1073741824
 179              		.loc 1 167 0
 180 005a 264B     		ldr	r3, .L17+4
 181              		.loc 1 160 0
 182 005c 3261     		str	r2, [r6, #16]
 183              		.loc 1 192 0
 184 005e 7266     		str	r2, [r6, #100]
 185              		.loc 1 170 0
 186 0060 B562     		str	r5, [r6, #40]	@ float
 187              		.loc 1 169 0
 188 0062 4FF07E52 		mov	r2, #1065353216
 189              		.loc 1 182 0
 190 0066 244D     		ldr	r5, .L17+8
 191              		.loc 1 168 0
 192 0068 244C     		ldr	r4, .L17+12
 193              		.loc 1 173 0
 194 006a 2548     		ldr	r0, .L17+16
 195              		.loc 1 177 0
 196 006c 2549     		ldr	r1, .L17+20
 197              		.loc 1 167 0
 198 006e F361     		str	r3, [r6, #28]	@ float
 199              		.loc 1 169 0
 200 0070 7262     		str	r2, [r6, #36]	@ float
 201              		.loc 1 156 0
 202 0072 0023     		movs	r3, #0
 203              		.loc 1 172 0
 204 0074 0122     		movs	r2, #1
 205              		.loc 1 182 0
 206 0076 F564     		str	r5, [r6, #76]	@ float
 207              		.loc 1 181 0
 208 0078 DFF890E0 		ldr	lr, .L17+28
 209              		.loc 1 168 0
 210 007c 3462     		str	r4, [r6, #32]	@ float
 211              		.loc 1 194 0
 212 007e 4FF4E135 		mov	r5, #115200
 213              		.loc 1 180 0
 214 0082 7464     		str	r4, [r6, #68]	@ float
 215              		.loc 1 194 0
 216 0084 B566     		str	r5, [r6, #104]
 217              		.loc 1 199 0
 218 0086 204F     		ldr	r7, .L17+24
 219              		.loc 1 173 0
 220 0088 3063     		str	r0, [r6, #48]	@ float
 221              		.loc 1 187 0
 222 008a 7065     		str	r0, [r6, #84]	@ float
 223              		.loc 1 177 0
 224 008c F163     		str	r1, [r6, #60]	@ float
 225              		.loc 1 191 0
 226 008e 3166     		str	r1, [r6, #96]	@ float
 227              		.loc 1 181 0
 228 0090 C6F848E0 		str	lr, [r6, #72]	@ float
ARM GAS  C:\Users\IDONNO~1\AppData\Local\Temp\ccKMQqwp.s 			page 5


 229              		.loc 1 156 0
 230 0094 3370     		strb	r3, [r6]
 231              		.loc 1 159 0
 232 0096 3373     		strb	r3, [r6, #12]
 233              		.loc 1 166 0
 234 0098 3376     		strb	r3, [r6, #24]
 235              		.loc 1 171 0
 236 009a 86F82C30 		strb	r3, [r6, #44]
 237              		.loc 1 175 0
 238 009e 86F83830 		strb	r3, [r6, #56]
 239              		.loc 1 176 0
 240 00a2 86F83930 		strb	r3, [r6, #57]
 241              		.loc 1 179 0
 242 00a6 86F84030 		strb	r3, [r6, #64]
 243              		.loc 1 185 0
 244 00aa 86F85230 		strb	r3, [r6, #82]
 245              		.loc 1 186 0
 246 00ae 86F85330 		strb	r3, [r6, #83]
 247              		.loc 1 189 0
 248 00b2 86F85C30 		strb	r3, [r6, #92]
 249              		.loc 1 190 0
 250 00b6 86F85D30 		strb	r3, [r6, #93]
 251              		.loc 1 172 0
 252 00ba 86F82D20 		strb	r2, [r6, #45]
 253              		.loc 1 183 0
 254 00be 86F85020 		strb	r2, [r6, #80]
 255              		.loc 1 184 0
 256 00c2 86F85120 		strb	r2, [r6, #81]
 257              		.loc 1 200 0
 258 00c6 4FF07C55 		mov	r5, #1056964608
 259              		.loc 1 196 0
 260 00ca 86F86C20 		strb	r2, [r6, #108]
 261              		.loc 1 197 0
 262 00ce 3467     		str	r4, [r6, #112]	@ float
 263              		.loc 1 201 0
 264 00d0 4FF07A54 		mov	r4, #1048576000
 265              		.loc 1 198 0
 266 00d4 7067     		str	r0, [r6, #116]	@ float
 267              		.loc 1 202 0
 268 00d6 86F88420 		strb	r2, [r6, #132]
 269              		.loc 1 203 0
 270 00da 86F88530 		strb	r3, [r6, #133]
 271              		.loc 1 204 0
 272 00de C6F88810 		str	r1, [r6, #136]	@ float
 273              		.loc 1 199 0
 274 00e2 B767     		str	r7, [r6, #120]	@ float
 275              		.loc 1 200 0
 276 00e4 F567     		str	r5, [r6, #124]	@ float
 277              		.loc 1 201 0
 278 00e6 C6F88040 		str	r4, [r6, #128]	@ float
 279              	.LVL12:
 280              	.L10:
 281              		.loc 1 206 0
 282 00ea 03B0     		add	sp, sp, #12
 283              		.cfi_def_cfa_offset 20
 284              		@ sp needed
 285 00ec F0BD     		pop	{r4, r5, r6, r7, pc}
ARM GAS  C:\Users\IDONNO~1\AppData\Local\Temp\ccKMQqwp.s 			page 6


 286              	.LVL13:
 287              	.L18:
 288 00ee 00BF     		.align	2
 289              	.L17:
 290 00f0 00504348 		.word	1212370944
 291 00f4 00606A46 		.word	1181376512
 292 00f8 00004040 		.word	1077936128
 293 00fc 9A99193E 		.word	1041865114
 294 0100 007C1248 		.word	1209170944
 295 0104 00803B45 		.word	1161527296
 296 0108 00247448 		.word	1215570944
 297 010c 6666663F 		.word	1063675494
 298              		.cfi_endproc
 299              	.LFE220:
 300              		.size	conf_general_read_app_configuration, .-conf_general_read_app_configuration
 301              		.section	.text.conf_general_store_app_configuration,"ax",%progbits
 302              		.align	2
 303              		.p2align 4,,15
 304              		.global	conf_general_store_app_configuration
 305              		.thumb
 306              		.thumb_func
 307              		.type	conf_general_store_app_configuration, %function
 308              	conf_general_store_app_configuration:
 309              	.LFB221:
 310              		.loc 1 214 0
 311              		.cfi_startproc
 312              		@ args = 0, pretend = 0, frame = 0
 313              		@ frame_needed = 0, uses_anonymous_args = 0
 314              	.LVL14:
 315 0000 70B5     		push	{r4, r5, r6, lr}
 316              		.cfi_def_cfa_offset 16
 317              		.cfi_offset 4, -16
 318              		.cfi_offset 5, -12
 319              		.cfi_offset 6, -8
 320              		.cfi_offset 14, -4
 321              		.loc 1 214 0
 322 0002 0546     		mov	r5, r0
 323              		.loc 1 217 0
 324 0004 FFF7FEFF 		bl	utils_sys_lock_cnt
 325              	.LVL15:
 326              		.loc 1 218 0
 327 0008 0021     		movs	r1, #0
 328 000a 4FF40060 		mov	r0, #2048
 329 000e FFF7FEFF 		bl	RCC_APB1PeriphClockCmd
 330              	.LVL16:
 331              		.loc 1 224 0
 332 0012 F220     		movs	r0, #242
 333 0014 FFF7FEFF 		bl	FLASH_ClearFlag
 334              	.LVL17:
 335 0018 0135     		adds	r5, r5, #1
 336              	.LVL18:
 337 001a 4FF4FA64 		mov	r4, #2000
 338              	.LBB5:
 339              		.loc 1 227 0
 340 001e 40F61606 		movw	r6, #2070
 341 0022 01E0     		b	.L21
 342              	.LVL19:
ARM GAS  C:\Users\IDONNO~1\AppData\Local\Temp\ccKMQqwp.s 			page 7


 343              	.L26:
 344              		.loc 1 227 0 is_stmt 0 discriminator 2
 345 0024 B442     		cmp	r4, r6
 346 0026 17D0     		beq	.L25
 347              	.L21:
 348              		.loc 1 228 0 is_stmt 1
 349 0028 15F8011C 		ldrb	r1, [r5, #-1]	@ zero_extendqisi2
 350              	.LVL20:
 351              		.loc 1 231 0
 352 002c 2B78     		ldrb	r3, [r5]	@ zero_extendqisi2
 353 002e 2046     		mov	r0, r4
 354 0030 43EA0121 		orr	r1, r3, r1, lsl #8
 355              	.LVL21:
 356 0034 FFF7FEFF 		bl	EE_WriteVariable
 357              	.LVL22:
 358 0038 0134     		adds	r4, r4, #1
 359 003a 0928     		cmp	r0, #9
 360 003c A4B2     		uxth	r4, r4
 361 003e 05F10205 		add	r5, r5, #2
 362 0042 EFD0     		beq	.L26
 363              		.loc 1 232 0
 364 0044 0024     		movs	r4, #0
 365              	.L20:
 366              	.LVL23:
 367              	.LBE5:
 368              		.loc 1 237 0
 369 0046 0121     		movs	r1, #1
 370 0048 4FF40060 		mov	r0, #2048
 371 004c FFF7FEFF 		bl	RCC_APB1PeriphClockCmd
 372              	.LVL24:
 373              		.loc 1 238 0
 374 0050 FFF7FEFF 		bl	utils_sys_unlock_cnt
 375              	.LVL25:
 376              		.loc 1 241 0
 377 0054 2046     		mov	r0, r4
 378 0056 70BD     		pop	{r4, r5, r6, pc}
 379              	.LVL26:
 380              	.L25:
 381              		.loc 1 220 0
 382 0058 0124     		movs	r4, #1
 383              	.LBB6:
 384 005a F4E7     		b	.L20
 385              	.LBE6:
 386              		.cfi_endproc
 387              	.LFE221:
 388              		.size	conf_general_store_app_configuration, .-conf_general_store_app_configuration
 389              		.section	.text.conf_general_read_mc_configuration,"ax",%progbits
 390              		.align	2
 391              		.p2align 4,,15
 392              		.global	conf_general_read_mc_configuration
 393              		.thumb
 394              		.thumb_func
 395              		.type	conf_general_read_mc_configuration, %function
 396              	conf_general_read_mc_configuration:
 397              	.LFB222:
 398              		.loc 1 249 0
 399              		.cfi_startproc
ARM GAS  C:\Users\IDONNO~1\AppData\Local\Temp\ccKMQqwp.s 			page 8


 400              		@ args = 0, pretend = 0, frame = 8
 401              		@ frame_needed = 0, uses_anonymous_args = 0
 402              	.LVL27:
 403 0000 F0B5     		push	{r4, r5, r6, r7, lr}
 404              		.cfi_def_cfa_offset 20
 405              		.cfi_offset 4, -20
 406              		.cfi_offset 5, -16
 407              		.cfi_offset 6, -12
 408              		.cfi_offset 7, -8
 409              		.cfi_offset 14, -4
 410 0002 0646     		mov	r6, r0
 411              	.LVL28:
 412 0004 83B0     		sub	sp, sp, #12
 413              		.cfi_def_cfa_offset 32
 414 0006 451C     		adds	r5, r0, #1
 415              		.loc 1 249 0
 416 0008 4FF47A74 		mov	r4, #1000
 417 000c 0AE0     		b	.L29
 418              	.LVL29:
 419              	.L33:
 420              	.LBB7:
 421              		.loc 1 256 0
 422 000e BDF80630 		ldrh	r3, [sp, #6]
 423              		.loc 1 254 0
 424 0012 B4F5886F 		cmp	r4, #1088
 425              		.loc 1 256 0
 426 0016 4FEA1322 		lsr	r2, r3, #8
 427 001a 05F8012C 		strb	r2, [r5, #-1]
 428              		.loc 1 257 0
 429 001e 05F8023B 		strb	r3, [r5], #2
 430              		.loc 1 254 0
 431 0022 76D0     		beq	.L27
 432              	.L29:
 433              		.loc 1 255 0
 434 0024 2046     		mov	r0, r4
 435 0026 0DF10601 		add	r1, sp, #6
 436 002a FFF7FEFF 		bl	EE_ReadVariable
 437              	.LVL30:
 438 002e 0134     		adds	r4, r4, #1
 439 0030 A4B2     		uxth	r4, r4
 440 0032 0028     		cmp	r0, #0
 441 0034 EBD0     		beq	.L33
 442              	.LVL31:
 443              	.LBE7:
 444              		.loc 1 270 0
 445 0036 384A     		ldr	r2, .L34
 446 0038 B260     		str	r2, [r6, #8]	@ float
 447              		.loc 1 290 0
 448 003a 3265     		str	r2, [r6, #80]	@ float
 449              		.loc 1 282 0
 450 003c 374A     		ldr	r2, .L34+4
 451 003e 7263     		str	r2, [r6, #52]	@ float
 452              		.loc 1 284 0
 453 0040 F263     		str	r2, [r6, #60]	@ float
 454              		.loc 1 265 0
 455 0042 0122     		movs	r2, #1
 456              		.loc 1 269 0
ARM GAS  C:\Users\IDONNO~1\AppData\Local\Temp\ccKMQqwp.s 			page 9


 457 0044 364B     		ldr	r3, .L34+8
 458              		.loc 1 265 0
 459 0046 3270     		strb	r2, [r6]
 460              		.loc 1 280 0
 461 0048 86F83020 		strb	r2, [r6, #48]
 462              		.loc 1 281 0
 463 004c 86F83120 		strb	r2, [r6, #49]
 464              		.loc 1 294 0
 465 0050 86F85C20 		strb	r2, [r6, #92]
 466              		.loc 1 272 0
 467 0054 334A     		ldr	r2, .L34+12
 468              		.loc 1 273 0
 469 0056 DFF810E1 		ldr	lr, .L34+80
 470              		.loc 1 274 0
 471 005a 334D     		ldr	r5, .L34+16
 472              		.loc 1 275 0
 473 005c 334F     		ldr	r7, .L34+20
 474              		.loc 1 276 0
 475 005e 344C     		ldr	r4, .L34+24
 476              		.loc 1 277 0
 477 0060 3448     		ldr	r0, .L34+28
 478              		.loc 1 269 0
 479 0062 7360     		str	r3, [r6, #4]	@ float
 480              		.loc 1 271 0
 481 0064 F360     		str	r3, [r6, #12]	@ float
 482              		.loc 1 289 0
 483 0066 F364     		str	r3, [r6, #76]	@ float
 484              		.loc 1 291 0
 485 0068 7365     		str	r3, [r6, #84]	@ float
 486              		.loc 1 279 0
 487 006a 3349     		ldr	r1, .L34+32
 488              		.loc 1 283 0
 489 006c 334B     		ldr	r3, .L34+36
 490              		.loc 1 272 0
 491 006e 3261     		str	r2, [r6, #16]	@ float
 492              		.loc 1 292 0
 493 0070 B265     		str	r2, [r6, #88]	@ float
 494              		.loc 1 278 0
 495 0072 4FF08242 		mov	r2, #1090519040
 496              		.loc 1 273 0
 497 0076 C6F814E0 		str	lr, [r6, #20]	@ float
 498              		.loc 1 274 0
 499 007a B561     		str	r5, [r6, #24]	@ float
 500              		.loc 1 275 0
 501 007c F761     		str	r7, [r6, #28]	@ float
 502              		.loc 1 286 0
 503 007e 304D     		ldr	r5, .L34+40
 504              		.loc 1 287 0
 505 0080 DFF8E8C0 		ldr	ip, .L34+84
 506              		.loc 1 276 0
 507 0084 3462     		str	r4, [r6, #32]	@ float
 508              		.loc 1 277 0
 509 0086 7062     		str	r0, [r6, #36]	@ float
 510              		.loc 1 295 0
 511 0088 2E4C     		ldr	r4, .L34+44
 512              		.loc 1 297 0
 513 008a 2F48     		ldr	r0, .L34+48
ARM GAS  C:\Users\IDONNO~1\AppData\Local\Temp\ccKMQqwp.s 			page 10


 514              		.loc 1 279 0
 515 008c F162     		str	r1, [r6, #44]	@ float
 516              		.loc 1 298 0
 517 008e DFF8E0E0 		ldr	lr, .L34+88
 518              		.loc 1 299 0
 519 0092 2E49     		ldr	r1, .L34+52
 520              		.loc 1 283 0
 521 0094 B363     		str	r3, [r6, #56]	@ float
 522              		.loc 1 285 0
 523 0096 3364     		str	r3, [r6, #64]	@ float
 524              		.loc 1 300 0
 525 0098 2D4F     		ldr	r7, .L34+56
 526              		.loc 1 278 0
 527 009a B262     		str	r2, [r6, #40]	@ float
 528              		.loc 1 266 0
 529 009c 0023     		movs	r3, #0
 530              		.loc 1 296 0
 531 009e 2D4A     		ldr	r2, .L34+60
 532              		.loc 1 286 0
 533 00a0 7564     		str	r5, [r6, #68]	@ float
 534              		.loc 1 287 0
 535 00a2 C6F848C0 		str	ip, [r6, #72]	@ float
 536              		.loc 1 295 0
 537 00a6 3466     		str	r4, [r6, #96]	@ float
 538              		.loc 1 297 0
 539 00a8 7066     		str	r0, [r6, #100]	@ float
 540              		.loc 1 307 0
 541 00aa 2B4C     		ldr	r4, .L34+64
 542              		.loc 1 308 0
 543 00ac 2B48     		ldr	r0, .L34+68
 544              		.loc 1 298 0
 545 00ae C6F86CE0 		str	lr, [r6, #108]	@ float
 546              		.loc 1 299 0
 547 00b2 3167     		str	r1, [r6, #112]	@ float
 548              		.loc 1 266 0
 549 00b4 7370     		strb	r3, [r6, #1]
 550              		.loc 1 309 0
 551 00b6 0021     		movs	r1, #0
 552              		.loc 1 267 0
 553 00b8 B370     		strb	r3, [r6, #2]
 554              		.loc 1 296 0
 555 00ba B266     		str	r2, [r6, #104]	@ float
 556              		.loc 1 301 0
 557 00bc DFF8B4C0 		ldr	ip, .L34+92
 558              		.loc 1 300 0
 559 00c0 7767     		str	r7, [r6, #116]	@ float
 560              		.loc 1 310 0
 561 00c2 DFF8B4E0 		ldr	lr, .L34+96
 562              		.loc 1 316 0
 563 00c6 C6F89C50 		str	r5, [r6, #156]	@ float
 564              		.loc 1 318 0
 565 00ca 254F     		ldr	r7, .L34+72
 566              		.loc 1 303 0
 567 00cc 86F87C30 		strb	r3, [r6, #124]
 568              		.loc 1 304 0
 569 00d0 86F87D30 		strb	r3, [r6, #125]
 570              		.loc 1 305 0
ARM GAS  C:\Users\IDONNO~1\AppData\Local\Temp\ccKMQqwp.s 			page 11


 571 00d4 86F87E30 		strb	r3, [r6, #126]
 572              		.loc 1 319 0
 573 00d8 224D     		ldr	r5, .L34+76
 574              		.loc 1 301 0
 575 00da C6F878C0 		str	ip, [r6, #120]	@ float
 576              		.loc 1 317 0
 577 00de 4FF07E52 		mov	r2, #1065353216
 578              		.loc 1 321 0
 579 00e2 40F6B833 		movw	r3, #3000
 580              		.loc 1 307 0
 581 00e6 C6F88040 		str	r4, [r6, #128]	@ float
 582              		.loc 1 312 0
 583 00ea C6F89040 		str	r4, [r6, #144]	@ float
 584              		.loc 1 308 0
 585 00ee C6F88400 		str	r0, [r6, #132]	@ float
 586              		.loc 1 313 0
 587 00f2 C6F89400 		str	r0, [r6, #148]	@ float
 588              		.loc 1 309 0
 589 00f6 C6F88810 		str	r1, [r6, #136]	@ float
 590              		.loc 1 314 0
 591 00fa C6F89810 		str	r1, [r6, #152]	@ float
 592              		.loc 1 310 0
 593 00fe C6F88CE0 		str	lr, [r6, #140]	@ float
 594              		.loc 1 318 0
 595 0102 C6F8A470 		str	r7, [r6, #164]	@ float
 596              		.loc 1 319 0
 597 0106 C6F8A850 		str	r5, [r6, #168]	@ float
 598              		.loc 1 317 0
 599 010a C6F8A020 		str	r2, [r6, #160]	@ float
 600              		.loc 1 321 0
 601 010e C6F8AC30 		str	r3, [r6, #172]
 602              	.LVL32:
 603              	.L27:
 604              		.loc 1 323 0
 605 0112 03B0     		add	sp, sp, #12
 606              		.cfi_def_cfa_offset 20
 607              		@ sp needed
 608 0114 F0BD     		pop	{r4, r5, r6, r7, pc}
 609              	.LVL33:
 610              	.L35:
 611 0116 00BF     		.align	2
 612              	.L34:
 613 0118 000070C2 		.word	-1032847360
 614 011c 0000A042 		.word	1117782016
 615 0120 00007042 		.word	1114636288
 616 0124 0000A0C1 		.word	-1046478848
 617 0128 0050C3C7 		.word	-943501312
 618 012c 0050C347 		.word	1203982336
 619 0130 00009643 		.word	1133903872
 620 0134 0080BB44 		.word	1153138688
 621 0138 00004842 		.word	1112014848
 622 013c 0000C842 		.word	1120403456
 623 0140 0AD7233C 		.word	1008981770
 624 0144 00001643 		.word	1125515264
 625 0148 00808944 		.word	1149861888
 626 014c CDCC4C3F 		.word	1061997773
 627 0150 00409C47 		.word	1201422336
ARM GAS  C:\Users\IDONNO~1\AppData\Local\Temp\ccKMQqwp.s 			page 12


 628 0154 00002041 		.word	1092616192
 629 0158 17B7D138 		.word	953267991
 630 015c 6F12033B 		.word	990057071
 631 0160 99BB963B 		.word	999734169
 632 0164 0AD7233D 		.word	1025758986
 633 0168 00000243 		.word	1124204544
 634 016c 3333733F 		.word	1064514355
 635 0170 00007842 		.word	1115160576
 636 0174 00001644 		.word	1142292480
 637 0178 00006144 		.word	1147207680
 638              		.cfi_endproc
 639              	.LFE222:
 640              		.size	conf_general_read_mc_configuration, .-conf_general_read_mc_configuration
 641              		.section	.text.conf_general_store_mc_configuration,"ax",%progbits
 642              		.align	2
 643              		.p2align 4,,15
 644              		.global	conf_general_store_mc_configuration
 645              		.thumb
 646              		.thumb_func
 647              		.type	conf_general_store_mc_configuration, %function
 648              	conf_general_store_mc_configuration:
 649              	.LFB223:
 650              		.loc 1 331 0
 651              		.cfi_startproc
 652              		@ args = 0, pretend = 0, frame = 0
 653              		@ frame_needed = 0, uses_anonymous_args = 0
 654              	.LVL34:
 655 0000 38B5     		push	{r3, r4, r5, lr}
 656              		.cfi_def_cfa_offset 16
 657              		.cfi_offset 3, -16
 658              		.cfi_offset 4, -12
 659              		.cfi_offset 5, -8
 660              		.cfi_offset 14, -4
 661              		.loc 1 331 0
 662 0002 0546     		mov	r5, r0
 663              		.loc 1 334 0
 664 0004 FFF7FEFF 		bl	utils_sys_lock_cnt
 665              	.LVL35:
 666              		.loc 1 335 0
 667 0008 0021     		movs	r1, #0
 668 000a 4FF40060 		mov	r0, #2048
 669 000e FFF7FEFF 		bl	RCC_APB1PeriphClockCmd
 670              	.LVL36:
 671              		.loc 1 341 0
 672 0012 F220     		movs	r0, #242
 673 0014 FFF7FEFF 		bl	FLASH_ClearFlag
 674              	.LVL37:
 675 0018 0135     		adds	r5, r5, #1
 676              	.LVL38:
 677 001a 4FF47A74 		mov	r4, #1000
 678 001e 02E0     		b	.L38
 679              	.LVL39:
 680              	.L43:
 681              	.LBB8:
 682              		.loc 1 344 0 discriminator 2
 683 0020 B4F5886F 		cmp	r4, #1088
 684 0024 17D0     		beq	.L42
ARM GAS  C:\Users\IDONNO~1\AppData\Local\Temp\ccKMQqwp.s 			page 13


 685              	.L38:
 686              		.loc 1 345 0
 687 0026 15F8011C 		ldrb	r1, [r5, #-1]	@ zero_extendqisi2
 688              	.LVL40:
 689              		.loc 1 348 0
 690 002a 2B78     		ldrb	r3, [r5]	@ zero_extendqisi2
 691 002c 2046     		mov	r0, r4
 692 002e 43EA0121 		orr	r1, r3, r1, lsl #8
 693              	.LVL41:
 694 0032 FFF7FEFF 		bl	EE_WriteVariable
 695              	.LVL42:
 696 0036 0134     		adds	r4, r4, #1
 697 0038 0928     		cmp	r0, #9
 698 003a A4B2     		uxth	r4, r4
 699 003c 05F10205 		add	r5, r5, #2
 700 0040 EED0     		beq	.L43
 701              		.loc 1 349 0
 702 0042 0024     		movs	r4, #0
 703              	.L37:
 704              	.LVL43:
 705              	.LBE8:
 706              		.loc 1 354 0
 707 0044 0121     		movs	r1, #1
 708 0046 4FF40060 		mov	r0, #2048
 709 004a FFF7FEFF 		bl	RCC_APB1PeriphClockCmd
 710              	.LVL44:
 711              		.loc 1 355 0
 712 004e FFF7FEFF 		bl	utils_sys_unlock_cnt
 713              	.LVL45:
 714              		.loc 1 358 0
 715 0052 2046     		mov	r0, r4
 716 0054 38BD     		pop	{r3, r4, r5, pc}
 717              	.LVL46:
 718              	.L42:
 719              		.loc 1 337 0
 720 0056 0124     		movs	r4, #1
 721              	.LBB9:
 722 0058 F4E7     		b	.L37
 723              	.LBE9:
 724              		.cfi_endproc
 725              	.LFE223:
 726              		.size	conf_general_store_mc_configuration, .-conf_general_store_mc_configuration
 727 005a 00BF     		.section	.text.conf_general_detect_motor_param,"ax",%progbits
 728              		.align	2
 729              		.p2align 4,,15
 730              		.global	conf_general_detect_motor_param
 731              		.thumb
 732              		.thumb_func
 733              		.type	conf_general_detect_motor_param, %function
 734              	conf_general_detect_motor_param:
 735              	.LFB224:
 736              		.loc 1 361 0
 737              		.cfi_startproc
 738              		@ args = 0, pretend = 0, frame = 0
 739              		@ frame_needed = 0, uses_anonymous_args = 0
 740              		@ link register save eliminated.
 741              	.LVL47:
ARM GAS  C:\Users\IDONNO~1\AppData\Local\Temp\ccKMQqwp.s 			page 14


 742              		.loc 1 454 0
 743 0000 0020     		movs	r0, #0
 744              	.LVL48:
 745 0002 7047     		bx	lr
 746              		.cfi_endproc
 747              	.LFE224:
 748              		.size	conf_general_detect_motor_param, .-conf_general_detect_motor_param
 749              		.global	VirtAddVarTab
 750              		.section	.bss.VirtAddVarTab,"aw",%nobits
 751              		.align	2
 752              		.set	.LANCHOR0,. + 0
 753              		.type	VirtAddVarTab, %object
 754              		.size	VirtAddVarTab, 320
 755              	VirtAddVarTab:
 756 0000 00000000 		.space	320
 756      00000000 
 756      00000000 
 756      00000000 
 756      00000000 
 757              		.text
 758              	.Letext0:
 759              		.file 2 "c:\\program files (x86)\\gnu tools arm embedded\\5.2 2015q4\\arm-none-eabi\\include\\mach
 760              		.file 3 "c:\\program files (x86)\\gnu tools arm embedded\\5.2 2015q4\\arm-none-eabi\\include\\sys\
 761              		.file 4 "c:\\program files (x86)\\gnu tools arm embedded\\5.2 2015q4\\lib\\gcc\\arm-none-eabi\\5.2
 762              		.file 5 "lib/ChibiOS_3.0.2/os/rt/ports/ARMCMx/compilers/GCC/chtypes.h"
 763              		.file 6 "lib/ChibiOS_3.0.2/os/rt/include/chsystypes.h"
 764              		.file 7 "lib/ChibiOS_3.0.2/os/rt/include/chschd.h"
 765              		.file 8 "lib/ChibiOS_3.0.2/os/rt/ports/ARMCMx/chcore.h"
 766              		.file 9 "lib/ChibiOS_3.0.2/os/rt/ports/ARMCMx/chcore_v7m.h"
 767              		.file 10 "lib/ChibiOS_3.0.2/os/rt/include/chtm.h"
 768              		.file 11 "lib/ChibiOS_3.0.2/os/rt/include/chsem.h"
 769              		.file 12 "lib/ChibiOS_3.0.2/os/rt/include/chmtx.h"
 770              		.file 13 "lib/ChibiOS_3.0.2/os/ext/CMSIS/ST/stm32f4xx.h"
 771              		.file 14 "src/core/datatypes.h"
 772              		.file 15 "lib/ChibiOS_3.0.2/ext/stdperiph_stm32f4/inc/stm32f4xx_flash.h"
 773              		.file 16 "lib/ChibiOS_3.0.2/os/ext/CMSIS/include/core_cm4.h"
 774              		.file 17 "src/core/eeprom.h"
 775              		.file 18 "src/core/utils.h"
 776              		.file 19 "lib/ChibiOS_3.0.2/ext/stdperiph_stm32f4/inc/stm32f4xx_rcc.h"
 777              		.section	.debug_info,"",%progbits
 778              	.Ldebug_info0:
 779 0000 88120000 		.4byte	0x1288
 780 0004 0400     		.2byte	0x4
 781 0006 00000000 		.4byte	.Ldebug_abbrev0
 782 000a 04       		.byte	0x4
 783 000b 01       		.uleb128 0x1
 784 000c 700E0000 		.4byte	.LASF273
 785 0010 0C       		.byte	0xc
 786 0011 29010000 		.4byte	.LASF274
 787 0015 BB050000 		.4byte	.LASF275
 788 0019 30000000 		.4byte	.Ldebug_ranges0+0x30
 789 001d 00000000 		.4byte	0
 790 0021 00000000 		.4byte	.Ldebug_line0
 791 0025 02       		.uleb128 0x2
 792 0026 8A0A0000 		.4byte	.LASF0
 793 002a 02       		.byte	0x2
 794 002b 1B       		.byte	0x1b
ARM GAS  C:\Users\IDONNO~1\AppData\Local\Temp\ccKMQqwp.s 			page 15


 795 002c 30000000 		.4byte	0x30
 796 0030 03       		.uleb128 0x3
 797 0031 01       		.byte	0x1
 798 0032 06       		.byte	0x6
 799 0033 D9020000 		.4byte	.LASF2
 800 0037 02       		.uleb128 0x2
 801 0038 0B020000 		.4byte	.LASF1
 802 003c 02       		.byte	0x2
 803 003d 1D       		.byte	0x1d
 804 003e 42000000 		.4byte	0x42
 805 0042 03       		.uleb128 0x3
 806 0043 01       		.byte	0x1
 807 0044 08       		.byte	0x8
 808 0045 7E030000 		.4byte	.LASF3
 809 0049 03       		.uleb128 0x3
 810 004a 02       		.byte	0x2
 811 004b 05       		.byte	0x5
 812 004c 4E0C0000 		.4byte	.LASF4
 813 0050 02       		.uleb128 0x2
 814 0051 56040000 		.4byte	.LASF5
 815 0055 02       		.byte	0x2
 816 0056 2B       		.byte	0x2b
 817 0057 5B000000 		.4byte	0x5b
 818 005b 03       		.uleb128 0x3
 819 005c 02       		.byte	0x2
 820 005d 07       		.byte	0x7
 821 005e 360E0000 		.4byte	.LASF6
 822 0062 02       		.uleb128 0x2
 823 0063 9F0F0000 		.4byte	.LASF7
 824 0067 02       		.byte	0x2
 825 0068 3F       		.byte	0x3f
 826 0069 6D000000 		.4byte	0x6d
 827 006d 03       		.uleb128 0x3
 828 006e 04       		.byte	0x4
 829 006f 05       		.byte	0x5
 830 0070 6D020000 		.4byte	.LASF8
 831 0074 02       		.uleb128 0x2
 832 0075 AC070000 		.4byte	.LASF9
 833 0079 02       		.byte	0x2
 834 007a 41       		.byte	0x41
 835 007b 7F000000 		.4byte	0x7f
 836 007f 03       		.uleb128 0x3
 837 0080 04       		.byte	0x4
 838 0081 07       		.byte	0x7
 839 0082 2E060000 		.4byte	.LASF10
 840 0086 03       		.uleb128 0x3
 841 0087 08       		.byte	0x8
 842 0088 05       		.byte	0x5
 843 0089 B7070000 		.4byte	.LASF11
 844 008d 02       		.uleb128 0x2
 845 008e 10060000 		.4byte	.LASF12
 846 0092 02       		.byte	0x2
 847 0093 5B       		.byte	0x5b
 848 0094 98000000 		.4byte	0x98
 849 0098 03       		.uleb128 0x3
 850 0099 08       		.byte	0x8
 851 009a 07       		.byte	0x7
ARM GAS  C:\Users\IDONNO~1\AppData\Local\Temp\ccKMQqwp.s 			page 16


 852 009b AF0A0000 		.4byte	.LASF13
 853 009f 04       		.uleb128 0x4
 854 00a0 04       		.byte	0x4
 855 00a1 05       		.byte	0x5
 856 00a2 696E7400 		.ascii	"int\000"
 857 00a6 03       		.uleb128 0x3
 858 00a7 04       		.byte	0x4
 859 00a8 07       		.byte	0x7
 860 00a9 DA080000 		.4byte	.LASF14
 861 00ad 02       		.uleb128 0x2
 862 00ae 2E000000 		.4byte	.LASF15
 863 00b2 03       		.byte	0x3
 864 00b3 13       		.byte	0x13
 865 00b4 25000000 		.4byte	0x25
 866 00b8 02       		.uleb128 0x2
 867 00b9 EF020000 		.4byte	.LASF16
 868 00bd 03       		.byte	0x3
 869 00be 14       		.byte	0x14
 870 00bf 37000000 		.4byte	0x37
 871 00c3 02       		.uleb128 0x2
 872 00c4 ED0A0000 		.4byte	.LASF17
 873 00c8 03       		.byte	0x3
 874 00c9 1A       		.byte	0x1a
 875 00ca 50000000 		.4byte	0x50
 876 00ce 02       		.uleb128 0x2
 877 00cf BF000000 		.4byte	.LASF18
 878 00d3 03       		.byte	0x3
 879 00d4 1F       		.byte	0x1f
 880 00d5 62000000 		.4byte	0x62
 881 00d9 02       		.uleb128 0x2
 882 00da CE0D0000 		.4byte	.LASF19
 883 00de 03       		.byte	0x3
 884 00df 20       		.byte	0x20
 885 00e0 74000000 		.4byte	0x74
 886 00e4 02       		.uleb128 0x2
 887 00e5 690C0000 		.4byte	.LASF20
 888 00e9 03       		.byte	0x3
 889 00ea 26       		.byte	0x26
 890 00eb 8D000000 		.4byte	0x8d
 891 00ef 02       		.uleb128 0x2
 892 00f0 61000000 		.4byte	.LASF21
 893 00f4 04       		.byte	0x4
 894 00f5 D8       		.byte	0xd8
 895 00f6 A6000000 		.4byte	0xa6
 896 00fa 05       		.uleb128 0x5
 897 00fb CE000000 		.4byte	0xce
 898 00ff 02       		.uleb128 0x2
 899 0100 29090000 		.4byte	.LASF22
 900 0104 05       		.byte	0x5
 901 0105 45       		.byte	0x45
 902 0106 D9000000 		.4byte	0xd9
 903 010a 02       		.uleb128 0x2
 904 010b E00B0000 		.4byte	.LASF23
 905 010f 05       		.byte	0x5
 906 0110 48       		.byte	0x48
 907 0111 B8000000 		.4byte	0xb8
 908 0115 02       		.uleb128 0x2
ARM GAS  C:\Users\IDONNO~1\AppData\Local\Temp\ccKMQqwp.s 			page 17


 909 0116 8F020000 		.4byte	.LASF24
 910 011a 05       		.byte	0x5
 911 011b 49       		.byte	0x49
 912 011c B8000000 		.4byte	0xb8
 913 0120 02       		.uleb128 0x2
 914 0121 9A0D0000 		.4byte	.LASF25
 915 0125 05       		.byte	0x5
 916 0126 4A       		.byte	0x4a
 917 0127 B8000000 		.4byte	0xb8
 918 012b 02       		.uleb128 0x2
 919 012c 220B0000 		.4byte	.LASF26
 920 0130 05       		.byte	0x5
 921 0131 4B       		.byte	0x4b
 922 0132 B8000000 		.4byte	0xb8
 923 0136 02       		.uleb128 0x2
 924 0137 92000000 		.4byte	.LASF27
 925 013b 05       		.byte	0x5
 926 013c 4C       		.byte	0x4c
 927 013d D9000000 		.4byte	0xd9
 928 0141 02       		.uleb128 0x2
 929 0142 F60A0000 		.4byte	.LASF28
 930 0146 05       		.byte	0x5
 931 0147 4D       		.byte	0x4d
 932 0148 CE000000 		.4byte	0xce
 933 014c 02       		.uleb128 0x2
 934 014d 28030000 		.4byte	.LASF29
 935 0151 05       		.byte	0x5
 936 0152 4F       		.byte	0x4f
 937 0153 D9000000 		.4byte	0xd9
 938 0157 02       		.uleb128 0x2
 939 0158 08050000 		.4byte	.LASF30
 940 015c 05       		.byte	0x5
 941 015d 51       		.byte	0x51
 942 015e CE000000 		.4byte	0xce
 943 0162 02       		.uleb128 0x2
 944 0163 78000000 		.4byte	.LASF31
 945 0167 06       		.byte	0x6
 946 0168 33       		.byte	0x33
 947 0169 D9000000 		.4byte	0xd9
 948 016d 02       		.uleb128 0x2
 949 016e DA090000 		.4byte	.LASF32
 950 0172 06       		.byte	0x6
 951 0173 3F       		.byte	0x3f
 952 0174 78010000 		.4byte	0x178
 953 0178 06       		.uleb128 0x6
 954 0179 5A060000 		.4byte	.LASF54
 955 017d 48       		.byte	0x48
 956 017e 07       		.byte	0x7
 957 017f C2       		.byte	0xc2
 958 0180 7D020000 		.4byte	0x27d
 959 0184 07       		.uleb128 0x7
 960 0185 76020000 		.4byte	.LASF33
 961 0189 07       		.byte	0x7
 962 018a C3       		.byte	0xc3
 963 018b 88020000 		.4byte	0x288
 964 018f 00       		.byte	0
 965 0190 07       		.uleb128 0x7
ARM GAS  C:\Users\IDONNO~1\AppData\Local\Temp\ccKMQqwp.s 			page 18


 966 0191 7D020000 		.4byte	.LASF34
 967 0195 07       		.byte	0x7
 968 0196 C5       		.byte	0xc5
 969 0197 88020000 		.4byte	0x288
 970 019b 04       		.byte	0x4
 971 019c 07       		.uleb128 0x7
 972 019d 4F040000 		.4byte	.LASF35
 973 01a1 07       		.byte	0x7
 974 01a2 C7       		.byte	0xc7
 975 01a3 36010000 		.4byte	0x136
 976 01a7 08       		.byte	0x8
 977 01a8 07       		.uleb128 0x7
 978 01a9 8C000000 		.4byte	.LASF36
 979 01ad 07       		.byte	0x7
 980 01ae C8       		.byte	0xc8
 981 01af D1040000 		.4byte	0x4d1
 982 01b3 0C       		.byte	0xc
 983 01b4 07       		.uleb128 0x7
 984 01b5 65020000 		.4byte	.LASF37
 985 01b9 07       		.byte	0x7
 986 01ba CA       		.byte	0xca
 987 01bb 88020000 		.4byte	0x288
 988 01bf 10       		.byte	0x10
 989 01c0 07       		.uleb128 0x7
 990 01c1 D30A0000 		.4byte	.LASF38
 991 01c5 07       		.byte	0x7
 992 01c6 CB       		.byte	0xcb
 993 01c7 88020000 		.4byte	0x288
 994 01cb 14       		.byte	0x14
 995 01cc 07       		.uleb128 0x7
 996 01cd C40F0000 		.4byte	.LASF39
 997 01d1 07       		.byte	0x7
 998 01d2 D2       		.byte	0xd2
 999 01d3 16070000 		.4byte	0x716
 1000 01d7 18       		.byte	0x18
 1001 01d8 07       		.uleb128 0x7
 1002 01d9 1E100000 		.4byte	.LASF40
 1003 01dd 07       		.byte	0x7
 1004 01de DD       		.byte	0xdd
 1005 01df 15010000 		.4byte	0x115
 1006 01e3 1C       		.byte	0x1c
 1007 01e4 07       		.uleb128 0x7
 1008 01e5 B3080000 		.4byte	.LASF41
 1009 01e9 07       		.byte	0x7
 1010 01ea E1       		.byte	0xe1
 1011 01eb 0A010000 		.4byte	0x10a
 1012 01ef 1D       		.byte	0x1d
 1013 01f0 07       		.uleb128 0x7
 1014 01f1 39090000 		.4byte	.LASF42
 1015 01f5 07       		.byte	0x7
 1016 01f6 E6       		.byte	0xe6
 1017 01f7 20010000 		.4byte	0x120
 1018 01fb 1E       		.byte	0x1e
 1019 01fc 07       		.uleb128 0x7
 1020 01fd E5020000 		.4byte	.LASF43
 1021 0201 07       		.byte	0x7
 1022 0202 EC       		.byte	0xec
ARM GAS  C:\Users\IDONNO~1\AppData\Local\Temp\ccKMQqwp.s 			page 19


 1023 0203 2B010000 		.4byte	0x12b
 1024 0207 1F       		.byte	0x1f
 1025 0208 07       		.uleb128 0x7
 1026 0209 8A090000 		.4byte	.LASF44
 1027 020d 07       		.byte	0x7
 1028 020e F3       		.byte	0xf3
 1029 020f 28070000 		.4byte	0x728
 1030 0213 20       		.byte	0x20
 1031 0214 08       		.uleb128 0x8
 1032 0215 705F7500 		.ascii	"p_u\000"
 1033 0219 07       		.byte	0x7
 1034 021a 3101     		.2byte	0x131
 1035 021c 51060000 		.4byte	0x651
 1036 0220 24       		.byte	0x24
 1037 0221 09       		.uleb128 0x9
 1038 0222 9F080000 		.4byte	.LASF45
 1039 0226 07       		.byte	0x7
 1040 0227 3601     		.2byte	0x136
 1041 0229 8E020000 		.4byte	0x28e
 1042 022d 28       		.byte	0x28
 1043 022e 09       		.uleb128 0x9
 1044 022f A2000000 		.4byte	.LASF46
 1045 0233 07       		.byte	0x7
 1046 0234 3C01     		.2byte	0x13c
 1047 0236 B2020000 		.4byte	0x2b2
 1048 023a 2C       		.byte	0x2c
 1049 023b 09       		.uleb128 0x9
 1050 023c 18100000 		.4byte	.LASF47
 1051 0240 07       		.byte	0x7
 1052 0241 4001     		.2byte	0x140
 1053 0243 41010000 		.4byte	0x141
 1054 0247 34       		.byte	0x34
 1055 0248 09       		.uleb128 0x9
 1056 0249 2F050000 		.4byte	.LASF48
 1057 024d 07       		.byte	0x7
 1058 024e 4601     		.2byte	0x146
 1059 0250 4C010000 		.4byte	0x14c
 1060 0254 38       		.byte	0x38
 1061 0255 09       		.uleb128 0x9
 1062 0256 A8020000 		.4byte	.LASF49
 1063 025a 07       		.byte	0x7
 1064 025b 4D01     		.2byte	0x14d
 1065 025d 10070000 		.4byte	0x710
 1066 0261 3C       		.byte	0x3c
 1067 0262 09       		.uleb128 0x9
 1068 0263 050A0000 		.4byte	.LASF50
 1069 0267 07       		.byte	0x7
 1070 0268 5101     		.2byte	0x151
 1071 026a 36010000 		.4byte	0x136
 1072 026e 40       		.byte	0x40
 1073 026f 09       		.uleb128 0x9
 1074 0270 31090000 		.4byte	.LASF51
 1075 0274 07       		.byte	0x7
 1076 0275 5801     		.2byte	0x158
 1077 0277 65030000 		.4byte	0x365
 1078 027b 44       		.byte	0x44
 1079 027c 00       		.byte	0
ARM GAS  C:\Users\IDONNO~1\AppData\Local\Temp\ccKMQqwp.s 			page 20


 1080 027d 02       		.uleb128 0x2
 1081 027e F2090000 		.4byte	.LASF52
 1082 0282 06       		.byte	0x6
 1083 0283 44       		.byte	0x44
 1084 0284 88020000 		.4byte	0x288
 1085 0288 0A       		.uleb128 0xa
 1086 0289 04       		.byte	0x4
 1087 028a 6D010000 		.4byte	0x16d
 1088 028e 02       		.uleb128 0x2
 1089 028f A20D0000 		.4byte	.LASF53
 1090 0293 06       		.byte	0x6
 1091 0294 49       		.byte	0x49
 1092 0295 99020000 		.4byte	0x299
 1093 0299 06       		.uleb128 0x6
 1094 029a 19070000 		.4byte	.LASF55
 1095 029e 04       		.byte	0x4
 1096 029f 07       		.byte	0x7
 1097 02a0 B0       		.byte	0xb0
 1098 02a1 B2020000 		.4byte	0x2b2
 1099 02a5 07       		.uleb128 0x7
 1100 02a6 76020000 		.4byte	.LASF33
 1101 02aa 07       		.byte	0x7
 1102 02ab B1       		.byte	0xb1
 1103 02ac 88020000 		.4byte	0x288
 1104 02b0 00       		.byte	0
 1105 02b1 00       		.byte	0
 1106 02b2 02       		.uleb128 0x2
 1107 02b3 98020000 		.4byte	.LASF56
 1108 02b7 06       		.byte	0x6
 1109 02b8 50       		.byte	0x50
 1110 02b9 BD020000 		.4byte	0x2bd
 1111 02bd 06       		.uleb128 0x6
 1112 02be 110B0000 		.4byte	.LASF57
 1113 02c2 08       		.byte	0x8
 1114 02c3 07       		.byte	0x7
 1115 02c4 B7       		.byte	0xb7
 1116 02c5 E2020000 		.4byte	0x2e2
 1117 02c9 07       		.uleb128 0x7
 1118 02ca 76020000 		.4byte	.LASF33
 1119 02ce 07       		.byte	0x7
 1120 02cf B8       		.byte	0xb8
 1121 02d0 88020000 		.4byte	0x288
 1122 02d4 00       		.byte	0
 1123 02d5 07       		.uleb128 0x7
 1124 02d6 7D020000 		.4byte	.LASF34
 1125 02da 07       		.byte	0x7
 1126 02db B9       		.byte	0xb9
 1127 02dc 88020000 		.4byte	0x288
 1128 02e0 04       		.byte	0x4
 1129 02e1 00       		.byte	0
 1130 02e2 02       		.uleb128 0x2
 1131 02e3 D2060000 		.4byte	.LASF58
 1132 02e7 06       		.byte	0x6
 1133 02e8 57       		.byte	0x57
 1134 02e9 ED020000 		.4byte	0x2ed
 1135 02ed 0B       		.uleb128 0xb
 1136 02ee 8B050000 		.4byte	.LASF59
ARM GAS  C:\Users\IDONNO~1\AppData\Local\Temp\ccKMQqwp.s 			page 21


 1137 02f2 1C       		.byte	0x1c
 1138 02f3 07       		.byte	0x7
 1139 02f4 9001     		.2byte	0x190
 1140 02f6 49030000 		.4byte	0x349
 1141 02fa 09       		.uleb128 0x9
 1142 02fb 8F0B0000 		.4byte	.LASF60
 1143 02ff 07       		.byte	0x7
 1144 0300 9101     		.2byte	0x191
 1145 0302 B2020000 		.4byte	0x2b2
 1146 0306 00       		.byte	0
 1147 0307 09       		.uleb128 0x9
 1148 0308 BC0C0000 		.4byte	.LASF61
 1149 030c 07       		.byte	0x7
 1150 030d 9201     		.2byte	0x192
 1151 030f 36010000 		.4byte	0x136
 1152 0313 08       		.byte	0x8
 1153 0314 09       		.uleb128 0x9
 1154 0315 AD000000 		.4byte	.LASF62
 1155 0319 07       		.byte	0x7
 1156 031a 9401     		.2byte	0x194
 1157 031c D1040000 		.4byte	0x4d1
 1158 0320 0C       		.byte	0xc
 1159 0321 09       		.uleb128 0x9
 1160 0322 BA030000 		.4byte	.LASF63
 1161 0326 07       		.byte	0x7
 1162 0327 9701     		.2byte	0x197
 1163 0329 88020000 		.4byte	0x288
 1164 032d 10       		.byte	0x10
 1165 032e 09       		.uleb128 0x9
 1166 032f 160C0000 		.4byte	.LASF64
 1167 0333 07       		.byte	0x7
 1168 0334 9801     		.2byte	0x198
 1169 0336 88020000 		.4byte	0x288
 1170 033a 14       		.byte	0x14
 1171 033b 09       		.uleb128 0x9
 1172 033c 620B0000 		.4byte	.LASF65
 1173 0340 07       		.byte	0x7
 1174 0341 9B01     		.2byte	0x19b
 1175 0343 88020000 		.4byte	0x288
 1176 0347 18       		.byte	0x18
 1177 0348 00       		.byte	0
 1178 0349 02       		.uleb128 0x2
 1179 034a C7000000 		.4byte	.LASF66
 1180 034e 06       		.byte	0x6
 1181 034f 5C       		.byte	0x5c
 1182 0350 54030000 		.4byte	0x354
 1183 0354 0A       		.uleb128 0xa
 1184 0355 04       		.byte	0x4
 1185 0356 5A030000 		.4byte	0x35a
 1186 035a 0C       		.uleb128 0xc
 1187 035b 65030000 		.4byte	0x365
 1188 035f 0D       		.uleb128 0xd
 1189 0360 65030000 		.4byte	0x365
 1190 0364 00       		.byte	0
 1191 0365 0E       		.uleb128 0xe
 1192 0366 04       		.byte	0x4
 1193 0367 02       		.uleb128 0x2
ARM GAS  C:\Users\IDONNO~1\AppData\Local\Temp\ccKMQqwp.s 			page 22


 1194 0368 C2060000 		.4byte	.LASF67
 1195 036c 06       		.byte	0x6
 1196 036d 61       		.byte	0x61
 1197 036e 72030000 		.4byte	0x372
 1198 0372 0B       		.uleb128 0xb
 1199 0373 730A0000 		.4byte	.LASF68
 1200 0377 14       		.byte	0x14
 1201 0378 07       		.byte	0x7
 1202 0379 6B01     		.2byte	0x16b
 1203 037b C1030000 		.4byte	0x3c1
 1204 037f 09       		.uleb128 0x9
 1205 0380 E0070000 		.4byte	.LASF69
 1206 0384 07       		.byte	0x7
 1207 0385 6C01     		.2byte	0x16c
 1208 0387 2D070000 		.4byte	0x72d
 1209 038b 00       		.byte	0
 1210 038c 09       		.uleb128 0x9
 1211 038d 26080000 		.4byte	.LASF70
 1212 0391 07       		.byte	0x7
 1213 0392 6D01     		.2byte	0x16d
 1214 0394 2D070000 		.4byte	0x72d
 1215 0398 04       		.byte	0x4
 1216 0399 09       		.uleb128 0x9
 1217 039a 360A0000 		.4byte	.LASF71
 1218 039e 07       		.byte	0x7
 1219 039f 6E01     		.2byte	0x16e
 1220 03a1 62010000 		.4byte	0x162
 1221 03a5 08       		.byte	0x8
 1222 03a6 09       		.uleb128 0x9
 1223 03a7 27050000 		.4byte	.LASF72
 1224 03ab 07       		.byte	0x7
 1225 03ac 6F01     		.2byte	0x16f
 1226 03ae 49030000 		.4byte	0x349
 1227 03b2 0C       		.byte	0xc
 1228 03b3 09       		.uleb128 0x9
 1229 03b4 FB010000 		.4byte	.LASF73
 1230 03b8 07       		.byte	0x7
 1231 03b9 7101     		.2byte	0x171
 1232 03bb 65030000 		.4byte	0x365
 1233 03bf 10       		.byte	0x10
 1234 03c0 00       		.byte	0
 1235 03c1 02       		.uleb128 0x2
 1236 03c2 7F060000 		.4byte	.LASF74
 1237 03c6 06       		.byte	0x6
 1238 03c7 66       		.byte	0x66
 1239 03c8 CC030000 		.4byte	0x3cc
 1240 03cc 0B       		.uleb128 0xb
 1241 03cd F9000000 		.4byte	.LASF75
 1242 03d1 10       		.byte	0x10
 1243 03d2 07       		.byte	0x7
 1244 03d3 7B01     		.2byte	0x17b
 1245 03d5 0E040000 		.4byte	0x40e
 1246 03d9 09       		.uleb128 0x9
 1247 03da E0070000 		.4byte	.LASF69
 1248 03de 07       		.byte	0x7
 1249 03df 7C01     		.2byte	0x17c
 1250 03e1 2D070000 		.4byte	0x72d
ARM GAS  C:\Users\IDONNO~1\AppData\Local\Temp\ccKMQqwp.s 			page 23


 1251 03e5 00       		.byte	0
 1252 03e6 09       		.uleb128 0x9
 1253 03e7 26080000 		.4byte	.LASF70
 1254 03eb 07       		.byte	0x7
 1255 03ec 7E01     		.2byte	0x17e
 1256 03ee 2D070000 		.4byte	0x72d
 1257 03f2 04       		.byte	0x4
 1258 03f3 09       		.uleb128 0x9
 1259 03f4 360A0000 		.4byte	.LASF71
 1260 03f8 07       		.byte	0x7
 1261 03f9 8001     		.2byte	0x180
 1262 03fb 62010000 		.4byte	0x162
 1263 03ff 08       		.byte	0x8
 1264 0400 09       		.uleb128 0x9
 1265 0401 F90B0000 		.4byte	.LASF76
 1266 0405 07       		.byte	0x7
 1267 0406 8201     		.2byte	0x182
 1268 0408 28070000 		.4byte	0x728
 1269 040c 0C       		.byte	0xc
 1270 040d 00       		.byte	0
 1271 040e 02       		.uleb128 0x2
 1272 040f D1030000 		.4byte	.LASF77
 1273 0413 06       		.byte	0x6
 1274 0414 6B       		.byte	0x6b
 1275 0415 19040000 		.4byte	0x419
 1276 0419 0B       		.uleb128 0xb
 1277 041a C30C0000 		.4byte	.LASF78
 1278 041e 04       		.byte	0x4
 1279 041f 07       		.byte	0x7
 1280 0420 A201     		.2byte	0x1a2
 1281 0422 34040000 		.4byte	0x434
 1282 0426 09       		.uleb128 0x9
 1283 0427 9F030000 		.4byte	.LASF79
 1284 042b 07       		.byte	0x7
 1285 042c AA01     		.2byte	0x1aa
 1286 042e 33070000 		.4byte	0x733
 1287 0432 00       		.byte	0
 1288 0433 00       		.byte	0
 1289 0434 02       		.uleb128 0x2
 1290 0435 640E0000 		.4byte	.LASF80
 1291 0439 06       		.byte	0x6
 1292 043a 70       		.byte	0x70
 1293 043b 3F040000 		.4byte	0x43f
 1294 043f 0F       		.uleb128 0xf
 1295 0440 B10D0000 		.4byte	.LASF81
 1296 0444 5802     		.2byte	0x258
 1297 0446 07       		.byte	0x7
 1298 0447 C201     		.2byte	0x1c2
 1299 0449 9B040000 		.4byte	0x49b
 1300 044d 09       		.uleb128 0x9
 1301 044e DA0B0000 		.4byte	.LASF82
 1302 0452 07       		.byte	0x7
 1303 0453 C601     		.2byte	0x1c6
 1304 0455 E2020000 		.4byte	0x2e2
 1305 0459 00       		.byte	0
 1306 045a 09       		.uleb128 0x9
 1307 045b 650D0000 		.4byte	.LASF83
ARM GAS  C:\Users\IDONNO~1\AppData\Local\Temp\ccKMQqwp.s 			page 24


 1308 045f 07       		.byte	0x7
 1309 0460 CA01     		.2byte	0x1ca
 1310 0462 C1030000 		.4byte	0x3c1
 1311 0466 1C       		.byte	0x1c
 1312 0467 08       		.uleb128 0x8
 1313 0468 64626700 		.ascii	"dbg\000"
 1314 046c 07       		.byte	0x7
 1315 046d CE01     		.2byte	0x1ce
 1316 046f 0E040000 		.4byte	0x40e
 1317 0473 2C       		.byte	0x2c
 1318 0474 09       		.uleb128 0x9
 1319 0475 6C0B0000 		.4byte	.LASF84
 1320 0479 07       		.byte	0x7
 1321 047a D201     		.2byte	0x1d2
 1322 047c 6D010000 		.4byte	0x16d
 1323 0480 30       		.byte	0x30
 1324 0481 08       		.uleb128 0x8
 1325 0482 746D00   		.ascii	"tm\000"
 1326 0485 07       		.byte	0x7
 1327 0486 D701     		.2byte	0x1d7
 1328 0488 46060000 		.4byte	0x646
 1329 048c 78       		.byte	0x78
 1330 048d 09       		.uleb128 0x9
 1331 048e CB080000 		.4byte	.LASF85
 1332 0492 07       		.byte	0x7
 1333 0493 E301     		.2byte	0x1e3
 1334 0495 38070000 		.4byte	0x738
 1335 0499 80       		.byte	0x80
 1336 049a 00       		.byte	0
 1337 049b 03       		.uleb128 0x3
 1338 049c 04       		.byte	0x4
 1339 049d 07       		.byte	0x7
 1340 049e 68000000 		.4byte	.LASF86
 1341 04a2 10       		.uleb128 0x10
 1342 04a3 01       		.byte	0x1
 1343 04a4 42000000 		.4byte	0x42
 1344 04a8 0D       		.byte	0xd
 1345 04a9 A8       		.byte	0xa8
 1346 04aa BB040000 		.4byte	0x4bb
 1347 04ae 11       		.uleb128 0x11
 1348 04af BD090000 		.4byte	.LASF87
 1349 04b3 00       		.byte	0
 1350 04b4 11       		.uleb128 0x11
 1351 04b5 D30C0000 		.4byte	.LASF88
 1352 04b9 01       		.byte	0x1
 1353 04ba 00       		.byte	0
 1354 04bb 02       		.uleb128 0x2
 1355 04bc B2020000 		.4byte	.LASF89
 1356 04c0 08       		.byte	0x8
 1357 04c1 65       		.byte	0x65
 1358 04c2 65030000 		.4byte	0x365
 1359 04c6 02       		.uleb128 0x2
 1360 04c7 8E040000 		.4byte	.LASF90
 1361 04cb 08       		.byte	0x8
 1362 04cc 6D       		.byte	0x6d
 1363 04cd E4000000 		.4byte	0xe4
 1364 04d1 06       		.uleb128 0x6
ARM GAS  C:\Users\IDONNO~1\AppData\Local\Temp\ccKMQqwp.s 			page 25


 1365 04d2 34030000 		.4byte	.LASF91
 1366 04d6 04       		.byte	0x4
 1367 04d7 08       		.byte	0x8
 1368 04d8 89       		.byte	0x89
 1369 04d9 EA040000 		.4byte	0x4ea
 1370 04dd 12       		.uleb128 0x12
 1371 04de 72313300 		.ascii	"r13\000"
 1372 04e2 08       		.byte	0x8
 1373 04e3 8A       		.byte	0x8a
 1374 04e4 2B060000 		.4byte	0x62b
 1375 04e8 00       		.byte	0
 1376 04e9 00       		.byte	0
 1377 04ea 06       		.uleb128 0x6
 1378 04eb 100A0000 		.4byte	.LASF92
 1379 04ef 64       		.byte	0x64
 1380 04f0 09       		.byte	0x9
 1381 04f1 F4       		.byte	0xf4
 1382 04f2 2B060000 		.4byte	0x62b
 1383 04f6 12       		.uleb128 0x12
 1384 04f7 73313600 		.ascii	"s16\000"
 1385 04fb 09       		.byte	0x9
 1386 04fc F6       		.byte	0xf6
 1387 04fd BB040000 		.4byte	0x4bb
 1388 0501 00       		.byte	0
 1389 0502 12       		.uleb128 0x12
 1390 0503 73313700 		.ascii	"s17\000"
 1391 0507 09       		.byte	0x9
 1392 0508 F7       		.byte	0xf7
 1393 0509 BB040000 		.4byte	0x4bb
 1394 050d 04       		.byte	0x4
 1395 050e 12       		.uleb128 0x12
 1396 050f 73313800 		.ascii	"s18\000"
 1397 0513 09       		.byte	0x9
 1398 0514 F8       		.byte	0xf8
 1399 0515 BB040000 		.4byte	0x4bb
 1400 0519 08       		.byte	0x8
 1401 051a 12       		.uleb128 0x12
 1402 051b 73313900 		.ascii	"s19\000"
 1403 051f 09       		.byte	0x9
 1404 0520 F9       		.byte	0xf9
 1405 0521 BB040000 		.4byte	0x4bb
 1406 0525 0C       		.byte	0xc
 1407 0526 12       		.uleb128 0x12
 1408 0527 73323000 		.ascii	"s20\000"
 1409 052b 09       		.byte	0x9
 1410 052c FA       		.byte	0xfa
 1411 052d BB040000 		.4byte	0x4bb
 1412 0531 10       		.byte	0x10
 1413 0532 12       		.uleb128 0x12
 1414 0533 73323100 		.ascii	"s21\000"
 1415 0537 09       		.byte	0x9
 1416 0538 FB       		.byte	0xfb
 1417 0539 BB040000 		.4byte	0x4bb
 1418 053d 14       		.byte	0x14
 1419 053e 12       		.uleb128 0x12
 1420 053f 73323200 		.ascii	"s22\000"
 1421 0543 09       		.byte	0x9
ARM GAS  C:\Users\IDONNO~1\AppData\Local\Temp\ccKMQqwp.s 			page 26


 1422 0544 FC       		.byte	0xfc
 1423 0545 BB040000 		.4byte	0x4bb
 1424 0549 18       		.byte	0x18
 1425 054a 12       		.uleb128 0x12
 1426 054b 73323300 		.ascii	"s23\000"
 1427 054f 09       		.byte	0x9
 1428 0550 FD       		.byte	0xfd
 1429 0551 BB040000 		.4byte	0x4bb
 1430 0555 1C       		.byte	0x1c
 1431 0556 12       		.uleb128 0x12
 1432 0557 73323400 		.ascii	"s24\000"
 1433 055b 09       		.byte	0x9
 1434 055c FE       		.byte	0xfe
 1435 055d BB040000 		.4byte	0x4bb
 1436 0561 20       		.byte	0x20
 1437 0562 12       		.uleb128 0x12
 1438 0563 73323500 		.ascii	"s25\000"
 1439 0567 09       		.byte	0x9
 1440 0568 FF       		.byte	0xff
 1441 0569 BB040000 		.4byte	0x4bb
 1442 056d 24       		.byte	0x24
 1443 056e 08       		.uleb128 0x8
 1444 056f 73323600 		.ascii	"s26\000"
 1445 0573 09       		.byte	0x9
 1446 0574 0001     		.2byte	0x100
 1447 0576 BB040000 		.4byte	0x4bb
 1448 057a 28       		.byte	0x28
 1449 057b 08       		.uleb128 0x8
 1450 057c 73323700 		.ascii	"s27\000"
 1451 0580 09       		.byte	0x9
 1452 0581 0101     		.2byte	0x101
 1453 0583 BB040000 		.4byte	0x4bb
 1454 0587 2C       		.byte	0x2c
 1455 0588 08       		.uleb128 0x8
 1456 0589 73323800 		.ascii	"s28\000"
 1457 058d 09       		.byte	0x9
 1458 058e 0201     		.2byte	0x102
 1459 0590 BB040000 		.4byte	0x4bb
 1460 0594 30       		.byte	0x30
 1461 0595 08       		.uleb128 0x8
 1462 0596 73323900 		.ascii	"s29\000"
 1463 059a 09       		.byte	0x9
 1464 059b 0301     		.2byte	0x103
 1465 059d BB040000 		.4byte	0x4bb
 1466 05a1 34       		.byte	0x34
 1467 05a2 08       		.uleb128 0x8
 1468 05a3 73333000 		.ascii	"s30\000"
 1469 05a7 09       		.byte	0x9
 1470 05a8 0401     		.2byte	0x104
 1471 05aa BB040000 		.4byte	0x4bb
 1472 05ae 38       		.byte	0x38
 1473 05af 08       		.uleb128 0x8
 1474 05b0 73333100 		.ascii	"s31\000"
 1475 05b4 09       		.byte	0x9
 1476 05b5 0501     		.2byte	0x105
 1477 05b7 BB040000 		.4byte	0x4bb
 1478 05bb 3C       		.byte	0x3c
ARM GAS  C:\Users\IDONNO~1\AppData\Local\Temp\ccKMQqwp.s 			page 27


 1479 05bc 08       		.uleb128 0x8
 1480 05bd 723400   		.ascii	"r4\000"
 1481 05c0 09       		.byte	0x9
 1482 05c1 0701     		.2byte	0x107
 1483 05c3 BB040000 		.4byte	0x4bb
 1484 05c7 40       		.byte	0x40
 1485 05c8 08       		.uleb128 0x8
 1486 05c9 723500   		.ascii	"r5\000"
 1487 05cc 09       		.byte	0x9
 1488 05cd 0801     		.2byte	0x108
 1489 05cf BB040000 		.4byte	0x4bb
 1490 05d3 44       		.byte	0x44
 1491 05d4 08       		.uleb128 0x8
 1492 05d5 723600   		.ascii	"r6\000"
 1493 05d8 09       		.byte	0x9
 1494 05d9 0901     		.2byte	0x109
 1495 05db BB040000 		.4byte	0x4bb
 1496 05df 48       		.byte	0x48
 1497 05e0 08       		.uleb128 0x8
 1498 05e1 723700   		.ascii	"r7\000"
 1499 05e4 09       		.byte	0x9
 1500 05e5 0A01     		.2byte	0x10a
 1501 05e7 BB040000 		.4byte	0x4bb
 1502 05eb 4C       		.byte	0x4c
 1503 05ec 08       		.uleb128 0x8
 1504 05ed 723800   		.ascii	"r8\000"
 1505 05f0 09       		.byte	0x9
 1506 05f1 0B01     		.2byte	0x10b
 1507 05f3 BB040000 		.4byte	0x4bb
 1508 05f7 50       		.byte	0x50
 1509 05f8 08       		.uleb128 0x8
 1510 05f9 723900   		.ascii	"r9\000"
 1511 05fc 09       		.byte	0x9
 1512 05fd 0C01     		.2byte	0x10c
 1513 05ff BB040000 		.4byte	0x4bb
 1514 0603 54       		.byte	0x54
 1515 0604 08       		.uleb128 0x8
 1516 0605 72313000 		.ascii	"r10\000"
 1517 0609 09       		.byte	0x9
 1518 060a 0D01     		.2byte	0x10d
 1519 060c BB040000 		.4byte	0x4bb
 1520 0610 58       		.byte	0x58
 1521 0611 08       		.uleb128 0x8
 1522 0612 72313100 		.ascii	"r11\000"
 1523 0616 09       		.byte	0x9
 1524 0617 0E01     		.2byte	0x10e
 1525 0619 BB040000 		.4byte	0x4bb
 1526 061d 5C       		.byte	0x5c
 1527 061e 08       		.uleb128 0x8
 1528 061f 6C7200   		.ascii	"lr\000"
 1529 0622 09       		.byte	0x9
 1530 0623 0F01     		.2byte	0x10f
 1531 0625 BB040000 		.4byte	0x4bb
 1532 0629 60       		.byte	0x60
 1533 062a 00       		.byte	0
 1534 062b 0A       		.uleb128 0xa
 1535 062c 04       		.byte	0x4
ARM GAS  C:\Users\IDONNO~1\AppData\Local\Temp\ccKMQqwp.s 			page 28


 1536 062d EA040000 		.4byte	0x4ea
 1537 0631 13       		.uleb128 0x13
 1538 0632 04       		.byte	0x4
 1539 0633 0A       		.byte	0xa
 1540 0634 38       		.byte	0x38
 1541 0635 46060000 		.4byte	0x646
 1542 0639 07       		.uleb128 0x7
 1543 063a 6A090000 		.4byte	.LASF93
 1544 063e 0A       		.byte	0xa
 1545 063f 3C       		.byte	0x3c
 1546 0640 FF000000 		.4byte	0xff
 1547 0644 00       		.byte	0
 1548 0645 00       		.byte	0
 1549 0646 02       		.uleb128 0x2
 1550 0647 1E0C0000 		.4byte	.LASF94
 1551 064b 0A       		.byte	0xa
 1552 064c 3D       		.byte	0x3d
 1553 064d 31060000 		.4byte	0x631
 1554 0651 14       		.uleb128 0x14
 1555 0652 04       		.byte	0x4
 1556 0653 07       		.byte	0x7
 1557 0654 FA       		.byte	0xfa
 1558 0655 AE060000 		.4byte	0x6ae
 1559 0659 15       		.uleb128 0x15
 1560 065a 2F0E0000 		.4byte	.LASF95
 1561 065e 07       		.byte	0x7
 1562 065f 0101     		.2byte	0x101
 1563 0661 41010000 		.4byte	0x141
 1564 0665 15       		.uleb128 0x15
 1565 0666 02020000 		.4byte	.LASF96
 1566 066a 07       		.byte	0x7
 1567 066b 0801     		.2byte	0x108
 1568 066d 41010000 		.4byte	0x141
 1569 0671 15       		.uleb128 0x15
 1570 0672 61040000 		.4byte	.LASF97
 1571 0676 07       		.byte	0x7
 1572 0677 0F01     		.2byte	0x10f
 1573 0679 65030000 		.4byte	0x365
 1574 067d 15       		.uleb128 0x15
 1575 067e 61030000 		.4byte	.LASF98
 1576 0682 07       		.byte	0x7
 1577 0683 1601     		.2byte	0x116
 1578 0685 AE060000 		.4byte	0x6ae
 1579 0689 15       		.uleb128 0x15
 1580 068a 71000000 		.4byte	.LASF99
 1581 068e 07       		.byte	0x7
 1582 068f 1E01     		.2byte	0x11e
 1583 0691 D9060000 		.4byte	0x6d9
 1584 0695 15       		.uleb128 0x15
 1585 0696 44050000 		.4byte	.LASF100
 1586 069a 07       		.byte	0x7
 1587 069b 2701     		.2byte	0x127
 1588 069d 10070000 		.4byte	0x710
 1589 06a1 15       		.uleb128 0x15
 1590 06a2 28020000 		.4byte	.LASF101
 1591 06a6 07       		.byte	0x7
 1592 06a7 2F01     		.2byte	0x12f
ARM GAS  C:\Users\IDONNO~1\AppData\Local\Temp\ccKMQqwp.s 			page 29


 1593 06a9 4C010000 		.4byte	0x14c
 1594 06ad 00       		.byte	0
 1595 06ae 0A       		.uleb128 0xa
 1596 06af 04       		.byte	0x4
 1597 06b0 7D020000 		.4byte	0x27d
 1598 06b4 06       		.uleb128 0x6
 1599 06b5 4D060000 		.4byte	.LASF102
 1600 06b9 0C       		.byte	0xc
 1601 06ba 0B       		.byte	0xb
 1602 06bb 34       		.byte	0x34
 1603 06bc D9060000 		.4byte	0x6d9
 1604 06c0 07       		.uleb128 0x7
 1605 06c1 2F0C0000 		.4byte	.LASF103
 1606 06c5 0B       		.byte	0xb
 1607 06c6 35       		.byte	0x35
 1608 06c7 B2020000 		.4byte	0x2b2
 1609 06cb 00       		.byte	0
 1610 06cc 07       		.uleb128 0x7
 1611 06cd 840A0000 		.4byte	.LASF104
 1612 06d1 0B       		.byte	0xb
 1613 06d2 37       		.byte	0x37
 1614 06d3 57010000 		.4byte	0x157
 1615 06d7 08       		.byte	0x8
 1616 06d8 00       		.byte	0
 1617 06d9 0A       		.uleb128 0xa
 1618 06da 04       		.byte	0x4
 1619 06db B4060000 		.4byte	0x6b4
 1620 06df 06       		.uleb128 0x6
 1621 06e0 720C0000 		.4byte	.LASF105
 1622 06e4 10       		.byte	0x10
 1623 06e5 0C       		.byte	0xc
 1624 06e6 39       		.byte	0x39
 1625 06e7 10070000 		.4byte	0x710
 1626 06eb 07       		.uleb128 0x7
 1627 06ec D8070000 		.4byte	.LASF106
 1628 06f0 0C       		.byte	0xc
 1629 06f1 3A       		.byte	0x3a
 1630 06f2 B2020000 		.4byte	0x2b2
 1631 06f6 00       		.byte	0
 1632 06f7 07       		.uleb128 0x7
 1633 06f8 F3010000 		.4byte	.LASF107
 1634 06fc 0C       		.byte	0xc
 1635 06fd 3C       		.byte	0x3c
 1636 06fe 88020000 		.4byte	0x288
 1637 0702 08       		.byte	0x8
 1638 0703 07       		.uleb128 0x7
 1639 0704 CB0F0000 		.4byte	.LASF108
 1640 0708 0C       		.byte	0xc
 1641 0709 3E       		.byte	0x3e
 1642 070a 53070000 		.4byte	0x753
 1643 070e 0C       		.byte	0xc
 1644 070f 00       		.byte	0
 1645 0710 0A       		.uleb128 0xa
 1646 0711 04       		.byte	0x4
 1647 0712 DF060000 		.4byte	0x6df
 1648 0716 0A       		.uleb128 0xa
 1649 0717 04       		.byte	0x4
ARM GAS  C:\Users\IDONNO~1\AppData\Local\Temp\ccKMQqwp.s 			page 30


 1650 0718 23070000 		.4byte	0x723
 1651 071c 03       		.uleb128 0x3
 1652 071d 01       		.byte	0x1
 1653 071e 08       		.byte	0x8
 1654 071f 33040000 		.4byte	.LASF109
 1655 0723 16       		.uleb128 0x16
 1656 0724 1C070000 		.4byte	0x71c
 1657 0728 05       		.uleb128 0x5
 1658 0729 62010000 		.4byte	0x162
 1659 072d 0A       		.uleb128 0xa
 1660 072e 04       		.byte	0x4
 1661 072f 67030000 		.4byte	0x367
 1662 0733 05       		.uleb128 0x5
 1663 0734 16070000 		.4byte	0x716
 1664 0738 17       		.uleb128 0x17
 1665 0739 C6040000 		.4byte	0x4c6
 1666 073d 48070000 		.4byte	0x748
 1667 0741 18       		.uleb128 0x18
 1668 0742 9B040000 		.4byte	0x49b
 1669 0746 3A       		.byte	0x3a
 1670 0747 00       		.byte	0
 1671 0748 02       		.uleb128 0x2
 1672 0749 920D0000 		.4byte	.LASF110
 1673 074d 0C       		.byte	0xc
 1674 074e 34       		.byte	0x34
 1675 074f DF060000 		.4byte	0x6df
 1676 0753 0A       		.uleb128 0xa
 1677 0754 04       		.byte	0x4
 1678 0755 48070000 		.4byte	0x748
 1679 0759 0A       		.uleb128 0xa
 1680 075a 04       		.byte	0x4
 1681 075b B8000000 		.4byte	0xb8
 1682 075f 10       		.uleb128 0x10
 1683 0760 01       		.byte	0x1
 1684 0761 42000000 		.4byte	0x42
 1685 0765 0E       		.byte	0xe
 1686 0766 2A       		.byte	0x2a
 1687 0767 7E070000 		.4byte	0x77e
 1688 076b 11       		.uleb128 0x11
 1689 076c EC060000 		.4byte	.LASF111
 1690 0770 00       		.byte	0
 1691 0771 11       		.uleb128 0x11
 1692 0772 3C030000 		.4byte	.LASF112
 1693 0776 01       		.byte	0x1
 1694 0777 11       		.uleb128 0x11
 1695 0778 A9030000 		.4byte	.LASF113
 1696 077c 02       		.byte	0x2
 1697 077d 00       		.byte	0
 1698 077e 02       		.uleb128 0x2
 1699 077f DD010000 		.4byte	.LASF114
 1700 0783 0E       		.byte	0xe
 1701 0784 2E       		.byte	0x2e
 1702 0785 5F070000 		.4byte	0x75f
 1703 0789 10       		.uleb128 0x10
 1704 078a 01       		.byte	0x1
 1705 078b 42000000 		.4byte	0x42
 1706 078f 0E       		.byte	0xe
ARM GAS  C:\Users\IDONNO~1\AppData\Local\Temp\ccKMQqwp.s 			page 31


 1707 0790 30       		.byte	0x30
 1708 0791 A2070000 		.4byte	0x7a2
 1709 0795 11       		.uleb128 0x11
 1710 0796 9B0A0000 		.4byte	.LASF115
 1711 079a 00       		.byte	0
 1712 079b 11       		.uleb128 0x11
 1713 079c 19090000 		.4byte	.LASF116
 1714 07a0 01       		.byte	0x1
 1715 07a1 00       		.byte	0
 1716 07a2 02       		.uleb128 0x2
 1717 07a3 03060000 		.4byte	.LASF117
 1718 07a7 0E       		.byte	0xe
 1719 07a8 33       		.byte	0x33
 1720 07a9 89070000 		.4byte	0x789
 1721 07ad 10       		.uleb128 0x10
 1722 07ae 01       		.byte	0x1
 1723 07af 42000000 		.4byte	0x42
 1724 07b3 0E       		.byte	0xe
 1725 07b4 35       		.byte	0x35
 1726 07b5 C6070000 		.4byte	0x7c6
 1727 07b9 11       		.uleb128 0x11
 1728 07ba 19010000 		.4byte	.LASF118
 1729 07be 00       		.byte	0
 1730 07bf 11       		.uleb128 0x11
 1731 07c0 AC060000 		.4byte	.LASF119
 1732 07c4 01       		.byte	0x1
 1733 07c5 00       		.byte	0
 1734 07c6 02       		.uleb128 0x2
 1735 07c7 560E0000 		.4byte	.LASF120
 1736 07cb 0E       		.byte	0xe
 1737 07cc 38       		.byte	0x38
 1738 07cd AD070000 		.4byte	0x7ad
 1739 07d1 03       		.uleb128 0x3
 1740 07d2 04       		.byte	0x4
 1741 07d3 04       		.byte	0x4
 1742 07d4 99080000 		.4byte	.LASF121
 1743 07d8 13       		.uleb128 0x13
 1744 07d9 B0       		.byte	0xb0
 1745 07da 0E       		.byte	0xe
 1746 07db 57       		.byte	0x57
 1747 07dc 2D0A0000 		.4byte	0xa2d
 1748 07e0 07       		.uleb128 0x7
 1749 07e1 A3070000 		.4byte	.LASF122
 1750 07e5 0E       		.byte	0xe
 1751 07e6 59       		.byte	0x59
 1752 07e7 7E070000 		.4byte	0x77e
 1753 07eb 00       		.byte	0
 1754 07ec 07       		.uleb128 0x7
 1755 07ed F2030000 		.4byte	.LASF123
 1756 07f1 0E       		.byte	0xe
 1757 07f2 5A       		.byte	0x5a
 1758 07f3 A2070000 		.4byte	0x7a2
 1759 07f7 01       		.byte	0x1
 1760 07f8 07       		.uleb128 0x7
 1761 07f9 40090000 		.4byte	.LASF124
 1762 07fd 0E       		.byte	0xe
 1763 07fe 5B       		.byte	0x5b
ARM GAS  C:\Users\IDONNO~1\AppData\Local\Temp\ccKMQqwp.s 			page 32


 1764 07ff C6070000 		.4byte	0x7c6
 1765 0803 02       		.byte	0x2
 1766 0804 07       		.uleb128 0x7
 1767 0805 71090000 		.4byte	.LASF125
 1768 0809 0E       		.byte	0xe
 1769 080a 5D       		.byte	0x5d
 1770 080b D1070000 		.4byte	0x7d1
 1771 080f 04       		.byte	0x4
 1772 0810 07       		.uleb128 0x7
 1773 0811 570D0000 		.4byte	.LASF126
 1774 0815 0E       		.byte	0xe
 1775 0816 5E       		.byte	0x5e
 1776 0817 D1070000 		.4byte	0x7d1
 1777 081b 08       		.byte	0x8
 1778 081c 07       		.uleb128 0x7
 1779 081d 92070000 		.4byte	.LASF127
 1780 0821 0E       		.byte	0xe
 1781 0822 5F       		.byte	0x5f
 1782 0823 D1070000 		.4byte	0x7d1
 1783 0827 0C       		.byte	0xc
 1784 0828 07       		.uleb128 0x7
 1785 0829 7E0B0000 		.4byte	.LASF128
 1786 082d 0E       		.byte	0xe
 1787 082e 60       		.byte	0x60
 1788 082f D1070000 		.4byte	0x7d1
 1789 0833 10       		.byte	0x10
 1790 0834 07       		.uleb128 0x7
 1791 0835 DB0A0000 		.4byte	.LASF129
 1792 0839 0E       		.byte	0xe
 1793 083a 61       		.byte	0x61
 1794 083b D1070000 		.4byte	0x7d1
 1795 083f 14       		.byte	0x14
 1796 0840 07       		.uleb128 0x7
 1797 0841 99050000 		.4byte	.LASF130
 1798 0845 0E       		.byte	0xe
 1799 0846 62       		.byte	0x62
 1800 0847 D1070000 		.4byte	0x7d1
 1801 084b 18       		.byte	0x18
 1802 084c 07       		.uleb128 0x7
 1803 084d C3010000 		.4byte	.LASF131
 1804 0851 0E       		.byte	0xe
 1805 0852 63       		.byte	0x63
 1806 0853 D1070000 		.4byte	0x7d1
 1807 0857 1C       		.byte	0x1c
 1808 0858 07       		.uleb128 0x7
 1809 0859 29070000 		.4byte	.LASF132
 1810 085d 0E       		.byte	0xe
 1811 085e 64       		.byte	0x64
 1812 085f D1070000 		.4byte	0x7d1
 1813 0863 20       		.byte	0x20
 1814 0864 07       		.uleb128 0x7
 1815 0865 02040000 		.4byte	.LASF133
 1816 0869 0E       		.byte	0xe
 1817 086a 65       		.byte	0x65
 1818 086b D1070000 		.4byte	0x7d1
 1819 086f 24       		.byte	0x24
 1820 0870 07       		.uleb128 0x7
ARM GAS  C:\Users\IDONNO~1\AppData\Local\Temp\ccKMQqwp.s 			page 33


 1821 0871 440C0000 		.4byte	.LASF134
 1822 0875 0E       		.byte	0xe
 1823 0876 66       		.byte	0x66
 1824 0877 D1070000 		.4byte	0x7d1
 1825 087b 28       		.byte	0x28
 1826 087c 07       		.uleb128 0x7
 1827 087d 3A050000 		.4byte	.LASF135
 1828 0881 0E       		.byte	0xe
 1829 0882 67       		.byte	0x67
 1830 0883 D1070000 		.4byte	0x7d1
 1831 0887 2C       		.byte	0x2c
 1832 0888 07       		.uleb128 0x7
 1833 0889 4D080000 		.4byte	.LASF136
 1834 088d 0E       		.byte	0xe
 1835 088e 68       		.byte	0x68
 1836 088f 2D0A0000 		.4byte	0xa2d
 1837 0893 30       		.byte	0x30
 1838 0894 07       		.uleb128 0x7
 1839 0895 9E0C0000 		.4byte	.LASF137
 1840 0899 0E       		.byte	0xe
 1841 089a 69       		.byte	0x69
 1842 089b 2D0A0000 		.4byte	0xa2d
 1843 089f 31       		.byte	0x31
 1844 08a0 07       		.uleb128 0x7
 1845 08a1 460D0000 		.4byte	.LASF138
 1846 08a5 0E       		.byte	0xe
 1847 08a6 6A       		.byte	0x6a
 1848 08a7 D1070000 		.4byte	0x7d1
 1849 08ab 34       		.byte	0x34
 1850 08ac 07       		.uleb128 0x7
 1851 08ad 35000000 		.4byte	.LASF139
 1852 08b1 0E       		.byte	0xe
 1853 08b2 6B       		.byte	0x6b
 1854 08b3 D1070000 		.4byte	0x7d1
 1855 08b7 38       		.byte	0x38
 1856 08b8 07       		.uleb128 0x7
 1857 08b9 1B060000 		.4byte	.LASF140
 1858 08bd 0E       		.byte	0xe
 1859 08be 6C       		.byte	0x6c
 1860 08bf D1070000 		.4byte	0x7d1
 1861 08c3 3C       		.byte	0x3c
 1862 08c4 07       		.uleb128 0x7
 1863 08c5 E80B0000 		.4byte	.LASF141
 1864 08c9 0E       		.byte	0xe
 1865 08ca 6D       		.byte	0x6d
 1866 08cb D1070000 		.4byte	0x7d1
 1867 08cf 40       		.byte	0x40
 1868 08d0 07       		.uleb128 0x7
 1869 08d1 7F090000 		.4byte	.LASF142
 1870 08d5 0E       		.byte	0xe
 1871 08d6 6E       		.byte	0x6e
 1872 08d7 D1070000 		.4byte	0x7d1
 1873 08db 44       		.byte	0x44
 1874 08dc 07       		.uleb128 0x7
 1875 08dd E5040000 		.4byte	.LASF143
 1876 08e1 0E       		.byte	0xe
 1877 08e2 6F       		.byte	0x6f
ARM GAS  C:\Users\IDONNO~1\AppData\Local\Temp\ccKMQqwp.s 			page 34


 1878 08e3 D1070000 		.4byte	0x7d1
 1879 08e7 48       		.byte	0x48
 1880 08e8 07       		.uleb128 0x7
 1881 08e9 E3090000 		.4byte	.LASF144
 1882 08ed 0E       		.byte	0xe
 1883 08ee 71       		.byte	0x71
 1884 08ef D1070000 		.4byte	0x7d1
 1885 08f3 4C       		.byte	0x4c
 1886 08f4 07       		.uleb128 0x7
 1887 08f5 F50D0000 		.4byte	.LASF145
 1888 08f9 0E       		.byte	0xe
 1889 08fa 72       		.byte	0x72
 1890 08fb D1070000 		.4byte	0x7d1
 1891 08ff 50       		.byte	0x50
 1892 0900 07       		.uleb128 0x7
 1893 0901 040C0000 		.4byte	.LASF146
 1894 0905 0E       		.byte	0xe
 1895 0906 73       		.byte	0x73
 1896 0907 D1070000 		.4byte	0x7d1
 1897 090b 54       		.byte	0x54
 1898 090c 07       		.uleb128 0x7
 1899 090d 7C040000 		.4byte	.LASF147
 1900 0911 0E       		.byte	0xe
 1901 0912 74       		.byte	0x74
 1902 0913 D1070000 		.4byte	0x7d1
 1903 0917 58       		.byte	0x58
 1904 0918 07       		.uleb128 0x7
 1905 0919 07030000 		.4byte	.LASF148
 1906 091d 0E       		.byte	0xe
 1907 091e 76       		.byte	0x76
 1908 091f 2D0A0000 		.4byte	0xa2d
 1909 0923 5C       		.byte	0x5c
 1910 0924 07       		.uleb128 0x7
 1911 0925 2A0A0000 		.4byte	.LASF149
 1912 0929 0E       		.byte	0xe
 1913 092a 77       		.byte	0x77
 1914 092b D1070000 		.4byte	0x7d1
 1915 092f 60       		.byte	0x60
 1916 0930 07       		.uleb128 0x7
 1917 0931 3B070000 		.4byte	.LASF150
 1918 0935 0E       		.byte	0xe
 1919 0936 78       		.byte	0x78
 1920 0937 D1070000 		.4byte	0x7d1
 1921 093b 64       		.byte	0x64
 1922 093c 07       		.uleb128 0x7
 1923 093d 2C0B0000 		.4byte	.LASF151
 1924 0941 0E       		.byte	0xe
 1925 0942 79       		.byte	0x79
 1926 0943 D1070000 		.4byte	0x7d1
 1927 0947 68       		.byte	0x68
 1928 0948 07       		.uleb128 0x7
 1929 0949 0E0D0000 		.4byte	.LASF152
 1930 094d 0E       		.byte	0xe
 1931 094e 7A       		.byte	0x7a
 1932 094f D1070000 		.4byte	0x7d1
 1933 0953 6C       		.byte	0x6c
 1934 0954 07       		.uleb128 0x7
ARM GAS  C:\Users\IDONNO~1\AppData\Local\Temp\ccKMQqwp.s 			page 35


 1935 0955 7B070000 		.4byte	.LASF153
 1936 0959 0E       		.byte	0xe
 1937 095a 7B       		.byte	0x7b
 1938 095b D1070000 		.4byte	0x7d1
 1939 095f 70       		.byte	0x70
 1940 0960 07       		.uleb128 0x7
 1941 0961 A50B0000 		.4byte	.LASF154
 1942 0965 0E       		.byte	0xe
 1943 0966 7C       		.byte	0x7c
 1944 0967 D1070000 		.4byte	0x7d1
 1945 096b 74       		.byte	0x74
 1946 096c 07       		.uleb128 0x7
 1947 096d 15020000 		.4byte	.LASF155
 1948 0971 0E       		.byte	0xe
 1949 0972 7D       		.byte	0x7d
 1950 0973 D1070000 		.4byte	0x7d1
 1951 0977 78       		.byte	0x78
 1952 0978 07       		.uleb128 0x7
 1953 0979 D20F0000 		.4byte	.LASF156
 1954 097d 0E       		.byte	0xe
 1955 097e 7F       		.byte	0x7f
 1956 097f AD000000 		.4byte	0xad
 1957 0983 7C       		.byte	0x7c
 1958 0984 07       		.uleb128 0x7
 1959 0985 92030000 		.4byte	.LASF157
 1960 0989 0E       		.byte	0xe
 1961 098a 80       		.byte	0x80
 1962 098b AD000000 		.4byte	0xad
 1963 098f 7D       		.byte	0x7d
 1964 0990 07       		.uleb128 0x7
 1965 0991 21000000 		.4byte	.LASF158
 1966 0995 0E       		.byte	0xe
 1967 0996 81       		.byte	0x81
 1968 0997 AD000000 		.4byte	0xad
 1969 099b 7E       		.byte	0x7e
 1970 099c 07       		.uleb128 0x7
 1971 099d BB0F0000 		.4byte	.LASF159
 1972 09a1 0E       		.byte	0xe
 1973 09a2 83       		.byte	0x83
 1974 09a3 D1070000 		.4byte	0x7d1
 1975 09a7 80       		.byte	0x80
 1976 09a8 07       		.uleb128 0x7
 1977 09a9 B20F0000 		.4byte	.LASF160
 1978 09ad 0E       		.byte	0xe
 1979 09ae 84       		.byte	0x84
 1980 09af D1070000 		.4byte	0x7d1
 1981 09b3 84       		.byte	0x84
 1982 09b4 07       		.uleb128 0x7
 1983 09b5 A90F0000 		.4byte	.LASF161
 1984 09b9 0E       		.byte	0xe
 1985 09ba 85       		.byte	0x85
 1986 09bb D1070000 		.4byte	0x7d1
 1987 09bf 88       		.byte	0x88
 1988 09c0 07       		.uleb128 0x7
 1989 09c1 970B0000 		.4byte	.LASF162
 1990 09c5 0E       		.byte	0xe
 1991 09c6 86       		.byte	0x86
ARM GAS  C:\Users\IDONNO~1\AppData\Local\Temp\ccKMQqwp.s 			page 36


 1992 09c7 D1070000 		.4byte	0x7d1
 1993 09cb 8C       		.byte	0x8c
 1994 09cc 07       		.uleb128 0x7
 1995 09cd 18000000 		.4byte	.LASF163
 1996 09d1 0E       		.byte	0xe
 1997 09d2 88       		.byte	0x88
 1998 09d3 D1070000 		.4byte	0x7d1
 1999 09d7 90       		.byte	0x90
 2000 09d8 07       		.uleb128 0x7
 2001 09d9 10010000 		.4byte	.LASF164
 2002 09dd 0E       		.byte	0xe
 2003 09de 89       		.byte	0x89
 2004 09df D1070000 		.4byte	0x7d1
 2005 09e3 94       		.byte	0x94
 2006 09e4 07       		.uleb128 0x7
 2007 09e5 DB0F0000 		.4byte	.LASF165
 2008 09e9 0E       		.byte	0xe
 2009 09ea 8A       		.byte	0x8a
 2010 09eb D1070000 		.4byte	0x7d1
 2011 09ef 98       		.byte	0x98
 2012 09f0 07       		.uleb128 0x7
 2013 09f1 E40F0000 		.4byte	.LASF166
 2014 09f5 0E       		.byte	0xe
 2015 09f6 8C       		.byte	0x8c
 2016 09f7 D1070000 		.4byte	0x7d1
 2017 09fb 9C       		.byte	0x9c
 2018 09fc 07       		.uleb128 0x7
 2019 09fd C2030000 		.4byte	.LASF167
 2020 0a01 0E       		.byte	0xe
 2021 0a02 8D       		.byte	0x8d
 2022 0a03 D1070000 		.4byte	0x7d1
 2023 0a07 A0       		.byte	0xa0
 2024 0a08 07       		.uleb128 0x7
 2025 0a09 370C0000 		.4byte	.LASF168
 2026 0a0d 0E       		.byte	0xe
 2027 0a0e 8E       		.byte	0x8e
 2028 0a0f D1070000 		.4byte	0x7d1
 2029 0a13 A4       		.byte	0xa4
 2030 0a14 07       		.uleb128 0x7
 2031 0a15 750D0000 		.4byte	.LASF169
 2032 0a19 0E       		.byte	0xe
 2033 0a1a 8F       		.byte	0x8f
 2034 0a1b D1070000 		.4byte	0x7d1
 2035 0a1f A8       		.byte	0xa8
 2036 0a20 07       		.uleb128 0x7
 2037 0a21 C5090000 		.4byte	.LASF170
 2038 0a25 0E       		.byte	0xe
 2039 0a26 91       		.byte	0x91
 2040 0a27 CE000000 		.4byte	0xce
 2041 0a2b AC       		.byte	0xac
 2042 0a2c 00       		.byte	0
 2043 0a2d 03       		.uleb128 0x3
 2044 0a2e 01       		.byte	0x1
 2045 0a2f 02       		.byte	0x2
 2046 0a30 FC030000 		.4byte	.LASF171
 2047 0a34 02       		.uleb128 0x2
 2048 0a35 210D0000 		.4byte	.LASF172
ARM GAS  C:\Users\IDONNO~1\AppData\Local\Temp\ccKMQqwp.s 			page 37


 2049 0a39 0E       		.byte	0xe
 2050 0a3a 92       		.byte	0x92
 2051 0a3b D8070000 		.4byte	0x7d8
 2052 0a3f 10       		.uleb128 0x10
 2053 0a40 01       		.byte	0x1
 2054 0a41 42000000 		.4byte	0x42
 2055 0a45 0E       		.byte	0xe
 2056 0a46 95       		.byte	0x95
 2057 0a47 820A0000 		.4byte	0xa82
 2058 0a4b 11       		.uleb128 0x11
 2059 0a4c 64060000 		.4byte	.LASF173
 2060 0a50 00       		.byte	0
 2061 0a51 11       		.uleb128 0x11
 2062 0a52 9A000000 		.4byte	.LASF174
 2063 0a56 01       		.byte	0x1
 2064 0a57 11       		.uleb128 0x11
 2065 0a58 62090000 		.4byte	.LASF175
 2066 0a5c 02       		.byte	0x2
 2067 0a5d 11       		.uleb128 0x11
 2068 0a5e 46040000 		.4byte	.LASF176
 2069 0a62 03       		.byte	0x3
 2070 0a63 11       		.uleb128 0x11
 2071 0a64 E50C0000 		.4byte	.LASF177
 2072 0a68 04       		.byte	0x4
 2073 0a69 11       		.uleb128 0x11
 2074 0a6a 490E0000 		.4byte	.LASF178
 2075 0a6e 05       		.byte	0x5
 2076 0a6f 11       		.uleb128 0x11
 2077 0a70 860D0000 		.4byte	.LASF179
 2078 0a74 06       		.byte	0x6
 2079 0a75 11       		.uleb128 0x11
 2080 0a76 930A0000 		.4byte	.LASF180
 2081 0a7a 07       		.byte	0x7
 2082 0a7b 11       		.uleb128 0x11
 2083 0a7c 84020000 		.4byte	.LASF181
 2084 0a80 08       		.byte	0x8
 2085 0a81 00       		.byte	0
 2086 0a82 02       		.uleb128 0x2
 2087 0a83 92010000 		.4byte	.LASF182
 2088 0a87 0E       		.byte	0xe
 2089 0a88 9F       		.byte	0x9f
 2090 0a89 3F0A0000 		.4byte	0xa3f
 2091 0a8d 10       		.uleb128 0x10
 2092 0a8e 01       		.byte	0x1
 2093 0a8f 42000000 		.4byte	0x42
 2094 0a93 0E       		.byte	0xe
 2095 0a94 A2       		.byte	0xa2
 2096 0a95 CA0A0000 		.4byte	0xaca
 2097 0a99 11       		.uleb128 0x11
 2098 0a9a 7A010000 		.4byte	.LASF183
 2099 0a9e 00       		.byte	0
 2100 0a9f 11       		.uleb128 0x11
 2101 0aa0 3F0A0000 		.4byte	.LASF184
 2102 0aa4 01       		.byte	0x1
 2103 0aa5 11       		.uleb128 0x11
 2104 0aa6 F20C0000 		.4byte	.LASF185
 2105 0aaa 02       		.byte	0x2
ARM GAS  C:\Users\IDONNO~1\AppData\Local\Temp\ccKMQqwp.s 			page 38


 2106 0aab 11       		.uleb128 0x11
 2107 0aac 99040000 		.4byte	.LASF186
 2108 0ab0 03       		.byte	0x3
 2109 0ab1 11       		.uleb128 0x11
 2110 0ab2 C6020000 		.4byte	.LASF187
 2111 0ab6 04       		.byte	0x4
 2112 0ab7 11       		.uleb128 0x11
 2113 0ab8 0E050000 		.4byte	.LASF188
 2114 0abc 05       		.byte	0x5
 2115 0abd 11       		.uleb128 0x11
 2116 0abe 2F020000 		.4byte	.LASF189
 2117 0ac2 06       		.byte	0x6
 2118 0ac3 11       		.uleb128 0x11
 2119 0ac4 F0040000 		.4byte	.LASF190
 2120 0ac8 07       		.byte	0x7
 2121 0ac9 00       		.byte	0
 2122 0aca 02       		.uleb128 0x2
 2123 0acb 55050000 		.4byte	.LASF191
 2124 0acf 0E       		.byte	0xe
 2125 0ad0 AB       		.byte	0xab
 2126 0ad1 8D0A0000 		.4byte	0xa8d
 2127 0ad5 13       		.uleb128 0x13
 2128 0ad6 28       		.byte	0x28
 2129 0ad7 0E       		.byte	0xe
 2130 0ad8 AD       		.byte	0xad
 2131 0ad9 6D0B0000 		.4byte	0xb6d
 2132 0add 07       		.uleb128 0x7
 2133 0ade 82000000 		.4byte	.LASF192
 2134 0ae2 0E       		.byte	0xe
 2135 0ae3 AE       		.byte	0xae
 2136 0ae4 CA0A0000 		.4byte	0xaca
 2137 0ae8 00       		.byte	0
 2138 0ae9 07       		.uleb128 0x7
 2139 0aea B0090000 		.4byte	.LASF193
 2140 0aee 0E       		.byte	0xe
 2141 0aef AF       		.byte	0xaf
 2142 0af0 D1070000 		.4byte	0x7d1
 2143 0af4 04       		.byte	0x4
 2144 0af5 07       		.uleb128 0x7
 2145 0af6 3F0C0000 		.4byte	.LASF194
 2146 0afa 0E       		.byte	0xe
 2147 0afb B0       		.byte	0xb0
 2148 0afc D1070000 		.4byte	0x7d1
 2149 0b00 08       		.byte	0x8
 2150 0b01 07       		.uleb128 0x7
 2151 0b02 60080000 		.4byte	.LASF195
 2152 0b06 0E       		.byte	0xe
 2153 0b07 B1       		.byte	0xb1
 2154 0b08 D1070000 		.4byte	0x7d1
 2155 0b0c 0C       		.byte	0xc
 2156 0b0d 07       		.uleb128 0x7
 2157 0b0e A9080000 		.4byte	.LASF196
 2158 0b12 0E       		.byte	0xe
 2159 0b13 B2       		.byte	0xb2
 2160 0b14 D1070000 		.4byte	0x7d1
 2161 0b18 10       		.byte	0x10
 2162 0b19 07       		.uleb128 0x7
ARM GAS  C:\Users\IDONNO~1\AppData\Local\Temp\ccKMQqwp.s 			page 39


 2163 0b1a 57010000 		.4byte	.LASF197
 2164 0b1e 0E       		.byte	0xe
 2165 0b1f B3       		.byte	0xb3
 2166 0b20 2D0A0000 		.4byte	0xa2d
 2167 0b24 14       		.byte	0x14
 2168 0b25 07       		.uleb128 0x7
 2169 0b26 DA0C0000 		.4byte	.LASF198
 2170 0b2a 0E       		.byte	0xe
 2171 0b2b B4       		.byte	0xb4
 2172 0b2c 2D0A0000 		.4byte	0xa2d
 2173 0b30 15       		.byte	0x15
 2174 0b31 07       		.uleb128 0x7
 2175 0b32 040E0000 		.4byte	.LASF199
 2176 0b36 0E       		.byte	0xe
 2177 0b37 B5       		.byte	0xb5
 2178 0b38 D1070000 		.4byte	0x7d1
 2179 0b3c 18       		.byte	0x18
 2180 0b3d 07       		.uleb128 0x7
 2181 0b3e B3000000 		.4byte	.LASF200
 2182 0b42 0E       		.byte	0xe
 2183 0b43 B6       		.byte	0xb6
 2184 0b44 D1070000 		.4byte	0x7d1
 2185 0b48 1C       		.byte	0x1c
 2186 0b49 07       		.uleb128 0x7
 2187 0b4a 4B050000 		.4byte	.LASF201
 2188 0b4e 0E       		.byte	0xe
 2189 0b4f B7       		.byte	0xb7
 2190 0b50 2D0A0000 		.4byte	0xa2d
 2191 0b54 20       		.byte	0x20
 2192 0b55 12       		.uleb128 0x12
 2193 0b56 746300   		.ascii	"tc\000"
 2194 0b59 0E       		.byte	0xe
 2195 0b5a B8       		.byte	0xb8
 2196 0b5b 2D0A0000 		.4byte	0xa2d
 2197 0b5f 21       		.byte	0x21
 2198 0b60 07       		.uleb128 0x7
 2199 0b61 D9040000 		.4byte	.LASF202
 2200 0b65 0E       		.byte	0xe
 2201 0b66 B9       		.byte	0xb9
 2202 0b67 D1070000 		.4byte	0x7d1
 2203 0b6b 24       		.byte	0x24
 2204 0b6c 00       		.byte	0
 2205 0b6d 02       		.uleb128 0x2
 2206 0b6e 17040000 		.4byte	.LASF203
 2207 0b72 0E       		.byte	0xe
 2208 0b73 BA       		.byte	0xba
 2209 0b74 D50A0000 		.4byte	0xad5
 2210 0b78 10       		.uleb128 0x10
 2211 0b79 01       		.byte	0x1
 2212 0b7a 42000000 		.4byte	0x42
 2213 0b7e 0E       		.byte	0xe
 2214 0b7f BD       		.byte	0xbd
 2215 0b80 BB0B0000 		.4byte	0xbbb
 2216 0b84 11       		.uleb128 0x11
 2217 0b85 3A080000 		.4byte	.LASF204
 2218 0b89 00       		.byte	0
 2219 0b8a 11       		.uleb128 0x11
ARM GAS  C:\Users\IDONNO~1\AppData\Local\Temp\ccKMQqwp.s 			page 40


 2220 0b8b DF050000 		.4byte	.LASF205
 2221 0b8f 01       		.byte	0x1
 2222 0b90 11       		.uleb128 0x11
 2223 0b91 E8070000 		.4byte	.LASF206
 2224 0b95 02       		.byte	0x2
 2225 0b96 11       		.uleb128 0x11
 2226 0b97 B90B0000 		.4byte	.LASF207
 2227 0b9b 03       		.byte	0x3
 2228 0b9c 11       		.uleb128 0x11
 2229 0b9d 9A010000 		.4byte	.LASF208
 2230 0ba1 04       		.byte	0x4
 2231 0ba2 11       		.uleb128 0x11
 2232 0ba3 D0000000 		.4byte	.LASF209
 2233 0ba7 05       		.byte	0x5
 2234 0ba8 11       		.uleb128 0x11
 2235 0ba9 BB0D0000 		.4byte	.LASF210
 2236 0bad 06       		.byte	0x6
 2237 0bae 11       		.uleb128 0x11
 2238 0baf 550A0000 		.4byte	.LASF211
 2239 0bb3 07       		.byte	0x7
 2240 0bb4 11       		.uleb128 0x11
 2241 0bb5 D70D0000 		.4byte	.LASF212
 2242 0bb9 08       		.byte	0x8
 2243 0bba 00       		.byte	0
 2244 0bbb 02       		.uleb128 0x2
 2245 0bbc 580C0000 		.4byte	.LASF213
 2246 0bc0 0E       		.byte	0xe
 2247 0bc1 C7       		.byte	0xc7
 2248 0bc2 780B0000 		.4byte	0xb78
 2249 0bc6 13       		.uleb128 0x13
 2250 0bc7 28       		.byte	0x28
 2251 0bc8 0E       		.byte	0xe
 2252 0bc9 C9       		.byte	0xc9
 2253 0bca 760C0000 		.4byte	0xc76
 2254 0bce 07       		.uleb128 0x7
 2255 0bcf 82000000 		.4byte	.LASF192
 2256 0bd3 0E       		.byte	0xe
 2257 0bd4 CA       		.byte	0xca
 2258 0bd5 BB0B0000 		.4byte	0xbbb
 2259 0bd9 00       		.byte	0
 2260 0bda 07       		.uleb128 0x7
 2261 0bdb 3F0C0000 		.4byte	.LASF194
 2262 0bdf 0E       		.byte	0xe
 2263 0be0 CB       		.byte	0xcb
 2264 0be1 D1070000 		.4byte	0x7d1
 2265 0be5 04       		.byte	0x4
 2266 0be6 07       		.uleb128 0x7
 2267 0be7 A2090000 		.4byte	.LASF214
 2268 0beb 0E       		.byte	0xe
 2269 0bec CC       		.byte	0xcc
 2270 0bed D1070000 		.4byte	0x7d1
 2271 0bf1 08       		.byte	0x8
 2272 0bf2 07       		.uleb128 0x7
 2273 0bf3 A4050000 		.4byte	.LASF215
 2274 0bf7 0E       		.byte	0xe
 2275 0bf8 CD       		.byte	0xcd
 2276 0bf9 D1070000 		.4byte	0x7d1
ARM GAS  C:\Users\IDONNO~1\AppData\Local\Temp\ccKMQqwp.s 			page 41


 2277 0bfd 0C       		.byte	0xc
 2278 0bfe 07       		.uleb128 0x7
 2279 0bff 65010000 		.4byte	.LASF216
 2280 0c03 0E       		.byte	0xe
 2281 0c04 CE       		.byte	0xce
 2282 0c05 2D0A0000 		.4byte	0xa2d
 2283 0c09 10       		.byte	0x10
 2284 0c0a 07       		.uleb128 0x7
 2285 0c0b DA0C0000 		.4byte	.LASF198
 2286 0c0f 0E       		.byte	0xe
 2287 0c10 CF       		.byte	0xcf
 2288 0c11 2D0A0000 		.4byte	0xa2d
 2289 0c15 11       		.byte	0x11
 2290 0c16 07       		.uleb128 0x7
 2291 0c17 89080000 		.4byte	.LASF217
 2292 0c1b 0E       		.byte	0xe
 2293 0c1c D0       		.byte	0xd0
 2294 0c1d 2D0A0000 		.4byte	0xa2d
 2295 0c21 12       		.byte	0x12
 2296 0c22 07       		.uleb128 0x7
 2297 0c23 91090000 		.4byte	.LASF218
 2298 0c27 0E       		.byte	0xe
 2299 0c28 D1       		.byte	0xd1
 2300 0c29 2D0A0000 		.4byte	0xa2d
 2301 0c2d 13       		.byte	0x13
 2302 0c2e 07       		.uleb128 0x7
 2303 0c2f 040E0000 		.4byte	.LASF199
 2304 0c33 0E       		.byte	0xe
 2305 0c34 D2       		.byte	0xd2
 2306 0c35 D1070000 		.4byte	0x7d1
 2307 0c39 14       		.byte	0x14
 2308 0c3a 07       		.uleb128 0x7
 2309 0c3b B3000000 		.4byte	.LASF200
 2310 0c3f 0E       		.byte	0xe
 2311 0c40 D3       		.byte	0xd3
 2312 0c41 D1070000 		.4byte	0x7d1
 2313 0c45 18       		.byte	0x18
 2314 0c46 07       		.uleb128 0x7
 2315 0c47 4B050000 		.4byte	.LASF201
 2316 0c4b 0E       		.byte	0xe
 2317 0c4c D4       		.byte	0xd4
 2318 0c4d 2D0A0000 		.4byte	0xa2d
 2319 0c51 1C       		.byte	0x1c
 2320 0c52 12       		.uleb128 0x12
 2321 0c53 746300   		.ascii	"tc\000"
 2322 0c56 0E       		.byte	0xe
 2323 0c57 D5       		.byte	0xd5
 2324 0c58 2D0A0000 		.4byte	0xa2d
 2325 0c5c 1D       		.byte	0x1d
 2326 0c5d 07       		.uleb128 0x7
 2327 0c5e D9040000 		.4byte	.LASF202
 2328 0c62 0E       		.byte	0xe
 2329 0c63 D6       		.byte	0xd6
 2330 0c64 D1070000 		.4byte	0x7d1
 2331 0c68 20       		.byte	0x20
 2332 0c69 07       		.uleb128 0x7
 2333 0c6a 200E0000 		.4byte	.LASF219
ARM GAS  C:\Users\IDONNO~1\AppData\Local\Temp\ccKMQqwp.s 			page 42


 2334 0c6e 0E       		.byte	0xe
 2335 0c6f D7       		.byte	0xd7
 2336 0c70 D9000000 		.4byte	0xd9
 2337 0c74 24       		.byte	0x24
 2338 0c75 00       		.byte	0
 2339 0c76 02       		.uleb128 0x2
 2340 0c77 940F0000 		.4byte	.LASF220
 2341 0c7b 0E       		.byte	0xe
 2342 0c7c D8       		.byte	0xd8
 2343 0c7d C60B0000 		.4byte	0xbc6
 2344 0c81 10       		.uleb128 0x10
 2345 0c82 01       		.byte	0x1
 2346 0c83 42000000 		.4byte	0x42
 2347 0c87 0E       		.byte	0xe
 2348 0c88 DB       		.byte	0xdb
 2349 0c89 A00C0000 		.4byte	0xca0
 2350 0c8d 11       		.uleb128 0x11
 2351 0c8e 68040000 		.4byte	.LASF221
 2352 0c92 00       		.byte	0
 2353 0c93 11       		.uleb128 0x11
 2354 0c94 95060000 		.4byte	.LASF222
 2355 0c98 01       		.byte	0x1
 2356 0c99 11       		.uleb128 0x11
 2357 0c9a 44000000 		.4byte	.LASF223
 2358 0c9e 02       		.byte	0x2
 2359 0c9f 00       		.byte	0
 2360 0ca0 02       		.uleb128 0x2
 2361 0ca1 500B0000 		.4byte	.LASF224
 2362 0ca5 0E       		.byte	0xe
 2363 0ca6 DF       		.byte	0xdf
 2364 0ca7 810C0000 		.4byte	0xc81
 2365 0cab 13       		.uleb128 0x13
 2366 0cac 20       		.byte	0x20
 2367 0cad 0E       		.byte	0xe
 2368 0cae E1       		.byte	0xe1
 2369 0caf 1F0D0000 		.4byte	0xd1f
 2370 0cb3 07       		.uleb128 0x7
 2371 0cb4 82000000 		.4byte	.LASF192
 2372 0cb8 0E       		.byte	0xe
 2373 0cb9 E2       		.byte	0xe2
 2374 0cba A00C0000 		.4byte	0xca0
 2375 0cbe 00       		.byte	0
 2376 0cbf 07       		.uleb128 0x7
 2377 0cc0 3F0C0000 		.4byte	.LASF194
 2378 0cc4 0E       		.byte	0xe
 2379 0cc5 E3       		.byte	0xe3
 2380 0cc6 D1070000 		.4byte	0x7d1
 2381 0cca 04       		.byte	0x4
 2382 0ccb 07       		.uleb128 0x7
 2383 0ccc 040E0000 		.4byte	.LASF199
 2384 0cd0 0E       		.byte	0xe
 2385 0cd1 E4       		.byte	0xe4
 2386 0cd2 D1070000 		.4byte	0x7d1
 2387 0cd6 08       		.byte	0x8
 2388 0cd7 07       		.uleb128 0x7
 2389 0cd8 B3000000 		.4byte	.LASF200
 2390 0cdc 0E       		.byte	0xe
ARM GAS  C:\Users\IDONNO~1\AppData\Local\Temp\ccKMQqwp.s 			page 43


 2391 0cdd E5       		.byte	0xe5
 2392 0cde D1070000 		.4byte	0x7d1
 2393 0ce2 0C       		.byte	0xc
 2394 0ce3 07       		.uleb128 0x7
 2395 0ce4 1C0A0000 		.4byte	.LASF225
 2396 0ce8 0E       		.byte	0xe
 2397 0ce9 E6       		.byte	0xe6
 2398 0cea D1070000 		.4byte	0x7d1
 2399 0cee 10       		.byte	0x10
 2400 0cef 07       		.uleb128 0x7
 2401 0cf0 120E0000 		.4byte	.LASF226
 2402 0cf4 0E       		.byte	0xe
 2403 0cf5 E7       		.byte	0xe7
 2404 0cf6 D1070000 		.4byte	0x7d1
 2405 0cfa 14       		.byte	0x14
 2406 0cfb 07       		.uleb128 0x7
 2407 0cfc 4B050000 		.4byte	.LASF201
 2408 0d00 0E       		.byte	0xe
 2409 0d01 E8       		.byte	0xe8
 2410 0d02 2D0A0000 		.4byte	0xa2d
 2411 0d06 18       		.byte	0x18
 2412 0d07 12       		.uleb128 0x12
 2413 0d08 746300   		.ascii	"tc\000"
 2414 0d0b 0E       		.byte	0xe
 2415 0d0c E9       		.byte	0xe9
 2416 0d0d 2D0A0000 		.4byte	0xa2d
 2417 0d11 19       		.byte	0x19
 2418 0d12 07       		.uleb128 0x7
 2419 0d13 D9040000 		.4byte	.LASF202
 2420 0d17 0E       		.byte	0xe
 2421 0d18 EA       		.byte	0xea
 2422 0d19 D1070000 		.4byte	0x7d1
 2423 0d1d 1C       		.byte	0x1c
 2424 0d1e 00       		.byte	0
 2425 0d1f 02       		.uleb128 0x2
 2426 0d20 2E080000 		.4byte	.LASF227
 2427 0d24 0E       		.byte	0xe
 2428 0d25 EB       		.byte	0xeb
 2429 0d26 AB0C0000 		.4byte	0xcab
 2430 0d2a 13       		.uleb128 0x13
 2431 0d2b 8C       		.byte	0x8c
 2432 0d2c 0E       		.byte	0xe
 2433 0d2d ED       		.byte	0xed
 2434 0d2e AC0D0000 		.4byte	0xdac
 2435 0d32 07       		.uleb128 0x7
 2436 0d33 F5050000 		.4byte	.LASF228
 2437 0d37 0E       		.byte	0xe
 2438 0d38 EF       		.byte	0xef
 2439 0d39 B8000000 		.4byte	0xb8
 2440 0d3d 00       		.byte	0
 2441 0d3e 07       		.uleb128 0x7
 2442 0d3f 40060000 		.4byte	.LASF229
 2443 0d43 0E       		.byte	0xe
 2444 0d44 F0       		.byte	0xf0
 2445 0d45 D9000000 		.4byte	0xd9
 2446 0d49 04       		.byte	0x4
 2447 0d4a 07       		.uleb128 0x7
ARM GAS  C:\Users\IDONNO~1\AppData\Local\Temp\ccKMQqwp.s 			page 44


 2448 0d4b C3040000 		.4byte	.LASF230
 2449 0d4f 0E       		.byte	0xe
 2450 0d50 F1       		.byte	0xf1
 2451 0d51 D1070000 		.4byte	0x7d1
 2452 0d55 08       		.byte	0x8
 2453 0d56 07       		.uleb128 0x7
 2454 0d57 F7020000 		.4byte	.LASF231
 2455 0d5b 0E       		.byte	0xe
 2456 0d5c F2       		.byte	0xf2
 2457 0d5d 2D0A0000 		.4byte	0xa2d
 2458 0d61 0C       		.byte	0xc
 2459 0d62 07       		.uleb128 0x7
 2460 0d63 00000000 		.4byte	.LASF232
 2461 0d67 0E       		.byte	0xe
 2462 0d68 F3       		.byte	0xf3
 2463 0d69 D9000000 		.4byte	0xd9
 2464 0d6d 10       		.byte	0x10
 2465 0d6e 07       		.uleb128 0x7
 2466 0d6f B0050000 		.4byte	.LASF233
 2467 0d73 0E       		.byte	0xe
 2468 0d74 F6       		.byte	0xf6
 2469 0d75 820A0000 		.4byte	0xa82
 2470 0d79 14       		.byte	0x14
 2471 0d7a 07       		.uleb128 0x7
 2472 0d7b C60A0000 		.4byte	.LASF234
 2473 0d7f 0E       		.byte	0xe
 2474 0d80 F9       		.byte	0xf9
 2475 0d81 6D0B0000 		.4byte	0xb6d
 2476 0d85 18       		.byte	0x18
 2477 0d86 07       		.uleb128 0x7
 2478 0d87 DF060000 		.4byte	.LASF235
 2479 0d8b 0E       		.byte	0xe
 2480 0d8c FC       		.byte	0xfc
 2481 0d8d 760C0000 		.4byte	0xc76
 2482 0d91 40       		.byte	0x40
 2483 0d92 07       		.uleb128 0x7
 2484 0d93 E7080000 		.4byte	.LASF236
 2485 0d97 0E       		.byte	0xe
 2486 0d98 FF       		.byte	0xff
 2487 0d99 D9000000 		.4byte	0xd9
 2488 0d9d 68       		.byte	0x68
 2489 0d9e 09       		.uleb128 0x9
 2490 0d9f 38040000 		.4byte	.LASF237
 2491 0da3 0E       		.byte	0xe
 2492 0da4 0201     		.2byte	0x102
 2493 0da6 1F0D0000 		.4byte	0xd1f
 2494 0daa 6C       		.byte	0x6c
 2495 0dab 00       		.byte	0
 2496 0dac 19       		.uleb128 0x19
 2497 0dad E0030000 		.4byte	.LASF238
 2498 0db1 0E       		.byte	0xe
 2499 0db2 0301     		.2byte	0x103
 2500 0db4 2A0D0000 		.4byte	0xd2a
 2501 0db8 10       		.uleb128 0x10
 2502 0db9 01       		.byte	0x1
 2503 0dba 42000000 		.4byte	0x42
 2504 0dbe 0F       		.byte	0xf
ARM GAS  C:\Users\IDONNO~1\AppData\Local\Temp\ccKMQqwp.s 			page 45


 2505 0dbf 35       		.byte	0x35
 2506 0dc0 FB0D0000 		.4byte	0xdfb
 2507 0dc4 11       		.uleb128 0x11
 2508 0dc5 BB020000 		.4byte	.LASF239
 2509 0dc9 01       		.byte	0x1
 2510 0dca 11       		.uleb128 0x11
 2511 0dcb CE010000 		.4byte	.LASF240
 2512 0dcf 02       		.byte	0x2
 2513 0dd0 11       		.uleb128 0x11
 2514 0dd1 51030000 		.4byte	.LASF241
 2515 0dd5 03       		.byte	0x3
 2516 0dd6 11       		.uleb128 0x11
 2517 0dd7 BB080000 		.4byte	.LASF242
 2518 0ddb 04       		.byte	0x4
 2519 0ddc 11       		.uleb128 0x11
 2520 0ddd 18030000 		.4byte	.LASF243
 2521 0de1 05       		.byte	0x5
 2522 0de2 11       		.uleb128 0x11
 2523 0de3 08100000 		.4byte	.LASF244
 2524 0de7 06       		.byte	0x6
 2525 0de8 11       		.uleb128 0x11
 2526 0de9 320D0000 		.4byte	.LASF245
 2527 0ded 07       		.byte	0x7
 2528 0dee 11       		.uleb128 0x11
 2529 0def 41010000 		.4byte	.LASF246
 2530 0df3 08       		.byte	0x8
 2531 0df4 11       		.uleb128 0x11
 2532 0df5 53090000 		.4byte	.LASF247
 2533 0df9 09       		.byte	0x9
 2534 0dfa 00       		.byte	0
 2535 0dfb 1A       		.uleb128 0x1a
 2536 0dfc 6D060000 		.4byte	.LASF248
 2537 0e00 01       		.byte	0x1
 2538 0e01 71       		.byte	0x71
 2539 0e02 00000000 		.4byte	.LFB219
 2540 0e06 54000000 		.4byte	.LFE219-.LFB219
 2541 0e0a 01       		.uleb128 0x1
 2542 0e0b 9C       		.byte	0x9c
 2543 0e0c 9B0E0000 		.4byte	0xe9b
 2544 0e10 1B       		.uleb128 0x1b
 2545 0e11 696E6400 		.ascii	"ind\000"
 2546 0e15 01       		.byte	0x1
 2547 0e16 75       		.byte	0x75
 2548 0e17 9F000000 		.4byte	0x9f
 2549 0e1b 00000000 		.4byte	.LLST0
 2550 0e1f 1C       		.uleb128 0x1c
 2551 0e20 18000000 		.4byte	.LBB2
 2552 0e24 12000000 		.4byte	.LBE2-.LBB2
 2553 0e28 3A0E0000 		.4byte	0xe3a
 2554 0e2c 1B       		.uleb128 0x1b
 2555 0e2d 6900     		.ascii	"i\000"
 2556 0e2f 01       		.byte	0x1
 2557 0e30 76       		.byte	0x76
 2558 0e31 A6000000 		.4byte	0xa6
 2559 0e35 00000000 		.4byte	.LLST0
 2560 0e39 00       		.byte	0
 2561 0e3a 1C       		.uleb128 0x1c
ARM GAS  C:\Users\IDONNO~1\AppData\Local\Temp\ccKMQqwp.s 			page 46


 2562 0e3b 2A000000 		.4byte	.LBB3
 2563 0e3f 0C000000 		.4byte	.LBE3-.LBB3
 2564 0e43 510E0000 		.4byte	0xe51
 2565 0e47 1D       		.uleb128 0x1d
 2566 0e48 6900     		.ascii	"i\000"
 2567 0e4a 01       		.byte	0x1
 2568 0e4b 7A       		.byte	0x7a
 2569 0e4c A6000000 		.4byte	0xa6
 2570 0e50 00       		.byte	0
 2571 0e51 1E       		.uleb128 0x1e
 2572 0e52 0E000000 		.4byte	.LVL0
 2573 0e56 27120000 		.4byte	0x1227
 2574 0e5a 740E0000 		.4byte	0xe74
 2575 0e5e 1F       		.uleb128 0x1f
 2576 0e5f 01       		.uleb128 0x1
 2577 0e60 50       		.byte	0x50
 2578 0e61 05       		.uleb128 0x5
 2579 0e62 03       		.byte	0x3
 2580 0e63 00000000 		.4byte	.LANCHOR0
 2581 0e67 1F       		.uleb128 0x1f
 2582 0e68 01       		.uleb128 0x1
 2583 0e69 51       		.byte	0x51
 2584 0e6a 01       		.uleb128 0x1
 2585 0e6b 30       		.byte	0x30
 2586 0e6c 1F       		.uleb128 0x1f
 2587 0e6d 01       		.uleb128 0x1
 2588 0e6e 52       		.byte	0x52
 2589 0e6f 03       		.uleb128 0x3
 2590 0e70 0A       		.byte	0xa
 2591 0e71 4001     		.2byte	0x140
 2592 0e73 00       		.byte	0
 2593 0e74 20       		.uleb128 0x20
 2594 0e75 3A000000 		.4byte	.LVL3
 2595 0e79 30120000 		.4byte	0x1230
 2596 0e7d 1E       		.uleb128 0x1e
 2597 0e7e 40000000 		.4byte	.LVL4
 2598 0e82 3C120000 		.4byte	0x123c
 2599 0e86 910E0000 		.4byte	0xe91
 2600 0e8a 1F       		.uleb128 0x1f
 2601 0e8b 01       		.uleb128 0x1
 2602 0e8c 50       		.byte	0x50
 2603 0e8d 02       		.uleb128 0x2
 2604 0e8e 08       		.byte	0x8
 2605 0e8f F2       		.byte	0xf2
 2606 0e90 00       		.byte	0
 2607 0e91 21       		.uleb128 0x21
 2608 0e92 48000000 		.4byte	.LVL5
 2609 0e96 48120000 		.4byte	0x1248
 2610 0e9a 00       		.byte	0
 2611 0e9b 1A       		.uleb128 0x1a
 2612 0e9c 57070000 		.4byte	.LASF249
 2613 0ea0 01       		.byte	0x1
 2614 0ea1 8A       		.byte	0x8a
 2615 0ea2 00000000 		.4byte	.LFB220
 2616 0ea6 10010000 		.4byte	.LFE220-.LFB220
 2617 0eaa 01       		.uleb128 0x1
 2618 0eab 9C       		.byte	0x9c
ARM GAS  C:\Users\IDONNO~1\AppData\Local\Temp\ccKMQqwp.s 			page 47


 2619 0eac 380F0000 		.4byte	0xf38
 2620 0eb0 22       		.uleb128 0x22
 2621 0eb1 8D010000 		.4byte	.LASF252
 2622 0eb5 01       		.byte	0x1
 2623 0eb6 8A       		.byte	0x8a
 2624 0eb7 380F0000 		.4byte	0xf38
 2625 0ebb 14000000 		.4byte	.LLST2
 2626 0ebf 23       		.uleb128 0x23
 2627 0ec0 8C030000 		.4byte	.LASF250
 2628 0ec4 01       		.byte	0x1
 2629 0ec5 8B       		.byte	0x8b
 2630 0ec6 2D0A0000 		.4byte	0xa2d
 2631 0eca 40000000 		.4byte	.LLST3
 2632 0ece 23       		.uleb128 0x23
 2633 0ecf 70010000 		.4byte	.LASF251
 2634 0ed3 01       		.byte	0x1
 2635 0ed4 8C       		.byte	0x8c
 2636 0ed5 59070000 		.4byte	0x759
 2637 0ed9 60000000 		.4byte	.LLST4
 2638 0edd 24       		.uleb128 0x24
 2639 0ede 76617200 		.ascii	"var\000"
 2640 0ee2 01       		.byte	0x1
 2641 0ee3 8D       		.byte	0x8d
 2642 0ee4 C3000000 		.4byte	0xc3
 2643 0ee8 02       		.uleb128 0x2
 2644 0ee9 91       		.byte	0x91
 2645 0eea 66       		.sleb128 -26
 2646 0eeb 1C       		.uleb128 0x1c
 2647 0eec 0C000000 		.4byte	.LBB4
 2648 0ef0 2C000000 		.4byte	.LBE4-.LBB4
 2649 0ef4 1C0F0000 		.4byte	0xf1c
 2650 0ef8 1B       		.uleb128 0x1b
 2651 0ef9 6900     		.ascii	"i\000"
 2652 0efb 01       		.byte	0x1
 2653 0efc 8F       		.byte	0x8f
 2654 0efd A6000000 		.4byte	0xa6
 2655 0f01 8C000000 		.4byte	.LLST5
 2656 0f05 25       		.uleb128 0x25
 2657 0f06 30000000 		.4byte	.LVL9
 2658 0f0a 53120000 		.4byte	0x1253
 2659 0f0e 1F       		.uleb128 0x1f
 2660 0f0f 01       		.uleb128 0x1
 2661 0f10 50       		.byte	0x50
 2662 0f11 02       		.uleb128 0x2
 2663 0f12 74       		.byte	0x74
 2664 0f13 00       		.sleb128 0
 2665 0f14 1F       		.uleb128 0x1f
 2666 0f15 01       		.uleb128 0x1
 2667 0f16 51       		.byte	0x51
 2668 0f17 02       		.uleb128 0x2
 2669 0f18 91       		.byte	0x91
 2670 0f19 66       		.sleb128 -26
 2671 0f1a 00       		.byte	0
 2672 0f1b 00       		.byte	0
 2673 0f1c 25       		.uleb128 0x25
 2674 0f1d 46000000 		.4byte	.LVL11
 2675 0f21 27120000 		.4byte	0x1227
ARM GAS  C:\Users\IDONNO~1\AppData\Local\Temp\ccKMQqwp.s 			page 48


 2676 0f25 1F       		.uleb128 0x1f
 2677 0f26 01       		.uleb128 0x1
 2678 0f27 50       		.byte	0x50
 2679 0f28 02       		.uleb128 0x2
 2680 0f29 76       		.byte	0x76
 2681 0f2a 00       		.sleb128 0
 2682 0f2b 1F       		.uleb128 0x1f
 2683 0f2c 01       		.uleb128 0x1
 2684 0f2d 51       		.byte	0x51
 2685 0f2e 01       		.uleb128 0x1
 2686 0f2f 30       		.byte	0x30
 2687 0f30 1F       		.uleb128 0x1f
 2688 0f31 01       		.uleb128 0x1
 2689 0f32 52       		.byte	0x52
 2690 0f33 02       		.uleb128 0x2
 2691 0f34 08       		.byte	0x8
 2692 0f35 8C       		.byte	0x8c
 2693 0f36 00       		.byte	0
 2694 0f37 00       		.byte	0
 2695 0f38 0A       		.uleb128 0xa
 2696 0f39 04       		.byte	0x4
 2697 0f3a AC0D0000 		.4byte	0xdac
 2698 0f3e 26       		.uleb128 0x26
 2699 0f3f 66050000 		.4byte	.LASF254
 2700 0f43 01       		.byte	0x1
 2701 0f44 D6       		.byte	0xd6
 2702 0f45 2D0A0000 		.4byte	0xa2d
 2703 0f49 00000000 		.4byte	.LFB221
 2704 0f4d 5C000000 		.4byte	.LFE221-.LFB221
 2705 0f51 01       		.uleb128 0x1
 2706 0f52 9C       		.byte	0x9c
 2707 0f53 15100000 		.4byte	0x1015
 2708 0f57 22       		.uleb128 0x22
 2709 0f58 8D010000 		.4byte	.LASF252
 2710 0f5c 01       		.byte	0x1
 2711 0f5d D6       		.byte	0xd6
 2712 0f5e 380F0000 		.4byte	0xf38
 2713 0f62 A0000000 		.4byte	.LLST6
 2714 0f66 23       		.uleb128 0x23
 2715 0f67 8C030000 		.4byte	.LASF250
 2716 0f6b 01       		.byte	0x1
 2717 0f6c DC       		.byte	0xdc
 2718 0f6d 2D0A0000 		.4byte	0xa2d
 2719 0f71 D9000000 		.4byte	.LLST7
 2720 0f75 23       		.uleb128 0x23
 2721 0f76 70010000 		.4byte	.LASF251
 2722 0f7a 01       		.byte	0x1
 2723 0f7b DD       		.byte	0xdd
 2724 0f7c 59070000 		.4byte	0x759
 2725 0f80 04010000 		.4byte	.LLST8
 2726 0f84 1B       		.uleb128 0x1b
 2727 0f85 76617200 		.ascii	"var\000"
 2728 0f89 01       		.byte	0x1
 2729 0f8a DE       		.byte	0xde
 2730 0f8b C3000000 		.4byte	0xc3
 2731 0f8f 32010000 		.4byte	.LLST9
 2732 0f93 27       		.uleb128 0x27
ARM GAS  C:\Users\IDONNO~1\AppData\Local\Temp\ccKMQqwp.s 			page 49


 2733 0f94 00000000 		.4byte	.Ldebug_ranges0+0
 2734 0f98 BA0F0000 		.4byte	0xfba
 2735 0f9c 1B       		.uleb128 0x1b
 2736 0f9d 6900     		.ascii	"i\000"
 2737 0f9f 01       		.byte	0x1
 2738 0fa0 E3       		.byte	0xe3
 2739 0fa1 A6000000 		.4byte	0xa6
 2740 0fa5 6D010000 		.4byte	.LLST10
 2741 0fa9 25       		.uleb128 0x25
 2742 0faa 38000000 		.4byte	.LVL22
 2743 0fae 5E120000 		.4byte	0x125e
 2744 0fb2 1F       		.uleb128 0x1f
 2745 0fb3 01       		.uleb128 0x1
 2746 0fb4 50       		.byte	0x50
 2747 0fb5 02       		.uleb128 0x2
 2748 0fb6 74       		.byte	0x74
 2749 0fb7 00       		.sleb128 0
 2750 0fb8 00       		.byte	0
 2751 0fb9 00       		.byte	0
 2752 0fba 20       		.uleb128 0x20
 2753 0fbb 08000000 		.4byte	.LVL15
 2754 0fbf 69120000 		.4byte	0x1269
 2755 0fc3 1E       		.uleb128 0x1e
 2756 0fc4 12000000 		.4byte	.LVL16
 2757 0fc8 74120000 		.4byte	0x1274
 2758 0fcc DD0F0000 		.4byte	0xfdd
 2759 0fd0 1F       		.uleb128 0x1f
 2760 0fd1 01       		.uleb128 0x1
 2761 0fd2 50       		.byte	0x50
 2762 0fd3 03       		.uleb128 0x3
 2763 0fd4 0A       		.byte	0xa
 2764 0fd5 0008     		.2byte	0x800
 2765 0fd7 1F       		.uleb128 0x1f
 2766 0fd8 01       		.uleb128 0x1
 2767 0fd9 51       		.byte	0x51
 2768 0fda 01       		.uleb128 0x1
 2769 0fdb 30       		.byte	0x30
 2770 0fdc 00       		.byte	0
 2771 0fdd 1E       		.uleb128 0x1e
 2772 0fde 18000000 		.4byte	.LVL17
 2773 0fe2 3C120000 		.4byte	0x123c
 2774 0fe6 F10F0000 		.4byte	0xff1
 2775 0fea 1F       		.uleb128 0x1f
 2776 0feb 01       		.uleb128 0x1
 2777 0fec 50       		.byte	0x50
 2778 0fed 02       		.uleb128 0x2
 2779 0fee 08       		.byte	0x8
 2780 0fef F2       		.byte	0xf2
 2781 0ff0 00       		.byte	0
 2782 0ff1 1E       		.uleb128 0x1e
 2783 0ff2 50000000 		.4byte	.LVL24
 2784 0ff6 74120000 		.4byte	0x1274
 2785 0ffa 0B100000 		.4byte	0x100b
 2786 0ffe 1F       		.uleb128 0x1f
 2787 0fff 01       		.uleb128 0x1
 2788 1000 50       		.byte	0x50
 2789 1001 03       		.uleb128 0x3
ARM GAS  C:\Users\IDONNO~1\AppData\Local\Temp\ccKMQqwp.s 			page 50


 2790 1002 0A       		.byte	0xa
 2791 1003 0008     		.2byte	0x800
 2792 1005 1F       		.uleb128 0x1f
 2793 1006 01       		.uleb128 0x1
 2794 1007 51       		.byte	0x51
 2795 1008 01       		.uleb128 0x1
 2796 1009 31       		.byte	0x31
 2797 100a 00       		.byte	0
 2798 100b 20       		.uleb128 0x20
 2799 100c 54000000 		.4byte	.LVL25
 2800 1010 80120000 		.4byte	0x1280
 2801 1014 00       		.byte	0
 2802 1015 1A       		.uleb128 0x1a
 2803 1016 7B0C0000 		.4byte	.LASF253
 2804 101a 01       		.byte	0x1
 2805 101b F9       		.byte	0xf9
 2806 101c 00000000 		.4byte	.LFB222
 2807 1020 7C010000 		.4byte	.LFE222-.LFB222
 2808 1024 01       		.uleb128 0x1
 2809 1025 9C       		.byte	0x9c
 2810 1026 93100000 		.4byte	0x1093
 2811 102a 22       		.uleb128 0x22
 2812 102b 8D010000 		.4byte	.LASF252
 2813 102f 01       		.byte	0x1
 2814 1030 F9       		.byte	0xf9
 2815 1031 93100000 		.4byte	0x1093
 2816 1035 81010000 		.4byte	.LLST11
 2817 1039 23       		.uleb128 0x23
 2818 103a 8C030000 		.4byte	.LASF250
 2819 103e 01       		.byte	0x1
 2820 103f FA       		.byte	0xfa
 2821 1040 2D0A0000 		.4byte	0xa2d
 2822 1044 AD010000 		.4byte	.LLST12
 2823 1048 23       		.uleb128 0x23
 2824 1049 70010000 		.4byte	.LASF251
 2825 104d 01       		.byte	0x1
 2826 104e FB       		.byte	0xfb
 2827 104f 59070000 		.4byte	0x759
 2828 1053 CD010000 		.4byte	.LLST13
 2829 1057 24       		.uleb128 0x24
 2830 1058 76617200 		.ascii	"var\000"
 2831 105c 01       		.byte	0x1
 2832 105d FC       		.byte	0xfc
 2833 105e C3000000 		.4byte	0xc3
 2834 1062 02       		.uleb128 0x2
 2835 1063 91       		.byte	0x91
 2836 1064 66       		.sleb128 -26
 2837 1065 28       		.uleb128 0x28
 2838 1066 0E000000 		.4byte	.LBB7
 2839 106a 28000000 		.4byte	.LBE7-.LBB7
 2840 106e 1B       		.uleb128 0x1b
 2841 106f 6900     		.ascii	"i\000"
 2842 1071 01       		.byte	0x1
 2843 1072 FE       		.byte	0xfe
 2844 1073 A6000000 		.4byte	0xa6
 2845 1077 F9010000 		.4byte	.LLST14
 2846 107b 25       		.uleb128 0x25
ARM GAS  C:\Users\IDONNO~1\AppData\Local\Temp\ccKMQqwp.s 			page 51


 2847 107c 2E000000 		.4byte	.LVL30
 2848 1080 53120000 		.4byte	0x1253
 2849 1084 1F       		.uleb128 0x1f
 2850 1085 01       		.uleb128 0x1
 2851 1086 50       		.byte	0x50
 2852 1087 02       		.uleb128 0x2
 2853 1088 74       		.byte	0x74
 2854 1089 00       		.sleb128 0
 2855 108a 1F       		.uleb128 0x1f
 2856 108b 01       		.uleb128 0x1
 2857 108c 51       		.byte	0x51
 2858 108d 02       		.uleb128 0x2
 2859 108e 91       		.byte	0x91
 2860 108f 66       		.sleb128 -26
 2861 1090 00       		.byte	0
 2862 1091 00       		.byte	0
 2863 1092 00       		.byte	0
 2864 1093 0A       		.uleb128 0xa
 2865 1094 04       		.byte	0x4
 2866 1095 340A0000 		.4byte	0xa34
 2867 1099 29       		.uleb128 0x29
 2868 109a 41020000 		.4byte	.LASF255
 2869 109e 01       		.byte	0x1
 2870 109f 4B01     		.2byte	0x14b
 2871 10a1 2D0A0000 		.4byte	0xa2d
 2872 10a5 00000000 		.4byte	.LFB223
 2873 10a9 5A000000 		.4byte	.LFE223-.LFB223
 2874 10ad 01       		.uleb128 0x1
 2875 10ae 9C       		.byte	0x9c
 2876 10af 76110000 		.4byte	0x1176
 2877 10b3 2A       		.uleb128 0x2a
 2878 10b4 8D010000 		.4byte	.LASF252
 2879 10b8 01       		.byte	0x1
 2880 10b9 4B01     		.2byte	0x14b
 2881 10bb 93100000 		.4byte	0x1093
 2882 10bf 0D020000 		.4byte	.LLST15
 2883 10c3 2B       		.uleb128 0x2b
 2884 10c4 8C030000 		.4byte	.LASF250
 2885 10c8 01       		.byte	0x1
 2886 10c9 5101     		.2byte	0x151
 2887 10cb 2D0A0000 		.4byte	0xa2d
 2888 10cf 46020000 		.4byte	.LLST16
 2889 10d3 2B       		.uleb128 0x2b
 2890 10d4 70010000 		.4byte	.LASF251
 2891 10d8 01       		.byte	0x1
 2892 10d9 5201     		.2byte	0x152
 2893 10db 59070000 		.4byte	0x759
 2894 10df 71020000 		.4byte	.LLST17
 2895 10e3 2C       		.uleb128 0x2c
 2896 10e4 76617200 		.ascii	"var\000"
 2897 10e8 01       		.byte	0x1
 2898 10e9 5301     		.2byte	0x153
 2899 10eb C3000000 		.4byte	0xc3
 2900 10ef 9F020000 		.4byte	.LLST18
 2901 10f3 27       		.uleb128 0x27
 2902 10f4 18000000 		.4byte	.Ldebug_ranges0+0x18
 2903 10f8 1B110000 		.4byte	0x111b
ARM GAS  C:\Users\IDONNO~1\AppData\Local\Temp\ccKMQqwp.s 			page 52


 2904 10fc 2C       		.uleb128 0x2c
 2905 10fd 6900     		.ascii	"i\000"
 2906 10ff 01       		.byte	0x1
 2907 1100 5801     		.2byte	0x158
 2908 1102 A6000000 		.4byte	0xa6
 2909 1106 DA020000 		.4byte	.LLST19
 2910 110a 25       		.uleb128 0x25
 2911 110b 36000000 		.4byte	.LVL42
 2912 110f 5E120000 		.4byte	0x125e
 2913 1113 1F       		.uleb128 0x1f
 2914 1114 01       		.uleb128 0x1
 2915 1115 50       		.byte	0x50
 2916 1116 02       		.uleb128 0x2
 2917 1117 74       		.byte	0x74
 2918 1118 00       		.sleb128 0
 2919 1119 00       		.byte	0
 2920 111a 00       		.byte	0
 2921 111b 20       		.uleb128 0x20
 2922 111c 08000000 		.4byte	.LVL35
 2923 1120 69120000 		.4byte	0x1269
 2924 1124 1E       		.uleb128 0x1e
 2925 1125 12000000 		.4byte	.LVL36
 2926 1129 74120000 		.4byte	0x1274
 2927 112d 3E110000 		.4byte	0x113e
 2928 1131 1F       		.uleb128 0x1f
 2929 1132 01       		.uleb128 0x1
 2930 1133 50       		.byte	0x50
 2931 1134 03       		.uleb128 0x3
 2932 1135 0A       		.byte	0xa
 2933 1136 0008     		.2byte	0x800
 2934 1138 1F       		.uleb128 0x1f
 2935 1139 01       		.uleb128 0x1
 2936 113a 51       		.byte	0x51
 2937 113b 01       		.uleb128 0x1
 2938 113c 30       		.byte	0x30
 2939 113d 00       		.byte	0
 2940 113e 1E       		.uleb128 0x1e
 2941 113f 18000000 		.4byte	.LVL37
 2942 1143 3C120000 		.4byte	0x123c
 2943 1147 52110000 		.4byte	0x1152
 2944 114b 1F       		.uleb128 0x1f
 2945 114c 01       		.uleb128 0x1
 2946 114d 50       		.byte	0x50
 2947 114e 02       		.uleb128 0x2
 2948 114f 08       		.byte	0x8
 2949 1150 F2       		.byte	0xf2
 2950 1151 00       		.byte	0
 2951 1152 1E       		.uleb128 0x1e
 2952 1153 4E000000 		.4byte	.LVL44
 2953 1157 74120000 		.4byte	0x1274
 2954 115b 6C110000 		.4byte	0x116c
 2955 115f 1F       		.uleb128 0x1f
 2956 1160 01       		.uleb128 0x1
 2957 1161 50       		.byte	0x50
 2958 1162 03       		.uleb128 0x3
 2959 1163 0A       		.byte	0xa
 2960 1164 0008     		.2byte	0x800
ARM GAS  C:\Users\IDONNO~1\AppData\Local\Temp\ccKMQqwp.s 			page 53


 2961 1166 1F       		.uleb128 0x1f
 2962 1167 01       		.uleb128 0x1
 2963 1168 51       		.byte	0x51
 2964 1169 01       		.uleb128 0x1
 2965 116a 31       		.byte	0x31
 2966 116b 00       		.byte	0
 2967 116c 20       		.uleb128 0x20
 2968 116d 52000000 		.4byte	.LVL45
 2969 1171 80120000 		.4byte	0x1280
 2970 1175 00       		.byte	0
 2971 1176 29       		.uleb128 0x29
 2972 1177 F9080000 		.4byte	.LASF256
 2973 117b 01       		.byte	0x1
 2974 117c 6801     		.2byte	0x168
 2975 117e 2D0A0000 		.4byte	0xa2d
 2976 1182 00000000 		.4byte	.LFB224
 2977 1186 04000000 		.4byte	.LFE224-.LFB224
 2978 118a 01       		.uleb128 0x1
 2979 118b 9C       		.byte	0x9c
 2980 118c E9110000 		.4byte	0x11e9
 2981 1190 2D       		.uleb128 0x2d
 2982 1191 BB040000 		.4byte	.LASF257
 2983 1195 01       		.byte	0x1
 2984 1196 6801     		.2byte	0x168
 2985 1198 D1070000 		.4byte	0x7d1
 2986 119c 02       		.uleb128 0x2
 2987 119d 90       		.byte	0x90
 2988 119e 40       		.uleb128 0x40
 2989 119f 2D       		.uleb128 0x2d
 2990 11a0 BA060000 		.4byte	.LASF258
 2991 11a4 01       		.byte	0x1
 2992 11a5 6801     		.2byte	0x168
 2993 11a7 D1070000 		.4byte	0x7d1
 2994 11ab 02       		.uleb128 0x2
 2995 11ac 90       		.byte	0x90
 2996 11ad 41       		.uleb128 0x41
 2997 11ae 2D       		.uleb128 0x2d
 2998 11af 6C0D0000 		.4byte	.LASF259
 2999 11b3 01       		.byte	0x1
 3000 11b4 6801     		.2byte	0x168
 3001 11b6 D1070000 		.4byte	0x7d1
 3002 11ba 02       		.uleb128 0x2
 3003 11bb 90       		.byte	0x90
 3004 11bc 42       		.uleb128 0x42
 3005 11bd 2A       		.uleb128 0x2a
 3006 11be E9010000 		.4byte	.LASF260
 3007 11c2 01       		.byte	0x1
 3008 11c3 6901     		.2byte	0x169
 3009 11c5 E9110000 		.4byte	0x11e9
 3010 11c9 EE020000 		.4byte	.LLST20
 3011 11cd 2D       		.uleb128 0x2d
 3012 11ce 79080000 		.4byte	.LASF261
 3013 11d2 01       		.byte	0x1
 3014 11d3 6901     		.2byte	0x169
 3015 11d5 E9110000 		.4byte	0x11e9
 3016 11d9 01       		.uleb128 0x1
 3017 11da 51       		.byte	0x51
ARM GAS  C:\Users\IDONNO~1\AppData\Local\Temp\ccKMQqwp.s 			page 54


 3018 11db 2E       		.uleb128 0x2e
 3019 11dc B30C0000 		.4byte	.LASF262
 3020 11e0 01       		.byte	0x1
 3021 11e1 6B01     		.2byte	0x16b
 3022 11e3 9F000000 		.4byte	0x9f
 3023 11e7 00       		.byte	0
 3024 11e8 00       		.byte	0
 3025 11e9 0A       		.uleb128 0xa
 3026 11ea 04       		.byte	0x4
 3027 11eb D1070000 		.4byte	0x7d1
 3028 11ef 2F       		.uleb128 0x2f
 3029 11f0 6C080000 		.4byte	.LASF263
 3030 11f4 10       		.byte	0x10
 3031 11f5 A706     		.2byte	0x6a7
 3032 11f7 FA000000 		.4byte	0xfa
 3033 11fb 30       		.uleb128 0x30
 3034 11fc 636800   		.ascii	"ch\000"
 3035 11ff 07       		.byte	0x7
 3036 1200 0902     		.2byte	0x209
 3037 1202 34040000 		.4byte	0x434
 3038 1206 17       		.uleb128 0x17
 3039 1207 C3000000 		.4byte	0xc3
 3040 120b 16120000 		.4byte	0x1216
 3041 120f 18       		.uleb128 0x18
 3042 1210 9B040000 		.4byte	0x49b
 3043 1214 9F       		.byte	0x9f
 3044 1215 00       		.byte	0
 3045 1216 31       		.uleb128 0x31
 3046 1217 FA0F0000 		.4byte	.LASF264
 3047 121b 01       		.byte	0x1
 3048 121c 6F       		.byte	0x6f
 3049 121d 06120000 		.4byte	0x1206
 3050 1221 05       		.uleb128 0x5
 3051 1222 03       		.byte	0x3
 3052 1223 00000000 		.4byte	VirtAddVarTab
 3053 1227 32       		.uleb128 0x32
 3054 1228 770B0000 		.4byte	.LASF276
 3055 122c 770B0000 		.4byte	.LASF276
 3056 1230 33       		.uleb128 0x33
 3057 1231 09080000 		.4byte	.LASF265
 3058 1235 09080000 		.4byte	.LASF265
 3059 1239 0F       		.byte	0xf
 3060 123a B801     		.2byte	0x1b8
 3061 123c 33       		.uleb128 0x33
 3062 123d 16080000 		.4byte	.LASF266
 3063 1241 16080000 		.4byte	.LASF266
 3064 1245 0F       		.byte	0xf
 3065 1246 DB01     		.2byte	0x1db
 3066 1248 34       		.uleb128 0x34
 3067 1249 4B090000 		.4byte	.LASF267
 3068 124d 4B090000 		.4byte	.LASF267
 3069 1251 11       		.byte	0x11
 3070 1252 4D       		.byte	0x4d
 3071 1253 34       		.uleb128 0x34
 3072 1254 09070000 		.4byte	.LASF268
 3073 1258 09070000 		.4byte	.LASF268
 3074 125c 11       		.byte	0x11
ARM GAS  C:\Users\IDONNO~1\AppData\Local\Temp\ccKMQqwp.s 			page 55


 3075 125d 4E       		.byte	0x4e
 3076 125e 34       		.uleb128 0x34
 3077 125f 22040000 		.4byte	.LASF269
 3078 1263 22040000 		.4byte	.LASF269
 3079 1267 11       		.byte	0x11
 3080 1268 4F       		.byte	0x4f
 3081 1269 34       		.uleb128 0x34
 3082 126a C5070000 		.4byte	.LASF270
 3083 126e C5070000 		.4byte	.LASF270
 3084 1272 12       		.byte	0x12
 3085 1273 23       		.byte	0x23
 3086 1274 33       		.uleb128 0x33
 3087 1275 67030000 		.4byte	.LASF271
 3088 1279 67030000 		.4byte	.LASF271
 3089 127d 13       		.byte	0x13
 3090 127e 5B03     		.2byte	0x35b
 3091 1280 34       		.uleb128 0x34
 3092 1281 FC0A0000 		.4byte	.LASF272
 3093 1285 FC0A0000 		.4byte	.LASF272
 3094 1289 12       		.byte	0x12
 3095 128a 24       		.byte	0x24
 3096 128b 00       		.byte	0
 3097              		.section	.debug_abbrev,"",%progbits
 3098              	.Ldebug_abbrev0:
 3099 0000 01       		.uleb128 0x1
 3100 0001 11       		.uleb128 0x11
 3101 0002 01       		.byte	0x1
 3102 0003 25       		.uleb128 0x25
 3103 0004 0E       		.uleb128 0xe
 3104 0005 13       		.uleb128 0x13
 3105 0006 0B       		.uleb128 0xb
 3106 0007 03       		.uleb128 0x3
 3107 0008 0E       		.uleb128 0xe
 3108 0009 1B       		.uleb128 0x1b
 3109 000a 0E       		.uleb128 0xe
 3110 000b 55       		.uleb128 0x55
 3111 000c 17       		.uleb128 0x17
 3112 000d 11       		.uleb128 0x11
 3113 000e 01       		.uleb128 0x1
 3114 000f 10       		.uleb128 0x10
 3115 0010 17       		.uleb128 0x17
 3116 0011 00       		.byte	0
 3117 0012 00       		.byte	0
 3118 0013 02       		.uleb128 0x2
 3119 0014 16       		.uleb128 0x16
 3120 0015 00       		.byte	0
 3121 0016 03       		.uleb128 0x3
 3122 0017 0E       		.uleb128 0xe
 3123 0018 3A       		.uleb128 0x3a
 3124 0019 0B       		.uleb128 0xb
 3125 001a 3B       		.uleb128 0x3b
 3126 001b 0B       		.uleb128 0xb
 3127 001c 49       		.uleb128 0x49
 3128 001d 13       		.uleb128 0x13
 3129 001e 00       		.byte	0
 3130 001f 00       		.byte	0
 3131 0020 03       		.uleb128 0x3
ARM GAS  C:\Users\IDONNO~1\AppData\Local\Temp\ccKMQqwp.s 			page 56


 3132 0021 24       		.uleb128 0x24
 3133 0022 00       		.byte	0
 3134 0023 0B       		.uleb128 0xb
 3135 0024 0B       		.uleb128 0xb
 3136 0025 3E       		.uleb128 0x3e
 3137 0026 0B       		.uleb128 0xb
 3138 0027 03       		.uleb128 0x3
 3139 0028 0E       		.uleb128 0xe
 3140 0029 00       		.byte	0
 3141 002a 00       		.byte	0
 3142 002b 04       		.uleb128 0x4
 3143 002c 24       		.uleb128 0x24
 3144 002d 00       		.byte	0
 3145 002e 0B       		.uleb128 0xb
 3146 002f 0B       		.uleb128 0xb
 3147 0030 3E       		.uleb128 0x3e
 3148 0031 0B       		.uleb128 0xb
 3149 0032 03       		.uleb128 0x3
 3150 0033 08       		.uleb128 0x8
 3151 0034 00       		.byte	0
 3152 0035 00       		.byte	0
 3153 0036 05       		.uleb128 0x5
 3154 0037 35       		.uleb128 0x35
 3155 0038 00       		.byte	0
 3156 0039 49       		.uleb128 0x49
 3157 003a 13       		.uleb128 0x13
 3158 003b 00       		.byte	0
 3159 003c 00       		.byte	0
 3160 003d 06       		.uleb128 0x6
 3161 003e 13       		.uleb128 0x13
 3162 003f 01       		.byte	0x1
 3163 0040 03       		.uleb128 0x3
 3164 0041 0E       		.uleb128 0xe
 3165 0042 0B       		.uleb128 0xb
 3166 0043 0B       		.uleb128 0xb
 3167 0044 3A       		.uleb128 0x3a
 3168 0045 0B       		.uleb128 0xb
 3169 0046 3B       		.uleb128 0x3b
 3170 0047 0B       		.uleb128 0xb
 3171 0048 01       		.uleb128 0x1
 3172 0049 13       		.uleb128 0x13
 3173 004a 00       		.byte	0
 3174 004b 00       		.byte	0
 3175 004c 07       		.uleb128 0x7
 3176 004d 0D       		.uleb128 0xd
 3177 004e 00       		.byte	0
 3178 004f 03       		.uleb128 0x3
 3179 0050 0E       		.uleb128 0xe
 3180 0051 3A       		.uleb128 0x3a
 3181 0052 0B       		.uleb128 0xb
 3182 0053 3B       		.uleb128 0x3b
 3183 0054 0B       		.uleb128 0xb
 3184 0055 49       		.uleb128 0x49
 3185 0056 13       		.uleb128 0x13
 3186 0057 38       		.uleb128 0x38
 3187 0058 0B       		.uleb128 0xb
 3188 0059 00       		.byte	0
ARM GAS  C:\Users\IDONNO~1\AppData\Local\Temp\ccKMQqwp.s 			page 57


 3189 005a 00       		.byte	0
 3190 005b 08       		.uleb128 0x8
 3191 005c 0D       		.uleb128 0xd
 3192 005d 00       		.byte	0
 3193 005e 03       		.uleb128 0x3
 3194 005f 08       		.uleb128 0x8
 3195 0060 3A       		.uleb128 0x3a
 3196 0061 0B       		.uleb128 0xb
 3197 0062 3B       		.uleb128 0x3b
 3198 0063 05       		.uleb128 0x5
 3199 0064 49       		.uleb128 0x49
 3200 0065 13       		.uleb128 0x13
 3201 0066 38       		.uleb128 0x38
 3202 0067 0B       		.uleb128 0xb
 3203 0068 00       		.byte	0
 3204 0069 00       		.byte	0
 3205 006a 09       		.uleb128 0x9
 3206 006b 0D       		.uleb128 0xd
 3207 006c 00       		.byte	0
 3208 006d 03       		.uleb128 0x3
 3209 006e 0E       		.uleb128 0xe
 3210 006f 3A       		.uleb128 0x3a
 3211 0070 0B       		.uleb128 0xb
 3212 0071 3B       		.uleb128 0x3b
 3213 0072 05       		.uleb128 0x5
 3214 0073 49       		.uleb128 0x49
 3215 0074 13       		.uleb128 0x13
 3216 0075 38       		.uleb128 0x38
 3217 0076 0B       		.uleb128 0xb
 3218 0077 00       		.byte	0
 3219 0078 00       		.byte	0
 3220 0079 0A       		.uleb128 0xa
 3221 007a 0F       		.uleb128 0xf
 3222 007b 00       		.byte	0
 3223 007c 0B       		.uleb128 0xb
 3224 007d 0B       		.uleb128 0xb
 3225 007e 49       		.uleb128 0x49
 3226 007f 13       		.uleb128 0x13
 3227 0080 00       		.byte	0
 3228 0081 00       		.byte	0
 3229 0082 0B       		.uleb128 0xb
 3230 0083 13       		.uleb128 0x13
 3231 0084 01       		.byte	0x1
 3232 0085 03       		.uleb128 0x3
 3233 0086 0E       		.uleb128 0xe
 3234 0087 0B       		.uleb128 0xb
 3235 0088 0B       		.uleb128 0xb
 3236 0089 3A       		.uleb128 0x3a
 3237 008a 0B       		.uleb128 0xb
 3238 008b 3B       		.uleb128 0x3b
 3239 008c 05       		.uleb128 0x5
 3240 008d 01       		.uleb128 0x1
 3241 008e 13       		.uleb128 0x13
 3242 008f 00       		.byte	0
 3243 0090 00       		.byte	0
 3244 0091 0C       		.uleb128 0xc
 3245 0092 15       		.uleb128 0x15
ARM GAS  C:\Users\IDONNO~1\AppData\Local\Temp\ccKMQqwp.s 			page 58


 3246 0093 01       		.byte	0x1
 3247 0094 27       		.uleb128 0x27
 3248 0095 19       		.uleb128 0x19
 3249 0096 01       		.uleb128 0x1
 3250 0097 13       		.uleb128 0x13
 3251 0098 00       		.byte	0
 3252 0099 00       		.byte	0
 3253 009a 0D       		.uleb128 0xd
 3254 009b 05       		.uleb128 0x5
 3255 009c 00       		.byte	0
 3256 009d 49       		.uleb128 0x49
 3257 009e 13       		.uleb128 0x13
 3258 009f 00       		.byte	0
 3259 00a0 00       		.byte	0
 3260 00a1 0E       		.uleb128 0xe
 3261 00a2 0F       		.uleb128 0xf
 3262 00a3 00       		.byte	0
 3263 00a4 0B       		.uleb128 0xb
 3264 00a5 0B       		.uleb128 0xb
 3265 00a6 00       		.byte	0
 3266 00a7 00       		.byte	0
 3267 00a8 0F       		.uleb128 0xf
 3268 00a9 13       		.uleb128 0x13
 3269 00aa 01       		.byte	0x1
 3270 00ab 03       		.uleb128 0x3
 3271 00ac 0E       		.uleb128 0xe
 3272 00ad 0B       		.uleb128 0xb
 3273 00ae 05       		.uleb128 0x5
 3274 00af 3A       		.uleb128 0x3a
 3275 00b0 0B       		.uleb128 0xb
 3276 00b1 3B       		.uleb128 0x3b
 3277 00b2 05       		.uleb128 0x5
 3278 00b3 01       		.uleb128 0x1
 3279 00b4 13       		.uleb128 0x13
 3280 00b5 00       		.byte	0
 3281 00b6 00       		.byte	0
 3282 00b7 10       		.uleb128 0x10
 3283 00b8 04       		.uleb128 0x4
 3284 00b9 01       		.byte	0x1
 3285 00ba 0B       		.uleb128 0xb
 3286 00bb 0B       		.uleb128 0xb
 3287 00bc 49       		.uleb128 0x49
 3288 00bd 13       		.uleb128 0x13
 3289 00be 3A       		.uleb128 0x3a
 3290 00bf 0B       		.uleb128 0xb
 3291 00c0 3B       		.uleb128 0x3b
 3292 00c1 0B       		.uleb128 0xb
 3293 00c2 01       		.uleb128 0x1
 3294 00c3 13       		.uleb128 0x13
 3295 00c4 00       		.byte	0
 3296 00c5 00       		.byte	0
 3297 00c6 11       		.uleb128 0x11
 3298 00c7 28       		.uleb128 0x28
 3299 00c8 00       		.byte	0
 3300 00c9 03       		.uleb128 0x3
 3301 00ca 0E       		.uleb128 0xe
 3302 00cb 1C       		.uleb128 0x1c
ARM GAS  C:\Users\IDONNO~1\AppData\Local\Temp\ccKMQqwp.s 			page 59


 3303 00cc 0B       		.uleb128 0xb
 3304 00cd 00       		.byte	0
 3305 00ce 00       		.byte	0
 3306 00cf 12       		.uleb128 0x12
 3307 00d0 0D       		.uleb128 0xd
 3308 00d1 00       		.byte	0
 3309 00d2 03       		.uleb128 0x3
 3310 00d3 08       		.uleb128 0x8
 3311 00d4 3A       		.uleb128 0x3a
 3312 00d5 0B       		.uleb128 0xb
 3313 00d6 3B       		.uleb128 0x3b
 3314 00d7 0B       		.uleb128 0xb
 3315 00d8 49       		.uleb128 0x49
 3316 00d9 13       		.uleb128 0x13
 3317 00da 38       		.uleb128 0x38
 3318 00db 0B       		.uleb128 0xb
 3319 00dc 00       		.byte	0
 3320 00dd 00       		.byte	0
 3321 00de 13       		.uleb128 0x13
 3322 00df 13       		.uleb128 0x13
 3323 00e0 01       		.byte	0x1
 3324 00e1 0B       		.uleb128 0xb
 3325 00e2 0B       		.uleb128 0xb
 3326 00e3 3A       		.uleb128 0x3a
 3327 00e4 0B       		.uleb128 0xb
 3328 00e5 3B       		.uleb128 0x3b
 3329 00e6 0B       		.uleb128 0xb
 3330 00e7 01       		.uleb128 0x1
 3331 00e8 13       		.uleb128 0x13
 3332 00e9 00       		.byte	0
 3333 00ea 00       		.byte	0
 3334 00eb 14       		.uleb128 0x14
 3335 00ec 17       		.uleb128 0x17
 3336 00ed 01       		.byte	0x1
 3337 00ee 0B       		.uleb128 0xb
 3338 00ef 0B       		.uleb128 0xb
 3339 00f0 3A       		.uleb128 0x3a
 3340 00f1 0B       		.uleb128 0xb
 3341 00f2 3B       		.uleb128 0x3b
 3342 00f3 0B       		.uleb128 0xb
 3343 00f4 01       		.uleb128 0x1
 3344 00f5 13       		.uleb128 0x13
 3345 00f6 00       		.byte	0
 3346 00f7 00       		.byte	0
 3347 00f8 15       		.uleb128 0x15
 3348 00f9 0D       		.uleb128 0xd
 3349 00fa 00       		.byte	0
 3350 00fb 03       		.uleb128 0x3
 3351 00fc 0E       		.uleb128 0xe
 3352 00fd 3A       		.uleb128 0x3a
 3353 00fe 0B       		.uleb128 0xb
 3354 00ff 3B       		.uleb128 0x3b
 3355 0100 05       		.uleb128 0x5
 3356 0101 49       		.uleb128 0x49
 3357 0102 13       		.uleb128 0x13
 3358 0103 00       		.byte	0
 3359 0104 00       		.byte	0
ARM GAS  C:\Users\IDONNO~1\AppData\Local\Temp\ccKMQqwp.s 			page 60


 3360 0105 16       		.uleb128 0x16
 3361 0106 26       		.uleb128 0x26
 3362 0107 00       		.byte	0
 3363 0108 49       		.uleb128 0x49
 3364 0109 13       		.uleb128 0x13
 3365 010a 00       		.byte	0
 3366 010b 00       		.byte	0
 3367 010c 17       		.uleb128 0x17
 3368 010d 01       		.uleb128 0x1
 3369 010e 01       		.byte	0x1
 3370 010f 49       		.uleb128 0x49
 3371 0110 13       		.uleb128 0x13
 3372 0111 01       		.uleb128 0x1
 3373 0112 13       		.uleb128 0x13
 3374 0113 00       		.byte	0
 3375 0114 00       		.byte	0
 3376 0115 18       		.uleb128 0x18
 3377 0116 21       		.uleb128 0x21
 3378 0117 00       		.byte	0
 3379 0118 49       		.uleb128 0x49
 3380 0119 13       		.uleb128 0x13
 3381 011a 2F       		.uleb128 0x2f
 3382 011b 0B       		.uleb128 0xb
 3383 011c 00       		.byte	0
 3384 011d 00       		.byte	0
 3385 011e 19       		.uleb128 0x19
 3386 011f 16       		.uleb128 0x16
 3387 0120 00       		.byte	0
 3388 0121 03       		.uleb128 0x3
 3389 0122 0E       		.uleb128 0xe
 3390 0123 3A       		.uleb128 0x3a
 3391 0124 0B       		.uleb128 0xb
 3392 0125 3B       		.uleb128 0x3b
 3393 0126 05       		.uleb128 0x5
 3394 0127 49       		.uleb128 0x49
 3395 0128 13       		.uleb128 0x13
 3396 0129 00       		.byte	0
 3397 012a 00       		.byte	0
 3398 012b 1A       		.uleb128 0x1a
 3399 012c 2E       		.uleb128 0x2e
 3400 012d 01       		.byte	0x1
 3401 012e 3F       		.uleb128 0x3f
 3402 012f 19       		.uleb128 0x19
 3403 0130 03       		.uleb128 0x3
 3404 0131 0E       		.uleb128 0xe
 3405 0132 3A       		.uleb128 0x3a
 3406 0133 0B       		.uleb128 0xb
 3407 0134 3B       		.uleb128 0x3b
 3408 0135 0B       		.uleb128 0xb
 3409 0136 27       		.uleb128 0x27
 3410 0137 19       		.uleb128 0x19
 3411 0138 11       		.uleb128 0x11
 3412 0139 01       		.uleb128 0x1
 3413 013a 12       		.uleb128 0x12
 3414 013b 06       		.uleb128 0x6
 3415 013c 40       		.uleb128 0x40
 3416 013d 18       		.uleb128 0x18
ARM GAS  C:\Users\IDONNO~1\AppData\Local\Temp\ccKMQqwp.s 			page 61


 3417 013e 9742     		.uleb128 0x2117
 3418 0140 19       		.uleb128 0x19
 3419 0141 01       		.uleb128 0x1
 3420 0142 13       		.uleb128 0x13
 3421 0143 00       		.byte	0
 3422 0144 00       		.byte	0
 3423 0145 1B       		.uleb128 0x1b
 3424 0146 34       		.uleb128 0x34
 3425 0147 00       		.byte	0
 3426 0148 03       		.uleb128 0x3
 3427 0149 08       		.uleb128 0x8
 3428 014a 3A       		.uleb128 0x3a
 3429 014b 0B       		.uleb128 0xb
 3430 014c 3B       		.uleb128 0x3b
 3431 014d 0B       		.uleb128 0xb
 3432 014e 49       		.uleb128 0x49
 3433 014f 13       		.uleb128 0x13
 3434 0150 02       		.uleb128 0x2
 3435 0151 17       		.uleb128 0x17
 3436 0152 00       		.byte	0
 3437 0153 00       		.byte	0
 3438 0154 1C       		.uleb128 0x1c
 3439 0155 0B       		.uleb128 0xb
 3440 0156 01       		.byte	0x1
 3441 0157 11       		.uleb128 0x11
 3442 0158 01       		.uleb128 0x1
 3443 0159 12       		.uleb128 0x12
 3444 015a 06       		.uleb128 0x6
 3445 015b 01       		.uleb128 0x1
 3446 015c 13       		.uleb128 0x13
 3447 015d 00       		.byte	0
 3448 015e 00       		.byte	0
 3449 015f 1D       		.uleb128 0x1d
 3450 0160 34       		.uleb128 0x34
 3451 0161 00       		.byte	0
 3452 0162 03       		.uleb128 0x3
 3453 0163 08       		.uleb128 0x8
 3454 0164 3A       		.uleb128 0x3a
 3455 0165 0B       		.uleb128 0xb
 3456 0166 3B       		.uleb128 0x3b
 3457 0167 0B       		.uleb128 0xb
 3458 0168 49       		.uleb128 0x49
 3459 0169 13       		.uleb128 0x13
 3460 016a 00       		.byte	0
 3461 016b 00       		.byte	0
 3462 016c 1E       		.uleb128 0x1e
 3463 016d 898201   		.uleb128 0x4109
 3464 0170 01       		.byte	0x1
 3465 0171 11       		.uleb128 0x11
 3466 0172 01       		.uleb128 0x1
 3467 0173 31       		.uleb128 0x31
 3468 0174 13       		.uleb128 0x13
 3469 0175 01       		.uleb128 0x1
 3470 0176 13       		.uleb128 0x13
 3471 0177 00       		.byte	0
 3472 0178 00       		.byte	0
 3473 0179 1F       		.uleb128 0x1f
ARM GAS  C:\Users\IDONNO~1\AppData\Local\Temp\ccKMQqwp.s 			page 62


 3474 017a 8A8201   		.uleb128 0x410a
 3475 017d 00       		.byte	0
 3476 017e 02       		.uleb128 0x2
 3477 017f 18       		.uleb128 0x18
 3478 0180 9142     		.uleb128 0x2111
 3479 0182 18       		.uleb128 0x18
 3480 0183 00       		.byte	0
 3481 0184 00       		.byte	0
 3482 0185 20       		.uleb128 0x20
 3483 0186 898201   		.uleb128 0x4109
 3484 0189 00       		.byte	0
 3485 018a 11       		.uleb128 0x11
 3486 018b 01       		.uleb128 0x1
 3487 018c 31       		.uleb128 0x31
 3488 018d 13       		.uleb128 0x13
 3489 018e 00       		.byte	0
 3490 018f 00       		.byte	0
 3491 0190 21       		.uleb128 0x21
 3492 0191 898201   		.uleb128 0x4109
 3493 0194 00       		.byte	0
 3494 0195 11       		.uleb128 0x11
 3495 0196 01       		.uleb128 0x1
 3496 0197 9542     		.uleb128 0x2115
 3497 0199 19       		.uleb128 0x19
 3498 019a 31       		.uleb128 0x31
 3499 019b 13       		.uleb128 0x13
 3500 019c 00       		.byte	0
 3501 019d 00       		.byte	0
 3502 019e 22       		.uleb128 0x22
 3503 019f 05       		.uleb128 0x5
 3504 01a0 00       		.byte	0
 3505 01a1 03       		.uleb128 0x3
 3506 01a2 0E       		.uleb128 0xe
 3507 01a3 3A       		.uleb128 0x3a
 3508 01a4 0B       		.uleb128 0xb
 3509 01a5 3B       		.uleb128 0x3b
 3510 01a6 0B       		.uleb128 0xb
 3511 01a7 49       		.uleb128 0x49
 3512 01a8 13       		.uleb128 0x13
 3513 01a9 02       		.uleb128 0x2
 3514 01aa 17       		.uleb128 0x17
 3515 01ab 00       		.byte	0
 3516 01ac 00       		.byte	0
 3517 01ad 23       		.uleb128 0x23
 3518 01ae 34       		.uleb128 0x34
 3519 01af 00       		.byte	0
 3520 01b0 03       		.uleb128 0x3
 3521 01b1 0E       		.uleb128 0xe
 3522 01b2 3A       		.uleb128 0x3a
 3523 01b3 0B       		.uleb128 0xb
 3524 01b4 3B       		.uleb128 0x3b
 3525 01b5 0B       		.uleb128 0xb
 3526 01b6 49       		.uleb128 0x49
 3527 01b7 13       		.uleb128 0x13
 3528 01b8 02       		.uleb128 0x2
 3529 01b9 17       		.uleb128 0x17
 3530 01ba 00       		.byte	0
ARM GAS  C:\Users\IDONNO~1\AppData\Local\Temp\ccKMQqwp.s 			page 63


 3531 01bb 00       		.byte	0
 3532 01bc 24       		.uleb128 0x24
 3533 01bd 34       		.uleb128 0x34
 3534 01be 00       		.byte	0
 3535 01bf 03       		.uleb128 0x3
 3536 01c0 08       		.uleb128 0x8
 3537 01c1 3A       		.uleb128 0x3a
 3538 01c2 0B       		.uleb128 0xb
 3539 01c3 3B       		.uleb128 0x3b
 3540 01c4 0B       		.uleb128 0xb
 3541 01c5 49       		.uleb128 0x49
 3542 01c6 13       		.uleb128 0x13
 3543 01c7 02       		.uleb128 0x2
 3544 01c8 18       		.uleb128 0x18
 3545 01c9 00       		.byte	0
 3546 01ca 00       		.byte	0
 3547 01cb 25       		.uleb128 0x25
 3548 01cc 898201   		.uleb128 0x4109
 3549 01cf 01       		.byte	0x1
 3550 01d0 11       		.uleb128 0x11
 3551 01d1 01       		.uleb128 0x1
 3552 01d2 31       		.uleb128 0x31
 3553 01d3 13       		.uleb128 0x13
 3554 01d4 00       		.byte	0
 3555 01d5 00       		.byte	0
 3556 01d6 26       		.uleb128 0x26
 3557 01d7 2E       		.uleb128 0x2e
 3558 01d8 01       		.byte	0x1
 3559 01d9 3F       		.uleb128 0x3f
 3560 01da 19       		.uleb128 0x19
 3561 01db 03       		.uleb128 0x3
 3562 01dc 0E       		.uleb128 0xe
 3563 01dd 3A       		.uleb128 0x3a
 3564 01de 0B       		.uleb128 0xb
 3565 01df 3B       		.uleb128 0x3b
 3566 01e0 0B       		.uleb128 0xb
 3567 01e1 27       		.uleb128 0x27
 3568 01e2 19       		.uleb128 0x19
 3569 01e3 49       		.uleb128 0x49
 3570 01e4 13       		.uleb128 0x13
 3571 01e5 11       		.uleb128 0x11
 3572 01e6 01       		.uleb128 0x1
 3573 01e7 12       		.uleb128 0x12
 3574 01e8 06       		.uleb128 0x6
 3575 01e9 40       		.uleb128 0x40
 3576 01ea 18       		.uleb128 0x18
 3577 01eb 9742     		.uleb128 0x2117
 3578 01ed 19       		.uleb128 0x19
 3579 01ee 01       		.uleb128 0x1
 3580 01ef 13       		.uleb128 0x13
 3581 01f0 00       		.byte	0
 3582 01f1 00       		.byte	0
 3583 01f2 27       		.uleb128 0x27
 3584 01f3 0B       		.uleb128 0xb
 3585 01f4 01       		.byte	0x1
 3586 01f5 55       		.uleb128 0x55
 3587 01f6 17       		.uleb128 0x17
ARM GAS  C:\Users\IDONNO~1\AppData\Local\Temp\ccKMQqwp.s 			page 64


 3588 01f7 01       		.uleb128 0x1
 3589 01f8 13       		.uleb128 0x13
 3590 01f9 00       		.byte	0
 3591 01fa 00       		.byte	0
 3592 01fb 28       		.uleb128 0x28
 3593 01fc 0B       		.uleb128 0xb
 3594 01fd 01       		.byte	0x1
 3595 01fe 11       		.uleb128 0x11
 3596 01ff 01       		.uleb128 0x1
 3597 0200 12       		.uleb128 0x12
 3598 0201 06       		.uleb128 0x6
 3599 0202 00       		.byte	0
 3600 0203 00       		.byte	0
 3601 0204 29       		.uleb128 0x29
 3602 0205 2E       		.uleb128 0x2e
 3603 0206 01       		.byte	0x1
 3604 0207 3F       		.uleb128 0x3f
 3605 0208 19       		.uleb128 0x19
 3606 0209 03       		.uleb128 0x3
 3607 020a 0E       		.uleb128 0xe
 3608 020b 3A       		.uleb128 0x3a
 3609 020c 0B       		.uleb128 0xb
 3610 020d 3B       		.uleb128 0x3b
 3611 020e 05       		.uleb128 0x5
 3612 020f 27       		.uleb128 0x27
 3613 0210 19       		.uleb128 0x19
 3614 0211 49       		.uleb128 0x49
 3615 0212 13       		.uleb128 0x13
 3616 0213 11       		.uleb128 0x11
 3617 0214 01       		.uleb128 0x1
 3618 0215 12       		.uleb128 0x12
 3619 0216 06       		.uleb128 0x6
 3620 0217 40       		.uleb128 0x40
 3621 0218 18       		.uleb128 0x18
 3622 0219 9742     		.uleb128 0x2117
 3623 021b 19       		.uleb128 0x19
 3624 021c 01       		.uleb128 0x1
 3625 021d 13       		.uleb128 0x13
 3626 021e 00       		.byte	0
 3627 021f 00       		.byte	0
 3628 0220 2A       		.uleb128 0x2a
 3629 0221 05       		.uleb128 0x5
 3630 0222 00       		.byte	0
 3631 0223 03       		.uleb128 0x3
 3632 0224 0E       		.uleb128 0xe
 3633 0225 3A       		.uleb128 0x3a
 3634 0226 0B       		.uleb128 0xb
 3635 0227 3B       		.uleb128 0x3b
 3636 0228 05       		.uleb128 0x5
 3637 0229 49       		.uleb128 0x49
 3638 022a 13       		.uleb128 0x13
 3639 022b 02       		.uleb128 0x2
 3640 022c 17       		.uleb128 0x17
 3641 022d 00       		.byte	0
 3642 022e 00       		.byte	0
 3643 022f 2B       		.uleb128 0x2b
 3644 0230 34       		.uleb128 0x34
ARM GAS  C:\Users\IDONNO~1\AppData\Local\Temp\ccKMQqwp.s 			page 65


 3645 0231 00       		.byte	0
 3646 0232 03       		.uleb128 0x3
 3647 0233 0E       		.uleb128 0xe
 3648 0234 3A       		.uleb128 0x3a
 3649 0235 0B       		.uleb128 0xb
 3650 0236 3B       		.uleb128 0x3b
 3651 0237 05       		.uleb128 0x5
 3652 0238 49       		.uleb128 0x49
 3653 0239 13       		.uleb128 0x13
 3654 023a 02       		.uleb128 0x2
 3655 023b 17       		.uleb128 0x17
 3656 023c 00       		.byte	0
 3657 023d 00       		.byte	0
 3658 023e 2C       		.uleb128 0x2c
 3659 023f 34       		.uleb128 0x34
 3660 0240 00       		.byte	0
 3661 0241 03       		.uleb128 0x3
 3662 0242 08       		.uleb128 0x8
 3663 0243 3A       		.uleb128 0x3a
 3664 0244 0B       		.uleb128 0xb
 3665 0245 3B       		.uleb128 0x3b
 3666 0246 05       		.uleb128 0x5
 3667 0247 49       		.uleb128 0x49
 3668 0248 13       		.uleb128 0x13
 3669 0249 02       		.uleb128 0x2
 3670 024a 17       		.uleb128 0x17
 3671 024b 00       		.byte	0
 3672 024c 00       		.byte	0
 3673 024d 2D       		.uleb128 0x2d
 3674 024e 05       		.uleb128 0x5
 3675 024f 00       		.byte	0
 3676 0250 03       		.uleb128 0x3
 3677 0251 0E       		.uleb128 0xe
 3678 0252 3A       		.uleb128 0x3a
 3679 0253 0B       		.uleb128 0xb
 3680 0254 3B       		.uleb128 0x3b
 3681 0255 05       		.uleb128 0x5
 3682 0256 49       		.uleb128 0x49
 3683 0257 13       		.uleb128 0x13
 3684 0258 02       		.uleb128 0x2
 3685 0259 18       		.uleb128 0x18
 3686 025a 00       		.byte	0
 3687 025b 00       		.byte	0
 3688 025c 2E       		.uleb128 0x2e
 3689 025d 34       		.uleb128 0x34
 3690 025e 00       		.byte	0
 3691 025f 03       		.uleb128 0x3
 3692 0260 0E       		.uleb128 0xe
 3693 0261 3A       		.uleb128 0x3a
 3694 0262 0B       		.uleb128 0xb
 3695 0263 3B       		.uleb128 0x3b
 3696 0264 05       		.uleb128 0x5
 3697 0265 49       		.uleb128 0x49
 3698 0266 13       		.uleb128 0x13
 3699 0267 1C       		.uleb128 0x1c
 3700 0268 0B       		.uleb128 0xb
 3701 0269 00       		.byte	0
ARM GAS  C:\Users\IDONNO~1\AppData\Local\Temp\ccKMQqwp.s 			page 66


 3702 026a 00       		.byte	0
 3703 026b 2F       		.uleb128 0x2f
 3704 026c 34       		.uleb128 0x34
 3705 026d 00       		.byte	0
 3706 026e 03       		.uleb128 0x3
 3707 026f 0E       		.uleb128 0xe
 3708 0270 3A       		.uleb128 0x3a
 3709 0271 0B       		.uleb128 0xb
 3710 0272 3B       		.uleb128 0x3b
 3711 0273 05       		.uleb128 0x5
 3712 0274 49       		.uleb128 0x49
 3713 0275 13       		.uleb128 0x13
 3714 0276 3F       		.uleb128 0x3f
 3715 0277 19       		.uleb128 0x19
 3716 0278 3C       		.uleb128 0x3c
 3717 0279 19       		.uleb128 0x19
 3718 027a 00       		.byte	0
 3719 027b 00       		.byte	0
 3720 027c 30       		.uleb128 0x30
 3721 027d 34       		.uleb128 0x34
 3722 027e 00       		.byte	0
 3723 027f 03       		.uleb128 0x3
 3724 0280 08       		.uleb128 0x8
 3725 0281 3A       		.uleb128 0x3a
 3726 0282 0B       		.uleb128 0xb
 3727 0283 3B       		.uleb128 0x3b
 3728 0284 05       		.uleb128 0x5
 3729 0285 49       		.uleb128 0x49
 3730 0286 13       		.uleb128 0x13
 3731 0287 3F       		.uleb128 0x3f
 3732 0288 19       		.uleb128 0x19
 3733 0289 3C       		.uleb128 0x3c
 3734 028a 19       		.uleb128 0x19
 3735 028b 00       		.byte	0
 3736 028c 00       		.byte	0
 3737 028d 31       		.uleb128 0x31
 3738 028e 34       		.uleb128 0x34
 3739 028f 00       		.byte	0
 3740 0290 03       		.uleb128 0x3
 3741 0291 0E       		.uleb128 0xe
 3742 0292 3A       		.uleb128 0x3a
 3743 0293 0B       		.uleb128 0xb
 3744 0294 3B       		.uleb128 0x3b
 3745 0295 0B       		.uleb128 0xb
 3746 0296 49       		.uleb128 0x49
 3747 0297 13       		.uleb128 0x13
 3748 0298 3F       		.uleb128 0x3f
 3749 0299 19       		.uleb128 0x19
 3750 029a 02       		.uleb128 0x2
 3751 029b 18       		.uleb128 0x18
 3752 029c 00       		.byte	0
 3753 029d 00       		.byte	0
 3754 029e 32       		.uleb128 0x32
 3755 029f 2E       		.uleb128 0x2e
 3756 02a0 00       		.byte	0
 3757 02a1 3F       		.uleb128 0x3f
 3758 02a2 19       		.uleb128 0x19
ARM GAS  C:\Users\IDONNO~1\AppData\Local\Temp\ccKMQqwp.s 			page 67


 3759 02a3 3C       		.uleb128 0x3c
 3760 02a4 19       		.uleb128 0x19
 3761 02a5 6E       		.uleb128 0x6e
 3762 02a6 0E       		.uleb128 0xe
 3763 02a7 03       		.uleb128 0x3
 3764 02a8 0E       		.uleb128 0xe
 3765 02a9 00       		.byte	0
 3766 02aa 00       		.byte	0
 3767 02ab 33       		.uleb128 0x33
 3768 02ac 2E       		.uleb128 0x2e
 3769 02ad 00       		.byte	0
 3770 02ae 3F       		.uleb128 0x3f
 3771 02af 19       		.uleb128 0x19
 3772 02b0 3C       		.uleb128 0x3c
 3773 02b1 19       		.uleb128 0x19
 3774 02b2 6E       		.uleb128 0x6e
 3775 02b3 0E       		.uleb128 0xe
 3776 02b4 03       		.uleb128 0x3
 3777 02b5 0E       		.uleb128 0xe
 3778 02b6 3A       		.uleb128 0x3a
 3779 02b7 0B       		.uleb128 0xb
 3780 02b8 3B       		.uleb128 0x3b
 3781 02b9 05       		.uleb128 0x5
 3782 02ba 00       		.byte	0
 3783 02bb 00       		.byte	0
 3784 02bc 34       		.uleb128 0x34
 3785 02bd 2E       		.uleb128 0x2e
 3786 02be 00       		.byte	0
 3787 02bf 3F       		.uleb128 0x3f
 3788 02c0 19       		.uleb128 0x19
 3789 02c1 3C       		.uleb128 0x3c
 3790 02c2 19       		.uleb128 0x19
 3791 02c3 6E       		.uleb128 0x6e
 3792 02c4 0E       		.uleb128 0xe
 3793 02c5 03       		.uleb128 0x3
 3794 02c6 0E       		.uleb128 0xe
 3795 02c7 3A       		.uleb128 0x3a
 3796 02c8 0B       		.uleb128 0xb
 3797 02c9 3B       		.uleb128 0x3b
 3798 02ca 0B       		.uleb128 0xb
 3799 02cb 00       		.byte	0
 3800 02cc 00       		.byte	0
 3801 02cd 00       		.byte	0
 3802              		.section	.debug_loc,"",%progbits
 3803              	.Ldebug_loc0:
 3804              	.LLST0:
 3805 0000 0E000000 		.4byte	.LVL0
 3806 0004 18000000 		.4byte	.LVL1
 3807 0008 0200     		.2byte	0x2
 3808 000a 30       		.byte	0x30
 3809 000b 9F       		.byte	0x9f
 3810 000c 00000000 		.4byte	0
 3811 0010 00000000 		.4byte	0
 3812              	.LLST2:
 3813 0014 00000000 		.4byte	.LVL6
 3814 0018 12000000 		.4byte	.LVL8
 3815 001c 0100     		.2byte	0x1
ARM GAS  C:\Users\IDONNO~1\AppData\Local\Temp\ccKMQqwp.s 			page 68


 3816 001e 50       		.byte	0x50
 3817 001f 12000000 		.4byte	.LVL8
 3818 0023 EE000000 		.4byte	.LVL13
 3819 0027 0100     		.2byte	0x1
 3820 0029 56       		.byte	0x56
 3821 002a EE000000 		.4byte	.LVL13
 3822 002e 10010000 		.4byte	.LFE220
 3823 0032 0400     		.2byte	0x4
 3824 0034 F3       		.byte	0xf3
 3825 0035 01       		.uleb128 0x1
 3826 0036 50       		.byte	0x50
 3827 0037 9F       		.byte	0x9f
 3828 0038 00000000 		.4byte	0
 3829 003c 00000000 		.4byte	0
 3830              	.LLST3:
 3831 0040 00000000 		.4byte	.LVL6
 3832 0044 38000000 		.4byte	.LVL10
 3833 0048 0200     		.2byte	0x2
 3834 004a 31       		.byte	0x31
 3835 004b 9F       		.byte	0x9f
 3836 004c 38000000 		.4byte	.LVL10
 3837 0050 EA000000 		.4byte	.LVL12
 3838 0054 0200     		.2byte	0x2
 3839 0056 30       		.byte	0x30
 3840 0057 9F       		.byte	0x9f
 3841 0058 00000000 		.4byte	0
 3842 005c 00000000 		.4byte	0
 3843              	.LLST4:
 3844 0060 04000000 		.4byte	.LVL7
 3845 0064 12000000 		.4byte	.LVL8
 3846 0068 0100     		.2byte	0x1
 3847 006a 50       		.byte	0x50
 3848 006b 12000000 		.4byte	.LVL8
 3849 006f EE000000 		.4byte	.LVL13
 3850 0073 0100     		.2byte	0x1
 3851 0075 56       		.byte	0x56
 3852 0076 EE000000 		.4byte	.LVL13
 3853 007a 10010000 		.4byte	.LFE220
 3854 007e 0400     		.2byte	0x4
 3855 0080 F3       		.byte	0xf3
 3856 0081 01       		.uleb128 0x1
 3857 0082 50       		.byte	0x50
 3858 0083 9F       		.byte	0x9f
 3859 0084 00000000 		.4byte	0
 3860 0088 00000000 		.4byte	0
 3861              	.LLST5:
 3862 008c 04000000 		.4byte	.LVL7
 3863 0090 12000000 		.4byte	.LVL8
 3864 0094 0200     		.2byte	0x2
 3865 0096 30       		.byte	0x30
 3866 0097 9F       		.byte	0x9f
 3867 0098 00000000 		.4byte	0
 3868 009c 00000000 		.4byte	0
 3869              	.LLST6:
 3870 00a0 00000000 		.4byte	.LVL14
 3871 00a4 07000000 		.4byte	.LVL15-1
 3872 00a8 0100     		.2byte	0x1
ARM GAS  C:\Users\IDONNO~1\AppData\Local\Temp\ccKMQqwp.s 			page 69


 3873 00aa 50       		.byte	0x50
 3874 00ab 07000000 		.4byte	.LVL15-1
 3875 00af 1A000000 		.4byte	.LVL18
 3876 00b3 0100     		.2byte	0x1
 3877 00b5 55       		.byte	0x55
 3878 00b6 1A000000 		.4byte	.LVL18
 3879 00ba 24000000 		.4byte	.LVL19
 3880 00be 0300     		.2byte	0x3
 3881 00c0 75       		.byte	0x75
 3882 00c1 7F       		.sleb128 -1
 3883 00c2 9F       		.byte	0x9f
 3884 00c3 24000000 		.4byte	.LVL19
 3885 00c7 5C000000 		.4byte	.LFE221
 3886 00cb 0400     		.2byte	0x4
 3887 00cd F3       		.byte	0xf3
 3888 00ce 01       		.uleb128 0x1
 3889 00cf 50       		.byte	0x50
 3890 00d0 9F       		.byte	0x9f
 3891 00d1 00000000 		.4byte	0
 3892 00d5 00000000 		.4byte	0
 3893              	.LLST7:
 3894 00d9 12000000 		.4byte	.LVL16
 3895 00dd 46000000 		.4byte	.LVL23
 3896 00e1 0200     		.2byte	0x2
 3897 00e3 31       		.byte	0x31
 3898 00e4 9F       		.byte	0x9f
 3899 00e5 46000000 		.4byte	.LVL23
 3900 00e9 58000000 		.4byte	.LVL26
 3901 00ed 0100     		.2byte	0x1
 3902 00ef 54       		.byte	0x54
 3903 00f0 58000000 		.4byte	.LVL26
 3904 00f4 5C000000 		.4byte	.LFE221
 3905 00f8 0200     		.2byte	0x2
 3906 00fa 31       		.byte	0x31
 3907 00fb 9F       		.byte	0x9f
 3908 00fc 00000000 		.4byte	0
 3909 0100 00000000 		.4byte	0
 3910              	.LLST8:
 3911 0104 12000000 		.4byte	.LVL16
 3912 0108 1A000000 		.4byte	.LVL18
 3913 010c 0100     		.2byte	0x1
 3914 010e 55       		.byte	0x55
 3915 010f 1A000000 		.4byte	.LVL18
 3916 0113 24000000 		.4byte	.LVL19
 3917 0117 0300     		.2byte	0x3
 3918 0119 75       		.byte	0x75
 3919 011a 7F       		.sleb128 -1
 3920 011b 9F       		.byte	0x9f
 3921 011c 24000000 		.4byte	.LVL19
 3922 0120 5C000000 		.4byte	.LFE221
 3923 0124 0400     		.2byte	0x4
 3924 0126 F3       		.byte	0xf3
 3925 0127 01       		.uleb128 0x1
 3926 0128 50       		.byte	0x50
 3927 0129 9F       		.byte	0x9f
 3928 012a 00000000 		.4byte	0
 3929 012e 00000000 		.4byte	0
ARM GAS  C:\Users\IDONNO~1\AppData\Local\Temp\ccKMQqwp.s 			page 70


 3930              	.LLST9:
 3931 0132 2C000000 		.4byte	.LVL20
 3932 0136 34000000 		.4byte	.LVL21
 3933 013a 0D00     		.2byte	0xd
 3934 013c 75       		.byte	0x75
 3935 013d 00       		.sleb128 0
 3936 013e 94       		.byte	0x94
 3937 013f 01       		.byte	0x1
 3938 0140 08       		.byte	0x8
 3939 0141 FF       		.byte	0xff
 3940 0142 1A       		.byte	0x1a
 3941 0143 71       		.byte	0x71
 3942 0144 00       		.sleb128 0
 3943 0145 38       		.byte	0x38
 3944 0146 24       		.byte	0x24
 3945 0147 21       		.byte	0x21
 3946 0148 9F       		.byte	0x9f
 3947 0149 34000000 		.4byte	.LVL21
 3948 014d 37000000 		.4byte	.LVL22-1
 3949 0151 1200     		.2byte	0x12
 3950 0153 75       		.byte	0x75
 3951 0154 00       		.sleb128 0
 3952 0155 94       		.byte	0x94
 3953 0156 01       		.byte	0x1
 3954 0157 08       		.byte	0x8
 3955 0158 FF       		.byte	0xff
 3956 0159 1A       		.byte	0x1a
 3957 015a 75       		.byte	0x75
 3958 015b 7F       		.sleb128 -1
 3959 015c 94       		.byte	0x94
 3960 015d 01       		.byte	0x1
 3961 015e 08       		.byte	0x8
 3962 015f FF       		.byte	0xff
 3963 0160 1A       		.byte	0x1a
 3964 0161 38       		.byte	0x38
 3965 0162 24       		.byte	0x24
 3966 0163 21       		.byte	0x21
 3967 0164 9F       		.byte	0x9f
 3968 0165 00000000 		.4byte	0
 3969 0169 00000000 		.4byte	0
 3970              	.LLST10:
 3971 016d 18000000 		.4byte	.LVL17
 3972 0171 24000000 		.4byte	.LVL19
 3973 0175 0200     		.2byte	0x2
 3974 0177 30       		.byte	0x30
 3975 0178 9F       		.byte	0x9f
 3976 0179 00000000 		.4byte	0
 3977 017d 00000000 		.4byte	0
 3978              	.LLST11:
 3979 0181 00000000 		.4byte	.LVL27
 3980 0185 0E000000 		.4byte	.LVL29
 3981 0189 0100     		.2byte	0x1
 3982 018b 50       		.byte	0x50
 3983 018c 0E000000 		.4byte	.LVL29
 3984 0190 16010000 		.4byte	.LVL33
 3985 0194 0100     		.2byte	0x1
 3986 0196 56       		.byte	0x56
ARM GAS  C:\Users\IDONNO~1\AppData\Local\Temp\ccKMQqwp.s 			page 71


 3987 0197 16010000 		.4byte	.LVL33
 3988 019b 7C010000 		.4byte	.LFE222
 3989 019f 0400     		.2byte	0x4
 3990 01a1 F3       		.byte	0xf3
 3991 01a2 01       		.uleb128 0x1
 3992 01a3 50       		.byte	0x50
 3993 01a4 9F       		.byte	0x9f
 3994 01a5 00000000 		.4byte	0
 3995 01a9 00000000 		.4byte	0
 3996              	.LLST12:
 3997 01ad 00000000 		.4byte	.LVL27
 3998 01b1 36000000 		.4byte	.LVL31
 3999 01b5 0200     		.2byte	0x2
 4000 01b7 31       		.byte	0x31
 4001 01b8 9F       		.byte	0x9f
 4002 01b9 36000000 		.4byte	.LVL31
 4003 01bd 12010000 		.4byte	.LVL32
 4004 01c1 0200     		.2byte	0x2
 4005 01c3 30       		.byte	0x30
 4006 01c4 9F       		.byte	0x9f
 4007 01c5 00000000 		.4byte	0
 4008 01c9 00000000 		.4byte	0
 4009              	.LLST13:
 4010 01cd 04000000 		.4byte	.LVL28
 4011 01d1 0E000000 		.4byte	.LVL29
 4012 01d5 0100     		.2byte	0x1
 4013 01d7 50       		.byte	0x50
 4014 01d8 0E000000 		.4byte	.LVL29
 4015 01dc 16010000 		.4byte	.LVL33
 4016 01e0 0100     		.2byte	0x1
 4017 01e2 56       		.byte	0x56
 4018 01e3 16010000 		.4byte	.LVL33
 4019 01e7 7C010000 		.4byte	.LFE222
 4020 01eb 0400     		.2byte	0x4
 4021 01ed F3       		.byte	0xf3
 4022 01ee 01       		.uleb128 0x1
 4023 01ef 50       		.byte	0x50
 4024 01f0 9F       		.byte	0x9f
 4025 01f1 00000000 		.4byte	0
 4026 01f5 00000000 		.4byte	0
 4027              	.LLST14:
 4028 01f9 04000000 		.4byte	.LVL28
 4029 01fd 0E000000 		.4byte	.LVL29
 4030 0201 0200     		.2byte	0x2
 4031 0203 30       		.byte	0x30
 4032 0204 9F       		.byte	0x9f
 4033 0205 00000000 		.4byte	0
 4034 0209 00000000 		.4byte	0
 4035              	.LLST15:
 4036 020d 00000000 		.4byte	.LVL34
 4037 0211 07000000 		.4byte	.LVL35-1
 4038 0215 0100     		.2byte	0x1
 4039 0217 50       		.byte	0x50
 4040 0218 07000000 		.4byte	.LVL35-1
 4041 021c 1A000000 		.4byte	.LVL38
 4042 0220 0100     		.2byte	0x1
 4043 0222 55       		.byte	0x55
ARM GAS  C:\Users\IDONNO~1\AppData\Local\Temp\ccKMQqwp.s 			page 72


 4044 0223 1A000000 		.4byte	.LVL38
 4045 0227 20000000 		.4byte	.LVL39
 4046 022b 0300     		.2byte	0x3
 4047 022d 75       		.byte	0x75
 4048 022e 7F       		.sleb128 -1
 4049 022f 9F       		.byte	0x9f
 4050 0230 20000000 		.4byte	.LVL39
 4051 0234 5A000000 		.4byte	.LFE223
 4052 0238 0400     		.2byte	0x4
 4053 023a F3       		.byte	0xf3
 4054 023b 01       		.uleb128 0x1
 4055 023c 50       		.byte	0x50
 4056 023d 9F       		.byte	0x9f
 4057 023e 00000000 		.4byte	0
 4058 0242 00000000 		.4byte	0
 4059              	.LLST16:
 4060 0246 12000000 		.4byte	.LVL36
 4061 024a 44000000 		.4byte	.LVL43
 4062 024e 0200     		.2byte	0x2
 4063 0250 31       		.byte	0x31
 4064 0251 9F       		.byte	0x9f
 4065 0252 44000000 		.4byte	.LVL43
 4066 0256 56000000 		.4byte	.LVL46
 4067 025a 0100     		.2byte	0x1
 4068 025c 54       		.byte	0x54
 4069 025d 56000000 		.4byte	.LVL46
 4070 0261 5A000000 		.4byte	.LFE223
 4071 0265 0200     		.2byte	0x2
 4072 0267 31       		.byte	0x31
 4073 0268 9F       		.byte	0x9f
 4074 0269 00000000 		.4byte	0
 4075 026d 00000000 		.4byte	0
 4076              	.LLST17:
 4077 0271 12000000 		.4byte	.LVL36
 4078 0275 1A000000 		.4byte	.LVL38
 4079 0279 0100     		.2byte	0x1
 4080 027b 55       		.byte	0x55
 4081 027c 1A000000 		.4byte	.LVL38
 4082 0280 20000000 		.4byte	.LVL39
 4083 0284 0300     		.2byte	0x3
 4084 0286 75       		.byte	0x75
 4085 0287 7F       		.sleb128 -1
 4086 0288 9F       		.byte	0x9f
 4087 0289 20000000 		.4byte	.LVL39
 4088 028d 5A000000 		.4byte	.LFE223
 4089 0291 0400     		.2byte	0x4
 4090 0293 F3       		.byte	0xf3
 4091 0294 01       		.uleb128 0x1
 4092 0295 50       		.byte	0x50
 4093 0296 9F       		.byte	0x9f
 4094 0297 00000000 		.4byte	0
 4095 029b 00000000 		.4byte	0
 4096              	.LLST18:
 4097 029f 2A000000 		.4byte	.LVL40
 4098 02a3 32000000 		.4byte	.LVL41
 4099 02a7 0D00     		.2byte	0xd
 4100 02a9 75       		.byte	0x75
ARM GAS  C:\Users\IDONNO~1\AppData\Local\Temp\ccKMQqwp.s 			page 73


 4101 02aa 00       		.sleb128 0
 4102 02ab 94       		.byte	0x94
 4103 02ac 01       		.byte	0x1
 4104 02ad 08       		.byte	0x8
 4105 02ae FF       		.byte	0xff
 4106 02af 1A       		.byte	0x1a
 4107 02b0 71       		.byte	0x71
 4108 02b1 00       		.sleb128 0
 4109 02b2 38       		.byte	0x38
 4110 02b3 24       		.byte	0x24
 4111 02b4 21       		.byte	0x21
 4112 02b5 9F       		.byte	0x9f
 4113 02b6 32000000 		.4byte	.LVL41
 4114 02ba 35000000 		.4byte	.LVL42-1
 4115 02be 1200     		.2byte	0x12
 4116 02c0 75       		.byte	0x75
 4117 02c1 00       		.sleb128 0
 4118 02c2 94       		.byte	0x94
 4119 02c3 01       		.byte	0x1
 4120 02c4 08       		.byte	0x8
 4121 02c5 FF       		.byte	0xff
 4122 02c6 1A       		.byte	0x1a
 4123 02c7 75       		.byte	0x75
 4124 02c8 7F       		.sleb128 -1
 4125 02c9 94       		.byte	0x94
 4126 02ca 01       		.byte	0x1
 4127 02cb 08       		.byte	0x8
 4128 02cc FF       		.byte	0xff
 4129 02cd 1A       		.byte	0x1a
 4130 02ce 38       		.byte	0x38
 4131 02cf 24       		.byte	0x24
 4132 02d0 21       		.byte	0x21
 4133 02d1 9F       		.byte	0x9f
 4134 02d2 00000000 		.4byte	0
 4135 02d6 00000000 		.4byte	0
 4136              	.LLST19:
 4137 02da 18000000 		.4byte	.LVL37
 4138 02de 20000000 		.4byte	.LVL39
 4139 02e2 0200     		.2byte	0x2
 4140 02e4 30       		.byte	0x30
 4141 02e5 9F       		.byte	0x9f
 4142 02e6 00000000 		.4byte	0
 4143 02ea 00000000 		.4byte	0
 4144              	.LLST20:
 4145 02ee 00000000 		.4byte	.LVL47
 4146 02f2 02000000 		.4byte	.LVL48
 4147 02f6 0100     		.2byte	0x1
 4148 02f8 50       		.byte	0x50
 4149 02f9 02000000 		.4byte	.LVL48
 4150 02fd 04000000 		.4byte	.LFE224
 4151 0301 0400     		.2byte	0x4
 4152 0303 F3       		.byte	0xf3
 4153 0304 01       		.uleb128 0x1
 4154 0305 50       		.byte	0x50
 4155 0306 9F       		.byte	0x9f
 4156 0307 00000000 		.4byte	0
 4157 030b 00000000 		.4byte	0
ARM GAS  C:\Users\IDONNO~1\AppData\Local\Temp\ccKMQqwp.s 			page 74


 4158              		.section	.debug_aranges,"",%progbits
 4159 0000 44000000 		.4byte	0x44
 4160 0004 0200     		.2byte	0x2
 4161 0006 00000000 		.4byte	.Ldebug_info0
 4162 000a 04       		.byte	0x4
 4163 000b 00       		.byte	0
 4164 000c 0000     		.2byte	0
 4165 000e 0000     		.2byte	0
 4166 0010 00000000 		.4byte	.LFB219
 4167 0014 54000000 		.4byte	.LFE219-.LFB219
 4168 0018 00000000 		.4byte	.LFB220
 4169 001c 10010000 		.4byte	.LFE220-.LFB220
 4170 0020 00000000 		.4byte	.LFB221
 4171 0024 5C000000 		.4byte	.LFE221-.LFB221
 4172 0028 00000000 		.4byte	.LFB222
 4173 002c 7C010000 		.4byte	.LFE222-.LFB222
 4174 0030 00000000 		.4byte	.LFB223
 4175 0034 5A000000 		.4byte	.LFE223-.LFB223
 4176 0038 00000000 		.4byte	.LFB224
 4177 003c 04000000 		.4byte	.LFE224-.LFB224
 4178 0040 00000000 		.4byte	0
 4179 0044 00000000 		.4byte	0
 4180              		.section	.debug_ranges,"",%progbits
 4181              	.Ldebug_ranges0:
 4182 0000 1E000000 		.4byte	.LBB5
 4183 0004 46000000 		.4byte	.LBE5
 4184 0008 5A000000 		.4byte	.LBB6
 4185 000c 5C000000 		.4byte	.LBE6
 4186 0010 00000000 		.4byte	0
 4187 0014 00000000 		.4byte	0
 4188 0018 20000000 		.4byte	.LBB8
 4189 001c 44000000 		.4byte	.LBE8
 4190 0020 58000000 		.4byte	.LBB9
 4191 0024 5A000000 		.4byte	.LBE9
 4192 0028 00000000 		.4byte	0
 4193 002c 00000000 		.4byte	0
 4194 0030 00000000 		.4byte	.LFB219
 4195 0034 54000000 		.4byte	.LFE219
 4196 0038 00000000 		.4byte	.LFB220
 4197 003c 10010000 		.4byte	.LFE220
 4198 0040 00000000 		.4byte	.LFB221
 4199 0044 5C000000 		.4byte	.LFE221
 4200 0048 00000000 		.4byte	.LFB222
 4201 004c 7C010000 		.4byte	.LFE222
 4202 0050 00000000 		.4byte	.LFB223
 4203 0054 5A000000 		.4byte	.LFE223
 4204 0058 00000000 		.4byte	.LFB224
 4205 005c 04000000 		.4byte	.LFE224
 4206 0060 00000000 		.4byte	0
 4207 0064 00000000 		.4byte	0
 4208              		.section	.debug_line,"",%progbits
 4209              	.Ldebug_line0:
 4210 0000 EA040000 		.section	.debug_str,"MS",%progbits,1
 4210      02001F03 
 4210      00000201 
 4210      FB0E0D00 
 4210      01010101 
ARM GAS  C:\Users\IDONNO~1\AppData\Local\Temp\ccKMQqwp.s 			page 75


 4211              	.LASF232:
 4212 0000 73656E64 		.ascii	"send_can_status_rate_hz\000"
 4212      5F63616E 
 4212      5F737461 
 4212      7475735F 
 4212      72617465 
 4213              	.LASF163:
 4214 0018 705F7069 		.ascii	"p_pid_kp\000"
 4214      645F6B70 
 4214      00
 4215              	.LASF158:
 4216 0021 68616C6C 		.ascii	"hall_rev_add\000"
 4216      5F726576 
 4216      5F616464 
 4216      00
 4217              	.LASF15:
 4218 002e 696E7438 		.ascii	"int8_t\000"
 4218      5F7400
 4219              	.LASF139:
 4220 0035 6C5F7465 		.ascii	"l_temp_fet_end\000"
 4220      6D705F66 
 4220      65745F65 
 4220      6E6400
 4221              	.LASF223:
 4222 0044 4348554B 		.ascii	"CHUK_CTRL_TYPE_CURRENT_NOREV\000"
 4222      5F435452 
 4222      4C5F5459 
 4222      50455F43 
 4222      55525245 
 4223              	.LASF21:
 4224 0061 73697A65 		.ascii	"size_t\000"
 4224      5F7400
 4225              	.LASF86:
 4226 0068 73697A65 		.ascii	"sizetype\000"
 4226      74797065 
 4226      00
 4227              	.LASF99:
 4228 0071 77747365 		.ascii	"wtsemp\000"
 4228      6D7000
 4229              	.LASF31:
 4230 0078 73797374 		.ascii	"systime_t\000"
 4230      696D655F 
 4230      7400
 4231              	.LASF192:
 4232 0082 6374726C 		.ascii	"ctrl_type\000"
 4232      5F747970 
 4232      6500
 4233              	.LASF36:
 4234 008c 705F6374 		.ascii	"p_ctx\000"
 4234      7800
 4235              	.LASF27:
 4236 0092 74707269 		.ascii	"tprio_t\000"
 4236      6F5F7400 
 4237              	.LASF174:
 4238 009a 4150505F 		.ascii	"APP_PPM\000"
 4238      50504D00 
 4239              	.LASF46:
ARM GAS  C:\Users\IDONNO~1\AppData\Local\Temp\ccKMQqwp.s 			page 76


 4240 00a2 705F6D73 		.ascii	"p_msgqueue\000"
 4240      67717565 
 4240      756500
 4241              	.LASF62:
 4242 00ad 725F6374 		.ascii	"r_ctx\000"
 4242      7800
 4243              	.LASF200:
 4244 00b3 72706D5F 		.ascii	"rpm_lim_end\000"
 4244      6C696D5F 
 4244      656E6400 
 4245              	.LASF18:
 4246 00bf 696E7433 		.ascii	"int32_t\000"
 4246      325F7400 
 4247              	.LASF66:
 4248 00c7 76746675 		.ascii	"vtfunc_t\000"
 4248      6E635F74 
 4248      00
 4249              	.LASF209:
 4250 00d0 4144435F 		.ascii	"ADC_CTRL_TYPE_CURRENT_NOREV_BRAKE_BUTTON\000"
 4250      4354524C 
 4250      5F545950 
 4250      455F4355 
 4250      5252454E 
 4251              	.LASF75:
 4252 00f9 63685F76 		.ascii	"ch_virtual_timers_list\000"
 4252      69727475 
 4252      616C5F74 
 4252      696D6572 
 4252      735F6C69 
 4253              	.LASF164:
 4254 0110 705F7069 		.ascii	"p_pid_ki\000"
 4254      645F6B69 
 4254      00
 4255              	.LASF118:
 4256 0119 4D4F544F 		.ascii	"MOTOR_TYPE_BLDC\000"
 4256      525F5459 
 4256      50455F42 
 4256      4C444300 
 4257              	.LASF274:
 4258 0129 7372632F 		.ascii	"src/core/conf_general.c\000"
 4258      636F7265 
 4258      2F636F6E 
 4258      665F6765 
 4258      6E657261 
 4259              	.LASF246:
 4260 0141 464C4153 		.ascii	"FLASH_ERROR_OPERATION\000"
 4260      485F4552 
 4260      524F525F 
 4260      4F504552 
 4260      4154494F 
 4261              	.LASF197:
 4262 0157 6D656469 		.ascii	"median_filter\000"
 4262      616E5F66 
 4262      696C7465 
 4262      7200
 4263              	.LASF216:
 4264 0165 7573655F 		.ascii	"use_filter\000"
ARM GAS  C:\Users\IDONNO~1\AppData\Local\Temp\ccKMQqwp.s 			page 77


 4264      66696C74 
 4264      657200
 4265              	.LASF251:
 4266 0170 636F6E66 		.ascii	"conf_addr\000"
 4266      5F616464 
 4266      7200
 4267              	.LASF183:
 4268 017a 50504D5F 		.ascii	"PPM_CTRL_TYPE_NONE\000"
 4268      4354524C 
 4268      5F545950 
 4268      455F4E4F 
 4268      4E4500
 4269              	.LASF252:
 4270 018d 636F6E66 		.ascii	"conf\000"
 4270      00
 4271              	.LASF182:
 4272 0192 6170705F 		.ascii	"app_use\000"
 4272      75736500 
 4273              	.LASF208:
 4274 019a 4144435F 		.ascii	"ADC_CTRL_TYPE_CURRENT_NOREV_BRAKE_CENTER\000"
 4274      4354524C 
 4274      5F545950 
 4274      455F4355 
 4274      5252454E 
 4275              	.LASF131:
 4276 01c3 6C5F6D61 		.ascii	"l_max_erpm\000"
 4276      785F6572 
 4276      706D00
 4277              	.LASF240:
 4278 01ce 464C4153 		.ascii	"FLASH_ERROR_RD\000"
 4278      485F4552 
 4278      524F525F 
 4278      524400
 4279              	.LASF114:
 4280 01dd 6D635F70 		.ascii	"mc_pwm_mode\000"
 4280      776D5F6D 
 4280      6F646500 
 4281              	.LASF260:
 4282 01e9 696E745F 		.ascii	"int_limit\000"
 4282      6C696D69 
 4282      7400
 4283              	.LASF107:
 4284 01f3 6D5F6F77 		.ascii	"m_owner\000"
 4284      6E657200 
 4285              	.LASF73:
 4286 01fb 76745F70 		.ascii	"vt_par\000"
 4286      617200
 4287              	.LASF96:
 4288 0202 65786974 		.ascii	"exitcode\000"
 4288      636F6465 
 4288      00
 4289              	.LASF1:
 4290 020b 5F5F7569 		.ascii	"__uint8_t\000"
 4290      6E74385F 
 4290      7400
 4291              	.LASF155:
 4292 0215 736C5F62 		.ascii	"sl_bemf_coupling_k\000"
ARM GAS  C:\Users\IDONNO~1\AppData\Local\Temp\ccKMQqwp.s 			page 78


 4292      656D665F 
 4292      636F7570 
 4292      6C696E67 
 4292      5F6B00
 4293              	.LASF101:
 4294 0228 65776D61 		.ascii	"ewmask\000"
 4294      736B00
 4295              	.LASF189:
 4296 022f 50504D5F 		.ascii	"PPM_CTRL_TYPE_PID\000"
 4296      4354524C 
 4296      5F545950 
 4296      455F5049 
 4296      4400
 4297              	.LASF255:
 4298 0241 636F6E66 		.ascii	"conf_general_store_mc_configuration\000"
 4298      5F67656E 
 4298      6572616C 
 4298      5F73746F 
 4298      72655F6D 
 4299              	.LASF37:
 4300 0265 705F6E65 		.ascii	"p_newer\000"
 4300      77657200 
 4301              	.LASF8:
 4302 026d 6C6F6E67 		.ascii	"long int\000"
 4302      20696E74 
 4302      00
 4303              	.LASF33:
 4304 0276 705F6E65 		.ascii	"p_next\000"
 4304      787400
 4305              	.LASF34:
 4306 027d 705F7072 		.ascii	"p_prev\000"
 4306      657600
 4307              	.LASF181:
 4308 0284 4150505F 		.ascii	"APP_CUSTOM\000"
 4308      43555354 
 4308      4F4D00
 4309              	.LASF24:
 4310 028f 74737461 		.ascii	"tstate_t\000"
 4310      74655F74 
 4310      00
 4311              	.LASF56:
 4312 0298 74687265 		.ascii	"threads_queue_t\000"
 4312      6164735F 
 4312      71756575 
 4312      655F7400 
 4313              	.LASF49:
 4314 02a8 705F6D74 		.ascii	"p_mtxlist\000"
 4314      786C6973 
 4314      7400
 4315              	.LASF89:
 4316 02b2 72656761 		.ascii	"regarm_t\000"
 4316      726D5F74 
 4316      00
 4317              	.LASF239:
 4318 02bb 464C4153 		.ascii	"FLASH_BUSY\000"
 4318      485F4255 
 4318      535900
ARM GAS  C:\Users\IDONNO~1\AppData\Local\Temp\ccKMQqwp.s 			page 79


 4319              	.LASF187:
 4320 02c6 50504D5F 		.ascii	"PPM_CTRL_TYPE_DUTY\000"
 4320      4354524C 
 4320      5F545950 
 4320      455F4455 
 4320      545900
 4321              	.LASF2:
 4322 02d9 7369676E 		.ascii	"signed char\000"
 4322      65642063 
 4322      68617200 
 4323              	.LASF43:
 4324 02e5 705F7072 		.ascii	"p_preempt\000"
 4324      65656D70 
 4324      7400
 4325              	.LASF16:
 4326 02ef 75696E74 		.ascii	"uint8_t\000"
 4326      385F7400 
 4327              	.LASF231:
 4328 02f7 73656E64 		.ascii	"send_can_status\000"
 4328      5F63616E 
 4328      5F737461 
 4328      74757300 
 4329              	.LASF148:
 4330 0307 736C5F69 		.ascii	"sl_is_sensorless\000"
 4330      735F7365 
 4330      6E736F72 
 4330      6C657373 
 4330      00
 4331              	.LASF243:
 4332 0318 464C4153 		.ascii	"FLASH_ERROR_PGA\000"
 4332      485F4552 
 4332      524F525F 
 4332      50474100 
 4333              	.LASF29:
 4334 0328 6576656E 		.ascii	"eventmask_t\000"
 4334      746D6173 
 4334      6B5F7400 
 4335              	.LASF91:
 4336 0334 636F6E74 		.ascii	"context\000"
 4336      65787400 
 4337              	.LASF112:
 4338 033c 50574D5F 		.ascii	"PWM_MODE_SYNCHRONOUS\000"
 4338      4D4F4445 
 4338      5F53594E 
 4338      4348524F 
 4338      4E4F5553 
 4339              	.LASF241:
 4340 0351 464C4153 		.ascii	"FLASH_ERROR_PGS\000"
 4340      485F4552 
 4340      524F525F 
 4340      50475300 
 4341              	.LASF98:
 4342 0361 77747472 		.ascii	"wttrp\000"
 4342      7000
 4343              	.LASF271:
 4344 0367 5243435F 		.ascii	"RCC_APB1PeriphClockCmd\000"
 4344      41504231 
ARM GAS  C:\Users\IDONNO~1\AppData\Local\Temp\ccKMQqwp.s 			page 80


 4344      50657269 
 4344      7068436C 
 4344      6F636B43 
 4345              	.LASF3:
 4346 037e 756E7369 		.ascii	"unsigned char\000"
 4346      676E6564 
 4346      20636861 
 4346      7200
 4347              	.LASF250:
 4348 038c 69735F6F 		.ascii	"is_ok\000"
 4348      6B00
 4349              	.LASF157:
 4350 0392 68616C6C 		.ascii	"hall_fwd_add\000"
 4350      5F667764 
 4350      5F616464 
 4350      00
 4351              	.LASF79:
 4352 039f 70616E69 		.ascii	"panic_msg\000"
 4352      635F6D73 
 4352      6700
 4353              	.LASF113:
 4354 03a9 50574D5F 		.ascii	"PWM_MODE_BIPOLAR\000"
 4354      4D4F4445 
 4354      5F424950 
 4354      4F4C4152 
 4354      00
 4355              	.LASF63:
 4356 03ba 725F6E65 		.ascii	"r_newer\000"
 4356      77657200 
 4357              	.LASF167:
 4358 03c2 63635F6D 		.ascii	"cc_min_current\000"
 4358      696E5F63 
 4358      75727265 
 4358      6E7400
 4359              	.LASF77:
 4360 03d1 73797374 		.ascii	"system_debug_t\000"
 4360      656D5F64 
 4360      65627567 
 4360      5F7400
 4361              	.LASF238:
 4362 03e0 6170705F 		.ascii	"app_configuration\000"
 4362      636F6E66 
 4362      69677572 
 4362      6174696F 
 4362      6E00
 4363              	.LASF123:
 4364 03f2 636F6D6D 		.ascii	"comm_mode\000"
 4364      5F6D6F64 
 4364      6500
 4365              	.LASF171:
 4366 03fc 5F426F6F 		.ascii	"_Bool\000"
 4366      6C00
 4367              	.LASF133:
 4368 0402 6C5F6D61 		.ascii	"l_max_erpm_fbrake_cc\000"
 4368      785F6572 
 4368      706D5F66 
 4368      6272616B 
ARM GAS  C:\Users\IDONNO~1\AppData\Local\Temp\ccKMQqwp.s 			page 81


 4368      655F6363 
 4369              	.LASF203:
 4370 0417 70706D5F 		.ascii	"ppm_config\000"
 4370      636F6E66 
 4370      696700
 4371              	.LASF269:
 4372 0422 45455F57 		.ascii	"EE_WriteVariable\000"
 4372      72697465 
 4372      56617269 
 4372      61626C65 
 4372      00
 4373              	.LASF109:
 4374 0433 63686172 		.ascii	"char\000"
 4374      00
 4375              	.LASF237:
 4376 0438 6170705F 		.ascii	"app_chuk_conf\000"
 4376      6368756B 
 4376      5F636F6E 
 4376      6600
 4377              	.LASF176:
 4378 0446 4150505F 		.ascii	"APP_UART\000"
 4378      55415254 
 4378      00
 4379              	.LASF35:
 4380 044f 705F7072 		.ascii	"p_prio\000"
 4380      696F00
 4381              	.LASF5:
 4382 0456 5F5F7569 		.ascii	"__uint16_t\000"
 4382      6E743136 
 4382      5F7400
 4383              	.LASF97:
 4384 0461 77746F62 		.ascii	"wtobjp\000"
 4384      6A7000
 4385              	.LASF221:
 4386 0468 4348554B 		.ascii	"CHUK_CTRL_TYPE_NONE\000"
 4386      5F435452 
 4386      4C5F5459 
 4386      50455F4E 
 4386      4F4E4500 
 4387              	.LASF147:
 4388 047c 6C6F5F69 		.ascii	"lo_in_current_min\000"
 4388      6E5F6375 
 4388      7272656E 
 4388      745F6D69 
 4388      6E00
 4389              	.LASF90:
 4390 048e 73746B61 		.ascii	"stkalign_t\000"
 4390      6C69676E 
 4390      5F7400
 4391              	.LASF186:
 4392 0499 50504D5F 		.ascii	"PPM_CTRL_TYPE_CURRENT_NOREV_BRAKE\000"
 4392      4354524C 
 4392      5F545950 
 4392      455F4355 
 4392      5252454E 
 4393              	.LASF257:
 4394 04bb 63757272 		.ascii	"current\000"
ARM GAS  C:\Users\IDONNO~1\AppData\Local\Temp\ccKMQqwp.s 			page 82


 4394      656E7400 
 4395              	.LASF230:
 4396 04c3 74696D65 		.ascii	"timeout_brake_current\000"
 4396      6F75745F 
 4396      6272616B 
 4396      655F6375 
 4396      7272656E 
 4397              	.LASF202:
 4398 04d9 74635F6D 		.ascii	"tc_max_diff\000"
 4398      61785F64 
 4398      69666600 
 4399              	.LASF143:
 4400 04e5 6C5F6D61 		.ascii	"l_max_duty\000"
 4400      785F6475 
 4400      747900
 4401              	.LASF190:
 4402 04f0 50504D5F 		.ascii	"PPM_CTRL_TYPE_PID_NOREV\000"
 4402      4354524C 
 4402      5F545950 
 4402      455F5049 
 4402      445F4E4F 
 4403              	.LASF30:
 4404 0508 636E745F 		.ascii	"cnt_t\000"
 4404      7400
 4405              	.LASF188:
 4406 050e 50504D5F 		.ascii	"PPM_CTRL_TYPE_DUTY_NOREV\000"
 4406      4354524C 
 4406      5F545950 
 4406      455F4455 
 4406      54595F4E 
 4407              	.LASF72:
 4408 0527 76745F66 		.ascii	"vt_func\000"
 4408      756E6300 
 4409              	.LASF48:
 4410 052f 705F6570 		.ascii	"p_epending\000"
 4410      656E6469 
 4410      6E6700
 4411              	.LASF135:
 4412 053a 6C5F6D61 		.ascii	"l_max_vin\000"
 4412      785F7669 
 4412      6E00
 4413              	.LASF100:
 4414 0544 77746D74 		.ascii	"wtmtxp\000"
 4414      787000
 4415              	.LASF201:
 4416 054b 6D756C74 		.ascii	"multi_esc\000"
 4416      695F6573 
 4416      6300
 4417              	.LASF191:
 4418 0555 70706D5F 		.ascii	"ppm_control_type\000"
 4418      636F6E74 
 4418      726F6C5F 
 4418      74797065 
 4418      00
 4419              	.LASF254:
 4420 0566 636F6E66 		.ascii	"conf_general_store_app_configuration\000"
 4420      5F67656E 
ARM GAS  C:\Users\IDONNO~1\AppData\Local\Temp\ccKMQqwp.s 			page 83


 4420      6572616C 
 4420      5F73746F 
 4420      72655F61 
 4421              	.LASF59:
 4422 058b 63685F72 		.ascii	"ch_ready_list\000"
 4422      65616479 
 4422      5F6C6973 
 4422      7400
 4423              	.LASF130:
 4424 0599 6C5F6D69 		.ascii	"l_min_erpm\000"
 4424      6E5F6572 
 4424      706D00
 4425              	.LASF215:
 4426 05a4 766F6C74 		.ascii	"voltage_end\000"
 4426      6167655F 
 4426      656E6400 
 4427              	.LASF233:
 4428 05b0 6170705F 		.ascii	"app_to_use\000"
 4428      746F5F75 
 4428      736500
 4429              	.LASF275:
 4430 05bb 443A5C67 		.ascii	"D:\\git\\oroca_bldc_dev\\oroca_bldc_FW\000"
 4430      69745C6F 
 4430      726F6361 
 4430      5F626C64 
 4430      635F6465 
 4431              	.LASF205:
 4432 05df 4144435F 		.ascii	"ADC_CTRL_TYPE_CURRENT\000"
 4432      4354524C 
 4432      5F545950 
 4432      455F4355 
 4432      5252454E 
 4433              	.LASF228:
 4434 05f5 636F6E74 		.ascii	"controller_id\000"
 4434      726F6C6C 
 4434      65725F69 
 4434      6400
 4435              	.LASF117:
 4436 0603 6D635F63 		.ascii	"mc_comm_mode\000"
 4436      6F6D6D5F 
 4436      6D6F6465 
 4436      00
 4437              	.LASF12:
 4438 0610 5F5F7569 		.ascii	"__uint64_t\000"
 4438      6E743634 
 4438      5F7400
 4439              	.LASF140:
 4440 061b 6C5F7465 		.ascii	"l_temp_motor_start\000"
 4440      6D705F6D 
 4440      6F746F72 
 4440      5F737461 
 4440      727400
 4441              	.LASF10:
 4442 062e 6C6F6E67 		.ascii	"long unsigned int\000"
 4442      20756E73 
 4442      69676E65 
 4442      6420696E 
ARM GAS  C:\Users\IDONNO~1\AppData\Local\Temp\ccKMQqwp.s 			page 84


 4442      7400
 4443              	.LASF229:
 4444 0640 74696D65 		.ascii	"timeout_msec\000"
 4444      6F75745F 
 4444      6D736563 
 4444      00
 4445              	.LASF102:
 4446 064d 63685F73 		.ascii	"ch_semaphore\000"
 4446      656D6170 
 4446      686F7265 
 4446      00
 4447              	.LASF54:
 4448 065a 63685F74 		.ascii	"ch_thread\000"
 4448      68726561 
 4448      6400
 4449              	.LASF173:
 4450 0664 4150505F 		.ascii	"APP_NONE\000"
 4450      4E4F4E45 
 4450      00
 4451              	.LASF248:
 4452 066d 636F6E66 		.ascii	"conf_general_init\000"
 4452      5F67656E 
 4452      6572616C 
 4452      5F696E69 
 4452      7400
 4453              	.LASF74:
 4454 067f 76697274 		.ascii	"virtual_timers_list_t\000"
 4454      75616C5F 
 4454      74696D65 
 4454      72735F6C 
 4454      6973745F 
 4455              	.LASF222:
 4456 0695 4348554B 		.ascii	"CHUK_CTRL_TYPE_CURRENT\000"
 4456      5F435452 
 4456      4C5F5459 
 4456      50455F43 
 4456      55525245 
 4457              	.LASF119:
 4458 06ac 4D4F544F 		.ascii	"MOTOR_TYPE_DC\000"
 4458      525F5459 
 4458      50455F44 
 4458      4300
 4459              	.LASF258:
 4460 06ba 6D696E5F 		.ascii	"min_rpm\000"
 4460      72706D00 
 4461              	.LASF67:
 4462 06c2 76697274 		.ascii	"virtual_timer_t\000"
 4462      75616C5F 
 4462      74696D65 
 4462      725F7400 
 4463              	.LASF58:
 4464 06d2 72656164 		.ascii	"ready_list_t\000"
 4464      795F6C69 
 4464      73745F74 
 4464      00
 4465              	.LASF235:
 4466 06df 6170705F 		.ascii	"app_adc_conf\000"
ARM GAS  C:\Users\IDONNO~1\AppData\Local\Temp\ccKMQqwp.s 			page 85


 4466      6164635F 
 4466      636F6E66 
 4466      00
 4467              	.LASF111:
 4468 06ec 50574D5F 		.ascii	"PWM_MODE_NONSYNCHRONOUS_HISW\000"
 4468      4D4F4445 
 4468      5F4E4F4E 
 4468      53594E43 
 4468      48524F4E 
 4469              	.LASF268:
 4470 0709 45455F52 		.ascii	"EE_ReadVariable\000"
 4470      65616456 
 4470      61726961 
 4470      626C6500 
 4471              	.LASF55:
 4472 0719 63685F74 		.ascii	"ch_threads_list\000"
 4472      68726561 
 4472      64735F6C 
 4472      69737400 
 4473              	.LASF132:
 4474 0729 6C5F6D61 		.ascii	"l_max_erpm_fbrake\000"
 4474      785F6572 
 4474      706D5F66 
 4474      6272616B 
 4474      6500
 4475              	.LASF150:
 4476 073b 736C5F6D 		.ascii	"sl_min_erpm_cycle_int_limit\000"
 4476      696E5F65 
 4476      72706D5F 
 4476      6379636C 
 4476      655F696E 
 4477              	.LASF249:
 4478 0757 636F6E66 		.ascii	"conf_general_read_app_configuration\000"
 4478      5F67656E 
 4478      6572616C 
 4478      5F726561 
 4478      645F6170 
 4479              	.LASF153:
 4480 077b 736C5F70 		.ascii	"sl_phase_advance_at_br\000"
 4480      68617365 
 4480      5F616476 
 4480      616E6365 
 4480      5F61745F 
 4481              	.LASF127:
 4482 0792 6C5F696E 		.ascii	"l_in_current_max\000"
 4482      5F637572 
 4482      72656E74 
 4482      5F6D6178 
 4482      00
 4483              	.LASF122:
 4484 07a3 70776D5F 		.ascii	"pwm_mode\000"
 4484      6D6F6465 
 4484      00
 4485              	.LASF9:
 4486 07ac 5F5F7569 		.ascii	"__uint32_t\000"
 4486      6E743332 
 4486      5F7400
ARM GAS  C:\Users\IDONNO~1\AppData\Local\Temp\ccKMQqwp.s 			page 86


 4487              	.LASF11:
 4488 07b7 6C6F6E67 		.ascii	"long long int\000"
 4488      206C6F6E 
 4488      6720696E 
 4488      7400
 4489              	.LASF270:
 4490 07c5 7574696C 		.ascii	"utils_sys_lock_cnt\000"
 4490      735F7379 
 4490      735F6C6F 
 4490      636B5F63 
 4490      6E7400
 4491              	.LASF106:
 4492 07d8 6D5F7175 		.ascii	"m_queue\000"
 4492      65756500 
 4493              	.LASF69:
 4494 07e0 76745F6E 		.ascii	"vt_next\000"
 4494      65787400 
 4495              	.LASF206:
 4496 07e8 4144435F 		.ascii	"ADC_CTRL_TYPE_CURRENT_REV_CENTER\000"
 4496      4354524C 
 4496      5F545950 
 4496      455F4355 
 4496      5252454E 
 4497              	.LASF265:
 4498 0809 464C4153 		.ascii	"FLASH_Unlock\000"
 4498      485F556E 
 4498      6C6F636B 
 4498      00
 4499              	.LASF266:
 4500 0816 464C4153 		.ascii	"FLASH_ClearFlag\000"
 4500      485F436C 
 4500      65617246 
 4500      6C616700 
 4501              	.LASF70:
 4502 0826 76745F70 		.ascii	"vt_prev\000"
 4502      72657600 
 4503              	.LASF227:
 4504 082e 6368756B 		.ascii	"chuk_config\000"
 4504      5F636F6E 
 4504      66696700 
 4505              	.LASF204:
 4506 083a 4144435F 		.ascii	"ADC_CTRL_TYPE_NONE\000"
 4506      4354524C 
 4506      5F545950 
 4506      455F4E4F 
 4506      4E4500
 4507              	.LASF136:
 4508 084d 6C5F736C 		.ascii	"l_slow_abs_current\000"
 4508      6F775F61 
 4508      62735F63 
 4508      75727265 
 4508      6E7400
 4509              	.LASF195:
 4510 0860 70756C73 		.ascii	"pulse_start\000"
 4510      655F7374 
 4510      61727400 
 4511              	.LASF263:
ARM GAS  C:\Users\IDONNO~1\AppData\Local\Temp\ccKMQqwp.s 			page 87


 4512 086c 49544D5F 		.ascii	"ITM_RxBuffer\000"
 4512      52784275 
 4512      66666572 
 4512      00
 4513              	.LASF261:
 4514 0879 62656D66 		.ascii	"bemf_coupling_k\000"
 4514      5F636F75 
 4514      706C696E 
 4514      675F6B00 
 4515              	.LASF217:
 4516 0889 62757474 		.ascii	"button_inverted\000"
 4516      6F6E5F69 
 4516      6E766572 
 4516      74656400 
 4517              	.LASF121:
 4518 0899 666C6F61 		.ascii	"float\000"
 4518      7400
 4519              	.LASF45:
 4520 089f 705F7761 		.ascii	"p_waiting\000"
 4520      6974696E 
 4520      6700
 4521              	.LASF196:
 4522 08a9 70756C73 		.ascii	"pulse_end\000"
 4522      655F656E 
 4522      6400
 4523              	.LASF41:
 4524 08b3 705F666C 		.ascii	"p_flags\000"
 4524      61677300 
 4525              	.LASF242:
 4526 08bb 464C4153 		.ascii	"FLASH_ERROR_PGP\000"
 4526      485F4552 
 4526      524F525F 
 4526      50475000 
 4527              	.LASF85:
 4528 08cb 69646C65 		.ascii	"idle_thread_wa\000"
 4528      5F746872 
 4528      6561645F 
 4528      776100
 4529              	.LASF14:
 4530 08da 756E7369 		.ascii	"unsigned int\000"
 4530      676E6564 
 4530      20696E74 
 4530      00
 4531              	.LASF236:
 4532 08e7 6170705F 		.ascii	"app_uart_baudrate\000"
 4532      75617274 
 4532      5F626175 
 4532      64726174 
 4532      6500
 4533              	.LASF256:
 4534 08f9 636F6E66 		.ascii	"conf_general_detect_motor_param\000"
 4534      5F67656E 
 4534      6572616C 
 4534      5F646574 
 4534      6563745F 
 4535              	.LASF116:
 4536 0919 434F4D4D 		.ascii	"COMM_MODE_DELAY\000"
ARM GAS  C:\Users\IDONNO~1\AppData\Local\Temp\ccKMQqwp.s 			page 88


 4536      5F4D4F44 
 4536      455F4445 
 4536      4C415900 
 4537              	.LASF22:
 4538 0929 7274636E 		.ascii	"rtcnt_t\000"
 4538      745F7400 
 4539              	.LASF51:
 4540 0931 705F6D70 		.ascii	"p_mpool\000"
 4540      6F6F6C00 
 4541              	.LASF42:
 4542 0939 705F7265 		.ascii	"p_refs\000"
 4542      667300
 4543              	.LASF124:
 4544 0940 6D6F746F 		.ascii	"motor_type\000"
 4544      725F7479 
 4544      706500
 4545              	.LASF267:
 4546 094b 45455F49 		.ascii	"EE_Init\000"
 4546      6E697400 
 4547              	.LASF247:
 4548 0953 464C4153 		.ascii	"FLASH_COMPLETE\000"
 4548      485F434F 
 4548      4D504C45 
 4548      544500
 4549              	.LASF175:
 4550 0962 4150505F 		.ascii	"APP_ADC\000"
 4550      41444300 
 4551              	.LASF93:
 4552 096a 6F666673 		.ascii	"offset\000"
 4552      657400
 4553              	.LASF125:
 4554 0971 6C5F6375 		.ascii	"l_current_max\000"
 4554      7272656E 
 4554      745F6D61 
 4554      7800
 4555              	.LASF142:
 4556 097f 6C5F6D69 		.ascii	"l_min_duty\000"
 4556      6E5F6475 
 4556      747900
 4557              	.LASF44:
 4558 098a 705F7469 		.ascii	"p_time\000"
 4558      6D6500
 4559              	.LASF218:
 4560 0991 766F6C74 		.ascii	"voltage_inverted\000"
 4560      6167655F 
 4560      696E7665 
 4560      72746564 
 4560      00
 4561              	.LASF214:
 4562 09a2 766F6C74 		.ascii	"voltage_start\000"
 4562      6167655F 
 4562      73746172 
 4562      7400
 4563              	.LASF193:
 4564 09b0 7069645F 		.ascii	"pid_max_erpm\000"
 4564      6D61785F 
 4564      6572706D 
ARM GAS  C:\Users\IDONNO~1\AppData\Local\Temp\ccKMQqwp.s 			page 89


 4564      00
 4565              	.LASF87:
 4566 09bd 44495341 		.ascii	"DISABLE\000"
 4566      424C4500 
 4567              	.LASF170:
 4568 09c5 6D5F6661 		.ascii	"m_fault_stop_time_ms\000"
 4568      756C745F 
 4568      73746F70 
 4568      5F74696D 
 4568      655F6D73 
 4569              	.LASF32:
 4570 09da 74687265 		.ascii	"thread_t\000"
 4570      61645F74 
 4570      00
 4571              	.LASF144:
 4572 09e3 6C6F5F63 		.ascii	"lo_current_max\000"
 4572      75727265 
 4572      6E745F6D 
 4572      617800
 4573              	.LASF52:
 4574 09f2 74687265 		.ascii	"thread_reference_t\000"
 4574      61645F72 
 4574      65666572 
 4574      656E6365 
 4574      5F7400
 4575              	.LASF50:
 4576 0a05 705F7265 		.ascii	"p_realprio\000"
 4576      616C7072 
 4576      696F00
 4577              	.LASF92:
 4578 0a10 706F7274 		.ascii	"port_intctx\000"
 4578      5F696E74 
 4578      63747800 
 4579              	.LASF225:
 4580 0a1c 72616D70 		.ascii	"ramp_time_pos\000"
 4580      5F74696D 
 4580      655F706F 
 4580      7300
 4581              	.LASF149:
 4582 0a2a 736C5F6D 		.ascii	"sl_min_erpm\000"
 4582      696E5F65 
 4582      72706D00 
 4583              	.LASF71:
 4584 0a36 76745F64 		.ascii	"vt_delta\000"
 4584      656C7461 
 4584      00
 4585              	.LASF184:
 4586 0a3f 50504D5F 		.ascii	"PPM_CTRL_TYPE_CURRENT\000"
 4586      4354524C 
 4586      5F545950 
 4586      455F4355 
 4586      5252454E 
 4587              	.LASF211:
 4588 0a55 4144435F 		.ascii	"ADC_CTRL_TYPE_DUTY_REV_CENTER\000"
 4588      4354524C 
 4588      5F545950 
 4588      455F4455 
ARM GAS  C:\Users\IDONNO~1\AppData\Local\Temp\ccKMQqwp.s 			page 90


 4588      54595F52 
 4589              	.LASF68:
 4590 0a73 63685F76 		.ascii	"ch_virtual_timer\000"
 4590      69727475 
 4590      616C5F74 
 4590      696D6572 
 4590      00
 4591              	.LASF104:
 4592 0a84 735F636E 		.ascii	"s_cnt\000"
 4592      7400
 4593              	.LASF0:
 4594 0a8a 5F5F696E 		.ascii	"__int8_t\000"
 4594      74385F74 
 4594      00
 4595              	.LASF180:
 4596 0a93 4150505F 		.ascii	"APP_NRF\000"
 4596      4E524600 
 4597              	.LASF115:
 4598 0a9b 434F4D4D 		.ascii	"COMM_MODE_INTEGRATE\000"
 4598      5F4D4F44 
 4598      455F494E 
 4598      54454752 
 4598      41544500 
 4599              	.LASF13:
 4600 0aaf 6C6F6E67 		.ascii	"long long unsigned int\000"
 4600      206C6F6E 
 4600      6720756E 
 4600      7369676E 
 4600      65642069 
 4601              	.LASF234:
 4602 0ac6 6170705F 		.ascii	"app_ppm_conf\000"
 4602      70706D5F 
 4602      636F6E66 
 4602      00
 4603              	.LASF38:
 4604 0ad3 705F6F6C 		.ascii	"p_older\000"
 4604      64657200 
 4605              	.LASF129:
 4606 0adb 6C5F6162 		.ascii	"l_abs_current_max\000"
 4606      735F6375 
 4606      7272656E 
 4606      745F6D61 
 4606      7800
 4607              	.LASF17:
 4608 0aed 75696E74 		.ascii	"uint16_t\000"
 4608      31365F74 
 4608      00
 4609              	.LASF28:
 4610 0af6 6D73675F 		.ascii	"msg_t\000"
 4610      7400
 4611              	.LASF272:
 4612 0afc 7574696C 		.ascii	"utils_sys_unlock_cnt\000"
 4612      735F7379 
 4612      735F756E 
 4612      6C6F636B 
 4612      5F636E74 
 4613              	.LASF57:
ARM GAS  C:\Users\IDONNO~1\AppData\Local\Temp\ccKMQqwp.s 			page 91


 4614 0b11 63685F74 		.ascii	"ch_threads_queue\000"
 4614      68726561 
 4614      64735F71 
 4614      75657565 
 4614      00
 4615              	.LASF26:
 4616 0b22 74736C69 		.ascii	"tslices_t\000"
 4616      6365735F 
 4616      7400
 4617              	.LASF151:
 4618 0b2c 736C5F6D 		.ascii	"sl_max_fullbreak_current_dir_change\000"
 4618      61785F66 
 4618      756C6C62 
 4618      7265616B 
 4618      5F637572 
 4619              	.LASF224:
 4620 0b50 6368756B 		.ascii	"chuk_control_type\000"
 4620      5F636F6E 
 4620      74726F6C 
 4620      5F747970 
 4620      6500
 4621              	.LASF65:
 4622 0b62 725F6375 		.ascii	"r_current\000"
 4622      7272656E 
 4622      7400
 4623              	.LASF84:
 4624 0b6c 6D61696E 		.ascii	"mainthread\000"
 4624      74687265 
 4624      616400
 4625              	.LASF276:
 4626 0b77 6D656D73 		.ascii	"memset\000"
 4626      657400
 4627              	.LASF128:
 4628 0b7e 6C5F696E 		.ascii	"l_in_current_min\000"
 4628      5F637572 
 4628      72656E74 
 4628      5F6D696E 
 4628      00
 4629              	.LASF60:
 4630 0b8f 725F7175 		.ascii	"r_queue\000"
 4630      65756500 
 4631              	.LASF162:
 4632 0b97 735F7069 		.ascii	"s_pid_min_rpm\000"
 4632      645F6D69 
 4632      6E5F7270 
 4632      6D00
 4633              	.LASF154:
 4634 0ba5 736C5F63 		.ascii	"sl_cycle_int_rpm_br\000"
 4634      79636C65 
 4634      5F696E74 
 4634      5F72706D 
 4634      5F627200 
 4635              	.LASF207:
 4636 0bb9 4144435F 		.ascii	"ADC_CTRL_TYPE_CURRENT_REV_BUTTON\000"
 4636      4354524C 
 4636      5F545950 
 4636      455F4355 
ARM GAS  C:\Users\IDONNO~1\AppData\Local\Temp\ccKMQqwp.s 			page 92


 4636      5252454E 
 4637              	.LASF82:
 4638 0bda 726C6973 		.ascii	"rlist\000"
 4638      7400
 4639              	.LASF23:
 4640 0be0 746D6F64 		.ascii	"tmode_t\000"
 4640      655F7400 
 4641              	.LASF141:
 4642 0be8 6C5F7465 		.ascii	"l_temp_motor_end\000"
 4642      6D705F6D 
 4642      6F746F72 
 4642      5F656E64 
 4642      00
 4643              	.LASF76:
 4644 0bf9 76745F73 		.ascii	"vt_systime\000"
 4644      79737469 
 4644      6D6500
 4645              	.LASF146:
 4646 0c04 6C6F5F69 		.ascii	"lo_in_current_max\000"
 4646      6E5F6375 
 4646      7272656E 
 4646      745F6D61 
 4646      7800
 4647              	.LASF64:
 4648 0c16 725F6F6C 		.ascii	"r_older\000"
 4648      64657200 
 4649              	.LASF94:
 4650 0c1e 746D5F63 		.ascii	"tm_calibration_t\000"
 4650      616C6962 
 4650      72617469 
 4650      6F6E5F74 
 4650      00
 4651              	.LASF103:
 4652 0c2f 735F7175 		.ascii	"s_queue\000"
 4652      65756500 
 4653              	.LASF168:
 4654 0c37 63635F67 		.ascii	"cc_gain\000"
 4654      61696E00 
 4655              	.LASF194:
 4656 0c3f 68797374 		.ascii	"hyst\000"
 4656      00
 4657              	.LASF134:
 4658 0c44 6C5F6D69 		.ascii	"l_min_vin\000"
 4658      6E5F7669 
 4658      6E00
 4659              	.LASF4:
 4660 0c4e 73686F72 		.ascii	"short int\000"
 4660      7420696E 
 4660      7400
 4661              	.LASF213:
 4662 0c58 6164635F 		.ascii	"adc_control_type\000"
 4662      636F6E74 
 4662      726F6C5F 
 4662      74797065 
 4662      00
 4663              	.LASF20:
 4664 0c69 75696E74 		.ascii	"uint64_t\000"
ARM GAS  C:\Users\IDONNO~1\AppData\Local\Temp\ccKMQqwp.s 			page 93


 4664      36345F74 
 4664      00
 4665              	.LASF105:
 4666 0c72 63685F6D 		.ascii	"ch_mutex\000"
 4666      75746578 
 4666      00
 4667              	.LASF253:
 4668 0c7b 636F6E66 		.ascii	"conf_general_read_mc_configuration\000"
 4668      5F67656E 
 4668      6572616C 
 4668      5F726561 
 4668      645F6D63 
 4669              	.LASF137:
 4670 0c9e 6C5F7270 		.ascii	"l_rpm_lim_neg_torque\000"
 4670      6D5F6C69 
 4670      6D5F6E65 
 4670      675F746F 
 4670      72717565 
 4671              	.LASF262:
 4672 0cb3 6F6B5F73 		.ascii	"ok_steps\000"
 4672      74657073 
 4672      00
 4673              	.LASF61:
 4674 0cbc 725F7072 		.ascii	"r_prio\000"
 4674      696F00
 4675              	.LASF78:
 4676 0cc3 63685F73 		.ascii	"ch_system_debug\000"
 4676      79737465 
 4676      6D5F6465 
 4676      62756700 
 4677              	.LASF88:
 4678 0cd3 454E4142 		.ascii	"ENABLE\000"
 4678      4C4500
 4679              	.LASF198:
 4680 0cda 73616665 		.ascii	"safe_start\000"
 4680      5F737461 
 4680      727400
 4681              	.LASF177:
 4682 0ce5 4150505F 		.ascii	"APP_PPM_UART\000"
 4682      50504D5F 
 4682      55415254 
 4682      00
 4683              	.LASF185:
 4684 0cf2 50504D5F 		.ascii	"PPM_CTRL_TYPE_CURRENT_NOREV\000"
 4684      4354524C 
 4684      5F545950 
 4684      455F4355 
 4684      5252454E 
 4685              	.LASF152:
 4686 0d0e 736C5F63 		.ascii	"sl_cycle_int_limit\000"
 4686      79636C65 
 4686      5F696E74 
 4686      5F6C696D 
 4686      697400
 4687              	.LASF172:
 4688 0d21 6D635F63 		.ascii	"mc_configuration\000"
 4688      6F6E6669 
ARM GAS  C:\Users\IDONNO~1\AppData\Local\Temp\ccKMQqwp.s 			page 94


 4688      67757261 
 4688      74696F6E 
 4688      00
 4689              	.LASF245:
 4690 0d32 464C4153 		.ascii	"FLASH_ERROR_PROGRAM\000"
 4690      485F4552 
 4690      524F525F 
 4690      50524F47 
 4690      52414D00 
 4691              	.LASF138:
 4692 0d46 6C5F7465 		.ascii	"l_temp_fet_start\000"
 4692      6D705F66 
 4692      65745F73 
 4692      74617274 
 4692      00
 4693              	.LASF126:
 4694 0d57 6C5F6375 		.ascii	"l_current_min\000"
 4694      7272656E 
 4694      745F6D69 
 4694      6E00
 4695              	.LASF83:
 4696 0d65 76746C69 		.ascii	"vtlist\000"
 4696      737400
 4697              	.LASF259:
 4698 0d6c 6C6F775F 		.ascii	"low_duty\000"
 4698      64757479 
 4698      00
 4699              	.LASF169:
 4700 0d75 63635F72 		.ascii	"cc_ramp_step_max\000"
 4700      616D705F 
 4700      73746570 
 4700      5F6D6178 
 4700      00
 4701              	.LASF179:
 4702 0d86 4150505F 		.ascii	"APP_NUNCHUK\000"
 4702      4E554E43 
 4702      48554B00 
 4703              	.LASF110:
 4704 0d92 6D757465 		.ascii	"mutex_t\000"
 4704      785F7400 
 4705              	.LASF25:
 4706 0d9a 74726566 		.ascii	"trefs_t\000"
 4706      735F7400 
 4707              	.LASF53:
 4708 0da2 74687265 		.ascii	"threads_list_t\000"
 4708      6164735F 
 4708      6C697374 
 4708      5F7400
 4709              	.LASF81:
 4710 0db1 63685F73 		.ascii	"ch_system\000"
 4710      79737465 
 4710      6D00
 4711              	.LASF210:
 4712 0dbb 4144435F 		.ascii	"ADC_CTRL_TYPE_DUTY\000"
 4712      4354524C 
 4712      5F545950 
 4712      455F4455 
ARM GAS  C:\Users\IDONNO~1\AppData\Local\Temp\ccKMQqwp.s 			page 95


 4712      545900
 4713              	.LASF19:
 4714 0dce 75696E74 		.ascii	"uint32_t\000"
 4714      33325F74 
 4714      00
 4715              	.LASF212:
 4716 0dd7 4144435F 		.ascii	"ADC_CTRL_TYPE_DUTY_REV_BUTTON\000"
 4716      4354524C 
 4716      5F545950 
 4716      455F4455 
 4716      54595F52 
 4717              	.LASF145:
 4718 0df5 6C6F5F63 		.ascii	"lo_current_min\000"
 4718      75727265 
 4718      6E745F6D 
 4718      696E00
 4719              	.LASF199:
 4720 0e04 72706D5F 		.ascii	"rpm_lim_start\000"
 4720      6C696D5F 
 4720      73746172 
 4720      7400
 4721              	.LASF226:
 4722 0e12 72616D70 		.ascii	"ramp_time_neg\000"
 4722      5F74696D 
 4722      655F6E65 
 4722      6700
 4723              	.LASF219:
 4724 0e20 75706461 		.ascii	"update_rate_hz\000"
 4724      74655F72 
 4724      6174655F 
 4724      687A00
 4725              	.LASF95:
 4726 0e2f 7264796D 		.ascii	"rdymsg\000"
 4726      736700
 4727              	.LASF6:
 4728 0e36 73686F72 		.ascii	"short unsigned int\000"
 4728      7420756E 
 4728      7369676E 
 4728      65642069 
 4728      6E7400
 4729              	.LASF178:
 4730 0e49 4150505F 		.ascii	"APP_ADC_UART\000"
 4730      4144435F 
 4730      55415254 
 4730      00
 4731              	.LASF120:
 4732 0e56 6D635F6D 		.ascii	"mc_motor_type\000"
 4732      6F746F72 
 4732      5F747970 
 4732      6500
 4733              	.LASF80:
 4734 0e64 63685F73 		.ascii	"ch_system_t\000"
 4734      79737465 
 4734      6D5F7400 
 4735              	.LASF273:
 4736 0e70 474E5520 		.ascii	"GNU C99 5.2.1 20151202 (release) [ARM/embedded-5-br"
 4736      43393920 
ARM GAS  C:\Users\IDONNO~1\AppData\Local\Temp\ccKMQqwp.s 			page 96


 4736      352E322E 
 4736      31203230 
 4736      31353132 
 4737 0ea3 616E6368 		.ascii	"anch revision 231848] -mcpu=cortex-m4 -mfloat-abi=h"
 4737      20726576 
 4737      6973696F 
 4737      6E203233 
 4737      31383438 
 4738 0ed6 61726420 		.ascii	"ard -mfpu=fpv4-sp-d16 -mno-thumb-interwork -mthumb "
 4738      2D6D6670 
 4738      753D6670 
 4738      76342D73 
 4738      702D6431 
 4739 0f09 2D676764 		.ascii	"-ggdb -O2 -std=gnu99 -fomit-frame-pointer -falign-f"
 4739      62202D4F 
 4739      32202D73 
 4739      74643D67 
 4739      6E753939 
 4740 0f3c 756E6374 		.ascii	"unctions=16 -ffunction-sections -fdata-sections -fn"
 4740      696F6E73 
 4740      3D313620 
 4740      2D666675 
 4740      6E637469 
 4741 0f6f 6F2D636F 		.ascii	"o-common -fsingle-precision-constant\000"
 4741      6D6D6F6E 
 4741      202D6673 
 4741      696E676C 
 4741      652D7072 
 4742              	.LASF220:
 4743 0f94 6164635F 		.ascii	"adc_config\000"
 4743      636F6E66 
 4743      696700
 4744              	.LASF7:
 4745 0f9f 5F5F696E 		.ascii	"__int32_t\000"
 4745      7433325F 
 4745      7400
 4746              	.LASF161:
 4747 0fa9 735F7069 		.ascii	"s_pid_kd\000"
 4747      645F6B64 
 4747      00
 4748              	.LASF160:
 4749 0fb2 735F7069 		.ascii	"s_pid_ki\000"
 4749      645F6B69 
 4749      00
 4750              	.LASF159:
 4751 0fbb 735F7069 		.ascii	"s_pid_kp\000"
 4751      645F6B70 
 4751      00
 4752              	.LASF39:
 4753 0fc4 705F6E61 		.ascii	"p_name\000"
 4753      6D6500
 4754              	.LASF108:
 4755 0fcb 6D5F6E65 		.ascii	"m_next\000"
 4755      787400
 4756              	.LASF156:
 4757 0fd2 68616C6C 		.ascii	"hall_dir\000"
 4757      5F646972 
ARM GAS  C:\Users\IDONNO~1\AppData\Local\Temp\ccKMQqwp.s 			page 97


 4757      00
 4758              	.LASF165:
 4759 0fdb 705F7069 		.ascii	"p_pid_kd\000"
 4759      645F6B64 
 4759      00
 4760              	.LASF166:
 4761 0fe4 63635F73 		.ascii	"cc_startup_boost_duty\000"
 4761      74617274 
 4761      75705F62 
 4761      6F6F7374 
 4761      5F647574 
 4762              	.LASF264:
 4763 0ffa 56697274 		.ascii	"VirtAddVarTab\000"
 4763      41646456 
 4763      61725461 
 4763      6200
 4764              	.LASF244:
 4765 1008 464C4153 		.ascii	"FLASH_ERROR_WRP\000"
 4765      485F4552 
 4765      524F525F 
 4765      57525000 
 4766              	.LASF47:
 4767 1018 705F6D73 		.ascii	"p_msg\000"
 4767      6700
 4768              	.LASF40:
 4769 101e 705F7374 		.ascii	"p_state\000"
 4769      61746500 
 4770              		.ident	"GCC: (GNU Tools for ARM Embedded Processors) 5.2.1 20151202 (release) [ARM/embedded-5-bran
ARM GAS  C:\Users\IDONNO~1\AppData\Local\Temp\ccKMQqwp.s 			page 98


DEFINED SYMBOLS
                            *ABS*:00000000 conf_general.c
C:\Users\IDONNO~1\AppData\Local\Temp\ccKMQqwp.s:22     .text.conf_general_init:00000000 $t
C:\Users\IDONNO~1\AppData\Local\Temp\ccKMQqwp.s:28     .text.conf_general_init:00000000 conf_general_init
C:\Users\IDONNO~1\AppData\Local\Temp\ccKMQqwp.s:91     .text.conf_general_init:00000048 $d
C:\Users\IDONNO~1\AppData\Local\Temp\ccKMQqwp.s:98     .text.conf_general_read_app_configuration:00000000 $t
C:\Users\IDONNO~1\AppData\Local\Temp\ccKMQqwp.s:104    .text.conf_general_read_app_configuration:00000000 conf_general_read_app_configuration
C:\Users\IDONNO~1\AppData\Local\Temp\ccKMQqwp.s:290    .text.conf_general_read_app_configuration:000000f0 $d
C:\Users\IDONNO~1\AppData\Local\Temp\ccKMQqwp.s:302    .text.conf_general_store_app_configuration:00000000 $t
C:\Users\IDONNO~1\AppData\Local\Temp\ccKMQqwp.s:308    .text.conf_general_store_app_configuration:00000000 conf_general_store_app_configuration
C:\Users\IDONNO~1\AppData\Local\Temp\ccKMQqwp.s:390    .text.conf_general_read_mc_configuration:00000000 $t
C:\Users\IDONNO~1\AppData\Local\Temp\ccKMQqwp.s:396    .text.conf_general_read_mc_configuration:00000000 conf_general_read_mc_configuration
C:\Users\IDONNO~1\AppData\Local\Temp\ccKMQqwp.s:613    .text.conf_general_read_mc_configuration:00000118 $d
C:\Users\IDONNO~1\AppData\Local\Temp\ccKMQqwp.s:642    .text.conf_general_store_mc_configuration:00000000 $t
C:\Users\IDONNO~1\AppData\Local\Temp\ccKMQqwp.s:648    .text.conf_general_store_mc_configuration:00000000 conf_general_store_mc_configuration
C:\Users\IDONNO~1\AppData\Local\Temp\ccKMQqwp.s:728    .text.conf_general_detect_motor_param:00000000 $t
C:\Users\IDONNO~1\AppData\Local\Temp\ccKMQqwp.s:734    .text.conf_general_detect_motor_param:00000000 conf_general_detect_motor_param
C:\Users\IDONNO~1\AppData\Local\Temp\ccKMQqwp.s:755    .bss.VirtAddVarTab:00000000 VirtAddVarTab
C:\Users\IDONNO~1\AppData\Local\Temp\ccKMQqwp.s:751    .bss.VirtAddVarTab:00000000 $d
                     .debug_frame:00000010 $d

UNDEFINED SYMBOLS
memset
FLASH_Unlock
FLASH_ClearFlag
EE_Init
EE_ReadVariable
utils_sys_lock_cnt
RCC_APB1PeriphClockCmd
EE_WriteVariable
utils_sys_unlock_cnt
