ARM GAS  C:\Users\IDONNO~1.SON\AppData\Local\Temp\ccijx7b4.s 			page 1


   1              		.syntax unified
   2              		.cpu cortex-m4
   3              		.eabi_attribute 27, 1
   4              		.eabi_attribute 28, 1
   5              		.fpu fpv4-sp-d16
   6              		.eabi_attribute 20, 1
   7              		.eabi_attribute 21, 1
   8              		.eabi_attribute 23, 3
   9              		.eabi_attribute 24, 1
  10              		.eabi_attribute 25, 1
  11              		.eabi_attribute 26, 1
  12              		.eabi_attribute 30, 2
  13              		.eabi_attribute 34, 1
  14              		.eabi_attribute 18, 4
  15              		.thumb
  16              		.syntax unified
  17              		.file	"crt1.c"
  18              		.text
  19              	.Ltext0:
  20              		.cfi_sections	.debug_frame
  21              		.section	.text.__core_init,"ax",%progbits
  22              		.align	2
  23              		.p2align 4,,15
  24              		.weak	__core_init
  25              		.thumb
  26              		.thumb_func
  27              		.type	__core_init, %function
  28              	__core_init:
  29              	.LFB119:
  30              		.cfi_startproc
  31              		@ args = 0, pretend = 0, frame = 0
  32              		@ frame_needed = 0, uses_anonymous_args = 0
  33              		@ link register save eliminated.
  34 0000 7047     		bx	lr
  35              		.cfi_endproc
  36              	.LFE119:
  37              		.size	__core_init, .-__core_init
  38 0002 00BF     		.section	.text.__early_init,"ax",%progbits
  39              		.align	2
  40              		.p2align 4,,15
  41              		.weak	__early_init
  42              		.thumb
  43              		.thumb_func
  44              		.type	__early_init, %function
  45              	__early_init:
  46              	.LFB117:
  47              		.cfi_startproc
  48              		@ args = 0, pretend = 0, frame = 0
  49              		@ frame_needed = 0, uses_anonymous_args = 0
  50              		@ link register save eliminated.
  51 0000 7047     		bx	lr
  52              		.cfi_endproc
  53              	.LFE117:
  54              		.size	__early_init, .-__early_init
  55 0002 00BF     		.section	.text.__late_init,"ax",%progbits
  56              		.align	2
  57              		.p2align 4,,15
ARM GAS  C:\Users\IDONNO~1.SON\AppData\Local\Temp\ccijx7b4.s 			page 2


  58              		.weak	__late_init
  59              		.thumb
  60              		.thumb_func
  61              		.type	__late_init, %function
  62              	__late_init:
  63              	.LFB114:
  64              		.file 1 "lib/ChibiOS_3.0.2/os/common/ports/ARMCMx/compilers/GCC/crt1.c"
  65              		.loc 1 75 0
  66              		.cfi_startproc
  67              		@ args = 0, pretend = 0, frame = 0
  68              		@ frame_needed = 0, uses_anonymous_args = 0
  69              		@ link register save eliminated.
  70 0000 7047     		bx	lr
  71              		.cfi_endproc
  72              	.LFE114:
  73              		.size	__late_init, .-__late_init
  74 0002 00BF     		.section	.text.__default_exit,"ax",%progbits
  75              		.align	2
  76              		.p2align 4,,15
  77              		.weak	__default_exit
  78              		.thumb
  79              		.thumb_func
  80              		.type	__default_exit, %function
  81              	__default_exit:
  82              	.LFB115:
  83              		.loc 1 88 0
  84              		.cfi_startproc
  85              		@ Volatile: function does not return.
  86              		@ args = 0, pretend = 0, frame = 0
  87              		@ frame_needed = 0, uses_anonymous_args = 0
  88              		@ link register save eliminated.
  89              	.L5:
  90 0000 FEE7     		b	.L5
  91              		.cfi_endproc
  92              	.LFE115:
  93              		.size	__default_exit, .-__default_exit
  94 0002 00BF     		.text
  95              	.Letext0:
  96              		.file 2 "c:\\program files (x86)\\gnu tools arm embedded\\5.4 2016q2\\arm-none-eabi\\include\\mach
  97              		.file 3 "c:\\program files (x86)\\gnu tools arm embedded\\5.4 2016q2\\arm-none-eabi\\include\\sys\
  98              		.file 4 "lib/ChibiOS_3.0.2/os/ext/CMSIS/include/core_cm4.h"