ARM GAS  C:\Users\IDONNO~1\AppData\Local\Temp\cc8Y9qO6.s 			page 1


   1              		.syntax unified
   2              		.cpu cortex-m4
   3              		.eabi_attribute 27, 1
   4              		.eabi_attribute 28, 1
   5              		.fpu fpv4-sp-d16
   6              		.eabi_attribute 20, 1
   7              		.eabi_attribute 21, 1
   8              		.eabi_attribute 23, 3
   9              		.eabi_attribute 24, 1
  10              		.eabi_attribute 25, 1
  11              		.eabi_attribute 26, 1
  12              		.eabi_attribute 30, 2
  13              		.eabi_attribute 34, 1
  14              		.eabi_attribute 18, 4
  15              		.thumb
  16              		.syntax unified
  17              		.file	"eeprom.c"
  18              		.text
  19              	.Ltext0:
  20              		.cfi_sections	.debug_frame
  21              		.section	.text.EE_VerifyPageFullWriteVariable,"ax",%progbits
  22              		.align	2
  23              		.p2align 4,,15
  24              		.thumb
  25              		.thumb_func
  26              		.type	EE_VerifyPageFullWriteVariable, %function
  27              	EE_VerifyPageFullWriteVariable:
  28              	.LFB224:
  29              		.file 1 "src/core/eeprom.c"
  30              		.loc 1 465 0
  31              		.cfi_startproc
  32              		@ args = 0, pretend = 0, frame = 0
  33              		@ frame_needed = 0, uses_anonymous_args = 0
  34              	.LVL0:
  35 0000 38B5     		push	{r3, r4, r5, lr}
  36              		.cfi_def_cfa_offset 16
  37              		.cfi_offset 3, -16
  38              		.cfi_offset 4, -12
  39              		.cfi_offset 5, -8
  40              		.cfi_offset 14, -4
  41              	.LBB9:
  42              	.LBB10:
  43              		.loc 1 397 0
  44 0002 1B4A     		ldr	r2, .L22
  45              		.loc 1 400 0
  46 0004 1B4B     		ldr	r3, .L22+4
  47              		.loc 1 397 0
  48 0006 1288     		ldrh	r2, [r2]
  49              		.loc 1 400 0
  50 0008 1B88     		ldrh	r3, [r3]
  51 000a 9CB2     		uxth	r4, r3
  52              		.loc 1 397 0
  53 000c 92B2     		uxth	r2, r2
  54              	.LVL1:
  55              		.loc 1 406 0
  56 000e ECB9     		cbnz	r4, .L2
  57              		.loc 1 423 0
ARM GAS  C:\Users\IDONNO~1\AppData\Local\Temp\cc8Y9qO6.s 			page 2


  58 0010 4EF6EE63 		movw	r3, #61166
  59 0014 D31A     		subs	r3, r2, r3
  60 0016 18BF     		it	ne
  61 0018 0123     		movne	r3, #1
  62              	.L3:
  63              	.LVL2:
  64              	.LBE10:
  65              	.LBE9:
  66              		.loc 1 480 0
  67 001a 03F50054 		add	r4, r3, #8192
  68              		.loc 1 483 0
  69 001e 164A     		ldr	r2, .L22+8
  70 0020 0133     		adds	r3, r3, #1
  71              		.loc 1 480 0
  72 0022 0134     		adds	r4, r4, #1
  73              		.loc 1 483 0
  74 0024 9B03     		lsls	r3, r3, #14
  75              		.loc 1 480 0
  76 0026 A403     		lsls	r4, r4, #14
  77              	.LVL3:
  78              		.loc 1 483 0
  79 0028 1A44     		add	r2, r2, r3
  80              	.LVL4:
  81              		.loc 1 486 0
  82 002a 9442     		cmp	r4, r2
  83 002c 03D3     		bcc	.L7
  84 002e 17E0     		b	.L11
  85              	.L5:
  86              		.loc 1 506 0
  87 0030 0434     		adds	r4, r4, #4
  88              	.LVL5:
  89              		.loc 1 486 0
  90 0032 A242     		cmp	r2, r4
  91 0034 14D9     		bls	.L11
  92              	.L7:
  93              		.loc 1 489 0
  94 0036 2368     		ldr	r3, [r4]
  95 0038 0133     		adds	r3, r3, #1
  96 003a F9D1     		bne	.L5
  97 003c 0546     		mov	r5, r0
  98              		.loc 1 492 0
  99 003e 2046     		mov	r0, r4
 100              	.LVL6:
 101 0040 FFF7FEFF 		bl	FLASH_ProgramHalfWord
 102              	.LVL7:
 103              		.loc 1 494 0
 104 0044 0928     		cmp	r0, #9
 105 0046 0DD0     		beq	.L21
 106              	.LVL8:
 107              	.L19:
 108              		.loc 1 501 0
 109 0048 80B2     		uxth	r0, r0
 110              	.LVL9:
 111 004a 38BD     		pop	{r3, r4, r5, pc}
 112              	.LVL10:
 113              	.L2:
 114              	.LBB12:
ARM GAS  C:\Users\IDONNO~1\AppData\Local\Temp\cc8Y9qO6.s 			page 3


 115              	.LBB11:
 116              		.loc 1 418 0
 117 004c 32B9     		cbnz	r2, .L10
 118              		.loc 1 423 0
 119 004e 4EF6EE63 		movw	r3, #61166
 120 0052 E31A     		subs	r3, r4, r3
 121 0054 B3FA83F3 		clz	r3, r3
 122 0058 5B09     		lsrs	r3, r3, #5
 123 005a DEE7     		b	.L3
 124              	.L10:
 125              	.LBE11:
 126              	.LBE12:
 127              		.loc 1 476 0
 128 005c AB20     		movs	r0, #171
 129              	.LVL11:
 130 005e 38BD     		pop	{r3, r4, r5, pc}
 131              	.LVL12:
 132              	.L11:
 133              		.loc 1 511 0
 134 0060 8020     		movs	r0, #128
 135              	.LVL13:
 136 0062 38BD     		pop	{r3, r4, r5, pc}
 137              	.LVL14:
 138              	.L21:
 139              		.loc 1 499 0
 140 0064 2946     		mov	r1, r5
 141 0066 A01C     		adds	r0, r4, #2
 142              	.LVL15:
 143 0068 FFF7FEFF 		bl	FLASH_ProgramHalfWord
 144              	.LVL16:
 145 006c ECE7     		b	.L19
 146              	.L23:
 147 006e 00BF     		.align	2
 148              	.L22:
 149 0070 00400008 		.word	134234112
 150 0074 00800008 		.word	134250496
 151 0078 FE3F0008 		.word	134234110
 152              		.cfi_endproc
 153              	.LFE224:
 154              		.size	EE_VerifyPageFullWriteVariable, .-EE_VerifyPageFullWriteVariable
 155              		.section	.text.EE_EraseSectorIfNotEmpty.constprop.1,"ax",%progbits
 156              		.align	2
 157              		.p2align 4,,15
 158              		.thumb
 159              		.thumb_func
 160              		.type	EE_EraseSectorIfNotEmpty.constprop.1, %function
 161              	EE_EraseSectorIfNotEmpty.constprop.1:
 162              	.LFB228:
 163              		.loc 1 618 0
 164              		.cfi_startproc
 165              		@ args = 0, pretend = 0, frame = 0
 166              		@ frame_needed = 0, uses_anonymous_args = 0
 167              	.LVL17:
 168 0000 10B5     		push	{r4, lr}
 169              		.cfi_def_cfa_offset 8
 170              		.cfi_offset 4, -8
 171              		.cfi_offset 14, -4
ARM GAS  C:\Users\IDONNO~1\AppData\Local\Temp\cc8Y9qO6.s 			page 4


 172              		.loc 1 618 0
 173 0002 0446     		mov	r4, r0
 174              		.loc 1 619 0
 175 0004 FFF7FEFF 		bl	flash_helper_get_sector_address
 176              	.LVL18:
 177 0008 00F57F52 		add	r2, r0, #16320
 178 000c 3F32     		adds	r2, r2, #63
 179 000e 0138     		subs	r0, r0, #1
 180              	.LVL19:
 181 0010 01E0     		b	.L27
 182              	.LVL20:
 183              	.L25:
 184              	.LBB13:
 185              		.loc 1 621 0
 186 0012 9042     		cmp	r0, r2
 187 0014 09D0     		beq	.L30
 188              	.LVL21:
 189              	.L27:
 190              		.loc 1 622 0
 191 0016 10F8013F 		ldrb	r3, [r0, #1]!	@ zero_extendqisi2
 192              	.LVL22:
 193 001a FF2B     		cmp	r3, #255
 194 001c F9D0     		beq	.L25
 195              		.loc 1 623 0
 196 001e 2046     		mov	r0, r4
 197              	.LVL23:
 198 0020 0221     		movs	r1, #2
 199 0022 FFF7FEFF 		bl	FLASH_EraseSector
 200              	.LVL24:
 201 0026 80B2     		uxth	r0, r0
 202 0028 10BD     		pop	{r4, pc}
 203              	.LVL25:
 204              	.L30:
 205              	.LBE13:
 206              		.loc 1 627 0
 207 002a 0920     		movs	r0, #9
 208              	.LVL26:
 209              		.loc 1 628 0
 210 002c 10BD     		pop	{r4, pc}
 211              		.cfi_endproc
 212              	.LFE228:
 213              		.size	EE_EraseSectorIfNotEmpty.constprop.1, .-EE_EraseSectorIfNotEmpty.constprop.1
 214 002e 00BF     		.section	.text.EE_Format,"ax",%progbits
 215              		.align	2
 216              		.p2align 4,,15
 217              		.thumb
 218              		.thumb_func
 219              		.type	EE_Format, %function
 220              	EE_Format:
 221              	.LFB222:
 222              		.loc 1 355 0
 223              		.cfi_startproc
 224              		@ args = 0, pretend = 0, frame = 0
 225              		@ frame_needed = 0, uses_anonymous_args = 0
 226              	.LVL27:
 227 0000 08B5     		push	{r3, lr}
 228              		.cfi_def_cfa_offset 8
ARM GAS  C:\Users\IDONNO~1\AppData\Local\Temp\cc8Y9qO6.s 			page 5


 229              		.cfi_offset 3, -8
 230              		.cfi_offset 14, -4
 231              		.loc 1 359 0
 232 0002 0820     		movs	r0, #8
 233 0004 FFF7FEFF 		bl	EE_EraseSectorIfNotEmpty.constprop.1
 234              	.LVL28:
 235 0008 C0B2     		uxtb	r0, r0
 236              	.LVL29:
 237              		.loc 1 362 0
 238 000a 0928     		cmp	r0, #9
 239 000c 00D0     		beq	.L36
 240              	.LVL30:
 241              	.L32:
 242              		.loc 1 381 0
 243 000e 08BD     		pop	{r3, pc}
 244              	.LVL31:
 245              	.L36:
 246              		.loc 1 368 0
 247 0010 0021     		movs	r1, #0
 248 0012 0548     		ldr	r0, .L37
 249              	.LVL32:
 250 0014 FFF7FEFF 		bl	FLASH_ProgramHalfWord
 251              	.LVL33:
 252              		.loc 1 371 0
 253 0018 0928     		cmp	r0, #9
 254 001a F8D1     		bne	.L32
 255              	.LBB16:
 256              		.loc 1 377 0
 257 001c 1020     		movs	r0, #16
 258              	.LVL34:
 259 001e FFF7FEFF 		bl	EE_EraseSectorIfNotEmpty.constprop.1
 260              	.LVL35:
 261 0022 C0B2     		uxtb	r0, r0
 262 0024 F3E7     		b	.L32
 263              	.L38:
 264 0026 00BF     		.align	2
 265              	.L37:
 266 0028 00400008 		.word	134234112
 267              	.LBE16:
 268              		.cfi_endproc
 269              	.LFE222:
 270              		.size	EE_Format, .-EE_Format
 271              		.section	.text.EE_ReadVariable,"ax",%progbits
 272              		.align	2
 273              		.p2align 4,,15
 274              		.global	EE_ReadVariable
 275              		.thumb
 276              		.thumb_func
 277              		.type	EE_ReadVariable, %function
 278              	EE_ReadVariable:
 279              	.LFB220:
 280              		.loc 1 272 0
 281              		.cfi_startproc
 282              		@ args = 0, pretend = 0, frame = 0
 283              		@ frame_needed = 0, uses_anonymous_args = 0
 284              		@ link register save eliminated.
 285              	.LVL36:
ARM GAS  C:\Users\IDONNO~1\AppData\Local\Temp\cc8Y9qO6.s 			page 6


 286              	.LBB17:
 287              	.LBB18:
 288              		.loc 1 397 0
 289 0000 154B     		ldr	r3, .L52
 290              		.loc 1 400 0
 291 0002 164A     		ldr	r2, .L52+4
 292              		.loc 1 397 0
 293 0004 1B88     		ldrh	r3, [r3]
 294              		.loc 1 400 0
 295 0006 1288     		ldrh	r2, [r2]
 296              		.loc 1 397 0
 297 0008 9BB2     		uxth	r3, r3
 298              	.LVL37:
 299              	.LBE18:
 300              	.LBE17:
 301              		.loc 1 272 0
 302 000a 10B4     		push	{r4}
 303              		.cfi_def_cfa_offset 4
 304              		.cfi_offset 4, -4
 305              	.LBB20:
 306              	.LBB19:
 307              		.loc 1 436 0
 308 000c 2BB1     		cbz	r3, .L46
 309 000e 92B2     		uxth	r2, r2
 310              		.loc 1 440 0
 311 0010 B2B9     		cbnz	r2, .L51
 312 0012 134B     		ldr	r3, .L52+8
 313              	.LVL38:
 314 0014 134C     		ldr	r4, .L52+12
 315 0016 1A46     		mov	r2, r3
 316              	.LVL39:
 317 0018 02E0     		b	.L40
 318              	.LVL40:
 319              	.L46:
 320              		.loc 1 436 0
 321 001a 134B     		ldr	r3, .L52+16
 322              	.LVL41:
 323 001c 134C     		ldr	r4, .L52+20
 324 001e 1A46     		mov	r2, r3
 325              	.LVL42:
 326              	.L40:
 327              	.LBE19:
 328              	.LBE20:
 329              		.loc 1 296 0
 330 0020 1288     		ldrh	r2, [r2]
 331 0022 92B2     		uxth	r2, r2
 332              	.LVL43:
 333              		.loc 1 299 0
 334 0024 9042     		cmp	r0, r2
 335 0026 04D1     		bne	.L42
 336 0028 0EE0     		b	.L44
 337              	.LVL44:
 338              	.L43:
 339              		.loc 1 296 0
 340 002a 1A88     		ldrh	r2, [r3]
 341 002c 92B2     		uxth	r2, r2
 342              	.LVL45:
ARM GAS  C:\Users\IDONNO~1\AppData\Local\Temp\cc8Y9qO6.s 			page 7


 343              		.loc 1 299 0
 344 002e 8242     		cmp	r2, r0
 345 0030 0AD0     		beq	.L44
 346              	.LVL46:
 347              	.L42:
 348              		.loc 1 312 0
 349 0032 043B     		subs	r3, r3, #4
 350              	.LVL47:
 351              		.loc 1 293 0
 352 0034 9C42     		cmp	r4, r3
 353 0036 F8D3     		bcc	.L43
 354              		.loc 1 274 0
 355 0038 0120     		movs	r0, #1
 356              	.LVL48:
 357              		.loc 1 318 0
 358 003a 5DF8044B 		ldr	r4, [sp], #4
 359              		.cfi_remember_state
 360              		.cfi_restore 4
 361              		.cfi_def_cfa_offset 0
 362 003e 7047     		bx	lr
 363              	.LVL49:
 364              	.L51:
 365              		.cfi_restore_state
 366              		.loc 1 283 0
 367 0040 AB20     		movs	r0, #171
 368              	.LVL50:
 369              		.loc 1 318 0
 370 0042 5DF8044B 		ldr	r4, [sp], #4
 371              		.cfi_remember_state
 372              		.cfi_restore 4
 373              		.cfi_def_cfa_offset 0
 374 0046 7047     		bx	lr
 375              	.LVL51:
 376              	.L44:
 377              		.cfi_restore_state
 378              		.loc 1 302 0
 379 0048 33F8023C 		ldrh	r3, [r3, #-2]
 380 004c 0B80     		strh	r3, [r1]	@ movhi
 381              	.LVL52:
 382              		.loc 1 305 0
 383 004e 0020     		movs	r0, #0
 384              	.LVL53:
 385              		.loc 1 318 0
 386 0050 5DF8044B 		ldr	r4, [sp], #4
 387              		.cfi_restore 4
 388              		.cfi_def_cfa_offset 0
 389 0054 7047     		bx	lr
 390              	.L53:
 391 0056 00BF     		.align	2
 392              	.L52:
 393 0058 00400008 		.word	134234112
 394 005c 00800008 		.word	134250496
 395 0060 FEBF0008 		.word	134266878
 396 0064 02800008 		.word	134250498
 397 0068 FE7F0008 		.word	134250494
 398 006c 02400008 		.word	134234114
 399              		.cfi_endproc
ARM GAS  C:\Users\IDONNO~1\AppData\Local\Temp\cc8Y9qO6.s 			page 8


 400              	.LFE220:
 401              		.size	EE_ReadVariable, .-EE_ReadVariable
 402              		.section	.text.EE_Init,"ax",%progbits
 403              		.align	2
 404              		.p2align 4,,15
 405              		.global	EE_Init
 406              		.thumb
 407              		.thumb_func
 408              		.type	EE_Init, %function
 409              	EE_Init:
 410              	.LFB219:
 411              		.loc 1 57 0
 412              		.cfi_startproc
 413              		@ args = 0, pretend = 0, frame = 0
 414              		@ frame_needed = 0, uses_anonymous_args = 0
 415              	.LVL54:
 416 0000 2DE9F041 		push	{r4, r5, r6, r7, r8, lr}
 417              		.cfi_def_cfa_offset 24
 418              		.cfi_offset 4, -24
 419              		.cfi_offset 5, -20
 420              		.cfi_offset 6, -16
 421              		.cfi_offset 7, -12
 422              		.cfi_offset 8, -8
 423              		.cfi_offset 14, -4
 424              		.loc 1 65 0
 425 0004 4C4D     		ldr	r5, .L103
 426              		.loc 1 67 0
 427 0006 4D4F     		ldr	r7, .L103+4
 428              		.loc 1 65 0
 429 0008 2C88     		ldrh	r4, [r5]
 430              		.loc 1 67 0
 431 000a 3B88     		ldrh	r3, [r7]
 432              		.loc 1 65 0
 433 000c A4B2     		uxth	r4, r4
 434              	.LVL55:
 435              		.loc 1 70 0
 436 000e 4EF6EE62 		movw	r2, #61166
 437 0012 9442     		cmp	r4, r2
 438              		.loc 1 67 0
 439 0014 9BB2     		uxth	r3, r3
 440              	.LVL56:
 441              		.loc 1 70 0
 442 0016 3FD0     		beq	.L56
 443 0018 4FF6FF76 		movw	r6, #65535
 444 001c B442     		cmp	r4, r6
 445 001e 2BD0     		beq	.L57
 446 0020 24B1     		cbz	r4, .L100
 447              	.L91:
 448              		.loc 1 249 0
 449 0022 FFF7FEFF 		bl	EE_Format
 450              	.LVL57:
 451 0026 80B2     		uxth	r0, r0
 452              	.LVL58:
 453              	.L61:
 454              		.loc 1 259 0
 455 0028 BDE8F081 		pop	{r4, r5, r6, r7, r8, pc}
 456              	.LVL59:
ARM GAS  C:\Users\IDONNO~1\AppData\Local\Temp\cc8Y9qO6.s 			page 9


 457              	.L100:
 458              		.loc 1 184 0
 459 002c 002B     		cmp	r3, #0
 460 002e F8D0     		beq	.L91
 461              		.loc 1 194 0
 462 0030 B342     		cmp	r3, r6
 463 0032 7BD0     		beq	.L96
 464 0034 424D     		ldr	r5, .L103+8
 465              		.loc 1 209 0
 466 0036 434F     		ldr	r7, .L103+12
 467              		.loc 1 216 0
 468 0038 DFF80C81 		ldr	r8, .L103+16
 469 003c 01E0     		b	.L71
 470              	.LVL60:
 471              	.L73:
 472              		.loc 1 207 0
 473 003e A02C     		cmp	r4, #160
 474 0040 60D0     		beq	.L101
 475              	.LVL61:
 476              	.L71:
 477              		.loc 1 209 0
 478 0042 3B88     		ldrh	r3, [r7]
 479 0044 35F8022F 		ldrh	r2, [r5, #2]!
 480              		.loc 1 216 0
 481 0048 3F49     		ldr	r1, .L103+16
 482              		.loc 1 209 0
 483 004a 9BB2     		uxth	r3, r3
 484 004c 9342     		cmp	r3, r2
 485              		.loc 1 211 0
 486 004e 08BF     		it	eq
 487 0050 A6B2     		uxtheq	r6, r4
 488              	.LVL62:
 489              		.loc 1 213 0
 490 0052 33B2     		sxth	r3, r6
 491 0054 9C42     		cmp	r4, r3
 492              		.loc 1 216 0
 493 0056 1046     		mov	r0, r2
 494 0058 04F10104 		add	r4, r4, #1
 495              	.LVL63:
 496              		.loc 1 213 0
 497 005c EFD0     		beq	.L73
 498              		.loc 1 216 0
 499 005e FFF7FEFF 		bl	EE_ReadVariable
 500              	.LVL64:
 501              		.loc 1 218 0
 502 0062 0128     		cmp	r0, #1
 503 0064 EBD0     		beq	.L73
 504              		.loc 1 221 0
 505 0066 B8F80010 		ldrh	r1, [r8]
 506 006a 2888     		ldrh	r0, [r5]
 507              	.LVL65:
 508 006c FFF7FEFF 		bl	EE_VerifyPageFullWriteVariable
 509              	.LVL66:
 510              		.loc 1 223 0
 511 0070 0928     		cmp	r0, #9
 512 0072 E4D0     		beq	.L73
 513 0074 BDE8F081 		pop	{r4, r5, r6, r7, r8, pc}
ARM GAS  C:\Users\IDONNO~1\AppData\Local\Temp\cc8Y9qO6.s 			page 10


 514              	.LVL67:
 515              	.L57:
 516              		.loc 1 73 0
 517 0078 002B     		cmp	r3, #0
 518 007a 4AD0     		beq	.L95
 519              		.loc 1 83 0
 520 007c 9342     		cmp	r3, r2
 521 007e D0D1     		bne	.L91
 522              		.loc 1 86 0
 523 0080 0820     		movs	r0, #8
 524 0082 FFF7FEFF 		bl	EE_EraseSectorIfNotEmpty.constprop.1
 525              	.LVL68:
 526              		.loc 1 88 0
 527 0086 0928     		cmp	r0, #9
 528 0088 CED1     		bne	.L61
 529              		.loc 1 93 0
 530 008a 3846     		mov	r0, r7
 531              	.LVL69:
 532 008c 0021     		movs	r1, #0
 533 008e FFF7FEFF 		bl	FLASH_ProgramHalfWord
 534              	.LVL70:
 535 0092 80B2     		uxth	r0, r0
 536 0094 BDE8F081 		pop	{r4, r5, r6, r7, r8, pc}
 537              	.LVL71:
 538              	.L56:
 539              		.loc 1 113 0
 540 0098 23BB     		cbnz	r3, .L62
 541 009a 294D     		ldr	r5, .L103+8
 542              		.loc 1 118 0
 543 009c 2B4E     		ldr	r6, .L103+20
 544              		.loc 1 125 0
 545 009e 2A4F     		ldr	r7, .L103+16
 546              		.loc 1 113 0
 547 00a0 1C46     		mov	r4, r3
 548              	.LVL72:
 549 00a2 4FF6FF78 		movw	r8, #65535
 550 00a6 01E0     		b	.L65
 551              	.LVL73:
 552              	.L67:
 553              		.loc 1 116 0
 554 00a8 A02C     		cmp	r4, #160
 555 00aa 37D0     		beq	.L102
 556              	.LVL74:
 557              	.L65:
 558              		.loc 1 118 0
 559 00ac 3388     		ldrh	r3, [r6]
 560 00ae 35F8022F 		ldrh	r2, [r5, #2]!
 561              		.loc 1 125 0
 562 00b2 2549     		ldr	r1, .L103+16
 563              		.loc 1 118 0
 564 00b4 9BB2     		uxth	r3, r3
 565 00b6 9342     		cmp	r3, r2
 566              		.loc 1 120 0
 567 00b8 08BF     		it	eq
 568 00ba 1FFA84F8 		uxtheq	r8, r4
 569              	.LVL75:
 570              		.loc 1 122 0
ARM GAS  C:\Users\IDONNO~1\AppData\Local\Temp\cc8Y9qO6.s 			page 11


 571 00be 0FFA88F3 		sxth	r3, r8
 572 00c2 9C42     		cmp	r4, r3
 573              		.loc 1 125 0
 574 00c4 1046     		mov	r0, r2
 575 00c6 04F10104 		add	r4, r4, #1
 576              	.LVL76:
 577              		.loc 1 122 0
 578 00ca EDD0     		beq	.L67
 579              		.loc 1 125 0
 580 00cc FFF7FEFF 		bl	EE_ReadVariable
 581              	.LVL77:
 582              		.loc 1 127 0
 583 00d0 0128     		cmp	r0, #1
 584 00d2 E9D0     		beq	.L67
 585              		.loc 1 130 0
 586 00d4 3988     		ldrh	r1, [r7]
 587 00d6 2888     		ldrh	r0, [r5]
 588              	.LVL78:
 589 00d8 FFF7FEFF 		bl	EE_VerifyPageFullWriteVariable
 590              	.LVL79:
 591              		.loc 1 132 0
 592 00dc 0928     		cmp	r0, #9
 593 00de E3D0     		beq	.L67
 594 00e0 BDE8F081 		pop	{r4, r5, r6, r7, r8, pc}
 595              	.LVL80:
 596              	.L62:
 597              		.loc 1 154 0
 598 00e4 4FF6FF72 		movw	r2, #65535
 599 00e8 9342     		cmp	r3, r2
 600 00ea 9AD1     		bne	.L91
 601              		.loc 1 157 0
 602 00ec 1020     		movs	r0, #16
 603 00ee FFF7FEFF 		bl	EE_EraseSectorIfNotEmpty.constprop.1
 604              	.LVL81:
 605              		.loc 1 159 0
 606 00f2 0928     		cmp	r0, #9
 607 00f4 98D1     		bne	.L61
 608              		.loc 1 164 0
 609 00f6 2846     		mov	r0, r5
 610              	.LVL82:
 611 00f8 0021     		movs	r1, #0
 612 00fa FFF7FEFF 		bl	FLASH_ProgramHalfWord
 613              	.LVL83:
 614 00fe 80B2     		uxth	r0, r0
 615 0100 BDE8F081 		pop	{r4, r5, r6, r7, r8, pc}
 616              	.LVL84:
 617              	.L101:
 618              		.loc 1 231 0
 619 0104 0021     		movs	r1, #0
 620 0106 0D48     		ldr	r0, .L103+4
 621 0108 FFF7FEFF 		bl	FLASH_ProgramHalfWord
 622              	.LVL85:
 623 010c 80B2     		uxth	r0, r0
 624              	.LVL86:
 625              		.loc 1 233 0
 626 010e 0928     		cmp	r0, #9
 627 0110 8AD1     		bne	.L61
ARM GAS  C:\Users\IDONNO~1\AppData\Local\Temp\cc8Y9qO6.s 			page 12


 628              	.LVL87:
 629              	.L95:
 630              		.loc 1 238 0
 631 0112 0820     		movs	r0, #8
 632              		.loc 1 259 0
 633 0114 BDE8F041 		pop	{r4, r5, r6, r7, r8, lr}
 634              		.cfi_remember_state
 635              		.cfi_restore 14
 636              		.cfi_restore 8
 637              		.cfi_restore 7
 638              		.cfi_restore 6
 639              		.cfi_restore 5
 640              		.cfi_restore 4
 641              		.cfi_def_cfa_offset 0
 642              		.loc 1 238 0
 643 0118 FFF7FEBF 		b	EE_EraseSectorIfNotEmpty.constprop.1
 644              	.LVL88:
 645              	.L102:
 646              		.cfi_restore_state
 647              		.loc 1 140 0
 648 011c 0021     		movs	r1, #0
 649 011e 0648     		ldr	r0, .L103
 650 0120 FFF7FEFF 		bl	FLASH_ProgramHalfWord
 651              	.LVL89:
 652 0124 80B2     		uxth	r0, r0
 653              	.LVL90:
 654              		.loc 1 142 0
 655 0126 0928     		cmp	r0, #9
 656 0128 7FF47EAF 		bne	.L61
 657              	.LVL91:
 658              	.L96:
 659              		.loc 1 197 0
 660 012c 1020     		movs	r0, #16
 661              		.loc 1 259 0
 662 012e BDE8F041 		pop	{r4, r5, r6, r7, r8, lr}
 663              		.cfi_restore 14
 664              		.cfi_restore 8
 665              		.cfi_restore 7
 666              		.cfi_restore 6
 667              		.cfi_restore 5
 668              		.cfi_restore 4
 669              		.cfi_def_cfa_offset 0
 670              		.loc 1 197 0
 671 0132 FFF7FEBF 		b	EE_EraseSectorIfNotEmpty.constprop.1
 672              	.LVL92:
 673              	.L104:
 674 0136 00BF     		.align	2
 675              	.L103:
 676 0138 00400008 		.word	134234112
 677 013c 00800008 		.word	134250496
 678 0140 FEFFFFFF 		.word	VirtAddVarTab-2
 679 0144 06800008 		.word	134250502
 680 0148 00000000 		.word	.LANCHOR0
 681 014c 06400008 		.word	134234118
 682              		.cfi_endproc
 683              	.LFE219:
 684              		.size	EE_Init, .-EE_Init
ARM GAS  C:\Users\IDONNO~1\AppData\Local\Temp\cc8Y9qO6.s 			page 13


 685              		.section	.text.EE_WriteVariable,"ax",%progbits
 686              		.align	2
 687              		.p2align 4,,15
 688              		.global	EE_WriteVariable
 689              		.thumb
 690              		.thumb_func
 691              		.type	EE_WriteVariable, %function
 692              	EE_WriteVariable:
 693              	.LFB221:
 694              		.loc 1 331 0
 695              		.cfi_startproc
 696              		@ args = 0, pretend = 0, frame = 0
 697              		@ frame_needed = 0, uses_anonymous_args = 0
 698              	.LVL93:
 699 0000 2DE9F047 		push	{r4, r5, r6, r7, r8, r9, r10, lr}
 700              		.cfi_def_cfa_offset 32
 701              		.cfi_offset 4, -32
 702              		.cfi_offset 5, -28
 703              		.cfi_offset 6, -24
 704              		.cfi_offset 7, -20
 705              		.cfi_offset 8, -16
 706              		.cfi_offset 9, -12
 707              		.cfi_offset 10, -8
 708              		.cfi_offset 14, -4
 709              		.loc 1 331 0
 710 0004 0546     		mov	r5, r0
 711 0006 0E46     		mov	r6, r1
 712              		.loc 1 335 0
 713 0008 FFF7FEFF 		bl	EE_VerifyPageFullWriteVariable
 714              	.LVL94:
 715              		.loc 1 338 0
 716 000c 8028     		cmp	r0, #128
 717              		.loc 1 335 0
 718 000e 0446     		mov	r4, r0
 719              	.LVL95:
 720              		.loc 1 338 0
 721 0010 02D0     		beq	.L129
 722              	.LVL96:
 723              	.L106:
 724              		.loc 1 346 0
 725 0012 2046     		mov	r0, r4
 726 0014 BDE8F087 		pop	{r4, r5, r6, r7, r8, r9, r10, pc}
 727              	.LVL97:
 728              	.L129:
 729              	.LBB25:
 730              	.LBB26:
 731              	.LBB27:
 732              	.LBB28:
 733              		.loc 1 397 0
 734 0018 2449     		ldr	r1, .L132
 735              		.loc 1 400 0
 736 001a 2548     		ldr	r0, .L132+4
 737              	.LVL98:
 738              		.loc 1 397 0
 739 001c 0B88     		ldrh	r3, [r1]
 740              		.loc 1 400 0
 741 001e 0288     		ldrh	r2, [r0]
ARM GAS  C:\Users\IDONNO~1\AppData\Local\Temp\cc8Y9qO6.s 			page 14


 742              		.loc 1 397 0
 743 0020 9BB2     		uxth	r3, r3
 744              	.LVL99:
 745              		.loc 1 400 0
 746 0022 92B2     		uxth	r2, r2
 747              	.LVL100:
 748              		.loc 1 436 0
 749 0024 23B1     		cbz	r3, .L114
 750              		.loc 1 440 0
 751 0026 7AB9     		cbnz	r2, .L115
 752              	.LBE28:
 753              	.LBE27:
 754              		.loc 1 539 0
 755 0028 0F46     		mov	r7, r1
 756              		.loc 1 542 0
 757 002a 4FF01008 		mov	r8, #16
 758 002e 02E0     		b	.L107
 759              	.L114:
 760              		.loc 1 547 0
 761 0030 0746     		mov	r7, r0
 762              		.loc 1 550 0
 763 0032 4FF00808 		mov	r8, #8
 764              	.L107:
 765              	.LVL101:
 766              		.loc 1 558 0
 767 0036 4EF6EE61 		movw	r1, #61166
 768 003a 3846     		mov	r0, r7
 769 003c FFF7FEFF 		bl	FLASH_ProgramHalfWord
 770              	.LVL102:
 771              		.loc 1 560 0
 772 0040 0928     		cmp	r0, #9
 773 0042 03D0     		beq	.L130
 774              	.LVL103:
 775              	.L126:
 776              		.loc 1 607 0
 777 0044 84B2     		uxth	r4, r0
 778 0046 E4E7     		b	.L106
 779              	.LVL104:
 780              	.L115:
 781              		.loc 1 554 0
 782 0048 AB24     		movs	r4, #171
 783 004a E2E7     		b	.L106
 784              	.LVL105:
 785              	.L130:
 786              		.loc 1 566 0
 787 004c 3146     		mov	r1, r6
 788 004e 2846     		mov	r0, r5
 789              	.LVL106:
 790 0050 FFF7FEFF 		bl	EE_VerifyPageFullWriteVariable
 791              	.LVL107:
 792              		.loc 1 568 0
 793 0054 0928     		cmp	r0, #9
 794              		.loc 1 566 0
 795 0056 0446     		mov	r4, r0
 796              	.LVL108:
 797              		.loc 1 568 0
 798 0058 DBD1     		bne	.L106
ARM GAS  C:\Users\IDONNO~1\AppData\Local\Temp\cc8Y9qO6.s 			page 15


 799 005a 164E     		ldr	r6, .L132+8
 800              	.LVL109:
 801              		.loc 1 579 0
 802 005c DFF858A0 		ldr	r10, .L132+12
 803 0060 06F5A079 		add	r9, r6, #320
 804 0064 01E0     		b	.L110
 805              	.LVL110:
 806              	.L112:
 807              		.loc 1 574 0
 808 0066 B145     		cmp	r9, r6
 809 0068 12D0     		beq	.L131
 810              	.L110:
 811              		.loc 1 576 0
 812 006a 36F8023F 		ldrh	r3, [r6, #2]!
 813              		.loc 1 579 0
 814 006e 1249     		ldr	r1, .L132+12
 815              		.loc 1 576 0
 816 0070 9D42     		cmp	r5, r3
 817              		.loc 1 579 0
 818 0072 1846     		mov	r0, r3
 819              		.loc 1 576 0
 820 0074 F7D0     		beq	.L112
 821              		.loc 1 579 0
 822 0076 FFF7FEFF 		bl	EE_ReadVariable
 823              	.LVL111:
 824              		.loc 1 581 0
 825 007a 0128     		cmp	r0, #1
 826 007c F3D0     		beq	.L112
 827              		.loc 1 584 0
 828 007e BAF80010 		ldrh	r1, [r10]
 829 0082 3088     		ldrh	r0, [r6]
 830              	.LVL112:
 831 0084 FFF7FEFF 		bl	EE_VerifyPageFullWriteVariable
 832              	.LVL113:
 833              		.loc 1 586 0
 834 0088 0928     		cmp	r0, #9
 835 008a ECD0     		beq	.L112
 836              		.loc 1 584 0
 837 008c 0446     		mov	r4, r0
 838 008e C0E7     		b	.L106
 839              	.LVL114:
 840              	.L131:
 841              		.loc 1 595 0
 842 0090 4046     		mov	r0, r8
 843 0092 FFF7FEFF 		bl	EE_EraseSectorIfNotEmpty.constprop.1
 844              	.LVL115:
 845              		.loc 1 597 0
 846 0096 C0B2     		uxtb	r0, r0
 847 0098 0928     		cmp	r0, #9
 848 009a D3D1     		bne	.L126
 849              		.loc 1 603 0
 850 009c 3846     		mov	r0, r7
 851              	.LVL116:
 852 009e 0021     		movs	r1, #0
 853 00a0 FFF7FEFF 		bl	FLASH_ProgramHalfWord
 854              	.LVL117:
 855              		.loc 1 605 0
ARM GAS  C:\Users\IDONNO~1\AppData\Local\Temp\cc8Y9qO6.s 			page 16


 856 00a4 0928     		cmp	r0, #9
 857 00a6 CDD1     		bne	.L126
 858 00a8 B3E7     		b	.L106
 859              	.L133:
 860 00aa 00BF     		.align	2
 861              	.L132:
 862 00ac 00400008 		.word	134234112
 863 00b0 00800008 		.word	134250496
 864 00b4 FEFFFFFF 		.word	VirtAddVarTab-2
 865 00b8 00000000 		.word	.LANCHOR0
 866              	.LBE26:
 867              	.LBE25:
 868              		.cfi_endproc
 869              	.LFE221:
 870              		.size	EE_WriteVariable, .-EE_WriteVariable
 871              		.global	DataVar
 872              		.section	.bss.DataVar,"aw",%nobits
 873              		.align	1
 874              		.set	.LANCHOR0,. + 0
 875              		.type	DataVar, %object
 876              		.size	DataVar, 2
 877              	DataVar:
 878 0000 0000     		.space	2
 879              		.text
 880              	.Letext0:
 881              		.file 2 "c:\\program files (x86)\\gnu tools arm embedded\\5.2 2015q4\\arm-none-eabi\\include\\mach
 882              		.file 3 "c:\\program files (x86)\\gnu tools arm embedded\\5.2 2015q4\\arm-none-eabi\\include\\sys\
 883              		.file 4 "lib/ChibiOS_3.0.2/ext/stdperiph_stm32f4/inc/stm32f4xx_flash.h"
 884              		.file 5 "c:\\program files (x86)\\gnu tools arm embedded\\5.2 2015q4\\lib\\gcc\\arm-none-eabi\\5.2
 885              		.file 6 "lib/ChibiOS_3.0.2/os/rt/ports/ARMCMx/compilers/GCC/chtypes.h"
 886              		.file 7 "lib/ChibiOS_3.0.2/os/rt/include/chsystypes.h"
 887              		.file 8 "lib/ChibiOS_3.0.2/os/rt/include/chschd.h"
 888              		.file 9 "lib/ChibiOS_3.0.2/os/rt/ports/ARMCMx/chcore.h"
 889              		.file 10 "lib/ChibiOS_3.0.2/os/rt/ports/ARMCMx/chcore_v7m.h"
 890              		.file 11 "lib/ChibiOS_3.0.2/os/rt/include/chtm.h"
 891              		.file 12 "lib/ChibiOS_3.0.2/os/rt/include/chsem.h"
 892              		.file 13 "lib/ChibiOS_3.0.2/os/rt/include/chmtx.h"
 893              		.file 14 "lib/ChibiOS_3.0.2/os/ext/CMSIS/include/core_cm4.h"
 894              		.file 15 "src/core/flash_helper.h"