ARM GAS  C:\Users\IDONNO~1\AppData\Local\Temp\cc8Y9qO6.s 			page 1


   1              		.syntax unified
   2              		.cpu cortex-m4
   3              		.eabi_attribute 27, 1
   4              		.eabi_attribute 28, 1
   5              		.fpu fpv4-sp-d16
   6              		.eabi_attribute 20, 1
   7              		.eabi_attribute 21, 1
   8              		.eabi_attribute 23, 3
   9              		.eabi_attribute 24, 1
  10              		.eabi_attribute 25, 1
  11              		.eabi_attribute 26, 1
  12              		.eabi_attribute 30, 2
  13              		.eabi_attribute 34, 1
  14              		.eabi_attribute 18, 4
  15              		.thumb
  16              		.syntax unified
  17              		.file	"eeprom.c"
  18              		.text
  19              	.Ltext0:
  20              		.cfi_sections	.debug_frame
  21              		.section	.text.EE_VerifyPageFullWriteVariable,"ax",%progbits
  22              		.align	2
  23              		.p2align 4,,15
  24              		.thumb
  25              		.thumb_func
  26              		.type	EE_VerifyPageFullWriteVariable, %function
  27              	EE_VerifyPageFullWriteVariable:
  28              	.LFB224:
  29              		.file 1 "src/core/eeprom.c"
  30              		.loc 1 465 0
  31              		.cfi_startproc
  32              		@ args = 0, pretend = 0, frame = 0
  33              		@ frame_needed = 0, uses_anonymous_args = 0
  34              	.LVL0:
  35 0000 38B5     		push	{r3, r4, r5, lr}
  36              		.cfi_def_cfa_offset 16
  37              		.cfi_offset 3, -16
  38              		.cfi_offset 4, -12
  39              		.cfi_offset 5, -8
  40              		.cfi_offset 14, -4
  41              	.LBB9:
  42              	.LBB10:
  43              		.loc 1 397 0
  44 0002 1B4A     		ldr	r2, .L22
  45              		.loc 1 400 0
  46 0004 1B4B     		ldr	r3, .L22+4
  47              		.loc 1 397 0
  48 0006 1288     		ldrh	r2, [r2]
  49              		.loc 1 400 0
  50 0008 1B88     		ldrh	r3, [r3]
  51 000a 9CB2     		uxth	r4, r3
  52              		.loc 1 397 0
  53 000c 92B2     		uxth	r2, r2
  54              	.LVL1:
  55              		.loc 1 406 0
  56 000e ECB9     		cbnz	r4, .L2
  57              		.loc 1 423 0
ARM GAS  C:\Users\IDONNO~1\AppData\Local\Temp\cc8Y9qO6.s 			page 2


  58 0010 4EF6EE63 		movw	r3, #61166
  59 0014 D31A     		subs	r3, r2, r3
  60 0016 18BF     		it	ne
  61 0018 0123     		movne	r3, #1
  62              	.L3:
  63              	.LVL2:
  64              	.LBE10:
  65              	.LBE9:
  66              		.loc 1 480 0
  67 001a 03F50054 		add	r4, r3, #8192
  68              		.loc 1 483 0
  69 001e 164A     		ldr	r2, .L22+8
  70 0020 0133     		adds	r3, r3, #1
  71              		.loc 1 480 0
  72 0022 0134     		adds	r4, r4, #1
  73              		.loc 1 483 0
  74 0024 9B03     		lsls	r3, r3, #14
  75              		.loc 1 480 0
  76 0026 A403     		lsls	r4, r4, #14
  77              	.LVL3:
  78              		.loc 1 483 0
  79 0028 1A44     		add	r2, r2, r3
  80              	.LVL4:
  81              		.loc 1 486 0
  82 002a 9442     		cmp	r4, r2
  83 002c 03D3     		bcc	.L7
  84 002e 17E0     		b	.L11
  85              	.L5:
  86              		.loc 1 506 0
  87 0030 0434     		adds	r4, r4, #4
  88              	.LVL5:
  89              		.loc 1 486 0
  90 0032 A242     		cmp	r2, r4
  91 0034 14D9     		bls	.L11
  92              	.L7:
  93              		.loc 1 489 0
  94 0036 2368     		ldr	r3, [r4]
  95 0038 0133     		adds	r3, r3, #1
  96 003a F9D1     		bne	.L5
  97 003c 0546     		mov	r5, r0
  98              		.loc 1 492 0
  99 003e 2046     		mov	r0, r4
 100              	.LVL6:
 101 0040 FFF7FEFF 		bl	FLASH_ProgramHalfWord
 102              	.LVL7:
 103              		.loc 1 494 0
 104 0044 0928     		cmp	r0, #9
 105 0046 0DD0     		beq	.L21
 106              	.LVL8:
 107              	.L19:
 108              		.loc 1 501 0
 109 0048 80B2     		uxth	r0, r0
 110              	.LVL9:
 111 004a 38BD     		pop	{r3, r4, r5, pc}
 112              	.LVL10:
 113              	.L2:
 114              	.LBB12:
ARM GAS  C:\Users\IDONNO~1\AppData\Local\Temp\cc8Y9qO6.s 			page 3


 115              	.LBB11:
 116              		.loc 1 418 0
 117 004c 32B9     		cbnz	r2, .L10
 118              		.loc 1 423 0
 119 004e 4EF6EE63 		movw	r3, #61166
 120 0052 E31A     		subs	r3, r4, r3
 121 0054 B3FA83F3 		clz	r3, r3
 122 0058 5B09     		lsrs	r3, r3, #5
 123 005a DEE7     		b	.L3
 124              	.L10:
 125              	.LBE11:
 126              	.LBE12:
 127              		.loc 1 476 0
 128 005c AB20     		movs	r0, #171
 129              	.LVL11:
 130 005e 38BD     		pop	{r3, r4, r5, pc}
 131              	.LVL12:
 132              	.L11:
 133              		.loc 1 511 0
 134 0060 8020     		movs	r0, #128
 135              	.LVL13:
 136 0062 38BD     		pop	{r3, r4, r5, pc}
 137              	.LVL14:
 138              	.L21:
 139              		.loc 1 499 0
 140 0064 2946     		mov	r1, r5
 141 0066 A01C     		adds	r0, r4, #2
 142              	.LVL15:
 143 0068 FFF7FEFF 		bl	FLASH_ProgramHalfWord
 144              	.LVL16:
 145 006c ECE7     		b	.L19
 146              	.L23:
 147 006e 00BF     		.align	2
 148              	.L22:
 149 0070 00400008 		.word	134234112
 150 0074 00800008 		.word	134250496
 151 0078 FE3F0008 		.word	134234110
 152              		.cfi_endproc
 153              	.LFE224:
 154              		.size	EE_VerifyPageFullWriteVariable, .-EE_VerifyPageFullWriteVariable
 155              		.section	.text.EE_EraseSectorIfNotEmpty.constprop.1,"ax",%progbits
 156              		.align	2
 157              		.p2align 4,,15
 158              		.thumb
 159              		.thumb_func
 160              		.type	EE_EraseSectorIfNotEmpty.constprop.1, %function
 161              	EE_EraseSectorIfNotEmpty.constprop.1:
 162              	.LFB228:
 163              		.loc 1 618 0
 164              		.cfi_startproc
 165              		@ args = 0, pretend = 0, frame = 0
 166              		@ frame_needed = 0, uses_anonymous_args = 0
 167              	.LVL17:
 168 0000 10B5     		push	{r4, lr}
 169              		.cfi_def_cfa_offset 8
 170              		.cfi_offset 4, -8
 171              		.cfi_offset 14, -4
ARM GAS  C:\Users\IDONNO~1\AppData\Local\Temp\cc8Y9qO6.s 			page 4


 172              		.loc 1 618 0
 173 0002 0446     		mov	r4, r0
 174              		.loc 1 619 0
 175 0004 FFF7FEFF 		bl	flash_helper_get_sector_address
 176              	.LVL18:
 177 0008 00F57F52 		add	r2, r0, #16320
 178 000c 3F32     		adds	r2, r2, #63
 179 000e 0138     		subs	r0, r0, #1
 180              	.LVL19:
 181 0010 01E0     		b	.L27
 182              	.LVL20:
 183              	.L25:
 184              	.LBB13:
 185              		.loc 1 621 0
 186 0012 9042     		cmp	r0, r2
 187 0014 09D0     		beq	.L30
 188              	.LVL21:
 189              	.L27:
 190              		.loc 1 622 0
 191 0016 10F8013F 		ldrb	r3, [r0, #1]!	@ zero_extendqisi2
 192              	.LVL22:
 193 001a FF2B     		cmp	r3, #255
 194 001c F9D0     		beq	.L25
 195              		.loc 1 623 0
 196 001e 2046     		mov	r0, r4
 197              	.LVL23:
 198 0020 0221     		movs	r1, #2
 199 0022 FFF7FEFF 		bl	FLASH_EraseSector
 200              	.LVL24:
 201 0026 80B2     		uxth	r0, r0
 202 0028 10BD     		pop	{r4, pc}
 203              	.LVL25:
 204              	.L30:
 205              	.LBE13:
 206              		.loc 1 627 0
 207 002a 0920     		movs	r0, #9
 208              	.LVL26:
 209              		.loc 1 628 0
 210 002c 10BD     		pop	{r4, pc}
 211              		.cfi_endproc
 212              	.LFE228:
 213              		.size	EE_EraseSectorIfNotEmpty.constprop.1, .-EE_EraseSectorIfNotEmpty.constprop.1
 214 002e 00BF     		.section	.text.EE_Format,"ax",%progbits
 215              		.align	2
 216              		.p2align 4,,15
 217              		.thumb
 218              		.thumb_func
 219              		.type	EE_Format, %function
 220              	EE_Format:
 221              	.LFB222:
 222              		.loc 1 355 0
 223              		.cfi_startproc
 224              		@ args = 0, pretend = 0, frame = 0
 225              		@ frame_needed = 0, uses_anonymous_args = 0
 226              	.LVL27:
 227 0000 08B5     		push	{r3, lr}
 228              		.cfi_def_cfa_offset 8
ARM GAS  C:\Users\IDONNO~1\AppData\Local\Temp\cc8Y9qO6.s 			page 5


 229              		.cfi_offset 3, -8
 230              		.cfi_offset 14, -4
 231              		.loc 1 359 0
 232 0002 0820     		movs	r0, #8
 233 0004 FFF7FEFF 		bl	EE_EraseSectorIfNotEmpty.constprop.1
 234              	.LVL28:
 235 0008 C0B2     		uxtb	r0, r0
 236              	.LVL29:
 237              		.loc 1 362 0
 238 000a 0928     		cmp	r0, #9
 239 000c 00D0     		beq	.L36
 240              	.LVL30:
 241              	.L32:
 242              		.loc 1 381 0
 243 000e 08BD     		pop	{r3, pc}
 244              	.LVL31:
 245              	.L36:
 246              		.loc 1 368 0
 247 0010 0021     		movs	r1, #0
 248 0012 0548     		ldr	r0, .L37
 249              	.LVL32:
 250 0014 FFF7FEFF 		bl	FLASH_ProgramHalfWord
 251              	.LVL33:
 252              		.loc 1 371 0
 253 0018 0928     		cmp	r0, #9
 254 001a F8D1     		bne	.L32
 255              	.LBB16:
 256              		.loc 1 377 0
 257 001c 1020     		movs	r0, #16
 258              	.LVL34:
 259 001e FFF7FEFF 		bl	EE_EraseSectorIfNotEmpty.constprop.1
 260              	.LVL35:
 261 0022 C0B2     		uxtb	r0, r0
 262 0024 F3E7     		b	.L32
 263              	.L38:
 264 0026 00BF     		.align	2
 265              	.L37:
 266 0028 00400008 		.word	134234112
 267              	.LBE16:
 268              		.cfi_endproc
 269              	.LFE222:
 270              		.size	EE_Format, .-EE_Format
 271              		.section	.text.EE_ReadVariable,"ax",%progbits
 272              		.align	2
 273              		.p2align 4,,15
 274              		.global	EE_ReadVariable
 275              		.thumb
 276              		.thumb_func
 277              		.type	EE_ReadVariable, %function
 278              	EE_ReadVariable:
 279              	.LFB220:
 280              		.loc 1 272 0
 281              		.cfi_startproc
 282              		@ args = 0, pretend = 0, frame = 0
 283              		@ frame_needed = 0, uses_anonymous_args = 0
 284              		@ link register save eliminated.
 285              	.LVL36:
ARM GAS  C:\Users\IDONNO~1\AppData\Local\Temp\cc8Y9qO6.s 			page 6


 286              	.LBB17:
 287              	.LBB18:
 288              		.loc 1 397 0
 289 0000 154B     		ldr	r3, .L52
 290              		.loc 1 400 0
 291 0002 164A     		ldr	r2, .L52+4
 292              		.loc 1 397 0
 293 0004 1B88     		ldrh	r3, [r3]
 294              		.loc 1 400 0
 295 0006 1288     		ldrh	r2, [r2]
 296              		.loc 1 397 0
 297 0008 9BB2     		uxth	r3, r3
 298              	.LVL37:
 299              	.LBE18:
 300              	.LBE17:
 301              		.loc 1 272 0
 302 000a 10B4     		push	{r4}
 303              		.cfi_def_cfa_offset 4
 304              		.cfi_offset 4, -4
 305              	.LBB20:
 306              	.LBB19:
 307              		.loc 1 436 0
 308 000c 2BB1     		cbz	r3, .L46
 309 000e 92B2     		uxth	r2, r2
 310              		.loc 1 440 0
 311 0010 B2B9     		cbnz	r2, .L51
 312 0012 134B     		ldr	r3, .L52+8
 313              	.LVL38:
 314 0014 134C     		ldr	r4, .L52+12
 315 0016 1A46     		mov	r2, r3
 316              	.LVL39:
 317 0018 02E0     		b	.L40
 318              	.LVL40:
 319              	.L46:
 320              		.loc 1 436 0
 321 001a 134B     		ldr	r3, .L52+16
 322              	.LVL41:
 323 001c 134C     		ldr	r4, .L52+20
 324 001e 1A46     		mov	r2, r3
 325              	.LVL42:
 326              	.L40:
 327              	.LBE19:
 328              	.LBE20:
 329              		.loc 1 296 0
 330 0020 1288     		ldrh	r2, [r2]
 331 0022 92B2     		uxth	r2, r2
 332              	.LVL43:
 333              		.loc 1 299 0
 334 0024 9042     		cmp	r0, r2
 335 0026 04D1     		bne	.L42
 336 0028 0EE0     		b	.L44
 337              	.LVL44:
 338              	.L43:
 339              		.loc 1 296 0
 340 002a 1A88     		ldrh	r2, [r3]
 341 002c 92B2     		uxth	r2, r2
 342              	.LVL45:
ARM GAS  C:\Users\IDONNO~1\AppData\Local\Temp\cc8Y9qO6.s 			page 7


 343              		.loc 1 299 0
 344 002e 8242     		cmp	r2, r0
 345 0030 0AD0     		beq	.L44
 346              	.LVL46:
 347              	.L42:
 348              		.loc 1 312 0
 349 0032 043B     		subs	r3, r3, #4
 350              	.LVL47:
 351              		.loc 1 293 0
 352 0034 9C42     		cmp	r4, r3
 353 0036 F8D3     		bcc	.L43
 354              		.loc 1 274 0
 355 0038 0120     		movs	r0, #1
 356              	.LVL48:
 357              		.loc 1 318 0
 358 003a 5DF8044B 		ldr	r4, [sp], #4
 359              		.cfi_remember_state
 360              		.cfi_restore 4
 361              		.cfi_def_cfa_offset 0
 362 003e 7047     		bx	lr
 363              	.LVL49:
 364              	.L51:
 365              		.cfi_restore_state
 366              		.loc 1 283 0
 367 0040 AB20     		movs	r0, #171
 368              	.LVL50:
 369              		.loc 1 318 0
 370 0042 5DF8044B 		ldr	r4, [sp], #4
 371              		.cfi_remember_state
 372              		.cfi_restore 4
 373              		.cfi_def_cfa_offset 0
 374 0046 7047     		bx	lr
 375              	.LVL51:
 376              	.L44:
 377              		.cfi_restore_state
 378              		.loc 1 302 0
 379 0048 33F8023C 		ldrh	r3, [r3, #-2]
 380 004c 0B80     		strh	r3, [r1]	@ movhi
 381              	.LVL52:
 382              		.loc 1 305 0
 383 004e 0020     		movs	r0, #0
 384              	.LVL53:
 385              		.loc 1 318 0
 386 0050 5DF8044B 		ldr	r4, [sp], #4
 387              		.cfi_restore 4
 388              		.cfi_def_cfa_offset 0
 389 0054 7047     		bx	lr
 390              	.L53:
 391 0056 00BF     		.align	2
 392              	.L52:
 393 0058 00400008 		.word	134234112
 394 005c 00800008 		.word	134250496
 395 0060 FEBF0008 		.word	134266878
 396 0064 02800008 		.word	134250498
 397 0068 FE7F0008 		.word	134250494
 398 006c 02400008 		.word	134234114
 399              		.cfi_endproc
ARM GAS  C:\Users\IDONNO~1\AppData\Local\Temp\cc8Y9qO6.s 			page 8


 400              	.LFE220:
 401              		.size	EE_ReadVariable, .-EE_ReadVariable
 402              		.section	.text.EE_Init,"ax",%progbits
 403              		.align	2
 404              		.p2align 4,,15
 405              		.global	EE_Init
 406              		.thumb
 407              		.thumb_func
 408              		.type	EE_Init, %function
 409              	EE_Init:
 410              	.LFB219:
 411              		.loc 1 57 0
 412              		.cfi_startproc
 413              		@ args = 0, pretend = 0, frame = 0
 414              		@ frame_needed = 0, uses_anonymous_args = 0
 415              	.LVL54:
 416 0000 2DE9F041 		push	{r4, r5, r6, r7, r8, lr}
 417              		.cfi_def_cfa_offset 24
 418              		.cfi_offset 4, -24
 419              		.cfi_offset 5, -20
 420              		.cfi_offset 6, -16
 421              		.cfi_offset 7, -12
 422              		.cfi_offset 8, -8
 423              		.cfi_offset 14, -4
 424              		.loc 1 65 0
 425 0004 4C4D     		ldr	r5, .L103
 426              		.loc 1 67 0
 427 0006 4D4F     		ldr	r7, .L103+4
 428              		.loc 1 65 0
 429 0008 2C88     		ldrh	r4, [r5]
 430              		.loc 1 67 0
 431 000a 3B88     		ldrh	r3, [r7]
 432              		.loc 1 65 0
 433 000c A4B2     		uxth	r4, r4
 434              	.LVL55:
 435              		.loc 1 70 0
 436 000e 4EF6EE62 		movw	r2, #61166
 437 0012 9442     		cmp	r4, r2
 438              		.loc 1 67 0
 439 0014 9BB2     		uxth	r3, r3
 440              	.LVL56:
 441              		.loc 1 70 0
 442 0016 3FD0     		beq	.L56
 443 0018 4FF6FF76 		movw	r6, #65535
 444 001c B442     		cmp	r4, r6
 445 001e 2BD0     		beq	.L57
 446 0020 24B1     		cbz	r4, .L100
 447              	.L91:
 448              		.loc 1 249 0
 449 0022 FFF7FEFF 		bl	EE_Format
 450              	.LVL57:
 451 0026 80B2     		uxth	r0, r0
 452              	.LVL58:
 453              	.L61:
 454              		.loc 1 259 0
 455 0028 BDE8F081 		pop	{r4, r5, r6, r7, r8, pc}
 456              	.LVL59:
ARM GAS  C:\Users\IDONNO~1\AppData\Local\Temp\cc8Y9qO6.s 			page 9


 457              	.L100:
 458              		.loc 1 184 0
 459 002c 002B     		cmp	r3, #0
 460 002e F8D0     		beq	.L91
 461              		.loc 1 194 0
 462 0030 B342     		cmp	r3, r6
 463 0032 7BD0     		beq	.L96
 464 0034 424D     		ldr	r5, .L103+8
 465              		.loc 1 209 0
 466 0036 434F     		ldr	r7, .L103+12
 467              		.loc 1 216 0
 468 0038 DFF80C81 		ldr	r8, .L103+16
 469 003c 01E0     		b	.L71
 470              	.LVL60:
 471              	.L73:
 472              		.loc 1 207 0
 473 003e A02C     		cmp	r4, #160
 474 0040 60D0     		beq	.L101
 475              	.LVL61:
 476              	.L71:
 477              		.loc 1 209 0
 478 0042 3B88     		ldrh	r3, [r7]
 479 0044 35F8022F 		ldrh	r2, [r5, #2]!
 480              		.loc 1 216 0
 481 0048 3F49     		ldr	r1, .L103+16
 482              		.loc 1 209 0
 483 004a 9BB2     		uxth	r3, r3
 484 004c 9342     		cmp	r3, r2
 485              		.loc 1 211 0
 486 004e 08BF     		it	eq
 487 0050 A6B2     		uxtheq	r6, r4
 488              	.LVL62:
 489              		.loc 1 213 0
 490 0052 33B2     		sxth	r3, r6
 491 0054 9C42     		cmp	r4, r3
 492              		.loc 1 216 0
 493 0056 1046     		mov	r0, r2
 494 0058 04F10104 		add	r4, r4, #1
 495              	.LVL63:
 496              		.loc 1 213 0
 497 005c EFD0     		beq	.L73
 498              		.loc 1 216 0
 499 005e FFF7FEFF 		bl	EE_ReadVariable
 500              	.LVL64:
 501              		.loc 1 218 0
 502 0062 0128     		cmp	r0, #1
 503 0064 EBD0     		beq	.L73
 504              		.loc 1 221 0
 505 0066 B8F80010 		ldrh	r1, [r8]
 506 006a 2888     		ldrh	r0, [r5]
 507              	.LVL65:
 508 006c FFF7FEFF 		bl	EE_VerifyPageFullWriteVariable
 509              	.LVL66:
 510              		.loc 1 223 0
 511 0070 0928     		cmp	r0, #9
 512 0072 E4D0     		beq	.L73
 513 0074 BDE8F081 		pop	{r4, r5, r6, r7, r8, pc}
ARM GAS  C:\Users\IDONNO~1\AppData\Local\Temp\cc8Y9qO6.s 			page 10


 514              	.LVL67:
 515              	.L57:
 516              		.loc 1 73 0
 517 0078 002B     		cmp	r3, #0
 518 007a 4AD0     		beq	.L95
 519              		.loc 1 83 0
 520 007c 9342     		cmp	r3, r2
 521 007e D0D1     		bne	.L91
 522              		.loc 1 86 0
 523 0080 0820     		movs	r0, #8
 524 0082 FFF7FEFF 		bl	EE_EraseSectorIfNotEmpty.constprop.1
 525              	.LVL68:
 526              		.loc 1 88 0
 527 0086 0928     		cmp	r0, #9
 528 0088 CED1     		bne	.L61
 529              		.loc 1 93 0
 530 008a 3846     		mov	r0, r7
 531              	.LVL69:
 532 008c 0021     		movs	r1, #0
 533 008e FFF7FEFF 		bl	FLASH_ProgramHalfWord
 534              	.LVL70:
 535 0092 80B2     		uxth	r0, r0
 536 0094 BDE8F081 		pop	{r4, r5, r6, r7, r8, pc}
 537              	.LVL71:
 538              	.L56:
 539              		.loc 1 113 0
 540 0098 23BB     		cbnz	r3, .L62
 541 009a 294D     		ldr	r5, .L103+8
 542              		.loc 1 118 0
 543 009c 2B4E     		ldr	r6, .L103+20
 544              		.loc 1 125 0
 545 009e 2A4F     		ldr	r7, .L103+16
 546              		.loc 1 113 0
 547 00a0 1C46     		mov	r4, r3
 548              	.LVL72:
 549 00a2 4FF6FF78 		movw	r8, #65535
 550 00a6 01E0     		b	.L65
 551              	.LVL73:
 552              	.L67:
 553              		.loc 1 116 0
 554 00a8 A02C     		cmp	r4, #160
 555 00aa 37D0     		beq	.L102
 556              	.LVL74:
 557              	.L65:
 558              		.loc 1 118 0
 559 00ac 3388     		ldrh	r3, [r6]
 560 00ae 35F8022F 		ldrh	r2, [r5, #2]!
 561              		.loc 1 125 0
 562 00b2 2549     		ldr	r1, .L103+16
 563              		.loc 1 118 0
 564 00b4 9BB2     		uxth	r3, r3
 565 00b6 9342     		cmp	r3, r2
 566              		.loc 1 120 0
 567 00b8 08BF     		it	eq
 568 00ba 1FFA84F8 		uxtheq	r8, r4
 569              	.LVL75:
 570              		.loc 1 122 0
ARM GAS  C:\Users\IDONNO~1\AppData\Local\Temp\cc8Y9qO6.s 			page 11


 571 00be 0FFA88F3 		sxth	r3, r8
 572 00c2 9C42     		cmp	r4, r3
 573              		.loc 1 125 0
 574 00c4 1046     		mov	r0, r2
 575 00c6 04F10104 		add	r4, r4, #1
 576              	.LVL76:
 577              		.loc 1 122 0
 578 00ca EDD0     		beq	.L67
 579              		.loc 1 125 0
 580 00cc FFF7FEFF 		bl	EE_ReadVariable
 581              	.LVL77:
 582              		.loc 1 127 0
 583 00d0 0128     		cmp	r0, #1
 584 00d2 E9D0     		beq	.L67
 585              		.loc 1 130 0
 586 00d4 3988     		ldrh	r1, [r7]
 587 00d6 2888     		ldrh	r0, [r5]
 588              	.LVL78:
 589 00d8 FFF7FEFF 		bl	EE_VerifyPageFullWriteVariable
 590              	.LVL79:
 591              		.loc 1 132 0
 592 00dc 0928     		cmp	r0, #9
 593 00de E3D0     		beq	.L67
 594 00e0 BDE8F081 		pop	{r4, r5, r6, r7, r8, pc}
 595              	.LVL80:
 596              	.L62:
 597              		.loc 1 154 0
 598 00e4 4FF6FF72 		movw	r2, #65535
 599 00e8 9342     		cmp	r3, r2
 600 00ea 9AD1     		bne	.L91
 601              		.loc 1 157 0
 602 00ec 1020     		movs	r0, #16
 603 00ee FFF7FEFF 		bl	EE_EraseSectorIfNotEmpty.constprop.1
 604              	.LVL81:
 605              		.loc 1 159 0
 606 00f2 0928     		cmp	r0, #9
 607 00f4 98D1     		bne	.L61
 608              		.loc 1 164 0
 609 00f6 2846     		mov	r0, r5
 610              	.LVL82:
 611 00f8 0021     		movs	r1, #0
 612 00fa FFF7FEFF 		bl	FLASH_ProgramHalfWord
 613              	.LVL83:
 614 00fe 80B2     		uxth	r0, r0
 615 0100 BDE8F081 		pop	{r4, r5, r6, r7, r8, pc}
 616              	.LVL84:
 617              	.L101:
 618              		.loc 1 231 0
 619 0104 0021     		movs	r1, #0
 620 0106 0D48     		ldr	r0, .L103+4
 621 0108 FFF7FEFF 		bl	FLASH_ProgramHalfWord
 622              	.LVL85:
 623 010c 80B2     		uxth	r0, r0
 624              	.LVL86:
 625              		.loc 1 233 0
 626 010e 0928     		cmp	r0, #9
 627 0110 8AD1     		bne	.L61
ARM GAS  C:\Users\IDONNO~1\AppData\Local\Temp\cc8Y9qO6.s 			page 12


 628              	.LVL87:
 629              	.L95:
 630              		.loc 1 238 0
 631 0112 0820     		movs	r0, #8
 632              		.loc 1 259 0
 633 0114 BDE8F041 		pop	{r4, r5, r6, r7, r8, lr}
 634              		.cfi_remember_state
 635              		.cfi_restore 14
 636              		.cfi_restore 8
 637              		.cfi_restore 7
 638              		.cfi_restore 6
 639              		.cfi_restore 5
 640              		.cfi_restore 4
 641              		.cfi_def_cfa_offset 0
 642              		.loc 1 238 0
 643 0118 FFF7FEBF 		b	EE_EraseSectorIfNotEmpty.constprop.1
 644              	.LVL88:
 645              	.L102:
 646              		.cfi_restore_state
 647              		.loc 1 140 0
 648 011c 0021     		movs	r1, #0
 649 011e 0648     		ldr	r0, .L103
 650 0120 FFF7FEFF 		bl	FLASH_ProgramHalfWord
 651              	.LVL89:
 652 0124 80B2     		uxth	r0, r0
 653              	.LVL90:
 654              		.loc 1 142 0
 655 0126 0928     		cmp	r0, #9
 656 0128 7FF47EAF 		bne	.L61
 657              	.LVL91:
 658              	.L96:
 659              		.loc 1 197 0
 660 012c 1020     		movs	r0, #16
 661              		.loc 1 259 0
 662 012e BDE8F041 		pop	{r4, r5, r6, r7, r8, lr}
 663              		.cfi_restore 14
 664              		.cfi_restore 8
 665              		.cfi_restore 7
 666              		.cfi_restore 6
 667              		.cfi_restore 5
 668              		.cfi_restore 4
 669              		.cfi_def_cfa_offset 0
 670              		.loc 1 197 0
 671 0132 FFF7FEBF 		b	EE_EraseSectorIfNotEmpty.constprop.1
 672              	.LVL92:
 673              	.L104:
 674 0136 00BF     		.align	2
 675              	.L103:
 676 0138 00400008 		.word	134234112
 677 013c 00800008 		.word	134250496
 678 0140 FEFFFFFF 		.word	VirtAddVarTab-2
 679 0144 06800008 		.word	134250502
 680 0148 00000000 		.word	.LANCHOR0
 681 014c 06400008 		.word	134234118
 682              		.cfi_endproc
 683              	.LFE219:
 684              		.size	EE_Init, .-EE_Init
ARM GAS  C:\Users\IDONNO~1\AppData\Local\Temp\cc8Y9qO6.s 			page 13


 685              		.section	.text.EE_WriteVariable,"ax",%progbits
 686              		.align	2
 687              		.p2align 4,,15
 688              		.global	EE_WriteVariable
 689              		.thumb
 690              		.thumb_func
 691              		.type	EE_WriteVariable, %function
 692              	EE_WriteVariable:
 693              	.LFB221:
 694              		.loc 1 331 0
 695              		.cfi_startproc
 696              		@ args = 0, pretend = 0, frame = 0
 697              		@ frame_needed = 0, uses_anonymous_args = 0
 698              	.LVL93:
 699 0000 2DE9F047 		push	{r4, r5, r6, r7, r8, r9, r10, lr}
 700              		.cfi_def_cfa_offset 32
 701              		.cfi_offset 4, -32
 702              		.cfi_offset 5, -28
 703              		.cfi_offset 6, -24
 704              		.cfi_offset 7, -20
 705              		.cfi_offset 8, -16
 706              		.cfi_offset 9, -12
 707              		.cfi_offset 10, -8
 708              		.cfi_offset 14, -4
 709              		.loc 1 331 0
 710 0004 0546     		mov	r5, r0
 711 0006 0E46     		mov	r6, r1
 712              		.loc 1 335 0
 713 0008 FFF7FEFF 		bl	EE_VerifyPageFullWriteVariable
 714              	.LVL94:
 715              		.loc 1 338 0
 716 000c 8028     		cmp	r0, #128
 717              		.loc 1 335 0
 718 000e 0446     		mov	r4, r0
 719              	.LVL95:
 720              		.loc 1 338 0
 721 0010 02D0     		beq	.L129
 722              	.LVL96:
 723              	.L106:
 724              		.loc 1 346 0
 725 0012 2046     		mov	r0, r4
 726 0014 BDE8F087 		pop	{r4, r5, r6, r7, r8, r9, r10, pc}
 727              	.LVL97:
 728              	.L129:
 729              	.LBB25:
 730              	.LBB26:
 731              	.LBB27:
 732              	.LBB28:
 733              		.loc 1 397 0
 734 0018 2449     		ldr	r1, .L132
 735              		.loc 1 400 0
 736 001a 2548     		ldr	r0, .L132+4
 737              	.LVL98:
 738              		.loc 1 397 0
 739 001c 0B88     		ldrh	r3, [r1]
 740              		.loc 1 400 0
 741 001e 0288     		ldrh	r2, [r0]
ARM GAS  C:\Users\IDONNO~1\AppData\Local\Temp\cc8Y9qO6.s 			page 14


 742              		.loc 1 397 0
 743 0020 9BB2     		uxth	r3, r3
 744              	.LVL99:
 745              		.loc 1 400 0
 746 0022 92B2     		uxth	r2, r2
 747              	.LVL100:
 748              		.loc 1 436 0
 749 0024 23B1     		cbz	r3, .L114
 750              		.loc 1 440 0
 751 0026 7AB9     		cbnz	r2, .L115
 752              	.LBE28:
 753              	.LBE27:
 754              		.loc 1 539 0
 755 0028 0F46     		mov	r7, r1
 756              		.loc 1 542 0
 757 002a 4FF01008 		mov	r8, #16
 758 002e 02E0     		b	.L107
 759              	.L114:
 760              		.loc 1 547 0
 761 0030 0746     		mov	r7, r0
 762              		.loc 1 550 0
 763 0032 4FF00808 		mov	r8, #8
 764              	.L107:
 765              	.LVL101:
 766              		.loc 1 558 0
 767 0036 4EF6EE61 		movw	r1, #61166
 768 003a 3846     		mov	r0, r7
 769 003c FFF7FEFF 		bl	FLASH_ProgramHalfWord
 770              	.LVL102:
 771              		.loc 1 560 0
 772 0040 0928     		cmp	r0, #9
 773 0042 03D0     		beq	.L130
 774              	.LVL103:
 775              	.L126:
 776              		.loc 1 607 0
 777 0044 84B2     		uxth	r4, r0
 778 0046 E4E7     		b	.L106
 779              	.LVL104:
 780              	.L115:
 781              		.loc 1 554 0
 782 0048 AB24     		movs	r4, #171
 783 004a E2E7     		b	.L106
 784              	.LVL105:
 785              	.L130:
 786              		.loc 1 566 0
 787 004c 3146     		mov	r1, r6
 788 004e 2846     		mov	r0, r5
 789              	.LVL106:
 790 0050 FFF7FEFF 		bl	EE_VerifyPageFullWriteVariable
 791              	.LVL107:
 792              		.loc 1 568 0
 793 0054 0928     		cmp	r0, #9
 794              		.loc 1 566 0
 795 0056 0446     		mov	r4, r0
 796              	.LVL108:
 797              		.loc 1 568 0
 798 0058 DBD1     		bne	.L106
ARM GAS  C:\Users\IDONNO~1\AppData\Local\Temp\cc8Y9qO6.s 			page 15


 799 005a 164E     		ldr	r6, .L132+8
 800              	.LVL109:
 801              		.loc 1 579 0
 802 005c DFF858A0 		ldr	r10, .L132+12
 803 0060 06F5A079 		add	r9, r6, #320
 804 0064 01E0     		b	.L110
 805              	.LVL110:
 806              	.L112:
 807              		.loc 1 574 0
 808 0066 B145     		cmp	r9, r6
 809 0068 12D0     		beq	.L131
 810              	.L110:
 811              		.loc 1 576 0
 812 006a 36F8023F 		ldrh	r3, [r6, #2]!
 813              		.loc 1 579 0
 814 006e 1249     		ldr	r1, .L132+12
 815              		.loc 1 576 0
 816 0070 9D42     		cmp	r5, r3
 817              		.loc 1 579 0
 818 0072 1846     		mov	r0, r3
 819              		.loc 1 576 0
 820 0074 F7D0     		beq	.L112
 821              		.loc 1 579 0
 822 0076 FFF7FEFF 		bl	EE_ReadVariable
 823              	.LVL111:
 824              		.loc 1 581 0
 825 007a 0128     		cmp	r0, #1
 826 007c F3D0     		beq	.L112
 827              		.loc 1 584 0
 828 007e BAF80010 		ldrh	r1, [r10]
 829 0082 3088     		ldrh	r0, [r6]
 830              	.LVL112:
 831 0084 FFF7FEFF 		bl	EE_VerifyPageFullWriteVariable
 832              	.LVL113:
 833              		.loc 1 586 0
 834 0088 0928     		cmp	r0, #9
 835 008a ECD0     		beq	.L112
 836              		.loc 1 584 0
 837 008c 0446     		mov	r4, r0
 838 008e C0E7     		b	.L106
 839              	.LVL114:
 840              	.L131:
 841              		.loc 1 595 0
 842 0090 4046     		mov	r0, r8
 843 0092 FFF7FEFF 		bl	EE_EraseSectorIfNotEmpty.constprop.1
 844              	.LVL115:
 845              		.loc 1 597 0
 846 0096 C0B2     		uxtb	r0, r0
 847 0098 0928     		cmp	r0, #9
 848 009a D3D1     		bne	.L126
 849              		.loc 1 603 0
 850 009c 3846     		mov	r0, r7
 851              	.LVL116:
 852 009e 0021     		movs	r1, #0
 853 00a0 FFF7FEFF 		bl	FLASH_ProgramHalfWord
 854              	.LVL117:
 855              		.loc 1 605 0
ARM GAS  C:\Users\IDONNO~1\AppData\Local\Temp\cc8Y9qO6.s 			page 16


 856 00a4 0928     		cmp	r0, #9
 857 00a6 CDD1     		bne	.L126
 858 00a8 B3E7     		b	.L106
 859              	.L133:
 860 00aa 00BF     		.align	2
 861              	.L132:
 862 00ac 00400008 		.word	134234112
 863 00b0 00800008 		.word	134250496
 864 00b4 FEFFFFFF 		.word	VirtAddVarTab-2
 865 00b8 00000000 		.word	.LANCHOR0
 866              	.LBE26:
 867              	.LBE25:
 868              		.cfi_endproc
 869              	.LFE221:
 870              		.size	EE_WriteVariable, .-EE_WriteVariable
 871              		.global	DataVar
 872              		.section	.bss.DataVar,"aw",%nobits
 873              		.align	1
 874              		.set	.LANCHOR0,. + 0
 875              		.type	DataVar, %object
 876              		.size	DataVar, 2
 877              	DataVar:
 878 0000 0000     		.space	2
 879              		.text
 880              	.Letext0:
 881              		.file 2 "c:\\program files (x86)\\gnu tools arm embedded\\5.2 2015q4\\arm-none-eabi\\include\\mach
 882              		.file 3 "c:\\program files (x86)\\gnu tools arm embedded\\5.2 2015q4\\arm-none-eabi\\include\\sys\
 883              		.file 4 "lib/ChibiOS_3.0.2/ext/stdperiph_stm32f4/inc/stm32f4xx_flash.h"
 884              		.file 5 "c:\\program files (x86)\\gnu tools arm embedded\\5.2 2015q4\\lib\\gcc\\arm-none-eabi\\5.2
 885              		.file 6 "lib/ChibiOS_3.0.2/os/rt/ports/ARMCMx/compilers/GCC/chtypes.h"
 886              		.file 7 "lib/ChibiOS_3.0.2/os/rt/include/chsystypes.h"
 887              		.file 8 "lib/ChibiOS_3.0.2/os/rt/include/chschd.h"
 888              		.file 9 "lib/ChibiOS_3.0.2/os/rt/ports/ARMCMx/chcore.h"
 889              		.file 10 "lib/ChibiOS_3.0.2/os/rt/ports/ARMCMx/chcore_v7m.h"
 890              		.file 11 "lib/ChibiOS_3.0.2/os/rt/include/chtm.h"
 891              		.file 12 "lib/ChibiOS_3.0.2/os/rt/include/chsem.h"
 892              		.file 13 "lib/ChibiOS_3.0.2/os/rt/include/chmtx.h"
 893              		.file 14 "lib/ChibiOS_3.0.2/os/ext/CMSIS/include/core_cm4.h"
 894              		.file 15 "src/core/flash_helper.h"
 895              		.section	.debug_info,"",%progbits
 896              	.Ldebug_info0:
 897 0000 7B0E0000 		.4byte	0xe7b
 898 0004 0400     		.2byte	0x4
 899 0006 00000000 		.4byte	.Ldebug_abbrev0
 900 000a 04       		.byte	0x4
 901 000b 01       		.uleb128 0x1
 902 000c AD050000 		.4byte	.LASF154
 903 0010 0C       		.byte	0xc
 904 0011 BB010000 		.4byte	.LASF155
 905 0015 42000000 		.4byte	.LASF156
 906 0019 30000000 		.4byte	.Ldebug_ranges0+0x30
 907 001d 00000000 		.4byte	0
 908 0021 00000000 		.4byte	.Ldebug_line0
 909 0025 02       		.uleb128 0x2
 910 0026 01       		.byte	0x1
 911 0027 06       		.byte	0x6
 912 0028 14010000 		.4byte	.LASF0
ARM GAS  C:\Users\IDONNO~1\AppData\Local\Temp\cc8Y9qO6.s 			page 17


 913 002c 03       		.uleb128 0x3
 914 002d 1D000000 		.4byte	.LASF2
 915 0031 02       		.byte	0x2
 916 0032 1D       		.byte	0x1d
 917 0033 37000000 		.4byte	0x37
 918 0037 02       		.uleb128 0x2
 919 0038 01       		.byte	0x1
 920 0039 08       		.byte	0x8
 921 003a 6C040000 		.4byte	.LASF1
 922 003e 03       		.uleb128 0x3
 923 003f E6010000 		.4byte	.LASF3
 924 0043 02       		.byte	0x2
 925 0044 29       		.byte	0x29
 926 0045 49000000 		.4byte	0x49
 927 0049 02       		.uleb128 0x2
 928 004a 02       		.byte	0x2
 929 004b 05       		.byte	0x5
 930 004c 9B040000 		.4byte	.LASF4
 931 0050 03       		.uleb128 0x3
 932 0051 99050000 		.4byte	.LASF5
 933 0055 02       		.byte	0x2
 934 0056 2B       		.byte	0x2b
 935 0057 5B000000 		.4byte	0x5b
 936 005b 02       		.uleb128 0x2
 937 005c 02       		.byte	0x2
 938 005d 07       		.byte	0x7
 939 005e 78020000 		.4byte	.LASF6
 940 0062 03       		.uleb128 0x3
 941 0063 01030000 		.4byte	.LASF7
 942 0067 02       		.byte	0x2
 943 0068 3F       		.byte	0x3f
 944 0069 6D000000 		.4byte	0x6d
 945 006d 02       		.uleb128 0x2
 946 006e 04       		.byte	0x4
 947 006f 05       		.byte	0x5
 948 0070 82010000 		.4byte	.LASF8
 949 0074 03       		.uleb128 0x3
 950 0075 EF060000 		.4byte	.LASF9
 951 0079 02       		.byte	0x2
 952 007a 41       		.byte	0x41
 953 007b 7F000000 		.4byte	0x7f
 954 007f 02       		.uleb128 0x2
 955 0080 04       		.byte	0x4
 956 0081 07       		.byte	0x7
 957 0082 4B050000 		.4byte	.LASF10
 958 0086 02       		.uleb128 0x2
 959 0087 08       		.byte	0x8
 960 0088 05       		.byte	0x5
 961 0089 06010000 		.4byte	.LASF11
 962 008d 03       		.uleb128 0x3
 963 008e F9030000 		.4byte	.LASF12
 964 0092 02       		.byte	0x2
 965 0093 5B       		.byte	0x5b
 966 0094 98000000 		.4byte	0x98
 967 0098 02       		.uleb128 0x2
 968 0099 08       		.byte	0x8
 969 009a 07       		.byte	0x7
ARM GAS  C:\Users\IDONNO~1\AppData\Local\Temp\cc8Y9qO6.s 			page 18


 970 009b 66000000 		.4byte	.LASF13
 971 009f 04       		.uleb128 0x4
 972 00a0 04       		.byte	0x4
 973 00a1 05       		.byte	0x5
 974 00a2 696E7400 		.ascii	"int\000"
 975 00a6 02       		.uleb128 0x2
 976 00a7 04       		.byte	0x4
 977 00a8 07       		.byte	0x7
 978 00a9 14020000 		.4byte	.LASF14
 979 00ad 03       		.uleb128 0x3
 980 00ae A2070000 		.4byte	.LASF15
 981 00b2 03       		.byte	0x3
 982 00b3 14       		.byte	0x14
 983 00b4 2C000000 		.4byte	0x2c
 984 00b8 03       		.uleb128 0x3
 985 00b9 0D080000 		.4byte	.LASF16
 986 00bd 03       		.byte	0x3
 987 00be 19       		.byte	0x19
 988 00bf 3E000000 		.4byte	0x3e
 989 00c3 03       		.uleb128 0x3
 990 00c4 29020000 		.4byte	.LASF17
 991 00c8 03       		.byte	0x3
 992 00c9 1A       		.byte	0x1a
 993 00ca 50000000 		.4byte	0x50
 994 00ce 03       		.uleb128 0x3
 995 00cf 64040000 		.4byte	.LASF18
 996 00d3 03       		.byte	0x3
 997 00d4 1F       		.byte	0x1f
 998 00d5 62000000 		.4byte	0x62
 999 00d9 03       		.uleb128 0x3
 1000 00da 6B070000 		.4byte	.LASF19
 1001 00de 03       		.byte	0x3
 1002 00df 20       		.byte	0x20
 1003 00e0 74000000 		.4byte	0x74
 1004 00e4 03       		.uleb128 0x3
 1005 00e5 14000000 		.4byte	.LASF20
 1006 00e9 03       		.byte	0x3
 1007 00ea 26       		.byte	0x26
 1008 00eb 8D000000 		.4byte	0x8d
 1009 00ef 02       		.uleb128 0x2
 1010 00f0 04       		.byte	0x4
 1011 00f1 07       		.byte	0x7
 1012 00f2 69030000 		.4byte	.LASF21
 1013 00f6 05       		.uleb128 0x5
 1014 00f7 01       		.byte	0x1
 1015 00f8 37000000 		.4byte	0x37
 1016 00fc 04       		.byte	0x4
 1017 00fd 35       		.byte	0x35
 1018 00fe 39010000 		.4byte	0x139
 1019 0102 06       		.uleb128 0x6
 1020 0103 30010000 		.4byte	.LASF22
 1021 0107 01       		.byte	0x1
 1022 0108 06       		.uleb128 0x6
 1023 0109 5C070000 		.4byte	.LASF23
 1024 010d 02       		.byte	0x2
 1025 010e 06       		.uleb128 0x6
 1026 010f 89050000 		.4byte	.LASF24
ARM GAS  C:\Users\IDONNO~1\AppData\Local\Temp\cc8Y9qO6.s 			page 19


 1027 0113 03       		.byte	0x3
 1028 0114 06       		.uleb128 0x6
 1029 0115 6C050000 		.4byte	.LASF25
 1030 0119 04       		.byte	0x4
 1031 011a 06       		.uleb128 0x6
 1032 011b 1C050000 		.4byte	.LASF26
 1033 011f 05       		.byte	0x5
 1034 0120 06       		.uleb128 0x6
 1035 0121 E7070000 		.4byte	.LASF27
 1036 0125 06       		.byte	0x6
 1037 0126 06       		.uleb128 0x6
 1038 0127 E5030000 		.4byte	.LASF28
 1039 012b 07       		.byte	0x7
 1040 012c 06       		.uleb128 0x6
 1041 012d F0000000 		.4byte	.LASF29
 1042 0131 08       		.byte	0x8
 1043 0132 06       		.uleb128 0x6
 1044 0133 FE070000 		.4byte	.LASF30
 1045 0137 09       		.byte	0x9
 1046 0138 00       		.byte	0
 1047 0139 03       		.uleb128 0x3
 1048 013a AE010000 		.4byte	.LASF31
 1049 013e 04       		.byte	0x4
 1050 013f 3F       		.byte	0x3f
 1051 0140 F6000000 		.4byte	0xf6
 1052 0144 03       		.uleb128 0x3
 1053 0145 F0010000 		.4byte	.LASF32
 1054 0149 05       		.byte	0x5
 1055 014a D8       		.byte	0xd8
 1056 014b A6000000 		.4byte	0xa6
 1057 014f 07       		.uleb128 0x7
 1058 0150 CE000000 		.4byte	0xce
 1059 0154 03       		.uleb128 0x3
 1060 0155 27070000 		.4byte	.LASF33
 1061 0159 06       		.byte	0x6
 1062 015a 45       		.byte	0x45
 1063 015b D9000000 		.4byte	0xd9
 1064 015f 03       		.uleb128 0x3
 1065 0160 D9020000 		.4byte	.LASF34
 1066 0164 06       		.byte	0x6
 1067 0165 48       		.byte	0x48
 1068 0166 AD000000 		.4byte	0xad
 1069 016a 03       		.uleb128 0x3
 1070 016b 95010000 		.4byte	.LASF35
 1071 016f 06       		.byte	0x6
 1072 0170 49       		.byte	0x49
 1073 0171 AD000000 		.4byte	0xad
 1074 0175 03       		.uleb128 0x3
 1075 0176 0A040000 		.4byte	.LASF36
 1076 017a 06       		.byte	0x6
 1077 017b 4A       		.byte	0x4a
 1078 017c AD000000 		.4byte	0xad
 1079 0180 03       		.uleb128 0x3
 1080 0181 5B010000 		.4byte	.LASF37
 1081 0185 06       		.byte	0x6
 1082 0186 4B       		.byte	0x4b
 1083 0187 AD000000 		.4byte	0xad
ARM GAS  C:\Users\IDONNO~1\AppData\Local\Temp\cc8Y9qO6.s 			page 20


 1084 018b 03       		.uleb128 0x3
 1085 018c 41040000 		.4byte	.LASF38
 1086 0190 06       		.byte	0x6
 1087 0191 4C       		.byte	0x4c
 1088 0192 D9000000 		.4byte	0xd9
 1089 0196 03       		.uleb128 0x3
 1090 0197 95020000 		.4byte	.LASF39
 1091 019b 06       		.byte	0x6
 1092 019c 4D       		.byte	0x4d
 1093 019d CE000000 		.4byte	0xce
 1094 01a1 03       		.uleb128 0x3
 1095 01a2 F5020000 		.4byte	.LASF40
 1096 01a6 06       		.byte	0x6
 1097 01a7 4F       		.byte	0x4f
 1098 01a8 D9000000 		.4byte	0xd9
 1099 01ac 03       		.uleb128 0x3
 1100 01ad 0E020000 		.4byte	.LASF41
 1101 01b1 06       		.byte	0x6
 1102 01b2 51       		.byte	0x51
 1103 01b3 CE000000 		.4byte	0xce
 1104 01b7 03       		.uleb128 0x3
 1105 01b8 D1060000 		.4byte	.LASF42
 1106 01bc 07       		.byte	0x7
 1107 01bd 33       		.byte	0x33
 1108 01be D9000000 		.4byte	0xd9
 1109 01c2 03       		.uleb128 0x3
 1110 01c3 A4050000 		.4byte	.LASF43
 1111 01c7 07       		.byte	0x7
 1112 01c8 3F       		.byte	0x3f
 1113 01c9 CD010000 		.4byte	0x1cd
 1114 01cd 08       		.uleb128 0x8
 1115 01ce 8B020000 		.4byte	.LASF65
 1116 01d2 48       		.byte	0x48
 1117 01d3 08       		.byte	0x8
 1118 01d4 C2       		.byte	0xc2
 1119 01d5 D2020000 		.4byte	0x2d2
 1120 01d9 09       		.uleb128 0x9
 1121 01da D7040000 		.4byte	.LASF44
 1122 01de 08       		.byte	0x8
 1123 01df C3       		.byte	0xc3
 1124 01e0 DD020000 		.4byte	0x2dd
 1125 01e4 00       		.byte	0
 1126 01e5 09       		.uleb128 0x9
 1127 01e6 3A040000 		.4byte	.LASF45
 1128 01ea 08       		.byte	0x8
 1129 01eb C5       		.byte	0xc5
 1130 01ec DD020000 		.4byte	0x2dd
 1131 01f0 04       		.byte	0x4
 1132 01f1 09       		.uleb128 0x9
 1133 01f2 E9000000 		.4byte	.LASF46
 1134 01f6 08       		.byte	0x8
 1135 01f7 C7       		.byte	0xc7
 1136 01f8 8B010000 		.4byte	0x18b
 1137 01fc 08       		.byte	0x8
 1138 01fd 09       		.uleb128 0x9
 1139 01fe 1D080000 		.4byte	.LASF47
 1140 0202 08       		.byte	0x8
ARM GAS  C:\Users\IDONNO~1\AppData\Local\Temp\cc8Y9qO6.s 			page 21


 1141 0203 C8       		.byte	0xc8
 1142 0204 06050000 		.4byte	0x506
 1143 0208 0C       		.byte	0xc
 1144 0209 09       		.uleb128 0x9
 1145 020a 9E010000 		.4byte	.LASF48
 1146 020e 08       		.byte	0x8
 1147 020f CA       		.byte	0xca
 1148 0210 DD020000 		.4byte	0x2dd
 1149 0214 10       		.byte	0x10
 1150 0215 09       		.uleb128 0x9
 1151 0216 AD030000 		.4byte	.LASF49
 1152 021a 08       		.byte	0x8
 1153 021b CB       		.byte	0xcb
 1154 021c DD020000 		.4byte	0x2dd
 1155 0220 14       		.byte	0x14
 1156 0221 09       		.uleb128 0x9
 1157 0222 D5070000 		.4byte	.LASF50
 1158 0226 08       		.byte	0x8
 1159 0227 D2       		.byte	0xd2
 1160 0228 4B070000 		.4byte	0x74b
 1161 022c 18       		.byte	0x18
 1162 022d 09       		.uleb128 0x9
 1163 022e A5040000 		.4byte	.LASF51
 1164 0232 08       		.byte	0x8
 1165 0233 DD       		.byte	0xdd
 1166 0234 6A010000 		.4byte	0x16a
 1167 0238 1C       		.byte	0x1c
 1168 0239 09       		.uleb128 0x9
 1169 023a DE040000 		.4byte	.LASF52
 1170 023e 08       		.byte	0x8
 1171 023f E1       		.byte	0xe1
 1172 0240 5F010000 		.4byte	0x15f
 1173 0244 1D       		.byte	0x1d
 1174 0245 09       		.uleb128 0x9
 1175 0246 8D070000 		.4byte	.LASF53
 1176 024a 08       		.byte	0x8
 1177 024b E6       		.byte	0xe6
 1178 024c 75010000 		.4byte	0x175
 1179 0250 1E       		.byte	0x1e
 1180 0251 09       		.uleb128 0x9
 1181 0252 BF040000 		.4byte	.LASF54
 1182 0256 08       		.byte	0x8
 1183 0257 EC       		.byte	0xec
 1184 0258 80010000 		.4byte	0x180
 1185 025c 1F       		.byte	0x1f
 1186 025d 09       		.uleb128 0x9
 1187 025e 32020000 		.4byte	.LASF55
 1188 0262 08       		.byte	0x8
 1189 0263 F3       		.byte	0xf3
 1190 0264 5D070000 		.4byte	0x75d
 1191 0268 20       		.byte	0x20
 1192 0269 0A       		.uleb128 0xa
 1193 026a 705F7500 		.ascii	"p_u\000"
 1194 026e 08       		.byte	0x8
 1195 026f 3101     		.2byte	0x131
 1196 0271 86060000 		.4byte	0x686
 1197 0275 24       		.byte	0x24
ARM GAS  C:\Users\IDONNO~1\AppData\Local\Temp\cc8Y9qO6.s 			page 22


 1198 0276 0B       		.uleb128 0xb
 1199 0277 50030000 		.4byte	.LASF56
 1200 027b 08       		.byte	0x8
 1201 027c 3601     		.2byte	0x136
 1202 027e E3020000 		.4byte	0x2e3
 1203 0282 28       		.byte	0x28
 1204 0283 0B       		.uleb128 0xb
 1205 0284 59020000 		.4byte	.LASF57
 1206 0288 08       		.byte	0x8
 1207 0289 3C01     		.2byte	0x13c
 1208 028b 07030000 		.4byte	0x307
 1209 028f 2C       		.byte	0x2c
 1210 0290 0B       		.uleb128 0xb
 1211 0291 21070000 		.4byte	.LASF58
 1212 0295 08       		.byte	0x8
 1213 0296 4001     		.2byte	0x140
 1214 0298 96010000 		.4byte	0x196
 1215 029c 34       		.byte	0x34
 1216 029d 0B       		.uleb128 0xb
 1217 029e 11050000 		.4byte	.LASF59
 1218 02a2 08       		.byte	0x8
 1219 02a3 4601     		.2byte	0x146
 1220 02a5 A1010000 		.4byte	0x1a1
 1221 02a9 38       		.byte	0x38
 1222 02aa 0B       		.uleb128 0xb
 1223 02ab 91040000 		.4byte	.LASF60
 1224 02af 08       		.byte	0x8
 1225 02b0 4D01     		.2byte	0x14d
 1226 02b2 45070000 		.4byte	0x745
 1227 02b6 3C       		.byte	0x3c
 1228 02b7 0B       		.uleb128 0xb
 1229 02b8 DB060000 		.4byte	.LASF61
 1230 02bc 08       		.byte	0x8
 1231 02bd 5101     		.2byte	0x151
 1232 02bf 8B010000 		.4byte	0x18b
 1233 02c3 40       		.byte	0x40
 1234 02c4 0B       		.uleb128 0xb
 1235 02c5 20010000 		.4byte	.LASF62
 1236 02c9 08       		.byte	0x8
 1237 02ca 5801     		.2byte	0x158
 1238 02cc BA030000 		.4byte	0x3ba
 1239 02d0 44       		.byte	0x44
 1240 02d1 00       		.byte	0
 1241 02d2 03       		.uleb128 0x3
 1242 02d3 72030000 		.4byte	.LASF63
 1243 02d7 07       		.byte	0x7
 1244 02d8 44       		.byte	0x44
 1245 02d9 DD020000 		.4byte	0x2dd
 1246 02dd 0C       		.uleb128 0xc
 1247 02de 04       		.byte	0x4
 1248 02df C2010000 		.4byte	0x1c2
 1249 02e3 03       		.uleb128 0x3
 1250 02e4 21030000 		.4byte	.LASF64
 1251 02e8 07       		.byte	0x7
 1252 02e9 49       		.byte	0x49
 1253 02ea EE020000 		.4byte	0x2ee
 1254 02ee 08       		.uleb128 0x8
ARM GAS  C:\Users\IDONNO~1\AppData\Local\Temp\cc8Y9qO6.s 			page 23


 1255 02ef 3B050000 		.4byte	.LASF66
 1256 02f3 04       		.byte	0x4
 1257 02f4 08       		.byte	0x8
 1258 02f5 B0       		.byte	0xb0
 1259 02f6 07030000 		.4byte	0x307
 1260 02fa 09       		.uleb128 0x9
 1261 02fb D7040000 		.4byte	.LASF44
 1262 02ff 08       		.byte	0x8
 1263 0300 B1       		.byte	0xb1
 1264 0301 DD020000 		.4byte	0x2dd
 1265 0305 00       		.byte	0
 1266 0306 00       		.byte	0
 1267 0307 03       		.uleb128 0x3
 1268 0308 74070000 		.4byte	.LASF67
 1269 030c 07       		.byte	0x7
 1270 030d 50       		.byte	0x50
 1271 030e 12030000 		.4byte	0x312
 1272 0312 08       		.uleb128 0x8
 1273 0313 D8000000 		.4byte	.LASF68
 1274 0317 08       		.byte	0x8
 1275 0318 08       		.byte	0x8
 1276 0319 B7       		.byte	0xb7
 1277 031a 37030000 		.4byte	0x337
 1278 031e 09       		.uleb128 0x9
 1279 031f D7040000 		.4byte	.LASF44
 1280 0323 08       		.byte	0x8
 1281 0324 B8       		.byte	0xb8
 1282 0325 DD020000 		.4byte	0x2dd
 1283 0329 00       		.byte	0
 1284 032a 09       		.uleb128 0x9
 1285 032b 3A040000 		.4byte	.LASF45
 1286 032f 08       		.byte	0x8
 1287 0330 B9       		.byte	0xb9
 1288 0331 DD020000 		.4byte	0x2dd
 1289 0335 04       		.byte	0x4
 1290 0336 00       		.byte	0
 1291 0337 03       		.uleb128 0x3
 1292 0338 00000000 		.4byte	.LASF69
 1293 033c 07       		.byte	0x7
 1294 033d 57       		.byte	0x57
 1295 033e 42030000 		.4byte	0x342
 1296 0342 0D       		.uleb128 0xd
 1297 0343 64020000 		.4byte	.LASF70
 1298 0347 1C       		.byte	0x1c
 1299 0348 08       		.byte	0x8
 1300 0349 9001     		.2byte	0x190
 1301 034b 9E030000 		.4byte	0x39e
 1302 034f 0B       		.uleb128 0xb
 1303 0350 33050000 		.4byte	.LASF71
 1304 0354 08       		.byte	0x8
 1305 0355 9101     		.2byte	0x191
 1306 0357 07030000 		.4byte	0x307
 1307 035b 00       		.byte	0
 1308 035c 0B       		.uleb128 0xb
 1309 035d C9040000 		.4byte	.LASF72
 1310 0361 08       		.byte	0x8
 1311 0362 9201     		.2byte	0x192
ARM GAS  C:\Users\IDONNO~1\AppData\Local\Temp\cc8Y9qO6.s 			page 24


 1312 0364 8B010000 		.4byte	0x18b
 1313 0368 08       		.byte	0x8
 1314 0369 0B       		.uleb128 0xb
 1315 036a B5030000 		.4byte	.LASF73
 1316 036e 08       		.byte	0x8
 1317 036f 9401     		.2byte	0x194
 1318 0371 06050000 		.4byte	0x506
 1319 0375 0C       		.byte	0xc
 1320 0376 0B       		.uleb128 0xb
 1321 0377 CD010000 		.4byte	.LASF74
 1322 037b 08       		.byte	0x8
 1323 037c 9701     		.2byte	0x197
 1324 037e DD020000 		.4byte	0x2dd
 1325 0382 10       		.byte	0x10
 1326 0383 0B       		.uleb128 0xb
 1327 0384 DD030000 		.4byte	.LASF75
 1328 0388 08       		.byte	0x8
 1329 0389 9801     		.2byte	0x198
 1330 038b DD020000 		.4byte	0x2dd
 1331 038f 14       		.byte	0x14
 1332 0390 0B       		.uleb128 0xb
 1333 0391 D3030000 		.4byte	.LASF76
 1334 0395 08       		.byte	0x8
 1335 0396 9B01     		.2byte	0x19b
 1336 0398 DD020000 		.4byte	0x2dd
 1337 039c 18       		.byte	0x18
 1338 039d 00       		.byte	0
 1339 039e 03       		.uleb128 0x3
 1340 039f E6060000 		.4byte	.LASF77
 1341 03a3 07       		.byte	0x7
 1342 03a4 5C       		.byte	0x5c
 1343 03a5 A9030000 		.4byte	0x3a9
 1344 03a9 0C       		.uleb128 0xc
 1345 03aa 04       		.byte	0x4
 1346 03ab AF030000 		.4byte	0x3af
 1347 03af 0E       		.uleb128 0xe
 1348 03b0 BA030000 		.4byte	0x3ba
 1349 03b4 0F       		.uleb128 0xf
 1350 03b5 BA030000 		.4byte	0x3ba
 1351 03b9 00       		.byte	0
 1352 03ba 10       		.uleb128 0x10
 1353 03bb 04       		.byte	0x4
 1354 03bc 03       		.uleb128 0x3
 1355 03bd 2A040000 		.4byte	.LASF78
 1356 03c1 07       		.byte	0x7
 1357 03c2 61       		.byte	0x61
 1358 03c3 C7030000 		.4byte	0x3c7
 1359 03c7 0D       		.uleb128 0xd
 1360 03c8 F3040000 		.4byte	.LASF79
 1361 03cc 14       		.byte	0x14
 1362 03cd 08       		.byte	0x8
 1363 03ce 6B01     		.2byte	0x16b
 1364 03d0 16040000 		.4byte	0x416
 1365 03d4 0B       		.uleb128 0xb
 1366 03d5 21020000 		.4byte	.LASF80
 1367 03d9 08       		.byte	0x8
 1368 03da 6C01     		.2byte	0x16c
ARM GAS  C:\Users\IDONNO~1\AppData\Local\Temp\cc8Y9qO6.s 			page 25


 1369 03dc 62070000 		.4byte	0x762
 1370 03e0 00       		.byte	0
 1371 03e1 0B       		.uleb128 0xb
 1372 03e2 DE010000 		.4byte	.LASF81
 1373 03e6 08       		.byte	0x8
 1374 03e7 6D01     		.2byte	0x16d
 1375 03e9 62070000 		.4byte	0x762
 1376 03ed 04       		.byte	0x4
 1377 03ee 0B       		.uleb128 0xb
 1378 03ef 40020000 		.4byte	.LASF82
 1379 03f3 08       		.byte	0x8
 1380 03f4 6E01     		.2byte	0x16e
 1381 03f6 B7010000 		.4byte	0x1b7
 1382 03fa 08       		.byte	0x8
 1383 03fb 0B       		.uleb128 0xb
 1384 03fc 23080000 		.4byte	.LASF83
 1385 0400 08       		.byte	0x8
 1386 0401 6F01     		.2byte	0x16f
 1387 0403 9E030000 		.4byte	0x39e
 1388 0407 0C       		.byte	0xc
 1389 0408 0B       		.uleb128 0xb
 1390 0409 55070000 		.4byte	.LASF84
 1391 040d 08       		.byte	0x8
 1392 040e 7101     		.2byte	0x171
 1393 0410 BA030000 		.4byte	0x3ba
 1394 0414 10       		.byte	0x10
 1395 0415 00       		.byte	0
 1396 0416 03       		.uleb128 0x3
 1397 0417 A9000000 		.4byte	.LASF85
 1398 041b 07       		.byte	0x7
 1399 041c 66       		.byte	0x66
 1400 041d 21040000 		.4byte	0x421
 1401 0421 0D       		.uleb128 0xd
 1402 0422 85030000 		.4byte	.LASF86
 1403 0426 10       		.byte	0x10
 1404 0427 08       		.byte	0x8
 1405 0428 7B01     		.2byte	0x17b
 1406 042a 63040000 		.4byte	0x463
 1407 042e 0B       		.uleb128 0xb
 1408 042f 21020000 		.4byte	.LASF80
 1409 0433 08       		.byte	0x8
 1410 0434 7C01     		.2byte	0x17c
 1411 0436 62070000 		.4byte	0x762
 1412 043a 00       		.byte	0
 1413 043b 0B       		.uleb128 0xb
 1414 043c DE010000 		.4byte	.LASF81
 1415 0440 08       		.byte	0x8
 1416 0441 7E01     		.2byte	0x17e
 1417 0443 62070000 		.4byte	0x762
 1418 0447 04       		.byte	0x4
 1419 0448 0B       		.uleb128 0xb
 1420 0449 40020000 		.4byte	.LASF82
 1421 044d 08       		.byte	0x8
 1422 044e 8001     		.2byte	0x180
 1423 0450 B7010000 		.4byte	0x1b7
 1424 0454 08       		.byte	0x8
 1425 0455 0B       		.uleb128 0xb
ARM GAS  C:\Users\IDONNO~1\AppData\Local\Temp\cc8Y9qO6.s 			page 26


 1426 0456 DC070000 		.4byte	.LASF87
 1427 045a 08       		.byte	0x8
 1428 045b 8201     		.2byte	0x182
 1429 045d 5D070000 		.4byte	0x75d
 1430 0461 0C       		.byte	0xc
 1431 0462 00       		.byte	0
 1432 0463 03       		.uleb128 0x3
 1433 0464 33000000 		.4byte	.LASF88
 1434 0468 07       		.byte	0x7
 1435 0469 6B       		.byte	0x6b
 1436 046a 6E040000 		.4byte	0x46e
 1437 046e 0D       		.uleb128 0xd
 1438 046f 4E040000 		.4byte	.LASF89
 1439 0473 04       		.byte	0x4
 1440 0474 08       		.byte	0x8
 1441 0475 A201     		.2byte	0x1a2
 1442 0477 89040000 		.4byte	0x489
 1443 047b 0B       		.uleb128 0xb
 1444 047c FA060000 		.4byte	.LASF90
 1445 0480 08       		.byte	0x8
 1446 0481 AA01     		.2byte	0x1aa
 1447 0483 68070000 		.4byte	0x768
 1448 0487 00       		.byte	0
 1449 0488 00       		.byte	0
 1450 0489 03       		.uleb128 0x3
 1451 048a B6020000 		.4byte	.LASF91
 1452 048e 07       		.byte	0x7
 1453 048f 70       		.byte	0x70
 1454 0490 94040000 		.4byte	0x494
 1455 0494 11       		.uleb128 0x11
 1456 0495 78010000 		.4byte	.LASF92
 1457 0499 5802     		.2byte	0x258
 1458 049b 08       		.byte	0x8
 1459 049c C201     		.2byte	0x1c2
 1460 049e F0040000 		.4byte	0x4f0
 1461 04a2 0B       		.uleb128 0xb
 1462 04a3 9C070000 		.4byte	.LASF93
 1463 04a7 08       		.byte	0x8
 1464 04a8 C601     		.2byte	0x1c6
 1465 04aa 37030000 		.4byte	0x337
 1466 04ae 00       		.byte	0
 1467 04af 0B       		.uleb128 0xb
 1468 04b0 54010000 		.4byte	.LASF94
 1469 04b4 08       		.byte	0x8
 1470 04b5 CA01     		.2byte	0x1ca
 1471 04b7 16040000 		.4byte	0x416
 1472 04bb 1C       		.byte	0x1c
 1473 04bc 0A       		.uleb128 0xa
 1474 04bd 64626700 		.ascii	"dbg\000"
 1475 04c1 08       		.byte	0x8
 1476 04c2 CE01     		.2byte	0x1ce
 1477 04c4 63040000 		.4byte	0x463
 1478 04c8 2C       		.byte	0x2c
 1479 04c9 0B       		.uleb128 0xb
 1480 04ca 97000000 		.4byte	.LASF95
 1481 04ce 08       		.byte	0x8
 1482 04cf D201     		.2byte	0x1d2
ARM GAS  C:\Users\IDONNO~1\AppData\Local\Temp\cc8Y9qO6.s 			page 27


 1483 04d1 C2010000 		.4byte	0x1c2
 1484 04d5 30       		.byte	0x30
 1485 04d6 0A       		.uleb128 0xa
 1486 04d7 746D00   		.ascii	"tm\000"
 1487 04da 08       		.byte	0x8
 1488 04db D701     		.2byte	0x1d7
 1489 04dd 7B060000 		.4byte	0x67b
 1490 04e1 78       		.byte	0x78
 1491 04e2 0B       		.uleb128 0xb
 1492 04e3 FF010000 		.4byte	.LASF96
 1493 04e7 08       		.byte	0x8
 1494 04e8 E301     		.2byte	0x1e3
 1495 04ea 6D070000 		.4byte	0x76d
 1496 04ee 80       		.byte	0x80
 1497 04ef 00       		.byte	0
 1498 04f0 03       		.uleb128 0x3
 1499 04f1 D5010000 		.4byte	.LASF97
 1500 04f5 09       		.byte	0x9
 1501 04f6 65       		.byte	0x65
 1502 04f7 BA030000 		.4byte	0x3ba
 1503 04fb 03       		.uleb128 0x3
 1504 04fc 16030000 		.4byte	.LASF98
 1505 0500 09       		.byte	0x9
 1506 0501 6D       		.byte	0x6d
 1507 0502 E4000000 		.4byte	0xe4
 1508 0506 08       		.uleb128 0x8
 1509 0507 0B070000 		.4byte	.LASF99
 1510 050b 04       		.byte	0x4
 1511 050c 09       		.byte	0x9
 1512 050d 89       		.byte	0x89
 1513 050e 1F050000 		.4byte	0x51f
 1514 0512 12       		.uleb128 0x12
 1515 0513 72313300 		.ascii	"r13\000"
 1516 0517 09       		.byte	0x9
 1517 0518 8A       		.byte	0x8a
 1518 0519 60060000 		.4byte	0x660
 1519 051d 00       		.byte	0
 1520 051e 00       		.byte	0
 1521 051f 08       		.uleb128 0x8
 1522 0520 27000000 		.4byte	.LASF100
 1523 0524 64       		.byte	0x64
 1524 0525 0A       		.byte	0xa
 1525 0526 F4       		.byte	0xf4
 1526 0527 60060000 		.4byte	0x660
 1527 052b 12       		.uleb128 0x12
 1528 052c 73313600 		.ascii	"s16\000"
 1529 0530 0A       		.byte	0xa
 1530 0531 F6       		.byte	0xf6
 1531 0532 F0040000 		.4byte	0x4f0
 1532 0536 00       		.byte	0
 1533 0537 12       		.uleb128 0x12
 1534 0538 73313700 		.ascii	"s17\000"
 1535 053c 0A       		.byte	0xa
 1536 053d F7       		.byte	0xf7
 1537 053e F0040000 		.4byte	0x4f0
 1538 0542 04       		.byte	0x4
 1539 0543 12       		.uleb128 0x12
ARM GAS  C:\Users\IDONNO~1\AppData\Local\Temp\cc8Y9qO6.s 			page 28


 1540 0544 73313800 		.ascii	"s18\000"
 1541 0548 0A       		.byte	0xa
 1542 0549 F8       		.byte	0xf8
 1543 054a F0040000 		.4byte	0x4f0
 1544 054e 08       		.byte	0x8
 1545 054f 12       		.uleb128 0x12
 1546 0550 73313900 		.ascii	"s19\000"
 1547 0554 0A       		.byte	0xa
 1548 0555 F9       		.byte	0xf9
 1549 0556 F0040000 		.4byte	0x4f0
 1550 055a 0C       		.byte	0xc
 1551 055b 12       		.uleb128 0x12
 1552 055c 73323000 		.ascii	"s20\000"
 1553 0560 0A       		.byte	0xa
 1554 0561 FA       		.byte	0xfa
 1555 0562 F0040000 		.4byte	0x4f0
 1556 0566 10       		.byte	0x10
 1557 0567 12       		.uleb128 0x12
 1558 0568 73323100 		.ascii	"s21\000"
 1559 056c 0A       		.byte	0xa
 1560 056d FB       		.byte	0xfb
 1561 056e F0040000 		.4byte	0x4f0
 1562 0572 14       		.byte	0x14
 1563 0573 12       		.uleb128 0x12
 1564 0574 73323200 		.ascii	"s22\000"
 1565 0578 0A       		.byte	0xa
 1566 0579 FC       		.byte	0xfc
 1567 057a F0040000 		.4byte	0x4f0
 1568 057e 18       		.byte	0x18
 1569 057f 12       		.uleb128 0x12
 1570 0580 73323300 		.ascii	"s23\000"
 1571 0584 0A       		.byte	0xa
 1572 0585 FD       		.byte	0xfd
 1573 0586 F0040000 		.4byte	0x4f0
 1574 058a 1C       		.byte	0x1c
 1575 058b 12       		.uleb128 0x12
 1576 058c 73323400 		.ascii	"s24\000"
 1577 0590 0A       		.byte	0xa
 1578 0591 FE       		.byte	0xfe
 1579 0592 F0040000 		.4byte	0x4f0
 1580 0596 20       		.byte	0x20
 1581 0597 12       		.uleb128 0x12
 1582 0598 73323500 		.ascii	"s25\000"
 1583 059c 0A       		.byte	0xa
 1584 059d FF       		.byte	0xff
 1585 059e F0040000 		.4byte	0x4f0
 1586 05a2 24       		.byte	0x24
 1587 05a3 0A       		.uleb128 0xa
 1588 05a4 73323600 		.ascii	"s26\000"
 1589 05a8 0A       		.byte	0xa
 1590 05a9 0001     		.2byte	0x100
 1591 05ab F0040000 		.4byte	0x4f0
 1592 05af 28       		.byte	0x28
 1593 05b0 0A       		.uleb128 0xa
 1594 05b1 73323700 		.ascii	"s27\000"
 1595 05b5 0A       		.byte	0xa
 1596 05b6 0101     		.2byte	0x101
ARM GAS  C:\Users\IDONNO~1\AppData\Local\Temp\cc8Y9qO6.s 			page 29


 1597 05b8 F0040000 		.4byte	0x4f0
 1598 05bc 2C       		.byte	0x2c
 1599 05bd 0A       		.uleb128 0xa
 1600 05be 73323800 		.ascii	"s28\000"
 1601 05c2 0A       		.byte	0xa
 1602 05c3 0201     		.2byte	0x102
 1603 05c5 F0040000 		.4byte	0x4f0
 1604 05c9 30       		.byte	0x30
 1605 05ca 0A       		.uleb128 0xa
 1606 05cb 73323900 		.ascii	"s29\000"
 1607 05cf 0A       		.byte	0xa
 1608 05d0 0301     		.2byte	0x103
 1609 05d2 F0040000 		.4byte	0x4f0
 1610 05d6 34       		.byte	0x34
 1611 05d7 0A       		.uleb128 0xa
 1612 05d8 73333000 		.ascii	"s30\000"
 1613 05dc 0A       		.byte	0xa
 1614 05dd 0401     		.2byte	0x104
 1615 05df F0040000 		.4byte	0x4f0
 1616 05e3 38       		.byte	0x38
 1617 05e4 0A       		.uleb128 0xa
 1618 05e5 73333100 		.ascii	"s31\000"
 1619 05e9 0A       		.byte	0xa
 1620 05ea 0501     		.2byte	0x105
 1621 05ec F0040000 		.4byte	0x4f0
 1622 05f0 3C       		.byte	0x3c
 1623 05f1 0A       		.uleb128 0xa
 1624 05f2 723400   		.ascii	"r4\000"
 1625 05f5 0A       		.byte	0xa
 1626 05f6 0701     		.2byte	0x107
 1627 05f8 F0040000 		.4byte	0x4f0
 1628 05fc 40       		.byte	0x40
 1629 05fd 0A       		.uleb128 0xa
 1630 05fe 723500   		.ascii	"r5\000"
 1631 0601 0A       		.byte	0xa
 1632 0602 0801     		.2byte	0x108
 1633 0604 F0040000 		.4byte	0x4f0
 1634 0608 44       		.byte	0x44
 1635 0609 0A       		.uleb128 0xa
 1636 060a 723600   		.ascii	"r6\000"
 1637 060d 0A       		.byte	0xa
 1638 060e 0901     		.2byte	0x109
 1639 0610 F0040000 		.4byte	0x4f0
 1640 0614 48       		.byte	0x48
 1641 0615 0A       		.uleb128 0xa
 1642 0616 723700   		.ascii	"r7\000"
 1643 0619 0A       		.byte	0xa
 1644 061a 0A01     		.2byte	0x10a
 1645 061c F0040000 		.4byte	0x4f0
 1646 0620 4C       		.byte	0x4c
 1647 0621 0A       		.uleb128 0xa
 1648 0622 723800   		.ascii	"r8\000"
 1649 0625 0A       		.byte	0xa
 1650 0626 0B01     		.2byte	0x10b
 1651 0628 F0040000 		.4byte	0x4f0
 1652 062c 50       		.byte	0x50
 1653 062d 0A       		.uleb128 0xa
ARM GAS  C:\Users\IDONNO~1\AppData\Local\Temp\cc8Y9qO6.s 			page 30


 1654 062e 723900   		.ascii	"r9\000"
 1655 0631 0A       		.byte	0xa
 1656 0632 0C01     		.2byte	0x10c
 1657 0634 F0040000 		.4byte	0x4f0
 1658 0638 54       		.byte	0x54
 1659 0639 0A       		.uleb128 0xa
 1660 063a 72313000 		.ascii	"r10\000"
 1661 063e 0A       		.byte	0xa
 1662 063f 0D01     		.2byte	0x10d
 1663 0641 F0040000 		.4byte	0x4f0
 1664 0645 58       		.byte	0x58
 1665 0646 0A       		.uleb128 0xa
 1666 0647 72313100 		.ascii	"r11\000"
 1667 064b 0A       		.byte	0xa
 1668 064c 0E01     		.2byte	0x10e
 1669 064e F0040000 		.4byte	0x4f0
 1670 0652 5C       		.byte	0x5c
 1671 0653 0A       		.uleb128 0xa
 1672 0654 6C7200   		.ascii	"lr\000"
 1673 0657 0A       		.byte	0xa
 1674 0658 0F01     		.2byte	0x10f
 1675 065a F0040000 		.4byte	0x4f0
 1676 065e 60       		.byte	0x60
 1677 065f 00       		.byte	0
 1678 0660 0C       		.uleb128 0xc
 1679 0661 04       		.byte	0x4
 1680 0662 1F050000 		.4byte	0x51f
 1681 0666 13       		.uleb128 0x13
 1682 0667 04       		.byte	0x4
 1683 0668 0B       		.byte	0xb
 1684 0669 38       		.byte	0x38
 1685 066a 7B060000 		.4byte	0x67b
 1686 066e 09       		.uleb128 0x9
 1687 066f 04070000 		.4byte	.LASF101
 1688 0673 0B       		.byte	0xb
 1689 0674 3C       		.byte	0x3c
 1690 0675 54010000 		.4byte	0x154
 1691 0679 00       		.byte	0
 1692 067a 00       		.byte	0
 1693 067b 03       		.uleb128 0x3
 1694 067c BB030000 		.4byte	.LASF102
 1695 0680 0B       		.byte	0xb
 1696 0681 3D       		.byte	0x3d
 1697 0682 66060000 		.4byte	0x666
 1698 0686 14       		.uleb128 0x14
 1699 0687 04       		.byte	0x4
 1700 0688 08       		.byte	0x8
 1701 0689 FA       		.byte	0xfa
 1702 068a E3060000 		.4byte	0x6e3
 1703 068e 15       		.uleb128 0x15
 1704 068f 0D000000 		.4byte	.LASF103
 1705 0693 08       		.byte	0x8
 1706 0694 0101     		.2byte	0x101
 1707 0696 96010000 		.4byte	0x196
 1708 069a 15       		.uleb128 0x15
 1709 069b 8E000000 		.4byte	.LASF104
 1710 069f 08       		.byte	0x8
ARM GAS  C:\Users\IDONNO~1\AppData\Local\Temp\cc8Y9qO6.s 			page 31


 1711 06a0 0801     		.2byte	0x108
 1712 06a2 96010000 		.4byte	0x196
 1713 06a6 15       		.uleb128 0x15
 1714 06a7 CE070000 		.4byte	.LASF105
 1715 06ab 08       		.byte	0x8
 1716 06ac 0F01     		.2byte	0x10f
 1717 06ae BA030000 		.4byte	0x3ba
 1718 06b2 15       		.uleb128 0x15
 1719 06b3 72010000 		.4byte	.LASF106
 1720 06b7 08       		.byte	0x8
 1721 06b8 1601     		.2byte	0x116
 1722 06ba E3060000 		.4byte	0x6e3
 1723 06be 15       		.uleb128 0x15
 1724 06bf 39020000 		.4byte	.LASF107
 1725 06c3 08       		.byte	0x8
 1726 06c4 1E01     		.2byte	0x11e
 1727 06c6 0E070000 		.4byte	0x70e
 1728 06ca 15       		.uleb128 0x15
 1729 06cb 2C050000 		.4byte	.LASF108
 1730 06cf 08       		.byte	0x8
 1731 06d0 2701     		.2byte	0x127
 1732 06d2 45070000 		.4byte	0x745
 1733 06d6 15       		.uleb128 0x15
 1734 06d7 D0040000 		.4byte	.LASF109
 1735 06db 08       		.byte	0x8
 1736 06dc 2F01     		.2byte	0x12f
 1737 06de A1010000 		.4byte	0x1a1
 1738 06e2 00       		.byte	0
 1739 06e3 0C       		.uleb128 0xc
 1740 06e4 04       		.byte	0x4
 1741 06e5 D2020000 		.4byte	0x2d2
 1742 06e9 08       		.uleb128 0x8
 1743 06ea 04050000 		.4byte	.LASF110
 1744 06ee 0C       		.byte	0xc
 1745 06ef 0C       		.byte	0xc
 1746 06f0 34       		.byte	0x34
 1747 06f1 0E070000 		.4byte	0x70e
 1748 06f5 09       		.uleb128 0x9
 1749 06f6 A6010000 		.4byte	.LASF111
 1750 06fa 0C       		.byte	0xc
 1751 06fb 35       		.byte	0x35
 1752 06fc 07030000 		.4byte	0x307
 1753 0700 00       		.byte	0
 1754 0701 09       		.uleb128 0x9
 1755 0702 72020000 		.4byte	.LASF112
 1756 0706 0C       		.byte	0xc
 1757 0707 37       		.byte	0x37
 1758 0708 AC010000 		.4byte	0x1ac
 1759 070c 08       		.byte	0x8
 1760 070d 00       		.byte	0
 1761 070e 0C       		.uleb128 0xc
 1762 070f 04       		.byte	0x4
 1763 0710 E9060000 		.4byte	0x6e9
 1764 0714 08       		.uleb128 0x8
 1765 0715 84070000 		.4byte	.LASF113
 1766 0719 10       		.byte	0x10
 1767 071a 0D       		.byte	0xd
ARM GAS  C:\Users\IDONNO~1\AppData\Local\Temp\cc8Y9qO6.s 			page 32


 1768 071b 39       		.byte	0x39
 1769 071c 45070000 		.4byte	0x745
 1770 0720 09       		.uleb128 0x9
 1771 0721 28010000 		.4byte	.LASF114
 1772 0725 0D       		.byte	0xd
 1773 0726 3A       		.byte	0x3a
 1774 0727 07030000 		.4byte	0x307
 1775 072b 00       		.byte	0
 1776 072c 09       		.uleb128 0x9
 1777 072d 15080000 		.4byte	.LASF115
 1778 0731 0D       		.byte	0xd
 1779 0732 3C       		.byte	0x3c
 1780 0733 DD020000 		.4byte	0x2dd
 1781 0737 08       		.byte	0x8
 1782 0738 09       		.uleb128 0x9
 1783 0739 CC030000 		.4byte	.LASF116
 1784 073d 0D       		.byte	0xd
 1785 073e 3E       		.byte	0x3e
 1786 073f 88070000 		.4byte	0x788
 1787 0743 0C       		.byte	0xc
 1788 0744 00       		.byte	0
 1789 0745 0C       		.uleb128 0xc
 1790 0746 04       		.byte	0x4
 1791 0747 14070000 		.4byte	0x714
 1792 074b 0C       		.uleb128 0xc
 1793 074c 04       		.byte	0x4
 1794 074d 58070000 		.4byte	0x758
 1795 0751 02       		.uleb128 0x2
 1796 0752 01       		.byte	0x1
 1797 0753 08       		.byte	0x8
 1798 0754 67050000 		.4byte	.LASF117
 1799 0758 16       		.uleb128 0x16
 1800 0759 51070000 		.4byte	0x751
 1801 075d 07       		.uleb128 0x7
 1802 075e B7010000 		.4byte	0x1b7
 1803 0762 0C       		.uleb128 0xc
 1804 0763 04       		.byte	0x4
 1805 0764 BC030000 		.4byte	0x3bc
 1806 0768 07       		.uleb128 0x7
 1807 0769 4B070000 		.4byte	0x74b
 1808 076d 17       		.uleb128 0x17
 1809 076e FB040000 		.4byte	0x4fb
 1810 0772 7D070000 		.4byte	0x77d
 1811 0776 18       		.uleb128 0x18
 1812 0777 EF000000 		.4byte	0xef
 1813 077b 3A       		.byte	0x3a
 1814 077c 00       		.byte	0
 1815 077d 03       		.uleb128 0x3
 1816 077e F7010000 		.4byte	.LASF118
 1817 0782 0D       		.byte	0xd
 1818 0783 34       		.byte	0x34
 1819 0784 14070000 		.4byte	0x714
 1820 0788 0C       		.uleb128 0xc
 1821 0789 04       		.byte	0x4
 1822 078a 7D070000 		.4byte	0x77d
 1823 078e 0C       		.uleb128 0xc
 1824 078f 04       		.byte	0x4
ARM GAS  C:\Users\IDONNO~1\AppData\Local\Temp\cc8Y9qO6.s 			page 33


 1825 0790 AD000000 		.4byte	0xad
 1826 0794 02       		.uleb128 0x2
 1827 0795 04       		.byte	0x4
 1828 0796 04       		.byte	0x4
 1829 0797 04040000 		.4byte	.LASF119
 1830 079b 02       		.uleb128 0x2
 1831 079c 01       		.byte	0x1
 1832 079d 02       		.byte	0x2
 1833 079e 5E040000 		.4byte	.LASF120
 1834 07a2 19       		.uleb128 0x19
 1835 07a3 9B020000 		.4byte	.LASF123
 1836 07a7 01       		.byte	0x1
 1837 07a8 8801     		.2byte	0x188
 1838 07aa C3000000 		.4byte	0xc3
 1839 07ae 01       		.byte	0x1
 1840 07af D8070000 		.4byte	0x7d8
 1841 07b3 1A       		.uleb128 0x1a
 1842 07b4 87040000 		.4byte	.LASF127
 1843 07b8 01       		.byte	0x1
 1844 07b9 8801     		.2byte	0x188
 1845 07bb AD000000 		.4byte	0xad
 1846 07bf 1B       		.uleb128 0x1b
 1847 07c0 12040000 		.4byte	.LASF121
 1848 07c4 01       		.byte	0x1
 1849 07c5 8A01     		.2byte	0x18a
 1850 07c7 C3000000 		.4byte	0xc3
 1851 07cb 1B       		.uleb128 0x1b
 1852 07cc 1E040000 		.4byte	.LASF122
 1853 07d0 01       		.byte	0x1
 1854 07d1 8A01     		.2byte	0x18a
 1855 07d3 C3000000 		.4byte	0xc3
 1856 07d7 00       		.byte	0
 1857 07d8 19       		.uleb128 0x19
 1858 07d9 8B010000 		.4byte	.LASF124
 1859 07dd 01       		.byte	0x1
 1860 07de 6201     		.2byte	0x162
 1861 07e0 39010000 		.4byte	0x139
 1862 07e4 01       		.byte	0x1
 1863 07e5 F6070000 		.4byte	0x7f6
 1864 07e9 1B       		.uleb128 0x1b
 1865 07ea BF000000 		.4byte	.LASF125
 1866 07ee 01       		.byte	0x1
 1867 07ef 6401     		.2byte	0x164
 1868 07f1 39010000 		.4byte	0x139
 1869 07f5 00       		.byte	0
 1870 07f6 19       		.uleb128 0x19
 1871 07f7 3B010000 		.4byte	.LASF126
 1872 07fb 01       		.byte	0x1
 1873 07fc 6A02     		.2byte	0x26a
 1874 07fe C3000000 		.4byte	0xc3
 1875 0802 01       		.byte	0x1
 1876 0803 38080000 		.4byte	0x838
 1877 0807 1A       		.uleb128 0x1a
 1878 0808 65010000 		.4byte	.LASF128
 1879 080c 01       		.byte	0x1
 1880 080d 6A02     		.2byte	0x26a
 1881 080f D9000000 		.4byte	0xd9
ARM GAS  C:\Users\IDONNO~1\AppData\Local\Temp\cc8Y9qO6.s 			page 34


 1882 0813 1A       		.uleb128 0x1a
 1883 0814 7C050000 		.4byte	.LASF129
 1884 0818 01       		.byte	0x1
 1885 0819 6A02     		.2byte	0x26a
 1886 081b AD000000 		.4byte	0xad
 1887 081f 1B       		.uleb128 0x1b
 1888 0820 49040000 		.4byte	.LASF130
 1889 0824 01       		.byte	0x1
 1890 0825 6B02     		.2byte	0x26b
 1891 0827 8E070000 		.4byte	0x78e
 1892 082b 1C       		.uleb128 0x1c
 1893 082c 1D       		.uleb128 0x1d
 1894 082d 6900     		.ascii	"i\000"
 1895 082f 01       		.byte	0x1
 1896 0830 6D02     		.2byte	0x26d
 1897 0832 A6000000 		.4byte	0xa6
 1898 0836 00       		.byte	0
 1899 0837 00       		.byte	0
 1900 0838 1E       		.uleb128 0x1e
 1901 0839 AF070000 		.4byte	.LASF157
 1902 083d 01       		.byte	0x1
 1903 083e D001     		.2byte	0x1d0
 1904 0840 C3000000 		.4byte	0xc3
 1905 0844 00000000 		.4byte	.LFB224
 1906 0848 7C000000 		.4byte	.LFE224-.LFB224
 1907 084c 01       		.uleb128 0x1
 1908 084d 9C       		.byte	0x9c
 1909 084e 13090000 		.4byte	0x913
 1910 0852 1F       		.uleb128 0x1f
 1911 0853 E1020000 		.4byte	.LASF131
 1912 0857 01       		.byte	0x1
 1913 0858 D001     		.2byte	0x1d0
 1914 085a C3000000 		.4byte	0xc3
 1915 085e 00000000 		.4byte	.LLST0
 1916 0862 1F       		.uleb128 0x1f
 1917 0863 AA070000 		.4byte	.LASF132
 1918 0867 01       		.byte	0x1
 1919 0868 D001     		.2byte	0x1d0
 1920 086a C3000000 		.4byte	0xc3
 1921 086e 53000000 		.4byte	.LLST1
 1922 0872 20       		.uleb128 0x20
 1923 0873 BF000000 		.4byte	.LASF125
 1924 0877 01       		.byte	0x1
 1925 0878 D201     		.2byte	0x1d2
 1926 087a 39010000 		.4byte	0x139
 1927 087e 8D000000 		.4byte	.LLST2
 1928 0882 20       		.uleb128 0x20
 1929 0883 5D050000 		.4byte	.LASF133
 1930 0887 01       		.byte	0x1
 1931 0888 D301     		.2byte	0x1d3
 1932 088a C3000000 		.4byte	0xc3
 1933 088e C3000000 		.4byte	.LLST3
 1934 0892 20       		.uleb128 0x20
 1935 0893 ED020000 		.4byte	.LASF134
 1936 0897 01       		.byte	0x1
 1937 0898 D401     		.2byte	0x1d4
 1938 089a D9000000 		.4byte	0xd9
ARM GAS  C:\Users\IDONNO~1\AppData\Local\Temp\cc8Y9qO6.s 			page 35


 1939 089e E3000000 		.4byte	.LLST4
 1940 08a2 20       		.uleb128 0x20
 1941 08a3 C2020000 		.4byte	.LASF135
 1942 08a7 01       		.byte	0x1
 1943 08a8 D401     		.2byte	0x1d4
 1944 08aa D9000000 		.4byte	0xd9
 1945 08ae 21010000 		.4byte	.LLST5
 1946 08b2 21       		.uleb128 0x21
 1947 08b3 A2070000 		.4byte	0x7a2
 1948 08b7 02000000 		.4byte	.LBB9
 1949 08bb 00000000 		.4byte	.Ldebug_ranges0+0
 1950 08bf 01       		.byte	0x1
 1951 08c0 D701     		.2byte	0x1d7
 1952 08c2 E8080000 		.4byte	0x8e8
 1953 08c6 22       		.uleb128 0x22
 1954 08c7 B3070000 		.4byte	0x7b3
 1955 08cb 5F010000 		.4byte	.LLST6
 1956 08cf 23       		.uleb128 0x23
 1957 08d0 00000000 		.4byte	.Ldebug_ranges0+0
 1958 08d4 24       		.uleb128 0x24
 1959 08d5 BF070000 		.4byte	0x7bf
 1960 08d9 7F010000 		.4byte	.LLST7
 1961 08dd 24       		.uleb128 0x24
 1962 08de CB070000 		.4byte	0x7cb
 1963 08e2 A9010000 		.4byte	.LLST8
 1964 08e6 00       		.byte	0
 1965 08e7 00       		.byte	0
 1966 08e8 25       		.uleb128 0x25
 1967 08e9 44000000 		.4byte	.LVL7
 1968 08ed 5B0E0000 		.4byte	0xe5b
 1969 08f1 FC080000 		.4byte	0x8fc
 1970 08f5 26       		.uleb128 0x26
 1971 08f6 01       		.uleb128 0x1
 1972 08f7 50       		.byte	0x50
 1973 08f8 02       		.uleb128 0x2
 1974 08f9 74       		.byte	0x74
 1975 08fa 00       		.sleb128 0
 1976 08fb 00       		.byte	0
 1977 08fc 27       		.uleb128 0x27
 1978 08fd 6C000000 		.4byte	.LVL16
 1979 0901 5B0E0000 		.4byte	0xe5b
 1980 0905 26       		.uleb128 0x26
 1981 0906 01       		.uleb128 0x1
 1982 0907 50       		.byte	0x50
 1983 0908 02       		.uleb128 0x2
 1984 0909 74       		.byte	0x74
 1985 090a 02       		.sleb128 2
 1986 090b 26       		.uleb128 0x26
 1987 090c 01       		.uleb128 0x1
 1988 090d 51       		.byte	0x51
 1989 090e 02       		.uleb128 0x2
 1990 090f 75       		.byte	0x75
 1991 0910 00       		.sleb128 0
 1992 0911 00       		.byte	0
 1993 0912 00       		.byte	0
 1994 0913 28       		.uleb128 0x28
 1995 0914 F6070000 		.4byte	0x7f6
ARM GAS  C:\Users\IDONNO~1\AppData\Local\Temp\cc8Y9qO6.s 			page 36


 1996 0918 00000000 		.4byte	.LFB228
 1997 091c 2E000000 		.4byte	.LFE228-.LFB228
 1998 0920 01       		.uleb128 0x1
 1999 0921 9C       		.byte	0x9c
 2000 0922 7B090000 		.4byte	0x97b
 2001 0926 22       		.uleb128 0x22
 2002 0927 07080000 		.4byte	0x807
 2003 092b D3010000 		.4byte	.LLST9
 2004 092f 24       		.uleb128 0x24
 2005 0930 1F080000 		.4byte	0x81f
 2006 0934 F1010000 		.4byte	.LLST10
 2007 0938 29       		.uleb128 0x29
 2008 0939 13080000 		.4byte	0x813
 2009 093d 02       		.byte	0x2
 2010 093e 2A       		.uleb128 0x2a
 2011 093f 12000000 		.4byte	.LBB13
 2012 0943 18000000 		.4byte	.LBE13-.LBB13
 2013 0947 6A090000 		.4byte	0x96a
 2014 094b 24       		.uleb128 0x24
 2015 094c 2C080000 		.4byte	0x82c
 2016 0950 2F020000 		.4byte	.LLST11
 2017 0954 27       		.uleb128 0x27
 2018 0955 26000000 		.4byte	.LVL24
 2019 0959 670E0000 		.4byte	0xe67
 2020 095d 26       		.uleb128 0x26
 2021 095e 01       		.uleb128 0x1
 2022 095f 50       		.byte	0x50
 2023 0960 02       		.uleb128 0x2
 2024 0961 74       		.byte	0x74
 2025 0962 00       		.sleb128 0
 2026 0963 26       		.uleb128 0x26
 2027 0964 01       		.uleb128 0x1
 2028 0965 51       		.byte	0x51
 2029 0966 01       		.uleb128 0x1
 2030 0967 32       		.byte	0x32
 2031 0968 00       		.byte	0
 2032 0969 00       		.byte	0
 2033 096a 27       		.uleb128 0x27
 2034 096b 08000000 		.4byte	.LVL18
 2035 096f 730E0000 		.4byte	0xe73
 2036 0973 26       		.uleb128 0x26
 2037 0974 01       		.uleb128 0x1
 2038 0975 50       		.byte	0x50
 2039 0976 02       		.uleb128 0x2
 2040 0977 74       		.byte	0x74
 2041 0978 00       		.sleb128 0
 2042 0979 00       		.byte	0
 2043 097a 00       		.byte	0
 2044 097b 28       		.uleb128 0x28
 2045 097c D8070000 		.4byte	0x7d8
 2046 0980 00000000 		.4byte	.LFB222
 2047 0984 2C000000 		.4byte	.LFE222-.LFB222
 2048 0988 01       		.uleb128 0x1
 2049 0989 9C       		.byte	0x9c
 2050 098a E5090000 		.4byte	0x9e5
 2051 098e 24       		.uleb128 0x24
 2052 098f E9070000 		.4byte	0x7e9
ARM GAS  C:\Users\IDONNO~1\AppData\Local\Temp\cc8Y9qO6.s 			page 37


 2053 0993 6B020000 		.4byte	.LLST12
 2054 0997 2A       		.uleb128 0x2a
 2055 0998 1C000000 		.4byte	.LBB16
 2056 099c 10000000 		.4byte	.LBE16-.LBB16
 2057 09a0 B9090000 		.4byte	0x9b9
 2058 09a4 2B       		.uleb128 0x2b
 2059 09a5 E9070000 		.4byte	0x7e9
 2060 09a9 27       		.uleb128 0x27
 2061 09aa 22000000 		.4byte	.LVL35
 2062 09ae 13090000 		.4byte	0x913
 2063 09b2 26       		.uleb128 0x26
 2064 09b3 01       		.uleb128 0x1
 2065 09b4 50       		.byte	0x50
 2066 09b5 01       		.uleb128 0x1
 2067 09b6 40       		.byte	0x40
 2068 09b7 00       		.byte	0
 2069 09b8 00       		.byte	0
 2070 09b9 25       		.uleb128 0x25
 2071 09ba 08000000 		.4byte	.LVL28
 2072 09be 13090000 		.4byte	0x913
 2073 09c2 CC090000 		.4byte	0x9cc
 2074 09c6 26       		.uleb128 0x26
 2075 09c7 01       		.uleb128 0x1
 2076 09c8 50       		.byte	0x50
 2077 09c9 01       		.uleb128 0x1
 2078 09ca 38       		.byte	0x38
 2079 09cb 00       		.byte	0
 2080 09cc 27       		.uleb128 0x27
 2081 09cd 18000000 		.4byte	.LVL33
 2082 09d1 5B0E0000 		.4byte	0xe5b
 2083 09d5 26       		.uleb128 0x26
 2084 09d6 01       		.uleb128 0x1
 2085 09d7 50       		.byte	0x50
 2086 09d8 05       		.uleb128 0x5
 2087 09d9 0C       		.byte	0xc
 2088 09da 00400008 		.4byte	0x8004000
 2089 09de 26       		.uleb128 0x26
 2090 09df 01       		.uleb128 0x1
 2091 09e0 51       		.byte	0x51
 2092 09e1 01       		.uleb128 0x1
 2093 09e2 30       		.byte	0x30
 2094 09e3 00       		.byte	0
 2095 09e4 00       		.byte	0
 2096 09e5 2C       		.uleb128 0x2c
 2097 09e6 45070000 		.4byte	.LASF139
 2098 09ea 01       		.byte	0x1
 2099 09eb 0F01     		.2byte	0x10f
 2100 09ed C3000000 		.4byte	0xc3
 2101 09f1 00000000 		.4byte	.LFB220
 2102 09f5 70000000 		.4byte	.LFE220-.LFB220
 2103 09f9 01       		.uleb128 0x1
 2104 09fa 9C       		.byte	0x9c
 2105 09fb A00A0000 		.4byte	0xaa0
 2106 09ff 1F       		.uleb128 0x1f
 2107 0a00 E1020000 		.4byte	.LASF131
 2108 0a04 01       		.byte	0x1
 2109 0a05 0F01     		.2byte	0x10f
ARM GAS  C:\Users\IDONNO~1\AppData\Local\Temp\cc8Y9qO6.s 			page 38


 2110 0a07 C3000000 		.4byte	0xc3
 2111 0a0b A0020000 		.4byte	.LLST13
 2112 0a0f 2D       		.uleb128 0x2d
 2113 0a10 AA070000 		.4byte	.LASF132
 2114 0a14 01       		.byte	0x1
 2115 0a15 0F01     		.2byte	0x10f
 2116 0a17 A00A0000 		.4byte	0xaa0
 2117 0a1b 01       		.uleb128 0x1
 2118 0a1c 51       		.byte	0x51
 2119 0a1d 20       		.uleb128 0x20
 2120 0a1e 5D050000 		.4byte	.LASF133
 2121 0a22 01       		.byte	0x1
 2122 0a23 1101     		.2byte	0x111
 2123 0a25 C3000000 		.4byte	0xc3
 2124 0a29 F3020000 		.4byte	.LLST14
 2125 0a2d 20       		.uleb128 0x20
 2126 0a2e 7A040000 		.4byte	.LASF136
 2127 0a32 01       		.byte	0x1
 2128 0a33 1201     		.2byte	0x112
 2129 0a35 C3000000 		.4byte	0xc3
 2130 0a39 13030000 		.4byte	.LLST15
 2131 0a3d 20       		.uleb128 0x20
 2132 0a3e 0B030000 		.4byte	.LASF137
 2133 0a42 01       		.byte	0x1
 2134 0a43 1201     		.2byte	0x112
 2135 0a45 C3000000 		.4byte	0xc3
 2136 0a49 4D030000 		.4byte	.LLST16
 2137 0a4d 20       		.uleb128 0x20
 2138 0a4e ED020000 		.4byte	.LASF134
 2139 0a52 01       		.byte	0x1
 2140 0a53 1301     		.2byte	0x113
 2141 0a55 D9000000 		.4byte	0xd9
 2142 0a59 6D030000 		.4byte	.LLST17
 2143 0a5d 20       		.uleb128 0x20
 2144 0a5e 9C030000 		.4byte	.LASF138
 2145 0a62 01       		.byte	0x1
 2146 0a63 1301     		.2byte	0x113
 2147 0a65 D9000000 		.4byte	0xd9
 2148 0a69 A0030000 		.4byte	.LLST18
 2149 0a6d 2E       		.uleb128 0x2e
 2150 0a6e A2070000 		.4byte	0x7a2
 2151 0a72 00000000 		.4byte	.LBB17
 2152 0a76 18000000 		.4byte	.Ldebug_ranges0+0x18
 2153 0a7a 01       		.byte	0x1
 2154 0a7b 1601     		.2byte	0x116
 2155 0a7d 22       		.uleb128 0x22
 2156 0a7e B3070000 		.4byte	0x7b3
 2157 0a82 F3020000 		.4byte	.LLST14
 2158 0a86 23       		.uleb128 0x23
 2159 0a87 18000000 		.4byte	.Ldebug_ranges0+0x18
 2160 0a8b 24       		.uleb128 0x24
 2161 0a8c BF070000 		.4byte	0x7bf
 2162 0a90 C8030000 		.4byte	.LLST20
 2163 0a94 24       		.uleb128 0x24
 2164 0a95 CB070000 		.4byte	0x7cb
 2165 0a99 FD030000 		.4byte	.LLST21
 2166 0a9d 00       		.byte	0
ARM GAS  C:\Users\IDONNO~1\AppData\Local\Temp\cc8Y9qO6.s 			page 39


 2167 0a9e 00       		.byte	0
 2168 0a9f 00       		.byte	0
 2169 0aa0 0C       		.uleb128 0xc
 2170 0aa1 04       		.byte	0x4
 2171 0aa2 C3000000 		.4byte	0xc3
 2172 0aa6 2F       		.uleb128 0x2f
 2173 0aa7 D1020000 		.4byte	.LASF140
 2174 0aab 01       		.byte	0x1
 2175 0aac 38       		.byte	0x38
 2176 0aad C3000000 		.4byte	0xc3
 2177 0ab1 00000000 		.4byte	.LFB219
 2178 0ab5 50010000 		.4byte	.LFE219-.LFB219
 2179 0ab9 01       		.uleb128 0x1
 2180 0aba 9C       		.byte	0x9c
 2181 0abb 1C0C0000 		.4byte	0xc1c
 2182 0abf 30       		.uleb128 0x30
 2183 0ac0 12040000 		.4byte	.LASF121
 2184 0ac4 01       		.byte	0x1
 2185 0ac5 3A       		.byte	0x3a
 2186 0ac6 C3000000 		.4byte	0xc3
 2187 0aca 32040000 		.4byte	.LLST22
 2188 0ace 30       		.uleb128 0x30
 2189 0acf 1E040000 		.4byte	.LASF122
 2190 0ad3 01       		.byte	0x1
 2191 0ad4 3A       		.byte	0x3a
 2192 0ad5 C3000000 		.4byte	0xc3
 2193 0ad9 72040000 		.4byte	.LLST23
 2194 0add 30       		.uleb128 0x30
 2195 0ade A2000000 		.4byte	.LASF141
 2196 0ae2 01       		.byte	0x1
 2197 0ae3 3B       		.byte	0x3b
 2198 0ae4 C3000000 		.4byte	0xc3
 2199 0ae8 BD040000 		.4byte	.LLST24
 2200 0aec 30       		.uleb128 0x30
 2201 0aed E6040000 		.4byte	.LASF142
 2202 0af1 01       		.byte	0x1
 2203 0af2 3C       		.byte	0x3c
 2204 0af3 C3000000 		.4byte	0xc3
 2205 0af7 0B050000 		.4byte	.LLST25
 2206 0afb 30       		.uleb128 0x30
 2207 0afc 0B030000 		.4byte	.LASF137
 2208 0b00 01       		.byte	0x1
 2209 0b01 3C       		.byte	0x3c
 2210 0b02 C3000000 		.4byte	0xc3
 2211 0b06 59050000 		.4byte	.LLST26
 2212 0b0a 31       		.uleb128 0x31
 2213 0b0b 7800     		.ascii	"x\000"
 2214 0b0d 01       		.byte	0x1
 2215 0b0e 3D       		.byte	0x3d
 2216 0b0f B8000000 		.4byte	0xb8
 2217 0b13 A7050000 		.4byte	.LLST27
 2218 0b17 30       		.uleb128 0x30
 2219 0b18 BF000000 		.4byte	.LASF125
 2220 0b1c 01       		.byte	0x1
 2221 0b1d 3E       		.byte	0x3e
 2222 0b1e C3000000 		.4byte	0xc3
 2223 0b22 0F060000 		.4byte	.LLST28
ARM GAS  C:\Users\IDONNO~1\AppData\Local\Temp\cc8Y9qO6.s 			page 40


 2224 0b26 32       		.uleb128 0x32
 2225 0b27 26000000 		.4byte	.LVL57
 2226 0b2b D8070000 		.4byte	0x7d8
 2227 0b2f 25       		.uleb128 0x25
 2228 0b30 62000000 		.4byte	.LVL64
 2229 0b34 E5090000 		.4byte	0x9e5
 2230 0b38 430B0000 		.4byte	0xb43
 2231 0b3c 26       		.uleb128 0x26
 2232 0b3d 01       		.uleb128 0x1
 2233 0b3e 51       		.byte	0x51
 2234 0b3f 02       		.uleb128 0x2
 2235 0b40 78       		.byte	0x78
 2236 0b41 00       		.sleb128 0
 2237 0b42 00       		.byte	0
 2238 0b43 32       		.uleb128 0x32
 2239 0b44 70000000 		.4byte	.LVL66
 2240 0b48 38080000 		.4byte	0x838
 2241 0b4c 25       		.uleb128 0x25
 2242 0b4d 86000000 		.4byte	.LVL68
 2243 0b51 13090000 		.4byte	0x913
 2244 0b55 5F0B0000 		.4byte	0xb5f
 2245 0b59 26       		.uleb128 0x26
 2246 0b5a 01       		.uleb128 0x1
 2247 0b5b 50       		.byte	0x50
 2248 0b5c 01       		.uleb128 0x1
 2249 0b5d 38       		.byte	0x38
 2250 0b5e 00       		.byte	0
 2251 0b5f 25       		.uleb128 0x25
 2252 0b60 92000000 		.4byte	.LVL70
 2253 0b64 5B0E0000 		.4byte	0xe5b
 2254 0b68 780B0000 		.4byte	0xb78
 2255 0b6c 26       		.uleb128 0x26
 2256 0b6d 01       		.uleb128 0x1
 2257 0b6e 50       		.byte	0x50
 2258 0b6f 02       		.uleb128 0x2
 2259 0b70 77       		.byte	0x77
 2260 0b71 00       		.sleb128 0
 2261 0b72 26       		.uleb128 0x26
 2262 0b73 01       		.uleb128 0x1
 2263 0b74 51       		.byte	0x51
 2264 0b75 01       		.uleb128 0x1
 2265 0b76 30       		.byte	0x30
 2266 0b77 00       		.byte	0
 2267 0b78 25       		.uleb128 0x25
 2268 0b79 D0000000 		.4byte	.LVL77
 2269 0b7d E5090000 		.4byte	0x9e5
 2270 0b81 8C0B0000 		.4byte	0xb8c
 2271 0b85 26       		.uleb128 0x26
 2272 0b86 01       		.uleb128 0x1
 2273 0b87 51       		.byte	0x51
 2274 0b88 02       		.uleb128 0x2
 2275 0b89 77       		.byte	0x77
 2276 0b8a 00       		.sleb128 0
 2277 0b8b 00       		.byte	0
 2278 0b8c 32       		.uleb128 0x32
 2279 0b8d DC000000 		.4byte	.LVL79
 2280 0b91 38080000 		.4byte	0x838
ARM GAS  C:\Users\IDONNO~1\AppData\Local\Temp\cc8Y9qO6.s 			page 41


 2281 0b95 25       		.uleb128 0x25
 2282 0b96 F2000000 		.4byte	.LVL81
 2283 0b9a 13090000 		.4byte	0x913
 2284 0b9e A80B0000 		.4byte	0xba8
 2285 0ba2 26       		.uleb128 0x26
 2286 0ba3 01       		.uleb128 0x1
 2287 0ba4 50       		.byte	0x50
 2288 0ba5 01       		.uleb128 0x1
 2289 0ba6 40       		.byte	0x40
 2290 0ba7 00       		.byte	0
 2291 0ba8 25       		.uleb128 0x25
 2292 0ba9 FE000000 		.4byte	.LVL83
 2293 0bad 5B0E0000 		.4byte	0xe5b
 2294 0bb1 C10B0000 		.4byte	0xbc1
 2295 0bb5 26       		.uleb128 0x26
 2296 0bb6 01       		.uleb128 0x1
 2297 0bb7 50       		.byte	0x50
 2298 0bb8 02       		.uleb128 0x2
 2299 0bb9 75       		.byte	0x75
 2300 0bba 00       		.sleb128 0
 2301 0bbb 26       		.uleb128 0x26
 2302 0bbc 01       		.uleb128 0x1
 2303 0bbd 51       		.byte	0x51
 2304 0bbe 01       		.uleb128 0x1
 2305 0bbf 30       		.byte	0x30
 2306 0bc0 00       		.byte	0
 2307 0bc1 25       		.uleb128 0x25
 2308 0bc2 0C010000 		.4byte	.LVL85
 2309 0bc6 5B0E0000 		.4byte	0xe5b
 2310 0bca DD0B0000 		.4byte	0xbdd
 2311 0bce 26       		.uleb128 0x26
 2312 0bcf 01       		.uleb128 0x1
 2313 0bd0 50       		.byte	0x50
 2314 0bd1 05       		.uleb128 0x5
 2315 0bd2 0C       		.byte	0xc
 2316 0bd3 00800008 		.4byte	0x8008000
 2317 0bd7 26       		.uleb128 0x26
 2318 0bd8 01       		.uleb128 0x1
 2319 0bd9 51       		.byte	0x51
 2320 0bda 01       		.uleb128 0x1
 2321 0bdb 30       		.byte	0x30
 2322 0bdc 00       		.byte	0
 2323 0bdd 33       		.uleb128 0x33
 2324 0bde 1C010000 		.4byte	.LVL88
 2325 0be2 13090000 		.4byte	0x913
 2326 0be6 F00B0000 		.4byte	0xbf0
 2327 0bea 26       		.uleb128 0x26
 2328 0beb 01       		.uleb128 0x1
 2329 0bec 50       		.byte	0x50
 2330 0bed 01       		.uleb128 0x1
 2331 0bee 38       		.byte	0x38
 2332 0bef 00       		.byte	0
 2333 0bf0 25       		.uleb128 0x25
 2334 0bf1 24010000 		.4byte	.LVL89
 2335 0bf5 5B0E0000 		.4byte	0xe5b
 2336 0bf9 0C0C0000 		.4byte	0xc0c
 2337 0bfd 26       		.uleb128 0x26
ARM GAS  C:\Users\IDONNO~1\AppData\Local\Temp\cc8Y9qO6.s 			page 42


 2338 0bfe 01       		.uleb128 0x1
 2339 0bff 50       		.byte	0x50
 2340 0c00 05       		.uleb128 0x5
 2341 0c01 0C       		.byte	0xc
 2342 0c02 00400008 		.4byte	0x8004000
 2343 0c06 26       		.uleb128 0x26
 2344 0c07 01       		.uleb128 0x1
 2345 0c08 51       		.byte	0x51
 2346 0c09 01       		.uleb128 0x1
 2347 0c0a 30       		.byte	0x30
 2348 0c0b 00       		.byte	0
 2349 0c0c 34       		.uleb128 0x34
 2350 0c0d 36010000 		.4byte	.LVL92
 2351 0c11 13090000 		.4byte	0x913
 2352 0c15 26       		.uleb128 0x26
 2353 0c16 01       		.uleb128 0x1
 2354 0c17 50       		.byte	0x50
 2355 0c18 01       		.uleb128 0x1
 2356 0c19 40       		.byte	0x40
 2357 0c1a 00       		.byte	0
 2358 0c1b 00       		.byte	0
 2359 0c1c 19       		.uleb128 0x19
 2360 0c1d 49020000 		.4byte	.LASF143
 2361 0c21 01       		.byte	0x1
 2362 0c22 0D02     		.2byte	0x20d
 2363 0c24 C3000000 		.4byte	0xc3
 2364 0c28 01       		.byte	0x1
 2365 0c29 9A0C0000 		.4byte	0xc9a
 2366 0c2d 1A       		.uleb128 0x1a
 2367 0c2e E1020000 		.4byte	.LASF131
 2368 0c32 01       		.byte	0x1
 2369 0c33 0D02     		.2byte	0x20d
 2370 0c35 C3000000 		.4byte	0xc3
 2371 0c39 1A       		.uleb128 0x1a
 2372 0c3a AA070000 		.4byte	.LASF132
 2373 0c3e 01       		.byte	0x1
 2374 0c3f 0D02     		.2byte	0x20d
 2375 0c41 C3000000 		.4byte	0xc3
 2376 0c45 1B       		.uleb128 0x1b
 2377 0c46 BF000000 		.4byte	.LASF125
 2378 0c4a 01       		.byte	0x1
 2379 0c4b 0F02     		.2byte	0x20f
 2380 0c4d 39010000 		.4byte	0x139
 2381 0c51 1B       		.uleb128 0x1b
 2382 0c52 5A030000 		.4byte	.LASF144
 2383 0c56 01       		.byte	0x1
 2384 0c57 1002     		.2byte	0x210
 2385 0c59 D9000000 		.4byte	0xd9
 2386 0c5d 1B       		.uleb128 0x1b
 2387 0c5e AC020000 		.4byte	.LASF145
 2388 0c62 01       		.byte	0x1
 2389 0c63 1102     		.2byte	0x211
 2390 0c65 C3000000 		.4byte	0xc3
 2391 0c69 1B       		.uleb128 0x1b
 2392 0c6a 5D050000 		.4byte	.LASF133
 2393 0c6e 01       		.byte	0x1
 2394 0c6f 1202     		.2byte	0x212
ARM GAS  C:\Users\IDONNO~1\AppData\Local\Temp\cc8Y9qO6.s 			page 43


 2395 0c71 C3000000 		.4byte	0xc3
 2396 0c75 1B       		.uleb128 0x1b
 2397 0c76 A2000000 		.4byte	.LASF141
 2398 0c7a 01       		.byte	0x1
 2399 0c7b 1202     		.2byte	0x212
 2400 0c7d C3000000 		.4byte	0xc3
 2401 0c81 1B       		.uleb128 0x1b
 2402 0c82 E6040000 		.4byte	.LASF142
 2403 0c86 01       		.byte	0x1
 2404 0c87 1302     		.2byte	0x213
 2405 0c89 C3000000 		.4byte	0xc3
 2406 0c8d 1B       		.uleb128 0x1b
 2407 0c8e 0B030000 		.4byte	.LASF137
 2408 0c92 01       		.byte	0x1
 2409 0c93 1302     		.2byte	0x213
 2410 0c95 C3000000 		.4byte	0xc3
 2411 0c99 00       		.byte	0
 2412 0c9a 2C       		.uleb128 0x2c
 2413 0c9b 7D000000 		.4byte	.LASF146
 2414 0c9f 01       		.byte	0x1
 2415 0ca0 4A01     		.2byte	0x14a
 2416 0ca2 C3000000 		.4byte	0xc3
 2417 0ca6 00000000 		.4byte	.LFB221
 2418 0caa BC000000 		.4byte	.LFE221-.LFB221
 2419 0cae 01       		.uleb128 0x1
 2420 0caf 9C       		.byte	0x9c
 2421 0cb0 180E0000 		.4byte	0xe18
 2422 0cb4 1F       		.uleb128 0x1f
 2423 0cb5 E1020000 		.4byte	.LASF131
 2424 0cb9 01       		.byte	0x1
 2425 0cba 4A01     		.2byte	0x14a
 2426 0cbc C3000000 		.4byte	0xc3
 2427 0cc0 43060000 		.4byte	.LLST29
 2428 0cc4 1F       		.uleb128 0x1f
 2429 0cc5 AA070000 		.4byte	.LASF132
 2430 0cc9 01       		.byte	0x1
 2431 0cca 4A01     		.2byte	0x14a
 2432 0ccc C3000000 		.4byte	0xc3
 2433 0cd0 64060000 		.4byte	.LLST30
 2434 0cd4 20       		.uleb128 0x20
 2435 0cd5 F7070000 		.4byte	.LASF147
 2436 0cd9 01       		.byte	0x1
 2437 0cda 4C01     		.2byte	0x14c
 2438 0cdc C3000000 		.4byte	0xc3
 2439 0ce0 85060000 		.4byte	.LLST31
 2440 0ce4 35       		.uleb128 0x35
 2441 0ce5 1C0C0000 		.4byte	0xc1c
 2442 0ce9 18000000 		.4byte	.LBB25
 2443 0ced A4000000 		.4byte	.LBE25-.LBB25
 2444 0cf1 01       		.byte	0x1
 2445 0cf2 5501     		.2byte	0x155
 2446 0cf4 010E0000 		.4byte	0xe01
 2447 0cf8 22       		.uleb128 0x22
 2448 0cf9 390C0000 		.4byte	0xc39
 2449 0cfd BA060000 		.4byte	.LLST32
 2450 0d01 36       		.uleb128 0x36
 2451 0d02 2D0C0000 		.4byte	0xc2d
ARM GAS  C:\Users\IDONNO~1\AppData\Local\Temp\cc8Y9qO6.s 			page 44


 2452 0d06 01       		.uleb128 0x1
 2453 0d07 55       		.byte	0x55
 2454 0d08 37       		.uleb128 0x37
 2455 0d09 18000000 		.4byte	.LBB26
 2456 0d0d A4000000 		.4byte	.LBE26-.LBB26
 2457 0d11 24       		.uleb128 0x24
 2458 0d12 450C0000 		.4byte	0xc45
 2459 0d16 D8060000 		.4byte	.LLST33
 2460 0d1a 24       		.uleb128 0x24
 2461 0d1b 510C0000 		.4byte	0xc51
 2462 0d1f 24070000 		.4byte	.LLST34
 2463 0d23 24       		.uleb128 0x24
 2464 0d24 5D0C0000 		.4byte	0xc5d
 2465 0d28 62070000 		.4byte	.LLST35
 2466 0d2c 38       		.uleb128 0x38
 2467 0d2d 690C0000 		.4byte	0xc69
 2468 0d31 00       		.byte	0
 2469 0d32 24       		.uleb128 0x24
 2470 0d33 750C0000 		.4byte	0xc75
 2471 0d37 98070000 		.4byte	.LLST36
 2472 0d3b 24       		.uleb128 0x24
 2473 0d3c 810C0000 		.4byte	0xc81
 2474 0d40 B8070000 		.4byte	.LLST37
 2475 0d44 24       		.uleb128 0x24
 2476 0d45 8D0C0000 		.4byte	0xc8d
 2477 0d49 EE070000 		.4byte	.LLST38
 2478 0d4d 35       		.uleb128 0x35
 2479 0d4e A2070000 		.4byte	0x7a2
 2480 0d52 18000000 		.4byte	.LBB27
 2481 0d56 10000000 		.4byte	.LBE27-.LBB27
 2482 0d5a 01       		.byte	0x1
 2483 0d5b 1602     		.2byte	0x216
 2484 0d5d 840D0000 		.4byte	0xd84
 2485 0d61 29       		.uleb128 0x29
 2486 0d62 B3070000 		.4byte	0x7b3
 2487 0d66 00       		.byte	0
 2488 0d67 37       		.uleb128 0x37
 2489 0d68 18000000 		.4byte	.LBB28
 2490 0d6c 10000000 		.4byte	.LBE28-.LBB28
 2491 0d70 24       		.uleb128 0x24
 2492 0d71 BF070000 		.4byte	0x7bf
 2493 0d75 19080000 		.4byte	.LLST39
 2494 0d79 24       		.uleb128 0x24
 2495 0d7a CB070000 		.4byte	0x7cb
 2496 0d7e 43080000 		.4byte	.LLST40
 2497 0d82 00       		.byte	0
 2498 0d83 00       		.byte	0
 2499 0d84 25       		.uleb128 0x25
 2500 0d85 40000000 		.4byte	.LVL102
 2501 0d89 5B0E0000 		.4byte	0xe5b
 2502 0d8d 9F0D0000 		.4byte	0xd9f
 2503 0d91 26       		.uleb128 0x26
 2504 0d92 01       		.uleb128 0x1
 2505 0d93 50       		.byte	0x50
 2506 0d94 02       		.uleb128 0x2
 2507 0d95 77       		.byte	0x77
 2508 0d96 00       		.sleb128 0
ARM GAS  C:\Users\IDONNO~1\AppData\Local\Temp\cc8Y9qO6.s 			page 45


 2509 0d97 26       		.uleb128 0x26
 2510 0d98 01       		.uleb128 0x1
 2511 0d99 51       		.byte	0x51
 2512 0d9a 03       		.uleb128 0x3
 2513 0d9b 0B       		.byte	0xb
 2514 0d9c EEEE     		.2byte	0xeeee
 2515 0d9e 00       		.byte	0
 2516 0d9f 25       		.uleb128 0x25
 2517 0da0 54000000 		.4byte	.LVL107
 2518 0da4 38080000 		.4byte	0x838
 2519 0da8 B90D0000 		.4byte	0xdb9
 2520 0dac 26       		.uleb128 0x26
 2521 0dad 01       		.uleb128 0x1
 2522 0dae 50       		.byte	0x50
 2523 0daf 02       		.uleb128 0x2
 2524 0db0 75       		.byte	0x75
 2525 0db1 00       		.sleb128 0
 2526 0db2 26       		.uleb128 0x26
 2527 0db3 01       		.uleb128 0x1
 2528 0db4 51       		.byte	0x51
 2529 0db5 02       		.uleb128 0x2
 2530 0db6 76       		.byte	0x76
 2531 0db7 00       		.sleb128 0
 2532 0db8 00       		.byte	0
 2533 0db9 25       		.uleb128 0x25
 2534 0dba 7A000000 		.4byte	.LVL111
 2535 0dbe E5090000 		.4byte	0x9e5
 2536 0dc2 CD0D0000 		.4byte	0xdcd
 2537 0dc6 26       		.uleb128 0x26
 2538 0dc7 01       		.uleb128 0x1
 2539 0dc8 51       		.byte	0x51
 2540 0dc9 02       		.uleb128 0x2
 2541 0dca 7A       		.byte	0x7a
 2542 0dcb 00       		.sleb128 0
 2543 0dcc 00       		.byte	0
 2544 0dcd 32       		.uleb128 0x32
 2545 0dce 88000000 		.4byte	.LVL113
 2546 0dd2 38080000 		.4byte	0x838
 2547 0dd6 25       		.uleb128 0x25
 2548 0dd7 96000000 		.4byte	.LVL115
 2549 0ddb 13090000 		.4byte	0x913
 2550 0ddf EA0D0000 		.4byte	0xdea
 2551 0de3 26       		.uleb128 0x26
 2552 0de4 01       		.uleb128 0x1
 2553 0de5 50       		.byte	0x50
 2554 0de6 02       		.uleb128 0x2
 2555 0de7 78       		.byte	0x78
 2556 0de8 00       		.sleb128 0
 2557 0de9 00       		.byte	0
 2558 0dea 27       		.uleb128 0x27
 2559 0deb A4000000 		.4byte	.LVL117
 2560 0def 5B0E0000 		.4byte	0xe5b
 2561 0df3 26       		.uleb128 0x26
 2562 0df4 01       		.uleb128 0x1
 2563 0df5 50       		.byte	0x50
 2564 0df6 02       		.uleb128 0x2
 2565 0df7 77       		.byte	0x77
ARM GAS  C:\Users\IDONNO~1\AppData\Local\Temp\cc8Y9qO6.s 			page 46


 2566 0df8 00       		.sleb128 0
 2567 0df9 26       		.uleb128 0x26
 2568 0dfa 01       		.uleb128 0x1
 2569 0dfb 51       		.byte	0x51
 2570 0dfc 01       		.uleb128 0x1
 2571 0dfd 30       		.byte	0x30
 2572 0dfe 00       		.byte	0
 2573 0dff 00       		.byte	0
 2574 0e00 00       		.byte	0
 2575 0e01 27       		.uleb128 0x27
 2576 0e02 0C000000 		.4byte	.LVL94
 2577 0e06 38080000 		.4byte	0x838
 2578 0e0a 26       		.uleb128 0x26
 2579 0e0b 01       		.uleb128 0x1
 2580 0e0c 50       		.byte	0x50
 2581 0e0d 02       		.uleb128 0x2
 2582 0e0e 75       		.byte	0x75
 2583 0e0f 00       		.sleb128 0
 2584 0e10 26       		.uleb128 0x26
 2585 0e11 01       		.uleb128 0x1
 2586 0e12 51       		.byte	0x51
 2587 0e13 02       		.uleb128 0x2
 2588 0e14 76       		.byte	0x76
 2589 0e15 00       		.sleb128 0
 2590 0e16 00       		.byte	0
 2591 0e17 00       		.byte	0
 2592 0e18 39       		.uleb128 0x39
 2593 0e19 CB000000 		.4byte	.LASF148
 2594 0e1d 0E       		.byte	0xe
 2595 0e1e A706     		.2byte	0x6a7
 2596 0e20 4F010000 		.4byte	0x14f
 2597 0e24 3A       		.uleb128 0x3a
 2598 0e25 636800   		.ascii	"ch\000"
 2599 0e28 08       		.byte	0x8
 2600 0e29 0902     		.2byte	0x209
 2601 0e2b 89040000 		.4byte	0x489
 2602 0e2f 3B       		.uleb128 0x3b
 2603 0e30 94070000 		.4byte	.LASF149
 2604 0e34 01       		.byte	0x1
 2605 0e35 24       		.byte	0x24
 2606 0e36 C3000000 		.4byte	0xc3
 2607 0e3a 05       		.uleb128 0x5
 2608 0e3b 03       		.byte	0x3
 2609 0e3c 00000000 		.4byte	DataVar
 2610 0e40 17       		.uleb128 0x17
 2611 0e41 C3000000 		.4byte	0xc3
 2612 0e45 500E0000 		.4byte	0xe50
 2613 0e49 18       		.uleb128 0x18
 2614 0e4a EF000000 		.4byte	0xef
 2615 0e4e 9F       		.byte	0x9f
 2616 0e4f 00       		.byte	0
 2617 0e50 3C       		.uleb128 0x3c
 2618 0e51 13070000 		.4byte	.LASF150
 2619 0e55 01       		.byte	0x1
 2620 0e56 27       		.byte	0x27
 2621 0e57 400E0000 		.4byte	0xe40
 2622 0e5b 3D       		.uleb128 0x3d
ARM GAS  C:\Users\IDONNO~1\AppData\Local\Temp\cc8Y9qO6.s 			page 47


 2623 0e5c 2F070000 		.4byte	.LASF151
 2624 0e60 2F070000 		.4byte	.LASF151
 2625 0e64 04       		.byte	0x4
 2626 0e65 C001     		.2byte	0x1c0
 2627 0e67 3D       		.uleb128 0x3d
 2628 0e68 AD040000 		.4byte	.LASF152
 2629 0e6c AD040000 		.4byte	.LASF152
 2630 0e70 04       		.byte	0x4
 2631 0e71 BA01     		.2byte	0x1ba
 2632 0e73 3E       		.uleb128 0x3e
 2633 0e74 30030000 		.4byte	.LASF153
 2634 0e78 30030000 		.4byte	.LASF153
 2635 0e7c 0F       		.byte	0xf
 2636 0e7d 22       		.byte	0x22
 2637 0e7e 00       		.byte	0
 2638              		.section	.debug_abbrev,"",%progbits
 2639              	.Ldebug_abbrev0:
 2640 0000 01       		.uleb128 0x1
 2641 0001 11       		.uleb128 0x11
 2642 0002 01       		.byte	0x1
 2643 0003 25       		.uleb128 0x25
 2644 0004 0E       		.uleb128 0xe
 2645 0005 13       		.uleb128 0x13
 2646 0006 0B       		.uleb128 0xb
 2647 0007 03       		.uleb128 0x3
 2648 0008 0E       		.uleb128 0xe
 2649 0009 1B       		.uleb128 0x1b
 2650 000a 0E       		.uleb128 0xe
 2651 000b 55       		.uleb128 0x55
 2652 000c 17       		.uleb128 0x17
 2653 000d 11       		.uleb128 0x11
 2654 000e 01       		.uleb128 0x1
 2655 000f 10       		.uleb128 0x10
 2656 0010 17       		.uleb128 0x17
 2657 0011 00       		.byte	0
 2658 0012 00       		.byte	0
 2659 0013 02       		.uleb128 0x2
 2660 0014 24       		.uleb128 0x24
 2661 0015 00       		.byte	0
 2662 0016 0B       		.uleb128 0xb
 2663 0017 0B       		.uleb128 0xb
 2664 0018 3E       		.uleb128 0x3e
 2665 0019 0B       		.uleb128 0xb
 2666 001a 03       		.uleb128 0x3
 2667 001b 0E       		.uleb128 0xe
 2668 001c 00       		.byte	0
 2669 001d 00       		.byte	0
 2670 001e 03       		.uleb128 0x3
 2671 001f 16       		.uleb128 0x16
 2672 0020 00       		.byte	0
 2673 0021 03       		.uleb128 0x3
 2674 0022 0E       		.uleb128 0xe
 2675 0023 3A       		.uleb128 0x3a
 2676 0024 0B       		.uleb128 0xb
 2677 0025 3B       		.uleb128 0x3b
 2678 0026 0B       		.uleb128 0xb
 2679 0027 49       		.uleb128 0x49
ARM GAS  C:\Users\IDONNO~1\AppData\Local\Temp\cc8Y9qO6.s 			page 48


 2680 0028 13       		.uleb128 0x13
 2681 0029 00       		.byte	0
 2682 002a 00       		.byte	0
 2683 002b 04       		.uleb128 0x4
 2684 002c 24       		.uleb128 0x24
 2685 002d 00       		.byte	0
 2686 002e 0B       		.uleb128 0xb
 2687 002f 0B       		.uleb128 0xb
 2688 0030 3E       		.uleb128 0x3e
 2689 0031 0B       		.uleb128 0xb
 2690 0032 03       		.uleb128 0x3
 2691 0033 08       		.uleb128 0x8
 2692 0034 00       		.byte	0
 2693 0035 00       		.byte	0
 2694 0036 05       		.uleb128 0x5
 2695 0037 04       		.uleb128 0x4
 2696 0038 01       		.byte	0x1
 2697 0039 0B       		.uleb128 0xb
 2698 003a 0B       		.uleb128 0xb
 2699 003b 49       		.uleb128 0x49
 2700 003c 13       		.uleb128 0x13
 2701 003d 3A       		.uleb128 0x3a
 2702 003e 0B       		.uleb128 0xb
 2703 003f 3B       		.uleb128 0x3b
 2704 0040 0B       		.uleb128 0xb
 2705 0041 01       		.uleb128 0x1
 2706 0042 13       		.uleb128 0x13
 2707 0043 00       		.byte	0
 2708 0044 00       		.byte	0
 2709 0045 06       		.uleb128 0x6
 2710 0046 28       		.uleb128 0x28
 2711 0047 00       		.byte	0
 2712 0048 03       		.uleb128 0x3
 2713 0049 0E       		.uleb128 0xe
 2714 004a 1C       		.uleb128 0x1c
 2715 004b 0B       		.uleb128 0xb
 2716 004c 00       		.byte	0
 2717 004d 00       		.byte	0
 2718 004e 07       		.uleb128 0x7
 2719 004f 35       		.uleb128 0x35
 2720 0050 00       		.byte	0
 2721 0051 49       		.uleb128 0x49
 2722 0052 13       		.uleb128 0x13
 2723 0053 00       		.byte	0
 2724 0054 00       		.byte	0
 2725 0055 08       		.uleb128 0x8
 2726 0056 13       		.uleb128 0x13
 2727 0057 01       		.byte	0x1
 2728 0058 03       		.uleb128 0x3
 2729 0059 0E       		.uleb128 0xe
 2730 005a 0B       		.uleb128 0xb
 2731 005b 0B       		.uleb128 0xb
 2732 005c 3A       		.uleb128 0x3a
 2733 005d 0B       		.uleb128 0xb
 2734 005e 3B       		.uleb128 0x3b
 2735 005f 0B       		.uleb128 0xb
 2736 0060 01       		.uleb128 0x1
ARM GAS  C:\Users\IDONNO~1\AppData\Local\Temp\cc8Y9qO6.s 			page 49


 2737 0061 13       		.uleb128 0x13
 2738 0062 00       		.byte	0
 2739 0063 00       		.byte	0
 2740 0064 09       		.uleb128 0x9
 2741 0065 0D       		.uleb128 0xd
 2742 0066 00       		.byte	0
 2743 0067 03       		.uleb128 0x3
 2744 0068 0E       		.uleb128 0xe
 2745 0069 3A       		.uleb128 0x3a
 2746 006a 0B       		.uleb128 0xb
 2747 006b 3B       		.uleb128 0x3b
 2748 006c 0B       		.uleb128 0xb
 2749 006d 49       		.uleb128 0x49
 2750 006e 13       		.uleb128 0x13
 2751 006f 38       		.uleb128 0x38
 2752 0070 0B       		.uleb128 0xb
 2753 0071 00       		.byte	0
 2754 0072 00       		.byte	0
 2755 0073 0A       		.uleb128 0xa
 2756 0074 0D       		.uleb128 0xd
 2757 0075 00       		.byte	0
 2758 0076 03       		.uleb128 0x3
 2759 0077 08       		.uleb128 0x8
 2760 0078 3A       		.uleb128 0x3a
 2761 0079 0B       		.uleb128 0xb
 2762 007a 3B       		.uleb128 0x3b
 2763 007b 05       		.uleb128 0x5
 2764 007c 49       		.uleb128 0x49
 2765 007d 13       		.uleb128 0x13
 2766 007e 38       		.uleb128 0x38
 2767 007f 0B       		.uleb128 0xb
 2768 0080 00       		.byte	0
 2769 0081 00       		.byte	0
 2770 0082 0B       		.uleb128 0xb
 2771 0083 0D       		.uleb128 0xd
 2772 0084 00       		.byte	0
 2773 0085 03       		.uleb128 0x3
 2774 0086 0E       		.uleb128 0xe
 2775 0087 3A       		.uleb128 0x3a
 2776 0088 0B       		.uleb128 0xb
 2777 0089 3B       		.uleb128 0x3b
 2778 008a 05       		.uleb128 0x5
 2779 008b 49       		.uleb128 0x49
 2780 008c 13       		.uleb128 0x13
 2781 008d 38       		.uleb128 0x38
 2782 008e 0B       		.uleb128 0xb
 2783 008f 00       		.byte	0
 2784 0090 00       		.byte	0
 2785 0091 0C       		.uleb128 0xc
 2786 0092 0F       		.uleb128 0xf
 2787 0093 00       		.byte	0
 2788 0094 0B       		.uleb128 0xb
 2789 0095 0B       		.uleb128 0xb
 2790 0096 49       		.uleb128 0x49
 2791 0097 13       		.uleb128 0x13
 2792 0098 00       		.byte	0
 2793 0099 00       		.byte	0
ARM GAS  C:\Users\IDONNO~1\AppData\Local\Temp\cc8Y9qO6.s 			page 50


 2794 009a 0D       		.uleb128 0xd
 2795 009b 13       		.uleb128 0x13
 2796 009c 01       		.byte	0x1
 2797 009d 03       		.uleb128 0x3
 2798 009e 0E       		.uleb128 0xe
 2799 009f 0B       		.uleb128 0xb
 2800 00a0 0B       		.uleb128 0xb
 2801 00a1 3A       		.uleb128 0x3a
 2802 00a2 0B       		.uleb128 0xb
 2803 00a3 3B       		.uleb128 0x3b
 2804 00a4 05       		.uleb128 0x5
 2805 00a5 01       		.uleb128 0x1
 2806 00a6 13       		.uleb128 0x13
 2807 00a7 00       		.byte	0
 2808 00a8 00       		.byte	0
 2809 00a9 0E       		.uleb128 0xe
 2810 00aa 15       		.uleb128 0x15
 2811 00ab 01       		.byte	0x1
 2812 00ac 27       		.uleb128 0x27
 2813 00ad 19       		.uleb128 0x19
 2814 00ae 01       		.uleb128 0x1
 2815 00af 13       		.uleb128 0x13
 2816 00b0 00       		.byte	0
 2817 00b1 00       		.byte	0
 2818 00b2 0F       		.uleb128 0xf
 2819 00b3 05       		.uleb128 0x5
 2820 00b4 00       		.byte	0
 2821 00b5 49       		.uleb128 0x49
 2822 00b6 13       		.uleb128 0x13
 2823 00b7 00       		.byte	0
 2824 00b8 00       		.byte	0
 2825 00b9 10       		.uleb128 0x10
 2826 00ba 0F       		.uleb128 0xf
 2827 00bb 00       		.byte	0
 2828 00bc 0B       		.uleb128 0xb
 2829 00bd 0B       		.uleb128 0xb
 2830 00be 00       		.byte	0
 2831 00bf 00       		.byte	0
 2832 00c0 11       		.uleb128 0x11
 2833 00c1 13       		.uleb128 0x13
 2834 00c2 01       		.byte	0x1
 2835 00c3 03       		.uleb128 0x3
 2836 00c4 0E       		.uleb128 0xe
 2837 00c5 0B       		.uleb128 0xb
 2838 00c6 05       		.uleb128 0x5
 2839 00c7 3A       		.uleb128 0x3a
 2840 00c8 0B       		.uleb128 0xb
 2841 00c9 3B       		.uleb128 0x3b
 2842 00ca 05       		.uleb128 0x5
 2843 00cb 01       		.uleb128 0x1
 2844 00cc 13       		.uleb128 0x13
 2845 00cd 00       		.byte	0
 2846 00ce 00       		.byte	0
 2847 00cf 12       		.uleb128 0x12
 2848 00d0 0D       		.uleb128 0xd
 2849 00d1 00       		.byte	0
 2850 00d2 03       		.uleb128 0x3
ARM GAS  C:\Users\IDONNO~1\AppData\Local\Temp\cc8Y9qO6.s 			page 51


 2851 00d3 08       		.uleb128 0x8
 2852 00d4 3A       		.uleb128 0x3a
 2853 00d5 0B       		.uleb128 0xb
 2854 00d6 3B       		.uleb128 0x3b
 2855 00d7 0B       		.uleb128 0xb
 2856 00d8 49       		.uleb128 0x49
 2857 00d9 13       		.uleb128 0x13
 2858 00da 38       		.uleb128 0x38
 2859 00db 0B       		.uleb128 0xb
 2860 00dc 00       		.byte	0
 2861 00dd 00       		.byte	0
 2862 00de 13       		.uleb128 0x13
 2863 00df 13       		.uleb128 0x13
 2864 00e0 01       		.byte	0x1
 2865 00e1 0B       		.uleb128 0xb
 2866 00e2 0B       		.uleb128 0xb
 2867 00e3 3A       		.uleb128 0x3a
 2868 00e4 0B       		.uleb128 0xb
 2869 00e5 3B       		.uleb128 0x3b
 2870 00e6 0B       		.uleb128 0xb
 2871 00e7 01       		.uleb128 0x1
 2872 00e8 13       		.uleb128 0x13
 2873 00e9 00       		.byte	0
 2874 00ea 00       		.byte	0
 2875 00eb 14       		.uleb128 0x14
 2876 00ec 17       		.uleb128 0x17
 2877 00ed 01       		.byte	0x1
 2878 00ee 0B       		.uleb128 0xb
 2879 00ef 0B       		.uleb128 0xb
 2880 00f0 3A       		.uleb128 0x3a
 2881 00f1 0B       		.uleb128 0xb
 2882 00f2 3B       		.uleb128 0x3b
 2883 00f3 0B       		.uleb128 0xb
 2884 00f4 01       		.uleb128 0x1
 2885 00f5 13       		.uleb128 0x13
 2886 00f6 00       		.byte	0
 2887 00f7 00       		.byte	0
 2888 00f8 15       		.uleb128 0x15
 2889 00f9 0D       		.uleb128 0xd
 2890 00fa 00       		.byte	0
 2891 00fb 03       		.uleb128 0x3
 2892 00fc 0E       		.uleb128 0xe
 2893 00fd 3A       		.uleb128 0x3a
 2894 00fe 0B       		.uleb128 0xb
 2895 00ff 3B       		.uleb128 0x3b
 2896 0100 05       		.uleb128 0x5
 2897 0101 49       		.uleb128 0x49
 2898 0102 13       		.uleb128 0x13
 2899 0103 00       		.byte	0
 2900 0104 00       		.byte	0
 2901 0105 16       		.uleb128 0x16
 2902 0106 26       		.uleb128 0x26
 2903 0107 00       		.byte	0
 2904 0108 49       		.uleb128 0x49
 2905 0109 13       		.uleb128 0x13
 2906 010a 00       		.byte	0
 2907 010b 00       		.byte	0
ARM GAS  C:\Users\IDONNO~1\AppData\Local\Temp\cc8Y9qO6.s 			page 52


 2908 010c 17       		.uleb128 0x17
 2909 010d 01       		.uleb128 0x1
 2910 010e 01       		.byte	0x1
 2911 010f 49       		.uleb128 0x49
 2912 0110 13       		.uleb128 0x13
 2913 0111 01       		.uleb128 0x1
 2914 0112 13       		.uleb128 0x13
 2915 0113 00       		.byte	0
 2916 0114 00       		.byte	0
 2917 0115 18       		.uleb128 0x18
 2918 0116 21       		.uleb128 0x21
 2919 0117 00       		.byte	0
 2920 0118 49       		.uleb128 0x49
 2921 0119 13       		.uleb128 0x13
 2922 011a 2F       		.uleb128 0x2f
 2923 011b 0B       		.uleb128 0xb
 2924 011c 00       		.byte	0
 2925 011d 00       		.byte	0
 2926 011e 19       		.uleb128 0x19
 2927 011f 2E       		.uleb128 0x2e
 2928 0120 01       		.byte	0x1
 2929 0121 03       		.uleb128 0x3
 2930 0122 0E       		.uleb128 0xe
 2931 0123 3A       		.uleb128 0x3a
 2932 0124 0B       		.uleb128 0xb
 2933 0125 3B       		.uleb128 0x3b
 2934 0126 05       		.uleb128 0x5
 2935 0127 27       		.uleb128 0x27
 2936 0128 19       		.uleb128 0x19
 2937 0129 49       		.uleb128 0x49
 2938 012a 13       		.uleb128 0x13
 2939 012b 20       		.uleb128 0x20
 2940 012c 0B       		.uleb128 0xb
 2941 012d 01       		.uleb128 0x1
 2942 012e 13       		.uleb128 0x13
 2943 012f 00       		.byte	0
 2944 0130 00       		.byte	0
 2945 0131 1A       		.uleb128 0x1a
 2946 0132 05       		.uleb128 0x5
 2947 0133 00       		.byte	0
 2948 0134 03       		.uleb128 0x3
 2949 0135 0E       		.uleb128 0xe
 2950 0136 3A       		.uleb128 0x3a
 2951 0137 0B       		.uleb128 0xb
 2952 0138 3B       		.uleb128 0x3b
 2953 0139 05       		.uleb128 0x5
 2954 013a 49       		.uleb128 0x49
 2955 013b 13       		.uleb128 0x13
 2956 013c 00       		.byte	0
 2957 013d 00       		.byte	0
 2958 013e 1B       		.uleb128 0x1b
 2959 013f 34       		.uleb128 0x34
 2960 0140 00       		.byte	0
 2961 0141 03       		.uleb128 0x3
 2962 0142 0E       		.uleb128 0xe
 2963 0143 3A       		.uleb128 0x3a
 2964 0144 0B       		.uleb128 0xb
ARM GAS  C:\Users\IDONNO~1\AppData\Local\Temp\cc8Y9qO6.s 			page 53


 2965 0145 3B       		.uleb128 0x3b
 2966 0146 05       		.uleb128 0x5
 2967 0147 49       		.uleb128 0x49
 2968 0148 13       		.uleb128 0x13
 2969 0149 00       		.byte	0
 2970 014a 00       		.byte	0
 2971 014b 1C       		.uleb128 0x1c
 2972 014c 0B       		.uleb128 0xb
 2973 014d 01       		.byte	0x1
 2974 014e 00       		.byte	0
 2975 014f 00       		.byte	0
 2976 0150 1D       		.uleb128 0x1d
 2977 0151 34       		.uleb128 0x34
 2978 0152 00       		.byte	0
 2979 0153 03       		.uleb128 0x3
 2980 0154 08       		.uleb128 0x8
 2981 0155 3A       		.uleb128 0x3a
 2982 0156 0B       		.uleb128 0xb
 2983 0157 3B       		.uleb128 0x3b
 2984 0158 05       		.uleb128 0x5
 2985 0159 49       		.uleb128 0x49
 2986 015a 13       		.uleb128 0x13
 2987 015b 00       		.byte	0
 2988 015c 00       		.byte	0
 2989 015d 1E       		.uleb128 0x1e
 2990 015e 2E       		.uleb128 0x2e
 2991 015f 01       		.byte	0x1
 2992 0160 03       		.uleb128 0x3
 2993 0161 0E       		.uleb128 0xe
 2994 0162 3A       		.uleb128 0x3a
 2995 0163 0B       		.uleb128 0xb
 2996 0164 3B       		.uleb128 0x3b
 2997 0165 05       		.uleb128 0x5
 2998 0166 27       		.uleb128 0x27
 2999 0167 19       		.uleb128 0x19
 3000 0168 49       		.uleb128 0x49
 3001 0169 13       		.uleb128 0x13
 3002 016a 11       		.uleb128 0x11
 3003 016b 01       		.uleb128 0x1
 3004 016c 12       		.uleb128 0x12
 3005 016d 06       		.uleb128 0x6
 3006 016e 40       		.uleb128 0x40
 3007 016f 18       		.uleb128 0x18
 3008 0170 9742     		.uleb128 0x2117
 3009 0172 19       		.uleb128 0x19
 3010 0173 01       		.uleb128 0x1
 3011 0174 13       		.uleb128 0x13
 3012 0175 00       		.byte	0
 3013 0176 00       		.byte	0
 3014 0177 1F       		.uleb128 0x1f
 3015 0178 05       		.uleb128 0x5
 3016 0179 00       		.byte	0
 3017 017a 03       		.uleb128 0x3
 3018 017b 0E       		.uleb128 0xe
 3019 017c 3A       		.uleb128 0x3a
 3020 017d 0B       		.uleb128 0xb
 3021 017e 3B       		.uleb128 0x3b
ARM GAS  C:\Users\IDONNO~1\AppData\Local\Temp\cc8Y9qO6.s 			page 54


 3022 017f 05       		.uleb128 0x5
 3023 0180 49       		.uleb128 0x49
 3024 0181 13       		.uleb128 0x13
 3025 0182 02       		.uleb128 0x2
 3026 0183 17       		.uleb128 0x17
 3027 0184 00       		.byte	0
 3028 0185 00       		.byte	0
 3029 0186 20       		.uleb128 0x20
 3030 0187 34       		.uleb128 0x34
 3031 0188 00       		.byte	0
 3032 0189 03       		.uleb128 0x3
 3033 018a 0E       		.uleb128 0xe
 3034 018b 3A       		.uleb128 0x3a
 3035 018c 0B       		.uleb128 0xb
 3036 018d 3B       		.uleb128 0x3b
 3037 018e 05       		.uleb128 0x5
 3038 018f 49       		.uleb128 0x49
 3039 0190 13       		.uleb128 0x13
 3040 0191 02       		.uleb128 0x2
 3041 0192 17       		.uleb128 0x17
 3042 0193 00       		.byte	0
 3043 0194 00       		.byte	0
 3044 0195 21       		.uleb128 0x21
 3045 0196 1D       		.uleb128 0x1d
 3046 0197 01       		.byte	0x1
 3047 0198 31       		.uleb128 0x31
 3048 0199 13       		.uleb128 0x13
 3049 019a 52       		.uleb128 0x52
 3050 019b 01       		.uleb128 0x1
 3051 019c 55       		.uleb128 0x55
 3052 019d 17       		.uleb128 0x17
 3053 019e 58       		.uleb128 0x58
 3054 019f 0B       		.uleb128 0xb
 3055 01a0 59       		.uleb128 0x59
 3056 01a1 05       		.uleb128 0x5
 3057 01a2 01       		.uleb128 0x1
 3058 01a3 13       		.uleb128 0x13
 3059 01a4 00       		.byte	0
 3060 01a5 00       		.byte	0
 3061 01a6 22       		.uleb128 0x22
 3062 01a7 05       		.uleb128 0x5
 3063 01a8 00       		.byte	0
 3064 01a9 31       		.uleb128 0x31
 3065 01aa 13       		.uleb128 0x13
 3066 01ab 02       		.uleb128 0x2
 3067 01ac 17       		.uleb128 0x17
 3068 01ad 00       		.byte	0
 3069 01ae 00       		.byte	0
 3070 01af 23       		.uleb128 0x23
 3071 01b0 0B       		.uleb128 0xb
 3072 01b1 01       		.byte	0x1
 3073 01b2 55       		.uleb128 0x55
 3074 01b3 17       		.uleb128 0x17
 3075 01b4 00       		.byte	0
 3076 01b5 00       		.byte	0
 3077 01b6 24       		.uleb128 0x24
 3078 01b7 34       		.uleb128 0x34
ARM GAS  C:\Users\IDONNO~1\AppData\Local\Temp\cc8Y9qO6.s 			page 55


 3079 01b8 00       		.byte	0
 3080 01b9 31       		.uleb128 0x31
 3081 01ba 13       		.uleb128 0x13
 3082 01bb 02       		.uleb128 0x2
 3083 01bc 17       		.uleb128 0x17
 3084 01bd 00       		.byte	0
 3085 01be 00       		.byte	0
 3086 01bf 25       		.uleb128 0x25
 3087 01c0 898201   		.uleb128 0x4109
 3088 01c3 01       		.byte	0x1
 3089 01c4 11       		.uleb128 0x11
 3090 01c5 01       		.uleb128 0x1
 3091 01c6 31       		.uleb128 0x31
 3092 01c7 13       		.uleb128 0x13
 3093 01c8 01       		.uleb128 0x1
 3094 01c9 13       		.uleb128 0x13
 3095 01ca 00       		.byte	0
 3096 01cb 00       		.byte	0
 3097 01cc 26       		.uleb128 0x26
 3098 01cd 8A8201   		.uleb128 0x410a
 3099 01d0 00       		.byte	0
 3100 01d1 02       		.uleb128 0x2
 3101 01d2 18       		.uleb128 0x18
 3102 01d3 9142     		.uleb128 0x2111
 3103 01d5 18       		.uleb128 0x18
 3104 01d6 00       		.byte	0
 3105 01d7 00       		.byte	0
 3106 01d8 27       		.uleb128 0x27
 3107 01d9 898201   		.uleb128 0x4109
 3108 01dc 01       		.byte	0x1
 3109 01dd 11       		.uleb128 0x11
 3110 01de 01       		.uleb128 0x1
 3111 01df 31       		.uleb128 0x31
 3112 01e0 13       		.uleb128 0x13
 3113 01e1 00       		.byte	0
 3114 01e2 00       		.byte	0
 3115 01e3 28       		.uleb128 0x28
 3116 01e4 2E       		.uleb128 0x2e
 3117 01e5 01       		.byte	0x1
 3118 01e6 31       		.uleb128 0x31
 3119 01e7 13       		.uleb128 0x13
 3120 01e8 11       		.uleb128 0x11
 3121 01e9 01       		.uleb128 0x1
 3122 01ea 12       		.uleb128 0x12
 3123 01eb 06       		.uleb128 0x6
 3124 01ec 40       		.uleb128 0x40
 3125 01ed 18       		.uleb128 0x18
 3126 01ee 9742     		.uleb128 0x2117
 3127 01f0 19       		.uleb128 0x19
 3128 01f1 01       		.uleb128 0x1
 3129 01f2 13       		.uleb128 0x13
 3130 01f3 00       		.byte	0
 3131 01f4 00       		.byte	0
 3132 01f5 29       		.uleb128 0x29
 3133 01f6 05       		.uleb128 0x5
 3134 01f7 00       		.byte	0
 3135 01f8 31       		.uleb128 0x31
ARM GAS  C:\Users\IDONNO~1\AppData\Local\Temp\cc8Y9qO6.s 			page 56


 3136 01f9 13       		.uleb128 0x13
 3137 01fa 1C       		.uleb128 0x1c
 3138 01fb 0B       		.uleb128 0xb
 3139 01fc 00       		.byte	0
 3140 01fd 00       		.byte	0
 3141 01fe 2A       		.uleb128 0x2a
 3142 01ff 0B       		.uleb128 0xb
 3143 0200 01       		.byte	0x1
 3144 0201 11       		.uleb128 0x11
 3145 0202 01       		.uleb128 0x1
 3146 0203 12       		.uleb128 0x12
 3147 0204 06       		.uleb128 0x6
 3148 0205 01       		.uleb128 0x1
 3149 0206 13       		.uleb128 0x13
 3150 0207 00       		.byte	0
 3151 0208 00       		.byte	0
 3152 0209 2B       		.uleb128 0x2b
 3153 020a 34       		.uleb128 0x34
 3154 020b 00       		.byte	0
 3155 020c 31       		.uleb128 0x31
 3156 020d 13       		.uleb128 0x13
 3157 020e 00       		.byte	0
 3158 020f 00       		.byte	0
 3159 0210 2C       		.uleb128 0x2c
 3160 0211 2E       		.uleb128 0x2e
 3161 0212 01       		.byte	0x1
 3162 0213 3F       		.uleb128 0x3f
 3163 0214 19       		.uleb128 0x19
 3164 0215 03       		.uleb128 0x3
 3165 0216 0E       		.uleb128 0xe
 3166 0217 3A       		.uleb128 0x3a
 3167 0218 0B       		.uleb128 0xb
 3168 0219 3B       		.uleb128 0x3b
 3169 021a 05       		.uleb128 0x5
 3170 021b 27       		.uleb128 0x27
 3171 021c 19       		.uleb128 0x19
 3172 021d 49       		.uleb128 0x49
 3173 021e 13       		.uleb128 0x13
 3174 021f 11       		.uleb128 0x11
 3175 0220 01       		.uleb128 0x1
 3176 0221 12       		.uleb128 0x12
 3177 0222 06       		.uleb128 0x6
 3178 0223 40       		.uleb128 0x40
 3179 0224 18       		.uleb128 0x18
 3180 0225 9742     		.uleb128 0x2117
 3181 0227 19       		.uleb128 0x19
 3182 0228 01       		.uleb128 0x1
 3183 0229 13       		.uleb128 0x13
 3184 022a 00       		.byte	0
 3185 022b 00       		.byte	0
 3186 022c 2D       		.uleb128 0x2d
 3187 022d 05       		.uleb128 0x5
 3188 022e 00       		.byte	0
 3189 022f 03       		.uleb128 0x3
 3190 0230 0E       		.uleb128 0xe
 3191 0231 3A       		.uleb128 0x3a
 3192 0232 0B       		.uleb128 0xb
ARM GAS  C:\Users\IDONNO~1\AppData\Local\Temp\cc8Y9qO6.s 			page 57


 3193 0233 3B       		.uleb128 0x3b
 3194 0234 05       		.uleb128 0x5
 3195 0235 49       		.uleb128 0x49
 3196 0236 13       		.uleb128 0x13
 3197 0237 02       		.uleb128 0x2
 3198 0238 18       		.uleb128 0x18
 3199 0239 00       		.byte	0
 3200 023a 00       		.byte	0
 3201 023b 2E       		.uleb128 0x2e
 3202 023c 1D       		.uleb128 0x1d
 3203 023d 01       		.byte	0x1
 3204 023e 31       		.uleb128 0x31
 3205 023f 13       		.uleb128 0x13
 3206 0240 52       		.uleb128 0x52
 3207 0241 01       		.uleb128 0x1
 3208 0242 55       		.uleb128 0x55
 3209 0243 17       		.uleb128 0x17
 3210 0244 58       		.uleb128 0x58
 3211 0245 0B       		.uleb128 0xb
 3212 0246 59       		.uleb128 0x59
 3213 0247 05       		.uleb128 0x5
 3214 0248 00       		.byte	0
 3215 0249 00       		.byte	0
 3216 024a 2F       		.uleb128 0x2f
 3217 024b 2E       		.uleb128 0x2e
 3218 024c 01       		.byte	0x1
 3219 024d 3F       		.uleb128 0x3f
 3220 024e 19       		.uleb128 0x19
 3221 024f 03       		.uleb128 0x3
 3222 0250 0E       		.uleb128 0xe
 3223 0251 3A       		.uleb128 0x3a
 3224 0252 0B       		.uleb128 0xb
 3225 0253 3B       		.uleb128 0x3b
 3226 0254 0B       		.uleb128 0xb
 3227 0255 27       		.uleb128 0x27
 3228 0256 19       		.uleb128 0x19
 3229 0257 49       		.uleb128 0x49
 3230 0258 13       		.uleb128 0x13
 3231 0259 11       		.uleb128 0x11
 3232 025a 01       		.uleb128 0x1
 3233 025b 12       		.uleb128 0x12
 3234 025c 06       		.uleb128 0x6
 3235 025d 40       		.uleb128 0x40
 3236 025e 18       		.uleb128 0x18
 3237 025f 9742     		.uleb128 0x2117
 3238 0261 19       		.uleb128 0x19
 3239 0262 01       		.uleb128 0x1
 3240 0263 13       		.uleb128 0x13
 3241 0264 00       		.byte	0
 3242 0265 00       		.byte	0
 3243 0266 30       		.uleb128 0x30
 3244 0267 34       		.uleb128 0x34
 3245 0268 00       		.byte	0
 3246 0269 03       		.uleb128 0x3
 3247 026a 0E       		.uleb128 0xe
 3248 026b 3A       		.uleb128 0x3a
 3249 026c 0B       		.uleb128 0xb
ARM GAS  C:\Users\IDONNO~1\AppData\Local\Temp\cc8Y9qO6.s 			page 58


 3250 026d 3B       		.uleb128 0x3b
 3251 026e 0B       		.uleb128 0xb
 3252 026f 49       		.uleb128 0x49
 3253 0270 13       		.uleb128 0x13
 3254 0271 02       		.uleb128 0x2
 3255 0272 17       		.uleb128 0x17
 3256 0273 00       		.byte	0
 3257 0274 00       		.byte	0
 3258 0275 31       		.uleb128 0x31
 3259 0276 34       		.uleb128 0x34
 3260 0277 00       		.byte	0
 3261 0278 03       		.uleb128 0x3
 3262 0279 08       		.uleb128 0x8
 3263 027a 3A       		.uleb128 0x3a
 3264 027b 0B       		.uleb128 0xb
 3265 027c 3B       		.uleb128 0x3b
 3266 027d 0B       		.uleb128 0xb
 3267 027e 49       		.uleb128 0x49
 3268 027f 13       		.uleb128 0x13
 3269 0280 02       		.uleb128 0x2
 3270 0281 17       		.uleb128 0x17
 3271 0282 00       		.byte	0
 3272 0283 00       		.byte	0
 3273 0284 32       		.uleb128 0x32
 3274 0285 898201   		.uleb128 0x4109
 3275 0288 00       		.byte	0
 3276 0289 11       		.uleb128 0x11
 3277 028a 01       		.uleb128 0x1
 3278 028b 31       		.uleb128 0x31
 3279 028c 13       		.uleb128 0x13
 3280 028d 00       		.byte	0
 3281 028e 00       		.byte	0
 3282 028f 33       		.uleb128 0x33
 3283 0290 898201   		.uleb128 0x4109
 3284 0293 01       		.byte	0x1
 3285 0294 11       		.uleb128 0x11
 3286 0295 01       		.uleb128 0x1
 3287 0296 9542     		.uleb128 0x2115
 3288 0298 19       		.uleb128 0x19
 3289 0299 31       		.uleb128 0x31
 3290 029a 13       		.uleb128 0x13
 3291 029b 01       		.uleb128 0x1
 3292 029c 13       		.uleb128 0x13
 3293 029d 00       		.byte	0
 3294 029e 00       		.byte	0
 3295 029f 34       		.uleb128 0x34
 3296 02a0 898201   		.uleb128 0x4109
 3297 02a3 01       		.byte	0x1
 3298 02a4 11       		.uleb128 0x11
 3299 02a5 01       		.uleb128 0x1
 3300 02a6 9542     		.uleb128 0x2115
 3301 02a8 19       		.uleb128 0x19
 3302 02a9 31       		.uleb128 0x31
 3303 02aa 13       		.uleb128 0x13
 3304 02ab 00       		.byte	0
 3305 02ac 00       		.byte	0
 3306 02ad 35       		.uleb128 0x35
ARM GAS  C:\Users\IDONNO~1\AppData\Local\Temp\cc8Y9qO6.s 			page 59


 3307 02ae 1D       		.uleb128 0x1d
 3308 02af 01       		.byte	0x1
 3309 02b0 31       		.uleb128 0x31
 3310 02b1 13       		.uleb128 0x13
 3311 02b2 11       		.uleb128 0x11
 3312 02b3 01       		.uleb128 0x1
 3313 02b4 12       		.uleb128 0x12
 3314 02b5 06       		.uleb128 0x6
 3315 02b6 58       		.uleb128 0x58
 3316 02b7 0B       		.uleb128 0xb
 3317 02b8 59       		.uleb128 0x59
 3318 02b9 05       		.uleb128 0x5
 3319 02ba 01       		.uleb128 0x1
 3320 02bb 13       		.uleb128 0x13
 3321 02bc 00       		.byte	0
 3322 02bd 00       		.byte	0
 3323 02be 36       		.uleb128 0x36
 3324 02bf 05       		.uleb128 0x5
 3325 02c0 00       		.byte	0
 3326 02c1 31       		.uleb128 0x31
 3327 02c2 13       		.uleb128 0x13
 3328 02c3 02       		.uleb128 0x2
 3329 02c4 18       		.uleb128 0x18
 3330 02c5 00       		.byte	0
 3331 02c6 00       		.byte	0
 3332 02c7 37       		.uleb128 0x37
 3333 02c8 0B       		.uleb128 0xb
 3334 02c9 01       		.byte	0x1
 3335 02ca 11       		.uleb128 0x11
 3336 02cb 01       		.uleb128 0x1
 3337 02cc 12       		.uleb128 0x12
 3338 02cd 06       		.uleb128 0x6
 3339 02ce 00       		.byte	0
 3340 02cf 00       		.byte	0
 3341 02d0 38       		.uleb128 0x38
 3342 02d1 34       		.uleb128 0x34
 3343 02d2 00       		.byte	0
 3344 02d3 31       		.uleb128 0x31
 3345 02d4 13       		.uleb128 0x13
 3346 02d5 1C       		.uleb128 0x1c
 3347 02d6 0B       		.uleb128 0xb
 3348 02d7 00       		.byte	0
 3349 02d8 00       		.byte	0
 3350 02d9 39       		.uleb128 0x39
 3351 02da 34       		.uleb128 0x34
 3352 02db 00       		.byte	0
 3353 02dc 03       		.uleb128 0x3
 3354 02dd 0E       		.uleb128 0xe
 3355 02de 3A       		.uleb128 0x3a
 3356 02df 0B       		.uleb128 0xb
 3357 02e0 3B       		.uleb128 0x3b
 3358 02e1 05       		.uleb128 0x5
 3359 02e2 49       		.uleb128 0x49
 3360 02e3 13       		.uleb128 0x13
 3361 02e4 3F       		.uleb128 0x3f
 3362 02e5 19       		.uleb128 0x19
 3363 02e6 3C       		.uleb128 0x3c
ARM GAS  C:\Users\IDONNO~1\AppData\Local\Temp\cc8Y9qO6.s 			page 60


 3364 02e7 19       		.uleb128 0x19
 3365 02e8 00       		.byte	0
 3366 02e9 00       		.byte	0
 3367 02ea 3A       		.uleb128 0x3a
 3368 02eb 34       		.uleb128 0x34
 3369 02ec 00       		.byte	0
 3370 02ed 03       		.uleb128 0x3
 3371 02ee 08       		.uleb128 0x8
 3372 02ef 3A       		.uleb128 0x3a
 3373 02f0 0B       		.uleb128 0xb
 3374 02f1 3B       		.uleb128 0x3b
 3375 02f2 05       		.uleb128 0x5
 3376 02f3 49       		.uleb128 0x49
 3377 02f4 13       		.uleb128 0x13
 3378 02f5 3F       		.uleb128 0x3f
 3379 02f6 19       		.uleb128 0x19
 3380 02f7 3C       		.uleb128 0x3c
 3381 02f8 19       		.uleb128 0x19
 3382 02f9 00       		.byte	0
 3383 02fa 00       		.byte	0
 3384 02fb 3B       		.uleb128 0x3b
 3385 02fc 34       		.uleb128 0x34
 3386 02fd 00       		.byte	0
 3387 02fe 03       		.uleb128 0x3
 3388 02ff 0E       		.uleb128 0xe
 3389 0300 3A       		.uleb128 0x3a
 3390 0301 0B       		.uleb128 0xb
 3391 0302 3B       		.uleb128 0x3b
 3392 0303 0B       		.uleb128 0xb
 3393 0304 49       		.uleb128 0x49
 3394 0305 13       		.uleb128 0x13
 3395 0306 3F       		.uleb128 0x3f
 3396 0307 19       		.uleb128 0x19
 3397 0308 02       		.uleb128 0x2
 3398 0309 18       		.uleb128 0x18
 3399 030a 00       		.byte	0
 3400 030b 00       		.byte	0
 3401 030c 3C       		.uleb128 0x3c
 3402 030d 34       		.uleb128 0x34
 3403 030e 00       		.byte	0
 3404 030f 03       		.uleb128 0x3
 3405 0310 0E       		.uleb128 0xe
 3406 0311 3A       		.uleb128 0x3a
 3407 0312 0B       		.uleb128 0xb
 3408 0313 3B       		.uleb128 0x3b
 3409 0314 0B       		.uleb128 0xb
 3410 0315 49       		.uleb128 0x49
 3411 0316 13       		.uleb128 0x13
 3412 0317 3F       		.uleb128 0x3f
 3413 0318 19       		.uleb128 0x19
 3414 0319 3C       		.uleb128 0x3c
 3415 031a 19       		.uleb128 0x19
 3416 031b 00       		.byte	0
 3417 031c 00       		.byte	0
 3418 031d 3D       		.uleb128 0x3d
 3419 031e 2E       		.uleb128 0x2e
 3420 031f 00       		.byte	0
ARM GAS  C:\Users\IDONNO~1\AppData\Local\Temp\cc8Y9qO6.s 			page 61


 3421 0320 3F       		.uleb128 0x3f
 3422 0321 19       		.uleb128 0x19
 3423 0322 3C       		.uleb128 0x3c
 3424 0323 19       		.uleb128 0x19
 3425 0324 6E       		.uleb128 0x6e
 3426 0325 0E       		.uleb128 0xe
 3427 0326 03       		.uleb128 0x3
 3428 0327 0E       		.uleb128 0xe
 3429 0328 3A       		.uleb128 0x3a
 3430 0329 0B       		.uleb128 0xb
 3431 032a 3B       		.uleb128 0x3b
 3432 032b 05       		.uleb128 0x5
 3433 032c 00       		.byte	0
 3434 032d 00       		.byte	0
 3435 032e 3E       		.uleb128 0x3e
 3436 032f 2E       		.uleb128 0x2e
 3437 0330 00       		.byte	0
 3438 0331 3F       		.uleb128 0x3f
 3439 0332 19       		.uleb128 0x19
 3440 0333 3C       		.uleb128 0x3c
 3441 0334 19       		.uleb128 0x19
 3442 0335 6E       		.uleb128 0x6e
 3443 0336 0E       		.uleb128 0xe
 3444 0337 03       		.uleb128 0x3
 3445 0338 0E       		.uleb128 0xe
 3446 0339 3A       		.uleb128 0x3a
 3447 033a 0B       		.uleb128 0xb
 3448 033b 3B       		.uleb128 0x3b
 3449 033c 0B       		.uleb128 0xb
 3450 033d 00       		.byte	0
 3451 033e 00       		.byte	0
 3452 033f 00       		.byte	0
 3453              		.section	.debug_loc,"",%progbits
 3454              	.Ldebug_loc0:
 3455              	.LLST0:
 3456 0000 00000000 		.4byte	.LVL0
 3457 0004 40000000 		.4byte	.LVL6
 3458 0008 0100     		.2byte	0x1
 3459 000a 50       		.byte	0x50
 3460 000b 40000000 		.4byte	.LVL6
 3461 000f 4C000000 		.4byte	.LVL10
 3462 0013 0400     		.2byte	0x4
 3463 0015 F3       		.byte	0xf3
 3464 0016 01       		.uleb128 0x1
 3465 0017 50       		.byte	0x50
 3466 0018 9F       		.byte	0x9f
 3467 0019 4C000000 		.4byte	.LVL10
 3468 001d 5E000000 		.4byte	.LVL11
 3469 0021 0100     		.2byte	0x1
 3470 0023 50       		.byte	0x50
 3471 0024 5E000000 		.4byte	.LVL11
 3472 0028 60000000 		.4byte	.LVL12
 3473 002c 0400     		.2byte	0x4
 3474 002e F3       		.byte	0xf3
 3475 002f 01       		.uleb128 0x1
 3476 0030 50       		.byte	0x50
 3477 0031 9F       		.byte	0x9f
ARM GAS  C:\Users\IDONNO~1\AppData\Local\Temp\cc8Y9qO6.s 			page 62


 3478 0032 60000000 		.4byte	.LVL12
 3479 0036 62000000 		.4byte	.LVL13
 3480 003a 0100     		.2byte	0x1
 3481 003c 50       		.byte	0x50
 3482 003d 62000000 		.4byte	.LVL13
 3483 0041 7C000000 		.4byte	.LFE224
 3484 0045 0400     		.2byte	0x4
 3485 0047 F3       		.byte	0xf3
 3486 0048 01       		.uleb128 0x1
 3487 0049 50       		.byte	0x50
 3488 004a 9F       		.byte	0x9f
 3489 004b 00000000 		.4byte	0
 3490 004f 00000000 		.4byte	0
 3491              	.LLST1:
 3492 0053 00000000 		.4byte	.LVL0
 3493 0057 43000000 		.4byte	.LVL7-1
 3494 005b 0100     		.2byte	0x1
 3495 005d 51       		.byte	0x51
 3496 005e 43000000 		.4byte	.LVL7-1
 3497 0062 4C000000 		.4byte	.LVL10
 3498 0066 0400     		.2byte	0x4
 3499 0068 F3       		.byte	0xf3
 3500 0069 01       		.uleb128 0x1
 3501 006a 51       		.byte	0x51
 3502 006b 9F       		.byte	0x9f
 3503 006c 4C000000 		.4byte	.LVL10
 3504 0070 64000000 		.4byte	.LVL14
 3505 0074 0100     		.2byte	0x1
 3506 0076 51       		.byte	0x51
 3507 0077 64000000 		.4byte	.LVL14
 3508 007b 7C000000 		.4byte	.LFE224
 3509 007f 0400     		.2byte	0x4
 3510 0081 F3       		.byte	0xf3
 3511 0082 01       		.uleb128 0x1
 3512 0083 51       		.byte	0x51
 3513 0084 9F       		.byte	0x9f
 3514 0085 00000000 		.4byte	0
 3515 0089 00000000 		.4byte	0
 3516              	.LLST2:
 3517 008d 00000000 		.4byte	.LVL0
 3518 0091 44000000 		.4byte	.LVL7
 3519 0095 0200     		.2byte	0x2
 3520 0097 39       		.byte	0x39
 3521 0098 9F       		.byte	0x9f
 3522 0099 44000000 		.4byte	.LVL7
 3523 009d 4A000000 		.4byte	.LVL9
 3524 00a1 0100     		.2byte	0x1
 3525 00a3 50       		.byte	0x50
 3526 00a4 4C000000 		.4byte	.LVL10
 3527 00a8 64000000 		.4byte	.LVL14
 3528 00ac 0200     		.2byte	0x2
 3529 00ae 39       		.byte	0x39
 3530 00af 9F       		.byte	0x9f
 3531 00b0 64000000 		.4byte	.LVL14
 3532 00b4 68000000 		.4byte	.LVL15
 3533 00b8 0100     		.2byte	0x1
 3534 00ba 50       		.byte	0x50
ARM GAS  C:\Users\IDONNO~1\AppData\Local\Temp\cc8Y9qO6.s 			page 63


 3535 00bb 00000000 		.4byte	0
 3536 00bf 00000000 		.4byte	0
 3537              	.LLST3:
 3538 00c3 00000000 		.4byte	.LVL0
 3539 00c7 1A000000 		.4byte	.LVL2
 3540 00cb 0200     		.2byte	0x2
 3541 00cd 30       		.byte	0x30
 3542 00ce 9F       		.byte	0x9f
 3543 00cf 4C000000 		.4byte	.LVL10
 3544 00d3 60000000 		.4byte	.LVL12
 3545 00d7 0200     		.2byte	0x2
 3546 00d9 30       		.byte	0x30
 3547 00da 9F       		.byte	0x9f
 3548 00db 00000000 		.4byte	0
 3549 00df 00000000 		.4byte	0
 3550              	.LLST4:
 3551 00e3 00000000 		.4byte	.LVL0
 3552 00e7 28000000 		.4byte	.LVL3
 3553 00eb 0600     		.2byte	0x6
 3554 00ed 0C       		.byte	0xc
 3555 00ee 00400008 		.4byte	0x8004000
 3556 00f2 9F       		.byte	0x9f
 3557 00f3 28000000 		.4byte	.LVL3
 3558 00f7 4C000000 		.4byte	.LVL10
 3559 00fb 0100     		.2byte	0x1
 3560 00fd 54       		.byte	0x54
 3561 00fe 4C000000 		.4byte	.LVL10
 3562 0102 60000000 		.4byte	.LVL12
 3563 0106 0600     		.2byte	0x6
 3564 0108 0C       		.byte	0xc
 3565 0109 00400008 		.4byte	0x8004000
 3566 010d 9F       		.byte	0x9f
 3567 010e 60000000 		.4byte	.LVL12
 3568 0112 7C000000 		.4byte	.LFE224
 3569 0116 0100     		.2byte	0x1
 3570 0118 54       		.byte	0x54
 3571 0119 00000000 		.4byte	0
 3572 011d 00000000 		.4byte	0
 3573              	.LLST5:
 3574 0121 00000000 		.4byte	.LVL0
 3575 0125 2A000000 		.4byte	.LVL4
 3576 0129 0600     		.2byte	0x6
 3577 012b 0C       		.byte	0xc
 3578 012c 00800008 		.4byte	0x8008000
 3579 0130 9F       		.byte	0x9f
 3580 0131 2A000000 		.4byte	.LVL4
 3581 0135 43000000 		.4byte	.LVL7-1
 3582 0139 0100     		.2byte	0x1
 3583 013b 52       		.byte	0x52
 3584 013c 4C000000 		.4byte	.LVL10
 3585 0140 60000000 		.4byte	.LVL12
 3586 0144 0600     		.2byte	0x6
 3587 0146 0C       		.byte	0xc
 3588 0147 00800008 		.4byte	0x8008000
 3589 014b 9F       		.byte	0x9f
 3590 014c 60000000 		.4byte	.LVL12
 3591 0150 64000000 		.4byte	.LVL14
ARM GAS  C:\Users\IDONNO~1\AppData\Local\Temp\cc8Y9qO6.s 			page 64


 3592 0154 0100     		.2byte	0x1
 3593 0156 52       		.byte	0x52
 3594 0157 00000000 		.4byte	0
 3595 015b 00000000 		.4byte	0
 3596              	.LLST6:
 3597 015f 00000000 		.4byte	.LVL0
 3598 0163 1A000000 		.4byte	.LVL2
 3599 0167 0200     		.2byte	0x2
 3600 0169 31       		.byte	0x31
 3601 016a 9F       		.byte	0x9f
 3602 016b 4C000000 		.4byte	.LVL10
 3603 016f 60000000 		.4byte	.LVL12
 3604 0173 0200     		.2byte	0x2
 3605 0175 31       		.byte	0x31
 3606 0176 9F       		.byte	0x9f
 3607 0177 00000000 		.4byte	0
 3608 017b 00000000 		.4byte	0
 3609              	.LLST7:
 3610 017f 00000000 		.4byte	.LVL0
 3611 0183 0E000000 		.4byte	.LVL1
 3612 0187 0200     		.2byte	0x2
 3613 0189 36       		.byte	0x36
 3614 018a 9F       		.byte	0x9f
 3615 018b 0E000000 		.4byte	.LVL1
 3616 018f 1A000000 		.4byte	.LVL2
 3617 0193 0100     		.2byte	0x1
 3618 0195 52       		.byte	0x52
 3619 0196 4C000000 		.4byte	.LVL10
 3620 019a 60000000 		.4byte	.LVL12
 3621 019e 0100     		.2byte	0x1
 3622 01a0 52       		.byte	0x52
 3623 01a1 00000000 		.4byte	0
 3624 01a5 00000000 		.4byte	0
 3625              	.LLST8:
 3626 01a9 00000000 		.4byte	.LVL0
 3627 01ad 0E000000 		.4byte	.LVL1
 3628 01b1 0200     		.2byte	0x2
 3629 01b3 36       		.byte	0x36
 3630 01b4 9F       		.byte	0x9f
 3631 01b5 0E000000 		.4byte	.LVL1
 3632 01b9 1A000000 		.4byte	.LVL2
 3633 01bd 0100     		.2byte	0x1
 3634 01bf 54       		.byte	0x54
 3635 01c0 4C000000 		.4byte	.LVL10
 3636 01c4 60000000 		.4byte	.LVL12
 3637 01c8 0100     		.2byte	0x1
 3638 01ca 54       		.byte	0x54
 3639 01cb 00000000 		.4byte	0
 3640 01cf 00000000 		.4byte	0
 3641              	.LLST9:
 3642 01d3 00000000 		.4byte	.LVL17
 3643 01d7 07000000 		.4byte	.LVL18-1
 3644 01db 0100     		.2byte	0x1
 3645 01dd 50       		.byte	0x50
 3646 01de 07000000 		.4byte	.LVL18-1
 3647 01e2 2E000000 		.4byte	.LFE228
 3648 01e6 0100     		.2byte	0x1
ARM GAS  C:\Users\IDONNO~1\AppData\Local\Temp\cc8Y9qO6.s 			page 65


 3649 01e8 54       		.byte	0x54
 3650 01e9 00000000 		.4byte	0
 3651 01ed 00000000 		.4byte	0
 3652              	.LLST10:
 3653 01f1 08000000 		.4byte	.LVL18
 3654 01f5 10000000 		.4byte	.LVL19
 3655 01f9 0100     		.2byte	0x1
 3656 01fb 50       		.byte	0x50
 3657 01fc 10000000 		.4byte	.LVL19
 3658 0200 12000000 		.4byte	.LVL20
 3659 0204 0300     		.2byte	0x3
 3660 0206 70       		.byte	0x70
 3661 0207 01       		.sleb128 1
 3662 0208 9F       		.byte	0x9f
 3663 0209 12000000 		.4byte	.LVL20
 3664 020d 25000000 		.4byte	.LVL24-1
 3665 0211 0500     		.2byte	0x5
 3666 0213 72       		.byte	0x72
 3667 0214 81807F   		.sleb128 -16383
 3668 0217 9F       		.byte	0x9f
 3669 0218 2A000000 		.4byte	.LVL25
 3670 021c 2E000000 		.4byte	.LFE228
 3671 0220 0500     		.2byte	0x5
 3672 0222 72       		.byte	0x72
 3673 0223 81807F   		.sleb128 -16383
 3674 0226 9F       		.byte	0x9f
 3675 0227 00000000 		.4byte	0
 3676 022b 00000000 		.4byte	0
 3677              	.LLST11:
 3678 022f 08000000 		.4byte	.LVL18
 3679 0233 12000000 		.4byte	.LVL20
 3680 0237 0200     		.2byte	0x2
 3681 0239 30       		.byte	0x30
 3682 023a 9F       		.byte	0x9f
 3683 023b 12000000 		.4byte	.LVL20
 3684 023f 20000000 		.4byte	.LVL23
 3685 0243 0A00     		.2byte	0xa
 3686 0245 70       		.byte	0x70
 3687 0246 00       		.sleb128 0
 3688 0247 72       		.byte	0x72
 3689 0248 00       		.sleb128 0
 3690 0249 1C       		.byte	0x1c
 3691 024a 23       		.byte	0x23
 3692 024b 808001   		.uleb128 0x4000
 3693 024e 9F       		.byte	0x9f
 3694 024f 2A000000 		.4byte	.LVL25
 3695 0253 2C000000 		.4byte	.LVL26
 3696 0257 0A00     		.2byte	0xa
 3697 0259 70       		.byte	0x70
 3698 025a 00       		.sleb128 0
 3699 025b 72       		.byte	0x72
 3700 025c 00       		.sleb128 0
 3701 025d 1C       		.byte	0x1c
 3702 025e 23       		.byte	0x23
 3703 025f 808001   		.uleb128 0x4000
 3704 0262 9F       		.byte	0x9f
 3705 0263 00000000 		.4byte	0
ARM GAS  C:\Users\IDONNO~1\AppData\Local\Temp\cc8Y9qO6.s 			page 66


 3706 0267 00000000 		.4byte	0
 3707              	.LLST12:
 3708 026b 00000000 		.4byte	.LVL27
 3709 026f 0A000000 		.4byte	.LVL29
 3710 0273 0200     		.2byte	0x2
 3711 0275 39       		.byte	0x39
 3712 0276 9F       		.byte	0x9f
 3713 0277 0A000000 		.4byte	.LVL29
 3714 027b 0E000000 		.4byte	.LVL30
 3715 027f 0100     		.2byte	0x1
 3716 0281 50       		.byte	0x50
 3717 0282 10000000 		.4byte	.LVL31
 3718 0286 14000000 		.4byte	.LVL32
 3719 028a 0100     		.2byte	0x1
 3720 028c 50       		.byte	0x50
 3721 028d 18000000 		.4byte	.LVL33
 3722 0291 1E000000 		.4byte	.LVL34
 3723 0295 0100     		.2byte	0x1
 3724 0297 50       		.byte	0x50
 3725 0298 00000000 		.4byte	0
 3726 029c 00000000 		.4byte	0
 3727              	.LLST13:
 3728 02a0 00000000 		.4byte	.LVL36
 3729 02a4 3A000000 		.4byte	.LVL48
 3730 02a8 0100     		.2byte	0x1
 3731 02aa 50       		.byte	0x50
 3732 02ab 3A000000 		.4byte	.LVL48
 3733 02af 40000000 		.4byte	.LVL49
 3734 02b3 0400     		.2byte	0x4
 3735 02b5 F3       		.byte	0xf3
 3736 02b6 01       		.uleb128 0x1
 3737 02b7 50       		.byte	0x50
 3738 02b8 9F       		.byte	0x9f
 3739 02b9 40000000 		.4byte	.LVL49
 3740 02bd 42000000 		.4byte	.LVL50
 3741 02c1 0100     		.2byte	0x1
 3742 02c3 50       		.byte	0x50
 3743 02c4 42000000 		.4byte	.LVL50
 3744 02c8 48000000 		.4byte	.LVL51
 3745 02cc 0400     		.2byte	0x4
 3746 02ce F3       		.byte	0xf3
 3747 02cf 01       		.uleb128 0x1
 3748 02d0 50       		.byte	0x50
 3749 02d1 9F       		.byte	0x9f
 3750 02d2 48000000 		.4byte	.LVL51
 3751 02d6 50000000 		.4byte	.LVL53
 3752 02da 0100     		.2byte	0x1
 3753 02dc 50       		.byte	0x50
 3754 02dd 50000000 		.4byte	.LVL53
 3755 02e1 70000000 		.4byte	.LFE220
 3756 02e5 0400     		.2byte	0x4
 3757 02e7 F3       		.byte	0xf3
 3758 02e8 01       		.uleb128 0x1
 3759 02e9 50       		.byte	0x50
 3760 02ea 9F       		.byte	0x9f
 3761 02eb 00000000 		.4byte	0
 3762 02ef 00000000 		.4byte	0
ARM GAS  C:\Users\IDONNO~1\AppData\Local\Temp\cc8Y9qO6.s 			page 67


 3763              	.LLST14:
 3764 02f3 00000000 		.4byte	.LVL36
 3765 02f7 20000000 		.4byte	.LVL42
 3766 02fb 0200     		.2byte	0x2
 3767 02fd 30       		.byte	0x30
 3768 02fe 9F       		.byte	0x9f
 3769 02ff 40000000 		.4byte	.LVL49
 3770 0303 48000000 		.4byte	.LVL51
 3771 0307 0200     		.2byte	0x2
 3772 0309 30       		.byte	0x30
 3773 030a 9F       		.byte	0x9f
 3774 030b 00000000 		.4byte	0
 3775 030f 00000000 		.4byte	0
 3776              	.LLST15:
 3777 0313 00000000 		.4byte	.LVL36
 3778 0317 24000000 		.4byte	.LVL43
 3779 031b 0400     		.2byte	0x4
 3780 031d 0A       		.byte	0xa
 3781 031e 5555     		.2byte	0x5555
 3782 0320 9F       		.byte	0x9f
 3783 0321 24000000 		.4byte	.LVL43
 3784 0325 2A000000 		.4byte	.LVL44
 3785 0329 0100     		.2byte	0x1
 3786 032b 52       		.byte	0x52
 3787 032c 2E000000 		.4byte	.LVL45
 3788 0330 32000000 		.4byte	.LVL46
 3789 0334 0100     		.2byte	0x1
 3790 0336 52       		.byte	0x52
 3791 0337 40000000 		.4byte	.LVL49
 3792 033b 48000000 		.4byte	.LVL51
 3793 033f 0400     		.2byte	0x4
 3794 0341 0A       		.byte	0xa
 3795 0342 5555     		.2byte	0x5555
 3796 0344 9F       		.byte	0x9f
 3797 0345 00000000 		.4byte	0
 3798 0349 00000000 		.4byte	0
 3799              	.LLST16:
 3800 034d 00000000 		.4byte	.LVL36
 3801 0351 4E000000 		.4byte	.LVL52
 3802 0355 0200     		.2byte	0x2
 3803 0357 31       		.byte	0x31
 3804 0358 9F       		.byte	0x9f
 3805 0359 4E000000 		.4byte	.LVL52
 3806 035d 70000000 		.4byte	.LFE220
 3807 0361 0200     		.2byte	0x2
 3808 0363 30       		.byte	0x30
 3809 0364 9F       		.byte	0x9f
 3810 0365 00000000 		.4byte	0
 3811 0369 00000000 		.4byte	0
 3812              	.LLST17:
 3813 036d 00000000 		.4byte	.LVL36
 3814 0371 20000000 		.4byte	.LVL42
 3815 0375 0600     		.2byte	0x6
 3816 0377 0C       		.byte	0xc
 3817 0378 00400008 		.4byte	0x8004000
 3818 037c 9F       		.byte	0x9f
 3819 037d 2A000000 		.4byte	.LVL44
ARM GAS  C:\Users\IDONNO~1\AppData\Local\Temp\cc8Y9qO6.s 			page 68


 3820 0381 40000000 		.4byte	.LVL49
 3821 0385 0100     		.2byte	0x1
 3822 0387 53       		.byte	0x53
 3823 0388 40000000 		.4byte	.LVL49
 3824 038c 48000000 		.4byte	.LVL51
 3825 0390 0600     		.2byte	0x6
 3826 0392 0C       		.byte	0xc
 3827 0393 00400008 		.4byte	0x8004000
 3828 0397 9F       		.byte	0x9f
 3829 0398 00000000 		.4byte	0
 3830 039c 00000000 		.4byte	0
 3831              	.LLST18:
 3832 03a0 00000000 		.4byte	.LVL36
 3833 03a4 20000000 		.4byte	.LVL42
 3834 03a8 0600     		.2byte	0x6
 3835 03aa 0C       		.byte	0xc
 3836 03ab 00400008 		.4byte	0x8004000
 3837 03af 9F       		.byte	0x9f
 3838 03b0 40000000 		.4byte	.LVL49
 3839 03b4 48000000 		.4byte	.LVL51
 3840 03b8 0600     		.2byte	0x6
 3841 03ba 0C       		.byte	0xc
 3842 03bb 00400008 		.4byte	0x8004000
 3843 03bf 9F       		.byte	0x9f
 3844 03c0 00000000 		.4byte	0
 3845 03c4 00000000 		.4byte	0
 3846              	.LLST20:
 3847 03c8 00000000 		.4byte	.LVL36
 3848 03cc 0A000000 		.4byte	.LVL37
 3849 03d0 0200     		.2byte	0x2
 3850 03d2 36       		.byte	0x36
 3851 03d3 9F       		.byte	0x9f
 3852 03d4 0A000000 		.4byte	.LVL37
 3853 03d8 14000000 		.4byte	.LVL38
 3854 03dc 0100     		.2byte	0x1
 3855 03de 53       		.byte	0x53
 3856 03df 1A000000 		.4byte	.LVL40
 3857 03e3 1C000000 		.4byte	.LVL41
 3858 03e7 0100     		.2byte	0x1
 3859 03e9 53       		.byte	0x53
 3860 03ea 40000000 		.4byte	.LVL49
 3861 03ee 48000000 		.4byte	.LVL51
 3862 03f2 0100     		.2byte	0x1
 3863 03f4 53       		.byte	0x53
 3864 03f5 00000000 		.4byte	0
 3865 03f9 00000000 		.4byte	0
 3866              	.LLST21:
 3867 03fd 00000000 		.4byte	.LVL36
 3868 0401 0A000000 		.4byte	.LVL37
 3869 0405 0200     		.2byte	0x2
 3870 0407 36       		.byte	0x36
 3871 0408 9F       		.byte	0x9f
 3872 0409 0A000000 		.4byte	.LVL37
 3873 040d 18000000 		.4byte	.LVL39
 3874 0411 0100     		.2byte	0x1
 3875 0413 52       		.byte	0x52
 3876 0414 1A000000 		.4byte	.LVL40
ARM GAS  C:\Users\IDONNO~1\AppData\Local\Temp\cc8Y9qO6.s 			page 69


 3877 0418 20000000 		.4byte	.LVL42
 3878 041c 0100     		.2byte	0x1
 3879 041e 52       		.byte	0x52
 3880 041f 40000000 		.4byte	.LVL49
 3881 0423 48000000 		.4byte	.LVL51
 3882 0427 0100     		.2byte	0x1
 3883 0429 52       		.byte	0x52
 3884 042a 00000000 		.4byte	0
 3885 042e 00000000 		.4byte	0
 3886              	.LLST22:
 3887 0432 00000000 		.4byte	.LVL54
 3888 0436 0E000000 		.4byte	.LVL55
 3889 043a 0200     		.2byte	0x2
 3890 043c 36       		.byte	0x36
 3891 043d 9F       		.byte	0x9f
 3892 043e 0E000000 		.4byte	.LVL55
 3893 0442 28000000 		.4byte	.LVL58
 3894 0446 0100     		.2byte	0x1
 3895 0448 54       		.byte	0x54
 3896 0449 2C000000 		.4byte	.LVL59
 3897 044d 3E000000 		.4byte	.LVL60
 3898 0451 0100     		.2byte	0x1
 3899 0453 54       		.byte	0x54
 3900 0454 78000000 		.4byte	.LVL67
 3901 0458 A2000000 		.4byte	.LVL72
 3902 045c 0100     		.2byte	0x1
 3903 045e 54       		.byte	0x54
 3904 045f E4000000 		.4byte	.LVL80
 3905 0463 04010000 		.4byte	.LVL84
 3906 0467 0100     		.2byte	0x1
 3907 0469 54       		.byte	0x54
 3908 046a 00000000 		.4byte	0
 3909 046e 00000000 		.4byte	0
 3910              	.LLST23:
 3911 0472 00000000 		.4byte	.LVL54
 3912 0476 16000000 		.4byte	.LVL56
 3913 047a 0200     		.2byte	0x2
 3914 047c 36       		.byte	0x36
 3915 047d 9F       		.byte	0x9f
 3916 047e 16000000 		.4byte	.LVL56
 3917 0482 25000000 		.4byte	.LVL57-1
 3918 0486 0100     		.2byte	0x1
 3919 0488 53       		.byte	0x53
 3920 0489 2C000000 		.4byte	.LVL59
 3921 048d 3E000000 		.4byte	.LVL60
 3922 0491 0100     		.2byte	0x1
 3923 0493 53       		.byte	0x53
 3924 0494 78000000 		.4byte	.LVL67
 3925 0498 85000000 		.4byte	.LVL68-1
 3926 049c 0100     		.2byte	0x1
 3927 049e 53       		.byte	0x53
 3928 049f 98000000 		.4byte	.LVL71
 3929 04a3 A8000000 		.4byte	.LVL73
 3930 04a7 0100     		.2byte	0x1
 3931 04a9 53       		.byte	0x53
 3932 04aa E4000000 		.4byte	.LVL80
 3933 04ae F1000000 		.4byte	.LVL81-1
ARM GAS  C:\Users\IDONNO~1\AppData\Local\Temp\cc8Y9qO6.s 			page 70


 3934 04b2 0100     		.2byte	0x1
 3935 04b4 53       		.byte	0x53
 3936 04b5 00000000 		.4byte	0
 3937 04b9 00000000 		.4byte	0
 3938              	.LLST24:
 3939 04bd 00000000 		.4byte	.LVL54
 3940 04c1 28000000 		.4byte	.LVL58
 3941 04c5 0200     		.2byte	0x2
 3942 04c7 30       		.byte	0x30
 3943 04c8 9F       		.byte	0x9f
 3944 04c9 2C000000 		.4byte	.LVL59
 3945 04cd 3E000000 		.4byte	.LVL60
 3946 04d1 0200     		.2byte	0x2
 3947 04d3 30       		.byte	0x30
 3948 04d4 9F       		.byte	0x9f
 3949 04d5 42000000 		.4byte	.LVL61
 3950 04d9 5C000000 		.4byte	.LVL63
 3951 04dd 0100     		.2byte	0x1
 3952 04df 54       		.byte	0x54
 3953 04e0 78000000 		.4byte	.LVL67
 3954 04e4 A8000000 		.4byte	.LVL73
 3955 04e8 0200     		.2byte	0x2
 3956 04ea 30       		.byte	0x30
 3957 04eb 9F       		.byte	0x9f
 3958 04ec AC000000 		.4byte	.LVL74
 3959 04f0 CA000000 		.4byte	.LVL76
 3960 04f4 0100     		.2byte	0x1
 3961 04f6 54       		.byte	0x54
 3962 04f7 E4000000 		.4byte	.LVL80
 3963 04fb 04010000 		.4byte	.LVL84
 3964 04ff 0200     		.2byte	0x2
 3965 0501 30       		.byte	0x30
 3966 0502 9F       		.byte	0x9f
 3967 0503 00000000 		.4byte	0
 3968 0507 00000000 		.4byte	0
 3969              	.LLST25:
 3970 050b 00000000 		.4byte	.LVL54
 3971 050f 28000000 		.4byte	.LVL58
 3972 0513 0200     		.2byte	0x2
 3973 0515 30       		.byte	0x30
 3974 0516 9F       		.byte	0x9f
 3975 0517 2C000000 		.4byte	.LVL59
 3976 051b 3E000000 		.4byte	.LVL60
 3977 051f 0200     		.2byte	0x2
 3978 0521 30       		.byte	0x30
 3979 0522 9F       		.byte	0x9f
 3980 0523 70000000 		.4byte	.LVL66
 3981 0527 78000000 		.4byte	.LVL67
 3982 052b 0100     		.2byte	0x1
 3983 052d 50       		.byte	0x50
 3984 052e 78000000 		.4byte	.LVL67
 3985 0532 A8000000 		.4byte	.LVL73
 3986 0536 0200     		.2byte	0x2
 3987 0538 30       		.byte	0x30
 3988 0539 9F       		.byte	0x9f
 3989 053a DC000000 		.4byte	.LVL79
 3990 053e E4000000 		.4byte	.LVL80
ARM GAS  C:\Users\IDONNO~1\AppData\Local\Temp\cc8Y9qO6.s 			page 71


 3991 0542 0100     		.2byte	0x1
 3992 0544 50       		.byte	0x50
 3993 0545 E4000000 		.4byte	.LVL80
 3994 0549 04010000 		.4byte	.LVL84
 3995 054d 0200     		.2byte	0x2
 3996 054f 30       		.byte	0x30
 3997 0550 9F       		.byte	0x9f
 3998 0551 00000000 		.4byte	0
 3999 0555 00000000 		.4byte	0
 4000              	.LLST26:
 4001 0559 00000000 		.4byte	.LVL54
 4002 055d 28000000 		.4byte	.LVL58
 4003 0561 0200     		.2byte	0x2
 4004 0563 30       		.byte	0x30
 4005 0564 9F       		.byte	0x9f
 4006 0565 2C000000 		.4byte	.LVL59
 4007 0569 3E000000 		.4byte	.LVL60
 4008 056d 0200     		.2byte	0x2
 4009 056f 30       		.byte	0x30
 4010 0570 9F       		.byte	0x9f
 4011 0571 62000000 		.4byte	.LVL64
 4012 0575 6C000000 		.4byte	.LVL65
 4013 0579 0100     		.2byte	0x1
 4014 057b 50       		.byte	0x50
 4015 057c 78000000 		.4byte	.LVL67
 4016 0580 A8000000 		.4byte	.LVL73
 4017 0584 0200     		.2byte	0x2
 4018 0586 30       		.byte	0x30
 4019 0587 9F       		.byte	0x9f
 4020 0588 D0000000 		.4byte	.LVL77
 4021 058c D8000000 		.4byte	.LVL78
 4022 0590 0100     		.2byte	0x1
 4023 0592 50       		.byte	0x50
 4024 0593 E4000000 		.4byte	.LVL80
 4025 0597 04010000 		.4byte	.LVL84
 4026 059b 0200     		.2byte	0x2
 4027 059d 30       		.byte	0x30
 4028 059e 9F       		.byte	0x9f
 4029 059f 00000000 		.4byte	0
 4030 05a3 00000000 		.4byte	0
 4031              	.LLST27:
 4032 05a7 00000000 		.4byte	.LVL54
 4033 05ab 28000000 		.4byte	.LVL58
 4034 05af 0300     		.2byte	0x3
 4035 05b1 09       		.byte	0x9
 4036 05b2 FF       		.byte	0xff
 4037 05b3 9F       		.byte	0x9f
 4038 05b4 2C000000 		.4byte	.LVL59
 4039 05b8 3E000000 		.4byte	.LVL60
 4040 05bc 0300     		.2byte	0x3
 4041 05be 09       		.byte	0x9
 4042 05bf FF       		.byte	0xff
 4043 05c0 9F       		.byte	0x9f
 4044 05c1 3E000000 		.4byte	.LVL60
 4045 05c5 78000000 		.4byte	.LVL67
 4046 05c9 0100     		.2byte	0x1
 4047 05cb 56       		.byte	0x56
ARM GAS  C:\Users\IDONNO~1\AppData\Local\Temp\cc8Y9qO6.s 			page 72


 4048 05cc 78000000 		.4byte	.LVL67
 4049 05d0 A8000000 		.4byte	.LVL73
 4050 05d4 0300     		.2byte	0x3
 4051 05d6 09       		.byte	0x9
 4052 05d7 FF       		.byte	0xff
 4053 05d8 9F       		.byte	0x9f
 4054 05d9 A8000000 		.4byte	.LVL73
 4055 05dd E4000000 		.4byte	.LVL80
 4056 05e1 0100     		.2byte	0x1
 4057 05e3 58       		.byte	0x58
 4058 05e4 E4000000 		.4byte	.LVL80
 4059 05e8 04010000 		.4byte	.LVL84
 4060 05ec 0300     		.2byte	0x3
 4061 05ee 09       		.byte	0x9
 4062 05ef FF       		.byte	0xff
 4063 05f0 9F       		.byte	0x9f
 4064 05f1 04010000 		.4byte	.LVL84
 4065 05f5 12010000 		.4byte	.LVL87
 4066 05f9 0100     		.2byte	0x1
 4067 05fb 56       		.byte	0x56
 4068 05fc 1C010000 		.4byte	.LVL88
 4069 0600 2C010000 		.4byte	.LVL91
 4070 0604 0100     		.2byte	0x1
 4071 0606 58       		.byte	0x58
 4072 0607 00000000 		.4byte	0
 4073 060b 00000000 		.4byte	0
 4074              	.LLST28:
 4075 060f 86000000 		.4byte	.LVL68
 4076 0613 8C000000 		.4byte	.LVL69
 4077 0617 0100     		.2byte	0x1
 4078 0619 50       		.byte	0x50
 4079 061a F2000000 		.4byte	.LVL81
 4080 061e F8000000 		.4byte	.LVL82
 4081 0622 0100     		.2byte	0x1
 4082 0624 50       		.byte	0x50
 4083 0625 0E010000 		.4byte	.LVL86
 4084 0629 12010000 		.4byte	.LVL87
 4085 062d 0100     		.2byte	0x1
 4086 062f 50       		.byte	0x50
 4087 0630 26010000 		.4byte	.LVL90
 4088 0634 2C010000 		.4byte	.LVL91
 4089 0638 0100     		.2byte	0x1
 4090 063a 50       		.byte	0x50
 4091 063b 00000000 		.4byte	0
 4092 063f 00000000 		.4byte	0
 4093              	.LLST29:
 4094 0643 00000000 		.4byte	.LVL93
 4095 0647 0B000000 		.4byte	.LVL94-1
 4096 064b 0100     		.2byte	0x1
 4097 064d 50       		.byte	0x50
 4098 064e 0B000000 		.4byte	.LVL94-1
 4099 0652 BC000000 		.4byte	.LFE221
 4100 0656 0400     		.2byte	0x4
 4101 0658 F3       		.byte	0xf3
 4102 0659 01       		.uleb128 0x1
 4103 065a 50       		.byte	0x50
 4104 065b 9F       		.byte	0x9f
ARM GAS  C:\Users\IDONNO~1\AppData\Local\Temp\cc8Y9qO6.s 			page 73


 4105 065c 00000000 		.4byte	0
 4106 0660 00000000 		.4byte	0
 4107              	.LLST30:
 4108 0664 00000000 		.4byte	.LVL93
 4109 0668 0B000000 		.4byte	.LVL94-1
 4110 066c 0100     		.2byte	0x1
 4111 066e 51       		.byte	0x51
 4112 066f 0B000000 		.4byte	.LVL94-1
 4113 0673 BC000000 		.4byte	.LFE221
 4114 0677 0400     		.2byte	0x4
 4115 0679 F3       		.byte	0xf3
 4116 067a 01       		.uleb128 0x1
 4117 067b 51       		.byte	0x51
 4118 067c 9F       		.byte	0x9f
 4119 067d 00000000 		.4byte	0
 4120 0681 00000000 		.4byte	0
 4121              	.LLST31:
 4122 0685 00000000 		.4byte	.LVL93
 4123 0689 10000000 		.4byte	.LVL95
 4124 068d 0200     		.2byte	0x2
 4125 068f 30       		.byte	0x30
 4126 0690 9F       		.byte	0x9f
 4127 0691 10000000 		.4byte	.LVL95
 4128 0695 12000000 		.4byte	.LVL96
 4129 0699 0100     		.2byte	0x1
 4130 069b 50       		.byte	0x50
 4131 069c 12000000 		.4byte	.LVL96
 4132 06a0 18000000 		.4byte	.LVL97
 4133 06a4 0100     		.2byte	0x1
 4134 06a6 54       		.byte	0x54
 4135 06a7 18000000 		.4byte	.LVL97
 4136 06ab 1C000000 		.4byte	.LVL98
 4137 06af 0100     		.2byte	0x1
 4138 06b1 50       		.byte	0x50
 4139 06b2 00000000 		.4byte	0
 4140 06b6 00000000 		.4byte	0
 4141              	.LLST32:
 4142 06ba 18000000 		.4byte	.LVL97
 4143 06be 44000000 		.4byte	.LVL103
 4144 06c2 0100     		.2byte	0x1
 4145 06c4 56       		.byte	0x56
 4146 06c5 48000000 		.4byte	.LVL104
 4147 06c9 5C000000 		.4byte	.LVL109
 4148 06cd 0100     		.2byte	0x1
 4149 06cf 56       		.byte	0x56
 4150 06d0 00000000 		.4byte	0
 4151 06d4 00000000 		.4byte	0
 4152              	.LLST33:
 4153 06d8 18000000 		.4byte	.LVL97
 4154 06dc 40000000 		.4byte	.LVL102
 4155 06e0 0200     		.2byte	0x2
 4156 06e2 39       		.byte	0x39
 4157 06e3 9F       		.byte	0x9f
 4158 06e4 40000000 		.4byte	.LVL102
 4159 06e8 44000000 		.4byte	.LVL103
 4160 06ec 0100     		.2byte	0x1
 4161 06ee 50       		.byte	0x50
ARM GAS  C:\Users\IDONNO~1\AppData\Local\Temp\cc8Y9qO6.s 			page 74


 4162 06ef 48000000 		.4byte	.LVL104
 4163 06f3 4C000000 		.4byte	.LVL105
 4164 06f7 0200     		.2byte	0x2
 4165 06f9 39       		.byte	0x39
 4166 06fa 9F       		.byte	0x9f
 4167 06fb 4C000000 		.4byte	.LVL105
 4168 06ff 50000000 		.4byte	.LVL106
 4169 0703 0100     		.2byte	0x1
 4170 0705 50       		.byte	0x50
 4171 0706 96000000 		.4byte	.LVL115
 4172 070a 9E000000 		.4byte	.LVL116
 4173 070e 0100     		.2byte	0x1
 4174 0710 50       		.byte	0x50
 4175 0711 A4000000 		.4byte	.LVL117
 4176 0715 BC000000 		.4byte	.LFE221
 4177 0719 0100     		.2byte	0x1
 4178 071b 50       		.byte	0x50
 4179 071c 00000000 		.4byte	0
 4180 0720 00000000 		.4byte	0
 4181              	.LLST34:
 4182 0724 18000000 		.4byte	.LVL97
 4183 0728 36000000 		.4byte	.LVL101
 4184 072c 0600     		.2byte	0x6
 4185 072e 0C       		.byte	0xc
 4186 072f 00400008 		.4byte	0x8004000
 4187 0733 9F       		.byte	0x9f
 4188 0734 36000000 		.4byte	.LVL101
 4189 0738 48000000 		.4byte	.LVL104
 4190 073c 0100     		.2byte	0x1
 4191 073e 57       		.byte	0x57
 4192 073f 48000000 		.4byte	.LVL104
 4193 0743 4C000000 		.4byte	.LVL105
 4194 0747 0600     		.2byte	0x6
 4195 0749 0C       		.byte	0xc
 4196 074a 00400008 		.4byte	0x8004000
 4197 074e 9F       		.byte	0x9f
 4198 074f 4C000000 		.4byte	.LVL105
 4199 0753 BC000000 		.4byte	.LFE221
 4200 0757 0100     		.2byte	0x1
 4201 0759 57       		.byte	0x57
 4202 075a 00000000 		.4byte	0
 4203 075e 00000000 		.4byte	0
 4204              	.LLST35:
 4205 0762 18000000 		.4byte	.LVL97
 4206 0766 36000000 		.4byte	.LVL101
 4207 076a 0200     		.2byte	0x2
 4208 076c 30       		.byte	0x30
 4209 076d 9F       		.byte	0x9f
 4210 076e 36000000 		.4byte	.LVL101
 4211 0772 48000000 		.4byte	.LVL104
 4212 0776 0100     		.2byte	0x1
 4213 0778 58       		.byte	0x58
 4214 0779 48000000 		.4byte	.LVL104
 4215 077d 4C000000 		.4byte	.LVL105
 4216 0781 0200     		.2byte	0x2
 4217 0783 30       		.byte	0x30
 4218 0784 9F       		.byte	0x9f
ARM GAS  C:\Users\IDONNO~1\AppData\Local\Temp\cc8Y9qO6.s 			page 75


 4219 0785 4C000000 		.4byte	.LVL105
 4220 0789 BC000000 		.4byte	.LFE221
 4221 078d 0100     		.2byte	0x1
 4222 078f 58       		.byte	0x58
 4223 0790 00000000 		.4byte	0
 4224 0794 00000000 		.4byte	0
 4225              	.LLST36:
 4226 0798 18000000 		.4byte	.LVL97
 4227 079c 44000000 		.4byte	.LVL103
 4228 07a0 0200     		.2byte	0x2
 4229 07a2 30       		.byte	0x30
 4230 07a3 9F       		.byte	0x9f
 4231 07a4 48000000 		.4byte	.LVL104
 4232 07a8 66000000 		.4byte	.LVL110
 4233 07ac 0200     		.2byte	0x2
 4234 07ae 30       		.byte	0x30
 4235 07af 9F       		.byte	0x9f
 4236 07b0 00000000 		.4byte	0
 4237 07b4 00000000 		.4byte	0
 4238              	.LLST37:
 4239 07b8 18000000 		.4byte	.LVL97
 4240 07bc 44000000 		.4byte	.LVL103
 4241 07c0 0200     		.2byte	0x2
 4242 07c2 30       		.byte	0x30
 4243 07c3 9F       		.byte	0x9f
 4244 07c4 48000000 		.4byte	.LVL104
 4245 07c8 58000000 		.4byte	.LVL108
 4246 07cc 0200     		.2byte	0x2
 4247 07ce 30       		.byte	0x30
 4248 07cf 9F       		.byte	0x9f
 4249 07d0 58000000 		.4byte	.LVL108
 4250 07d4 66000000 		.4byte	.LVL110
 4251 07d8 0100     		.2byte	0x1
 4252 07da 50       		.byte	0x50
 4253 07db 88000000 		.4byte	.LVL113
 4254 07df 90000000 		.4byte	.LVL114
 4255 07e3 0100     		.2byte	0x1
 4256 07e5 50       		.byte	0x50
 4257 07e6 00000000 		.4byte	0
 4258 07ea 00000000 		.4byte	0
 4259              	.LLST38:
 4260 07ee 18000000 		.4byte	.LVL97
 4261 07f2 44000000 		.4byte	.LVL103
 4262 07f6 0200     		.2byte	0x2
 4263 07f8 30       		.byte	0x30
 4264 07f9 9F       		.byte	0x9f
 4265 07fa 48000000 		.4byte	.LVL104
 4266 07fe 66000000 		.4byte	.LVL110
 4267 0802 0200     		.2byte	0x2
 4268 0804 30       		.byte	0x30
 4269 0805 9F       		.byte	0x9f
 4270 0806 7A000000 		.4byte	.LVL111
 4271 080a 84000000 		.4byte	.LVL112
 4272 080e 0100     		.2byte	0x1
 4273 0810 50       		.byte	0x50
 4274 0811 00000000 		.4byte	0
 4275 0815 00000000 		.4byte	0
ARM GAS  C:\Users\IDONNO~1\AppData\Local\Temp\cc8Y9qO6.s 			page 76


 4276              	.LLST39:
 4277 0819 18000000 		.4byte	.LVL97
 4278 081d 22000000 		.4byte	.LVL99
 4279 0821 0200     		.2byte	0x2
 4280 0823 36       		.byte	0x36
 4281 0824 9F       		.byte	0x9f
 4282 0825 22000000 		.4byte	.LVL99
 4283 0829 3F000000 		.4byte	.LVL102-1
 4284 082d 0100     		.2byte	0x1
 4285 082f 53       		.byte	0x53
 4286 0830 48000000 		.4byte	.LVL104
 4287 0834 4C000000 		.4byte	.LVL105
 4288 0838 0100     		.2byte	0x1
 4289 083a 53       		.byte	0x53
 4290 083b 00000000 		.4byte	0
 4291 083f 00000000 		.4byte	0
 4292              	.LLST40:
 4293 0843 18000000 		.4byte	.LVL97
 4294 0847 24000000 		.4byte	.LVL100
 4295 084b 0200     		.2byte	0x2
 4296 084d 36       		.byte	0x36
 4297 084e 9F       		.byte	0x9f
 4298 084f 24000000 		.4byte	.LVL100
 4299 0853 3F000000 		.4byte	.LVL102-1
 4300 0857 0100     		.2byte	0x1
 4301 0859 52       		.byte	0x52
 4302 085a 48000000 		.4byte	.LVL104
 4303 085e 4C000000 		.4byte	.LVL105
 4304 0862 0100     		.2byte	0x1
 4305 0864 52       		.byte	0x52
 4306 0865 00000000 		.4byte	0
 4307 0869 00000000 		.4byte	0
 4308              		.section	.debug_aranges,"",%progbits
 4309 0000 44000000 		.4byte	0x44
 4310 0004 0200     		.2byte	0x2
 4311 0006 00000000 		.4byte	.Ldebug_info0
 4312 000a 04       		.byte	0x4
 4313 000b 00       		.byte	0
 4314 000c 0000     		.2byte	0
 4315 000e 0000     		.2byte	0
 4316 0010 00000000 		.4byte	.LFB224
 4317 0014 7C000000 		.4byte	.LFE224-.LFB224
 4318 0018 00000000 		.4byte	.LFB228
 4319 001c 2E000000 		.4byte	.LFE228-.LFB228
 4320 0020 00000000 		.4byte	.LFB222
 4321 0024 2C000000 		.4byte	.LFE222-.LFB222
 4322 0028 00000000 		.4byte	.LFB220
 4323 002c 70000000 		.4byte	.LFE220-.LFB220
 4324 0030 00000000 		.4byte	.LFB219
 4325 0034 50010000 		.4byte	.LFE219-.LFB219
 4326 0038 00000000 		.4byte	.LFB221
 4327 003c BC000000 		.4byte	.LFE221-.LFB221
 4328 0040 00000000 		.4byte	0
 4329 0044 00000000 		.4byte	0
 4330              		.section	.debug_ranges,"",%progbits
 4331              	.Ldebug_ranges0:
 4332 0000 02000000 		.4byte	.LBB9
ARM GAS  C:\Users\IDONNO~1\AppData\Local\Temp\cc8Y9qO6.s 			page 77


 4333 0004 1A000000 		.4byte	.LBE9
 4334 0008 4C000000 		.4byte	.LBB12
 4335 000c 5C000000 		.4byte	.LBE12
 4336 0010 00000000 		.4byte	0
 4337 0014 00000000 		.4byte	0
 4338 0018 00000000 		.4byte	.LBB17
 4339 001c 0A000000 		.4byte	.LBE17
 4340 0020 0C000000 		.4byte	.LBB20
 4341 0024 20000000 		.4byte	.LBE20
 4342 0028 00000000 		.4byte	0
 4343 002c 00000000 		.4byte	0
 4344 0030 00000000 		.4byte	.LFB224
 4345 0034 7C000000 		.4byte	.LFE224
 4346 0038 00000000 		.4byte	.LFB228
 4347 003c 2E000000 		.4byte	.LFE228
 4348 0040 00000000 		.4byte	.LFB222
 4349 0044 2C000000 		.4byte	.LFE222
 4350 0048 00000000 		.4byte	.LFB220
 4351 004c 70000000 		.4byte	.LFE220
 4352 0050 00000000 		.4byte	.LFB219
 4353 0054 50010000 		.4byte	.LFE219
 4354 0058 00000000 		.4byte	.LFB221
 4355 005c BC000000 		.4byte	.LFE221
 4356 0060 00000000 		.4byte	0
 4357 0064 00000000 		.4byte	0
 4358              		.section	.debug_line,"",%progbits
 4359              	.Ldebug_line0:
 4360 0000 3D040000 		.section	.debug_str,"MS",%progbits,1
 4360      0200C102 
 4360      00000201 
 4360      FB0E0D00 
 4360      01010101 
 4361              	.LASF69:
 4362 0000 72656164 		.ascii	"ready_list_t\000"
 4362      795F6C69 
 4362      73745F74 
 4362      00
 4363              	.LASF103:
 4364 000d 7264796D 		.ascii	"rdymsg\000"
 4364      736700
 4365              	.LASF20:
 4366 0014 75696E74 		.ascii	"uint64_t\000"
 4366      36345F74 
 4366      00
 4367              	.LASF2:
 4368 001d 5F5F7569 		.ascii	"__uint8_t\000"
 4368      6E74385F 
 4368      7400
 4369              	.LASF100:
 4370 0027 706F7274 		.ascii	"port_intctx\000"
 4370      5F696E74 
 4370      63747800 
 4371              	.LASF88:
 4372 0033 73797374 		.ascii	"system_debug_t\000"
 4372      656D5F64 
 4372      65627567 
 4372      5F7400
ARM GAS  C:\Users\IDONNO~1\AppData\Local\Temp\cc8Y9qO6.s 			page 78


 4373              	.LASF156:
 4374 0042 443A5C67 		.ascii	"D:\\git\\oroca_bldc_dev\\oroca_bldc_FW\000"
 4374      69745C6F 
 4374      726F6361 
 4374      5F626C64 
 4374      635F6465 
 4375              	.LASF13:
 4376 0066 6C6F6E67 		.ascii	"long long unsigned int\000"
 4376      206C6F6E 
 4376      6720756E 
 4376      7369676E 
 4376      65642069 
 4377              	.LASF146:
 4378 007d 45455F57 		.ascii	"EE_WriteVariable\000"
 4378      72697465 
 4378      56617269 
 4378      61626C65 
 4378      00
 4379              	.LASF104:
 4380 008e 65786974 		.ascii	"exitcode\000"
 4380      636F6465 
 4380      00
 4381              	.LASF95:
 4382 0097 6D61696E 		.ascii	"mainthread\000"
 4382      74687265 
 4382      616400
 4383              	.LASF141:
 4384 00a2 56617249 		.ascii	"VarIdx\000"
 4384      647800
 4385              	.LASF85:
 4386 00a9 76697274 		.ascii	"virtual_timers_list_t\000"
 4386      75616C5F 
 4386      74696D65 
 4386      72735F6C 
 4386      6973745F 
 4387              	.LASF125:
 4388 00bf 466C6173 		.ascii	"FlashStatus\000"
 4388      68537461 
 4388      74757300 
 4389              	.LASF148:
 4390 00cb 49544D5F 		.ascii	"ITM_RxBuffer\000"
 4390      52784275 
 4390      66666572 
 4390      00
 4391              	.LASF68:
 4392 00d8 63685F74 		.ascii	"ch_threads_queue\000"
 4392      68726561 
 4392      64735F71 
 4392      75657565 
 4392      00
 4393              	.LASF46:
 4394 00e9 705F7072 		.ascii	"p_prio\000"
 4394      696F00
 4395              	.LASF29:
 4396 00f0 464C4153 		.ascii	"FLASH_ERROR_OPERATION\000"
 4396      485F4552 
 4396      524F525F 
ARM GAS  C:\Users\IDONNO~1\AppData\Local\Temp\cc8Y9qO6.s 			page 79


 4396      4F504552 
 4396      4154494F 
 4397              	.LASF11:
 4398 0106 6C6F6E67 		.ascii	"long long int\000"
 4398      206C6F6E 
 4398      6720696E 
 4398      7400
 4399              	.LASF0:
 4400 0114 7369676E 		.ascii	"signed char\000"
 4400      65642063 
 4400      68617200 
 4401              	.LASF62:
 4402 0120 705F6D70 		.ascii	"p_mpool\000"
 4402      6F6F6C00 
 4403              	.LASF114:
 4404 0128 6D5F7175 		.ascii	"m_queue\000"
 4404      65756500 
 4405              	.LASF22:
 4406 0130 464C4153 		.ascii	"FLASH_BUSY\000"
 4406      485F4255 
 4406      535900
 4407              	.LASF126:
 4408 013b 45455F45 		.ascii	"EE_EraseSectorIfNotEmpty\000"
 4408      72617365 
 4408      53656374 
 4408      6F724966 
 4408      4E6F7445 
 4409              	.LASF94:
 4410 0154 76746C69 		.ascii	"vtlist\000"
 4410      737400
 4411              	.LASF37:
 4412 015b 74736C69 		.ascii	"tslices_t\000"
 4412      6365735F 
 4412      7400
 4413              	.LASF128:
 4414 0165 464C4153 		.ascii	"FLASH_Sector\000"
 4414      485F5365 
 4414      63746F72 
 4414      00
 4415              	.LASF106:
 4416 0172 77747472 		.ascii	"wttrp\000"
 4416      7000
 4417              	.LASF92:
 4418 0178 63685F73 		.ascii	"ch_system\000"
 4418      79737465 
 4418      6D00
 4419              	.LASF8:
 4420 0182 6C6F6E67 		.ascii	"long int\000"
 4420      20696E74 
 4420      00
 4421              	.LASF124:
 4422 018b 45455F46 		.ascii	"EE_Format\000"
 4422      6F726D61 
 4422      7400
 4423              	.LASF35:
 4424 0195 74737461 		.ascii	"tstate_t\000"
 4424      74655F74 
ARM GAS  C:\Users\IDONNO~1\AppData\Local\Temp\cc8Y9qO6.s 			page 80


 4424      00
 4425              	.LASF48:
 4426 019e 705F6E65 		.ascii	"p_newer\000"
 4426      77657200 
 4427              	.LASF111:
 4428 01a6 735F7175 		.ascii	"s_queue\000"
 4428      65756500 
 4429              	.LASF31:
 4430 01ae 464C4153 		.ascii	"FLASH_Status\000"
 4430      485F5374 
 4430      61747573 
 4430      00
 4431              	.LASF155:
 4432 01bb 7372632F 		.ascii	"src/core/eeprom.c\000"
 4432      636F7265 
 4432      2F656570 
 4432      726F6D2E 
 4432      6300
 4433              	.LASF74:
 4434 01cd 725F6E65 		.ascii	"r_newer\000"
 4434      77657200 
 4435              	.LASF97:
 4436 01d5 72656761 		.ascii	"regarm_t\000"
 4436      726D5F74 
 4436      00
 4437              	.LASF81:
 4438 01de 76745F70 		.ascii	"vt_prev\000"
 4438      72657600 
 4439              	.LASF3:
 4440 01e6 5F5F696E 		.ascii	"__int16_t\000"
 4440      7431365F 
 4440      7400
 4441              	.LASF32:
 4442 01f0 73697A65 		.ascii	"size_t\000"
 4442      5F7400
 4443              	.LASF118:
 4444 01f7 6D757465 		.ascii	"mutex_t\000"
 4444      785F7400 
 4445              	.LASF96:
 4446 01ff 69646C65 		.ascii	"idle_thread_wa\000"
 4446      5F746872 
 4446      6561645F 
 4446      776100
 4447              	.LASF41:
 4448 020e 636E745F 		.ascii	"cnt_t\000"
 4448      7400
 4449              	.LASF14:
 4450 0214 756E7369 		.ascii	"unsigned int\000"
 4450      676E6564 
 4450      20696E74 
 4450      00
 4451              	.LASF80:
 4452 0221 76745F6E 		.ascii	"vt_next\000"
 4452      65787400 
 4453              	.LASF17:
 4454 0229 75696E74 		.ascii	"uint16_t\000"
 4454      31365F74 
ARM GAS  C:\Users\IDONNO~1\AppData\Local\Temp\cc8Y9qO6.s 			page 81


 4454      00
 4455              	.LASF55:
 4456 0232 705F7469 		.ascii	"p_time\000"
 4456      6D6500
 4457              	.LASF107:
 4458 0239 77747365 		.ascii	"wtsemp\000"
 4458      6D7000
 4459              	.LASF82:
 4460 0240 76745F64 		.ascii	"vt_delta\000"
 4460      656C7461 
 4460      00
 4461              	.LASF143:
 4462 0249 45455F50 		.ascii	"EE_PageTransfer\000"
 4462      61676554 
 4462      72616E73 
 4462      66657200 
 4463              	.LASF57:
 4464 0259 705F6D73 		.ascii	"p_msgqueue\000"
 4464      67717565 
 4464      756500
 4465              	.LASF70:
 4466 0264 63685F72 		.ascii	"ch_ready_list\000"
 4466      65616479 
 4466      5F6C6973 
 4466      7400
 4467              	.LASF112:
 4468 0272 735F636E 		.ascii	"s_cnt\000"
 4468      7400
 4469              	.LASF6:
 4470 0278 73686F72 		.ascii	"short unsigned int\000"
 4470      7420756E 
 4470      7369676E 
 4470      65642069 
 4470      6E7400
 4471              	.LASF65:
 4472 028b 63685F74 		.ascii	"ch_thread\000"
 4472      68726561 
 4472      6400
 4473              	.LASF39:
 4474 0295 6D73675F 		.ascii	"msg_t\000"
 4474      7400
 4475              	.LASF123:
 4476 029b 45455F46 		.ascii	"EE_FindValidPage\000"
 4476      696E6456 
 4476      616C6964 
 4476      50616765 
 4476      00
 4477              	.LASF145:
 4478 02ac 4F6C6450 		.ascii	"OldPageId\000"
 4478      61676549 
 4478      6400
 4479              	.LASF91:
 4480 02b6 63685F73 		.ascii	"ch_system_t\000"
 4480      79737465 
 4480      6D5F7400 
 4481              	.LASF135:
 4482 02c2 50616765 		.ascii	"PageEndAddress\000"
ARM GAS  C:\Users\IDONNO~1\AppData\Local\Temp\cc8Y9qO6.s 			page 82


 4482      456E6441 
 4482      64647265 
 4482      737300
 4483              	.LASF140:
 4484 02d1 45455F49 		.ascii	"EE_Init\000"
 4484      6E697400 
 4485              	.LASF34:
 4486 02d9 746D6F64 		.ascii	"tmode_t\000"
 4486      655F7400 
 4487              	.LASF131:
 4488 02e1 56697274 		.ascii	"VirtAddress\000"
 4488      41646472 
 4488      65737300 
 4489              	.LASF134:
 4490 02ed 41646472 		.ascii	"Address\000"
 4490      65737300 
 4491              	.LASF40:
 4492 02f5 6576656E 		.ascii	"eventmask_t\000"
 4492      746D6173 
 4492      6B5F7400 
 4493              	.LASF7:
 4494 0301 5F5F696E 		.ascii	"__int32_t\000"
 4494      7433325F 
 4494      7400
 4495              	.LASF137:
 4496 030b 52656164 		.ascii	"ReadStatus\000"
 4496      53746174 
 4496      757300
 4497              	.LASF98:
 4498 0316 73746B61 		.ascii	"stkalign_t\000"
 4498      6C69676E 
 4498      5F7400
 4499              	.LASF64:
 4500 0321 74687265 		.ascii	"threads_list_t\000"
 4500      6164735F 
 4500      6C697374 
 4500      5F7400
 4501              	.LASF153:
 4502 0330 666C6173 		.ascii	"flash_helper_get_sector_address\000"
 4502      685F6865 
 4502      6C706572 
 4502      5F676574 
 4502      5F736563 
 4503              	.LASF56:
 4504 0350 705F7761 		.ascii	"p_waiting\000"
 4504      6974696E 
 4504      6700
 4505              	.LASF144:
 4506 035a 4E657750 		.ascii	"NewPageAddress\000"
 4506      61676541 
 4506      64647265 
 4506      737300
 4507              	.LASF21:
 4508 0369 73697A65 		.ascii	"sizetype\000"
 4508      74797065 
 4508      00
 4509              	.LASF63:
ARM GAS  C:\Users\IDONNO~1\AppData\Local\Temp\cc8Y9qO6.s 			page 83


 4510 0372 74687265 		.ascii	"thread_reference_t\000"
 4510      61645F72 
 4510      65666572 
 4510      656E6365 
 4510      5F7400
 4511              	.LASF86:
 4512 0385 63685F76 		.ascii	"ch_virtual_timers_list\000"
 4512      69727475 
 4512      616C5F74 
 4512      696D6572 
 4512      735F6C69 
 4513              	.LASF138:
 4514 039c 50616765 		.ascii	"PageStartAddress\000"
 4514      53746172 
 4514      74416464 
 4514      72657373 
 4514      00
 4515              	.LASF49:
 4516 03ad 705F6F6C 		.ascii	"p_older\000"
 4516      64657200 
 4517              	.LASF73:
 4518 03b5 725F6374 		.ascii	"r_ctx\000"
 4518      7800
 4519              	.LASF102:
 4520 03bb 746D5F63 		.ascii	"tm_calibration_t\000"
 4520      616C6962 
 4520      72617469 
 4520      6F6E5F74 
 4520      00
 4521              	.LASF116:
 4522 03cc 6D5F6E65 		.ascii	"m_next\000"
 4522      787400
 4523              	.LASF76:
 4524 03d3 725F6375 		.ascii	"r_current\000"
 4524      7272656E 
 4524      7400
 4525              	.LASF75:
 4526 03dd 725F6F6C 		.ascii	"r_older\000"
 4526      64657200 
 4527              	.LASF28:
 4528 03e5 464C4153 		.ascii	"FLASH_ERROR_PROGRAM\000"
 4528      485F4552 
 4528      524F525F 
 4528      50524F47 
 4528      52414D00 
 4529              	.LASF12:
 4530 03f9 5F5F7569 		.ascii	"__uint64_t\000"
 4530      6E743634 
 4530      5F7400
 4531              	.LASF119:
 4532 0404 666C6F61 		.ascii	"float\000"
 4532      7400
 4533              	.LASF36:
 4534 040a 74726566 		.ascii	"trefs_t\000"
 4534      735F7400 
 4535              	.LASF121:
 4536 0412 50616765 		.ascii	"PageStatus0\000"
ARM GAS  C:\Users\IDONNO~1\AppData\Local\Temp\cc8Y9qO6.s 			page 84


 4536      53746174 
 4536      75733000 
 4537              	.LASF122:
 4538 041e 50616765 		.ascii	"PageStatus1\000"
 4538      53746174 
 4538      75733100 
 4539              	.LASF78:
 4540 042a 76697274 		.ascii	"virtual_timer_t\000"
 4540      75616C5F 
 4540      74696D65 
 4540      725F7400 
 4541              	.LASF45:
 4542 043a 705F7072 		.ascii	"p_prev\000"
 4542      657600
 4543              	.LASF38:
 4544 0441 74707269 		.ascii	"tprio_t\000"
 4544      6F5F7400 
 4545              	.LASF130:
 4546 0449 61646472 		.ascii	"addr\000"
 4546      00
 4547              	.LASF89:
 4548 044e 63685F73 		.ascii	"ch_system_debug\000"
 4548      79737465 
 4548      6D5F6465 
 4548      62756700 
 4549              	.LASF120:
 4550 045e 5F426F6F 		.ascii	"_Bool\000"
 4550      6C00
 4551              	.LASF18:
 4552 0464 696E7433 		.ascii	"int32_t\000"
 4552      325F7400 
 4553              	.LASF1:
 4554 046c 756E7369 		.ascii	"unsigned char\000"
 4554      676E6564 
 4554      20636861 
 4554      7200
 4555              	.LASF136:
 4556 047a 41646472 		.ascii	"AddressValue\000"
 4556      65737356 
 4556      616C7565 
 4556      00
 4557              	.LASF127:
 4558 0487 4F706572 		.ascii	"Operation\000"
 4558      6174696F 
 4558      6E00
 4559              	.LASF60:
 4560 0491 705F6D74 		.ascii	"p_mtxlist\000"
 4560      786C6973 
 4560      7400
 4561              	.LASF4:
 4562 049b 73686F72 		.ascii	"short int\000"
 4562      7420696E 
 4562      7400
 4563              	.LASF51:
 4564 04a5 705F7374 		.ascii	"p_state\000"
 4564      61746500 
 4565              	.LASF152:
ARM GAS  C:\Users\IDONNO~1\AppData\Local\Temp\cc8Y9qO6.s 			page 85


 4566 04ad 464C4153 		.ascii	"FLASH_EraseSector\000"
 4566      485F4572 
 4566      61736553 
 4566      6563746F 
 4566      7200
 4567              	.LASF54:
 4568 04bf 705F7072 		.ascii	"p_preempt\000"
 4568      65656D70 
 4568      7400
 4569              	.LASF72:
 4570 04c9 725F7072 		.ascii	"r_prio\000"
 4570      696F00
 4571              	.LASF109:
 4572 04d0 65776D61 		.ascii	"ewmask\000"
 4572      736B00
 4573              	.LASF44:
 4574 04d7 705F6E65 		.ascii	"p_next\000"
 4574      787400
 4575              	.LASF52:
 4576 04de 705F666C 		.ascii	"p_flags\000"
 4576      61677300 
 4577              	.LASF142:
 4578 04e6 45657072 		.ascii	"EepromStatus\000"
 4578      6F6D5374 
 4578      61747573 
 4578      00
 4579              	.LASF79:
 4580 04f3 63685F76 		.ascii	"ch_virtual_timer\000"
 4580      69727475 
 4580      616C5F74 
 4580      696D6572 
 4580      00
 4581              	.LASF110:
 4582 0504 63685F73 		.ascii	"ch_semaphore\000"
 4582      656D6170 
 4582      686F7265 
 4582      00
 4583              	.LASF59:
 4584 0511 705F6570 		.ascii	"p_epending\000"
 4584      656E6469 
 4584      6E6700
 4585              	.LASF26:
 4586 051c 464C4153 		.ascii	"FLASH_ERROR_PGA\000"
 4586      485F4552 
 4586      524F525F 
 4586      50474100 
 4587              	.LASF108:
 4588 052c 77746D74 		.ascii	"wtmtxp\000"
 4588      787000
 4589              	.LASF71:
 4590 0533 725F7175 		.ascii	"r_queue\000"
 4590      65756500 
 4591              	.LASF66:
 4592 053b 63685F74 		.ascii	"ch_threads_list\000"
 4592      68726561 
 4592      64735F6C 
 4592      69737400 
ARM GAS  C:\Users\IDONNO~1\AppData\Local\Temp\cc8Y9qO6.s 			page 86


 4593              	.LASF10:
 4594 054b 6C6F6E67 		.ascii	"long unsigned int\000"
 4594      20756E73 
 4594      69676E65 
 4594      6420696E 
 4594      7400
 4595              	.LASF133:
 4596 055d 56616C69 		.ascii	"ValidPage\000"
 4596      64506167 
 4596      6500
 4597              	.LASF117:
 4598 0567 63686172 		.ascii	"char\000"
 4598      00
 4599              	.LASF25:
 4600 056c 464C4153 		.ascii	"FLASH_ERROR_PGP\000"
 4600      485F4552 
 4600      524F525F 
 4600      50475000 
 4601              	.LASF129:
 4602 057c 566F6C74 		.ascii	"VoltageRange\000"
 4602      61676552 
 4602      616E6765 
 4602      00
 4603              	.LASF24:
 4604 0589 464C4153 		.ascii	"FLASH_ERROR_PGS\000"
 4604      485F4552 
 4604      524F525F 
 4604      50475300 
 4605              	.LASF5:
 4606 0599 5F5F7569 		.ascii	"__uint16_t\000"
 4606      6E743136 
 4606      5F7400
 4607              	.LASF43:
 4608 05a4 74687265 		.ascii	"thread_t\000"
 4608      61645F74 
 4608      00
 4609              	.LASF154:
 4610 05ad 474E5520 		.ascii	"GNU C99 5.2.1 20151202 (release) [ARM/embedded-5-br"
 4610      43393920 
 4610      352E322E 
 4610      31203230 
 4610      31353132 
 4611 05e0 616E6368 		.ascii	"anch revision 231848] -mcpu=cortex-m4 -mfloat-abi=h"
 4611      20726576 
 4611      6973696F 
 4611      6E203233 
 4611      31383438 
 4612 0613 61726420 		.ascii	"ard -mfpu=fpv4-sp-d16 -mno-thumb-interwork -mthumb "
 4612      2D6D6670 
 4612      753D6670 
 4612      76342D73 
 4612      702D6431 
 4613 0646 2D676764 		.ascii	"-ggdb -O2 -std=gnu99 -fomit-frame-pointer -falign-f"
 4613      62202D4F 
 4613      32202D73 
 4613      74643D67 
 4613      6E753939 
ARM GAS  C:\Users\IDONNO~1\AppData\Local\Temp\cc8Y9qO6.s 			page 87


 4614 0679 756E6374 		.ascii	"unctions=16 -ffunction-sections -fdata-sections -fn"
 4614      696F6E73 
 4614      3D313620 
 4614      2D666675 
 4614      6E637469 
 4615 06ac 6F2D636F 		.ascii	"o-common -fsingle-precision-constant\000"
 4615      6D6D6F6E 
 4615      202D6673 
 4615      696E676C 
 4615      652D7072 
 4616              	.LASF42:
 4617 06d1 73797374 		.ascii	"systime_t\000"
 4617      696D655F 
 4617      7400
 4618              	.LASF61:
 4619 06db 705F7265 		.ascii	"p_realprio\000"
 4619      616C7072 
 4619      696F00
 4620              	.LASF77:
 4621 06e6 76746675 		.ascii	"vtfunc_t\000"
 4621      6E635F74 
 4621      00
 4622              	.LASF9:
 4623 06ef 5F5F7569 		.ascii	"__uint32_t\000"
 4623      6E743332 
 4623      5F7400
 4624              	.LASF90:
 4625 06fa 70616E69 		.ascii	"panic_msg\000"
 4625      635F6D73 
 4625      6700
 4626              	.LASF101:
 4627 0704 6F666673 		.ascii	"offset\000"
 4627      657400
 4628              	.LASF99:
 4629 070b 636F6E74 		.ascii	"context\000"
 4629      65787400 
 4630              	.LASF150:
 4631 0713 56697274 		.ascii	"VirtAddVarTab\000"
 4631      41646456 
 4631      61725461 
 4631      6200
 4632              	.LASF58:
 4633 0721 705F6D73 		.ascii	"p_msg\000"
 4633      6700
 4634              	.LASF33:
 4635 0727 7274636E 		.ascii	"rtcnt_t\000"
 4635      745F7400 
 4636              	.LASF151:
 4637 072f 464C4153 		.ascii	"FLASH_ProgramHalfWord\000"
 4637      485F5072 
 4637      6F677261 
 4637      6D48616C 
 4637      66576F72 
 4638              	.LASF139:
 4639 0745 45455F52 		.ascii	"EE_ReadVariable\000"
 4639      65616456 
 4639      61726961 
ARM GAS  C:\Users\IDONNO~1\AppData\Local\Temp\cc8Y9qO6.s 			page 88


 4639      626C6500 
 4640              	.LASF84:
 4641 0755 76745F70 		.ascii	"vt_par\000"
 4641      617200
 4642              	.LASF23:
 4643 075c 464C4153 		.ascii	"FLASH_ERROR_RD\000"
 4643      485F4552 
 4643      524F525F 
 4643      524400
 4644              	.LASF19:
 4645 076b 75696E74 		.ascii	"uint32_t\000"
 4645      33325F74 
 4645      00
 4646              	.LASF67:
 4647 0774 74687265 		.ascii	"threads_queue_t\000"
 4647      6164735F 
 4647      71756575 
 4647      655F7400 
 4648              	.LASF113:
 4649 0784 63685F6D 		.ascii	"ch_mutex\000"
 4649      75746578 
 4649      00
 4650              	.LASF53:
 4651 078d 705F7265 		.ascii	"p_refs\000"
 4651      667300
 4652              	.LASF149:
 4653 0794 44617461 		.ascii	"DataVar\000"
 4653      56617200 
 4654              	.LASF93:
 4655 079c 726C6973 		.ascii	"rlist\000"
 4655      7400
 4656              	.LASF15:
 4657 07a2 75696E74 		.ascii	"uint8_t\000"
 4657      385F7400 
 4658              	.LASF132:
 4659 07aa 44617461 		.ascii	"Data\000"
 4659      00
 4660              	.LASF157:
 4661 07af 45455F56 		.ascii	"EE_VerifyPageFullWriteVariable\000"
 4661      65726966 
 4661      79506167 
 4661      6546756C 
 4661      6C577269 
 4662              	.LASF105:
 4663 07ce 77746F62 		.ascii	"wtobjp\000"
 4663      6A7000
 4664              	.LASF50:
 4665 07d5 705F6E61 		.ascii	"p_name\000"
 4665      6D6500
 4666              	.LASF87:
 4667 07dc 76745F73 		.ascii	"vt_systime\000"
 4667      79737469 
 4667      6D6500
 4668              	.LASF27:
 4669 07e7 464C4153 		.ascii	"FLASH_ERROR_WRP\000"
 4669      485F4552 
 4669      524F525F 
ARM GAS  C:\Users\IDONNO~1\AppData\Local\Temp\cc8Y9qO6.s 			page 89


 4669      57525000 
 4670              	.LASF147:
 4671 07f7 53746174 		.ascii	"Status\000"
 4671      757300
 4672              	.LASF30:
 4673 07fe 464C4153 		.ascii	"FLASH_COMPLETE\000"
 4673      485F434F 
 4673      4D504C45 
 4673      544500
 4674              	.LASF16:
 4675 080d 696E7431 		.ascii	"int16_t\000"
 4675      365F7400 
 4676              	.LASF115:
 4677 0815 6D5F6F77 		.ascii	"m_owner\000"
 4677      6E657200 
 4678              	.LASF47:
 4679 081d 705F6374 		.ascii	"p_ctx\000"
 4679      7800
 4680              	.LASF83:
 4681 0823 76745F66 		.ascii	"vt_func\000"
 4681      756E6300 
 4682              		.ident	"GCC: (GNU Tools for ARM Embedded Processors) 5.2.1 20151202 (release) [ARM/embedded-5-bran
ARM GAS  C:\Users\IDONNO~1\AppData\Local\Temp\cc8Y9qO6.s 			page 90


DEFINED SYMBOLS
                            *ABS*:00000000 eeprom.c
C:\Users\IDONNO~1\AppData\Local\Temp\cc8Y9qO6.s:22     .text.EE_VerifyPageFullWriteVariable:00000000 $t
C:\Users\IDONNO~1\AppData\Local\Temp\cc8Y9qO6.s:27     .text.EE_VerifyPageFullWriteVariable:00000000 EE_VerifyPageFullWriteVariable
C:\Users\IDONNO~1\AppData\Local\Temp\cc8Y9qO6.s:149    .text.EE_VerifyPageFullWriteVariable:00000070 $d
C:\Users\IDONNO~1\AppData\Local\Temp\cc8Y9qO6.s:156    .text.EE_EraseSectorIfNotEmpty.constprop.1:00000000 $t
C:\Users\IDONNO~1\AppData\Local\Temp\cc8Y9qO6.s:161    .text.EE_EraseSectorIfNotEmpty.constprop.1:00000000 EE_EraseSectorIfNotEmpty.constprop.1
C:\Users\IDONNO~1\AppData\Local\Temp\cc8Y9qO6.s:215    .text.EE_Format:00000000 $t
C:\Users\IDONNO~1\AppData\Local\Temp\cc8Y9qO6.s:220    .text.EE_Format:00000000 EE_Format
C:\Users\IDONNO~1\AppData\Local\Temp\cc8Y9qO6.s:266    .text.EE_Format:00000028 $d
C:\Users\IDONNO~1\AppData\Local\Temp\cc8Y9qO6.s:272    .text.EE_ReadVariable:00000000 $t
C:\Users\IDONNO~1\AppData\Local\Temp\cc8Y9qO6.s:278    .text.EE_ReadVariable:00000000 EE_ReadVariable
C:\Users\IDONNO~1\AppData\Local\Temp\cc8Y9qO6.s:393    .text.EE_ReadVariable:00000058 $d
C:\Users\IDONNO~1\AppData\Local\Temp\cc8Y9qO6.s:403    .text.EE_Init:00000000 $t
C:\Users\IDONNO~1\AppData\Local\Temp\cc8Y9qO6.s:409    .text.EE_Init:00000000 EE_Init
C:\Users\IDONNO~1\AppData\Local\Temp\cc8Y9qO6.s:676    .text.EE_Init:00000138 $d
C:\Users\IDONNO~1\AppData\Local\Temp\cc8Y9qO6.s:686    .text.EE_WriteVariable:00000000 $t
C:\Users\IDONNO~1\AppData\Local\Temp\cc8Y9qO6.s:692    .text.EE_WriteVariable:00000000 EE_WriteVariable
C:\Users\IDONNO~1\AppData\Local\Temp\cc8Y9qO6.s:862    .text.EE_WriteVariable:000000ac $d
C:\Users\IDONNO~1\AppData\Local\Temp\cc8Y9qO6.s:877    .bss.DataVar:00000000 DataVar
C:\Users\IDONNO~1\AppData\Local\Temp\cc8Y9qO6.s:873    .bss.DataVar:00000000 $d
                     .debug_frame:00000010 $d

UNDEFINED SYMBOLS
FLASH_ProgramHalfWord
flash_helper_get_sector_address
FLASH_EraseSector
VirtAddVarTab
