ARM GAS  C:\Users\IDONNO~1.SON\AppData\Local\Temp\ccA7aZx0.s 			page 1


   1              		.syntax unified
   2              		.cpu cortex-m4
   3              		.eabi_attribute 27, 1
   4              		.eabi_attribute 28, 1
   5              		.fpu fpv4-sp-d16
   6              		.eabi_attribute 20, 1
   7              		.eabi_attribute 21, 1
   8              		.eabi_attribute 23, 3
   9              		.eabi_attribute 24, 1
  10              		.eabi_attribute 25, 1
  11              		.eabi_attribute 26, 1
  12              		.eabi_attribute 30, 2
  13              		.eabi_attribute 34, 1
  14              		.eabi_attribute 18, 4
  15              		.thumb
  16              		.syntax unified
  17              		.file	"gpt_lld.c"
  18              		.text
  19              	.Ltext0:
  20              		.cfi_sections	.debug_frame
  21              		.section	.text.Vector108,"ax",%progbits
  22              		.align	2
  23              		.p2align 4,,15
  24              		.global	Vector108
  25              		.thumb
  26              		.thumb_func
  27              		.type	Vector108, %function
  28              	Vector108:
  29              	.LFB257:
  30              		.file 1 "lib/ChibiOS_3.0.2/os/hal/ports/STM32/LLD/TIMv1/gpt_lld.c"
  31              		.loc 1 245 0
  32              		.cfi_startproc
  33              		@ args = 0, pretend = 0, frame = 0
  34              		@ frame_needed = 0, uses_anonymous_args = 0
  35              	.LVL0:
  36 0000 08B5     		push	{r3, lr}
  37              		.cfi_def_cfa_offset 8
  38              		.cfi_offset 3, -8
  39              		.cfi_offset 14, -4
  40              	.LBB8:
  41              	.LBB9:
  42              		.loc 1 148 0
  43 0002 0B4B     		ldr	r3, .L5
  44              		.loc 1 149 0
  45 0004 1878     		ldrb	r0, [r3]	@ zero_extendqisi2
  46              		.loc 1 148 0
  47 0006 DA68     		ldr	r2, [r3, #12]
  48 0008 0021     		movs	r1, #0
  49              		.loc 1 149 0
  50 000a 0428     		cmp	r0, #4
  51              		.loc 1 148 0
  52 000c 1161     		str	r1, [r2, #16]
  53              		.loc 1 149 0
  54 000e 07D1     		bne	.L2
  55              		.loc 1 150 0
  56 0010 0220     		movs	r0, #2
  57 0012 1870     		strb	r0, [r3]
ARM GAS  C:\Users\IDONNO~1.SON\AppData\Local\Temp\ccA7aZx0.s 			page 2


  58              	.LVL1:
  59              	.LBB10:
  60              	.LBB11:
  61              		.loc 1 733 0
  62 0014 1160     		str	r1, [r2]
  63              		.loc 1 734 0
  64 0016 1161     		str	r1, [r2, #16]
  65              		.loc 1 737 0
  66 0018 D168     		ldr	r1, [r2, #12]
  67 001a 21F0FF01 		bic	r1, r1, #255
  68 001e D160     		str	r1, [r2, #12]
  69              	.LVL2:
  70              	.L2:
  71              	.LBE11:
  72              	.LBE10:
  73              		.loc 1 153 0
  74 0020 5B68     		ldr	r3, [r3, #4]
  75 0022 0348     		ldr	r0, .L5
  76 0024 5B68     		ldr	r3, [r3, #4]
  77 0026 9847     		blx	r3
  78              	.LVL3:
  79              	.LBE9:
  80              	.LBE8:
  81              		.loc 1 252 0
  82 0028 BDE80840 		pop	{r3, lr}
  83              		.cfi_restore 14
  84              		.cfi_restore 3
  85              		.cfi_def_cfa_offset 0
  86              		.loc 1 251 0
  87 002c FFF7FEBF 		b	_port_irq_epilogue
  88              	.LVL4:
  89              	.L6:
  90              		.align	2
  91              	.L5:
  92 0030 00000000 		.word	.LANCHOR0
  93              		.cfi_endproc
  94              	.LFE257:
  95              		.size	Vector108, .-Vector108
  96              		.section	.text.gpt_lld_init,"ax",%progbits
  97              		.align	2
  98              		.p2align 4,,15
  99              		.global	gpt_lld_init
 100              		.thumb
 101              		.thumb_func
 102              		.type	gpt_lld_init, %function
 103              	gpt_lld_init:
 104              	.LFB258:
 105              		.loc 1 397 0
 106              		.cfi_startproc
 107              		@ args = 0, pretend = 0, frame = 0
 108              		@ frame_needed = 0, uses_anonymous_args = 0
 109              		@ link register save eliminated.
 110              		.loc 1 425 0
 111 0000 0248     		ldr	r0, .L8
 112 0002 034B     		ldr	r3, .L8+4
 113 0004 C360     		str	r3, [r0, #12]
 114              		.loc 1 426 0
ARM GAS  C:\Users\IDONNO~1.SON\AppData\Local\Temp\ccA7aZx0.s 			page 3


 115 0006 FFF7FEBF 		b	gptObjectInit
 116              	.LVL5:
 117              	.L9:
 118 000a 00BF     		.align	2
 119              	.L8:
 120 000c 00000000 		.word	.LANCHOR0
 121 0010 000C0040 		.word	1073744896
 122              		.cfi_endproc
 123              	.LFE258:
 124              		.size	gpt_lld_init, .-gpt_lld_init
 125              		.section	.text.gpt_lld_start,"ax",%progbits
 126              		.align	2
 127              		.p2align 4,,15
 128              		.global	gpt_lld_start
 129              		.thumb
 130              		.thumb_func
 131              		.type	gpt_lld_start, %function
 132              	gpt_lld_start:
 133              	.LFB259:
 134              		.loc 1 479 0
 135              		.cfi_startproc
 136              		@ args = 0, pretend = 0, frame = 0
 137              		@ frame_needed = 0, uses_anonymous_args = 0
 138              	.LVL6:
 139 0000 38B5     		push	{r3, r4, r5, lr}
 140              		.cfi_def_cfa_offset 16
 141              		.cfi_offset 3, -16
 142              		.cfi_offset 4, -12
 143              		.cfi_offset 5, -8
 144              		.cfi_offset 14, -4
 145              		.loc 1 482 0
 146 0002 0378     		ldrb	r3, [r0]	@ zero_extendqisi2
 147 0004 012B     		cmp	r3, #1
 148              		.loc 1 479 0
 149 0006 0446     		mov	r4, r0
 150              		.loc 1 482 0
 151 0008 12D0     		beq	.L13
 152              	.LVL7:
 153              	.L11:
 154              		.loc 1 599 0
 155 000a 6068     		ldr	r0, [r4, #4]
 156 000c A368     		ldr	r3, [r4, #8]
 157              		.loc 1 608 0
 158 000e C168     		ldr	r1, [r0, #12]
 159              		.loc 1 599 0
 160 0010 0568     		ldr	r5, [r0]
 161              		.loc 1 604 0
 162 0012 E268     		ldr	r2, [r4, #12]
 163              		.loc 1 599 0
 164 0014 B3FBF5F3 		udiv	r3, r3, r5
 165 0018 013B     		subs	r3, r3, #1
 166              		.loc 1 605 0
 167 001a 8468     		ldr	r4, [r0, #8]
 168              	.LVL8:
 169              		.loc 1 599 0
 170 001c 9BB2     		uxth	r3, r3
 171              	.LVL9:
ARM GAS  C:\Users\IDONNO~1.SON\AppData\Local\Temp\ccA7aZx0.s 			page 4


 172              		.loc 1 604 0
 173 001e 0020     		movs	r0, #0
 174              		.loc 1 608 0
 175 0020 21F0FF01 		bic	r1, r1, #255
 176              		.loc 1 604 0
 177 0024 1060     		str	r0, [r2]
 178              		.loc 1 605 0
 179 0026 5460     		str	r4, [r2, #4]
 180              		.loc 1 606 0
 181 0028 9362     		str	r3, [r2, #40]
 182              		.loc 1 607 0
 183 002a 1061     		str	r0, [r2, #16]
 184              		.loc 1 608 0
 185 002c D160     		str	r1, [r2, #12]
 186 002e 38BD     		pop	{r3, r4, r5, pc}
 187              	.LVL10:
 188              	.L13:
 189              		.loc 1 522 0
 190 0030 0A4B     		ldr	r3, .L14
 191 0032 9842     		cmp	r0, r3
 192 0034 E9D1     		bne	.L11
 193              		.loc 1 523 0
 194 0036 0A4B     		ldr	r3, .L14+4
 195 0038 1A6C     		ldr	r2, [r3, #64]
 196 003a 42F00802 		orr	r2, r2, #8
 197 003e 1A64     		str	r2, [r3, #64]
 198              		.loc 1 524 0
 199 0040 1A6A     		ldr	r2, [r3, #32]
 200 0042 0020     		movs	r0, #0
 201              	.LVL11:
 202 0044 42F00802 		orr	r2, r2, #8
 203 0048 1A62     		str	r2, [r3, #32]
 204              		.loc 1 525 0
 205 004a 0721     		movs	r1, #7
 206              		.loc 1 524 0
 207 004c 1862     		str	r0, [r3, #32]
 208              		.loc 1 525 0
 209 004e 3220     		movs	r0, #50
 210 0050 FFF7FEFF 		bl	nvicEnableVector
 211              	.LVL12:
 212              		.loc 1 526 0
 213 0054 034B     		ldr	r3, .L14+8
 214 0056 A360     		str	r3, [r4, #8]
 215 0058 D7E7     		b	.L11
 216              	.L15:
 217 005a 00BF     		.align	2
 218              	.L14:
 219 005c 00000000 		.word	.LANCHOR0
 220 0060 00380240 		.word	1073887232
 221 0064 00BD0105 		.word	84000000
 222              		.cfi_endproc
 223              	.LFE259:
 224              		.size	gpt_lld_start, .-gpt_lld_start
 225              		.section	.text.gpt_lld_stop,"ax",%progbits
 226              		.align	2
 227              		.p2align 4,,15
 228              		.global	gpt_lld_stop
ARM GAS  C:\Users\IDONNO~1.SON\AppData\Local\Temp\ccA7aZx0.s 			page 5


 229              		.thumb
 230              		.thumb_func
 231              		.type	gpt_lld_stop, %function
 232              	gpt_lld_stop:
 233              	.LFB260:
 234              		.loc 1 619 0
 235              		.cfi_startproc
 236              		@ args = 0, pretend = 0, frame = 0
 237              		@ frame_needed = 0, uses_anonymous_args = 0
 238              	.LVL13:
 239 0000 08B5     		push	{r3, lr}
 240              		.cfi_def_cfa_offset 8
 241              		.cfi_offset 3, -8
 242              		.cfi_offset 14, -4
 243              		.loc 1 621 0
 244 0002 0378     		ldrb	r3, [r0]	@ zero_extendqisi2
 245 0004 022B     		cmp	r3, #2
 246 0006 00D0     		beq	.L21
 247              	.LVL14:
 248              	.L16:
 249 0008 08BD     		pop	{r3, pc}
 250              	.LVL15:
 251              	.L21:
 252              		.loc 1 651 0
 253 000a 0849     		ldr	r1, .L22
 254              		.loc 1 622 0
 255 000c C368     		ldr	r3, [r0, #12]
 256 000e 0022     		movs	r2, #0
 257              		.loc 1 651 0
 258 0010 8842     		cmp	r0, r1
 259              		.loc 1 622 0
 260 0012 1A60     		str	r2, [r3]
 261              		.loc 1 623 0
 262 0014 DA60     		str	r2, [r3, #12]
 263              		.loc 1 624 0
 264 0016 1A61     		str	r2, [r3, #16]
 265              		.loc 1 651 0
 266 0018 F6D1     		bne	.L16
 267              		.loc 1 652 0
 268 001a 3220     		movs	r0, #50
 269              	.LVL16:
 270 001c FFF7FEFF 		bl	nvicDisableVector
 271              	.LVL17:
 272              		.loc 1 653 0
 273 0020 034A     		ldr	r2, .L22+4
 274 0022 136C     		ldr	r3, [r2, #64]
 275 0024 23F00803 		bic	r3, r3, #8
 276 0028 1364     		str	r3, [r2, #64]
 277              		.loc 1 699 0
 278 002a EDE7     		b	.L16
 279              	.L23:
 280              		.align	2
 281              	.L22:
 282 002c 00000000 		.word	.LANCHOR0
 283 0030 00380240 		.word	1073887232
 284              		.cfi_endproc
 285              	.LFE260:
ARM GAS  C:\Users\IDONNO~1.SON\AppData\Local\Temp\ccA7aZx0.s 			page 6


 286              		.size	gpt_lld_stop, .-gpt_lld_stop
 287              		.section	.text.gpt_lld_start_timer,"ax",%progbits
 288              		.align	2
 289              		.p2align 4,,15
 290              		.global	gpt_lld_start_timer
 291              		.thumb
 292              		.thumb_func
 293              		.type	gpt_lld_start_timer, %function
 294              	gpt_lld_start_timer:
 295              	.LFB261:
 296              		.loc 1 709 0
 297              		.cfi_startproc
 298              		@ args = 0, pretend = 0, frame = 0
 299              		@ frame_needed = 0, uses_anonymous_args = 0
 300              		@ link register save eliminated.
 301              	.LVL18:
 302              		.loc 1 719 0
 303 0000 4268     		ldr	r2, [r0, #4]
 304              		.loc 1 711 0
 305 0002 C368     		ldr	r3, [r0, #12]
 306              		.loc 1 719 0
 307 0004 5068     		ldr	r0, [r2, #4]
 308              	.LVL19:
 309              		.loc 1 711 0
 310 0006 0139     		subs	r1, r1, #1
 311              	.LVL20:
 312 0008 D962     		str	r1, [r3, #44]
 313              		.loc 1 713 0
 314 000a 0022     		movs	r2, #0
 315              		.loc 1 712 0
 316 000c 0121     		movs	r1, #1
 317              	.LVL21:
 318 000e 5961     		str	r1, [r3, #20]
 319              	.LVL22:
 320              		.loc 1 713 0
 321 0010 5A62     		str	r2, [r3, #36]
 322              		.loc 1 718 0
 323 0012 1A61     		str	r2, [r3, #16]
 324              		.loc 1 719 0
 325 0014 10B1     		cbz	r0, .L25
 326              		.loc 1 720 0
 327 0016 DA68     		ldr	r2, [r3, #12]
 328 0018 0A43     		orrs	r2, r2, r1
 329 001a DA60     		str	r2, [r3, #12]
 330              	.L25:
 331              		.loc 1 721 0
 332 001c 0522     		movs	r2, #5
 333 001e 1A60     		str	r2, [r3]
 334 0020 7047     		bx	lr
 335              		.cfi_endproc
 336              	.LFE261:
 337              		.size	gpt_lld_start_timer, .-gpt_lld_start_timer
 338 0022 00BF     		.section	.text.gpt_lld_stop_timer,"ax",%progbits
 339              		.align	2
 340              		.p2align 4,,15
 341              		.global	gpt_lld_stop_timer
 342              		.thumb
ARM GAS  C:\Users\IDONNO~1.SON\AppData\Local\Temp\ccA7aZx0.s 			page 7


 343              		.thumb_func
 344              		.type	gpt_lld_stop_timer, %function
 345              	gpt_lld_stop_timer:
 346              	.LFB262:
 347              		.loc 1 731 0
 348              		.cfi_startproc
 349              		@ args = 0, pretend = 0, frame = 0
 350              		@ frame_needed = 0, uses_anonymous_args = 0
 351              		@ link register save eliminated.
 352              	.LVL23:
 353              		.loc 1 733 0
 354 0000 C368     		ldr	r3, [r0, #12]
 355 0002 0022     		movs	r2, #0
 356 0004 1A60     		str	r2, [r3]
 357              		.loc 1 734 0
 358 0006 1A61     		str	r2, [r3, #16]
 359              		.loc 1 737 0
 360 0008 DA68     		ldr	r2, [r3, #12]
 361 000a 22F0FF02 		bic	r2, r2, #255
 362 000e DA60     		str	r2, [r3, #12]
 363 0010 7047     		bx	lr
 364              		.cfi_endproc
 365              	.LFE262:
 366              		.size	gpt_lld_stop_timer, .-gpt_lld_stop_timer
 367 0012 00BF     		.section	.text.gpt_lld_polled_delay,"ax",%progbits
 368              		.align	2
 369              		.p2align 4,,15
 370              		.global	gpt_lld_polled_delay
 371              		.thumb
 372              		.thumb_func
 373              		.type	gpt_lld_polled_delay, %function
 374              	gpt_lld_polled_delay:
 375              	.LFB263:
 376              		.loc 1 751 0
 377              		.cfi_startproc
 378              		@ args = 0, pretend = 0, frame = 0
 379              		@ frame_needed = 0, uses_anonymous_args = 0
 380              		@ link register save eliminated.
 381              	.LVL24:
 382              		.loc 1 753 0
 383 0000 C268     		ldr	r2, [r0, #12]
 384 0002 0139     		subs	r1, r1, #1
 385              	.LVL25:
 386              		.loc 1 754 0
 387 0004 0120     		movs	r0, #1
 388              	.LVL26:
 389              		.loc 1 755 0
 390 0006 0D23     		movs	r3, #13
 391              		.loc 1 753 0
 392 0008 D162     		str	r1, [r2, #44]
 393              		.loc 1 754 0
 394 000a 5061     		str	r0, [r2, #20]
 395              		.loc 1 755 0
 396 000c 1360     		str	r3, [r2]
 397              	.L31:
 398              		.loc 1 756 0 discriminator 1
 399 000e 1369     		ldr	r3, [r2, #16]
ARM GAS  C:\Users\IDONNO~1.SON\AppData\Local\Temp\ccA7aZx0.s 			page 8


 400 0010 DB07     		lsls	r3, r3, #31
 401 0012 FCD5     		bpl	.L31
 402              		.loc 1 758 0
 403 0014 0023     		movs	r3, #0
 404 0016 1361     		str	r3, [r2, #16]
 405 0018 7047     		bx	lr
 406              		.cfi_endproc
 407              	.LFE263:
 408              		.size	gpt_lld_polled_delay, .-gpt_lld_polled_delay
 409              		.global	GPTD5
 410 001a 00BF     		.section	.bss.GPTD5,"aw",%nobits
 411              		.align	2
 412              		.set	.LANCHOR0,. + 0
 413              		.type	GPTD5, %object
 414              		.size	GPTD5, 16
 415              	GPTD5:
 416 0000 00000000 		.space	16
 416      00000000 
 416      00000000 
 416      00000000 
 417              		.text
 418              	.Letext0:
 419              		.file 2 "c:\\program files (x86)\\gnu tools arm embedded\\5.4 2016q2\\lib\\gcc\\arm-none-eabi\\5.4
 420              		.file 3 "c:\\program files (x86)\\gnu tools arm embedded\\5.4 2016q2\\arm-none-eabi\\include\\mach
 421              		.file 4 "c:\\program files (x86)\\gnu tools arm embedded\\5.4 2016q2\\arm-none-eabi\\include\\sys\
 422              		.file 5 "lib/ChibiOS_3.0.2/os/rt/ports/ARMCMx/compilers/GCC/chtypes.h"
 423              		.file 6 "lib/ChibiOS_3.0.2/os/rt/include/chsystypes.h"
 424              		.file 7 "lib/ChibiOS_3.0.2/os/rt/include/chschd.h"
 425              		.file 8 "lib/ChibiOS_3.0.2/os/ext/CMSIS/ST/stm32f407xx.h"
 426              		.file 9 "lib/ChibiOS_3.0.2/os/rt/ports/ARMCMx/chcore.h"
 427              		.file 10 "lib/ChibiOS_3.0.2/os/rt/ports/ARMCMx/chcore_v7m.h"
 428              		.file 11 "lib/ChibiOS_3.0.2/os/rt/include/chtm.h"
 429              		.file 12 "lib/ChibiOS_3.0.2/os/rt/include/chsem.h"
 430              		.file 13 "lib/ChibiOS_3.0.2/os/rt/include/chmtx.h"
 431              		.file 14 "lib/ChibiOS_3.0.2/os/hal/include/gpt.h"
 432              		.file 15 "lib/ChibiOS_3.0.2/os/hal/ports/STM32/LLD/TIMv1/gpt_lld.h"
 433              		.file 16 "lib/ChibiOS_3.0.2/os/hal/ports/STM32/LLD/TIMv1/stm32_tim.h"
 434              		.file 17 "lib/ChibiOS_3.0.2/os/ext/CMSIS/include/core_cm4.h"
 435              		.file 18 "lib/ChibiOS_3.0.2/os/hal/ports/common/ARMCMx/nvic.h"
 436              		.section	.debug_info,"",%progbits
 437              	.Ldebug_info0:
 438 0000 7B0D0000 		.4byte	0xd7b
 439 0004 0400     		.2byte	0x4
 440 0006 00000000 		.4byte	.Ldebug_abbrev0
 441 000a 04       		.byte	0x4
 442 000b 01       		.uleb128 0x1
 443 000c 98000000 		.4byte	.LASF177
 444 0010 0C       		.byte	0xc
 445 0011 12000000 		.4byte	.LASF178
 446 0015 BC010000 		.4byte	.LASF179
 447 0019 00000000 		.4byte	.Ldebug_ranges0+0
 448 001d 00000000 		.4byte	0
 449 0021 00000000 		.4byte	.Ldebug_line0
 450 0025 02       		.uleb128 0x2
 451 0026 04       		.byte	0x4
 452 0027 05       		.byte	0x5
 453 0028 696E7400 		.ascii	"int\000"
ARM GAS  C:\Users\IDONNO~1.SON\AppData\Local\Temp\ccA7aZx0.s 			page 9


 454 002c 03       		.uleb128 0x3
 455 002d 4B000000 		.4byte	.LASF2
 456 0031 02       		.byte	0x2
 457 0032 D8       		.byte	0xd8
 458 0033 37000000 		.4byte	0x37
 459 0037 04       		.uleb128 0x4
 460 0038 04       		.byte	0x4
 461 0039 07       		.byte	0x7
 462 003a 8C030000 		.4byte	.LASF0
 463 003e 04       		.uleb128 0x4
 464 003f 01       		.byte	0x1
 465 0040 06       		.byte	0x6
 466 0041 72020000 		.4byte	.LASF1
 467 0045 03       		.uleb128 0x3
 468 0046 62000000 		.4byte	.LASF3
 469 004a 03       		.byte	0x3
 470 004b 1D       		.byte	0x1d
 471 004c 50000000 		.4byte	0x50
 472 0050 04       		.uleb128 0x4
 473 0051 01       		.byte	0x1
 474 0052 08       		.byte	0x8
 475 0053 30060000 		.4byte	.LASF4
 476 0057 04       		.uleb128 0x4
 477 0058 02       		.byte	0x2
 478 0059 05       		.byte	0x5
 479 005a 48060000 		.4byte	.LASF5
 480 005e 03       		.uleb128 0x3
 481 005f 1B070000 		.4byte	.LASF6
 482 0063 03       		.byte	0x3
 483 0064 2B       		.byte	0x2b
 484 0065 69000000 		.4byte	0x69
 485 0069 04       		.uleb128 0x4
 486 006a 02       		.byte	0x2
 487 006b 07       		.byte	0x7
 488 006c 19030000 		.4byte	.LASF7
 489 0070 03       		.uleb128 0x3
 490 0071 B2040000 		.4byte	.LASF8
 491 0075 03       		.byte	0x3
 492 0076 3F       		.byte	0x3f
 493 0077 7B000000 		.4byte	0x7b
 494 007b 04       		.uleb128 0x4
 495 007c 04       		.byte	0x4
 496 007d 05       		.byte	0x5
 497 007e CD020000 		.4byte	.LASF9
 498 0082 03       		.uleb128 0x3
 499 0083 73070000 		.4byte	.LASF10
 500 0087 03       		.byte	0x3
 501 0088 41       		.byte	0x41
 502 0089 8D000000 		.4byte	0x8d
 503 008d 04       		.uleb128 0x4
 504 008e 04       		.byte	0x4
 505 008f 07       		.byte	0x7
 506 0090 04070000 		.4byte	.LASF11
 507 0094 04       		.uleb128 0x4
 508 0095 08       		.byte	0x8
 509 0096 05       		.byte	0x5
 510 0097 64030000 		.4byte	.LASF12
ARM GAS  C:\Users\IDONNO~1.SON\AppData\Local\Temp\ccA7aZx0.s 			page 10


 511 009b 03       		.uleb128 0x3
 512 009c 9C050000 		.4byte	.LASF13
 513 00a0 03       		.byte	0x3
 514 00a1 5B       		.byte	0x5b
 515 00a2 A6000000 		.4byte	0xa6
 516 00a6 04       		.uleb128 0x4
 517 00a7 08       		.byte	0x8
 518 00a8 07       		.byte	0x7
 519 00a9 E0010000 		.4byte	.LASF14
 520 00ad 03       		.uleb128 0x3
 521 00ae 35080000 		.4byte	.LASF15
 522 00b2 04       		.byte	0x4
 523 00b3 18       		.byte	0x18
 524 00b4 45000000 		.4byte	0x45
 525 00b8 03       		.uleb128 0x3
 526 00b9 85040000 		.4byte	.LASF16
 527 00bd 04       		.byte	0x4
 528 00be 24       		.byte	0x24
 529 00bf 5E000000 		.4byte	0x5e
 530 00c3 03       		.uleb128 0x3
 531 00c4 28060000 		.4byte	.LASF17
 532 00c8 04       		.byte	0x4
 533 00c9 2C       		.byte	0x2c
 534 00ca 70000000 		.4byte	0x70
 535 00ce 03       		.uleb128 0x3
 536 00cf DC060000 		.4byte	.LASF18
 537 00d3 04       		.byte	0x4
 538 00d4 30       		.byte	0x30
 539 00d5 82000000 		.4byte	0x82
 540 00d9 03       		.uleb128 0x3
 541 00da 59000000 		.4byte	.LASF19
 542 00de 04       		.byte	0x4
 543 00df 3C       		.byte	0x3c
 544 00e0 9B000000 		.4byte	0x9b
 545 00e4 05       		.uleb128 0x5
 546 00e5 C3000000 		.4byte	0xc3
 547 00e9 05       		.uleb128 0x5
 548 00ea CE000000 		.4byte	0xce
 549 00ee 03       		.uleb128 0x3
 550 00ef C5070000 		.4byte	.LASF20
 551 00f3 05       		.byte	0x5
 552 00f4 45       		.byte	0x45
 553 00f5 CE000000 		.4byte	0xce
 554 00f9 03       		.uleb128 0x3
 555 00fa 58080000 		.4byte	.LASF21
 556 00fe 05       		.byte	0x5
 557 00ff 48       		.byte	0x48
 558 0100 AD000000 		.4byte	0xad
 559 0104 03       		.uleb128 0x3
 560 0105 F2020000 		.4byte	.LASF22
 561 0109 05       		.byte	0x5
 562 010a 49       		.byte	0x49
 563 010b AD000000 		.4byte	0xad
 564 010f 03       		.uleb128 0x3
 565 0110 BF050000 		.4byte	.LASF23
 566 0114 05       		.byte	0x5
 567 0115 4A       		.byte	0x4a
ARM GAS  C:\Users\IDONNO~1.SON\AppData\Local\Temp\ccA7aZx0.s 			page 11


 568 0116 AD000000 		.4byte	0xad
 569 011a 03       		.uleb128 0x3
 570 011b B3020000 		.4byte	.LASF24
 571 011f 05       		.byte	0x5
 572 0120 4B       		.byte	0x4b
 573 0121 AD000000 		.4byte	0xad
 574 0125 03       		.uleb128 0x3
 575 0126 0A060000 		.4byte	.LASF25
 576 012a 05       		.byte	0x5
 577 012b 4C       		.byte	0x4c
 578 012c CE000000 		.4byte	0xce
 579 0130 03       		.uleb128 0x3
 580 0131 37040000 		.4byte	.LASF26
 581 0135 05       		.byte	0x5
 582 0136 4D       		.byte	0x4d
 583 0137 C3000000 		.4byte	0xc3
 584 013b 03       		.uleb128 0x3
 585 013c A6040000 		.4byte	.LASF27
 586 0140 05       		.byte	0x5
 587 0141 4F       		.byte	0x4f
 588 0142 CE000000 		.4byte	0xce
 589 0146 03       		.uleb128 0x3
 590 0147 D6060000 		.4byte	.LASF28
 591 014b 05       		.byte	0x5
 592 014c 51       		.byte	0x51
 593 014d C3000000 		.4byte	0xc3
 594 0151 03       		.uleb128 0x3
 595 0152 55070000 		.4byte	.LASF29
 596 0156 06       		.byte	0x6
 597 0157 33       		.byte	0x33
 598 0158 CE000000 		.4byte	0xce
 599 015c 03       		.uleb128 0x3
 600 015d 40070000 		.4byte	.LASF30
 601 0161 06       		.byte	0x6
 602 0162 3F       		.byte	0x3f
 603 0163 67010000 		.4byte	0x167
 604 0167 06       		.uleb128 0x6
 605 0168 FA030000 		.4byte	.LASF52
 606 016c 48       		.byte	0x48
 607 016d 07       		.byte	0x7
 608 016e C2       		.byte	0xc2
 609 016f 6C020000 		.4byte	0x26c
 610 0173 07       		.uleb128 0x7
 611 0174 33050000 		.4byte	.LASF31
 612 0178 07       		.byte	0x7
 613 0179 C3       		.byte	0xc3
 614 017a 77020000 		.4byte	0x277
 615 017e 00       		.byte	0
 616 017f 07       		.uleb128 0x7
 617 0180 F9050000 		.4byte	.LASF32
 618 0184 07       		.byte	0x7
 619 0185 C5       		.byte	0xc5
 620 0186 77020000 		.4byte	0x277
 621 018a 04       		.byte	0x4
 622 018b 07       		.uleb128 0x7
 623 018c 48020000 		.4byte	.LASF33
 624 0190 07       		.byte	0x7
ARM GAS  C:\Users\IDONNO~1.SON\AppData\Local\Temp\ccA7aZx0.s 			page 12


 625 0191 C7       		.byte	0xc7
 626 0192 25010000 		.4byte	0x125
 627 0196 08       		.byte	0x8
 628 0197 07       		.uleb128 0x7
 629 0198 84080000 		.4byte	.LASF34
 630 019c 07       		.byte	0x7
 631 019d C8       		.byte	0xc8
 632 019e 72060000 		.4byte	0x672
 633 01a2 0C       		.byte	0xc
 634 01a3 07       		.uleb128 0x7
 635 01a4 FB020000 		.4byte	.LASF35
 636 01a8 07       		.byte	0x7
 637 01a9 CA       		.byte	0xca
 638 01aa 77020000 		.4byte	0x277
 639 01ae 10       		.byte	0x10
 640 01af 07       		.uleb128 0x7
 641 01b0 55050000 		.4byte	.LASF36
 642 01b4 07       		.byte	0x7
 643 01b5 CB       		.byte	0xcb
 644 01b6 77020000 		.4byte	0x277
 645 01ba 14       		.byte	0x14
 646 01bb 07       		.uleb128 0x7
 647 01bc 44080000 		.4byte	.LASF37
 648 01c0 07       		.byte	0x7
 649 01c1 D2       		.byte	0xd2
 650 01c2 B7080000 		.4byte	0x8b7
 651 01c6 18       		.byte	0x18
 652 01c7 07       		.uleb128 0x7
 653 01c8 52060000 		.4byte	.LASF38
 654 01cc 07       		.byte	0x7
 655 01cd DD       		.byte	0xdd
 656 01ce 04010000 		.4byte	0x104
 657 01d2 1C       		.byte	0x1c
 658 01d3 07       		.uleb128 0x7
 659 01d4 7C060000 		.4byte	.LASF39
 660 01d8 07       		.byte	0x7
 661 01d9 E1       		.byte	0xe1
 662 01da F9000000 		.4byte	0xf9
 663 01de 1D       		.byte	0x1d
 664 01df 07       		.uleb128 0x7
 665 01e0 01080000 		.4byte	.LASF40
 666 01e4 07       		.byte	0x7
 667 01e5 E6       		.byte	0xe6
 668 01e6 0F010000 		.4byte	0x10f
 669 01ea 1E       		.byte	0x1e
 670 01eb 07       		.uleb128 0x7
 671 01ec 5A060000 		.4byte	.LASF41
 672 01f0 07       		.byte	0x7
 673 01f1 EC       		.byte	0xec
 674 01f2 1A010000 		.4byte	0x11a
 675 01f6 1F       		.byte	0x1f
 676 01f7 07       		.uleb128 0x7
 677 01f8 C1030000 		.4byte	.LASF42
 678 01fc 07       		.byte	0x7
 679 01fd F3       		.byte	0xf3
 680 01fe C9080000 		.4byte	0x8c9
 681 0202 20       		.byte	0x20
ARM GAS  C:\Users\IDONNO~1.SON\AppData\Local\Temp\ccA7aZx0.s 			page 13


 682 0203 08       		.uleb128 0x8
 683 0204 705F7500 		.ascii	"p_u\000"
 684 0208 07       		.byte	0x7
 685 0209 3101     		.2byte	0x131
 686 020b F2070000 		.4byte	0x7f2
 687 020f 24       		.byte	0x24
 688 0210 09       		.uleb128 0x9
 689 0211 E6040000 		.4byte	.LASF43
 690 0215 07       		.byte	0x7
 691 0216 3601     		.2byte	0x136
 692 0218 7D020000 		.4byte	0x27d
 693 021c 28       		.byte	0x28
 694 021d 09       		.uleb128 0x9
 695 021e E3030000 		.4byte	.LASF44
 696 0222 07       		.byte	0x7
 697 0223 3C01     		.2byte	0x13c
 698 0225 A1020000 		.4byte	0x2a1
 699 0229 2C       		.byte	0x2c
 700 022a 09       		.uleb128 0x9
 701 022b 6E080000 		.4byte	.LASF45
 702 022f 07       		.byte	0x7
 703 0230 4001     		.2byte	0x140
 704 0232 30010000 		.4byte	0x130
 705 0236 34       		.byte	0x34
 706 0237 09       		.uleb128 0x9
 707 0238 B8060000 		.4byte	.LASF46
 708 023c 07       		.byte	0x7
 709 023d 4601     		.2byte	0x146
 710 023f 3B010000 		.4byte	0x13b
 711 0243 38       		.byte	0x38
 712 0244 09       		.uleb128 0x9
 713 0245 3E060000 		.4byte	.LASF47
 714 0249 07       		.byte	0x7
 715 024a 4D01     		.2byte	0x14d
 716 024c B1080000 		.4byte	0x8b1
 717 0250 3C       		.byte	0x3c
 718 0251 09       		.uleb128 0x9
 719 0252 5F070000 		.4byte	.LASF48
 720 0256 07       		.byte	0x7
 721 0257 5101     		.2byte	0x151
 722 0259 25010000 		.4byte	0x125
 723 025d 40       		.byte	0x40
 724 025e 09       		.uleb128 0x9
 725 025f 2F040000 		.4byte	.LASF49
 726 0263 07       		.byte	0x7
 727 0264 5801     		.2byte	0x158
 728 0266 54030000 		.4byte	0x354
 729 026a 44       		.byte	0x44
 730 026b 00       		.byte	0
 731 026c 03       		.uleb128 0x3
 732 026d F9040000 		.4byte	.LASF50
 733 0271 06       		.byte	0x6
 734 0272 44       		.byte	0x44
 735 0273 77020000 		.4byte	0x277
 736 0277 0A       		.uleb128 0xa
 737 0278 04       		.byte	0x4
 738 0279 5C010000 		.4byte	0x15c
ARM GAS  C:\Users\IDONNO~1.SON\AppData\Local\Temp\ccA7aZx0.s 			page 14


 739 027d 03       		.uleb128 0x3
 740 027e C7040000 		.4byte	.LASF51
 741 0282 06       		.byte	0x6
 742 0283 49       		.byte	0x49
 743 0284 88020000 		.4byte	0x288
 744 0288 06       		.uleb128 0x6
 745 0289 F4060000 		.4byte	.LASF53
 746 028d 04       		.byte	0x4
 747 028e 07       		.byte	0x7
 748 028f B0       		.byte	0xb0
 749 0290 A1020000 		.4byte	0x2a1
 750 0294 07       		.uleb128 0x7
 751 0295 33050000 		.4byte	.LASF31
 752 0299 07       		.byte	0x7
 753 029a B1       		.byte	0xb1
 754 029b 77020000 		.4byte	0x277
 755 029f 00       		.byte	0
 756 02a0 00       		.byte	0
 757 02a1 03       		.uleb128 0x3
 758 02a2 E8070000 		.4byte	.LASF54
 759 02a6 06       		.byte	0x6
 760 02a7 50       		.byte	0x50
 761 02a8 AC020000 		.4byte	0x2ac
 762 02ac 06       		.uleb128 0x6
 763 02ad 78000000 		.4byte	.LASF55
 764 02b1 08       		.byte	0x8
 765 02b2 07       		.byte	0x7
 766 02b3 B7       		.byte	0xb7
 767 02b4 D1020000 		.4byte	0x2d1
 768 02b8 07       		.uleb128 0x7
 769 02b9 33050000 		.4byte	.LASF31
 770 02bd 07       		.byte	0x7
 771 02be B8       		.byte	0xb8
 772 02bf 77020000 		.4byte	0x277
 773 02c3 00       		.byte	0
 774 02c4 07       		.uleb128 0x7
 775 02c5 F9050000 		.4byte	.LASF32
 776 02c9 07       		.byte	0x7
 777 02ca B9       		.byte	0xb9
 778 02cb 77020000 		.4byte	0x277
 779 02cf 04       		.byte	0x4
 780 02d0 00       		.byte	0
 781 02d1 03       		.uleb128 0x3
 782 02d2 00000000 		.4byte	.LASF56
 783 02d6 06       		.byte	0x6
 784 02d7 57       		.byte	0x57
 785 02d8 DC020000 		.4byte	0x2dc
 786 02dc 0B       		.uleb128 0xb
 787 02dd 98040000 		.4byte	.LASF57
 788 02e1 1C       		.byte	0x1c
 789 02e2 07       		.byte	0x7
 790 02e3 9001     		.2byte	0x190
 791 02e5 38030000 		.4byte	0x338
 792 02e9 09       		.uleb128 0x9
 793 02ea EC060000 		.4byte	.LASF58
 794 02ee 07       		.byte	0x7
 795 02ef 9101     		.2byte	0x191
ARM GAS  C:\Users\IDONNO~1.SON\AppData\Local\Temp\ccA7aZx0.s 			page 15


 796 02f1 A1020000 		.4byte	0x2a1
 797 02f5 00       		.byte	0
 798 02f6 09       		.uleb128 0x9
 799 02f7 6E060000 		.4byte	.LASF59
 800 02fb 07       		.byte	0x7
 801 02fc 9201     		.2byte	0x192
 802 02fe 25010000 		.4byte	0x125
 803 0302 08       		.byte	0x8
 804 0303 09       		.uleb128 0x9
 805 0304 5D050000 		.4byte	.LASF60
 806 0308 07       		.byte	0x7
 807 0309 9401     		.2byte	0x194
 808 030b 72060000 		.4byte	0x672
 809 030f 0C       		.byte	0xc
 810 0310 09       		.uleb128 0x9
 811 0311 35030000 		.4byte	.LASF61
 812 0315 07       		.byte	0x7
 813 0316 9701     		.2byte	0x197
 814 0318 77020000 		.4byte	0x277
 815 031c 10       		.byte	0x10
 816 031d 09       		.uleb128 0x9
 817 031e B1070000 		.4byte	.LASF62
 818 0322 07       		.byte	0x7
 819 0323 9801     		.2byte	0x198
 820 0325 77020000 		.4byte	0x277
 821 0329 14       		.byte	0x14
 822 032a 09       		.uleb128 0x9
 823 032b 7E050000 		.4byte	.LASF63
 824 032f 07       		.byte	0x7
 825 0330 9B01     		.2byte	0x19b
 826 0332 77020000 		.4byte	0x277
 827 0336 18       		.byte	0x18
 828 0337 00       		.byte	0
 829 0338 03       		.uleb128 0x3
 830 0339 6A070000 		.4byte	.LASF64
 831 033d 06       		.byte	0x6
 832 033e 5C       		.byte	0x5c
 833 033f 43030000 		.4byte	0x343
 834 0343 0A       		.uleb128 0xa
 835 0344 04       		.byte	0x4
 836 0345 49030000 		.4byte	0x349
 837 0349 0C       		.uleb128 0xc
 838 034a 54030000 		.4byte	0x354
 839 034e 0D       		.uleb128 0xd
 840 034f 54030000 		.4byte	0x354
 841 0353 00       		.byte	0
 842 0354 0E       		.uleb128 0xe
 843 0355 04       		.byte	0x4
 844 0356 03       		.uleb128 0x3
 845 0357 D6040000 		.4byte	.LASF65
 846 035b 06       		.byte	0x6
 847 035c 61       		.byte	0x61
 848 035d 61030000 		.4byte	0x361
 849 0361 0B       		.uleb128 0xb
 850 0362 95060000 		.4byte	.LASF66
 851 0366 14       		.byte	0x14
 852 0367 07       		.byte	0x7
ARM GAS  C:\Users\IDONNO~1.SON\AppData\Local\Temp\ccA7aZx0.s 			page 16


 853 0368 6B01     		.2byte	0x16b
 854 036a B0030000 		.4byte	0x3b0
 855 036e 09       		.uleb128 0x9
 856 036f 99030000 		.4byte	.LASF67
 857 0373 07       		.byte	0x7
 858 0374 6C01     		.2byte	0x16c
 859 0376 CE080000 		.4byte	0x8ce
 860 037a 00       		.byte	0
 861 037b 09       		.uleb128 0x9
 862 037c 50030000 		.4byte	.LASF68
 863 0380 07       		.byte	0x7
 864 0381 6D01     		.2byte	0x16d
 865 0383 CE080000 		.4byte	0x8ce
 866 0387 04       		.byte	0x4
 867 0388 09       		.uleb128 0x9
 868 0389 DA030000 		.4byte	.LASF69
 869 038d 07       		.byte	0x7
 870 038e 6E01     		.2byte	0x16e
 871 0390 51010000 		.4byte	0x151
 872 0394 08       		.byte	0x8
 873 0395 09       		.uleb128 0x9
 874 0396 8A080000 		.4byte	.LASF70
 875 039a 07       		.byte	0x7
 876 039b 6F01     		.2byte	0x16f
 877 039d 38030000 		.4byte	0x338
 878 03a1 0C       		.byte	0xc
 879 03a2 09       		.uleb128 0x9
 880 03a3 DB070000 		.4byte	.LASF71
 881 03a7 07       		.byte	0x7
 882 03a8 7101     		.2byte	0x171
 883 03aa 54030000 		.4byte	0x354
 884 03ae 10       		.byte	0x10
 885 03af 00       		.byte	0
 886 03b0 03       		.uleb128 0x3
 887 03b1 0B020000 		.4byte	.LASF72
 888 03b5 06       		.byte	0x6
 889 03b6 66       		.byte	0x66
 890 03b7 BB030000 		.4byte	0x3bb
 891 03bb 0B       		.uleb128 0xb
 892 03bc 0C050000 		.4byte	.LASF73
 893 03c0 10       		.byte	0x10
 894 03c1 07       		.byte	0x7
 895 03c2 7B01     		.2byte	0x17b
 896 03c4 FD030000 		.4byte	0x3fd
 897 03c8 09       		.uleb128 0x9
 898 03c9 99030000 		.4byte	.LASF67
 899 03cd 07       		.byte	0x7
 900 03ce 7C01     		.2byte	0x17c
 901 03d0 CE080000 		.4byte	0x8ce
 902 03d4 00       		.byte	0
 903 03d5 09       		.uleb128 0x9
 904 03d6 50030000 		.4byte	.LASF68
 905 03da 07       		.byte	0x7
 906 03db 7E01     		.2byte	0x17e
 907 03dd CE080000 		.4byte	0x8ce
 908 03e1 04       		.byte	0x4
 909 03e2 09       		.uleb128 0x9
ARM GAS  C:\Users\IDONNO~1.SON\AppData\Local\Temp\ccA7aZx0.s 			page 17


 910 03e3 DA030000 		.4byte	.LASF69
 911 03e7 07       		.byte	0x7
 912 03e8 8001     		.2byte	0x180
 913 03ea 51010000 		.4byte	0x151
 914 03ee 08       		.byte	0x8
 915 03ef 09       		.uleb128 0x9
 916 03f0 CF030000 		.4byte	.LASF74
 917 03f4 07       		.byte	0x7
 918 03f5 8201     		.2byte	0x182
 919 03f7 C9080000 		.4byte	0x8c9
 920 03fb 0C       		.byte	0xc
 921 03fc 00       		.byte	0
 922 03fd 03       		.uleb128 0x3
 923 03fe 89000000 		.4byte	.LASF75
 924 0402 06       		.byte	0x6
 925 0403 6B       		.byte	0x6b
 926 0404 08040000 		.4byte	0x408
 927 0408 0B       		.uleb128 0xb
 928 0409 12060000 		.4byte	.LASF76
 929 040d 04       		.byte	0x4
 930 040e 07       		.byte	0x7
 931 040f A201     		.2byte	0x1a2
 932 0411 23040000 		.4byte	0x423
 933 0415 09       		.uleb128 0x9
 934 0416 7E070000 		.4byte	.LASF77
 935 041a 07       		.byte	0x7
 936 041b AA01     		.2byte	0x1aa
 937 041d D4080000 		.4byte	0x8d4
 938 0421 00       		.byte	0
 939 0422 00       		.byte	0
 940 0423 03       		.uleb128 0x3
 941 0424 B9070000 		.4byte	.LASF78
 942 0428 06       		.byte	0x6
 943 0429 70       		.byte	0x70
 944 042a 2E040000 		.4byte	0x42e
 945 042e 0F       		.uleb128 0xf
 946 042f C3020000 		.4byte	.LASF79
 947 0433 5802     		.2byte	0x258
 948 0435 07       		.byte	0x7
 949 0436 C201     		.2byte	0x1c2
 950 0438 8A040000 		.4byte	0x48a
 951 043c 09       		.uleb128 0x9
 952 043d 2F080000 		.4byte	.LASF80
 953 0441 07       		.byte	0x7
 954 0442 C601     		.2byte	0x1c6
 955 0444 D1020000 		.4byte	0x2d1
 956 0448 00       		.byte	0
 957 0449 09       		.uleb128 0x9
 958 044a 58030000 		.4byte	.LASF81
 959 044e 07       		.byte	0x7
 960 044f CA01     		.2byte	0x1ca
 961 0451 B0030000 		.4byte	0x3b0
 962 0455 1C       		.byte	0x1c
 963 0456 08       		.uleb128 0x8
 964 0457 64626700 		.ascii	"dbg\000"
 965 045b 07       		.byte	0x7
 966 045c CE01     		.2byte	0x1ce
ARM GAS  C:\Users\IDONNO~1.SON\AppData\Local\Temp\ccA7aZx0.s 			page 18


 967 045e FD030000 		.4byte	0x3fd
 968 0462 2C       		.byte	0x2c
 969 0463 09       		.uleb128 0x9
 970 0464 00020000 		.4byte	.LASF82
 971 0468 07       		.byte	0x7
 972 0469 D201     		.2byte	0x1d2
 973 046b 5C010000 		.4byte	0x15c
 974 046f 30       		.byte	0x30
 975 0470 08       		.uleb128 0x8
 976 0471 746D00   		.ascii	"tm\000"
 977 0474 07       		.byte	0x7
 978 0475 D701     		.2byte	0x1d7
 979 0477 E7070000 		.4byte	0x7e7
 980 047b 78       		.byte	0x78
 981 047c 09       		.uleb128 0x9
 982 047d 72030000 		.4byte	.LASF83
 983 0481 07       		.byte	0x7
 984 0482 E301     		.2byte	0x1e3
 985 0484 D9080000 		.4byte	0x8d9
 986 0488 80       		.byte	0x80
 987 0489 00       		.byte	0
 988 048a 04       		.uleb128 0x4
 989 048b 04       		.byte	0x4
 990 048c 07       		.byte	0x7
 991 048d F0040000 		.4byte	.LASF84
 992 0491 10       		.uleb128 0x10
 993 0492 CE000000 		.4byte	0xce
 994 0496 A1040000 		.4byte	0x4a1
 995 049a 11       		.uleb128 0x11
 996 049b 8A040000 		.4byte	0x48a
 997 049f 01       		.byte	0x1
 998 04a0 00       		.byte	0
 999 04a1 10       		.uleb128 0x10
 1000 04a2 E9000000 		.4byte	0xe9
 1001 04a6 B1040000 		.4byte	0x4b1
 1002 04aa 11       		.uleb128 0x11
 1003 04ab 8A040000 		.4byte	0x48a
 1004 04af 01       		.byte	0x1
 1005 04b0 00       		.byte	0
 1006 04b1 10       		.uleb128 0x10
 1007 04b2 E9000000 		.4byte	0xe9
 1008 04b6 C1040000 		.4byte	0x4c1
 1009 04ba 11       		.uleb128 0x11
 1010 04bb 8A040000 		.4byte	0x48a
 1011 04bf 03       		.byte	0x3
 1012 04c0 00       		.byte	0
 1013 04c1 12       		.uleb128 0x12
 1014 04c2 88       		.byte	0x88
 1015 04c3 08       		.byte	0x8
 1016 04c4 6702     		.2byte	0x267
 1017 04c6 50060000 		.4byte	0x650
 1018 04ca 08       		.uleb128 0x8
 1019 04cb 435200   		.ascii	"CR\000"
 1020 04ce 08       		.byte	0x8
 1021 04cf 6902     		.2byte	0x269
 1022 04d1 E9000000 		.4byte	0xe9
 1023 04d5 00       		.byte	0
ARM GAS  C:\Users\IDONNO~1.SON\AppData\Local\Temp\ccA7aZx0.s 			page 19


 1024 04d6 09       		.uleb128 0x9
 1025 04d7 03030000 		.4byte	.LASF85
 1026 04db 08       		.byte	0x8
 1027 04dc 6A02     		.2byte	0x26a
 1028 04de E9000000 		.4byte	0xe9
 1029 04e2 04       		.byte	0x4
 1030 04e3 09       		.uleb128 0x9
 1031 04e4 53080000 		.4byte	.LASF86
 1032 04e8 08       		.byte	0x8
 1033 04e9 6B02     		.2byte	0x26b
 1034 04eb E9000000 		.4byte	0xe9
 1035 04ef 08       		.byte	0x8
 1036 04f0 08       		.uleb128 0x8
 1037 04f1 43495200 		.ascii	"CIR\000"
 1038 04f5 08       		.byte	0x8
 1039 04f6 6C02     		.2byte	0x26c
 1040 04f8 E9000000 		.4byte	0xe9
 1041 04fc 0C       		.byte	0xc
 1042 04fd 09       		.uleb128 0x9
 1043 04fe 7E020000 		.4byte	.LASF87
 1044 0502 08       		.byte	0x8
 1045 0503 6D02     		.2byte	0x26d
 1046 0505 E9000000 		.4byte	0xe9
 1047 0509 10       		.byte	0x10
 1048 050a 09       		.uleb128 0x9
 1049 050b 37070000 		.4byte	.LASF88
 1050 050f 08       		.byte	0x8
 1051 0510 6E02     		.2byte	0x26e
 1052 0512 E9000000 		.4byte	0xe9
 1053 0516 14       		.byte	0x14
 1054 0517 09       		.uleb128 0x9
 1055 0518 3D040000 		.4byte	.LASF89
 1056 051c 08       		.byte	0x8
 1057 051d 6F02     		.2byte	0x26f
 1058 051f E9000000 		.4byte	0xe9
 1059 0523 18       		.byte	0x18
 1060 0524 09       		.uleb128 0x9
 1061 0525 C7050000 		.4byte	.LASF90
 1062 0529 08       		.byte	0x8
 1063 052a 7002     		.2byte	0x270
 1064 052c CE000000 		.4byte	0xce
 1065 0530 1C       		.byte	0x1c
 1066 0531 09       		.uleb128 0x9
 1067 0532 9B020000 		.4byte	.LASF91
 1068 0536 08       		.byte	0x8
 1069 0537 7102     		.2byte	0x271
 1070 0539 E9000000 		.4byte	0xe9
 1071 053d 20       		.byte	0x20
 1072 053e 09       		.uleb128 0x9
 1073 053f DF020000 		.4byte	.LASF92
 1074 0543 08       		.byte	0x8
 1075 0544 7202     		.2byte	0x272
 1076 0546 E9000000 		.4byte	0xe9
 1077 054a 24       		.byte	0x24
 1078 054b 09       		.uleb128 0x9
 1079 054c D1050000 		.4byte	.LASF93
 1080 0550 08       		.byte	0x8
ARM GAS  C:\Users\IDONNO~1.SON\AppData\Local\Temp\ccA7aZx0.s 			page 20


 1081 0551 7302     		.2byte	0x273
 1082 0553 91040000 		.4byte	0x491
 1083 0557 28       		.byte	0x28
 1084 0558 09       		.uleb128 0x9
 1085 0559 4B080000 		.4byte	.LASF94
 1086 055d 08       		.byte	0x8
 1087 055e 7402     		.2byte	0x274
 1088 0560 E9000000 		.4byte	0xe9
 1089 0564 30       		.byte	0x30
 1090 0565 09       		.uleb128 0x9
 1091 0566 A1070000 		.4byte	.LASF95
 1092 056a 08       		.byte	0x8
 1093 056b 7502     		.2byte	0x275
 1094 056d E9000000 		.4byte	0xe9
 1095 0571 34       		.byte	0x34
 1096 0572 09       		.uleb128 0x9
 1097 0573 4D050000 		.4byte	.LASF96
 1098 0577 08       		.byte	0x8
 1099 0578 7602     		.2byte	0x276
 1100 057a E9000000 		.4byte	0xe9
 1101 057e 38       		.byte	0x38
 1102 057f 09       		.uleb128 0x9
 1103 0580 DB050000 		.4byte	.LASF97
 1104 0584 08       		.byte	0x8
 1105 0585 7702     		.2byte	0x277
 1106 0587 CE000000 		.4byte	0xce
 1107 058b 3C       		.byte	0x3c
 1108 058c 09       		.uleb128 0x9
 1109 058d 8F070000 		.4byte	.LASF98
 1110 0591 08       		.byte	0x8
 1111 0592 7802     		.2byte	0x278
 1112 0594 E9000000 		.4byte	0xe9
 1113 0598 40       		.byte	0x40
 1114 0599 09       		.uleb128 0x9
 1115 059a 8D060000 		.4byte	.LASF99
 1116 059e 08       		.byte	0x8
 1117 059f 7902     		.2byte	0x279
 1118 05a1 E9000000 		.4byte	0xe9
 1119 05a5 44       		.byte	0x44
 1120 05a6 09       		.uleb128 0x9
 1121 05a7 E5050000 		.4byte	.LASF100
 1122 05ab 08       		.byte	0x8
 1123 05ac 7A02     		.2byte	0x27a
 1124 05ae 91040000 		.4byte	0x491
 1125 05b2 48       		.byte	0x48
 1126 05b3 09       		.uleb128 0x9
 1127 05b4 3E020000 		.4byte	.LASF101
 1128 05b8 08       		.byte	0x8
 1129 05b9 7B02     		.2byte	0x27b
 1130 05bb E9000000 		.4byte	0xe9
 1131 05bf 50       		.byte	0x50
 1132 05c0 09       		.uleb128 0x9
 1133 05c1 63050000 		.4byte	.LASF102
 1134 05c5 08       		.byte	0x8
 1135 05c6 7C02     		.2byte	0x27c
 1136 05c8 E9000000 		.4byte	0xe9
 1137 05cc 54       		.byte	0x54
ARM GAS  C:\Users\IDONNO~1.SON\AppData\Local\Temp\ccA7aZx0.s 			page 21


 1138 05cd 09       		.uleb128 0x9
 1139 05ce 64060000 		.4byte	.LASF103
 1140 05d2 08       		.byte	0x8
 1141 05d3 7D02     		.2byte	0x27d
 1142 05d5 E9000000 		.4byte	0xe9
 1143 05d9 58       		.byte	0x58
 1144 05da 09       		.uleb128 0x9
 1145 05db EF050000 		.4byte	.LASF104
 1146 05df 08       		.byte	0x8
 1147 05e0 7E02     		.2byte	0x27e
 1148 05e2 CE000000 		.4byte	0xce
 1149 05e6 5C       		.byte	0x5c
 1150 05e7 09       		.uleb128 0x9
 1151 05e8 E8020000 		.4byte	.LASF105
 1152 05ec 08       		.byte	0x8
 1153 05ed 7F02     		.2byte	0x27f
 1154 05ef E9000000 		.4byte	0xe9
 1155 05f3 60       		.byte	0x60
 1156 05f4 09       		.uleb128 0x9
 1157 05f5 8E040000 		.4byte	.LASF106
 1158 05f9 08       		.byte	0x8
 1159 05fa 8002     		.2byte	0x280
 1160 05fc E9000000 		.4byte	0xe9
 1161 0600 64       		.byte	0x64
 1162 0601 09       		.uleb128 0x9
 1163 0602 C3060000 		.4byte	.LASF107
 1164 0606 08       		.byte	0x8
 1165 0607 8102     		.2byte	0x281
 1166 0609 91040000 		.4byte	0x491
 1167 060d 68       		.byte	0x68
 1168 060e 09       		.uleb128 0x9
 1169 060f 2A080000 		.4byte	.LASF108
 1170 0613 08       		.byte	0x8
 1171 0614 8202     		.2byte	0x282
 1172 0616 E9000000 		.4byte	0xe9
 1173 061a 70       		.byte	0x70
 1174 061b 08       		.uleb128 0x8
 1175 061c 43535200 		.ascii	"CSR\000"
 1176 0620 08       		.byte	0x8
 1177 0621 8302     		.2byte	0x283
 1178 0623 E9000000 		.4byte	0xe9
 1179 0627 74       		.byte	0x74
 1180 0628 09       		.uleb128 0x9
 1181 0629 00060000 		.4byte	.LASF109
 1182 062d 08       		.byte	0x8
 1183 062e 8402     		.2byte	0x284
 1184 0630 91040000 		.4byte	0x491
 1185 0634 78       		.byte	0x78
 1186 0635 09       		.uleb128 0x9
 1187 0636 E2070000 		.4byte	.LASF110
 1188 063a 08       		.byte	0x8
 1189 063b 8502     		.2byte	0x285
 1190 063d E9000000 		.4byte	0xe9
 1191 0641 80       		.byte	0x80
 1192 0642 09       		.uleb128 0x9
 1193 0643 24040000 		.4byte	.LASF111
 1194 0647 08       		.byte	0x8
ARM GAS  C:\Users\IDONNO~1.SON\AppData\Local\Temp\ccA7aZx0.s 			page 22


 1195 0648 8602     		.2byte	0x286
 1196 064a E9000000 		.4byte	0xe9
 1197 064e 84       		.byte	0x84
 1198 064f 00       		.byte	0
 1199 0650 13       		.uleb128 0x13
 1200 0651 EE030000 		.4byte	.LASF112
 1201 0655 08       		.byte	0x8
 1202 0656 8802     		.2byte	0x288
 1203 0658 C1040000 		.4byte	0x4c1
 1204 065c 03       		.uleb128 0x3
 1205 065d 47030000 		.4byte	.LASF113
 1206 0661 09       		.byte	0x9
 1207 0662 65       		.byte	0x65
 1208 0663 54030000 		.4byte	0x354
 1209 0667 03       		.uleb128 0x3
 1210 0668 BC040000 		.4byte	.LASF114
 1211 066c 09       		.byte	0x9
 1212 066d 6D       		.byte	0x6d
 1213 066e D9000000 		.4byte	0xd9
 1214 0672 06       		.uleb128 0x6
 1215 0673 A9070000 		.4byte	.LASF115
 1216 0677 04       		.byte	0x4
 1217 0678 09       		.byte	0x9
 1218 0679 89       		.byte	0x89
 1219 067a 8B060000 		.4byte	0x68b
 1220 067e 14       		.uleb128 0x14
 1221 067f 72313300 		.ascii	"r13\000"
 1222 0683 09       		.byte	0x9
 1223 0684 8A       		.byte	0x8a
 1224 0685 CC070000 		.4byte	0x7cc
 1225 0689 00       		.byte	0
 1226 068a 00       		.byte	0
 1227 068b 06       		.uleb128 0x6
 1228 068c 8F020000 		.4byte	.LASF116
 1229 0690 64       		.byte	0x64
 1230 0691 0A       		.byte	0xa
 1231 0692 F4       		.byte	0xf4
 1232 0693 CC070000 		.4byte	0x7cc
 1233 0697 14       		.uleb128 0x14
 1234 0698 73313600 		.ascii	"s16\000"
 1235 069c 0A       		.byte	0xa
 1236 069d F6       		.byte	0xf6
 1237 069e 5C060000 		.4byte	0x65c
 1238 06a2 00       		.byte	0
 1239 06a3 14       		.uleb128 0x14
 1240 06a4 73313700 		.ascii	"s17\000"
 1241 06a8 0A       		.byte	0xa
 1242 06a9 F7       		.byte	0xf7
 1243 06aa 5C060000 		.4byte	0x65c
 1244 06ae 04       		.byte	0x4
 1245 06af 14       		.uleb128 0x14
 1246 06b0 73313800 		.ascii	"s18\000"
 1247 06b4 0A       		.byte	0xa
 1248 06b5 F8       		.byte	0xf8
 1249 06b6 5C060000 		.4byte	0x65c
 1250 06ba 08       		.byte	0x8
 1251 06bb 14       		.uleb128 0x14
ARM GAS  C:\Users\IDONNO~1.SON\AppData\Local\Temp\ccA7aZx0.s 			page 23


 1252 06bc 73313900 		.ascii	"s19\000"
 1253 06c0 0A       		.byte	0xa
 1254 06c1 F9       		.byte	0xf9
 1255 06c2 5C060000 		.4byte	0x65c
 1256 06c6 0C       		.byte	0xc
 1257 06c7 14       		.uleb128 0x14
 1258 06c8 73323000 		.ascii	"s20\000"
 1259 06cc 0A       		.byte	0xa
 1260 06cd FA       		.byte	0xfa
 1261 06ce 5C060000 		.4byte	0x65c
 1262 06d2 10       		.byte	0x10
 1263 06d3 14       		.uleb128 0x14
 1264 06d4 73323100 		.ascii	"s21\000"
 1265 06d8 0A       		.byte	0xa
 1266 06d9 FB       		.byte	0xfb
 1267 06da 5C060000 		.4byte	0x65c
 1268 06de 14       		.byte	0x14
 1269 06df 14       		.uleb128 0x14
 1270 06e0 73323200 		.ascii	"s22\000"
 1271 06e4 0A       		.byte	0xa
 1272 06e5 FC       		.byte	0xfc
 1273 06e6 5C060000 		.4byte	0x65c
 1274 06ea 18       		.byte	0x18
 1275 06eb 14       		.uleb128 0x14
 1276 06ec 73323300 		.ascii	"s23\000"
 1277 06f0 0A       		.byte	0xa
 1278 06f1 FD       		.byte	0xfd
 1279 06f2 5C060000 		.4byte	0x65c
 1280 06f6 1C       		.byte	0x1c
 1281 06f7 14       		.uleb128 0x14
 1282 06f8 73323400 		.ascii	"s24\000"
 1283 06fc 0A       		.byte	0xa
 1284 06fd FE       		.byte	0xfe
 1285 06fe 5C060000 		.4byte	0x65c
 1286 0702 20       		.byte	0x20
 1287 0703 14       		.uleb128 0x14
 1288 0704 73323500 		.ascii	"s25\000"
 1289 0708 0A       		.byte	0xa
 1290 0709 FF       		.byte	0xff
 1291 070a 5C060000 		.4byte	0x65c
 1292 070e 24       		.byte	0x24
 1293 070f 08       		.uleb128 0x8
 1294 0710 73323600 		.ascii	"s26\000"
 1295 0714 0A       		.byte	0xa
 1296 0715 0001     		.2byte	0x100
 1297 0717 5C060000 		.4byte	0x65c
 1298 071b 28       		.byte	0x28
 1299 071c 08       		.uleb128 0x8
 1300 071d 73323700 		.ascii	"s27\000"
 1301 0721 0A       		.byte	0xa
 1302 0722 0101     		.2byte	0x101
 1303 0724 5C060000 		.4byte	0x65c
 1304 0728 2C       		.byte	0x2c
 1305 0729 08       		.uleb128 0x8
 1306 072a 73323800 		.ascii	"s28\000"
 1307 072e 0A       		.byte	0xa
 1308 072f 0201     		.2byte	0x102
ARM GAS  C:\Users\IDONNO~1.SON\AppData\Local\Temp\ccA7aZx0.s 			page 24


 1309 0731 5C060000 		.4byte	0x65c
 1310 0735 30       		.byte	0x30
 1311 0736 08       		.uleb128 0x8
 1312 0737 73323900 		.ascii	"s29\000"
 1313 073b 0A       		.byte	0xa
 1314 073c 0301     		.2byte	0x103
 1315 073e 5C060000 		.4byte	0x65c
 1316 0742 34       		.byte	0x34
 1317 0743 08       		.uleb128 0x8
 1318 0744 73333000 		.ascii	"s30\000"
 1319 0748 0A       		.byte	0xa
 1320 0749 0401     		.2byte	0x104
 1321 074b 5C060000 		.4byte	0x65c
 1322 074f 38       		.byte	0x38
 1323 0750 08       		.uleb128 0x8
 1324 0751 73333100 		.ascii	"s31\000"
 1325 0755 0A       		.byte	0xa
 1326 0756 0501     		.2byte	0x105
 1327 0758 5C060000 		.4byte	0x65c
 1328 075c 3C       		.byte	0x3c
 1329 075d 08       		.uleb128 0x8
 1330 075e 723400   		.ascii	"r4\000"
 1331 0761 0A       		.byte	0xa
 1332 0762 0701     		.2byte	0x107
 1333 0764 5C060000 		.4byte	0x65c
 1334 0768 40       		.byte	0x40
 1335 0769 08       		.uleb128 0x8
 1336 076a 723500   		.ascii	"r5\000"
 1337 076d 0A       		.byte	0xa
 1338 076e 0801     		.2byte	0x108
 1339 0770 5C060000 		.4byte	0x65c
 1340 0774 44       		.byte	0x44
 1341 0775 08       		.uleb128 0x8
 1342 0776 723600   		.ascii	"r6\000"
 1343 0779 0A       		.byte	0xa
 1344 077a 0901     		.2byte	0x109
 1345 077c 5C060000 		.4byte	0x65c
 1346 0780 48       		.byte	0x48
 1347 0781 08       		.uleb128 0x8
 1348 0782 723700   		.ascii	"r7\000"
 1349 0785 0A       		.byte	0xa
 1350 0786 0A01     		.2byte	0x10a
 1351 0788 5C060000 		.4byte	0x65c
 1352 078c 4C       		.byte	0x4c
 1353 078d 08       		.uleb128 0x8
 1354 078e 723800   		.ascii	"r8\000"
 1355 0791 0A       		.byte	0xa
 1356 0792 0B01     		.2byte	0x10b
 1357 0794 5C060000 		.4byte	0x65c
 1358 0798 50       		.byte	0x50
 1359 0799 08       		.uleb128 0x8
 1360 079a 723900   		.ascii	"r9\000"
 1361 079d 0A       		.byte	0xa
 1362 079e 0C01     		.2byte	0x10c
 1363 07a0 5C060000 		.4byte	0x65c
 1364 07a4 54       		.byte	0x54
 1365 07a5 08       		.uleb128 0x8
ARM GAS  C:\Users\IDONNO~1.SON\AppData\Local\Temp\ccA7aZx0.s 			page 25


 1366 07a6 72313000 		.ascii	"r10\000"
 1367 07aa 0A       		.byte	0xa
 1368 07ab 0D01     		.2byte	0x10d
 1369 07ad 5C060000 		.4byte	0x65c
 1370 07b1 58       		.byte	0x58
 1371 07b2 08       		.uleb128 0x8
 1372 07b3 72313100 		.ascii	"r11\000"
 1373 07b7 0A       		.byte	0xa
 1374 07b8 0E01     		.2byte	0x10e
 1375 07ba 5C060000 		.4byte	0x65c
 1376 07be 5C       		.byte	0x5c
 1377 07bf 08       		.uleb128 0x8
 1378 07c0 6C7200   		.ascii	"lr\000"
 1379 07c3 0A       		.byte	0xa
 1380 07c4 0F01     		.2byte	0x10f
 1381 07c6 5C060000 		.4byte	0x65c
 1382 07ca 60       		.byte	0x60
 1383 07cb 00       		.byte	0
 1384 07cc 0A       		.uleb128 0xa
 1385 07cd 04       		.byte	0x4
 1386 07ce 8B060000 		.4byte	0x68b
 1387 07d2 15       		.uleb128 0x15
 1388 07d3 04       		.byte	0x4
 1389 07d4 0B       		.byte	0xb
 1390 07d5 38       		.byte	0x38
 1391 07d6 E7070000 		.4byte	0x7e7
 1392 07da 07       		.uleb128 0x7
 1393 07db 88070000 		.4byte	.LASF117
 1394 07df 0B       		.byte	0xb
 1395 07e0 3C       		.byte	0x3c
 1396 07e1 EE000000 		.4byte	0xee
 1397 07e5 00       		.byte	0
 1398 07e6 00       		.byte	0
 1399 07e7 03       		.uleb128 0x3
 1400 07e8 6D050000 		.4byte	.LASF118
 1401 07ec 0B       		.byte	0xb
 1402 07ed 3D       		.byte	0x3d
 1403 07ee D2070000 		.4byte	0x7d2
 1404 07f2 16       		.uleb128 0x16
 1405 07f3 04       		.byte	0x4
 1406 07f4 07       		.byte	0x7
 1407 07f5 FA       		.byte	0xfa
 1408 07f6 4F080000 		.4byte	0x84f
 1409 07fa 17       		.uleb128 0x17
 1410 07fb 52000000 		.4byte	.LASF119
 1411 07ff 07       		.byte	0x7
 1412 0800 0101     		.2byte	0x101
 1413 0802 30010000 		.4byte	0x130
 1414 0806 17       		.uleb128 0x17
 1415 0807 F7010000 		.4byte	.LASF120
 1416 080b 07       		.byte	0x7
 1417 080c 0801     		.2byte	0x108
 1418 080e 30010000 		.4byte	0x130
 1419 0812 17       		.uleb128 0x17
 1420 0813 3D080000 		.4byte	.LASF121
 1421 0817 07       		.byte	0x7
 1422 0818 0F01     		.2byte	0x10f
ARM GAS  C:\Users\IDONNO~1.SON\AppData\Local\Temp\ccA7aZx0.s 			page 26


 1423 081a 54030000 		.4byte	0x354
 1424 081e 17       		.uleb128 0x17
 1425 081f 23050000 		.4byte	.LASF122
 1426 0823 07       		.byte	0x7
 1427 0824 1601     		.2byte	0x116
 1428 0826 4F080000 		.4byte	0x84f
 1429 082a 17       		.uleb128 0x17
 1430 082b C8030000 		.4byte	.LASF123
 1431 082f 07       		.byte	0x7
 1432 0830 1E01     		.2byte	0x11e
 1433 0832 7A080000 		.4byte	0x87a
 1434 0836 17       		.uleb128 0x17
 1435 0837 E5060000 		.4byte	.LASF124
 1436 083b 07       		.byte	0x7
 1437 083c 2701     		.2byte	0x127
 1438 083e B1080000 		.4byte	0x8b1
 1439 0842 17       		.uleb128 0x17
 1440 0843 75060000 		.4byte	.LASF125
 1441 0847 07       		.byte	0x7
 1442 0848 2F01     		.2byte	0x12f
 1443 084a 3B010000 		.4byte	0x13b
 1444 084e 00       		.byte	0
 1445 084f 0A       		.uleb128 0xa
 1446 0850 04       		.byte	0x4
 1447 0851 6C020000 		.4byte	0x26c
 1448 0855 06       		.uleb128 0x6
 1449 0856 A6060000 		.4byte	.LASF126
 1450 085a 0C       		.byte	0xc
 1451 085b 0C       		.byte	0xc
 1452 085c 34       		.byte	0x34
 1453 085d 7A080000 		.4byte	0x87a
 1454 0861 07       		.uleb128 0x7
 1455 0862 60080000 		.4byte	.LASF127
 1456 0866 0C       		.byte	0xc
 1457 0867 35       		.byte	0x35
 1458 0868 A1020000 		.4byte	0x2a1
 1459 086c 00       		.byte	0
 1460 086d 07       		.uleb128 0x7
 1461 086e 09040000 		.4byte	.LASF128
 1462 0872 0C       		.byte	0xc
 1463 0873 37       		.byte	0x37
 1464 0874 46010000 		.4byte	0x146
 1465 0878 08       		.byte	0x8
 1466 0879 00       		.byte	0
 1467 087a 0A       		.uleb128 0xa
 1468 087b 04       		.byte	0x4
 1469 087c 55080000 		.4byte	0x855
 1470 0880 06       		.uleb128 0x6
 1471 0881 F8070000 		.4byte	.LASF129
 1472 0885 10       		.byte	0x10
 1473 0886 0D       		.byte	0xd
 1474 0887 39       		.byte	0x39
 1475 0888 B1080000 		.4byte	0x8b1
 1476 088c 07       		.uleb128 0x7
 1477 088d 87020000 		.4byte	.LASF130
 1478 0891 0D       		.byte	0xd
 1479 0892 3A       		.byte	0x3a
ARM GAS  C:\Users\IDONNO~1.SON\AppData\Local\Temp\ccA7aZx0.s 			page 27


 1480 0893 A1020000 		.4byte	0x2a1
 1481 0897 00       		.byte	0
 1482 0898 07       		.uleb128 0x7
 1483 0899 7C080000 		.4byte	.LASF131
 1484 089d 0D       		.byte	0xd
 1485 089e 3C       		.byte	0x3c
 1486 089f 77020000 		.4byte	0x277
 1487 08a3 08       		.byte	0x8
 1488 08a4 07       		.uleb128 0x7
 1489 08a5 4E070000 		.4byte	.LASF132
 1490 08a9 0D       		.byte	0xd
 1491 08aa 3E       		.byte	0x3e
 1492 08ab F4080000 		.4byte	0x8f4
 1493 08af 0C       		.byte	0xc
 1494 08b0 00       		.byte	0
 1495 08b1 0A       		.uleb128 0xa
 1496 08b2 04       		.byte	0x4
 1497 08b3 80080000 		.4byte	0x880
 1498 08b7 0A       		.uleb128 0xa
 1499 08b8 04       		.byte	0x4
 1500 08b9 C4080000 		.4byte	0x8c4
 1501 08bd 04       		.uleb128 0x4
 1502 08be 01       		.byte	0x1
 1503 08bf 08       		.byte	0x8
 1504 08c0 16070000 		.4byte	.LASF133
 1505 08c4 18       		.uleb128 0x18
 1506 08c5 BD080000 		.4byte	0x8bd
 1507 08c9 05       		.uleb128 0x5
 1508 08ca 51010000 		.4byte	0x151
 1509 08ce 0A       		.uleb128 0xa
 1510 08cf 04       		.byte	0x4
 1511 08d0 56030000 		.4byte	0x356
 1512 08d4 05       		.uleb128 0x5
 1513 08d5 B7080000 		.4byte	0x8b7
 1514 08d9 10       		.uleb128 0x10
 1515 08da 67060000 		.4byte	0x667
 1516 08de E9080000 		.4byte	0x8e9
 1517 08e2 11       		.uleb128 0x11
 1518 08e3 8A040000 		.4byte	0x48a
 1519 08e7 3A       		.byte	0x3a
 1520 08e8 00       		.byte	0
 1521 08e9 03       		.uleb128 0x3
 1522 08ea 74080000 		.4byte	.LASF134
 1523 08ee 0D       		.byte	0xd
 1524 08ef 34       		.byte	0x34
 1525 08f0 80080000 		.4byte	0x880
 1526 08f4 0A       		.uleb128 0xa
 1527 08f5 04       		.byte	0x4
 1528 08f6 E9080000 		.4byte	0x8e9
 1529 08fa 04       		.uleb128 0x4
 1530 08fb 01       		.byte	0x1
 1531 08fc 02       		.byte	0x2
 1532 08fd 22060000 		.4byte	.LASF135
 1533 0901 19       		.uleb128 0x19
 1534 0902 01       		.byte	0x1
 1535 0903 50000000 		.4byte	0x50
 1536 0907 0E       		.byte	0xe
ARM GAS  C:\Users\IDONNO~1.SON\AppData\Local\Temp\ccA7aZx0.s 			page 28


 1537 0908 31       		.byte	0x31
 1538 0909 2C090000 		.4byte	0x92c
 1539 090d 1A       		.uleb128 0x1a
 1540 090e 0F040000 		.4byte	.LASF136
 1541 0912 00       		.byte	0
 1542 0913 1A       		.uleb128 0x1a
 1543 0914 CD060000 		.4byte	.LASF137
 1544 0918 01       		.byte	0x1
 1545 0919 1A       		.uleb128 0x1a
 1546 091a 29050000 		.4byte	.LASF138
 1547 091e 02       		.byte	0x2
 1548 091f 1A       		.uleb128 0x1a
 1549 0920 A4020000 		.4byte	.LASF139
 1550 0924 03       		.byte	0x3
 1551 0925 1A       		.uleb128 0x1a
 1552 0926 6C000000 		.4byte	.LASF140
 1553 092a 04       		.byte	0x4
 1554 092b 00       		.byte	0
 1555 092c 03       		.uleb128 0x3
 1556 092d 81030000 		.4byte	.LASF141
 1557 0931 0E       		.byte	0xe
 1558 0932 37       		.byte	0x37
 1559 0933 01090000 		.4byte	0x901
 1560 0937 03       		.uleb128 0x3
 1561 0938 3D030000 		.4byte	.LASF142
 1562 093c 0E       		.byte	0xe
 1563 093d 3C       		.byte	0x3c
 1564 093e 42090000 		.4byte	0x942
 1565 0942 0B       		.uleb128 0xb
 1566 0943 3D030000 		.4byte	.LASF142
 1567 0947 10       		.byte	0x10
 1568 0948 0F       		.byte	0xf
 1569 0949 9701     		.2byte	0x197
 1570 094b 84090000 		.4byte	0x984
 1571 094f 09       		.uleb128 0x9
 1572 0950 BD020000 		.4byte	.LASF143
 1573 0954 0F       		.byte	0xf
 1574 0955 9B01     		.2byte	0x19b
 1575 0957 2C090000 		.4byte	0x92c
 1576 095b 00       		.byte	0
 1577 095c 09       		.uleb128 0x9
 1578 095d 2B070000 		.4byte	.LASF144
 1579 0961 0F       		.byte	0xf
 1580 0962 9F01     		.2byte	0x19f
 1581 0964 2A0B0000 		.4byte	0xb2a
 1582 0968 04       		.byte	0x4
 1583 0969 09       		.uleb128 0x9
 1584 096a 68080000 		.4byte	.LASF145
 1585 096e 0F       		.byte	0xf
 1586 096f A701     		.2byte	0x1a7
 1587 0971 CE000000 		.4byte	0xce
 1588 0975 08       		.byte	0x8
 1589 0976 08       		.uleb128 0x8
 1590 0977 74696D00 		.ascii	"tim\000"
 1591 097b 0F       		.byte	0xf
 1592 097c AB01     		.2byte	0x1ab
 1593 097e 350B0000 		.4byte	0xb35
ARM GAS  C:\Users\IDONNO~1.SON\AppData\Local\Temp\ccA7aZx0.s 			page 29


 1594 0982 0C       		.byte	0xc
 1595 0983 00       		.byte	0
 1596 0984 03       		.uleb128 0x3
 1597 0985 0B030000 		.4byte	.LASF146
 1598 0989 0E       		.byte	0xe
 1599 098a 43       		.byte	0x43
 1600 098b 8F090000 		.4byte	0x98f
 1601 098f 0A       		.uleb128 0xa
 1602 0990 04       		.byte	0x4
 1603 0991 95090000 		.4byte	0x995
 1604 0995 0C       		.uleb128 0xc
 1605 0996 A0090000 		.4byte	0x9a0
 1606 099a 0D       		.uleb128 0xd
 1607 099b A0090000 		.4byte	0x9a0
 1608 099f 00       		.byte	0
 1609 09a0 0A       		.uleb128 0xa
 1610 09a1 04       		.byte	0x4
 1611 09a2 37090000 		.4byte	0x937
 1612 09a6 12       		.uleb128 0x12
 1613 09a7 60       		.byte	0x60
 1614 09a8 10       		.byte	0x10
 1615 09a9 9E01     		.2byte	0x19e
 1616 09ab B20A0000 		.4byte	0xab2
 1617 09af 08       		.uleb128 0x8
 1618 09b0 43523100 		.ascii	"CR1\000"
 1619 09b4 10       		.byte	0x10
 1620 09b5 9F01     		.2byte	0x19f
 1621 09b7 E9000000 		.4byte	0xe9
 1622 09bb 00       		.byte	0
 1623 09bc 08       		.uleb128 0x8
 1624 09bd 43523200 		.ascii	"CR2\000"
 1625 09c1 10       		.byte	0x10
 1626 09c2 A001     		.2byte	0x1a0
 1627 09c4 E9000000 		.4byte	0xe9
 1628 09c8 04       		.byte	0x4
 1629 09c9 09       		.uleb128 0x9
 1630 09ca 26070000 		.4byte	.LASF147
 1631 09ce 10       		.byte	0x10
 1632 09cf A101     		.2byte	0x1a1
 1633 09d1 E9000000 		.4byte	0xe9
 1634 09d5 08       		.byte	0x8
 1635 09d6 09       		.uleb128 0x9
 1636 09d7 0D000000 		.4byte	.LASF148
 1637 09db 10       		.byte	0x10
 1638 09dc A201     		.2byte	0x1a2
 1639 09de E9000000 		.4byte	0xe9
 1640 09e2 0C       		.byte	0xc
 1641 09e3 08       		.uleb128 0x8
 1642 09e4 535200   		.ascii	"SR\000"
 1643 09e7 10       		.byte	0x10
 1644 09e8 A301     		.2byte	0x1a3
 1645 09ea E9000000 		.4byte	0xe9
 1646 09ee 10       		.byte	0x10
 1647 09ef 08       		.uleb128 0x8
 1648 09f0 45475200 		.ascii	"EGR\000"
 1649 09f4 10       		.byte	0x10
 1650 09f5 A401     		.2byte	0x1a4
ARM GAS  C:\Users\IDONNO~1.SON\AppData\Local\Temp\ccA7aZx0.s 			page 30


 1651 09f7 E9000000 		.4byte	0xe9
 1652 09fb 14       		.byte	0x14
 1653 09fc 09       		.uleb128 0x9
 1654 09fd 60020000 		.4byte	.LASF149
 1655 0a01 10       		.byte	0x10
 1656 0a02 A501     		.2byte	0x1a5
 1657 0a04 E9000000 		.4byte	0xe9
 1658 0a08 18       		.byte	0x18
 1659 0a09 09       		.uleb128 0x9
 1660 0a0a 66020000 		.4byte	.LASF150
 1661 0a0e 10       		.byte	0x10
 1662 0a0f A601     		.2byte	0x1a6
 1663 0a11 E9000000 		.4byte	0xe9
 1664 0a15 1C       		.byte	0x1c
 1665 0a16 09       		.uleb128 0x9
 1666 0a17 49070000 		.4byte	.LASF151
 1667 0a1b 10       		.byte	0x10
 1668 0a1c A701     		.2byte	0x1a7
 1669 0a1e E9000000 		.4byte	0xe9
 1670 0a22 20       		.byte	0x20
 1671 0a23 08       		.uleb128 0x8
 1672 0a24 434E5400 		.ascii	"CNT\000"
 1673 0a28 10       		.byte	0x10
 1674 0a29 A801     		.2byte	0x1a8
 1675 0a2b E9000000 		.4byte	0xe9
 1676 0a2f 24       		.byte	0x24
 1677 0a30 08       		.uleb128 0x8
 1678 0a31 50534300 		.ascii	"PSC\000"
 1679 0a35 10       		.byte	0x10
 1680 0a36 A901     		.2byte	0x1a9
 1681 0a38 E9000000 		.4byte	0xe9
 1682 0a3c 28       		.byte	0x28
 1683 0a3d 08       		.uleb128 0x8
 1684 0a3e 41525200 		.ascii	"ARR\000"
 1685 0a42 10       		.byte	0x10
 1686 0a43 AA01     		.2byte	0x1aa
 1687 0a45 E9000000 		.4byte	0xe9
 1688 0a49 2C       		.byte	0x2c
 1689 0a4a 08       		.uleb128 0x8
 1690 0a4b 52435200 		.ascii	"RCR\000"
 1691 0a4f 10       		.byte	0x10
 1692 0a50 AB01     		.2byte	0x1ab
 1693 0a52 E9000000 		.4byte	0xe9
 1694 0a56 30       		.byte	0x30
 1695 0a57 08       		.uleb128 0x8
 1696 0a58 43435200 		.ascii	"CCR\000"
 1697 0a5c 10       		.byte	0x10
 1698 0a5d AC01     		.2byte	0x1ac
 1699 0a5f B20A0000 		.4byte	0xab2
 1700 0a63 34       		.byte	0x34
 1701 0a64 09       		.uleb128 0x9
 1702 0a65 5F030000 		.4byte	.LASF152
 1703 0a69 10       		.byte	0x10
 1704 0a6a AD01     		.2byte	0x1ad
 1705 0a6c E9000000 		.4byte	0xe9
 1706 0a70 44       		.byte	0x44
 1707 0a71 08       		.uleb128 0x8
ARM GAS  C:\Users\IDONNO~1.SON\AppData\Local\Temp\ccA7aZx0.s 			page 31


 1708 0a72 44435200 		.ascii	"DCR\000"
 1709 0a76 10       		.byte	0x10
 1710 0a77 AE01     		.2byte	0x1ae
 1711 0a79 E9000000 		.4byte	0xe9
 1712 0a7d 48       		.byte	0x48
 1713 0a7e 09       		.uleb128 0x9
 1714 0a7f 32070000 		.4byte	.LASF153
 1715 0a83 10       		.byte	0x10
 1716 0a84 AF01     		.2byte	0x1af
 1717 0a86 E9000000 		.4byte	0xe9
 1718 0a8a 4C       		.byte	0x4c
 1719 0a8b 08       		.uleb128 0x8
 1720 0a8c 4F5200   		.ascii	"OR\000"
 1721 0a8f 10       		.byte	0x10
 1722 0a90 B001     		.2byte	0x1b0
 1723 0a92 E9000000 		.4byte	0xe9
 1724 0a96 50       		.byte	0x50
 1725 0a97 09       		.uleb128 0x9
 1726 0a98 6C020000 		.4byte	.LASF154
 1727 0a9c 10       		.byte	0x10
 1728 0a9d B101     		.2byte	0x1b1
 1729 0a9f E9000000 		.4byte	0xe9
 1730 0aa3 54       		.byte	0x54
 1731 0aa4 09       		.uleb128 0x9
 1732 0aa5 B3060000 		.4byte	.LASF155
 1733 0aa9 10       		.byte	0x10
 1734 0aaa B201     		.2byte	0x1b2
 1735 0aac B70A0000 		.4byte	0xab7
 1736 0ab0 58       		.byte	0x58
 1737 0ab1 00       		.byte	0
 1738 0ab2 05       		.uleb128 0x5
 1739 0ab3 B1040000 		.4byte	0x4b1
 1740 0ab7 05       		.uleb128 0x5
 1741 0ab8 A1040000 		.4byte	0x4a1
 1742 0abc 13       		.uleb128 0x13
 1743 0abd 79040000 		.4byte	.LASF156
 1744 0ac1 10       		.byte	0x10
 1745 0ac2 B301     		.2byte	0x1b3
 1746 0ac4 A6090000 		.4byte	0x9a6
 1747 0ac8 13       		.uleb128 0x13
 1748 0ac9 1A040000 		.4byte	.LASF157
 1749 0acd 0F       		.byte	0xf
 1750 0ace 6D01     		.2byte	0x16d
 1751 0ad0 CE000000 		.4byte	0xce
 1752 0ad4 13       		.uleb128 0x13
 1753 0ad5 D6020000 		.4byte	.LASF158
 1754 0ad9 0F       		.byte	0xf
 1755 0ada 7201     		.2byte	0x172
 1756 0adc CE000000 		.4byte	0xce
 1757 0ae0 12       		.uleb128 0x12
 1758 0ae1 10       		.byte	0x10
 1759 0ae2 0F       		.byte	0xf
 1760 0ae3 7801     		.2byte	0x178
 1761 0ae5 1E0B0000 		.4byte	0xb1e
 1762 0ae9 09       		.uleb128 0x9
 1763 0aea 34020000 		.4byte	.LASF159
 1764 0aee 0F       		.byte	0xf
ARM GAS  C:\Users\IDONNO~1.SON\AppData\Local\Temp\ccA7aZx0.s 			page 32


 1765 0aef 7E01     		.2byte	0x17e
 1766 0af1 C80A0000 		.4byte	0xac8
 1767 0af5 00       		.byte	0
 1768 0af6 09       		.uleb128 0x9
 1769 0af7 59040000 		.4byte	.LASF160
 1770 0afb 0F       		.byte	0xf
 1771 0afc 8501     		.2byte	0x185
 1772 0afe 84090000 		.4byte	0x984
 1773 0b02 04       		.byte	0x4
 1774 0b03 08       		.uleb128 0x8
 1775 0b04 63723200 		.ascii	"cr2\000"
 1776 0b08 0F       		.byte	0xf
 1777 0b09 8B01     		.2byte	0x18b
 1778 0b0b CE000000 		.4byte	0xce
 1779 0b0f 08       		.byte	0x8
 1780 0b10 09       		.uleb128 0x9
 1781 0b11 92080000 		.4byte	.LASF161
 1782 0b15 0F       		.byte	0xf
 1783 0b16 9101     		.2byte	0x191
 1784 0b18 CE000000 		.4byte	0xce
 1785 0b1c 0C       		.byte	0xc
 1786 0b1d 00       		.byte	0
 1787 0b1e 13       		.uleb128 0x13
 1788 0b1f 97070000 		.4byte	.LASF162
 1789 0b23 0F       		.byte	0xf
 1790 0b24 9201     		.2byte	0x192
 1791 0b26 E00A0000 		.4byte	0xae0
 1792 0b2a 0A       		.uleb128 0xa
 1793 0b2b 04       		.byte	0x4
 1794 0b2c 300B0000 		.4byte	0xb30
 1795 0b30 18       		.uleb128 0x18
 1796 0b31 1E0B0000 		.4byte	0xb1e
 1797 0b35 0A       		.uleb128 0xa
 1798 0b36 04       		.byte	0x4
 1799 0b37 BC0A0000 		.4byte	0xabc
 1800 0b3b 1B       		.uleb128 0x1b
 1801 0b3c 3A050000 		.4byte	.LASF180
 1802 0b40 01       		.byte	0x1
 1803 0b41 DB02     		.2byte	0x2db
 1804 0b43 01       		.byte	0x1
 1805 0b44 550B0000 		.4byte	0xb55
 1806 0b48 1C       		.uleb128 0x1c
 1807 0b49 04040000 		.4byte	.LASF163
 1808 0b4d 01       		.byte	0x1
 1809 0b4e DB02     		.2byte	0x2db
 1810 0b50 A0090000 		.4byte	0x9a0
 1811 0b54 00       		.byte	0
 1812 0b55 1D       		.uleb128 0x1d
 1813 0b56 A7050000 		.4byte	.LASF181
 1814 0b5a 01       		.byte	0x1
 1815 0b5b 92       		.byte	0x92
 1816 0b5c 01       		.byte	0x1
 1817 0b5d 6D0B0000 		.4byte	0xb6d
 1818 0b61 1E       		.uleb128 0x1e
 1819 0b62 04040000 		.4byte	.LASF163
 1820 0b66 01       		.byte	0x1
 1821 0b67 92       		.byte	0x92
ARM GAS  C:\Users\IDONNO~1.SON\AppData\Local\Temp\ccA7aZx0.s 			page 33


 1822 0b68 A0090000 		.4byte	0x9a0
 1823 0b6c 00       		.byte	0
 1824 0b6d 1F       		.uleb128 0x1f
 1825 0b6e 6F040000 		.4byte	.LASF164
 1826 0b72 01       		.byte	0x1
 1827 0b73 F5       		.byte	0xf5
 1828 0b74 00000000 		.4byte	.LFB257
 1829 0b78 34000000 		.4byte	.LFE257-.LFB257
 1830 0b7c 01       		.uleb128 0x1
 1831 0b7d 9C       		.byte	0x9c
 1832 0b7e D50B0000 		.4byte	0xbd5
 1833 0b82 20       		.uleb128 0x20
 1834 0b83 550B0000 		.4byte	0xb55
 1835 0b87 02000000 		.4byte	.LBB8
 1836 0b8b 26000000 		.4byte	.LBE8-.LBB8
 1837 0b8f 01       		.byte	0x1
 1838 0b90 F9       		.byte	0xf9
 1839 0b91 CB0B0000 		.4byte	0xbcb
 1840 0b95 21       		.uleb128 0x21
 1841 0b96 610B0000 		.4byte	0xb61
 1842 0b9a 00000000 		.4byte	.LLST0
 1843 0b9e 20       		.uleb128 0x20
 1844 0b9f 3B0B0000 		.4byte	0xb3b
 1845 0ba3 14000000 		.4byte	.LBB10
 1846 0ba7 0C000000 		.4byte	.LBE10-.LBB10
 1847 0bab 01       		.byte	0x1
 1848 0bac 97       		.byte	0x97
 1849 0bad BB0B0000 		.4byte	0xbbb
 1850 0bb1 21       		.uleb128 0x21
 1851 0bb2 480B0000 		.4byte	0xb48
 1852 0bb6 18000000 		.4byte	.LLST1
 1853 0bba 00       		.byte	0
 1854 0bbb 22       		.uleb128 0x22
 1855 0bbc 28000000 		.4byte	.LVL3
 1856 0bc0 23       		.uleb128 0x23
 1857 0bc1 01       		.uleb128 0x1
 1858 0bc2 50       		.byte	0x50
 1859 0bc3 05       		.uleb128 0x5
 1860 0bc4 03       		.byte	0x3
 1861 0bc5 00000000 		.4byte	.LANCHOR0
 1862 0bc9 00       		.byte	0
 1863 0bca 00       		.byte	0
 1864 0bcb 24       		.uleb128 0x24
 1865 0bcc 30000000 		.4byte	.LVL4
 1866 0bd0 510D0000 		.4byte	0xd51
 1867 0bd4 00       		.byte	0
 1868 0bd5 25       		.uleb128 0x25
 1869 0bd6 62040000 		.4byte	.LASF165
 1870 0bda 01       		.byte	0x1
 1871 0bdb 8D01     		.2byte	0x18d
 1872 0bdd 00000000 		.4byte	.LFB258
 1873 0be1 14000000 		.4byte	.LFE258-.LFB258
 1874 0be5 01       		.uleb128 0x1
 1875 0be6 9C       		.byte	0x9c
 1876 0be7 FF0B0000 		.4byte	0xbff
 1877 0beb 26       		.uleb128 0x26
 1878 0bec 0A000000 		.4byte	.LVL5
ARM GAS  C:\Users\IDONNO~1.SON\AppData\Local\Temp\ccA7aZx0.s 			page 34


 1879 0bf0 5D0D0000 		.4byte	0xd5d
 1880 0bf4 23       		.uleb128 0x23
 1881 0bf5 01       		.uleb128 0x1
 1882 0bf6 50       		.byte	0x50
 1883 0bf7 05       		.uleb128 0x5
 1884 0bf8 03       		.byte	0x3
 1885 0bf9 00000000 		.4byte	.LANCHOR0
 1886 0bfd 00       		.byte	0
 1887 0bfe 00       		.byte	0
 1888 0bff 25       		.uleb128 0x25
 1889 0c00 CD070000 		.4byte	.LASF166
 1890 0c04 01       		.byte	0x1
 1891 0c05 DF01     		.2byte	0x1df
 1892 0c07 00000000 		.4byte	.LFB259
 1893 0c0b 68000000 		.4byte	.LFE259-.LFB259
 1894 0c0f 01       		.uleb128 0x1
 1895 0c10 9C       		.byte	0x9c
 1896 0c11 540C0000 		.4byte	0xc54
 1897 0c15 27       		.uleb128 0x27
 1898 0c16 04040000 		.4byte	.LASF163
 1899 0c1a 01       		.byte	0x1
 1900 0c1b DF01     		.2byte	0x1df
 1901 0c1d A0090000 		.4byte	0x9a0
 1902 0c21 30000000 		.4byte	.LLST2
 1903 0c25 28       		.uleb128 0x28
 1904 0c26 70736300 		.ascii	"psc\000"
 1905 0c2a 01       		.byte	0x1
 1906 0c2b E001     		.2byte	0x1e0
 1907 0c2d B8000000 		.4byte	0xb8
 1908 0c31 72000000 		.4byte	.LLST3
 1909 0c35 29       		.uleb128 0x29
 1910 0c36 84060000 		.4byte	.LASF182
 1911 0c3a 640C0000 		.4byte	0xc64
 1912 0c3e 2A       		.uleb128 0x2a
 1913 0c3f 54000000 		.4byte	.LVL12
 1914 0c43 680D0000 		.4byte	0xd68
 1915 0c47 23       		.uleb128 0x23
 1916 0c48 01       		.uleb128 0x1
 1917 0c49 50       		.byte	0x50
 1918 0c4a 02       		.uleb128 0x2
 1919 0c4b 08       		.byte	0x8
 1920 0c4c 32       		.byte	0x32
 1921 0c4d 23       		.uleb128 0x23
 1922 0c4e 01       		.uleb128 0x1
 1923 0c4f 51       		.byte	0x51
 1924 0c50 01       		.uleb128 0x1
 1925 0c51 37       		.byte	0x37
 1926 0c52 00       		.byte	0
 1927 0c53 00       		.byte	0
 1928 0c54 10       		.uleb128 0x10
 1929 0c55 C4080000 		.4byte	0x8c4
 1930 0c59 640C0000 		.4byte	0xc64
 1931 0c5d 11       		.uleb128 0x11
 1932 0c5e 8A040000 		.4byte	0x48a
 1933 0c62 0D       		.byte	0xd
 1934 0c63 00       		.byte	0
 1935 0c64 18       		.uleb128 0x18
ARM GAS  C:\Users\IDONNO~1.SON\AppData\Local\Temp\ccA7aZx0.s 			page 35


 1936 0c65 540C0000 		.4byte	0xc54
 1937 0c69 25       		.uleb128 0x25
 1938 0c6a 1D080000 		.4byte	.LASF167
 1939 0c6e 01       		.byte	0x1
 1940 0c6f 6B02     		.2byte	0x26b
 1941 0c71 00000000 		.4byte	.LFB260
 1942 0c75 34000000 		.4byte	.LFE260-.LFB260
 1943 0c79 01       		.uleb128 0x1
 1944 0c7a 9C       		.byte	0x9c
 1945 0c7b A00C0000 		.4byte	0xca0
 1946 0c7f 27       		.uleb128 0x27
 1947 0c80 04040000 		.4byte	.LASF163
 1948 0c84 01       		.byte	0x1
 1949 0c85 6B02     		.2byte	0x26b
 1950 0c87 A0090000 		.4byte	0x9a0
 1951 0c8b 85000000 		.4byte	.LLST4
 1952 0c8f 2A       		.uleb128 0x2a
 1953 0c90 20000000 		.4byte	.LVL17
 1954 0c94 730D0000 		.4byte	0xd73
 1955 0c98 23       		.uleb128 0x23
 1956 0c99 01       		.uleb128 0x1
 1957 0c9a 50       		.byte	0x50
 1958 0c9b 02       		.uleb128 0x2
 1959 0c9c 08       		.byte	0x8
 1960 0c9d 32       		.byte	0x32
 1961 0c9e 00       		.byte	0
 1962 0c9f 00       		.byte	0
 1963 0ca0 25       		.uleb128 0x25
 1964 0ca1 88050000 		.4byte	.LASF168
 1965 0ca5 01       		.byte	0x1
 1966 0ca6 C502     		.2byte	0x2c5
 1967 0ca8 00000000 		.4byte	.LFB261
 1968 0cac 22000000 		.4byte	.LFE261-.LFB261
 1969 0cb0 01       		.uleb128 0x1
 1970 0cb1 9C       		.byte	0x9c
 1971 0cb2 D70C0000 		.4byte	0xcd7
 1972 0cb6 27       		.uleb128 0x27
 1973 0cb7 04040000 		.4byte	.LASF163
 1974 0cbb 01       		.byte	0x1
 1975 0cbc C502     		.2byte	0x2c5
 1976 0cbe A0090000 		.4byte	0x9a0
 1977 0cc2 BF000000 		.4byte	.LLST5
 1978 0cc6 27       		.uleb128 0x27
 1979 0cc7 2C030000 		.4byte	.LASF169
 1980 0ccb 01       		.byte	0x1
 1981 0ccc C502     		.2byte	0x2c5
 1982 0cce D40A0000 		.4byte	0xad4
 1983 0cd2 E0000000 		.4byte	.LLST6
 1984 0cd6 00       		.byte	0
 1985 0cd7 2B       		.uleb128 0x2b
 1986 0cd8 3B0B0000 		.4byte	0xb3b
 1987 0cdc 00000000 		.4byte	.LFB262
 1988 0ce0 12000000 		.4byte	.LFE262-.LFB262
 1989 0ce4 01       		.uleb128 0x1
 1990 0ce5 9C       		.byte	0x9c
 1991 0ce6 F20C0000 		.4byte	0xcf2
 1992 0cea 2C       		.uleb128 0x2c
ARM GAS  C:\Users\IDONNO~1.SON\AppData\Local\Temp\ccA7aZx0.s 			page 36


 1993 0ceb 480B0000 		.4byte	0xb48
 1994 0cef 01       		.uleb128 0x1
 1995 0cf0 50       		.byte	0x50
 1996 0cf1 00       		.byte	0
 1997 0cf2 25       		.uleb128 0x25
 1998 0cf3 08080000 		.4byte	.LASF170
 1999 0cf7 01       		.byte	0x1
 2000 0cf8 EF02     		.2byte	0x2ef
 2001 0cfa 00000000 		.4byte	.LFB263
 2002 0cfe 1A000000 		.4byte	.LFE263-.LFB263
 2003 0d02 01       		.uleb128 0x1
 2004 0d03 9C       		.byte	0x9c
 2005 0d04 290D0000 		.4byte	0xd29
 2006 0d08 27       		.uleb128 0x27
 2007 0d09 04040000 		.4byte	.LASF163
 2008 0d0d 01       		.byte	0x1
 2009 0d0e EF02     		.2byte	0x2ef
 2010 0d10 A0090000 		.4byte	0x9a0
 2011 0d14 1E010000 		.4byte	.LLST7
 2012 0d18 27       		.uleb128 0x27
 2013 0d19 2C030000 		.4byte	.LASF169
 2014 0d1d 01       		.byte	0x1
 2015 0d1e EF02     		.2byte	0x2ef
 2016 0d20 D40A0000 		.4byte	0xad4
 2017 0d24 3F010000 		.4byte	.LLST8
 2018 0d28 00       		.byte	0
 2019 0d29 2D       		.uleb128 0x2d
 2020 0d2a 21020000 		.4byte	.LASF171
 2021 0d2e 11       		.byte	0x11
 2022 0d2f A706     		.2byte	0x6a7
 2023 0d31 E4000000 		.4byte	0xe4
 2024 0d35 2E       		.uleb128 0x2e
 2025 0d36 636800   		.ascii	"ch\000"
 2026 0d39 07       		.byte	0x7
 2027 0d3a 0902     		.2byte	0x209
 2028 0d3c 23040000 		.4byte	0x423
 2029 0d40 2F       		.uleb128 0x2f
 2030 0d41 2E020000 		.4byte	.LASF172
 2031 0d45 01       		.byte	0x1
 2032 0d46 4A       		.byte	0x4a
 2033 0d47 37090000 		.4byte	0x937
 2034 0d4b 05       		.uleb128 0x5
 2035 0d4c 03       		.byte	0x3
 2036 0d4d 00000000 		.4byte	GPTD5
 2037 0d51 30       		.uleb128 0x30
 2038 0d52 46040000 		.4byte	.LASF173
 2039 0d56 46040000 		.4byte	.LASF173
 2040 0d5a 0A       		.byte	0xa
 2041 0d5b 6601     		.2byte	0x166
 2042 0d5d 31       		.uleb128 0x31
 2043 0d5e A1030000 		.4byte	.LASF174
 2044 0d62 A1030000 		.4byte	.LASF174
 2045 0d66 0E       		.byte	0xe
 2046 0d67 7A       		.byte	0x7a
 2047 0d68 31       		.uleb128 0x31
 2048 0d69 4F020000 		.4byte	.LASF175
 2049 0d6d 4F020000 		.4byte	.LASF175
ARM GAS  C:\Users\IDONNO~1.SON\AppData\Local\Temp\ccA7aZx0.s 			page 37


 2050 0d71 12       		.byte	0x12
 2051 0d72 4E       		.byte	0x4e
 2052 0d73 31       		.uleb128 0x31
 2053 0d74 AF030000 		.4byte	.LASF176
 2054 0d78 AF030000 		.4byte	.LASF176
 2055 0d7c 12       		.byte	0x12
 2056 0d7d 4F       		.byte	0x4f
 2057 0d7e 00       		.byte	0
 2058              		.section	.debug_abbrev,"",%progbits
 2059              	.Ldebug_abbrev0:
 2060 0000 01       		.uleb128 0x1
 2061 0001 11       		.uleb128 0x11
 2062 0002 01       		.byte	0x1
 2063 0003 25       		.uleb128 0x25
 2064 0004 0E       		.uleb128 0xe
 2065 0005 13       		.uleb128 0x13
 2066 0006 0B       		.uleb128 0xb
 2067 0007 03       		.uleb128 0x3
 2068 0008 0E       		.uleb128 0xe
 2069 0009 1B       		.uleb128 0x1b
 2070 000a 0E       		.uleb128 0xe
 2071 000b 55       		.uleb128 0x55
 2072 000c 17       		.uleb128 0x17
 2073 000d 11       		.uleb128 0x11
 2074 000e 01       		.uleb128 0x1
 2075 000f 10       		.uleb128 0x10
 2076 0010 17       		.uleb128 0x17
 2077 0011 00       		.byte	0
 2078 0012 00       		.byte	0
 2079 0013 02       		.uleb128 0x2
 2080 0014 24       		.uleb128 0x24
 2081 0015 00       		.byte	0
 2082 0016 0B       		.uleb128 0xb
 2083 0017 0B       		.uleb128 0xb
 2084 0018 3E       		.uleb128 0x3e
 2085 0019 0B       		.uleb128 0xb
 2086 001a 03       		.uleb128 0x3
 2087 001b 08       		.uleb128 0x8
 2088 001c 00       		.byte	0
 2089 001d 00       		.byte	0
 2090 001e 03       		.uleb128 0x3
 2091 001f 16       		.uleb128 0x16
 2092 0020 00       		.byte	0
 2093 0021 03       		.uleb128 0x3
 2094 0022 0E       		.uleb128 0xe
 2095 0023 3A       		.uleb128 0x3a
 2096 0024 0B       		.uleb128 0xb
 2097 0025 3B       		.uleb128 0x3b
 2098 0026 0B       		.uleb128 0xb
 2099 0027 49       		.uleb128 0x49
 2100 0028 13       		.uleb128 0x13
 2101 0029 00       		.byte	0
 2102 002a 00       		.byte	0
 2103 002b 04       		.uleb128 0x4
 2104 002c 24       		.uleb128 0x24
 2105 002d 00       		.byte	0
 2106 002e 0B       		.uleb128 0xb
ARM GAS  C:\Users\IDONNO~1.SON\AppData\Local\Temp\ccA7aZx0.s 			page 38


 2107 002f 0B       		.uleb128 0xb
 2108 0030 3E       		.uleb128 0x3e
 2109 0031 0B       		.uleb128 0xb
 2110 0032 03       		.uleb128 0x3
 2111 0033 0E       		.uleb128 0xe
 2112 0034 00       		.byte	0
 2113 0035 00       		.byte	0
 2114 0036 05       		.uleb128 0x5
 2115 0037 35       		.uleb128 0x35
 2116 0038 00       		.byte	0
 2117 0039 49       		.uleb128 0x49
 2118 003a 13       		.uleb128 0x13
 2119 003b 00       		.byte	0
 2120 003c 00       		.byte	0
 2121 003d 06       		.uleb128 0x6
 2122 003e 13       		.uleb128 0x13
 2123 003f 01       		.byte	0x1
 2124 0040 03       		.uleb128 0x3
 2125 0041 0E       		.uleb128 0xe
 2126 0042 0B       		.uleb128 0xb
 2127 0043 0B       		.uleb128 0xb
 2128 0044 3A       		.uleb128 0x3a
 2129 0045 0B       		.uleb128 0xb
 2130 0046 3B       		.uleb128 0x3b
 2131 0047 0B       		.uleb128 0xb
 2132 0048 01       		.uleb128 0x1
 2133 0049 13       		.uleb128 0x13
 2134 004a 00       		.byte	0
 2135 004b 00       		.byte	0
 2136 004c 07       		.uleb128 0x7
 2137 004d 0D       		.uleb128 0xd
 2138 004e 00       		.byte	0
 2139 004f 03       		.uleb128 0x3
 2140 0050 0E       		.uleb128 0xe
 2141 0051 3A       		.uleb128 0x3a
 2142 0052 0B       		.uleb128 0xb
 2143 0053 3B       		.uleb128 0x3b
 2144 0054 0B       		.uleb128 0xb
 2145 0055 49       		.uleb128 0x49
 2146 0056 13       		.uleb128 0x13
 2147 0057 38       		.uleb128 0x38
 2148 0058 0B       		.uleb128 0xb
 2149 0059 00       		.byte	0
 2150 005a 00       		.byte	0
 2151 005b 08       		.uleb128 0x8
 2152 005c 0D       		.uleb128 0xd
 2153 005d 00       		.byte	0
 2154 005e 03       		.uleb128 0x3
 2155 005f 08       		.uleb128 0x8
 2156 0060 3A       		.uleb128 0x3a
 2157 0061 0B       		.uleb128 0xb
 2158 0062 3B       		.uleb128 0x3b
 2159 0063 05       		.uleb128 0x5
 2160 0064 49       		.uleb128 0x49
 2161 0065 13       		.uleb128 0x13
 2162 0066 38       		.uleb128 0x38
 2163 0067 0B       		.uleb128 0xb
ARM GAS  C:\Users\IDONNO~1.SON\AppData\Local\Temp\ccA7aZx0.s 			page 39


 2164 0068 00       		.byte	0
 2165 0069 00       		.byte	0
 2166 006a 09       		.uleb128 0x9
 2167 006b 0D       		.uleb128 0xd
 2168 006c 00       		.byte	0
 2169 006d 03       		.uleb128 0x3
 2170 006e 0E       		.uleb128 0xe
 2171 006f 3A       		.uleb128 0x3a
 2172 0070 0B       		.uleb128 0xb
 2173 0071 3B       		.uleb128 0x3b
 2174 0072 05       		.uleb128 0x5
 2175 0073 49       		.uleb128 0x49
 2176 0074 13       		.uleb128 0x13
 2177 0075 38       		.uleb128 0x38
 2178 0076 0B       		.uleb128 0xb
 2179 0077 00       		.byte	0
 2180 0078 00       		.byte	0
 2181 0079 0A       		.uleb128 0xa
 2182 007a 0F       		.uleb128 0xf
 2183 007b 00       		.byte	0
 2184 007c 0B       		.uleb128 0xb
 2185 007d 0B       		.uleb128 0xb
 2186 007e 49       		.uleb128 0x49
 2187 007f 13       		.uleb128 0x13
 2188 0080 00       		.byte	0
 2189 0081 00       		.byte	0
 2190 0082 0B       		.uleb128 0xb
 2191 0083 13       		.uleb128 0x13
 2192 0084 01       		.byte	0x1
 2193 0085 03       		.uleb128 0x3
 2194 0086 0E       		.uleb128 0xe
 2195 0087 0B       		.uleb128 0xb
 2196 0088 0B       		.uleb128 0xb
 2197 0089 3A       		.uleb128 0x3a
 2198 008a 0B       		.uleb128 0xb
 2199 008b 3B       		.uleb128 0x3b
 2200 008c 05       		.uleb128 0x5
 2201 008d 01       		.uleb128 0x1
 2202 008e 13       		.uleb128 0x13
 2203 008f 00       		.byte	0
 2204 0090 00       		.byte	0
 2205 0091 0C       		.uleb128 0xc
 2206 0092 15       		.uleb128 0x15
 2207 0093 01       		.byte	0x1
 2208 0094 27       		.uleb128 0x27
 2209 0095 19       		.uleb128 0x19
 2210 0096 01       		.uleb128 0x1
 2211 0097 13       		.uleb128 0x13
 2212 0098 00       		.byte	0
 2213 0099 00       		.byte	0
 2214 009a 0D       		.uleb128 0xd
 2215 009b 05       		.uleb128 0x5
 2216 009c 00       		.byte	0
 2217 009d 49       		.uleb128 0x49
 2218 009e 13       		.uleb128 0x13
 2219 009f 00       		.byte	0
 2220 00a0 00       		.byte	0
ARM GAS  C:\Users\IDONNO~1.SON\AppData\Local\Temp\ccA7aZx0.s 			page 40


 2221 00a1 0E       		.uleb128 0xe
 2222 00a2 0F       		.uleb128 0xf
 2223 00a3 00       		.byte	0
 2224 00a4 0B       		.uleb128 0xb
 2225 00a5 0B       		.uleb128 0xb
 2226 00a6 00       		.byte	0
 2227 00a7 00       		.byte	0
 2228 00a8 0F       		.uleb128 0xf
 2229 00a9 13       		.uleb128 0x13
 2230 00aa 01       		.byte	0x1
 2231 00ab 03       		.uleb128 0x3
 2232 00ac 0E       		.uleb128 0xe
 2233 00ad 0B       		.uleb128 0xb
 2234 00ae 05       		.uleb128 0x5
 2235 00af 3A       		.uleb128 0x3a
 2236 00b0 0B       		.uleb128 0xb
 2237 00b1 3B       		.uleb128 0x3b
 2238 00b2 05       		.uleb128 0x5
 2239 00b3 01       		.uleb128 0x1
 2240 00b4 13       		.uleb128 0x13
 2241 00b5 00       		.byte	0
 2242 00b6 00       		.byte	0
 2243 00b7 10       		.uleb128 0x10
 2244 00b8 01       		.uleb128 0x1
 2245 00b9 01       		.byte	0x1
 2246 00ba 49       		.uleb128 0x49
 2247 00bb 13       		.uleb128 0x13
 2248 00bc 01       		.uleb128 0x1
 2249 00bd 13       		.uleb128 0x13
 2250 00be 00       		.byte	0
 2251 00bf 00       		.byte	0
 2252 00c0 11       		.uleb128 0x11
 2253 00c1 21       		.uleb128 0x21
 2254 00c2 00       		.byte	0
 2255 00c3 49       		.uleb128 0x49
 2256 00c4 13       		.uleb128 0x13
 2257 00c5 2F       		.uleb128 0x2f
 2258 00c6 0B       		.uleb128 0xb
 2259 00c7 00       		.byte	0
 2260 00c8 00       		.byte	0
 2261 00c9 12       		.uleb128 0x12
 2262 00ca 13       		.uleb128 0x13
 2263 00cb 01       		.byte	0x1
 2264 00cc 0B       		.uleb128 0xb
 2265 00cd 0B       		.uleb128 0xb
 2266 00ce 3A       		.uleb128 0x3a
 2267 00cf 0B       		.uleb128 0xb
 2268 00d0 3B       		.uleb128 0x3b
 2269 00d1 05       		.uleb128 0x5
 2270 00d2 01       		.uleb128 0x1
 2271 00d3 13       		.uleb128 0x13
 2272 00d4 00       		.byte	0
 2273 00d5 00       		.byte	0
 2274 00d6 13       		.uleb128 0x13
 2275 00d7 16       		.uleb128 0x16
 2276 00d8 00       		.byte	0
 2277 00d9 03       		.uleb128 0x3
ARM GAS  C:\Users\IDONNO~1.SON\AppData\Local\Temp\ccA7aZx0.s 			page 41


 2278 00da 0E       		.uleb128 0xe
 2279 00db 3A       		.uleb128 0x3a
 2280 00dc 0B       		.uleb128 0xb
 2281 00dd 3B       		.uleb128 0x3b
 2282 00de 05       		.uleb128 0x5
 2283 00df 49       		.uleb128 0x49
 2284 00e0 13       		.uleb128 0x13
 2285 00e1 00       		.byte	0
 2286 00e2 00       		.byte	0
 2287 00e3 14       		.uleb128 0x14
 2288 00e4 0D       		.uleb128 0xd
 2289 00e5 00       		.byte	0
 2290 00e6 03       		.uleb128 0x3
 2291 00e7 08       		.uleb128 0x8
 2292 00e8 3A       		.uleb128 0x3a
 2293 00e9 0B       		.uleb128 0xb
 2294 00ea 3B       		.uleb128 0x3b
 2295 00eb 0B       		.uleb128 0xb
 2296 00ec 49       		.uleb128 0x49
 2297 00ed 13       		.uleb128 0x13
 2298 00ee 38       		.uleb128 0x38
 2299 00ef 0B       		.uleb128 0xb
 2300 00f0 00       		.byte	0
 2301 00f1 00       		.byte	0
 2302 00f2 15       		.uleb128 0x15
 2303 00f3 13       		.uleb128 0x13
 2304 00f4 01       		.byte	0x1
 2305 00f5 0B       		.uleb128 0xb
 2306 00f6 0B       		.uleb128 0xb
 2307 00f7 3A       		.uleb128 0x3a
 2308 00f8 0B       		.uleb128 0xb
 2309 00f9 3B       		.uleb128 0x3b
 2310 00fa 0B       		.uleb128 0xb
 2311 00fb 01       		.uleb128 0x1
 2312 00fc 13       		.uleb128 0x13
 2313 00fd 00       		.byte	0
 2314 00fe 00       		.byte	0
 2315 00ff 16       		.uleb128 0x16
 2316 0100 17       		.uleb128 0x17
 2317 0101 01       		.byte	0x1
 2318 0102 0B       		.uleb128 0xb
 2319 0103 0B       		.uleb128 0xb
 2320 0104 3A       		.uleb128 0x3a
 2321 0105 0B       		.uleb128 0xb
 2322 0106 3B       		.uleb128 0x3b
 2323 0107 0B       		.uleb128 0xb
 2324 0108 01       		.uleb128 0x1
 2325 0109 13       		.uleb128 0x13
 2326 010a 00       		.byte	0
 2327 010b 00       		.byte	0
 2328 010c 17       		.uleb128 0x17
 2329 010d 0D       		.uleb128 0xd
 2330 010e 00       		.byte	0
 2331 010f 03       		.uleb128 0x3
 2332 0110 0E       		.uleb128 0xe
 2333 0111 3A       		.uleb128 0x3a
 2334 0112 0B       		.uleb128 0xb
ARM GAS  C:\Users\IDONNO~1.SON\AppData\Local\Temp\ccA7aZx0.s 			page 42


 2335 0113 3B       		.uleb128 0x3b
 2336 0114 05       		.uleb128 0x5
 2337 0115 49       		.uleb128 0x49
 2338 0116 13       		.uleb128 0x13
 2339 0117 00       		.byte	0
 2340 0118 00       		.byte	0
 2341 0119 18       		.uleb128 0x18
 2342 011a 26       		.uleb128 0x26
 2343 011b 00       		.byte	0
 2344 011c 49       		.uleb128 0x49
 2345 011d 13       		.uleb128 0x13
 2346 011e 00       		.byte	0
 2347 011f 00       		.byte	0
 2348 0120 19       		.uleb128 0x19
 2349 0121 04       		.uleb128 0x4
 2350 0122 01       		.byte	0x1
 2351 0123 0B       		.uleb128 0xb
 2352 0124 0B       		.uleb128 0xb
 2353 0125 49       		.uleb128 0x49
 2354 0126 13       		.uleb128 0x13
 2355 0127 3A       		.uleb128 0x3a
 2356 0128 0B       		.uleb128 0xb
 2357 0129 3B       		.uleb128 0x3b
 2358 012a 0B       		.uleb128 0xb
 2359 012b 01       		.uleb128 0x1
 2360 012c 13       		.uleb128 0x13
 2361 012d 00       		.byte	0
 2362 012e 00       		.byte	0
 2363 012f 1A       		.uleb128 0x1a
 2364 0130 28       		.uleb128 0x28
 2365 0131 00       		.byte	0
 2366 0132 03       		.uleb128 0x3
 2367 0133 0E       		.uleb128 0xe
 2368 0134 1C       		.uleb128 0x1c
 2369 0135 0B       		.uleb128 0xb
 2370 0136 00       		.byte	0
 2371 0137 00       		.byte	0
 2372 0138 1B       		.uleb128 0x1b
 2373 0139 2E       		.uleb128 0x2e
 2374 013a 01       		.byte	0x1
 2375 013b 3F       		.uleb128 0x3f
 2376 013c 19       		.uleb128 0x19
 2377 013d 03       		.uleb128 0x3
 2378 013e 0E       		.uleb128 0xe
 2379 013f 3A       		.uleb128 0x3a
 2380 0140 0B       		.uleb128 0xb
 2381 0141 3B       		.uleb128 0x3b
 2382 0142 05       		.uleb128 0x5
 2383 0143 27       		.uleb128 0x27
 2384 0144 19       		.uleb128 0x19
 2385 0145 20       		.uleb128 0x20
 2386 0146 0B       		.uleb128 0xb
 2387 0147 01       		.uleb128 0x1
 2388 0148 13       		.uleb128 0x13
 2389 0149 00       		.byte	0
 2390 014a 00       		.byte	0
 2391 014b 1C       		.uleb128 0x1c
ARM GAS  C:\Users\IDONNO~1.SON\AppData\Local\Temp\ccA7aZx0.s 			page 43


 2392 014c 05       		.uleb128 0x5
 2393 014d 00       		.byte	0
 2394 014e 03       		.uleb128 0x3
 2395 014f 0E       		.uleb128 0xe
 2396 0150 3A       		.uleb128 0x3a
 2397 0151 0B       		.uleb128 0xb
 2398 0152 3B       		.uleb128 0x3b
 2399 0153 05       		.uleb128 0x5
 2400 0154 49       		.uleb128 0x49
 2401 0155 13       		.uleb128 0x13
 2402 0156 00       		.byte	0
 2403 0157 00       		.byte	0
 2404 0158 1D       		.uleb128 0x1d
 2405 0159 2E       		.uleb128 0x2e
 2406 015a 01       		.byte	0x1
 2407 015b 03       		.uleb128 0x3
 2408 015c 0E       		.uleb128 0xe
 2409 015d 3A       		.uleb128 0x3a
 2410 015e 0B       		.uleb128 0xb
 2411 015f 3B       		.uleb128 0x3b
 2412 0160 0B       		.uleb128 0xb
 2413 0161 27       		.uleb128 0x27
 2414 0162 19       		.uleb128 0x19
 2415 0163 20       		.uleb128 0x20
 2416 0164 0B       		.uleb128 0xb
 2417 0165 01       		.uleb128 0x1
 2418 0166 13       		.uleb128 0x13
 2419 0167 00       		.byte	0
 2420 0168 00       		.byte	0
 2421 0169 1E       		.uleb128 0x1e
 2422 016a 05       		.uleb128 0x5
 2423 016b 00       		.byte	0
 2424 016c 03       		.uleb128 0x3
 2425 016d 0E       		.uleb128 0xe
 2426 016e 3A       		.uleb128 0x3a
 2427 016f 0B       		.uleb128 0xb
 2428 0170 3B       		.uleb128 0x3b
 2429 0171 0B       		.uleb128 0xb
 2430 0172 49       		.uleb128 0x49
 2431 0173 13       		.uleb128 0x13
 2432 0174 00       		.byte	0
 2433 0175 00       		.byte	0
 2434 0176 1F       		.uleb128 0x1f
 2435 0177 2E       		.uleb128 0x2e
 2436 0178 01       		.byte	0x1
 2437 0179 3F       		.uleb128 0x3f
 2438 017a 19       		.uleb128 0x19
 2439 017b 03       		.uleb128 0x3
 2440 017c 0E       		.uleb128 0xe
 2441 017d 3A       		.uleb128 0x3a
 2442 017e 0B       		.uleb128 0xb
 2443 017f 3B       		.uleb128 0x3b
 2444 0180 0B       		.uleb128 0xb
 2445 0181 27       		.uleb128 0x27
 2446 0182 19       		.uleb128 0x19
 2447 0183 11       		.uleb128 0x11
 2448 0184 01       		.uleb128 0x1
ARM GAS  C:\Users\IDONNO~1.SON\AppData\Local\Temp\ccA7aZx0.s 			page 44


 2449 0185 12       		.uleb128 0x12
 2450 0186 06       		.uleb128 0x6
 2451 0187 40       		.uleb128 0x40
 2452 0188 18       		.uleb128 0x18
 2453 0189 9742     		.uleb128 0x2117
 2454 018b 19       		.uleb128 0x19
 2455 018c 01       		.uleb128 0x1
 2456 018d 13       		.uleb128 0x13
 2457 018e 00       		.byte	0
 2458 018f 00       		.byte	0
 2459 0190 20       		.uleb128 0x20
 2460 0191 1D       		.uleb128 0x1d
 2461 0192 01       		.byte	0x1
 2462 0193 31       		.uleb128 0x31
 2463 0194 13       		.uleb128 0x13
 2464 0195 11       		.uleb128 0x11
 2465 0196 01       		.uleb128 0x1
 2466 0197 12       		.uleb128 0x12
 2467 0198 06       		.uleb128 0x6
 2468 0199 58       		.uleb128 0x58
 2469 019a 0B       		.uleb128 0xb
 2470 019b 59       		.uleb128 0x59
 2471 019c 0B       		.uleb128 0xb
 2472 019d 01       		.uleb128 0x1
 2473 019e 13       		.uleb128 0x13
 2474 019f 00       		.byte	0
 2475 01a0 00       		.byte	0
 2476 01a1 21       		.uleb128 0x21
 2477 01a2 05       		.uleb128 0x5
 2478 01a3 00       		.byte	0
 2479 01a4 31       		.uleb128 0x31
 2480 01a5 13       		.uleb128 0x13
 2481 01a6 02       		.uleb128 0x2
 2482 01a7 17       		.uleb128 0x17
 2483 01a8 00       		.byte	0
 2484 01a9 00       		.byte	0
 2485 01aa 22       		.uleb128 0x22
 2486 01ab 898201   		.uleb128 0x4109
 2487 01ae 01       		.byte	0x1
 2488 01af 11       		.uleb128 0x11
 2489 01b0 01       		.uleb128 0x1
 2490 01b1 00       		.byte	0
 2491 01b2 00       		.byte	0
 2492 01b3 23       		.uleb128 0x23
 2493 01b4 8A8201   		.uleb128 0x410a
 2494 01b7 00       		.byte	0
 2495 01b8 02       		.uleb128 0x2
 2496 01b9 18       		.uleb128 0x18
 2497 01ba 9142     		.uleb128 0x2111
 2498 01bc 18       		.uleb128 0x18
 2499 01bd 00       		.byte	0
 2500 01be 00       		.byte	0
 2501 01bf 24       		.uleb128 0x24
 2502 01c0 898201   		.uleb128 0x4109
 2503 01c3 00       		.byte	0
 2504 01c4 11       		.uleb128 0x11
 2505 01c5 01       		.uleb128 0x1
ARM GAS  C:\Users\IDONNO~1.SON\AppData\Local\Temp\ccA7aZx0.s 			page 45


 2506 01c6 9542     		.uleb128 0x2115
 2507 01c8 19       		.uleb128 0x19
 2508 01c9 31       		.uleb128 0x31
 2509 01ca 13       		.uleb128 0x13
 2510 01cb 00       		.byte	0
 2511 01cc 00       		.byte	0
 2512 01cd 25       		.uleb128 0x25
 2513 01ce 2E       		.uleb128 0x2e
 2514 01cf 01       		.byte	0x1
 2515 01d0 3F       		.uleb128 0x3f
 2516 01d1 19       		.uleb128 0x19
 2517 01d2 03       		.uleb128 0x3
 2518 01d3 0E       		.uleb128 0xe
 2519 01d4 3A       		.uleb128 0x3a
 2520 01d5 0B       		.uleb128 0xb
 2521 01d6 3B       		.uleb128 0x3b
 2522 01d7 05       		.uleb128 0x5
 2523 01d8 27       		.uleb128 0x27
 2524 01d9 19       		.uleb128 0x19
 2525 01da 11       		.uleb128 0x11
 2526 01db 01       		.uleb128 0x1
 2527 01dc 12       		.uleb128 0x12
 2528 01dd 06       		.uleb128 0x6
 2529 01de 40       		.uleb128 0x40
 2530 01df 18       		.uleb128 0x18
 2531 01e0 9742     		.uleb128 0x2117
 2532 01e2 19       		.uleb128 0x19
 2533 01e3 01       		.uleb128 0x1
 2534 01e4 13       		.uleb128 0x13
 2535 01e5 00       		.byte	0
 2536 01e6 00       		.byte	0
 2537 01e7 26       		.uleb128 0x26
 2538 01e8 898201   		.uleb128 0x4109
 2539 01eb 01       		.byte	0x1
 2540 01ec 11       		.uleb128 0x11
 2541 01ed 01       		.uleb128 0x1
 2542 01ee 9542     		.uleb128 0x2115
 2543 01f0 19       		.uleb128 0x19
 2544 01f1 31       		.uleb128 0x31
 2545 01f2 13       		.uleb128 0x13
 2546 01f3 00       		.byte	0
 2547 01f4 00       		.byte	0
 2548 01f5 27       		.uleb128 0x27
 2549 01f6 05       		.uleb128 0x5
 2550 01f7 00       		.byte	0
 2551 01f8 03       		.uleb128 0x3
 2552 01f9 0E       		.uleb128 0xe
 2553 01fa 3A       		.uleb128 0x3a
 2554 01fb 0B       		.uleb128 0xb
 2555 01fc 3B       		.uleb128 0x3b
 2556 01fd 05       		.uleb128 0x5
 2557 01fe 49       		.uleb128 0x49
 2558 01ff 13       		.uleb128 0x13
 2559 0200 02       		.uleb128 0x2
 2560 0201 17       		.uleb128 0x17
 2561 0202 00       		.byte	0
 2562 0203 00       		.byte	0
ARM GAS  C:\Users\IDONNO~1.SON\AppData\Local\Temp\ccA7aZx0.s 			page 46


 2563 0204 28       		.uleb128 0x28
 2564 0205 34       		.uleb128 0x34
 2565 0206 00       		.byte	0
 2566 0207 03       		.uleb128 0x3
 2567 0208 08       		.uleb128 0x8
 2568 0209 3A       		.uleb128 0x3a
 2569 020a 0B       		.uleb128 0xb
 2570 020b 3B       		.uleb128 0x3b
 2571 020c 05       		.uleb128 0x5
 2572 020d 49       		.uleb128 0x49
 2573 020e 13       		.uleb128 0x13
 2574 020f 02       		.uleb128 0x2
 2575 0210 17       		.uleb128 0x17
 2576 0211 00       		.byte	0
 2577 0212 00       		.byte	0
 2578 0213 29       		.uleb128 0x29
 2579 0214 34       		.uleb128 0x34
 2580 0215 00       		.byte	0
 2581 0216 03       		.uleb128 0x3
 2582 0217 0E       		.uleb128 0xe
 2583 0218 49       		.uleb128 0x49
 2584 0219 13       		.uleb128 0x13
 2585 021a 34       		.uleb128 0x34
 2586 021b 19       		.uleb128 0x19
 2587 021c 00       		.byte	0
 2588 021d 00       		.byte	0
 2589 021e 2A       		.uleb128 0x2a
 2590 021f 898201   		.uleb128 0x4109
 2591 0222 01       		.byte	0x1
 2592 0223 11       		.uleb128 0x11
 2593 0224 01       		.uleb128 0x1
 2594 0225 31       		.uleb128 0x31
 2595 0226 13       		.uleb128 0x13
 2596 0227 00       		.byte	0
 2597 0228 00       		.byte	0
 2598 0229 2B       		.uleb128 0x2b
 2599 022a 2E       		.uleb128 0x2e
 2600 022b 01       		.byte	0x1
 2601 022c 31       		.uleb128 0x31
 2602 022d 13       		.uleb128 0x13
 2603 022e 11       		.uleb128 0x11
 2604 022f 01       		.uleb128 0x1
 2605 0230 12       		.uleb128 0x12
 2606 0231 06       		.uleb128 0x6
 2607 0232 40       		.uleb128 0x40
 2608 0233 18       		.uleb128 0x18
 2609 0234 9742     		.uleb128 0x2117
 2610 0236 19       		.uleb128 0x19
 2611 0237 01       		.uleb128 0x1
 2612 0238 13       		.uleb128 0x13
 2613 0239 00       		.byte	0
 2614 023a 00       		.byte	0
 2615 023b 2C       		.uleb128 0x2c
 2616 023c 05       		.uleb128 0x5
 2617 023d 00       		.byte	0
 2618 023e 31       		.uleb128 0x31
 2619 023f 13       		.uleb128 0x13
ARM GAS  C:\Users\IDONNO~1.SON\AppData\Local\Temp\ccA7aZx0.s 			page 47


 2620 0240 02       		.uleb128 0x2
 2621 0241 18       		.uleb128 0x18
 2622 0242 00       		.byte	0
 2623 0243 00       		.byte	0
 2624 0244 2D       		.uleb128 0x2d
 2625 0245 34       		.uleb128 0x34
 2626 0246 00       		.byte	0
 2627 0247 03       		.uleb128 0x3
 2628 0248 0E       		.uleb128 0xe
 2629 0249 3A       		.uleb128 0x3a
 2630 024a 0B       		.uleb128 0xb
 2631 024b 3B       		.uleb128 0x3b
 2632 024c 05       		.uleb128 0x5
 2633 024d 49       		.uleb128 0x49
 2634 024e 13       		.uleb128 0x13
 2635 024f 3F       		.uleb128 0x3f
 2636 0250 19       		.uleb128 0x19
 2637 0251 3C       		.uleb128 0x3c
 2638 0252 19       		.uleb128 0x19
 2639 0253 00       		.byte	0
 2640 0254 00       		.byte	0
 2641 0255 2E       		.uleb128 0x2e
 2642 0256 34       		.uleb128 0x34
 2643 0257 00       		.byte	0
 2644 0258 03       		.uleb128 0x3
 2645 0259 08       		.uleb128 0x8
 2646 025a 3A       		.uleb128 0x3a
 2647 025b 0B       		.uleb128 0xb
 2648 025c 3B       		.uleb128 0x3b
 2649 025d 05       		.uleb128 0x5
 2650 025e 49       		.uleb128 0x49
 2651 025f 13       		.uleb128 0x13
 2652 0260 3F       		.uleb128 0x3f
 2653 0261 19       		.uleb128 0x19
 2654 0262 3C       		.uleb128 0x3c
 2655 0263 19       		.uleb128 0x19
 2656 0264 00       		.byte	0
 2657 0265 00       		.byte	0
 2658 0266 2F       		.uleb128 0x2f
 2659 0267 34       		.uleb128 0x34
 2660 0268 00       		.byte	0
 2661 0269 03       		.uleb128 0x3
 2662 026a 0E       		.uleb128 0xe
 2663 026b 3A       		.uleb128 0x3a
 2664 026c 0B       		.uleb128 0xb
 2665 026d 3B       		.uleb128 0x3b
 2666 026e 0B       		.uleb128 0xb
 2667 026f 49       		.uleb128 0x49
 2668 0270 13       		.uleb128 0x13
 2669 0271 3F       		.uleb128 0x3f
 2670 0272 19       		.uleb128 0x19
 2671 0273 02       		.uleb128 0x2
 2672 0274 18       		.uleb128 0x18
 2673 0275 00       		.byte	0
 2674 0276 00       		.byte	0
 2675 0277 30       		.uleb128 0x30
 2676 0278 2E       		.uleb128 0x2e
ARM GAS  C:\Users\IDONNO~1.SON\AppData\Local\Temp\ccA7aZx0.s 			page 48


 2677 0279 00       		.byte	0
 2678 027a 3F       		.uleb128 0x3f
 2679 027b 19       		.uleb128 0x19
 2680 027c 3C       		.uleb128 0x3c
 2681 027d 19       		.uleb128 0x19
 2682 027e 6E       		.uleb128 0x6e
 2683 027f 0E       		.uleb128 0xe
 2684 0280 03       		.uleb128 0x3
 2685 0281 0E       		.uleb128 0xe
 2686 0282 3A       		.uleb128 0x3a
 2687 0283 0B       		.uleb128 0xb
 2688 0284 3B       		.uleb128 0x3b
 2689 0285 05       		.uleb128 0x5
 2690 0286 00       		.byte	0
 2691 0287 00       		.byte	0
 2692 0288 31       		.uleb128 0x31
 2693 0289 2E       		.uleb128 0x2e
 2694 028a 00       		.byte	0
 2695 028b 3F       		.uleb128 0x3f
 2696 028c 19       		.uleb128 0x19
 2697 028d 3C       		.uleb128 0x3c
 2698 028e 19       		.uleb128 0x19
 2699 028f 6E       		.uleb128 0x6e
 2700 0290 0E       		.uleb128 0xe
 2701 0291 03       		.uleb128 0x3
 2702 0292 0E       		.uleb128 0xe
 2703 0293 3A       		.uleb128 0x3a
 2704 0294 0B       		.uleb128 0xb
 2705 0295 3B       		.uleb128 0x3b
 2706 0296 0B       		.uleb128 0xb
 2707 0297 00       		.byte	0
 2708 0298 00       		.byte	0
 2709 0299 00       		.byte	0
 2710              		.section	.debug_loc,"",%progbits
 2711              	.Ldebug_loc0:
 2712              	.LLST0:
 2713 0000 00000000 		.4byte	.LVL0
 2714 0004 28000000 		.4byte	.LVL3
 2715 0008 0600     		.2byte	0x6
 2716 000a 03       		.byte	0x3
 2717 000b 00000000 		.4byte	GPTD5
 2718 000f 9F       		.byte	0x9f
 2719 0010 00000000 		.4byte	0
 2720 0014 00000000 		.4byte	0
 2721              	.LLST1:
 2722 0018 14000000 		.4byte	.LVL1
 2723 001c 20000000 		.4byte	.LVL2
 2724 0020 0600     		.2byte	0x6
 2725 0022 03       		.byte	0x3
 2726 0023 00000000 		.4byte	GPTD5
 2727 0027 9F       		.byte	0x9f
 2728 0028 00000000 		.4byte	0
 2729 002c 00000000 		.4byte	0
 2730              	.LLST2:
 2731 0030 00000000 		.4byte	.LVL6
 2732 0034 0A000000 		.4byte	.LVL7
 2733 0038 0100     		.2byte	0x1
ARM GAS  C:\Users\IDONNO~1.SON\AppData\Local\Temp\ccA7aZx0.s 			page 49


 2734 003a 50       		.byte	0x50
 2735 003b 0A000000 		.4byte	.LVL7
 2736 003f 1C000000 		.4byte	.LVL8
 2737 0043 0100     		.2byte	0x1
 2738 0045 54       		.byte	0x54
 2739 0046 1C000000 		.4byte	.LVL8
 2740 004a 30000000 		.4byte	.LVL10
 2741 004e 0400     		.2byte	0x4
 2742 0050 F3       		.byte	0xf3
 2743 0051 01       		.uleb128 0x1
 2744 0052 50       		.byte	0x50
 2745 0053 9F       		.byte	0x9f
 2746 0054 30000000 		.4byte	.LVL10
 2747 0058 44000000 		.4byte	.LVL11
 2748 005c 0100     		.2byte	0x1
 2749 005e 50       		.byte	0x50
 2750 005f 44000000 		.4byte	.LVL11
 2751 0063 68000000 		.4byte	.LFE259
 2752 0067 0100     		.2byte	0x1
 2753 0069 54       		.byte	0x54
 2754 006a 00000000 		.4byte	0
 2755 006e 00000000 		.4byte	0
 2756              	.LLST3:
 2757 0072 1E000000 		.4byte	.LVL9
 2758 0076 30000000 		.4byte	.LVL10
 2759 007a 0100     		.2byte	0x1
 2760 007c 53       		.byte	0x53
 2761 007d 00000000 		.4byte	0
 2762 0081 00000000 		.4byte	0
 2763              	.LLST4:
 2764 0085 00000000 		.4byte	.LVL13
 2765 0089 08000000 		.4byte	.LVL14
 2766 008d 0100     		.2byte	0x1
 2767 008f 50       		.byte	0x50
 2768 0090 08000000 		.4byte	.LVL14
 2769 0094 0A000000 		.4byte	.LVL15
 2770 0098 0400     		.2byte	0x4
 2771 009a F3       		.byte	0xf3
 2772 009b 01       		.uleb128 0x1
 2773 009c 50       		.byte	0x50
 2774 009d 9F       		.byte	0x9f
 2775 009e 0A000000 		.4byte	.LVL15
 2776 00a2 1C000000 		.4byte	.LVL16
 2777 00a6 0100     		.2byte	0x1
 2778 00a8 50       		.byte	0x50
 2779 00a9 1C000000 		.4byte	.LVL16
 2780 00ad 34000000 		.4byte	.LFE260
 2781 00b1 0400     		.2byte	0x4
 2782 00b3 F3       		.byte	0xf3
 2783 00b4 01       		.uleb128 0x1
 2784 00b5 50       		.byte	0x50
 2785 00b6 9F       		.byte	0x9f
 2786 00b7 00000000 		.4byte	0
 2787 00bb 00000000 		.4byte	0
 2788              	.LLST5:
 2789 00bf 00000000 		.4byte	.LVL18
 2790 00c3 06000000 		.4byte	.LVL19
ARM GAS  C:\Users\IDONNO~1.SON\AppData\Local\Temp\ccA7aZx0.s 			page 50


 2791 00c7 0100     		.2byte	0x1
 2792 00c9 50       		.byte	0x50
 2793 00ca 06000000 		.4byte	.LVL19
 2794 00ce 22000000 		.4byte	.LFE261
 2795 00d2 0400     		.2byte	0x4
 2796 00d4 F3       		.byte	0xf3
 2797 00d5 01       		.uleb128 0x1
 2798 00d6 50       		.byte	0x50
 2799 00d7 9F       		.byte	0x9f
 2800 00d8 00000000 		.4byte	0
 2801 00dc 00000000 		.4byte	0
 2802              	.LLST6:
 2803 00e0 00000000 		.4byte	.LVL18
 2804 00e4 08000000 		.4byte	.LVL20
 2805 00e8 0100     		.2byte	0x1
 2806 00ea 51       		.byte	0x51
 2807 00eb 08000000 		.4byte	.LVL20
 2808 00ef 0E000000 		.4byte	.LVL21
 2809 00f3 0300     		.2byte	0x3
 2810 00f5 71       		.byte	0x71
 2811 00f6 01       		.sleb128 1
 2812 00f7 9F       		.byte	0x9f
 2813 00f8 0E000000 		.4byte	.LVL21
 2814 00fc 10000000 		.4byte	.LVL22
 2815 0100 0600     		.2byte	0x6
 2816 0102 73       		.byte	0x73
 2817 0103 2C       		.sleb128 44
 2818 0104 06       		.byte	0x6
 2819 0105 23       		.byte	0x23
 2820 0106 01       		.uleb128 0x1
 2821 0107 9F       		.byte	0x9f
 2822 0108 10000000 		.4byte	.LVL22
 2823 010c 22000000 		.4byte	.LFE261
 2824 0110 0400     		.2byte	0x4
 2825 0112 F3       		.byte	0xf3
 2826 0113 01       		.uleb128 0x1
 2827 0114 51       		.byte	0x51
 2828 0115 9F       		.byte	0x9f
 2829 0116 00000000 		.4byte	0
 2830 011a 00000000 		.4byte	0
 2831              	.LLST7:
 2832 011e 00000000 		.4byte	.LVL24
 2833 0122 06000000 		.4byte	.LVL26
 2834 0126 0100     		.2byte	0x1
 2835 0128 50       		.byte	0x50
 2836 0129 06000000 		.4byte	.LVL26
 2837 012d 1A000000 		.4byte	.LFE263
 2838 0131 0400     		.2byte	0x4
 2839 0133 F3       		.byte	0xf3
 2840 0134 01       		.uleb128 0x1
 2841 0135 50       		.byte	0x50
 2842 0136 9F       		.byte	0x9f
 2843 0137 00000000 		.4byte	0
 2844 013b 00000000 		.4byte	0
 2845              	.LLST8:
 2846 013f 00000000 		.4byte	.LVL24
 2847 0143 04000000 		.4byte	.LVL25
ARM GAS  C:\Users\IDONNO~1.SON\AppData\Local\Temp\ccA7aZx0.s 			page 51


 2848 0147 0100     		.2byte	0x1
 2849 0149 51       		.byte	0x51
 2850 014a 04000000 		.4byte	.LVL25
 2851 014e 1A000000 		.4byte	.LFE263
 2852 0152 0300     		.2byte	0x3
 2853 0154 71       		.byte	0x71
 2854 0155 01       		.sleb128 1
 2855 0156 9F       		.byte	0x9f
 2856 0157 00000000 		.4byte	0
 2857 015b 00000000 		.4byte	0
 2858              		.section	.debug_aranges,"",%progbits
 2859 0000 4C000000 		.4byte	0x4c
 2860 0004 0200     		.2byte	0x2
 2861 0006 00000000 		.4byte	.Ldebug_info0
 2862 000a 04       		.byte	0x4
 2863 000b 00       		.byte	0
 2864 000c 0000     		.2byte	0
 2865 000e 0000     		.2byte	0
 2866 0010 00000000 		.4byte	.LFB257
 2867 0014 34000000 		.4byte	.LFE257-.LFB257
 2868 0018 00000000 		.4byte	.LFB258
 2869 001c 14000000 		.4byte	.LFE258-.LFB258
 2870 0020 00000000 		.4byte	.LFB259
 2871 0024 68000000 		.4byte	.LFE259-.LFB259
 2872 0028 00000000 		.4byte	.LFB260
 2873 002c 34000000 		.4byte	.LFE260-.LFB260
 2874 0030 00000000 		.4byte	.LFB261
 2875 0034 22000000 		.4byte	.LFE261-.LFB261
 2876 0038 00000000 		.4byte	.LFB262
 2877 003c 12000000 		.4byte	.LFE262-.LFB262
 2878 0040 00000000 		.4byte	.LFB263
 2879 0044 1A000000 		.4byte	.LFE263-.LFB263
 2880 0048 00000000 		.4byte	0
 2881 004c 00000000 		.4byte	0
 2882              		.section	.debug_ranges,"",%progbits
 2883              	.Ldebug_ranges0:
 2884 0000 00000000 		.4byte	.LFB257
 2885 0004 34000000 		.4byte	.LFE257
 2886 0008 00000000 		.4byte	.LFB258
 2887 000c 14000000 		.4byte	.LFE258
 2888 0010 00000000 		.4byte	.LFB259
 2889 0014 68000000 		.4byte	.LFE259
 2890 0018 00000000 		.4byte	.LFB260
 2891 001c 34000000 		.4byte	.LFE260
 2892 0020 00000000 		.4byte	.LFB261
 2893 0024 22000000 		.4byte	.LFE261
 2894 0028 00000000 		.4byte	.LFB262
 2895 002c 12000000 		.4byte	.LFE262
 2896 0030 00000000 		.4byte	.LFB263
 2897 0034 1A000000 		.4byte	.LFE263
 2898 0038 00000000 		.4byte	0
 2899 003c 00000000 		.4byte	0
 2900              		.section	.debug_line,"",%progbits
 2901              	.Ldebug_line0:
 2902 0000 33040000 		.section	.debug_str,"MS",%progbits,1
 2902      02004503 
 2902      00000201 
ARM GAS  C:\Users\IDONNO~1.SON\AppData\Local\Temp\ccA7aZx0.s 			page 52


 2902      FB0E0D00 
 2902      01010101 
 2903              	.LASF56:
 2904 0000 72656164 		.ascii	"ready_list_t\000"
 2904      795F6C69 
 2904      73745F74 
 2904      00
 2905              	.LASF148:
 2906 000d 44494552 		.ascii	"DIER\000"
 2906      00
 2907              	.LASF178:
 2908 0012 6C69622F 		.ascii	"lib/ChibiOS_3.0.2/os/hal/ports/STM32/LLD/TIMv1/gpt_"
 2908      43686962 
 2908      694F535F 
 2908      332E302E 
 2908      322F6F73 
 2909 0045 6C6C642E 		.ascii	"lld.c\000"
 2909      6300
 2910              	.LASF2:
 2911 004b 73697A65 		.ascii	"size_t\000"
 2911      5F7400
 2912              	.LASF119:
 2913 0052 7264796D 		.ascii	"rdymsg\000"
 2913      736700
 2914              	.LASF19:
 2915 0059 75696E74 		.ascii	"uint64_t\000"
 2915      36345F74 
 2915      00
 2916              	.LASF3:
 2917 0062 5F5F7569 		.ascii	"__uint8_t\000"
 2917      6E74385F 
 2917      7400
 2918              	.LASF140:
 2919 006c 4750545F 		.ascii	"GPT_ONESHOT\000"
 2919      4F4E4553 
 2919      484F5400 
 2920              	.LASF55:
 2921 0078 63685F74 		.ascii	"ch_threads_queue\000"
 2921      68726561 
 2921      64735F71 
 2921      75657565 
 2921      00
 2922              	.LASF75:
 2923 0089 73797374 		.ascii	"system_debug_t\000"
 2923      656D5F64 
 2923      65627567 
 2923      5F7400
 2924              	.LASF177:
 2925 0098 474E5520 		.ascii	"GNU C99 5.4.1 20160609 (release) [ARM/embedded-5-br"
 2925      43393920 
 2925      352E342E 
 2925      31203230 
 2925      31363036 
 2926 00cb 616E6368 		.ascii	"anch revision 237715] -mcpu=cortex-m4 -mfloat-abi=h"
 2926      20726576 
 2926      6973696F 
 2926      6E203233 
ARM GAS  C:\Users\IDONNO~1.SON\AppData\Local\Temp\ccA7aZx0.s 			page 53


 2926      37373135 
 2927 00fe 61726420 		.ascii	"ard -mfpu=fpv4-sp-d16 -mno-thumb-interwork -mthumb "
 2927      2D6D6670 
 2927      753D6670 
 2927      76342D73 
 2927      702D6431 
 2928 0131 2D676764 		.ascii	"-ggdb -O2 -std=gnu99 -fomit-frame-pointer -falign-f"
 2928      62202D4F 
 2928      32202D73 
 2928      74643D67 
 2928      6E753939 
 2929 0164 756E6374 		.ascii	"unctions=16 -ffunction-sections -fdata-sections -fn"
 2929      696F6E73 
 2929      3D313620 
 2929      2D666675 
 2929      6E637469 
 2930 0197 6F2D636F 		.ascii	"o-common -fsingle-precision-constant\000"
 2930      6D6D6F6E 
 2930      202D6673 
 2930      696E676C 
 2930      652D7072 
 2931              	.LASF179:
 2932 01bc 443A5C67 		.ascii	"D:\\git\\oroca_bldc_dev\\oroca_bldc_FW\000"
 2932      69745C6F 
 2932      726F6361 
 2932      5F626C64 
 2932      635F6465 
 2933              	.LASF14:
 2934 01e0 6C6F6E67 		.ascii	"long long unsigned int\000"
 2934      206C6F6E 
 2934      6720756E 
 2934      7369676E 
 2934      65642069 
 2935              	.LASF120:
 2936 01f7 65786974 		.ascii	"exitcode\000"
 2936      636F6465 
 2936      00
 2937              	.LASF82:
 2938 0200 6D61696E 		.ascii	"mainthread\000"
 2938      74687265 
 2938      616400
 2939              	.LASF72:
 2940 020b 76697274 		.ascii	"virtual_timers_list_t\000"
 2940      75616C5F 
 2940      74696D65 
 2940      72735F6C 
 2940      6973745F 
 2941              	.LASF171:
 2942 0221 49544D5F 		.ascii	"ITM_RxBuffer\000"
 2942      52784275 
 2942      66666572 
 2942      00
 2943              	.LASF172:
 2944 022e 47505444 		.ascii	"GPTD5\000"
 2944      3500
 2945              	.LASF159:
 2946 0234 66726571 		.ascii	"frequency\000"
ARM GAS  C:\Users\IDONNO~1.SON\AppData\Local\Temp\ccA7aZx0.s 			page 54


 2946      75656E63 
 2946      7900
 2947              	.LASF101:
 2948 023e 41484231 		.ascii	"AHB1LPENR\000"
 2948      4C50454E 
 2948      5200
 2949              	.LASF33:
 2950 0248 705F7072 		.ascii	"p_prio\000"
 2950      696F00
 2951              	.LASF175:
 2952 024f 6E766963 		.ascii	"nvicEnableVector\000"
 2952      456E6162 
 2952      6C655665 
 2952      63746F72 
 2952      00
 2953              	.LASF149:
 2954 0260 43434D52 		.ascii	"CCMR1\000"
 2954      3100
 2955              	.LASF150:
 2956 0266 43434D52 		.ascii	"CCMR2\000"
 2956      3200
 2957              	.LASF154:
 2958 026c 43434D52 		.ascii	"CCMR3\000"
 2958      3300
 2959              	.LASF1:
 2960 0272 7369676E 		.ascii	"signed char\000"
 2960      65642063 
 2960      68617200 
 2961              	.LASF87:
 2962 027e 41484231 		.ascii	"AHB1RSTR\000"
 2962      52535452 
 2962      00
 2963              	.LASF130:
 2964 0287 6D5F7175 		.ascii	"m_queue\000"
 2964      65756500 
 2965              	.LASF116:
 2966 028f 706F7274 		.ascii	"port_intctx\000"
 2966      5F696E74 
 2966      63747800 
 2967              	.LASF91:
 2968 029b 41504231 		.ascii	"APB1RSTR\000"
 2968      52535452 
 2968      00
 2969              	.LASF139:
 2970 02a4 4750545F 		.ascii	"GPT_CONTINUOUS\000"
 2970      434F4E54 
 2970      494E554F 
 2970      555300
 2971              	.LASF24:
 2972 02b3 74736C69 		.ascii	"tslices_t\000"
 2972      6365735F 
 2972      7400
 2973              	.LASF143:
 2974 02bd 73746174 		.ascii	"state\000"
 2974      6500
 2975              	.LASF79:
 2976 02c3 63685F73 		.ascii	"ch_system\000"
ARM GAS  C:\Users\IDONNO~1.SON\AppData\Local\Temp\ccA7aZx0.s 			page 55


 2976      79737465 
 2976      6D00
 2977              	.LASF9:
 2978 02cd 6C6F6E67 		.ascii	"long int\000"
 2978      20696E74 
 2978      00
 2979              	.LASF158:
 2980 02d6 67707463 		.ascii	"gptcnt_t\000"
 2980      6E745F74 
 2980      00
 2981              	.LASF92:
 2982 02df 41504232 		.ascii	"APB2RSTR\000"
 2982      52535452 
 2982      00
 2983              	.LASF105:
 2984 02e8 41504231 		.ascii	"APB1LPENR\000"
 2984      4C50454E 
 2984      5200
 2985              	.LASF22:
 2986 02f2 74737461 		.ascii	"tstate_t\000"
 2986      74655F74 
 2986      00
 2987              	.LASF35:
 2988 02fb 705F6E65 		.ascii	"p_newer\000"
 2988      77657200 
 2989              	.LASF85:
 2990 0303 504C4C43 		.ascii	"PLLCFGR\000"
 2990      46475200 
 2991              	.LASF146:
 2992 030b 67707463 		.ascii	"gptcallback_t\000"
 2992      616C6C62 
 2992      61636B5F 
 2992      7400
 2993              	.LASF7:
 2994 0319 73686F72 		.ascii	"short unsigned int\000"
 2994      7420756E 
 2994      7369676E 
 2994      65642069 
 2994      6E7400
 2995              	.LASF169:
 2996 032c 696E7465 		.ascii	"interval\000"
 2996      7276616C 
 2996      00
 2997              	.LASF61:
 2998 0335 725F6E65 		.ascii	"r_newer\000"
 2998      77657200 
 2999              	.LASF142:
 3000 033d 47505444 		.ascii	"GPTDriver\000"
 3000      72697665 
 3000      7200
 3001              	.LASF113:
 3002 0347 72656761 		.ascii	"regarm_t\000"
 3002      726D5F74 
 3002      00
 3003              	.LASF68:
 3004 0350 76745F70 		.ascii	"vt_prev\000"
 3004      72657600 
ARM GAS  C:\Users\IDONNO~1.SON\AppData\Local\Temp\ccA7aZx0.s 			page 56


 3005              	.LASF81:
 3006 0358 76746C69 		.ascii	"vtlist\000"
 3006      737400
 3007              	.LASF152:
 3008 035f 42445452 		.ascii	"BDTR\000"
 3008      00
 3009              	.LASF12:
 3010 0364 6C6F6E67 		.ascii	"long long int\000"
 3010      206C6F6E 
 3010      6720696E 
 3010      7400
 3011              	.LASF83:
 3012 0372 69646C65 		.ascii	"idle_thread_wa\000"
 3012      5F746872 
 3012      6561645F 
 3012      776100
 3013              	.LASF141:
 3014 0381 67707473 		.ascii	"gptstate_t\000"
 3014      74617465 
 3014      5F7400
 3015              	.LASF0:
 3016 038c 756E7369 		.ascii	"unsigned int\000"
 3016      676E6564 
 3016      20696E74 
 3016      00
 3017              	.LASF67:
 3018 0399 76745F6E 		.ascii	"vt_next\000"
 3018      65787400 
 3019              	.LASF174:
 3020 03a1 6770744F 		.ascii	"gptObjectInit\000"
 3020      626A6563 
 3020      74496E69 
 3020      7400
 3021              	.LASF176:
 3022 03af 6E766963 		.ascii	"nvicDisableVector\000"
 3022      44697361 
 3022      626C6556 
 3022      6563746F 
 3022      7200
 3023              	.LASF42:
 3024 03c1 705F7469 		.ascii	"p_time\000"
 3024      6D6500
 3025              	.LASF123:
 3026 03c8 77747365 		.ascii	"wtsemp\000"
 3026      6D7000
 3027              	.LASF74:
 3028 03cf 76745F73 		.ascii	"vt_systime\000"
 3028      79737469 
 3028      6D6500
 3029              	.LASF69:
 3030 03da 76745F64 		.ascii	"vt_delta\000"
 3030      656C7461 
 3030      00
 3031              	.LASF44:
 3032 03e3 705F6D73 		.ascii	"p_msgqueue\000"
 3032      67717565 
 3032      756500
ARM GAS  C:\Users\IDONNO~1.SON\AppData\Local\Temp\ccA7aZx0.s 			page 57


 3033              	.LASF112:
 3034 03ee 5243435F 		.ascii	"RCC_TypeDef\000"
 3034      54797065 
 3034      44656600 
 3035              	.LASF52:
 3036 03fa 63685F74 		.ascii	"ch_thread\000"
 3036      68726561 
 3036      6400
 3037              	.LASF163:
 3038 0404 67707470 		.ascii	"gptp\000"
 3038      00
 3039              	.LASF128:
 3040 0409 735F636E 		.ascii	"s_cnt\000"
 3040      7400
 3041              	.LASF136:
 3042 040f 4750545F 		.ascii	"GPT_UNINIT\000"
 3042      554E494E 
 3042      495400
 3043              	.LASF157:
 3044 041a 67707466 		.ascii	"gptfreq_t\000"
 3044      7265715F 
 3044      7400
 3045              	.LASF111:
 3046 0424 504C4C49 		.ascii	"PLLI2SCFGR\000"
 3046      32534346 
 3046      475200
 3047              	.LASF49:
 3048 042f 705F6D70 		.ascii	"p_mpool\000"
 3048      6F6F6C00 
 3049              	.LASF26:
 3050 0437 6D73675F 		.ascii	"msg_t\000"
 3050      7400
 3051              	.LASF89:
 3052 043d 41484233 		.ascii	"AHB3RSTR\000"
 3052      52535452 
 3052      00
 3053              	.LASF173:
 3054 0446 5F706F72 		.ascii	"_port_irq_epilogue\000"
 3054      745F6972 
 3054      715F6570 
 3054      696C6F67 
 3054      756500
 3055              	.LASF160:
 3056 0459 63616C6C 		.ascii	"callback\000"
 3056      6261636B 
 3056      00
 3057              	.LASF165:
 3058 0462 6770745F 		.ascii	"gpt_lld_init\000"
 3058      6C6C645F 
 3058      696E6974 
 3058      00
 3059              	.LASF164:
 3060 046f 56656374 		.ascii	"Vector108\000"
 3060      6F723130 
 3060      3800
 3061              	.LASF156:
 3062 0479 73746D33 		.ascii	"stm32_tim_t\000"
ARM GAS  C:\Users\IDONNO~1.SON\AppData\Local\Temp\ccA7aZx0.s 			page 58


 3062      325F7469 
 3062      6D5F7400 
 3063              	.LASF16:
 3064 0485 75696E74 		.ascii	"uint16_t\000"
 3064      31365F74 
 3064      00
 3065              	.LASF106:
 3066 048e 41504232 		.ascii	"APB2LPENR\000"
 3066      4C50454E 
 3066      5200
 3067              	.LASF57:
 3068 0498 63685F72 		.ascii	"ch_ready_list\000"
 3068      65616479 
 3068      5F6C6973 
 3068      7400
 3069              	.LASF27:
 3070 04a6 6576656E 		.ascii	"eventmask_t\000"
 3070      746D6173 
 3070      6B5F7400 
 3071              	.LASF8:
 3072 04b2 5F5F696E 		.ascii	"__int32_t\000"
 3072      7433325F 
 3072      7400
 3073              	.LASF114:
 3074 04bc 73746B61 		.ascii	"stkalign_t\000"
 3074      6C69676E 
 3074      5F7400
 3075              	.LASF51:
 3076 04c7 74687265 		.ascii	"threads_list_t\000"
 3076      6164735F 
 3076      6C697374 
 3076      5F7400
 3077              	.LASF65:
 3078 04d6 76697274 		.ascii	"virtual_timer_t\000"
 3078      75616C5F 
 3078      74696D65 
 3078      725F7400 
 3079              	.LASF43:
 3080 04e6 705F7761 		.ascii	"p_waiting\000"
 3080      6974696E 
 3080      6700
 3081              	.LASF84:
 3082 04f0 73697A65 		.ascii	"sizetype\000"
 3082      74797065 
 3082      00
 3083              	.LASF50:
 3084 04f9 74687265 		.ascii	"thread_reference_t\000"
 3084      61645F72 
 3084      65666572 
 3084      656E6365 
 3084      5F7400
 3085              	.LASF73:
 3086 050c 63685F76 		.ascii	"ch_virtual_timers_list\000"
 3086      69727475 
 3086      616C5F74 
 3086      696D6572 
 3086      735F6C69 
ARM GAS  C:\Users\IDONNO~1.SON\AppData\Local\Temp\ccA7aZx0.s 			page 59


 3087              	.LASF122:
 3088 0523 77747472 		.ascii	"wttrp\000"
 3088      7000
 3089              	.LASF138:
 3090 0529 4750545F 		.ascii	"GPT_READY\000"
 3090      52454144 
 3090      5900
 3091              	.LASF31:
 3092 0533 705F6E65 		.ascii	"p_next\000"
 3092      787400
 3093              	.LASF180:
 3094 053a 6770745F 		.ascii	"gpt_lld_stop_timer\000"
 3094      6C6C645F 
 3094      73746F70 
 3094      5F74696D 
 3094      657200
 3095              	.LASF96:
 3096 054d 41484233 		.ascii	"AHB3ENR\000"
 3096      454E5200 
 3097              	.LASF36:
 3098 0555 705F6F6C 		.ascii	"p_older\000"
 3098      64657200 
 3099              	.LASF60:
 3100 055d 725F6374 		.ascii	"r_ctx\000"
 3100      7800
 3101              	.LASF102:
 3102 0563 41484232 		.ascii	"AHB2LPENR\000"
 3102      4C50454E 
 3102      5200
 3103              	.LASF118:
 3104 056d 746D5F63 		.ascii	"tm_calibration_t\000"
 3104      616C6962 
 3104      72617469 
 3104      6F6E5F74 
 3104      00
 3105              	.LASF63:
 3106 057e 725F6375 		.ascii	"r_current\000"
 3106      7272656E 
 3106      7400
 3107              	.LASF168:
 3108 0588 6770745F 		.ascii	"gpt_lld_start_timer\000"
 3108      6C6C645F 
 3108      73746172 
 3108      745F7469 
 3108      6D657200 
 3109              	.LASF13:
 3110 059c 5F5F7569 		.ascii	"__uint64_t\000"
 3110      6E743634 
 3110      5F7400
 3111              	.LASF181:
 3112 05a7 6770745F 		.ascii	"gpt_lld_serve_interrupt\000"
 3112      6C6C645F 
 3112      73657276 
 3112      655F696E 
 3112      74657272 
 3113              	.LASF23:
 3114 05bf 74726566 		.ascii	"trefs_t\000"
ARM GAS  C:\Users\IDONNO~1.SON\AppData\Local\Temp\ccA7aZx0.s 			page 60


 3114      735F7400 
 3115              	.LASF90:
 3116 05c7 52455345 		.ascii	"RESERVED0\000"
 3116      52564544 
 3116      3000
 3117              	.LASF93:
 3118 05d1 52455345 		.ascii	"RESERVED1\000"
 3118      52564544 
 3118      3100
 3119              	.LASF97:
 3120 05db 52455345 		.ascii	"RESERVED2\000"
 3120      52564544 
 3120      3200
 3121              	.LASF100:
 3122 05e5 52455345 		.ascii	"RESERVED3\000"
 3122      52564544 
 3122      3300
 3123              	.LASF104:
 3124 05ef 52455345 		.ascii	"RESERVED4\000"
 3124      52564544 
 3124      3400
 3125              	.LASF32:
 3126 05f9 705F7072 		.ascii	"p_prev\000"
 3126      657600
 3127              	.LASF109:
 3128 0600 52455345 		.ascii	"RESERVED6\000"
 3128      52564544 
 3128      3600
 3129              	.LASF25:
 3130 060a 74707269 		.ascii	"tprio_t\000"
 3130      6F5F7400 
 3131              	.LASF76:
 3132 0612 63685F73 		.ascii	"ch_system_debug\000"
 3132      79737465 
 3132      6D5F6465 
 3132      62756700 
 3133              	.LASF135:
 3134 0622 5F426F6F 		.ascii	"_Bool\000"
 3134      6C00
 3135              	.LASF17:
 3136 0628 696E7433 		.ascii	"int32_t\000"
 3136      325F7400 
 3137              	.LASF4:
 3138 0630 756E7369 		.ascii	"unsigned char\000"
 3138      676E6564 
 3138      20636861 
 3138      7200
 3139              	.LASF47:
 3140 063e 705F6D74 		.ascii	"p_mtxlist\000"
 3140      786C6973 
 3140      7400
 3141              	.LASF5:
 3142 0648 73686F72 		.ascii	"short int\000"
 3142      7420696E 
 3142      7400
 3143              	.LASF38:
 3144 0652 705F7374 		.ascii	"p_state\000"
ARM GAS  C:\Users\IDONNO~1.SON\AppData\Local\Temp\ccA7aZx0.s 			page 61


 3144      61746500 
 3145              	.LASF41:
 3146 065a 705F7072 		.ascii	"p_preempt\000"
 3146      65656D70 
 3146      7400
 3147              	.LASF103:
 3148 0664 41484233 		.ascii	"AHB3LPENR\000"
 3148      4C50454E 
 3148      5200
 3149              	.LASF59:
 3150 066e 725F7072 		.ascii	"r_prio\000"
 3150      696F00
 3151              	.LASF125:
 3152 0675 65776D61 		.ascii	"ewmask\000"
 3152      736B00
 3153              	.LASF39:
 3154 067c 705F666C 		.ascii	"p_flags\000"
 3154      61677300 
 3155              	.LASF182:
 3156 0684 5F5F6675 		.ascii	"__func__\000"
 3156      6E635F5F 
 3156      00
 3157              	.LASF99:
 3158 068d 41504232 		.ascii	"APB2ENR\000"
 3158      454E5200 
 3159              	.LASF66:
 3160 0695 63685F76 		.ascii	"ch_virtual_timer\000"
 3160      69727475 
 3160      616C5F74 
 3160      696D6572 
 3160      00
 3161              	.LASF126:
 3162 06a6 63685F73 		.ascii	"ch_semaphore\000"
 3162      656D6170 
 3162      686F7265 
 3162      00
 3163              	.LASF155:
 3164 06b3 43435852 		.ascii	"CCXR\000"
 3164      00
 3165              	.LASF46:
 3166 06b8 705F6570 		.ascii	"p_epending\000"
 3166      656E6469 
 3166      6E6700
 3167              	.LASF107:
 3168 06c3 52455345 		.ascii	"RESERVED5\000"
 3168      52564544 
 3168      3500
 3169              	.LASF137:
 3170 06cd 4750545F 		.ascii	"GPT_STOP\000"
 3170      53544F50 
 3170      00
 3171              	.LASF28:
 3172 06d6 636E745F 		.ascii	"cnt_t\000"
 3172      7400
 3173              	.LASF18:
 3174 06dc 75696E74 		.ascii	"uint32_t\000"
 3174      33325F74 
ARM GAS  C:\Users\IDONNO~1.SON\AppData\Local\Temp\ccA7aZx0.s 			page 62


 3174      00
 3175              	.LASF124:
 3176 06e5 77746D74 		.ascii	"wtmtxp\000"
 3176      787000
 3177              	.LASF58:
 3178 06ec 725F7175 		.ascii	"r_queue\000"
 3178      65756500 
 3179              	.LASF53:
 3180 06f4 63685F74 		.ascii	"ch_threads_list\000"
 3180      68726561 
 3180      64735F6C 
 3180      69737400 
 3181              	.LASF11:
 3182 0704 6C6F6E67 		.ascii	"long unsigned int\000"
 3182      20756E73 
 3182      69676E65 
 3182      6420696E 
 3182      7400
 3183              	.LASF133:
 3184 0716 63686172 		.ascii	"char\000"
 3184      00
 3185              	.LASF6:
 3186 071b 5F5F7569 		.ascii	"__uint16_t\000"
 3186      6E743136 
 3186      5F7400
 3187              	.LASF147:
 3188 0726 534D4352 		.ascii	"SMCR\000"
 3188      00
 3189              	.LASF144:
 3190 072b 636F6E66 		.ascii	"config\000"
 3190      696700
 3191              	.LASF153:
 3192 0732 444D4152 		.ascii	"DMAR\000"
 3192      00
 3193              	.LASF88:
 3194 0737 41484232 		.ascii	"AHB2RSTR\000"
 3194      52535452 
 3194      00
 3195              	.LASF30:
 3196 0740 74687265 		.ascii	"thread_t\000"
 3196      61645F74 
 3196      00
 3197              	.LASF151:
 3198 0749 43434552 		.ascii	"CCER\000"
 3198      00
 3199              	.LASF132:
 3200 074e 6D5F6E65 		.ascii	"m_next\000"
 3200      787400
 3201              	.LASF29:
 3202 0755 73797374 		.ascii	"systime_t\000"
 3202      696D655F 
 3202      7400
 3203              	.LASF48:
 3204 075f 705F7265 		.ascii	"p_realprio\000"
 3204      616C7072 
 3204      696F00
 3205              	.LASF64:
ARM GAS  C:\Users\IDONNO~1.SON\AppData\Local\Temp\ccA7aZx0.s 			page 63


 3206 076a 76746675 		.ascii	"vtfunc_t\000"
 3206      6E635F74 
 3206      00
 3207              	.LASF10:
 3208 0773 5F5F7569 		.ascii	"__uint32_t\000"
 3208      6E743332 
 3208      5F7400
 3209              	.LASF77:
 3210 077e 70616E69 		.ascii	"panic_msg\000"
 3210      635F6D73 
 3210      6700
 3211              	.LASF117:
 3212 0788 6F666673 		.ascii	"offset\000"
 3212      657400
 3213              	.LASF98:
 3214 078f 41504231 		.ascii	"APB1ENR\000"
 3214      454E5200 
 3215              	.LASF162:
 3216 0797 47505443 		.ascii	"GPTConfig\000"
 3216      6F6E6669 
 3216      6700
 3217              	.LASF95:
 3218 07a1 41484232 		.ascii	"AHB2ENR\000"
 3218      454E5200 
 3219              	.LASF115:
 3220 07a9 636F6E74 		.ascii	"context\000"
 3220      65787400 
 3221              	.LASF62:
 3222 07b1 725F6F6C 		.ascii	"r_older\000"
 3222      64657200 
 3223              	.LASF78:
 3224 07b9 63685F73 		.ascii	"ch_system_t\000"
 3224      79737465 
 3224      6D5F7400 
 3225              	.LASF20:
 3226 07c5 7274636E 		.ascii	"rtcnt_t\000"
 3226      745F7400 
 3227              	.LASF166:
 3228 07cd 6770745F 		.ascii	"gpt_lld_start\000"
 3228      6C6C645F 
 3228      73746172 
 3228      7400
 3229              	.LASF71:
 3230 07db 76745F70 		.ascii	"vt_par\000"
 3230      617200
 3231              	.LASF110:
 3232 07e2 53534347 		.ascii	"SSCGR\000"
 3232      5200
 3233              	.LASF54:
 3234 07e8 74687265 		.ascii	"threads_queue_t\000"
 3234      6164735F 
 3234      71756575 
 3234      655F7400 
 3235              	.LASF129:
 3236 07f8 63685F6D 		.ascii	"ch_mutex\000"
 3236      75746578 
 3236      00
ARM GAS  C:\Users\IDONNO~1.SON\AppData\Local\Temp\ccA7aZx0.s 			page 64


 3237              	.LASF40:
 3238 0801 705F7265 		.ascii	"p_refs\000"
 3238      667300
 3239              	.LASF170:
 3240 0808 6770745F 		.ascii	"gpt_lld_polled_delay\000"
 3240      6C6C645F 
 3240      706F6C6C 
 3240      65645F64 
 3240      656C6179 
 3241              	.LASF167:
 3242 081d 6770745F 		.ascii	"gpt_lld_stop\000"
 3242      6C6C645F 
 3242      73746F70 
 3242      00
 3243              	.LASF108:
 3244 082a 42444352 		.ascii	"BDCR\000"
 3244      00
 3245              	.LASF80:
 3246 082f 726C6973 		.ascii	"rlist\000"
 3246      7400
 3247              	.LASF15:
 3248 0835 75696E74 		.ascii	"uint8_t\000"
 3248      385F7400 
 3249              	.LASF121:
 3250 083d 77746F62 		.ascii	"wtobjp\000"
 3250      6A7000
 3251              	.LASF37:
 3252 0844 705F6E61 		.ascii	"p_name\000"
 3252      6D6500
 3253              	.LASF94:
 3254 084b 41484231 		.ascii	"AHB1ENR\000"
 3254      454E5200 
 3255              	.LASF86:
 3256 0853 43464752 		.ascii	"CFGR\000"
 3256      00
 3257              	.LASF21:
 3258 0858 746D6F64 		.ascii	"tmode_t\000"
 3258      655F7400 
 3259              	.LASF127:
 3260 0860 735F7175 		.ascii	"s_queue\000"
 3260      65756500 
 3261              	.LASF145:
 3262 0868 636C6F63 		.ascii	"clock\000"
 3262      6B00
 3263              	.LASF45:
 3264 086e 705F6D73 		.ascii	"p_msg\000"
 3264      6700
 3265              	.LASF134:
 3266 0874 6D757465 		.ascii	"mutex_t\000"
 3266      785F7400 
 3267              	.LASF131:
 3268 087c 6D5F6F77 		.ascii	"m_owner\000"
 3268      6E657200 
 3269              	.LASF34:
 3270 0884 705F6374 		.ascii	"p_ctx\000"
 3270      7800
 3271              	.LASF70:
ARM GAS  C:\Users\IDONNO~1.SON\AppData\Local\Temp\ccA7aZx0.s 			page 65


 3272 088a 76745F66 		.ascii	"vt_func\000"
 3272      756E6300 
 3273              	.LASF161:
 3274 0892 64696572 		.ascii	"dier\000"
 3274      00
 3275              		.ident	"GCC: (GNU Tools for ARM Embedded Processors) 5.4.1 20160609 (release) [ARM/embedded-5-bran
ARM GAS  C:\Users\IDONNO~1.SON\AppData\Local\Temp\ccA7aZx0.s 			page 66


DEFINED SYMBOLS
                            *ABS*:00000000 gpt_lld.c
C:\Users\IDONNO~1.SON\AppData\Local\Temp\ccA7aZx0.s:22     .text.Vector108:00000000 $t
C:\Users\IDONNO~1.SON\AppData\Local\Temp\ccA7aZx0.s:28     .text.Vector108:00000000 Vector108
C:\Users\IDONNO~1.SON\AppData\Local\Temp\ccA7aZx0.s:92     .text.Vector108:00000030 $d
C:\Users\IDONNO~1.SON\AppData\Local\Temp\ccA7aZx0.s:97     .text.gpt_lld_init:00000000 $t
C:\Users\IDONNO~1.SON\AppData\Local\Temp\ccA7aZx0.s:103    .text.gpt_lld_init:00000000 gpt_lld_init
C:\Users\IDONNO~1.SON\AppData\Local\Temp\ccA7aZx0.s:120    .text.gpt_lld_init:0000000c $d
C:\Users\IDONNO~1.SON\AppData\Local\Temp\ccA7aZx0.s:126    .text.gpt_lld_start:00000000 $t
C:\Users\IDONNO~1.SON\AppData\Local\Temp\ccA7aZx0.s:132    .text.gpt_lld_start:00000000 gpt_lld_start
C:\Users\IDONNO~1.SON\AppData\Local\Temp\ccA7aZx0.s:219    .text.gpt_lld_start:0000005c $d
C:\Users\IDONNO~1.SON\AppData\Local\Temp\ccA7aZx0.s:226    .text.gpt_lld_stop:00000000 $t
C:\Users\IDONNO~1.SON\AppData\Local\Temp\ccA7aZx0.s:232    .text.gpt_lld_stop:00000000 gpt_lld_stop
C:\Users\IDONNO~1.SON\AppData\Local\Temp\ccA7aZx0.s:282    .text.gpt_lld_stop:0000002c $d
C:\Users\IDONNO~1.SON\AppData\Local\Temp\ccA7aZx0.s:288    .text.gpt_lld_start_timer:00000000 $t
C:\Users\IDONNO~1.SON\AppData\Local\Temp\ccA7aZx0.s:294    .text.gpt_lld_start_timer:00000000 gpt_lld_start_timer
C:\Users\IDONNO~1.SON\AppData\Local\Temp\ccA7aZx0.s:339    .text.gpt_lld_stop_timer:00000000 $t
C:\Users\IDONNO~1.SON\AppData\Local\Temp\ccA7aZx0.s:345    .text.gpt_lld_stop_timer:00000000 gpt_lld_stop_timer
C:\Users\IDONNO~1.SON\AppData\Local\Temp\ccA7aZx0.s:368    .text.gpt_lld_polled_delay:00000000 $t
C:\Users\IDONNO~1.SON\AppData\Local\Temp\ccA7aZx0.s:374    .text.gpt_lld_polled_delay:00000000 gpt_lld_polled_delay
C:\Users\IDONNO~1.SON\AppData\Local\Temp\ccA7aZx0.s:415    .bss.GPTD5:00000000 GPTD5
C:\Users\IDONNO~1.SON\AppData\Local\Temp\ccA7aZx0.s:411    .bss.GPTD5:00000000 $d
                     .debug_frame:00000010 $d

UNDEFINED SYMBOLS
_port_irq_epilogue
gptObjectInit
nvicEnableVector
nvicDisableVector
