ARM GAS  C:\Users\IDONNO~1\AppData\Local\Temp\cc77Z7Ra.s 			page 1


   1              		.syntax unified
   2              		.cpu cortex-m4
   3              		.eabi_attribute 27, 1
   4              		.eabi_attribute 28, 1
   5              		.fpu fpv4-sp-d16
   6              		.eabi_attribute 20, 1
   7              		.eabi_attribute 21, 1
   8              		.eabi_attribute 23, 3
   9              		.eabi_attribute 24, 1
  10              		.eabi_attribute 25, 1
  11              		.eabi_attribute 26, 1
  12              		.eabi_attribute 30, 2
  13              		.eabi_attribute 34, 1
  14              		.eabi_attribute 18, 4
  15              		.thumb
  16              		.syntax unified
  17              		.file	"gpt_lld.c"
  18              		.text
  19              	.Ltext0:
  20              		.cfi_sections	.debug_frame
  21              		.section	.text.Vector108,"ax",%progbits
  22              		.align	2
  23              		.p2align 4,,15
  24              		.global	Vector108
  25              		.thumb
  26              		.thumb_func
  27              		.type	Vector108, %function
  28              	Vector108:
  29              	.LFB257:
  30              		.file 1 "lib/ChibiOS_3.0.2/os/hal/ports/STM32/LLD/TIMv1/gpt_lld.c"
  31              		.loc 1 245 0
  32              		.cfi_startproc
  33              		@ args = 0, pretend = 0, frame = 0
  34              		@ frame_needed = 0, uses_anonymous_args = 0
  35              	.LVL0:
  36 0000 08B5     		push	{r3, lr}
  37              		.cfi_def_cfa_offset 8
  38              		.cfi_offset 3, -8
  39              		.cfi_offset 14, -4
  40              	.LBB8:
  41              	.LBB9:
  42              		.loc 1 148 0
  43 0002 0B4B     		ldr	r3, .L5
  44              		.loc 1 149 0
  45 0004 1878     		ldrb	r0, [r3]	@ zero_extendqisi2
  46              		.loc 1 148 0
  47 0006 DA68     		ldr	r2, [r3, #12]
  48 0008 0021     		movs	r1, #0
  49              		.loc 1 149 0
  50 000a 0428     		cmp	r0, #4
  51              		.loc 1 148 0
  52 000c 1161     		str	r1, [r2, #16]
  53              		.loc 1 149 0
  54 000e 07D1     		bne	.L2
  55              		.loc 1 150 0
  56 0010 0220     		movs	r0, #2
  57 0012 1870     		strb	r0, [r3]
ARM GAS  C:\Users\IDONNO~1\AppData\Local\Temp\cc77Z7Ra.s 			page 2


  58              	.LVL1:
  59              	.LBB10:
  60              	.LBB11:
  61              		.loc 1 733 0
  62 0014 1160     		str	r1, [r2]
  63              		.loc 1 734 0
  64 0016 1161     		str	r1, [r2, #16]
  65              		.loc 1 737 0
  66 0018 D168     		ldr	r1, [r2, #12]
  67 001a 21F0FF01 		bic	r1, r1, #255
  68 001e D160     		str	r1, [r2, #12]
  69              	.LVL2:
  70              	.L2:
  71              	.LBE11:
  72              	.LBE10:
  73              		.loc 1 153 0
  74 0020 5B68     		ldr	r3, [r3, #4]
  75 0022 0348     		ldr	r0, .L5
  76 0024 5B68     		ldr	r3, [r3, #4]
  77 0026 9847     		blx	r3
  78              	.LVL3:
  79              	.LBE9:
  80              	.LBE8:
  81              		.loc 1 252 0
  82 0028 BDE80840 		pop	{r3, lr}
  83              		.cfi_restore 14
  84              		.cfi_restore 3
  85              		.cfi_def_cfa_offset 0
  86              		.loc 1 251 0
  87 002c FFF7FEBF 		b	_port_irq_epilogue
  88              	.LVL4:
  89              	.L6:
  90              		.align	2
  91              	.L5:
  92 0030 00000000 		.word	.LANCHOR0
  93              		.cfi_endproc
  94              	.LFE257:
  95              		.size	Vector108, .-Vector108
  96              		.section	.text.gpt_lld_init,"ax",%progbits
  97              		.align	2
  98              		.p2align 4,,15
  99              		.global	gpt_lld_init
 100              		.thumb
 101              		.thumb_func
 102              		.type	gpt_lld_init, %function
 103              	gpt_lld_init:
 104              	.LFB258:
 105              		.loc 1 397 0
 106              		.cfi_startproc
 107              		@ args = 0, pretend = 0, frame = 0
 108              		@ frame_needed = 0, uses_anonymous_args = 0
 109              		@ link register save eliminated.
 110              		.loc 1 425 0
 111 0000 0248     		ldr	r0, .L8
 112 0002 034B     		ldr	r3, .L8+4
 113 0004 C360     		str	r3, [r0, #12]
 114              		.loc 1 426 0
ARM GAS  C:\Users\IDONNO~1\AppData\Local\Temp\cc77Z7Ra.s 			page 3


 115 0006 FFF7FEBF 		b	gptObjectInit
 116              	.LVL5:
 117              	.L9:
 118 000a 00BF     		.align	2
 119              	.L8:
 120 000c 00000000 		.word	.LANCHOR0
 121 0010 000C0040 		.word	1073744896
 122              		.cfi_endproc
 123              	.LFE258:
 124              		.size	gpt_lld_init, .-gpt_lld_init
 125              		.section	.text.gpt_lld_start,"ax",%progbits
 126              		.align	2
 127              		.p2align 4,,15
 128              		.global	gpt_lld_start
 129              		.thumb
 130              		.thumb_func
 131              		.type	gpt_lld_start, %function
 132              	gpt_lld_start:
 133              	.LFB259:
 134              		.loc 1 479 0
 135              		.cfi_startproc
 136              		@ args = 0, pretend = 0, frame = 0
 137              		@ frame_needed = 0, uses_anonymous_args = 0
 138              	.LVL6:
 139 0000 38B5     		push	{r3, r4, r5, lr}
 140              		.cfi_def_cfa_offset 16
 141              		.cfi_offset 3, -16
 142              		.cfi_offset 4, -12
 143              		.cfi_offset 5, -8
 144              		.cfi_offset 14, -4
 145              		.loc 1 482 0
 146 0002 0378     		ldrb	r3, [r0]	@ zero_extendqisi2
 147 0004 012B     		cmp	r3, #1
 148              		.loc 1 479 0
 149 0006 0446     		mov	r4, r0
 150              		.loc 1 482 0
 151 0008 12D0     		beq	.L13
 152              	.LVL7:
 153              	.L11:
 154              		.loc 1 599 0
 155 000a 6068     		ldr	r0, [r4, #4]
 156 000c A368     		ldr	r3, [r4, #8]
 157              		.loc 1 608 0
 158 000e C168     		ldr	r1, [r0, #12]
 159              		.loc 1 599 0
 160 0010 0568     		ldr	r5, [r0]
 161              		.loc 1 604 0
 162 0012 E268     		ldr	r2, [r4, #12]
 163              		.loc 1 599 0
 164 0014 B3FBF5F3 		udiv	r3, r3, r5
 165 0018 013B     		subs	r3, r3, #1
 166              		.loc 1 605 0
 167 001a 8468     		ldr	r4, [r0, #8]
 168              	.LVL8:
 169              		.loc 1 599 0
 170 001c 9BB2     		uxth	r3, r3
 171              	.LVL9:
ARM GAS  C:\Users\IDONNO~1\AppData\Local\Temp\cc77Z7Ra.s 			page 4


 172              		.loc 1 604 0
 173 001e 0020     		movs	r0, #0
 174              		.loc 1 608 0
 175 0020 21F0FF01 		bic	r1, r1, #255
 176              		.loc 1 604 0
 177 0024 1060     		str	r0, [r2]
 178              		.loc 1 605 0
 179 0026 5460     		str	r4, [r2, #4]
 180              		.loc 1 606 0
 181 0028 9362     		str	r3, [r2, #40]
 182              		.loc 1 607 0
 183 002a 1061     		str	r0, [r2, #16]
 184              		.loc 1 608 0
 185 002c D160     		str	r1, [r2, #12]
 186 002e 38BD     		pop	{r3, r4, r5, pc}
 187              	.LVL10:
 188              	.L13:
 189              		.loc 1 522 0
 190 0030 0A4B     		ldr	r3, .L14
 191 0032 9842     		cmp	r0, r3
 192 0034 E9D1     		bne	.L11
 193              		.loc 1 523 0
 194 0036 0A4B     		ldr	r3, .L14+4
 195 0038 1A6C     		ldr	r2, [r3, #64]
 196 003a 42F00802 		orr	r2, r2, #8
 197 003e 1A64     		str	r2, [r3, #64]
 198              		.loc 1 524 0
 199 0040 1A6A     		ldr	r2, [r3, #32]
 200 0042 0020     		movs	r0, #0
 201              	.LVL11:
 202 0044 42F00802 		orr	r2, r2, #8
 203 0048 1A62     		str	r2, [r3, #32]
 204              		.loc 1 525 0
 205 004a 0721     		movs	r1, #7
 206              		.loc 1 524 0
 207 004c 1862     		str	r0, [r3, #32]
 208              		.loc 1 525 0
 209 004e 3220     		movs	r0, #50
 210 0050 FFF7FEFF 		bl	nvicEnableVector
 211              	.LVL12:
 212              		.loc 1 526 0
 213 0054 034B     		ldr	r3, .L14+8
 214 0056 A360     		str	r3, [r4, #8]
 215 0058 D7E7     		b	.L11
 216              	.L15:
 217 005a 00BF     		.align	2
 218              	.L14:
 219 005c 00000000 		.word	.LANCHOR0
 220 0060 00380240 		.word	1073887232
 221 0064 00BD0105 		.word	84000000
 222              		.cfi_endproc
 223              	.LFE259:
 224              		.size	gpt_lld_start, .-gpt_lld_start
 225              		.section	.text.gpt_lld_stop,"ax",%progbits
 226              		.align	2
 227              		.p2align 4,,15
 228              		.global	gpt_lld_stop
ARM GAS  C:\Users\IDONNO~1\AppData\Local\Temp\cc77Z7Ra.s 			page 5


 229              		.thumb
 230              		.thumb_func
 231              		.type	gpt_lld_stop, %function
 232              	gpt_lld_stop:
 233              	.LFB260:
 234              		.loc 1 619 0
 235              		.cfi_startproc
 236              		@ args = 0, pretend = 0, frame = 0
 237              		@ frame_needed = 0, uses_anonymous_args = 0
 238              	.LVL13:
 239 0000 08B5     		push	{r3, lr}
 240              		.cfi_def_cfa_offset 8
 241              		.cfi_offset 3, -8
 242              		.cfi_offset 14, -4
 243              		.loc 1 621 0
 244 0002 0378     		ldrb	r3, [r0]	@ zero_extendqisi2
 245 0004 022B     		cmp	r3, #2
 246 0006 00D0     		beq	.L21
 247              	.LVL14:
 248              	.L16:
 249 0008 08BD     		pop	{r3, pc}
 250              	.LVL15:
 251              	.L21:
 252              		.loc 1 651 0
 253 000a 0849     		ldr	r1, .L22
 254              		.loc 1 622 0
 255 000c C368     		ldr	r3, [r0, #12]
 256 000e 0022     		movs	r2, #0
 257              		.loc 1 651 0
 258 0010 8842     		cmp	r0, r1
 259              		.loc 1 622 0
 260 0012 1A60     		str	r2, [r3]
 261              		.loc 1 623 0
 262 0014 DA60     		str	r2, [r3, #12]
 263              		.loc 1 624 0
 264 0016 1A61     		str	r2, [r3, #16]
 265              		.loc 1 651 0
 266 0018 F6D1     		bne	.L16
 267              		.loc 1 652 0
 268 001a 3220     		movs	r0, #50
 269              	.LVL16:
 270 001c FFF7FEFF 		bl	nvicDisableVector
 271              	.LVL17:
 272              		.loc 1 653 0
 273 0020 034A     		ldr	r2, .L22+4
 274 0022 136C     		ldr	r3, [r2, #64]
 275 0024 23F00803 		bic	r3, r3, #8
 276 0028 1364     		str	r3, [r2, #64]
 277              		.loc 1 699 0
 278 002a EDE7     		b	.L16
 279              	.L23:
 280              		.align	2
 281              	.L22:
 282 002c 00000000 		.word	.LANCHOR0
 283 0030 00380240 		.word	1073887232
 284              		.cfi_endproc
 285              	.LFE260:
ARM GAS  C:\Users\IDONNO~1\AppData\Local\Temp\cc77Z7Ra.s 			page 6


 286              		.size	gpt_lld_stop, .-gpt_lld_stop
 287              		.section	.text.gpt_lld_start_timer,"ax",%progbits
 288              		.align	2
 289              		.p2align 4,,15
 290              		.global	gpt_lld_start_timer
 291              		.thumb
 292              		.thumb_func
 293              		.type	gpt_lld_start_timer, %function
 294              	gpt_lld_start_timer:
 295              	.LFB261:
 296              		.loc 1 709 0
 297              		.cfi_startproc
 298              		@ args = 0, pretend = 0, frame = 0
 299              		@ frame_needed = 0, uses_anonymous_args = 0
 300              		@ link register save eliminated.
 301              	.LVL18:
 302              		.loc 1 719 0
 303 0000 4268     		ldr	r2, [r0, #4]
 304              		.loc 1 711 0
 305 0002 C368     		ldr	r3, [r0, #12]
 306              		.loc 1 719 0
 307 0004 5068     		ldr	r0, [r2, #4]
 308              	.LVL19:
 309              		.loc 1 711 0
 310 0006 0139     		subs	r1, r1, #1
 311              	.LVL20:
 312 0008 D962     		str	r1, [r3, #44]
 313              		.loc 1 713 0
 314 000a 0022     		movs	r2, #0
 315              		.loc 1 712 0
 316 000c 0121     		movs	r1, #1
 317              	.LVL21:
 318 000e 5961     		str	r1, [r3, #20]
 319              	.LVL22:
 320              		.loc 1 713 0
 321 0010 5A62     		str	r2, [r3, #36]
 322              		.loc 1 718 0
 323 0012 1A61     		str	r2, [r3, #16]
 324              		.loc 1 719 0
 325 0014 10B1     		cbz	r0, .L25
 326              		.loc 1 720 0
 327 0016 DA68     		ldr	r2, [r3, #12]
 328 0018 0A43     		orrs	r2, r2, r1
 329 001a DA60     		str	r2, [r3, #12]
 330              	.L25:
 331              		.loc 1 721 0
 332 001c 0522     		movs	r2, #5
 333 001e 1A60     		str	r2, [r3]
 334 0020 7047     		bx	lr
 335              		.cfi_endproc
 336              	.LFE261:
 337              		.size	gpt_lld_start_timer, .-gpt_lld_start_timer
 338 0022 00BF     		.section	.text.gpt_lld_stop_timer,"ax",%progbits
 339              		.align	2
 340              		.p2align 4,,15
 341              		.global	gpt_lld_stop_timer
 342              		.thumb
ARM GAS  C:\Users\IDONNO~1\AppData\Local\Temp\cc77Z7Ra.s 			page 7


 343              		.thumb_func
 344              		.type	gpt_lld_stop_timer, %function
 345              	gpt_lld_stop_timer:
 346              	.LFB262:
 347              		.loc 1 731 0
 348              		.cfi_startproc
 349              		@ args = 0, pretend = 0, frame = 0
 350              		@ frame_needed = 0, uses_anonymous_args = 0
 351              		@ link register save eliminated.
 352              	.LVL23:
 353              		.loc 1 733 0
 354 0000 C368     		ldr	r3, [r0, #12]
 355 0002 0022     		movs	r2, #0
 356 0004 1A60     		str	r2, [r3]
 357              		.loc 1 734 0
 358 0006 1A61     		str	r2, [r3, #16]
 359              		.loc 1 737 0
 360 0008 DA68     		ldr	r2, [r3, #12]
 361 000a 22F0FF02 		bic	r2, r2, #255
 362 000e DA60     		str	r2, [r3, #12]
 363 0010 7047     		bx	lr
 364              		.cfi_endproc
 365              	.LFE262:
 366              		.size	gpt_lld_stop_timer, .-gpt_lld_stop_timer
 367 0012 00BF     		.section	.text.gpt_lld_polled_delay,"ax",%progbits
 368              		.align	2
 369              		.p2align 4,,15
 370              		.global	gpt_lld_polled_delay
 371              		.thumb
 372              		.thumb_func
 373              		.type	gpt_lld_polled_delay, %function
 374              	gpt_lld_polled_delay:
 375              	.LFB263:
 376              		.loc 1 751 0
 377              		.cfi_startproc
 378              		@ args = 0, pretend = 0, frame = 0
 379              		@ frame_needed = 0, uses_anonymous_args = 0
 380              		@ link register save eliminated.
 381              	.LVL24:
 382              		.loc 1 753 0
 383 0000 C268     		ldr	r2, [r0, #12]
 384 0002 0139     		subs	r1, r1, #1
 385              	.LVL25:
 386              		.loc 1 754 0
 387 0004 0120     		movs	r0, #1
 388              	.LVL26:
 389              		.loc 1 755 0
 390 0006 0D23     		movs	r3, #13
 391              		.loc 1 753 0
 392 0008 D162     		str	r1, [r2, #44]
 393              		.loc 1 754 0
 394 000a 5061     		str	r0, [r2, #20]
 395              		.loc 1 755 0
 396 000c 1360     		str	r3, [r2]
 397              	.L31:
 398              		.loc 1 756 0 discriminator 1
 399 000e 1369     		ldr	r3, [r2, #16]
ARM GAS  C:\Users\IDONNO~1\AppData\Local\Temp\cc77Z7Ra.s 			page 8


 400 0010 DB07     		lsls	r3, r3, #31
 401 0012 FCD5     		bpl	.L31
 402              		.loc 1 758 0
 403 0014 0023     		movs	r3, #0
 404 0016 1361     		str	r3, [r2, #16]
 405 0018 7047     		bx	lr
 406              		.cfi_endproc
 407              	.LFE263:
 408              		.size	gpt_lld_polled_delay, .-gpt_lld_polled_delay
 409              		.global	GPTD5
 410 001a 00BF     		.section	.bss.GPTD5,"aw",%nobits
 411              		.align	2
 412              		.set	.LANCHOR0,. + 0
 413              		.type	GPTD5, %object
 414              		.size	GPTD5, 16
 415              	GPTD5:
 416 0000 00000000 		.space	16
 416      00000000 
 416      00000000 
 416      00000000 
 417              		.text
 418              	.Letext0:
 419              		.file 2 "c:\\program files (x86)\\gnu tools arm embedded\\5.2 2015q4\\lib\\gcc\\arm-none-eabi\\5.2
 420              		.file 3 "c:\\program files (x86)\\gnu tools arm embedded\\5.2 2015q4\\arm-none-eabi\\include\\mach
 421              		.file 4 "c:\\program files (x86)\\gnu tools arm embedded\\5.2 2015q4\\arm-none-eabi\\include\\sys\
 422              		.file 5 "lib/ChibiOS_3.0.2/os/rt/ports/ARMCMx/compilers/GCC/chtypes.h"
 423              		.file 6 "lib/ChibiOS_3.0.2/os/rt/include/chsystypes.h"
 424              		.file 7 "lib/ChibiOS_3.0.2/os/rt/include/chschd.h"
 425              		.file 8 "lib/ChibiOS_3.0.2/os/ext/CMSIS/ST/stm32f407xx.h"
 426              		.file 9 "lib/ChibiOS_3.0.2/os/rt/ports/ARMCMx/chcore.h"
 427              		.file 10 "lib/ChibiOS_3.0.2/os/rt/ports/ARMCMx/chcore_v7m.h"
 428              		.file 11 "lib/ChibiOS_3.0.2/os/rt/include/chtm.h"
 429              		.file 12 "lib/ChibiOS_3.0.2/os/rt/include/chsem.h"
 430              		.file 13 "lib/ChibiOS_3.0.2/os/rt/include/chmtx.h"
 431              		.file 14 "lib/ChibiOS_3.0.2/os/hal/include/gpt.h"
 432              		.file 15 "lib/ChibiOS_3.0.2/os/hal/ports/STM32/LLD/TIMv1/gpt_lld.h"
 433              		.file 16 "lib/ChibiOS_3.0.2/os/hal/ports/STM32/LLD/TIMv1/stm32_tim.h"
 434              		.file 17 "lib/ChibiOS_3.0.2/os/ext/CMSIS/include/core_cm4.h"
 435              		.file 18 "lib/ChibiOS_3.0.2/os/hal/ports/common/ARMCMx/nvic.h"