ARM GAS  C:\Users\IDONNO~1\AppData\Local\Temp\ccIQZ8ld.s 			page 1


   1              		.syntax unified
   2              		.cpu cortex-m4
   3              		.eabi_attribute 27, 1
   4              		.eabi_attribute 28, 1
   5              		.fpu fpv4-sp-d16
   6              		.eabi_attribute 20, 1
   7              		.eabi_attribute 21, 1
   8              		.eabi_attribute 23, 3
   9              		.eabi_attribute 24, 1
  10              		.eabi_attribute 25, 1
  11              		.eabi_attribute 26, 1
  12              		.eabi_attribute 30, 2
  13              		.eabi_attribute 34, 1
  14              		.eabi_attribute 18, 4
  15              		.thumb
  16              		.syntax unified
  17              		.file	"hal.c"
  18              		.text
  19              	.Ltext0:
  20              		.cfi_sections	.debug_frame
  21              		.section	.text.halInit,"ax",%progbits
  22              		.align	2
  23              		.p2align 4,,15
  24              		.global	halInit
  25              		.thumb
  26              		.thumb_func
  27              		.type	halInit, %function
  28              	halInit:
  29              	.LFB256:
  30              		.file 1 "lib/ChibiOS_3.0.2/os/hal/src/hal.c"
  31              		.loc 1 56 0
  32              		.cfi_startproc
  33              		@ args = 0, pretend = 0, frame = 0
  34              		@ frame_needed = 0, uses_anonymous_args = 0
  35 0000 08B5     		push	{r3, lr}
  36              		.cfi_def_cfa_offset 8
  37              		.cfi_offset 3, -8
  38              		.cfi_offset 14, -4
  39              		.loc 1 62 0
  40 0002 FFF7FEFF 		bl	hal_lld_init
  41              	.LVL0:
  42              		.loc 1 65 0
  43 0006 0A48     		ldr	r0, .L3
  44 0008 FFF7FEFF 		bl	_pal_lld_init
  45              	.LVL1:
  46              		.loc 1 71 0
  47 000c FFF7FEFF 		bl	canInit
  48              	.LVL2:
  49              		.loc 1 80 0
  50 0010 FFF7FEFF 		bl	gptInit
  51              	.LVL3:
  52              		.loc 1 83 0
  53 0014 FFF7FEFF 		bl	i2cInit
  54              	.LVL4:
  55              		.loc 1 89 0
  56 0018 FFF7FEFF 		bl	icuInit
  57              	.LVL5:
ARM GAS  C:\Users\IDONNO~1\AppData\Local\Temp\ccIQZ8ld.s 			page 2


  58              		.loc 1 98 0
  59 001c FFF7FEFF 		bl	sdInit
  60              	.LVL6:
  61              		.loc 1 110 0
  62 0020 FFF7FEFF 		bl	usbInit
  63              	.LVL7:
  64              		.loc 1 130 0
  65 0024 FFF7FEFF 		bl	boardInit
  66              	.LVL8:
  67              		.loc 1 139 0
  68 0028 BDE80840 		pop	{r3, lr}
  69              		.cfi_restore 14
  70              		.cfi_restore 3
  71              		.cfi_def_cfa_offset 0
  72              		.loc 1 137 0
  73 002c FFF7FEBF 		b	stInit
  74              	.LVL9:
  75              	.L4:
  76              		.align	2
  77              	.L3:
  78 0030 00000000 		.word	pal_default_config
  79              		.cfi_endproc
  80              	.LFE256:
  81              		.size	halInit, .-halInit
  82              		.text
  83              	.Letext0:
  84              		.file 2 "c:\\program files (x86)\\gnu tools arm embedded\\5.4 2016q3\\arm-none-eabi\\include\\mach
  85              		.file 3 "c:\\program files (x86)\\gnu tools arm embedded\\5.4 2016q3\\arm-none-eabi\\include\\sys\
  86              		.file 4 "lib/ChibiOS_3.0.2/os/rt/ports/ARMCMx/compilers/GCC/chtypes.h"
  87              		.file 5 "lib/ChibiOS_3.0.2/os/rt/include/chsystypes.h"
  88              		.file 6 "lib/ChibiOS_3.0.2/os/rt/include/chschd.h"
  89              		.file 7 "lib/ChibiOS_3.0.2/os/rt/ports/ARMCMx/chcore.h"
  90              		.file 8 "lib/ChibiOS_3.0.2/os/rt/ports/ARMCMx/chcore_v7m.h"
  91              		.file 9 "lib/ChibiOS_3.0.2/os/rt/include/chtm.h"
  92              		.file 10 "lib/ChibiOS_3.0.2/os/rt/include/chsem.h"
  93              		.file 11 "lib/ChibiOS_3.0.2/os/rt/include/chmtx.h"
  94              		.file 12 "lib/ChibiOS_3.0.2/os/hal/ports/STM32/LLD/GPIOv2/pal_lld.h"
  95              		.file 13 "lib/ChibiOS_3.0.2/os/ext/CMSIS/include/core_cm4.h"
  96              		.file 14 "lib/ChibiOS_3.0.2/os/hal/ports/STM32/STM32F4xx/hal_lld.h"
  97              		.file 15 "lib/ChibiOS_3.0.2/os/hal/include/can.h"
  98              		.file 16 "lib/ChibiOS_3.0.2/os/hal/include/gpt.h"
  99              		.file 17 "lib/ChibiOS_3.0.2/os/hal/include/i2c.h"
 100              		.file 18 "lib/ChibiOS_3.0.2/os/hal/include/icu.h"
 101              		.file 19 "lib/ChibiOS_3.0.2/os/hal/include/serial.h"
 102              		.file 20 "lib/ChibiOS_3.0.2/os/hal/include/usb.h"
 103              		.file 21 "lib/ChibiOS_3.0.2/os/hal/boards/ST_STM32F4_DISCOVERY/board.h"
 104              		.file 22 "lib/ChibiOS_3.0.2/os/hal/include/st.h"
 105              		.file 23 "lib/ChibiOS_3.0.2/os/hal/osal/rt/osal.h"