ARM GAS  C:\Users\IDONNO~1.SON\AppData\Local\Temp\cc9lduOR.s 			page 1


   1              		.syntax unified
   2              		.cpu cortex-m4
   3              		.eabi_attribute 27, 1
   4              		.eabi_attribute 28, 1
   5              		.fpu fpv4-sp-d16
   6              		.eabi_attribute 20, 1
   7              		.eabi_attribute 21, 1
   8              		.eabi_attribute 23, 3
   9              		.eabi_attribute 24, 1
  10              		.eabi_attribute 25, 1
  11              		.eabi_attribute 26, 1
  12              		.eabi_attribute 30, 2
  13              		.eabi_attribute 34, 1
  14              		.eabi_attribute 18, 4
  15              		.thumb
  16              		.syntax unified
  17              		.file	"hal_lld.c"
  18              		.text
  19              	.Ltext0:
  20              		.cfi_sections	.debug_frame
  21              		.section	.text.hal_lld_init,"ax",%progbits
  22              		.align	2
  23              		.p2align 4,,15
  24              		.global	hal_lld_init
  25              		.thumb
  26              		.thumb_func
  27              		.type	hal_lld_init, %function
  28              	hal_lld_init:
  29              	.LFB257:
  30              		.file 1 "lib/ChibiOS_3.0.2/os/hal/ports/STM32/STM32F4xx/hal_lld.c"
  31              		.loc 1 114 0
  32              		.cfi_startproc
  33              		@ args = 0, pretend = 0, frame = 0
  34              		@ frame_needed = 0, uses_anonymous_args = 0
  35              		@ link register save eliminated.
  36              		.loc 1 118 0
  37 0000 174B     		ldr	r3, .L8
  38 0002 4FF0FF31 		mov	r1, #-1
  39 0006 1A69     		ldr	r2, [r3, #16]
  40 0008 0022     		movs	r2, #0
  41              		.loc 1 114 0
  42 000a 10B4     		push	{r4}
  43              		.cfi_def_cfa_offset 4
  44              		.cfi_offset 4, -4
  45              		.loc 1 118 0
  46 000c 1961     		str	r1, [r3, #16]
  47 000e 1A61     		str	r2, [r3, #16]
  48              		.loc 1 119 0
  49 0010 5869     		ldr	r0, [r3, #20]
  50 0012 5961     		str	r1, [r3, #20]
  51 0014 5A61     		str	r2, [r3, #20]
  52              		.loc 1 120 0
  53 0016 186A     		ldr	r0, [r3, #32]
  54              	.LBB4:
  55              	.LBB5:
  56              		.loc 1 57 0
  57 0018 124C     		ldr	r4, .L8+4
ARM GAS  C:\Users\IDONNO~1.SON\AppData\Local\Temp\cc9lduOR.s 			page 2


  58              	.LBE5:
  59              	.LBE4:
  60              		.loc 1 120 0
  61 001a 60F08050 		orn	r0, r0, #268435456
  62 001e 1862     		str	r0, [r3, #32]
  63 0020 1A62     		str	r2, [r3, #32]
  64              		.loc 1 121 0
  65 0022 586A     		ldr	r0, [r3, #36]
  66 0024 5962     		str	r1, [r3, #36]
  67 0026 5A62     		str	r2, [r3, #36]
  68              		.loc 1 124 0
  69 0028 196C     		ldr	r1, [r3, #64]
  70 002a 41F08051 		orr	r1, r1, #268435456
  71 002e 1964     		str	r1, [r3, #64]
  72              	.LBB8:
  73              	.LBB6:
  74              		.loc 1 57 0
  75 0030 2168     		ldr	r1, [r4]
  76 0032 41F48071 		orr	r1, r1, #256
  77 0036 2160     		str	r1, [r4]
  78              		.loc 1 60 0
  79 0038 196F     		ldr	r1, [r3, #112]
  80 003a 01F44071 		and	r1, r1, #768
  81 003e B1F5007F 		cmp	r1, #512
  82 0042 03D0     		beq	.L2
  83              		.loc 1 62 0
  84 0044 4FF48031 		mov	r1, #65536
  85 0048 1967     		str	r1, [r3, #112]
  86              		.loc 1 63 0
  87 004a 1A67     		str	r2, [r3, #112]
  88              	.L2:
  89              		.loc 1 97 0
  90 004c 054A     		ldr	r2, .L8+4
  91              	.LBE6:
  92              	.LBE8:
  93              		.loc 1 137 0
  94 004e 5DF8044B 		ldr	r4, [sp], #4
  95              		.cfi_restore 4
  96              		.cfi_def_cfa_offset 0
  97              	.LBB9:
  98              	.LBB7:
  99              		.loc 1 97 0
 100 0052 5368     		ldr	r3, [r2, #4]
 101 0054 23F40073 		bic	r3, r3, #512
 102 0058 5360     		str	r3, [r2, #4]
 103              	.LBE7:
 104              	.LBE9:
 105              		.loc 1 130 0
 106 005a FFF7FEBF 		b	dmaInit
 107              	.LVL0:
 108              	.L9:
 109 005e 00BF     		.align	2
 110              	.L8:
 111 0060 00380240 		.word	1073887232
 112 0064 00700040 		.word	1073770496
 113              		.cfi_endproc
 114              	.LFE257:
ARM GAS  C:\Users\IDONNO~1.SON\AppData\Local\Temp\cc9lduOR.s 			page 3


 115              		.size	hal_lld_init, .-hal_lld_init
 116              		.section	.text.stm32_clock_init,"ax",%progbits
 117              		.align	2
 118              		.p2align 4,,15
 119              		.global	stm32_clock_init
 120              		.thumb
 121              		.thumb_func
 122              		.type	stm32_clock_init, %function
 123              	stm32_clock_init:
 124              	.LFB258:
 125              		.loc 1 146 0
 126              		.cfi_startproc
 127              		@ args = 0, pretend = 0, frame = 0
 128              		@ frame_needed = 0, uses_anonymous_args = 0
 129              		@ link register save eliminated.
 130              		.loc 1 150 0
 131 0000 2C49     		ldr	r1, .L31
 132              		.loc 1 154 0
 133 0002 2D4B     		ldr	r3, .L31+4
 134              		.loc 1 150 0
 135 0004 4FF08050 		mov	r0, #268435456
 136              		.loc 1 154 0
 137 0008 4FF44042 		mov	r2, #49152
 138              		.loc 1 150 0
 139 000c 0864     		str	r0, [r1, #64]
 140              		.loc 1 154 0
 141 000e 1A60     		str	r2, [r3]
 142              		.loc 1 161 0
 143 0010 0B68     		ldr	r3, [r1]
 144 0012 43F00103 		orr	r3, r3, #1
 145 0016 0B60     		str	r3, [r1]
 146              	.L11:
 147              		.loc 1 162 0 discriminator 1
 148 0018 0A68     		ldr	r2, [r1]
 149 001a 264B     		ldr	r3, .L31
 150 001c 9007     		lsls	r0, r2, #30
 151 001e FBD5     		bpl	.L11
 152              		.loc 1 168 0
 153 0020 9A68     		ldr	r2, [r3, #8]
 154 0022 22F00302 		bic	r2, r2, #3
 155 0026 9A60     		str	r2, [r3, #8]
 156              		.loc 1 169 0
 157 0028 9A68     		ldr	r2, [r3, #8]
 158 002a 9A60     		str	r2, [r3, #8]
 159              		.loc 1 170 0
 160 002c 1946     		mov	r1, r3
 161              	.L12:
 162              		.loc 1 170 0 is_stmt 0 discriminator 1
 163 002e 8B68     		ldr	r3, [r1, #8]
 164 0030 204A     		ldr	r2, .L31
 165 0032 13F00C03 		ands	r3, r3, #12
 166 0036 FAD1     		bne	.L12
 167              		.loc 1 174 0 is_stmt 1
 168 0038 1168     		ldr	r1, [r2]
 169 003a 01F0F901 		and	r1, r1, #249
 170 003e 1160     		str	r1, [r2]
 171              		.loc 1 175 0
ARM GAS  C:\Users\IDONNO~1.SON\AppData\Local\Temp\cc9lduOR.s 			page 4


 172 0040 9360     		str	r3, [r2, #8]
 173              		.loc 1 184 0
 174 0042 1368     		ldr	r3, [r2]
 175 0044 43F48033 		orr	r3, r3, #65536
 176 0048 1360     		str	r3, [r2]
 177              	.L13:
 178              		.loc 1 186 0 discriminator 1
 179 004a 1168     		ldr	r1, [r2]
 180 004c 194B     		ldr	r3, .L31
 181 004e 8903     		lsls	r1, r1, #14
 182 0050 FBD5     		bpl	.L13
 183              		.loc 1 192 0
 184 0052 5A6F     		ldr	r2, [r3, #116]
 185 0054 42F00102 		orr	r2, r2, #1
 186 0058 5A67     		str	r2, [r3, #116]
 187              	.L14:
 188              		.loc 1 193 0 discriminator 1
 189 005a 5A6F     		ldr	r2, [r3, #116]
 190 005c 1549     		ldr	r1, .L31
 191 005e 9007     		lsls	r0, r2, #30
 192 0060 FBD5     		bpl	.L14
 193              		.loc 1 199 0
 194 0062 164B     		ldr	r3, .L31+8
 195 0064 4B60     		str	r3, [r1, #4]
 196              		.loc 1 201 0
 197 0066 0B68     		ldr	r3, [r1]
 198              		.loc 1 205 0
 199 0068 134A     		ldr	r2, .L31+4
 200              		.loc 1 201 0
 201 006a 43F08073 		orr	r3, r3, #16777216
 202 006e 0B60     		str	r3, [r1]
 203              	.L15:
 204              		.loc 1 205 0 discriminator 1
 205 0070 5368     		ldr	r3, [r2, #4]
 206 0072 5904     		lsls	r1, r3, #17
 207 0074 FCD5     		bpl	.L15
 208              		.loc 1 221 0 discriminator 1
 209 0076 0F49     		ldr	r1, .L31
 210              	.L25:
 211 0078 0A68     		ldr	r2, [r1]
 212 007a 0E4B     		ldr	r3, .L31
 213 007c 9201     		lsls	r2, r2, #6
 214 007e FBD5     		bpl	.L25
 215              		.loc 1 260 0
 216 0080 0F4A     		ldr	r2, .L31+12
 217              		.loc 1 247 0
 218 0082 1049     		ldr	r1, .L31+16
 219 0084 9960     		str	r1, [r3, #8]
 220              		.loc 1 260 0
 221 0086 40F20571 		movw	r1, #1797
 222 008a 1160     		str	r1, [r2]
 223              		.loc 1 266 0
 224 008c 9A68     		ldr	r2, [r3, #8]
 225 008e 42F00202 		orr	r2, r2, #2
 226 0092 9A60     		str	r2, [r3, #8]
 227              		.loc 1 267 0
 228 0094 1A46     		mov	r2, r3
ARM GAS  C:\Users\IDONNO~1.SON\AppData\Local\Temp\cc9lduOR.s 			page 5


 229              	.L17:
 230              		.loc 1 267 0 is_stmt 0 discriminator 1
 231 0096 9368     		ldr	r3, [r2, #8]
 232 0098 0649     		ldr	r1, .L31
 233 009a 03F00C03 		and	r3, r3, #12
 234 009e 082B     		cmp	r3, #8
 235 00a0 F9D1     		bne	.L17
 236              		.loc 1 274 0 is_stmt 1
 237 00a2 4B6C     		ldr	r3, [r1, #68]
 238 00a4 43F48043 		orr	r3, r3, #16384
 239 00a8 4B64     		str	r3, [r1, #68]
 240 00aa 4B6E     		ldr	r3, [r1, #100]
 241 00ac 43F48043 		orr	r3, r3, #16384
 242 00b0 4B66     		str	r3, [r1, #100]
 243 00b2 7047     		bx	lr
 244              	.L32:
 245              		.align	2
 246              	.L31:
 247 00b4 00380240 		.word	1073887232
 248 00b8 00700040 		.word	1073770496
 249 00bc 08544007 		.word	121656328
 250 00c0 003C0240 		.word	1073888256
 251 00c4 00940838 		.word	940086272
 252              		.cfi_endproc
 253              	.LFE258:
 254              		.size	stm32_clock_init, .-stm32_clock_init
 255              		.global	SystemCoreClock
 256              		.section	.data.SystemCoreClock,"aw",%progbits
 257              		.align	2
 258              		.type	SystemCoreClock, %object
 259              		.size	SystemCoreClock, 4
 260              	SystemCoreClock:
 261 0000 007A030A 		.word	168000000
 262              		.text
 263              	.Letext0:
 264              		.file 2 "c:\\program files (x86)\\gnu tools arm embedded\\5.4 2016q2\\lib\\gcc\\arm-none-eabi\\5.4
 265              		.file 3 "c:\\program files (x86)\\gnu tools arm embedded\\5.4 2016q2\\arm-none-eabi\\include\\mach
 266              		.file 4 "c:\\program files (x86)\\gnu tools arm embedded\\5.4 2016q2\\arm-none-eabi\\include\\sys\
 267              		.file 5 "lib/ChibiOS_3.0.2/os/rt/ports/ARMCMx/compilers/GCC/chtypes.h"
 268              		.file 6 "lib/ChibiOS_3.0.2/os/rt/include/chsystypes.h"
 269              		.file 7 "lib/ChibiOS_3.0.2/os/rt/include/chschd.h"
 270              		.file 8 "lib/ChibiOS_3.0.2/os/ext/CMSIS/ST/stm32f407xx.h"
 271              		.file 9 "lib/ChibiOS_3.0.2/os/rt/ports/ARMCMx/chcore.h"
 272              		.file 10 "lib/ChibiOS_3.0.2/os/rt/ports/ARMCMx/chcore_v7m.h"
 273              		.file 11 "lib/ChibiOS_3.0.2/os/rt/include/chtm.h"
 274              		.file 12 "lib/ChibiOS_3.0.2/os/rt/include/chsem.h"
 275              		.file 13 "lib/ChibiOS_3.0.2/os/rt/include/chmtx.h"
 276              		.file 14 "lib/ChibiOS_3.0.2/os/ext/CMSIS/include/core_cm4.h"
 277              		.file 15 "lib/ChibiOS_3.0.2/os/hal/ports/STM32/STM32F4xx/stm32_dma.h"
 278              		.section	.debug_info,"",%progbits
 279              	.Ldebug_info0:
 280 0000 E1090000 		.4byte	0x9e1
 281 0004 0400     		.2byte	0x4
 282 0006 00000000 		.4byte	.Ldebug_abbrev0
 283 000a 04       		.byte	0x4
 284 000b 01       		.uleb128 0x1
 285 000c 49000000 		.4byte	.LASF142
ARM GAS  C:\Users\IDONNO~1.SON\AppData\Local\Temp\cc9lduOR.s 			page 6


 286 0010 0C       		.byte	0xc
 287 0011 52020000 		.4byte	.LASF143
 288 0015 7A010000 		.4byte	.LASF144
 289 0019 20000000 		.4byte	.Ldebug_ranges0+0x20
 290 001d 00000000 		.4byte	0
 291 0021 00000000 		.4byte	.Ldebug_line0
 292 0025 02       		.uleb128 0x2
 293 0026 04       		.byte	0x4
 294 0027 05       		.byte	0x5
 295 0028 696E7400 		.ascii	"int\000"
 296 002c 03       		.uleb128 0x3
 297 002d 0D000000 		.4byte	.LASF2
 298 0031 02       		.byte	0x2
 299 0032 D8       		.byte	0xd8
 300 0033 37000000 		.4byte	0x37
 301 0037 04       		.uleb128 0x4
 302 0038 04       		.byte	0x4
 303 0039 07       		.byte	0x7
 304 003a 41030000 		.4byte	.LASF0
 305 003e 04       		.uleb128 0x4
 306 003f 01       		.byte	0x1
 307 0040 06       		.byte	0x6
 308 0041 27020000 		.4byte	.LASF1
 309 0045 03       		.uleb128 0x3
 310 0046 24000000 		.4byte	.LASF3
 311 004a 03       		.byte	0x3
 312 004b 1D       		.byte	0x1d
 313 004c 50000000 		.4byte	0x50
 314 0050 04       		.uleb128 0x4
 315 0051 01       		.byte	0x1
 316 0052 08       		.byte	0x8
 317 0053 5B050000 		.4byte	.LASF4
 318 0057 04       		.uleb128 0x4
 319 0058 02       		.byte	0x2
 320 0059 05       		.byte	0x5
 321 005a 73050000 		.4byte	.LASF5
 322 005e 04       		.uleb128 0x4
 323 005f 02       		.byte	0x2
 324 0060 07       		.byte	0x7
 325 0061 9A030000 		.4byte	.LASF6
 326 0065 03       		.uleb128 0x3
 327 0066 23040000 		.4byte	.LASF7
 328 006a 03       		.byte	0x3
 329 006b 3F       		.byte	0x3f
 330 006c 70000000 		.4byte	0x70
 331 0070 04       		.uleb128 0x4
 332 0071 04       		.byte	0x4
 333 0072 05       		.byte	0x5
 334 0073 C0020000 		.4byte	.LASF8
 335 0077 03       		.uleb128 0x3
 336 0078 71060000 		.4byte	.LASF9
 337 007c 03       		.byte	0x3
 338 007d 41       		.byte	0x41
 339 007e 82000000 		.4byte	0x82
 340 0082 04       		.uleb128 0x4
 341 0083 04       		.byte	0x4
 342 0084 07       		.byte	0x7
ARM GAS  C:\Users\IDONNO~1.SON\AppData\Local\Temp\cc9lduOR.s 			page 7


 343 0085 23060000 		.4byte	.LASF10
 344 0089 04       		.uleb128 0x4
 345 008a 08       		.byte	0x8
 346 008b 05       		.byte	0x5
 347 008c 19020000 		.4byte	.LASF11
 348 0090 03       		.uleb128 0x3
 349 0091 DF040000 		.4byte	.LASF12
 350 0095 03       		.byte	0x3
 351 0096 5B       		.byte	0x5b
 352 0097 9B000000 		.4byte	0x9b
 353 009b 04       		.uleb128 0x4
 354 009c 08       		.byte	0x8
 355 009d 07       		.byte	0x7
 356 009e 9E010000 		.4byte	.LASF13
 357 00a2 03       		.uleb128 0x3
 358 00a3 FA060000 		.4byte	.LASF14
 359 00a7 04       		.byte	0x4
 360 00a8 18       		.byte	0x18
 361 00a9 45000000 		.4byte	0x45
 362 00ad 03       		.uleb128 0x3
 363 00ae 53050000 		.4byte	.LASF15
 364 00b2 04       		.byte	0x4
 365 00b3 2C       		.byte	0x2c
 366 00b4 65000000 		.4byte	0x65
 367 00b8 03       		.uleb128 0x3
 368 00b9 F3050000 		.4byte	.LASF16
 369 00bd 04       		.byte	0x4
 370 00be 30       		.byte	0x30
 371 00bf 77000000 		.4byte	0x77
 372 00c3 03       		.uleb128 0x3
 373 00c4 1B000000 		.4byte	.LASF17
 374 00c8 04       		.byte	0x4
 375 00c9 3C       		.byte	0x3c
 376 00ca 90000000 		.4byte	0x90
 377 00ce 05       		.uleb128 0x5
 378 00cf AD000000 		.4byte	0xad
 379 00d3 05       		.uleb128 0x5
 380 00d4 B8000000 		.4byte	0xb8
 381 00d8 03       		.uleb128 0x3
 382 00d9 BA060000 		.4byte	.LASF18
 383 00dd 05       		.byte	0x5
 384 00de 45       		.byte	0x45
 385 00df B8000000 		.4byte	0xb8
 386 00e3 03       		.uleb128 0x3
 387 00e4 F7030000 		.4byte	.LASF19
 388 00e8 05       		.byte	0x5
 389 00e9 48       		.byte	0x48
 390 00ea A2000000 		.4byte	0xa2
 391 00ee 03       		.uleb128 0x3
 392 00ef DC020000 		.4byte	.LASF20
 393 00f3 05       		.byte	0x5
 394 00f4 49       		.byte	0x49
 395 00f5 A2000000 		.4byte	0xa2
 396 00f9 03       		.uleb128 0x3
 397 00fa EA040000 		.4byte	.LASF21
 398 00fe 05       		.byte	0x5
 399 00ff 4A       		.byte	0x4a
ARM GAS  C:\Users\IDONNO~1.SON\AppData\Local\Temp\cc9lduOR.s 			page 8


 400 0100 A2000000 		.4byte	0xa2
 401 0104 03       		.uleb128 0x3
 402 0105 A6020000 		.4byte	.LASF22
 403 0109 05       		.byte	0x5
 404 010a 4B       		.byte	0x4b
 405 010b A2000000 		.4byte	0xa2
 406 010f 03       		.uleb128 0x3
 407 0110 35050000 		.4byte	.LASF23
 408 0114 05       		.byte	0x5
 409 0115 4C       		.byte	0x4c
 410 0116 B8000000 		.4byte	0xb8
 411 011a 03       		.uleb128 0x3
 412 011b C2030000 		.4byte	.LASF24
 413 011f 05       		.byte	0x5
 414 0120 4D       		.byte	0x4d
 415 0121 AD000000 		.4byte	0xad
 416 0125 03       		.uleb128 0x3
 417 0126 17040000 		.4byte	.LASF25
 418 012a 05       		.byte	0x5
 419 012b 4F       		.byte	0x4f
 420 012c B8000000 		.4byte	0xb8
 421 0130 03       		.uleb128 0x3
 422 0131 3B030000 		.4byte	.LASF26
 423 0135 05       		.byte	0x5
 424 0136 51       		.byte	0x51
 425 0137 AD000000 		.4byte	0xad
 426 013b 03       		.uleb128 0x3
 427 013c 53060000 		.4byte	.LASF27
 428 0140 06       		.byte	0x6
 429 0141 33       		.byte	0x33
 430 0142 B8000000 		.4byte	0xb8
 431 0146 03       		.uleb128 0x3
 432 0147 43060000 		.4byte	.LASF28
 433 014b 06       		.byte	0x6
 434 014c 3F       		.byte	0x3f
 435 014d 51010000 		.4byte	0x151
 436 0151 06       		.uleb128 0x6
 437 0152 AD030000 		.4byte	.LASF50
 438 0156 48       		.byte	0x48
 439 0157 07       		.byte	0x7
 440 0158 C2       		.byte	0xc2
 441 0159 56020000 		.4byte	0x256
 442 015d 07       		.uleb128 0x7
 443 015e 94040000 		.4byte	.LASF29
 444 0162 07       		.byte	0x7
 445 0163 C3       		.byte	0xc3
 446 0164 61020000 		.4byte	0x261
 447 0168 00       		.byte	0
 448 0169 07       		.uleb128 0x7
 449 016a 24050000 		.4byte	.LASF30
 450 016e 07       		.byte	0x7
 451 016f C5       		.byte	0xc5
 452 0170 61020000 		.4byte	0x261
 453 0174 04       		.byte	0x4
 454 0175 07       		.uleb128 0x7
 455 0176 07020000 		.4byte	.LASF31
 456 017a 07       		.byte	0x7
ARM GAS  C:\Users\IDONNO~1.SON\AppData\Local\Temp\cc9lduOR.s 			page 9


 457 017b C7       		.byte	0xc7
 458 017c 0F010000 		.4byte	0x10f
 459 0180 08       		.byte	0x8
 460 0181 07       		.uleb128 0x7
 461 0182 33070000 		.4byte	.LASF32
 462 0186 07       		.byte	0x7
 463 0187 C8       		.byte	0xc8
 464 0188 DA060000 		.4byte	0x6da
 465 018c 0C       		.byte	0xc
 466 018d 07       		.uleb128 0x7
 467 018e E5020000 		.4byte	.LASF33
 468 0192 07       		.byte	0x7
 469 0193 CA       		.byte	0xca
 470 0194 61020000 		.4byte	0x261
 471 0198 10       		.byte	0x10
 472 0199 07       		.uleb128 0x7
 473 019a A3040000 		.4byte	.LASF34
 474 019e 07       		.byte	0x7
 475 019f CB       		.byte	0xcb
 476 01a0 61020000 		.4byte	0x261
 477 01a4 14       		.byte	0x14
 478 01a5 07       		.uleb128 0x7
 479 01a6 09070000 		.4byte	.LASF35
 480 01aa 07       		.byte	0x7
 481 01ab D2       		.byte	0xd2
 482 01ac 1F090000 		.4byte	0x91f
 483 01b0 18       		.byte	0x18
 484 01b1 07       		.uleb128 0x7
 485 01b2 7D050000 		.4byte	.LASF36
 486 01b6 07       		.byte	0x7
 487 01b7 DD       		.byte	0xdd
 488 01b8 EE000000 		.4byte	0xee
 489 01bc 1C       		.byte	0x1c
 490 01bd 07       		.uleb128 0x7
 491 01be A7050000 		.4byte	.LASF37
 492 01c2 07       		.byte	0x7
 493 01c3 E1       		.byte	0xe1
 494 01c4 E3000000 		.4byte	0xe3
 495 01c8 1D       		.byte	0x1d
 496 01c9 07       		.uleb128 0x7
 497 01ca E8060000 		.4byte	.LASF38
 498 01ce 07       		.byte	0x7
 499 01cf E6       		.byte	0xe6
 500 01d0 F9000000 		.4byte	0xf9
 501 01d4 1E       		.byte	0x1e
 502 01d5 07       		.uleb128 0x7
 503 01d6 85050000 		.4byte	.LASF39
 504 01da 07       		.byte	0x7
 505 01db EC       		.byte	0xec
 506 01dc 04010000 		.4byte	0x104
 507 01e0 1F       		.byte	0x1f
 508 01e1 07       		.uleb128 0x7
 509 01e2 66030000 		.4byte	.LASF40
 510 01e6 07       		.byte	0x7
 511 01e7 F3       		.byte	0xf3
 512 01e8 31090000 		.4byte	0x931
 513 01ec 20       		.byte	0x20
ARM GAS  C:\Users\IDONNO~1.SON\AppData\Local\Temp\cc9lduOR.s 			page 10


 514 01ed 08       		.uleb128 0x8
 515 01ee 705F7500 		.ascii	"p_u\000"
 516 01f2 07       		.byte	0x7
 517 01f3 3101     		.2byte	0x131
 518 01f5 5A080000 		.4byte	0x85a
 519 01f9 24       		.byte	0x24
 520 01fa 09       		.uleb128 0x9
 521 01fb 57040000 		.4byte	.LASF41
 522 01ff 07       		.byte	0x7
 523 0200 3601     		.2byte	0x136
 524 0202 67020000 		.4byte	0x267
 525 0206 28       		.byte	0x28
 526 0207 09       		.uleb128 0x9
 527 0208 7D030000 		.4byte	.LASF42
 528 020c 07       		.byte	0x7
 529 020d 3C01     		.2byte	0x13c
 530 020f 8B020000 		.4byte	0x28b
 531 0213 2C       		.byte	0x2c
 532 0214 09       		.uleb128 0x9
 533 0215 25070000 		.4byte	.LASF43
 534 0219 07       		.byte	0x7
 535 021a 4001     		.2byte	0x140
 536 021c 1A010000 		.4byte	0x11a
 537 0220 34       		.byte	0x34
 538 0221 09       		.uleb128 0x9
 539 0222 DE050000 		.4byte	.LASF44
 540 0226 07       		.byte	0x7
 541 0227 4601     		.2byte	0x146
 542 0229 25010000 		.4byte	0x125
 543 022d 38       		.byte	0x38
 544 022e 09       		.uleb128 0x9
 545 022f 69050000 		.4byte	.LASF45
 546 0233 07       		.byte	0x7
 547 0234 4D01     		.2byte	0x14d
 548 0236 19090000 		.4byte	0x919
 549 023a 3C       		.byte	0x3c
 550 023b 09       		.uleb128 0x9
 551 023c 5D060000 		.4byte	.LASF46
 552 0240 07       		.byte	0x7
 553 0241 5101     		.2byte	0x151
 554 0243 0F010000 		.4byte	0x10f
 555 0247 40       		.byte	0x40
 556 0248 09       		.uleb128 0x9
 557 0249 4A020000 		.4byte	.LASF47
 558 024d 07       		.byte	0x7
 559 024e 5801     		.2byte	0x158
 560 0250 3E030000 		.4byte	0x33e
 561 0254 44       		.byte	0x44
 562 0255 00       		.byte	0
 563 0256 03       		.uleb128 0x3
 564 0257 6A040000 		.4byte	.LASF48
 565 025b 06       		.byte	0x6
 566 025c 44       		.byte	0x44
 567 025d 61020000 		.4byte	0x261
 568 0261 0A       		.uleb128 0xa
 569 0262 04       		.byte	0x4
 570 0263 46010000 		.4byte	0x146
ARM GAS  C:\Users\IDONNO~1.SON\AppData\Local\Temp\cc9lduOR.s 			page 11


 571 0267 03       		.uleb128 0x3
 572 0268 38040000 		.4byte	.LASF49
 573 026c 06       		.byte	0x6
 574 026d 49       		.byte	0x49
 575 026e 72020000 		.4byte	0x272
 576 0272 06       		.uleb128 0x6
 577 0273 0B060000 		.4byte	.LASF51
 578 0277 04       		.byte	0x4
 579 0278 07       		.byte	0x7
 580 0279 B0       		.byte	0xb0
 581 027a 8B020000 		.4byte	0x28b
 582 027e 07       		.uleb128 0x7
 583 027f 94040000 		.4byte	.LASF29
 584 0283 07       		.byte	0x7
 585 0284 B1       		.byte	0xb1
 586 0285 61020000 		.4byte	0x261
 587 0289 00       		.byte	0
 588 028a 00       		.byte	0
 589 028b 03       		.uleb128 0x3
 590 028c CF060000 		.4byte	.LASF52
 591 0290 06       		.byte	0x6
 592 0291 50       		.byte	0x50
 593 0292 96020000 		.4byte	0x296
 594 0296 06       		.uleb128 0x6
 595 0297 EC010000 		.4byte	.LASF53
 596 029b 08       		.byte	0x8
 597 029c 07       		.byte	0x7
 598 029d B7       		.byte	0xb7
 599 029e BB020000 		.4byte	0x2bb
 600 02a2 07       		.uleb128 0x7
 601 02a3 94040000 		.4byte	.LASF29
 602 02a7 07       		.byte	0x7
 603 02a8 B8       		.byte	0xb8
 604 02a9 61020000 		.4byte	0x261
 605 02ad 00       		.byte	0
 606 02ae 07       		.uleb128 0x7
 607 02af 24050000 		.4byte	.LASF30
 608 02b3 07       		.byte	0x7
 609 02b4 B9       		.byte	0xb9
 610 02b5 61020000 		.4byte	0x261
 611 02b9 04       		.byte	0x4
 612 02ba 00       		.byte	0
 613 02bb 03       		.uleb128 0x3
 614 02bc 00000000 		.4byte	.LASF54
 615 02c0 06       		.byte	0x6
 616 02c1 57       		.byte	0x57
 617 02c2 C6020000 		.4byte	0x2c6
 618 02c6 0B       		.uleb128 0xb
 619 02c7 09040000 		.4byte	.LASF55
 620 02cb 1C       		.byte	0x1c
 621 02cc 07       		.byte	0x7
 622 02cd 9001     		.2byte	0x190
 623 02cf 22030000 		.4byte	0x322
 624 02d3 09       		.uleb128 0x9
 625 02d4 03060000 		.4byte	.LASF56
 626 02d8 07       		.byte	0x7
 627 02d9 9101     		.2byte	0x191
ARM GAS  C:\Users\IDONNO~1.SON\AppData\Local\Temp\cc9lduOR.s 			page 12


 628 02db 8B020000 		.4byte	0x28b
 629 02df 00       		.byte	0
 630 02e0 09       		.uleb128 0x9
 631 02e1 99050000 		.4byte	.LASF57
 632 02e5 07       		.byte	0x7
 633 02e6 9201     		.2byte	0x192
 634 02e8 0F010000 		.4byte	0x10f
 635 02ec 08       		.byte	0x8
 636 02ed 09       		.uleb128 0x9
 637 02ee AB040000 		.4byte	.LASF58
 638 02f2 07       		.byte	0x7
 639 02f3 9401     		.2byte	0x194
 640 02f5 DA060000 		.4byte	0x6da
 641 02f9 0C       		.byte	0xc
 642 02fa 09       		.uleb128 0x9
 643 02fb F5020000 		.4byte	.LASF59
 644 02ff 07       		.byte	0x7
 645 0300 9701     		.2byte	0x197
 646 0302 61020000 		.4byte	0x261
 647 0306 10       		.byte	0x10
 648 0307 09       		.uleb128 0x9
 649 0308 A5060000 		.4byte	.LASF60
 650 030c 07       		.byte	0x7
 651 030d 9801     		.2byte	0x198
 652 030f 61020000 		.4byte	0x261
 653 0313 14       		.byte	0x14
 654 0314 09       		.uleb128 0x9
 655 0315 CC040000 		.4byte	.LASF61
 656 0319 07       		.byte	0x7
 657 031a 9B01     		.2byte	0x19b
 658 031c 61020000 		.4byte	0x261
 659 0320 18       		.byte	0x18
 660 0321 00       		.byte	0
 661 0322 03       		.uleb128 0x3
 662 0323 68060000 		.4byte	.LASF62
 663 0327 06       		.byte	0x6
 664 0328 5C       		.byte	0x5c
 665 0329 2D030000 		.4byte	0x32d
 666 032d 0A       		.uleb128 0xa
 667 032e 04       		.byte	0x4
 668 032f 33030000 		.4byte	0x333
 669 0333 0C       		.uleb128 0xc
 670 0334 3E030000 		.4byte	0x33e
 671 0338 0D       		.uleb128 0xd
 672 0339 3E030000 		.4byte	0x33e
 673 033d 00       		.byte	0
 674 033e 0E       		.uleb128 0xe
 675 033f 04       		.byte	0x4
 676 0340 03       		.uleb128 0x3
 677 0341 47040000 		.4byte	.LASF63
 678 0345 06       		.byte	0x6
 679 0346 61       		.byte	0x61
 680 0347 4B030000 		.4byte	0x34b
 681 034b 0B       		.uleb128 0xb
 682 034c C0050000 		.4byte	.LASF64
 683 0350 14       		.byte	0x14
 684 0351 07       		.byte	0x7
ARM GAS  C:\Users\IDONNO~1.SON\AppData\Local\Temp\cc9lduOR.s 			page 13


 685 0352 6B01     		.2byte	0x16b
 686 0354 9A030000 		.4byte	0x39a
 687 0358 09       		.uleb128 0x9
 688 0359 4E030000 		.4byte	.LASF65
 689 035d 07       		.byte	0x7
 690 035e 6C01     		.2byte	0x16c
 691 0360 36090000 		.4byte	0x936
 692 0364 00       		.byte	0
 693 0365 09       		.uleb128 0x9
 694 0366 06030000 		.4byte	.LASF66
 695 036a 07       		.byte	0x7
 696 036b 6D01     		.2byte	0x16d
 697 036d 36090000 		.4byte	0x936
 698 0371 04       		.byte	0x4
 699 0372 09       		.uleb128 0x9
 700 0373 74030000 		.4byte	.LASF67
 701 0377 07       		.byte	0x7
 702 0378 6E01     		.2byte	0x16e
 703 037a 3B010000 		.4byte	0x13b
 704 037e 08       		.byte	0x8
 705 037f 09       		.uleb128 0x9
 706 0380 39070000 		.4byte	.LASF68
 707 0384 07       		.byte	0x7
 708 0385 6F01     		.2byte	0x16f
 709 0387 22030000 		.4byte	0x322
 710 038b 0C       		.byte	0xc
 711 038c 09       		.uleb128 0x9
 712 038d C2060000 		.4byte	.LASF69
 713 0391 07       		.byte	0x7
 714 0392 7101     		.2byte	0x171
 715 0394 3E030000 		.4byte	0x33e
 716 0398 10       		.byte	0x10
 717 0399 00       		.byte	0
 718 039a 03       		.uleb128 0x3
 719 039b C9010000 		.4byte	.LASF70
 720 039f 06       		.byte	0x6
 721 03a0 66       		.byte	0x66
 722 03a1 A5030000 		.4byte	0x3a5
 723 03a5 0B       		.uleb128 0xb
 724 03a6 7D040000 		.4byte	.LASF71
 725 03aa 10       		.byte	0x10
 726 03ab 07       		.byte	0x7
 727 03ac 7B01     		.2byte	0x17b
 728 03ae E7030000 		.4byte	0x3e7
 729 03b2 09       		.uleb128 0x9
 730 03b3 4E030000 		.4byte	.LASF65
 731 03b7 07       		.byte	0x7
 732 03b8 7C01     		.2byte	0x17c
 733 03ba 36090000 		.4byte	0x936
 734 03be 00       		.byte	0
 735 03bf 09       		.uleb128 0x9
 736 03c0 06030000 		.4byte	.LASF66
 737 03c4 07       		.byte	0x7
 738 03c5 7E01     		.2byte	0x17e
 739 03c7 36090000 		.4byte	0x936
 740 03cb 04       		.byte	0x4
 741 03cc 09       		.uleb128 0x9
ARM GAS  C:\Users\IDONNO~1.SON\AppData\Local\Temp\cc9lduOR.s 			page 14


 742 03cd 74030000 		.4byte	.LASF67
 743 03d1 07       		.byte	0x7
 744 03d2 8001     		.2byte	0x180
 745 03d4 3B010000 		.4byte	0x13b
 746 03d8 08       		.byte	0x8
 747 03d9 09       		.uleb128 0x9
 748 03da 0E020000 		.4byte	.LASF72
 749 03de 07       		.byte	0x7
 750 03df 8201     		.2byte	0x182
 751 03e1 31090000 		.4byte	0x931
 752 03e5 0C       		.byte	0xc
 753 03e6 00       		.byte	0
 754 03e7 03       		.uleb128 0x3
 755 03e8 3A000000 		.4byte	.LASF73
 756 03ec 06       		.byte	0x6
 757 03ed 6B       		.byte	0x6b
 758 03ee F2030000 		.4byte	0x3f2
 759 03f2 0B       		.uleb128 0xb
 760 03f3 3D050000 		.4byte	.LASF74
 761 03f7 04       		.byte	0x4
 762 03f8 07       		.byte	0x7
 763 03f9 A201     		.2byte	0x1a2
 764 03fb 0D040000 		.4byte	0x40d
 765 03ff 09       		.uleb128 0x9
 766 0400 7C060000 		.4byte	.LASF75
 767 0404 07       		.byte	0x7
 768 0405 AA01     		.2byte	0x1aa
 769 0407 3C090000 		.4byte	0x93c
 770 040b 00       		.byte	0
 771 040c 00       		.byte	0
 772 040d 03       		.uleb128 0x3
 773 040e EB030000 		.4byte	.LASF76
 774 0412 06       		.byte	0x6
 775 0413 70       		.byte	0x70
 776 0414 18040000 		.4byte	0x418
 777 0418 0F       		.uleb128 0xf
 778 0419 B6020000 		.4byte	.LASF77
 779 041d 5802     		.2byte	0x258
 780 041f 07       		.byte	0x7
 781 0420 C201     		.2byte	0x1c2
 782 0422 74040000 		.4byte	0x474
 783 0426 09       		.uleb128 0x9
 784 0427 F4060000 		.4byte	.LASF78
 785 042b 07       		.byte	0x7
 786 042c C601     		.2byte	0x1c6
 787 042e BB020000 		.4byte	0x2bb
 788 0432 00       		.byte	0
 789 0433 09       		.uleb128 0x9
 790 0434 93020000 		.4byte	.LASF79
 791 0438 07       		.byte	0x7
 792 0439 CA01     		.2byte	0x1ca
 793 043b 9A030000 		.4byte	0x39a
 794 043f 1C       		.byte	0x1c
 795 0440 08       		.uleb128 0x8
 796 0441 64626700 		.ascii	"dbg\000"
 797 0445 07       		.byte	0x7
 798 0446 CE01     		.2byte	0x1ce
ARM GAS  C:\Users\IDONNO~1.SON\AppData\Local\Temp\cc9lduOR.s 			page 15


 799 0448 E7030000 		.4byte	0x3e7
 800 044c 2C       		.byte	0x2c
 801 044d 09       		.uleb128 0x9
 802 044e BE010000 		.4byte	.LASF80
 803 0452 07       		.byte	0x7
 804 0453 D201     		.2byte	0x1d2
 805 0455 46010000 		.4byte	0x146
 806 0459 30       		.byte	0x30
 807 045a 08       		.uleb128 0x8
 808 045b 746D00   		.ascii	"tm\000"
 809 045e 07       		.byte	0x7
 810 045f D701     		.2byte	0x1d7
 811 0461 4F080000 		.4byte	0x84f
 812 0465 78       		.byte	0x78
 813 0466 09       		.uleb128 0x9
 814 0467 2C030000 		.4byte	.LASF81
 815 046b 07       		.byte	0x7
 816 046c E301     		.2byte	0x1e3
 817 046e 41090000 		.4byte	0x941
 818 0472 80       		.byte	0x80
 819 0473 00       		.byte	0
 820 0474 04       		.uleb128 0x4
 821 0475 04       		.byte	0x4
 822 0476 07       		.byte	0x7
 823 0477 61040000 		.4byte	.LASF82
 824 047b 10       		.uleb128 0x10
 825 047c B8000000 		.4byte	0xb8
 826 0480 8B040000 		.4byte	0x48b
 827 0484 11       		.uleb128 0x11
 828 0485 74040000 		.4byte	0x474
 829 0489 01       		.byte	0x1
 830 048a 00       		.byte	0
 831 048b 12       		.uleb128 0x12
 832 048c 1C       		.byte	0x1c
 833 048d 08       		.byte	0x8
 834 048e DA01     		.2byte	0x1da
 835 0490 EE040000 		.4byte	0x4ee
 836 0494 08       		.uleb128 0x8
 837 0495 41435200 		.ascii	"ACR\000"
 838 0499 08       		.byte	0x8
 839 049a DC01     		.2byte	0x1dc
 840 049c D3000000 		.4byte	0xd3
 841 04a0 00       		.byte	0
 842 04a1 09       		.uleb128 0x9
 843 04a2 0E030000 		.4byte	.LASF83
 844 04a6 08       		.byte	0x8
 845 04a7 DD01     		.2byte	0x1dd
 846 04a9 D3000000 		.4byte	0xd3
 847 04ad 04       		.byte	0x4
 848 04ae 09       		.uleb128 0x9
 849 04af ED020000 		.4byte	.LASF84
 850 04b3 08       		.byte	0x8
 851 04b4 DE01     		.2byte	0x1de
 852 04b6 D3000000 		.4byte	0xd3
 853 04ba 08       		.byte	0x8
 854 04bb 08       		.uleb128 0x8
 855 04bc 535200   		.ascii	"SR\000"
ARM GAS  C:\Users\IDONNO~1.SON\AppData\Local\Temp\cc9lduOR.s 			page 16


 856 04bf 08       		.byte	0x8
 857 04c0 DF01     		.2byte	0x1df
 858 04c2 D3000000 		.4byte	0xd3
 859 04c6 0C       		.byte	0xc
 860 04c7 08       		.uleb128 0x8
 861 04c8 435200   		.ascii	"CR\000"
 862 04cb 08       		.byte	0x8
 863 04cc E001     		.2byte	0x1e0
 864 04ce D3000000 		.4byte	0xd3
 865 04d2 10       		.byte	0x10
 866 04d3 09       		.uleb128 0x9
 867 04d4 6D010000 		.4byte	.LASF85
 868 04d8 08       		.byte	0x8
 869 04d9 E101     		.2byte	0x1e1
 870 04db D3000000 		.4byte	0xd3
 871 04df 14       		.byte	0x14
 872 04e0 09       		.uleb128 0x9
 873 04e1 73010000 		.4byte	.LASF86
 874 04e5 08       		.byte	0x8
 875 04e6 E201     		.2byte	0x1e2
 876 04e8 D3000000 		.4byte	0xd3
 877 04ec 18       		.byte	0x18
 878 04ed 00       		.byte	0
 879 04ee 13       		.uleb128 0x13
 880 04ef 3C020000 		.4byte	.LASF87
 881 04f3 08       		.byte	0x8
 882 04f4 E301     		.2byte	0x1e3
 883 04f6 8B040000 		.4byte	0x48b
 884 04fa 12       		.uleb128 0x12
 885 04fb 08       		.byte	0x8
 886 04fc 08       		.byte	0x8
 887 04fd 5D02     		.2byte	0x25d
 888 04ff 1D050000 		.4byte	0x51d
 889 0503 08       		.uleb128 0x8
 890 0504 435200   		.ascii	"CR\000"
 891 0507 08       		.byte	0x8
 892 0508 5F02     		.2byte	0x25f
 893 050a D3000000 		.4byte	0xd3
 894 050e 00       		.byte	0
 895 050f 08       		.uleb128 0x8
 896 0510 43535200 		.ascii	"CSR\000"
 897 0514 08       		.byte	0x8
 898 0515 6002     		.2byte	0x260
 899 0517 D3000000 		.4byte	0xd3
 900 051b 04       		.byte	0x4
 901 051c 00       		.byte	0
 902 051d 13       		.uleb128 0x13
 903 051e 9A020000 		.4byte	.LASF88
 904 0522 08       		.byte	0x8
 905 0523 6102     		.2byte	0x261
 906 0525 FA040000 		.4byte	0x4fa
 907 0529 12       		.uleb128 0x12
 908 052a 88       		.byte	0x88
 909 052b 08       		.byte	0x8
 910 052c 6702     		.2byte	0x267
 911 052e B8060000 		.4byte	0x6b8
 912 0532 08       		.uleb128 0x8
ARM GAS  C:\Users\IDONNO~1.SON\AppData\Local\Temp\cc9lduOR.s 			page 17


 913 0533 435200   		.ascii	"CR\000"
 914 0536 08       		.byte	0x8
 915 0537 6902     		.2byte	0x269
 916 0539 D3000000 		.4byte	0xd3
 917 053d 00       		.byte	0
 918 053e 09       		.uleb128 0x9
 919 053f C8030000 		.4byte	.LASF89
 920 0543 08       		.byte	0x8
 921 0544 6A02     		.2byte	0x26a
 922 0546 D3000000 		.4byte	0xd3
 923 054a 04       		.byte	0x4
 924 054b 09       		.uleb128 0x9
 925 054c 18070000 		.4byte	.LASF90
 926 0550 08       		.byte	0x8
 927 0551 6B02     		.2byte	0x26b
 928 0553 D3000000 		.4byte	0xd3
 929 0557 08       		.byte	0x8
 930 0558 08       		.uleb128 0x8
 931 0559 43495200 		.ascii	"CIR\000"
 932 055d 08       		.byte	0x8
 933 055e 6C02     		.2byte	0x26c
 934 0560 D3000000 		.4byte	0xd3
 935 0564 0C       		.byte	0xc
 936 0565 09       		.uleb128 0x9
 937 0566 33020000 		.4byte	.LASF91
 938 056a 08       		.byte	0x8
 939 056b 6D02     		.2byte	0x26d
 940 056d D3000000 		.4byte	0xd3
 941 0571 10       		.byte	0x10
 942 0572 09       		.uleb128 0x9
 943 0573 3A060000 		.4byte	.LASF92
 944 0577 08       		.byte	0x8
 945 0578 6E02     		.2byte	0x26e
 946 057a D3000000 		.4byte	0xd3
 947 057e 14       		.byte	0x14
 948 057f 09       		.uleb128 0x9
 949 0580 B7050000 		.4byte	.LASF93
 950 0584 08       		.byte	0x8
 951 0585 6F02     		.2byte	0x26f
 952 0587 D3000000 		.4byte	0xd3
 953 058b 18       		.byte	0x18
 954 058c 09       		.uleb128 0x9
 955 058d F2040000 		.4byte	.LASF94
 956 0591 08       		.byte	0x8
 957 0592 7002     		.2byte	0x270
 958 0594 B8000000 		.4byte	0xb8
 959 0598 1C       		.byte	0x1c
 960 0599 09       		.uleb128 0x9
 961 059a D6040000 		.4byte	.LASF95
 962 059e 08       		.byte	0x8
 963 059f 7102     		.2byte	0x271
 964 05a1 D3000000 		.4byte	0xd3
 965 05a5 20       		.byte	0x20
 966 05a6 09       		.uleb128 0x9
 967 05a7 C9020000 		.4byte	.LASF96
 968 05ab 08       		.byte	0x8
 969 05ac 7202     		.2byte	0x272
ARM GAS  C:\Users\IDONNO~1.SON\AppData\Local\Temp\cc9lduOR.s 			page 18


 970 05ae D3000000 		.4byte	0xd3
 971 05b2 24       		.byte	0x24
 972 05b3 09       		.uleb128 0x9
 973 05b4 FC040000 		.4byte	.LASF97
 974 05b8 08       		.byte	0x8
 975 05b9 7302     		.2byte	0x273
 976 05bb 7B040000 		.4byte	0x47b
 977 05bf 28       		.byte	0x28
 978 05c0 09       		.uleb128 0x9
 979 05c1 10070000 		.4byte	.LASF98
 980 05c5 08       		.byte	0x8
 981 05c6 7402     		.2byte	0x274
 982 05c8 D3000000 		.4byte	0xd3
 983 05cc 30       		.byte	0x30
 984 05cd 09       		.uleb128 0x9
 985 05ce 95060000 		.4byte	.LASF99
 986 05d2 08       		.byte	0x8
 987 05d3 7502     		.2byte	0x275
 988 05d5 D3000000 		.4byte	0xd3
 989 05d9 34       		.byte	0x34
 990 05da 09       		.uleb128 0x9
 991 05db 9B040000 		.4byte	.LASF100
 992 05df 08       		.byte	0x8
 993 05e0 7602     		.2byte	0x276
 994 05e2 D3000000 		.4byte	0xd3
 995 05e6 38       		.byte	0x38
 996 05e7 09       		.uleb128 0x9
 997 05e8 06050000 		.4byte	.LASF101
 998 05ec 08       		.byte	0x8
 999 05ed 7702     		.2byte	0x277
 1000 05ef B8000000 		.4byte	0xb8
 1001 05f3 3C       		.byte	0x3c
 1002 05f4 09       		.uleb128 0x9
 1003 05f5 8D060000 		.4byte	.LASF102
 1004 05f9 08       		.byte	0x8
 1005 05fa 7802     		.2byte	0x278
 1006 05fc D3000000 		.4byte	0xd3
 1007 0600 40       		.byte	0x40
 1008 0601 09       		.uleb128 0x9
 1009 0602 AF050000 		.4byte	.LASF103
 1010 0606 08       		.byte	0x8
 1011 0607 7902     		.2byte	0x279
 1012 0609 D3000000 		.4byte	0xd3
 1013 060d 44       		.byte	0x44
 1014 060e 09       		.uleb128 0x9
 1015 060f 10050000 		.4byte	.LASF104
 1016 0613 08       		.byte	0x8
 1017 0614 7A02     		.2byte	0x27a
 1018 0616 7B040000 		.4byte	0x47b
 1019 061a 48       		.byte	0x48
 1020 061b 09       		.uleb128 0x9
 1021 061c FD010000 		.4byte	.LASF105
 1022 0620 08       		.byte	0x8
 1023 0621 7B02     		.2byte	0x27b
 1024 0623 D3000000 		.4byte	0xd3
 1025 0627 50       		.byte	0x50
 1026 0628 09       		.uleb128 0x9
ARM GAS  C:\Users\IDONNO~1.SON\AppData\Local\Temp\cc9lduOR.s 			page 19


 1027 0629 B1040000 		.4byte	.LASF106
 1028 062d 08       		.byte	0x8
 1029 062e 7C02     		.2byte	0x27c
 1030 0630 D3000000 		.4byte	0xd3
 1031 0634 54       		.byte	0x54
 1032 0635 09       		.uleb128 0x9
 1033 0636 8F050000 		.4byte	.LASF107
 1034 063a 08       		.byte	0x8
 1035 063b 7D02     		.2byte	0x27d
 1036 063d D3000000 		.4byte	0xd3
 1037 0641 58       		.byte	0x58
 1038 0642 09       		.uleb128 0x9
 1039 0643 1A050000 		.4byte	.LASF108
 1040 0647 08       		.byte	0x8
 1041 0648 7E02     		.2byte	0x27e
 1042 064a B8000000 		.4byte	0xb8
 1043 064e 5C       		.byte	0x5c
 1044 064f 09       		.uleb128 0x9
 1045 0650 D2020000 		.4byte	.LASF109
 1046 0654 08       		.byte	0x8
 1047 0655 7F02     		.2byte	0x27f
 1048 0657 D3000000 		.4byte	0xd3
 1049 065b 60       		.byte	0x60
 1050 065c 09       		.uleb128 0x9
 1051 065d FF030000 		.4byte	.LASF110
 1052 0661 08       		.byte	0x8
 1053 0662 8002     		.2byte	0x280
 1054 0664 D3000000 		.4byte	0xd3
 1055 0668 64       		.byte	0x64
 1056 0669 09       		.uleb128 0x9
 1057 066a E9050000 		.4byte	.LASF111
 1058 066e 08       		.byte	0x8
 1059 066f 8102     		.2byte	0x281
 1060 0671 7B040000 		.4byte	0x47b
 1061 0675 68       		.byte	0x68
 1062 0676 09       		.uleb128 0x9
 1063 0677 EF060000 		.4byte	.LASF112
 1064 067b 08       		.byte	0x8
 1065 067c 8202     		.2byte	0x282
 1066 067e D3000000 		.4byte	0xd3
 1067 0682 70       		.byte	0x70
 1068 0683 08       		.uleb128 0x8
 1069 0684 43535200 		.ascii	"CSR\000"
 1070 0688 08       		.byte	0x8
 1071 0689 8302     		.2byte	0x283
 1072 068b D3000000 		.4byte	0xd3
 1073 068f 74       		.byte	0x74
 1074 0690 09       		.uleb128 0x9
 1075 0691 2B050000 		.4byte	.LASF113
 1076 0695 08       		.byte	0x8
 1077 0696 8402     		.2byte	0x284
 1078 0698 7B040000 		.4byte	0x47b
 1079 069c 78       		.byte	0x78
 1080 069d 09       		.uleb128 0x9
 1081 069e C9060000 		.4byte	.LASF114
 1082 06a2 08       		.byte	0x8
 1083 06a3 8502     		.2byte	0x285
ARM GAS  C:\Users\IDONNO~1.SON\AppData\Local\Temp\cc9lduOR.s 			page 20


 1084 06a5 D3000000 		.4byte	0xd3
 1085 06a9 80       		.byte	0x80
 1086 06aa 09       		.uleb128 0x9
 1087 06ab B7030000 		.4byte	.LASF115
 1088 06af 08       		.byte	0x8
 1089 06b0 8602     		.2byte	0x286
 1090 06b2 D3000000 		.4byte	0xd3
 1091 06b6 84       		.byte	0x84
 1092 06b7 00       		.byte	0
 1093 06b8 13       		.uleb128 0x13
 1094 06b9 88030000 		.4byte	.LASF116
 1095 06bd 08       		.byte	0x8
 1096 06be 8802     		.2byte	0x288
 1097 06c0 29050000 		.4byte	0x529
 1098 06c4 03       		.uleb128 0x3
 1099 06c5 FD020000 		.4byte	.LASF117
 1100 06c9 09       		.byte	0x9
 1101 06ca 65       		.byte	0x65
 1102 06cb 3E030000 		.4byte	0x33e
 1103 06cf 03       		.uleb128 0x3
 1104 06d0 2D040000 		.4byte	.LASF118
 1105 06d4 09       		.byte	0x9
 1106 06d5 6D       		.byte	0x6d
 1107 06d6 C3000000 		.4byte	0xc3
 1108 06da 06       		.uleb128 0x6
 1109 06db 9D060000 		.4byte	.LASF119
 1110 06df 04       		.byte	0x4
 1111 06e0 09       		.byte	0x9
 1112 06e1 89       		.byte	0x89
 1113 06e2 F3060000 		.4byte	0x6f3
 1114 06e6 14       		.uleb128 0x14
 1115 06e7 72313300 		.ascii	"r13\000"
 1116 06eb 09       		.byte	0x9
 1117 06ec 8A       		.byte	0x8a
 1118 06ed 34080000 		.4byte	0x834
 1119 06f1 00       		.byte	0
 1120 06f2 00       		.byte	0
 1121 06f3 06       		.uleb128 0x6
 1122 06f4 2E000000 		.4byte	.LASF120
 1123 06f8 64       		.byte	0x64
 1124 06f9 0A       		.byte	0xa
 1125 06fa F4       		.byte	0xf4
 1126 06fb 34080000 		.4byte	0x834
 1127 06ff 14       		.uleb128 0x14
 1128 0700 73313600 		.ascii	"s16\000"
 1129 0704 0A       		.byte	0xa
 1130 0705 F6       		.byte	0xf6
 1131 0706 C4060000 		.4byte	0x6c4
 1132 070a 00       		.byte	0
 1133 070b 14       		.uleb128 0x14
 1134 070c 73313700 		.ascii	"s17\000"
 1135 0710 0A       		.byte	0xa
 1136 0711 F7       		.byte	0xf7
 1137 0712 C4060000 		.4byte	0x6c4
 1138 0716 04       		.byte	0x4
 1139 0717 14       		.uleb128 0x14
 1140 0718 73313800 		.ascii	"s18\000"
ARM GAS  C:\Users\IDONNO~1.SON\AppData\Local\Temp\cc9lduOR.s 			page 21


 1141 071c 0A       		.byte	0xa
 1142 071d F8       		.byte	0xf8
 1143 071e C4060000 		.4byte	0x6c4
 1144 0722 08       		.byte	0x8
 1145 0723 14       		.uleb128 0x14
 1146 0724 73313900 		.ascii	"s19\000"
 1147 0728 0A       		.byte	0xa
 1148 0729 F9       		.byte	0xf9
 1149 072a C4060000 		.4byte	0x6c4
 1150 072e 0C       		.byte	0xc
 1151 072f 14       		.uleb128 0x14
 1152 0730 73323000 		.ascii	"s20\000"
 1153 0734 0A       		.byte	0xa
 1154 0735 FA       		.byte	0xfa
 1155 0736 C4060000 		.4byte	0x6c4
 1156 073a 10       		.byte	0x10
 1157 073b 14       		.uleb128 0x14
 1158 073c 73323100 		.ascii	"s21\000"
 1159 0740 0A       		.byte	0xa
 1160 0741 FB       		.byte	0xfb
 1161 0742 C4060000 		.4byte	0x6c4
 1162 0746 14       		.byte	0x14
 1163 0747 14       		.uleb128 0x14
 1164 0748 73323200 		.ascii	"s22\000"
 1165 074c 0A       		.byte	0xa
 1166 074d FC       		.byte	0xfc
 1167 074e C4060000 		.4byte	0x6c4
 1168 0752 18       		.byte	0x18
 1169 0753 14       		.uleb128 0x14
 1170 0754 73323300 		.ascii	"s23\000"
 1171 0758 0A       		.byte	0xa
 1172 0759 FD       		.byte	0xfd
 1173 075a C4060000 		.4byte	0x6c4
 1174 075e 1C       		.byte	0x1c
 1175 075f 14       		.uleb128 0x14
 1176 0760 73323400 		.ascii	"s24\000"
 1177 0764 0A       		.byte	0xa
 1178 0765 FE       		.byte	0xfe
 1179 0766 C4060000 		.4byte	0x6c4
 1180 076a 20       		.byte	0x20
 1181 076b 14       		.uleb128 0x14
 1182 076c 73323500 		.ascii	"s25\000"
 1183 0770 0A       		.byte	0xa
 1184 0771 FF       		.byte	0xff
 1185 0772 C4060000 		.4byte	0x6c4
 1186 0776 24       		.byte	0x24
 1187 0777 08       		.uleb128 0x8
 1188 0778 73323600 		.ascii	"s26\000"
 1189 077c 0A       		.byte	0xa
 1190 077d 0001     		.2byte	0x100
 1191 077f C4060000 		.4byte	0x6c4
 1192 0783 28       		.byte	0x28
 1193 0784 08       		.uleb128 0x8
 1194 0785 73323700 		.ascii	"s27\000"
 1195 0789 0A       		.byte	0xa
 1196 078a 0101     		.2byte	0x101
 1197 078c C4060000 		.4byte	0x6c4
ARM GAS  C:\Users\IDONNO~1.SON\AppData\Local\Temp\cc9lduOR.s 			page 22


 1198 0790 2C       		.byte	0x2c
 1199 0791 08       		.uleb128 0x8
 1200 0792 73323800 		.ascii	"s28\000"
 1201 0796 0A       		.byte	0xa
 1202 0797 0201     		.2byte	0x102
 1203 0799 C4060000 		.4byte	0x6c4
 1204 079d 30       		.byte	0x30
 1205 079e 08       		.uleb128 0x8
 1206 079f 73323900 		.ascii	"s29\000"
 1207 07a3 0A       		.byte	0xa
 1208 07a4 0301     		.2byte	0x103
 1209 07a6 C4060000 		.4byte	0x6c4
 1210 07aa 34       		.byte	0x34
 1211 07ab 08       		.uleb128 0x8
 1212 07ac 73333000 		.ascii	"s30\000"
 1213 07b0 0A       		.byte	0xa
 1214 07b1 0401     		.2byte	0x104
 1215 07b3 C4060000 		.4byte	0x6c4
 1216 07b7 38       		.byte	0x38
 1217 07b8 08       		.uleb128 0x8
 1218 07b9 73333100 		.ascii	"s31\000"
 1219 07bd 0A       		.byte	0xa
 1220 07be 0501     		.2byte	0x105
 1221 07c0 C4060000 		.4byte	0x6c4
 1222 07c4 3C       		.byte	0x3c
 1223 07c5 08       		.uleb128 0x8
 1224 07c6 723400   		.ascii	"r4\000"
 1225 07c9 0A       		.byte	0xa
 1226 07ca 0701     		.2byte	0x107
 1227 07cc C4060000 		.4byte	0x6c4
 1228 07d0 40       		.byte	0x40
 1229 07d1 08       		.uleb128 0x8
 1230 07d2 723500   		.ascii	"r5\000"
 1231 07d5 0A       		.byte	0xa
 1232 07d6 0801     		.2byte	0x108
 1233 07d8 C4060000 		.4byte	0x6c4
 1234 07dc 44       		.byte	0x44
 1235 07dd 08       		.uleb128 0x8
 1236 07de 723600   		.ascii	"r6\000"
 1237 07e1 0A       		.byte	0xa
 1238 07e2 0901     		.2byte	0x109
 1239 07e4 C4060000 		.4byte	0x6c4
 1240 07e8 48       		.byte	0x48
 1241 07e9 08       		.uleb128 0x8
 1242 07ea 723700   		.ascii	"r7\000"
 1243 07ed 0A       		.byte	0xa
 1244 07ee 0A01     		.2byte	0x10a
 1245 07f0 C4060000 		.4byte	0x6c4
 1246 07f4 4C       		.byte	0x4c
 1247 07f5 08       		.uleb128 0x8
 1248 07f6 723800   		.ascii	"r8\000"
 1249 07f9 0A       		.byte	0xa
 1250 07fa 0B01     		.2byte	0x10b
 1251 07fc C4060000 		.4byte	0x6c4
 1252 0800 50       		.byte	0x50
 1253 0801 08       		.uleb128 0x8
 1254 0802 723900   		.ascii	"r9\000"
ARM GAS  C:\Users\IDONNO~1.SON\AppData\Local\Temp\cc9lduOR.s 			page 23


 1255 0805 0A       		.byte	0xa
 1256 0806 0C01     		.2byte	0x10c
 1257 0808 C4060000 		.4byte	0x6c4
 1258 080c 54       		.byte	0x54
 1259 080d 08       		.uleb128 0x8
 1260 080e 72313000 		.ascii	"r10\000"
 1261 0812 0A       		.byte	0xa
 1262 0813 0D01     		.2byte	0x10d
 1263 0815 C4060000 		.4byte	0x6c4
 1264 0819 58       		.byte	0x58
 1265 081a 08       		.uleb128 0x8
 1266 081b 72313100 		.ascii	"r11\000"
 1267 081f 0A       		.byte	0xa
 1268 0820 0E01     		.2byte	0x10e
 1269 0822 C4060000 		.4byte	0x6c4
 1270 0826 5C       		.byte	0x5c
 1271 0827 08       		.uleb128 0x8
 1272 0828 6C7200   		.ascii	"lr\000"
 1273 082b 0A       		.byte	0xa
 1274 082c 0F01     		.2byte	0x10f
 1275 082e C4060000 		.4byte	0x6c4
 1276 0832 60       		.byte	0x60
 1277 0833 00       		.byte	0
 1278 0834 0A       		.uleb128 0xa
 1279 0835 04       		.byte	0x4
 1280 0836 F3060000 		.4byte	0x6f3
 1281 083a 15       		.uleb128 0x15
 1282 083b 04       		.byte	0x4
 1283 083c 0B       		.byte	0xb
 1284 083d 38       		.byte	0x38
 1285 083e 4F080000 		.4byte	0x84f
 1286 0842 07       		.uleb128 0x7
 1287 0843 86060000 		.4byte	.LASF121
 1288 0847 0B       		.byte	0xb
 1289 0848 3C       		.byte	0x3c
 1290 0849 D8000000 		.4byte	0xd8
 1291 084d 00       		.byte	0
 1292 084e 00       		.byte	0
 1293 084f 03       		.uleb128 0x3
 1294 0850 BB040000 		.4byte	.LASF122
 1295 0854 0B       		.byte	0xb
 1296 0855 3D       		.byte	0x3d
 1297 0856 3A080000 		.4byte	0x83a
 1298 085a 16       		.uleb128 0x16
 1299 085b 04       		.byte	0x4
 1300 085c 07       		.byte	0x7
 1301 085d FA       		.byte	0xfa
 1302 085e B7080000 		.4byte	0x8b7
 1303 0862 17       		.uleb128 0x17
 1304 0863 14000000 		.4byte	.LASF123
 1305 0867 07       		.byte	0x7
 1306 0868 0101     		.2byte	0x101
 1307 086a 1A010000 		.4byte	0x11a
 1308 086e 17       		.uleb128 0x17
 1309 086f B5010000 		.4byte	.LASF124
 1310 0873 07       		.byte	0x7
 1311 0874 0801     		.2byte	0x108
ARM GAS  C:\Users\IDONNO~1.SON\AppData\Local\Temp\cc9lduOR.s 			page 24


 1312 0876 1A010000 		.4byte	0x11a
 1313 087a 17       		.uleb128 0x17
 1314 087b 02070000 		.4byte	.LASF125
 1315 087f 07       		.byte	0x7
 1316 0880 0F01     		.2byte	0x10f
 1317 0882 3E030000 		.4byte	0x33e
 1318 0886 17       		.uleb128 0x17
 1319 0887 B0020000 		.4byte	.LASF126
 1320 088b 07       		.byte	0x7
 1321 088c 1601     		.2byte	0x116
 1322 088e B7080000 		.4byte	0x8b7
 1323 0892 17       		.uleb128 0x17
 1324 0893 6D030000 		.4byte	.LASF127
 1325 0897 07       		.byte	0x7
 1326 0898 1E01     		.2byte	0x11e
 1327 089a E2080000 		.4byte	0x8e2
 1328 089e 17       		.uleb128 0x17
 1329 089f FC050000 		.4byte	.LASF128
 1330 08a3 07       		.byte	0x7
 1331 08a4 2701     		.2byte	0x127
 1332 08a6 19090000 		.4byte	0x919
 1333 08aa 17       		.uleb128 0x17
 1334 08ab A0050000 		.4byte	.LASF129
 1335 08af 07       		.byte	0x7
 1336 08b0 2F01     		.2byte	0x12f
 1337 08b2 25010000 		.4byte	0x125
 1338 08b6 00       		.byte	0
 1339 08b7 0A       		.uleb128 0xa
 1340 08b8 04       		.byte	0x4
 1341 08b9 56020000 		.4byte	0x256
 1342 08bd 06       		.uleb128 0x6
 1343 08be D1050000 		.4byte	.LASF130
 1344 08c2 0C       		.byte	0xc
 1345 08c3 0C       		.byte	0xc
 1346 08c4 34       		.byte	0x34
 1347 08c5 E2080000 		.4byte	0x8e2
 1348 08c9 07       		.uleb128 0x7
 1349 08ca 1D070000 		.4byte	.LASF131
 1350 08ce 0C       		.byte	0xc
 1351 08cf 35       		.byte	0x35
 1352 08d0 8B020000 		.4byte	0x28b
 1353 08d4 00       		.byte	0
 1354 08d5 07       		.uleb128 0x7
 1355 08d6 94030000 		.4byte	.LASF132
 1356 08da 0C       		.byte	0xc
 1357 08db 37       		.byte	0x37
 1358 08dc 30010000 		.4byte	0x130
 1359 08e0 08       		.byte	0x8
 1360 08e1 00       		.byte	0
 1361 08e2 0A       		.uleb128 0xa
 1362 08e3 04       		.byte	0x4
 1363 08e4 BD080000 		.4byte	0x8bd
 1364 08e8 06       		.uleb128 0x6
 1365 08e9 DF060000 		.4byte	.LASF133
 1366 08ed 10       		.byte	0x10
 1367 08ee 0D       		.byte	0xd
 1368 08ef 39       		.byte	0x39
ARM GAS  C:\Users\IDONNO~1.SON\AppData\Local\Temp\cc9lduOR.s 			page 25


 1369 08f0 19090000 		.4byte	0x919
 1370 08f4 07       		.uleb128 0x7
 1371 08f5 8B020000 		.4byte	.LASF134
 1372 08f9 0D       		.byte	0xd
 1373 08fa 3A       		.byte	0x3a
 1374 08fb 8B020000 		.4byte	0x28b
 1375 08ff 00       		.byte	0
 1376 0900 07       		.uleb128 0x7
 1377 0901 2B070000 		.4byte	.LASF135
 1378 0905 0D       		.byte	0xd
 1379 0906 3C       		.byte	0x3c
 1380 0907 61020000 		.4byte	0x261
 1381 090b 08       		.byte	0x8
 1382 090c 07       		.uleb128 0x7
 1383 090d 4C060000 		.4byte	.LASF136
 1384 0911 0D       		.byte	0xd
 1385 0912 3E       		.byte	0x3e
 1386 0913 5C090000 		.4byte	0x95c
 1387 0917 0C       		.byte	0xc
 1388 0918 00       		.byte	0
 1389 0919 0A       		.uleb128 0xa
 1390 091a 04       		.byte	0x4
 1391 091b E8080000 		.4byte	0x8e8
 1392 091f 0A       		.uleb128 0xa
 1393 0920 04       		.byte	0x4
 1394 0921 2C090000 		.4byte	0x92c
 1395 0925 04       		.uleb128 0x4
 1396 0926 01       		.byte	0x1
 1397 0927 08       		.byte	0x8
 1398 0928 35060000 		.4byte	.LASF137
 1399 092c 18       		.uleb128 0x18
 1400 092d 25090000 		.4byte	0x925
 1401 0931 05       		.uleb128 0x5
 1402 0932 3B010000 		.4byte	0x13b
 1403 0936 0A       		.uleb128 0xa
 1404 0937 04       		.byte	0x4
 1405 0938 40030000 		.4byte	0x340
 1406 093c 05       		.uleb128 0x5
 1407 093d 1F090000 		.4byte	0x91f
 1408 0941 10       		.uleb128 0x10
 1409 0942 CF060000 		.4byte	0x6cf
 1410 0946 51090000 		.4byte	0x951
 1411 094a 11       		.uleb128 0x11
 1412 094b 74040000 		.4byte	0x474
 1413 094f 3A       		.byte	0x3a
 1414 0950 00       		.byte	0
 1415 0951 03       		.uleb128 0x3
 1416 0952 24030000 		.4byte	.LASF138
 1417 0956 0D       		.byte	0xd
 1418 0957 34       		.byte	0x34
 1419 0958 E8080000 		.4byte	0x8e8
 1420 095c 0A       		.uleb128 0xa
 1421 095d 04       		.byte	0x4
 1422 095e 51090000 		.4byte	0x951
 1423 0962 04       		.uleb128 0x4
 1424 0963 01       		.byte	0x1
 1425 0964 02       		.byte	0x2
ARM GAS  C:\Users\IDONNO~1.SON\AppData\Local\Temp\cc9lduOR.s 			page 26


 1426 0965 4D050000 		.4byte	.LASF139
 1427 0969 19       		.uleb128 0x19
 1428 096a D0030000 		.4byte	.LASF145
 1429 096e 01       		.byte	0x1
 1430 096f 36       		.byte	0x36
 1431 0970 01       		.byte	0x1
 1432 0971 1A       		.uleb128 0x1a
 1433 0972 AD060000 		.4byte	.LASF146
 1434 0976 01       		.byte	0x1
 1435 0977 72       		.byte	0x72
 1436 0978 00000000 		.4byte	.LFB257
 1437 097c 68000000 		.4byte	.LFE257-.LFB257
 1438 0980 01       		.uleb128 0x1
 1439 0981 9C       		.byte	0x9c
 1440 0982 9F090000 		.4byte	0x99f
 1441 0986 1B       		.uleb128 0x1b
 1442 0987 69090000 		.4byte	0x969
 1443 098b 18000000 		.4byte	.LBB4
 1444 098f 00000000 		.4byte	.Ldebug_ranges0+0
 1445 0993 01       		.byte	0x1
 1446 0994 7F       		.byte	0x7f
 1447 0995 1C       		.uleb128 0x1c
 1448 0996 5E000000 		.4byte	.LVL0
 1449 099a D8090000 		.4byte	0x9d8
 1450 099e 00       		.byte	0
 1451 099f 1D       		.uleb128 0x1d
 1452 09a0 13030000 		.4byte	.LASF147
 1453 09a4 01       		.byte	0x1
 1454 09a5 92       		.byte	0x92
 1455 09a6 00000000 		.4byte	.LFB258
 1456 09aa C8000000 		.4byte	.LFE258-.LFB258
 1457 09ae 01       		.uleb128 0x1
 1458 09af 9C       		.byte	0x9c
 1459 09b0 1E       		.uleb128 0x1e
 1460 09b1 DF010000 		.4byte	.LASF140
 1461 09b5 0E       		.byte	0xe
 1462 09b6 A706     		.2byte	0x6a7
 1463 09b8 CE000000 		.4byte	0xce
 1464 09bc 1F       		.uleb128 0x1f
 1465 09bd 56030000 		.4byte	.LASF141
 1466 09c1 01       		.byte	0x1
 1467 09c2 27       		.byte	0x27
 1468 09c3 B8000000 		.4byte	0xb8
 1469 09c7 05       		.uleb128 0x5
 1470 09c8 03       		.byte	0x3
 1471 09c9 00000000 		.4byte	SystemCoreClock
 1472 09cd 20       		.uleb128 0x20
 1473 09ce 636800   		.ascii	"ch\000"
 1474 09d1 07       		.byte	0x7
 1475 09d2 0902     		.2byte	0x209
 1476 09d4 0D040000 		.4byte	0x40d
 1477 09d8 21       		.uleb128 0x21
 1478 09d9 1B060000 		.4byte	.LASF148
 1479 09dd 1B060000 		.4byte	.LASF148
 1480 09e1 0F       		.byte	0xf
 1481 09e2 C101     		.2byte	0x1c1
 1482 09e4 00       		.byte	0
ARM GAS  C:\Users\IDONNO~1.SON\AppData\Local\Temp\cc9lduOR.s 			page 27


 1483              		.section	.debug_abbrev,"",%progbits
 1484              	.Ldebug_abbrev0:
 1485 0000 01       		.uleb128 0x1
 1486 0001 11       		.uleb128 0x11
 1487 0002 01       		.byte	0x1
 1488 0003 25       		.uleb128 0x25
 1489 0004 0E       		.uleb128 0xe
 1490 0005 13       		.uleb128 0x13
 1491 0006 0B       		.uleb128 0xb
 1492 0007 03       		.uleb128 0x3
 1493 0008 0E       		.uleb128 0xe
 1494 0009 1B       		.uleb128 0x1b
 1495 000a 0E       		.uleb128 0xe
 1496 000b 55       		.uleb128 0x55
 1497 000c 17       		.uleb128 0x17
 1498 000d 11       		.uleb128 0x11
 1499 000e 01       		.uleb128 0x1
 1500 000f 10       		.uleb128 0x10
 1501 0010 17       		.uleb128 0x17
 1502 0011 00       		.byte	0
 1503 0012 00       		.byte	0
 1504 0013 02       		.uleb128 0x2
 1505 0014 24       		.uleb128 0x24
 1506 0015 00       		.byte	0
 1507 0016 0B       		.uleb128 0xb
 1508 0017 0B       		.uleb128 0xb
 1509 0018 3E       		.uleb128 0x3e
 1510 0019 0B       		.uleb128 0xb
 1511 001a 03       		.uleb128 0x3
 1512 001b 08       		.uleb128 0x8
 1513 001c 00       		.byte	0
 1514 001d 00       		.byte	0
 1515 001e 03       		.uleb128 0x3
 1516 001f 16       		.uleb128 0x16
 1517 0020 00       		.byte	0
 1518 0021 03       		.uleb128 0x3
 1519 0022 0E       		.uleb128 0xe
 1520 0023 3A       		.uleb128 0x3a
 1521 0024 0B       		.uleb128 0xb
 1522 0025 3B       		.uleb128 0x3b
 1523 0026 0B       		.uleb128 0xb
 1524 0027 49       		.uleb128 0x49
 1525 0028 13       		.uleb128 0x13
 1526 0029 00       		.byte	0
 1527 002a 00       		.byte	0
 1528 002b 04       		.uleb128 0x4
 1529 002c 24       		.uleb128 0x24
 1530 002d 00       		.byte	0
 1531 002e 0B       		.uleb128 0xb
 1532 002f 0B       		.uleb128 0xb
 1533 0030 3E       		.uleb128 0x3e
 1534 0031 0B       		.uleb128 0xb
 1535 0032 03       		.uleb128 0x3
 1536 0033 0E       		.uleb128 0xe
 1537 0034 00       		.byte	0
 1538 0035 00       		.byte	0
 1539 0036 05       		.uleb128 0x5
ARM GAS  C:\Users\IDONNO~1.SON\AppData\Local\Temp\cc9lduOR.s 			page 28


 1540 0037 35       		.uleb128 0x35
 1541 0038 00       		.byte	0
 1542 0039 49       		.uleb128 0x49
 1543 003a 13       		.uleb128 0x13
 1544 003b 00       		.byte	0
 1545 003c 00       		.byte	0
 1546 003d 06       		.uleb128 0x6
 1547 003e 13       		.uleb128 0x13
 1548 003f 01       		.byte	0x1
 1549 0040 03       		.uleb128 0x3
 1550 0041 0E       		.uleb128 0xe
 1551 0042 0B       		.uleb128 0xb
 1552 0043 0B       		.uleb128 0xb
 1553 0044 3A       		.uleb128 0x3a
 1554 0045 0B       		.uleb128 0xb
 1555 0046 3B       		.uleb128 0x3b
 1556 0047 0B       		.uleb128 0xb
 1557 0048 01       		.uleb128 0x1
 1558 0049 13       		.uleb128 0x13
 1559 004a 00       		.byte	0
 1560 004b 00       		.byte	0
 1561 004c 07       		.uleb128 0x7
 1562 004d 0D       		.uleb128 0xd
 1563 004e 00       		.byte	0
 1564 004f 03       		.uleb128 0x3
 1565 0050 0E       		.uleb128 0xe
 1566 0051 3A       		.uleb128 0x3a
 1567 0052 0B       		.uleb128 0xb
 1568 0053 3B       		.uleb128 0x3b
 1569 0054 0B       		.uleb128 0xb
 1570 0055 49       		.uleb128 0x49
 1571 0056 13       		.uleb128 0x13
 1572 0057 38       		.uleb128 0x38
 1573 0058 0B       		.uleb128 0xb
 1574 0059 00       		.byte	0
 1575 005a 00       		.byte	0
 1576 005b 08       		.uleb128 0x8
 1577 005c 0D       		.uleb128 0xd
 1578 005d 00       		.byte	0
 1579 005e 03       		.uleb128 0x3
 1580 005f 08       		.uleb128 0x8
 1581 0060 3A       		.uleb128 0x3a
 1582 0061 0B       		.uleb128 0xb
 1583 0062 3B       		.uleb128 0x3b
 1584 0063 05       		.uleb128 0x5
 1585 0064 49       		.uleb128 0x49
 1586 0065 13       		.uleb128 0x13
 1587 0066 38       		.uleb128 0x38
 1588 0067 0B       		.uleb128 0xb
 1589 0068 00       		.byte	0
 1590 0069 00       		.byte	0
 1591 006a 09       		.uleb128 0x9
 1592 006b 0D       		.uleb128 0xd
 1593 006c 00       		.byte	0
 1594 006d 03       		.uleb128 0x3
 1595 006e 0E       		.uleb128 0xe
 1596 006f 3A       		.uleb128 0x3a
ARM GAS  C:\Users\IDONNO~1.SON\AppData\Local\Temp\cc9lduOR.s 			page 29


 1597 0070 0B       		.uleb128 0xb
 1598 0071 3B       		.uleb128 0x3b
 1599 0072 05       		.uleb128 0x5
 1600 0073 49       		.uleb128 0x49
 1601 0074 13       		.uleb128 0x13
 1602 0075 38       		.uleb128 0x38
 1603 0076 0B       		.uleb128 0xb
 1604 0077 00       		.byte	0
 1605 0078 00       		.byte	0
 1606 0079 0A       		.uleb128 0xa
 1607 007a 0F       		.uleb128 0xf
 1608 007b 00       		.byte	0
 1609 007c 0B       		.uleb128 0xb
 1610 007d 0B       		.uleb128 0xb
 1611 007e 49       		.uleb128 0x49
 1612 007f 13       		.uleb128 0x13
 1613 0080 00       		.byte	0
 1614 0081 00       		.byte	0
 1615 0082 0B       		.uleb128 0xb
 1616 0083 13       		.uleb128 0x13
 1617 0084 01       		.byte	0x1
 1618 0085 03       		.uleb128 0x3
 1619 0086 0E       		.uleb128 0xe
 1620 0087 0B       		.uleb128 0xb
 1621 0088 0B       		.uleb128 0xb
 1622 0089 3A       		.uleb128 0x3a
 1623 008a 0B       		.uleb128 0xb
 1624 008b 3B       		.uleb128 0x3b
 1625 008c 05       		.uleb128 0x5
 1626 008d 01       		.uleb128 0x1
 1627 008e 13       		.uleb128 0x13
 1628 008f 00       		.byte	0
 1629 0090 00       		.byte	0
 1630 0091 0C       		.uleb128 0xc
 1631 0092 15       		.uleb128 0x15
 1632 0093 01       		.byte	0x1
 1633 0094 27       		.uleb128 0x27
 1634 0095 19       		.uleb128 0x19
 1635 0096 01       		.uleb128 0x1
 1636 0097 13       		.uleb128 0x13
 1637 0098 00       		.byte	0
 1638 0099 00       		.byte	0
 1639 009a 0D       		.uleb128 0xd
 1640 009b 05       		.uleb128 0x5
 1641 009c 00       		.byte	0
 1642 009d 49       		.uleb128 0x49
 1643 009e 13       		.uleb128 0x13
 1644 009f 00       		.byte	0
 1645 00a0 00       		.byte	0
 1646 00a1 0E       		.uleb128 0xe
 1647 00a2 0F       		.uleb128 0xf
 1648 00a3 00       		.byte	0
 1649 00a4 0B       		.uleb128 0xb
 1650 00a5 0B       		.uleb128 0xb
 1651 00a6 00       		.byte	0
 1652 00a7 00       		.byte	0
 1653 00a8 0F       		.uleb128 0xf
ARM GAS  C:\Users\IDONNO~1.SON\AppData\Local\Temp\cc9lduOR.s 			page 30


 1654 00a9 13       		.uleb128 0x13
 1655 00aa 01       		.byte	0x1
 1656 00ab 03       		.uleb128 0x3
 1657 00ac 0E       		.uleb128 0xe
 1658 00ad 0B       		.uleb128 0xb
 1659 00ae 05       		.uleb128 0x5
 1660 00af 3A       		.uleb128 0x3a
 1661 00b0 0B       		.uleb128 0xb
 1662 00b1 3B       		.uleb128 0x3b
 1663 00b2 05       		.uleb128 0x5
 1664 00b3 01       		.uleb128 0x1
 1665 00b4 13       		.uleb128 0x13
 1666 00b5 00       		.byte	0
 1667 00b6 00       		.byte	0
 1668 00b7 10       		.uleb128 0x10
 1669 00b8 01       		.uleb128 0x1
 1670 00b9 01       		.byte	0x1
 1671 00ba 49       		.uleb128 0x49
 1672 00bb 13       		.uleb128 0x13
 1673 00bc 01       		.uleb128 0x1
 1674 00bd 13       		.uleb128 0x13
 1675 00be 00       		.byte	0
 1676 00bf 00       		.byte	0
 1677 00c0 11       		.uleb128 0x11
 1678 00c1 21       		.uleb128 0x21
 1679 00c2 00       		.byte	0
 1680 00c3 49       		.uleb128 0x49
 1681 00c4 13       		.uleb128 0x13
 1682 00c5 2F       		.uleb128 0x2f
 1683 00c6 0B       		.uleb128 0xb
 1684 00c7 00       		.byte	0
 1685 00c8 00       		.byte	0
 1686 00c9 12       		.uleb128 0x12
 1687 00ca 13       		.uleb128 0x13
 1688 00cb 01       		.byte	0x1
 1689 00cc 0B       		.uleb128 0xb
 1690 00cd 0B       		.uleb128 0xb
 1691 00ce 3A       		.uleb128 0x3a
 1692 00cf 0B       		.uleb128 0xb
 1693 00d0 3B       		.uleb128 0x3b
 1694 00d1 05       		.uleb128 0x5
 1695 00d2 01       		.uleb128 0x1
 1696 00d3 13       		.uleb128 0x13
 1697 00d4 00       		.byte	0
 1698 00d5 00       		.byte	0
 1699 00d6 13       		.uleb128 0x13
 1700 00d7 16       		.uleb128 0x16
 1701 00d8 00       		.byte	0
 1702 00d9 03       		.uleb128 0x3
 1703 00da 0E       		.uleb128 0xe
 1704 00db 3A       		.uleb128 0x3a
 1705 00dc 0B       		.uleb128 0xb
 1706 00dd 3B       		.uleb128 0x3b
 1707 00de 05       		.uleb128 0x5
 1708 00df 49       		.uleb128 0x49
 1709 00e0 13       		.uleb128 0x13
 1710 00e1 00       		.byte	0
ARM GAS  C:\Users\IDONNO~1.SON\AppData\Local\Temp\cc9lduOR.s 			page 31


 1711 00e2 00       		.byte	0
 1712 00e3 14       		.uleb128 0x14
 1713 00e4 0D       		.uleb128 0xd
 1714 00e5 00       		.byte	0
 1715 00e6 03       		.uleb128 0x3
 1716 00e7 08       		.uleb128 0x8
 1717 00e8 3A       		.uleb128 0x3a
 1718 00e9 0B       		.uleb128 0xb
 1719 00ea 3B       		.uleb128 0x3b
 1720 00eb 0B       		.uleb128 0xb
 1721 00ec 49       		.uleb128 0x49
 1722 00ed 13       		.uleb128 0x13
 1723 00ee 38       		.uleb128 0x38
 1724 00ef 0B       		.uleb128 0xb
 1725 00f0 00       		.byte	0
 1726 00f1 00       		.byte	0
 1727 00f2 15       		.uleb128 0x15
 1728 00f3 13       		.uleb128 0x13
 1729 00f4 01       		.byte	0x1
 1730 00f5 0B       		.uleb128 0xb
 1731 00f6 0B       		.uleb128 0xb
 1732 00f7 3A       		.uleb128 0x3a
 1733 00f8 0B       		.uleb128 0xb
 1734 00f9 3B       		.uleb128 0x3b
 1735 00fa 0B       		.uleb128 0xb
 1736 00fb 01       		.uleb128 0x1
 1737 00fc 13       		.uleb128 0x13
 1738 00fd 00       		.byte	0
 1739 00fe 00       		.byte	0
 1740 00ff 16       		.uleb128 0x16
 1741 0100 17       		.uleb128 0x17
 1742 0101 01       		.byte	0x1
 1743 0102 0B       		.uleb128 0xb
 1744 0103 0B       		.uleb128 0xb
 1745 0104 3A       		.uleb128 0x3a
 1746 0105 0B       		.uleb128 0xb
 1747 0106 3B       		.uleb128 0x3b
 1748 0107 0B       		.uleb128 0xb
 1749 0108 01       		.uleb128 0x1
 1750 0109 13       		.uleb128 0x13
 1751 010a 00       		.byte	0
 1752 010b 00       		.byte	0
 1753 010c 17       		.uleb128 0x17
 1754 010d 0D       		.uleb128 0xd
 1755 010e 00       		.byte	0
 1756 010f 03       		.uleb128 0x3
 1757 0110 0E       		.uleb128 0xe
 1758 0111 3A       		.uleb128 0x3a
 1759 0112 0B       		.uleb128 0xb
 1760 0113 3B       		.uleb128 0x3b
 1761 0114 05       		.uleb128 0x5
 1762 0115 49       		.uleb128 0x49
 1763 0116 13       		.uleb128 0x13
 1764 0117 00       		.byte	0
 1765 0118 00       		.byte	0
 1766 0119 18       		.uleb128 0x18
 1767 011a 26       		.uleb128 0x26
ARM GAS  C:\Users\IDONNO~1.SON\AppData\Local\Temp\cc9lduOR.s 			page 32


 1768 011b 00       		.byte	0
 1769 011c 49       		.uleb128 0x49
 1770 011d 13       		.uleb128 0x13
 1771 011e 00       		.byte	0
 1772 011f 00       		.byte	0
 1773 0120 19       		.uleb128 0x19
 1774 0121 2E       		.uleb128 0x2e
 1775 0122 00       		.byte	0
 1776 0123 03       		.uleb128 0x3
 1777 0124 0E       		.uleb128 0xe
 1778 0125 3A       		.uleb128 0x3a
 1779 0126 0B       		.uleb128 0xb
 1780 0127 3B       		.uleb128 0x3b
 1781 0128 0B       		.uleb128 0xb
 1782 0129 27       		.uleb128 0x27
 1783 012a 19       		.uleb128 0x19
 1784 012b 20       		.uleb128 0x20
 1785 012c 0B       		.uleb128 0xb
 1786 012d 00       		.byte	0
 1787 012e 00       		.byte	0
 1788 012f 1A       		.uleb128 0x1a
 1789 0130 2E       		.uleb128 0x2e
 1790 0131 01       		.byte	0x1
 1791 0132 3F       		.uleb128 0x3f
 1792 0133 19       		.uleb128 0x19
 1793 0134 03       		.uleb128 0x3
 1794 0135 0E       		.uleb128 0xe
 1795 0136 3A       		.uleb128 0x3a
 1796 0137 0B       		.uleb128 0xb
 1797 0138 3B       		.uleb128 0x3b
 1798 0139 0B       		.uleb128 0xb
 1799 013a 27       		.uleb128 0x27
 1800 013b 19       		.uleb128 0x19
 1801 013c 11       		.uleb128 0x11
 1802 013d 01       		.uleb128 0x1
 1803 013e 12       		.uleb128 0x12
 1804 013f 06       		.uleb128 0x6
 1805 0140 40       		.uleb128 0x40
 1806 0141 18       		.uleb128 0x18
 1807 0142 9742     		.uleb128 0x2117
 1808 0144 19       		.uleb128 0x19
 1809 0145 01       		.uleb128 0x1
 1810 0146 13       		.uleb128 0x13
 1811 0147 00       		.byte	0
 1812 0148 00       		.byte	0
 1813 0149 1B       		.uleb128 0x1b
 1814 014a 1D       		.uleb128 0x1d
 1815 014b 00       		.byte	0
 1816 014c 31       		.uleb128 0x31
 1817 014d 13       		.uleb128 0x13
 1818 014e 52       		.uleb128 0x52
 1819 014f 01       		.uleb128 0x1
 1820 0150 55       		.uleb128 0x55
 1821 0151 17       		.uleb128 0x17
 1822 0152 58       		.uleb128 0x58
 1823 0153 0B       		.uleb128 0xb
 1824 0154 59       		.uleb128 0x59
ARM GAS  C:\Users\IDONNO~1.SON\AppData\Local\Temp\cc9lduOR.s 			page 33


 1825 0155 0B       		.uleb128 0xb
 1826 0156 00       		.byte	0
 1827 0157 00       		.byte	0
 1828 0158 1C       		.uleb128 0x1c
 1829 0159 898201   		.uleb128 0x4109
 1830 015c 00       		.byte	0
 1831 015d 11       		.uleb128 0x11
 1832 015e 01       		.uleb128 0x1
 1833 015f 9542     		.uleb128 0x2115
 1834 0161 19       		.uleb128 0x19
 1835 0162 31       		.uleb128 0x31
 1836 0163 13       		.uleb128 0x13
 1837 0164 00       		.byte	0
 1838 0165 00       		.byte	0
 1839 0166 1D       		.uleb128 0x1d
 1840 0167 2E       		.uleb128 0x2e
 1841 0168 00       		.byte	0
 1842 0169 3F       		.uleb128 0x3f
 1843 016a 19       		.uleb128 0x19
 1844 016b 03       		.uleb128 0x3
 1845 016c 0E       		.uleb128 0xe
 1846 016d 3A       		.uleb128 0x3a
 1847 016e 0B       		.uleb128 0xb
 1848 016f 3B       		.uleb128 0x3b
 1849 0170 0B       		.uleb128 0xb
 1850 0171 27       		.uleb128 0x27
 1851 0172 19       		.uleb128 0x19
 1852 0173 11       		.uleb128 0x11
 1853 0174 01       		.uleb128 0x1
 1854 0175 12       		.uleb128 0x12
 1855 0176 06       		.uleb128 0x6
 1856 0177 40       		.uleb128 0x40
 1857 0178 18       		.uleb128 0x18
 1858 0179 9742     		.uleb128 0x2117
 1859 017b 19       		.uleb128 0x19
 1860 017c 00       		.byte	0
 1861 017d 00       		.byte	0
 1862 017e 1E       		.uleb128 0x1e
 1863 017f 34       		.uleb128 0x34
 1864 0180 00       		.byte	0
 1865 0181 03       		.uleb128 0x3
 1866 0182 0E       		.uleb128 0xe
 1867 0183 3A       		.uleb128 0x3a
 1868 0184 0B       		.uleb128 0xb
 1869 0185 3B       		.uleb128 0x3b
 1870 0186 05       		.uleb128 0x5
 1871 0187 49       		.uleb128 0x49
 1872 0188 13       		.uleb128 0x13
 1873 0189 3F       		.uleb128 0x3f
 1874 018a 19       		.uleb128 0x19
 1875 018b 3C       		.uleb128 0x3c
 1876 018c 19       		.uleb128 0x19
 1877 018d 00       		.byte	0
 1878 018e 00       		.byte	0
 1879 018f 1F       		.uleb128 0x1f
 1880 0190 34       		.uleb128 0x34
 1881 0191 00       		.byte	0
ARM GAS  C:\Users\IDONNO~1.SON\AppData\Local\Temp\cc9lduOR.s 			page 34


 1882 0192 03       		.uleb128 0x3
 1883 0193 0E       		.uleb128 0xe
 1884 0194 3A       		.uleb128 0x3a
 1885 0195 0B       		.uleb128 0xb
 1886 0196 3B       		.uleb128 0x3b
 1887 0197 0B       		.uleb128 0xb
 1888 0198 49       		.uleb128 0x49
 1889 0199 13       		.uleb128 0x13
 1890 019a 3F       		.uleb128 0x3f
 1891 019b 19       		.uleb128 0x19
 1892 019c 02       		.uleb128 0x2
 1893 019d 18       		.uleb128 0x18
 1894 019e 00       		.byte	0
 1895 019f 00       		.byte	0
 1896 01a0 20       		.uleb128 0x20
 1897 01a1 34       		.uleb128 0x34
 1898 01a2 00       		.byte	0
 1899 01a3 03       		.uleb128 0x3
 1900 01a4 08       		.uleb128 0x8
 1901 01a5 3A       		.uleb128 0x3a
 1902 01a6 0B       		.uleb128 0xb
 1903 01a7 3B       		.uleb128 0x3b
 1904 01a8 05       		.uleb128 0x5
 1905 01a9 49       		.uleb128 0x49
 1906 01aa 13       		.uleb128 0x13
 1907 01ab 3F       		.uleb128 0x3f
 1908 01ac 19       		.uleb128 0x19
 1909 01ad 3C       		.uleb128 0x3c
 1910 01ae 19       		.uleb128 0x19
 1911 01af 00       		.byte	0
 1912 01b0 00       		.byte	0
 1913 01b1 21       		.uleb128 0x21
 1914 01b2 2E       		.uleb128 0x2e
 1915 01b3 00       		.byte	0
 1916 01b4 3F       		.uleb128 0x3f
 1917 01b5 19       		.uleb128 0x19
 1918 01b6 3C       		.uleb128 0x3c
 1919 01b7 19       		.uleb128 0x19
 1920 01b8 6E       		.uleb128 0x6e
 1921 01b9 0E       		.uleb128 0xe
 1922 01ba 03       		.uleb128 0x3
 1923 01bb 0E       		.uleb128 0xe
 1924 01bc 3A       		.uleb128 0x3a
 1925 01bd 0B       		.uleb128 0xb
 1926 01be 3B       		.uleb128 0x3b
 1927 01bf 05       		.uleb128 0x5
 1928 01c0 00       		.byte	0
 1929 01c1 00       		.byte	0
 1930 01c2 00       		.byte	0
 1931              		.section	.debug_aranges,"",%progbits
 1932 0000 24000000 		.4byte	0x24
 1933 0004 0200     		.2byte	0x2
 1934 0006 00000000 		.4byte	.Ldebug_info0
 1935 000a 04       		.byte	0x4
 1936 000b 00       		.byte	0
 1937 000c 0000     		.2byte	0
 1938 000e 0000     		.2byte	0
ARM GAS  C:\Users\IDONNO~1.SON\AppData\Local\Temp\cc9lduOR.s 			page 35


 1939 0010 00000000 		.4byte	.LFB257
 1940 0014 68000000 		.4byte	.LFE257-.LFB257
 1941 0018 00000000 		.4byte	.LFB258
 1942 001c C8000000 		.4byte	.LFE258-.LFB258
 1943 0020 00000000 		.4byte	0
 1944 0024 00000000 		.4byte	0
 1945              		.section	.debug_ranges,"",%progbits
 1946              	.Ldebug_ranges0:
 1947 0000 18000000 		.4byte	.LBB4
 1948 0004 1A000000 		.4byte	.LBE4
 1949 0008 30000000 		.4byte	.LBB8
 1950 000c 4E000000 		.4byte	.LBE8
 1951 0010 52000000 		.4byte	.LBB9
 1952 0014 5A000000 		.4byte	.LBE9
 1953 0018 00000000 		.4byte	0
 1954 001c 00000000 		.4byte	0
 1955 0020 00000000 		.4byte	.LFB257
 1956 0024 68000000 		.4byte	.LFE257
 1957 0028 00000000 		.4byte	.LFB258
 1958 002c C8000000 		.4byte	.LFE258
 1959 0030 00000000 		.4byte	0
 1960 0034 00000000 		.4byte	0
 1961              		.section	.debug_line,"",%progbits
 1962              	.Ldebug_line0:
 1963 0000 66030000 		.section	.debug_str,"MS",%progbits,1
 1963      0200D702 
 1963      00000201 
 1963      FB0E0D00 
 1963      01010101 
 1964              	.LASF54:
 1965 0000 72656164 		.ascii	"ready_list_t\000"
 1965      795F6C69 
 1965      73745F74 
 1965      00
 1966              	.LASF2:
 1967 000d 73697A65 		.ascii	"size_t\000"
 1967      5F7400
 1968              	.LASF123:
 1969 0014 7264796D 		.ascii	"rdymsg\000"
 1969      736700
 1970              	.LASF17:
 1971 001b 75696E74 		.ascii	"uint64_t\000"
 1971      36345F74 
 1971      00
 1972              	.LASF3:
 1973 0024 5F5F7569 		.ascii	"__uint8_t\000"
 1973      6E74385F 
 1973      7400
 1974              	.LASF120:
 1975 002e 706F7274 		.ascii	"port_intctx\000"
 1975      5F696E74 
 1975      63747800 
 1976              	.LASF73:
 1977 003a 73797374 		.ascii	"system_debug_t\000"
 1977      656D5F64 
 1977      65627567 
 1977      5F7400
ARM GAS  C:\Users\IDONNO~1.SON\AppData\Local\Temp\cc9lduOR.s 			page 36


 1978              	.LASF142:
 1979 0049 474E5520 		.ascii	"GNU C99 5.4.1 20160609 (release) [ARM/embedded-5-br"
 1979      43393920 
 1979      352E342E 
 1979      31203230 
 1979      31363036 
 1980 007c 616E6368 		.ascii	"anch revision 237715] -mcpu=cortex-m4 -mfloat-abi=h"
 1980      20726576 
 1980      6973696F 
 1980      6E203233 
 1980      37373135 
 1981 00af 61726420 		.ascii	"ard -mfpu=fpv4-sp-d16 -mno-thumb-interwork -mthumb "
 1981      2D6D6670 
 1981      753D6670 
 1981      76342D73 
 1981      702D6431 
 1982 00e2 2D676764 		.ascii	"-ggdb -O2 -std=gnu99 -fomit-frame-pointer -falign-f"
 1982      62202D4F 
 1982      32202D73 
 1982      74643D67 
 1982      6E753939 
 1983 0115 756E6374 		.ascii	"unctions=16 -ffunction-sections -fdata-sections -fn"
 1983      696F6E73 
 1983      3D313620 
 1983      2D666675 
 1983      6E637469 
 1984 0148 6F2D636F 		.ascii	"o-common -fsingle-precision-constant\000"
 1984      6D6D6F6E 
 1984      202D6673 
 1984      696E676C 
 1984      652D7072 
 1985              	.LASF85:
 1986 016d 4F505443 		.ascii	"OPTCR\000"
 1986      5200
 1987              	.LASF86:
 1988 0173 4F505443 		.ascii	"OPTCR1\000"
 1988      523100
 1989              	.LASF144:
 1990 017a 443A5C67 		.ascii	"D:\\git\\oroca_bldc_dev\\oroca_bldc_FW\000"
 1990      69745C6F 
 1990      726F6361 
 1990      5F626C64 
 1990      635F6465 
 1991              	.LASF13:
 1992 019e 6C6F6E67 		.ascii	"long long unsigned int\000"
 1992      206C6F6E 
 1992      6720756E 
 1992      7369676E 
 1992      65642069 
 1993              	.LASF124:
 1994 01b5 65786974 		.ascii	"exitcode\000"
 1994      636F6465 
 1994      00
 1995              	.LASF80:
 1996 01be 6D61696E 		.ascii	"mainthread\000"
 1996      74687265 
 1996      616400
ARM GAS  C:\Users\IDONNO~1.SON\AppData\Local\Temp\cc9lduOR.s 			page 37


 1997              	.LASF70:
 1998 01c9 76697274 		.ascii	"virtual_timers_list_t\000"
 1998      75616C5F 
 1998      74696D65 
 1998      72735F6C 
 1998      6973745F 
 1999              	.LASF140:
 2000 01df 49544D5F 		.ascii	"ITM_RxBuffer\000"
 2000      52784275 
 2000      66666572 
 2000      00
 2001              	.LASF53:
 2002 01ec 63685F74 		.ascii	"ch_threads_queue\000"
 2002      68726561 
 2002      64735F71 
 2002      75657565 
 2002      00
 2003              	.LASF105:
 2004 01fd 41484231 		.ascii	"AHB1LPENR\000"
 2004      4C50454E 
 2004      5200
 2005              	.LASF31:
 2006 0207 705F7072 		.ascii	"p_prio\000"
 2006      696F00
 2007              	.LASF72:
 2008 020e 76745F73 		.ascii	"vt_systime\000"
 2008      79737469 
 2008      6D6500
 2009              	.LASF11:
 2010 0219 6C6F6E67 		.ascii	"long long int\000"
 2010      206C6F6E 
 2010      6720696E 
 2010      7400
 2011              	.LASF1:
 2012 0227 7369676E 		.ascii	"signed char\000"
 2012      65642063 
 2012      68617200 
 2013              	.LASF91:
 2014 0233 41484231 		.ascii	"AHB1RSTR\000"
 2014      52535452 
 2014      00
 2015              	.LASF87:
 2016 023c 464C4153 		.ascii	"FLASH_TypeDef\000"
 2016      485F5479 
 2016      70654465 
 2016      6600
 2017              	.LASF47:
 2018 024a 705F6D70 		.ascii	"p_mpool\000"
 2018      6F6F6C00 
 2019              	.LASF143:
 2020 0252 6C69622F 		.ascii	"lib/ChibiOS_3.0.2/os/hal/ports/STM32/STM32F4xx/hal_"
 2020      43686962 
 2020      694F535F 
 2020      332E302E 
 2020      322F6F73 
 2021 0285 6C6C642E 		.ascii	"lld.c\000"
 2021      6300
ARM GAS  C:\Users\IDONNO~1.SON\AppData\Local\Temp\cc9lduOR.s 			page 38


 2022              	.LASF134:
 2023 028b 6D5F7175 		.ascii	"m_queue\000"
 2023      65756500 
 2024              	.LASF79:
 2025 0293 76746C69 		.ascii	"vtlist\000"
 2025      737400
 2026              	.LASF88:
 2027 029a 5057525F 		.ascii	"PWR_TypeDef\000"
 2027      54797065 
 2027      44656600 
 2028              	.LASF22:
 2029 02a6 74736C69 		.ascii	"tslices_t\000"
 2029      6365735F 
 2029      7400
 2030              	.LASF126:
 2031 02b0 77747472 		.ascii	"wttrp\000"
 2031      7000
 2032              	.LASF77:
 2033 02b6 63685F73 		.ascii	"ch_system\000"
 2033      79737465 
 2033      6D00
 2034              	.LASF8:
 2035 02c0 6C6F6E67 		.ascii	"long int\000"
 2035      20696E74 
 2035      00
 2036              	.LASF96:
 2037 02c9 41504232 		.ascii	"APB2RSTR\000"
 2037      52535452 
 2037      00
 2038              	.LASF109:
 2039 02d2 41504231 		.ascii	"APB1LPENR\000"
 2039      4C50454E 
 2039      5200
 2040              	.LASF20:
 2041 02dc 74737461 		.ascii	"tstate_t\000"
 2041      74655F74 
 2041      00
 2042              	.LASF33:
 2043 02e5 705F6E65 		.ascii	"p_newer\000"
 2043      77657200 
 2044              	.LASF84:
 2045 02ed 4F50544B 		.ascii	"OPTKEYR\000"
 2045      45595200 
 2046              	.LASF59:
 2047 02f5 725F6E65 		.ascii	"r_newer\000"
 2047      77657200 
 2048              	.LASF117:
 2049 02fd 72656761 		.ascii	"regarm_t\000"
 2049      726D5F74 
 2049      00
 2050              	.LASF66:
 2051 0306 76745F70 		.ascii	"vt_prev\000"
 2051      72657600 
 2052              	.LASF83:
 2053 030e 4B455952 		.ascii	"KEYR\000"
 2053      00
 2054              	.LASF147:
ARM GAS  C:\Users\IDONNO~1.SON\AppData\Local\Temp\cc9lduOR.s 			page 39


 2055 0313 73746D33 		.ascii	"stm32_clock_init\000"
 2055      325F636C 
 2055      6F636B5F 
 2055      696E6974 
 2055      00
 2056              	.LASF138:
 2057 0324 6D757465 		.ascii	"mutex_t\000"
 2057      785F7400 
 2058              	.LASF81:
 2059 032c 69646C65 		.ascii	"idle_thread_wa\000"
 2059      5F746872 
 2059      6561645F 
 2059      776100
 2060              	.LASF26:
 2061 033b 636E745F 		.ascii	"cnt_t\000"
 2061      7400
 2062              	.LASF0:
 2063 0341 756E7369 		.ascii	"unsigned int\000"
 2063      676E6564 
 2063      20696E74 
 2063      00
 2064              	.LASF65:
 2065 034e 76745F6E 		.ascii	"vt_next\000"
 2065      65787400 
 2066              	.LASF141:
 2067 0356 53797374 		.ascii	"SystemCoreClock\000"
 2067      656D436F 
 2067      7265436C 
 2067      6F636B00 
 2068              	.LASF40:
 2069 0366 705F7469 		.ascii	"p_time\000"
 2069      6D6500
 2070              	.LASF127:
 2071 036d 77747365 		.ascii	"wtsemp\000"
 2071      6D7000
 2072              	.LASF67:
 2073 0374 76745F64 		.ascii	"vt_delta\000"
 2073      656C7461 
 2073      00
 2074              	.LASF42:
 2075 037d 705F6D73 		.ascii	"p_msgqueue\000"
 2075      67717565 
 2075      756500
 2076              	.LASF116:
 2077 0388 5243435F 		.ascii	"RCC_TypeDef\000"
 2077      54797065 
 2077      44656600 
 2078              	.LASF132:
 2079 0394 735F636E 		.ascii	"s_cnt\000"
 2079      7400
 2080              	.LASF6:
 2081 039a 73686F72 		.ascii	"short unsigned int\000"
 2081      7420756E 
 2081      7369676E 
 2081      65642069 
 2081      6E7400
 2082              	.LASF50:
ARM GAS  C:\Users\IDONNO~1.SON\AppData\Local\Temp\cc9lduOR.s 			page 40


 2083 03ad 63685F74 		.ascii	"ch_thread\000"
 2083      68726561 
 2083      6400
 2084              	.LASF115:
 2085 03b7 504C4C49 		.ascii	"PLLI2SCFGR\000"
 2085      32534346 
 2085      475200
 2086              	.LASF24:
 2087 03c2 6D73675F 		.ascii	"msg_t\000"
 2087      7400
 2088              	.LASF89:
 2089 03c8 504C4C43 		.ascii	"PLLCFGR\000"
 2089      46475200 
 2090              	.LASF145:
 2091 03d0 68616C5F 		.ascii	"hal_lld_backup_domain_init\000"
 2091      6C6C645F 
 2091      6261636B 
 2091      75705F64 
 2091      6F6D6169 
 2092              	.LASF76:
 2093 03eb 63685F73 		.ascii	"ch_system_t\000"
 2093      79737465 
 2093      6D5F7400 
 2094              	.LASF19:
 2095 03f7 746D6F64 		.ascii	"tmode_t\000"
 2095      655F7400 
 2096              	.LASF110:
 2097 03ff 41504232 		.ascii	"APB2LPENR\000"
 2097      4C50454E 
 2097      5200
 2098              	.LASF55:
 2099 0409 63685F72 		.ascii	"ch_ready_list\000"
 2099      65616479 
 2099      5F6C6973 
 2099      7400
 2100              	.LASF25:
 2101 0417 6576656E 		.ascii	"eventmask_t\000"
 2101      746D6173 
 2101      6B5F7400 
 2102              	.LASF7:
 2103 0423 5F5F696E 		.ascii	"__int32_t\000"
 2103      7433325F 
 2103      7400
 2104              	.LASF118:
 2105 042d 73746B61 		.ascii	"stkalign_t\000"
 2105      6C69676E 
 2105      5F7400
 2106              	.LASF49:
 2107 0438 74687265 		.ascii	"threads_list_t\000"
 2107      6164735F 
 2107      6C697374 
 2107      5F7400
 2108              	.LASF63:
 2109 0447 76697274 		.ascii	"virtual_timer_t\000"
 2109      75616C5F 
 2109      74696D65 
 2109      725F7400 
ARM GAS  C:\Users\IDONNO~1.SON\AppData\Local\Temp\cc9lduOR.s 			page 41


 2110              	.LASF41:
 2111 0457 705F7761 		.ascii	"p_waiting\000"
 2111      6974696E 
 2111      6700
 2112              	.LASF82:
 2113 0461 73697A65 		.ascii	"sizetype\000"
 2113      74797065 
 2113      00
 2114              	.LASF48:
 2115 046a 74687265 		.ascii	"thread_reference_t\000"
 2115      61645F72 
 2115      65666572 
 2115      656E6365 
 2115      5F7400
 2116              	.LASF71:
 2117 047d 63685F76 		.ascii	"ch_virtual_timers_list\000"
 2117      69727475 
 2117      616C5F74 
 2117      696D6572 
 2117      735F6C69 
 2118              	.LASF29:
 2119 0494 705F6E65 		.ascii	"p_next\000"
 2119      787400
 2120              	.LASF100:
 2121 049b 41484233 		.ascii	"AHB3ENR\000"
 2121      454E5200 
 2122              	.LASF34:
 2123 04a3 705F6F6C 		.ascii	"p_older\000"
 2123      64657200 
 2124              	.LASF58:
 2125 04ab 725F6374 		.ascii	"r_ctx\000"
 2125      7800
 2126              	.LASF106:
 2127 04b1 41484232 		.ascii	"AHB2LPENR\000"
 2127      4C50454E 
 2127      5200
 2128              	.LASF122:
 2129 04bb 746D5F63 		.ascii	"tm_calibration_t\000"
 2129      616C6962 
 2129      72617469 
 2129      6F6E5F74 
 2129      00
 2130              	.LASF61:
 2131 04cc 725F6375 		.ascii	"r_current\000"
 2131      7272656E 
 2131      7400
 2132              	.LASF95:
 2133 04d6 41504231 		.ascii	"APB1RSTR\000"
 2133      52535452 
 2133      00
 2134              	.LASF12:
 2135 04df 5F5F7569 		.ascii	"__uint64_t\000"
 2135      6E743634 
 2135      5F7400
 2136              	.LASF21:
 2137 04ea 74726566 		.ascii	"trefs_t\000"
 2137      735F7400 
ARM GAS  C:\Users\IDONNO~1.SON\AppData\Local\Temp\cc9lduOR.s 			page 42


 2138              	.LASF94:
 2139 04f2 52455345 		.ascii	"RESERVED0\000"
 2139      52564544 
 2139      3000
 2140              	.LASF97:
 2141 04fc 52455345 		.ascii	"RESERVED1\000"
 2141      52564544 
 2141      3100
 2142              	.LASF101:
 2143 0506 52455345 		.ascii	"RESERVED2\000"
 2143      52564544 
 2143      3200
 2144              	.LASF104:
 2145 0510 52455345 		.ascii	"RESERVED3\000"
 2145      52564544 
 2145      3300
 2146              	.LASF108:
 2147 051a 52455345 		.ascii	"RESERVED4\000"
 2147      52564544 
 2147      3400
 2148              	.LASF30:
 2149 0524 705F7072 		.ascii	"p_prev\000"
 2149      657600
 2150              	.LASF113:
 2151 052b 52455345 		.ascii	"RESERVED6\000"
 2151      52564544 
 2151      3600
 2152              	.LASF23:
 2153 0535 74707269 		.ascii	"tprio_t\000"
 2153      6F5F7400 
 2154              	.LASF74:
 2155 053d 63685F73 		.ascii	"ch_system_debug\000"
 2155      79737465 
 2155      6D5F6465 
 2155      62756700 
 2156              	.LASF139:
 2157 054d 5F426F6F 		.ascii	"_Bool\000"
 2157      6C00
 2158              	.LASF15:
 2159 0553 696E7433 		.ascii	"int32_t\000"
 2159      325F7400 
 2160              	.LASF4:
 2161 055b 756E7369 		.ascii	"unsigned char\000"
 2161      676E6564 
 2161      20636861 
 2161      7200
 2162              	.LASF45:
 2163 0569 705F6D74 		.ascii	"p_mtxlist\000"
 2163      786C6973 
 2163      7400
 2164              	.LASF5:
 2165 0573 73686F72 		.ascii	"short int\000"
 2165      7420696E 
 2165      7400
 2166              	.LASF36:
 2167 057d 705F7374 		.ascii	"p_state\000"
 2167      61746500 
ARM GAS  C:\Users\IDONNO~1.SON\AppData\Local\Temp\cc9lduOR.s 			page 43


 2168              	.LASF39:
 2169 0585 705F7072 		.ascii	"p_preempt\000"
 2169      65656D70 
 2169      7400
 2170              	.LASF107:
 2171 058f 41484233 		.ascii	"AHB3LPENR\000"
 2171      4C50454E 
 2171      5200
 2172              	.LASF57:
 2173 0599 725F7072 		.ascii	"r_prio\000"
 2173      696F00
 2174              	.LASF129:
 2175 05a0 65776D61 		.ascii	"ewmask\000"
 2175      736B00
 2176              	.LASF37:
 2177 05a7 705F666C 		.ascii	"p_flags\000"
 2177      61677300 
 2178              	.LASF103:
 2179 05af 41504232 		.ascii	"APB2ENR\000"
 2179      454E5200 
 2180              	.LASF93:
 2181 05b7 41484233 		.ascii	"AHB3RSTR\000"
 2181      52535452 
 2181      00
 2182              	.LASF64:
 2183 05c0 63685F76 		.ascii	"ch_virtual_timer\000"
 2183      69727475 
 2183      616C5F74 
 2183      696D6572 
 2183      00
 2184              	.LASF130:
 2185 05d1 63685F73 		.ascii	"ch_semaphore\000"
 2185      656D6170 
 2185      686F7265 
 2185      00
 2186              	.LASF44:
 2187 05de 705F6570 		.ascii	"p_epending\000"
 2187      656E6469 
 2187      6E6700
 2188              	.LASF111:
 2189 05e9 52455345 		.ascii	"RESERVED5\000"
 2189      52564544 
 2189      3500
 2190              	.LASF16:
 2191 05f3 75696E74 		.ascii	"uint32_t\000"
 2191      33325F74 
 2191      00
 2192              	.LASF128:
 2193 05fc 77746D74 		.ascii	"wtmtxp\000"
 2193      787000
 2194              	.LASF56:
 2195 0603 725F7175 		.ascii	"r_queue\000"
 2195      65756500 
 2196              	.LASF51:
 2197 060b 63685F74 		.ascii	"ch_threads_list\000"
 2197      68726561 
 2197      64735F6C 
ARM GAS  C:\Users\IDONNO~1.SON\AppData\Local\Temp\cc9lduOR.s 			page 44


 2197      69737400 
 2198              	.LASF148:
 2199 061b 646D6149 		.ascii	"dmaInit\000"
 2199      6E697400 
 2200              	.LASF10:
 2201 0623 6C6F6E67 		.ascii	"long unsigned int\000"
 2201      20756E73 
 2201      69676E65 
 2201      6420696E 
 2201      7400
 2202              	.LASF137:
 2203 0635 63686172 		.ascii	"char\000"
 2203      00
 2204              	.LASF92:
 2205 063a 41484232 		.ascii	"AHB2RSTR\000"
 2205      52535452 
 2205      00
 2206              	.LASF28:
 2207 0643 74687265 		.ascii	"thread_t\000"
 2207      61645F74 
 2207      00
 2208              	.LASF136:
 2209 064c 6D5F6E65 		.ascii	"m_next\000"
 2209      787400
 2210              	.LASF27:
 2211 0653 73797374 		.ascii	"systime_t\000"
 2211      696D655F 
 2211      7400
 2212              	.LASF46:
 2213 065d 705F7265 		.ascii	"p_realprio\000"
 2213      616C7072 
 2213      696F00
 2214              	.LASF62:
 2215 0668 76746675 		.ascii	"vtfunc_t\000"
 2215      6E635F74 
 2215      00
 2216              	.LASF9:
 2217 0671 5F5F7569 		.ascii	"__uint32_t\000"
 2217      6E743332 
 2217      5F7400
 2218              	.LASF75:
 2219 067c 70616E69 		.ascii	"panic_msg\000"
 2219      635F6D73 
 2219      6700
 2220              	.LASF121:
 2221 0686 6F666673 		.ascii	"offset\000"
 2221      657400
 2222              	.LASF102:
 2223 068d 41504231 		.ascii	"APB1ENR\000"
 2223      454E5200 
 2224              	.LASF99:
 2225 0695 41484232 		.ascii	"AHB2ENR\000"
 2225      454E5200 
 2226              	.LASF119:
 2227 069d 636F6E74 		.ascii	"context\000"
 2227      65787400 
 2228              	.LASF60:
ARM GAS  C:\Users\IDONNO~1.SON\AppData\Local\Temp\cc9lduOR.s 			page 45


 2229 06a5 725F6F6C 		.ascii	"r_older\000"
 2229      64657200 
 2230              	.LASF146:
 2231 06ad 68616C5F 		.ascii	"hal_lld_init\000"
 2231      6C6C645F 
 2231      696E6974 
 2231      00
 2232              	.LASF18:
 2233 06ba 7274636E 		.ascii	"rtcnt_t\000"
 2233      745F7400 
 2234              	.LASF69:
 2235 06c2 76745F70 		.ascii	"vt_par\000"
 2235      617200
 2236              	.LASF114:
 2237 06c9 53534347 		.ascii	"SSCGR\000"
 2237      5200
 2238              	.LASF52:
 2239 06cf 74687265 		.ascii	"threads_queue_t\000"
 2239      6164735F 
 2239      71756575 
 2239      655F7400 
 2240              	.LASF133:
 2241 06df 63685F6D 		.ascii	"ch_mutex\000"
 2241      75746578 
 2241      00
 2242              	.LASF38:
 2243 06e8 705F7265 		.ascii	"p_refs\000"
 2243      667300
 2244              	.LASF112:
 2245 06ef 42444352 		.ascii	"BDCR\000"
 2245      00
 2246              	.LASF78:
 2247 06f4 726C6973 		.ascii	"rlist\000"
 2247      7400
 2248              	.LASF14:
 2249 06fa 75696E74 		.ascii	"uint8_t\000"
 2249      385F7400 
 2250              	.LASF125:
 2251 0702 77746F62 		.ascii	"wtobjp\000"
 2251      6A7000
 2252              	.LASF35:
 2253 0709 705F6E61 		.ascii	"p_name\000"
 2253      6D6500
 2254              	.LASF98:
 2255 0710 41484231 		.ascii	"AHB1ENR\000"
 2255      454E5200 
 2256              	.LASF90:
 2257 0718 43464752 		.ascii	"CFGR\000"
 2257      00
 2258              	.LASF131:
 2259 071d 735F7175 		.ascii	"s_queue\000"
 2259      65756500 
 2260              	.LASF43:
 2261 0725 705F6D73 		.ascii	"p_msg\000"
 2261      6700
 2262              	.LASF135:
 2263 072b 6D5F6F77 		.ascii	"m_owner\000"
ARM GAS  C:\Users\IDONNO~1.SON\AppData\Local\Temp\cc9lduOR.s 			page 46


 2263      6E657200 
 2264              	.LASF32:
 2265 0733 705F6374 		.ascii	"p_ctx\000"
 2265      7800
 2266              	.LASF68:
 2267 0739 76745F66 		.ascii	"vt_func\000"
 2267      756E6300 
 2268              		.ident	"GCC: (GNU Tools for ARM Embedded Processors) 5.4.1 20160609 (release) [ARM/embedded-5-bran
ARM GAS  C:\Users\IDONNO~1.SON\AppData\Local\Temp\cc9lduOR.s 			page 47


DEFINED SYMBOLS
                            *ABS*:00000000 hal_lld.c
C:\Users\IDONNO~1.SON\AppData\Local\Temp\cc9lduOR.s:22     .text.hal_lld_init:00000000 $t
C:\Users\IDONNO~1.SON\AppData\Local\Temp\cc9lduOR.s:28     .text.hal_lld_init:00000000 hal_lld_init
C:\Users\IDONNO~1.SON\AppData\Local\Temp\cc9lduOR.s:111    .text.hal_lld_init:00000060 $d
C:\Users\IDONNO~1.SON\AppData\Local\Temp\cc9lduOR.s:117    .text.stm32_clock_init:00000000 $t
C:\Users\IDONNO~1.SON\AppData\Local\Temp\cc9lduOR.s:123    .text.stm32_clock_init:00000000 stm32_clock_init
C:\Users\IDONNO~1.SON\AppData\Local\Temp\cc9lduOR.s:247    .text.stm32_clock_init:000000b4 $d
C:\Users\IDONNO~1.SON\AppData\Local\Temp\cc9lduOR.s:260    .data.SystemCoreClock:00000000 SystemCoreClock
C:\Users\IDONNO~1.SON\AppData\Local\Temp\cc9lduOR.s:257    .data.SystemCoreClock:00000000 $d
                     .debug_frame:00000010 $d

UNDEFINED SYMBOLS
dmaInit
