ARM GAS  C:\Users\IDONNO~1\AppData\Local\Temp\ccFIblx2.s 			page 1


   1              		.syntax unified
   2              		.cpu cortex-m4
   3              		.eabi_attribute 27, 1
   4              		.eabi_attribute 28, 1
   5              		.fpu fpv4-sp-d16
   6              		.eabi_attribute 20, 1
   7              		.eabi_attribute 21, 1
   8              		.eabi_attribute 23, 3
   9              		.eabi_attribute 24, 1
  10              		.eabi_attribute 25, 1
  11              		.eabi_attribute 26, 1
  12              		.eabi_attribute 30, 2
  13              		.eabi_attribute 34, 1
  14              		.eabi_attribute 18, 4
  15              		.thumb
  16              		.syntax unified
  17              		.file	"hw_oroca.c"
  18              		.text
  19              	.Ltext0:
  20              		.cfi_sections	.debug_frame
  21              		.section	.text.hw_init_gpio,"ax",%progbits
  22              		.align	2
  23              		.p2align 4,,15
  24              		.global	hw_init_gpio
  25              		.thumb
  26              		.thumb_func
  27              		.type	hw_init_gpio, %function
  28              	hw_init_gpio:
  29              	.LFB256:
  30              		.file 1 "lib/hwconf/hw_oroca.c"
  31              		.loc 1 43 0
  32              		.cfi_startproc
  33              		@ args = 0, pretend = 0, frame = 0
  34              		@ frame_needed = 0, uses_anonymous_args = 0
  35              		.loc 1 45 0
  36 0000 0121     		movs	r1, #1
  37              		.loc 1 43 0
  38 0002 2DE9F843 		push	{r3, r4, r5, r6, r7, r8, r9, lr}
  39              		.cfi_def_cfa_offset 32
  40              		.cfi_offset 3, -32
  41              		.cfi_offset 4, -28
  42              		.cfi_offset 5, -24
  43              		.cfi_offset 6, -20
  44              		.cfi_offset 7, -16
  45              		.cfi_offset 8, -12
  46              		.cfi_offset 9, -8
  47              		.cfi_offset 14, -4
  48              		.loc 1 45 0
  49 0006 0846     		mov	r0, r1
  50              		.loc 1 50 0
  51 0008 5E4E     		ldr	r6, .L3
  52              		.loc 1 57 0
  53 000a 5F4C     		ldr	r4, .L3+4
  54              		.loc 1 71 0
  55 000c 5F4D     		ldr	r5, .L3+8
  56              		.loc 1 45 0
  57 000e FFF7FEFF 		bl	RCC_AHB1PeriphClockCmd
ARM GAS  C:\Users\IDONNO~1\AppData\Local\Temp\ccFIblx2.s 			page 2


  58              	.LVL0:
  59              		.loc 1 46 0
  60 0012 0121     		movs	r1, #1
  61 0014 0220     		movs	r0, #2
  62 0016 FFF7FEFF 		bl	RCC_AHB1PeriphClockCmd
  63              	.LVL1:
  64              		.loc 1 47 0
  65 001a 0121     		movs	r1, #1
  66 001c 0420     		movs	r0, #4
  67 001e FFF7FEFF 		bl	RCC_AHB1PeriphClockCmd
  68              	.LVL2:
  69              		.loc 1 50 0
  70 0022 3046     		mov	r0, r6
  71 0024 1922     		movs	r2, #25
  72 0026 4021     		movs	r1, #64
  73 0028 FFF7FEFF 		bl	_pal_lld_setgroupmode
  74              	.LVL3:
  75              		.loc 1 51 0
  76 002c 8021     		movs	r1, #128
  77              		.loc 1 54 0
  78 002e 8846     		mov	r8, r1
  79              		.loc 1 53 0
  80 0030 4027     		movs	r7, #64
  81              		.loc 1 51 0
  82 0032 3046     		mov	r0, r6
  83 0034 1922     		movs	r2, #25
  84 0036 FFF7FEFF 		bl	_pal_lld_setgroupmode
  85              	.LVL4:
  86              		.loc 1 53 0
  87 003a 7783     		strh	r7, [r6, #26]	@ movhi
  88              		.loc 1 57 0
  89 003c 3946     		mov	r1, r7
  90 003e 2046     		mov	r0, r4
  91              		.loc 1 54 0
  92 0040 A6F81A80 		strh	r8, [r6, #26]	@ movhi
  93              		.loc 1 57 0
  94 0044 1922     		movs	r2, #25
  95 0046 FFF7FEFF 		bl	_pal_lld_setgroupmode
  96              	.LVL5:
  97              		.loc 1 65 0
  98 004a 4FF48079 		mov	r9, #256
  99              		.loc 1 61 0
 100 004e 4146     		mov	r1, r8
 101 0050 2046     		mov	r0, r4
 102              		.loc 1 58 0
 103 0052 6783     		strh	r7, [r4, #26]	@ movhi
 104              		.loc 1 61 0
 105 0054 1922     		movs	r2, #25
 106 0056 FFF7FEFF 		bl	_pal_lld_setgroupmode
 107              	.LVL6:
 108              		.loc 1 64 0
 109 005a 2046     		mov	r0, r4
 110 005c 4946     		mov	r1, r9
 111 005e 1922     		movs	r2, #25
 112 0060 FFF7FEFF 		bl	_pal_lld_setgroupmode
 113              	.LVL7:
 114              		.loc 1 68 0
ARM GAS  C:\Users\IDONNO~1\AppData\Local\Temp\ccFIblx2.s 			page 3


 115 0064 3046     		mov	r0, r6
 116              		.loc 1 65 0
 117 0066 A4F81A90 		strh	r9, [r4, #26]	@ movhi
 118              		.loc 1 68 0
 119 006a 2022     		movs	r2, #32
 120 006c 4FF48051 		mov	r1, #4096
 121 0070 FFF7FEFF 		bl	_pal_lld_setgroupmode
 122              	.LVL8:
 123              		.loc 1 71 0
 124 0074 4946     		mov	r1, r9
 125 0076 2846     		mov	r0, r5
 126 0078 9A22     		movs	r2, #154
 127 007a FFF7FEFF 		bl	_pal_lld_setgroupmode
 128              	.LVL9:
 129              		.loc 1 72 0
 130 007e 2846     		mov	r0, r5
 131 0080 9A22     		movs	r2, #154
 132 0082 4FF40071 		mov	r1, #512
 133 0086 FFF7FEFF 		bl	_pal_lld_setgroupmode
 134              	.LVL10:
 135              		.loc 1 73 0
 136 008a 2846     		mov	r0, r5
 137 008c 9A22     		movs	r2, #154
 138 008e 4FF48061 		mov	r1, #1024
 139 0092 FFF7FEFF 		bl	_pal_lld_setgroupmode
 140              	.LVL11:
 141              		.loc 1 75 0
 142 0096 3046     		mov	r0, r6
 143 0098 9A22     		movs	r2, #154
 144 009a 4FF40051 		mov	r1, #8192
 145 009e FFF7FEFF 		bl	_pal_lld_setgroupmode
 146              	.LVL12:
 147              		.loc 1 76 0
 148 00a2 3046     		mov	r0, r6
 149 00a4 9A22     		movs	r2, #154
 150 00a6 4FF48041 		mov	r1, #16384
 151 00aa FFF7FEFF 		bl	_pal_lld_setgroupmode
 152              	.LVL13:
 153              		.loc 1 77 0
 154 00ae 3046     		mov	r0, r6
 155 00b0 9A22     		movs	r2, #154
 156 00b2 4FF40041 		mov	r1, #32768
 157 00b6 FFF7FEFF 		bl	_pal_lld_setgroupmode
 158              	.LVL14:
 159              		.loc 1 80 0
 160 00ba 2046     		mov	r0, r4
 161 00bc 2022     		movs	r2, #32
 162 00be 4FF40051 		mov	r1, #8192
 163 00c2 FFF7FEFF 		bl	_pal_lld_setgroupmode
 164              	.LVL15:
 165              		.loc 1 81 0
 166 00c6 2046     		mov	r0, r4
 167 00c8 2022     		movs	r2, #32
 168 00ca 4FF48041 		mov	r1, #16384
 169 00ce FFF7FEFF 		bl	_pal_lld_setgroupmode
 170              	.LVL16:
 171              		.loc 1 82 0
ARM GAS  C:\Users\IDONNO~1\AppData\Local\Temp\ccFIblx2.s 			page 4


 172 00d2 2046     		mov	r0, r4
 173 00d4 2022     		movs	r2, #32
 174 00d6 4FF40041 		mov	r1, #32768
 175 00da FFF7FEFF 		bl	_pal_lld_setgroupmode
 176              	.LVL17:
 177              		.loc 1 85 0
 178 00de 2846     		mov	r0, r5
 179 00e0 0322     		movs	r2, #3
 180 00e2 0121     		movs	r1, #1
 181 00e4 FFF7FEFF 		bl	_pal_lld_setgroupmode
 182              	.LVL18:
 183              		.loc 1 86 0
 184 00e8 2846     		mov	r0, r5
 185 00ea 0322     		movs	r2, #3
 186 00ec 0221     		movs	r1, #2
 187 00ee FFF7FEFF 		bl	_pal_lld_setgroupmode
 188              	.LVL19:
 189              		.loc 1 87 0
 190 00f2 2846     		mov	r0, r5
 191 00f4 0322     		movs	r2, #3
 192 00f6 0421     		movs	r1, #4
 193 00f8 FFF7FEFF 		bl	_pal_lld_setgroupmode
 194              	.LVL20:
 195              		.loc 1 88 0
 196 00fc 2846     		mov	r0, r5
 197 00fe 0322     		movs	r2, #3
 198 0100 0821     		movs	r1, #8
 199 0102 FFF7FEFF 		bl	_pal_lld_setgroupmode
 200              	.LVL21:
 201              		.loc 1 89 0
 202 0106 2846     		mov	r0, r5
 203 0108 0322     		movs	r2, #3
 204 010a 1021     		movs	r1, #16
 205 010c FFF7FEFF 		bl	_pal_lld_setgroupmode
 206              	.LVL22:
 207              		.loc 1 90 0
 208 0110 2846     		mov	r0, r5
 209 0112 0322     		movs	r2, #3
 210 0114 2021     		movs	r1, #32
 211 0116 FFF7FEFF 		bl	_pal_lld_setgroupmode
 212              	.LVL23:
 213              		.loc 1 91 0
 214 011a 3946     		mov	r1, r7
 215 011c 2846     		mov	r0, r5
 216 011e 0322     		movs	r2, #3
 217 0120 FFF7FEFF 		bl	_pal_lld_setgroupmode
 218              	.LVL24:
 219              		.loc 1 92 0
 220 0124 4146     		mov	r1, r8
 221 0126 2846     		mov	r0, r5
 222 0128 0322     		movs	r2, #3
 223 012a FFF7FEFF 		bl	_pal_lld_setgroupmode
 224              	.LVL25:
 225              		.loc 1 94 0
 226 012e 3046     		mov	r0, r6
 227 0130 0322     		movs	r2, #3
 228 0132 0121     		movs	r1, #1
ARM GAS  C:\Users\IDONNO~1\AppData\Local\Temp\ccFIblx2.s 			page 5


 229 0134 FFF7FEFF 		bl	_pal_lld_setgroupmode
 230              	.LVL26:
 231              		.loc 1 95 0
 232 0138 3046     		mov	r0, r6
 233 013a 0322     		movs	r2, #3
 234 013c 0221     		movs	r1, #2
 235 013e FFF7FEFF 		bl	_pal_lld_setgroupmode
 236              	.LVL27:
 237              		.loc 1 97 0
 238 0142 2046     		mov	r0, r4
 239 0144 0322     		movs	r2, #3
 240 0146 0121     		movs	r1, #1
 241 0148 FFF7FEFF 		bl	_pal_lld_setgroupmode
 242              	.LVL28:
 243              		.loc 1 98 0
 244 014c 2046     		mov	r0, r4
 245 014e 0322     		movs	r2, #3
 246 0150 0221     		movs	r1, #2
 247 0152 FFF7FEFF 		bl	_pal_lld_setgroupmode
 248              	.LVL29:
 249              		.loc 1 99 0
 250 0156 2046     		mov	r0, r4
 251 0158 0322     		movs	r2, #3
 252 015a 0421     		movs	r1, #4
 253 015c FFF7FEFF 		bl	_pal_lld_setgroupmode
 254              	.LVL30:
 255              		.loc 1 100 0
 256 0160 2046     		mov	r0, r4
 257 0162 0322     		movs	r2, #3
 258 0164 0821     		movs	r1, #8
 259 0166 FFF7FEFF 		bl	_pal_lld_setgroupmode
 260              	.LVL31:
 261              		.loc 1 101 0
 262 016a 2046     		mov	r0, r4
 263 016c 0322     		movs	r2, #3
 264 016e 1021     		movs	r1, #16
 265 0170 FFF7FEFF 		bl	_pal_lld_setgroupmode
 266              	.LVL32:
 267              		.loc 1 102 0
 268 0174 2046     		mov	r0, r4
 269 0176 0322     		movs	r2, #3
 270 0178 2021     		movs	r1, #32
 271              		.loc 1 104 0
 272 017a BDE8F843 		pop	{r3, r4, r5, r6, r7, r8, r9, lr}
 273              		.cfi_restore 14
 274              		.cfi_restore 9
 275              		.cfi_restore 8
 276              		.cfi_restore 7
 277              		.cfi_restore 6
 278              		.cfi_restore 5
 279              		.cfi_restore 4
 280              		.cfi_restore 3
 281              		.cfi_def_cfa_offset 0
 282              		.loc 1 102 0
 283 017e FFF7FEBF 		b	_pal_lld_setgroupmode
 284              	.LVL33:
 285              	.L4:
ARM GAS  C:\Users\IDONNO~1\AppData\Local\Temp\ccFIblx2.s 			page 6


 286 0182 00BF     		.align	2
 287              	.L3:
 288 0184 00040240 		.word	1073873920
 289 0188 00080240 		.word	1073874944
 290 018c 00000240 		.word	1073872896
 291              		.cfi_endproc
 292              	.LFE256:
 293              		.size	hw_init_gpio, .-hw_init_gpio
 294              		.section	.text.hw_setup_adc_channels,"ax",%progbits
 295              		.align	2
 296              		.p2align 4,,15
 297              		.global	hw_setup_adc_channels
 298              		.thumb
 299              		.thumb_func
 300              		.type	hw_setup_adc_channels, %function
 301              	hw_setup_adc_channels:
 302              	.LFB257:
 303              		.loc 1 106 0
 304              		.cfi_startproc
 305              		@ args = 0, pretend = 0, frame = 0
 306              		@ frame_needed = 0, uses_anonymous_args = 0
 307 0000 70B5     		push	{r4, r5, r6, lr}
 308              		.cfi_def_cfa_offset 16
 309              		.cfi_offset 4, -16
 310              		.cfi_offset 5, -12
 311              		.cfi_offset 6, -8
 312              		.cfi_offset 14, -4
 313              		.loc 1 108 0
 314 0002 264E     		ldr	r6, .L7
 315              		.loc 1 114 0
 316 0004 264D     		ldr	r5, .L7+4
 317              		.loc 1 120 0
 318 0006 274C     		ldr	r4, .L7+8
 319              		.loc 1 108 0
 320 0008 0123     		movs	r3, #1
 321 000a 3046     		mov	r0, r6
 322 000c 1A46     		mov	r2, r3
 323 000e 0021     		movs	r1, #0
 324 0010 FFF7FEFF 		bl	ADC_RegularChannelConfig
 325              	.LVL34:
 326              		.loc 1 109 0
 327 0014 3046     		mov	r0, r6
 328 0016 0123     		movs	r3, #1
 329 0018 0222     		movs	r2, #2
 330 001a 0821     		movs	r1, #8
 331 001c FFF7FEFF 		bl	ADC_RegularChannelConfig
 332              	.LVL35:
 333              		.loc 1 110 0
 334 0020 3046     		mov	r0, r6
 335 0022 0123     		movs	r3, #1
 336 0024 0322     		movs	r2, #3
 337 0026 0A21     		movs	r1, #10
 338 0028 FFF7FEFF 		bl	ADC_RegularChannelConfig
 339              	.LVL36:
 340              		.loc 1 111 0
 341 002c 0422     		movs	r2, #4
 342 002e 3046     		mov	r0, r6
ARM GAS  C:\Users\IDONNO~1\AppData\Local\Temp\ccFIblx2.s 			page 7


 343 0030 1146     		mov	r1, r2
 344 0032 0123     		movs	r3, #1
 345 0034 FFF7FEFF 		bl	ADC_RegularChannelConfig
 346              	.LVL37:
 347              		.loc 1 114 0
 348 0038 0123     		movs	r3, #1
 349 003a 2846     		mov	r0, r5
 350 003c 1A46     		mov	r2, r3
 351 003e 1946     		mov	r1, r3
 352 0040 FFF7FEFF 		bl	ADC_RegularChannelConfig
 353              	.LVL38:
 354              		.loc 1 115 0
 355 0044 2846     		mov	r0, r5
 356 0046 0123     		movs	r3, #1
 357 0048 0222     		movs	r2, #2
 358 004a 0921     		movs	r1, #9
 359 004c FFF7FEFF 		bl	ADC_RegularChannelConfig
 360              	.LVL39:
 361              		.loc 1 116 0
 362 0050 2846     		mov	r0, r5
 363 0052 0123     		movs	r3, #1
 364 0054 0322     		movs	r2, #3
 365 0056 0B21     		movs	r1, #11
 366 0058 FFF7FEFF 		bl	ADC_RegularChannelConfig
 367              	.LVL40:
 368              		.loc 1 117 0
 369 005c 2846     		mov	r0, r5
 370 005e 0123     		movs	r3, #1
 371 0060 0422     		movs	r2, #4
 372 0062 0F21     		movs	r1, #15
 373 0064 FFF7FEFF 		bl	ADC_RegularChannelConfig
 374              	.LVL41:
 375              		.loc 1 120 0
 376 0068 0123     		movs	r3, #1
 377 006a 2046     		mov	r0, r4
 378 006c 1A46     		mov	r2, r3
 379 006e 0221     		movs	r1, #2
 380 0070 FFF7FEFF 		bl	ADC_RegularChannelConfig
 381              	.LVL42:
 382              		.loc 1 121 0
 383 0074 2046     		mov	r0, r4
 384 0076 0123     		movs	r3, #1
 385 0078 0222     		movs	r2, #2
 386 007a 0321     		movs	r1, #3
 387 007c FFF7FEFF 		bl	ADC_RegularChannelConfig
 388              	.LVL43:
 389              		.loc 1 122 0
 390 0080 2046     		mov	r0, r4
 391 0082 0123     		movs	r3, #1
 392 0084 0322     		movs	r2, #3
 393 0086 0C21     		movs	r1, #12
 394 0088 FFF7FEFF 		bl	ADC_RegularChannelConfig
 395              	.LVL44:
 396              		.loc 1 123 0
 397 008c 2046     		mov	r0, r4
 398 008e 0123     		movs	r3, #1
 399 0090 0422     		movs	r2, #4
ARM GAS  C:\Users\IDONNO~1\AppData\Local\Temp\ccFIblx2.s 			page 8


 400 0092 0521     		movs	r1, #5
 401              		.loc 1 128 0
 402 0094 BDE87040 		pop	{r4, r5, r6, lr}
 403              		.cfi_restore 14
 404              		.cfi_restore 6
 405              		.cfi_restore 5
 406              		.cfi_restore 4
 407              		.cfi_def_cfa_offset 0
 408              		.loc 1 123 0
 409 0098 FFF7FEBF 		b	ADC_RegularChannelConfig
 410              	.LVL45:
 411              	.L8:
 412              		.align	2
 413              	.L7:
 414 009c 00200140 		.word	1073815552
 415 00a0 00210140 		.word	1073815808
 416 00a4 00220140 		.word	1073816064
 417              		.cfi_endproc
 418              	.LFE257:
 419              		.size	hw_setup_adc_channels, .-hw_setup_adc_channels
 420              		.section	.text.hw_start_i2c,"ax",%progbits
 421              		.align	2
 422              		.p2align 4,,15
 423              		.global	hw_start_i2c
 424              		.thumb
 425              		.thumb_func
 426              		.type	hw_start_i2c, %function
 427              	hw_start_i2c:
 428              	.LFB258:
 429              		.loc 1 130 0
 430              		.cfi_startproc
 431              		@ args = 0, pretend = 0, frame = 0
 432              		@ frame_needed = 0, uses_anonymous_args = 0
 433 0000 10B5     		push	{r4, lr}
 434              		.cfi_def_cfa_offset 8
 435              		.cfi_offset 4, -8
 436              		.cfi_offset 14, -4
 437              		.loc 1 133 0
 438 0002 0F4C     		ldr	r4, .L13
 439              		.loc 1 131 0
 440 0004 0F48     		ldr	r0, .L13+4
 441 0006 FFF7FEFF 		bl	i2cAcquireBus
 442              	.LVL46:
 443              		.loc 1 133 0
 444 000a 2378     		ldrb	r3, [r4]	@ zero_extendqisi2
 445 000c 9BB9     		cbnz	r3, .L10
 446              		.loc 1 134 0
 447 000e 40F22E22 		movw	r2, #558
 448 0012 4FF48061 		mov	r1, #1024
 449 0016 0C48     		ldr	r0, .L13+8
 450 0018 FFF7FEFF 		bl	_pal_lld_setgroupmode
 451              	.LVL47:
 452              		.loc 1 135 0
 453 001c 40F22E22 		movw	r2, #558
 454 0020 4FF40061 		mov	r1, #2048
 455 0024 0848     		ldr	r0, .L13+8
 456 0026 FFF7FEFF 		bl	_pal_lld_setgroupmode
ARM GAS  C:\Users\IDONNO~1\AppData\Local\Temp\ccFIblx2.s 			page 9


 457              	.LVL48:
 458              		.loc 1 137 0
 459 002a 0849     		ldr	r1, .L13+12
 460 002c 0548     		ldr	r0, .L13+4
 461 002e FFF7FEFF 		bl	i2cStart
 462              	.LVL49:
 463              		.loc 1 138 0
 464 0032 0123     		movs	r3, #1
 465 0034 2370     		strb	r3, [r4]
 466              	.L10:
 467              		.loc 1 141 0
 468 0036 0348     		ldr	r0, .L13+4
 469              		.loc 1 142 0
 470 0038 BDE81040 		pop	{r4, lr}
 471              		.cfi_restore 14
 472              		.cfi_restore 4
 473              		.cfi_def_cfa_offset 0
 474              		.loc 1 141 0
 475 003c FFF7FEBF 		b	i2cReleaseBus
 476              	.LVL50:
 477              	.L14:
 478              		.align	2
 479              	.L13:
 480 0040 00000000 		.word	.LANCHOR0
 481 0044 00000000 		.word	I2CD2
 482 0048 00040240 		.word	1073873920
 483 004c 00000000 		.word	.LANCHOR1
 484              		.cfi_endproc
 485              	.LFE258:
 486              		.size	hw_start_i2c, .-hw_start_i2c
 487              		.section	.text.hw_stop_i2c,"ax",%progbits
 488              		.align	2
 489              		.p2align 4,,15
 490              		.global	hw_stop_i2c
 491              		.thumb
 492              		.thumb_func
 493              		.type	hw_stop_i2c, %function
 494              	hw_stop_i2c:
 495              	.LFB259:
 496              		.loc 1 144 0
 497              		.cfi_startproc
 498              		@ args = 0, pretend = 0, frame = 0
 499              		@ frame_needed = 0, uses_anonymous_args = 0
 500 0000 10B5     		push	{r4, lr}
 501              		.cfi_def_cfa_offset 8
 502              		.cfi_offset 4, -8
 503              		.cfi_offset 14, -4
 504              		.loc 1 147 0
 505 0002 0E4C     		ldr	r4, .L21
 506              		.loc 1 145 0
 507 0004 0E48     		ldr	r0, .L21+4
 508 0006 FFF7FEFF 		bl	i2cAcquireBus
 509              	.LVL51:
 510              		.loc 1 147 0
 511 000a 2378     		ldrb	r3, [r4]	@ zero_extendqisi2
 512 000c 83B1     		cbz	r3, .L16
 513              		.loc 1 148 0
ARM GAS  C:\Users\IDONNO~1\AppData\Local\Temp\ccFIblx2.s 			page 10


 514 000e 0022     		movs	r2, #0
 515 0010 4FF48061 		mov	r1, #1024
 516 0014 0B48     		ldr	r0, .L21+8
 517 0016 FFF7FEFF 		bl	_pal_lld_setgroupmode
 518              	.LVL52:
 519              		.loc 1 149 0
 520 001a 0022     		movs	r2, #0
 521 001c 4FF40061 		mov	r1, #2048
 522 0020 0848     		ldr	r0, .L21+8
 523 0022 FFF7FEFF 		bl	_pal_lld_setgroupmode
 524              	.LVL53:
 525              		.loc 1 151 0
 526 0026 0648     		ldr	r0, .L21+4
 527 0028 FFF7FEFF 		bl	i2cStop
 528              	.LVL54:
 529              		.loc 1 152 0
 530 002c 0023     		movs	r3, #0
 531 002e 2370     		strb	r3, [r4]
 532              	.L16:
 533              		.loc 1 156 0
 534 0030 0348     		ldr	r0, .L21+4
 535              		.loc 1 157 0
 536 0032 BDE81040 		pop	{r4, lr}
 537              		.cfi_restore 14
 538              		.cfi_restore 4
 539              		.cfi_def_cfa_offset 0
 540              		.loc 1 156 0
 541 0036 FFF7FEBF 		b	i2cReleaseBus
 542              	.LVL55:
 543              	.L22:
 544 003a 00BF     		.align	2
 545              	.L21:
 546 003c 00000000 		.word	.LANCHOR0
 547 0040 00000000 		.word	I2CD2
 548 0044 00040240 		.word	1073873920
 549              		.cfi_endproc
 550              	.LFE259:
 551              		.size	hw_stop_i2c, .-hw_stop_i2c
 552              		.section	.text.hw_try_restore_i2c,"ax",%progbits
 553              		.align	2
 554              		.p2align 4,,15
 555              		.global	hw_try_restore_i2c
 556              		.thumb
 557              		.thumb_func
 558              		.type	hw_try_restore_i2c, %function
 559              	hw_try_restore_i2c:
 560              	.LFB260:
 561              		.loc 1 162 0
 562              		.cfi_startproc
 563              		@ args = 0, pretend = 0, frame = 0
 564              		@ frame_needed = 0, uses_anonymous_args = 0
 565 0000 2DE9F843 		push	{r3, r4, r5, r6, r7, r8, r9, lr}
 566              		.cfi_def_cfa_offset 32
 567              		.cfi_offset 3, -32
 568              		.cfi_offset 4, -28
 569              		.cfi_offset 5, -24
 570              		.cfi_offset 6, -20
ARM GAS  C:\Users\IDONNO~1\AppData\Local\Temp\ccFIblx2.s 			page 11


 571              		.cfi_offset 7, -16
 572              		.cfi_offset 8, -12
 573              		.cfi_offset 9, -8
 574              		.cfi_offset 14, -4
 575              		.loc 1 163 0
 576 0004 2B4B     		ldr	r3, .L29
 577 0006 1B78     		ldrb	r3, [r3]	@ zero_extendqisi2
 578 0008 0BB9     		cbnz	r3, .L28
 579 000a BDE8F883 		pop	{r3, r4, r5, r6, r7, r8, r9, pc}
 580              	.L28:
 581              		.loc 1 166 0
 582 000e 2A4D     		ldr	r5, .L29+4
 583              		.loc 1 164 0
 584 0010 2A48     		ldr	r0, .L29+8
 585 0012 FFF7FEFF 		bl	i2cAcquireBus
 586              	.LVL56:
 587              		.loc 1 166 0
 588 0016 2846     		mov	r0, r5
 589 0018 2C22     		movs	r2, #44
 590 001a 4FF48061 		mov	r1, #1024
 591 001e FFF7FEFF 		bl	_pal_lld_setgroupmode
 592              	.LVL57:
 593              		.loc 1 167 0
 594 0022 2846     		mov	r0, r5
 595 0024 2C22     		movs	r2, #44
 596 0026 4FF40061 		mov	r1, #2048
 597 002a FFF7FEFF 		bl	_pal_lld_setgroupmode
 598              	.LVL58:
 599              		.loc 1 169 0
 600 002e 4FF48067 		mov	r7, #1024
 601              		.loc 1 170 0
 602 0032 4FF40063 		mov	r3, #2048
 603              		.loc 1 169 0
 604 0036 2F83     		strh	r7, [r5, #24]	@ movhi
 605              		.loc 1 172 0
 606 0038 0120     		movs	r0, #1
 607              		.loc 1 170 0
 608 003a 2B83     		strh	r3, [r5, #24]	@ movhi
 609              		.loc 1 172 0
 610 003c FFF7FEFF 		bl	chThdSleep
 611              	.LVL59:
 612              	.LBB2:
 613              		.loc 1 175 0
 614 0040 B946     		mov	r9, r7	@ movhi
 615              	.LBE2:
 616              		.loc 1 172 0
 617 0042 1024     		movs	r4, #16
 618              	.LVL60:
 619              	.L25:
 620              	.LBB3:
 621              		.loc 1 176 0 discriminator 3
 622 0044 0120     		movs	r0, #1
 623              		.loc 1 175 0 discriminator 3
 624 0046 A5F81A90 		strh	r9, [r5, #26]	@ movhi
 625              		.loc 1 176 0 discriminator 3
 626 004a FFF7FEFF 		bl	chThdSleep
 627              	.LVL61:
ARM GAS  C:\Users\IDONNO~1\AppData\Local\Temp\ccFIblx2.s 			page 12


 628              		.loc 1 177 0 discriminator 3
 629 004e 2F83     		strh	r7, [r5, #24]	@ movhi
 630              		.loc 1 178 0 discriminator 3
 631 0050 0120     		movs	r0, #1
 632 0052 FFF7FEFF 		bl	chThdSleep
 633              	.LVL62:
 634              		.loc 1 174 0 discriminator 3
 635 0056 013C     		subs	r4, r4, #1
 636              	.LVL63:
 637              		.loc 1 175 0 discriminator 3
 638 0058 174E     		ldr	r6, .L29+4
 639 005a 4FF48068 		mov	r8, #1024
 640              		.loc 1 174 0 discriminator 3
 641 005e F1D1     		bne	.L25
 642              	.LBE3:
 643              		.loc 1 182 0
 644 0060 4FF40065 		mov	r5, #2048
 645 0064 7583     		strh	r5, [r6, #26]	@ movhi
 646              		.loc 1 183 0
 647 0066 0120     		movs	r0, #1
 648 0068 FFF7FEFF 		bl	chThdSleep
 649              	.LVL64:
 650              		.loc 1 184 0
 651 006c A6F81A80 		strh	r8, [r6, #26]	@ movhi
 652              		.loc 1 185 0
 653 0070 0120     		movs	r0, #1
 654 0072 FFF7FEFF 		bl	chThdSleep
 655              	.LVL65:
 656              		.loc 1 186 0
 657 0076 A6F81880 		strh	r8, [r6, #24]	@ movhi
 658              		.loc 1 187 0
 659 007a 0120     		movs	r0, #1
 660 007c FFF7FEFF 		bl	chThdSleep
 661              	.LVL66:
 662              		.loc 1 193 0
 663 0080 0E4C     		ldr	r4, .L29+8
 664              	.LVL67:
 665              		.loc 1 188 0
 666 0082 3583     		strh	r5, [r6, #24]	@ movhi
 667              		.loc 1 190 0
 668 0084 4146     		mov	r1, r8
 669 0086 3046     		mov	r0, r6
 670 0088 40F22E22 		movw	r2, #558
 671 008c FFF7FEFF 		bl	_pal_lld_setgroupmode
 672              	.LVL68:
 673              		.loc 1 191 0
 674 0090 2946     		mov	r1, r5
 675 0092 3046     		mov	r0, r6
 676 0094 40F22E22 		movw	r2, #558
 677 0098 FFF7FEFF 		bl	_pal_lld_setgroupmode
 678              	.LVL69:
 679              		.loc 1 193 0
 680 009c 0123     		movs	r3, #1
 681              		.loc 1 194 0
 682 009e 2046     		mov	r0, r4
 683 00a0 0749     		ldr	r1, .L29+12
 684              		.loc 1 193 0
ARM GAS  C:\Users\IDONNO~1\AppData\Local\Temp\ccFIblx2.s 			page 13


 685 00a2 2370     		strb	r3, [r4]
 686              		.loc 1 194 0
 687 00a4 FFF7FEFF 		bl	i2cStart
 688              	.LVL70:
 689              		.loc 1 196 0
 690 00a8 2046     		mov	r0, r4
 691              		.loc 1 198 0
 692 00aa BDE8F843 		pop	{r3, r4, r5, r6, r7, r8, r9, lr}
 693              		.cfi_restore 14
 694              		.cfi_restore 9
 695              		.cfi_restore 8
 696              		.cfi_restore 7
 697              		.cfi_restore 6
 698              		.cfi_restore 5
 699              		.cfi_restore 4
 700              		.cfi_restore 3
 701              		.cfi_def_cfa_offset 0
 702              		.loc 1 196 0
 703 00ae FFF7FEBF 		b	i2cReleaseBus
 704              	.LVL71:
 705              	.L30:
 706 00b2 00BF     		.align	2
 707              	.L29:
 708 00b4 00000000 		.word	.LANCHOR0
 709 00b8 00040240 		.word	1073873920
 710 00bc 00000000 		.word	I2CD2
 711 00c0 00000000 		.word	.LANCHOR1
 712              		.cfi_endproc
 713              	.LFE260:
 714              		.size	hw_try_restore_i2c, .-hw_try_restore_i2c
 715              		.section	.bss.i2c_running,"aw",%nobits
 716              		.set	.LANCHOR0,. + 0
 717              		.type	i2c_running, %object
 718              		.size	i2c_running, 1
 719              	i2c_running:
 720 0000 00       		.space	1
 721              		.section	.rodata.i2cfg,"a",%progbits
 722              		.align	2
 723              		.set	.LANCHOR1,. + 0
 724              		.type	i2cfg, %object
 725              		.size	i2cfg, 12
 726              	i2cfg:
 727 0000 01       		.byte	1
 728 0001 000000   		.space	3
 729 0004 A0860100 		.word	100000
 730 0008 01       		.byte	1
 731 0009 000000   		.space	3
 732              		.text
 733              	.Letext0:
 734              		.file 2 "c:\\program files (x86)\\gnu tools arm embedded\\5.2 2015q4\\lib\\gcc\\arm-none-eabi\\5.2
 735              		.file 3 "c:\\program files (x86)\\gnu tools arm embedded\\5.2 2015q4\\arm-none-eabi\\include\\mach
 736              		.file 4 "c:\\program files (x86)\\gnu tools arm embedded\\5.2 2015q4\\arm-none-eabi\\include\\sys\
 737              		.file 5 "lib/ChibiOS_3.0.2/os/rt/ports/ARMCMx/compilers/GCC/chtypes.h"
 738              		.file 6 "lib/ChibiOS_3.0.2/os/rt/include/chsystypes.h"
 739              		.file 7 "lib/ChibiOS_3.0.2/os/rt/include/chschd.h"
 740              		.file 8 "lib/ChibiOS_3.0.2/os/ext/CMSIS/ST/stm32f407xx.h"
 741              		.file 9 "lib/ChibiOS_3.0.2/os/rt/ports/ARMCMx/chcore.h"
ARM GAS  C:\Users\IDONNO~1\AppData\Local\Temp\ccFIblx2.s 			page 14


 742              		.file 10 "lib/ChibiOS_3.0.2/os/rt/ports/ARMCMx/chcore_v7m.h"
 743              		.file 11 "lib/ChibiOS_3.0.2/os/rt/include/chtm.h"
 744              		.file 12 "lib/ChibiOS_3.0.2/os/rt/include/chsem.h"
 745              		.file 13 "lib/ChibiOS_3.0.2/os/rt/include/chmtx.h"
 746              		.file 14 "lib/ChibiOS_3.0.2/os/hal/ports/STM32/STM32F4xx/stm32_dma.h"
 747              		.file 15 "lib/ChibiOS_3.0.2/os/hal/ports/STM32/LLD/GPIOv2/pal_lld.h"
 748              		.file 16 "lib/ChibiOS_3.0.2/os/ext/CMSIS/ST/stm32f4xx.h"
 749              		.file 17 "lib/ChibiOS_3.0.2/os/hal/include/i2c.h"
 750              		.file 18 "lib/ChibiOS_3.0.2/os/hal/ports/STM32/LLD/I2Cv1/i2c_lld.h"
 751              		.file 19 "lib/ChibiOS_3.0.2/os/ext/CMSIS/include/core_cm4.h"
 752              		.file 20 "lib/ChibiOS_3.0.2/ext/stdperiph_stm32f4/inc/stm32f4xx_rcc.h"
 753              		.file 21 "lib/ChibiOS_3.0.2/ext/stdperiph_stm32f4/inc/stm32f4xx_adc.h"
 754              		.file 22 "lib/ChibiOS_3.0.2/os/rt/include/chthreads.h"
 755              		.section	.debug_info,"",%progbits
 756              	.Ldebug_info0:
 757 0000 08150000 		.4byte	0x1508
 758 0004 0400     		.2byte	0x4
 759 0006 00000000 		.4byte	.Ldebug_abbrev0
 760 000a 04       		.byte	0x4
 761 000b 01       		.uleb128 0x1
 762 000c 96060000 		.4byte	.LASF200
 763 0010 0C       		.byte	0xc
 764 0011 53060000 		.4byte	.LASF201
 765 0015 94000000 		.4byte	.LASF202
 766 0019 18000000 		.4byte	.Ldebug_ranges0+0x18
 767 001d 00000000 		.4byte	0
 768 0021 00000000 		.4byte	.Ldebug_line0
 769 0025 02       		.uleb128 0x2
 770 0026 04       		.byte	0x4
 771 0027 05       		.byte	0x5
 772 0028 696E7400 		.ascii	"int\000"
 773 002c 03       		.uleb128 0x3
 774 002d 2F000000 		.4byte	.LASF2
 775 0031 02       		.byte	0x2
 776 0032 D8       		.byte	0xd8
 777 0033 37000000 		.4byte	0x37
 778 0037 04       		.uleb128 0x4
 779 0038 04       		.byte	0x4
 780 0039 07       		.byte	0x7
 781 003a 64020000 		.4byte	.LASF0
 782 003e 04       		.uleb128 0x4
 783 003f 01       		.byte	0x1
 784 0040 06       		.byte	0x6
 785 0041 62010000 		.4byte	.LASF1
 786 0045 03       		.uleb128 0x3
 787 0046 4D000000 		.4byte	.LASF3
 788 004a 03       		.byte	0x3
 789 004b 1D       		.byte	0x1d
 790 004c 50000000 		.4byte	0x50
 791 0050 04       		.uleb128 0x4
 792 0051 01       		.byte	0x1
 793 0052 08       		.byte	0x8
 794 0053 51050000 		.4byte	.LASF4
 795 0057 04       		.uleb128 0x4
 796 0058 02       		.byte	0x2
 797 0059 05       		.byte	0x5
 798 005a 5F030000 		.4byte	.LASF5
ARM GAS  C:\Users\IDONNO~1\AppData\Local\Temp\ccFIblx2.s 			page 15


 799 005e 03       		.uleb128 0x3
 800 005f 82060000 		.4byte	.LASF6
 801 0063 03       		.byte	0x3
 802 0064 2B       		.byte	0x2b
 803 0065 69000000 		.4byte	0x69
 804 0069 04       		.uleb128 0x4
 805 006a 02       		.byte	0x2
 806 006b 07       		.byte	0x7
 807 006c DD020000 		.4byte	.LASF7
 808 0070 03       		.uleb128 0x3
 809 0071 69030000 		.4byte	.LASF8
 810 0075 03       		.byte	0x3
 811 0076 3F       		.byte	0x3f
 812 0077 7B000000 		.4byte	0x7b
 813 007b 04       		.uleb128 0x4
 814 007c 04       		.byte	0x4
 815 007d 05       		.byte	0x5
 816 007e B8010000 		.4byte	.LASF9
 817 0082 03       		.uleb128 0x3
 818 0083 D8070000 		.4byte	.LASF10
 819 0087 03       		.byte	0x3
 820 0088 41       		.byte	0x41
 821 0089 8D000000 		.4byte	0x8d
 822 008d 04       		.uleb128 0x4
 823 008e 04       		.byte	0x4
 824 008f 07       		.byte	0x7
 825 0090 3C060000 		.4byte	.LASF11
 826 0094 04       		.uleb128 0x4
 827 0095 08       		.byte	0x8
 828 0096 05       		.byte	0x5
 829 0097 54010000 		.4byte	.LASF12
 830 009b 03       		.uleb128 0x3
 831 009c 8E040000 		.4byte	.LASF13
 832 00a0 03       		.byte	0x3
 833 00a1 5B       		.byte	0x5b
 834 00a2 A6000000 		.4byte	0xa6
 835 00a6 04       		.uleb128 0x4
 836 00a7 08       		.byte	0x8
 837 00a8 07       		.byte	0x7
 838 00a9 B8000000 		.4byte	.LASF14
 839 00ad 03       		.uleb128 0x3
 840 00ae B2080000 		.4byte	.LASF15
 841 00b2 04       		.byte	0x4
 842 00b3 14       		.byte	0x14
 843 00b4 45000000 		.4byte	0x45
 844 00b8 03       		.uleb128 0x3
 845 00b9 79020000 		.4byte	.LASF16
 846 00bd 04       		.byte	0x4
 847 00be 1A       		.byte	0x1a
 848 00bf 5E000000 		.4byte	0x5e
 849 00c3 03       		.uleb128 0x3
 850 00c4 49050000 		.4byte	.LASF17
 851 00c8 04       		.byte	0x4
 852 00c9 1F       		.byte	0x1f
 853 00ca 70000000 		.4byte	0x70
 854 00ce 03       		.uleb128 0x3
 855 00cf 00060000 		.4byte	.LASF18
ARM GAS  C:\Users\IDONNO~1\AppData\Local\Temp\ccFIblx2.s 			page 16


 856 00d3 04       		.byte	0x4
 857 00d4 20       		.byte	0x20
 858 00d5 82000000 		.4byte	0x82
 859 00d9 03       		.uleb128 0x3
 860 00da 3D000000 		.4byte	.LASF19
 861 00de 04       		.byte	0x4
 862 00df 26       		.byte	0x26
 863 00e0 9B000000 		.4byte	0x9b
 864 00e4 05       		.uleb128 0x5
 865 00e5 C3000000 		.4byte	0xc3
 866 00e9 05       		.uleb128 0x5
 867 00ea CE000000 		.4byte	0xce
 868 00ee 03       		.uleb128 0x3
 869 00ef 58080000 		.4byte	.LASF20
 870 00f3 05       		.byte	0x5
 871 00f4 45       		.byte	0x45
 872 00f5 CE000000 		.4byte	0xce
 873 00f9 03       		.uleb128 0x3
 874 00fa 2E030000 		.4byte	.LASF21
 875 00fe 05       		.byte	0x5
 876 00ff 48       		.byte	0x48
 877 0100 AD000000 		.4byte	0xad
 878 0104 03       		.uleb128 0x3
 879 0105 C8010000 		.4byte	.LASF22
 880 0109 05       		.byte	0x5
 881 010a 49       		.byte	0x49
 882 010b AD000000 		.4byte	0xad
 883 010f 03       		.uleb128 0x3
 884 0110 15000000 		.4byte	.LASF23
 885 0114 05       		.byte	0x5
 886 0115 4A       		.byte	0x4a
 887 0116 AD000000 		.4byte	0xad
 888 011a 03       		.uleb128 0x3
 889 011b 94010000 		.4byte	.LASF24
 890 011f 05       		.byte	0x5
 891 0120 4B       		.byte	0x4b
 892 0121 AD000000 		.4byte	0xad
 893 0125 03       		.uleb128 0x3
 894 0126 0C050000 		.4byte	.LASF25
 895 012a 05       		.byte	0x5
 896 012b 4C       		.byte	0x4c
 897 012c CE000000 		.4byte	0xce
 898 0130 03       		.uleb128 0x3
 899 0131 0F030000 		.4byte	.LASF26
 900 0135 05       		.byte	0x5
 901 0136 4D       		.byte	0x4d
 902 0137 C3000000 		.4byte	0xc3
 903 013b 03       		.uleb128 0x3
 904 013c 53030000 		.4byte	.LASF27
 905 0140 05       		.byte	0x5
 906 0141 4F       		.byte	0x4f
 907 0142 CE000000 		.4byte	0xce
 908 0146 03       		.uleb128 0x3
 909 0147 51020000 		.4byte	.LASF28
 910 014b 05       		.byte	0x5
 911 014c 51       		.byte	0x51
 912 014d C3000000 		.4byte	0xc3
ARM GAS  C:\Users\IDONNO~1\AppData\Local\Temp\ccFIblx2.s 			page 17


 913 0151 03       		.uleb128 0x3
 914 0152 BA070000 		.4byte	.LASF29
 915 0156 06       		.byte	0x6
 916 0157 33       		.byte	0x33
 917 0158 CE000000 		.4byte	0xce
 918 015c 03       		.uleb128 0x3
 919 015d 8D060000 		.4byte	.LASF30
 920 0161 06       		.byte	0x6
 921 0162 3F       		.byte	0x3f
 922 0163 67010000 		.4byte	0x167
 923 0167 06       		.uleb128 0x6
 924 0168 FA020000 		.4byte	.LASF52
 925 016c 48       		.byte	0x48
 926 016d 07       		.byte	0x7
 927 016e C2       		.byte	0xc2
 928 016f 6C020000 		.4byte	0x26c
 929 0173 07       		.uleb128 0x7
 930 0174 9A050000 		.4byte	.LASF31
 931 0178 07       		.byte	0x7
 932 0179 C3       		.byte	0xc3
 933 017a 77020000 		.4byte	0x277
 934 017e 00       		.byte	0
 935 017f 07       		.uleb128 0x7
 936 0180 E4040000 		.4byte	.LASF32
 937 0184 07       		.byte	0x7
 938 0185 C5       		.byte	0xc5
 939 0186 77020000 		.4byte	0x277
 940 018a 04       		.byte	0x4
 941 018b 07       		.uleb128 0x7
 942 018c 43010000 		.4byte	.LASF33
 943 0190 07       		.byte	0x7
 944 0191 C7       		.byte	0xc7
 945 0192 25010000 		.4byte	0x125
 946 0196 08       		.byte	0x8
 947 0197 07       		.uleb128 0x7
 948 0198 18090000 		.4byte	.LASF34
 949 019c 07       		.byte	0x7
 950 019d C8       		.byte	0xc8
 951 019e BC060000 		.4byte	0x6bc
 952 01a2 0C       		.byte	0xc
 953 01a3 07       		.uleb128 0x7
 954 01a4 D1010000 		.4byte	.LASF35
 955 01a8 07       		.byte	0x7
 956 01a9 CA       		.byte	0xca
 957 01aa 77020000 		.4byte	0x277
 958 01ae 10       		.byte	0x10
 959 01af 07       		.uleb128 0x7
 960 01b0 2F040000 		.4byte	.LASF36
 961 01b4 07       		.byte	0x7
 962 01b5 CB       		.byte	0xcb
 963 01b6 77020000 		.4byte	0x277
 964 01ba 14       		.byte	0x14
 965 01bb 07       		.uleb128 0x7
 966 01bc DA080000 		.4byte	.LASF37
 967 01c0 07       		.byte	0x7
 968 01c1 D2       		.byte	0xd2
 969 01c2 01090000 		.4byte	0x901
ARM GAS  C:\Users\IDONNO~1\AppData\Local\Temp\ccFIblx2.s 			page 18


 970 01c6 18       		.byte	0x18
 971 01c7 07       		.uleb128 0x7
 972 01c8 7A050000 		.4byte	.LASF38
 973 01cc 07       		.byte	0x7
 974 01cd DD       		.byte	0xdd
 975 01ce 04010000 		.4byte	0x104
 976 01d2 1C       		.byte	0x1c
 977 01d3 07       		.uleb128 0x7
 978 01d4 A1050000 		.4byte	.LASF39
 979 01d8 07       		.byte	0x7
 980 01d9 E1       		.byte	0xe1
 981 01da F9000000 		.4byte	0xf9
 982 01de 1D       		.byte	0x1d
 983 01df 07       		.uleb128 0x7
 984 01e0 99080000 		.4byte	.LASF40
 985 01e4 07       		.byte	0x7
 986 01e5 E6       		.byte	0xe6
 987 01e6 0F010000 		.4byte	0x10f
 988 01ea 1E       		.byte	0x1e
 989 01eb 07       		.uleb128 0x7
 990 01ec 82050000 		.4byte	.LASF41
 991 01f0 07       		.byte	0x7
 992 01f1 EC       		.byte	0xec
 993 01f2 1A010000 		.4byte	0x11a
 994 01f6 1F       		.byte	0x1f
 995 01f7 07       		.uleb128 0x7
 996 01f8 82020000 		.4byte	.LASF42
 997 01fc 07       		.byte	0x7
 998 01fd F3       		.byte	0xf3
 999 01fe 13090000 		.4byte	0x913
 1000 0202 20       		.byte	0x20
 1001 0203 08       		.uleb128 0x8
 1002 0204 705F7500 		.ascii	"p_u\000"
 1003 0208 07       		.byte	0x7
 1004 0209 3101     		.2byte	0x131
 1005 020b 3C080000 		.4byte	0x83c
 1006 020f 24       		.byte	0x24
 1007 0210 09       		.uleb128 0x9
 1008 0211 A5030000 		.4byte	.LASF43
 1009 0215 07       		.byte	0x7
 1010 0216 3601     		.2byte	0x136
 1011 0218 7D020000 		.4byte	0x27d
 1012 021c 28       		.byte	0x28
 1013 021d 09       		.uleb128 0x9
 1014 021e A0020000 		.4byte	.LASF44
 1015 0222 07       		.byte	0x7
 1016 0223 3C01     		.2byte	0x13c
 1017 0225 A1020000 		.4byte	0x2a1
 1018 0229 2C       		.byte	0x2c
 1019 022a 09       		.uleb128 0x9
 1020 022b F2080000 		.4byte	.LASF45
 1021 022f 07       		.byte	0x7
 1022 0230 4001     		.2byte	0x140
 1023 0232 30010000 		.4byte	0x130
 1024 0236 34       		.byte	0x34
 1025 0237 09       		.uleb128 0x9
 1026 0238 EA050000 		.4byte	.LASF46
ARM GAS  C:\Users\IDONNO~1\AppData\Local\Temp\ccFIblx2.s 			page 19


 1027 023c 07       		.byte	0x7
 1028 023d 4601     		.2byte	0x146
 1029 023f 3B010000 		.4byte	0x13b
 1030 0243 38       		.byte	0x38
 1031 0244 09       		.uleb128 0x9
 1032 0245 65050000 		.4byte	.LASF47
 1033 0249 07       		.byte	0x7
 1034 024a 4D01     		.2byte	0x14d
 1035 024c FB080000 		.4byte	0x8fb
 1036 0250 3C       		.byte	0x3c
 1037 0251 09       		.uleb128 0x9
 1038 0252 C4070000 		.4byte	.LASF48
 1039 0256 07       		.byte	0x7
 1040 0257 5101     		.2byte	0x151
 1041 0259 25010000 		.4byte	0x125
 1042 025d 40       		.byte	0x40
 1043 025e 09       		.uleb128 0x9
 1044 025f 78010000 		.4byte	.LASF49
 1045 0263 07       		.byte	0x7
 1046 0264 5801     		.2byte	0x158
 1047 0266 54030000 		.4byte	0x354
 1048 026a 44       		.byte	0x44
 1049 026b 00       		.byte	0
 1050 026c 03       		.uleb128 0x3
 1051 026d C1030000 		.4byte	.LASF50
 1052 0271 06       		.byte	0x6
 1053 0272 44       		.byte	0x44
 1054 0273 77020000 		.4byte	0x277
 1055 0277 0A       		.uleb128 0xa
 1056 0278 04       		.byte	0x4
 1057 0279 5C010000 		.4byte	0x15c
 1058 027d 03       		.uleb128 0x3
 1059 027e 7E030000 		.4byte	.LASF51
 1060 0282 06       		.byte	0x6
 1061 0283 49       		.byte	0x49
 1062 0284 88020000 		.4byte	0x288
 1063 0288 06       		.uleb128 0x6
 1064 0289 18060000 		.4byte	.LASF53
 1065 028d 04       		.byte	0x4
 1066 028e 07       		.byte	0x7
 1067 028f B0       		.byte	0xb0
 1068 0290 A1020000 		.4byte	0x2a1
 1069 0294 07       		.uleb128 0x7
 1070 0295 9A050000 		.4byte	.LASF31
 1071 0299 07       		.byte	0x7
 1072 029a B1       		.byte	0xb1
 1073 029b 77020000 		.4byte	0x277
 1074 029f 00       		.byte	0
 1075 02a0 00       		.byte	0
 1076 02a1 03       		.uleb128 0x3
 1077 02a2 80080000 		.4byte	.LASF54
 1078 02a6 06       		.byte	0x6
 1079 02a7 50       		.byte	0x50
 1080 02a8 AC020000 		.4byte	0x2ac
 1081 02ac 06       		.uleb128 0x6
 1082 02ad 32010000 		.4byte	.LASF55
 1083 02b1 08       		.byte	0x8
ARM GAS  C:\Users\IDONNO~1\AppData\Local\Temp\ccFIblx2.s 			page 20


 1084 02b2 07       		.byte	0x7
 1085 02b3 B7       		.byte	0xb7
 1086 02b4 D1020000 		.4byte	0x2d1
 1087 02b8 07       		.uleb128 0x7
 1088 02b9 9A050000 		.4byte	.LASF31
 1089 02bd 07       		.byte	0x7
 1090 02be B8       		.byte	0xb8
 1091 02bf 77020000 		.4byte	0x277
 1092 02c3 00       		.byte	0
 1093 02c4 07       		.uleb128 0x7
 1094 02c5 E4040000 		.4byte	.LASF32
 1095 02c9 07       		.byte	0x7
 1096 02ca B9       		.byte	0xb9
 1097 02cb 77020000 		.4byte	0x277
 1098 02cf 04       		.byte	0x4
 1099 02d0 00       		.byte	0
 1100 02d1 03       		.uleb128 0x3
 1101 02d2 1D000000 		.4byte	.LASF56
 1102 02d6 06       		.byte	0x6
 1103 02d7 57       		.byte	0x57
 1104 02d8 DC020000 		.4byte	0x2dc
 1105 02dc 0B       		.uleb128 0xb
 1106 02dd 45030000 		.4byte	.LASF57
 1107 02e1 1C       		.byte	0x1c
 1108 02e2 07       		.byte	0x7
 1109 02e3 9001     		.2byte	0x190
 1110 02e5 38030000 		.4byte	0x338
 1111 02e9 09       		.uleb128 0x9
 1112 02ea 10060000 		.4byte	.LASF58
 1113 02ee 07       		.byte	0x7
 1114 02ef 9101     		.2byte	0x191
 1115 02f1 A1020000 		.4byte	0x2a1
 1116 02f5 00       		.byte	0
 1117 02f6 09       		.uleb128 0x9
 1118 02f7 8C050000 		.4byte	.LASF59
 1119 02fb 07       		.byte	0x7
 1120 02fc 9201     		.2byte	0x192
 1121 02fe 25010000 		.4byte	0x125
 1122 0302 08       		.byte	0x8
 1123 0303 09       		.uleb128 0x9
 1124 0304 3F040000 		.4byte	.LASF60
 1125 0308 07       		.byte	0x7
 1126 0309 9401     		.2byte	0x194
 1127 030b BC060000 		.4byte	0x6bc
 1128 030f 0C       		.byte	0xc
 1129 0310 09       		.uleb128 0x9
 1130 0311 0C020000 		.4byte	.LASF61
 1131 0315 07       		.byte	0x7
 1132 0316 9701     		.2byte	0x197
 1133 0318 77020000 		.4byte	0x277
 1134 031c 10       		.byte	0x10
 1135 031d 09       		.uleb128 0x9
 1136 031e 77040000 		.4byte	.LASF62
 1137 0322 07       		.byte	0x7
 1138 0323 9801     		.2byte	0x198
 1139 0325 77020000 		.4byte	0x277
 1140 0329 14       		.byte	0x14
ARM GAS  C:\Users\IDONNO~1\AppData\Local\Temp\ccFIblx2.s 			page 21


 1141 032a 09       		.uleb128 0x9
 1142 032b 6D040000 		.4byte	.LASF63
 1143 032f 07       		.byte	0x7
 1144 0330 9B01     		.2byte	0x19b
 1145 0332 77020000 		.4byte	0x277
 1146 0336 18       		.byte	0x18
 1147 0337 00       		.byte	0
 1148 0338 03       		.uleb128 0x3
 1149 0339 CF070000 		.4byte	.LASF64
 1150 033d 06       		.byte	0x6
 1151 033e 5C       		.byte	0x5c
 1152 033f 43030000 		.4byte	0x343
 1153 0343 0A       		.uleb128 0xa
 1154 0344 04       		.byte	0x4
 1155 0345 49030000 		.4byte	0x349
 1156 0349 0C       		.uleb128 0xc
 1157 034a 54030000 		.4byte	0x354
 1158 034e 0D       		.uleb128 0xd
 1159 034f 54030000 		.4byte	0x354
 1160 0353 00       		.byte	0
 1161 0354 0E       		.uleb128 0xe
 1162 0355 04       		.byte	0x4
 1163 0356 03       		.uleb128 0x3
 1164 0357 D4040000 		.4byte	.LASF65
 1165 035b 06       		.byte	0x6
 1166 035c 61       		.byte	0x61
 1167 035d 61030000 		.4byte	0x361
 1168 0361 0B       		.uleb128 0xb
 1169 0362 47080000 		.4byte	.LASF66
 1170 0366 14       		.byte	0x14
 1171 0367 07       		.byte	0x7
 1172 0368 6B01     		.2byte	0x16b
 1173 036a B0030000 		.4byte	0x3b0
 1174 036e 09       		.uleb128 0x9
 1175 036f 71020000 		.4byte	.LASF67
 1176 0373 07       		.byte	0x7
 1177 0374 6C01     		.2byte	0x16c
 1178 0376 18090000 		.4byte	0x918
 1179 037a 00       		.byte	0
 1180 037b 09       		.uleb128 0x9
 1181 037c 1D020000 		.4byte	.LASF68
 1182 0380 07       		.byte	0x7
 1183 0381 6D01     		.2byte	0x16d
 1184 0383 18090000 		.4byte	0x918
 1185 0387 04       		.byte	0x4
 1186 0388 09       		.uleb128 0x9
 1187 0389 97020000 		.4byte	.LASF69
 1188 038d 07       		.byte	0x7
 1189 038e 6E01     		.2byte	0x16e
 1190 0390 51010000 		.4byte	0x151
 1191 0394 08       		.byte	0x8
 1192 0395 09       		.uleb128 0x9
 1193 0396 1E090000 		.4byte	.LASF70
 1194 039a 07       		.byte	0x7
 1195 039b 6F01     		.2byte	0x16f
 1196 039d 38030000 		.4byte	0x338
 1197 03a1 0C       		.byte	0xc
ARM GAS  C:\Users\IDONNO~1\AppData\Local\Temp\ccFIblx2.s 			page 22


 1198 03a2 09       		.uleb128 0x9
 1199 03a3 6F080000 		.4byte	.LASF71
 1200 03a7 07       		.byte	0x7
 1201 03a8 7101     		.2byte	0x171
 1202 03aa 54030000 		.4byte	0x354
 1203 03ae 10       		.byte	0x10
 1204 03af 00       		.byte	0
 1205 03b0 03       		.uleb128 0x3
 1206 03b1 02010000 		.4byte	.LASF72
 1207 03b5 06       		.byte	0x6
 1208 03b6 66       		.byte	0x66
 1209 03b7 BB030000 		.4byte	0x3bb
 1210 03bb 0B       		.uleb128 0xb
 1211 03bc D4030000 		.4byte	.LASF73
 1212 03c0 10       		.byte	0x10
 1213 03c1 07       		.byte	0x7
 1214 03c2 7B01     		.2byte	0x17b
 1215 03c4 FD030000 		.4byte	0x3fd
 1216 03c8 09       		.uleb128 0x9
 1217 03c9 71020000 		.4byte	.LASF67
 1218 03cd 07       		.byte	0x7
 1219 03ce 7C01     		.2byte	0x17c
 1220 03d0 18090000 		.4byte	0x918
 1221 03d4 00       		.byte	0
 1222 03d5 09       		.uleb128 0x9
 1223 03d6 1D020000 		.4byte	.LASF68
 1224 03da 07       		.byte	0x7
 1225 03db 7E01     		.2byte	0x17e
 1226 03dd 18090000 		.4byte	0x918
 1227 03e1 04       		.byte	0x4
 1228 03e2 09       		.uleb128 0x9
 1229 03e3 97020000 		.4byte	.LASF69
 1230 03e7 07       		.byte	0x7
 1231 03e8 8001     		.2byte	0x180
 1232 03ea 51010000 		.4byte	0x151
 1233 03ee 08       		.byte	0x8
 1234 03ef 09       		.uleb128 0x9
 1235 03f0 E7080000 		.4byte	.LASF74
 1236 03f4 07       		.byte	0x7
 1237 03f5 8201     		.2byte	0x182
 1238 03f7 13090000 		.4byte	0x913
 1239 03fb 0C       		.byte	0xc
 1240 03fc 00       		.byte	0
 1241 03fd 03       		.uleb128 0x3
 1242 03fe 6A000000 		.4byte	.LASF75
 1243 0402 06       		.byte	0x6
 1244 0403 6B       		.byte	0x6b
 1245 0404 08040000 		.4byte	0x408
 1246 0408 0B       		.uleb128 0xb
 1247 0409 33050000 		.4byte	.LASF76
 1248 040d 04       		.byte	0x4
 1249 040e 07       		.byte	0x7
 1250 040f A201     		.2byte	0x1a2
 1251 0411 23040000 		.4byte	0x423
 1252 0415 09       		.uleb128 0x9
 1253 0416 EF070000 		.4byte	.LASF77
 1254 041a 07       		.byte	0x7
ARM GAS  C:\Users\IDONNO~1\AppData\Local\Temp\ccFIblx2.s 			page 23


 1255 041b AA01     		.2byte	0x1aa
 1256 041d 1E090000 		.4byte	0x91e
 1257 0421 00       		.byte	0
 1258 0422 00       		.byte	0
 1259 0423 03       		.uleb128 0x3
 1260 0424 3B080000 		.4byte	.LASF78
 1261 0428 06       		.byte	0x6
 1262 0429 70       		.byte	0x70
 1263 042a 2E040000 		.4byte	0x42e
 1264 042e 0F       		.uleb128 0xf
 1265 042f AE010000 		.4byte	.LASF79
 1266 0433 5802     		.2byte	0x258
 1267 0435 07       		.byte	0x7
 1268 0436 C201     		.2byte	0x1c2
 1269 0438 8A040000 		.4byte	0x48a
 1270 043c 09       		.uleb128 0x9
 1271 043d AC080000 		.4byte	.LASF80
 1272 0441 07       		.byte	0x7
 1273 0442 C601     		.2byte	0x1c6
 1274 0444 D1020000 		.4byte	0x2d1
 1275 0448 00       		.byte	0
 1276 0449 09       		.uleb128 0x9
 1277 044a 8D010000 		.4byte	.LASF81
 1278 044e 07       		.byte	0x7
 1279 044f CA01     		.2byte	0x1ca
 1280 0451 B0030000 		.4byte	0x3b0
 1281 0455 1C       		.byte	0x1c
 1282 0456 08       		.uleb128 0x8
 1283 0457 64626700 		.ascii	"dbg\000"
 1284 045b 07       		.byte	0x7
 1285 045c CE01     		.2byte	0x1ce
 1286 045e FD030000 		.4byte	0x3fd
 1287 0462 2C       		.byte	0x2c
 1288 0463 09       		.uleb128 0x9
 1289 0464 04030000 		.4byte	.LASF82
 1290 0468 07       		.byte	0x7
 1291 0469 D201     		.2byte	0x1d2
 1292 046b 5C010000 		.4byte	0x15c
 1293 046f 30       		.byte	0x30
 1294 0470 08       		.uleb128 0x8
 1295 0471 746D00   		.ascii	"tm\000"
 1296 0474 07       		.byte	0x7
 1297 0475 D701     		.2byte	0x1d7
 1298 0477 31080000 		.4byte	0x831
 1299 047b 78       		.byte	0x78
 1300 047c 09       		.uleb128 0x9
 1301 047d 42020000 		.4byte	.LASF83
 1302 0481 07       		.byte	0x7
 1303 0482 E301     		.2byte	0x1e3
 1304 0484 23090000 		.4byte	0x923
 1305 0488 80       		.byte	0x80
 1306 0489 00       		.byte	0
 1307 048a 04       		.uleb128 0x4
 1308 048b 04       		.byte	0x4
 1309 048c 07       		.byte	0x7
 1310 048d B8030000 		.4byte	.LASF84
 1311 0491 10       		.uleb128 0x10
ARM GAS  C:\Users\IDONNO~1\AppData\Local\Temp\ccFIblx2.s 			page 24


 1312 0492 50       		.byte	0x50
 1313 0493 08       		.byte	0x8
 1314 0494 C4       		.byte	0xc4
 1315 0495 88050000 		.4byte	0x588
 1316 0499 11       		.uleb128 0x11
 1317 049a 535200   		.ascii	"SR\000"
 1318 049d 08       		.byte	0x8
 1319 049e C6       		.byte	0xc6
 1320 049f E9000000 		.4byte	0xe9
 1321 04a3 00       		.byte	0
 1322 04a4 11       		.uleb128 0x11
 1323 04a5 43523100 		.ascii	"CR1\000"
 1324 04a9 08       		.byte	0x8
 1325 04aa C7       		.byte	0xc7
 1326 04ab E9000000 		.4byte	0xe9
 1327 04af 04       		.byte	0x4
 1328 04b0 11       		.uleb128 0x11
 1329 04b1 43523200 		.ascii	"CR2\000"
 1330 04b5 08       		.byte	0x8
 1331 04b6 C8       		.byte	0xc8
 1332 04b7 E9000000 		.4byte	0xe9
 1333 04bb 08       		.byte	0x8
 1334 04bc 07       		.uleb128 0x7
 1335 04bd 4F040000 		.4byte	.LASF85
 1336 04c1 08       		.byte	0x8
 1337 04c2 C9       		.byte	0xc9
 1338 04c3 E9000000 		.4byte	0xe9
 1339 04c7 0C       		.byte	0xc
 1340 04c8 07       		.uleb128 0x7
 1341 04c9 55040000 		.4byte	.LASF86
 1342 04cd 08       		.byte	0x8
 1343 04ce CA       		.byte	0xca
 1344 04cf E9000000 		.4byte	0xe9
 1345 04d3 10       		.byte	0x10
 1346 04d4 07       		.uleb128 0x7
 1347 04d5 8D030000 		.4byte	.LASF87
 1348 04d9 08       		.byte	0x8
 1349 04da CB       		.byte	0xcb
 1350 04db E9000000 		.4byte	0xe9
 1351 04df 14       		.byte	0x14
 1352 04e0 07       		.uleb128 0x7
 1353 04e1 93030000 		.4byte	.LASF88
 1354 04e5 08       		.byte	0x8
 1355 04e6 CC       		.byte	0xcc
 1356 04e7 E9000000 		.4byte	0xe9
 1357 04eb 18       		.byte	0x18
 1358 04ec 07       		.uleb128 0x7
 1359 04ed 99030000 		.4byte	.LASF89
 1360 04f1 08       		.byte	0x8
 1361 04f2 CD       		.byte	0xcd
 1362 04f3 E9000000 		.4byte	0xe9
 1363 04f7 1C       		.byte	0x1c
 1364 04f8 07       		.uleb128 0x7
 1365 04f9 9F030000 		.4byte	.LASF90
 1366 04fd 08       		.byte	0x8
 1367 04fe CE       		.byte	0xce
 1368 04ff E9000000 		.4byte	0xe9
ARM GAS  C:\Users\IDONNO~1\AppData\Local\Temp\ccFIblx2.s 			page 25


 1369 0503 20       		.byte	0x20
 1370 0504 11       		.uleb128 0x11
 1371 0505 48545200 		.ascii	"HTR\000"
 1372 0509 08       		.byte	0x8
 1373 050a CF       		.byte	0xcf
 1374 050b E9000000 		.4byte	0xe9
 1375 050f 24       		.byte	0x24
 1376 0510 11       		.uleb128 0x11
 1377 0511 4C545200 		.ascii	"LTR\000"
 1378 0515 08       		.byte	0x8
 1379 0516 D0       		.byte	0xd0
 1380 0517 E9000000 		.4byte	0xe9
 1381 051b 28       		.byte	0x28
 1382 051c 07       		.uleb128 0x7
 1383 051d 7F040000 		.4byte	.LASF91
 1384 0521 08       		.byte	0x8
 1385 0522 D1       		.byte	0xd1
 1386 0523 E9000000 		.4byte	0xe9
 1387 0527 2C       		.byte	0x2c
 1388 0528 07       		.uleb128 0x7
 1389 0529 84040000 		.4byte	.LASF92
 1390 052d 08       		.byte	0x8
 1391 052e D2       		.byte	0xd2
 1392 052f E9000000 		.4byte	0xe9
 1393 0533 30       		.byte	0x30
 1394 0534 07       		.uleb128 0x7
 1395 0535 89040000 		.4byte	.LASF93
 1396 0539 08       		.byte	0x8
 1397 053a D3       		.byte	0xd3
 1398 053b E9000000 		.4byte	0xe9
 1399 053f 34       		.byte	0x34
 1400 0540 07       		.uleb128 0x7
 1401 0541 4F010000 		.4byte	.LASF94
 1402 0545 08       		.byte	0x8
 1403 0546 D4       		.byte	0xd4
 1404 0547 E9000000 		.4byte	0xe9
 1405 054b 38       		.byte	0x38
 1406 054c 07       		.uleb128 0x7
 1407 054d 73010000 		.4byte	.LASF95
 1408 0551 08       		.byte	0x8
 1409 0552 D5       		.byte	0xd5
 1410 0553 E9000000 		.4byte	0xe9
 1411 0557 3C       		.byte	0x3c
 1412 0558 07       		.uleb128 0x7
 1413 0559 C4080000 		.4byte	.LASF96
 1414 055d 08       		.byte	0x8
 1415 055e D6       		.byte	0xd6
 1416 055f E9000000 		.4byte	0xe9
 1417 0563 40       		.byte	0x40
 1418 0564 07       		.uleb128 0x7
 1419 0565 C9080000 		.4byte	.LASF97
 1420 0569 08       		.byte	0x8
 1421 056a D7       		.byte	0xd7
 1422 056b E9000000 		.4byte	0xe9
 1423 056f 44       		.byte	0x44
 1424 0570 07       		.uleb128 0x7
 1425 0571 CE080000 		.4byte	.LASF98
ARM GAS  C:\Users\IDONNO~1\AppData\Local\Temp\ccFIblx2.s 			page 26


 1426 0575 08       		.byte	0x8
 1427 0576 D8       		.byte	0xd8
 1428 0577 E9000000 		.4byte	0xe9
 1429 057b 48       		.byte	0x48
 1430 057c 11       		.uleb128 0x11
 1431 057d 445200   		.ascii	"DR\000"
 1432 0580 08       		.byte	0x8
 1433 0581 D9       		.byte	0xd9
 1434 0582 E9000000 		.4byte	0xe9
 1435 0586 4C       		.byte	0x4c
 1436 0587 00       		.byte	0
 1437 0588 03       		.uleb128 0x3
 1438 0589 EB030000 		.4byte	.LASF99
 1439 058d 08       		.byte	0x8
 1440 058e DA       		.byte	0xda
 1441 058f 91040000 		.4byte	0x491
 1442 0593 12       		.uleb128 0x12
 1443 0594 18       		.byte	0x18
 1444 0595 08       		.byte	0x8
 1445 0596 6B01     		.2byte	0x16b
 1446 0598 EA050000 		.4byte	0x5ea
 1447 059c 08       		.uleb128 0x8
 1448 059d 435200   		.ascii	"CR\000"
 1449 05a0 08       		.byte	0x8
 1450 05a1 6D01     		.2byte	0x16d
 1451 05a3 E9000000 		.4byte	0xe9
 1452 05a7 00       		.byte	0
 1453 05a8 09       		.uleb128 0x9
 1454 05a9 EA070000 		.4byte	.LASF100
 1455 05ad 08       		.byte	0x8
 1456 05ae 6E01     		.2byte	0x16e
 1457 05b0 E9000000 		.4byte	0xe9
 1458 05b4 04       		.byte	0x4
 1459 05b5 08       		.uleb128 0x8
 1460 05b6 50415200 		.ascii	"PAR\000"
 1461 05ba 08       		.byte	0x8
 1462 05bb 6F01     		.2byte	0x16f
 1463 05bd E9000000 		.4byte	0xe9
 1464 05c1 08       		.byte	0x8
 1465 05c2 09       		.uleb128 0x9
 1466 05c3 2A000000 		.4byte	.LASF101
 1467 05c7 08       		.byte	0x8
 1468 05c8 7001     		.2byte	0x170
 1469 05ca E9000000 		.4byte	0xe9
 1470 05ce 0C       		.byte	0xc
 1471 05cf 09       		.uleb128 0x9
 1472 05d0 60080000 		.4byte	.LASF102
 1473 05d4 08       		.byte	0x8
 1474 05d5 7101     		.2byte	0x171
 1475 05d7 E9000000 		.4byte	0xe9
 1476 05db 10       		.byte	0x10
 1477 05dc 08       		.uleb128 0x8
 1478 05dd 46435200 		.ascii	"FCR\000"
 1479 05e1 08       		.byte	0x8
 1480 05e2 7201     		.2byte	0x172
 1481 05e4 E9000000 		.4byte	0xe9
 1482 05e8 14       		.byte	0x14
ARM GAS  C:\Users\IDONNO~1\AppData\Local\Temp\ccFIblx2.s 			page 27


 1483 05e9 00       		.byte	0
 1484 05ea 13       		.uleb128 0x13
 1485 05eb 0A080000 		.4byte	.LASF103
 1486 05ef 08       		.byte	0x8
 1487 05f0 7301     		.2byte	0x173
 1488 05f2 93050000 		.4byte	0x593
 1489 05f6 12       		.uleb128 0x12
 1490 05f7 28       		.byte	0x28
 1491 05f8 08       		.byte	0x8
 1492 05f9 3F02     		.2byte	0x23f
 1493 05fb 81060000 		.4byte	0x681
 1494 05ff 08       		.uleb128 0x8
 1495 0600 43523100 		.ascii	"CR1\000"
 1496 0604 08       		.byte	0x8
 1497 0605 4102     		.2byte	0x241
 1498 0607 E9000000 		.4byte	0xe9
 1499 060b 00       		.byte	0
 1500 060c 08       		.uleb128 0x8
 1501 060d 43523200 		.ascii	"CR2\000"
 1502 0611 08       		.byte	0x8
 1503 0612 4202     		.2byte	0x242
 1504 0614 E9000000 		.4byte	0xe9
 1505 0618 04       		.byte	0x4
 1506 0619 09       		.uleb128 0x9
 1507 061a BA080000 		.4byte	.LASF104
 1508 061e 08       		.byte	0x8
 1509 061f 4302     		.2byte	0x243
 1510 0621 E9000000 		.4byte	0xe9
 1511 0625 08       		.byte	0x8
 1512 0626 09       		.uleb128 0x9
 1513 0627 BF080000 		.4byte	.LASF105
 1514 062b 08       		.byte	0x8
 1515 062c 4402     		.2byte	0x244
 1516 062e E9000000 		.4byte	0xe9
 1517 0632 0C       		.byte	0xc
 1518 0633 08       		.uleb128 0x8
 1519 0634 445200   		.ascii	"DR\000"
 1520 0637 08       		.byte	0x8
 1521 0638 4502     		.2byte	0x245
 1522 063a E9000000 		.4byte	0xe9
 1523 063e 10       		.byte	0x10
 1524 063f 08       		.uleb128 0x8
 1525 0640 53523100 		.ascii	"SR1\000"
 1526 0644 08       		.byte	0x8
 1527 0645 4602     		.2byte	0x246
 1528 0647 E9000000 		.4byte	0xe9
 1529 064b 14       		.byte	0x14
 1530 064c 08       		.uleb128 0x8
 1531 064d 53523200 		.ascii	"SR2\000"
 1532 0651 08       		.byte	0x8
 1533 0652 4702     		.2byte	0x247
 1534 0654 E9000000 		.4byte	0xe9
 1535 0658 18       		.byte	0x18
 1536 0659 08       		.uleb128 0x8
 1537 065a 43435200 		.ascii	"CCR\000"
 1538 065e 08       		.byte	0x8
 1539 065f 4802     		.2byte	0x248
ARM GAS  C:\Users\IDONNO~1\AppData\Local\Temp\ccFIblx2.s 			page 28


 1540 0661 E9000000 		.4byte	0xe9
 1541 0665 1C       		.byte	0x1c
 1542 0666 09       		.uleb128 0x9
 1543 0667 79000000 		.4byte	.LASF106
 1544 066b 08       		.byte	0x8
 1545 066c 4902     		.2byte	0x249
 1546 066e E9000000 		.4byte	0xe9
 1547 0672 20       		.byte	0x20
 1548 0673 09       		.uleb128 0x9
 1549 0674 4A010000 		.4byte	.LASF107
 1550 0678 08       		.byte	0x8
 1551 0679 4A02     		.2byte	0x24a
 1552 067b E9000000 		.4byte	0xe9
 1553 067f 24       		.byte	0x24
 1554 0680 00       		.byte	0
 1555 0681 13       		.uleb128 0x13
 1556 0682 F8080000 		.4byte	.LASF108
 1557 0686 08       		.byte	0x8
 1558 0687 4B02     		.2byte	0x24b
 1559 0689 F6050000 		.4byte	0x5f6
 1560 068d 14       		.uleb128 0x14
 1561 068e 01       		.byte	0x1
 1562 068f 50000000 		.4byte	0x50
 1563 0693 10       		.byte	0x10
 1564 0694 A8       		.byte	0xa8
 1565 0695 A6060000 		.4byte	0x6a6
 1566 0699 15       		.uleb128 0x15
 1567 069a 86000000 		.4byte	.LASF109
 1568 069e 00       		.byte	0
 1569 069f 15       		.uleb128 0x15
 1570 06a0 C1010000 		.4byte	.LASF110
 1571 06a4 01       		.byte	0x1
 1572 06a5 00       		.byte	0
 1573 06a6 03       		.uleb128 0x3
 1574 06a7 14020000 		.4byte	.LASF111
 1575 06ab 09       		.byte	0x9
 1576 06ac 65       		.byte	0x65
 1577 06ad 54030000 		.4byte	0x354
 1578 06b1 03       		.uleb128 0x3
 1579 06b2 73030000 		.4byte	.LASF112
 1580 06b6 09       		.byte	0x9
 1581 06b7 6D       		.byte	0x6d
 1582 06b8 D9000000 		.4byte	0xd9
 1583 06bc 06       		.uleb128 0x6
 1584 06bd 1D080000 		.4byte	.LASF113
 1585 06c1 04       		.byte	0x4
 1586 06c2 09       		.byte	0x9
 1587 06c3 89       		.byte	0x89
 1588 06c4 D5060000 		.4byte	0x6d5
 1589 06c8 11       		.uleb128 0x11
 1590 06c9 72313300 		.ascii	"r13\000"
 1591 06cd 09       		.byte	0x9
 1592 06ce 8A       		.byte	0x8a
 1593 06cf 16080000 		.4byte	0x816
 1594 06d3 00       		.byte	0
 1595 06d4 00       		.byte	0
 1596 06d5 06       		.uleb128 0x6
ARM GAS  C:\Users\IDONNO~1\AppData\Local\Temp\ccFIblx2.s 			page 29


 1597 06d6 5E000000 		.4byte	.LASF114
 1598 06da 64       		.byte	0x64
 1599 06db 0A       		.byte	0xa
 1600 06dc F4       		.byte	0xf4
 1601 06dd 16080000 		.4byte	0x816
 1602 06e1 11       		.uleb128 0x11
 1603 06e2 73313600 		.ascii	"s16\000"
 1604 06e6 0A       		.byte	0xa
 1605 06e7 F6       		.byte	0xf6
 1606 06e8 A6060000 		.4byte	0x6a6
 1607 06ec 00       		.byte	0
 1608 06ed 11       		.uleb128 0x11
 1609 06ee 73313700 		.ascii	"s17\000"
 1610 06f2 0A       		.byte	0xa
 1611 06f3 F7       		.byte	0xf7
 1612 06f4 A6060000 		.4byte	0x6a6
 1613 06f8 04       		.byte	0x4
 1614 06f9 11       		.uleb128 0x11
 1615 06fa 73313800 		.ascii	"s18\000"
 1616 06fe 0A       		.byte	0xa
 1617 06ff F8       		.byte	0xf8
 1618 0700 A6060000 		.4byte	0x6a6
 1619 0704 08       		.byte	0x8
 1620 0705 11       		.uleb128 0x11
 1621 0706 73313900 		.ascii	"s19\000"
 1622 070a 0A       		.byte	0xa
 1623 070b F9       		.byte	0xf9
 1624 070c A6060000 		.4byte	0x6a6
 1625 0710 0C       		.byte	0xc
 1626 0711 11       		.uleb128 0x11
 1627 0712 73323000 		.ascii	"s20\000"
 1628 0716 0A       		.byte	0xa
 1629 0717 FA       		.byte	0xfa
 1630 0718 A6060000 		.4byte	0x6a6
 1631 071c 10       		.byte	0x10
 1632 071d 11       		.uleb128 0x11
 1633 071e 73323100 		.ascii	"s21\000"
 1634 0722 0A       		.byte	0xa
 1635 0723 FB       		.byte	0xfb
 1636 0724 A6060000 		.4byte	0x6a6
 1637 0728 14       		.byte	0x14
 1638 0729 11       		.uleb128 0x11
 1639 072a 73323200 		.ascii	"s22\000"
 1640 072e 0A       		.byte	0xa
 1641 072f FC       		.byte	0xfc
 1642 0730 A6060000 		.4byte	0x6a6
 1643 0734 18       		.byte	0x18
 1644 0735 11       		.uleb128 0x11
 1645 0736 73323300 		.ascii	"s23\000"
 1646 073a 0A       		.byte	0xa
 1647 073b FD       		.byte	0xfd
 1648 073c A6060000 		.4byte	0x6a6
 1649 0740 1C       		.byte	0x1c
 1650 0741 11       		.uleb128 0x11
 1651 0742 73323400 		.ascii	"s24\000"
 1652 0746 0A       		.byte	0xa
 1653 0747 FE       		.byte	0xfe
ARM GAS  C:\Users\IDONNO~1\AppData\Local\Temp\ccFIblx2.s 			page 30


 1654 0748 A6060000 		.4byte	0x6a6
 1655 074c 20       		.byte	0x20
 1656 074d 11       		.uleb128 0x11
 1657 074e 73323500 		.ascii	"s25\000"
 1658 0752 0A       		.byte	0xa
 1659 0753 FF       		.byte	0xff
 1660 0754 A6060000 		.4byte	0x6a6
 1661 0758 24       		.byte	0x24
 1662 0759 08       		.uleb128 0x8
 1663 075a 73323600 		.ascii	"s26\000"
 1664 075e 0A       		.byte	0xa
 1665 075f 0001     		.2byte	0x100
 1666 0761 A6060000 		.4byte	0x6a6
 1667 0765 28       		.byte	0x28
 1668 0766 08       		.uleb128 0x8
 1669 0767 73323700 		.ascii	"s27\000"
 1670 076b 0A       		.byte	0xa
 1671 076c 0101     		.2byte	0x101
 1672 076e A6060000 		.4byte	0x6a6
 1673 0772 2C       		.byte	0x2c
 1674 0773 08       		.uleb128 0x8
 1675 0774 73323800 		.ascii	"s28\000"
 1676 0778 0A       		.byte	0xa
 1677 0779 0201     		.2byte	0x102
 1678 077b A6060000 		.4byte	0x6a6
 1679 077f 30       		.byte	0x30
 1680 0780 08       		.uleb128 0x8
 1681 0781 73323900 		.ascii	"s29\000"
 1682 0785 0A       		.byte	0xa
 1683 0786 0301     		.2byte	0x103
 1684 0788 A6060000 		.4byte	0x6a6
 1685 078c 34       		.byte	0x34
 1686 078d 08       		.uleb128 0x8
 1687 078e 73333000 		.ascii	"s30\000"
 1688 0792 0A       		.byte	0xa
 1689 0793 0401     		.2byte	0x104
 1690 0795 A6060000 		.4byte	0x6a6
 1691 0799 38       		.byte	0x38
 1692 079a 08       		.uleb128 0x8
 1693 079b 73333100 		.ascii	"s31\000"
 1694 079f 0A       		.byte	0xa
 1695 07a0 0501     		.2byte	0x105
 1696 07a2 A6060000 		.4byte	0x6a6
 1697 07a6 3C       		.byte	0x3c
 1698 07a7 08       		.uleb128 0x8
 1699 07a8 723400   		.ascii	"r4\000"
 1700 07ab 0A       		.byte	0xa
 1701 07ac 0701     		.2byte	0x107
 1702 07ae A6060000 		.4byte	0x6a6
 1703 07b2 40       		.byte	0x40
 1704 07b3 08       		.uleb128 0x8
 1705 07b4 723500   		.ascii	"r5\000"
 1706 07b7 0A       		.byte	0xa
 1707 07b8 0801     		.2byte	0x108
 1708 07ba A6060000 		.4byte	0x6a6
 1709 07be 44       		.byte	0x44
 1710 07bf 08       		.uleb128 0x8
ARM GAS  C:\Users\IDONNO~1\AppData\Local\Temp\ccFIblx2.s 			page 31


 1711 07c0 723600   		.ascii	"r6\000"
 1712 07c3 0A       		.byte	0xa
 1713 07c4 0901     		.2byte	0x109
 1714 07c6 A6060000 		.4byte	0x6a6
 1715 07ca 48       		.byte	0x48
 1716 07cb 08       		.uleb128 0x8
 1717 07cc 723700   		.ascii	"r7\000"
 1718 07cf 0A       		.byte	0xa
 1719 07d0 0A01     		.2byte	0x10a
 1720 07d2 A6060000 		.4byte	0x6a6
 1721 07d6 4C       		.byte	0x4c
 1722 07d7 08       		.uleb128 0x8
 1723 07d8 723800   		.ascii	"r8\000"
 1724 07db 0A       		.byte	0xa
 1725 07dc 0B01     		.2byte	0x10b
 1726 07de A6060000 		.4byte	0x6a6
 1727 07e2 50       		.byte	0x50
 1728 07e3 08       		.uleb128 0x8
 1729 07e4 723900   		.ascii	"r9\000"
 1730 07e7 0A       		.byte	0xa
 1731 07e8 0C01     		.2byte	0x10c
 1732 07ea A6060000 		.4byte	0x6a6
 1733 07ee 54       		.byte	0x54
 1734 07ef 08       		.uleb128 0x8
 1735 07f0 72313000 		.ascii	"r10\000"
 1736 07f4 0A       		.byte	0xa
 1737 07f5 0D01     		.2byte	0x10d
 1738 07f7 A6060000 		.4byte	0x6a6
 1739 07fb 58       		.byte	0x58
 1740 07fc 08       		.uleb128 0x8
 1741 07fd 72313100 		.ascii	"r11\000"
 1742 0801 0A       		.byte	0xa
 1743 0802 0E01     		.2byte	0x10e
 1744 0804 A6060000 		.4byte	0x6a6
 1745 0808 5C       		.byte	0x5c
 1746 0809 08       		.uleb128 0x8
 1747 080a 6C7200   		.ascii	"lr\000"
 1748 080d 0A       		.byte	0xa
 1749 080e 0F01     		.2byte	0x10f
 1750 0810 A6060000 		.4byte	0x6a6
 1751 0814 60       		.byte	0x60
 1752 0815 00       		.byte	0
 1753 0816 0A       		.uleb128 0xa
 1754 0817 04       		.byte	0x4
 1755 0818 D5060000 		.4byte	0x6d5
 1756 081c 10       		.uleb128 0x10
 1757 081d 04       		.byte	0x4
 1758 081e 0B       		.byte	0xb
 1759 081f 38       		.byte	0x38
 1760 0820 31080000 		.4byte	0x831
 1761 0824 07       		.uleb128 0x7
 1762 0825 03080000 		.4byte	.LASF115
 1763 0829 0B       		.byte	0xb
 1764 082a 3C       		.byte	0x3c
 1765 082b EE000000 		.4byte	0xee
 1766 082f 00       		.byte	0
 1767 0830 00       		.byte	0
ARM GAS  C:\Users\IDONNO~1\AppData\Local\Temp\ccFIblx2.s 			page 32


 1768 0831 03       		.uleb128 0x3
 1769 0832 11040000 		.4byte	.LASF116
 1770 0836 0B       		.byte	0xb
 1771 0837 3D       		.byte	0x3d
 1772 0838 1C080000 		.4byte	0x81c
 1773 083c 16       		.uleb128 0x16
 1774 083d 04       		.byte	0x4
 1775 083e 07       		.byte	0x7
 1776 083f FA       		.byte	0xfa
 1777 0840 99080000 		.4byte	0x899
 1778 0844 17       		.uleb128 0x17
 1779 0845 36000000 		.4byte	.LASF117
 1780 0849 07       		.byte	0x7
 1781 084a 0101     		.2byte	0x101
 1782 084c 30010000 		.4byte	0x130
 1783 0850 17       		.uleb128 0x17
 1784 0851 D5000000 		.4byte	.LASF118
 1785 0855 07       		.byte	0x7
 1786 0856 0801     		.2byte	0x108
 1787 0858 30010000 		.4byte	0x130
 1788 085c 17       		.uleb128 0x17
 1789 085d D3080000 		.4byte	.LASF119
 1790 0861 07       		.byte	0x7
 1791 0862 0F01     		.2byte	0x10f
 1792 0864 54030000 		.4byte	0x354
 1793 0868 17       		.uleb128 0x17
 1794 0869 F7030000 		.4byte	.LASF120
 1795 086d 07       		.byte	0x7
 1796 086e 1601     		.2byte	0x116
 1797 0870 99080000 		.4byte	0x899
 1798 0874 17       		.uleb128 0x17
 1799 0875 89020000 		.4byte	.LASF121
 1800 0879 07       		.byte	0x7
 1801 087a 1E01     		.2byte	0x11e
 1802 087c C4080000 		.4byte	0x8c4
 1803 0880 17       		.uleb128 0x17
 1804 0881 09060000 		.4byte	.LASF122
 1805 0885 07       		.byte	0x7
 1806 0886 2701     		.2byte	0x127
 1807 0888 FB080000 		.4byte	0x8fb
 1808 088c 17       		.uleb128 0x17
 1809 088d 93050000 		.4byte	.LASF123
 1810 0891 07       		.byte	0x7
 1811 0892 2F01     		.2byte	0x12f
 1812 0894 3B010000 		.4byte	0x13b
 1813 0898 00       		.byte	0
 1814 0899 0A       		.uleb128 0xa
 1815 089a 04       		.byte	0x4
 1816 089b 6C020000 		.4byte	0x26c
 1817 089f 06       		.uleb128 0x6
 1818 08a0 DD050000 		.4byte	.LASF124
 1819 08a4 0C       		.byte	0xc
 1820 08a5 0C       		.byte	0xc
 1821 08a6 34       		.byte	0x34
 1822 08a7 C4080000 		.4byte	0x8c4
 1823 08ab 07       		.uleb128 0x7
 1824 08ac D9010000 		.4byte	.LASF125
ARM GAS  C:\Users\IDONNO~1\AppData\Local\Temp\ccFIblx2.s 			page 33


 1825 08b0 0C       		.byte	0xc
 1826 08b1 35       		.byte	0x35
 1827 08b2 A1020000 		.4byte	0x2a1
 1828 08b6 00       		.byte	0
 1829 08b7 07       		.uleb128 0x7
 1830 08b8 C3020000 		.4byte	.LASF126
 1831 08bc 0C       		.byte	0xc
 1832 08bd 37       		.byte	0x37
 1833 08be 46010000 		.4byte	0x146
 1834 08c2 08       		.byte	0x8
 1835 08c3 00       		.byte	0
 1836 08c4 0A       		.uleb128 0xa
 1837 08c5 04       		.byte	0x4
 1838 08c6 9F080000 		.4byte	0x89f
 1839 08ca 06       		.uleb128 0x6
 1840 08cb 90080000 		.4byte	.LASF127
 1841 08cf 10       		.byte	0x10
 1842 08d0 0D       		.byte	0xd
 1843 08d1 39       		.byte	0x39
 1844 08d2 FB080000 		.4byte	0x8fb
 1845 08d6 07       		.uleb128 0x7
 1846 08d7 80010000 		.4byte	.LASF128
 1847 08db 0D       		.byte	0xd
 1848 08dc 3A       		.byte	0x3a
 1849 08dd A1020000 		.4byte	0x2a1
 1850 08e1 00       		.byte	0
 1851 08e2 07       		.uleb128 0x7
 1852 08e3 10090000 		.4byte	.LASF129
 1853 08e7 0D       		.byte	0xd
 1854 08e8 3C       		.byte	0x3c
 1855 08e9 77020000 		.4byte	0x277
 1856 08ed 08       		.byte	0x8
 1857 08ee 07       		.uleb128 0x7
 1858 08ef 5B040000 		.4byte	.LASF130
 1859 08f3 0D       		.byte	0xd
 1860 08f4 3E       		.byte	0x3e
 1861 08f5 3E090000 		.4byte	0x93e
 1862 08f9 0C       		.byte	0xc
 1863 08fa 00       		.byte	0
 1864 08fb 0A       		.uleb128 0xa
 1865 08fc 04       		.byte	0x4
 1866 08fd CA080000 		.4byte	0x8ca
 1867 0901 0A       		.uleb128 0xa
 1868 0902 04       		.byte	0x4
 1869 0903 0E090000 		.4byte	0x90e
 1870 0907 04       		.uleb128 0x4
 1871 0908 01       		.byte	0x1
 1872 0909 08       		.byte	0x8
 1873 090a 4E060000 		.4byte	.LASF131
 1874 090e 18       		.uleb128 0x18
 1875 090f 07090000 		.4byte	0x907
 1876 0913 05       		.uleb128 0x5
 1877 0914 51010000 		.4byte	0x151
 1878 0918 0A       		.uleb128 0xa
 1879 0919 04       		.byte	0x4
 1880 091a 56030000 		.4byte	0x356
 1881 091e 05       		.uleb128 0x5
ARM GAS  C:\Users\IDONNO~1\AppData\Local\Temp\ccFIblx2.s 			page 34


 1882 091f 01090000 		.4byte	0x901
 1883 0923 19       		.uleb128 0x19
 1884 0924 B1060000 		.4byte	0x6b1
 1885 0928 33090000 		.4byte	0x933
 1886 092c 1A       		.uleb128 0x1a
 1887 092d 8A040000 		.4byte	0x48a
 1888 0931 3A       		.byte	0x3a
 1889 0932 00       		.byte	0
 1890 0933 03       		.uleb128 0x3
 1891 0934 3A020000 		.4byte	.LASF132
 1892 0938 0D       		.byte	0xd
 1893 0939 34       		.byte	0x34
 1894 093a CA080000 		.4byte	0x8ca
 1895 093e 0A       		.uleb128 0xa
 1896 093f 04       		.byte	0x4
 1897 0940 33090000 		.4byte	0x933
 1898 0944 10       		.uleb128 0x10
 1899 0945 0C       		.byte	0xc
 1900 0946 0E       		.byte	0xe
 1901 0947 DA       		.byte	0xda
 1902 0948 89090000 		.4byte	0x989
 1903 094c 07       		.uleb128 0x7
 1904 094d 7F000000 		.4byte	.LASF133
 1905 0951 0E       		.byte	0xe
 1906 0952 DB       		.byte	0xdb
 1907 0953 89090000 		.4byte	0x989
 1908 0957 00       		.byte	0
 1909 0958 07       		.uleb128 0x7
 1910 0959 A3040000 		.4byte	.LASF134
 1911 095d 0E       		.byte	0xe
 1912 095e DC       		.byte	0xdc
 1913 095f 8F090000 		.4byte	0x98f
 1914 0963 04       		.byte	0x4
 1915 0964 07       		.uleb128 0x7
 1916 0965 BC020000 		.4byte	.LASF135
 1917 0969 0E       		.byte	0xe
 1918 096a DD       		.byte	0xdd
 1919 096b AD000000 		.4byte	0xad
 1920 096f 08       		.byte	0x8
 1921 0970 07       		.uleb128 0x7
 1922 0971 65080000 		.4byte	.LASF136
 1923 0975 0E       		.byte	0xe
 1924 0976 DF       		.byte	0xdf
 1925 0977 AD000000 		.4byte	0xad
 1926 097b 09       		.byte	0x9
 1927 097c 07       		.uleb128 0x7
 1928 097d 46000000 		.4byte	.LASF137
 1929 0981 0E       		.byte	0xe
 1930 0982 E0       		.byte	0xe0
 1931 0983 AD000000 		.4byte	0xad
 1932 0987 0A       		.byte	0xa
 1933 0988 00       		.byte	0
 1934 0989 0A       		.uleb128 0xa
 1935 098a 04       		.byte	0x4
 1936 098b EA050000 		.4byte	0x5ea
 1937 098f 0A       		.uleb128 0xa
 1938 0990 04       		.byte	0x4
ARM GAS  C:\Users\IDONNO~1\AppData\Local\Temp\ccFIblx2.s 			page 35


 1939 0991 E9000000 		.4byte	0xe9
 1940 0995 03       		.uleb128 0x3
 1941 0996 EB040000 		.4byte	.LASF138
 1942 099a 0E       		.byte	0xe
 1943 099b E1       		.byte	0xe1
 1944 099c 44090000 		.4byte	0x944
 1945 09a0 04       		.uleb128 0x4
 1946 09a1 01       		.byte	0x1
 1947 09a2 02       		.byte	0x2
 1948 09a3 43050000 		.4byte	.LASF139
 1949 09a7 10       		.uleb128 0x10
 1950 09a8 04       		.byte	0x4
 1951 09a9 0F       		.byte	0xf
 1952 09aa B3       		.byte	0xb3
 1953 09ab C8090000 		.4byte	0x9c8
 1954 09af 11       		.uleb128 0x11
 1955 09b0 73657400 		.ascii	"set\000"
 1956 09b4 0F       		.byte	0xf
 1957 09b5 B4       		.byte	0xb4
 1958 09b6 B8000000 		.4byte	0xb8
 1959 09ba 00       		.byte	0
 1960 09bb 07       		.uleb128 0x7
 1961 09bc E1080000 		.4byte	.LASF140
 1962 09c0 0F       		.byte	0xf
 1963 09c1 B5       		.byte	0xb5
 1964 09c2 B8000000 		.4byte	0xb8
 1965 09c6 02       		.byte	0x2
 1966 09c7 00       		.byte	0
 1967 09c8 16       		.uleb128 0x16
 1968 09c9 04       		.byte	0x4
 1969 09ca 0F       		.byte	0xf
 1970 09cb B1       		.byte	0xb1
 1971 09cc E3090000 		.4byte	0x9e3
 1972 09d0 1B       		.uleb128 0x1b
 1973 09d1 5700     		.ascii	"W\000"
 1974 09d3 0F       		.byte	0xf
 1975 09d4 B2       		.byte	0xb2
 1976 09d5 CE000000 		.4byte	0xce
 1977 09d9 1B       		.uleb128 0x1b
 1978 09da 4800     		.ascii	"H\000"
 1979 09dc 0F       		.byte	0xf
 1980 09dd B6       		.byte	0xb6
 1981 09de A7090000 		.4byte	0x9a7
 1982 09e2 00       		.byte	0
 1983 09e3 10       		.uleb128 0x10
 1984 09e4 2C       		.byte	0x2c
 1985 09e5 0F       		.byte	0xf
 1986 09e6 A9       		.byte	0xa9
 1987 09e7 700A0000 		.4byte	0xa70
 1988 09eb 07       		.uleb128 0x7
 1989 09ec 8E000000 		.4byte	.LASF141
 1990 09f0 0F       		.byte	0xf
 1991 09f1 AB       		.byte	0xab
 1992 09f2 E9000000 		.4byte	0xe9
 1993 09f6 00       		.byte	0
 1994 09f7 07       		.uleb128 0x7
 1995 09f8 57000000 		.4byte	.LASF142
ARM GAS  C:\Users\IDONNO~1\AppData\Local\Temp\ccFIblx2.s 			page 36


 1996 09fc 0F       		.byte	0xf
 1997 09fd AC       		.byte	0xac
 1998 09fe E9000000 		.4byte	0xe9
 1999 0a02 04       		.byte	0x4
 2000 0a03 07       		.uleb128 0x7
 2001 0a04 04020000 		.4byte	.LASF143
 2002 0a08 0F       		.byte	0xf
 2003 0a09 AD       		.byte	0xad
 2004 0a0a E9000000 		.4byte	0xe9
 2005 0a0e 08       		.byte	0x8
 2006 0a0f 07       		.uleb128 0x7
 2007 0a10 CF000000 		.4byte	.LASF144
 2008 0a14 0F       		.byte	0xf
 2009 0a15 AE       		.byte	0xae
 2010 0a16 E9000000 		.4byte	0xe9
 2011 0a1a 0C       		.byte	0xc
 2012 0a1b 11       		.uleb128 0x11
 2013 0a1c 49445200 		.ascii	"IDR\000"
 2014 0a20 0F       		.byte	0xf
 2015 0a21 AF       		.byte	0xaf
 2016 0a22 E9000000 		.4byte	0xe9
 2017 0a26 10       		.byte	0x10
 2018 0a27 11       		.uleb128 0x11
 2019 0a28 4F445200 		.ascii	"ODR\000"
 2020 0a2c 0F       		.byte	0xf
 2021 0a2d B0       		.byte	0xb0
 2022 0a2e E9000000 		.4byte	0xe9
 2023 0a32 14       		.byte	0x14
 2024 0a33 07       		.uleb128 0x7
 2025 0a34 6E010000 		.4byte	.LASF145
 2026 0a38 0F       		.byte	0xf
 2027 0a39 B7       		.byte	0xb7
 2028 0a3a 700A0000 		.4byte	0xa70
 2029 0a3e 18       		.byte	0x18
 2030 0a3f 07       		.uleb128 0x7
 2031 0a40 B7020000 		.4byte	.LASF146
 2032 0a44 0F       		.byte	0xf
 2033 0a45 B8       		.byte	0xb8
 2034 0a46 E9000000 		.4byte	0xe9
 2035 0a4a 1C       		.byte	0x1c
 2036 0a4b 07       		.uleb128 0x7
 2037 0a4c 9E040000 		.4byte	.LASF147
 2038 0a50 0F       		.byte	0xf
 2039 0a51 B9       		.byte	0xb9
 2040 0a52 E9000000 		.4byte	0xe9
 2041 0a56 20       		.byte	0x20
 2042 0a57 07       		.uleb128 0x7
 2043 0a58 99040000 		.4byte	.LASF148
 2044 0a5c 0F       		.byte	0xf
 2045 0a5d BA       		.byte	0xba
 2046 0a5e E9000000 		.4byte	0xe9
 2047 0a62 24       		.byte	0x24
 2048 0a63 11       		.uleb128 0x11
 2049 0a64 42525200 		.ascii	"BRR\000"
 2050 0a68 0F       		.byte	0xf
 2051 0a69 BB       		.byte	0xbb
 2052 0a6a E9000000 		.4byte	0xe9
ARM GAS  C:\Users\IDONNO~1\AppData\Local\Temp\ccFIblx2.s 			page 37


 2053 0a6e 28       		.byte	0x28
 2054 0a6f 00       		.byte	0
 2055 0a70 05       		.uleb128 0x5
 2056 0a71 C8090000 		.4byte	0x9c8
 2057 0a75 03       		.uleb128 0x3
 2058 0a76 2D020000 		.4byte	.LASF149
 2059 0a7a 0F       		.byte	0xf
 2060 0a7b BC       		.byte	0xbc
 2061 0a7c E3090000 		.4byte	0x9e3
 2062 0a80 13       		.uleb128 0x13
 2063 0a81 22040000 		.4byte	.LASF150
 2064 0a85 0F       		.byte	0xf
 2065 0a86 0E01     		.2byte	0x10e
 2066 0a88 CE000000 		.4byte	0xce
 2067 0a8c 14       		.uleb128 0x14
 2068 0a8d 01       		.byte	0x1
 2069 0a8e 50000000 		.4byte	0x50
 2070 0a92 11       		.byte	0x11
 2071 0a93 4C       		.byte	0x4c
 2072 0a94 BD0A0000 		.4byte	0xabd
 2073 0a98 15       		.uleb128 0x15
 2074 0a99 6F050000 		.4byte	.LASF151
 2075 0a9d 00       		.byte	0
 2076 0a9e 15       		.uleb128 0x15
 2077 0a9f AF030000 		.4byte	.LASF152
 2078 0aa3 01       		.byte	0x1
 2079 0aa4 15       		.uleb128 0x15
 2080 0aa5 F9070000 		.4byte	.LASF153
 2081 0aa9 02       		.byte	0x2
 2082 0aaa 15       		.uleb128 0x15
 2083 0aab 14050000 		.4byte	.LASF154
 2084 0aaf 03       		.byte	0x3
 2085 0ab0 15       		.uleb128 0x15
 2086 0ab1 2E060000 		.4byte	.LASF155
 2087 0ab5 04       		.byte	0x4
 2088 0ab6 15       		.uleb128 0x15
 2089 0ab7 D2050000 		.4byte	.LASF156
 2090 0abb 05       		.byte	0x5
 2091 0abc 00       		.byte	0
 2092 0abd 03       		.uleb128 0x3
 2093 0abe B4040000 		.4byte	.LASF157
 2094 0ac2 11       		.byte	0x11
 2095 0ac3 53       		.byte	0x53
 2096 0ac4 8C0A0000 		.4byte	0xa8c
 2097 0ac8 13       		.uleb128 0x13
 2098 0ac9 9E010000 		.4byte	.LASF158
 2099 0acd 12       		.byte	0x12
 2100 0ace 6A01     		.2byte	0x16a
 2101 0ad0 B8000000 		.4byte	0xb8
 2102 0ad4 13       		.uleb128 0x13
 2103 0ad5 22050000 		.4byte	.LASF159
 2104 0ad9 12       		.byte	0x12
 2105 0ada 6F01     		.2byte	0x16f
 2106 0adc CE000000 		.4byte	0xce
 2107 0ae0 1C       		.uleb128 0x1c
 2108 0ae1 01       		.byte	0x1
 2109 0ae2 50000000 		.4byte	0x50
ARM GAS  C:\Users\IDONNO~1\AppData\Local\Temp\ccFIblx2.s 			page 38


 2110 0ae6 12       		.byte	0x12
 2111 0ae7 7401     		.2byte	0x174
 2112 0ae9 000B0000 		.4byte	0xb00
 2113 0aed 15       		.uleb128 0x15
 2114 0aee 62040000 		.4byte	.LASF160
 2115 0af2 01       		.byte	0x1
 2116 0af3 15       		.uleb128 0x15
 2117 0af4 C9020000 		.4byte	.LASF161
 2118 0af8 02       		.byte	0x2
 2119 0af9 15       		.uleb128 0x15
 2120 0afa 69060000 		.4byte	.LASF162
 2121 0afe 03       		.byte	0x3
 2122 0aff 00       		.byte	0
 2123 0b00 13       		.uleb128 0x13
 2124 0b01 04090000 		.4byte	.LASF163
 2125 0b05 12       		.byte	0x12
 2126 0b06 7801     		.2byte	0x178
 2127 0b08 E00A0000 		.4byte	0xae0
 2128 0b0c 1C       		.uleb128 0x1c
 2129 0b0d 01       		.byte	0x1
 2130 0b0e 50000000 		.4byte	0x50
 2131 0b12 12       		.byte	0x12
 2132 0b13 7D01     		.2byte	0x17d
 2133 0b15 2C0B0000 		.4byte	0xb2c
 2134 0b19 15       		.uleb128 0x15
 2135 0b1a 36030000 		.4byte	.LASF164
 2136 0b1e 01       		.byte	0x1
 2137 0b1f 15       		.uleb128 0x15
 2138 0b20 C0050000 		.4byte	.LASF165
 2139 0b24 02       		.byte	0x2
 2140 0b25 15       		.uleb128 0x15
 2141 0b26 BF040000 		.4byte	.LASF166
 2142 0b2a 03       		.byte	0x3
 2143 0b2b 00       		.byte	0
 2144 0b2c 13       		.uleb128 0x13
 2145 0b2d 06000000 		.4byte	.LASF167
 2146 0b31 12       		.byte	0x12
 2147 0b32 8101     		.2byte	0x181
 2148 0b34 0C0B0000 		.4byte	0xb0c
 2149 0b38 12       		.uleb128 0x12
 2150 0b39 0C       		.byte	0xc
 2151 0b3a 12       		.byte	0x12
 2152 0b3b 8601     		.2byte	0x186
 2153 0b3d 690B0000 		.4byte	0xb69
 2154 0b41 09       		.uleb128 0x9
 2155 0b42 25020000 		.4byte	.LASF168
 2156 0b46 12       		.byte	0x12
 2157 0b47 8801     		.2byte	0x188
 2158 0b49 000B0000 		.4byte	0xb00
 2159 0b4d 00       		.byte	0
 2160 0b4e 09       		.uleb128 0x9
 2161 0b4f A0080000 		.4byte	.LASF169
 2162 0b53 12       		.byte	0x12
 2163 0b54 8901     		.2byte	0x189
 2164 0b56 CE000000 		.4byte	0xce
 2165 0b5a 04       		.byte	0x4
 2166 0b5b 09       		.uleb128 0x9
ARM GAS  C:\Users\IDONNO~1\AppData\Local\Temp\ccFIblx2.s 			page 39


 2167 0b5c 06040000 		.4byte	.LASF170
 2168 0b60 12       		.byte	0x12
 2169 0b61 8C01     		.2byte	0x18c
 2170 0b63 2C0B0000 		.4byte	0xb2c
 2171 0b67 08       		.byte	0x8
 2172 0b68 00       		.byte	0
 2173 0b69 13       		.uleb128 0x13
 2174 0b6a 76080000 		.4byte	.LASF171
 2175 0b6e 12       		.byte	0x12
 2176 0b6f 8E01     		.2byte	0x18e
 2177 0b71 380B0000 		.4byte	0xb38
 2178 0b75 13       		.uleb128 0x13
 2179 0b76 F0020000 		.4byte	.LASF172
 2180 0b7a 12       		.byte	0x12
 2181 0b7b 9301     		.2byte	0x193
 2182 0b7d 810B0000 		.4byte	0xb81
 2183 0b81 0B       		.uleb128 0xb
 2184 0b82 F0020000 		.4byte	.LASF172
 2185 0b86 38       		.byte	0x38
 2186 0b87 12       		.byte	0x12
 2187 0b88 9801     		.2byte	0x198
 2188 0b8a 1E0C0000 		.4byte	0xc1e
 2189 0b8e 09       		.uleb128 0x9
 2190 0b8f A8010000 		.4byte	.LASF173
 2191 0b93 12       		.byte	0x12
 2192 0b94 9C01     		.2byte	0x19c
 2193 0b96 BD0A0000 		.4byte	0xabd
 2194 0b9a 00       		.byte	0
 2195 0b9b 09       		.uleb128 0x9
 2196 0b9c 7B060000 		.4byte	.LASF174
 2197 0ba0 12       		.byte	0x12
 2198 0ba1 A001     		.2byte	0x1a0
 2199 0ba3 1E0C0000 		.4byte	0xc1e
 2200 0ba7 04       		.byte	0x4
 2201 0ba8 09       		.uleb128 0x9
 2202 0ba9 90020000 		.4byte	.LASF175
 2203 0bad 12       		.byte	0x12
 2204 0bae A401     		.2byte	0x1a4
 2205 0bb0 D40A0000 		.4byte	0xad4
 2206 0bb4 08       		.byte	0x8
 2207 0bb5 09       		.uleb128 0x9
 2208 0bb6 2D050000 		.4byte	.LASF176
 2209 0bba 12       		.byte	0x12
 2210 0bbb A901     		.2byte	0x1a9
 2211 0bbd 33090000 		.4byte	0x933
 2212 0bc1 0C       		.byte	0xc
 2213 0bc2 09       		.uleb128 0x9
 2214 0bc3 E3070000 		.4byte	.LASF177
 2215 0bc7 12       		.byte	0x12
 2216 0bc8 B201     		.2byte	0x1b2
 2217 0bca 6C020000 		.4byte	0x26c
 2218 0bce 1C       		.byte	0x1c
 2219 0bcf 09       		.uleb128 0x9
 2220 0bd0 88010000 		.4byte	.LASF178
 2221 0bd4 12       		.byte	0x12
 2222 0bd5 B601     		.2byte	0x1b6
 2223 0bd7 C80A0000 		.4byte	0xac8
ARM GAS  C:\Users\IDONNO~1\AppData\Local\Temp\ccFIblx2.s 			page 40


 2224 0bdb 20       		.byte	0x20
 2225 0bdc 09       		.uleb128 0x9
 2226 0bdd E1010000 		.4byte	.LASF179
 2227 0be1 12       		.byte	0x12
 2228 0be2 BA01     		.2byte	0x1ba
 2229 0be4 CE000000 		.4byte	0xce
 2230 0be8 24       		.byte	0x24
 2231 0be9 09       		.uleb128 0x9
 2232 0bea 45040000 		.4byte	.LASF180
 2233 0bee 12       		.byte	0x12
 2234 0bef BE01     		.2byte	0x1be
 2235 0bf1 CE000000 		.4byte	0xce
 2236 0bf5 28       		.byte	0x28
 2237 0bf6 09       		.uleb128 0x9
 2238 0bf7 00000000 		.4byte	.LASF181
 2239 0bfb 12       		.byte	0x12
 2240 0bfc C201     		.2byte	0x1c2
 2241 0bfe 290C0000 		.4byte	0xc29
 2242 0c02 2C       		.byte	0x2c
 2243 0c03 09       		.uleb128 0x9
 2244 0c04 EB010000 		.4byte	.LASF182
 2245 0c08 12       		.byte	0x12
 2246 0c09 C601     		.2byte	0x1c6
 2247 0c0b 290C0000 		.4byte	0xc29
 2248 0c0f 30       		.byte	0x30
 2249 0c10 08       		.uleb128 0x8
 2250 0c11 69326300 		.ascii	"i2c\000"
 2251 0c15 12       		.byte	0x12
 2252 0c16 CA01     		.2byte	0x1ca
 2253 0c18 340C0000 		.4byte	0xc34
 2254 0c1c 34       		.byte	0x34
 2255 0c1d 00       		.byte	0
 2256 0c1e 0A       		.uleb128 0xa
 2257 0c1f 04       		.byte	0x4
 2258 0c20 240C0000 		.4byte	0xc24
 2259 0c24 18       		.uleb128 0x18
 2260 0c25 690B0000 		.4byte	0xb69
 2261 0c29 0A       		.uleb128 0xa
 2262 0c2a 04       		.byte	0x4
 2263 0c2b 2F0C0000 		.4byte	0xc2f
 2264 0c2f 18       		.uleb128 0x18
 2265 0c30 95090000 		.4byte	0x995
 2266 0c34 0A       		.uleb128 0xa
 2267 0c35 04       		.byte	0x4
 2268 0c36 81060000 		.4byte	0x681
 2269 0c3a 1D       		.uleb128 0x1d
 2270 0c3b 25010000 		.4byte	.LASF183
 2271 0c3f 01       		.byte	0x1
 2272 0c40 2B       		.byte	0x2b
 2273 0c41 00000000 		.4byte	.LFB256
 2274 0c45 90010000 		.4byte	.LFE256-.LFB256
 2275 0c49 01       		.uleb128 0x1
 2276 0c4a 9C       		.byte	0x9c
 2277 0c4b 5F100000 		.4byte	0x105f
 2278 0c4f 1E       		.uleb128 0x1e
 2279 0c50 12000000 		.4byte	.LVL0
 2280 0c54 B0140000 		.4byte	0x14b0
ARM GAS  C:\Users\IDONNO~1\AppData\Local\Temp\ccFIblx2.s 			page 41


 2281 0c58 670C0000 		.4byte	0xc67
 2282 0c5c 1F       		.uleb128 0x1f
 2283 0c5d 01       		.uleb128 0x1
 2284 0c5e 50       		.byte	0x50
 2285 0c5f 01       		.uleb128 0x1
 2286 0c60 31       		.byte	0x31
 2287 0c61 1F       		.uleb128 0x1f
 2288 0c62 01       		.uleb128 0x1
 2289 0c63 51       		.byte	0x51
 2290 0c64 01       		.uleb128 0x1
 2291 0c65 31       		.byte	0x31
 2292 0c66 00       		.byte	0
 2293 0c67 1E       		.uleb128 0x1e
 2294 0c68 1A000000 		.4byte	.LVL1
 2295 0c6c B0140000 		.4byte	0x14b0
 2296 0c70 7F0C0000 		.4byte	0xc7f
 2297 0c74 1F       		.uleb128 0x1f
 2298 0c75 01       		.uleb128 0x1
 2299 0c76 50       		.byte	0x50
 2300 0c77 01       		.uleb128 0x1
 2301 0c78 32       		.byte	0x32
 2302 0c79 1F       		.uleb128 0x1f
 2303 0c7a 01       		.uleb128 0x1
 2304 0c7b 51       		.byte	0x51
 2305 0c7c 01       		.uleb128 0x1
 2306 0c7d 31       		.byte	0x31
 2307 0c7e 00       		.byte	0
 2308 0c7f 1E       		.uleb128 0x1e
 2309 0c80 22000000 		.4byte	.LVL2
 2310 0c84 B0140000 		.4byte	0x14b0
 2311 0c88 970C0000 		.4byte	0xc97
 2312 0c8c 1F       		.uleb128 0x1f
 2313 0c8d 01       		.uleb128 0x1
 2314 0c8e 50       		.byte	0x50
 2315 0c8f 01       		.uleb128 0x1
 2316 0c90 34       		.byte	0x34
 2317 0c91 1F       		.uleb128 0x1f
 2318 0c92 01       		.uleb128 0x1
 2319 0c93 51       		.byte	0x51
 2320 0c94 01       		.uleb128 0x1
 2321 0c95 31       		.byte	0x31
 2322 0c96 00       		.byte	0
 2323 0c97 1E       		.uleb128 0x1e
 2324 0c98 2C000000 		.4byte	.LVL3
 2325 0c9c BC140000 		.4byte	0x14bc
 2326 0ca0 B60C0000 		.4byte	0xcb6
 2327 0ca4 1F       		.uleb128 0x1f
 2328 0ca5 01       		.uleb128 0x1
 2329 0ca6 50       		.byte	0x50
 2330 0ca7 02       		.uleb128 0x2
 2331 0ca8 76       		.byte	0x76
 2332 0ca9 00       		.sleb128 0
 2333 0caa 1F       		.uleb128 0x1f
 2334 0cab 01       		.uleb128 0x1
 2335 0cac 51       		.byte	0x51
 2336 0cad 02       		.uleb128 0x2
 2337 0cae 08       		.byte	0x8
ARM GAS  C:\Users\IDONNO~1\AppData\Local\Temp\ccFIblx2.s 			page 42


 2338 0caf 40       		.byte	0x40
 2339 0cb0 1F       		.uleb128 0x1f
 2340 0cb1 01       		.uleb128 0x1
 2341 0cb2 52       		.byte	0x52
 2342 0cb3 01       		.uleb128 0x1
 2343 0cb4 49       		.byte	0x49
 2344 0cb5 00       		.byte	0
 2345 0cb6 1E       		.uleb128 0x1e
 2346 0cb7 3A000000 		.4byte	.LVL4
 2347 0cbb BC140000 		.4byte	0x14bc
 2348 0cbf D50C0000 		.4byte	0xcd5
 2349 0cc3 1F       		.uleb128 0x1f
 2350 0cc4 01       		.uleb128 0x1
 2351 0cc5 50       		.byte	0x50
 2352 0cc6 02       		.uleb128 0x2
 2353 0cc7 76       		.byte	0x76
 2354 0cc8 00       		.sleb128 0
 2355 0cc9 1F       		.uleb128 0x1f
 2356 0cca 01       		.uleb128 0x1
 2357 0ccb 51       		.byte	0x51
 2358 0ccc 02       		.uleb128 0x2
 2359 0ccd 78       		.byte	0x78
 2360 0cce 00       		.sleb128 0
 2361 0ccf 1F       		.uleb128 0x1f
 2362 0cd0 01       		.uleb128 0x1
 2363 0cd1 52       		.byte	0x52
 2364 0cd2 01       		.uleb128 0x1
 2365 0cd3 49       		.byte	0x49
 2366 0cd4 00       		.byte	0
 2367 0cd5 1E       		.uleb128 0x1e
 2368 0cd6 4A000000 		.4byte	.LVL5
 2369 0cda BC140000 		.4byte	0x14bc
 2370 0cde F40C0000 		.4byte	0xcf4
 2371 0ce2 1F       		.uleb128 0x1f
 2372 0ce3 01       		.uleb128 0x1
 2373 0ce4 50       		.byte	0x50
 2374 0ce5 02       		.uleb128 0x2
 2375 0ce6 74       		.byte	0x74
 2376 0ce7 00       		.sleb128 0
 2377 0ce8 1F       		.uleb128 0x1f
 2378 0ce9 01       		.uleb128 0x1
 2379 0cea 51       		.byte	0x51
 2380 0ceb 02       		.uleb128 0x2
 2381 0cec 77       		.byte	0x77
 2382 0ced 00       		.sleb128 0
 2383 0cee 1F       		.uleb128 0x1f
 2384 0cef 01       		.uleb128 0x1
 2385 0cf0 52       		.byte	0x52
 2386 0cf1 01       		.uleb128 0x1
 2387 0cf2 49       		.byte	0x49
 2388 0cf3 00       		.byte	0
 2389 0cf4 1E       		.uleb128 0x1e
 2390 0cf5 5A000000 		.4byte	.LVL6
 2391 0cf9 BC140000 		.4byte	0x14bc
 2392 0cfd 130D0000 		.4byte	0xd13
 2393 0d01 1F       		.uleb128 0x1f
 2394 0d02 01       		.uleb128 0x1
ARM GAS  C:\Users\IDONNO~1\AppData\Local\Temp\ccFIblx2.s 			page 43


 2395 0d03 50       		.byte	0x50
 2396 0d04 02       		.uleb128 0x2
 2397 0d05 74       		.byte	0x74
 2398 0d06 00       		.sleb128 0
 2399 0d07 1F       		.uleb128 0x1f
 2400 0d08 01       		.uleb128 0x1
 2401 0d09 51       		.byte	0x51
 2402 0d0a 02       		.uleb128 0x2
 2403 0d0b 78       		.byte	0x78
 2404 0d0c 00       		.sleb128 0
 2405 0d0d 1F       		.uleb128 0x1f
 2406 0d0e 01       		.uleb128 0x1
 2407 0d0f 52       		.byte	0x52
 2408 0d10 01       		.uleb128 0x1
 2409 0d11 49       		.byte	0x49
 2410 0d12 00       		.byte	0
 2411 0d13 1E       		.uleb128 0x1e
 2412 0d14 64000000 		.4byte	.LVL7
 2413 0d18 BC140000 		.4byte	0x14bc
 2414 0d1c 320D0000 		.4byte	0xd32
 2415 0d20 1F       		.uleb128 0x1f
 2416 0d21 01       		.uleb128 0x1
 2417 0d22 50       		.byte	0x50
 2418 0d23 02       		.uleb128 0x2
 2419 0d24 74       		.byte	0x74
 2420 0d25 00       		.sleb128 0
 2421 0d26 1F       		.uleb128 0x1f
 2422 0d27 01       		.uleb128 0x1
 2423 0d28 51       		.byte	0x51
 2424 0d29 02       		.uleb128 0x2
 2425 0d2a 79       		.byte	0x79
 2426 0d2b 00       		.sleb128 0
 2427 0d2c 1F       		.uleb128 0x1f
 2428 0d2d 01       		.uleb128 0x1
 2429 0d2e 52       		.byte	0x52
 2430 0d2f 01       		.uleb128 0x1
 2431 0d30 49       		.byte	0x49
 2432 0d31 00       		.byte	0
 2433 0d32 1E       		.uleb128 0x1e
 2434 0d33 74000000 		.4byte	.LVL8
 2435 0d37 BC140000 		.4byte	0x14bc
 2436 0d3b 530D0000 		.4byte	0xd53
 2437 0d3f 1F       		.uleb128 0x1f
 2438 0d40 01       		.uleb128 0x1
 2439 0d41 50       		.byte	0x50
 2440 0d42 02       		.uleb128 0x2
 2441 0d43 76       		.byte	0x76
 2442 0d44 00       		.sleb128 0
 2443 0d45 1F       		.uleb128 0x1f
 2444 0d46 01       		.uleb128 0x1
 2445 0d47 51       		.byte	0x51
 2446 0d48 03       		.uleb128 0x3
 2447 0d49 0A       		.byte	0xa
 2448 0d4a 0010     		.2byte	0x1000
 2449 0d4c 1F       		.uleb128 0x1f
 2450 0d4d 01       		.uleb128 0x1
 2451 0d4e 52       		.byte	0x52
ARM GAS  C:\Users\IDONNO~1\AppData\Local\Temp\ccFIblx2.s 			page 44


 2452 0d4f 02       		.uleb128 0x2
 2453 0d50 08       		.byte	0x8
 2454 0d51 20       		.byte	0x20
 2455 0d52 00       		.byte	0
 2456 0d53 1E       		.uleb128 0x1e
 2457 0d54 7E000000 		.4byte	.LVL9
 2458 0d58 BC140000 		.4byte	0x14bc
 2459 0d5c 730D0000 		.4byte	0xd73
 2460 0d60 1F       		.uleb128 0x1f
 2461 0d61 01       		.uleb128 0x1
 2462 0d62 50       		.byte	0x50
 2463 0d63 02       		.uleb128 0x2
 2464 0d64 75       		.byte	0x75
 2465 0d65 00       		.sleb128 0
 2466 0d66 1F       		.uleb128 0x1f
 2467 0d67 01       		.uleb128 0x1
 2468 0d68 51       		.byte	0x51
 2469 0d69 02       		.uleb128 0x2
 2470 0d6a 79       		.byte	0x79
 2471 0d6b 00       		.sleb128 0
 2472 0d6c 1F       		.uleb128 0x1f
 2473 0d6d 01       		.uleb128 0x1
 2474 0d6e 52       		.byte	0x52
 2475 0d6f 02       		.uleb128 0x2
 2476 0d70 08       		.byte	0x8
 2477 0d71 9A       		.byte	0x9a
 2478 0d72 00       		.byte	0
 2479 0d73 1E       		.uleb128 0x1e
 2480 0d74 8A000000 		.4byte	.LVL10
 2481 0d78 BC140000 		.4byte	0x14bc
 2482 0d7c 940D0000 		.4byte	0xd94
 2483 0d80 1F       		.uleb128 0x1f
 2484 0d81 01       		.uleb128 0x1
 2485 0d82 50       		.byte	0x50
 2486 0d83 02       		.uleb128 0x2
 2487 0d84 75       		.byte	0x75
 2488 0d85 00       		.sleb128 0
 2489 0d86 1F       		.uleb128 0x1f
 2490 0d87 01       		.uleb128 0x1
 2491 0d88 51       		.byte	0x51
 2492 0d89 03       		.uleb128 0x3
 2493 0d8a 0A       		.byte	0xa
 2494 0d8b 0002     		.2byte	0x200
 2495 0d8d 1F       		.uleb128 0x1f
 2496 0d8e 01       		.uleb128 0x1
 2497 0d8f 52       		.byte	0x52
 2498 0d90 02       		.uleb128 0x2
 2499 0d91 08       		.byte	0x8
 2500 0d92 9A       		.byte	0x9a
 2501 0d93 00       		.byte	0
 2502 0d94 1E       		.uleb128 0x1e
 2503 0d95 96000000 		.4byte	.LVL11
 2504 0d99 BC140000 		.4byte	0x14bc
 2505 0d9d B50D0000 		.4byte	0xdb5
 2506 0da1 1F       		.uleb128 0x1f
 2507 0da2 01       		.uleb128 0x1
 2508 0da3 50       		.byte	0x50
ARM GAS  C:\Users\IDONNO~1\AppData\Local\Temp\ccFIblx2.s 			page 45


 2509 0da4 02       		.uleb128 0x2
 2510 0da5 75       		.byte	0x75
 2511 0da6 00       		.sleb128 0
 2512 0da7 1F       		.uleb128 0x1f
 2513 0da8 01       		.uleb128 0x1
 2514 0da9 51       		.byte	0x51
 2515 0daa 03       		.uleb128 0x3
 2516 0dab 0A       		.byte	0xa
 2517 0dac 0004     		.2byte	0x400
 2518 0dae 1F       		.uleb128 0x1f
 2519 0daf 01       		.uleb128 0x1
 2520 0db0 52       		.byte	0x52
 2521 0db1 02       		.uleb128 0x2
 2522 0db2 08       		.byte	0x8
 2523 0db3 9A       		.byte	0x9a
 2524 0db4 00       		.byte	0
 2525 0db5 1E       		.uleb128 0x1e
 2526 0db6 A2000000 		.4byte	.LVL12
 2527 0dba BC140000 		.4byte	0x14bc
 2528 0dbe D60D0000 		.4byte	0xdd6
 2529 0dc2 1F       		.uleb128 0x1f
 2530 0dc3 01       		.uleb128 0x1
 2531 0dc4 50       		.byte	0x50
 2532 0dc5 02       		.uleb128 0x2
 2533 0dc6 76       		.byte	0x76
 2534 0dc7 00       		.sleb128 0
 2535 0dc8 1F       		.uleb128 0x1f
 2536 0dc9 01       		.uleb128 0x1
 2537 0dca 51       		.byte	0x51
 2538 0dcb 03       		.uleb128 0x3
 2539 0dcc 0A       		.byte	0xa
 2540 0dcd 0020     		.2byte	0x2000
 2541 0dcf 1F       		.uleb128 0x1f
 2542 0dd0 01       		.uleb128 0x1
 2543 0dd1 52       		.byte	0x52
 2544 0dd2 02       		.uleb128 0x2
 2545 0dd3 08       		.byte	0x8
 2546 0dd4 9A       		.byte	0x9a
 2547 0dd5 00       		.byte	0
 2548 0dd6 1E       		.uleb128 0x1e
 2549 0dd7 AE000000 		.4byte	.LVL13
 2550 0ddb BC140000 		.4byte	0x14bc
 2551 0ddf F70D0000 		.4byte	0xdf7
 2552 0de3 1F       		.uleb128 0x1f
 2553 0de4 01       		.uleb128 0x1
 2554 0de5 50       		.byte	0x50
 2555 0de6 02       		.uleb128 0x2
 2556 0de7 76       		.byte	0x76
 2557 0de8 00       		.sleb128 0
 2558 0de9 1F       		.uleb128 0x1f
 2559 0dea 01       		.uleb128 0x1
 2560 0deb 51       		.byte	0x51
 2561 0dec 03       		.uleb128 0x3
 2562 0ded 0A       		.byte	0xa
 2563 0dee 0040     		.2byte	0x4000
 2564 0df0 1F       		.uleb128 0x1f
 2565 0df1 01       		.uleb128 0x1
ARM GAS  C:\Users\IDONNO~1\AppData\Local\Temp\ccFIblx2.s 			page 46


 2566 0df2 52       		.byte	0x52
 2567 0df3 02       		.uleb128 0x2
 2568 0df4 08       		.byte	0x8
 2569 0df5 9A       		.byte	0x9a
 2570 0df6 00       		.byte	0
 2571 0df7 1E       		.uleb128 0x1e
 2572 0df8 BA000000 		.4byte	.LVL14
 2573 0dfc BC140000 		.4byte	0x14bc
 2574 0e00 180E0000 		.4byte	0xe18
 2575 0e04 1F       		.uleb128 0x1f
 2576 0e05 01       		.uleb128 0x1
 2577 0e06 50       		.byte	0x50
 2578 0e07 02       		.uleb128 0x2
 2579 0e08 76       		.byte	0x76
 2580 0e09 00       		.sleb128 0
 2581 0e0a 1F       		.uleb128 0x1f
 2582 0e0b 01       		.uleb128 0x1
 2583 0e0c 51       		.byte	0x51
 2584 0e0d 03       		.uleb128 0x3
 2585 0e0e 0A       		.byte	0xa
 2586 0e0f 0080     		.2byte	0x8000
 2587 0e11 1F       		.uleb128 0x1f
 2588 0e12 01       		.uleb128 0x1
 2589 0e13 52       		.byte	0x52
 2590 0e14 02       		.uleb128 0x2
 2591 0e15 08       		.byte	0x8
 2592 0e16 9A       		.byte	0x9a
 2593 0e17 00       		.byte	0
 2594 0e18 1E       		.uleb128 0x1e
 2595 0e19 C6000000 		.4byte	.LVL15
 2596 0e1d BC140000 		.4byte	0x14bc
 2597 0e21 390E0000 		.4byte	0xe39
 2598 0e25 1F       		.uleb128 0x1f
 2599 0e26 01       		.uleb128 0x1
 2600 0e27 50       		.byte	0x50
 2601 0e28 02       		.uleb128 0x2
 2602 0e29 74       		.byte	0x74
 2603 0e2a 00       		.sleb128 0
 2604 0e2b 1F       		.uleb128 0x1f
 2605 0e2c 01       		.uleb128 0x1
 2606 0e2d 51       		.byte	0x51
 2607 0e2e 03       		.uleb128 0x3
 2608 0e2f 0A       		.byte	0xa
 2609 0e30 0020     		.2byte	0x2000
 2610 0e32 1F       		.uleb128 0x1f
 2611 0e33 01       		.uleb128 0x1
 2612 0e34 52       		.byte	0x52
 2613 0e35 02       		.uleb128 0x2
 2614 0e36 08       		.byte	0x8
 2615 0e37 20       		.byte	0x20
 2616 0e38 00       		.byte	0
 2617 0e39 1E       		.uleb128 0x1e
 2618 0e3a D2000000 		.4byte	.LVL16
 2619 0e3e BC140000 		.4byte	0x14bc
 2620 0e42 5A0E0000 		.4byte	0xe5a
 2621 0e46 1F       		.uleb128 0x1f
 2622 0e47 01       		.uleb128 0x1
ARM GAS  C:\Users\IDONNO~1\AppData\Local\Temp\ccFIblx2.s 			page 47


 2623 0e48 50       		.byte	0x50
 2624 0e49 02       		.uleb128 0x2
 2625 0e4a 74       		.byte	0x74
 2626 0e4b 00       		.sleb128 0
 2627 0e4c 1F       		.uleb128 0x1f
 2628 0e4d 01       		.uleb128 0x1
 2629 0e4e 51       		.byte	0x51
 2630 0e4f 03       		.uleb128 0x3
 2631 0e50 0A       		.byte	0xa
 2632 0e51 0040     		.2byte	0x4000
 2633 0e53 1F       		.uleb128 0x1f
 2634 0e54 01       		.uleb128 0x1
 2635 0e55 52       		.byte	0x52
 2636 0e56 02       		.uleb128 0x2
 2637 0e57 08       		.byte	0x8
 2638 0e58 20       		.byte	0x20
 2639 0e59 00       		.byte	0
 2640 0e5a 1E       		.uleb128 0x1e
 2641 0e5b DE000000 		.4byte	.LVL17
 2642 0e5f BC140000 		.4byte	0x14bc
 2643 0e63 7B0E0000 		.4byte	0xe7b
 2644 0e67 1F       		.uleb128 0x1f
 2645 0e68 01       		.uleb128 0x1
 2646 0e69 50       		.byte	0x50
 2647 0e6a 02       		.uleb128 0x2
 2648 0e6b 74       		.byte	0x74
 2649 0e6c 00       		.sleb128 0
 2650 0e6d 1F       		.uleb128 0x1f
 2651 0e6e 01       		.uleb128 0x1
 2652 0e6f 51       		.byte	0x51
 2653 0e70 03       		.uleb128 0x3
 2654 0e71 0A       		.byte	0xa
 2655 0e72 0080     		.2byte	0x8000
 2656 0e74 1F       		.uleb128 0x1f
 2657 0e75 01       		.uleb128 0x1
 2658 0e76 52       		.byte	0x52
 2659 0e77 02       		.uleb128 0x2
 2660 0e78 08       		.byte	0x8
 2661 0e79 20       		.byte	0x20
 2662 0e7a 00       		.byte	0
 2663 0e7b 1E       		.uleb128 0x1e
 2664 0e7c E8000000 		.4byte	.LVL18
 2665 0e80 BC140000 		.4byte	0x14bc
 2666 0e84 990E0000 		.4byte	0xe99
 2667 0e88 1F       		.uleb128 0x1f
 2668 0e89 01       		.uleb128 0x1
 2669 0e8a 50       		.byte	0x50
 2670 0e8b 02       		.uleb128 0x2
 2671 0e8c 75       		.byte	0x75
 2672 0e8d 00       		.sleb128 0
 2673 0e8e 1F       		.uleb128 0x1f
 2674 0e8f 01       		.uleb128 0x1
 2675 0e90 51       		.byte	0x51
 2676 0e91 01       		.uleb128 0x1
 2677 0e92 31       		.byte	0x31
 2678 0e93 1F       		.uleb128 0x1f
 2679 0e94 01       		.uleb128 0x1
ARM GAS  C:\Users\IDONNO~1\AppData\Local\Temp\ccFIblx2.s 			page 48


 2680 0e95 52       		.byte	0x52
 2681 0e96 01       		.uleb128 0x1
 2682 0e97 33       		.byte	0x33
 2683 0e98 00       		.byte	0
 2684 0e99 1E       		.uleb128 0x1e
 2685 0e9a F2000000 		.4byte	.LVL19
 2686 0e9e BC140000 		.4byte	0x14bc
 2687 0ea2 B70E0000 		.4byte	0xeb7
 2688 0ea6 1F       		.uleb128 0x1f
 2689 0ea7 01       		.uleb128 0x1
 2690 0ea8 50       		.byte	0x50
 2691 0ea9 02       		.uleb128 0x2
 2692 0eaa 75       		.byte	0x75
 2693 0eab 00       		.sleb128 0
 2694 0eac 1F       		.uleb128 0x1f
 2695 0ead 01       		.uleb128 0x1
 2696 0eae 51       		.byte	0x51
 2697 0eaf 01       		.uleb128 0x1
 2698 0eb0 32       		.byte	0x32
 2699 0eb1 1F       		.uleb128 0x1f
 2700 0eb2 01       		.uleb128 0x1
 2701 0eb3 52       		.byte	0x52
 2702 0eb4 01       		.uleb128 0x1
 2703 0eb5 33       		.byte	0x33
 2704 0eb6 00       		.byte	0
 2705 0eb7 1E       		.uleb128 0x1e
 2706 0eb8 FC000000 		.4byte	.LVL20
 2707 0ebc BC140000 		.4byte	0x14bc
 2708 0ec0 D50E0000 		.4byte	0xed5
 2709 0ec4 1F       		.uleb128 0x1f
 2710 0ec5 01       		.uleb128 0x1
 2711 0ec6 50       		.byte	0x50
 2712 0ec7 02       		.uleb128 0x2
 2713 0ec8 75       		.byte	0x75
 2714 0ec9 00       		.sleb128 0
 2715 0eca 1F       		.uleb128 0x1f
 2716 0ecb 01       		.uleb128 0x1
 2717 0ecc 51       		.byte	0x51
 2718 0ecd 01       		.uleb128 0x1
 2719 0ece 34       		.byte	0x34
 2720 0ecf 1F       		.uleb128 0x1f
 2721 0ed0 01       		.uleb128 0x1
 2722 0ed1 52       		.byte	0x52
 2723 0ed2 01       		.uleb128 0x1
 2724 0ed3 33       		.byte	0x33
 2725 0ed4 00       		.byte	0
 2726 0ed5 1E       		.uleb128 0x1e
 2727 0ed6 06010000 		.4byte	.LVL21
 2728 0eda BC140000 		.4byte	0x14bc
 2729 0ede F30E0000 		.4byte	0xef3
 2730 0ee2 1F       		.uleb128 0x1f
 2731 0ee3 01       		.uleb128 0x1
 2732 0ee4 50       		.byte	0x50
 2733 0ee5 02       		.uleb128 0x2
 2734 0ee6 75       		.byte	0x75
 2735 0ee7 00       		.sleb128 0
 2736 0ee8 1F       		.uleb128 0x1f
ARM GAS  C:\Users\IDONNO~1\AppData\Local\Temp\ccFIblx2.s 			page 49


 2737 0ee9 01       		.uleb128 0x1
 2738 0eea 51       		.byte	0x51
 2739 0eeb 01       		.uleb128 0x1
 2740 0eec 38       		.byte	0x38
 2741 0eed 1F       		.uleb128 0x1f
 2742 0eee 01       		.uleb128 0x1
 2743 0eef 52       		.byte	0x52
 2744 0ef0 01       		.uleb128 0x1
 2745 0ef1 33       		.byte	0x33
 2746 0ef2 00       		.byte	0
 2747 0ef3 1E       		.uleb128 0x1e
 2748 0ef4 10010000 		.4byte	.LVL22
 2749 0ef8 BC140000 		.4byte	0x14bc
 2750 0efc 110F0000 		.4byte	0xf11
 2751 0f00 1F       		.uleb128 0x1f
 2752 0f01 01       		.uleb128 0x1
 2753 0f02 50       		.byte	0x50
 2754 0f03 02       		.uleb128 0x2
 2755 0f04 75       		.byte	0x75
 2756 0f05 00       		.sleb128 0
 2757 0f06 1F       		.uleb128 0x1f
 2758 0f07 01       		.uleb128 0x1
 2759 0f08 51       		.byte	0x51
 2760 0f09 01       		.uleb128 0x1
 2761 0f0a 40       		.byte	0x40
 2762 0f0b 1F       		.uleb128 0x1f
 2763 0f0c 01       		.uleb128 0x1
 2764 0f0d 52       		.byte	0x52
 2765 0f0e 01       		.uleb128 0x1
 2766 0f0f 33       		.byte	0x33
 2767 0f10 00       		.byte	0
 2768 0f11 1E       		.uleb128 0x1e
 2769 0f12 1A010000 		.4byte	.LVL23
 2770 0f16 BC140000 		.4byte	0x14bc
 2771 0f1a 300F0000 		.4byte	0xf30
 2772 0f1e 1F       		.uleb128 0x1f
 2773 0f1f 01       		.uleb128 0x1
 2774 0f20 50       		.byte	0x50
 2775 0f21 02       		.uleb128 0x2
 2776 0f22 75       		.byte	0x75
 2777 0f23 00       		.sleb128 0
 2778 0f24 1F       		.uleb128 0x1f
 2779 0f25 01       		.uleb128 0x1
 2780 0f26 51       		.byte	0x51
 2781 0f27 02       		.uleb128 0x2
 2782 0f28 08       		.byte	0x8
 2783 0f29 20       		.byte	0x20
 2784 0f2a 1F       		.uleb128 0x1f
 2785 0f2b 01       		.uleb128 0x1
 2786 0f2c 52       		.byte	0x52
 2787 0f2d 01       		.uleb128 0x1
 2788 0f2e 33       		.byte	0x33
 2789 0f2f 00       		.byte	0
 2790 0f30 1E       		.uleb128 0x1e
 2791 0f31 24010000 		.4byte	.LVL24
 2792 0f35 BC140000 		.4byte	0x14bc
 2793 0f39 4F0F0000 		.4byte	0xf4f
ARM GAS  C:\Users\IDONNO~1\AppData\Local\Temp\ccFIblx2.s 			page 50


 2794 0f3d 1F       		.uleb128 0x1f
 2795 0f3e 01       		.uleb128 0x1
 2796 0f3f 50       		.byte	0x50
 2797 0f40 02       		.uleb128 0x2
 2798 0f41 75       		.byte	0x75
 2799 0f42 00       		.sleb128 0
 2800 0f43 1F       		.uleb128 0x1f
 2801 0f44 01       		.uleb128 0x1
 2802 0f45 51       		.byte	0x51
 2803 0f46 02       		.uleb128 0x2
 2804 0f47 77       		.byte	0x77
 2805 0f48 00       		.sleb128 0
 2806 0f49 1F       		.uleb128 0x1f
 2807 0f4a 01       		.uleb128 0x1
 2808 0f4b 52       		.byte	0x52
 2809 0f4c 01       		.uleb128 0x1
 2810 0f4d 33       		.byte	0x33
 2811 0f4e 00       		.byte	0
 2812 0f4f 1E       		.uleb128 0x1e
 2813 0f50 2E010000 		.4byte	.LVL25
 2814 0f54 BC140000 		.4byte	0x14bc
 2815 0f58 6E0F0000 		.4byte	0xf6e
 2816 0f5c 1F       		.uleb128 0x1f
 2817 0f5d 01       		.uleb128 0x1
 2818 0f5e 50       		.byte	0x50
 2819 0f5f 02       		.uleb128 0x2
 2820 0f60 75       		.byte	0x75
 2821 0f61 00       		.sleb128 0
 2822 0f62 1F       		.uleb128 0x1f
 2823 0f63 01       		.uleb128 0x1
 2824 0f64 51       		.byte	0x51
 2825 0f65 02       		.uleb128 0x2
 2826 0f66 78       		.byte	0x78
 2827 0f67 00       		.sleb128 0
 2828 0f68 1F       		.uleb128 0x1f
 2829 0f69 01       		.uleb128 0x1
 2830 0f6a 52       		.byte	0x52
 2831 0f6b 01       		.uleb128 0x1
 2832 0f6c 33       		.byte	0x33
 2833 0f6d 00       		.byte	0
 2834 0f6e 1E       		.uleb128 0x1e
 2835 0f6f 38010000 		.4byte	.LVL26
 2836 0f73 BC140000 		.4byte	0x14bc
 2837 0f77 8C0F0000 		.4byte	0xf8c
 2838 0f7b 1F       		.uleb128 0x1f
 2839 0f7c 01       		.uleb128 0x1
 2840 0f7d 50       		.byte	0x50
 2841 0f7e 02       		.uleb128 0x2
 2842 0f7f 76       		.byte	0x76
 2843 0f80 00       		.sleb128 0
 2844 0f81 1F       		.uleb128 0x1f
 2845 0f82 01       		.uleb128 0x1
 2846 0f83 51       		.byte	0x51
 2847 0f84 01       		.uleb128 0x1
 2848 0f85 31       		.byte	0x31
 2849 0f86 1F       		.uleb128 0x1f
 2850 0f87 01       		.uleb128 0x1
ARM GAS  C:\Users\IDONNO~1\AppData\Local\Temp\ccFIblx2.s 			page 51


 2851 0f88 52       		.byte	0x52
 2852 0f89 01       		.uleb128 0x1
 2853 0f8a 33       		.byte	0x33
 2854 0f8b 00       		.byte	0
 2855 0f8c 1E       		.uleb128 0x1e
 2856 0f8d 42010000 		.4byte	.LVL27
 2857 0f91 BC140000 		.4byte	0x14bc
 2858 0f95 AA0F0000 		.4byte	0xfaa
 2859 0f99 1F       		.uleb128 0x1f
 2860 0f9a 01       		.uleb128 0x1
 2861 0f9b 50       		.byte	0x50
 2862 0f9c 02       		.uleb128 0x2
 2863 0f9d 76       		.byte	0x76
 2864 0f9e 00       		.sleb128 0
 2865 0f9f 1F       		.uleb128 0x1f
 2866 0fa0 01       		.uleb128 0x1
 2867 0fa1 51       		.byte	0x51
 2868 0fa2 01       		.uleb128 0x1
 2869 0fa3 32       		.byte	0x32
 2870 0fa4 1F       		.uleb128 0x1f
 2871 0fa5 01       		.uleb128 0x1
 2872 0fa6 52       		.byte	0x52
 2873 0fa7 01       		.uleb128 0x1
 2874 0fa8 33       		.byte	0x33
 2875 0fa9 00       		.byte	0
 2876 0faa 1E       		.uleb128 0x1e
 2877 0fab 4C010000 		.4byte	.LVL28
 2878 0faf BC140000 		.4byte	0x14bc
 2879 0fb3 C80F0000 		.4byte	0xfc8
 2880 0fb7 1F       		.uleb128 0x1f
 2881 0fb8 01       		.uleb128 0x1
 2882 0fb9 50       		.byte	0x50
 2883 0fba 02       		.uleb128 0x2
 2884 0fbb 74       		.byte	0x74
 2885 0fbc 00       		.sleb128 0
 2886 0fbd 1F       		.uleb128 0x1f
 2887 0fbe 01       		.uleb128 0x1
 2888 0fbf 51       		.byte	0x51
 2889 0fc0 01       		.uleb128 0x1
 2890 0fc1 31       		.byte	0x31
 2891 0fc2 1F       		.uleb128 0x1f
 2892 0fc3 01       		.uleb128 0x1
 2893 0fc4 52       		.byte	0x52
 2894 0fc5 01       		.uleb128 0x1
 2895 0fc6 33       		.byte	0x33
 2896 0fc7 00       		.byte	0
 2897 0fc8 1E       		.uleb128 0x1e
 2898 0fc9 56010000 		.4byte	.LVL29
 2899 0fcd BC140000 		.4byte	0x14bc
 2900 0fd1 E60F0000 		.4byte	0xfe6
 2901 0fd5 1F       		.uleb128 0x1f
 2902 0fd6 01       		.uleb128 0x1
 2903 0fd7 50       		.byte	0x50
 2904 0fd8 02       		.uleb128 0x2
 2905 0fd9 74       		.byte	0x74
 2906 0fda 00       		.sleb128 0
 2907 0fdb 1F       		.uleb128 0x1f
ARM GAS  C:\Users\IDONNO~1\AppData\Local\Temp\ccFIblx2.s 			page 52


 2908 0fdc 01       		.uleb128 0x1
 2909 0fdd 51       		.byte	0x51
 2910 0fde 01       		.uleb128 0x1
 2911 0fdf 32       		.byte	0x32
 2912 0fe0 1F       		.uleb128 0x1f
 2913 0fe1 01       		.uleb128 0x1
 2914 0fe2 52       		.byte	0x52
 2915 0fe3 01       		.uleb128 0x1
 2916 0fe4 33       		.byte	0x33
 2917 0fe5 00       		.byte	0
 2918 0fe6 1E       		.uleb128 0x1e
 2919 0fe7 60010000 		.4byte	.LVL30
 2920 0feb BC140000 		.4byte	0x14bc
 2921 0fef 04100000 		.4byte	0x1004
 2922 0ff3 1F       		.uleb128 0x1f
 2923 0ff4 01       		.uleb128 0x1
 2924 0ff5 50       		.byte	0x50
 2925 0ff6 02       		.uleb128 0x2
 2926 0ff7 74       		.byte	0x74
 2927 0ff8 00       		.sleb128 0
 2928 0ff9 1F       		.uleb128 0x1f
 2929 0ffa 01       		.uleb128 0x1
 2930 0ffb 51       		.byte	0x51
 2931 0ffc 01       		.uleb128 0x1
 2932 0ffd 34       		.byte	0x34
 2933 0ffe 1F       		.uleb128 0x1f
 2934 0fff 01       		.uleb128 0x1
 2935 1000 52       		.byte	0x52
 2936 1001 01       		.uleb128 0x1
 2937 1002 33       		.byte	0x33
 2938 1003 00       		.byte	0
 2939 1004 1E       		.uleb128 0x1e
 2940 1005 6A010000 		.4byte	.LVL31
 2941 1009 BC140000 		.4byte	0x14bc
 2942 100d 22100000 		.4byte	0x1022
 2943 1011 1F       		.uleb128 0x1f
 2944 1012 01       		.uleb128 0x1
 2945 1013 50       		.byte	0x50
 2946 1014 02       		.uleb128 0x2
 2947 1015 74       		.byte	0x74
 2948 1016 00       		.sleb128 0
 2949 1017 1F       		.uleb128 0x1f
 2950 1018 01       		.uleb128 0x1
 2951 1019 51       		.byte	0x51
 2952 101a 01       		.uleb128 0x1
 2953 101b 38       		.byte	0x38
 2954 101c 1F       		.uleb128 0x1f
 2955 101d 01       		.uleb128 0x1
 2956 101e 52       		.byte	0x52
 2957 101f 01       		.uleb128 0x1
 2958 1020 33       		.byte	0x33
 2959 1021 00       		.byte	0
 2960 1022 1E       		.uleb128 0x1e
 2961 1023 74010000 		.4byte	.LVL32
 2962 1027 BC140000 		.4byte	0x14bc
 2963 102b 40100000 		.4byte	0x1040
 2964 102f 1F       		.uleb128 0x1f
ARM GAS  C:\Users\IDONNO~1\AppData\Local\Temp\ccFIblx2.s 			page 53


 2965 1030 01       		.uleb128 0x1
 2966 1031 50       		.byte	0x50
 2967 1032 02       		.uleb128 0x2
 2968 1033 74       		.byte	0x74
 2969 1034 00       		.sleb128 0
 2970 1035 1F       		.uleb128 0x1f
 2971 1036 01       		.uleb128 0x1
 2972 1037 51       		.byte	0x51
 2973 1038 01       		.uleb128 0x1
 2974 1039 40       		.byte	0x40
 2975 103a 1F       		.uleb128 0x1f
 2976 103b 01       		.uleb128 0x1
 2977 103c 52       		.byte	0x52
 2978 103d 01       		.uleb128 0x1
 2979 103e 33       		.byte	0x33
 2980 103f 00       		.byte	0
 2981 1040 20       		.uleb128 0x20
 2982 1041 82010000 		.4byte	.LVL33
 2983 1045 BC140000 		.4byte	0x14bc
 2984 1049 1F       		.uleb128 0x1f
 2985 104a 01       		.uleb128 0x1
 2986 104b 50       		.byte	0x50
 2987 104c 05       		.uleb128 0x5
 2988 104d 0C       		.byte	0xc
 2989 104e 00080240 		.4byte	0x40020800
 2990 1052 1F       		.uleb128 0x1f
 2991 1053 01       		.uleb128 0x1
 2992 1054 51       		.byte	0x51
 2993 1055 02       		.uleb128 0x2
 2994 1056 08       		.byte	0x8
 2995 1057 20       		.byte	0x20
 2996 1058 1F       		.uleb128 0x1f
 2997 1059 01       		.uleb128 0x1
 2998 105a 52       		.byte	0x52
 2999 105b 01       		.uleb128 0x1
 3000 105c 33       		.byte	0x33
 3001 105d 00       		.byte	0
 3002 105e 00       		.byte	0
 3003 105f 1D       		.uleb128 0x1d
 3004 1060 EC000000 		.4byte	.LASF184
 3005 1064 01       		.byte	0x1
 3006 1065 6A       		.byte	0x6a
 3007 1066 00000000 		.4byte	.LFB257
 3008 106a A8000000 		.4byte	.LFE257-.LFB257
 3009 106e 01       		.uleb128 0x1
 3010 106f 9C       		.byte	0x9c
 3011 1070 18120000 		.4byte	0x1218
 3012 1074 1E       		.uleb128 0x1e
 3013 1075 14000000 		.4byte	.LVL34
 3014 1079 C8140000 		.4byte	0x14c8
 3015 107d 97100000 		.4byte	0x1097
 3016 1081 1F       		.uleb128 0x1f
 3017 1082 01       		.uleb128 0x1
 3018 1083 50       		.byte	0x50
 3019 1084 02       		.uleb128 0x2
 3020 1085 76       		.byte	0x76
 3021 1086 00       		.sleb128 0
ARM GAS  C:\Users\IDONNO~1\AppData\Local\Temp\ccFIblx2.s 			page 54


 3022 1087 1F       		.uleb128 0x1f
 3023 1088 01       		.uleb128 0x1
 3024 1089 51       		.byte	0x51
 3025 108a 01       		.uleb128 0x1
 3026 108b 30       		.byte	0x30
 3027 108c 1F       		.uleb128 0x1f
 3028 108d 01       		.uleb128 0x1
 3029 108e 52       		.byte	0x52
 3030 108f 01       		.uleb128 0x1
 3031 1090 31       		.byte	0x31
 3032 1091 1F       		.uleb128 0x1f
 3033 1092 01       		.uleb128 0x1
 3034 1093 53       		.byte	0x53
 3035 1094 01       		.uleb128 0x1
 3036 1095 31       		.byte	0x31
 3037 1096 00       		.byte	0
 3038 1097 1E       		.uleb128 0x1e
 3039 1098 20000000 		.4byte	.LVL35
 3040 109c C8140000 		.4byte	0x14c8
 3041 10a0 BA100000 		.4byte	0x10ba
 3042 10a4 1F       		.uleb128 0x1f
 3043 10a5 01       		.uleb128 0x1
 3044 10a6 50       		.byte	0x50
 3045 10a7 02       		.uleb128 0x2
 3046 10a8 76       		.byte	0x76
 3047 10a9 00       		.sleb128 0
 3048 10aa 1F       		.uleb128 0x1f
 3049 10ab 01       		.uleb128 0x1
 3050 10ac 51       		.byte	0x51
 3051 10ad 01       		.uleb128 0x1
 3052 10ae 38       		.byte	0x38
 3053 10af 1F       		.uleb128 0x1f
 3054 10b0 01       		.uleb128 0x1
 3055 10b1 52       		.byte	0x52
 3056 10b2 01       		.uleb128 0x1
 3057 10b3 32       		.byte	0x32
 3058 10b4 1F       		.uleb128 0x1f
 3059 10b5 01       		.uleb128 0x1
 3060 10b6 53       		.byte	0x53
 3061 10b7 01       		.uleb128 0x1
 3062 10b8 31       		.byte	0x31
 3063 10b9 00       		.byte	0
 3064 10ba 1E       		.uleb128 0x1e
 3065 10bb 2C000000 		.4byte	.LVL36
 3066 10bf C8140000 		.4byte	0x14c8
 3067 10c3 DD100000 		.4byte	0x10dd
 3068 10c7 1F       		.uleb128 0x1f
 3069 10c8 01       		.uleb128 0x1
 3070 10c9 50       		.byte	0x50
 3071 10ca 02       		.uleb128 0x2
 3072 10cb 76       		.byte	0x76
 3073 10cc 00       		.sleb128 0
 3074 10cd 1F       		.uleb128 0x1f
 3075 10ce 01       		.uleb128 0x1
 3076 10cf 51       		.byte	0x51
 3077 10d0 01       		.uleb128 0x1
 3078 10d1 3A       		.byte	0x3a
ARM GAS  C:\Users\IDONNO~1\AppData\Local\Temp\ccFIblx2.s 			page 55


 3079 10d2 1F       		.uleb128 0x1f
 3080 10d3 01       		.uleb128 0x1
 3081 10d4 52       		.byte	0x52
 3082 10d5 01       		.uleb128 0x1
 3083 10d6 33       		.byte	0x33
 3084 10d7 1F       		.uleb128 0x1f
 3085 10d8 01       		.uleb128 0x1
 3086 10d9 53       		.byte	0x53
 3087 10da 01       		.uleb128 0x1
 3088 10db 31       		.byte	0x31
 3089 10dc 00       		.byte	0
 3090 10dd 1E       		.uleb128 0x1e
 3091 10de 38000000 		.4byte	.LVL37
 3092 10e2 C8140000 		.4byte	0x14c8
 3093 10e6 00110000 		.4byte	0x1100
 3094 10ea 1F       		.uleb128 0x1f
 3095 10eb 01       		.uleb128 0x1
 3096 10ec 50       		.byte	0x50
 3097 10ed 02       		.uleb128 0x2
 3098 10ee 76       		.byte	0x76
 3099 10ef 00       		.sleb128 0
 3100 10f0 1F       		.uleb128 0x1f
 3101 10f1 01       		.uleb128 0x1
 3102 10f2 51       		.byte	0x51
 3103 10f3 01       		.uleb128 0x1
 3104 10f4 34       		.byte	0x34
 3105 10f5 1F       		.uleb128 0x1f
 3106 10f6 01       		.uleb128 0x1
 3107 10f7 52       		.byte	0x52
 3108 10f8 01       		.uleb128 0x1
 3109 10f9 34       		.byte	0x34
 3110 10fa 1F       		.uleb128 0x1f
 3111 10fb 01       		.uleb128 0x1
 3112 10fc 53       		.byte	0x53
 3113 10fd 01       		.uleb128 0x1
 3114 10fe 31       		.byte	0x31
 3115 10ff 00       		.byte	0
 3116 1100 1E       		.uleb128 0x1e
 3117 1101 44000000 		.4byte	.LVL38
 3118 1105 C8140000 		.4byte	0x14c8
 3119 1109 23110000 		.4byte	0x1123
 3120 110d 1F       		.uleb128 0x1f
 3121 110e 01       		.uleb128 0x1
 3122 110f 50       		.byte	0x50
 3123 1110 02       		.uleb128 0x2
 3124 1111 75       		.byte	0x75
 3125 1112 00       		.sleb128 0
 3126 1113 1F       		.uleb128 0x1f
 3127 1114 01       		.uleb128 0x1
 3128 1115 51       		.byte	0x51
 3129 1116 01       		.uleb128 0x1
 3130 1117 31       		.byte	0x31
 3131 1118 1F       		.uleb128 0x1f
 3132 1119 01       		.uleb128 0x1
 3133 111a 52       		.byte	0x52
 3134 111b 01       		.uleb128 0x1
 3135 111c 31       		.byte	0x31
ARM GAS  C:\Users\IDONNO~1\AppData\Local\Temp\ccFIblx2.s 			page 56


 3136 111d 1F       		.uleb128 0x1f
 3137 111e 01       		.uleb128 0x1
 3138 111f 53       		.byte	0x53
 3139 1120 01       		.uleb128 0x1
 3140 1121 31       		.byte	0x31
 3141 1122 00       		.byte	0
 3142 1123 1E       		.uleb128 0x1e
 3143 1124 50000000 		.4byte	.LVL39
 3144 1128 C8140000 		.4byte	0x14c8
 3145 112c 46110000 		.4byte	0x1146
 3146 1130 1F       		.uleb128 0x1f
 3147 1131 01       		.uleb128 0x1
 3148 1132 50       		.byte	0x50
 3149 1133 02       		.uleb128 0x2
 3150 1134 75       		.byte	0x75
 3151 1135 00       		.sleb128 0
 3152 1136 1F       		.uleb128 0x1f
 3153 1137 01       		.uleb128 0x1
 3154 1138 51       		.byte	0x51
 3155 1139 01       		.uleb128 0x1
 3156 113a 39       		.byte	0x39
 3157 113b 1F       		.uleb128 0x1f
 3158 113c 01       		.uleb128 0x1
 3159 113d 52       		.byte	0x52
 3160 113e 01       		.uleb128 0x1
 3161 113f 32       		.byte	0x32
 3162 1140 1F       		.uleb128 0x1f
 3163 1141 01       		.uleb128 0x1
 3164 1142 53       		.byte	0x53
 3165 1143 01       		.uleb128 0x1
 3166 1144 31       		.byte	0x31
 3167 1145 00       		.byte	0
 3168 1146 1E       		.uleb128 0x1e
 3169 1147 5C000000 		.4byte	.LVL40
 3170 114b C8140000 		.4byte	0x14c8
 3171 114f 69110000 		.4byte	0x1169
 3172 1153 1F       		.uleb128 0x1f
 3173 1154 01       		.uleb128 0x1
 3174 1155 50       		.byte	0x50
 3175 1156 02       		.uleb128 0x2
 3176 1157 75       		.byte	0x75
 3177 1158 00       		.sleb128 0
 3178 1159 1F       		.uleb128 0x1f
 3179 115a 01       		.uleb128 0x1
 3180 115b 51       		.byte	0x51
 3181 115c 01       		.uleb128 0x1
 3182 115d 3B       		.byte	0x3b
 3183 115e 1F       		.uleb128 0x1f
 3184 115f 01       		.uleb128 0x1
 3185 1160 52       		.byte	0x52
 3186 1161 01       		.uleb128 0x1
 3187 1162 33       		.byte	0x33
 3188 1163 1F       		.uleb128 0x1f
 3189 1164 01       		.uleb128 0x1
 3190 1165 53       		.byte	0x53
 3191 1166 01       		.uleb128 0x1
 3192 1167 31       		.byte	0x31
ARM GAS  C:\Users\IDONNO~1\AppData\Local\Temp\ccFIblx2.s 			page 57


 3193 1168 00       		.byte	0
 3194 1169 1E       		.uleb128 0x1e
 3195 116a 68000000 		.4byte	.LVL41
 3196 116e C8140000 		.4byte	0x14c8
 3197 1172 8C110000 		.4byte	0x118c
 3198 1176 1F       		.uleb128 0x1f
 3199 1177 01       		.uleb128 0x1
 3200 1178 50       		.byte	0x50
 3201 1179 02       		.uleb128 0x2
 3202 117a 75       		.byte	0x75
 3203 117b 00       		.sleb128 0
 3204 117c 1F       		.uleb128 0x1f
 3205 117d 01       		.uleb128 0x1
 3206 117e 51       		.byte	0x51
 3207 117f 01       		.uleb128 0x1
 3208 1180 3F       		.byte	0x3f
 3209 1181 1F       		.uleb128 0x1f
 3210 1182 01       		.uleb128 0x1
 3211 1183 52       		.byte	0x52
 3212 1184 01       		.uleb128 0x1
 3213 1185 34       		.byte	0x34
 3214 1186 1F       		.uleb128 0x1f
 3215 1187 01       		.uleb128 0x1
 3216 1188 53       		.byte	0x53
 3217 1189 01       		.uleb128 0x1
 3218 118a 31       		.byte	0x31
 3219 118b 00       		.byte	0
 3220 118c 1E       		.uleb128 0x1e
 3221 118d 74000000 		.4byte	.LVL42
 3222 1191 C8140000 		.4byte	0x14c8
 3223 1195 AF110000 		.4byte	0x11af
 3224 1199 1F       		.uleb128 0x1f
 3225 119a 01       		.uleb128 0x1
 3226 119b 50       		.byte	0x50
 3227 119c 02       		.uleb128 0x2
 3228 119d 74       		.byte	0x74
 3229 119e 00       		.sleb128 0
 3230 119f 1F       		.uleb128 0x1f
 3231 11a0 01       		.uleb128 0x1
 3232 11a1 51       		.byte	0x51
 3233 11a2 01       		.uleb128 0x1
 3234 11a3 32       		.byte	0x32
 3235 11a4 1F       		.uleb128 0x1f
 3236 11a5 01       		.uleb128 0x1
 3237 11a6 52       		.byte	0x52
 3238 11a7 01       		.uleb128 0x1
 3239 11a8 31       		.byte	0x31
 3240 11a9 1F       		.uleb128 0x1f
 3241 11aa 01       		.uleb128 0x1
 3242 11ab 53       		.byte	0x53
 3243 11ac 01       		.uleb128 0x1
 3244 11ad 31       		.byte	0x31
 3245 11ae 00       		.byte	0
 3246 11af 1E       		.uleb128 0x1e
 3247 11b0 80000000 		.4byte	.LVL43
 3248 11b4 C8140000 		.4byte	0x14c8
 3249 11b8 D2110000 		.4byte	0x11d2
ARM GAS  C:\Users\IDONNO~1\AppData\Local\Temp\ccFIblx2.s 			page 58


 3250 11bc 1F       		.uleb128 0x1f
 3251 11bd 01       		.uleb128 0x1
 3252 11be 50       		.byte	0x50
 3253 11bf 02       		.uleb128 0x2
 3254 11c0 74       		.byte	0x74
 3255 11c1 00       		.sleb128 0
 3256 11c2 1F       		.uleb128 0x1f
 3257 11c3 01       		.uleb128 0x1
 3258 11c4 51       		.byte	0x51
 3259 11c5 01       		.uleb128 0x1
 3260 11c6 33       		.byte	0x33
 3261 11c7 1F       		.uleb128 0x1f
 3262 11c8 01       		.uleb128 0x1
 3263 11c9 52       		.byte	0x52
 3264 11ca 01       		.uleb128 0x1
 3265 11cb 32       		.byte	0x32
 3266 11cc 1F       		.uleb128 0x1f
 3267 11cd 01       		.uleb128 0x1
 3268 11ce 53       		.byte	0x53
 3269 11cf 01       		.uleb128 0x1
 3270 11d0 31       		.byte	0x31
 3271 11d1 00       		.byte	0
 3272 11d2 1E       		.uleb128 0x1e
 3273 11d3 8C000000 		.4byte	.LVL44
 3274 11d7 C8140000 		.4byte	0x14c8
 3275 11db F5110000 		.4byte	0x11f5
 3276 11df 1F       		.uleb128 0x1f
 3277 11e0 01       		.uleb128 0x1
 3278 11e1 50       		.byte	0x50
 3279 11e2 02       		.uleb128 0x2
 3280 11e3 74       		.byte	0x74
 3281 11e4 00       		.sleb128 0
 3282 11e5 1F       		.uleb128 0x1f
 3283 11e6 01       		.uleb128 0x1
 3284 11e7 51       		.byte	0x51
 3285 11e8 01       		.uleb128 0x1
 3286 11e9 3C       		.byte	0x3c
 3287 11ea 1F       		.uleb128 0x1f
 3288 11eb 01       		.uleb128 0x1
 3289 11ec 52       		.byte	0x52
 3290 11ed 01       		.uleb128 0x1
 3291 11ee 33       		.byte	0x33
 3292 11ef 1F       		.uleb128 0x1f
 3293 11f0 01       		.uleb128 0x1
 3294 11f1 53       		.byte	0x53
 3295 11f2 01       		.uleb128 0x1
 3296 11f3 31       		.byte	0x31
 3297 11f4 00       		.byte	0
 3298 11f5 20       		.uleb128 0x20
 3299 11f6 9C000000 		.4byte	.LVL45
 3300 11fa C8140000 		.4byte	0x14c8
 3301 11fe 1F       		.uleb128 0x1f
 3302 11ff 01       		.uleb128 0x1
 3303 1200 50       		.byte	0x50
 3304 1201 05       		.uleb128 0x5
 3305 1202 0C       		.byte	0xc
 3306 1203 00220140 		.4byte	0x40012200
ARM GAS  C:\Users\IDONNO~1\AppData\Local\Temp\ccFIblx2.s 			page 59


 3307 1207 1F       		.uleb128 0x1f
 3308 1208 01       		.uleb128 0x1
 3309 1209 51       		.byte	0x51
 3310 120a 01       		.uleb128 0x1
 3311 120b 35       		.byte	0x35
 3312 120c 1F       		.uleb128 0x1f
 3313 120d 01       		.uleb128 0x1
 3314 120e 52       		.byte	0x52
 3315 120f 01       		.uleb128 0x1
 3316 1210 34       		.byte	0x34
 3317 1211 1F       		.uleb128 0x1f
 3318 1212 01       		.uleb128 0x1
 3319 1213 53       		.byte	0x53
 3320 1214 01       		.uleb128 0x1
 3321 1215 31       		.byte	0x31
 3322 1216 00       		.byte	0
 3323 1217 00       		.byte	0
 3324 1218 1D       		.uleb128 0x1d
 3325 1219 57020000 		.4byte	.LASF185
 3326 121d 01       		.byte	0x1
 3327 121e 82       		.byte	0x82
 3328 121f 00000000 		.4byte	.LFB258
 3329 1223 50000000 		.4byte	.LFE258-.LFB258
 3330 1227 01       		.uleb128 0x1
 3331 1228 9C       		.byte	0x9c
 3332 1229 A1120000 		.4byte	0x12a1
 3333 122d 21       		.uleb128 0x21
 3334 122e 0A000000 		.4byte	.LVL46
 3335 1232 D4140000 		.4byte	0x14d4
 3336 1236 1E       		.uleb128 0x1e
 3337 1237 1C000000 		.4byte	.LVL47
 3338 123b BC140000 		.4byte	0x14bc
 3339 123f 5B120000 		.4byte	0x125b
 3340 1243 1F       		.uleb128 0x1f
 3341 1244 01       		.uleb128 0x1
 3342 1245 50       		.byte	0x50
 3343 1246 05       		.uleb128 0x5
 3344 1247 0C       		.byte	0xc
 3345 1248 00040240 		.4byte	0x40020400
 3346 124c 1F       		.uleb128 0x1f
 3347 124d 01       		.uleb128 0x1
 3348 124e 51       		.byte	0x51
 3349 124f 03       		.uleb128 0x3
 3350 1250 0A       		.byte	0xa
 3351 1251 0004     		.2byte	0x400
 3352 1253 1F       		.uleb128 0x1f
 3353 1254 01       		.uleb128 0x1
 3354 1255 52       		.byte	0x52
 3355 1256 03       		.uleb128 0x3
 3356 1257 0A       		.byte	0xa
 3357 1258 2E02     		.2byte	0x22e
 3358 125a 00       		.byte	0
 3359 125b 1E       		.uleb128 0x1e
 3360 125c 2A000000 		.4byte	.LVL48
 3361 1260 BC140000 		.4byte	0x14bc
 3362 1264 80120000 		.4byte	0x1280
 3363 1268 1F       		.uleb128 0x1f
ARM GAS  C:\Users\IDONNO~1\AppData\Local\Temp\ccFIblx2.s 			page 60


 3364 1269 01       		.uleb128 0x1
 3365 126a 50       		.byte	0x50
 3366 126b 05       		.uleb128 0x5
 3367 126c 0C       		.byte	0xc
 3368 126d 00040240 		.4byte	0x40020400
 3369 1271 1F       		.uleb128 0x1f
 3370 1272 01       		.uleb128 0x1
 3371 1273 51       		.byte	0x51
 3372 1274 03       		.uleb128 0x3
 3373 1275 0A       		.byte	0xa
 3374 1276 0008     		.2byte	0x800
 3375 1278 1F       		.uleb128 0x1f
 3376 1279 01       		.uleb128 0x1
 3377 127a 52       		.byte	0x52
 3378 127b 03       		.uleb128 0x3
 3379 127c 0A       		.byte	0xa
 3380 127d 2E02     		.2byte	0x22e
 3381 127f 00       		.byte	0
 3382 1280 1E       		.uleb128 0x1e
 3383 1281 32000000 		.4byte	.LVL49
 3384 1285 DF140000 		.4byte	0x14df
 3385 1289 97120000 		.4byte	0x1297
 3386 128d 1F       		.uleb128 0x1f
 3387 128e 01       		.uleb128 0x1
 3388 128f 51       		.byte	0x51
 3389 1290 05       		.uleb128 0x5
 3390 1291 03       		.byte	0x3
 3391 1292 00000000 		.4byte	.LANCHOR1
 3392 1296 00       		.byte	0
 3393 1297 22       		.uleb128 0x22
 3394 1298 40000000 		.4byte	.LVL50
 3395 129c EA140000 		.4byte	0x14ea
 3396 12a0 00       		.byte	0
 3397 12a1 1D       		.uleb128 0x1d
 3398 12a2 AB020000 		.4byte	.LASF186
 3399 12a6 01       		.byte	0x1
 3400 12a7 90       		.byte	0x90
 3401 12a8 00000000 		.4byte	.LFB259
 3402 12ac 48000000 		.4byte	.LFE259-.LFB259
 3403 12b0 01       		.uleb128 0x1
 3404 12b1 9C       		.byte	0x9c
 3405 12b2 18130000 		.4byte	0x1318
 3406 12b6 21       		.uleb128 0x21
 3407 12b7 0A000000 		.4byte	.LVL51
 3408 12bb D4140000 		.4byte	0x14d4
 3409 12bf 1E       		.uleb128 0x1e
 3410 12c0 1A000000 		.4byte	.LVL52
 3411 12c4 BC140000 		.4byte	0x14bc
 3412 12c8 E2120000 		.4byte	0x12e2
 3413 12cc 1F       		.uleb128 0x1f
 3414 12cd 01       		.uleb128 0x1
 3415 12ce 50       		.byte	0x50
 3416 12cf 05       		.uleb128 0x5
 3417 12d0 0C       		.byte	0xc
 3418 12d1 00040240 		.4byte	0x40020400
 3419 12d5 1F       		.uleb128 0x1f
 3420 12d6 01       		.uleb128 0x1
ARM GAS  C:\Users\IDONNO~1\AppData\Local\Temp\ccFIblx2.s 			page 61


 3421 12d7 51       		.byte	0x51
 3422 12d8 03       		.uleb128 0x3
 3423 12d9 0A       		.byte	0xa
 3424 12da 0004     		.2byte	0x400
 3425 12dc 1F       		.uleb128 0x1f
 3426 12dd 01       		.uleb128 0x1
 3427 12de 52       		.byte	0x52
 3428 12df 01       		.uleb128 0x1
 3429 12e0 30       		.byte	0x30
 3430 12e1 00       		.byte	0
 3431 12e2 1E       		.uleb128 0x1e
 3432 12e3 26000000 		.4byte	.LVL53
 3433 12e7 BC140000 		.4byte	0x14bc
 3434 12eb 05130000 		.4byte	0x1305
 3435 12ef 1F       		.uleb128 0x1f
 3436 12f0 01       		.uleb128 0x1
 3437 12f1 50       		.byte	0x50
 3438 12f2 05       		.uleb128 0x5
 3439 12f3 0C       		.byte	0xc
 3440 12f4 00040240 		.4byte	0x40020400
 3441 12f8 1F       		.uleb128 0x1f
 3442 12f9 01       		.uleb128 0x1
 3443 12fa 51       		.byte	0x51
 3444 12fb 03       		.uleb128 0x3
 3445 12fc 0A       		.byte	0xa
 3446 12fd 0008     		.2byte	0x800
 3447 12ff 1F       		.uleb128 0x1f
 3448 1300 01       		.uleb128 0x1
 3449 1301 52       		.byte	0x52
 3450 1302 01       		.uleb128 0x1
 3451 1303 30       		.byte	0x30
 3452 1304 00       		.byte	0
 3453 1305 21       		.uleb128 0x21
 3454 1306 2C000000 		.4byte	.LVL54
 3455 130a F5140000 		.4byte	0x14f5
 3456 130e 22       		.uleb128 0x22
 3457 130f 3A000000 		.4byte	.LVL55
 3458 1313 EA140000 		.4byte	0x14ea
 3459 1317 00       		.byte	0
 3460 1318 1D       		.uleb128 0x1d
 3461 1319 F1010000 		.4byte	.LASF187
 3462 131d 01       		.byte	0x1
 3463 131e A2       		.byte	0xa2
 3464 131f 00000000 		.4byte	.LFB260
 3465 1323 C4000000 		.4byte	.LFE260-.LFB260
 3466 1327 01       		.uleb128 0x1
 3467 1328 9C       		.byte	0x9c
 3468 1329 66140000 		.4byte	0x1466
 3469 132d 23       		.uleb128 0x23
 3470 132e 00000000 		.4byte	.Ldebug_ranges0+0
 3471 1332 66130000 		.4byte	0x1366
 3472 1336 24       		.uleb128 0x24
 3473 1337 6900     		.ascii	"i\000"
 3474 1339 01       		.byte	0x1
 3475 133a AE       		.byte	0xae
 3476 133b 25000000 		.4byte	0x25
 3477 133f 00000000 		.4byte	.LLST0
ARM GAS  C:\Users\IDONNO~1\AppData\Local\Temp\ccFIblx2.s 			page 62


 3478 1343 1E       		.uleb128 0x1e
 3479 1344 4E000000 		.4byte	.LVL61
 3480 1348 00150000 		.4byte	0x1500
 3481 134c 56130000 		.4byte	0x1356
 3482 1350 1F       		.uleb128 0x1f
 3483 1351 01       		.uleb128 0x1
 3484 1352 50       		.byte	0x50
 3485 1353 01       		.uleb128 0x1
 3486 1354 31       		.byte	0x31
 3487 1355 00       		.byte	0
 3488 1356 25       		.uleb128 0x25
 3489 1357 56000000 		.4byte	.LVL62
 3490 135b 00150000 		.4byte	0x1500
 3491 135f 1F       		.uleb128 0x1f
 3492 1360 01       		.uleb128 0x1
 3493 1361 50       		.byte	0x50
 3494 1362 01       		.uleb128 0x1
 3495 1363 31       		.byte	0x31
 3496 1364 00       		.byte	0
 3497 1365 00       		.byte	0
 3498 1366 21       		.uleb128 0x21
 3499 1367 16000000 		.4byte	.LVL56
 3500 136b D4140000 		.4byte	0x14d4
 3501 136f 1E       		.uleb128 0x1e
 3502 1370 22000000 		.4byte	.LVL57
 3503 1374 BC140000 		.4byte	0x14bc
 3504 1378 90130000 		.4byte	0x1390
 3505 137c 1F       		.uleb128 0x1f
 3506 137d 01       		.uleb128 0x1
 3507 137e 50       		.byte	0x50
 3508 137f 02       		.uleb128 0x2
 3509 1380 75       		.byte	0x75
 3510 1381 00       		.sleb128 0
 3511 1382 1F       		.uleb128 0x1f
 3512 1383 01       		.uleb128 0x1
 3513 1384 51       		.byte	0x51
 3514 1385 03       		.uleb128 0x3
 3515 1386 0A       		.byte	0xa
 3516 1387 0004     		.2byte	0x400
 3517 1389 1F       		.uleb128 0x1f
 3518 138a 01       		.uleb128 0x1
 3519 138b 52       		.byte	0x52
 3520 138c 02       		.uleb128 0x2
 3521 138d 08       		.byte	0x8
 3522 138e 2C       		.byte	0x2c
 3523 138f 00       		.byte	0
 3524 1390 1E       		.uleb128 0x1e
 3525 1391 2E000000 		.4byte	.LVL58
 3526 1395 BC140000 		.4byte	0x14bc
 3527 1399 B1130000 		.4byte	0x13b1
 3528 139d 1F       		.uleb128 0x1f
 3529 139e 01       		.uleb128 0x1
 3530 139f 50       		.byte	0x50
 3531 13a0 02       		.uleb128 0x2
 3532 13a1 75       		.byte	0x75
 3533 13a2 00       		.sleb128 0
 3534 13a3 1F       		.uleb128 0x1f
ARM GAS  C:\Users\IDONNO~1\AppData\Local\Temp\ccFIblx2.s 			page 63


 3535 13a4 01       		.uleb128 0x1
 3536 13a5 51       		.byte	0x51
 3537 13a6 03       		.uleb128 0x3
 3538 13a7 0A       		.byte	0xa
 3539 13a8 0008     		.2byte	0x800
 3540 13aa 1F       		.uleb128 0x1f
 3541 13ab 01       		.uleb128 0x1
 3542 13ac 52       		.byte	0x52
 3543 13ad 02       		.uleb128 0x2
 3544 13ae 08       		.byte	0x8
 3545 13af 2C       		.byte	0x2c
 3546 13b0 00       		.byte	0
 3547 13b1 1E       		.uleb128 0x1e
 3548 13b2 40000000 		.4byte	.LVL59
 3549 13b6 00150000 		.4byte	0x1500
 3550 13ba C4130000 		.4byte	0x13c4
 3551 13be 1F       		.uleb128 0x1f
 3552 13bf 01       		.uleb128 0x1
 3553 13c0 50       		.byte	0x50
 3554 13c1 01       		.uleb128 0x1
 3555 13c2 31       		.byte	0x31
 3556 13c3 00       		.byte	0
 3557 13c4 1E       		.uleb128 0x1e
 3558 13c5 6C000000 		.4byte	.LVL64
 3559 13c9 00150000 		.4byte	0x1500
 3560 13cd D7130000 		.4byte	0x13d7
 3561 13d1 1F       		.uleb128 0x1f
 3562 13d2 01       		.uleb128 0x1
 3563 13d3 50       		.byte	0x50
 3564 13d4 01       		.uleb128 0x1
 3565 13d5 31       		.byte	0x31
 3566 13d6 00       		.byte	0
 3567 13d7 1E       		.uleb128 0x1e
 3568 13d8 76000000 		.4byte	.LVL65
 3569 13dc 00150000 		.4byte	0x1500
 3570 13e0 EA130000 		.4byte	0x13ea
 3571 13e4 1F       		.uleb128 0x1f
 3572 13e5 01       		.uleb128 0x1
 3573 13e6 50       		.byte	0x50
 3574 13e7 01       		.uleb128 0x1
 3575 13e8 31       		.byte	0x31
 3576 13e9 00       		.byte	0
 3577 13ea 1E       		.uleb128 0x1e
 3578 13eb 80000000 		.4byte	.LVL66
 3579 13ef 00150000 		.4byte	0x1500
 3580 13f3 FD130000 		.4byte	0x13fd
 3581 13f7 1F       		.uleb128 0x1f
 3582 13f8 01       		.uleb128 0x1
 3583 13f9 50       		.byte	0x50
 3584 13fa 01       		.uleb128 0x1
 3585 13fb 31       		.byte	0x31
 3586 13fc 00       		.byte	0
 3587 13fd 1E       		.uleb128 0x1e
 3588 13fe 90000000 		.4byte	.LVL68
 3589 1402 BC140000 		.4byte	0x14bc
 3590 1406 1E140000 		.4byte	0x141e
 3591 140a 1F       		.uleb128 0x1f
ARM GAS  C:\Users\IDONNO~1\AppData\Local\Temp\ccFIblx2.s 			page 64


 3592 140b 01       		.uleb128 0x1
 3593 140c 50       		.byte	0x50
 3594 140d 02       		.uleb128 0x2
 3595 140e 76       		.byte	0x76
 3596 140f 00       		.sleb128 0
 3597 1410 1F       		.uleb128 0x1f
 3598 1411 01       		.uleb128 0x1
 3599 1412 51       		.byte	0x51
 3600 1413 02       		.uleb128 0x2
 3601 1414 77       		.byte	0x77
 3602 1415 00       		.sleb128 0
 3603 1416 1F       		.uleb128 0x1f
 3604 1417 01       		.uleb128 0x1
 3605 1418 52       		.byte	0x52
 3606 1419 03       		.uleb128 0x3
 3607 141a 0A       		.byte	0xa
 3608 141b 2E02     		.2byte	0x22e
 3609 141d 00       		.byte	0
 3610 141e 1E       		.uleb128 0x1e
 3611 141f 9C000000 		.4byte	.LVL69
 3612 1423 BC140000 		.4byte	0x14bc
 3613 1427 3F140000 		.4byte	0x143f
 3614 142b 1F       		.uleb128 0x1f
 3615 142c 01       		.uleb128 0x1
 3616 142d 50       		.byte	0x50
 3617 142e 02       		.uleb128 0x2
 3618 142f 76       		.byte	0x76
 3619 1430 00       		.sleb128 0
 3620 1431 1F       		.uleb128 0x1f
 3621 1432 01       		.uleb128 0x1
 3622 1433 51       		.byte	0x51
 3623 1434 02       		.uleb128 0x2
 3624 1435 75       		.byte	0x75
 3625 1436 00       		.sleb128 0
 3626 1437 1F       		.uleb128 0x1f
 3627 1438 01       		.uleb128 0x1
 3628 1439 52       		.byte	0x52
 3629 143a 03       		.uleb128 0x3
 3630 143b 0A       		.byte	0xa
 3631 143c 2E02     		.2byte	0x22e
 3632 143e 00       		.byte	0
 3633 143f 1E       		.uleb128 0x1e
 3634 1440 A8000000 		.4byte	.LVL70
 3635 1444 DF140000 		.4byte	0x14df
 3636 1448 5C140000 		.4byte	0x145c
 3637 144c 1F       		.uleb128 0x1f
 3638 144d 01       		.uleb128 0x1
 3639 144e 50       		.byte	0x50
 3640 144f 02       		.uleb128 0x2
 3641 1450 74       		.byte	0x74
 3642 1451 00       		.sleb128 0
 3643 1452 1F       		.uleb128 0x1f
 3644 1453 01       		.uleb128 0x1
 3645 1454 51       		.byte	0x51
 3646 1455 05       		.uleb128 0x5
 3647 1456 03       		.byte	0x3
 3648 1457 00000000 		.4byte	.LANCHOR1
ARM GAS  C:\Users\IDONNO~1\AppData\Local\Temp\ccFIblx2.s 			page 65


 3649 145b 00       		.byte	0
 3650 145c 22       		.uleb128 0x22
 3651 145d B2000000 		.4byte	.LVL71
 3652 1461 EA140000 		.4byte	0x14ea
 3653 1465 00       		.byte	0
 3654 1466 26       		.uleb128 0x26
 3655 1467 A8040000 		.4byte	.LASF188
 3656 146b 01       		.byte	0x1
 3657 146c 22       		.byte	0x22
 3658 146d 77140000 		.4byte	0x1477
 3659 1471 05       		.uleb128 0x5
 3660 1472 03       		.byte	0x3
 3661 1473 00000000 		.4byte	i2c_running
 3662 1477 05       		.uleb128 0x5
 3663 1478 A0090000 		.4byte	0x9a0
 3664 147c 26       		.uleb128 0x26
 3665 147d 5F050000 		.4byte	.LASF189
 3666 1481 01       		.byte	0x1
 3667 1482 25       		.byte	0x25
 3668 1483 240C0000 		.4byte	0xc24
 3669 1487 05       		.uleb128 0x5
 3670 1488 03       		.byte	0x3
 3671 1489 00000000 		.4byte	i2cfg
 3672 148d 27       		.uleb128 0x27
 3673 148e 18010000 		.4byte	.LASF190
 3674 1492 13       		.byte	0x13
 3675 1493 A706     		.2byte	0x6a7
 3676 1495 E4000000 		.4byte	0xe4
 3677 1499 28       		.uleb128 0x28
 3678 149a 636800   		.ascii	"ch\000"
 3679 149d 07       		.byte	0x7
 3680 149e 0902     		.2byte	0x209
 3681 14a0 23040000 		.4byte	0x423
 3682 14a4 27       		.uleb128 0x27
 3683 14a5 28060000 		.4byte	.LASF191
 3684 14a9 12       		.byte	0x12
 3685 14aa E401     		.2byte	0x1e4
 3686 14ac 750B0000 		.4byte	0xb75
 3687 14b0 29       		.uleb128 0x29
 3688 14b1 A9050000 		.4byte	.LASF192
 3689 14b5 A9050000 		.4byte	.LASF192
 3690 14b9 14       		.byte	0x14
 3691 14ba 5803     		.2byte	0x358
 3692 14bc 29       		.uleb128 0x29
 3693 14bd 25080000 		.4byte	.LASF193
 3694 14c1 25080000 		.4byte	.LASF193
 3695 14c5 0F       		.byte	0xf
 3696 14c6 E001     		.2byte	0x1e0
 3697 14c8 29       		.uleb128 0x29
 3698 14c9 15030000 		.4byte	.LASF194
 3699 14cd 15030000 		.4byte	.LASF194
 3700 14d1 15       		.byte	0x15
 3701 14d2 6002     		.2byte	0x260
 3702 14d4 2A       		.uleb128 0x2a
 3703 14d5 FE040000 		.4byte	.LASF195
 3704 14d9 FE040000 		.4byte	.LASF195
 3705 14dd 11       		.byte	0x11
ARM GAS  C:\Users\IDONNO~1\AppData\Local\Temp\ccFIblx2.s 			page 66


 3706 14de 9A       		.byte	0x9a
 3707 14df 2A       		.uleb128 0x2a
 3708 14e0 FD030000 		.4byte	.LASF196
 3709 14e4 FD030000 		.4byte	.LASF196
 3710 14e8 11       		.byte	0x11
 3711 14e9 8D       		.byte	0x8d
 3712 14ea 2A       		.uleb128 0x2a
 3713 14eb DE000000 		.4byte	.LASF197
 3714 14ef DE000000 		.4byte	.LASF197
 3715 14f3 11       		.byte	0x11
 3716 14f4 9B       		.byte	0x9b
 3717 14f5 2A       		.uleb128 0x2a
 3718 14f6 37040000 		.4byte	.LASF198
 3719 14fa 37040000 		.4byte	.LASF198
 3720 14fe 11       		.byte	0x11
 3721 14ff 8E       		.byte	0x8e
 3722 1500 2A       		.uleb128 0x2a
 3723 1501 F5050000 		.4byte	.LASF199
 3724 1505 F5050000 		.4byte	.LASF199
 3725 1509 16       		.byte	0x16
 3726 150a 96       		.byte	0x96
 3727 150b 00       		.byte	0
 3728              		.section	.debug_abbrev,"",%progbits
 3729              	.Ldebug_abbrev0:
 3730 0000 01       		.uleb128 0x1
 3731 0001 11       		.uleb128 0x11
 3732 0002 01       		.byte	0x1
 3733 0003 25       		.uleb128 0x25
 3734 0004 0E       		.uleb128 0xe
 3735 0005 13       		.uleb128 0x13
 3736 0006 0B       		.uleb128 0xb
 3737 0007 03       		.uleb128 0x3
 3738 0008 0E       		.uleb128 0xe
 3739 0009 1B       		.uleb128 0x1b
 3740 000a 0E       		.uleb128 0xe
 3741 000b 55       		.uleb128 0x55
 3742 000c 17       		.uleb128 0x17
 3743 000d 11       		.uleb128 0x11
 3744 000e 01       		.uleb128 0x1
 3745 000f 10       		.uleb128 0x10
 3746 0010 17       		.uleb128 0x17
 3747 0011 00       		.byte	0
 3748 0012 00       		.byte	0
 3749 0013 02       		.uleb128 0x2
 3750 0014 24       		.uleb128 0x24
 3751 0015 00       		.byte	0
 3752 0016 0B       		.uleb128 0xb
 3753 0017 0B       		.uleb128 0xb
 3754 0018 3E       		.uleb128 0x3e
 3755 0019 0B       		.uleb128 0xb
 3756 001a 03       		.uleb128 0x3
 3757 001b 08       		.uleb128 0x8
 3758 001c 00       		.byte	0
 3759 001d 00       		.byte	0
 3760 001e 03       		.uleb128 0x3
 3761 001f 16       		.uleb128 0x16
 3762 0020 00       		.byte	0
ARM GAS  C:\Users\IDONNO~1\AppData\Local\Temp\ccFIblx2.s 			page 67


 3763 0021 03       		.uleb128 0x3
 3764 0022 0E       		.uleb128 0xe
 3765 0023 3A       		.uleb128 0x3a
 3766 0024 0B       		.uleb128 0xb
 3767 0025 3B       		.uleb128 0x3b
 3768 0026 0B       		.uleb128 0xb
 3769 0027 49       		.uleb128 0x49
 3770 0028 13       		.uleb128 0x13
 3771 0029 00       		.byte	0
 3772 002a 00       		.byte	0
 3773 002b 04       		.uleb128 0x4
 3774 002c 24       		.uleb128 0x24
 3775 002d 00       		.byte	0
 3776 002e 0B       		.uleb128 0xb
 3777 002f 0B       		.uleb128 0xb
 3778 0030 3E       		.uleb128 0x3e
 3779 0031 0B       		.uleb128 0xb
 3780 0032 03       		.uleb128 0x3
 3781 0033 0E       		.uleb128 0xe
 3782 0034 00       		.byte	0
 3783 0035 00       		.byte	0
 3784 0036 05       		.uleb128 0x5
 3785 0037 35       		.uleb128 0x35
 3786 0038 00       		.byte	0
 3787 0039 49       		.uleb128 0x49
 3788 003a 13       		.uleb128 0x13
 3789 003b 00       		.byte	0
 3790 003c 00       		.byte	0
 3791 003d 06       		.uleb128 0x6
 3792 003e 13       		.uleb128 0x13
 3793 003f 01       		.byte	0x1
 3794 0040 03       		.uleb128 0x3
 3795 0041 0E       		.uleb128 0xe
 3796 0042 0B       		.uleb128 0xb
 3797 0043 0B       		.uleb128 0xb
 3798 0044 3A       		.uleb128 0x3a
 3799 0045 0B       		.uleb128 0xb
 3800 0046 3B       		.uleb128 0x3b
 3801 0047 0B       		.uleb128 0xb
 3802 0048 01       		.uleb128 0x1
 3803 0049 13       		.uleb128 0x13
 3804 004a 00       		.byte	0
 3805 004b 00       		.byte	0
 3806 004c 07       		.uleb128 0x7
 3807 004d 0D       		.uleb128 0xd
 3808 004e 00       		.byte	0
 3809 004f 03       		.uleb128 0x3
 3810 0050 0E       		.uleb128 0xe
 3811 0051 3A       		.uleb128 0x3a
 3812 0052 0B       		.uleb128 0xb
 3813 0053 3B       		.uleb128 0x3b
 3814 0054 0B       		.uleb128 0xb
 3815 0055 49       		.uleb128 0x49
 3816 0056 13       		.uleb128 0x13
 3817 0057 38       		.uleb128 0x38
 3818 0058 0B       		.uleb128 0xb
 3819 0059 00       		.byte	0
ARM GAS  C:\Users\IDONNO~1\AppData\Local\Temp\ccFIblx2.s 			page 68


 3820 005a 00       		.byte	0
 3821 005b 08       		.uleb128 0x8
 3822 005c 0D       		.uleb128 0xd
 3823 005d 00       		.byte	0
 3824 005e 03       		.uleb128 0x3
 3825 005f 08       		.uleb128 0x8
 3826 0060 3A       		.uleb128 0x3a
 3827 0061 0B       		.uleb128 0xb
 3828 0062 3B       		.uleb128 0x3b
 3829 0063 05       		.uleb128 0x5
 3830 0064 49       		.uleb128 0x49
 3831 0065 13       		.uleb128 0x13
 3832 0066 38       		.uleb128 0x38
 3833 0067 0B       		.uleb128 0xb
 3834 0068 00       		.byte	0
 3835 0069 00       		.byte	0
 3836 006a 09       		.uleb128 0x9
 3837 006b 0D       		.uleb128 0xd
 3838 006c 00       		.byte	0
 3839 006d 03       		.uleb128 0x3
 3840 006e 0E       		.uleb128 0xe
 3841 006f 3A       		.uleb128 0x3a
 3842 0070 0B       		.uleb128 0xb
 3843 0071 3B       		.uleb128 0x3b
 3844 0072 05       		.uleb128 0x5
 3845 0073 49       		.uleb128 0x49
 3846 0074 13       		.uleb128 0x13
 3847 0075 38       		.uleb128 0x38
 3848 0076 0B       		.uleb128 0xb
 3849 0077 00       		.byte	0
 3850 0078 00       		.byte	0
 3851 0079 0A       		.uleb128 0xa
 3852 007a 0F       		.uleb128 0xf
 3853 007b 00       		.byte	0
 3854 007c 0B       		.uleb128 0xb
 3855 007d 0B       		.uleb128 0xb
 3856 007e 49       		.uleb128 0x49
 3857 007f 13       		.uleb128 0x13
 3858 0080 00       		.byte	0
 3859 0081 00       		.byte	0
 3860 0082 0B       		.uleb128 0xb
 3861 0083 13       		.uleb128 0x13
 3862 0084 01       		.byte	0x1
 3863 0085 03       		.uleb128 0x3
 3864 0086 0E       		.uleb128 0xe
 3865 0087 0B       		.uleb128 0xb
 3866 0088 0B       		.uleb128 0xb
 3867 0089 3A       		.uleb128 0x3a
 3868 008a 0B       		.uleb128 0xb
 3869 008b 3B       		.uleb128 0x3b
 3870 008c 05       		.uleb128 0x5
 3871 008d 01       		.uleb128 0x1
 3872 008e 13       		.uleb128 0x13
 3873 008f 00       		.byte	0
 3874 0090 00       		.byte	0
 3875 0091 0C       		.uleb128 0xc
 3876 0092 15       		.uleb128 0x15
ARM GAS  C:\Users\IDONNO~1\AppData\Local\Temp\ccFIblx2.s 			page 69


 3877 0093 01       		.byte	0x1
 3878 0094 27       		.uleb128 0x27
 3879 0095 19       		.uleb128 0x19
 3880 0096 01       		.uleb128 0x1
 3881 0097 13       		.uleb128 0x13
 3882 0098 00       		.byte	0
 3883 0099 00       		.byte	0
 3884 009a 0D       		.uleb128 0xd
 3885 009b 05       		.uleb128 0x5
 3886 009c 00       		.byte	0
 3887 009d 49       		.uleb128 0x49
 3888 009e 13       		.uleb128 0x13
 3889 009f 00       		.byte	0
 3890 00a0 00       		.byte	0
 3891 00a1 0E       		.uleb128 0xe
 3892 00a2 0F       		.uleb128 0xf
 3893 00a3 00       		.byte	0
 3894 00a4 0B       		.uleb128 0xb
 3895 00a5 0B       		.uleb128 0xb
 3896 00a6 00       		.byte	0
 3897 00a7 00       		.byte	0
 3898 00a8 0F       		.uleb128 0xf
 3899 00a9 13       		.uleb128 0x13
 3900 00aa 01       		.byte	0x1
 3901 00ab 03       		.uleb128 0x3
 3902 00ac 0E       		.uleb128 0xe
 3903 00ad 0B       		.uleb128 0xb
 3904 00ae 05       		.uleb128 0x5
 3905 00af 3A       		.uleb128 0x3a
 3906 00b0 0B       		.uleb128 0xb
 3907 00b1 3B       		.uleb128 0x3b
 3908 00b2 05       		.uleb128 0x5
 3909 00b3 01       		.uleb128 0x1
 3910 00b4 13       		.uleb128 0x13
 3911 00b5 00       		.byte	0
 3912 00b6 00       		.byte	0
 3913 00b7 10       		.uleb128 0x10
 3914 00b8 13       		.uleb128 0x13
 3915 00b9 01       		.byte	0x1
 3916 00ba 0B       		.uleb128 0xb
 3917 00bb 0B       		.uleb128 0xb
 3918 00bc 3A       		.uleb128 0x3a
 3919 00bd 0B       		.uleb128 0xb
 3920 00be 3B       		.uleb128 0x3b
 3921 00bf 0B       		.uleb128 0xb
 3922 00c0 01       		.uleb128 0x1
 3923 00c1 13       		.uleb128 0x13
 3924 00c2 00       		.byte	0
 3925 00c3 00       		.byte	0
 3926 00c4 11       		.uleb128 0x11
 3927 00c5 0D       		.uleb128 0xd
 3928 00c6 00       		.byte	0
 3929 00c7 03       		.uleb128 0x3
 3930 00c8 08       		.uleb128 0x8
 3931 00c9 3A       		.uleb128 0x3a
 3932 00ca 0B       		.uleb128 0xb
 3933 00cb 3B       		.uleb128 0x3b
ARM GAS  C:\Users\IDONNO~1\AppData\Local\Temp\ccFIblx2.s 			page 70


 3934 00cc 0B       		.uleb128 0xb
 3935 00cd 49       		.uleb128 0x49
 3936 00ce 13       		.uleb128 0x13
 3937 00cf 38       		.uleb128 0x38
 3938 00d0 0B       		.uleb128 0xb
 3939 00d1 00       		.byte	0
 3940 00d2 00       		.byte	0
 3941 00d3 12       		.uleb128 0x12
 3942 00d4 13       		.uleb128 0x13
 3943 00d5 01       		.byte	0x1
 3944 00d6 0B       		.uleb128 0xb
 3945 00d7 0B       		.uleb128 0xb
 3946 00d8 3A       		.uleb128 0x3a
 3947 00d9 0B       		.uleb128 0xb
 3948 00da 3B       		.uleb128 0x3b
 3949 00db 05       		.uleb128 0x5
 3950 00dc 01       		.uleb128 0x1
 3951 00dd 13       		.uleb128 0x13
 3952 00de 00       		.byte	0
 3953 00df 00       		.byte	0
 3954 00e0 13       		.uleb128 0x13
 3955 00e1 16       		.uleb128 0x16
 3956 00e2 00       		.byte	0
 3957 00e3 03       		.uleb128 0x3
 3958 00e4 0E       		.uleb128 0xe
 3959 00e5 3A       		.uleb128 0x3a
 3960 00e6 0B       		.uleb128 0xb
 3961 00e7 3B       		.uleb128 0x3b
 3962 00e8 05       		.uleb128 0x5
 3963 00e9 49       		.uleb128 0x49
 3964 00ea 13       		.uleb128 0x13
 3965 00eb 00       		.byte	0
 3966 00ec 00       		.byte	0
 3967 00ed 14       		.uleb128 0x14
 3968 00ee 04       		.uleb128 0x4
 3969 00ef 01       		.byte	0x1
 3970 00f0 0B       		.uleb128 0xb
 3971 00f1 0B       		.uleb128 0xb
 3972 00f2 49       		.uleb128 0x49
 3973 00f3 13       		.uleb128 0x13
 3974 00f4 3A       		.uleb128 0x3a
 3975 00f5 0B       		.uleb128 0xb
 3976 00f6 3B       		.uleb128 0x3b
 3977 00f7 0B       		.uleb128 0xb
 3978 00f8 01       		.uleb128 0x1
 3979 00f9 13       		.uleb128 0x13
 3980 00fa 00       		.byte	0
 3981 00fb 00       		.byte	0
 3982 00fc 15       		.uleb128 0x15
 3983 00fd 28       		.uleb128 0x28
 3984 00fe 00       		.byte	0
 3985 00ff 03       		.uleb128 0x3
 3986 0100 0E       		.uleb128 0xe
 3987 0101 1C       		.uleb128 0x1c
 3988 0102 0B       		.uleb128 0xb
 3989 0103 00       		.byte	0
 3990 0104 00       		.byte	0
ARM GAS  C:\Users\IDONNO~1\AppData\Local\Temp\ccFIblx2.s 			page 71


 3991 0105 16       		.uleb128 0x16
 3992 0106 17       		.uleb128 0x17
 3993 0107 01       		.byte	0x1
 3994 0108 0B       		.uleb128 0xb
 3995 0109 0B       		.uleb128 0xb
 3996 010a 3A       		.uleb128 0x3a
 3997 010b 0B       		.uleb128 0xb
 3998 010c 3B       		.uleb128 0x3b
 3999 010d 0B       		.uleb128 0xb
 4000 010e 01       		.uleb128 0x1
 4001 010f 13       		.uleb128 0x13
 4002 0110 00       		.byte	0
 4003 0111 00       		.byte	0
 4004 0112 17       		.uleb128 0x17
 4005 0113 0D       		.uleb128 0xd
 4006 0114 00       		.byte	0
 4007 0115 03       		.uleb128 0x3
 4008 0116 0E       		.uleb128 0xe
 4009 0117 3A       		.uleb128 0x3a
 4010 0118 0B       		.uleb128 0xb
 4011 0119 3B       		.uleb128 0x3b
 4012 011a 05       		.uleb128 0x5
 4013 011b 49       		.uleb128 0x49
 4014 011c 13       		.uleb128 0x13
 4015 011d 00       		.byte	0
 4016 011e 00       		.byte	0
 4017 011f 18       		.uleb128 0x18
 4018 0120 26       		.uleb128 0x26
 4019 0121 00       		.byte	0
 4020 0122 49       		.uleb128 0x49
 4021 0123 13       		.uleb128 0x13
 4022 0124 00       		.byte	0
 4023 0125 00       		.byte	0
 4024 0126 19       		.uleb128 0x19
 4025 0127 01       		.uleb128 0x1
 4026 0128 01       		.byte	0x1
 4027 0129 49       		.uleb128 0x49
 4028 012a 13       		.uleb128 0x13
 4029 012b 01       		.uleb128 0x1
 4030 012c 13       		.uleb128 0x13
 4031 012d 00       		.byte	0
 4032 012e 00       		.byte	0
 4033 012f 1A       		.uleb128 0x1a
 4034 0130 21       		.uleb128 0x21
 4035 0131 00       		.byte	0
 4036 0132 49       		.uleb128 0x49
 4037 0133 13       		.uleb128 0x13
 4038 0134 2F       		.uleb128 0x2f
 4039 0135 0B       		.uleb128 0xb
 4040 0136 00       		.byte	0
 4041 0137 00       		.byte	0
 4042 0138 1B       		.uleb128 0x1b
 4043 0139 0D       		.uleb128 0xd
 4044 013a 00       		.byte	0
 4045 013b 03       		.uleb128 0x3
 4046 013c 08       		.uleb128 0x8
 4047 013d 3A       		.uleb128 0x3a
ARM GAS  C:\Users\IDONNO~1\AppData\Local\Temp\ccFIblx2.s 			page 72


 4048 013e 0B       		.uleb128 0xb
 4049 013f 3B       		.uleb128 0x3b
 4050 0140 0B       		.uleb128 0xb
 4051 0141 49       		.uleb128 0x49
 4052 0142 13       		.uleb128 0x13
 4053 0143 00       		.byte	0
 4054 0144 00       		.byte	0
 4055 0145 1C       		.uleb128 0x1c
 4056 0146 04       		.uleb128 0x4
 4057 0147 01       		.byte	0x1
 4058 0148 0B       		.uleb128 0xb
 4059 0149 0B       		.uleb128 0xb
 4060 014a 49       		.uleb128 0x49
 4061 014b 13       		.uleb128 0x13
 4062 014c 3A       		.uleb128 0x3a
 4063 014d 0B       		.uleb128 0xb
 4064 014e 3B       		.uleb128 0x3b
 4065 014f 05       		.uleb128 0x5
 4066 0150 01       		.uleb128 0x1
 4067 0151 13       		.uleb128 0x13
 4068 0152 00       		.byte	0
 4069 0153 00       		.byte	0
 4070 0154 1D       		.uleb128 0x1d
 4071 0155 2E       		.uleb128 0x2e
 4072 0156 01       		.byte	0x1
 4073 0157 3F       		.uleb128 0x3f
 4074 0158 19       		.uleb128 0x19
 4075 0159 03       		.uleb128 0x3
 4076 015a 0E       		.uleb128 0xe
 4077 015b 3A       		.uleb128 0x3a
 4078 015c 0B       		.uleb128 0xb
 4079 015d 3B       		.uleb128 0x3b
 4080 015e 0B       		.uleb128 0xb
 4081 015f 27       		.uleb128 0x27
 4082 0160 19       		.uleb128 0x19
 4083 0161 11       		.uleb128 0x11
 4084 0162 01       		.uleb128 0x1
 4085 0163 12       		.uleb128 0x12
 4086 0164 06       		.uleb128 0x6
 4087 0165 40       		.uleb128 0x40
 4088 0166 18       		.uleb128 0x18
 4089 0167 9742     		.uleb128 0x2117
 4090 0169 19       		.uleb128 0x19
 4091 016a 01       		.uleb128 0x1
 4092 016b 13       		.uleb128 0x13
 4093 016c 00       		.byte	0
 4094 016d 00       		.byte	0
 4095 016e 1E       		.uleb128 0x1e
 4096 016f 898201   		.uleb128 0x4109
 4097 0172 01       		.byte	0x1
 4098 0173 11       		.uleb128 0x11
 4099 0174 01       		.uleb128 0x1
 4100 0175 31       		.uleb128 0x31
 4101 0176 13       		.uleb128 0x13
 4102 0177 01       		.uleb128 0x1
 4103 0178 13       		.uleb128 0x13
 4104 0179 00       		.byte	0
ARM GAS  C:\Users\IDONNO~1\AppData\Local\Temp\ccFIblx2.s 			page 73


 4105 017a 00       		.byte	0
 4106 017b 1F       		.uleb128 0x1f
 4107 017c 8A8201   		.uleb128 0x410a
 4108 017f 00       		.byte	0
 4109 0180 02       		.uleb128 0x2
 4110 0181 18       		.uleb128 0x18
 4111 0182 9142     		.uleb128 0x2111
 4112 0184 18       		.uleb128 0x18
 4113 0185 00       		.byte	0
 4114 0186 00       		.byte	0
 4115 0187 20       		.uleb128 0x20
 4116 0188 898201   		.uleb128 0x4109
 4117 018b 01       		.byte	0x1
 4118 018c 11       		.uleb128 0x11
 4119 018d 01       		.uleb128 0x1
 4120 018e 9542     		.uleb128 0x2115
 4121 0190 19       		.uleb128 0x19
 4122 0191 31       		.uleb128 0x31
 4123 0192 13       		.uleb128 0x13
 4124 0193 00       		.byte	0
 4125 0194 00       		.byte	0
 4126 0195 21       		.uleb128 0x21
 4127 0196 898201   		.uleb128 0x4109
 4128 0199 00       		.byte	0
 4129 019a 11       		.uleb128 0x11
 4130 019b 01       		.uleb128 0x1
 4131 019c 31       		.uleb128 0x31
 4132 019d 13       		.uleb128 0x13
 4133 019e 00       		.byte	0
 4134 019f 00       		.byte	0
 4135 01a0 22       		.uleb128 0x22
 4136 01a1 898201   		.uleb128 0x4109
 4137 01a4 00       		.byte	0
 4138 01a5 11       		.uleb128 0x11
 4139 01a6 01       		.uleb128 0x1
 4140 01a7 9542     		.uleb128 0x2115
 4141 01a9 19       		.uleb128 0x19
 4142 01aa 31       		.uleb128 0x31
 4143 01ab 13       		.uleb128 0x13
 4144 01ac 00       		.byte	0
 4145 01ad 00       		.byte	0
 4146 01ae 23       		.uleb128 0x23
 4147 01af 0B       		.uleb128 0xb
 4148 01b0 01       		.byte	0x1
 4149 01b1 55       		.uleb128 0x55
 4150 01b2 17       		.uleb128 0x17
 4151 01b3 01       		.uleb128 0x1
 4152 01b4 13       		.uleb128 0x13
 4153 01b5 00       		.byte	0
 4154 01b6 00       		.byte	0
 4155 01b7 24       		.uleb128 0x24
 4156 01b8 34       		.uleb128 0x34
 4157 01b9 00       		.byte	0
 4158 01ba 03       		.uleb128 0x3
 4159 01bb 08       		.uleb128 0x8
 4160 01bc 3A       		.uleb128 0x3a
 4161 01bd 0B       		.uleb128 0xb
ARM GAS  C:\Users\IDONNO~1\AppData\Local\Temp\ccFIblx2.s 			page 74


 4162 01be 3B       		.uleb128 0x3b
 4163 01bf 0B       		.uleb128 0xb
 4164 01c0 49       		.uleb128 0x49
 4165 01c1 13       		.uleb128 0x13
 4166 01c2 02       		.uleb128 0x2
 4167 01c3 17       		.uleb128 0x17
 4168 01c4 00       		.byte	0
 4169 01c5 00       		.byte	0
 4170 01c6 25       		.uleb128 0x25
 4171 01c7 898201   		.uleb128 0x4109
 4172 01ca 01       		.byte	0x1
 4173 01cb 11       		.uleb128 0x11
 4174 01cc 01       		.uleb128 0x1
 4175 01cd 31       		.uleb128 0x31
 4176 01ce 13       		.uleb128 0x13
 4177 01cf 00       		.byte	0
 4178 01d0 00       		.byte	0
 4179 01d1 26       		.uleb128 0x26
 4180 01d2 34       		.uleb128 0x34
 4181 01d3 00       		.byte	0
 4182 01d4 03       		.uleb128 0x3
 4183 01d5 0E       		.uleb128 0xe
 4184 01d6 3A       		.uleb128 0x3a
 4185 01d7 0B       		.uleb128 0xb
 4186 01d8 3B       		.uleb128 0x3b
 4187 01d9 0B       		.uleb128 0xb
 4188 01da 49       		.uleb128 0x49
 4189 01db 13       		.uleb128 0x13
 4190 01dc 02       		.uleb128 0x2
 4191 01dd 18       		.uleb128 0x18
 4192 01de 00       		.byte	0
 4193 01df 00       		.byte	0
 4194 01e0 27       		.uleb128 0x27
 4195 01e1 34       		.uleb128 0x34
 4196 01e2 00       		.byte	0
 4197 01e3 03       		.uleb128 0x3
 4198 01e4 0E       		.uleb128 0xe
 4199 01e5 3A       		.uleb128 0x3a
 4200 01e6 0B       		.uleb128 0xb
 4201 01e7 3B       		.uleb128 0x3b
 4202 01e8 05       		.uleb128 0x5
 4203 01e9 49       		.uleb128 0x49
 4204 01ea 13       		.uleb128 0x13
 4205 01eb 3F       		.uleb128 0x3f
 4206 01ec 19       		.uleb128 0x19
 4207 01ed 3C       		.uleb128 0x3c
 4208 01ee 19       		.uleb128 0x19
 4209 01ef 00       		.byte	0
 4210 01f0 00       		.byte	0
 4211 01f1 28       		.uleb128 0x28
 4212 01f2 34       		.uleb128 0x34
 4213 01f3 00       		.byte	0
 4214 01f4 03       		.uleb128 0x3
 4215 01f5 08       		.uleb128 0x8
 4216 01f6 3A       		.uleb128 0x3a
 4217 01f7 0B       		.uleb128 0xb
 4218 01f8 3B       		.uleb128 0x3b
ARM GAS  C:\Users\IDONNO~1\AppData\Local\Temp\ccFIblx2.s 			page 75


 4219 01f9 05       		.uleb128 0x5
 4220 01fa 49       		.uleb128 0x49
 4221 01fb 13       		.uleb128 0x13
 4222 01fc 3F       		.uleb128 0x3f
 4223 01fd 19       		.uleb128 0x19
 4224 01fe 3C       		.uleb128 0x3c
 4225 01ff 19       		.uleb128 0x19
 4226 0200 00       		.byte	0
 4227 0201 00       		.byte	0
 4228 0202 29       		.uleb128 0x29
 4229 0203 2E       		.uleb128 0x2e
 4230 0204 00       		.byte	0
 4231 0205 3F       		.uleb128 0x3f
 4232 0206 19       		.uleb128 0x19
 4233 0207 3C       		.uleb128 0x3c
 4234 0208 19       		.uleb128 0x19
 4235 0209 6E       		.uleb128 0x6e
 4236 020a 0E       		.uleb128 0xe
 4237 020b 03       		.uleb128 0x3
 4238 020c 0E       		.uleb128 0xe
 4239 020d 3A       		.uleb128 0x3a
 4240 020e 0B       		.uleb128 0xb
 4241 020f 3B       		.uleb128 0x3b
 4242 0210 05       		.uleb128 0x5
 4243 0211 00       		.byte	0
 4244 0212 00       		.byte	0
 4245 0213 2A       		.uleb128 0x2a
 4246 0214 2E       		.uleb128 0x2e
 4247 0215 00       		.byte	0
 4248 0216 3F       		.uleb128 0x3f
 4249 0217 19       		.uleb128 0x19
 4250 0218 3C       		.uleb128 0x3c
 4251 0219 19       		.uleb128 0x19
 4252 021a 6E       		.uleb128 0x6e
 4253 021b 0E       		.uleb128 0xe
 4254 021c 03       		.uleb128 0x3
 4255 021d 0E       		.uleb128 0xe
 4256 021e 3A       		.uleb128 0x3a
 4257 021f 0B       		.uleb128 0xb
 4258 0220 3B       		.uleb128 0x3b
 4259 0221 0B       		.uleb128 0xb
 4260 0222 00       		.byte	0
 4261 0223 00       		.byte	0
 4262 0224 00       		.byte	0
 4263              		.section	.debug_loc,"",%progbits
 4264              	.Ldebug_loc0:
 4265              	.LLST0:
 4266 0000 40000000 		.4byte	.LVL59
 4267 0004 44000000 		.4byte	.LVL60
 4268 0008 0200     		.2byte	0x2
 4269 000a 30       		.byte	0x30
 4270 000b 9F       		.byte	0x9f
 4271 000c 44000000 		.4byte	.LVL60
 4272 0010 56000000 		.4byte	.LVL62
 4273 0014 0500     		.2byte	0x5
 4274 0016 40       		.byte	0x40
 4275 0017 74       		.byte	0x74
ARM GAS  C:\Users\IDONNO~1\AppData\Local\Temp\ccFIblx2.s 			page 76


 4276 0018 00       		.sleb128 0
 4277 0019 1C       		.byte	0x1c
 4278 001a 9F       		.byte	0x9f
 4279 001b 56000000 		.4byte	.LVL62
 4280 001f 58000000 		.4byte	.LVL63
 4281 0023 0500     		.2byte	0x5
 4282 0025 41       		.byte	0x41
 4283 0026 74       		.byte	0x74
 4284 0027 00       		.sleb128 0
 4285 0028 1C       		.byte	0x1c
 4286 0029 9F       		.byte	0x9f
 4287 002a 58000000 		.4byte	.LVL63
 4288 002e 82000000 		.4byte	.LVL67
 4289 0032 0500     		.2byte	0x5
 4290 0034 40       		.byte	0x40
 4291 0035 74       		.byte	0x74
 4292 0036 00       		.sleb128 0
 4293 0037 1C       		.byte	0x1c
 4294 0038 9F       		.byte	0x9f
 4295 0039 00000000 		.4byte	0
 4296 003d 00000000 		.4byte	0
 4297              		.section	.debug_aranges,"",%progbits
 4298 0000 3C000000 		.4byte	0x3c
 4299 0004 0200     		.2byte	0x2
 4300 0006 00000000 		.4byte	.Ldebug_info0
 4301 000a 04       		.byte	0x4
 4302 000b 00       		.byte	0
 4303 000c 0000     		.2byte	0
 4304 000e 0000     		.2byte	0
 4305 0010 00000000 		.4byte	.LFB256
 4306 0014 90010000 		.4byte	.LFE256-.LFB256
 4307 0018 00000000 		.4byte	.LFB257
 4308 001c A8000000 		.4byte	.LFE257-.LFB257
 4309 0020 00000000 		.4byte	.LFB258
 4310 0024 50000000 		.4byte	.LFE258-.LFB258
 4311 0028 00000000 		.4byte	.LFB259
 4312 002c 48000000 		.4byte	.LFE259-.LFB259
 4313 0030 00000000 		.4byte	.LFB260
 4314 0034 C4000000 		.4byte	.LFE260-.LFB260
 4315 0038 00000000 		.4byte	0
 4316 003c 00000000 		.4byte	0
 4317              		.section	.debug_ranges,"",%progbits
 4318              	.Ldebug_ranges0:
 4319 0000 40000000 		.4byte	.LBB2
 4320 0004 42000000 		.4byte	.LBE2
 4321 0008 44000000 		.4byte	.LBB3
 4322 000c 60000000 		.4byte	.LBE3
 4323 0010 00000000 		.4byte	0
 4324 0014 00000000 		.4byte	0
 4325 0018 00000000 		.4byte	.LFB256
 4326 001c 90010000 		.4byte	.LFE256
 4327 0020 00000000 		.4byte	.LFB257
 4328 0024 A8000000 		.4byte	.LFE257
 4329 0028 00000000 		.4byte	.LFB258
 4330 002c 50000000 		.4byte	.LFE258
 4331 0030 00000000 		.4byte	.LFB259
 4332 0034 48000000 		.4byte	.LFE259
ARM GAS  C:\Users\IDONNO~1\AppData\Local\Temp\ccFIblx2.s 			page 77


 4333 0038 00000000 		.4byte	.LFB260
 4334 003c C4000000 		.4byte	.LFE260
 4335 0040 00000000 		.4byte	0
 4336 0044 00000000 		.4byte	0
 4337              		.section	.debug_line,"",%progbits
 4338              	.Ldebug_line0:
 4339 0000 F1040000 		.section	.debug_str,"MS",%progbits,1
 4339      0200F603 
 4339      00000201 
 4339      FB0E0D00 
 4339      01010101 
 4340              	.LASF181:
 4341 0000 646D6172 		.ascii	"dmarx\000"
 4341      7800
 4342              	.LASF167:
 4343 0006 69326364 		.ascii	"i2cdutycycle_t\000"
 4343      75747963 
 4343      79636C65 
 4343      5F7400
 4344              	.LASF23:
 4345 0015 74726566 		.ascii	"trefs_t\000"
 4345      735F7400 
 4346              	.LASF56:
 4347 001d 72656164 		.ascii	"ready_list_t\000"
 4347      795F6C69 
 4347      73745F74 
 4347      00
 4348              	.LASF101:
 4349 002a 4D304152 		.ascii	"M0AR\000"
 4349      00
 4350              	.LASF2:
 4351 002f 73697A65 		.ascii	"size_t\000"
 4351      5F7400
 4352              	.LASF117:
 4353 0036 7264796D 		.ascii	"rdymsg\000"
 4353      736700
 4354              	.LASF19:
 4355 003d 75696E74 		.ascii	"uint64_t\000"
 4355      36345F74 
 4355      00
 4356              	.LASF137:
 4357 0046 76656374 		.ascii	"vector\000"
 4357      6F7200
 4358              	.LASF3:
 4359 004d 5F5F7569 		.ascii	"__uint8_t\000"
 4359      6E74385F 
 4359      7400
 4360              	.LASF142:
 4361 0057 4F545950 		.ascii	"OTYPER\000"
 4361      455200
 4362              	.LASF114:
 4363 005e 706F7274 		.ascii	"port_intctx\000"
 4363      5F696E74 
 4363      63747800 
 4364              	.LASF75:
 4365 006a 73797374 		.ascii	"system_debug_t\000"
 4365      656D5F64 
ARM GAS  C:\Users\IDONNO~1\AppData\Local\Temp\ccFIblx2.s 			page 78


 4365      65627567 
 4365      5F7400
 4366              	.LASF106:
 4367 0079 54524953 		.ascii	"TRISE\000"
 4367      4500
 4368              	.LASF133:
 4369 007f 73747265 		.ascii	"stream\000"
 4369      616D00
 4370              	.LASF109:
 4371 0086 44495341 		.ascii	"DISABLE\000"
 4371      424C4500 
 4372              	.LASF141:
 4373 008e 4D4F4445 		.ascii	"MODER\000"
 4373      5200
 4374              	.LASF202:
 4375 0094 443A5C67 		.ascii	"D:\\git\\oroca_bldc_dev\\oroca_bldc_FW\000"
 4375      69745C6F 
 4375      726F6361 
 4375      5F626C64 
 4375      635F6465 
 4376              	.LASF14:
 4377 00b8 6C6F6E67 		.ascii	"long long unsigned int\000"
 4377      206C6F6E 
 4377      6720756E 
 4377      7369676E 
 4377      65642069 
 4378              	.LASF144:
 4379 00cf 50555044 		.ascii	"PUPDR\000"
 4379      5200
 4380              	.LASF118:
 4381 00d5 65786974 		.ascii	"exitcode\000"
 4381      636F6465 
 4381      00
 4382              	.LASF197:
 4383 00de 69326352 		.ascii	"i2cReleaseBus\000"
 4383      656C6561 
 4383      73654275 
 4383      7300
 4384              	.LASF184:
 4385 00ec 68775F73 		.ascii	"hw_setup_adc_channels\000"
 4385      65747570 
 4385      5F616463 
 4385      5F636861 
 4385      6E6E656C 
 4386              	.LASF72:
 4387 0102 76697274 		.ascii	"virtual_timers_list_t\000"
 4387      75616C5F 
 4387      74696D65 
 4387      72735F6C 
 4387      6973745F 
 4388              	.LASF190:
 4389 0118 49544D5F 		.ascii	"ITM_RxBuffer\000"
 4389      52784275 
 4389      66666572 
 4389      00
 4390              	.LASF183:
 4391 0125 68775F69 		.ascii	"hw_init_gpio\000"
ARM GAS  C:\Users\IDONNO~1\AppData\Local\Temp\ccFIblx2.s 			page 79


 4391      6E69745F 
 4391      6770696F 
 4391      00
 4392              	.LASF55:
 4393 0132 63685F74 		.ascii	"ch_threads_queue\000"
 4393      68726561 
 4393      64735F71 
 4393      75657565 
 4393      00
 4394              	.LASF33:
 4395 0143 705F7072 		.ascii	"p_prio\000"
 4395      696F00
 4396              	.LASF107:
 4397 014a 464C5452 		.ascii	"FLTR\000"
 4397      00
 4398              	.LASF94:
 4399 014f 4A535152 		.ascii	"JSQR\000"
 4399      00
 4400              	.LASF12:
 4401 0154 6C6F6E67 		.ascii	"long long int\000"
 4401      206C6F6E 
 4401      6720696E 
 4401      7400
 4402              	.LASF1:
 4403 0162 7369676E 		.ascii	"signed char\000"
 4403      65642063 
 4403      68617200 
 4404              	.LASF145:
 4405 016e 42535252 		.ascii	"BSRR\000"
 4405      00
 4406              	.LASF95:
 4407 0173 4A445231 		.ascii	"JDR1\000"
 4407      00
 4408              	.LASF49:
 4409 0178 705F6D70 		.ascii	"p_mpool\000"
 4409      6F6F6C00 
 4410              	.LASF128:
 4411 0180 6D5F7175 		.ascii	"m_queue\000"
 4411      65756500 
 4412              	.LASF178:
 4413 0188 61646472 		.ascii	"addr\000"
 4413      00
 4414              	.LASF81:
 4415 018d 76746C69 		.ascii	"vtlist\000"
 4415      737400
 4416              	.LASF24:
 4417 0194 74736C69 		.ascii	"tslices_t\000"
 4417      6365735F 
 4417      7400
 4418              	.LASF158:
 4419 019e 69326361 		.ascii	"i2caddr_t\000"
 4419      6464725F 
 4419      7400
 4420              	.LASF173:
 4421 01a8 73746174 		.ascii	"state\000"
 4421      6500
 4422              	.LASF79:
ARM GAS  C:\Users\IDONNO~1\AppData\Local\Temp\ccFIblx2.s 			page 80


 4423 01ae 63685F73 		.ascii	"ch_system\000"
 4423      79737465 
 4423      6D00
 4424              	.LASF9:
 4425 01b8 6C6F6E67 		.ascii	"long int\000"
 4425      20696E74 
 4425      00
 4426              	.LASF110:
 4427 01c1 454E4142 		.ascii	"ENABLE\000"
 4427      4C4500
 4428              	.LASF22:
 4429 01c8 74737461 		.ascii	"tstate_t\000"
 4429      74655F74 
 4429      00
 4430              	.LASF35:
 4431 01d1 705F6E65 		.ascii	"p_newer\000"
 4431      77657200 
 4432              	.LASF125:
 4433 01d9 735F7175 		.ascii	"s_queue\000"
 4433      65756500 
 4434              	.LASF179:
 4435 01e1 7278646D 		.ascii	"rxdmamode\000"
 4435      616D6F64 
 4435      6500
 4436              	.LASF182:
 4437 01eb 646D6174 		.ascii	"dmatx\000"
 4437      7800
 4438              	.LASF187:
 4439 01f1 68775F74 		.ascii	"hw_try_restore_i2c\000"
 4439      72795F72 
 4439      6573746F 
 4439      72655F69 
 4439      326300
 4440              	.LASF143:
 4441 0204 4F535045 		.ascii	"OSPEEDR\000"
 4441      45445200 
 4442              	.LASF61:
 4443 020c 725F6E65 		.ascii	"r_newer\000"
 4443      77657200 
 4444              	.LASF111:
 4445 0214 72656761 		.ascii	"regarm_t\000"
 4445      726D5F74 
 4445      00
 4446              	.LASF68:
 4447 021d 76745F70 		.ascii	"vt_prev\000"
 4447      72657600 
 4448              	.LASF168:
 4449 0225 6F705F6D 		.ascii	"op_mode\000"
 4449      6F646500 
 4450              	.LASF149:
 4451 022d 73746D33 		.ascii	"stm32_gpio_t\000"
 4451      325F6770 
 4451      696F5F74 
 4451      00
 4452              	.LASF132:
 4453 023a 6D757465 		.ascii	"mutex_t\000"
 4453      785F7400 
ARM GAS  C:\Users\IDONNO~1\AppData\Local\Temp\ccFIblx2.s 			page 81


 4454              	.LASF83:
 4455 0242 69646C65 		.ascii	"idle_thread_wa\000"
 4455      5F746872 
 4455      6561645F 
 4455      776100
 4456              	.LASF28:
 4457 0251 636E745F 		.ascii	"cnt_t\000"
 4457      7400
 4458              	.LASF185:
 4459 0257 68775F73 		.ascii	"hw_start_i2c\000"
 4459      74617274 
 4459      5F693263 
 4459      00
 4460              	.LASF0:
 4461 0264 756E7369 		.ascii	"unsigned int\000"
 4461      676E6564 
 4461      20696E74 
 4461      00
 4462              	.LASF67:
 4463 0271 76745F6E 		.ascii	"vt_next\000"
 4463      65787400 
 4464              	.LASF16:
 4465 0279 75696E74 		.ascii	"uint16_t\000"
 4465      31365F74 
 4465      00
 4466              	.LASF42:
 4467 0282 705F7469 		.ascii	"p_time\000"
 4467      6D6500
 4468              	.LASF121:
 4469 0289 77747365 		.ascii	"wtsemp\000"
 4469      6D7000
 4470              	.LASF175:
 4471 0290 6572726F 		.ascii	"errors\000"
 4471      727300
 4472              	.LASF69:
 4473 0297 76745F64 		.ascii	"vt_delta\000"
 4473      656C7461 
 4473      00
 4474              	.LASF44:
 4475 02a0 705F6D73 		.ascii	"p_msgqueue\000"
 4475      67717565 
 4475      756500
 4476              	.LASF186:
 4477 02ab 68775F73 		.ascii	"hw_stop_i2c\000"
 4477      746F705F 
 4477      69326300 
 4478              	.LASF146:
 4479 02b7 4C434B52 		.ascii	"LCKR\000"
 4479      00
 4480              	.LASF135:
 4481 02bc 69736869 		.ascii	"ishift\000"
 4481      667400
 4482              	.LASF126:
 4483 02c3 735F636E 		.ascii	"s_cnt\000"
 4483      7400
 4484              	.LASF161:
 4485 02c9 4F504D4F 		.ascii	"OPMODE_SMBUS_DEVICE\000"
ARM GAS  C:\Users\IDONNO~1\AppData\Local\Temp\ccFIblx2.s 			page 82


 4485      44455F53 
 4485      4D425553 
 4485      5F444556 
 4485      49434500 
 4486              	.LASF7:
 4487 02dd 73686F72 		.ascii	"short unsigned int\000"
 4487      7420756E 
 4487      7369676E 
 4487      65642069 
 4487      6E7400
 4488              	.LASF172:
 4489 02f0 49324344 		.ascii	"I2CDriver\000"
 4489      72697665 
 4489      7200
 4490              	.LASF52:
 4491 02fa 63685F74 		.ascii	"ch_thread\000"
 4491      68726561 
 4491      6400
 4492              	.LASF82:
 4493 0304 6D61696E 		.ascii	"mainthread\000"
 4493      74687265 
 4493      616400
 4494              	.LASF26:
 4495 030f 6D73675F 		.ascii	"msg_t\000"
 4495      7400
 4496              	.LASF194:
 4497 0315 4144435F 		.ascii	"ADC_RegularChannelConfig\000"
 4497      52656775 
 4497      6C617243 
 4497      68616E6E 
 4497      656C436F 
 4498              	.LASF21:
 4499 032e 746D6F64 		.ascii	"tmode_t\000"
 4499      655F7400 
 4500              	.LASF164:
 4501 0336 5354445F 		.ascii	"STD_DUTY_CYCLE\000"
 4501      44555459 
 4501      5F435943 
 4501      4C4500
 4502              	.LASF57:
 4503 0345 63685F72 		.ascii	"ch_ready_list\000"
 4503      65616479 
 4503      5F6C6973 
 4503      7400
 4504              	.LASF27:
 4505 0353 6576656E 		.ascii	"eventmask_t\000"
 4505      746D6173 
 4505      6B5F7400 
 4506              	.LASF5:
 4507 035f 73686F72 		.ascii	"short int\000"
 4507      7420696E 
 4507      7400
 4508              	.LASF8:
 4509 0369 5F5F696E 		.ascii	"__int32_t\000"
 4509      7433325F 
 4509      7400
 4510              	.LASF112:
ARM GAS  C:\Users\IDONNO~1\AppData\Local\Temp\ccFIblx2.s 			page 83


 4511 0373 73746B61 		.ascii	"stkalign_t\000"
 4511      6C69676E 
 4511      5F7400
 4512              	.LASF51:
 4513 037e 74687265 		.ascii	"threads_list_t\000"
 4513      6164735F 
 4513      6C697374 
 4513      5F7400
 4514              	.LASF87:
 4515 038d 4A4F4652 		.ascii	"JOFR1\000"
 4515      3100
 4516              	.LASF88:
 4517 0393 4A4F4652 		.ascii	"JOFR2\000"
 4517      3200
 4518              	.LASF89:
 4519 0399 4A4F4652 		.ascii	"JOFR3\000"
 4519      3300
 4520              	.LASF90:
 4521 039f 4A4F4652 		.ascii	"JOFR4\000"
 4521      3400
 4522              	.LASF43:
 4523 03a5 705F7761 		.ascii	"p_waiting\000"
 4523      6974696E 
 4523      6700
 4524              	.LASF152:
 4525 03af 4932435F 		.ascii	"I2C_STOP\000"
 4525      53544F50 
 4525      00
 4526              	.LASF84:
 4527 03b8 73697A65 		.ascii	"sizetype\000"
 4527      74797065 
 4527      00
 4528              	.LASF50:
 4529 03c1 74687265 		.ascii	"thread_reference_t\000"
 4529      61645F72 
 4529      65666572 
 4529      656E6365 
 4529      5F7400
 4530              	.LASF73:
 4531 03d4 63685F76 		.ascii	"ch_virtual_timers_list\000"
 4531      69727475 
 4531      616C5F74 
 4531      696D6572 
 4531      735F6C69 
 4532              	.LASF99:
 4533 03eb 4144435F 		.ascii	"ADC_TypeDef\000"
 4533      54797065 
 4533      44656600 
 4534              	.LASF120:
 4535 03f7 77747472 		.ascii	"wttrp\000"
 4535      7000
 4536              	.LASF196:
 4537 03fd 69326353 		.ascii	"i2cStart\000"
 4537      74617274 
 4537      00
 4538              	.LASF170:
 4539 0406 64757479 		.ascii	"duty_cycle\000"
ARM GAS  C:\Users\IDONNO~1\AppData\Local\Temp\ccFIblx2.s 			page 84


 4539      5F637963 
 4539      6C6500
 4540              	.LASF116:
 4541 0411 746D5F63 		.ascii	"tm_calibration_t\000"
 4541      616C6962 
 4541      72617469 
 4541      6F6E5F74 
 4541      00
 4542              	.LASF150:
 4543 0422 696F706F 		.ascii	"ioportmask_t\000"
 4543      72746D61 
 4543      736B5F74 
 4543      00
 4544              	.LASF36:
 4545 042f 705F6F6C 		.ascii	"p_older\000"
 4545      64657200 
 4546              	.LASF198:
 4547 0437 69326353 		.ascii	"i2cStop\000"
 4547      746F7000 
 4548              	.LASF60:
 4549 043f 725F6374 		.ascii	"r_ctx\000"
 4549      7800
 4550              	.LASF180:
 4551 0445 7478646D 		.ascii	"txdmamode\000"
 4551      616D6F64 
 4551      6500
 4552              	.LASF85:
 4553 044f 534D5052 		.ascii	"SMPR1\000"
 4553      3100
 4554              	.LASF86:
 4555 0455 534D5052 		.ascii	"SMPR2\000"
 4555      3200
 4556              	.LASF130:
 4557 045b 6D5F6E65 		.ascii	"m_next\000"
 4557      787400
 4558              	.LASF160:
 4559 0462 4F504D4F 		.ascii	"OPMODE_I2C\000"
 4559      44455F49 
 4559      324300
 4560              	.LASF63:
 4561 046d 725F6375 		.ascii	"r_current\000"
 4561      7272656E 
 4561      7400
 4562              	.LASF62:
 4563 0477 725F6F6C 		.ascii	"r_older\000"
 4563      64657200 
 4564              	.LASF91:
 4565 047f 53515231 		.ascii	"SQR1\000"
 4565      00
 4566              	.LASF92:
 4567 0484 53515232 		.ascii	"SQR2\000"
 4567      00
 4568              	.LASF93:
 4569 0489 53515233 		.ascii	"SQR3\000"
 4569      00
 4570              	.LASF13:
 4571 048e 5F5F7569 		.ascii	"__uint64_t\000"
ARM GAS  C:\Users\IDONNO~1\AppData\Local\Temp\ccFIblx2.s 			page 85


 4571      6E743634 
 4571      5F7400
 4572              	.LASF148:
 4573 0499 41465248 		.ascii	"AFRH\000"
 4573      00
 4574              	.LASF147:
 4575 049e 4146524C 		.ascii	"AFRL\000"
 4575      00
 4576              	.LASF134:
 4577 04a3 69666372 		.ascii	"ifcr\000"
 4577      00
 4578              	.LASF188:
 4579 04a8 6932635F 		.ascii	"i2c_running\000"
 4579      72756E6E 
 4579      696E6700 
 4580              	.LASF157:
 4581 04b4 69326373 		.ascii	"i2cstate_t\000"
 4581      74617465 
 4581      5F7400
 4582              	.LASF166:
 4583 04bf 46415354 		.ascii	"FAST_DUTY_CYCLE_16_9\000"
 4583      5F445554 
 4583      595F4359 
 4583      434C455F 
 4583      31365F39 
 4584              	.LASF65:
 4585 04d4 76697274 		.ascii	"virtual_timer_t\000"
 4585      75616C5F 
 4585      74696D65 
 4585      725F7400 
 4586              	.LASF32:
 4587 04e4 705F7072 		.ascii	"p_prev\000"
 4587      657600
 4588              	.LASF138:
 4589 04eb 73746D33 		.ascii	"stm32_dma_stream_t\000"
 4589      325F646D 
 4589      615F7374 
 4589      7265616D 
 4589      5F7400
 4590              	.LASF195:
 4591 04fe 69326341 		.ascii	"i2cAcquireBus\000"
 4591      63717569 
 4591      72654275 
 4591      7300
 4592              	.LASF25:
 4593 050c 74707269 		.ascii	"tprio_t\000"
 4593      6F5F7400 
 4594              	.LASF154:
 4595 0514 4932435F 		.ascii	"I2C_ACTIVE_TX\000"
 4595      41435449 
 4595      56455F54 
 4595      5800
 4596              	.LASF159:
 4597 0522 69326366 		.ascii	"i2cflags_t\000"
 4597      6C616773 
 4597      5F7400
 4598              	.LASF176:
ARM GAS  C:\Users\IDONNO~1\AppData\Local\Temp\ccFIblx2.s 			page 86


 4599 052d 6D757465 		.ascii	"mutex\000"
 4599      7800
 4600              	.LASF76:
 4601 0533 63685F73 		.ascii	"ch_system_debug\000"
 4601      79737465 
 4601      6D5F6465 
 4601      62756700 
 4602              	.LASF139:
 4603 0543 5F426F6F 		.ascii	"_Bool\000"
 4603      6C00
 4604              	.LASF17:
 4605 0549 696E7433 		.ascii	"int32_t\000"
 4605      325F7400 
 4606              	.LASF4:
 4607 0551 756E7369 		.ascii	"unsigned char\000"
 4607      676E6564 
 4607      20636861 
 4607      7200
 4608              	.LASF189:
 4609 055f 69326366 		.ascii	"i2cfg\000"
 4609      6700
 4610              	.LASF47:
 4611 0565 705F6D74 		.ascii	"p_mtxlist\000"
 4611      786C6973 
 4611      7400
 4612              	.LASF151:
 4613 056f 4932435F 		.ascii	"I2C_UNINIT\000"
 4613      554E494E 
 4613      495400
 4614              	.LASF38:
 4615 057a 705F7374 		.ascii	"p_state\000"
 4615      61746500 
 4616              	.LASF41:
 4617 0582 705F7072 		.ascii	"p_preempt\000"
 4617      65656D70 
 4617      7400
 4618              	.LASF59:
 4619 058c 725F7072 		.ascii	"r_prio\000"
 4619      696F00
 4620              	.LASF123:
 4621 0593 65776D61 		.ascii	"ewmask\000"
 4621      736B00
 4622              	.LASF31:
 4623 059a 705F6E65 		.ascii	"p_next\000"
 4623      787400
 4624              	.LASF39:
 4625 05a1 705F666C 		.ascii	"p_flags\000"
 4625      61677300 
 4626              	.LASF192:
 4627 05a9 5243435F 		.ascii	"RCC_AHB1PeriphClockCmd\000"
 4627      41484231 
 4627      50657269 
 4627      7068436C 
 4627      6F636B43 
 4628              	.LASF165:
 4629 05c0 46415354 		.ascii	"FAST_DUTY_CYCLE_2\000"
 4629      5F445554 
ARM GAS  C:\Users\IDONNO~1\AppData\Local\Temp\ccFIblx2.s 			page 87


 4629      595F4359 
 4629      434C455F 
 4629      3200
 4630              	.LASF156:
 4631 05d2 4932435F 		.ascii	"I2C_LOCKED\000"
 4631      4C4F434B 
 4631      454400
 4632              	.LASF124:
 4633 05dd 63685F73 		.ascii	"ch_semaphore\000"
 4633      656D6170 
 4633      686F7265 
 4633      00
 4634              	.LASF46:
 4635 05ea 705F6570 		.ascii	"p_epending\000"
 4635      656E6469 
 4635      6E6700
 4636              	.LASF199:
 4637 05f5 63685468 		.ascii	"chThdSleep\000"
 4637      64536C65 
 4637      657000
 4638              	.LASF18:
 4639 0600 75696E74 		.ascii	"uint32_t\000"
 4639      33325F74 
 4639      00
 4640              	.LASF122:
 4641 0609 77746D74 		.ascii	"wtmtxp\000"
 4641      787000
 4642              	.LASF58:
 4643 0610 725F7175 		.ascii	"r_queue\000"
 4643      65756500 
 4644              	.LASF53:
 4645 0618 63685F74 		.ascii	"ch_threads_list\000"
 4645      68726561 
 4645      64735F6C 
 4645      69737400 
 4646              	.LASF191:
 4647 0628 49324344 		.ascii	"I2CD2\000"
 4647      3200
 4648              	.LASF155:
 4649 062e 4932435F 		.ascii	"I2C_ACTIVE_RX\000"
 4649      41435449 
 4649      56455F52 
 4649      5800
 4650              	.LASF11:
 4651 063c 6C6F6E67 		.ascii	"long unsigned int\000"
 4651      20756E73 
 4651      69676E65 
 4651      6420696E 
 4651      7400
 4652              	.LASF131:
 4653 064e 63686172 		.ascii	"char\000"
 4653      00
 4654              	.LASF201:
 4655 0653 6C69622F 		.ascii	"lib/hwconf/hw_oroca.c\000"
 4655      6877636F 
 4655      6E662F68 
 4655      775F6F72 
ARM GAS  C:\Users\IDONNO~1\AppData\Local\Temp\ccFIblx2.s 			page 88


 4655      6F63612E 
 4656              	.LASF162:
 4657 0669 4F504D4F 		.ascii	"OPMODE_SMBUS_HOST\000"
 4657      44455F53 
 4657      4D425553 
 4657      5F484F53 
 4657      5400
 4658              	.LASF174:
 4659 067b 636F6E66 		.ascii	"config\000"
 4659      696700
 4660              	.LASF6:
 4661 0682 5F5F7569 		.ascii	"__uint16_t\000"
 4661      6E743136 
 4661      5F7400
 4662              	.LASF30:
 4663 068d 74687265 		.ascii	"thread_t\000"
 4663      61645F74 
 4663      00
 4664              	.LASF200:
 4665 0696 474E5520 		.ascii	"GNU C99 5.2.1 20151202 (release) [ARM/embedded-5-br"
 4665      43393920 
 4665      352E322E 
 4665      31203230 
 4665      31353132 
 4666 06c9 616E6368 		.ascii	"anch revision 231848] -mcpu=cortex-m4 -mfloat-abi=h"
 4666      20726576 
 4666      6973696F 
 4666      6E203233 
 4666      31383438 
 4667 06fc 61726420 		.ascii	"ard -mfpu=fpv4-sp-d16 -mno-thumb-interwork -mthumb "
 4667      2D6D6670 
 4667      753D6670 
 4667      76342D73 
 4667      702D6431 
 4668 072f 2D676764 		.ascii	"-ggdb -O2 -std=gnu99 -fomit-frame-pointer -falign-f"
 4668      62202D4F 
 4668      32202D73 
 4668      74643D67 
 4668      6E753939 
 4669 0762 756E6374 		.ascii	"unctions=16 -ffunction-sections -fdata-sections -fn"
 4669      696F6E73 
 4669      3D313620 
 4669      2D666675 
 4669      6E637469 
 4670 0795 6F2D636F 		.ascii	"o-common -fsingle-precision-constant\000"
 4670      6D6D6F6E 
 4670      202D6673 
 4670      696E676C 
 4670      652D7072 
 4671              	.LASF29:
 4672 07ba 73797374 		.ascii	"systime_t\000"
 4672      696D655F 
 4672      7400
 4673              	.LASF48:
 4674 07c4 705F7265 		.ascii	"p_realprio\000"
 4674      616C7072 
 4674      696F00
ARM GAS  C:\Users\IDONNO~1\AppData\Local\Temp\ccFIblx2.s 			page 89


 4675              	.LASF64:
 4676 07cf 76746675 		.ascii	"vtfunc_t\000"
 4676      6E635F74 
 4676      00
 4677              	.LASF10:
 4678 07d8 5F5F7569 		.ascii	"__uint32_t\000"
 4678      6E743332 
 4678      5F7400
 4679              	.LASF177:
 4680 07e3 74687265 		.ascii	"thread\000"
 4680      616400
 4681              	.LASF100:
 4682 07ea 4E445452 		.ascii	"NDTR\000"
 4682      00
 4683              	.LASF77:
 4684 07ef 70616E69 		.ascii	"panic_msg\000"
 4684      635F6D73 
 4684      6700
 4685              	.LASF153:
 4686 07f9 4932435F 		.ascii	"I2C_READY\000"
 4686      52454144 
 4686      5900
 4687              	.LASF115:
 4688 0803 6F666673 		.ascii	"offset\000"
 4688      657400
 4689              	.LASF103:
 4690 080a 444D415F 		.ascii	"DMA_Stream_TypeDef\000"
 4690      53747265 
 4690      616D5F54 
 4690      79706544 
 4690      656600
 4691              	.LASF113:
 4692 081d 636F6E74 		.ascii	"context\000"
 4692      65787400 
 4693              	.LASF193:
 4694 0825 5F70616C 		.ascii	"_pal_lld_setgroupmode\000"
 4694      5F6C6C64 
 4694      5F736574 
 4694      67726F75 
 4694      706D6F64 
 4695              	.LASF78:
 4696 083b 63685F73 		.ascii	"ch_system_t\000"
 4696      79737465 
 4696      6D5F7400 
 4697              	.LASF66:
 4698 0847 63685F76 		.ascii	"ch_virtual_timer\000"
 4698      69727475 
 4698      616C5F74 
 4698      696D6572 
 4698      00
 4699              	.LASF20:
 4700 0858 7274636E 		.ascii	"rtcnt_t\000"
 4700      745F7400 
 4701              	.LASF102:
 4702 0860 4D314152 		.ascii	"M1AR\000"
 4702      00
 4703              	.LASF136:
ARM GAS  C:\Users\IDONNO~1\AppData\Local\Temp\ccFIblx2.s 			page 90


 4704 0865 73656C66 		.ascii	"selfindex\000"
 4704      696E6465 
 4704      7800
 4705              	.LASF71:
 4706 086f 76745F70 		.ascii	"vt_par\000"
 4706      617200
 4707              	.LASF171:
 4708 0876 49324343 		.ascii	"I2CConfig\000"
 4708      6F6E6669 
 4708      6700
 4709              	.LASF54:
 4710 0880 74687265 		.ascii	"threads_queue_t\000"
 4710      6164735F 
 4710      71756575 
 4710      655F7400 
 4711              	.LASF127:
 4712 0890 63685F6D 		.ascii	"ch_mutex\000"
 4712      75746578 
 4712      00
 4713              	.LASF40:
 4714 0899 705F7265 		.ascii	"p_refs\000"
 4714      667300
 4715              	.LASF169:
 4716 08a0 636C6F63 		.ascii	"clock_speed\000"
 4716      6B5F7370 
 4716      65656400 
 4717              	.LASF80:
 4718 08ac 726C6973 		.ascii	"rlist\000"
 4718      7400
 4719              	.LASF15:
 4720 08b2 75696E74 		.ascii	"uint8_t\000"
 4720      385F7400 
 4721              	.LASF104:
 4722 08ba 4F415231 		.ascii	"OAR1\000"
 4722      00
 4723              	.LASF105:
 4724 08bf 4F415232 		.ascii	"OAR2\000"
 4724      00
 4725              	.LASF96:
 4726 08c4 4A445232 		.ascii	"JDR2\000"
 4726      00
 4727              	.LASF97:
 4728 08c9 4A445233 		.ascii	"JDR3\000"
 4728      00
 4729              	.LASF98:
 4730 08ce 4A445234 		.ascii	"JDR4\000"
 4730      00
 4731              	.LASF119:
 4732 08d3 77746F62 		.ascii	"wtobjp\000"
 4732      6A7000
 4733              	.LASF37:
 4734 08da 705F6E61 		.ascii	"p_name\000"
 4734      6D6500
 4735              	.LASF140:
 4736 08e1 636C6561 		.ascii	"clear\000"
 4736      7200
 4737              	.LASF74:
ARM GAS  C:\Users\IDONNO~1\AppData\Local\Temp\ccFIblx2.s 			page 91


 4738 08e7 76745F73 		.ascii	"vt_systime\000"
 4738      79737469 
 4738      6D6500
 4739              	.LASF45:
 4740 08f2 705F6D73 		.ascii	"p_msg\000"
 4740      6700
 4741              	.LASF108:
 4742 08f8 4932435F 		.ascii	"I2C_TypeDef\000"
 4742      54797065 
 4742      44656600 
 4743              	.LASF163:
 4744 0904 6932636F 		.ascii	"i2copmode_t\000"
 4744      706D6F64 
 4744      655F7400 
 4745              	.LASF129:
 4746 0910 6D5F6F77 		.ascii	"m_owner\000"
 4746      6E657200 
 4747              	.LASF34:
 4748 0918 705F6374 		.ascii	"p_ctx\000"
 4748      7800
 4749              	.LASF70:
 4750 091e 76745F66 		.ascii	"vt_func\000"
 4750      756E6300 
 4751              		.ident	"GCC: (GNU Tools for ARM Embedded Processors) 5.2.1 20151202 (release) [ARM/embedded-5-bran
ARM GAS  C:\Users\IDONNO~1\AppData\Local\Temp\ccFIblx2.s 			page 92


DEFINED SYMBOLS
                            *ABS*:00000000 hw_oroca.c
C:\Users\IDONNO~1\AppData\Local\Temp\ccFIblx2.s:22     .text.hw_init_gpio:00000000 $t
C:\Users\IDONNO~1\AppData\Local\Temp\ccFIblx2.s:28     .text.hw_init_gpio:00000000 hw_init_gpio
C:\Users\IDONNO~1\AppData\Local\Temp\ccFIblx2.s:288    .text.hw_init_gpio:00000184 $d
C:\Users\IDONNO~1\AppData\Local\Temp\ccFIblx2.s:295    .text.hw_setup_adc_channels:00000000 $t
C:\Users\IDONNO~1\AppData\Local\Temp\ccFIblx2.s:301    .text.hw_setup_adc_channels:00000000 hw_setup_adc_channels
C:\Users\IDONNO~1\AppData\Local\Temp\ccFIblx2.s:414    .text.hw_setup_adc_channels:0000009c $d
C:\Users\IDONNO~1\AppData\Local\Temp\ccFIblx2.s:421    .text.hw_start_i2c:00000000 $t
C:\Users\IDONNO~1\AppData\Local\Temp\ccFIblx2.s:427    .text.hw_start_i2c:00000000 hw_start_i2c
C:\Users\IDONNO~1\AppData\Local\Temp\ccFIblx2.s:480    .text.hw_start_i2c:00000040 $d
C:\Users\IDONNO~1\AppData\Local\Temp\ccFIblx2.s:488    .text.hw_stop_i2c:00000000 $t
C:\Users\IDONNO~1\AppData\Local\Temp\ccFIblx2.s:494    .text.hw_stop_i2c:00000000 hw_stop_i2c
C:\Users\IDONNO~1\AppData\Local\Temp\ccFIblx2.s:546    .text.hw_stop_i2c:0000003c $d
C:\Users\IDONNO~1\AppData\Local\Temp\ccFIblx2.s:553    .text.hw_try_restore_i2c:00000000 $t
C:\Users\IDONNO~1\AppData\Local\Temp\ccFIblx2.s:559    .text.hw_try_restore_i2c:00000000 hw_try_restore_i2c
C:\Users\IDONNO~1\AppData\Local\Temp\ccFIblx2.s:708    .text.hw_try_restore_i2c:000000b4 $d
C:\Users\IDONNO~1\AppData\Local\Temp\ccFIblx2.s:719    .bss.i2c_running:00000000 i2c_running
C:\Users\IDONNO~1\AppData\Local\Temp\ccFIblx2.s:720    .bss.i2c_running:00000000 $d
C:\Users\IDONNO~1\AppData\Local\Temp\ccFIblx2.s:722    .rodata.i2cfg:00000000 $d
C:\Users\IDONNO~1\AppData\Local\Temp\ccFIblx2.s:726    .rodata.i2cfg:00000000 i2cfg
                     .debug_frame:00000010 $d

UNDEFINED SYMBOLS
RCC_AHB1PeriphClockCmd
_pal_lld_setgroupmode
ADC_RegularChannelConfig
i2cAcquireBus
i2cStart
i2cReleaseBus
I2CD2
i2cStop
chThdSleep
