ARM GAS  C:\Users\IDONNO~1\AppData\Local\Temp\ccq1Ay7i.s 			page 1


   1              		.syntax unified
   2              		.cpu cortex-m4
   3              		.eabi_attribute 27, 1
   4              		.eabi_attribute 28, 1
   5              		.fpu fpv4-sp-d16
   6              		.eabi_attribute 20, 1
   7              		.eabi_attribute 21, 1
   8              		.eabi_attribute 23, 3
   9              		.eabi_attribute 24, 1
  10              		.eabi_attribute 25, 1
  11              		.eabi_attribute 26, 1
  12              		.eabi_attribute 30, 2
  13              		.eabi_attribute 34, 1
  14              		.eabi_attribute 18, 4
  15              		.thumb
  16              		.syntax unified
  17              		.file	"hw_oroca.c"
  18              		.text
  19              	.Ltext0:
  20              		.cfi_sections	.debug_frame
  21              		.section	.text.hw_init_gpio,"ax",%progbits
  22              		.align	2
  23              		.p2align 4,,15
  24              		.global	hw_init_gpio
  25              		.thumb
  26              		.thumb_func
  27              		.type	hw_init_gpio, %function
  28              	hw_init_gpio:
  29              	.LFB256:
  30              		.file 1 "lib/hwconf/hw_oroca.c"
  31              		.loc 1 43 0
  32              		.cfi_startproc
  33              		@ args = 0, pretend = 0, frame = 0
  34              		@ frame_needed = 0, uses_anonymous_args = 0
  35              		.loc 1 45 0
  36 0000 0121     		movs	r1, #1
  37              		.loc 1 43 0
  38 0002 2DE9F843 		push	{r3, r4, r5, r6, r7, r8, r9, lr}
  39              		.cfi_def_cfa_offset 32
  40              		.cfi_offset 3, -32
  41              		.cfi_offset 4, -28
  42              		.cfi_offset 5, -24
  43              		.cfi_offset 6, -20
  44              		.cfi_offset 7, -16
  45              		.cfi_offset 8, -12
  46              		.cfi_offset 9, -8
  47              		.cfi_offset 14, -4
  48              		.loc 1 45 0
  49 0006 0846     		mov	r0, r1
  50              		.loc 1 50 0
  51 0008 5E4E     		ldr	r6, .L3
  52              		.loc 1 57 0
  53 000a 5F4C     		ldr	r4, .L3+4
  54              		.loc 1 71 0
  55 000c 5F4D     		ldr	r5, .L3+8
  56              		.loc 1 45 0
  57 000e FFF7FEFF 		bl	RCC_AHB1PeriphClockCmd
ARM GAS  C:\Users\IDONNO~1\AppData\Local\Temp\ccq1Ay7i.s 			page 2


  58              	.LVL0:
  59              		.loc 1 46 0
  60 0012 0121     		movs	r1, #1
  61 0014 0220     		movs	r0, #2
  62 0016 FFF7FEFF 		bl	RCC_AHB1PeriphClockCmd
  63              	.LVL1:
  64              		.loc 1 47 0
  65 001a 0121     		movs	r1, #1
  66 001c 0420     		movs	r0, #4
  67 001e FFF7FEFF 		bl	RCC_AHB1PeriphClockCmd
  68              	.LVL2:
  69              		.loc 1 50 0
  70 0022 3046     		mov	r0, r6
  71 0024 1922     		movs	r2, #25
  72 0026 4021     		movs	r1, #64
  73 0028 FFF7FEFF 		bl	_pal_lld_setgroupmode
  74              	.LVL3:
  75              		.loc 1 51 0
  76 002c 8021     		movs	r1, #128
  77              		.loc 1 54 0
  78 002e 8846     		mov	r8, r1
  79              		.loc 1 53 0
  80 0030 4027     		movs	r7, #64
  81              		.loc 1 51 0
  82 0032 3046     		mov	r0, r6
  83 0034 1922     		movs	r2, #25
  84 0036 FFF7FEFF 		bl	_pal_lld_setgroupmode
  85              	.LVL4:
  86              		.loc 1 53 0
  87 003a 7783     		strh	r7, [r6, #26]	@ movhi
  88              		.loc 1 57 0
  89 003c 3946     		mov	r1, r7
  90 003e 2046     		mov	r0, r4
  91              		.loc 1 54 0
  92 0040 A6F81A80 		strh	r8, [r6, #26]	@ movhi
  93              		.loc 1 57 0
  94 0044 1922     		movs	r2, #25
  95 0046 FFF7FEFF 		bl	_pal_lld_setgroupmode
  96              	.LVL5:
  97              		.loc 1 65 0
  98 004a 4FF48079 		mov	r9, #256
  99              		.loc 1 61 0
 100 004e 4146     		mov	r1, r8
 101 0050 2046     		mov	r0, r4
 102              		.loc 1 58 0
 103 0052 6783     		strh	r7, [r4, #26]	@ movhi
 104              		.loc 1 61 0
 105 0054 1922     		movs	r2, #25
 106 0056 FFF7FEFF 		bl	_pal_lld_setgroupmode
 107              	.LVL6:
 108              		.loc 1 64 0
 109 005a 2046     		mov	r0, r4
 110 005c 4946     		mov	r1, r9
 111 005e 1922     		movs	r2, #25
 112 0060 FFF7FEFF 		bl	_pal_lld_setgroupmode
 113              	.LVL7:
 114              		.loc 1 68 0
ARM GAS  C:\Users\IDONNO~1\AppData\Local\Temp\ccq1Ay7i.s 			page 3


 115 0064 3046     		mov	r0, r6
 116              		.loc 1 65 0
 117 0066 A4F81A90 		strh	r9, [r4, #26]	@ movhi
 118              		.loc 1 68 0
 119 006a 2022     		movs	r2, #32
 120 006c 4FF48051 		mov	r1, #4096
 121 0070 FFF7FEFF 		bl	_pal_lld_setgroupmode
 122              	.LVL8:
 123              		.loc 1 71 0
 124 0074 4946     		mov	r1, r9
 125 0076 2846     		mov	r0, r5
 126 0078 9A22     		movs	r2, #154
 127 007a FFF7FEFF 		bl	_pal_lld_setgroupmode
 128              	.LVL9:
 129              		.loc 1 72 0
 130 007e 2846     		mov	r0, r5
 131 0080 9A22     		movs	r2, #154
 132 0082 4FF40071 		mov	r1, #512
 133 0086 FFF7FEFF 		bl	_pal_lld_setgroupmode
 134              	.LVL10:
 135              		.loc 1 73 0
 136 008a 2846     		mov	r0, r5
 137 008c 9A22     		movs	r2, #154
 138 008e 4FF48061 		mov	r1, #1024
 139 0092 FFF7FEFF 		bl	_pal_lld_setgroupmode
 140              	.LVL11:
 141              		.loc 1 75 0
 142 0096 3046     		mov	r0, r6
 143 0098 9A22     		movs	r2, #154
 144 009a 4FF40051 		mov	r1, #8192
 145 009e FFF7FEFF 		bl	_pal_lld_setgroupmode
 146              	.LVL12:
 147              		.loc 1 76 0
 148 00a2 3046     		mov	r0, r6
 149 00a4 9A22     		movs	r2, #154
 150 00a6 4FF48041 		mov	r1, #16384
 151 00aa FFF7FEFF 		bl	_pal_lld_setgroupmode
 152              	.LVL13:
 153              		.loc 1 77 0
 154 00ae 3046     		mov	r0, r6
 155 00b0 9A22     		movs	r2, #154
 156 00b2 4FF40041 		mov	r1, #32768
 157 00b6 FFF7FEFF 		bl	_pal_lld_setgroupmode
 158              	.LVL14:
 159              		.loc 1 80 0
 160 00ba 2046     		mov	r0, r4
 161 00bc 2022     		movs	r2, #32
 162 00be 4FF40051 		mov	r1, #8192
 163 00c2 FFF7FEFF 		bl	_pal_lld_setgroupmode
 164              	.LVL15:
 165              		.loc 1 81 0
 166 00c6 2046     		mov	r0, r4
 167 00c8 2022     		movs	r2, #32
 168 00ca 4FF48041 		mov	r1, #16384
 169 00ce FFF7FEFF 		bl	_pal_lld_setgroupmode
 170              	.LVL16:
 171              		.loc 1 82 0
ARM GAS  C:\Users\IDONNO~1\AppData\Local\Temp\ccq1Ay7i.s 			page 4


 172 00d2 2046     		mov	r0, r4
 173 00d4 2022     		movs	r2, #32
 174 00d6 4FF40041 		mov	r1, #32768
 175 00da FFF7FEFF 		bl	_pal_lld_setgroupmode
 176              	.LVL17:
 177              		.loc 1 85 0
 178 00de 2846     		mov	r0, r5
 179 00e0 0322     		movs	r2, #3
 180 00e2 0121     		movs	r1, #1
 181 00e4 FFF7FEFF 		bl	_pal_lld_setgroupmode
 182              	.LVL18:
 183              		.loc 1 86 0
 184 00e8 2846     		mov	r0, r5
 185 00ea 0322     		movs	r2, #3
 186 00ec 0221     		movs	r1, #2
 187 00ee FFF7FEFF 		bl	_pal_lld_setgroupmode
 188              	.LVL19:
 189              		.loc 1 87 0
 190 00f2 2846     		mov	r0, r5
 191 00f4 0322     		movs	r2, #3
 192 00f6 0421     		movs	r1, #4
 193 00f8 FFF7FEFF 		bl	_pal_lld_setgroupmode
 194              	.LVL20:
 195              		.loc 1 88 0
 196 00fc 2846     		mov	r0, r5
 197 00fe 0322     		movs	r2, #3
 198 0100 0821     		movs	r1, #8
 199 0102 FFF7FEFF 		bl	_pal_lld_setgroupmode
 200              	.LVL21:
 201              		.loc 1 89 0
 202 0106 2846     		mov	r0, r5
 203 0108 0322     		movs	r2, #3
 204 010a 1021     		movs	r1, #16
 205 010c FFF7FEFF 		bl	_pal_lld_setgroupmode
 206              	.LVL22:
 207              		.loc 1 90 0
 208 0110 2846     		mov	r0, r5
 209 0112 0322     		movs	r2, #3
 210 0114 2021     		movs	r1, #32
 211 0116 FFF7FEFF 		bl	_pal_lld_setgroupmode
 212              	.LVL23:
 213              		.loc 1 91 0
 214 011a 3946     		mov	r1, r7
 215 011c 2846     		mov	r0, r5
 216 011e 0322     		movs	r2, #3
 217 0120 FFF7FEFF 		bl	_pal_lld_setgroupmode
 218              	.LVL24:
 219              		.loc 1 92 0
 220 0124 4146     		mov	r1, r8
 221 0126 2846     		mov	r0, r5
 222 0128 0322     		movs	r2, #3
 223 012a FFF7FEFF 		bl	_pal_lld_setgroupmode
 224              	.LVL25:
 225              		.loc 1 94 0
 226 012e 3046     		mov	r0, r6
 227 0130 0322     		movs	r2, #3
 228 0132 0121     		movs	r1, #1
ARM GAS  C:\Users\IDONNO~1\AppData\Local\Temp\ccq1Ay7i.s 			page 5


 229 0134 FFF7FEFF 		bl	_pal_lld_setgroupmode
 230              	.LVL26:
 231              		.loc 1 95 0
 232 0138 3046     		mov	r0, r6
 233 013a 0322     		movs	r2, #3
 234 013c 0221     		movs	r1, #2
 235 013e FFF7FEFF 		bl	_pal_lld_setgroupmode
 236              	.LVL27:
 237              		.loc 1 97 0
 238 0142 2046     		mov	r0, r4
 239 0144 0322     		movs	r2, #3
 240 0146 0121     		movs	r1, #1
 241 0148 FFF7FEFF 		bl	_pal_lld_setgroupmode
 242              	.LVL28:
 243              		.loc 1 98 0
 244 014c 2046     		mov	r0, r4
 245 014e 0322     		movs	r2, #3
 246 0150 0221     		movs	r1, #2
 247 0152 FFF7FEFF 		bl	_pal_lld_setgroupmode
 248              	.LVL29:
 249              		.loc 1 99 0
 250 0156 2046     		mov	r0, r4
 251 0158 0322     		movs	r2, #3
 252 015a 0421     		movs	r1, #4
 253 015c FFF7FEFF 		bl	_pal_lld_setgroupmode
 254              	.LVL30:
 255              		.loc 1 100 0
 256 0160 2046     		mov	r0, r4
 257 0162 0322     		movs	r2, #3
 258 0164 0821     		movs	r1, #8
 259 0166 FFF7FEFF 		bl	_pal_lld_setgroupmode
 260              	.LVL31:
 261              		.loc 1 101 0
 262 016a 2046     		mov	r0, r4
 263 016c 0322     		movs	r2, #3
 264 016e 1021     		movs	r1, #16
 265 0170 FFF7FEFF 		bl	_pal_lld_setgroupmode
 266              	.LVL32:
 267              		.loc 1 102 0
 268 0174 2046     		mov	r0, r4
 269 0176 0322     		movs	r2, #3
 270 0178 2021     		movs	r1, #32
 271              		.loc 1 104 0
 272 017a BDE8F843 		pop	{r3, r4, r5, r6, r7, r8, r9, lr}
 273              		.cfi_restore 14
 274              		.cfi_restore 9
 275              		.cfi_restore 8
 276              		.cfi_restore 7
 277              		.cfi_restore 6
 278              		.cfi_restore 5
 279              		.cfi_restore 4
 280              		.cfi_restore 3
 281              		.cfi_def_cfa_offset 0
 282              		.loc 1 102 0
 283 017e FFF7FEBF 		b	_pal_lld_setgroupmode
 284              	.LVL33:
 285              	.L4:
ARM GAS  C:\Users\IDONNO~1\AppData\Local\Temp\ccq1Ay7i.s 			page 6


 286 0182 00BF     		.align	2
 287              	.L3:
 288 0184 00040240 		.word	1073873920
 289 0188 00080240 		.word	1073874944
 290 018c 00000240 		.word	1073872896
 291              		.cfi_endproc
 292              	.LFE256:
 293              		.size	hw_init_gpio, .-hw_init_gpio
 294              		.section	.text.hw_setup_adc_channels,"ax",%progbits
 295              		.align	2
 296              		.p2align 4,,15
 297              		.global	hw_setup_adc_channels
 298              		.thumb
 299              		.thumb_func
 300              		.type	hw_setup_adc_channels, %function
 301              	hw_setup_adc_channels:
 302              	.LFB257:
 303              		.loc 1 106 0
 304              		.cfi_startproc
 305              		@ args = 0, pretend = 0, frame = 0
 306              		@ frame_needed = 0, uses_anonymous_args = 0
 307 0000 70B5     		push	{r4, r5, r6, lr}
 308              		.cfi_def_cfa_offset 16
 309              		.cfi_offset 4, -16
 310              		.cfi_offset 5, -12
 311              		.cfi_offset 6, -8
 312              		.cfi_offset 14, -4
 313              		.loc 1 108 0
 314 0002 2C4D     		ldr	r5, .L7
 315              		.loc 1 114 0
 316 0004 2C4C     		ldr	r4, .L7+4
 317              		.loc 1 120 0
 318 0006 2D4E     		ldr	r6, .L7+8
 319              		.loc 1 108 0
 320 0008 0123     		movs	r3, #1
 321 000a 2846     		mov	r0, r5
 322 000c 1A46     		mov	r2, r3
 323 000e 0021     		movs	r1, #0
 324 0010 FFF7FEFF 		bl	ADC_RegularChannelConfig
 325              	.LVL34:
 326              		.loc 1 109 0
 327 0014 2846     		mov	r0, r5
 328 0016 0123     		movs	r3, #1
 329 0018 0222     		movs	r2, #2
 330 001a 0721     		movs	r1, #7
 331 001c FFF7FEFF 		bl	ADC_RegularChannelConfig
 332              	.LVL35:
 333              		.loc 1 110 0
 334 0020 2846     		mov	r0, r5
 335 0022 0123     		movs	r3, #1
 336 0024 0322     		movs	r2, #3
 337 0026 0A21     		movs	r1, #10
 338 0028 FFF7FEFF 		bl	ADC_RegularChannelConfig
 339              	.LVL36:
 340              		.loc 1 111 0
 341 002c 0422     		movs	r2, #4
 342 002e 2846     		mov	r0, r5
ARM GAS  C:\Users\IDONNO~1\AppData\Local\Temp\ccq1Ay7i.s 			page 7


 343 0030 1146     		mov	r1, r2
 344 0032 0123     		movs	r3, #1
 345 0034 FFF7FEFF 		bl	ADC_RegularChannelConfig
 346              	.LVL37:
 347              		.loc 1 114 0
 348 0038 0123     		movs	r3, #1
 349 003a 2046     		mov	r0, r4
 350 003c 1A46     		mov	r2, r3
 351 003e 1946     		mov	r1, r3
 352 0040 FFF7FEFF 		bl	ADC_RegularChannelConfig
 353              	.LVL38:
 354              		.loc 1 115 0
 355 0044 2046     		mov	r0, r4
 356 0046 0123     		movs	r3, #1
 357 0048 0222     		movs	r2, #2
 358 004a 0821     		movs	r1, #8
 359 004c FFF7FEFF 		bl	ADC_RegularChannelConfig
 360              	.LVL39:
 361              		.loc 1 116 0
 362 0050 2046     		mov	r0, r4
 363 0052 0123     		movs	r3, #1
 364 0054 0322     		movs	r2, #3
 365 0056 0B21     		movs	r1, #11
 366 0058 FFF7FEFF 		bl	ADC_RegularChannelConfig
 367              	.LVL40:
 368              		.loc 1 117 0
 369 005c 2046     		mov	r0, r4
 370 005e 0123     		movs	r3, #1
 371 0060 0422     		movs	r2, #4
 372 0062 0F21     		movs	r1, #15
 373 0064 FFF7FEFF 		bl	ADC_RegularChannelConfig
 374              	.LVL41:
 375              		.loc 1 120 0
 376 0068 0123     		movs	r3, #1
 377 006a 3046     		mov	r0, r6
 378 006c 1A46     		mov	r2, r3
 379 006e 0221     		movs	r1, #2
 380 0070 FFF7FEFF 		bl	ADC_RegularChannelConfig
 381              	.LVL42:
 382              		.loc 1 121 0
 383 0074 3046     		mov	r0, r6
 384 0076 0123     		movs	r3, #1
 385 0078 0222     		movs	r2, #2
 386 007a 0321     		movs	r1, #3
 387 007c FFF7FEFF 		bl	ADC_RegularChannelConfig
 388              	.LVL43:
 389              		.loc 1 122 0
 390 0080 3046     		mov	r0, r6
 391 0082 0123     		movs	r3, #1
 392 0084 0322     		movs	r2, #3
 393 0086 0C21     		movs	r1, #12
 394 0088 FFF7FEFF 		bl	ADC_RegularChannelConfig
 395              	.LVL44:
 396              		.loc 1 123 0
 397 008c 3046     		mov	r0, r6
 398 008e 0123     		movs	r3, #1
 399 0090 0422     		movs	r2, #4
ARM GAS  C:\Users\IDONNO~1\AppData\Local\Temp\ccq1Ay7i.s 			page 8


 400 0092 0521     		movs	r1, #5
 401 0094 FFF7FEFF 		bl	ADC_RegularChannelConfig
 402              	.LVL45:
 403              		.loc 1 126 0
 404 0098 0123     		movs	r3, #1
 405 009a 2846     		mov	r0, r5
 406 009c 1A46     		mov	r2, r3
 407 009e 0821     		movs	r1, #8
 408 00a0 FFF7FEFF 		bl	ADC_InjectedChannelConfig
 409              	.LVL46:
 410              		.loc 1 127 0
 411 00a4 0123     		movs	r3, #1
 412 00a6 2046     		mov	r0, r4
 413 00a8 1A46     		mov	r2, r3
 414 00aa 0921     		movs	r1, #9
 415              		.loc 1 128 0
 416 00ac BDE87040 		pop	{r4, r5, r6, lr}
 417              		.cfi_restore 14
 418              		.cfi_restore 6
 419              		.cfi_restore 5
 420              		.cfi_restore 4
 421              		.cfi_def_cfa_offset 0
 422              		.loc 1 127 0
 423 00b0 FFF7FEBF 		b	ADC_InjectedChannelConfig
 424              	.LVL47:
 425              	.L8:
 426              		.align	2
 427              	.L7:
 428 00b4 00200140 		.word	1073815552
 429 00b8 00210140 		.word	1073815808
 430 00bc 00220140 		.word	1073816064
 431              		.cfi_endproc
 432              	.LFE257:
 433              		.size	hw_setup_adc_channels, .-hw_setup_adc_channels
 434              		.section	.text.hw_start_i2c,"ax",%progbits
 435              		.align	2
 436              		.p2align 4,,15
 437              		.global	hw_start_i2c
 438              		.thumb
 439              		.thumb_func
 440              		.type	hw_start_i2c, %function
 441              	hw_start_i2c:
 442              	.LFB258:
 443              		.loc 1 130 0
 444              		.cfi_startproc
 445              		@ args = 0, pretend = 0, frame = 0
 446              		@ frame_needed = 0, uses_anonymous_args = 0
 447 0000 10B5     		push	{r4, lr}
 448              		.cfi_def_cfa_offset 8
 449              		.cfi_offset 4, -8
 450              		.cfi_offset 14, -4
 451              		.loc 1 133 0
 452 0002 0F4C     		ldr	r4, .L13
 453              		.loc 1 131 0
 454 0004 0F48     		ldr	r0, .L13+4
 455 0006 FFF7FEFF 		bl	i2cAcquireBus
 456              	.LVL48:
ARM GAS  C:\Users\IDONNO~1\AppData\Local\Temp\ccq1Ay7i.s 			page 9


 457              		.loc 1 133 0
 458 000a 2378     		ldrb	r3, [r4]	@ zero_extendqisi2
 459 000c 9BB9     		cbnz	r3, .L10
 460              		.loc 1 134 0
 461 000e 40F22E22 		movw	r2, #558
 462 0012 4FF48061 		mov	r1, #1024
 463 0016 0C48     		ldr	r0, .L13+8
 464 0018 FFF7FEFF 		bl	_pal_lld_setgroupmode
 465              	.LVL49:
 466              		.loc 1 135 0
 467 001c 40F22E22 		movw	r2, #558
 468 0020 4FF40061 		mov	r1, #2048
 469 0024 0848     		ldr	r0, .L13+8
 470 0026 FFF7FEFF 		bl	_pal_lld_setgroupmode
 471              	.LVL50:
 472              		.loc 1 137 0
 473 002a 0849     		ldr	r1, .L13+12
 474 002c 0548     		ldr	r0, .L13+4
 475 002e FFF7FEFF 		bl	i2cStart
 476              	.LVL51:
 477              		.loc 1 138 0
 478 0032 0123     		movs	r3, #1
 479 0034 2370     		strb	r3, [r4]
 480              	.L10:
 481              		.loc 1 141 0
 482 0036 0348     		ldr	r0, .L13+4
 483              		.loc 1 142 0
 484 0038 BDE81040 		pop	{r4, lr}
 485              		.cfi_restore 14
 486              		.cfi_restore 4
 487              		.cfi_def_cfa_offset 0
 488              		.loc 1 141 0
 489 003c FFF7FEBF 		b	i2cReleaseBus
 490              	.LVL52:
 491              	.L14:
 492              		.align	2
 493              	.L13:
 494 0040 00000000 		.word	.LANCHOR0
 495 0044 00000000 		.word	I2CD2
 496 0048 00040240 		.word	1073873920
 497 004c 00000000 		.word	.LANCHOR1
 498              		.cfi_endproc
 499              	.LFE258:
 500              		.size	hw_start_i2c, .-hw_start_i2c
 501              		.section	.text.hw_stop_i2c,"ax",%progbits
 502              		.align	2
 503              		.p2align 4,,15
 504              		.global	hw_stop_i2c
 505              		.thumb
 506              		.thumb_func
 507              		.type	hw_stop_i2c, %function
 508              	hw_stop_i2c:
 509              	.LFB259:
 510              		.loc 1 144 0
 511              		.cfi_startproc
 512              		@ args = 0, pretend = 0, frame = 0
 513              		@ frame_needed = 0, uses_anonymous_args = 0
ARM GAS  C:\Users\IDONNO~1\AppData\Local\Temp\ccq1Ay7i.s 			page 10


 514 0000 10B5     		push	{r4, lr}
 515              		.cfi_def_cfa_offset 8
 516              		.cfi_offset 4, -8
 517              		.cfi_offset 14, -4
 518              		.loc 1 147 0
 519 0002 0E4C     		ldr	r4, .L21
 520              		.loc 1 145 0
 521 0004 0E48     		ldr	r0, .L21+4
 522 0006 FFF7FEFF 		bl	i2cAcquireBus
 523              	.LVL53:
 524              		.loc 1 147 0
 525 000a 2378     		ldrb	r3, [r4]	@ zero_extendqisi2
 526 000c 83B1     		cbz	r3, .L16
 527              		.loc 1 148 0
 528 000e 0022     		movs	r2, #0
 529 0010 4FF48061 		mov	r1, #1024
 530 0014 0B48     		ldr	r0, .L21+8
 531 0016 FFF7FEFF 		bl	_pal_lld_setgroupmode
 532              	.LVL54:
 533              		.loc 1 149 0
 534 001a 0022     		movs	r2, #0
 535 001c 4FF40061 		mov	r1, #2048
 536 0020 0848     		ldr	r0, .L21+8
 537 0022 FFF7FEFF 		bl	_pal_lld_setgroupmode
 538              	.LVL55:
 539              		.loc 1 151 0
 540 0026 0648     		ldr	r0, .L21+4
 541 0028 FFF7FEFF 		bl	i2cStop
 542              	.LVL56:
 543              		.loc 1 152 0
 544 002c 0023     		movs	r3, #0
 545 002e 2370     		strb	r3, [r4]
 546              	.L16:
 547              		.loc 1 156 0
 548 0030 0348     		ldr	r0, .L21+4
 549              		.loc 1 157 0
 550 0032 BDE81040 		pop	{r4, lr}
 551              		.cfi_restore 14
 552              		.cfi_restore 4
 553              		.cfi_def_cfa_offset 0
 554              		.loc 1 156 0
 555 0036 FFF7FEBF 		b	i2cReleaseBus
 556              	.LVL57:
 557              	.L22:
 558 003a 00BF     		.align	2
 559              	.L21:
 560 003c 00000000 		.word	.LANCHOR0
 561 0040 00000000 		.word	I2CD2
 562 0044 00040240 		.word	1073873920
 563              		.cfi_endproc
 564              	.LFE259:
 565              		.size	hw_stop_i2c, .-hw_stop_i2c
 566              		.section	.text.hw_try_restore_i2c,"ax",%progbits
 567              		.align	2
 568              		.p2align 4,,15
 569              		.global	hw_try_restore_i2c
 570              		.thumb
ARM GAS  C:\Users\IDONNO~1\AppData\Local\Temp\ccq1Ay7i.s 			page 11


 571              		.thumb_func
 572              		.type	hw_try_restore_i2c, %function
 573              	hw_try_restore_i2c:
 574              	.LFB260:
 575              		.loc 1 162 0
 576              		.cfi_startproc
 577              		@ args = 0, pretend = 0, frame = 0
 578              		@ frame_needed = 0, uses_anonymous_args = 0
 579 0000 2DE9F843 		push	{r3, r4, r5, r6, r7, r8, r9, lr}
 580              		.cfi_def_cfa_offset 32
 581              		.cfi_offset 3, -32
 582              		.cfi_offset 4, -28
 583              		.cfi_offset 5, -24
 584              		.cfi_offset 6, -20
 585              		.cfi_offset 7, -16
 586              		.cfi_offset 8, -12
 587              		.cfi_offset 9, -8
 588              		.cfi_offset 14, -4
 589              		.loc 1 163 0
 590 0004 2B4B     		ldr	r3, .L29
 591 0006 1B78     		ldrb	r3, [r3]	@ zero_extendqisi2
 592 0008 0BB9     		cbnz	r3, .L28
 593 000a BDE8F883 		pop	{r3, r4, r5, r6, r7, r8, r9, pc}
 594              	.L28:
 595              		.loc 1 166 0
 596 000e 2A4D     		ldr	r5, .L29+4
 597              		.loc 1 164 0
 598 0010 2A48     		ldr	r0, .L29+8
 599 0012 FFF7FEFF 		bl	i2cAcquireBus
 600              	.LVL58:
 601              		.loc 1 166 0
 602 0016 2846     		mov	r0, r5
 603 0018 2C22     		movs	r2, #44
 604 001a 4FF48061 		mov	r1, #1024
 605 001e FFF7FEFF 		bl	_pal_lld_setgroupmode
 606              	.LVL59:
 607              		.loc 1 167 0
 608 0022 2846     		mov	r0, r5
 609 0024 2C22     		movs	r2, #44
 610 0026 4FF40061 		mov	r1, #2048
 611 002a FFF7FEFF 		bl	_pal_lld_setgroupmode
 612              	.LVL60:
 613              		.loc 1 169 0
 614 002e 4FF48067 		mov	r7, #1024
 615              		.loc 1 170 0
 616 0032 4FF40063 		mov	r3, #2048
 617              		.loc 1 169 0
 618 0036 2F83     		strh	r7, [r5, #24]	@ movhi
 619              		.loc 1 172 0
 620 0038 0120     		movs	r0, #1
 621              		.loc 1 170 0
 622 003a 2B83     		strh	r3, [r5, #24]	@ movhi
 623              		.loc 1 172 0
 624 003c FFF7FEFF 		bl	chThdSleep
 625              	.LVL61:
 626              	.LBB2:
 627              		.loc 1 175 0
ARM GAS  C:\Users\IDONNO~1\AppData\Local\Temp\ccq1Ay7i.s 			page 12


 628 0040 B946     		mov	r9, r7	@ movhi
 629              	.LBE2:
 630              		.loc 1 172 0
 631 0042 1024     		movs	r4, #16
 632              	.LVL62:
 633              	.L25:
 634              	.LBB3:
 635              		.loc 1 176 0 discriminator 3
 636 0044 0120     		movs	r0, #1
 637              		.loc 1 175 0 discriminator 3
 638 0046 A5F81A90 		strh	r9, [r5, #26]	@ movhi
 639              		.loc 1 176 0 discriminator 3
 640 004a FFF7FEFF 		bl	chThdSleep
 641              	.LVL63:
 642              		.loc 1 177 0 discriminator 3
 643 004e 2F83     		strh	r7, [r5, #24]	@ movhi
 644              		.loc 1 178 0 discriminator 3
 645 0050 0120     		movs	r0, #1
 646 0052 FFF7FEFF 		bl	chThdSleep
 647              	.LVL64:
 648              		.loc 1 174 0 discriminator 3
 649 0056 013C     		subs	r4, r4, #1
 650              	.LVL65:
 651              		.loc 1 175 0 discriminator 3
 652 0058 174E     		ldr	r6, .L29+4
 653 005a 4FF48068 		mov	r8, #1024
 654              		.loc 1 174 0 discriminator 3
 655 005e F1D1     		bne	.L25
 656              	.LBE3:
 657              		.loc 1 182 0
 658 0060 4FF40065 		mov	r5, #2048
 659 0064 7583     		strh	r5, [r6, #26]	@ movhi
 660              		.loc 1 183 0
 661 0066 0120     		movs	r0, #1
 662 0068 FFF7FEFF 		bl	chThdSleep
 663              	.LVL66:
 664              		.loc 1 184 0
 665 006c A6F81A80 		strh	r8, [r6, #26]	@ movhi
 666              		.loc 1 185 0
 667 0070 0120     		movs	r0, #1
 668 0072 FFF7FEFF 		bl	chThdSleep
 669              	.LVL67:
 670              		.loc 1 186 0
 671 0076 A6F81880 		strh	r8, [r6, #24]	@ movhi
 672              		.loc 1 187 0
 673 007a 0120     		movs	r0, #1
 674 007c FFF7FEFF 		bl	chThdSleep
 675              	.LVL68:
 676              		.loc 1 193 0
 677 0080 0E4C     		ldr	r4, .L29+8
 678              	.LVL69:
 679              		.loc 1 188 0
 680 0082 3583     		strh	r5, [r6, #24]	@ movhi
 681              		.loc 1 190 0
 682 0084 4146     		mov	r1, r8
 683 0086 3046     		mov	r0, r6
 684 0088 40F22E22 		movw	r2, #558
ARM GAS  C:\Users\IDONNO~1\AppData\Local\Temp\ccq1Ay7i.s 			page 13


 685 008c FFF7FEFF 		bl	_pal_lld_setgroupmode
 686              	.LVL70:
 687              		.loc 1 191 0
 688 0090 2946     		mov	r1, r5
 689 0092 3046     		mov	r0, r6
 690 0094 40F22E22 		movw	r2, #558
 691 0098 FFF7FEFF 		bl	_pal_lld_setgroupmode
 692              	.LVL71:
 693              		.loc 1 193 0
 694 009c 0123     		movs	r3, #1
 695              		.loc 1 194 0
 696 009e 2046     		mov	r0, r4
 697 00a0 0749     		ldr	r1, .L29+12
 698              		.loc 1 193 0
 699 00a2 2370     		strb	r3, [r4]
 700              		.loc 1 194 0
 701 00a4 FFF7FEFF 		bl	i2cStart
 702              	.LVL72:
 703              		.loc 1 196 0
 704 00a8 2046     		mov	r0, r4
 705              		.loc 1 198 0
 706 00aa BDE8F843 		pop	{r3, r4, r5, r6, r7, r8, r9, lr}
 707              		.cfi_restore 14
 708              		.cfi_restore 9
 709              		.cfi_restore 8
 710              		.cfi_restore 7
 711              		.cfi_restore 6
 712              		.cfi_restore 5
 713              		.cfi_restore 4
 714              		.cfi_restore 3
 715              		.cfi_def_cfa_offset 0
 716              		.loc 1 196 0
 717 00ae FFF7FEBF 		b	i2cReleaseBus
 718              	.LVL73:
 719              	.L30:
 720 00b2 00BF     		.align	2
 721              	.L29:
 722 00b4 00000000 		.word	.LANCHOR0
 723 00b8 00040240 		.word	1073873920
 724 00bc 00000000 		.word	I2CD2
 725 00c0 00000000 		.word	.LANCHOR1
 726              		.cfi_endproc
 727              	.LFE260:
 728              		.size	hw_try_restore_i2c, .-hw_try_restore_i2c
 729              		.section	.bss.i2c_running,"aw",%nobits
 730              		.set	.LANCHOR0,. + 0
 731              		.type	i2c_running, %object
 732              		.size	i2c_running, 1
 733              	i2c_running:
 734 0000 00       		.space	1
 735              		.section	.rodata.i2cfg,"a",%progbits
 736              		.align	2
 737              		.set	.LANCHOR1,. + 0
 738              		.type	i2cfg, %object
 739              		.size	i2cfg, 12
 740              	i2cfg:
 741 0000 01       		.byte	1
ARM GAS  C:\Users\IDONNO~1\AppData\Local\Temp\ccq1Ay7i.s 			page 14


 742 0001 000000   		.space	3
 743 0004 A0860100 		.word	100000
 744 0008 01       		.byte	1
 745 0009 000000   		.space	3
 746              		.text
 747              	.Letext0:
 748              		.file 2 "c:\\program files (x86)\\gnu tools arm embedded\\5.2 2015q4\\arm-none-eabi\\include\\mach
 749              		.file 3 "c:\\program files (x86)\\gnu tools arm embedded\\5.2 2015q4\\arm-none-eabi\\include\\sys\
 750              		.file 4 "c:\\program files (x86)\\gnu tools arm embedded\\5.2 2015q4\\lib\\gcc\\arm-none-eabi\\5.2
 751              		.file 5 "lib/ChibiOS_3.0.2/os/rt/ports/ARMCMx/compilers/GCC/chtypes.h"
 752              		.file 6 "lib/ChibiOS_3.0.2/os/rt/include/chsystypes.h"
 753              		.file 7 "lib/ChibiOS_3.0.2/os/rt/include/chschd.h"
 754              		.file 8 "lib/ChibiOS_3.0.2/os/ext/CMSIS/ST/stm32f407xx.h"
 755              		.file 9 "lib/ChibiOS_3.0.2/os/rt/ports/ARMCMx/chcore.h"
 756              		.file 10 "lib/ChibiOS_3.0.2/os/rt/ports/ARMCMx/chcore_v7m.h"
 757              		.file 11 "lib/ChibiOS_3.0.2/os/rt/include/chtm.h"
 758              		.file 12 "lib/ChibiOS_3.0.2/os/rt/include/chsem.h"
 759              		.file 13 "lib/ChibiOS_3.0.2/os/rt/include/chmtx.h"
 760              		.file 14 "lib/ChibiOS_3.0.2/os/hal/ports/STM32/STM32F4xx/stm32_dma.h"
 761              		.file 15 "lib/ChibiOS_3.0.2/os/hal/ports/STM32/LLD/GPIOv2/pal_lld.h"
 762              		.file 16 "lib/ChibiOS_3.0.2/os/ext/CMSIS/ST/stm32f4xx.h"
 763              		.file 17 "lib/ChibiOS_3.0.2/os/hal/include/i2c.h"
 764              		.file 18 "lib/ChibiOS_3.0.2/os/hal/ports/STM32/LLD/I2Cv1/i2c_lld.h"
 765              		.file 19 "lib/ChibiOS_3.0.2/os/ext/CMSIS/include/core_cm4.h"
 766              		.file 20 "lib/ChibiOS_3.0.2/ext/stdperiph_stm32f4/inc/stm32f4xx_rcc.h"
 767              		.file 21 "lib/ChibiOS_3.0.2/ext/stdperiph_stm32f4/inc/stm32f4xx_adc.h"
 768              		.file 22 "lib/ChibiOS_3.0.2/os/rt/include/chthreads.h"