ARM GAS  C:\Users\IDONNO~1.SON\AppData\Local\Temp\ccGgURRx.s 			page 1


   1              		.syntax unified
   2              		.cpu cortex-m4
   3              		.eabi_attribute 27, 1
   4              		.eabi_attribute 28, 1
   5              		.fpu fpv4-sp-d16
   6              		.eabi_attribute 20, 1
   7              		.eabi_attribute 21, 1
   8              		.eabi_attribute 23, 3
   9              		.eabi_attribute 24, 1
  10              		.eabi_attribute 25, 1
  11              		.eabi_attribute 26, 1
  12              		.eabi_attribute 30, 2
  13              		.eabi_attribute 34, 1
  14              		.eabi_attribute 18, 4
  15              		.thumb
  16              		.syntax unified
  17              		.file	"icu_lld.c"
  18              		.text
  19              	.Ltext0:
  20              		.cfi_sections	.debug_frame
  21              		.section	.text.icu_lld_wait_edge.isra.0,"ax",%progbits
  22              		.align	2
  23              		.p2align 4,,15
  24              		.thumb
  25              		.thumb_func
  26              		.type	icu_lld_wait_edge.isra.0, %function
  27              	icu_lld_wait_edge.isra.0:
  28              	.LFB267:
  29              		.file 1 "lib/ChibiOS_3.0.2/os/hal/ports/STM32/LLD/TIMv1/icu_lld.c"
  30              		.loc 1 105 0
  31              		.cfi_startproc
  32              		@ args = 0, pretend = 0, frame = 0
  33              		@ frame_needed = 0, uses_anonymous_args = 0
  34              		@ link register save eliminated.
  35              	.LVL0:
  36              	.LBB33:
  37              	.LBB34:
  38              	.LBB35:
  39              	.LBB36:
  40              	.LBB37:
  41              		.file 2 "lib/ChibiOS_3.0.2/os/ext/CMSIS/include/core_cmFunc.h"
  42              		.loc 2 546 0
  43 0000 0023     		movs	r3, #0
  44              		.syntax unified
  45              	@ 546 "lib/ChibiOS_3.0.2/os/ext/CMSIS/include/core_cmFunc.h" 1
  46 0002 83F31188 		MSR basepri, r3
  47              	@ 0 "" 2
  48              	.LVL1:
  49              		.thumb
  50              		.syntax unified
  51              	.LBE37:
  52              	.LBE36:
  53              	.LBE35:
  54              	.LBE34:
  55              	.LBE33:
  56              		.loc 1 114 0
  57 0006 0368     		ldr	r3, [r0]
ARM GAS  C:\Users\IDONNO~1.SON\AppData\Local\Temp\ccGgURRx.s 			page 2


  58 0008 1B7D     		ldrb	r3, [r3, #20]	@ zero_extendqisi2
  59 000a 73B9     		cbnz	r3, .L2
  60 000c 0B68     		ldr	r3, [r1]
  61              	.L3:
  62              		.loc 1 116 0
  63 000e 1869     		ldr	r0, [r3, #16]
  64              	.LVL2:
  65 0010 8207     		lsls	r2, r0, #30
  66 0012 FCD0     		beq	.L3
  67              	.L4:
  68              	.LVL3:
  69              	.LBB38:
  70              	.LBB39:
  71              	.LBB40:
  72              	.LBB41:
  73              		.loc 2 546 0
  74 0014 2023     		movs	r3, #32
  75              		.syntax unified
  76              	@ 546 "lib/ChibiOS_3.0.2/os/ext/CMSIS/include/core_cmFunc.h" 1
  77 0016 83F31188 		MSR basepri, r3
  78              	@ 0 "" 2
  79              	.LVL4:
  80              		.thumb
  81              		.syntax unified
  82              	.LBE41:
  83              	.LBE40:
  84              	.LBE39:
  85              	.LBE38:
  86              		.loc 1 134 0
  87 001a 0A68     		ldr	r2, [r1]
  88 001c 1369     		ldr	r3, [r2, #16]
  89 001e 23F00703 		bic	r3, r3, #7
  90              		.loc 1 139 0
  91 0022 00F00100 		and	r0, r0, #1
  92              	.LVL5:
  93              		.loc 1 134 0
  94 0026 1361     		str	r3, [r2, #16]
  95              		.loc 1 139 0
  96 0028 7047     		bx	lr
  97              	.L2:
  98 002a 0B68     		ldr	r3, [r1]
  99              	.L5:
 100              		.loc 1 122 0
 101 002c 1869     		ldr	r0, [r3, #16]
 102              	.LVL6:
 103 002e 10F0050F 		tst	r0, #5
 104 0032 FBD0     		beq	.L5
 105 0034 EEE7     		b	.L4
 106              		.cfi_endproc
 107              	.LFE267:
 108              		.size	icu_lld_wait_edge.isra.0, .-icu_lld_wait_edge.isra.0
 109 0036 00BF     		.section	.text.VectorB4,"ax",%progbits
 110              		.align	2
 111              		.p2align 4,,15
 112              		.global	VectorB4
 113              		.thumb
 114              		.thumb_func
ARM GAS  C:\Users\IDONNO~1.SON\AppData\Local\Temp\ccGgURRx.s 			page 3


 115              		.type	VectorB4, %function
 116              	VectorB4:
 117              	.LFB258:
 118              		.loc 1 248 0
 119              		.cfi_startproc
 120              		@ args = 0, pretend = 0, frame = 0
 121              		@ frame_needed = 0, uses_anonymous_args = 0
 122              	.LVL7:
 123 0000 38B5     		push	{r3, r4, r5, lr}
 124              		.cfi_def_cfa_offset 16
 125              		.cfi_offset 3, -16
 126              		.cfi_offset 4, -12
 127              		.cfi_offset 5, -8
 128              		.cfi_offset 14, -4
 129              	.LBB44:
 130              	.LBB45:
 131              		.loc 1 149 0
 132 0002 254D     		ldr	r5, .L55
 133 0004 EB68     		ldr	r3, [r5, #12]
 134              		.loc 1 152 0
 135 0006 6968     		ldr	r1, [r5, #4]
 136              		.loc 1 149 0
 137 0008 1C69     		ldr	r4, [r3, #16]
 138              	.LVL8:
 139              		.loc 1 150 0
 140 000a DA68     		ldr	r2, [r3, #12]
 141              		.loc 1 152 0
 142 000c 087D     		ldrb	r0, [r1, #20]	@ zero_extendqisi2
 143 000e 1440     		ands	r4, r4, r2
 144              	.LVL9:
 145              		.loc 1 151 0
 146 0010 E2B2     		uxtb	r2, r4
 147 0012 D243     		mvns	r2, r2
 148 0014 1A61     		str	r2, [r3, #16]
 149              		.loc 1 152 0
 150 0016 90B9     		cbnz	r0, .L12
 151              		.loc 1 153 0
 152 0018 6007     		lsls	r0, r4, #29
 153 001a 2FD5     		bpl	.L13
 154              		.loc 1 154 0
 155 001c 2B78     		ldrb	r3, [r5]	@ zero_extendqisi2
 156 001e 042B     		cmp	r3, #4
 157 0020 28D0     		beq	.L52
 158              		.loc 1 155 0
 159 0022 A107     		lsls	r1, r4, #30
 160 0024 12D4     		bmi	.L19
 161              	.L17:
 162              		.loc 1 164 0
 163 0026 E407     		lsls	r4, r4, #31
 164              	.LVL10:
 165 0028 05D5     		bpl	.L25
 166              		.loc 1 165 0
 167 002a 6B68     		ldr	r3, [r5, #4]
 168 002c 1A48     		ldr	r0, .L55
 169 002e 1B69     		ldr	r3, [r3, #16]
 170 0030 9847     		blx	r3
 171              	.LVL11:
ARM GAS  C:\Users\IDONNO~1.SON\AppData\Local\Temp\ccGgURRx.s 			page 4


 172 0032 0323     		movs	r3, #3
 173 0034 2B70     		strb	r3, [r5]
 174              	.L25:
 175              	.LVL12:
 176              	.LBE45:
 177              	.LBE44:
 178              		.loc 1 255 0
 179 0036 BDE83840 		pop	{r3, r4, r5, lr}
 180              		.cfi_remember_state
 181              		.cfi_restore 14
 182              		.cfi_restore 5
 183              		.cfi_restore 4
 184              		.cfi_restore 3
 185              		.cfi_def_cfa_offset 0
 186              		.loc 1 254 0
 187 003a FFF7FEBF 		b	_port_irq_epilogue
 188              	.LVL13:
 189              	.L12:
 190              		.cfi_restore_state
 191              	.LBB47:
 192              	.LBB46:
 193              		.loc 1 159 0
 194 003e A207     		lsls	r2, r4, #30
 195 0040 0BD5     		bpl	.L21
 196              		.loc 1 160 0
 197 0042 2B78     		ldrb	r3, [r5]	@ zero_extendqisi2
 198 0044 042B     		cmp	r3, #4
 199 0046 04D0     		beq	.L53
 200              		.loc 1 161 0
 201 0048 6307     		lsls	r3, r4, #29
 202 004a ECD5     		bpl	.L17
 203              	.L19:
 204              		.loc 1 156 0
 205 004c 0423     		movs	r3, #4
 206 004e 2B70     		strb	r3, [r5]
 207 0050 E9E7     		b	.L17
 208              	.L53:
 209              		.loc 1 160 0
 210 0052 8B68     		ldr	r3, [r1, #8]
 211 0054 E3B1     		cbz	r3, .L23
 212 0056 2846     		mov	r0, r5
 213 0058 9847     		blx	r3
 214              	.LVL14:
 215              	.L21:
 216              		.loc 1 161 0
 217 005a 6307     		lsls	r3, r4, #29
 218 005c E3D5     		bpl	.L17
 219              		.loc 1 156 0
 220 005e 2B78     		ldrb	r3, [r5]	@ zero_extendqisi2
 221 0060 0D4A     		ldr	r2, .L55
 222 0062 042B     		cmp	r3, #4
 223 0064 F2D1     		bne	.L19
 224              	.L54:
 225 0066 5168     		ldr	r1, [r2, #4]
 226              	.L26:
 227 0068 CB68     		ldr	r3, [r1, #12]
 228 006a 002B     		cmp	r3, #0
ARM GAS  C:\Users\IDONNO~1.SON\AppData\Local\Temp\ccGgURRx.s 			page 5


 229 006c EED0     		beq	.L19
 230 006e 0A48     		ldr	r0, .L55
 231 0070 9847     		blx	r3
 232              	.LVL15:
 233 0072 EBE7     		b	.L19
 234              	.L52:
 235              		.loc 1 154 0
 236 0074 8B68     		ldr	r3, [r1, #8]
 237 0076 43B1     		cbz	r3, .L15
 238 0078 2846     		mov	r0, r5
 239 007a 9847     		blx	r3
 240              	.LVL16:
 241              	.L13:
 242              		.loc 1 155 0
 243 007c A107     		lsls	r1, r4, #30
 244 007e D2D5     		bpl	.L17
 245              		.loc 1 156 0
 246 0080 2B78     		ldrb	r3, [r5]	@ zero_extendqisi2
 247 0082 054A     		ldr	r2, .L55
 248 0084 042B     		cmp	r3, #4
 249 0086 E1D1     		bne	.L19
 250 0088 EDE7     		b	.L54
 251              	.L15:
 252              		.loc 1 155 0
 253 008a A007     		lsls	r0, r4, #30
 254 008c ECD4     		bmi	.L26
 255 008e CAE7     		b	.L17
 256              	.L23:
 257              		.loc 1 161 0
 258 0090 6207     		lsls	r2, r4, #29
 259 0092 E9D4     		bmi	.L26
 260 0094 C7E7     		b	.L17
 261              	.L56:
 262 0096 00BF     		.align	2
 263              	.L55:
 264 0098 00000000 		.word	.LANCHOR0
 265              	.LBE46:
 266              	.LBE47:
 267              		.cfi_endproc
 268              	.LFE258:
 269              		.size	VectorB4, .-VectorB4
 270              		.section	.text.icu_lld_init,"ax",%progbits
 271              		.align	2
 272              		.p2align 4,,15
 273              		.global	icu_lld_init
 274              		.thumb
 275              		.thumb_func
 276              		.type	icu_lld_init, %function
 277              	icu_lld_init:
 278              	.LFB259:
 279              		.loc 1 375 0
 280              		.cfi_startproc
 281              		@ args = 0, pretend = 0, frame = 0
 282              		@ frame_needed = 0, uses_anonymous_args = 0
 283 0000 10B5     		push	{r4, lr}
 284              		.cfi_def_cfa_offset 8
 285              		.cfi_offset 4, -8
ARM GAS  C:\Users\IDONNO~1.SON\AppData\Local\Temp\ccGgURRx.s 			page 6


 286              		.cfi_offset 14, -4
 287              		.loc 1 391 0
 288 0002 034C     		ldr	r4, .L59
 289 0004 2046     		mov	r0, r4
 290 0006 FFF7FEFF 		bl	icuObjectInit
 291              	.LVL17:
 292              		.loc 1 392 0
 293 000a 024B     		ldr	r3, .L59+4
 294 000c E360     		str	r3, [r4, #12]
 295 000e 10BD     		pop	{r4, pc}
 296              	.L60:
 297              		.align	2
 298              	.L59:
 299 0010 00000000 		.word	.LANCHOR0
 300 0014 00040040 		.word	1073742848
 301              		.cfi_endproc
 302              	.LFE259:
 303              		.size	icu_lld_init, .-icu_lld_init
 304              		.section	.text.icu_lld_start,"ax",%progbits
 305              		.align	2
 306              		.p2align 4,,15
 307              		.global	icu_lld_start
 308              		.thumb
 309              		.thumb_func
 310              		.type	icu_lld_start, %function
 311              	icu_lld_start:
 312              	.LFB260:
 313              		.loc 1 427 0
 314              		.cfi_startproc
 315              		@ args = 0, pretend = 0, frame = 0
 316              		@ frame_needed = 0, uses_anonymous_args = 0
 317              	.LVL18:
 318 0000 F8B5     		push	{r3, r4, r5, r6, r7, lr}
 319              		.cfi_def_cfa_offset 24
 320              		.cfi_offset 3, -24
 321              		.cfi_offset 4, -20
 322              		.cfi_offset 5, -16
 323              		.cfi_offset 6, -12
 324              		.cfi_offset 7, -8
 325              		.cfi_offset 14, -4
 326              		.loc 1 434 0
 327 0002 0378     		ldrb	r3, [r0]	@ zero_extendqisi2
 328 0004 012B     		cmp	r3, #1
 329              		.loc 1 427 0
 330 0006 0446     		mov	r4, r0
 331              		.loc 1 434 0
 332 0008 3AD0     		beq	.L73
 333              		.loc 1 505 0
 334 000a C368     		ldr	r3, [r0, #12]
 335 000c 0022     		movs	r2, #0
 336 000e 1A60     		str	r2, [r3]
 337              		.loc 1 506 0
 338 0010 5A63     		str	r2, [r3, #52]
 339              		.loc 1 507 0
 340 0012 9A63     		str	r2, [r3, #56]
 341              		.loc 1 508 0
 342 0014 5A62     		str	r2, [r3, #36]
ARM GAS  C:\Users\IDONNO~1.SON\AppData\Local\Temp\ccGgURRx.s 			page 7


 343              	.LVL19:
 344              	.L64:
 345              		.loc 1 513 0
 346 0016 6168     		ldr	r1, [r4, #4]
 347              		.loc 1 515 0
 348 0018 A268     		ldr	r2, [r4, #8]
 349              		.loc 1 513 0
 350 001a 8869     		ldr	r0, [r1, #24]
 351              		.loc 1 522 0
 352 001c 0D7D     		ldrb	r5, [r1, #20]	@ zero_extendqisi2
 353              		.loc 1 515 0
 354 001e 4E68     		ldr	r6, [r1, #4]
 355 0020 B2FBF6F2 		udiv	r2, r2, r6
 356              		.loc 1 513 0
 357 0024 20F0FF00 		bic	r0, r0, #255
 358              		.loc 1 515 0
 359 0028 013A     		subs	r2, r2, #1
 360              	.LVL20:
 361              		.loc 1 512 0
 362 002a 0027     		movs	r7, #0
 363              		.loc 1 520 0
 364 002c 4FF6FF76 		movw	r6, #65535
 365              		.loc 1 512 0
 366 0030 1F61     		str	r7, [r3, #16]
 367              		.loc 1 513 0
 368 0032 D860     		str	r0, [r3, #12]
 369              		.loc 1 519 0
 370 0034 9A62     		str	r2, [r3, #40]
 371              		.loc 1 520 0
 372 0036 DE62     		str	r6, [r3, #44]
 373              		.loc 1 535 0
 374 0038 0A78     		ldrb	r2, [r1]	@ zero_extendqisi2
 375              	.LVL21:
 376              		.loc 1 522 0
 377 003a 6DB9     		cbnz	r5, .L65
 378              		.loc 1 526 0
 379 003c 40F20120 		movw	r0, #513
 380              		.loc 1 530 0
 381 0040 5421     		movs	r1, #84
 382              	.LVL22:
 383              		.loc 1 526 0
 384 0042 9861     		str	r0, [r3, #24]
 385              		.loc 1 530 0
 386 0044 9960     		str	r1, [r3, #8]
 387              		.loc 1 535 0
 388 0046 C2B1     		cbz	r2, .L74
 389              		.loc 1 539 0
 390 0048 1322     		movs	r2, #19
 391 004a 1A62     		str	r2, [r3, #32]
 392              	.LVL23:
 393              	.L67:
 394              		.loc 1 544 0
 395 004c 03F13802 		add	r2, r3, #56
 396              		.loc 1 545 0
 397 0050 3433     		adds	r3, r3, #52
 398              		.loc 1 544 0
 399 0052 2261     		str	r2, [r4, #16]
ARM GAS  C:\Users\IDONNO~1.SON\AppData\Local\Temp\ccGgURRx.s 			page 8


 400              		.loc 1 545 0
 401 0054 6361     		str	r3, [r4, #20]
 402 0056 F8BD     		pop	{r3, r4, r5, r6, r7, pc}
 403              	.LVL24:
 404              	.L65:
 405              		.loc 1 551 0
 406 0058 4FF48170 		mov	r0, #258
 407              		.loc 1 555 0
 408 005c 6421     		movs	r1, #100
 409              	.LVL25:
 410              		.loc 1 551 0
 411 005e 9861     		str	r0, [r3, #24]
 412              		.loc 1 555 0
 413 0060 9960     		str	r1, [r3, #8]
 414              		.loc 1 560 0
 415 0062 3AB1     		cbz	r2, .L75
 416              		.loc 1 564 0
 417 0064 3122     		movs	r2, #49
 418 0066 1A62     		str	r2, [r3, #32]
 419              	.LVL26:
 420              	.L70:
 421              		.loc 1 569 0
 422 0068 03F13402 		add	r2, r3, #52
 423              		.loc 1 570 0
 424 006c 3833     		adds	r3, r3, #56
 425              		.loc 1 569 0
 426 006e 2261     		str	r2, [r4, #16]
 427              		.loc 1 570 0
 428 0070 6361     		str	r3, [r4, #20]
 429 0072 F8BD     		pop	{r3, r4, r5, r6, r7, pc}
 430              	.LVL27:
 431              	.L75:
 432              		.loc 1 561 0
 433 0074 1322     		movs	r2, #19
 434 0076 1A62     		str	r2, [r3, #32]
 435              	.LVL28:
 436 0078 F6E7     		b	.L70
 437              	.LVL29:
 438              	.L74:
 439              		.loc 1 536 0
 440 007a 3122     		movs	r2, #49
 441 007c 1A62     		str	r2, [r3, #32]
 442              	.LVL30:
 443 007e E5E7     		b	.L67
 444              	.LVL31:
 445              	.L73:
 446              		.loc 1 458 0
 447 0080 0B4B     		ldr	r3, .L77
 448 0082 9842     		cmp	r0, r3
 449 0084 01D0     		beq	.L76
 450              	.LVL32:
 451              	.L72:
 452 0086 E368     		ldr	r3, [r4, #12]
 453 0088 C5E7     		b	.L64
 454              	.LVL33:
 455              	.L76:
 456              		.loc 1 459 0
ARM GAS  C:\Users\IDONNO~1.SON\AppData\Local\Temp\ccGgURRx.s 			page 9


 457 008a 0A4B     		ldr	r3, .L77+4
 458 008c 1A6C     		ldr	r2, [r3, #64]
 459 008e 42F00202 		orr	r2, r2, #2
 460 0092 1A64     		str	r2, [r3, #64]
 461              		.loc 1 460 0
 462 0094 1A6A     		ldr	r2, [r3, #32]
 463 0096 0020     		movs	r0, #0
 464              	.LVL34:
 465 0098 42F00202 		orr	r2, r2, #2
 466 009c 1A62     		str	r2, [r3, #32]
 467              		.loc 1 461 0
 468 009e 0721     		movs	r1, #7
 469              		.loc 1 460 0
 470 00a0 1862     		str	r0, [r3, #32]
 471              		.loc 1 461 0
 472 00a2 1D20     		movs	r0, #29
 473 00a4 FFF7FEFF 		bl	nvicEnableVector
 474              	.LVL35:
 475              		.loc 1 462 0
 476 00a8 034B     		ldr	r3, .L77+8
 477 00aa A360     		str	r3, [r4, #8]
 478 00ac EBE7     		b	.L72
 479              	.L78:
 480 00ae 00BF     		.align	2
 481              	.L77:
 482 00b0 00000000 		.word	.LANCHOR0
 483 00b4 00380240 		.word	1073887232
 484 00b8 00BD0105 		.word	84000000
 485              		.cfi_endproc
 486              	.LFE260:
 487              		.size	icu_lld_start, .-icu_lld_start
 488              		.section	.text.icu_lld_stop,"ax",%progbits
 489              		.align	2
 490              		.p2align 4,,15
 491              		.global	icu_lld_stop
 492              		.thumb
 493              		.thumb_func
 494              		.type	icu_lld_stop, %function
 495              	icu_lld_stop:
 496              	.LFB261:
 497              		.loc 1 581 0
 498              		.cfi_startproc
 499              		@ args = 0, pretend = 0, frame = 0
 500              		@ frame_needed = 0, uses_anonymous_args = 0
 501              	.LVL36:
 502 0000 08B5     		push	{r3, lr}
 503              		.cfi_def_cfa_offset 8
 504              		.cfi_offset 3, -8
 505              		.cfi_offset 14, -4
 506              		.loc 1 583 0
 507 0002 0378     		ldrb	r3, [r0]	@ zero_extendqisi2
 508 0004 022B     		cmp	r3, #2
 509 0006 00D0     		beq	.L84
 510              	.LVL37:
 511              	.L79:
 512 0008 08BD     		pop	{r3, pc}
 513              	.LVL38:
ARM GAS  C:\Users\IDONNO~1.SON\AppData\Local\Temp\ccGgURRx.s 			page 10


 514              	.L84:
 515              		.loc 1 603 0
 516 000a 0849     		ldr	r1, .L85
 517              		.loc 1 585 0
 518 000c C368     		ldr	r3, [r0, #12]
 519 000e 0022     		movs	r2, #0
 520              		.loc 1 603 0
 521 0010 8842     		cmp	r0, r1
 522              		.loc 1 585 0
 523 0012 1A60     		str	r2, [r3]
 524              		.loc 1 586 0
 525 0014 DA60     		str	r2, [r3, #12]
 526              		.loc 1 587 0
 527 0016 1A61     		str	r2, [r3, #16]
 528              		.loc 1 603 0
 529 0018 F6D1     		bne	.L79
 530              		.loc 1 604 0
 531 001a 1D20     		movs	r0, #29
 532              	.LVL39:
 533 001c FFF7FEFF 		bl	nvicDisableVector
 534              	.LVL40:
 535              		.loc 1 605 0
 536 0020 034A     		ldr	r2, .L85+4
 537 0022 136C     		ldr	r3, [r2, #64]
 538 0024 23F00203 		bic	r3, r3, #2
 539 0028 1364     		str	r3, [r2, #64]
 540              		.loc 1 634 0
 541 002a EDE7     		b	.L79
 542              	.L86:
 543              		.align	2
 544              	.L85:
 545 002c 00000000 		.word	.LANCHOR0
 546 0030 00380240 		.word	1073887232
 547              		.cfi_endproc
 548              	.LFE261:
 549              		.size	icu_lld_stop, .-icu_lld_stop
 550              		.section	.text.icu_lld_start_capture,"ax",%progbits
 551              		.align	2
 552              		.p2align 4,,15
 553              		.global	icu_lld_start_capture
 554              		.thumb
 555              		.thumb_func
 556              		.type	icu_lld_start_capture, %function
 557              	icu_lld_start_capture:
 558              	.LFB262:
 559              		.loc 1 643 0
 560              		.cfi_startproc
 561              		@ args = 0, pretend = 0, frame = 0
 562              		@ frame_needed = 0, uses_anonymous_args = 0
 563              		@ link register save eliminated.
 564              	.LVL41:
 565              		.loc 1 646 0
 566 0000 C368     		ldr	r3, [r0, #12]
 567 0002 5A69     		ldr	r2, [r3, #20]
 568              		.loc 1 647 0
 569 0004 0020     		movs	r0, #0
 570              	.LVL42:
ARM GAS  C:\Users\IDONNO~1.SON\AppData\Local\Temp\ccGgURRx.s 			page 11


 571              		.loc 1 646 0
 572 0006 42F00102 		orr	r2, r2, #1
 573              		.loc 1 650 0
 574 000a 0521     		movs	r1, #5
 575              		.loc 1 646 0
 576 000c 5A61     		str	r2, [r3, #20]
 577              		.loc 1 647 0
 578 000e 1861     		str	r0, [r3, #16]
 579              		.loc 1 650 0
 580 0010 1960     		str	r1, [r3]
 581 0012 7047     		bx	lr
 582              		.cfi_endproc
 583              	.LFE262:
 584              		.size	icu_lld_start_capture, .-icu_lld_start_capture
 585              		.section	.text.icu_lld_wait_capture,"ax",%progbits
 586              		.align	2
 587              		.p2align 4,,15
 588              		.global	icu_lld_wait_capture
 589              		.thumb
 590              		.thumb_func
 591              		.type	icu_lld_wait_capture, %function
 592              	icu_lld_wait_capture:
 593              	.LFB263:
 594              		.loc 1 665 0
 595              		.cfi_startproc
 596              		@ args = 0, pretend = 0, frame = 0
 597              		@ frame_needed = 0, uses_anonymous_args = 0
 598              	.LVL43:
 599 0000 38B5     		push	{r3, r4, r5, lr}
 600              		.cfi_def_cfa_offset 16
 601              		.cfi_offset 3, -16
 602              		.cfi_offset 4, -12
 603              		.cfi_offset 5, -8
 604              		.cfi_offset 14, -4
 605              		.loc 1 669 0
 606 0002 0378     		ldrb	r3, [r0]	@ zero_extendqisi2
 607 0004 032B     		cmp	r3, #3
 608 0006 00F10C05 		add	r5, r0, #12
 609 000a 00F10404 		add	r4, r0, #4
 610 000e 05D0     		beq	.L89
 611              	.LVL44:
 612              	.L90:
 613              		.loc 1 674 0
 614 0010 2946     		mov	r1, r5
 615 0012 2046     		mov	r0, r4
 616              		.loc 1 675 0
 617 0014 BDE83840 		pop	{r3, r4, r5, lr}
 618              		.cfi_remember_state
 619              		.cfi_restore 14
 620              		.cfi_restore 5
 621              		.cfi_restore 4
 622              		.cfi_restore 3
 623              		.cfi_def_cfa_offset 0
 624              	.LVL45:
 625              		.loc 1 674 0
 626 0018 FFF7FEBF 		b	icu_lld_wait_edge.isra.0
 627              	.LVL46:
ARM GAS  C:\Users\IDONNO~1.SON\AppData\Local\Temp\ccGgURRx.s 			page 12


 628              	.L89:
 629              		.cfi_restore_state
 630              		.loc 1 670 0
 631 001c 2946     		mov	r1, r5
 632 001e 2046     		mov	r0, r4
 633              	.LVL47:
 634 0020 FFF7FEFF 		bl	icu_lld_wait_edge.isra.0
 635              	.LVL48:
 636 0024 0028     		cmp	r0, #0
 637 0026 F3D0     		beq	.L90
 638              		.loc 1 675 0
 639 0028 38BD     		pop	{r3, r4, r5, pc}
 640              		.cfi_endproc
 641              	.LFE263:
 642              		.size	icu_lld_wait_capture, .-icu_lld_wait_capture
 643 002a 00BF     		.section	.text.icu_lld_stop_capture,"ax",%progbits
 644              		.align	2
 645              		.p2align 4,,15
 646              		.global	icu_lld_stop_capture
 647              		.thumb
 648              		.thumb_func
 649              		.type	icu_lld_stop_capture, %function
 650              	icu_lld_stop_capture:
 651              	.LFB264:
 652              		.loc 1 684 0
 653              		.cfi_startproc
 654              		@ args = 0, pretend = 0, frame = 0
 655              		@ frame_needed = 0, uses_anonymous_args = 0
 656              		@ link register save eliminated.
 657              	.LVL49:
 658              		.loc 1 687 0
 659 0000 C368     		ldr	r3, [r0, #12]
 660 0002 0022     		movs	r2, #0
 661 0004 1A60     		str	r2, [r3]
 662              		.loc 1 690 0
 663 0006 DA68     		ldr	r2, [r3, #12]
 664 0008 22F0FF02 		bic	r2, r2, #255
 665 000c DA60     		str	r2, [r3, #12]
 666 000e 7047     		bx	lr
 667              		.cfi_endproc
 668              	.LFE264:
 669              		.size	icu_lld_stop_capture, .-icu_lld_stop_capture
 670              		.section	.text.icu_lld_enable_notifications,"ax",%progbits
 671              		.align	2
 672              		.p2align 4,,15
 673              		.global	icu_lld_enable_notifications
 674              		.thumb
 675              		.thumb_func
 676              		.type	icu_lld_enable_notifications, %function
 677              	icu_lld_enable_notifications:
 678              	.LFB265:
 679              		.loc 1 702 0
 680              		.cfi_startproc
 681              		@ args = 0, pretend = 0, frame = 0
 682              		@ frame_needed = 0, uses_anonymous_args = 0
 683              		@ link register save eliminated.
 684              	.LVL50:
ARM GAS  C:\Users\IDONNO~1.SON\AppData\Local\Temp\ccGgURRx.s 			page 13


 685              		.loc 1 703 0
 686 0000 C268     		ldr	r2, [r0, #12]
 687 0002 D368     		ldr	r3, [r2, #12]
 688              	.LVL51:
 689              		.loc 1 702 0
 690 0004 10B4     		push	{r4}
 691              		.cfi_def_cfa_offset 4
 692              		.cfi_offset 4, -4
 693              		.loc 1 708 0
 694 0006 13F0FF04 		ands	r4, r3, #255
 695 000a 0CD1     		bne	.L96
 696              		.loc 1 712 0
 697 000c 4168     		ldr	r1, [r0, #4]
 698              		.loc 1 710 0
 699 000e 1461     		str	r4, [r2, #16]
 700              		.loc 1 712 0
 701 0010 087D     		ldrb	r0, [r1, #20]	@ zero_extendqisi2
 702              	.LVL52:
 703 0012 58B1     		cbz	r0, .L107
 704              	.LVL53:
 705              		.loc 1 725 0
 706 0014 8868     		ldr	r0, [r1, #8]
 707 0016 78B1     		cbz	r0, .L108
 708              	.LVL54:
 709              	.L101:
 710              		.loc 1 726 0
 711 0018 43F00603 		orr	r3, r3, #6
 712              	.LVL55:
 713              	.L100:
 714              		.loc 1 731 0
 715 001c 0969     		ldr	r1, [r1, #16]
 716 001e 09B1     		cbz	r1, .L102
 717              		.loc 1 732 0
 718 0020 43F00103 		orr	r3, r3, #1
 719              	.LVL56:
 720              	.L102:
 721              		.loc 1 735 0
 722 0024 D360     		str	r3, [r2, #12]
 723              	.L96:
 724              		.loc 1 737 0
 725 0026 5DF8044B 		ldr	r4, [sp], #4
 726              		.cfi_remember_state
 727              		.cfi_restore 4
 728              		.cfi_def_cfa_offset 0
 729 002a 7047     		bx	lr
 730              	.L107:
 731              		.cfi_restore_state
 732              	.LVL57:
 733              		.loc 1 717 0
 734 002c 8868     		ldr	r0, [r1, #8]
 735 002e 0028     		cmp	r0, #0
 736 0030 F2D1     		bne	.L101
 737              		.loc 1 714 0
 738 0032 43F00203 		orr	r3, r3, #2
 739              	.LVL58:
 740 0036 F1E7     		b	.L100
 741              	.LVL59:
ARM GAS  C:\Users\IDONNO~1.SON\AppData\Local\Temp\ccGgURRx.s 			page 14


 742              	.L108:
 743              		.loc 1 722 0
 744 0038 43F00403 		orr	r3, r3, #4
 745              	.LVL60:
 746 003c EEE7     		b	.L100
 747              		.cfi_endproc
 748              	.LFE265:
 749              		.size	icu_lld_enable_notifications, .-icu_lld_enable_notifications
 750 003e 00BF     		.section	.text.icu_lld_disable_notifications,"ax",%progbits
 751              		.align	2
 752              		.p2align 4,,15
 753              		.global	icu_lld_disable_notifications
 754              		.thumb
 755              		.thumb_func
 756              		.type	icu_lld_disable_notifications, %function
 757              	icu_lld_disable_notifications:
 758              	.LFB266:
 759              		.loc 1 748 0
 760              		.cfi_startproc
 761              		@ args = 0, pretend = 0, frame = 0
 762              		@ frame_needed = 0, uses_anonymous_args = 0
 763              		@ link register save eliminated.
 764              	.LVL61:
 765              		.loc 1 751 0
 766 0000 C268     		ldr	r2, [r0, #12]
 767 0002 D368     		ldr	r3, [r2, #12]
 768 0004 23F0FF03 		bic	r3, r3, #255
 769 0008 D360     		str	r3, [r2, #12]
 770 000a 7047     		bx	lr
 771              		.cfi_endproc
 772              	.LFE266:
 773              		.size	icu_lld_disable_notifications, .-icu_lld_disable_notifications
 774              		.global	ICUD3
 775              		.section	.bss.ICUD3,"aw",%nobits
 776              		.align	2
 777              		.set	.LANCHOR0,. + 0
 778              		.type	ICUD3, %object
 779              		.size	ICUD3, 24
 780              	ICUD3:
 781 0000 00000000 		.space	24
 781      00000000 
 781      00000000 
 781      00000000 
 781      00000000 
 782              		.text
 783              	.Letext0:
 784              		.file 3 "c:\\program files (x86)\\gnu tools arm embedded\\5.4 2016q2\\lib\\gcc\\arm-none-eabi\\5.4
 785              		.file 4 "c:\\program files (x86)\\gnu tools arm embedded\\5.4 2016q2\\arm-none-eabi\\include\\mach
 786              		.file 5 "c:\\program files (x86)\\gnu tools arm embedded\\5.4 2016q2\\arm-none-eabi\\include\\sys\
 787              		.file 6 "lib/ChibiOS_3.0.2/os/rt/ports/ARMCMx/compilers/GCC/chtypes.h"
 788              		.file 7 "lib/ChibiOS_3.0.2/os/rt/include/chsystypes.h"
 789              		.file 8 "lib/ChibiOS_3.0.2/os/rt/include/chschd.h"
 790              		.file 9 "lib/ChibiOS_3.0.2/os/ext/CMSIS/ST/stm32f407xx.h"
 791              		.file 10 "lib/ChibiOS_3.0.2/os/rt/ports/ARMCMx/chcore.h"
 792              		.file 11 "lib/ChibiOS_3.0.2/os/rt/ports/ARMCMx/chcore_v7m.h"
 793              		.file 12 "lib/ChibiOS_3.0.2/os/rt/include/chtm.h"
 794              		.file 13 "lib/ChibiOS_3.0.2/os/rt/include/chsem.h"
ARM GAS  C:\Users\IDONNO~1.SON\AppData\Local\Temp\ccGgURRx.s 			page 15


 795              		.file 14 "lib/ChibiOS_3.0.2/os/rt/include/chmtx.h"
 796              		.file 15 "lib/ChibiOS_3.0.2/os/hal/ports/STM32/LLD/TIMv1/stm32_tim.h"
 797              		.file 16 "lib/ChibiOS_3.0.2/os/hal/include/icu.h"
 798              		.file 17 "lib/ChibiOS_3.0.2/os/hal/ports/STM32/LLD/TIMv1/icu_lld.h"
 799              		.file 18 "lib/ChibiOS_3.0.2/os/rt/include/chsys.h"
 800              		.file 19 "lib/ChibiOS_3.0.2/os/ext/CMSIS/include/core_cm4.h"
 801              		.file 20 "lib/ChibiOS_3.0.2/os/hal/ports/common/ARMCMx/nvic.h"
 802              		.section	.debug_info,"",%progbits
 803              	.Ldebug_info0:
 804 0000 DF0F0000 		.4byte	0xfdf
 805 0004 0400     		.2byte	0x4
 806 0006 00000000 		.4byte	.Ldebug_abbrev0
 807 000a 04       		.byte	0x4
 808 000b 01       		.uleb128 0x1
 809 000c A2000000 		.4byte	.LASF196
 810 0010 0C       		.byte	0xc
 811 0011 CD050000 		.4byte	.LASF197
 812 0015 DB010000 		.4byte	.LASF198
 813 0019 18000000 		.4byte	.Ldebug_ranges0+0x18
 814 001d 00000000 		.4byte	0
 815 0021 00000000 		.4byte	.Ldebug_line0
 816 0025 02       		.uleb128 0x2
 817 0026 04       		.byte	0x4
 818 0027 07       		.byte	0x7
 819 0028 92030000 		.4byte	.LASF0
 820 002c 03       		.uleb128 0x3
 821 002d 04       		.byte	0x4
 822 002e 05       		.byte	0x5
 823 002f 696E7400 		.ascii	"int\000"
 824 0033 04       		.uleb128 0x4
 825 0034 28000000 		.4byte	.LASF2
 826 0038 03       		.byte	0x3
 827 0039 D8       		.byte	0xd8
 828 003a 25000000 		.4byte	0x25
 829 003e 02       		.uleb128 0x2
 830 003f 01       		.byte	0x1
 831 0040 06       		.byte	0x6
 832 0041 B0020000 		.4byte	.LASF1
 833 0045 04       		.uleb128 0x4
 834 0046 6C000000 		.4byte	.LASF3
 835 004a 04       		.byte	0x4
 836 004b 1D       		.byte	0x1d
 837 004c 50000000 		.4byte	0x50
 838 0050 02       		.uleb128 0x2
 839 0051 01       		.byte	0x1
 840 0052 08       		.byte	0x8
 841 0053 AF060000 		.4byte	.LASF4
 842 0057 02       		.uleb128 0x2
 843 0058 02       		.byte	0x2
 844 0059 05       		.byte	0x5
 845 005a D7060000 		.4byte	.LASF5
 846 005e 02       		.uleb128 0x2
 847 005f 02       		.byte	0x2
 848 0060 07       		.byte	0x7
 849 0061 7A020000 		.4byte	.LASF6
 850 0065 04       		.uleb128 0x4
 851 0066 AD040000 		.4byte	.LASF7
ARM GAS  C:\Users\IDONNO~1.SON\AppData\Local\Temp\ccGgURRx.s 			page 16


 852 006a 04       		.byte	0x4
 853 006b 3F       		.byte	0x3f
 854 006c 70000000 		.4byte	0x70
 855 0070 02       		.uleb128 0x2
 856 0071 04       		.byte	0x4
 857 0072 05       		.byte	0x5
 858 0073 03030000 		.4byte	.LASF8
 859 0077 04       		.uleb128 0x4
 860 0078 12080000 		.4byte	.LASF9
 861 007c 04       		.byte	0x4
 862 007d 41       		.byte	0x41
 863 007e 82000000 		.4byte	0x82
 864 0082 02       		.uleb128 0x2
 865 0083 04       		.byte	0x4
 866 0084 07       		.byte	0x7
 867 0085 A8070000 		.4byte	.LASF10
 868 0089 02       		.uleb128 0x2
 869 008a 08       		.byte	0x8
 870 008b 05       		.byte	0x5
 871 008c 69030000 		.4byte	.LASF11
 872 0090 04       		.uleb128 0x4
 873 0091 2E060000 		.4byte	.LASF12
 874 0095 04       		.byte	0x4
 875 0096 5B       		.byte	0x5b
 876 0097 9B000000 		.4byte	0x9b
 877 009b 02       		.uleb128 0x2
 878 009c 08       		.byte	0x8
 879 009d 07       		.byte	0x7
 880 009e FF010000 		.4byte	.LASF13
 881 00a2 04       		.uleb128 0x4
 882 00a3 F6080000 		.4byte	.LASF14
 883 00a7 05       		.byte	0x5
 884 00a8 18       		.byte	0x18
 885 00a9 45000000 		.4byte	0x45
 886 00ad 04       		.uleb128 0x4
 887 00ae A7060000 		.4byte	.LASF15
 888 00b2 05       		.byte	0x5
 889 00b3 2C       		.byte	0x2c
 890 00b4 65000000 		.4byte	0x65
 891 00b8 04       		.uleb128 0x4
 892 00b9 86080000 		.4byte	.LASF16
 893 00bd 05       		.byte	0x5
 894 00be 30       		.byte	0x30
 895 00bf 77000000 		.4byte	0x77
 896 00c3 04       		.uleb128 0x4
 897 00c4 4C000000 		.4byte	.LASF17
 898 00c8 05       		.byte	0x5
 899 00c9 3C       		.byte	0x3c
 900 00ca 90000000 		.4byte	0x90
 901 00ce 05       		.uleb128 0x5
 902 00cf AD000000 		.4byte	0xad
 903 00d3 05       		.uleb128 0x5
 904 00d4 B8000000 		.4byte	0xb8
 905 00d8 04       		.uleb128 0x4
 906 00d9 77080000 		.4byte	.LASF18
 907 00dd 06       		.byte	0x6
 908 00de 45       		.byte	0x45
ARM GAS  C:\Users\IDONNO~1.SON\AppData\Local\Temp\ccGgURRx.s 			page 17


 909 00df B8000000 		.4byte	0xb8
 910 00e3 04       		.uleb128 0x4
 911 00e4 19090000 		.4byte	.LASF19
 912 00e8 06       		.byte	0x6
 913 00e9 48       		.byte	0x48
 914 00ea A2000000 		.4byte	0xa2
 915 00ee 04       		.uleb128 0x4
 916 00ef 1F030000 		.4byte	.LASF20
 917 00f3 06       		.byte	0x6
 918 00f4 49       		.byte	0x49
 919 00f5 A2000000 		.4byte	0xa2
 920 00f9 04       		.uleb128 0x4
 921 00fa 39060000 		.4byte	.LASF21
 922 00fe 06       		.byte	0x6
 923 00ff 4A       		.byte	0x4a
 924 0100 A2000000 		.4byte	0xa2
 925 0104 04       		.uleb128 0x4
 926 0105 E0020000 		.4byte	.LASF22
 927 0109 06       		.byte	0x6
 928 010a 4B       		.byte	0x4b
 929 010b A2000000 		.4byte	0xa2
 930 010f 04       		.uleb128 0x4
 931 0110 84060000 		.4byte	.LASF23
 932 0114 06       		.byte	0x6
 933 0115 4C       		.byte	0x4c
 934 0116 B8000000 		.4byte	0xb8
 935 011a 04       		.uleb128 0x4
 936 011b 43040000 		.4byte	.LASF24
 937 011f 06       		.byte	0x6
 938 0120 4D       		.byte	0x4d
 939 0121 AD000000 		.4byte	0xad
 940 0125 04       		.uleb128 0x4
 941 0126 A1040000 		.4byte	.LASF25
 942 012a 06       		.byte	0x6
 943 012b 4F       		.byte	0x4f
 944 012c B8000000 		.4byte	0xb8
 945 0130 04       		.uleb128 0x4
 946 0131 8C030000 		.4byte	.LASF26
 947 0135 06       		.byte	0x6
 948 0136 51       		.byte	0x51
 949 0137 AD000000 		.4byte	0xad
 950 013b 04       		.uleb128 0x4
 951 013c F4070000 		.4byte	.LASF27
 952 0140 07       		.byte	0x7
 953 0141 33       		.byte	0x33
 954 0142 B8000000 		.4byte	0xb8
 955 0146 04       		.uleb128 0x4
 956 0147 DF070000 		.4byte	.LASF28
 957 014b 07       		.byte	0x7
 958 014c 3F       		.byte	0x3f
 959 014d 51010000 		.4byte	0x151
 960 0151 06       		.uleb128 0x6
 961 0152 00040000 		.4byte	.LASF50
 962 0156 48       		.byte	0x48
 963 0157 08       		.byte	0x8
 964 0158 C2       		.byte	0xc2
 965 0159 56020000 		.4byte	0x256
ARM GAS  C:\Users\IDONNO~1.SON\AppData\Local\Temp\ccGgURRx.s 			page 18


 966 015d 07       		.uleb128 0x7
 967 015e 7C050000 		.4byte	.LASF29
 968 0162 08       		.byte	0x8
 969 0163 C3       		.byte	0xc3
 970 0164 61020000 		.4byte	0x261
 971 0168 00       		.byte	0
 972 0169 07       		.uleb128 0x7
 973 016a 73060000 		.4byte	.LASF30
 974 016e 08       		.byte	0x8
 975 016f C5       		.byte	0xc5
 976 0170 61020000 		.4byte	0x261
 977 0174 04       		.byte	0x4
 978 0175 07       		.uleb128 0x7
 979 0176 73020000 		.4byte	.LASF31
 980 017a 08       		.byte	0x8
 981 017b C7       		.byte	0xc7
 982 017c 0F010000 		.4byte	0x10f
 983 0180 08       		.byte	0x8
 984 0181 07       		.uleb128 0x7
 985 0182 7E090000 		.4byte	.LASF32
 986 0186 08       		.byte	0x8
 987 0187 C8       		.byte	0xc8
 988 0188 5C060000 		.4byte	0x65c
 989 018c 0C       		.byte	0xc
 990 018d 07       		.uleb128 0x7
 991 018e 28030000 		.4byte	.LASF33
 992 0192 08       		.byte	0x8
 993 0193 CA       		.byte	0xca
 994 0194 61020000 		.4byte	0x261
 995 0198 10       		.byte	0x10
 996 0199 07       		.uleb128 0x7
 997 019a A5050000 		.4byte	.LASF34
 998 019e 08       		.byte	0x8
 999 019f CB       		.byte	0xcb
 1000 01a0 61020000 		.4byte	0x261
 1001 01a4 14       		.byte	0x14
 1002 01a5 07       		.uleb128 0x7
 1003 01a6 05090000 		.4byte	.LASF35
 1004 01aa 08       		.byte	0x8
 1005 01ab D2       		.byte	0xd2
 1006 01ac A1080000 		.4byte	0x8a1
 1007 01b0 18       		.byte	0x18
 1008 01b1 07       		.uleb128 0x7
 1009 01b2 E1060000 		.4byte	.LASF36
 1010 01b6 08       		.byte	0x8
 1011 01b7 DD       		.byte	0xdd
 1012 01b8 EE000000 		.4byte	0xee
 1013 01bc 1C       		.byte	0x1c
 1014 01bd 07       		.uleb128 0x7
 1015 01be 0B070000 		.4byte	.LASF37
 1016 01c2 08       		.byte	0x8
 1017 01c3 E1       		.byte	0xe1
 1018 01c4 E3000000 		.4byte	0xe3
 1019 01c8 1D       		.byte	0x1d
 1020 01c9 07       		.uleb128 0x7
 1021 01ca AE080000 		.4byte	.LASF38
 1022 01ce 08       		.byte	0x8
ARM GAS  C:\Users\IDONNO~1.SON\AppData\Local\Temp\ccGgURRx.s 			page 19


 1023 01cf E6       		.byte	0xe6
 1024 01d0 F9000000 		.4byte	0xf9
 1025 01d4 1E       		.byte	0x1e
 1026 01d5 07       		.uleb128 0x7
 1027 01d6 E9060000 		.4byte	.LASF39
 1028 01da 08       		.byte	0x8
 1029 01db EC       		.byte	0xec
 1030 01dc 04010000 		.4byte	0x104
 1031 01e0 1F       		.byte	0x1f
 1032 01e1 07       		.uleb128 0x7
 1033 01e2 B9030000 		.4byte	.LASF40
 1034 01e6 08       		.byte	0x8
 1035 01e7 F3       		.byte	0xf3
 1036 01e8 B3080000 		.4byte	0x8b3
 1037 01ec 20       		.byte	0x20
 1038 01ed 08       		.uleb128 0x8
 1039 01ee 705F7500 		.ascii	"p_u\000"
 1040 01f2 08       		.byte	0x8
 1041 01f3 3101     		.2byte	0x131
 1042 01f5 DC070000 		.4byte	0x7dc
 1043 01f9 24       		.byte	0x24
 1044 01fa 09       		.uleb128 0x9
 1045 01fb 34050000 		.4byte	.LASF41
 1046 01ff 08       		.byte	0x8
 1047 0200 3601     		.2byte	0x136
 1048 0202 67020000 		.4byte	0x267
 1049 0206 28       		.byte	0x28
 1050 0207 09       		.uleb128 0x9
 1051 0208 DB030000 		.4byte	.LASF42
 1052 020c 08       		.byte	0x8
 1053 020d 3C01     		.2byte	0x13c
 1054 020f 8B020000 		.4byte	0x28b
 1055 0213 2C       		.byte	0x2c
 1056 0214 09       		.uleb128 0x9
 1057 0215 43090000 		.4byte	.LASF43
 1058 0219 08       		.byte	0x8
 1059 021a 4001     		.2byte	0x140
 1060 021c 1A010000 		.4byte	0x11a
 1061 0220 34       		.byte	0x34
 1062 0221 09       		.uleb128 0x9
 1063 0222 66070000 		.4byte	.LASF44
 1064 0226 08       		.byte	0x8
 1065 0227 4601     		.2byte	0x146
 1066 0229 25010000 		.4byte	0x125
 1067 022d 38       		.byte	0x38
 1068 022e 09       		.uleb128 0x9
 1069 022f CD060000 		.4byte	.LASF45
 1070 0233 08       		.byte	0x8
 1071 0234 4D01     		.2byte	0x14d
 1072 0236 9B080000 		.4byte	0x89b
 1073 023a 3C       		.byte	0x3c
 1074 023b 09       		.uleb128 0x9
 1075 023c FE070000 		.4byte	.LASF46
 1076 0240 08       		.byte	0x8
 1077 0241 5101     		.2byte	0x151
 1078 0243 0F010000 		.4byte	0x10f
 1079 0247 40       		.byte	0x40
ARM GAS  C:\Users\IDONNO~1.SON\AppData\Local\Temp\ccGgURRx.s 			page 20


 1080 0248 09       		.uleb128 0x9
 1081 0249 4A030000 		.4byte	.LASF47
 1082 024d 08       		.byte	0x8
 1083 024e 5801     		.2byte	0x158
 1084 0250 3E030000 		.4byte	0x33e
 1085 0254 44       		.byte	0x44
 1086 0255 00       		.byte	0
 1087 0256 04       		.uleb128 0x4
 1088 0257 47050000 		.4byte	.LASF48
 1089 025b 07       		.byte	0x7
 1090 025c 44       		.byte	0x44
 1091 025d 61020000 		.4byte	0x261
 1092 0261 0A       		.uleb128 0xa
 1093 0262 04       		.byte	0x4
 1094 0263 46010000 		.4byte	0x146
 1095 0267 04       		.uleb128 0x4
 1096 0268 E1040000 		.4byte	.LASF49
 1097 026c 07       		.byte	0x7
 1098 026d 49       		.byte	0x49
 1099 026e 72020000 		.4byte	0x272
 1100 0272 06       		.uleb128 0x6
 1101 0273 98070000 		.4byte	.LASF51
 1102 0277 04       		.byte	0x4
 1103 0278 08       		.byte	0x8
 1104 0279 B0       		.byte	0xb0
 1105 027a 8B020000 		.4byte	0x28b
 1106 027e 07       		.uleb128 0x7
 1107 027f 7C050000 		.4byte	.LASF29
 1108 0283 08       		.byte	0x8
 1109 0284 B1       		.byte	0xb1
 1110 0285 61020000 		.4byte	0x261
 1111 0289 00       		.byte	0
 1112 028a 00       		.byte	0
 1113 028b 04       		.uleb128 0x4
 1114 028c 95080000 		.4byte	.LASF52
 1115 0290 07       		.byte	0x7
 1116 0291 50       		.byte	0x50
 1117 0292 96020000 		.4byte	0x296
 1118 0296 06       		.uleb128 0x6
 1119 0297 82000000 		.4byte	.LASF53
 1120 029b 08       		.byte	0x8
 1121 029c 08       		.byte	0x8
 1122 029d B7       		.byte	0xb7
 1123 029e BB020000 		.4byte	0x2bb
 1124 02a2 07       		.uleb128 0x7
 1125 02a3 7C050000 		.4byte	.LASF29
 1126 02a7 08       		.byte	0x8
 1127 02a8 B8       		.byte	0xb8
 1128 02a9 61020000 		.4byte	0x261
 1129 02ad 00       		.byte	0
 1130 02ae 07       		.uleb128 0x7
 1131 02af 73060000 		.4byte	.LASF30
 1132 02b3 08       		.byte	0x8
 1133 02b4 B9       		.byte	0xb9
 1134 02b5 61020000 		.4byte	0x261
 1135 02b9 04       		.byte	0x4
 1136 02ba 00       		.byte	0
ARM GAS  C:\Users\IDONNO~1.SON\AppData\Local\Temp\ccGgURRx.s 			page 21


 1137 02bb 04       		.uleb128 0x4
 1138 02bc 16000000 		.4byte	.LASF54
 1139 02c0 07       		.byte	0x7
 1140 02c1 57       		.byte	0x57
 1141 02c2 C6020000 		.4byte	0x2c6
 1142 02c6 0B       		.uleb128 0xb
 1143 02c7 93040000 		.4byte	.LASF55
 1144 02cb 1C       		.byte	0x1c
 1145 02cc 08       		.byte	0x8
 1146 02cd 9001     		.2byte	0x190
 1147 02cf 22030000 		.4byte	0x322
 1148 02d3 09       		.uleb128 0x9
 1149 02d4 90070000 		.4byte	.LASF56
 1150 02d8 08       		.byte	0x8
 1151 02d9 9101     		.2byte	0x191
 1152 02db 8B020000 		.4byte	0x28b
 1153 02df 00       		.byte	0
 1154 02e0 09       		.uleb128 0x9
 1155 02e1 FD060000 		.4byte	.LASF57
 1156 02e5 08       		.byte	0x8
 1157 02e6 9201     		.2byte	0x192
 1158 02e8 0F010000 		.4byte	0x10f
 1159 02ec 08       		.byte	0x8
 1160 02ed 09       		.uleb128 0x9
 1161 02ee B4050000 		.4byte	.LASF58
 1162 02f2 08       		.byte	0x8
 1163 02f3 9401     		.2byte	0x194
 1164 02f5 5C060000 		.4byte	0x65c
 1165 02f9 0C       		.byte	0xc
 1166 02fa 09       		.uleb128 0x9
 1167 02fb 42030000 		.4byte	.LASF59
 1168 02ff 08       		.byte	0x8
 1169 0300 9701     		.2byte	0x197
 1170 0302 61020000 		.4byte	0x261
 1171 0306 10       		.byte	0x10
 1172 0307 09       		.uleb128 0x9
 1173 0308 59080000 		.4byte	.LASF60
 1174 030c 08       		.byte	0x8
 1175 030d 9801     		.2byte	0x198
 1176 030f 61020000 		.4byte	0x261
 1177 0313 14       		.byte	0x14
 1178 0314 09       		.uleb128 0x9
 1179 0315 1B060000 		.4byte	.LASF61
 1180 0319 08       		.byte	0x8
 1181 031a 9B01     		.2byte	0x19b
 1182 031c 61020000 		.4byte	0x261
 1183 0320 18       		.byte	0x18
 1184 0321 00       		.byte	0
 1185 0322 04       		.uleb128 0x4
 1186 0323 09080000 		.4byte	.LASF62
 1187 0327 07       		.byte	0x7
 1188 0328 5C       		.byte	0x5c
 1189 0329 2D030000 		.4byte	0x32d
 1190 032d 0A       		.uleb128 0xa
 1191 032e 04       		.byte	0x4
 1192 032f 33030000 		.4byte	0x333
 1193 0333 0C       		.uleb128 0xc
ARM GAS  C:\Users\IDONNO~1.SON\AppData\Local\Temp\ccGgURRx.s 			page 22


 1194 0334 3E030000 		.4byte	0x33e
 1195 0338 0D       		.uleb128 0xd
 1196 0339 3E030000 		.4byte	0x33e
 1197 033d 00       		.byte	0
 1198 033e 0E       		.uleb128 0xe
 1199 033f 04       		.byte	0x4
 1200 0340 04       		.uleb128 0x4
 1201 0341 F0040000 		.4byte	.LASF63
 1202 0345 07       		.byte	0x7
 1203 0346 61       		.byte	0x61
 1204 0347 4B030000 		.4byte	0x34b
 1205 034b 0B       		.uleb128 0xb
 1206 034c 43070000 		.4byte	.LASF64
 1207 0350 14       		.byte	0x14
 1208 0351 08       		.byte	0x8
 1209 0352 6B01     		.2byte	0x16b
 1210 0354 9A030000 		.4byte	0x39a
 1211 0358 09       		.uleb128 0x9
 1212 0359 9F030000 		.4byte	.LASF65
 1213 035d 08       		.byte	0x8
 1214 035e 6C01     		.2byte	0x16c
 1215 0360 B8080000 		.4byte	0x8b8
 1216 0364 00       		.byte	0
 1217 0365 09       		.uleb128 0x9
 1218 0366 5B030000 		.4byte	.LASF66
 1219 036a 08       		.byte	0x8
 1220 036b 6D01     		.2byte	0x16d
 1221 036d B8080000 		.4byte	0x8b8
 1222 0371 04       		.byte	0x4
 1223 0372 09       		.uleb128 0x9
 1224 0373 D2030000 		.4byte	.LASF67
 1225 0377 08       		.byte	0x8
 1226 0378 6E01     		.2byte	0x16e
 1227 037a 3B010000 		.4byte	0x13b
 1228 037e 08       		.byte	0x8
 1229 037f 09       		.uleb128 0x9
 1230 0380 84090000 		.4byte	.LASF68
 1231 0384 08       		.byte	0x8
 1232 0385 6F01     		.2byte	0x16f
 1233 0387 22030000 		.4byte	0x322
 1234 038b 0C       		.byte	0xc
 1235 038c 09       		.uleb128 0x9
 1236 038d 7F080000 		.4byte	.LASF69
 1237 0391 08       		.byte	0x8
 1238 0392 7101     		.2byte	0x171
 1239 0394 3E030000 		.4byte	0x33e
 1240 0398 10       		.byte	0x10
 1241 0399 00       		.byte	0
 1242 039a 04       		.uleb128 0x4
 1243 039b 37020000 		.4byte	.LASF70
 1244 039f 07       		.byte	0x7
 1245 03a0 66       		.byte	0x66
 1246 03a1 A5030000 		.4byte	0x3a5
 1247 03a5 0B       		.uleb128 0xb
 1248 03a6 5A050000 		.4byte	.LASF71
 1249 03aa 10       		.byte	0x10
 1250 03ab 08       		.byte	0x8
ARM GAS  C:\Users\IDONNO~1.SON\AppData\Local\Temp\ccGgURRx.s 			page 23


 1251 03ac 7B01     		.2byte	0x17b
 1252 03ae E7030000 		.4byte	0x3e7
 1253 03b2 09       		.uleb128 0x9
 1254 03b3 9F030000 		.4byte	.LASF65
 1255 03b7 08       		.byte	0x8
 1256 03b8 7C01     		.2byte	0x17c
 1257 03ba B8080000 		.4byte	0x8b8
 1258 03be 00       		.byte	0
 1259 03bf 09       		.uleb128 0x9
 1260 03c0 5B030000 		.4byte	.LASF66
 1261 03c4 08       		.byte	0x8
 1262 03c5 7E01     		.2byte	0x17e
 1263 03c7 B8080000 		.4byte	0x8b8
 1264 03cb 04       		.byte	0x4
 1265 03cc 09       		.uleb128 0x9
 1266 03cd D2030000 		.4byte	.LASF67
 1267 03d1 08       		.byte	0x8
 1268 03d2 8001     		.2byte	0x180
 1269 03d4 3B010000 		.4byte	0x13b
 1270 03d8 08       		.byte	0x8
 1271 03d9 09       		.uleb128 0x9
 1272 03da C7030000 		.4byte	.LASF72
 1273 03de 08       		.byte	0x8
 1274 03df 8201     		.2byte	0x182
 1275 03e1 B3080000 		.4byte	0x8b3
 1276 03e5 0C       		.byte	0xc
 1277 03e6 00       		.byte	0
 1278 03e7 04       		.uleb128 0x4
 1279 03e8 93000000 		.4byte	.LASF73
 1280 03ec 07       		.byte	0x7
 1281 03ed 6B       		.byte	0x6b
 1282 03ee F2030000 		.4byte	0x3f2
 1283 03f2 0B       		.uleb128 0xb
 1284 03f3 91060000 		.4byte	.LASF74
 1285 03f7 04       		.byte	0x4
 1286 03f8 08       		.byte	0x8
 1287 03f9 A201     		.2byte	0x1a2
 1288 03fb 0D040000 		.4byte	0x40d
 1289 03ff 09       		.uleb128 0x9
 1290 0400 2B080000 		.4byte	.LASF75
 1291 0404 08       		.byte	0x8
 1292 0405 AA01     		.2byte	0x1aa
 1293 0407 BE080000 		.4byte	0x8be
 1294 040b 00       		.byte	0
 1295 040c 00       		.byte	0
 1296 040d 04       		.uleb128 0x4
 1297 040e 61080000 		.4byte	.LASF76
 1298 0412 07       		.byte	0x7
 1299 0413 70       		.byte	0x70
 1300 0414 18040000 		.4byte	0x418
 1301 0418 0F       		.uleb128 0xf
 1302 0419 F9020000 		.4byte	.LASF77
 1303 041d 5802     		.2byte	0x258
 1304 041f 08       		.byte	0x8
 1305 0420 C201     		.2byte	0x1c2
 1306 0422 74040000 		.4byte	0x474
 1307 0426 09       		.uleb128 0x9
ARM GAS  C:\Users\IDONNO~1.SON\AppData\Local\Temp\ccGgURRx.s 			page 24


 1308 0427 63030000 		.4byte	.LASF78
 1309 042b 08       		.byte	0x8
 1310 042c C601     		.2byte	0x1c6
 1311 042e BB020000 		.4byte	0x2bb
 1312 0432 00       		.byte	0
 1313 0433 09       		.uleb128 0x9
 1314 0434 CD020000 		.4byte	.LASF79
 1315 0438 08       		.byte	0x8
 1316 0439 CA01     		.2byte	0x1ca
 1317 043b 9A030000 		.4byte	0x39a
 1318 043f 1C       		.byte	0x1c
 1319 0440 08       		.uleb128 0x8
 1320 0441 64626700 		.ascii	"dbg\000"
 1321 0445 08       		.byte	0x8
 1322 0446 CE01     		.2byte	0x1ce
 1323 0448 E7030000 		.4byte	0x3e7
 1324 044c 2C       		.byte	0x2c
 1325 044d 09       		.uleb128 0x9
 1326 044e 1F020000 		.4byte	.LASF80
 1327 0452 08       		.byte	0x8
 1328 0453 D201     		.2byte	0x1d2
 1329 0455 46010000 		.4byte	0x146
 1330 0459 30       		.byte	0x30
 1331 045a 08       		.uleb128 0x8
 1332 045b 746D00   		.ascii	"tm\000"
 1333 045e 08       		.byte	0x8
 1334 045f D701     		.2byte	0x1d7
 1335 0461 D1070000 		.4byte	0x7d1
 1336 0465 78       		.byte	0x78
 1337 0466 09       		.uleb128 0x9
 1338 0467 7D030000 		.4byte	.LASF81
 1339 046b 08       		.byte	0x8
 1340 046c E301     		.2byte	0x1e3
 1341 046e C3080000 		.4byte	0x8c3
 1342 0472 80       		.byte	0x80
 1343 0473 00       		.byte	0
 1344 0474 02       		.uleb128 0x2
 1345 0475 04       		.byte	0x4
 1346 0476 07       		.byte	0x7
 1347 0477 3E050000 		.4byte	.LASF82
 1348 047b 10       		.uleb128 0x10
 1349 047c B8000000 		.4byte	0xb8
 1350 0480 8B040000 		.4byte	0x48b
 1351 0484 11       		.uleb128 0x11
 1352 0485 74040000 		.4byte	0x474
 1353 0489 01       		.byte	0x1
 1354 048a 00       		.byte	0
 1355 048b 10       		.uleb128 0x10
 1356 048c D3000000 		.4byte	0xd3
 1357 0490 9B040000 		.4byte	0x49b
 1358 0494 11       		.uleb128 0x11
 1359 0495 74040000 		.4byte	0x474
 1360 0499 01       		.byte	0x1
 1361 049a 00       		.byte	0
 1362 049b 10       		.uleb128 0x10
 1363 049c D3000000 		.4byte	0xd3
 1364 04a0 AB040000 		.4byte	0x4ab
ARM GAS  C:\Users\IDONNO~1.SON\AppData\Local\Temp\ccGgURRx.s 			page 25


 1365 04a4 11       		.uleb128 0x11
 1366 04a5 74040000 		.4byte	0x474
 1367 04a9 03       		.byte	0x3
 1368 04aa 00       		.byte	0
 1369 04ab 12       		.uleb128 0x12
 1370 04ac 88       		.byte	0x88
 1371 04ad 09       		.byte	0x9
 1372 04ae 6702     		.2byte	0x267
 1373 04b0 3A060000 		.4byte	0x63a
 1374 04b4 08       		.uleb128 0x8
 1375 04b5 435200   		.ascii	"CR\000"
 1376 04b8 09       		.byte	0x9
 1377 04b9 6902     		.2byte	0x269
 1378 04bb D3000000 		.4byte	0xd3
 1379 04bf 00       		.byte	0
 1380 04c0 09       		.uleb128 0x9
 1381 04c1 30030000 		.4byte	.LASF83
 1382 04c5 09       		.byte	0x9
 1383 04c6 6A02     		.2byte	0x26a
 1384 04c8 D3000000 		.4byte	0xd3
 1385 04cc 04       		.byte	0x4
 1386 04cd 09       		.uleb128 0x9
 1387 04ce 14090000 		.4byte	.LASF84
 1388 04d2 09       		.byte	0x9
 1389 04d3 6B02     		.2byte	0x26b
 1390 04d5 D3000000 		.4byte	0xd3
 1391 04d9 08       		.byte	0x8
 1392 04da 08       		.uleb128 0x8
 1393 04db 43495200 		.ascii	"CIR\000"
 1394 04df 09       		.byte	0x9
 1395 04e0 6C02     		.2byte	0x26c
 1396 04e2 D3000000 		.4byte	0xd3
 1397 04e6 0C       		.byte	0xc
 1398 04e7 09       		.uleb128 0x9
 1399 04e8 BC020000 		.4byte	.LASF85
 1400 04ec 09       		.byte	0x9
 1401 04ed 6D02     		.2byte	0x26d
 1402 04ef D3000000 		.4byte	0xd3
 1403 04f3 10       		.byte	0x10
 1404 04f4 09       		.uleb128 0x9
 1405 04f5 D6070000 		.4byte	.LASF86
 1406 04f9 09       		.byte	0x9
 1407 04fa 6E02     		.2byte	0x26e
 1408 04fc D3000000 		.4byte	0xd3
 1409 0500 14       		.byte	0x14
 1410 0501 09       		.uleb128 0x9
 1411 0502 49040000 		.4byte	.LASF87
 1412 0506 09       		.byte	0x9
 1413 0507 6F02     		.2byte	0x26f
 1414 0509 D3000000 		.4byte	0xd3
 1415 050d 18       		.byte	0x18
 1416 050e 09       		.uleb128 0x9
 1417 050f 41060000 		.4byte	.LASF88
 1418 0513 09       		.byte	0x9
 1419 0514 7002     		.2byte	0x270
 1420 0516 B8000000 		.4byte	0xb8
 1421 051a 1C       		.byte	0x1c
ARM GAS  C:\Users\IDONNO~1.SON\AppData\Local\Temp\ccGgURRx.s 			page 26


 1422 051b 09       		.uleb128 0x9
 1423 051c 25060000 		.4byte	.LASF89
 1424 0520 09       		.byte	0x9
 1425 0521 7102     		.2byte	0x271
 1426 0523 D3000000 		.4byte	0xd3
 1427 0527 20       		.byte	0x20
 1428 0528 09       		.uleb128 0x9
 1429 0529 0C030000 		.4byte	.LASF90
 1430 052d 09       		.byte	0x9
 1431 052e 7202     		.2byte	0x272
 1432 0530 D3000000 		.4byte	0xd3
 1433 0534 24       		.byte	0x24
 1434 0535 09       		.uleb128 0x9
 1435 0536 4B060000 		.4byte	.LASF91
 1436 053a 09       		.byte	0x9
 1437 053b 7302     		.2byte	0x273
 1438 053d 7B040000 		.4byte	0x47b
 1439 0541 28       		.byte	0x28
 1440 0542 09       		.uleb128 0x9
 1441 0543 0C090000 		.4byte	.LASF92
 1442 0547 09       		.byte	0x9
 1443 0548 7402     		.2byte	0x274
 1444 054a D3000000 		.4byte	0xd3
 1445 054e 30       		.byte	0x30
 1446 054f 09       		.uleb128 0x9
 1447 0550 6F040000 		.4byte	.LASF93
 1448 0554 09       		.byte	0x9
 1449 0555 7502     		.2byte	0x275
 1450 0557 D3000000 		.4byte	0xd3
 1451 055b 34       		.byte	0x34
 1452 055c 09       		.uleb128 0x9
 1453 055d 9D050000 		.4byte	.LASF94
 1454 0561 09       		.byte	0x9
 1455 0562 7602     		.2byte	0x276
 1456 0564 D3000000 		.4byte	0xd3
 1457 0568 38       		.byte	0x38
 1458 0569 09       		.uleb128 0x9
 1459 056a 55060000 		.4byte	.LASF95
 1460 056e 09       		.byte	0x9
 1461 056f 7702     		.2byte	0x277
 1462 0571 B8000000 		.4byte	0xb8
 1463 0575 3C       		.byte	0x3c
 1464 0576 09       		.uleb128 0x9
 1465 0577 3C080000 		.4byte	.LASF96
 1466 057b 09       		.byte	0x9
 1467 057c 7802     		.2byte	0x278
 1468 057e D3000000 		.4byte	0xd3
 1469 0582 40       		.byte	0x40
 1470 0583 09       		.uleb128 0x9
 1471 0584 26070000 		.4byte	.LASF97
 1472 0588 09       		.byte	0x9
 1473 0589 7902     		.2byte	0x279
 1474 058b D3000000 		.4byte	0xd3
 1475 058f 44       		.byte	0x44
 1476 0590 09       		.uleb128 0x9
 1477 0591 5F060000 		.4byte	.LASF98
 1478 0595 09       		.byte	0x9
ARM GAS  C:\Users\IDONNO~1.SON\AppData\Local\Temp\ccGgURRx.s 			page 27


 1479 0596 7A02     		.2byte	0x27a
 1480 0598 7B040000 		.4byte	0x47b
 1481 059c 48       		.byte	0x48
 1482 059d 09       		.uleb128 0x9
 1483 059e 69020000 		.4byte	.LASF99
 1484 05a2 09       		.byte	0x9
 1485 05a3 7B02     		.2byte	0x27b
 1486 05a5 D3000000 		.4byte	0xd3
 1487 05a9 50       		.byte	0x50
 1488 05aa 09       		.uleb128 0x9
 1489 05ab BA050000 		.4byte	.LASF100
 1490 05af 09       		.byte	0x9
 1491 05b0 7C02     		.2byte	0x27c
 1492 05b2 D3000000 		.4byte	0xd3
 1493 05b6 54       		.byte	0x54
 1494 05b7 09       		.uleb128 0x9
 1495 05b8 F3060000 		.4byte	.LASF101
 1496 05bc 09       		.byte	0x9
 1497 05bd 7D02     		.2byte	0x27d
 1498 05bf D3000000 		.4byte	0xd3
 1499 05c3 58       		.byte	0x58
 1500 05c4 09       		.uleb128 0x9
 1501 05c5 69060000 		.4byte	.LASF102
 1502 05c9 09       		.byte	0x9
 1503 05ca 7E02     		.2byte	0x27e
 1504 05cc B8000000 		.4byte	0xb8
 1505 05d0 5C       		.byte	0x5c
 1506 05d1 09       		.uleb128 0x9
 1507 05d2 15030000 		.4byte	.LASF103
 1508 05d6 09       		.byte	0x9
 1509 05d7 7F02     		.2byte	0x27f
 1510 05d9 D3000000 		.4byte	0xd3
 1511 05dd 60       		.byte	0x60
 1512 05de 09       		.uleb128 0x9
 1513 05df 83040000 		.4byte	.LASF104
 1514 05e3 09       		.byte	0x9
 1515 05e4 8002     		.2byte	0x280
 1516 05e6 D3000000 		.4byte	0xd3
 1517 05ea 64       		.byte	0x64
 1518 05eb 09       		.uleb128 0x9
 1519 05ec 71070000 		.4byte	.LASF105
 1520 05f0 09       		.byte	0x9
 1521 05f1 8102     		.2byte	0x281
 1522 05f3 7B040000 		.4byte	0x47b
 1523 05f7 68       		.byte	0x68
 1524 05f8 09       		.uleb128 0x9
 1525 05f9 CA080000 		.4byte	.LASF106
 1526 05fd 09       		.byte	0x9
 1527 05fe 8202     		.2byte	0x282
 1528 0600 D3000000 		.4byte	0xd3
 1529 0604 70       		.byte	0x70
 1530 0605 08       		.uleb128 0x8
 1531 0606 43535200 		.ascii	"CSR\000"
 1532 060a 09       		.byte	0x9
 1533 060b 8302     		.2byte	0x283
 1534 060d D3000000 		.4byte	0xd3
 1535 0611 74       		.byte	0x74
ARM GAS  C:\Users\IDONNO~1.SON\AppData\Local\Temp\ccGgURRx.s 			page 28


 1536 0612 09       		.uleb128 0x9
 1537 0613 7A060000 		.4byte	.LASF107
 1538 0617 09       		.byte	0x9
 1539 0618 8402     		.2byte	0x284
 1540 061a 7B040000 		.4byte	0x47b
 1541 061e 78       		.byte	0x78
 1542 061f 09       		.uleb128 0x9
 1543 0620 8F080000 		.4byte	.LASF108
 1544 0624 09       		.byte	0x9
 1545 0625 8502     		.2byte	0x285
 1546 0627 D3000000 		.4byte	0xd3
 1547 062b 80       		.byte	0x80
 1548 062c 09       		.uleb128 0x9
 1549 062d 38040000 		.4byte	.LASF109
 1550 0631 09       		.byte	0x9
 1551 0632 8602     		.2byte	0x286
 1552 0634 D3000000 		.4byte	0xd3
 1553 0638 84       		.byte	0x84
 1554 0639 00       		.byte	0
 1555 063a 13       		.uleb128 0x13
 1556 063b F4030000 		.4byte	.LASF110
 1557 063f 09       		.byte	0x9
 1558 0640 8802     		.2byte	0x288
 1559 0642 AB040000 		.4byte	0x4ab
 1560 0646 04       		.uleb128 0x4
 1561 0647 52030000 		.4byte	.LASF111
 1562 064b 0A       		.byte	0xa
 1563 064c 65       		.byte	0x65
 1564 064d 3E030000 		.4byte	0x33e
 1565 0651 04       		.uleb128 0x4
 1566 0652 C1040000 		.4byte	.LASF112
 1567 0656 0A       		.byte	0xa
 1568 0657 6D       		.byte	0x6d
 1569 0658 C3000000 		.4byte	0xc3
 1570 065c 06       		.uleb128 0x6
 1571 065d 51080000 		.4byte	.LASF113
 1572 0661 04       		.byte	0x4
 1573 0662 0A       		.byte	0xa
 1574 0663 89       		.byte	0x89
 1575 0664 75060000 		.4byte	0x675
 1576 0668 14       		.uleb128 0x14
 1577 0669 72313300 		.ascii	"r13\000"
 1578 066d 0A       		.byte	0xa
 1579 066e 8A       		.byte	0x8a
 1580 066f B6070000 		.4byte	0x7b6
 1581 0673 00       		.byte	0
 1582 0674 00       		.byte	0
 1583 0675 06       		.uleb128 0x6
 1584 0676 76000000 		.4byte	.LASF114
 1585 067a 64       		.byte	0x64
 1586 067b 0B       		.byte	0xb
 1587 067c F4       		.byte	0xf4
 1588 067d B6070000 		.4byte	0x7b6
 1589 0681 14       		.uleb128 0x14
 1590 0682 73313600 		.ascii	"s16\000"
 1591 0686 0B       		.byte	0xb
 1592 0687 F6       		.byte	0xf6
ARM GAS  C:\Users\IDONNO~1.SON\AppData\Local\Temp\ccGgURRx.s 			page 29


 1593 0688 46060000 		.4byte	0x646
 1594 068c 00       		.byte	0
 1595 068d 14       		.uleb128 0x14
 1596 068e 73313700 		.ascii	"s17\000"
 1597 0692 0B       		.byte	0xb
 1598 0693 F7       		.byte	0xf7
 1599 0694 46060000 		.4byte	0x646
 1600 0698 04       		.byte	0x4
 1601 0699 14       		.uleb128 0x14
 1602 069a 73313800 		.ascii	"s18\000"
 1603 069e 0B       		.byte	0xb
 1604 069f F8       		.byte	0xf8
 1605 06a0 46060000 		.4byte	0x646
 1606 06a4 08       		.byte	0x8
 1607 06a5 14       		.uleb128 0x14
 1608 06a6 73313900 		.ascii	"s19\000"
 1609 06aa 0B       		.byte	0xb
 1610 06ab F9       		.byte	0xf9
 1611 06ac 46060000 		.4byte	0x646
 1612 06b0 0C       		.byte	0xc
 1613 06b1 14       		.uleb128 0x14
 1614 06b2 73323000 		.ascii	"s20\000"
 1615 06b6 0B       		.byte	0xb
 1616 06b7 FA       		.byte	0xfa
 1617 06b8 46060000 		.4byte	0x646
 1618 06bc 10       		.byte	0x10
 1619 06bd 14       		.uleb128 0x14
 1620 06be 73323100 		.ascii	"s21\000"
 1621 06c2 0B       		.byte	0xb
 1622 06c3 FB       		.byte	0xfb
 1623 06c4 46060000 		.4byte	0x646
 1624 06c8 14       		.byte	0x14
 1625 06c9 14       		.uleb128 0x14
 1626 06ca 73323200 		.ascii	"s22\000"
 1627 06ce 0B       		.byte	0xb
 1628 06cf FC       		.byte	0xfc
 1629 06d0 46060000 		.4byte	0x646
 1630 06d4 18       		.byte	0x18
 1631 06d5 14       		.uleb128 0x14
 1632 06d6 73323300 		.ascii	"s23\000"
 1633 06da 0B       		.byte	0xb
 1634 06db FD       		.byte	0xfd
 1635 06dc 46060000 		.4byte	0x646
 1636 06e0 1C       		.byte	0x1c
 1637 06e1 14       		.uleb128 0x14
 1638 06e2 73323400 		.ascii	"s24\000"
 1639 06e6 0B       		.byte	0xb
 1640 06e7 FE       		.byte	0xfe
 1641 06e8 46060000 		.4byte	0x646
 1642 06ec 20       		.byte	0x20
 1643 06ed 14       		.uleb128 0x14
 1644 06ee 73323500 		.ascii	"s25\000"
 1645 06f2 0B       		.byte	0xb
 1646 06f3 FF       		.byte	0xff
 1647 06f4 46060000 		.4byte	0x646
 1648 06f8 24       		.byte	0x24
 1649 06f9 08       		.uleb128 0x8
ARM GAS  C:\Users\IDONNO~1.SON\AppData\Local\Temp\ccGgURRx.s 			page 30


 1650 06fa 73323600 		.ascii	"s26\000"
 1651 06fe 0B       		.byte	0xb
 1652 06ff 0001     		.2byte	0x100
 1653 0701 46060000 		.4byte	0x646
 1654 0705 28       		.byte	0x28
 1655 0706 08       		.uleb128 0x8
 1656 0707 73323700 		.ascii	"s27\000"
 1657 070b 0B       		.byte	0xb
 1658 070c 0101     		.2byte	0x101
 1659 070e 46060000 		.4byte	0x646
 1660 0712 2C       		.byte	0x2c
 1661 0713 08       		.uleb128 0x8
 1662 0714 73323800 		.ascii	"s28\000"
 1663 0718 0B       		.byte	0xb
 1664 0719 0201     		.2byte	0x102
 1665 071b 46060000 		.4byte	0x646
 1666 071f 30       		.byte	0x30
 1667 0720 08       		.uleb128 0x8
 1668 0721 73323900 		.ascii	"s29\000"
 1669 0725 0B       		.byte	0xb
 1670 0726 0301     		.2byte	0x103
 1671 0728 46060000 		.4byte	0x646
 1672 072c 34       		.byte	0x34
 1673 072d 08       		.uleb128 0x8
 1674 072e 73333000 		.ascii	"s30\000"
 1675 0732 0B       		.byte	0xb
 1676 0733 0401     		.2byte	0x104
 1677 0735 46060000 		.4byte	0x646
 1678 0739 38       		.byte	0x38
 1679 073a 08       		.uleb128 0x8
 1680 073b 73333100 		.ascii	"s31\000"
 1681 073f 0B       		.byte	0xb
 1682 0740 0501     		.2byte	0x105
 1683 0742 46060000 		.4byte	0x646
 1684 0746 3C       		.byte	0x3c
 1685 0747 08       		.uleb128 0x8
 1686 0748 723400   		.ascii	"r4\000"
 1687 074b 0B       		.byte	0xb
 1688 074c 0701     		.2byte	0x107
 1689 074e 46060000 		.4byte	0x646
 1690 0752 40       		.byte	0x40
 1691 0753 08       		.uleb128 0x8
 1692 0754 723500   		.ascii	"r5\000"
 1693 0757 0B       		.byte	0xb
 1694 0758 0801     		.2byte	0x108
 1695 075a 46060000 		.4byte	0x646
 1696 075e 44       		.byte	0x44
 1697 075f 08       		.uleb128 0x8
 1698 0760 723600   		.ascii	"r6\000"
 1699 0763 0B       		.byte	0xb
 1700 0764 0901     		.2byte	0x109
 1701 0766 46060000 		.4byte	0x646
 1702 076a 48       		.byte	0x48
 1703 076b 08       		.uleb128 0x8
 1704 076c 723700   		.ascii	"r7\000"
 1705 076f 0B       		.byte	0xb
 1706 0770 0A01     		.2byte	0x10a
ARM GAS  C:\Users\IDONNO~1.SON\AppData\Local\Temp\ccGgURRx.s 			page 31


 1707 0772 46060000 		.4byte	0x646
 1708 0776 4C       		.byte	0x4c
 1709 0777 08       		.uleb128 0x8
 1710 0778 723800   		.ascii	"r8\000"
 1711 077b 0B       		.byte	0xb
 1712 077c 0B01     		.2byte	0x10b
 1713 077e 46060000 		.4byte	0x646
 1714 0782 50       		.byte	0x50
 1715 0783 08       		.uleb128 0x8
 1716 0784 723900   		.ascii	"r9\000"
 1717 0787 0B       		.byte	0xb
 1718 0788 0C01     		.2byte	0x10c
 1719 078a 46060000 		.4byte	0x646
 1720 078e 54       		.byte	0x54
 1721 078f 08       		.uleb128 0x8
 1722 0790 72313000 		.ascii	"r10\000"
 1723 0794 0B       		.byte	0xb
 1724 0795 0D01     		.2byte	0x10d
 1725 0797 46060000 		.4byte	0x646
 1726 079b 58       		.byte	0x58
 1727 079c 08       		.uleb128 0x8
 1728 079d 72313100 		.ascii	"r11\000"
 1729 07a1 0B       		.byte	0xb
 1730 07a2 0E01     		.2byte	0x10e
 1731 07a4 46060000 		.4byte	0x646
 1732 07a8 5C       		.byte	0x5c
 1733 07a9 08       		.uleb128 0x8
 1734 07aa 6C7200   		.ascii	"lr\000"
 1735 07ad 0B       		.byte	0xb
 1736 07ae 0F01     		.2byte	0x10f
 1737 07b0 46060000 		.4byte	0x646
 1738 07b4 60       		.byte	0x60
 1739 07b5 00       		.byte	0
 1740 07b6 0A       		.uleb128 0xa
 1741 07b7 04       		.byte	0x4
 1742 07b8 75060000 		.4byte	0x675
 1743 07bc 15       		.uleb128 0x15
 1744 07bd 04       		.byte	0x4
 1745 07be 0C       		.byte	0xc
 1746 07bf 38       		.byte	0x38
 1747 07c0 D1070000 		.4byte	0x7d1
 1748 07c4 07       		.uleb128 0x7
 1749 07c5 35080000 		.4byte	.LASF115
 1750 07c9 0C       		.byte	0xc
 1751 07ca 3C       		.byte	0x3c
 1752 07cb D8000000 		.4byte	0xd8
 1753 07cf 00       		.byte	0
 1754 07d0 00       		.byte	0
 1755 07d1 04       		.uleb128 0x4
 1756 07d2 8C050000 		.4byte	.LASF116
 1757 07d6 0C       		.byte	0xc
 1758 07d7 3D       		.byte	0x3d
 1759 07d8 BC070000 		.4byte	0x7bc
 1760 07dc 16       		.uleb128 0x16
 1761 07dd 04       		.byte	0x4
 1762 07de 08       		.byte	0x8
 1763 07df FA       		.byte	0xfa
ARM GAS  C:\Users\IDONNO~1.SON\AppData\Local\Temp\ccGgURRx.s 			page 32


 1764 07e0 39080000 		.4byte	0x839
 1765 07e4 17       		.uleb128 0x17
 1766 07e5 AD050000 		.4byte	.LASF117
 1767 07e9 08       		.byte	0x8
 1768 07ea 0101     		.2byte	0x101
 1769 07ec 1A010000 		.4byte	0x11a
 1770 07f0 17       		.uleb128 0x17
 1771 07f1 16020000 		.4byte	.LASF118
 1772 07f5 08       		.byte	0x8
 1773 07f6 0801     		.2byte	0x108
 1774 07f8 1A010000 		.4byte	0x11a
 1775 07fc 17       		.uleb128 0x17
 1776 07fd FE080000 		.4byte	.LASF119
 1777 0801 08       		.byte	0x8
 1778 0802 0F01     		.2byte	0x10f
 1779 0804 3E030000 		.4byte	0x33e
 1780 0808 17       		.uleb128 0x17
 1781 0809 71050000 		.4byte	.LASF120
 1782 080d 08       		.byte	0x8
 1783 080e 1601     		.2byte	0x116
 1784 0810 39080000 		.4byte	0x839
 1785 0814 17       		.uleb128 0x17
 1786 0815 C0030000 		.4byte	.LASF121
 1787 0819 08       		.byte	0x8
 1788 081a 1E01     		.2byte	0x11e
 1789 081c 64080000 		.4byte	0x864
 1790 0820 17       		.uleb128 0x17
 1791 0821 89070000 		.4byte	.LASF122
 1792 0825 08       		.byte	0x8
 1793 0826 2701     		.2byte	0x127
 1794 0828 9B080000 		.4byte	0x89b
 1795 082c 17       		.uleb128 0x17
 1796 082d 04070000 		.4byte	.LASF123
 1797 0831 08       		.byte	0x8
 1798 0832 2F01     		.2byte	0x12f
 1799 0834 25010000 		.4byte	0x125
 1800 0838 00       		.byte	0
 1801 0839 0A       		.uleb128 0xa
 1802 083a 04       		.byte	0x4
 1803 083b 56020000 		.4byte	0x256
 1804 083f 06       		.uleb128 0x6
 1805 0840 54070000 		.4byte	.LASF124
 1806 0844 0C       		.byte	0xc
 1807 0845 0D       		.byte	0xd
 1808 0846 34       		.byte	0x34
 1809 0847 64080000 		.4byte	0x864
 1810 084b 07       		.uleb128 0x7
 1811 084c 21090000 		.4byte	.LASF125
 1812 0850 0D       		.byte	0xd
 1813 0851 35       		.byte	0x35
 1814 0852 8B020000 		.4byte	0x28b
 1815 0856 00       		.byte	0
 1816 0857 07       		.uleb128 0x7
 1817 0858 C7060000 		.4byte	.LASF126
 1818 085c 0D       		.byte	0xd
 1819 085d 37       		.byte	0x37
 1820 085e 30010000 		.4byte	0x130
ARM GAS  C:\Users\IDONNO~1.SON\AppData\Local\Temp\ccGgURRx.s 			page 33


 1821 0862 08       		.byte	0x8
 1822 0863 00       		.byte	0
 1823 0864 0A       		.uleb128 0xa
 1824 0865 04       		.byte	0x4
 1825 0866 3F080000 		.4byte	0x83f
 1826 086a 06       		.uleb128 0x6
 1827 086b A5080000 		.4byte	.LASF127
 1828 086f 10       		.byte	0x10
 1829 0870 0E       		.byte	0xe
 1830 0871 39       		.byte	0x39
 1831 0872 9B080000 		.4byte	0x89b
 1832 0876 07       		.uleb128 0x7
 1833 0877 C5020000 		.4byte	.LASF128
 1834 087b 0E       		.byte	0xe
 1835 087c 3A       		.byte	0x3a
 1836 087d 8B020000 		.4byte	0x28b
 1837 0881 00       		.byte	0
 1838 0882 07       		.uleb128 0x7
 1839 0883 6F090000 		.4byte	.LASF129
 1840 0887 0E       		.byte	0xe
 1841 0888 3C       		.byte	0x3c
 1842 0889 61020000 		.4byte	0x261
 1843 088d 08       		.byte	0x8
 1844 088e 07       		.uleb128 0x7
 1845 088f ED070000 		.4byte	.LASF130
 1846 0893 0E       		.byte	0xe
 1847 0894 3E       		.byte	0x3e
 1848 0895 DE080000 		.4byte	0x8de
 1849 0899 0C       		.byte	0xc
 1850 089a 00       		.byte	0
 1851 089b 0A       		.uleb128 0xa
 1852 089c 04       		.byte	0x4
 1853 089d 6A080000 		.4byte	0x86a
 1854 08a1 0A       		.uleb128 0xa
 1855 08a2 04       		.byte	0x4
 1856 08a3 AE080000 		.4byte	0x8ae
 1857 08a7 02       		.uleb128 0x2
 1858 08a8 01       		.byte	0x1
 1859 08a9 08       		.byte	0x8
 1860 08aa BA070000 		.4byte	.LASF131
 1861 08ae 18       		.uleb128 0x18
 1862 08af A7080000 		.4byte	0x8a7
 1863 08b3 05       		.uleb128 0x5
 1864 08b4 3B010000 		.4byte	0x13b
 1865 08b8 0A       		.uleb128 0xa
 1866 08b9 04       		.byte	0x4
 1867 08ba 40030000 		.4byte	0x340
 1868 08be 05       		.uleb128 0x5
 1869 08bf A1080000 		.4byte	0x8a1
 1870 08c3 10       		.uleb128 0x10
 1871 08c4 51060000 		.4byte	0x651
 1872 08c8 D3080000 		.4byte	0x8d3
 1873 08cc 11       		.uleb128 0x11
 1874 08cd 74040000 		.4byte	0x474
 1875 08d1 3A       		.byte	0x3a
 1876 08d2 00       		.byte	0
 1877 08d3 04       		.uleb128 0x4
ARM GAS  C:\Users\IDONNO~1.SON\AppData\Local\Temp\ccGgURRx.s 			page 34


 1878 08d4 67090000 		.4byte	.LASF132
 1879 08d8 0E       		.byte	0xe
 1880 08d9 34       		.byte	0x34
 1881 08da 6A080000 		.4byte	0x86a
 1882 08de 0A       		.uleb128 0xa
 1883 08df 04       		.byte	0x4
 1884 08e0 D3080000 		.4byte	0x8d3
 1885 08e4 0A       		.uleb128 0xa
 1886 08e5 04       		.byte	0x4
 1887 08e6 D3000000 		.4byte	0xd3
 1888 08ea 02       		.uleb128 0x2
 1889 08eb 01       		.byte	0x1
 1890 08ec 02       		.byte	0x2
 1891 08ed A1060000 		.4byte	.LASF133
 1892 08f1 12       		.uleb128 0x12
 1893 08f2 60       		.byte	0x60
 1894 08f3 0F       		.byte	0xf
 1895 08f4 9E01     		.2byte	0x19e
 1896 08f6 FD090000 		.4byte	0x9fd
 1897 08fa 08       		.uleb128 0x8
 1898 08fb 43523100 		.ascii	"CR1\000"
 1899 08ff 0F       		.byte	0xf
 1900 0900 9F01     		.2byte	0x19f
 1901 0902 D3000000 		.4byte	0xd3
 1902 0906 00       		.byte	0
 1903 0907 08       		.uleb128 0x8
 1904 0908 43523200 		.ascii	"CR2\000"
 1905 090c 0F       		.byte	0xf
 1906 090d A001     		.2byte	0x1a0
 1907 090f D3000000 		.4byte	0xd3
 1908 0913 04       		.byte	0x4
 1909 0914 09       		.uleb128 0x9
 1910 0915 77050000 		.4byte	.LASF134
 1911 0919 0F       		.byte	0xf
 1912 091a A101     		.2byte	0x1a1
 1913 091c D3000000 		.4byte	0xd3
 1914 0920 08       		.byte	0x8
 1915 0921 09       		.uleb128 0x9
 1916 0922 23000000 		.4byte	.LASF135
 1917 0926 0F       		.byte	0xf
 1918 0927 A201     		.2byte	0x1a2
 1919 0929 D3000000 		.4byte	0xd3
 1920 092d 0C       		.byte	0xc
 1921 092e 08       		.uleb128 0x8
 1922 092f 535200   		.ascii	"SR\000"
 1923 0932 0F       		.byte	0xf
 1924 0933 A301     		.2byte	0x1a3
 1925 0935 D3000000 		.4byte	0xd3
 1926 0939 10       		.byte	0x10
 1927 093a 08       		.uleb128 0x8
 1928 093b 45475200 		.ascii	"EGR\000"
 1929 093f 0F       		.byte	0xf
 1930 0940 A401     		.2byte	0x1a4
 1931 0942 D3000000 		.4byte	0xd3
 1932 0946 14       		.byte	0x14
 1933 0947 09       		.uleb128 0x9
 1934 0948 9E020000 		.4byte	.LASF136
ARM GAS  C:\Users\IDONNO~1.SON\AppData\Local\Temp\ccGgURRx.s 			page 35


 1935 094c 0F       		.byte	0xf
 1936 094d A501     		.2byte	0x1a5
 1937 094f D3000000 		.4byte	0xd3
 1938 0953 18       		.byte	0x18
 1939 0954 09       		.uleb128 0x9
 1940 0955 A4020000 		.4byte	.LASF137
 1941 0959 0F       		.byte	0xf
 1942 095a A601     		.2byte	0x1a6
 1943 095c D3000000 		.4byte	0xd3
 1944 0960 1C       		.byte	0x1c
 1945 0961 09       		.uleb128 0x9
 1946 0962 E8070000 		.4byte	.LASF138
 1947 0966 0F       		.byte	0xf
 1948 0967 A701     		.2byte	0x1a7
 1949 0969 D3000000 		.4byte	0xd3
 1950 096d 20       		.byte	0x20
 1951 096e 08       		.uleb128 0x8
 1952 096f 434E5400 		.ascii	"CNT\000"
 1953 0973 0F       		.byte	0xf
 1954 0974 A801     		.2byte	0x1a8
 1955 0976 D3000000 		.4byte	0xd3
 1956 097a 24       		.byte	0x24
 1957 097b 08       		.uleb128 0x8
 1958 097c 50534300 		.ascii	"PSC\000"
 1959 0980 0F       		.byte	0xf
 1960 0981 A901     		.2byte	0x1a9
 1961 0983 D3000000 		.4byte	0xd3
 1962 0987 28       		.byte	0x28
 1963 0988 08       		.uleb128 0x8
 1964 0989 41525200 		.ascii	"ARR\000"
 1965 098d 0F       		.byte	0xf
 1966 098e AA01     		.2byte	0x1aa
 1967 0990 D3000000 		.4byte	0xd3
 1968 0994 2C       		.byte	0x2c
 1969 0995 08       		.uleb128 0x8
 1970 0996 52435200 		.ascii	"RCR\000"
 1971 099a 0F       		.byte	0xf
 1972 099b AB01     		.2byte	0x1ab
 1973 099d D3000000 		.4byte	0xd3
 1974 09a1 30       		.byte	0x30
 1975 09a2 08       		.uleb128 0x8
 1976 09a3 43435200 		.ascii	"CCR\000"
 1977 09a7 0F       		.byte	0xf
 1978 09a8 AC01     		.2byte	0x1ac
 1979 09aa FD090000 		.4byte	0x9fd
 1980 09ae 34       		.byte	0x34
 1981 09af 09       		.uleb128 0x9
 1982 09b0 5A020000 		.4byte	.LASF139
 1983 09b4 0F       		.byte	0xf
 1984 09b5 AD01     		.2byte	0x1ad
 1985 09b7 D3000000 		.4byte	0xd3
 1986 09bb 44       		.byte	0x44
 1987 09bc 08       		.uleb128 0x8
 1988 09bd 44435200 		.ascii	"DCR\000"
 1989 09c1 0F       		.byte	0xf
 1990 09c2 AE01     		.2byte	0x1ae
 1991 09c4 D3000000 		.4byte	0xd3
ARM GAS  C:\Users\IDONNO~1.SON\AppData\Local\Temp\ccGgURRx.s 			page 36


 1992 09c8 48       		.byte	0x48
 1993 09c9 09       		.uleb128 0x9
 1994 09ca D1070000 		.4byte	.LASF140
 1995 09ce 0F       		.byte	0xf
 1996 09cf AF01     		.2byte	0x1af
 1997 09d1 D3000000 		.4byte	0xd3
 1998 09d5 4C       		.byte	0x4c
 1999 09d6 08       		.uleb128 0x8
 2000 09d7 4F5200   		.ascii	"OR\000"
 2001 09da 0F       		.byte	0xf
 2002 09db B001     		.2byte	0x1b0
 2003 09dd D3000000 		.4byte	0xd3
 2004 09e1 50       		.byte	0x50
 2005 09e2 09       		.uleb128 0x9
 2006 09e3 AA020000 		.4byte	.LASF141
 2007 09e7 0F       		.byte	0xf
 2008 09e8 B101     		.2byte	0x1b1
 2009 09ea D3000000 		.4byte	0xd3
 2010 09ee 54       		.byte	0x54
 2011 09ef 09       		.uleb128 0x9
 2012 09f0 61070000 		.4byte	.LASF142
 2013 09f4 0F       		.byte	0xf
 2014 09f5 B201     		.2byte	0x1b2
 2015 09f7 020A0000 		.4byte	0xa02
 2016 09fb 58       		.byte	0x58
 2017 09fc 00       		.byte	0
 2018 09fd 05       		.uleb128 0x5
 2019 09fe 9B040000 		.4byte	0x49b
 2020 0a02 05       		.uleb128 0x5
 2021 0a03 8B040000 		.4byte	0x48b
 2022 0a07 13       		.uleb128 0x13
 2023 0a08 77040000 		.4byte	.LASF143
 2024 0a0c 0F       		.byte	0xf
 2025 0a0d B301     		.2byte	0x1b3
 2026 0a0f F1080000 		.4byte	0x8f1
 2027 0a13 0A       		.uleb128 0xa
 2028 0a14 04       		.byte	0x4
 2029 0a15 070A0000 		.4byte	0xa07
 2030 0a19 19       		.uleb128 0x19
 2031 0a1a 01       		.byte	0x1
 2032 0a1b 50000000 		.4byte	0x50
 2033 0a1f 10       		.byte	0x10
 2034 0a20 31       		.byte	0x31
 2035 0a21 440A0000 		.4byte	0xa44
 2036 0a25 1A       		.uleb128 0x1a
 2037 0a26 CF080000 		.4byte	.LASF144
 2038 0a2a 00       		.byte	0
 2039 0a2b 1A       		.uleb128 0x1a
 2040 0a2c C4050000 		.4byte	.LASF145
 2041 0a30 01       		.byte	0x1
 2042 0a31 1A       		.uleb128 0x1a
 2043 0a32 B7040000 		.4byte	.LASF146
 2044 0a36 02       		.byte	0x2
 2045 0a37 1A       		.uleb128 0x1a
 2046 0a38 55000000 		.4byte	.LASF147
 2047 0a3c 03       		.byte	0x3
 2048 0a3d 1A       		.uleb128 0x1a
ARM GAS  C:\Users\IDONNO~1.SON\AppData\Local\Temp\ccGgURRx.s 			page 37


 2049 0a3e 61000000 		.4byte	.LASF148
 2050 0a42 04       		.byte	0x4
 2051 0a43 00       		.byte	0
 2052 0a44 04       		.uleb128 0x4
 2053 0a45 D0010000 		.4byte	.LASF149
 2054 0a49 10       		.byte	0x10
 2055 0a4a 37       		.byte	0x37
 2056 0a4b 190A0000 		.4byte	0xa19
 2057 0a4f 04       		.uleb128 0x4
 2058 0a50 65040000 		.4byte	.LASF150
 2059 0a54 10       		.byte	0x10
 2060 0a55 3C       		.byte	0x3c
 2061 0a56 5A0A0000 		.4byte	0xa5a
 2062 0a5a 0B       		.uleb128 0xb
 2063 0a5b 65040000 		.4byte	.LASF150
 2064 0a5f 18       		.byte	0x18
 2065 0a60 11       		.byte	0x11
 2066 0a61 3101     		.2byte	0x131
 2067 0a63 B60A0000 		.4byte	0xab6
 2068 0a67 09       		.uleb128 0x9
 2069 0a68 F3020000 		.4byte	.LASF151
 2070 0a6c 11       		.byte	0x11
 2071 0a6d 3501     		.2byte	0x135
 2072 0a6f 440A0000 		.4byte	0xa44
 2073 0a73 00       		.byte	0
 2074 0a74 09       		.uleb128 0x9
 2075 0a75 CA070000 		.4byte	.LASF152
 2076 0a79 11       		.byte	0x11
 2077 0a7a 3901     		.2byte	0x139
 2078 0a7c 9C0B0000 		.4byte	0xb9c
 2079 0a80 04       		.byte	0x4
 2080 0a81 09       		.uleb128 0x9
 2081 0a82 49090000 		.4byte	.LASF153
 2082 0a86 11       		.byte	0x11
 2083 0a87 4101     		.2byte	0x141
 2084 0a89 B8000000 		.4byte	0xb8
 2085 0a8d 08       		.byte	0x8
 2086 0a8e 08       		.uleb128 0x8
 2087 0a8f 74696D00 		.ascii	"tim\000"
 2088 0a93 11       		.byte	0x11
 2089 0a94 4501     		.2byte	0x145
 2090 0a96 130A0000 		.4byte	0xa13
 2091 0a9a 0C       		.byte	0xc
 2092 0a9b 09       		.uleb128 0x9
 2093 0a9c 61090000 		.4byte	.LASF154
 2094 0aa0 11       		.byte	0x11
 2095 0aa1 4901     		.2byte	0x149
 2096 0aa3 E4080000 		.4byte	0x8e4
 2097 0aa7 10       		.byte	0x10
 2098 0aa8 09       		.uleb128 0x9
 2099 0aa9 8D040000 		.4byte	.LASF155
 2100 0aad 11       		.byte	0x11
 2101 0aae 4D01     		.2byte	0x14d
 2102 0ab0 E4080000 		.4byte	0x8e4
 2103 0ab4 14       		.byte	0x14
 2104 0ab5 00       		.byte	0
 2105 0ab6 04       		.uleb128 0x4
ARM GAS  C:\Users\IDONNO~1.SON\AppData\Local\Temp\ccGgURRx.s 			page 38


 2106 0ab7 E6030000 		.4byte	.LASF156
 2107 0abb 10       		.byte	0x10
 2108 0abc 43       		.byte	0x43
 2109 0abd C10A0000 		.4byte	0xac1
 2110 0ac1 0A       		.uleb128 0xa
 2111 0ac2 04       		.byte	0x4
 2112 0ac3 C70A0000 		.4byte	0xac7
 2113 0ac7 0C       		.uleb128 0xc
 2114 0ac8 D20A0000 		.4byte	0xad2
 2115 0acc 0D       		.uleb128 0xd
 2116 0acd D20A0000 		.4byte	0xad2
 2117 0ad1 00       		.byte	0
 2118 0ad2 0A       		.uleb128 0xa
 2119 0ad3 04       		.byte	0x4
 2120 0ad4 4F0A0000 		.4byte	0xa4f
 2121 0ad8 19       		.uleb128 0x19
 2122 0ad9 01       		.byte	0x1
 2123 0ada 50000000 		.4byte	0x50
 2124 0ade 11       		.byte	0x11
 2125 0adf EE       		.byte	0xee
 2126 0ae0 F10A0000 		.4byte	0xaf1
 2127 0ae4 1A       		.uleb128 0x1a
 2128 0ae5 00000000 		.4byte	.LASF157
 2129 0ae9 00       		.byte	0
 2130 0aea 1A       		.uleb128 0x1a
 2131 0aeb 06060000 		.4byte	.LASF158
 2132 0aef 01       		.byte	0x1
 2133 0af0 00       		.byte	0
 2134 0af1 04       		.uleb128 0x4
 2135 0af2 BD060000 		.4byte	.LASF159
 2136 0af6 11       		.byte	0x11
 2137 0af7 F1       		.byte	0xf1
 2138 0af8 D80A0000 		.4byte	0xad8
 2139 0afc 04       		.uleb128 0x4
 2140 0afd 6D080000 		.4byte	.LASF160
 2141 0b01 11       		.byte	0x11
 2142 0b02 F6       		.byte	0xf6
 2143 0b03 B8000000 		.4byte	0xb8
 2144 0b07 19       		.uleb128 0x19
 2145 0b08 01       		.byte	0x1
 2146 0b09 50000000 		.4byte	0x50
 2147 0b0d 11       		.byte	0x11
 2148 0b0e FB       		.byte	0xfb
 2149 0b0f 200B0000 		.4byte	0xb20
 2150 0b13 1A       		.uleb128 0x1a
 2151 0b14 DA080000 		.4byte	.LASF161
 2152 0b18 00       		.byte	0
 2153 0b19 1A       		.uleb128 0x1a
 2154 0b1a E8080000 		.4byte	.LASF162
 2155 0b1e 01       		.byte	0x1
 2156 0b1f 00       		.byte	0
 2157 0b20 04       		.uleb128 0x4
 2158 0b21 2E070000 		.4byte	.LASF163
 2159 0b25 11       		.byte	0x11
 2160 0b26 FE       		.byte	0xfe
 2161 0b27 070B0000 		.4byte	0xb07
 2162 0b2b 12       		.uleb128 0x12
ARM GAS  C:\Users\IDONNO~1.SON\AppData\Local\Temp\ccGgURRx.s 			page 39


 2163 0b2c 1C       		.byte	0x1c
 2164 0b2d 11       		.byte	0x11
 2165 0b2e 0901     		.2byte	0x109
 2166 0b30 900B0000 		.4byte	0xb90
 2167 0b34 09       		.uleb128 0x9
 2168 0b35 BF070000 		.4byte	.LASF164
 2169 0b39 11       		.byte	0x11
 2170 0b3a 0D01     		.2byte	0x10d
 2171 0b3c F10A0000 		.4byte	0xaf1
 2172 0b40 00       		.byte	0
 2173 0b41 09       		.uleb128 0x9
 2174 0b42 5F020000 		.4byte	.LASF165
 2175 0b46 11       		.byte	0x11
 2176 0b47 1301     		.2byte	0x113
 2177 0b49 FC0A0000 		.4byte	0xafc
 2178 0b4d 04       		.byte	0x4
 2179 0b4e 09       		.uleb128 0x9
 2180 0b4f 83050000 		.4byte	.LASF166
 2181 0b53 11       		.byte	0x11
 2182 0b54 1701     		.2byte	0x117
 2183 0b56 B60A0000 		.4byte	0xab6
 2184 0b5a 08       		.byte	0x8
 2185 0b5b 09       		.uleb128 0x9
 2186 0b5c 0A040000 		.4byte	.LASF167
 2187 0b60 11       		.byte	0x11
 2188 0b61 1B01     		.2byte	0x11b
 2189 0b63 B60A0000 		.4byte	0xab6
 2190 0b67 0C       		.byte	0xc
 2191 0b68 09       		.uleb128 0x9
 2192 0b69 2C040000 		.4byte	.LASF168
 2193 0b6d 11       		.byte	0x11
 2194 0b6e 1F01     		.2byte	0x11f
 2195 0b70 B60A0000 		.4byte	0xab6
 2196 0b74 10       		.byte	0x10
 2197 0b75 09       		.uleb128 0x9
 2198 0b76 3B070000 		.4byte	.LASF169
 2199 0b7a 11       		.byte	0x11
 2200 0b7b 2501     		.2byte	0x125
 2201 0b7d 200B0000 		.4byte	0xb20
 2202 0b81 14       		.byte	0x14
 2203 0b82 09       		.uleb128 0x9
 2204 0b83 8C090000 		.4byte	.LASF170
 2205 0b87 11       		.byte	0x11
 2206 0b88 2B01     		.2byte	0x12b
 2207 0b8a B8000000 		.4byte	0xb8
 2208 0b8e 18       		.byte	0x18
 2209 0b8f 00       		.byte	0
 2210 0b90 13       		.uleb128 0x13
 2211 0b91 38030000 		.4byte	.LASF171
 2212 0b95 11       		.byte	0x11
 2213 0b96 2C01     		.2byte	0x12c
 2214 0b98 2B0B0000 		.4byte	0xb2b
 2215 0b9c 0A       		.uleb128 0xa
 2216 0b9d 04       		.byte	0x4
 2217 0b9e A20B0000 		.4byte	0xba2
 2218 0ba2 18       		.uleb128 0x18
 2219 0ba3 900B0000 		.4byte	0xb90
ARM GAS  C:\Users\IDONNO~1.SON\AppData\Local\Temp\ccGgURRx.s 			page 40


 2220 0ba7 1B       		.uleb128 0x1b
 2221 0ba8 1D080000 		.4byte	.LASF174
 2222 0bac 02       		.byte	0x2
 2223 0bad 2002     		.2byte	0x220
 2224 0baf 03       		.byte	0x3
 2225 0bb0 C10B0000 		.4byte	0xbc1
 2226 0bb4 1C       		.uleb128 0x1c
 2227 0bb5 77030000 		.4byte	.LASF177
 2228 0bb9 02       		.byte	0x2
 2229 0bba 2002     		.2byte	0x220
 2230 0bbc B8000000 		.4byte	0xb8
 2231 0bc0 00       		.byte	0
 2232 0bc1 1D       		.uleb128 0x1d
 2233 0bc2 C6010000 		.4byte	.LASF172
 2234 0bc6 0B       		.byte	0xb
 2235 0bc7 BC01     		.2byte	0x1bc
 2236 0bc9 03       		.byte	0x3
 2237 0bca 1D       		.uleb128 0x1d
 2238 0bcb D4020000 		.4byte	.LASF173
 2239 0bcf 0B       		.byte	0xb
 2240 0bd0 CA01     		.2byte	0x1ca
 2241 0bd2 03       		.byte	0x3
 2242 0bd3 1B       		.uleb128 0x1b
 2243 0bd4 37090000 		.4byte	.LASF175
 2244 0bd8 12       		.byte	0x12
 2245 0bd9 6601     		.2byte	0x166
 2246 0bdb 03       		.byte	0x3
 2247 0bdc EE0B0000 		.4byte	0xbee
 2248 0be0 1E       		.uleb128 0x1e
 2249 0be1 13070000 		.4byte	.LASF179
 2250 0be5 FE0B0000 		.4byte	0xbfe
 2251 0be9 37090000 		.4byte	.LASF175
 2252 0bed 00       		.byte	0
 2253 0bee 10       		.uleb128 0x10
 2254 0bef AE080000 		.4byte	0x8ae
 2255 0bf3 FE0B0000 		.4byte	0xbfe
 2256 0bf7 11       		.uleb128 0x11
 2257 0bf8 74040000 		.4byte	0x474
 2258 0bfc 0B       		.byte	0xb
 2259 0bfd 00       		.byte	0
 2260 0bfe 18       		.uleb128 0x18
 2261 0bff EE0B0000 		.4byte	0xbee
 2262 0c03 1D       		.uleb128 0x1d
 2263 0c04 1C070000 		.4byte	.LASF176
 2264 0c08 12       		.byte	0x12
 2265 0c09 5A01     		.2byte	0x15a
 2266 0c0b 03       		.byte	0x3
 2267 0c0c 1F       		.uleb128 0x1f
 2268 0c0d 4F090000 		.4byte	.LASF199
 2269 0c11 01       		.byte	0x1
 2270 0c12 69       		.byte	0x69
 2271 0c13 EA080000 		.4byte	0x8ea
 2272 0c17 01       		.byte	0x1
 2273 0c18 3D0C0000 		.4byte	0xc3d
 2274 0c1c 20       		.uleb128 0x20
 2275 0c1d 8C060000 		.4byte	.LASF178
 2276 0c21 01       		.byte	0x1
ARM GAS  C:\Users\IDONNO~1.SON\AppData\Local\Temp\ccGgURRx.s 			page 41


 2277 0c22 69       		.byte	0x69
 2278 0c23 D20A0000 		.4byte	0xad2
 2279 0c27 21       		.uleb128 0x21
 2280 0c28 737200   		.ascii	"sr\000"
 2281 0c2b 01       		.byte	0x1
 2282 0c2c 6A       		.byte	0x6a
 2283 0c2d B8000000 		.4byte	0xb8
 2284 0c31 22       		.uleb128 0x22
 2285 0c32 77090000 		.4byte	.LASF180
 2286 0c36 01       		.byte	0x1
 2287 0c37 6B       		.byte	0x6b
 2288 0c38 EA080000 		.4byte	0x8ea
 2289 0c3c 00       		.byte	0
 2290 0c3d 23       		.uleb128 0x23
 2291 0c3e 14040000 		.4byte	.LASF181
 2292 0c42 01       		.byte	0x1
 2293 0c43 92       		.byte	0x92
 2294 0c44 01       		.byte	0x1
 2295 0c45 5F0C0000 		.4byte	0xc5f
 2296 0c49 20       		.uleb128 0x20
 2297 0c4a 8C060000 		.4byte	.LASF178
 2298 0c4e 01       		.byte	0x1
 2299 0c4f 92       		.byte	0x92
 2300 0c50 D20A0000 		.4byte	0xad2
 2301 0c54 21       		.uleb128 0x21
 2302 0c55 737200   		.ascii	"sr\000"
 2303 0c58 01       		.byte	0x1
 2304 0c59 93       		.byte	0x93
 2305 0c5a B8000000 		.4byte	0xb8
 2306 0c5e 00       		.byte	0
 2307 0c5f 24       		.uleb128 0x24
 2308 0c60 0C0C0000 		.4byte	0xc0c
 2309 0c64 00000000 		.4byte	.LFB267
 2310 0c68 36000000 		.4byte	.LFE267-.LFB267
 2311 0c6c 01       		.uleb128 0x1
 2312 0c6d 9C       		.byte	0x9c
 2313 0c6e 260D0000 		.4byte	0xd26
 2314 0c72 25       		.uleb128 0x25
 2315 0c73 1C0C0000 		.4byte	0xc1c
 2316 0c77 06       		.uleb128 0x6
 2317 0c78 FA       		.byte	0xfa
 2318 0c79 1C0C0000 		.4byte	0xc1c
 2319 0c7d 9F       		.byte	0x9f
 2320 0c7e 25       		.uleb128 0x25
 2321 0c7f 1C0C0000 		.4byte	0xc1c
 2322 0c83 06       		.uleb128 0x6
 2323 0c84 FA       		.byte	0xfa
 2324 0c85 1C0C0000 		.4byte	0xc1c
 2325 0c89 9F       		.byte	0x9f
 2326 0c8a 26       		.uleb128 0x26
 2327 0c8b 270C0000 		.4byte	0xc27
 2328 0c8f 00000000 		.4byte	.LLST0
 2329 0c93 26       		.uleb128 0x26
 2330 0c94 310C0000 		.4byte	0xc31
 2331 0c98 1E000000 		.4byte	.LLST1
 2332 0c9c 27       		.uleb128 0x27
 2333 0c9d D30B0000 		.4byte	0xbd3
ARM GAS  C:\Users\IDONNO~1.SON\AppData\Local\Temp\ccGgURRx.s 			page 42


 2334 0ca1 00000000 		.4byte	.LBB33
 2335 0ca5 06000000 		.4byte	.LBE33-.LBB33
 2336 0ca9 01       		.byte	0x1
 2337 0caa 6F       		.byte	0x6f
 2338 0cab EA0C0000 		.4byte	0xcea
 2339 0caf 28       		.uleb128 0x28
 2340 0cb0 00000000 		.4byte	.LBB34
 2341 0cb4 06000000 		.4byte	.LBE34-.LBB34
 2342 0cb8 29       		.uleb128 0x29
 2343 0cb9 E00B0000 		.4byte	0xbe0
 2344 0cbd 2A       		.uleb128 0x2a
 2345 0cbe CA0B0000 		.4byte	0xbca
 2346 0cc2 00000000 		.4byte	.LBB35
 2347 0cc6 06000000 		.4byte	.LBE35-.LBB35
 2348 0cca 12       		.byte	0x12
 2349 0ccb 7301     		.2byte	0x173
 2350 0ccd 2A       		.uleb128 0x2a
 2351 0cce A70B0000 		.4byte	0xba7
 2352 0cd2 00000000 		.4byte	.LBB36
 2353 0cd6 06000000 		.4byte	.LBE36-.LBB36
 2354 0cda 0B       		.byte	0xb
 2355 0cdb CD01     		.2byte	0x1cd
 2356 0cdd 2B       		.uleb128 0x2b
 2357 0cde B40B0000 		.4byte	0xbb4
 2358 0ce2 31000000 		.4byte	.LLST2
 2359 0ce6 00       		.byte	0
 2360 0ce7 00       		.byte	0
 2361 0ce8 00       		.byte	0
 2362 0ce9 00       		.byte	0
 2363 0cea 2C       		.uleb128 0x2c
 2364 0ceb 030C0000 		.4byte	0xc03
 2365 0cef 14000000 		.4byte	.LBB38
 2366 0cf3 06000000 		.4byte	.LBE38-.LBB38
 2367 0cf7 01       		.byte	0x1
 2368 0cf8 83       		.byte	0x83
 2369 0cf9 2A       		.uleb128 0x2a
 2370 0cfa C10B0000 		.4byte	0xbc1
 2371 0cfe 14000000 		.4byte	.LBB39
 2372 0d02 06000000 		.4byte	.LBE39-.LBB39
 2373 0d06 12       		.byte	0x12
 2374 0d07 5C01     		.2byte	0x15c
 2375 0d09 2A       		.uleb128 0x2a
 2376 0d0a A70B0000 		.4byte	0xba7
 2377 0d0e 14000000 		.4byte	.LBB40
 2378 0d12 06000000 		.4byte	.LBE40-.LBB40
 2379 0d16 0B       		.byte	0xb
 2380 0d17 BF01     		.2byte	0x1bf
 2381 0d19 2B       		.uleb128 0x2b
 2382 0d1a B40B0000 		.4byte	0xbb4
 2383 0d1e 45000000 		.4byte	.LLST3
 2384 0d22 00       		.byte	0
 2385 0d23 00       		.byte	0
 2386 0d24 00       		.byte	0
 2387 0d25 00       		.byte	0
 2388 0d26 2D       		.uleb128 0x2d
 2389 0d27 EA020000 		.4byte	.LASF182
 2390 0d2b 01       		.byte	0x1
ARM GAS  C:\Users\IDONNO~1.SON\AppData\Local\Temp\ccGgURRx.s 			page 43


 2391 0d2c F8       		.byte	0xf8
 2392 0d2d 00000000 		.4byte	.LFB258
 2393 0d31 9C000000 		.4byte	.LFE258-.LFB258
 2394 0d35 01       		.uleb128 0x1
 2395 0d36 9C       		.byte	0x9c
 2396 0d37 AD0D0000 		.4byte	0xdad
 2397 0d3b 2E       		.uleb128 0x2e
 2398 0d3c 3D0C0000 		.4byte	0xc3d
 2399 0d40 02000000 		.4byte	.LBB44
 2400 0d44 00000000 		.4byte	.Ldebug_ranges0+0
 2401 0d48 01       		.byte	0x1
 2402 0d49 FC       		.byte	0xfc
 2403 0d4a A30D0000 		.4byte	0xda3
 2404 0d4e 2B       		.uleb128 0x2b
 2405 0d4f 490C0000 		.4byte	0xc49
 2406 0d53 5A000000 		.4byte	.LLST4
 2407 0d57 2F       		.uleb128 0x2f
 2408 0d58 00000000 		.4byte	.Ldebug_ranges0+0
 2409 0d5c 26       		.uleb128 0x26
 2410 0d5d 540C0000 		.4byte	0xc54
 2411 0d61 82000000 		.4byte	.LLST5
 2412 0d65 30       		.uleb128 0x30
 2413 0d66 32000000 		.4byte	.LVL11
 2414 0d6a 750D0000 		.4byte	0xd75
 2415 0d6e 31       		.uleb128 0x31
 2416 0d6f 01       		.uleb128 0x1
 2417 0d70 50       		.byte	0x50
 2418 0d71 02       		.uleb128 0x2
 2419 0d72 75       		.byte	0x75
 2420 0d73 00       		.sleb128 0
 2421 0d74 00       		.byte	0
 2422 0d75 30       		.uleb128 0x30
 2423 0d76 5A000000 		.4byte	.LVL14
 2424 0d7a 850D0000 		.4byte	0xd85
 2425 0d7e 31       		.uleb128 0x31
 2426 0d7f 01       		.uleb128 0x1
 2427 0d80 50       		.byte	0x50
 2428 0d81 02       		.uleb128 0x2
 2429 0d82 75       		.byte	0x75
 2430 0d83 00       		.sleb128 0
 2431 0d84 00       		.byte	0
 2432 0d85 30       		.uleb128 0x30
 2433 0d86 72000000 		.4byte	.LVL15
 2434 0d8a 950D0000 		.4byte	0xd95
 2435 0d8e 31       		.uleb128 0x31
 2436 0d8f 01       		.uleb128 0x1
 2437 0d90 50       		.byte	0x50
 2438 0d91 02       		.uleb128 0x2
 2439 0d92 75       		.byte	0x75
 2440 0d93 00       		.sleb128 0
 2441 0d94 00       		.byte	0
 2442 0d95 32       		.uleb128 0x32
 2443 0d96 7C000000 		.4byte	.LVL16
 2444 0d9a 31       		.uleb128 0x31
 2445 0d9b 01       		.uleb128 0x1
 2446 0d9c 50       		.byte	0x50
 2447 0d9d 02       		.uleb128 0x2
ARM GAS  C:\Users\IDONNO~1.SON\AppData\Local\Temp\ccGgURRx.s 			page 44


 2448 0d9e 75       		.byte	0x75
 2449 0d9f 00       		.sleb128 0
 2450 0da0 00       		.byte	0
 2451 0da1 00       		.byte	0
 2452 0da2 00       		.byte	0
 2453 0da3 33       		.uleb128 0x33
 2454 0da4 3E000000 		.4byte	.LVL13
 2455 0da8 B50F0000 		.4byte	0xfb5
 2456 0dac 00       		.byte	0
 2457 0dad 34       		.uleb128 0x34
 2458 0dae 2A020000 		.4byte	.LASF183
 2459 0db2 01       		.byte	0x1
 2460 0db3 7701     		.2byte	0x177
 2461 0db5 00000000 		.4byte	.LFB259
 2462 0db9 18000000 		.4byte	.LFE259-.LFB259
 2463 0dbd 01       		.uleb128 0x1
 2464 0dbe 9C       		.byte	0x9c
 2465 0dbf D40D0000 		.4byte	0xdd4
 2466 0dc3 35       		.uleb128 0x35
 2467 0dc4 0A000000 		.4byte	.LVL17
 2468 0dc8 C10F0000 		.4byte	0xfc1
 2469 0dcc 31       		.uleb128 0x31
 2470 0dcd 01       		.uleb128 0x1
 2471 0dce 50       		.byte	0x50
 2472 0dcf 02       		.uleb128 0x2
 2473 0dd0 74       		.byte	0x74
 2474 0dd1 00       		.sleb128 0
 2475 0dd2 00       		.byte	0
 2476 0dd3 00       		.byte	0
 2477 0dd4 34       		.uleb128 0x34
 2478 0dd5 29090000 		.4byte	.LASF184
 2479 0dd9 01       		.byte	0x1
 2480 0dda AB01     		.2byte	0x1ab
 2481 0ddc 00000000 		.4byte	.LFB260
 2482 0de0 BC000000 		.4byte	.LFE260-.LFB260
 2483 0de4 01       		.uleb128 0x1
 2484 0de5 9C       		.byte	0x9c
 2485 0de6 280E0000 		.4byte	0xe28
 2486 0dea 36       		.uleb128 0x36
 2487 0deb 8C060000 		.4byte	.LASF178
 2488 0def 01       		.byte	0x1
 2489 0df0 AB01     		.2byte	0x1ab
 2490 0df2 D20A0000 		.4byte	0xad2
 2491 0df6 B5000000 		.4byte	.LLST6
 2492 0dfa 37       		.uleb128 0x37
 2493 0dfb 70736300 		.ascii	"psc\000"
 2494 0dff 01       		.byte	0x1
 2495 0e00 AC01     		.2byte	0x1ac
 2496 0e02 B8000000 		.4byte	0xb8
 2497 0e06 FF000000 		.4byte	.LLST7
 2498 0e0a 38       		.uleb128 0x38
 2499 0e0b 13070000 		.4byte	.LASF179
 2500 0e0f 380E0000 		.4byte	0xe38
 2501 0e13 35       		.uleb128 0x35
 2502 0e14 A8000000 		.4byte	.LVL35
 2503 0e18 CC0F0000 		.4byte	0xfcc
 2504 0e1c 31       		.uleb128 0x31
ARM GAS  C:\Users\IDONNO~1.SON\AppData\Local\Temp\ccGgURRx.s 			page 45


 2505 0e1d 01       		.uleb128 0x1
 2506 0e1e 50       		.byte	0x50
 2507 0e1f 01       		.uleb128 0x1
 2508 0e20 4D       		.byte	0x4d
 2509 0e21 31       		.uleb128 0x31
 2510 0e22 01       		.uleb128 0x1
 2511 0e23 51       		.byte	0x51
 2512 0e24 01       		.uleb128 0x1
 2513 0e25 37       		.byte	0x37
 2514 0e26 00       		.byte	0
 2515 0e27 00       		.byte	0
 2516 0e28 10       		.uleb128 0x10
 2517 0e29 AE080000 		.4byte	0x8ae
 2518 0e2d 380E0000 		.4byte	0xe38
 2519 0e31 11       		.uleb128 0x11
 2520 0e32 74040000 		.4byte	0x474
 2521 0e36 0D       		.byte	0xd
 2522 0e37 00       		.byte	0
 2523 0e38 18       		.uleb128 0x18
 2524 0e39 280E0000 		.4byte	0xe28
 2525 0e3d 34       		.uleb128 0x34
 2526 0e3e 44080000 		.4byte	.LASF185
 2527 0e42 01       		.byte	0x1
 2528 0e43 4502     		.2byte	0x245
 2529 0e45 00000000 		.4byte	.LFB261
 2530 0e49 34000000 		.4byte	.LFE261-.LFB261
 2531 0e4d 01       		.uleb128 0x1
 2532 0e4e 9C       		.byte	0x9c
 2533 0e4f 730E0000 		.4byte	0xe73
 2534 0e53 36       		.uleb128 0x36
 2535 0e54 8C060000 		.4byte	.LASF178
 2536 0e58 01       		.byte	0x1
 2537 0e59 4502     		.2byte	0x245
 2538 0e5b D20A0000 		.4byte	0xad2
 2539 0e5f BA010000 		.4byte	.LLST8
 2540 0e63 35       		.uleb128 0x35
 2541 0e64 20000000 		.4byte	.LVL40
 2542 0e68 D70F0000 		.4byte	0xfd7
 2543 0e6c 31       		.uleb128 0x31
 2544 0e6d 01       		.uleb128 0x1
 2545 0e6e 50       		.byte	0x50
 2546 0e6f 01       		.uleb128 0x1
 2547 0e70 4D       		.byte	0x4d
 2548 0e71 00       		.byte	0
 2549 0e72 00       		.byte	0
 2550 0e73 34       		.uleb128 0x34
 2551 0e74 1E050000 		.4byte	.LASF186
 2552 0e78 01       		.byte	0x1
 2553 0e79 8302     		.2byte	0x283
 2554 0e7b 00000000 		.4byte	.LFB262
 2555 0e7f 14000000 		.4byte	.LFE262-.LFB262
 2556 0e83 01       		.uleb128 0x1
 2557 0e84 9C       		.byte	0x9c
 2558 0e85 9A0E0000 		.4byte	0xe9a
 2559 0e89 36       		.uleb128 0x36
 2560 0e8a 8C060000 		.4byte	.LASF178
 2561 0e8e 01       		.byte	0x1
ARM GAS  C:\Users\IDONNO~1.SON\AppData\Local\Temp\ccGgURRx.s 			page 46


 2562 0e8f 8302     		.2byte	0x283
 2563 0e91 D20A0000 		.4byte	0xad2
 2564 0e95 F4010000 		.4byte	.LLST9
 2565 0e99 00       		.byte	0
 2566 0e9a 39       		.uleb128 0x39
 2567 0e9b B5080000 		.4byte	.LASF200
 2568 0e9f 01       		.byte	0x1
 2569 0ea0 9902     		.2byte	0x299
 2570 0ea2 EA080000 		.4byte	0x8ea
 2571 0ea6 00000000 		.4byte	.LFB263
 2572 0eaa 2A000000 		.4byte	.LFE263-.LFB263
 2573 0eae 01       		.uleb128 0x1
 2574 0eaf 9C       		.byte	0x9c
 2575 0eb0 0C0F0000 		.4byte	0xf0c
 2576 0eb4 36       		.uleb128 0x36
 2577 0eb5 8C060000 		.4byte	.LASF178
 2578 0eb9 01       		.byte	0x1
 2579 0eba 9902     		.2byte	0x299
 2580 0ebc D20A0000 		.4byte	0xad2
 2581 0ec0 15020000 		.4byte	.LLST10
 2582 0ec4 3A       		.uleb128 0x3a
 2583 0ec5 1C000000 		.4byte	.LVL46
 2584 0ec9 5F0C0000 		.4byte	0xc5f
 2585 0ecd ED0E0000 		.4byte	0xeed
 2586 0ed1 31       		.uleb128 0x31
 2587 0ed2 01       		.uleb128 0x1
 2588 0ed3 50       		.byte	0x50
 2589 0ed4 05       		.uleb128 0x5
 2590 0ed5 F3       		.byte	0xf3
 2591 0ed6 01       		.uleb128 0x1
 2592 0ed7 50       		.byte	0x50
 2593 0ed8 23       		.byte	0x23
 2594 0ed9 04       		.uleb128 0x4
 2595 0eda 31       		.uleb128 0x31
 2596 0edb 01       		.uleb128 0x1
 2597 0edc 51       		.byte	0x51
 2598 0edd 05       		.uleb128 0x5
 2599 0ede F3       		.byte	0xf3
 2600 0edf 01       		.uleb128 0x1
 2601 0ee0 50       		.byte	0x50
 2602 0ee1 23       		.byte	0x23
 2603 0ee2 0C       		.uleb128 0xc
 2604 0ee3 3B       		.uleb128 0x3b
 2605 0ee4 1C0C0000 		.4byte	0xc1c
 2606 0ee8 03       		.uleb128 0x3
 2607 0ee9 F3       		.byte	0xf3
 2608 0eea 01       		.uleb128 0x1
 2609 0eeb 50       		.byte	0x50
 2610 0eec 00       		.byte	0
 2611 0eed 35       		.uleb128 0x35
 2612 0eee 24000000 		.4byte	.LVL48
 2613 0ef2 5F0C0000 		.4byte	0xc5f
 2614 0ef6 31       		.uleb128 0x31
 2615 0ef7 01       		.uleb128 0x1
 2616 0ef8 50       		.byte	0x50
 2617 0ef9 02       		.uleb128 0x2
 2618 0efa 74       		.byte	0x74
ARM GAS  C:\Users\IDONNO~1.SON\AppData\Local\Temp\ccGgURRx.s 			page 47


 2619 0efb 00       		.sleb128 0
 2620 0efc 31       		.uleb128 0x31
 2621 0efd 01       		.uleb128 0x1
 2622 0efe 51       		.byte	0x51
 2623 0eff 02       		.uleb128 0x2
 2624 0f00 75       		.byte	0x75
 2625 0f01 00       		.sleb128 0
 2626 0f02 3B       		.uleb128 0x3b
 2627 0f03 1C0C0000 		.4byte	0xc1c
 2628 0f07 02       		.uleb128 0x2
 2629 0f08 74       		.byte	0x74
 2630 0f09 7C       		.sleb128 -4
 2631 0f0a 00       		.byte	0
 2632 0f0b 00       		.byte	0
 2633 0f0c 34       		.uleb128 0x34
 2634 0f0d CC040000 		.4byte	.LASF187
 2635 0f11 01       		.byte	0x1
 2636 0f12 AC02     		.2byte	0x2ac
 2637 0f14 00000000 		.4byte	.LFB264
 2638 0f18 10000000 		.4byte	.LFE264-.LFB264
 2639 0f1c 01       		.uleb128 0x1
 2640 0f1d 9C       		.byte	0x9c
 2641 0f1e 310F0000 		.4byte	0xf31
 2642 0f22 3C       		.uleb128 0x3c
 2643 0f23 8C060000 		.4byte	.LASF178
 2644 0f27 01       		.byte	0x1
 2645 0f28 AC02     		.2byte	0x2ac
 2646 0f2a D20A0000 		.4byte	0xad2
 2647 0f2e 01       		.uleb128 0x1
 2648 0f2f 50       		.byte	0x50
 2649 0f30 00       		.byte	0
 2650 0f31 34       		.uleb128 0x34
 2651 0f32 2F000000 		.4byte	.LASF188
 2652 0f36 01       		.byte	0x1
 2653 0f37 BE02     		.2byte	0x2be
 2654 0f39 00000000 		.4byte	.LFB265
 2655 0f3d 3E000000 		.4byte	.LFE265-.LFB265
 2656 0f41 01       		.uleb128 0x1
 2657 0f42 9C       		.byte	0x9c
 2658 0f43 680F0000 		.4byte	0xf68
 2659 0f47 36       		.uleb128 0x36
 2660 0f48 8C060000 		.4byte	.LASF178
 2661 0f4c 01       		.byte	0x1
 2662 0f4d BE02     		.2byte	0x2be
 2663 0f4f D20A0000 		.4byte	0xad2
 2664 0f53 68020000 		.4byte	.LLST11
 2665 0f57 3D       		.uleb128 0x3d
 2666 0f58 8C090000 		.4byte	.LASF170
 2667 0f5c 01       		.byte	0x1
 2668 0f5d BF02     		.2byte	0x2bf
 2669 0f5f B8000000 		.4byte	0xb8
 2670 0f63 89020000 		.4byte	.LLST12
 2671 0f67 00       		.byte	0
 2672 0f68 34       		.uleb128 0x34
 2673 0f69 00050000 		.4byte	.LASF189
 2674 0f6d 01       		.byte	0x1
 2675 0f6e EC02     		.2byte	0x2ec
ARM GAS  C:\Users\IDONNO~1.SON\AppData\Local\Temp\ccGgURRx.s 			page 48


 2676 0f70 00000000 		.4byte	.LFB266
 2677 0f74 0C000000 		.4byte	.LFE266-.LFB266
 2678 0f78 01       		.uleb128 0x1
 2679 0f79 9C       		.byte	0x9c
 2680 0f7a 8D0F0000 		.4byte	0xf8d
 2681 0f7e 3C       		.uleb128 0x3c
 2682 0f7f 8C060000 		.4byte	.LASF178
 2683 0f83 01       		.byte	0x1
 2684 0f84 EC02     		.2byte	0x2ec
 2685 0f86 D20A0000 		.4byte	0xad2
 2686 0f8a 01       		.uleb128 0x1
 2687 0f8b 50       		.byte	0x50
 2688 0f8c 00       		.byte	0
 2689 0f8d 3E       		.uleb128 0x3e
 2690 0f8e 4D020000 		.4byte	.LASF190
 2691 0f92 13       		.byte	0x13
 2692 0f93 A706     		.2byte	0x6a7
 2693 0f95 CE000000 		.4byte	0xce
 2694 0f99 3F       		.uleb128 0x3f
 2695 0f9a 636800   		.ascii	"ch\000"
 2696 0f9d 08       		.byte	0x8
 2697 0f9e 0902     		.2byte	0x209
 2698 0fa0 0D040000 		.4byte	0x40d
 2699 0fa4 40       		.uleb128 0x40
 2700 0fa5 C4070000 		.4byte	.LASF191
 2701 0fa9 01       		.byte	0x1
 2702 0faa 3E       		.byte	0x3e
 2703 0fab 4F0A0000 		.4byte	0xa4f
 2704 0faf 05       		.uleb128 0x5
 2705 0fb0 03       		.byte	0x3
 2706 0fb1 00000000 		.4byte	ICUD3
 2707 0fb5 41       		.uleb128 0x41
 2708 0fb6 52040000 		.4byte	.LASF192
 2709 0fba 52040000 		.4byte	.LASF192
 2710 0fbe 0B       		.byte	0xb
 2711 0fbf 6601     		.2byte	0x166
 2712 0fc1 42       		.uleb128 0x42
 2713 0fc2 7B070000 		.4byte	.LASF193
 2714 0fc6 7B070000 		.4byte	.LASF193
 2715 0fca 10       		.byte	0x10
 2716 0fcb DE       		.byte	0xde
 2717 0fcc 42       		.uleb128 0x42
 2718 0fcd 8D020000 		.4byte	.LASF194
 2719 0fd1 8D020000 		.4byte	.LASF194
 2720 0fd5 14       		.byte	0x14
 2721 0fd6 4E       		.byte	0x4e
 2722 0fd7 42       		.uleb128 0x42
 2723 0fd8 A7030000 		.4byte	.LASF195
 2724 0fdc A7030000 		.4byte	.LASF195
 2725 0fe0 14       		.byte	0x14
 2726 0fe1 4F       		.byte	0x4f
 2727 0fe2 00       		.byte	0
 2728              		.section	.debug_abbrev,"",%progbits
 2729              	.Ldebug_abbrev0:
 2730 0000 01       		.uleb128 0x1
 2731 0001 11       		.uleb128 0x11
 2732 0002 01       		.byte	0x1
ARM GAS  C:\Users\IDONNO~1.SON\AppData\Local\Temp\ccGgURRx.s 			page 49


 2733 0003 25       		.uleb128 0x25
 2734 0004 0E       		.uleb128 0xe
 2735 0005 13       		.uleb128 0x13
 2736 0006 0B       		.uleb128 0xb
 2737 0007 03       		.uleb128 0x3
 2738 0008 0E       		.uleb128 0xe
 2739 0009 1B       		.uleb128 0x1b
 2740 000a 0E       		.uleb128 0xe
 2741 000b 55       		.uleb128 0x55
 2742 000c 17       		.uleb128 0x17
 2743 000d 11       		.uleb128 0x11
 2744 000e 01       		.uleb128 0x1
 2745 000f 10       		.uleb128 0x10
 2746 0010 17       		.uleb128 0x17
 2747 0011 00       		.byte	0
 2748 0012 00       		.byte	0
 2749 0013 02       		.uleb128 0x2
 2750 0014 24       		.uleb128 0x24
 2751 0015 00       		.byte	0
 2752 0016 0B       		.uleb128 0xb
 2753 0017 0B       		.uleb128 0xb
 2754 0018 3E       		.uleb128 0x3e
 2755 0019 0B       		.uleb128 0xb
 2756 001a 03       		.uleb128 0x3
 2757 001b 0E       		.uleb128 0xe
 2758 001c 00       		.byte	0
 2759 001d 00       		.byte	0
 2760 001e 03       		.uleb128 0x3
 2761 001f 24       		.uleb128 0x24
 2762 0020 00       		.byte	0
 2763 0021 0B       		.uleb128 0xb
 2764 0022 0B       		.uleb128 0xb
 2765 0023 3E       		.uleb128 0x3e
 2766 0024 0B       		.uleb128 0xb
 2767 0025 03       		.uleb128 0x3
 2768 0026 08       		.uleb128 0x8
 2769 0027 00       		.byte	0
 2770 0028 00       		.byte	0
 2771 0029 04       		.uleb128 0x4
 2772 002a 16       		.uleb128 0x16
 2773 002b 00       		.byte	0
 2774 002c 03       		.uleb128 0x3
 2775 002d 0E       		.uleb128 0xe
 2776 002e 3A       		.uleb128 0x3a
 2777 002f 0B       		.uleb128 0xb
 2778 0030 3B       		.uleb128 0x3b
 2779 0031 0B       		.uleb128 0xb
 2780 0032 49       		.uleb128 0x49
 2781 0033 13       		.uleb128 0x13
 2782 0034 00       		.byte	0
 2783 0035 00       		.byte	0
 2784 0036 05       		.uleb128 0x5
 2785 0037 35       		.uleb128 0x35
 2786 0038 00       		.byte	0
 2787 0039 49       		.uleb128 0x49
 2788 003a 13       		.uleb128 0x13
 2789 003b 00       		.byte	0
ARM GAS  C:\Users\IDONNO~1.SON\AppData\Local\Temp\ccGgURRx.s 			page 50


 2790 003c 00       		.byte	0
 2791 003d 06       		.uleb128 0x6
 2792 003e 13       		.uleb128 0x13
 2793 003f 01       		.byte	0x1
 2794 0040 03       		.uleb128 0x3
 2795 0041 0E       		.uleb128 0xe
 2796 0042 0B       		.uleb128 0xb
 2797 0043 0B       		.uleb128 0xb
 2798 0044 3A       		.uleb128 0x3a
 2799 0045 0B       		.uleb128 0xb
 2800 0046 3B       		.uleb128 0x3b
 2801 0047 0B       		.uleb128 0xb
 2802 0048 01       		.uleb128 0x1
 2803 0049 13       		.uleb128 0x13
 2804 004a 00       		.byte	0
 2805 004b 00       		.byte	0
 2806 004c 07       		.uleb128 0x7
 2807 004d 0D       		.uleb128 0xd
 2808 004e 00       		.byte	0
 2809 004f 03       		.uleb128 0x3
 2810 0050 0E       		.uleb128 0xe
 2811 0051 3A       		.uleb128 0x3a
 2812 0052 0B       		.uleb128 0xb
 2813 0053 3B       		.uleb128 0x3b
 2814 0054 0B       		.uleb128 0xb
 2815 0055 49       		.uleb128 0x49
 2816 0056 13       		.uleb128 0x13
 2817 0057 38       		.uleb128 0x38
 2818 0058 0B       		.uleb128 0xb
 2819 0059 00       		.byte	0
 2820 005a 00       		.byte	0
 2821 005b 08       		.uleb128 0x8
 2822 005c 0D       		.uleb128 0xd
 2823 005d 00       		.byte	0
 2824 005e 03       		.uleb128 0x3
 2825 005f 08       		.uleb128 0x8
 2826 0060 3A       		.uleb128 0x3a
 2827 0061 0B       		.uleb128 0xb
 2828 0062 3B       		.uleb128 0x3b
 2829 0063 05       		.uleb128 0x5
 2830 0064 49       		.uleb128 0x49
 2831 0065 13       		.uleb128 0x13
 2832 0066 38       		.uleb128 0x38
 2833 0067 0B       		.uleb128 0xb
 2834 0068 00       		.byte	0
 2835 0069 00       		.byte	0
 2836 006a 09       		.uleb128 0x9
 2837 006b 0D       		.uleb128 0xd
 2838 006c 00       		.byte	0
 2839 006d 03       		.uleb128 0x3
 2840 006e 0E       		.uleb128 0xe
 2841 006f 3A       		.uleb128 0x3a
 2842 0070 0B       		.uleb128 0xb
 2843 0071 3B       		.uleb128 0x3b
 2844 0072 05       		.uleb128 0x5
 2845 0073 49       		.uleb128 0x49
 2846 0074 13       		.uleb128 0x13
ARM GAS  C:\Users\IDONNO~1.SON\AppData\Local\Temp\ccGgURRx.s 			page 51


 2847 0075 38       		.uleb128 0x38
 2848 0076 0B       		.uleb128 0xb
 2849 0077 00       		.byte	0
 2850 0078 00       		.byte	0
 2851 0079 0A       		.uleb128 0xa
 2852 007a 0F       		.uleb128 0xf
 2853 007b 00       		.byte	0
 2854 007c 0B       		.uleb128 0xb
 2855 007d 0B       		.uleb128 0xb
 2856 007e 49       		.uleb128 0x49
 2857 007f 13       		.uleb128 0x13
 2858 0080 00       		.byte	0
 2859 0081 00       		.byte	0
 2860 0082 0B       		.uleb128 0xb
 2861 0083 13       		.uleb128 0x13
 2862 0084 01       		.byte	0x1
 2863 0085 03       		.uleb128 0x3
 2864 0086 0E       		.uleb128 0xe
 2865 0087 0B       		.uleb128 0xb
 2866 0088 0B       		.uleb128 0xb
 2867 0089 3A       		.uleb128 0x3a
 2868 008a 0B       		.uleb128 0xb
 2869 008b 3B       		.uleb128 0x3b
 2870 008c 05       		.uleb128 0x5
 2871 008d 01       		.uleb128 0x1
 2872 008e 13       		.uleb128 0x13
 2873 008f 00       		.byte	0
 2874 0090 00       		.byte	0
 2875 0091 0C       		.uleb128 0xc
 2876 0092 15       		.uleb128 0x15
 2877 0093 01       		.byte	0x1
 2878 0094 27       		.uleb128 0x27
 2879 0095 19       		.uleb128 0x19
 2880 0096 01       		.uleb128 0x1
 2881 0097 13       		.uleb128 0x13
 2882 0098 00       		.byte	0
 2883 0099 00       		.byte	0
 2884 009a 0D       		.uleb128 0xd
 2885 009b 05       		.uleb128 0x5
 2886 009c 00       		.byte	0
 2887 009d 49       		.uleb128 0x49
 2888 009e 13       		.uleb128 0x13
 2889 009f 00       		.byte	0
 2890 00a0 00       		.byte	0
 2891 00a1 0E       		.uleb128 0xe
 2892 00a2 0F       		.uleb128 0xf
 2893 00a3 00       		.byte	0
 2894 00a4 0B       		.uleb128 0xb
 2895 00a5 0B       		.uleb128 0xb
 2896 00a6 00       		.byte	0
 2897 00a7 00       		.byte	0
 2898 00a8 0F       		.uleb128 0xf
 2899 00a9 13       		.uleb128 0x13
 2900 00aa 01       		.byte	0x1
 2901 00ab 03       		.uleb128 0x3
 2902 00ac 0E       		.uleb128 0xe
 2903 00ad 0B       		.uleb128 0xb
ARM GAS  C:\Users\IDONNO~1.SON\AppData\Local\Temp\ccGgURRx.s 			page 52


 2904 00ae 05       		.uleb128 0x5
 2905 00af 3A       		.uleb128 0x3a
 2906 00b0 0B       		.uleb128 0xb
 2907 00b1 3B       		.uleb128 0x3b
 2908 00b2 05       		.uleb128 0x5
 2909 00b3 01       		.uleb128 0x1
 2910 00b4 13       		.uleb128 0x13
 2911 00b5 00       		.byte	0
 2912 00b6 00       		.byte	0
 2913 00b7 10       		.uleb128 0x10
 2914 00b8 01       		.uleb128 0x1
 2915 00b9 01       		.byte	0x1
 2916 00ba 49       		.uleb128 0x49
 2917 00bb 13       		.uleb128 0x13
 2918 00bc 01       		.uleb128 0x1
 2919 00bd 13       		.uleb128 0x13
 2920 00be 00       		.byte	0
 2921 00bf 00       		.byte	0
 2922 00c0 11       		.uleb128 0x11
 2923 00c1 21       		.uleb128 0x21
 2924 00c2 00       		.byte	0
 2925 00c3 49       		.uleb128 0x49
 2926 00c4 13       		.uleb128 0x13
 2927 00c5 2F       		.uleb128 0x2f
 2928 00c6 0B       		.uleb128 0xb
 2929 00c7 00       		.byte	0
 2930 00c8 00       		.byte	0
 2931 00c9 12       		.uleb128 0x12
 2932 00ca 13       		.uleb128 0x13
 2933 00cb 01       		.byte	0x1
 2934 00cc 0B       		.uleb128 0xb
 2935 00cd 0B       		.uleb128 0xb
 2936 00ce 3A       		.uleb128 0x3a
 2937 00cf 0B       		.uleb128 0xb
 2938 00d0 3B       		.uleb128 0x3b
 2939 00d1 05       		.uleb128 0x5
 2940 00d2 01       		.uleb128 0x1
 2941 00d3 13       		.uleb128 0x13
 2942 00d4 00       		.byte	0
 2943 00d5 00       		.byte	0
 2944 00d6 13       		.uleb128 0x13
 2945 00d7 16       		.uleb128 0x16
 2946 00d8 00       		.byte	0
 2947 00d9 03       		.uleb128 0x3
 2948 00da 0E       		.uleb128 0xe
 2949 00db 3A       		.uleb128 0x3a
 2950 00dc 0B       		.uleb128 0xb
 2951 00dd 3B       		.uleb128 0x3b
 2952 00de 05       		.uleb128 0x5
 2953 00df 49       		.uleb128 0x49
 2954 00e0 13       		.uleb128 0x13
 2955 00e1 00       		.byte	0
 2956 00e2 00       		.byte	0
 2957 00e3 14       		.uleb128 0x14
 2958 00e4 0D       		.uleb128 0xd
 2959 00e5 00       		.byte	0
 2960 00e6 03       		.uleb128 0x3
ARM GAS  C:\Users\IDONNO~1.SON\AppData\Local\Temp\ccGgURRx.s 			page 53


 2961 00e7 08       		.uleb128 0x8
 2962 00e8 3A       		.uleb128 0x3a
 2963 00e9 0B       		.uleb128 0xb
 2964 00ea 3B       		.uleb128 0x3b
 2965 00eb 0B       		.uleb128 0xb
 2966 00ec 49       		.uleb128 0x49
 2967 00ed 13       		.uleb128 0x13
 2968 00ee 38       		.uleb128 0x38
 2969 00ef 0B       		.uleb128 0xb
 2970 00f0 00       		.byte	0
 2971 00f1 00       		.byte	0
 2972 00f2 15       		.uleb128 0x15
 2973 00f3 13       		.uleb128 0x13
 2974 00f4 01       		.byte	0x1
 2975 00f5 0B       		.uleb128 0xb
 2976 00f6 0B       		.uleb128 0xb
 2977 00f7 3A       		.uleb128 0x3a
 2978 00f8 0B       		.uleb128 0xb
 2979 00f9 3B       		.uleb128 0x3b
 2980 00fa 0B       		.uleb128 0xb
 2981 00fb 01       		.uleb128 0x1
 2982 00fc 13       		.uleb128 0x13
 2983 00fd 00       		.byte	0
 2984 00fe 00       		.byte	0
 2985 00ff 16       		.uleb128 0x16
 2986 0100 17       		.uleb128 0x17
 2987 0101 01       		.byte	0x1
 2988 0102 0B       		.uleb128 0xb
 2989 0103 0B       		.uleb128 0xb
 2990 0104 3A       		.uleb128 0x3a
 2991 0105 0B       		.uleb128 0xb
 2992 0106 3B       		.uleb128 0x3b
 2993 0107 0B       		.uleb128 0xb
 2994 0108 01       		.uleb128 0x1
 2995 0109 13       		.uleb128 0x13
 2996 010a 00       		.byte	0
 2997 010b 00       		.byte	0
 2998 010c 17       		.uleb128 0x17
 2999 010d 0D       		.uleb128 0xd
 3000 010e 00       		.byte	0
 3001 010f 03       		.uleb128 0x3
 3002 0110 0E       		.uleb128 0xe
 3003 0111 3A       		.uleb128 0x3a
 3004 0112 0B       		.uleb128 0xb
 3005 0113 3B       		.uleb128 0x3b
 3006 0114 05       		.uleb128 0x5
 3007 0115 49       		.uleb128 0x49
 3008 0116 13       		.uleb128 0x13
 3009 0117 00       		.byte	0
 3010 0118 00       		.byte	0
 3011 0119 18       		.uleb128 0x18
 3012 011a 26       		.uleb128 0x26
 3013 011b 00       		.byte	0
 3014 011c 49       		.uleb128 0x49
 3015 011d 13       		.uleb128 0x13
 3016 011e 00       		.byte	0
 3017 011f 00       		.byte	0
ARM GAS  C:\Users\IDONNO~1.SON\AppData\Local\Temp\ccGgURRx.s 			page 54


 3018 0120 19       		.uleb128 0x19
 3019 0121 04       		.uleb128 0x4
 3020 0122 01       		.byte	0x1
 3021 0123 0B       		.uleb128 0xb
 3022 0124 0B       		.uleb128 0xb
 3023 0125 49       		.uleb128 0x49
 3024 0126 13       		.uleb128 0x13
 3025 0127 3A       		.uleb128 0x3a
 3026 0128 0B       		.uleb128 0xb
 3027 0129 3B       		.uleb128 0x3b
 3028 012a 0B       		.uleb128 0xb
 3029 012b 01       		.uleb128 0x1
 3030 012c 13       		.uleb128 0x13
 3031 012d 00       		.byte	0
 3032 012e 00       		.byte	0
 3033 012f 1A       		.uleb128 0x1a
 3034 0130 28       		.uleb128 0x28
 3035 0131 00       		.byte	0
 3036 0132 03       		.uleb128 0x3
 3037 0133 0E       		.uleb128 0xe
 3038 0134 1C       		.uleb128 0x1c
 3039 0135 0B       		.uleb128 0xb
 3040 0136 00       		.byte	0
 3041 0137 00       		.byte	0
 3042 0138 1B       		.uleb128 0x1b
 3043 0139 2E       		.uleb128 0x2e
 3044 013a 01       		.byte	0x1
 3045 013b 03       		.uleb128 0x3
 3046 013c 0E       		.uleb128 0xe
 3047 013d 3A       		.uleb128 0x3a
 3048 013e 0B       		.uleb128 0xb
 3049 013f 3B       		.uleb128 0x3b
 3050 0140 05       		.uleb128 0x5
 3051 0141 27       		.uleb128 0x27
 3052 0142 19       		.uleb128 0x19
 3053 0143 20       		.uleb128 0x20
 3054 0144 0B       		.uleb128 0xb
 3055 0145 01       		.uleb128 0x1
 3056 0146 13       		.uleb128 0x13
 3057 0147 00       		.byte	0
 3058 0148 00       		.byte	0
 3059 0149 1C       		.uleb128 0x1c
 3060 014a 05       		.uleb128 0x5
 3061 014b 00       		.byte	0
 3062 014c 03       		.uleb128 0x3
 3063 014d 0E       		.uleb128 0xe
 3064 014e 3A       		.uleb128 0x3a
 3065 014f 0B       		.uleb128 0xb
 3066 0150 3B       		.uleb128 0x3b
 3067 0151 05       		.uleb128 0x5
 3068 0152 49       		.uleb128 0x49
 3069 0153 13       		.uleb128 0x13
 3070 0154 00       		.byte	0
 3071 0155 00       		.byte	0
 3072 0156 1D       		.uleb128 0x1d
 3073 0157 2E       		.uleb128 0x2e
 3074 0158 00       		.byte	0
ARM GAS  C:\Users\IDONNO~1.SON\AppData\Local\Temp\ccGgURRx.s 			page 55


 3075 0159 03       		.uleb128 0x3
 3076 015a 0E       		.uleb128 0xe
 3077 015b 3A       		.uleb128 0x3a
 3078 015c 0B       		.uleb128 0xb
 3079 015d 3B       		.uleb128 0x3b
 3080 015e 05       		.uleb128 0x5
 3081 015f 27       		.uleb128 0x27
 3082 0160 19       		.uleb128 0x19
 3083 0161 20       		.uleb128 0x20
 3084 0162 0B       		.uleb128 0xb
 3085 0163 00       		.byte	0
 3086 0164 00       		.byte	0
 3087 0165 1E       		.uleb128 0x1e
 3088 0166 34       		.uleb128 0x34
 3089 0167 00       		.byte	0
 3090 0168 03       		.uleb128 0x3
 3091 0169 0E       		.uleb128 0xe
 3092 016a 49       		.uleb128 0x49
 3093 016b 13       		.uleb128 0x13
 3094 016c 34       		.uleb128 0x34
 3095 016d 19       		.uleb128 0x19
 3096 016e 1C       		.uleb128 0x1c
 3097 016f 0E       		.uleb128 0xe
 3098 0170 00       		.byte	0
 3099 0171 00       		.byte	0
 3100 0172 1F       		.uleb128 0x1f
 3101 0173 2E       		.uleb128 0x2e
 3102 0174 01       		.byte	0x1
 3103 0175 03       		.uleb128 0x3
 3104 0176 0E       		.uleb128 0xe
 3105 0177 3A       		.uleb128 0x3a
 3106 0178 0B       		.uleb128 0xb
 3107 0179 3B       		.uleb128 0x3b
 3108 017a 0B       		.uleb128 0xb
 3109 017b 27       		.uleb128 0x27
 3110 017c 19       		.uleb128 0x19
 3111 017d 49       		.uleb128 0x49
 3112 017e 13       		.uleb128 0x13
 3113 017f 20       		.uleb128 0x20
 3114 0180 0B       		.uleb128 0xb
 3115 0181 01       		.uleb128 0x1
 3116 0182 13       		.uleb128 0x13
 3117 0183 00       		.byte	0
 3118 0184 00       		.byte	0
 3119 0185 20       		.uleb128 0x20
 3120 0186 05       		.uleb128 0x5
 3121 0187 00       		.byte	0
 3122 0188 03       		.uleb128 0x3
 3123 0189 0E       		.uleb128 0xe
 3124 018a 3A       		.uleb128 0x3a
 3125 018b 0B       		.uleb128 0xb
 3126 018c 3B       		.uleb128 0x3b
 3127 018d 0B       		.uleb128 0xb
 3128 018e 49       		.uleb128 0x49
 3129 018f 13       		.uleb128 0x13
 3130 0190 00       		.byte	0
 3131 0191 00       		.byte	0
ARM GAS  C:\Users\IDONNO~1.SON\AppData\Local\Temp\ccGgURRx.s 			page 56


 3132 0192 21       		.uleb128 0x21
 3133 0193 34       		.uleb128 0x34
 3134 0194 00       		.byte	0
 3135 0195 03       		.uleb128 0x3
 3136 0196 08       		.uleb128 0x8
 3137 0197 3A       		.uleb128 0x3a
 3138 0198 0B       		.uleb128 0xb
 3139 0199 3B       		.uleb128 0x3b
 3140 019a 0B       		.uleb128 0xb
 3141 019b 49       		.uleb128 0x49
 3142 019c 13       		.uleb128 0x13
 3143 019d 00       		.byte	0
 3144 019e 00       		.byte	0
 3145 019f 22       		.uleb128 0x22
 3146 01a0 34       		.uleb128 0x34
 3147 01a1 00       		.byte	0
 3148 01a2 03       		.uleb128 0x3
 3149 01a3 0E       		.uleb128 0xe
 3150 01a4 3A       		.uleb128 0x3a
 3151 01a5 0B       		.uleb128 0xb
 3152 01a6 3B       		.uleb128 0x3b
 3153 01a7 0B       		.uleb128 0xb
 3154 01a8 49       		.uleb128 0x49
 3155 01a9 13       		.uleb128 0x13
 3156 01aa 00       		.byte	0
 3157 01ab 00       		.byte	0
 3158 01ac 23       		.uleb128 0x23
 3159 01ad 2E       		.uleb128 0x2e
 3160 01ae 01       		.byte	0x1
 3161 01af 03       		.uleb128 0x3
 3162 01b0 0E       		.uleb128 0xe
 3163 01b1 3A       		.uleb128 0x3a
 3164 01b2 0B       		.uleb128 0xb
 3165 01b3 3B       		.uleb128 0x3b
 3166 01b4 0B       		.uleb128 0xb
 3167 01b5 27       		.uleb128 0x27
 3168 01b6 19       		.uleb128 0x19
 3169 01b7 20       		.uleb128 0x20
 3170 01b8 0B       		.uleb128 0xb
 3171 01b9 01       		.uleb128 0x1
 3172 01ba 13       		.uleb128 0x13
 3173 01bb 00       		.byte	0
 3174 01bc 00       		.byte	0
 3175 01bd 24       		.uleb128 0x24
 3176 01be 2E       		.uleb128 0x2e
 3177 01bf 01       		.byte	0x1
 3178 01c0 31       		.uleb128 0x31
 3179 01c1 13       		.uleb128 0x13
 3180 01c2 11       		.uleb128 0x11
 3181 01c3 01       		.uleb128 0x1
 3182 01c4 12       		.uleb128 0x12
 3183 01c5 06       		.uleb128 0x6
 3184 01c6 40       		.uleb128 0x40
 3185 01c7 18       		.uleb128 0x18
 3186 01c8 9742     		.uleb128 0x2117
 3187 01ca 19       		.uleb128 0x19
 3188 01cb 01       		.uleb128 0x1
ARM GAS  C:\Users\IDONNO~1.SON\AppData\Local\Temp\ccGgURRx.s 			page 57


 3189 01cc 13       		.uleb128 0x13
 3190 01cd 00       		.byte	0
 3191 01ce 00       		.byte	0
 3192 01cf 25       		.uleb128 0x25
 3193 01d0 05       		.uleb128 0x5
 3194 01d1 00       		.byte	0
 3195 01d2 31       		.uleb128 0x31
 3196 01d3 13       		.uleb128 0x13
 3197 01d4 02       		.uleb128 0x2
 3198 01d5 18       		.uleb128 0x18
 3199 01d6 00       		.byte	0
 3200 01d7 00       		.byte	0
 3201 01d8 26       		.uleb128 0x26
 3202 01d9 34       		.uleb128 0x34
 3203 01da 00       		.byte	0
 3204 01db 31       		.uleb128 0x31
 3205 01dc 13       		.uleb128 0x13
 3206 01dd 02       		.uleb128 0x2
 3207 01de 17       		.uleb128 0x17
 3208 01df 00       		.byte	0
 3209 01e0 00       		.byte	0
 3210 01e1 27       		.uleb128 0x27
 3211 01e2 1D       		.uleb128 0x1d
 3212 01e3 01       		.byte	0x1
 3213 01e4 31       		.uleb128 0x31
 3214 01e5 13       		.uleb128 0x13
 3215 01e6 11       		.uleb128 0x11
 3216 01e7 01       		.uleb128 0x1
 3217 01e8 12       		.uleb128 0x12
 3218 01e9 06       		.uleb128 0x6
 3219 01ea 58       		.uleb128 0x58
 3220 01eb 0B       		.uleb128 0xb
 3221 01ec 59       		.uleb128 0x59
 3222 01ed 0B       		.uleb128 0xb
 3223 01ee 01       		.uleb128 0x1
 3224 01ef 13       		.uleb128 0x13
 3225 01f0 00       		.byte	0
 3226 01f1 00       		.byte	0
 3227 01f2 28       		.uleb128 0x28
 3228 01f3 0B       		.uleb128 0xb
 3229 01f4 01       		.byte	0x1
 3230 01f5 11       		.uleb128 0x11
 3231 01f6 01       		.uleb128 0x1
 3232 01f7 12       		.uleb128 0x12
 3233 01f8 06       		.uleb128 0x6
 3234 01f9 00       		.byte	0
 3235 01fa 00       		.byte	0
 3236 01fb 29       		.uleb128 0x29
 3237 01fc 34       		.uleb128 0x34
 3238 01fd 00       		.byte	0
 3239 01fe 31       		.uleb128 0x31
 3240 01ff 13       		.uleb128 0x13
 3241 0200 00       		.byte	0
 3242 0201 00       		.byte	0
 3243 0202 2A       		.uleb128 0x2a
 3244 0203 1D       		.uleb128 0x1d
 3245 0204 01       		.byte	0x1
ARM GAS  C:\Users\IDONNO~1.SON\AppData\Local\Temp\ccGgURRx.s 			page 58


 3246 0205 31       		.uleb128 0x31
 3247 0206 13       		.uleb128 0x13
 3248 0207 11       		.uleb128 0x11
 3249 0208 01       		.uleb128 0x1
 3250 0209 12       		.uleb128 0x12
 3251 020a 06       		.uleb128 0x6
 3252 020b 58       		.uleb128 0x58
 3253 020c 0B       		.uleb128 0xb
 3254 020d 59       		.uleb128 0x59
 3255 020e 05       		.uleb128 0x5
 3256 020f 00       		.byte	0
 3257 0210 00       		.byte	0
 3258 0211 2B       		.uleb128 0x2b
 3259 0212 05       		.uleb128 0x5
 3260 0213 00       		.byte	0
 3261 0214 31       		.uleb128 0x31
 3262 0215 13       		.uleb128 0x13
 3263 0216 02       		.uleb128 0x2
 3264 0217 17       		.uleb128 0x17
 3265 0218 00       		.byte	0
 3266 0219 00       		.byte	0
 3267 021a 2C       		.uleb128 0x2c
 3268 021b 1D       		.uleb128 0x1d
 3269 021c 01       		.byte	0x1
 3270 021d 31       		.uleb128 0x31
 3271 021e 13       		.uleb128 0x13
 3272 021f 11       		.uleb128 0x11
 3273 0220 01       		.uleb128 0x1
 3274 0221 12       		.uleb128 0x12
 3275 0222 06       		.uleb128 0x6
 3276 0223 58       		.uleb128 0x58
 3277 0224 0B       		.uleb128 0xb
 3278 0225 59       		.uleb128 0x59
 3279 0226 0B       		.uleb128 0xb
 3280 0227 00       		.byte	0
 3281 0228 00       		.byte	0
 3282 0229 2D       		.uleb128 0x2d
 3283 022a 2E       		.uleb128 0x2e
 3284 022b 01       		.byte	0x1
 3285 022c 3F       		.uleb128 0x3f
 3286 022d 19       		.uleb128 0x19
 3287 022e 03       		.uleb128 0x3
 3288 022f 0E       		.uleb128 0xe
 3289 0230 3A       		.uleb128 0x3a
 3290 0231 0B       		.uleb128 0xb
 3291 0232 3B       		.uleb128 0x3b
 3292 0233 0B       		.uleb128 0xb
 3293 0234 27       		.uleb128 0x27
 3294 0235 19       		.uleb128 0x19
 3295 0236 11       		.uleb128 0x11
 3296 0237 01       		.uleb128 0x1
 3297 0238 12       		.uleb128 0x12
 3298 0239 06       		.uleb128 0x6
 3299 023a 40       		.uleb128 0x40
 3300 023b 18       		.uleb128 0x18
 3301 023c 9742     		.uleb128 0x2117
 3302 023e 19       		.uleb128 0x19
ARM GAS  C:\Users\IDONNO~1.SON\AppData\Local\Temp\ccGgURRx.s 			page 59


 3303 023f 01       		.uleb128 0x1
 3304 0240 13       		.uleb128 0x13
 3305 0241 00       		.byte	0
 3306 0242 00       		.byte	0
 3307 0243 2E       		.uleb128 0x2e
 3308 0244 1D       		.uleb128 0x1d
 3309 0245 01       		.byte	0x1
 3310 0246 31       		.uleb128 0x31
 3311 0247 13       		.uleb128 0x13
 3312 0248 52       		.uleb128 0x52
 3313 0249 01       		.uleb128 0x1
 3314 024a 55       		.uleb128 0x55
 3315 024b 17       		.uleb128 0x17
 3316 024c 58       		.uleb128 0x58
 3317 024d 0B       		.uleb128 0xb
 3318 024e 59       		.uleb128 0x59
 3319 024f 0B       		.uleb128 0xb
 3320 0250 01       		.uleb128 0x1
 3321 0251 13       		.uleb128 0x13
 3322 0252 00       		.byte	0
 3323 0253 00       		.byte	0
 3324 0254 2F       		.uleb128 0x2f
 3325 0255 0B       		.uleb128 0xb
 3326 0256 01       		.byte	0x1
 3327 0257 55       		.uleb128 0x55
 3328 0258 17       		.uleb128 0x17
 3329 0259 00       		.byte	0
 3330 025a 00       		.byte	0
 3331 025b 30       		.uleb128 0x30
 3332 025c 898201   		.uleb128 0x4109
 3333 025f 01       		.byte	0x1
 3334 0260 11       		.uleb128 0x11
 3335 0261 01       		.uleb128 0x1
 3336 0262 01       		.uleb128 0x1
 3337 0263 13       		.uleb128 0x13
 3338 0264 00       		.byte	0
 3339 0265 00       		.byte	0
 3340 0266 31       		.uleb128 0x31
 3341 0267 8A8201   		.uleb128 0x410a
 3342 026a 00       		.byte	0
 3343 026b 02       		.uleb128 0x2
 3344 026c 18       		.uleb128 0x18
 3345 026d 9142     		.uleb128 0x2111
 3346 026f 18       		.uleb128 0x18
 3347 0270 00       		.byte	0
 3348 0271 00       		.byte	0
 3349 0272 32       		.uleb128 0x32
 3350 0273 898201   		.uleb128 0x4109
 3351 0276 01       		.byte	0x1
 3352 0277 11       		.uleb128 0x11
 3353 0278 01       		.uleb128 0x1
 3354 0279 00       		.byte	0
 3355 027a 00       		.byte	0
 3356 027b 33       		.uleb128 0x33
 3357 027c 898201   		.uleb128 0x4109
 3358 027f 00       		.byte	0
 3359 0280 11       		.uleb128 0x11
ARM GAS  C:\Users\IDONNO~1.SON\AppData\Local\Temp\ccGgURRx.s 			page 60


 3360 0281 01       		.uleb128 0x1
 3361 0282 9542     		.uleb128 0x2115
 3362 0284 19       		.uleb128 0x19
 3363 0285 31       		.uleb128 0x31
 3364 0286 13       		.uleb128 0x13
 3365 0287 00       		.byte	0
 3366 0288 00       		.byte	0
 3367 0289 34       		.uleb128 0x34
 3368 028a 2E       		.uleb128 0x2e
 3369 028b 01       		.byte	0x1
 3370 028c 3F       		.uleb128 0x3f
 3371 028d 19       		.uleb128 0x19
 3372 028e 03       		.uleb128 0x3
 3373 028f 0E       		.uleb128 0xe
 3374 0290 3A       		.uleb128 0x3a
 3375 0291 0B       		.uleb128 0xb
 3376 0292 3B       		.uleb128 0x3b
 3377 0293 05       		.uleb128 0x5
 3378 0294 27       		.uleb128 0x27
 3379 0295 19       		.uleb128 0x19
 3380 0296 11       		.uleb128 0x11
 3381 0297 01       		.uleb128 0x1
 3382 0298 12       		.uleb128 0x12
 3383 0299 06       		.uleb128 0x6
 3384 029a 40       		.uleb128 0x40
 3385 029b 18       		.uleb128 0x18
 3386 029c 9742     		.uleb128 0x2117
 3387 029e 19       		.uleb128 0x19
 3388 029f 01       		.uleb128 0x1
 3389 02a0 13       		.uleb128 0x13
 3390 02a1 00       		.byte	0
 3391 02a2 00       		.byte	0
 3392 02a3 35       		.uleb128 0x35
 3393 02a4 898201   		.uleb128 0x4109
 3394 02a7 01       		.byte	0x1
 3395 02a8 11       		.uleb128 0x11
 3396 02a9 01       		.uleb128 0x1
 3397 02aa 31       		.uleb128 0x31
 3398 02ab 13       		.uleb128 0x13
 3399 02ac 00       		.byte	0
 3400 02ad 00       		.byte	0
 3401 02ae 36       		.uleb128 0x36
 3402 02af 05       		.uleb128 0x5
 3403 02b0 00       		.byte	0
 3404 02b1 03       		.uleb128 0x3
 3405 02b2 0E       		.uleb128 0xe
 3406 02b3 3A       		.uleb128 0x3a
 3407 02b4 0B       		.uleb128 0xb
 3408 02b5 3B       		.uleb128 0x3b
 3409 02b6 05       		.uleb128 0x5
 3410 02b7 49       		.uleb128 0x49
 3411 02b8 13       		.uleb128 0x13
 3412 02b9 02       		.uleb128 0x2
 3413 02ba 17       		.uleb128 0x17
 3414 02bb 00       		.byte	0
 3415 02bc 00       		.byte	0
 3416 02bd 37       		.uleb128 0x37
ARM GAS  C:\Users\IDONNO~1.SON\AppData\Local\Temp\ccGgURRx.s 			page 61


 3417 02be 34       		.uleb128 0x34
 3418 02bf 00       		.byte	0
 3419 02c0 03       		.uleb128 0x3
 3420 02c1 08       		.uleb128 0x8
 3421 02c2 3A       		.uleb128 0x3a
 3422 02c3 0B       		.uleb128 0xb
 3423 02c4 3B       		.uleb128 0x3b
 3424 02c5 05       		.uleb128 0x5
 3425 02c6 49       		.uleb128 0x49
 3426 02c7 13       		.uleb128 0x13
 3427 02c8 02       		.uleb128 0x2
 3428 02c9 17       		.uleb128 0x17
 3429 02ca 00       		.byte	0
 3430 02cb 00       		.byte	0
 3431 02cc 38       		.uleb128 0x38
 3432 02cd 34       		.uleb128 0x34
 3433 02ce 00       		.byte	0
 3434 02cf 03       		.uleb128 0x3
 3435 02d0 0E       		.uleb128 0xe
 3436 02d1 49       		.uleb128 0x49
 3437 02d2 13       		.uleb128 0x13
 3438 02d3 34       		.uleb128 0x34
 3439 02d4 19       		.uleb128 0x19
 3440 02d5 00       		.byte	0
 3441 02d6 00       		.byte	0
 3442 02d7 39       		.uleb128 0x39
 3443 02d8 2E       		.uleb128 0x2e
 3444 02d9 01       		.byte	0x1
 3445 02da 3F       		.uleb128 0x3f
 3446 02db 19       		.uleb128 0x19
 3447 02dc 03       		.uleb128 0x3
 3448 02dd 0E       		.uleb128 0xe
 3449 02de 3A       		.uleb128 0x3a
 3450 02df 0B       		.uleb128 0xb
 3451 02e0 3B       		.uleb128 0x3b
 3452 02e1 05       		.uleb128 0x5
 3453 02e2 27       		.uleb128 0x27
 3454 02e3 19       		.uleb128 0x19
 3455 02e4 49       		.uleb128 0x49
 3456 02e5 13       		.uleb128 0x13
 3457 02e6 11       		.uleb128 0x11
 3458 02e7 01       		.uleb128 0x1
 3459 02e8 12       		.uleb128 0x12
 3460 02e9 06       		.uleb128 0x6
 3461 02ea 40       		.uleb128 0x40
 3462 02eb 18       		.uleb128 0x18
 3463 02ec 9742     		.uleb128 0x2117
 3464 02ee 19       		.uleb128 0x19
 3465 02ef 01       		.uleb128 0x1
 3466 02f0 13       		.uleb128 0x13
 3467 02f1 00       		.byte	0
 3468 02f2 00       		.byte	0
 3469 02f3 3A       		.uleb128 0x3a
 3470 02f4 898201   		.uleb128 0x4109
 3471 02f7 01       		.byte	0x1
 3472 02f8 11       		.uleb128 0x11
 3473 02f9 01       		.uleb128 0x1
ARM GAS  C:\Users\IDONNO~1.SON\AppData\Local\Temp\ccGgURRx.s 			page 62


 3474 02fa 9542     		.uleb128 0x2115
 3475 02fc 19       		.uleb128 0x19
 3476 02fd 31       		.uleb128 0x31
 3477 02fe 13       		.uleb128 0x13
 3478 02ff 01       		.uleb128 0x1
 3479 0300 13       		.uleb128 0x13
 3480 0301 00       		.byte	0
 3481 0302 00       		.byte	0
 3482 0303 3B       		.uleb128 0x3b
 3483 0304 8A8201   		.uleb128 0x410a
 3484 0307 00       		.byte	0
 3485 0308 31       		.uleb128 0x31
 3486 0309 13       		.uleb128 0x13
 3487 030a 9142     		.uleb128 0x2111
 3488 030c 18       		.uleb128 0x18
 3489 030d 00       		.byte	0
 3490 030e 00       		.byte	0
 3491 030f 3C       		.uleb128 0x3c
 3492 0310 05       		.uleb128 0x5
 3493 0311 00       		.byte	0
 3494 0312 03       		.uleb128 0x3
 3495 0313 0E       		.uleb128 0xe
 3496 0314 3A       		.uleb128 0x3a
 3497 0315 0B       		.uleb128 0xb
 3498 0316 3B       		.uleb128 0x3b
 3499 0317 05       		.uleb128 0x5
 3500 0318 49       		.uleb128 0x49
 3501 0319 13       		.uleb128 0x13
 3502 031a 02       		.uleb128 0x2
 3503 031b 18       		.uleb128 0x18
 3504 031c 00       		.byte	0
 3505 031d 00       		.byte	0
 3506 031e 3D       		.uleb128 0x3d
 3507 031f 34       		.uleb128 0x34
 3508 0320 00       		.byte	0
 3509 0321 03       		.uleb128 0x3
 3510 0322 0E       		.uleb128 0xe
 3511 0323 3A       		.uleb128 0x3a
 3512 0324 0B       		.uleb128 0xb
 3513 0325 3B       		.uleb128 0x3b
 3514 0326 05       		.uleb128 0x5
 3515 0327 49       		.uleb128 0x49
 3516 0328 13       		.uleb128 0x13
 3517 0329 02       		.uleb128 0x2
 3518 032a 17       		.uleb128 0x17
 3519 032b 00       		.byte	0
 3520 032c 00       		.byte	0
 3521 032d 3E       		.uleb128 0x3e
 3522 032e 34       		.uleb128 0x34
 3523 032f 00       		.byte	0
 3524 0330 03       		.uleb128 0x3
 3525 0331 0E       		.uleb128 0xe
 3526 0332 3A       		.uleb128 0x3a
 3527 0333 0B       		.uleb128 0xb
 3528 0334 3B       		.uleb128 0x3b
 3529 0335 05       		.uleb128 0x5
 3530 0336 49       		.uleb128 0x49
ARM GAS  C:\Users\IDONNO~1.SON\AppData\Local\Temp\ccGgURRx.s 			page 63


 3531 0337 13       		.uleb128 0x13
 3532 0338 3F       		.uleb128 0x3f
 3533 0339 19       		.uleb128 0x19
 3534 033a 3C       		.uleb128 0x3c
 3535 033b 19       		.uleb128 0x19
 3536 033c 00       		.byte	0
 3537 033d 00       		.byte	0
 3538 033e 3F       		.uleb128 0x3f
 3539 033f 34       		.uleb128 0x34
 3540 0340 00       		.byte	0
 3541 0341 03       		.uleb128 0x3
 3542 0342 08       		.uleb128 0x8
 3543 0343 3A       		.uleb128 0x3a
 3544 0344 0B       		.uleb128 0xb
 3545 0345 3B       		.uleb128 0x3b
 3546 0346 05       		.uleb128 0x5
 3547 0347 49       		.uleb128 0x49
 3548 0348 13       		.uleb128 0x13
 3549 0349 3F       		.uleb128 0x3f
 3550 034a 19       		.uleb128 0x19
 3551 034b 3C       		.uleb128 0x3c
 3552 034c 19       		.uleb128 0x19
 3553 034d 00       		.byte	0
 3554 034e 00       		.byte	0
 3555 034f 40       		.uleb128 0x40
 3556 0350 34       		.uleb128 0x34
 3557 0351 00       		.byte	0
 3558 0352 03       		.uleb128 0x3
 3559 0353 0E       		.uleb128 0xe
 3560 0354 3A       		.uleb128 0x3a
 3561 0355 0B       		.uleb128 0xb
 3562 0356 3B       		.uleb128 0x3b
 3563 0357 0B       		.uleb128 0xb
 3564 0358 49       		.uleb128 0x49
 3565 0359 13       		.uleb128 0x13
 3566 035a 3F       		.uleb128 0x3f
 3567 035b 19       		.uleb128 0x19
 3568 035c 02       		.uleb128 0x2
 3569 035d 18       		.uleb128 0x18
 3570 035e 00       		.byte	0
 3571 035f 00       		.byte	0
 3572 0360 41       		.uleb128 0x41
 3573 0361 2E       		.uleb128 0x2e
 3574 0362 00       		.byte	0
 3575 0363 3F       		.uleb128 0x3f
 3576 0364 19       		.uleb128 0x19
 3577 0365 3C       		.uleb128 0x3c
 3578 0366 19       		.uleb128 0x19
 3579 0367 6E       		.uleb128 0x6e
 3580 0368 0E       		.uleb128 0xe
 3581 0369 03       		.uleb128 0x3
 3582 036a 0E       		.uleb128 0xe
 3583 036b 3A       		.uleb128 0x3a
 3584 036c 0B       		.uleb128 0xb
 3585 036d 3B       		.uleb128 0x3b
 3586 036e 05       		.uleb128 0x5
 3587 036f 00       		.byte	0
ARM GAS  C:\Users\IDONNO~1.SON\AppData\Local\Temp\ccGgURRx.s 			page 64


 3588 0370 00       		.byte	0
 3589 0371 42       		.uleb128 0x42
 3590 0372 2E       		.uleb128 0x2e
 3591 0373 00       		.byte	0
 3592 0374 3F       		.uleb128 0x3f
 3593 0375 19       		.uleb128 0x19
 3594 0376 3C       		.uleb128 0x3c
 3595 0377 19       		.uleb128 0x19
 3596 0378 6E       		.uleb128 0x6e
 3597 0379 0E       		.uleb128 0xe
 3598 037a 03       		.uleb128 0x3
 3599 037b 0E       		.uleb128 0xe
 3600 037c 3A       		.uleb128 0x3a
 3601 037d 0B       		.uleb128 0xb
 3602 037e 3B       		.uleb128 0x3b
 3603 037f 0B       		.uleb128 0xb
 3604 0380 00       		.byte	0
 3605 0381 00       		.byte	0
 3606 0382 00       		.byte	0
 3607              		.section	.debug_loc,"",%progbits
 3608              	.Ldebug_loc0:
 3609              	.LLST0:
 3610 0000 10000000 		.4byte	.LVL2
 3611 0004 26000000 		.4byte	.LVL5
 3612 0008 0100     		.2byte	0x1
 3613 000a 50       		.byte	0x50
 3614 000b 2E000000 		.4byte	.LVL6
 3615 000f 36000000 		.4byte	.LFE267
 3616 0013 0100     		.2byte	0x1
 3617 0015 50       		.byte	0x50
 3618 0016 00000000 		.4byte	0
 3619 001a 00000000 		.4byte	0
 3620              	.LLST1:
 3621 001e 14000000 		.4byte	.LVL3
 3622 0022 26000000 		.4byte	.LVL5
 3623 0026 0100     		.2byte	0x1
 3624 0028 50       		.byte	0x50
 3625 0029 00000000 		.4byte	0
 3626 002d 00000000 		.4byte	0
 3627              	.LLST2:
 3628 0031 00000000 		.4byte	.LVL0
 3629 0035 06000000 		.4byte	.LVL1
 3630 0039 0200     		.2byte	0x2
 3631 003b 30       		.byte	0x30
 3632 003c 9F       		.byte	0x9f
 3633 003d 00000000 		.4byte	0
 3634 0041 00000000 		.4byte	0
 3635              	.LLST3:
 3636 0045 14000000 		.4byte	.LVL3
 3637 0049 1A000000 		.4byte	.LVL4
 3638 004d 0300     		.2byte	0x3
 3639 004f 08       		.byte	0x8
 3640 0050 20       		.byte	0x20
 3641 0051 9F       		.byte	0x9f
 3642 0052 00000000 		.4byte	0
 3643 0056 00000000 		.4byte	0
 3644              	.LLST4:
ARM GAS  C:\Users\IDONNO~1.SON\AppData\Local\Temp\ccGgURRx.s 			page 65


 3645 005a 00000000 		.4byte	.LVL7
 3646 005e 36000000 		.4byte	.LVL12
 3647 0062 0600     		.2byte	0x6
 3648 0064 03       		.byte	0x3
 3649 0065 00000000 		.4byte	ICUD3
 3650 0069 9F       		.byte	0x9f
 3651 006a 3E000000 		.4byte	.LVL13
 3652 006e 9C000000 		.4byte	.LFE258
 3653 0072 0600     		.2byte	0x6
 3654 0074 03       		.byte	0x3
 3655 0075 00000000 		.4byte	ICUD3
 3656 0079 9F       		.byte	0x9f
 3657 007a 00000000 		.4byte	0
 3658 007e 00000000 		.4byte	0
 3659              	.LLST5:
 3660 0082 0A000000 		.4byte	.LVL8
 3661 0086 10000000 		.4byte	.LVL9
 3662 008a 0100     		.2byte	0x1
 3663 008c 54       		.byte	0x54
 3664 008d 10000000 		.4byte	.LVL9
 3665 0091 28000000 		.4byte	.LVL10
 3666 0095 0600     		.2byte	0x6
 3667 0097 74       		.byte	0x74
 3668 0098 00       		.sleb128 0
 3669 0099 08       		.byte	0x8
 3670 009a FF       		.byte	0xff
 3671 009b 1A       		.byte	0x1a
 3672 009c 9F       		.byte	0x9f
 3673 009d 3E000000 		.4byte	.LVL13
 3674 00a1 9C000000 		.4byte	.LFE258
 3675 00a5 0600     		.2byte	0x6
 3676 00a7 74       		.byte	0x74
 3677 00a8 00       		.sleb128 0
 3678 00a9 08       		.byte	0x8
 3679 00aa FF       		.byte	0xff
 3680 00ab 1A       		.byte	0x1a
 3681 00ac 9F       		.byte	0x9f
 3682 00ad 00000000 		.4byte	0
 3683 00b1 00000000 		.4byte	0
 3684              	.LLST6:
 3685 00b5 00000000 		.4byte	.LVL18
 3686 00b9 16000000 		.4byte	.LVL19
 3687 00bd 0100     		.2byte	0x1
 3688 00bf 50       		.byte	0x50
 3689 00c0 16000000 		.4byte	.LVL19
 3690 00c4 80000000 		.4byte	.LVL31
 3691 00c8 0100     		.2byte	0x1
 3692 00ca 54       		.byte	0x54
 3693 00cb 80000000 		.4byte	.LVL31
 3694 00cf 86000000 		.4byte	.LVL32
 3695 00d3 0100     		.2byte	0x1
 3696 00d5 50       		.byte	0x50
 3697 00d6 86000000 		.4byte	.LVL32
 3698 00da 8A000000 		.4byte	.LVL33
 3699 00de 0100     		.2byte	0x1
 3700 00e0 54       		.byte	0x54
 3701 00e1 8A000000 		.4byte	.LVL33
ARM GAS  C:\Users\IDONNO~1.SON\AppData\Local\Temp\ccGgURRx.s 			page 66


 3702 00e5 98000000 		.4byte	.LVL34
 3703 00e9 0100     		.2byte	0x1
 3704 00eb 50       		.byte	0x50
 3705 00ec 98000000 		.4byte	.LVL34
 3706 00f0 BC000000 		.4byte	.LFE260
 3707 00f4 0100     		.2byte	0x1
 3708 00f6 54       		.byte	0x54
 3709 00f7 00000000 		.4byte	0
 3710 00fb 00000000 		.4byte	0
 3711              	.LLST7:
 3712 00ff 2A000000 		.4byte	.LVL20
 3713 0103 3A000000 		.4byte	.LVL21
 3714 0107 0100     		.2byte	0x1
 3715 0109 52       		.byte	0x52
 3716 010a 3A000000 		.4byte	.LVL21
 3717 010e 42000000 		.4byte	.LVL22
 3718 0112 1000     		.2byte	0x10
 3719 0114 74       		.byte	0x74
 3720 0115 08       		.sleb128 8
 3721 0116 06       		.byte	0x6
 3722 0117 F7       		.byte	0xf7
 3723 0118 25       		.uleb128 0x25
 3724 0119 71       		.byte	0x71
 3725 011a 04       		.sleb128 4
 3726 011b 06       		.byte	0x6
 3727 011c F7       		.byte	0xf7
 3728 011d 25       		.uleb128 0x25
 3729 011e 1B       		.byte	0x1b
 3730 011f F7       		.byte	0xf7
 3731 0120 00       		.uleb128 0
 3732 0121 31       		.byte	0x31
 3733 0122 1C       		.byte	0x1c
 3734 0123 9F       		.byte	0x9f
 3735 0124 42000000 		.4byte	.LVL22
 3736 0128 4C000000 		.4byte	.LVL23
 3737 012c 1300     		.2byte	0x13
 3738 012e 74       		.byte	0x74
 3739 012f 08       		.sleb128 8
 3740 0130 06       		.byte	0x6
 3741 0131 F7       		.byte	0xf7
 3742 0132 25       		.uleb128 0x25
 3743 0133 74       		.byte	0x74
 3744 0134 04       		.sleb128 4
 3745 0135 06       		.byte	0x6
 3746 0136 23       		.byte	0x23
 3747 0137 04       		.uleb128 0x4
 3748 0138 06       		.byte	0x6
 3749 0139 F7       		.byte	0xf7
 3750 013a 25       		.uleb128 0x25
 3751 013b 1B       		.byte	0x1b
 3752 013c F7       		.byte	0xf7
 3753 013d 00       		.uleb128 0
 3754 013e 31       		.byte	0x31
 3755 013f 1C       		.byte	0x1c
 3756 0140 9F       		.byte	0x9f
 3757 0141 58000000 		.4byte	.LVL24
 3758 0145 5E000000 		.4byte	.LVL25
ARM GAS  C:\Users\IDONNO~1.SON\AppData\Local\Temp\ccGgURRx.s 			page 67


 3759 0149 1000     		.2byte	0x10
 3760 014b 74       		.byte	0x74
 3761 014c 08       		.sleb128 8
 3762 014d 06       		.byte	0x6
 3763 014e F7       		.byte	0xf7
 3764 014f 25       		.uleb128 0x25
 3765 0150 71       		.byte	0x71
 3766 0151 04       		.sleb128 4
 3767 0152 06       		.byte	0x6
 3768 0153 F7       		.byte	0xf7
 3769 0154 25       		.uleb128 0x25
 3770 0155 1B       		.byte	0x1b
 3771 0156 F7       		.byte	0xf7
 3772 0157 00       		.uleb128 0
 3773 0158 31       		.byte	0x31
 3774 0159 1C       		.byte	0x1c
 3775 015a 9F       		.byte	0x9f
 3776 015b 5E000000 		.4byte	.LVL25
 3777 015f 68000000 		.4byte	.LVL26
 3778 0163 1300     		.2byte	0x13
 3779 0165 74       		.byte	0x74
 3780 0166 08       		.sleb128 8
 3781 0167 06       		.byte	0x6
 3782 0168 F7       		.byte	0xf7
 3783 0169 25       		.uleb128 0x25
 3784 016a 74       		.byte	0x74
 3785 016b 04       		.sleb128 4
 3786 016c 06       		.byte	0x6
 3787 016d 23       		.byte	0x23
 3788 016e 04       		.uleb128 0x4
 3789 016f 06       		.byte	0x6
 3790 0170 F7       		.byte	0xf7
 3791 0171 25       		.uleb128 0x25
 3792 0172 1B       		.byte	0x1b
 3793 0173 F7       		.byte	0xf7
 3794 0174 00       		.uleb128 0
 3795 0175 31       		.byte	0x31
 3796 0176 1C       		.byte	0x1c
 3797 0177 9F       		.byte	0x9f
 3798 0178 74000000 		.4byte	.LVL27
 3799 017c 78000000 		.4byte	.LVL28
 3800 0180 1300     		.2byte	0x13
 3801 0182 74       		.byte	0x74
 3802 0183 08       		.sleb128 8
 3803 0184 06       		.byte	0x6
 3804 0185 F7       		.byte	0xf7
 3805 0186 25       		.uleb128 0x25
 3806 0187 74       		.byte	0x74
 3807 0188 04       		.sleb128 4
 3808 0189 06       		.byte	0x6
 3809 018a 23       		.byte	0x23
 3810 018b 04       		.uleb128 0x4
 3811 018c 06       		.byte	0x6
 3812 018d F7       		.byte	0xf7
 3813 018e 25       		.uleb128 0x25
 3814 018f 1B       		.byte	0x1b
 3815 0190 F7       		.byte	0xf7
ARM GAS  C:\Users\IDONNO~1.SON\AppData\Local\Temp\ccGgURRx.s 			page 68


 3816 0191 00       		.uleb128 0
 3817 0192 31       		.byte	0x31
 3818 0193 1C       		.byte	0x1c
 3819 0194 9F       		.byte	0x9f
 3820 0195 7A000000 		.4byte	.LVL29
 3821 0199 7E000000 		.4byte	.LVL30
 3822 019d 1300     		.2byte	0x13
 3823 019f 74       		.byte	0x74
 3824 01a0 08       		.sleb128 8
 3825 01a1 06       		.byte	0x6
 3826 01a2 F7       		.byte	0xf7
 3827 01a3 25       		.uleb128 0x25
 3828 01a4 74       		.byte	0x74
 3829 01a5 04       		.sleb128 4
 3830 01a6 06       		.byte	0x6
 3831 01a7 23       		.byte	0x23
 3832 01a8 04       		.uleb128 0x4
 3833 01a9 06       		.byte	0x6
 3834 01aa F7       		.byte	0xf7
 3835 01ab 25       		.uleb128 0x25
 3836 01ac 1B       		.byte	0x1b
 3837 01ad F7       		.byte	0xf7
 3838 01ae 00       		.uleb128 0
 3839 01af 31       		.byte	0x31
 3840 01b0 1C       		.byte	0x1c
 3841 01b1 9F       		.byte	0x9f
 3842 01b2 00000000 		.4byte	0
 3843 01b6 00000000 		.4byte	0
 3844              	.LLST8:
 3845 01ba 00000000 		.4byte	.LVL36
 3846 01be 08000000 		.4byte	.LVL37
 3847 01c2 0100     		.2byte	0x1
 3848 01c4 50       		.byte	0x50
 3849 01c5 08000000 		.4byte	.LVL37
 3850 01c9 0A000000 		.4byte	.LVL38
 3851 01cd 0400     		.2byte	0x4
 3852 01cf F3       		.byte	0xf3
 3853 01d0 01       		.uleb128 0x1
 3854 01d1 50       		.byte	0x50
 3855 01d2 9F       		.byte	0x9f
 3856 01d3 0A000000 		.4byte	.LVL38
 3857 01d7 1C000000 		.4byte	.LVL39
 3858 01db 0100     		.2byte	0x1
 3859 01dd 50       		.byte	0x50
 3860 01de 1C000000 		.4byte	.LVL39
 3861 01e2 34000000 		.4byte	.LFE261
 3862 01e6 0400     		.2byte	0x4
 3863 01e8 F3       		.byte	0xf3
 3864 01e9 01       		.uleb128 0x1
 3865 01ea 50       		.byte	0x50
 3866 01eb 9F       		.byte	0x9f
 3867 01ec 00000000 		.4byte	0
 3868 01f0 00000000 		.4byte	0
 3869              	.LLST9:
 3870 01f4 00000000 		.4byte	.LVL41
 3871 01f8 06000000 		.4byte	.LVL42
 3872 01fc 0100     		.2byte	0x1
ARM GAS  C:\Users\IDONNO~1.SON\AppData\Local\Temp\ccGgURRx.s 			page 69


 3873 01fe 50       		.byte	0x50
 3874 01ff 06000000 		.4byte	.LVL42
 3875 0203 14000000 		.4byte	.LFE262
 3876 0207 0400     		.2byte	0x4
 3877 0209 F3       		.byte	0xf3
 3878 020a 01       		.uleb128 0x1
 3879 020b 50       		.byte	0x50
 3880 020c 9F       		.byte	0x9f
 3881 020d 00000000 		.4byte	0
 3882 0211 00000000 		.4byte	0
 3883              	.LLST10:
 3884 0215 00000000 		.4byte	.LVL43
 3885 0219 10000000 		.4byte	.LVL44
 3886 021d 0100     		.2byte	0x1
 3887 021f 50       		.byte	0x50
 3888 0220 10000000 		.4byte	.LVL44
 3889 0224 18000000 		.4byte	.LVL45
 3890 0228 0300     		.2byte	0x3
 3891 022a 74       		.byte	0x74
 3892 022b 7C       		.sleb128 -4
 3893 022c 9F       		.byte	0x9f
 3894 022d 18000000 		.4byte	.LVL45
 3895 0231 1B000000 		.4byte	.LVL46-1
 3896 0235 0300     		.2byte	0x3
 3897 0237 70       		.byte	0x70
 3898 0238 7C       		.sleb128 -4
 3899 0239 9F       		.byte	0x9f
 3900 023a 1B000000 		.4byte	.LVL46-1
 3901 023e 1C000000 		.4byte	.LVL46
 3902 0242 0400     		.2byte	0x4
 3903 0244 F3       		.byte	0xf3
 3904 0245 01       		.uleb128 0x1
 3905 0246 50       		.byte	0x50
 3906 0247 9F       		.byte	0x9f
 3907 0248 1C000000 		.4byte	.LVL46
 3908 024c 20000000 		.4byte	.LVL47
 3909 0250 0100     		.2byte	0x1
 3910 0252 50       		.byte	0x50
 3911 0253 20000000 		.4byte	.LVL47
 3912 0257 2A000000 		.4byte	.LFE263
 3913 025b 0300     		.2byte	0x3
 3914 025d 74       		.byte	0x74
 3915 025e 7C       		.sleb128 -4
 3916 025f 9F       		.byte	0x9f
 3917 0260 00000000 		.4byte	0
 3918 0264 00000000 		.4byte	0
 3919              	.LLST11:
 3920 0268 00000000 		.4byte	.LVL50
 3921 026c 12000000 		.4byte	.LVL52
 3922 0270 0100     		.2byte	0x1
 3923 0272 50       		.byte	0x50
 3924 0273 12000000 		.4byte	.LVL52
 3925 0277 3E000000 		.4byte	.LFE265
 3926 027b 0400     		.2byte	0x4
 3927 027d F3       		.byte	0xf3
 3928 027e 01       		.uleb128 0x1
 3929 027f 50       		.byte	0x50
ARM GAS  C:\Users\IDONNO~1.SON\AppData\Local\Temp\ccGgURRx.s 			page 70


 3930 0280 9F       		.byte	0x9f
 3931 0281 00000000 		.4byte	0
 3932 0285 00000000 		.4byte	0
 3933              	.LLST12:
 3934 0289 04000000 		.4byte	.LVL51
 3935 028d 14000000 		.4byte	.LVL53
 3936 0291 0100     		.2byte	0x1
 3937 0293 53       		.byte	0x53
 3938 0294 14000000 		.4byte	.LVL53
 3939 0298 18000000 		.4byte	.LVL54
 3940 029c 0500     		.2byte	0x5
 3941 029e 73       		.byte	0x73
 3942 029f 00       		.sleb128 0
 3943 02a0 34       		.byte	0x34
 3944 02a1 21       		.byte	0x21
 3945 02a2 9F       		.byte	0x9f
 3946 02a3 1C000000 		.4byte	.LVL55
 3947 02a7 2C000000 		.4byte	.LVL57
 3948 02ab 0100     		.2byte	0x1
 3949 02ad 53       		.byte	0x53
 3950 02ae 2C000000 		.4byte	.LVL57
 3951 02b2 36000000 		.4byte	.LVL58
 3952 02b6 0500     		.2byte	0x5
 3953 02b8 73       		.byte	0x73
 3954 02b9 00       		.sleb128 0
 3955 02ba 32       		.byte	0x32
 3956 02bb 21       		.byte	0x21
 3957 02bc 9F       		.byte	0x9f
 3958 02bd 36000000 		.4byte	.LVL58
 3959 02c1 38000000 		.4byte	.LVL59
 3960 02c5 0100     		.2byte	0x1
 3961 02c7 53       		.byte	0x53
 3962 02c8 38000000 		.4byte	.LVL59
 3963 02cc 3C000000 		.4byte	.LVL60
 3964 02d0 0500     		.2byte	0x5
 3965 02d2 73       		.byte	0x73
 3966 02d3 00       		.sleb128 0
 3967 02d4 34       		.byte	0x34
 3968 02d5 21       		.byte	0x21
 3969 02d6 9F       		.byte	0x9f
 3970 02d7 00000000 		.4byte	0
 3971 02db 00000000 		.4byte	0
 3972              		.section	.debug_aranges,"",%progbits
 3973 0000 64000000 		.4byte	0x64
 3974 0004 0200     		.2byte	0x2
 3975 0006 00000000 		.4byte	.Ldebug_info0
 3976 000a 04       		.byte	0x4
 3977 000b 00       		.byte	0
 3978 000c 0000     		.2byte	0
 3979 000e 0000     		.2byte	0
 3980 0010 00000000 		.4byte	.LFB267
 3981 0014 36000000 		.4byte	.LFE267-.LFB267
 3982 0018 00000000 		.4byte	.LFB258
 3983 001c 9C000000 		.4byte	.LFE258-.LFB258
 3984 0020 00000000 		.4byte	.LFB259
 3985 0024 18000000 		.4byte	.LFE259-.LFB259
 3986 0028 00000000 		.4byte	.LFB260
ARM GAS  C:\Users\IDONNO~1.SON\AppData\Local\Temp\ccGgURRx.s 			page 71


 3987 002c BC000000 		.4byte	.LFE260-.LFB260
 3988 0030 00000000 		.4byte	.LFB261
 3989 0034 34000000 		.4byte	.LFE261-.LFB261
 3990 0038 00000000 		.4byte	.LFB262
 3991 003c 14000000 		.4byte	.LFE262-.LFB262
 3992 0040 00000000 		.4byte	.LFB263
 3993 0044 2A000000 		.4byte	.LFE263-.LFB263
 3994 0048 00000000 		.4byte	.LFB264
 3995 004c 10000000 		.4byte	.LFE264-.LFB264
 3996 0050 00000000 		.4byte	.LFB265
 3997 0054 3E000000 		.4byte	.LFE265-.LFB265
 3998 0058 00000000 		.4byte	.LFB266
 3999 005c 0C000000 		.4byte	.LFE266-.LFB266
 4000 0060 00000000 		.4byte	0
 4001 0064 00000000 		.4byte	0
 4002              		.section	.debug_ranges,"",%progbits
 4003              	.Ldebug_ranges0:
 4004 0000 02000000 		.4byte	.LBB44
 4005 0004 36000000 		.4byte	.LBE44
 4006 0008 3E000000 		.4byte	.LBB47
 4007 000c 9C000000 		.4byte	.LBE47
 4008 0010 00000000 		.4byte	0
 4009 0014 00000000 		.4byte	0
 4010 0018 00000000 		.4byte	.LFB267
 4011 001c 36000000 		.4byte	.LFE267
 4012 0020 00000000 		.4byte	.LFB258
 4013 0024 9C000000 		.4byte	.LFE258
 4014 0028 00000000 		.4byte	.LFB259
 4015 002c 18000000 		.4byte	.LFE259
 4016 0030 00000000 		.4byte	.LFB260
 4017 0034 BC000000 		.4byte	.LFE260
 4018 0038 00000000 		.4byte	.LFB261
 4019 003c 34000000 		.4byte	.LFE261
 4020 0040 00000000 		.4byte	.LFB262
 4021 0044 14000000 		.4byte	.LFE262
 4022 0048 00000000 		.4byte	.LFB263
 4023 004c 2A000000 		.4byte	.LFE263
 4024 0050 00000000 		.4byte	.LFB264
 4025 0054 10000000 		.4byte	.LFE264
 4026 0058 00000000 		.4byte	.LFB265
 4027 005c 3E000000 		.4byte	.LFE265
 4028 0060 00000000 		.4byte	.LFB266
 4029 0064 0C000000 		.4byte	.LFE266
 4030 0068 00000000 		.4byte	0
 4031 006c 00000000 		.4byte	0
 4032              		.section	.debug_line,"",%progbits
 4033              	.Ldebug_line0:
 4034 0000 D2040000 		.section	.debug_str,"MS",%progbits,1
 4034      02006103 
 4034      00000201 
 4034      FB0E0D00 
 4034      01010101 
 4035              	.LASF157:
 4036 0000 4943555F 		.ascii	"ICU_INPUT_ACTIVE_HIGH\000"
 4036      494E5055 
 4036      545F4143 
 4036      54495645 
ARM GAS  C:\Users\IDONNO~1.SON\AppData\Local\Temp\ccGgURRx.s 			page 72


 4036      5F484947 
 4037              	.LASF54:
 4038 0016 72656164 		.ascii	"ready_list_t\000"
 4038      795F6C69 
 4038      73745F74 
 4038      00
 4039              	.LASF135:
 4040 0023 44494552 		.ascii	"DIER\000"
 4040      00
 4041              	.LASF2:
 4042 0028 73697A65 		.ascii	"size_t\000"
 4042      5F7400
 4043              	.LASF188:
 4044 002f 6963755F 		.ascii	"icu_lld_enable_notifications\000"
 4044      6C6C645F 
 4044      656E6162 
 4044      6C655F6E 
 4044      6F746966 
 4045              	.LASF17:
 4046 004c 75696E74 		.ascii	"uint64_t\000"
 4046      36345F74 
 4046      00
 4047              	.LASF147:
 4048 0055 4943555F 		.ascii	"ICU_WAITING\000"
 4048      57414954 
 4048      494E4700 
 4049              	.LASF148:
 4050 0061 4943555F 		.ascii	"ICU_ACTIVE\000"
 4050      41435449 
 4050      564500
 4051              	.LASF3:
 4052 006c 5F5F7569 		.ascii	"__uint8_t\000"
 4052      6E74385F 
 4052      7400
 4053              	.LASF114:
 4054 0076 706F7274 		.ascii	"port_intctx\000"
 4054      5F696E74 
 4054      63747800 
 4055              	.LASF53:
 4056 0082 63685F74 		.ascii	"ch_threads_queue\000"
 4056      68726561 
 4056      64735F71 
 4056      75657565 
 4056      00
 4057              	.LASF73:
 4058 0093 73797374 		.ascii	"system_debug_t\000"
 4058      656D5F64 
 4058      65627567 
 4058      5F7400
 4059              	.LASF196:
 4060 00a2 474E5520 		.ascii	"GNU C99 5.4.1 20160609 (release) [ARM/embedded-5-br"
 4060      43393920 
 4060      352E342E 
 4060      31203230 
 4060      31363036 
 4061 00d5 616E6368 		.ascii	"anch revision 237715] -mcpu=cortex-m4 -mfloat-abi=h"
 4061      20726576 
ARM GAS  C:\Users\IDONNO~1.SON\AppData\Local\Temp\ccGgURRx.s 			page 73


 4061      6973696F 
 4061      6E203233 
 4061      37373135 
 4062 0108 61726420 		.ascii	"ard -mfpu=fpv4-sp-d16 -mno-thumb-interwork -mthumb "
 4062      2D6D6670 
 4062      753D6670 
 4062      76342D73 
 4062      702D6431 
 4063 013b 2D676764 		.ascii	"-ggdb -O2 -std=gnu99 -fomit-frame-pointer -falign-f"
 4063      62202D4F 
 4063      32202D73 
 4063      74643D67 
 4063      6E753939 
 4064 016e 756E6374 		.ascii	"unctions=16 -ffunction-sections -fdata-sections -fn"
 4064      696F6E73 
 4064      3D313620 
 4064      2D666675 
 4064      6E637469 
 4065 01a1 6F2D636F 		.ascii	"o-common -fsingle-precision-constant\000"
 4065      6D6D6F6E 
 4065      202D6673 
 4065      696E676C 
 4065      652D7072 
 4066              	.LASF172:
 4067 01c6 706F7274 		.ascii	"port_lock\000"
 4067      5F6C6F63 
 4067      6B00
 4068              	.LASF149:
 4069 01d0 69637573 		.ascii	"icustate_t\000"
 4069      74617465 
 4069      5F7400
 4070              	.LASF198:
 4071 01db 443A5C67 		.ascii	"D:\\git\\oroca_bldc_dev\\oroca_bldc_FW\000"
 4071      69745C6F 
 4071      726F6361 
 4071      5F626C64 
 4071      635F6465 
 4072              	.LASF13:
 4073 01ff 6C6F6E67 		.ascii	"long long unsigned int\000"
 4073      206C6F6E 
 4073      6720756E 
 4073      7369676E 
 4073      65642069 
 4074              	.LASF118:
 4075 0216 65786974 		.ascii	"exitcode\000"
 4075      636F6465 
 4075      00
 4076              	.LASF80:
 4077 021f 6D61696E 		.ascii	"mainthread\000"
 4077      74687265 
 4077      616400
 4078              	.LASF183:
 4079 022a 6963755F 		.ascii	"icu_lld_init\000"
 4079      6C6C645F 
 4079      696E6974 
 4079      00
 4080              	.LASF70:
ARM GAS  C:\Users\IDONNO~1.SON\AppData\Local\Temp\ccGgURRx.s 			page 74


 4081 0237 76697274 		.ascii	"virtual_timers_list_t\000"
 4081      75616C5F 
 4081      74696D65 
 4081      72735F6C 
 4081      6973745F 
 4082              	.LASF190:
 4083 024d 49544D5F 		.ascii	"ITM_RxBuffer\000"
 4083      52784275 
 4083      66666572 
 4083      00
 4084              	.LASF139:
 4085 025a 42445452 		.ascii	"BDTR\000"
 4085      00
 4086              	.LASF165:
 4087 025f 66726571 		.ascii	"frequency\000"
 4087      75656E63 
 4087      7900
 4088              	.LASF99:
 4089 0269 41484231 		.ascii	"AHB1LPENR\000"
 4089      4C50454E 
 4089      5200
 4090              	.LASF31:
 4091 0273 705F7072 		.ascii	"p_prio\000"
 4091      696F00
 4092              	.LASF6:
 4093 027a 73686F72 		.ascii	"short unsigned int\000"
 4093      7420756E 
 4093      7369676E 
 4093      65642069 
 4093      6E7400
 4094              	.LASF194:
 4095 028d 6E766963 		.ascii	"nvicEnableVector\000"
 4095      456E6162 
 4095      6C655665 
 4095      63746F72 
 4095      00
 4096              	.LASF136:
 4097 029e 43434D52 		.ascii	"CCMR1\000"
 4097      3100
 4098              	.LASF137:
 4099 02a4 43434D52 		.ascii	"CCMR2\000"
 4099      3200
 4100              	.LASF141:
 4101 02aa 43434D52 		.ascii	"CCMR3\000"
 4101      3300
 4102              	.LASF1:
 4103 02b0 7369676E 		.ascii	"signed char\000"
 4103      65642063 
 4103      68617200 
 4104              	.LASF85:
 4105 02bc 41484231 		.ascii	"AHB1RSTR\000"
 4105      52535452 
 4105      00
 4106              	.LASF128:
 4107 02c5 6D5F7175 		.ascii	"m_queue\000"
 4107      65756500 
 4108              	.LASF79:
ARM GAS  C:\Users\IDONNO~1.SON\AppData\Local\Temp\ccGgURRx.s 			page 75


 4109 02cd 76746C69 		.ascii	"vtlist\000"
 4109      737400
 4110              	.LASF173:
 4111 02d4 706F7274 		.ascii	"port_unlock\000"
 4111      5F756E6C 
 4111      6F636B00 
 4112              	.LASF22:
 4113 02e0 74736C69 		.ascii	"tslices_t\000"
 4113      6365735F 
 4113      7400
 4114              	.LASF182:
 4115 02ea 56656374 		.ascii	"VectorB4\000"
 4115      6F724234 
 4115      00
 4116              	.LASF151:
 4117 02f3 73746174 		.ascii	"state\000"
 4117      6500
 4118              	.LASF77:
 4119 02f9 63685F73 		.ascii	"ch_system\000"
 4119      79737465 
 4119      6D00
 4120              	.LASF8:
 4121 0303 6C6F6E67 		.ascii	"long int\000"
 4121      20696E74 
 4121      00
 4122              	.LASF90:
 4123 030c 41504232 		.ascii	"APB2RSTR\000"
 4123      52535452 
 4123      00
 4124              	.LASF103:
 4125 0315 41504231 		.ascii	"APB1LPENR\000"
 4125      4C50454E 
 4125      5200
 4126              	.LASF20:
 4127 031f 74737461 		.ascii	"tstate_t\000"
 4127      74655F74 
 4127      00
 4128              	.LASF33:
 4129 0328 705F6E65 		.ascii	"p_newer\000"
 4129      77657200 
 4130              	.LASF83:
 4131 0330 504C4C43 		.ascii	"PLLCFGR\000"
 4131      46475200 
 4132              	.LASF171:
 4133 0338 49435543 		.ascii	"ICUConfig\000"
 4133      6F6E6669 
 4133      6700
 4134              	.LASF59:
 4135 0342 725F6E65 		.ascii	"r_newer\000"
 4135      77657200 
 4136              	.LASF47:
 4137 034a 705F6D70 		.ascii	"p_mpool\000"
 4137      6F6F6C00 
 4138              	.LASF111:
 4139 0352 72656761 		.ascii	"regarm_t\000"
 4139      726D5F74 
 4139      00
ARM GAS  C:\Users\IDONNO~1.SON\AppData\Local\Temp\ccGgURRx.s 			page 76


 4140              	.LASF66:
 4141 035b 76745F70 		.ascii	"vt_prev\000"
 4141      72657600 
 4142              	.LASF78:
 4143 0363 726C6973 		.ascii	"rlist\000"
 4143      7400
 4144              	.LASF11:
 4145 0369 6C6F6E67 		.ascii	"long long int\000"
 4145      206C6F6E 
 4145      6720696E 
 4145      7400
 4146              	.LASF177:
 4147 0377 76616C75 		.ascii	"value\000"
 4147      6500
 4148              	.LASF81:
 4149 037d 69646C65 		.ascii	"idle_thread_wa\000"
 4149      5F746872 
 4149      6561645F 
 4149      776100
 4150              	.LASF26:
 4151 038c 636E745F 		.ascii	"cnt_t\000"
 4151      7400
 4152              	.LASF0:
 4153 0392 756E7369 		.ascii	"unsigned int\000"
 4153      676E6564 
 4153      20696E74 
 4153      00
 4154              	.LASF65:
 4155 039f 76745F6E 		.ascii	"vt_next\000"
 4155      65787400 
 4156              	.LASF195:
 4157 03a7 6E766963 		.ascii	"nvicDisableVector\000"
 4157      44697361 
 4157      626C6556 
 4157      6563746F 
 4157      7200
 4158              	.LASF40:
 4159 03b9 705F7469 		.ascii	"p_time\000"
 4159      6D6500
 4160              	.LASF121:
 4161 03c0 77747365 		.ascii	"wtsemp\000"
 4161      6D7000
 4162              	.LASF72:
 4163 03c7 76745F73 		.ascii	"vt_systime\000"
 4163      79737469 
 4163      6D6500
 4164              	.LASF67:
 4165 03d2 76745F64 		.ascii	"vt_delta\000"
 4165      656C7461 
 4165      00
 4166              	.LASF42:
 4167 03db 705F6D73 		.ascii	"p_msgqueue\000"
 4167      67717565 
 4167      756500
 4168              	.LASF156:
 4169 03e6 69637563 		.ascii	"icucallback_t\000"
 4169      616C6C62 
ARM GAS  C:\Users\IDONNO~1.SON\AppData\Local\Temp\ccGgURRx.s 			page 77


 4169      61636B5F 
 4169      7400
 4170              	.LASF110:
 4171 03f4 5243435F 		.ascii	"RCC_TypeDef\000"
 4171      54797065 
 4171      44656600 
 4172              	.LASF50:
 4173 0400 63685F74 		.ascii	"ch_thread\000"
 4173      68726561 
 4173      6400
 4174              	.LASF167:
 4175 040a 70657269 		.ascii	"period_cb\000"
 4175      6F645F63 
 4175      6200
 4176              	.LASF181:
 4177 0414 6963755F 		.ascii	"icu_lld_serve_interrupt\000"
 4177      6C6C645F 
 4177      73657276 
 4177      655F696E 
 4177      74657272 
 4178              	.LASF168:
 4179 042c 6F766572 		.ascii	"overflow_cb\000"
 4179      666C6F77 
 4179      5F636200 
 4180              	.LASF109:
 4181 0438 504C4C49 		.ascii	"PLLI2SCFGR\000"
 4181      32534346 
 4181      475200
 4182              	.LASF24:
 4183 0443 6D73675F 		.ascii	"msg_t\000"
 4183      7400
 4184              	.LASF87:
 4185 0449 41484233 		.ascii	"AHB3RSTR\000"
 4185      52535452 
 4185      00
 4186              	.LASF192:
 4187 0452 5F706F72 		.ascii	"_port_irq_epilogue\000"
 4187      745F6972 
 4187      715F6570 
 4187      696C6F67 
 4187      756500
 4188              	.LASF150:
 4189 0465 49435544 		.ascii	"ICUDriver\000"
 4189      72697665 
 4189      7200
 4190              	.LASF93:
 4191 046f 41484232 		.ascii	"AHB2ENR\000"
 4191      454E5200 
 4192              	.LASF143:
 4193 0477 73746D33 		.ascii	"stm32_tim_t\000"
 4193      325F7469 
 4193      6D5F7400 
 4194              	.LASF104:
 4195 0483 41504232 		.ascii	"APB2LPENR\000"
 4195      4C50454E 
 4195      5200
 4196              	.LASF155:
ARM GAS  C:\Users\IDONNO~1.SON\AppData\Local\Temp\ccGgURRx.s 			page 78


 4197 048d 70636372 		.ascii	"pccrp\000"
 4197      7000
 4198              	.LASF55:
 4199 0493 63685F72 		.ascii	"ch_ready_list\000"
 4199      65616479 
 4199      5F6C6973 
 4199      7400
 4200              	.LASF25:
 4201 04a1 6576656E 		.ascii	"eventmask_t\000"
 4201      746D6173 
 4201      6B5F7400 
 4202              	.LASF7:
 4203 04ad 5F5F696E 		.ascii	"__int32_t\000"
 4203      7433325F 
 4203      7400
 4204              	.LASF146:
 4205 04b7 4943555F 		.ascii	"ICU_READY\000"
 4205      52454144 
 4205      5900
 4206              	.LASF112:
 4207 04c1 73746B61 		.ascii	"stkalign_t\000"
 4207      6C69676E 
 4207      5F7400
 4208              	.LASF187:
 4209 04cc 6963755F 		.ascii	"icu_lld_stop_capture\000"
 4209      6C6C645F 
 4209      73746F70 
 4209      5F636170 
 4209      74757265 
 4210              	.LASF49:
 4211 04e1 74687265 		.ascii	"threads_list_t\000"
 4211      6164735F 
 4211      6C697374 
 4211      5F7400
 4212              	.LASF63:
 4213 04f0 76697274 		.ascii	"virtual_timer_t\000"
 4213      75616C5F 
 4213      74696D65 
 4213      725F7400 
 4214              	.LASF189:
 4215 0500 6963755F 		.ascii	"icu_lld_disable_notifications\000"
 4215      6C6C645F 
 4215      64697361 
 4215      626C655F 
 4215      6E6F7469 
 4216              	.LASF186:
 4217 051e 6963755F 		.ascii	"icu_lld_start_capture\000"
 4217      6C6C645F 
 4217      73746172 
 4217      745F6361 
 4217      70747572 
 4218              	.LASF41:
 4219 0534 705F7761 		.ascii	"p_waiting\000"
 4219      6974696E 
 4219      6700
 4220              	.LASF82:
 4221 053e 73697A65 		.ascii	"sizetype\000"
ARM GAS  C:\Users\IDONNO~1.SON\AppData\Local\Temp\ccGgURRx.s 			page 79


 4221      74797065 
 4221      00
 4222              	.LASF48:
 4223 0547 74687265 		.ascii	"thread_reference_t\000"
 4223      61645F72 
 4223      65666572 
 4223      656E6365 
 4223      5F7400
 4224              	.LASF71:
 4225 055a 63685F76 		.ascii	"ch_virtual_timers_list\000"
 4225      69727475 
 4225      616C5F74 
 4225      696D6572 
 4225      735F6C69 
 4226              	.LASF120:
 4227 0571 77747472 		.ascii	"wttrp\000"
 4227      7000
 4228              	.LASF134:
 4229 0577 534D4352 		.ascii	"SMCR\000"
 4229      00
 4230              	.LASF29:
 4231 057c 705F6E65 		.ascii	"p_next\000"
 4231      787400
 4232              	.LASF166:
 4233 0583 77696474 		.ascii	"width_cb\000"
 4233      685F6362 
 4233      00
 4234              	.LASF116:
 4235 058c 746D5F63 		.ascii	"tm_calibration_t\000"
 4235      616C6962 
 4235      72617469 
 4235      6F6E5F74 
 4235      00
 4236              	.LASF94:
 4237 059d 41484233 		.ascii	"AHB3ENR\000"
 4237      454E5200 
 4238              	.LASF34:
 4239 05a5 705F6F6C 		.ascii	"p_older\000"
 4239      64657200 
 4240              	.LASF117:
 4241 05ad 7264796D 		.ascii	"rdymsg\000"
 4241      736700
 4242              	.LASF58:
 4243 05b4 725F6374 		.ascii	"r_ctx\000"
 4243      7800
 4244              	.LASF100:
 4245 05ba 41484232 		.ascii	"AHB2LPENR\000"
 4245      4C50454E 
 4245      5200
 4246              	.LASF145:
 4247 05c4 4943555F 		.ascii	"ICU_STOP\000"
 4247      53544F50 
 4247      00
 4248              	.LASF197:
 4249 05cd 6C69622F 		.ascii	"lib/ChibiOS_3.0.2/os/hal/ports/STM32/LLD/TIMv1/icu_"
 4249      43686962 
 4249      694F535F 
ARM GAS  C:\Users\IDONNO~1.SON\AppData\Local\Temp\ccGgURRx.s 			page 80


 4249      332E302E 
 4249      322F6F73 
 4250 0600 6C6C642E 		.ascii	"lld.c\000"
 4250      6300
 4251              	.LASF158:
 4252 0606 4943555F 		.ascii	"ICU_INPUT_ACTIVE_LOW\000"
 4252      494E5055 
 4252      545F4143 
 4252      54495645 
 4252      5F4C4F57 
 4253              	.LASF61:
 4254 061b 725F6375 		.ascii	"r_current\000"
 4254      7272656E 
 4254      7400
 4255              	.LASF89:
 4256 0625 41504231 		.ascii	"APB1RSTR\000"
 4256      52535452 
 4256      00
 4257              	.LASF12:
 4258 062e 5F5F7569 		.ascii	"__uint64_t\000"
 4258      6E743634 
 4258      5F7400
 4259              	.LASF21:
 4260 0639 74726566 		.ascii	"trefs_t\000"
 4260      735F7400 
 4261              	.LASF88:
 4262 0641 52455345 		.ascii	"RESERVED0\000"
 4262      52564544 
 4262      3000
 4263              	.LASF91:
 4264 064b 52455345 		.ascii	"RESERVED1\000"
 4264      52564544 
 4264      3100
 4265              	.LASF95:
 4266 0655 52455345 		.ascii	"RESERVED2\000"
 4266      52564544 
 4266      3200
 4267              	.LASF98:
 4268 065f 52455345 		.ascii	"RESERVED3\000"
 4268      52564544 
 4268      3300
 4269              	.LASF102:
 4270 0669 52455345 		.ascii	"RESERVED4\000"
 4270      52564544 
 4270      3400
 4271              	.LASF30:
 4272 0673 705F7072 		.ascii	"p_prev\000"
 4272      657600
 4273              	.LASF107:
 4274 067a 52455345 		.ascii	"RESERVED6\000"
 4274      52564544 
 4274      3600
 4275              	.LASF23:
 4276 0684 74707269 		.ascii	"tprio_t\000"
 4276      6F5F7400 
 4277              	.LASF178:
 4278 068c 69637570 		.ascii	"icup\000"
ARM GAS  C:\Users\IDONNO~1.SON\AppData\Local\Temp\ccGgURRx.s 			page 81


 4278      00
 4279              	.LASF74:
 4280 0691 63685F73 		.ascii	"ch_system_debug\000"
 4280      79737465 
 4280      6D5F6465 
 4280      62756700 
 4281              	.LASF133:
 4282 06a1 5F426F6F 		.ascii	"_Bool\000"
 4282      6C00
 4283              	.LASF15:
 4284 06a7 696E7433 		.ascii	"int32_t\000"
 4284      325F7400 
 4285              	.LASF4:
 4286 06af 756E7369 		.ascii	"unsigned char\000"
 4286      676E6564 
 4286      20636861 
 4286      7200
 4287              	.LASF159:
 4288 06bd 6963756D 		.ascii	"icumode_t\000"
 4288      6F64655F 
 4288      7400
 4289              	.LASF126:
 4290 06c7 735F636E 		.ascii	"s_cnt\000"
 4290      7400
 4291              	.LASF45:
 4292 06cd 705F6D74 		.ascii	"p_mtxlist\000"
 4292      786C6973 
 4292      7400
 4293              	.LASF5:
 4294 06d7 73686F72 		.ascii	"short int\000"
 4294      7420696E 
 4294      7400
 4295              	.LASF36:
 4296 06e1 705F7374 		.ascii	"p_state\000"
 4296      61746500 
 4297              	.LASF39:
 4298 06e9 705F7072 		.ascii	"p_preempt\000"
 4298      65656D70 
 4298      7400
 4299              	.LASF101:
 4300 06f3 41484233 		.ascii	"AHB3LPENR\000"
 4300      4C50454E 
 4300      5200
 4301              	.LASF57:
 4302 06fd 725F7072 		.ascii	"r_prio\000"
 4302      696F00
 4303              	.LASF123:
 4304 0704 65776D61 		.ascii	"ewmask\000"
 4304      736B00
 4305              	.LASF37:
 4306 070b 705F666C 		.ascii	"p_flags\000"
 4306      61677300 
 4307              	.LASF179:
 4308 0713 5F5F6675 		.ascii	"__func__\000"
 4308      6E635F5F 
 4308      00
 4309              	.LASF176:
ARM GAS  C:\Users\IDONNO~1.SON\AppData\Local\Temp\ccGgURRx.s 			page 82


 4310 071c 63685379 		.ascii	"chSysLock\000"
 4310      734C6F63 
 4310      6B00
 4311              	.LASF97:
 4312 0726 41504232 		.ascii	"APB2ENR\000"
 4312      454E5200 
 4313              	.LASF163:
 4314 072e 69637563 		.ascii	"icuchannel_t\000"
 4314      68616E6E 
 4314      656C5F74 
 4314      00
 4315              	.LASF169:
 4316 073b 6368616E 		.ascii	"channel\000"
 4316      6E656C00 
 4317              	.LASF64:
 4318 0743 63685F76 		.ascii	"ch_virtual_timer\000"
 4318      69727475 
 4318      616C5F74 
 4318      696D6572 
 4318      00
 4319              	.LASF124:
 4320 0754 63685F73 		.ascii	"ch_semaphore\000"
 4320      656D6170 
 4320      686F7265 
 4320      00
 4321              	.LASF142:
 4322 0761 43435852 		.ascii	"CCXR\000"
 4322      00
 4323              	.LASF44:
 4324 0766 705F6570 		.ascii	"p_epending\000"
 4324      656E6469 
 4324      6E6700
 4325              	.LASF105:
 4326 0771 52455345 		.ascii	"RESERVED5\000"
 4326      52564544 
 4326      3500
 4327              	.LASF193:
 4328 077b 6963754F 		.ascii	"icuObjectInit\000"
 4328      626A6563 
 4328      74496E69 
 4328      7400
 4329              	.LASF122:
 4330 0789 77746D74 		.ascii	"wtmtxp\000"
 4330      787000
 4331              	.LASF56:
 4332 0790 725F7175 		.ascii	"r_queue\000"
 4332      65756500 
 4333              	.LASF51:
 4334 0798 63685F74 		.ascii	"ch_threads_list\000"
 4334      68726561 
 4334      64735F6C 
 4334      69737400 
 4335              	.LASF10:
 4336 07a8 6C6F6E67 		.ascii	"long unsigned int\000"
 4336      20756E73 
 4336      69676E65 
 4336      6420696E 
ARM GAS  C:\Users\IDONNO~1.SON\AppData\Local\Temp\ccGgURRx.s 			page 83


 4336      7400
 4337              	.LASF131:
 4338 07ba 63686172 		.ascii	"char\000"
 4338      00
 4339              	.LASF164:
 4340 07bf 6D6F6465 		.ascii	"mode\000"
 4340      00
 4341              	.LASF191:
 4342 07c4 49435544 		.ascii	"ICUD3\000"
 4342      3300
 4343              	.LASF152:
 4344 07ca 636F6E66 		.ascii	"config\000"
 4344      696700
 4345              	.LASF140:
 4346 07d1 444D4152 		.ascii	"DMAR\000"
 4346      00
 4347              	.LASF86:
 4348 07d6 41484232 		.ascii	"AHB2RSTR\000"
 4348      52535452 
 4348      00
 4349              	.LASF28:
 4350 07df 74687265 		.ascii	"thread_t\000"
 4350      61645F74 
 4350      00
 4351              	.LASF138:
 4352 07e8 43434552 		.ascii	"CCER\000"
 4352      00
 4353              	.LASF130:
 4354 07ed 6D5F6E65 		.ascii	"m_next\000"
 4354      787400
 4355              	.LASF27:
 4356 07f4 73797374 		.ascii	"systime_t\000"
 4356      696D655F 
 4356      7400
 4357              	.LASF46:
 4358 07fe 705F7265 		.ascii	"p_realprio\000"
 4358      616C7072 
 4358      696F00
 4359              	.LASF62:
 4360 0809 76746675 		.ascii	"vtfunc_t\000"
 4360      6E635F74 
 4360      00
 4361              	.LASF9:
 4362 0812 5F5F7569 		.ascii	"__uint32_t\000"
 4362      6E743332 
 4362      5F7400
 4363              	.LASF174:
 4364 081d 5F5F7365 		.ascii	"__set_BASEPRI\000"
 4364      745F4241 
 4364      53455052 
 4364      4900
 4365              	.LASF75:
 4366 082b 70616E69 		.ascii	"panic_msg\000"
 4366      635F6D73 
 4366      6700
 4367              	.LASF115:
 4368 0835 6F666673 		.ascii	"offset\000"
ARM GAS  C:\Users\IDONNO~1.SON\AppData\Local\Temp\ccGgURRx.s 			page 84


 4368      657400
 4369              	.LASF96:
 4370 083c 41504231 		.ascii	"APB1ENR\000"
 4370      454E5200 
 4371              	.LASF185:
 4372 0844 6963755F 		.ascii	"icu_lld_stop\000"
 4372      6C6C645F 
 4372      73746F70 
 4372      00
 4373              	.LASF113:
 4374 0851 636F6E74 		.ascii	"context\000"
 4374      65787400 
 4375              	.LASF60:
 4376 0859 725F6F6C 		.ascii	"r_older\000"
 4376      64657200 
 4377              	.LASF76:
 4378 0861 63685F73 		.ascii	"ch_system_t\000"
 4378      79737465 
 4378      6D5F7400 
 4379              	.LASF160:
 4380 086d 69637566 		.ascii	"icufreq_t\000"
 4380      7265715F 
 4380      7400
 4381              	.LASF18:
 4382 0877 7274636E 		.ascii	"rtcnt_t\000"
 4382      745F7400 
 4383              	.LASF69:
 4384 087f 76745F70 		.ascii	"vt_par\000"
 4384      617200
 4385              	.LASF16:
 4386 0886 75696E74 		.ascii	"uint32_t\000"
 4386      33325F74 
 4386      00
 4387              	.LASF108:
 4388 088f 53534347 		.ascii	"SSCGR\000"
 4388      5200
 4389              	.LASF52:
 4390 0895 74687265 		.ascii	"threads_queue_t\000"
 4390      6164735F 
 4390      71756575 
 4390      655F7400 
 4391              	.LASF127:
 4392 08a5 63685F6D 		.ascii	"ch_mutex\000"
 4392      75746578 
 4392      00
 4393              	.LASF38:
 4394 08ae 705F7265 		.ascii	"p_refs\000"
 4394      667300
 4395              	.LASF200:
 4396 08b5 6963755F 		.ascii	"icu_lld_wait_capture\000"
 4396      6C6C645F 
 4396      77616974 
 4396      5F636170 
 4396      74757265 
 4397              	.LASF106:
 4398 08ca 42444352 		.ascii	"BDCR\000"
 4398      00
ARM GAS  C:\Users\IDONNO~1.SON\AppData\Local\Temp\ccGgURRx.s 			page 85


 4399              	.LASF144:
 4400 08cf 4943555F 		.ascii	"ICU_UNINIT\000"
 4400      554E494E 
 4400      495400
 4401              	.LASF161:
 4402 08da 4943555F 		.ascii	"ICU_CHANNEL_1\000"
 4402      4348414E 
 4402      4E454C5F 
 4402      3100
 4403              	.LASF162:
 4404 08e8 4943555F 		.ascii	"ICU_CHANNEL_2\000"
 4404      4348414E 
 4404      4E454C5F 
 4404      3200
 4405              	.LASF14:
 4406 08f6 75696E74 		.ascii	"uint8_t\000"
 4406      385F7400 
 4407              	.LASF119:
 4408 08fe 77746F62 		.ascii	"wtobjp\000"
 4408      6A7000
 4409              	.LASF35:
 4410 0905 705F6E61 		.ascii	"p_name\000"
 4410      6D6500
 4411              	.LASF92:
 4412 090c 41484231 		.ascii	"AHB1ENR\000"
 4412      454E5200 
 4413              	.LASF84:
 4414 0914 43464752 		.ascii	"CFGR\000"
 4414      00
 4415              	.LASF19:
 4416 0919 746D6F64 		.ascii	"tmode_t\000"
 4416      655F7400 
 4417              	.LASF125:
 4418 0921 735F7175 		.ascii	"s_queue\000"
 4418      65756500 
 4419              	.LASF184:
 4420 0929 6963755F 		.ascii	"icu_lld_start\000"
 4420      6C6C645F 
 4420      73746172 
 4420      7400
 4421              	.LASF175:
 4422 0937 63685379 		.ascii	"chSysUnlock\000"
 4422      73556E6C 
 4422      6F636B00 
 4423              	.LASF43:
 4424 0943 705F6D73 		.ascii	"p_msg\000"
 4424      6700
 4425              	.LASF153:
 4426 0949 636C6F63 		.ascii	"clock\000"
 4426      6B00
 4427              	.LASF199:
 4428 094f 6963755F 		.ascii	"icu_lld_wait_edge\000"
 4428      6C6C645F 
 4428      77616974 
 4428      5F656467 
 4428      6500
 4429              	.LASF154:
ARM GAS  C:\Users\IDONNO~1.SON\AppData\Local\Temp\ccGgURRx.s 			page 86


 4430 0961 77636372 		.ascii	"wccrp\000"
 4430      7000
 4431              	.LASF132:
 4432 0967 6D757465 		.ascii	"mutex_t\000"
 4432      785F7400 
 4433              	.LASF129:
 4434 096f 6D5F6F77 		.ascii	"m_owner\000"
 4434      6E657200 
 4435              	.LASF180:
 4436 0977 72657375 		.ascii	"result\000"
 4436      6C7400
 4437              	.LASF32:
 4438 097e 705F6374 		.ascii	"p_ctx\000"
 4438      7800
 4439              	.LASF68:
 4440 0984 76745F66 		.ascii	"vt_func\000"
 4440      756E6300 
 4441              	.LASF170:
 4442 098c 64696572 		.ascii	"dier\000"
 4442      00
 4443              		.ident	"GCC: (GNU Tools for ARM Embedded Processors) 5.4.1 20160609 (release) [ARM/embedded-5-bran
ARM GAS  C:\Users\IDONNO~1.SON\AppData\Local\Temp\ccGgURRx.s 			page 87


DEFINED SYMBOLS
                            *ABS*:00000000 icu_lld.c
C:\Users\IDONNO~1.SON\AppData\Local\Temp\ccGgURRx.s:22     .text.icu_lld_wait_edge.isra.0:00000000 $t
C:\Users\IDONNO~1.SON\AppData\Local\Temp\ccGgURRx.s:27     .text.icu_lld_wait_edge.isra.0:00000000 icu_lld_wait_edge.isra.0
C:\Users\IDONNO~1.SON\AppData\Local\Temp\ccGgURRx.s:110    .text.VectorB4:00000000 $t
C:\Users\IDONNO~1.SON\AppData\Local\Temp\ccGgURRx.s:116    .text.VectorB4:00000000 VectorB4
C:\Users\IDONNO~1.SON\AppData\Local\Temp\ccGgURRx.s:264    .text.VectorB4:00000098 $d
C:\Users\IDONNO~1.SON\AppData\Local\Temp\ccGgURRx.s:271    .text.icu_lld_init:00000000 $t
C:\Users\IDONNO~1.SON\AppData\Local\Temp\ccGgURRx.s:277    .text.icu_lld_init:00000000 icu_lld_init
C:\Users\IDONNO~1.SON\AppData\Local\Temp\ccGgURRx.s:299    .text.icu_lld_init:00000010 $d
C:\Users\IDONNO~1.SON\AppData\Local\Temp\ccGgURRx.s:305    .text.icu_lld_start:00000000 $t
C:\Users\IDONNO~1.SON\AppData\Local\Temp\ccGgURRx.s:311    .text.icu_lld_start:00000000 icu_lld_start
C:\Users\IDONNO~1.SON\AppData\Local\Temp\ccGgURRx.s:482    .text.icu_lld_start:000000b0 $d
C:\Users\IDONNO~1.SON\AppData\Local\Temp\ccGgURRx.s:489    .text.icu_lld_stop:00000000 $t
C:\Users\IDONNO~1.SON\AppData\Local\Temp\ccGgURRx.s:495    .text.icu_lld_stop:00000000 icu_lld_stop
C:\Users\IDONNO~1.SON\AppData\Local\Temp\ccGgURRx.s:545    .text.icu_lld_stop:0000002c $d
C:\Users\IDONNO~1.SON\AppData\Local\Temp\ccGgURRx.s:551    .text.icu_lld_start_capture:00000000 $t
C:\Users\IDONNO~1.SON\AppData\Local\Temp\ccGgURRx.s:557    .text.icu_lld_start_capture:00000000 icu_lld_start_capture
C:\Users\IDONNO~1.SON\AppData\Local\Temp\ccGgURRx.s:586    .text.icu_lld_wait_capture:00000000 $t
C:\Users\IDONNO~1.SON\AppData\Local\Temp\ccGgURRx.s:592    .text.icu_lld_wait_capture:00000000 icu_lld_wait_capture
C:\Users\IDONNO~1.SON\AppData\Local\Temp\ccGgURRx.s:644    .text.icu_lld_stop_capture:00000000 $t
C:\Users\IDONNO~1.SON\AppData\Local\Temp\ccGgURRx.s:650    .text.icu_lld_stop_capture:00000000 icu_lld_stop_capture
C:\Users\IDONNO~1.SON\AppData\Local\Temp\ccGgURRx.s:671    .text.icu_lld_enable_notifications:00000000 $t
C:\Users\IDONNO~1.SON\AppData\Local\Temp\ccGgURRx.s:677    .text.icu_lld_enable_notifications:00000000 icu_lld_enable_notifications
C:\Users\IDONNO~1.SON\AppData\Local\Temp\ccGgURRx.s:751    .text.icu_lld_disable_notifications:00000000 $t
C:\Users\IDONNO~1.SON\AppData\Local\Temp\ccGgURRx.s:757    .text.icu_lld_disable_notifications:00000000 icu_lld_disable_notifications
C:\Users\IDONNO~1.SON\AppData\Local\Temp\ccGgURRx.s:780    .bss.ICUD3:00000000 ICUD3
C:\Users\IDONNO~1.SON\AppData\Local\Temp\ccGgURRx.s:776    .bss.ICUD3:00000000 $d
                     .debug_frame:00000010 $d

UNDEFINED SYMBOLS
_port_irq_epilogue
icuObjectInit
nvicEnableVector
nvicDisableVector
