ARM GAS  C:\Users\IDONNO~1\AppData\Local\Temp\ccxzbrVc.s 			page 1


   1              		.syntax unified
   2              		.cpu cortex-m4
   3              		.eabi_attribute 27, 1
   4              		.eabi_attribute 28, 1
   5              		.fpu fpv4-sp-d16
   6              		.eabi_attribute 20, 1
   7              		.eabi_attribute 21, 1
   8              		.eabi_attribute 23, 3
   9              		.eabi_attribute 24, 1
  10              		.eabi_attribute 25, 1
  11              		.eabi_attribute 26, 1
  12              		.eabi_attribute 30, 2
  13              		.eabi_attribute 34, 1
  14              		.eabi_attribute 18, 4
  15              		.thumb
  16              		.syntax unified
  17              		.file	"icu_lld.c"
  18              		.text
  19              	.Ltext0:
  20              		.cfi_sections	.debug_frame
  21              		.section	.text.icu_lld_wait_edge.isra.0,"ax",%progbits
  22              		.align	2
  23              		.p2align 4,,15
  24              		.thumb
  25              		.thumb_func
  26              		.type	icu_lld_wait_edge.isra.0, %function
  27              	icu_lld_wait_edge.isra.0:
  28              	.LFB267:
  29              		.file 1 "lib/ChibiOS_3.0.2/os/hal/ports/STM32/LLD/TIMv1/icu_lld.c"
  30              		.loc 1 105 0
  31              		.cfi_startproc
  32              		@ args = 0, pretend = 0, frame = 0
  33              		@ frame_needed = 0, uses_anonymous_args = 0
  34              		@ link register save eliminated.
  35              	.LVL0:
  36              	.LBB33:
  37              	.LBB34:
  38              	.LBB35:
  39              	.LBB36:
  40              	.LBB37:
  41              		.file 2 "lib/ChibiOS_3.0.2/os/ext/CMSIS/include/core_cmFunc.h"
  42              		.loc 2 546 0
  43 0000 0023     		movs	r3, #0
  44              		.syntax unified
  45              	@ 546 "lib/ChibiOS_3.0.2/os/ext/CMSIS/include/core_cmFunc.h" 1
  46 0002 83F31188 		MSR basepri, r3
  47              	@ 0 "" 2
  48              	.LVL1:
  49              		.thumb
  50              		.syntax unified
  51              	.LBE37:
  52              	.LBE36:
  53              	.LBE35:
  54              	.LBE34:
  55              	.LBE33:
  56              		.loc 1 114 0
  57 0006 0368     		ldr	r3, [r0]
ARM GAS  C:\Users\IDONNO~1\AppData\Local\Temp\ccxzbrVc.s 			page 2


  58 0008 1B7D     		ldrb	r3, [r3, #20]	@ zero_extendqisi2
  59 000a 73B9     		cbnz	r3, .L2
  60 000c 0B68     		ldr	r3, [r1]
  61              	.L3:
  62              		.loc 1 116 0
  63 000e 1869     		ldr	r0, [r3, #16]
  64              	.LVL2:
  65 0010 8207     		lsls	r2, r0, #30
  66 0012 FCD0     		beq	.L3
  67              	.L4:
  68              	.LVL3:
  69              	.LBB38:
  70              	.LBB39:
  71              	.LBB40:
  72              	.LBB41:
  73              		.loc 2 546 0
  74 0014 2023     		movs	r3, #32
  75              		.syntax unified
  76              	@ 546 "lib/ChibiOS_3.0.2/os/ext/CMSIS/include/core_cmFunc.h" 1
  77 0016 83F31188 		MSR basepri, r3
  78              	@ 0 "" 2
  79              	.LVL4:
  80              		.thumb
  81              		.syntax unified
  82              	.LBE41:
  83              	.LBE40:
  84              	.LBE39:
  85              	.LBE38:
  86              		.loc 1 134 0
  87 001a 0A68     		ldr	r2, [r1]
  88 001c 1369     		ldr	r3, [r2, #16]
  89 001e 23F00703 		bic	r3, r3, #7
  90              		.loc 1 139 0
  91 0022 00F00100 		and	r0, r0, #1
  92              	.LVL5:
  93              		.loc 1 134 0
  94 0026 1361     		str	r3, [r2, #16]
  95              		.loc 1 139 0
  96 0028 7047     		bx	lr
  97              	.L2:
  98 002a 0B68     		ldr	r3, [r1]
  99              	.L5:
 100              		.loc 1 122 0
 101 002c 1869     		ldr	r0, [r3, #16]
 102              	.LVL6:
 103 002e 10F0050F 		tst	r0, #5
 104 0032 FBD0     		beq	.L5
 105 0034 EEE7     		b	.L4
 106              		.cfi_endproc
 107              	.LFE267:
 108              		.size	icu_lld_wait_edge.isra.0, .-icu_lld_wait_edge.isra.0
 109 0036 00BF     		.section	.text.VectorB4,"ax",%progbits
 110              		.align	2
 111              		.p2align 4,,15
 112              		.global	VectorB4
 113              		.thumb
 114              		.thumb_func
ARM GAS  C:\Users\IDONNO~1\AppData\Local\Temp\ccxzbrVc.s 			page 3


 115              		.type	VectorB4, %function
 116              	VectorB4:
 117              	.LFB258:
 118              		.loc 1 248 0
 119              		.cfi_startproc
 120              		@ args = 0, pretend = 0, frame = 0
 121              		@ frame_needed = 0, uses_anonymous_args = 0
 122              	.LVL7:
 123 0000 38B5     		push	{r3, r4, r5, lr}
 124              		.cfi_def_cfa_offset 16
 125              		.cfi_offset 3, -16
 126              		.cfi_offset 4, -12
 127              		.cfi_offset 5, -8
 128              		.cfi_offset 14, -4
 129              	.LBB44:
 130              	.LBB45:
 131              		.loc 1 149 0
 132 0002 254D     		ldr	r5, .L55
 133 0004 EB68     		ldr	r3, [r5, #12]
 134              		.loc 1 152 0
 135 0006 6968     		ldr	r1, [r5, #4]
 136              		.loc 1 149 0
 137 0008 1C69     		ldr	r4, [r3, #16]
 138              	.LVL8:
 139              		.loc 1 150 0
 140 000a DA68     		ldr	r2, [r3, #12]
 141              		.loc 1 152 0
 142 000c 087D     		ldrb	r0, [r1, #20]	@ zero_extendqisi2
 143 000e 1440     		ands	r4, r4, r2
 144              	.LVL9:
 145              		.loc 1 151 0
 146 0010 E2B2     		uxtb	r2, r4
 147 0012 D243     		mvns	r2, r2
 148 0014 1A61     		str	r2, [r3, #16]
 149              		.loc 1 152 0
 150 0016 90B9     		cbnz	r0, .L12
 151              		.loc 1 153 0
 152 0018 6007     		lsls	r0, r4, #29
 153 001a 2FD5     		bpl	.L13
 154              		.loc 1 154 0
 155 001c 2B78     		ldrb	r3, [r5]	@ zero_extendqisi2
 156 001e 042B     		cmp	r3, #4
 157 0020 28D0     		beq	.L52
 158              		.loc 1 155 0
 159 0022 A107     		lsls	r1, r4, #30
 160 0024 12D4     		bmi	.L19
 161              	.L17:
 162              		.loc 1 164 0
 163 0026 E407     		lsls	r4, r4, #31
 164              	.LVL10:
 165 0028 05D5     		bpl	.L25
 166              		.loc 1 165 0
 167 002a 6B68     		ldr	r3, [r5, #4]
 168 002c 1A48     		ldr	r0, .L55
 169 002e 1B69     		ldr	r3, [r3, #16]
 170 0030 9847     		blx	r3
 171              	.LVL11:
ARM GAS  C:\Users\IDONNO~1\AppData\Local\Temp\ccxzbrVc.s 			page 4


 172 0032 0323     		movs	r3, #3
 173 0034 2B70     		strb	r3, [r5]
 174              	.L25:
 175              	.LVL12:
 176              	.LBE45:
 177              	.LBE44:
 178              		.loc 1 255 0
 179 0036 BDE83840 		pop	{r3, r4, r5, lr}
 180              		.cfi_remember_state
 181              		.cfi_restore 14
 182              		.cfi_restore 5
 183              		.cfi_restore 4
 184              		.cfi_restore 3
 185              		.cfi_def_cfa_offset 0
 186              		.loc 1 254 0
 187 003a FFF7FEBF 		b	_port_irq_epilogue
 188              	.LVL13:
 189              	.L12:
 190              		.cfi_restore_state
 191              	.LBB47:
 192              	.LBB46:
 193              		.loc 1 159 0
 194 003e A207     		lsls	r2, r4, #30
 195 0040 0BD5     		bpl	.L21
 196              		.loc 1 160 0
 197 0042 2B78     		ldrb	r3, [r5]	@ zero_extendqisi2
 198 0044 042B     		cmp	r3, #4
 199 0046 04D0     		beq	.L53
 200              		.loc 1 161 0
 201 0048 6307     		lsls	r3, r4, #29
 202 004a ECD5     		bpl	.L17
 203              	.L19:
 204              		.loc 1 156 0
 205 004c 0423     		movs	r3, #4
 206 004e 2B70     		strb	r3, [r5]
 207 0050 E9E7     		b	.L17
 208              	.L53:
 209              		.loc 1 160 0
 210 0052 8B68     		ldr	r3, [r1, #8]
 211 0054 E3B1     		cbz	r3, .L23
 212 0056 2846     		mov	r0, r5
 213 0058 9847     		blx	r3
 214              	.LVL14:
 215              	.L21:
 216              		.loc 1 161 0
 217 005a 6307     		lsls	r3, r4, #29
 218 005c E3D5     		bpl	.L17
 219              		.loc 1 156 0
 220 005e 2B78     		ldrb	r3, [r5]	@ zero_extendqisi2
 221 0060 0D4A     		ldr	r2, .L55
 222 0062 042B     		cmp	r3, #4
 223 0064 F2D1     		bne	.L19
 224              	.L54:
 225 0066 5168     		ldr	r1, [r2, #4]
 226              	.L26:
 227 0068 CB68     		ldr	r3, [r1, #12]
 228 006a 002B     		cmp	r3, #0
ARM GAS  C:\Users\IDONNO~1\AppData\Local\Temp\ccxzbrVc.s 			page 5


 229 006c EED0     		beq	.L19
 230 006e 0A48     		ldr	r0, .L55
 231 0070 9847     		blx	r3
 232              	.LVL15:
 233 0072 EBE7     		b	.L19
 234              	.L52:
 235              		.loc 1 154 0
 236 0074 8B68     		ldr	r3, [r1, #8]
 237 0076 43B1     		cbz	r3, .L15
 238 0078 2846     		mov	r0, r5
 239 007a 9847     		blx	r3
 240              	.LVL16:
 241              	.L13:
 242              		.loc 1 155 0
 243 007c A107     		lsls	r1, r4, #30
 244 007e D2D5     		bpl	.L17
 245              		.loc 1 156 0
 246 0080 2B78     		ldrb	r3, [r5]	@ zero_extendqisi2
 247 0082 054A     		ldr	r2, .L55
 248 0084 042B     		cmp	r3, #4
 249 0086 E1D1     		bne	.L19
 250 0088 EDE7     		b	.L54
 251              	.L15:
 252              		.loc 1 155 0
 253 008a A007     		lsls	r0, r4, #30
 254 008c ECD4     		bmi	.L26
 255 008e CAE7     		b	.L17
 256              	.L23:
 257              		.loc 1 161 0
 258 0090 6207     		lsls	r2, r4, #29
 259 0092 E9D4     		bmi	.L26
 260 0094 C7E7     		b	.L17
 261              	.L56:
 262 0096 00BF     		.align	2
 263              	.L55:
 264 0098 00000000 		.word	.LANCHOR0
 265              	.LBE46:
 266              	.LBE47:
 267              		.cfi_endproc
 268              	.LFE258:
 269              		.size	VectorB4, .-VectorB4
 270              		.section	.text.icu_lld_init,"ax",%progbits
 271              		.align	2
 272              		.p2align 4,,15
 273              		.global	icu_lld_init
 274              		.thumb
 275              		.thumb_func
 276              		.type	icu_lld_init, %function
 277              	icu_lld_init:
 278              	.LFB259:
 279              		.loc 1 375 0
 280              		.cfi_startproc
 281              		@ args = 0, pretend = 0, frame = 0
 282              		@ frame_needed = 0, uses_anonymous_args = 0
 283 0000 10B5     		push	{r4, lr}
 284              		.cfi_def_cfa_offset 8
 285              		.cfi_offset 4, -8
ARM GAS  C:\Users\IDONNO~1\AppData\Local\Temp\ccxzbrVc.s 			page 6


 286              		.cfi_offset 14, -4
 287              		.loc 1 391 0
 288 0002 034C     		ldr	r4, .L59
 289 0004 2046     		mov	r0, r4
 290 0006 FFF7FEFF 		bl	icuObjectInit
 291              	.LVL17:
 292              		.loc 1 392 0
 293 000a 024B     		ldr	r3, .L59+4
 294 000c E360     		str	r3, [r4, #12]
 295 000e 10BD     		pop	{r4, pc}
 296              	.L60:
 297              		.align	2
 298              	.L59:
 299 0010 00000000 		.word	.LANCHOR0
 300 0014 00040040 		.word	1073742848
 301              		.cfi_endproc
 302              	.LFE259:
 303              		.size	icu_lld_init, .-icu_lld_init
 304              		.section	.text.icu_lld_start,"ax",%progbits
 305              		.align	2
 306              		.p2align 4,,15
 307              		.global	icu_lld_start
 308              		.thumb
 309              		.thumb_func
 310              		.type	icu_lld_start, %function
 311              	icu_lld_start:
 312              	.LFB260:
 313              		.loc 1 427 0
 314              		.cfi_startproc
 315              		@ args = 0, pretend = 0, frame = 0
 316              		@ frame_needed = 0, uses_anonymous_args = 0
 317              	.LVL18:
 318 0000 F8B5     		push	{r3, r4, r5, r6, r7, lr}
 319              		.cfi_def_cfa_offset 24
 320              		.cfi_offset 3, -24
 321              		.cfi_offset 4, -20
 322              		.cfi_offset 5, -16
 323              		.cfi_offset 6, -12
 324              		.cfi_offset 7, -8
 325              		.cfi_offset 14, -4
 326              		.loc 1 434 0
 327 0002 0378     		ldrb	r3, [r0]	@ zero_extendqisi2
 328 0004 012B     		cmp	r3, #1
 329              		.loc 1 427 0
 330 0006 0446     		mov	r4, r0
 331              		.loc 1 434 0
 332 0008 3AD0     		beq	.L73
 333              		.loc 1 505 0
 334 000a C368     		ldr	r3, [r0, #12]
 335 000c 0022     		movs	r2, #0
 336 000e 1A60     		str	r2, [r3]
 337              		.loc 1 506 0
 338 0010 5A63     		str	r2, [r3, #52]
 339              		.loc 1 507 0
 340 0012 9A63     		str	r2, [r3, #56]
 341              		.loc 1 508 0
 342 0014 5A62     		str	r2, [r3, #36]
ARM GAS  C:\Users\IDONNO~1\AppData\Local\Temp\ccxzbrVc.s 			page 7


 343              	.LVL19:
 344              	.L64:
 345              		.loc 1 513 0
 346 0016 6168     		ldr	r1, [r4, #4]
 347              		.loc 1 515 0
 348 0018 A268     		ldr	r2, [r4, #8]
 349              		.loc 1 513 0
 350 001a 8869     		ldr	r0, [r1, #24]
 351              		.loc 1 522 0
 352 001c 0D7D     		ldrb	r5, [r1, #20]	@ zero_extendqisi2
 353              		.loc 1 515 0
 354 001e 4E68     		ldr	r6, [r1, #4]
 355 0020 B2FBF6F2 		udiv	r2, r2, r6
 356              		.loc 1 513 0
 357 0024 20F0FF00 		bic	r0, r0, #255
 358              		.loc 1 515 0
 359 0028 013A     		subs	r2, r2, #1
 360              	.LVL20:
 361              		.loc 1 512 0
 362 002a 0027     		movs	r7, #0
 363              		.loc 1 520 0
 364 002c 4FF6FF76 		movw	r6, #65535
 365              		.loc 1 512 0
 366 0030 1F61     		str	r7, [r3, #16]
 367              		.loc 1 513 0
 368 0032 D860     		str	r0, [r3, #12]
 369              		.loc 1 519 0
 370 0034 9A62     		str	r2, [r3, #40]
 371              		.loc 1 520 0
 372 0036 DE62     		str	r6, [r3, #44]
 373              		.loc 1 535 0
 374 0038 0A78     		ldrb	r2, [r1]	@ zero_extendqisi2
 375              	.LVL21:
 376              		.loc 1 522 0
 377 003a 6DB9     		cbnz	r5, .L65
 378              		.loc 1 526 0
 379 003c 40F20120 		movw	r0, #513
 380              		.loc 1 530 0
 381 0040 5421     		movs	r1, #84
 382              	.LVL22:
 383              		.loc 1 526 0
 384 0042 9861     		str	r0, [r3, #24]
 385              		.loc 1 530 0
 386 0044 9960     		str	r1, [r3, #8]
 387              		.loc 1 535 0
 388 0046 C2B1     		cbz	r2, .L74
 389              		.loc 1 539 0
 390 0048 1322     		movs	r2, #19
 391 004a 1A62     		str	r2, [r3, #32]
 392              	.LVL23:
 393              	.L67:
 394              		.loc 1 544 0
 395 004c 03F13802 		add	r2, r3, #56
 396              		.loc 1 545 0
 397 0050 3433     		adds	r3, r3, #52
 398              		.loc 1 544 0
 399 0052 2261     		str	r2, [r4, #16]
ARM GAS  C:\Users\IDONNO~1\AppData\Local\Temp\ccxzbrVc.s 			page 8


 400              		.loc 1 545 0
 401 0054 6361     		str	r3, [r4, #20]
 402 0056 F8BD     		pop	{r3, r4, r5, r6, r7, pc}
 403              	.LVL24:
 404              	.L65:
 405              		.loc 1 551 0
 406 0058 4FF48170 		mov	r0, #258
 407              		.loc 1 555 0
 408 005c 6421     		movs	r1, #100
 409              	.LVL25:
 410              		.loc 1 551 0
 411 005e 9861     		str	r0, [r3, #24]
 412              		.loc 1 555 0
 413 0060 9960     		str	r1, [r3, #8]
 414              		.loc 1 560 0
 415 0062 3AB1     		cbz	r2, .L75
 416              		.loc 1 564 0
 417 0064 3122     		movs	r2, #49
 418 0066 1A62     		str	r2, [r3, #32]
 419              	.LVL26:
 420              	.L70:
 421              		.loc 1 569 0
 422 0068 03F13402 		add	r2, r3, #52
 423              		.loc 1 570 0
 424 006c 3833     		adds	r3, r3, #56
 425              		.loc 1 569 0
 426 006e 2261     		str	r2, [r4, #16]
 427              		.loc 1 570 0
 428 0070 6361     		str	r3, [r4, #20]
 429 0072 F8BD     		pop	{r3, r4, r5, r6, r7, pc}
 430              	.LVL27:
 431              	.L75:
 432              		.loc 1 561 0
 433 0074 1322     		movs	r2, #19
 434 0076 1A62     		str	r2, [r3, #32]
 435              	.LVL28:
 436 0078 F6E7     		b	.L70
 437              	.LVL29:
 438              	.L74:
 439              		.loc 1 536 0
 440 007a 3122     		movs	r2, #49
 441 007c 1A62     		str	r2, [r3, #32]
 442              	.LVL30:
 443 007e E5E7     		b	.L67
 444              	.LVL31:
 445              	.L73:
 446              		.loc 1 458 0
 447 0080 0B4B     		ldr	r3, .L77
 448 0082 9842     		cmp	r0, r3
 449 0084 01D0     		beq	.L76
 450              	.LVL32:
 451              	.L72:
 452 0086 E368     		ldr	r3, [r4, #12]
 453 0088 C5E7     		b	.L64
 454              	.LVL33:
 455              	.L76:
 456              		.loc 1 459 0
ARM GAS  C:\Users\IDONNO~1\AppData\Local\Temp\ccxzbrVc.s 			page 9


 457 008a 0A4B     		ldr	r3, .L77+4
 458 008c 1A6C     		ldr	r2, [r3, #64]
 459 008e 42F00202 		orr	r2, r2, #2
 460 0092 1A64     		str	r2, [r3, #64]
 461              		.loc 1 460 0
 462 0094 1A6A     		ldr	r2, [r3, #32]
 463 0096 0020     		movs	r0, #0
 464              	.LVL34:
 465 0098 42F00202 		orr	r2, r2, #2
 466 009c 1A62     		str	r2, [r3, #32]
 467              		.loc 1 461 0
 468 009e 0721     		movs	r1, #7
 469              		.loc 1 460 0
 470 00a0 1862     		str	r0, [r3, #32]
 471              		.loc 1 461 0
 472 00a2 1D20     		movs	r0, #29
 473 00a4 FFF7FEFF 		bl	nvicEnableVector
 474              	.LVL35:
 475              		.loc 1 462 0
 476 00a8 034B     		ldr	r3, .L77+8
 477 00aa A360     		str	r3, [r4, #8]
 478 00ac EBE7     		b	.L72
 479              	.L78:
 480 00ae 00BF     		.align	2
 481              	.L77:
 482 00b0 00000000 		.word	.LANCHOR0
 483 00b4 00380240 		.word	1073887232
 484 00b8 00BD0105 		.word	84000000
 485              		.cfi_endproc
 486              	.LFE260:
 487              		.size	icu_lld_start, .-icu_lld_start
 488              		.section	.text.icu_lld_stop,"ax",%progbits
 489              		.align	2
 490              		.p2align 4,,15
 491              		.global	icu_lld_stop
 492              		.thumb
 493              		.thumb_func
 494              		.type	icu_lld_stop, %function
 495              	icu_lld_stop:
 496              	.LFB261:
 497              		.loc 1 581 0
 498              		.cfi_startproc
 499              		@ args = 0, pretend = 0, frame = 0
 500              		@ frame_needed = 0, uses_anonymous_args = 0
 501              	.LVL36:
 502 0000 08B5     		push	{r3, lr}
 503              		.cfi_def_cfa_offset 8
 504              		.cfi_offset 3, -8
 505              		.cfi_offset 14, -4
 506              		.loc 1 583 0
 507 0002 0378     		ldrb	r3, [r0]	@ zero_extendqisi2
 508 0004 022B     		cmp	r3, #2
 509 0006 00D0     		beq	.L84
 510              	.LVL37:
 511              	.L79:
 512 0008 08BD     		pop	{r3, pc}
 513              	.LVL38:
ARM GAS  C:\Users\IDONNO~1\AppData\Local\Temp\ccxzbrVc.s 			page 10


 514              	.L84:
 515              		.loc 1 603 0
 516 000a 0849     		ldr	r1, .L85
 517              		.loc 1 585 0
 518 000c C368     		ldr	r3, [r0, #12]
 519 000e 0022     		movs	r2, #0
 520              		.loc 1 603 0
 521 0010 8842     		cmp	r0, r1
 522              		.loc 1 585 0
 523 0012 1A60     		str	r2, [r3]
 524              		.loc 1 586 0
 525 0014 DA60     		str	r2, [r3, #12]
 526              		.loc 1 587 0
 527 0016 1A61     		str	r2, [r3, #16]
 528              		.loc 1 603 0
 529 0018 F6D1     		bne	.L79
 530              		.loc 1 604 0
 531 001a 1D20     		movs	r0, #29
 532              	.LVL39:
 533 001c FFF7FEFF 		bl	nvicDisableVector
 534              	.LVL40:
 535              		.loc 1 605 0
 536 0020 034A     		ldr	r2, .L85+4
 537 0022 136C     		ldr	r3, [r2, #64]
 538 0024 23F00203 		bic	r3, r3, #2
 539 0028 1364     		str	r3, [r2, #64]
 540              		.loc 1 634 0
 541 002a EDE7     		b	.L79
 542              	.L86:
 543              		.align	2
 544              	.L85:
 545 002c 00000000 		.word	.LANCHOR0
 546 0030 00380240 		.word	1073887232
 547              		.cfi_endproc
 548              	.LFE261:
 549              		.size	icu_lld_stop, .-icu_lld_stop
 550              		.section	.text.icu_lld_start_capture,"ax",%progbits
 551              		.align	2
 552              		.p2align 4,,15
 553              		.global	icu_lld_start_capture
 554              		.thumb
 555              		.thumb_func
 556              		.type	icu_lld_start_capture, %function
 557              	icu_lld_start_capture:
 558              	.LFB262:
 559              		.loc 1 643 0
 560              		.cfi_startproc
 561              		@ args = 0, pretend = 0, frame = 0
 562              		@ frame_needed = 0, uses_anonymous_args = 0
 563              		@ link register save eliminated.
 564              	.LVL41:
 565              		.loc 1 646 0
 566 0000 C368     		ldr	r3, [r0, #12]
 567 0002 5A69     		ldr	r2, [r3, #20]
 568              		.loc 1 647 0
 569 0004 0020     		movs	r0, #0
 570              	.LVL42:
ARM GAS  C:\Users\IDONNO~1\AppData\Local\Temp\ccxzbrVc.s 			page 11


 571              		.loc 1 646 0
 572 0006 42F00102 		orr	r2, r2, #1
 573              		.loc 1 650 0
 574 000a 0521     		movs	r1, #5
 575              		.loc 1 646 0
 576 000c 5A61     		str	r2, [r3, #20]
 577              		.loc 1 647 0
 578 000e 1861     		str	r0, [r3, #16]
 579              		.loc 1 650 0
 580 0010 1960     		str	r1, [r3]
 581 0012 7047     		bx	lr
 582              		.cfi_endproc
 583              	.LFE262:
 584              		.size	icu_lld_start_capture, .-icu_lld_start_capture
 585              		.section	.text.icu_lld_wait_capture,"ax",%progbits
 586              		.align	2
 587              		.p2align 4,,15
 588              		.global	icu_lld_wait_capture
 589              		.thumb
 590              		.thumb_func
 591              		.type	icu_lld_wait_capture, %function
 592              	icu_lld_wait_capture:
 593              	.LFB263:
 594              		.loc 1 665 0
 595              		.cfi_startproc
 596              		@ args = 0, pretend = 0, frame = 0
 597              		@ frame_needed = 0, uses_anonymous_args = 0
 598              	.LVL43:
 599 0000 38B5     		push	{r3, r4, r5, lr}
 600              		.cfi_def_cfa_offset 16
 601              		.cfi_offset 3, -16
 602              		.cfi_offset 4, -12
 603              		.cfi_offset 5, -8
 604              		.cfi_offset 14, -4
 605              		.loc 1 669 0
 606 0002 0378     		ldrb	r3, [r0]	@ zero_extendqisi2
 607 0004 032B     		cmp	r3, #3
 608 0006 00F10C05 		add	r5, r0, #12
 609 000a 00F10404 		add	r4, r0, #4
 610 000e 05D0     		beq	.L89
 611              	.LVL44:
 612              	.L90:
 613              		.loc 1 674 0
 614 0010 2946     		mov	r1, r5
 615 0012 2046     		mov	r0, r4
 616              		.loc 1 675 0
 617 0014 BDE83840 		pop	{r3, r4, r5, lr}
 618              		.cfi_remember_state
 619              		.cfi_restore 14
 620              		.cfi_restore 5
 621              		.cfi_restore 4
 622              		.cfi_restore 3
 623              		.cfi_def_cfa_offset 0
 624              	.LVL45:
 625              		.loc 1 674 0
 626 0018 FFF7FEBF 		b	icu_lld_wait_edge.isra.0
 627              	.LVL46:
ARM GAS  C:\Users\IDONNO~1\AppData\Local\Temp\ccxzbrVc.s 			page 12


 628              	.L89:
 629              		.cfi_restore_state
 630              		.loc 1 670 0
 631 001c 2946     		mov	r1, r5
 632 001e 2046     		mov	r0, r4
 633              	.LVL47:
 634 0020 FFF7FEFF 		bl	icu_lld_wait_edge.isra.0
 635              	.LVL48:
 636 0024 0028     		cmp	r0, #0
 637 0026 F3D0     		beq	.L90
 638              		.loc 1 675 0
 639 0028 38BD     		pop	{r3, r4, r5, pc}
 640              		.cfi_endproc
 641              	.LFE263:
 642              		.size	icu_lld_wait_capture, .-icu_lld_wait_capture
 643 002a 00BF     		.section	.text.icu_lld_stop_capture,"ax",%progbits
 644              		.align	2
 645              		.p2align 4,,15
 646              		.global	icu_lld_stop_capture
 647              		.thumb
 648              		.thumb_func
 649              		.type	icu_lld_stop_capture, %function
 650              	icu_lld_stop_capture:
 651              	.LFB264:
 652              		.loc 1 684 0
 653              		.cfi_startproc
 654              		@ args = 0, pretend = 0, frame = 0
 655              		@ frame_needed = 0, uses_anonymous_args = 0
 656              		@ link register save eliminated.
 657              	.LVL49:
 658              		.loc 1 687 0
 659 0000 C368     		ldr	r3, [r0, #12]
 660 0002 0022     		movs	r2, #0
 661 0004 1A60     		str	r2, [r3]
 662              		.loc 1 690 0
 663 0006 DA68     		ldr	r2, [r3, #12]
 664 0008 22F0FF02 		bic	r2, r2, #255
 665 000c DA60     		str	r2, [r3, #12]
 666 000e 7047     		bx	lr
 667              		.cfi_endproc
 668              	.LFE264:
 669              		.size	icu_lld_stop_capture, .-icu_lld_stop_capture
 670              		.section	.text.icu_lld_enable_notifications,"ax",%progbits
 671              		.align	2
 672              		.p2align 4,,15
 673              		.global	icu_lld_enable_notifications
 674              		.thumb
 675              		.thumb_func
 676              		.type	icu_lld_enable_notifications, %function
 677              	icu_lld_enable_notifications:
 678              	.LFB265:
 679              		.loc 1 702 0
 680              		.cfi_startproc
 681              		@ args = 0, pretend = 0, frame = 0
 682              		@ frame_needed = 0, uses_anonymous_args = 0
 683              		@ link register save eliminated.
 684              	.LVL50:
ARM GAS  C:\Users\IDONNO~1\AppData\Local\Temp\ccxzbrVc.s 			page 13


 685              		.loc 1 703 0
 686 0000 C268     		ldr	r2, [r0, #12]
 687 0002 D368     		ldr	r3, [r2, #12]
 688              	.LVL51:
 689              		.loc 1 702 0
 690 0004 10B4     		push	{r4}
 691              		.cfi_def_cfa_offset 4
 692              		.cfi_offset 4, -4
 693              		.loc 1 708 0
 694 0006 13F0FF04 		ands	r4, r3, #255
 695 000a 0CD1     		bne	.L96
 696              		.loc 1 712 0
 697 000c 4168     		ldr	r1, [r0, #4]
 698              		.loc 1 710 0
 699 000e 1461     		str	r4, [r2, #16]
 700              		.loc 1 712 0
 701 0010 087D     		ldrb	r0, [r1, #20]	@ zero_extendqisi2
 702              	.LVL52:
 703 0012 58B1     		cbz	r0, .L107
 704              	.LVL53:
 705              		.loc 1 725 0
 706 0014 8868     		ldr	r0, [r1, #8]
 707 0016 78B1     		cbz	r0, .L108
 708              	.LVL54:
 709              	.L101:
 710              		.loc 1 726 0
 711 0018 43F00603 		orr	r3, r3, #6
 712              	.LVL55:
 713              	.L100:
 714              		.loc 1 731 0
 715 001c 0969     		ldr	r1, [r1, #16]
 716 001e 09B1     		cbz	r1, .L102
 717              		.loc 1 732 0
 718 0020 43F00103 		orr	r3, r3, #1
 719              	.LVL56:
 720              	.L102:
 721              		.loc 1 735 0
 722 0024 D360     		str	r3, [r2, #12]
 723              	.L96:
 724              		.loc 1 737 0
 725 0026 5DF8044B 		ldr	r4, [sp], #4
 726              		.cfi_remember_state
 727              		.cfi_restore 4
 728              		.cfi_def_cfa_offset 0
 729 002a 7047     		bx	lr
 730              	.L107:
 731              		.cfi_restore_state
 732              	.LVL57:
 733              		.loc 1 717 0
 734 002c 8868     		ldr	r0, [r1, #8]
 735 002e 0028     		cmp	r0, #0
 736 0030 F2D1     		bne	.L101
 737              		.loc 1 714 0
 738 0032 43F00203 		orr	r3, r3, #2
 739              	.LVL58:
 740 0036 F1E7     		b	.L100
 741              	.LVL59:
ARM GAS  C:\Users\IDONNO~1\AppData\Local\Temp\ccxzbrVc.s 			page 14


 742              	.L108:
 743              		.loc 1 722 0
 744 0038 43F00403 		orr	r3, r3, #4
 745              	.LVL60:
 746 003c EEE7     		b	.L100
 747              		.cfi_endproc
 748              	.LFE265:
 749              		.size	icu_lld_enable_notifications, .-icu_lld_enable_notifications
 750 003e 00BF     		.section	.text.icu_lld_disable_notifications,"ax",%progbits
 751              		.align	2
 752              		.p2align 4,,15
 753              		.global	icu_lld_disable_notifications
 754              		.thumb
 755              		.thumb_func
 756              		.type	icu_lld_disable_notifications, %function
 757              	icu_lld_disable_notifications:
 758              	.LFB266:
 759              		.loc 1 748 0
 760              		.cfi_startproc
 761              		@ args = 0, pretend = 0, frame = 0
 762              		@ frame_needed = 0, uses_anonymous_args = 0
 763              		@ link register save eliminated.
 764              	.LVL61:
 765              		.loc 1 751 0
 766 0000 C268     		ldr	r2, [r0, #12]
 767 0002 D368     		ldr	r3, [r2, #12]
 768 0004 23F0FF03 		bic	r3, r3, #255
 769 0008 D360     		str	r3, [r2, #12]
 770 000a 7047     		bx	lr
 771              		.cfi_endproc
 772              	.LFE266:
 773              		.size	icu_lld_disable_notifications, .-icu_lld_disable_notifications
 774              		.global	ICUD3
 775              		.section	.bss.ICUD3,"aw",%nobits
 776              		.align	2
 777              		.set	.LANCHOR0,. + 0
 778              		.type	ICUD3, %object
 779              		.size	ICUD3, 24
 780              	ICUD3:
 781 0000 00000000 		.space	24
 781      00000000 
 781      00000000 
 781      00000000 
 781      00000000 
 782              		.text
 783              	.Letext0:
 784              		.file 3 "c:\\program files (x86)\\gnu tools arm embedded\\5.2 2015q4\\lib\\gcc\\arm-none-eabi\\5.2
 785              		.file 4 "c:\\program files (x86)\\gnu tools arm embedded\\5.2 2015q4\\arm-none-eabi\\include\\mach
 786              		.file 5 "c:\\program files (x86)\\gnu tools arm embedded\\5.2 2015q4\\arm-none-eabi\\include\\sys\
 787              		.file 6 "lib/ChibiOS_3.0.2/os/rt/ports/ARMCMx/compilers/GCC/chtypes.h"
 788              		.file 7 "lib/ChibiOS_3.0.2/os/rt/include/chsystypes.h"
 789              		.file 8 "lib/ChibiOS_3.0.2/os/rt/include/chschd.h"
 790              		.file 9 "lib/ChibiOS_3.0.2/os/ext/CMSIS/ST/stm32f407xx.h"
 791              		.file 10 "lib/ChibiOS_3.0.2/os/rt/ports/ARMCMx/chcore.h"
 792              		.file 11 "lib/ChibiOS_3.0.2/os/rt/ports/ARMCMx/chcore_v7m.h"
 793              		.file 12 "lib/ChibiOS_3.0.2/os/rt/include/chtm.h"
 794              		.file 13 "lib/ChibiOS_3.0.2/os/rt/include/chsem.h"
ARM GAS  C:\Users\IDONNO~1\AppData\Local\Temp\ccxzbrVc.s 			page 15


 795              		.file 14 "lib/ChibiOS_3.0.2/os/rt/include/chmtx.h"
 796              		.file 15 "lib/ChibiOS_3.0.2/os/hal/ports/STM32/LLD/TIMv1/stm32_tim.h"
 797              		.file 16 "lib/ChibiOS_3.0.2/os/hal/include/icu.h"
 798              		.file 17 "lib/ChibiOS_3.0.2/os/hal/ports/STM32/LLD/TIMv1/icu_lld.h"
 799              		.file 18 "lib/ChibiOS_3.0.2/os/rt/include/chsys.h"
 800              		.file 19 "lib/ChibiOS_3.0.2/os/ext/CMSIS/include/core_cm4.h"
 801              		.file 20 "lib/ChibiOS_3.0.2/os/hal/ports/common/ARMCMx/nvic.h"