ARM GAS  C:\Users\IDONNO~1\AppData\Local\Temp\ccZLmvha.s 			page 1


   1              		.syntax unified
   2              		.cpu cortex-m4
   3              		.eabi_attribute 27, 1
   4              		.eabi_attribute 28, 1
   5              		.fpu fpv4-sp-d16
   6              		.eabi_attribute 20, 1
   7              		.eabi_attribute 21, 1
   8              		.eabi_attribute 23, 3
   9              		.eabi_attribute 24, 1
  10              		.eabi_attribute 25, 1
  11              		.eabi_attribute 26, 1
  12              		.eabi_attribute 30, 2
  13              		.eabi_attribute 34, 1
  14              		.eabi_attribute 18, 4
  15              		.thumb
  16              		.syntax unified
  17              		.file	"irq_handlers.c"
  18              		.text
  19              	.Ltext0:
  20              		.cfi_sections	.debug_frame
  21              		.section	.text.Vector11C,"ax",%progbits
  22              		.align	2
  23              		.p2align 4,,15
  24              		.global	Vector11C
  25              		.thumb
  26              		.thumb_func
  27              		.type	Vector11C, %function
  28              	Vector11C:
  29              	.LFB257:
  30              		.file 1 "src/core/irq_handlers.c"
  31              		.loc 1 27 0
  32              		.cfi_startproc
  33              		@ args = 0, pretend = 0, frame = 0
  34              		@ frame_needed = 0, uses_anonymous_args = 0
  35 0000 08B5     		push	{r3, lr}
  36              		.cfi_def_cfa_offset 8
  37              		.cfi_offset 3, -8
  38              		.cfi_offset 14, -4
  39              		.loc 1 29 0
  40 0002 0121     		movs	r1, #1
  41 0004 0348     		ldr	r0, .L3
  42 0006 FFF7FEFF 		bl	TIM_ClearITPendingBit
  43              	.LVL0:
  44              		.loc 1 32 0
  45 000a BDE80840 		pop	{r3, lr}
  46              		.cfi_restore 14
  47              		.cfi_restore 3
  48              		.cfi_def_cfa_offset 0
  49              		.loc 1 31 0
  50 000e FFF7FEBF 		b	_port_irq_epilogue
  51              	.LVL1:
  52              	.L4:
  53 0012 00BF     		.align	2
  54              	.L3:
  55 0014 00140040 		.word	1073746944
  56              		.cfi_endproc
  57              	.LFE257:
ARM GAS  C:\Users\IDONNO~1\AppData\Local\Temp\ccZLmvha.s 			page 2


  58              		.size	Vector11C, .-Vector11C
  59              		.section	.text.Vector88,"ax",%progbits
  60              		.align	2
  61              		.p2align 4,,15
  62              		.global	Vector88
  63              		.thumb
  64              		.thumb_func
  65              		.type	Vector88, %function
  66              	Vector88:
  67              	.LFB258:
  68              		.loc 1 34 0
  69              		.cfi_startproc
  70              		@ args = 0, pretend = 0, frame = 0
  71              		@ frame_needed = 0, uses_anonymous_args = 0
  72 0000 08B5     		push	{r3, lr}
  73              		.cfi_def_cfa_offset 8
  74              		.cfi_offset 3, -8
  75              		.cfi_offset 14, -4
  76              		.loc 1 36 0
  77 0002 40F20741 		movw	r1, #1031
  78 0006 0448     		ldr	r0, .L7
  79 0008 FFF7FEFF 		bl	ADC_ClearITPendingBit
  80              	.LVL2:
  81              		.loc 1 37 0
  82 000c FFF7FEFF 		bl	mcpwm_adc_inj_int_handler
  83              	.LVL3:
  84              		.loc 1 39 0
  85 0010 BDE80840 		pop	{r3, lr}
  86              		.cfi_restore 14
  87              		.cfi_restore 3
  88              		.cfi_def_cfa_offset 0
  89              		.loc 1 38 0
  90 0014 FFF7FEBF 		b	_port_irq_epilogue
  91              	.LVL4:
  92              	.L8:
  93              		.align	2
  94              	.L7:
  95 0018 00200140 		.word	1073815552
  96              		.cfi_endproc
  97              	.LFE258:
  98              		.size	Vector88, .-Vector88
  99              		.section	.text.VectorE0,"ax",%progbits
 100              		.align	2
 101              		.p2align 4,,15
 102              		.global	VectorE0
 103              		.thumb
 104              		.thumb_func
 105              		.type	VectorE0, %function
 106              	VectorE0:
 107              	.LFB259:
 108              		.loc 1 41 0
 109              		.cfi_startproc
 110              		@ args = 0, pretend = 0, frame = 0
 111              		@ frame_needed = 0, uses_anonymous_args = 0
 112 0000 08B5     		push	{r3, lr}
 113              		.cfi_def_cfa_offset 8
 114              		.cfi_offset 3, -8
ARM GAS  C:\Users\IDONNO~1\AppData\Local\Temp\ccZLmvha.s 			page 3


 115              		.cfi_offset 14, -4
 116              		.loc 1 42 0
 117 0002 4FF40060 		mov	r0, #2048
 118 0006 FFF7FEFF 		bl	EXTI_GetITStatus
 119              	.LVL5:
 120 000a 00B9     		cbnz	r0, .L13
 121 000c 08BD     		pop	{r3, pc}
 122              	.L13:
 123              		.loc 1 44 0
 124 000e 044B     		ldr	r3, .L14
 125 0010 0022     		movs	r2, #0
 126 0012 5A62     		str	r2, [r3, #36]
 127              		.loc 1 47 0
 128 0014 4FF40060 		mov	r0, #2048
 129              		.loc 1 49 0
 130 0018 BDE80840 		pop	{r3, lr}
 131              		.cfi_restore 14
 132              		.cfi_restore 3
 133              		.cfi_def_cfa_offset 0
 134              		.loc 1 47 0
 135 001c FFF7FEBF 		b	EXTI_ClearITPendingBit
 136              	.LVL6:
 137              	.L15:
 138              		.align	2
 139              	.L14:
 140 0020 00080040 		.word	1073743872
 141              		.cfi_endproc
 142              	.LFE259:
 143              		.size	VectorE0, .-VectorE0
 144              		.text
 145              	.Letext0:
 146              		.file 2 "c:\\program files (x86)\\gnu tools arm embedded\\5.2 2015q4\\arm-none-eabi\\include\\mach
 147              		.file 3 "c:\\program files (x86)\\gnu tools arm embedded\\5.2 2015q4\\arm-none-eabi\\include\\sys\
 148              		.file 4 "lib/ChibiOS_3.0.2/os/rt/ports/ARMCMx/compilers/GCC/chtypes.h"
 149              		.file 5 "lib/ChibiOS_3.0.2/os/rt/include/chsystypes.h"
 150              		.file 6 "lib/ChibiOS_3.0.2/os/rt/include/chschd.h"
 151              		.file 7 "lib/ChibiOS_3.0.2/os/ext/CMSIS/ST/stm32f407xx.h"
 152              		.file 8 "lib/ChibiOS_3.0.2/os/rt/ports/ARMCMx/chcore.h"
 153              		.file 9 "lib/ChibiOS_3.0.2/os/rt/ports/ARMCMx/chcore_v7m.h"
 154              		.file 10 "lib/ChibiOS_3.0.2/os/rt/include/chtm.h"
 155              		.file 11 "lib/ChibiOS_3.0.2/os/rt/include/chsem.h"
 156              		.file 12 "lib/ChibiOS_3.0.2/os/rt/include/chmtx.h"
 157              		.file 13 "lib/ChibiOS_3.0.2/ext/stdperiph_stm32f4/inc/stm32f4xx_tim.h"
 158              		.file 14 "lib/ChibiOS_3.0.2/ext/stdperiph_stm32f4/inc/stm32f4xx_adc.h"
 159              		.file 15 "src/bldc/mcpwm.h"
 160              		.file 16 "lib/ChibiOS_3.0.2/ext/stdperiph_stm32f4/inc/stm32f4xx_exti.h"
 161              		.file 17 "lib/ChibiOS_3.0.2/os/ext/CMSIS/ST/stm32f4xx.h"
 162              		.file 18 "lib/ChibiOS_3.0.2/os/ext/CMSIS/include/core_cm4.h"