ARM GAS  C:\Users\IDONNO~1\AppData\Local\Temp\cctCrHPd.s 			page 1


   1              		.syntax unified
   2              		.cpu cortex-m4
   3              		.eabi_attribute 27, 1
   4              		.eabi_attribute 28, 1
   5              		.fpu fpv4-sp-d16
   6              		.eabi_attribute 20, 1
   7              		.eabi_attribute 21, 1
   8              		.eabi_attribute 23, 3
   9              		.eabi_attribute 24, 1
  10              		.eabi_attribute 25, 1
  11              		.eabi_attribute 26, 1
  12              		.eabi_attribute 30, 2
  13              		.eabi_attribute 34, 1
  14              		.eabi_attribute 18, 4
  15              		.thumb
  16              		.syntax unified
  17              		.file	"main.cpp"
  18              		.text
  19              	.Ltext0:
  20              		.cfi_sections	.debug_frame
  21              		.section	.text._ZN5cTest5printEv,"ax",%progbits
  22              		.align	2
  23              		.p2align 4,,15
  24              		.global	_ZN5cTest5printEv
  25              		.thumb
  26              		.thumb_func
  27              		.type	_ZN5cTest5printEv, %function
  28              	_ZN5cTest5printEv:
  29              	.LFB256:
  30              		.file 1 "main.cpp"
  31              		.loc 1 25 0
  32              		.cfi_startproc
  33              		@ args = 0, pretend = 0, frame = 0
  34              		@ frame_needed = 0, uses_anonymous_args = 0
  35              		@ link register save eliminated.
  36              	.LVL0:
  37 0000 7047     		bx	lr
  38              		.cfi_endproc
  39              	.LFE256:
  40              		.size	_ZN5cTest5printEv, .-_ZN5cTest5printEv
  41 0002 00BF     		.section	.text.startup.main,"ax",%progbits
  42              		.align	2
  43              		.p2align 4,,15
  44              		.global	main
  45              		.thumb
  46              		.thumb_func
  47              		.type	main, %function
  48              	main:
  49              	.LFB257:
  50              		.loc 1 40 0
  51              		.cfi_startproc
  52              		@ args = 0, pretend = 0, frame = 0
  53              		@ frame_needed = 0, uses_anonymous_args = 0
  54              		.loc 1 40 0
  55 0000 08B5     		push	{r3, lr}
  56              		.cfi_def_cfa_offset 8
  57              		.cfi_offset 3, -8
ARM GAS  C:\Users\IDONNO~1\AppData\Local\Temp\cctCrHPd.s 			page 2


  58              		.cfi_offset 14, -4
  59              	.LBB6:
  60              	.LBB7:
  61              		.loc 1 65 0
  62 0002 FFF7FEFF 		bl	bldc_init
  63              	.LVL1:
  64              	.LBE7:
  65              	.LBE6:
  66              		.loc 1 47 0
  67 0006 FFF7FEFF 		bl	bldc_start
  68              	.LVL2:
  69              		.loc 1 51 0
  70 000a 0020     		movs	r0, #0
  71 000c 08BD     		pop	{r3, pc}
  72              		.cfi_endproc
  73              	.LFE257:
  74              		.size	main, .-main
  75 000e 00BF     		.section	.text._Z9main_initv,"ax",%progbits
  76              		.align	2
  77              		.p2align 4,,15
  78              		.global	_Z9main_initv
  79              		.thumb
  80              		.thumb_func
  81              		.type	_Z9main_initv, %function
  82              	_Z9main_initv:
  83              	.LFB258:
  84              		.loc 1 64 0
  85              		.cfi_startproc
  86              		@ args = 0, pretend = 0, frame = 0
  87              		@ frame_needed = 0, uses_anonymous_args = 0
  88              		@ link register save eliminated.
  89              		.loc 1 65 0
  90 0000 FFF7FEBF 		b	bldc_init
  91              	.LVL3:
  92              		.cfi_endproc
  93              	.LFE258:
  94              		.size	_Z9main_initv, .-_Z9main_initv
  95              		.global	test
  96              		.section	.bss.test,"aw",%nobits
  97              		.align	2
  98              		.type	test, %object
  99              		.size	test, 1
 100              	test:
 101 0000 00       		.space	1
 102              		.text
 103              	.Letext0:
 104              		.file 2 "c:\\program files (x86)\\gnu tools arm embedded\\5.2 2015q4\\arm-none-eabi\\include\\mach
 105              		.file 3 "c:\\program files (x86)\\gnu tools arm embedded\\5.2 2015q4\\arm-none-eabi\\include\\sys\
 106              		.file 4 "c:\\program files (x86)\\gnu tools arm embedded\\5.2 2015q4\\lib\\gcc\\arm-none-eabi\\5.2
 107              		.file 5 "lib/ChibiOS_3.0.2/os/rt/ports/ARMCMx/compilers/GCC/chtypes.h"
 108              		.file 6 "lib/ChibiOS_3.0.2/os/rt/include/chsystypes.h"
 109              		.file 7 "lib/ChibiOS_3.0.2/os/rt/include/chschd.h"
 110              		.file 8 "lib/ChibiOS_3.0.2/os/ext/CMSIS/ST/stm32f4xx.h"
 111              		.file 9 "lib/ChibiOS_3.0.2/os/rt/ports/ARMCMx/chcore.h"
 112              		.file 10 "lib/ChibiOS_3.0.2/os/rt/ports/ARMCMx/chcore_v7m.h"
 113              		.file 11 "lib/ChibiOS_3.0.2/os/rt/include/chtm.h"
 114              		.file 12 "lib/ChibiOS_3.0.2/os/rt/include/chsem.h"
ARM GAS  C:\Users\IDONNO~1\AppData\Local\Temp\cctCrHPd.s 			page 3


 115              		.file 13 "lib/ChibiOS_3.0.2/os/rt/include/chmtx.h"
 116              		.file 14 "lib/ChibiOS_3.0.2/os/ext/CMSIS/include/core_cm4.h"
 117              		.file 15 "src/bldc/bldc.h"