ARM GAS  C:\Users\IDONNO~1\AppData\Local\Temp\ccu5KOQd.s 			page 1


   1              		.syntax unified
   2              		.cpu cortex-m4
   3              		.eabi_attribute 27, 1
   4              		.eabi_attribute 28, 1
   5              		.fpu fpv4-sp-d16
   6              		.eabi_attribute 20, 1
   7              		.eabi_attribute 21, 1
   8              		.eabi_attribute 23, 3
   9              		.eabi_attribute 24, 1
  10              		.eabi_attribute 25, 1
  11              		.eabi_attribute 26, 1
  12              		.eabi_attribute 30, 2
  13              		.eabi_attribute 34, 1
  14              		.eabi_attribute 18, 4
  15              		.thumb
  16              		.syntax unified
  17              		.file	"main.cpp"
  18              		.text
  19              	.Ltext0:
  20              		.cfi_sections	.debug_frame
  21              		.section	.text._ZN5cTest5printEv,"ax",%progbits
  22              		.align	2
  23              		.p2align 4,,15
  24              		.global	_ZN5cTest5printEv
  25              		.thumb
  26              		.thumb_func
  27              		.type	_ZN5cTest5printEv, %function
  28              	_ZN5cTest5printEv:
  29              	.LFB257:
  30              		.file 1 "main.cpp"
  31              		.loc 1 33 0
  32              		.cfi_startproc
  33              		@ args = 0, pretend = 0, frame = 0
  34              		@ frame_needed = 0, uses_anonymous_args = 0
  35              		@ link register save eliminated.
  36              	.LVL0:
  37 0000 7047     		bx	lr
  38              		.cfi_endproc
  39              	.LFE257:
  40              		.size	_ZN5cTest5printEv, .-_ZN5cTest5printEv
  41 0002 00BF     		.section	.text.startup.main,"ax",%progbits
  42              		.align	2
  43              		.p2align 4,,15
  44              		.global	main
  45              		.thumb
  46              		.thumb_func
  47              		.type	main, %function
  48              	main:
  49              	.LFB258:
  50              		.loc 1 48 0
  51              		.cfi_startproc
  52              		@ Volatile: function does not return.
  53              		@ args = 0, pretend = 0, frame = 0
  54              		@ frame_needed = 0, uses_anonymous_args = 0
  55              		.loc 1 48 0
  56 0000 08B5     		push	{r3, lr}
  57              		.cfi_def_cfa_offset 8
ARM GAS  C:\Users\IDONNO~1\AppData\Local\Temp\ccu5KOQd.s 			page 2


  58              		.cfi_offset 3, -8
  59              		.cfi_offset 14, -4
  60              		.loc 1 52 0
  61 0002 FFF7FEFF 		bl	bldc_init
  62              	.LVL1:
  63              		.loc 1 54 0
  64 0006 FFF7FEFF 		bl	app_init
  65              	.LVL2:
  66              		.loc 1 56 0
  67 000a FFF7FEFF 		bl	timeout_init
  68              	.LVL3:
  69              		.loc 1 57 0
  70 000e 4FF47A70 		mov	r0, #1000
  71 0012 FFF7FEFF 		bl	timeout_configure
  72              	.LVL4:
  73              		.loc 1 59 0
  74 0016 FFF7FEFF 		bl	comm_can_init
  75              	.LVL5:
  76              	.L3:
  77              		.loc 1 66 0 discriminator 1
  78 001a 6420     		movs	r0, #100
  79 001c FFF7FEFF 		bl	chThdSleep
  80              	.LVL6:
  81 0020 FBE7     		b	.L3
  82              		.cfi_endproc
  83              	.LFE258:
  84              		.size	main, .-main
  85              		.global	test
  86 0022 00BF     		.section	.bss.test,"aw",%nobits
  87              		.align	2
  88              		.type	test, %object
  89              		.size	test, 1
  90              	test:
  91 0000 00       		.space	1
  92              		.text
  93              	.Letext0:
  94              		.file 2 "c:\\program files (x86)\\gnu tools arm embedded\\5.4 2016q3\\lib\\gcc\\arm-none-eabi\\5.4
  95              		.file 3 "c:\\program files (x86)\\gnu tools arm embedded\\5.4 2016q3\\arm-none-eabi\\include\\mach
  96              		.file 4 "c:\\program files (x86)\\gnu tools arm embedded\\5.4 2016q3\\arm-none-eabi\\include\\sys\
  97              		.file 5 "lib/ChibiOS_3.0.2/os/rt/ports/ARMCMx/compilers/GCC/chtypes.h"
  98              		.file 6 "lib/ChibiOS_3.0.2/os/rt/include/chsystypes.h"
  99              		.file 7 "lib/ChibiOS_3.0.2/os/rt/include/chschd.h"
 100              		.file 8 "lib/ChibiOS_3.0.2/os/ext/CMSIS/ST/stm32f4xx.h"
 101              		.file 9 "lib/ChibiOS_3.0.2/os/rt/ports/ARMCMx/chcore.h"
 102              		.file 10 "lib/ChibiOS_3.0.2/os/rt/ports/ARMCMx/chcore_v7m.h"
 103              		.file 11 "lib/ChibiOS_3.0.2/os/rt/include/chtm.h"
 104              		.file 12 "lib/ChibiOS_3.0.2/os/rt/include/chsem.h"
 105              		.file 13 "lib/ChibiOS_3.0.2/os/rt/include/chmtx.h"
 106              		.file 14 "lib/ChibiOS_3.0.2/os/ext/CMSIS/include/core_cm4.h"
 107              		.file 15 "src/bldc/bldc.h"
 108              		.file 16 "src/app/app.h"
 109              		.file 17 "src/core/timeout.h"
 110              		.file 18 "src/core/comm_can.h"
 111              		.file 19 "lib/ChibiOS_3.0.2/os/rt/include/chthreads.h"
 112              		.section	.debug_info,"",%progbits
 113              	.Ldebug_info0:
 114 0000 E0080000 		.4byte	0x8e0
ARM GAS  C:\Users\IDONNO~1\AppData\Local\Temp\ccu5KOQd.s 			page 3


 115 0004 0400     		.2byte	0x4
 116 0006 00000000 		.4byte	.Ldebug_abbrev0
 117 000a 04       		.byte	0x4
 118 000b 01       		.uleb128 0x1
 119 000c 26050000 		.4byte	.LASF128
 120 0010 04       		.byte	0x4
 121 0011 DC030000 		.4byte	.LASF129
 122 0015 62000000 		.4byte	.LASF130
 123 0019 00000000 		.4byte	.Ldebug_ranges0+0
 124 001d 00000000 		.4byte	0
 125 0021 00000000 		.4byte	.Ldebug_line0
 126 0025 02       		.uleb128 0x2
 127 0026 04       		.byte	0x4
 128 0027 05       		.byte	0x5
 129 0028 696E7400 		.ascii	"int\000"
 130 002c 03       		.uleb128 0x3
 131 002d 1B000000 		.4byte	.LASF2
 132 0031 02       		.byte	0x2
 133 0032 D8       		.byte	0xd8
 134 0033 37000000 		.4byte	0x37
 135 0037 04       		.uleb128 0x4
 136 0038 04       		.byte	0x4
 137 0039 07       		.byte	0x7
 138 003a E4010000 		.4byte	.LASF0
 139 003e 04       		.uleb128 0x4
 140 003f 01       		.byte	0x1
 141 0040 06       		.byte	0x6
 142 0041 00010000 		.4byte	.LASF1
 143 0045 03       		.uleb128 0x3
 144 0046 3D000000 		.4byte	.LASF3
 145 004a 03       		.byte	0x3
 146 004b 1D       		.byte	0x1d
 147 004c 50000000 		.4byte	0x50
 148 0050 04       		.uleb128 0x4
 149 0051 01       		.byte	0x1
 150 0052 08       		.byte	0x8
 151 0053 B2030000 		.4byte	.LASF4
 152 0057 04       		.uleb128 0x4
 153 0058 02       		.byte	0x2
 154 0059 05       		.byte	0x5
 155 005a CA030000 		.4byte	.LASF5
 156 005e 04       		.uleb128 0x4
 157 005f 02       		.byte	0x2
 158 0060 07       		.byte	0x7
 159 0061 2F020000 		.4byte	.LASF6
 160 0065 03       		.uleb128 0x3
 161 0066 92020000 		.4byte	.LASF7
 162 006a 03       		.byte	0x3
 163 006b 3F       		.byte	0x3f
 164 006c 70000000 		.4byte	0x70
 165 0070 04       		.uleb128 0x4
 166 0071 04       		.byte	0x4
 167 0072 05       		.byte	0x5
 168 0073 5C010000 		.4byte	.LASF8
 169 0077 03       		.uleb128 0x3
 170 0078 C0040000 		.4byte	.LASF9
 171 007c 03       		.byte	0x3
ARM GAS  C:\Users\IDONNO~1\AppData\Local\Temp\ccu5KOQd.s 			page 4


 172 007d 41       		.byte	0x41
 173 007e 82000000 		.4byte	0x82
 174 0082 04       		.uleb128 0x4
 175 0083 04       		.byte	0x4
 176 0084 07       		.byte	0x7
 177 0085 0C010000 		.4byte	.LASF10
 178 0089 04       		.uleb128 0x4
 179 008a 08       		.byte	0x8
 180 008b 05       		.byte	0x5
 181 008c F2000000 		.4byte	.LASF11
 182 0090 03       		.uleb128 0x3
 183 0091 5C030000 		.4byte	.LASF12
 184 0095 03       		.byte	0x3
 185 0096 5B       		.byte	0x5b
 186 0097 9B000000 		.4byte	0x9b
 187 009b 04       		.uleb128 0x4
 188 009c 08       		.byte	0x8
 189 009d 07       		.byte	0x7
 190 009e 86000000 		.4byte	.LASF13
 191 00a2 03       		.uleb128 0x3
 192 00a3 16050000 		.4byte	.LASF14
 193 00a7 04       		.byte	0x4
 194 00a8 18       		.byte	0x18
 195 00a9 45000000 		.4byte	0x45
 196 00ad 03       		.uleb128 0x3
 197 00ae AA030000 		.4byte	.LASF15
 198 00b2 04       		.byte	0x4
 199 00b3 2C       		.byte	0x2c
 200 00b4 65000000 		.4byte	0x65
 201 00b8 03       		.uleb128 0x3
 202 00b9 3B040000 		.4byte	.LASF16
 203 00bd 04       		.byte	0x4
 204 00be 30       		.byte	0x30
 205 00bf 77000000 		.4byte	0x77
 206 00c3 03       		.uleb128 0x3
 207 00c4 34000000 		.4byte	.LASF17
 208 00c8 04       		.byte	0x4
 209 00c9 3C       		.byte	0x3c
 210 00ca 90000000 		.4byte	0x90
 211 00ce 05       		.uleb128 0x5
 212 00cf AD000000 		.4byte	0xad
 213 00d3 03       		.uleb128 0x3
 214 00d4 B9020000 		.4byte	.LASF18
 215 00d8 05       		.byte	0x5
 216 00d9 45       		.byte	0x45
 217 00da B8000000 		.4byte	0xb8
 218 00de 03       		.uleb128 0x3
 219 00df 6B020000 		.4byte	.LASF19
 220 00e3 05       		.byte	0x5
 221 00e4 48       		.byte	0x48
 222 00e5 A2000000 		.4byte	0xa2
 223 00e9 03       		.uleb128 0x3
 224 00ea 6C010000 		.4byte	.LASF20
 225 00ee 05       		.byte	0x5
 226 00ef 49       		.byte	0x49
 227 00f0 A2000000 		.4byte	0xa2
 228 00f4 03       		.uleb128 0x3
ARM GAS  C:\Users\IDONNO~1\AppData\Local\Temp\ccu5KOQd.s 			page 5


 229 00f5 6D030000 		.4byte	.LASF21
 230 00f9 05       		.byte	0x5
 231 00fa 4A       		.byte	0x4a
 232 00fb A2000000 		.4byte	0xa2
 233 00ff 03       		.uleb128 0x3
 234 0100 35010000 		.4byte	.LASF22
 235 0104 05       		.byte	0x5
 236 0105 4B       		.byte	0x4b
 237 0106 A2000000 		.4byte	0xa2
 238 010a 03       		.uleb128 0x3
 239 010b 92030000 		.4byte	.LASF23
 240 010f 05       		.byte	0x5
 241 0110 4C       		.byte	0x4c
 242 0111 B8000000 		.4byte	0xb8
 243 0115 03       		.uleb128 0x3
 244 0116 4C020000 		.4byte	.LASF24
 245 011a 05       		.byte	0x5
 246 011b 4D       		.byte	0x4d
 247 011c AD000000 		.4byte	0xad
 248 0120 03       		.uleb128 0x3
 249 0121 86020000 		.4byte	.LASF25
 250 0125 05       		.byte	0x5
 251 0126 4F       		.byte	0x4f
 252 0127 B8000000 		.4byte	0xb8
 253 012b 03       		.uleb128 0x3
 254 012c DE010000 		.4byte	.LASF26
 255 0130 05       		.byte	0x5
 256 0131 51       		.byte	0x51
 257 0132 AD000000 		.4byte	0xad
 258 0136 03       		.uleb128 0x3
 259 0137 A2040000 		.4byte	.LASF27
 260 013b 06       		.byte	0x6
 261 013c 33       		.byte	0x33
 262 013d B8000000 		.4byte	0xb8
 263 0141 03       		.uleb128 0x3
 264 0142 07050000 		.4byte	.LASF28
 265 0146 06       		.byte	0x6
 266 0147 3F       		.byte	0x3f
 267 0148 4C010000 		.4byte	0x14c
 268 014c 06       		.uleb128 0x6
 269 014d 42020000 		.4byte	.LASF57
 270 0151 48       		.byte	0x48
 271 0152 07       		.byte	0x7
 272 0153 C2       		.byte	0xc2
 273 0154 AE020000 		.4byte	0x2ae
 274 0158 07       		.uleb128 0x7
 275 0159 04       		.byte	0x4
 276 015a 07       		.byte	0x7
 277 015b FA       		.byte	0xfa
 278 015c B5010000 		.4byte	0x1b5
 279 0160 08       		.uleb128 0x8
 280 0161 22000000 		.4byte	.LASF29
 281 0165 07       		.byte	0x7
 282 0166 0101     		.2byte	0x101
 283 0168 15010000 		.4byte	0x115
 284 016c 08       		.uleb128 0x8
 285 016d 9C010000 		.4byte	.LASF30
ARM GAS  C:\Users\IDONNO~1\AppData\Local\Temp\ccu5KOQd.s 			page 6


 286 0171 07       		.byte	0x7
 287 0172 0801     		.2byte	0x108
 288 0174 15010000 		.4byte	0x115
 289 0178 08       		.uleb128 0x8
 290 0179 2E010000 		.4byte	.LASF31
 291 017d 07       		.byte	0x7
 292 017e 0F01     		.2byte	0x10f
 293 0180 96030000 		.4byte	0x396
 294 0184 08       		.uleb128 0x8
 295 0185 4C010000 		.4byte	.LASF32
 296 0189 07       		.byte	0x7
 297 018a 1601     		.2byte	0x116
 298 018c E5060000 		.4byte	0x6e5
 299 0190 08       		.uleb128 0x8
 300 0191 F9010000 		.4byte	.LASF33
 301 0195 07       		.byte	0x7
 302 0196 1E01     		.2byte	0x11e
 303 0198 10070000 		.4byte	0x710
 304 019c 08       		.uleb128 0x8
 305 019d 81040000 		.4byte	.LASF34
 306 01a1 07       		.byte	0x7
 307 01a2 2701     		.2byte	0x127
 308 01a4 47070000 		.4byte	0x747
 309 01a8 08       		.uleb128 0x8
 310 01a9 EC030000 		.4byte	.LASF35
 311 01ad 07       		.byte	0x7
 312 01ae 2F01     		.2byte	0x12f
 313 01b0 20010000 		.4byte	0x120
 314 01b4 00       		.byte	0
 315 01b5 09       		.uleb128 0x9
 316 01b6 F3030000 		.4byte	.LASF36
 317 01ba 07       		.byte	0x7
 318 01bb C3       		.byte	0xc3
 319 01bc B9020000 		.4byte	0x2b9
 320 01c0 00       		.byte	0
 321 01c1 09       		.uleb128 0x9
 322 01c2 85030000 		.4byte	.LASF37
 323 01c6 07       		.byte	0x7
 324 01c7 C5       		.byte	0xc5
 325 01c8 B9020000 		.4byte	0x2b9
 326 01cc 04       		.byte	0x4
 327 01cd 09       		.uleb128 0x9
 328 01ce EB000000 		.4byte	.LASF38
 329 01d2 07       		.byte	0x7
 330 01d3 C7       		.byte	0xc7
 331 01d4 0A010000 		.4byte	0x10a
 332 01d8 08       		.byte	0x8
 333 01d9 09       		.uleb128 0x9
 334 01da B4060000 		.4byte	.LASF39
 335 01de 07       		.byte	0x7
 336 01df C8       		.byte	0xc8
 337 01e0 61050000 		.4byte	0x561
 338 01e4 0C       		.byte	0xc
 339 01e5 09       		.uleb128 0x9
 340 01e6 8C010000 		.4byte	.LASF40
 341 01ea 07       		.byte	0x7
 342 01eb CA       		.byte	0xca
ARM GAS  C:\Users\IDONNO~1\AppData\Local\Temp\ccu5KOQd.s 			page 7


 343 01ec B9020000 		.4byte	0x2b9
 344 01f0 10       		.byte	0x10
 345 01f1 09       		.uleb128 0x9
 346 01f2 1A030000 		.4byte	.LASF41
 347 01f6 07       		.byte	0x7
 348 01f7 CB       		.byte	0xcb
 349 01f8 B9020000 		.4byte	0x2b9
 350 01fc 14       		.byte	0x14
 351 01fd 09       		.uleb128 0x9
 352 01fe 76060000 		.4byte	.LASF42
 353 0202 07       		.byte	0x7
 354 0203 D2       		.byte	0xd2
 355 0204 4D070000 		.4byte	0x74d
 356 0208 18       		.byte	0x18
 357 0209 09       		.uleb128 0x9
 358 020a D4030000 		.4byte	.LASF43
 359 020e 07       		.byte	0x7
 360 020f DD       		.byte	0xdd
 361 0210 E9000000 		.4byte	0xe9
 362 0214 1C       		.byte	0x1c
 363 0215 09       		.uleb128 0x9
 364 0216 FA030000 		.4byte	.LASF44
 365 021a 07       		.byte	0x7
 366 021b E1       		.byte	0xe1
 367 021c DE000000 		.4byte	0xde
 368 0220 1D       		.byte	0x1d
 369 0221 09       		.uleb128 0x9
 370 0222 00050000 		.4byte	.LASF45
 371 0226 07       		.byte	0x7
 372 0227 E6       		.byte	0xe6
 373 0228 F4000000 		.4byte	0xf4
 374 022c 1E       		.byte	0x1e
 375 022d 09       		.uleb128 0x9
 376 022e 52030000 		.4byte	.LASF46
 377 0232 07       		.byte	0x7
 378 0233 EC       		.byte	0xec
 379 0234 FF000000 		.4byte	0xff
 380 0238 1F       		.byte	0x1f
 381 0239 09       		.uleb128 0x9
 382 023a DC040000 		.4byte	.LASF47
 383 023e 07       		.byte	0x7
 384 023f F3       		.byte	0xf3
 385 0240 5F070000 		.4byte	0x75f
 386 0244 20       		.byte	0x20
 387 0245 0A       		.uleb128 0xa
 388 0246 705F7500 		.ascii	"p_u\000"
 389 024a 07       		.byte	0x7
 390 024b 3101     		.2byte	0x131
 391 024d 58010000 		.4byte	0x158
 392 0251 24       		.byte	0x24
 393 0252 0B       		.uleb128 0xb
 394 0253 BA060000 		.4byte	.LASF48
 395 0257 07       		.byte	0x7
 396 0258 3601     		.2byte	0x136
 397 025a BF020000 		.4byte	0x2bf
 398 025e 28       		.byte	0x28
 399 025f 0B       		.uleb128 0xb
ARM GAS  C:\Users\IDONNO~1\AppData\Local\Temp\ccu5KOQd.s 			page 8


 400 0260 E3040000 		.4byte	.LASF49
 401 0264 07       		.byte	0x7
 402 0265 3C01     		.2byte	0x13c
 403 0267 E3020000 		.4byte	0x2e3
 404 026b 2C       		.byte	0x2c
 405 026c 0B       		.uleb128 0xb
 406 026d 8C060000 		.4byte	.LASF50
 407 0271 07       		.byte	0x7
 408 0272 4001     		.2byte	0x140
 409 0274 15010000 		.4byte	0x115
 410 0278 34       		.byte	0x34
 411 0279 0B       		.uleb128 0xb
 412 027a 30040000 		.4byte	.LASF51
 413 027e 07       		.byte	0x7
 414 027f 4601     		.2byte	0x146
 415 0281 20010000 		.4byte	0x120
 416 0285 38       		.byte	0x38
 417 0286 0B       		.uleb128 0xb
 418 0287 C0030000 		.4byte	.LASF52
 419 028b 07       		.byte	0x7
 420 028c 4D01     		.2byte	0x14d
 421 028e 47070000 		.4byte	0x747
 422 0292 3C       		.byte	0x3c
 423 0293 0B       		.uleb128 0xb
 424 0294 AC040000 		.4byte	.LASF53
 425 0298 07       		.byte	0x7
 426 0299 5101     		.2byte	0x151
 427 029b 0A010000 		.4byte	0x10a
 428 029f 40       		.byte	0x40
 429 02a0 0B       		.uleb128 0xb
 430 02a1 1E010000 		.4byte	.LASF54
 431 02a5 07       		.byte	0x7
 432 02a6 5801     		.2byte	0x158
 433 02a8 96030000 		.4byte	0x396
 434 02ac 44       		.byte	0x44
 435 02ad 00       		.byte	0
 436 02ae 03       		.uleb128 0x3
 437 02af C1020000 		.4byte	.LASF55
 438 02b3 06       		.byte	0x6
 439 02b4 44       		.byte	0x44
 440 02b5 B9020000 		.4byte	0x2b9
 441 02b9 0C       		.uleb128 0xc
 442 02ba 04       		.byte	0x4
 443 02bb 41010000 		.4byte	0x141
 444 02bf 03       		.uleb128 0x3
 445 02c0 7D060000 		.4byte	.LASF56
 446 02c4 06       		.byte	0x6
 447 02c5 49       		.byte	0x49
 448 02c6 CA020000 		.4byte	0x2ca
 449 02ca 06       		.uleb128 0x6
 450 02cb 60040000 		.4byte	.LASF58
 451 02cf 04       		.byte	0x4
 452 02d0 07       		.byte	0x7
 453 02d1 B0       		.byte	0xb0
 454 02d2 E3020000 		.4byte	0x2e3
 455 02d6 09       		.uleb128 0x9
 456 02d7 F3030000 		.4byte	.LASF36
ARM GAS  C:\Users\IDONNO~1\AppData\Local\Temp\ccu5KOQd.s 			page 9


 457 02db 07       		.byte	0x7
 458 02dc B1       		.byte	0xb1
 459 02dd B9020000 		.4byte	0x2b9
 460 02e1 00       		.byte	0
 461 02e2 00       		.byte	0
 462 02e3 03       		.uleb128 0x3
 463 02e4 02040000 		.4byte	.LASF59
 464 02e8 06       		.byte	0x6
 465 02e9 50       		.byte	0x50
 466 02ea EE020000 		.4byte	0x2ee
 467 02ee 06       		.uleb128 0x6
 468 02ef DA000000 		.4byte	.LASF60
 469 02f3 08       		.byte	0x8
 470 02f4 07       		.byte	0x7
 471 02f5 B7       		.byte	0xb7
 472 02f6 13030000 		.4byte	0x313
 473 02fa 09       		.uleb128 0x9
 474 02fb F3030000 		.4byte	.LASF36
 475 02ff 07       		.byte	0x7
 476 0300 B8       		.byte	0xb8
 477 0301 B9020000 		.4byte	0x2b9
 478 0305 00       		.byte	0
 479 0306 09       		.uleb128 0x9
 480 0307 85030000 		.4byte	.LASF37
 481 030b 07       		.byte	0x7
 482 030c B9       		.byte	0xb9
 483 030d B9020000 		.4byte	0x2b9
 484 0311 04       		.byte	0x4
 485 0312 00       		.byte	0
 486 0313 03       		.uleb128 0x3
 487 0314 00000000 		.4byte	.LASF61
 488 0318 06       		.byte	0x6
 489 0319 57       		.byte	0x57
 490 031a 1E030000 		.4byte	0x31e
 491 031e 0D       		.uleb128 0xd
 492 031f 78020000 		.4byte	.LASF62
 493 0323 1C       		.byte	0x1c
 494 0324 07       		.byte	0x7
 495 0325 9001     		.2byte	0x190
 496 0327 7A030000 		.4byte	0x37a
 497 032b 0B       		.uleb128 0xb
 498 032c 4D040000 		.4byte	.LASF63
 499 0330 07       		.byte	0x7
 500 0331 9101     		.2byte	0x191
 501 0333 E3020000 		.4byte	0x2e3
 502 0337 00       		.byte	0
 503 0338 0B       		.uleb128 0xb
 504 0339 E5030000 		.4byte	.LASF64
 505 033d 07       		.byte	0x7
 506 033e 9201     		.2byte	0x192
 507 0340 0A010000 		.4byte	0x10a
 508 0344 08       		.byte	0x8
 509 0345 0B       		.uleb128 0xb
 510 0346 22030000 		.4byte	.LASF65
 511 034a 07       		.byte	0x7
 512 034b 9401     		.2byte	0x194
 513 034d 61050000 		.4byte	0x561
ARM GAS  C:\Users\IDONNO~1\AppData\Local\Temp\ccu5KOQd.s 			page 10


 514 0351 0C       		.byte	0xc
 515 0352 0B       		.uleb128 0xb
 516 0353 A5010000 		.4byte	.LASF66
 517 0357 07       		.byte	0x7
 518 0358 9701     		.2byte	0x197
 519 035a B9020000 		.4byte	0x2b9
 520 035e 10       		.byte	0x10
 521 035f 0B       		.uleb128 0xb
 522 0360 4A030000 		.4byte	.LASF67
 523 0364 07       		.byte	0x7
 524 0365 9801     		.2byte	0x198
 525 0367 B9020000 		.4byte	0x2b9
 526 036b 14       		.byte	0x14
 527 036c 0B       		.uleb128 0xb
 528 036d 40030000 		.4byte	.LASF68
 529 0371 07       		.byte	0x7
 530 0372 9B01     		.2byte	0x19b
 531 0374 B9020000 		.4byte	0x2b9
 532 0378 18       		.byte	0x18
 533 0379 00       		.byte	0
 534 037a 03       		.uleb128 0x3
 535 037b B7040000 		.4byte	.LASF69
 536 037f 06       		.byte	0x6
 537 0380 5C       		.byte	0x5c
 538 0381 85030000 		.4byte	0x385
 539 0385 0C       		.uleb128 0xc
 540 0386 04       		.byte	0x4
 541 0387 8B030000 		.4byte	0x38b
 542 038b 0E       		.uleb128 0xe
 543 038c 96030000 		.4byte	0x396
 544 0390 0F       		.uleb128 0xf
 545 0391 96030000 		.4byte	0x396
 546 0395 00       		.byte	0
 547 0396 10       		.uleb128 0x10
 548 0397 04       		.byte	0x4
 549 0398 03       		.uleb128 0x3
 550 0399 75030000 		.4byte	.LASF70
 551 039d 06       		.byte	0x6
 552 039e 61       		.byte	0x61
 553 039f A3030000 		.4byte	0x3a3
 554 03a3 0D       		.uleb128 0xd
 555 03a4 12040000 		.4byte	.LASF71
 556 03a8 14       		.byte	0x14
 557 03a9 07       		.byte	0x7
 558 03aa 6B01     		.2byte	0x16b
 559 03ac F2030000 		.4byte	0x3f2
 560 03b0 0B       		.uleb128 0xb
 561 03b1 F1010000 		.4byte	.LASF72
 562 03b5 07       		.byte	0x7
 563 03b6 6C01     		.2byte	0x16c
 564 03b8 64070000 		.4byte	0x764
 565 03bc 00       		.byte	0
 566 03bd 0B       		.uleb128 0xb
 567 03be BF010000 		.4byte	.LASF73
 568 03c2 07       		.byte	0x7
 569 03c3 6D01     		.2byte	0x16d
 570 03c5 64070000 		.4byte	0x764
ARM GAS  C:\Users\IDONNO~1\AppData\Local\Temp\ccu5KOQd.s 			page 11


 571 03c9 04       		.byte	0x4
 572 03ca 0B       		.uleb128 0xb
 573 03cb 00020000 		.4byte	.LASF74
 574 03cf 07       		.byte	0x7
 575 03d0 6E01     		.2byte	0x16e
 576 03d2 36010000 		.4byte	0x136
 577 03d6 08       		.byte	0x8
 578 03d7 0B       		.uleb128 0xb
 579 03d8 38030000 		.4byte	.LASF75
 580 03dc 07       		.byte	0x7
 581 03dd 6F01     		.2byte	0x16f
 582 03df 7A030000 		.4byte	0x37a
 583 03e3 0C       		.byte	0xc
 584 03e4 0B       		.uleb128 0xb
 585 03e5 EE040000 		.4byte	.LASF76
 586 03e9 07       		.byte	0x7
 587 03ea 7101     		.2byte	0x171
 588 03ec 96030000 		.4byte	0x396
 589 03f0 10       		.byte	0x10
 590 03f1 00       		.byte	0
 591 03f2 03       		.uleb128 0x3
 592 03f3 AD000000 		.4byte	.LASF77
 593 03f7 06       		.byte	0x6
 594 03f8 66       		.byte	0x66
 595 03f9 FD030000 		.4byte	0x3fd
 596 03fd 0D       		.uleb128 0xd
 597 03fe D4020000 		.4byte	.LASF78
 598 0402 10       		.byte	0x10
 599 0403 07       		.byte	0x7
 600 0404 7B01     		.2byte	0x17b
 601 0406 3F040000 		.4byte	0x43f
 602 040a 0B       		.uleb128 0xb
 603 040b F1010000 		.4byte	.LASF72
 604 040f 07       		.byte	0x7
 605 0410 7C01     		.2byte	0x17c
 606 0412 64070000 		.4byte	0x764
 607 0416 00       		.byte	0
 608 0417 0B       		.uleb128 0xb
 609 0418 BF010000 		.4byte	.LASF73
 610 041c 07       		.byte	0x7
 611 041d 7E01     		.2byte	0x17e
 612 041f 64070000 		.4byte	0x764
 613 0423 04       		.byte	0x4
 614 0424 0B       		.uleb128 0xb
 615 0425 00020000 		.4byte	.LASF74
 616 0429 07       		.byte	0x7
 617 042a 8001     		.2byte	0x180
 618 042c 36010000 		.4byte	0x136
 619 0430 08       		.byte	0x8
 620 0431 0B       		.uleb128 0xb
 621 0432 55040000 		.4byte	.LASF79
 622 0436 07       		.byte	0x7
 623 0437 8201     		.2byte	0x182
 624 0439 5F070000 		.4byte	0x75f
 625 043d 0C       		.byte	0xc
 626 043e 00       		.byte	0
 627 043f 03       		.uleb128 0x3
ARM GAS  C:\Users\IDONNO~1\AppData\Local\Temp\ccu5KOQd.s 			page 12


 628 0440 09020000 		.4byte	.LASF80
 629 0444 06       		.byte	0x6
 630 0445 6B       		.byte	0x6b
 631 0446 4A040000 		.4byte	0x44a
 632 044a 0D       		.uleb128 0xd
 633 044b 9A030000 		.4byte	.LASF81
 634 044f 04       		.byte	0x4
 635 0450 07       		.byte	0x7
 636 0451 A201     		.2byte	0x1a2
 637 0453 65040000 		.4byte	0x465
 638 0457 0B       		.uleb128 0xb
 639 0458 CB040000 		.4byte	.LASF82
 640 045c 07       		.byte	0x7
 641 045d AA01     		.2byte	0x1aa
 642 045f 6A070000 		.4byte	0x76a
 643 0463 00       		.byte	0
 644 0464 00       		.byte	0
 645 0465 03       		.uleb128 0x3
 646 0466 5F020000 		.4byte	.LASF83
 647 046a 06       		.byte	0x6
 648 046b 70       		.byte	0x70
 649 046c 70040000 		.4byte	0x470
 650 0470 11       		.uleb128 0x11
 651 0471 52010000 		.4byte	.LASF84
 652 0475 5802     		.2byte	0x258
 653 0477 07       		.byte	0x7
 654 0478 C201     		.2byte	0x1c2
 655 047a CC040000 		.4byte	0x4cc
 656 047e 0B       		.uleb128 0xb
 657 047f 10050000 		.4byte	.LASF85
 658 0483 07       		.byte	0x7
 659 0484 C601     		.2byte	0x1c6
 660 0486 13030000 		.4byte	0x313
 661 048a 00       		.byte	0
 662 048b 0B       		.uleb128 0xb
 663 048c 53000000 		.4byte	.LASF86
 664 0490 07       		.byte	0x7
 665 0491 CA01     		.2byte	0x1ca
 666 0493 F2030000 		.4byte	0x3f2
 667 0497 1C       		.byte	0x1c
 668 0498 0A       		.uleb128 0xa
 669 0499 64626700 		.ascii	"dbg\000"
 670 049d 07       		.byte	0x7
 671 049e CE01     		.2byte	0x1ce
 672 04a0 3F040000 		.4byte	0x43f
 673 04a4 2C       		.byte	0x2c
 674 04a5 0B       		.uleb128 0xb
 675 04a6 9D000000 		.4byte	.LASF87
 676 04aa 07       		.byte	0x7
 677 04ab D201     		.2byte	0x1d2
 678 04ad 41010000 		.4byte	0x141
 679 04b1 30       		.byte	0x30
 680 04b2 0A       		.uleb128 0xa
 681 04b3 746D00   		.ascii	"tm\000"
 682 04b6 07       		.byte	0x7
 683 04b7 D701     		.2byte	0x1d7
 684 04b9 DA060000 		.4byte	0x6da
ARM GAS  C:\Users\IDONNO~1\AppData\Local\Temp\ccu5KOQd.s 			page 13


 685 04bd 78       		.byte	0x78
 686 04be 0B       		.uleb128 0xb
 687 04bf CF010000 		.4byte	.LASF88
 688 04c3 07       		.byte	0x7
 689 04c4 E301     		.2byte	0x1e3
 690 04c6 6F070000 		.4byte	0x76f
 691 04ca 80       		.byte	0x80
 692 04cb 00       		.byte	0
 693 04cc 04       		.uleb128 0x4
 694 04cd 04       		.byte	0x4
 695 04ce 07       		.byte	0x7
 696 04cf 64060000 		.4byte	.LASF89
 697 04d3 12       		.uleb128 0x12
 698 04d4 01       		.byte	0x1
 699 04d5 50000000 		.4byte	0x50
 700 04d9 08       		.byte	0x8
 701 04da A2       		.byte	0xa2
 702 04db 52020000 		.4byte	.LASF92
 703 04df F0040000 		.4byte	0x4f0
 704 04e3 13       		.uleb128 0x13
 705 04e4 8C030000 		.4byte	.LASF90
 706 04e8 00       		.byte	0
 707 04e9 14       		.uleb128 0x14
 708 04ea 53455400 		.ascii	"SET\000"
 709 04ee 01       		.byte	0x1
 710 04ef 00       		.byte	0
 711 04f0 03       		.uleb128 0x3
 712 04f1 29000000 		.4byte	.LASF91
 713 04f5 08       		.byte	0x8
 714 04f6 A5       		.byte	0xa5
 715 04f7 D3040000 		.4byte	0x4d3
 716 04fb 12       		.uleb128 0x12
 717 04fc 01       		.byte	0x1
 718 04fd 50000000 		.4byte	0x50
 719 0501 08       		.byte	0x8
 720 0502 A8       		.byte	0xa8
 721 0503 75010000 		.4byte	.LASF93
 722 0507 18050000 		.4byte	0x518
 723 050b 13       		.uleb128 0x13
 724 050c 5A000000 		.4byte	.LASF94
 725 0510 00       		.byte	0
 726 0511 13       		.uleb128 0x13
 727 0512 65010000 		.4byte	.LASF95
 728 0516 01       		.byte	0x1
 729 0517 00       		.byte	0
 730 0518 03       		.uleb128 0x3
 731 0519 28030000 		.4byte	.LASF96
 732 051d 08       		.byte	0x8
 733 051e AB       		.byte	0xab
 734 051f FB040000 		.4byte	0x4fb
 735 0523 12       		.uleb128 0x12
 736 0524 01       		.byte	0x1
 737 0525 50000000 		.4byte	0x50
 738 0529 08       		.byte	0x8
 739 052a AF       		.byte	0xaf
 740 052b 0D000000 		.4byte	.LASF97
 741 052f 40050000 		.4byte	0x540
ARM GAS  C:\Users\IDONNO~1\AppData\Local\Temp\ccu5KOQd.s 			page 14


 742 0533 13       		.uleb128 0x13
 743 0534 EB020000 		.4byte	.LASF98
 744 0538 00       		.byte	0
 745 0539 13       		.uleb128 0x13
 746 053a 1E050000 		.4byte	.LASF99
 747 053e 01       		.byte	0x1
 748 053f 00       		.byte	0
 749 0540 03       		.uleb128 0x3
 750 0541 B3010000 		.4byte	.LASF100
 751 0545 08       		.byte	0x8
 752 0546 B2       		.byte	0xb2
 753 0547 23050000 		.4byte	0x523
 754 054b 03       		.uleb128 0x3
 755 054c 44040000 		.4byte	.LASF101
 756 0550 09       		.byte	0x9
 757 0551 65       		.byte	0x65
 758 0552 96030000 		.4byte	0x396
 759 0556 03       		.uleb128 0x3
 760 0557 9C020000 		.4byte	.LASF102
 761 055b 09       		.byte	0x9
 762 055c 6D       		.byte	0x6d
 763 055d C3000000 		.4byte	0xc3
 764 0561 06       		.uleb128 0x6
 765 0562 27020000 		.4byte	.LASF103
 766 0566 04       		.byte	0x4
 767 0567 09       		.byte	0x9
 768 0568 89       		.byte	0x89
 769 0569 7A050000 		.4byte	0x57a
 770 056d 15       		.uleb128 0x15
 771 056e 72313300 		.ascii	"r13\000"
 772 0572 09       		.byte	0x9
 773 0573 8A       		.byte	0x8a
 774 0574 BB060000 		.4byte	0x6bb
 775 0578 00       		.byte	0
 776 0579 00       		.byte	0
 777 057a 06       		.uleb128 0x6
 778 057b 47000000 		.4byte	.LASF104
 779 057f 64       		.byte	0x64
 780 0580 0A       		.byte	0xa
 781 0581 F4       		.byte	0xf4
 782 0582 BB060000 		.4byte	0x6bb
 783 0586 15       		.uleb128 0x15
 784 0587 73313600 		.ascii	"s16\000"
 785 058b 0A       		.byte	0xa
 786 058c F6       		.byte	0xf6
 787 058d 4B050000 		.4byte	0x54b
 788 0591 00       		.byte	0
 789 0592 15       		.uleb128 0x15
 790 0593 73313700 		.ascii	"s17\000"
 791 0597 0A       		.byte	0xa
 792 0598 F7       		.byte	0xf7
 793 0599 4B050000 		.4byte	0x54b
 794 059d 04       		.byte	0x4
 795 059e 15       		.uleb128 0x15
 796 059f 73313800 		.ascii	"s18\000"
 797 05a3 0A       		.byte	0xa
 798 05a4 F8       		.byte	0xf8
ARM GAS  C:\Users\IDONNO~1\AppData\Local\Temp\ccu5KOQd.s 			page 15


 799 05a5 4B050000 		.4byte	0x54b
 800 05a9 08       		.byte	0x8
 801 05aa 15       		.uleb128 0x15
 802 05ab 73313900 		.ascii	"s19\000"
 803 05af 0A       		.byte	0xa
 804 05b0 F9       		.byte	0xf9
 805 05b1 4B050000 		.4byte	0x54b
 806 05b5 0C       		.byte	0xc
 807 05b6 15       		.uleb128 0x15
 808 05b7 73323000 		.ascii	"s20\000"
 809 05bb 0A       		.byte	0xa
 810 05bc FA       		.byte	0xfa
 811 05bd 4B050000 		.4byte	0x54b
 812 05c1 10       		.byte	0x10
 813 05c2 15       		.uleb128 0x15
 814 05c3 73323100 		.ascii	"s21\000"
 815 05c7 0A       		.byte	0xa
 816 05c8 FB       		.byte	0xfb
 817 05c9 4B050000 		.4byte	0x54b
 818 05cd 14       		.byte	0x14
 819 05ce 15       		.uleb128 0x15
 820 05cf 73323200 		.ascii	"s22\000"
 821 05d3 0A       		.byte	0xa
 822 05d4 FC       		.byte	0xfc
 823 05d5 4B050000 		.4byte	0x54b
 824 05d9 18       		.byte	0x18
 825 05da 15       		.uleb128 0x15
 826 05db 73323300 		.ascii	"s23\000"
 827 05df 0A       		.byte	0xa
 828 05e0 FD       		.byte	0xfd
 829 05e1 4B050000 		.4byte	0x54b
 830 05e5 1C       		.byte	0x1c
 831 05e6 15       		.uleb128 0x15
 832 05e7 73323400 		.ascii	"s24\000"
 833 05eb 0A       		.byte	0xa
 834 05ec FE       		.byte	0xfe
 835 05ed 4B050000 		.4byte	0x54b
 836 05f1 20       		.byte	0x20
 837 05f2 15       		.uleb128 0x15
 838 05f3 73323500 		.ascii	"s25\000"
 839 05f7 0A       		.byte	0xa
 840 05f8 FF       		.byte	0xff
 841 05f9 4B050000 		.4byte	0x54b
 842 05fd 24       		.byte	0x24
 843 05fe 0A       		.uleb128 0xa
 844 05ff 73323600 		.ascii	"s26\000"
 845 0603 0A       		.byte	0xa
 846 0604 0001     		.2byte	0x100
 847 0606 4B050000 		.4byte	0x54b
 848 060a 28       		.byte	0x28
 849 060b 0A       		.uleb128 0xa
 850 060c 73323700 		.ascii	"s27\000"
 851 0610 0A       		.byte	0xa
 852 0611 0101     		.2byte	0x101
 853 0613 4B050000 		.4byte	0x54b
 854 0617 2C       		.byte	0x2c
 855 0618 0A       		.uleb128 0xa
ARM GAS  C:\Users\IDONNO~1\AppData\Local\Temp\ccu5KOQd.s 			page 16


 856 0619 73323800 		.ascii	"s28\000"
 857 061d 0A       		.byte	0xa
 858 061e 0201     		.2byte	0x102
 859 0620 4B050000 		.4byte	0x54b
 860 0624 30       		.byte	0x30
 861 0625 0A       		.uleb128 0xa
 862 0626 73323900 		.ascii	"s29\000"
 863 062a 0A       		.byte	0xa
 864 062b 0301     		.2byte	0x103
 865 062d 4B050000 		.4byte	0x54b
 866 0631 34       		.byte	0x34
 867 0632 0A       		.uleb128 0xa
 868 0633 73333000 		.ascii	"s30\000"
 869 0637 0A       		.byte	0xa
 870 0638 0401     		.2byte	0x104
 871 063a 4B050000 		.4byte	0x54b
 872 063e 38       		.byte	0x38
 873 063f 0A       		.uleb128 0xa
 874 0640 73333100 		.ascii	"s31\000"
 875 0644 0A       		.byte	0xa
 876 0645 0501     		.2byte	0x105
 877 0647 4B050000 		.4byte	0x54b
 878 064b 3C       		.byte	0x3c
 879 064c 0A       		.uleb128 0xa
 880 064d 723400   		.ascii	"r4\000"
 881 0650 0A       		.byte	0xa
 882 0651 0701     		.2byte	0x107
 883 0653 4B050000 		.4byte	0x54b
 884 0657 40       		.byte	0x40
 885 0658 0A       		.uleb128 0xa
 886 0659 723500   		.ascii	"r5\000"
 887 065c 0A       		.byte	0xa
 888 065d 0801     		.2byte	0x108
 889 065f 4B050000 		.4byte	0x54b
 890 0663 44       		.byte	0x44
 891 0664 0A       		.uleb128 0xa
 892 0665 723600   		.ascii	"r6\000"
 893 0668 0A       		.byte	0xa
 894 0669 0901     		.2byte	0x109
 895 066b 4B050000 		.4byte	0x54b
 896 066f 48       		.byte	0x48
 897 0670 0A       		.uleb128 0xa
 898 0671 723700   		.ascii	"r7\000"
 899 0674 0A       		.byte	0xa
 900 0675 0A01     		.2byte	0x10a
 901 0677 4B050000 		.4byte	0x54b
 902 067b 4C       		.byte	0x4c
 903 067c 0A       		.uleb128 0xa
 904 067d 723800   		.ascii	"r8\000"
 905 0680 0A       		.byte	0xa
 906 0681 0B01     		.2byte	0x10b
 907 0683 4B050000 		.4byte	0x54b
 908 0687 50       		.byte	0x50
 909 0688 0A       		.uleb128 0xa
 910 0689 723900   		.ascii	"r9\000"
 911 068c 0A       		.byte	0xa
 912 068d 0C01     		.2byte	0x10c
ARM GAS  C:\Users\IDONNO~1\AppData\Local\Temp\ccu5KOQd.s 			page 17


 913 068f 4B050000 		.4byte	0x54b
 914 0693 54       		.byte	0x54
 915 0694 0A       		.uleb128 0xa
 916 0695 72313000 		.ascii	"r10\000"
 917 0699 0A       		.byte	0xa
 918 069a 0D01     		.2byte	0x10d
 919 069c 4B050000 		.4byte	0x54b
 920 06a0 58       		.byte	0x58
 921 06a1 0A       		.uleb128 0xa
 922 06a2 72313100 		.ascii	"r11\000"
 923 06a6 0A       		.byte	0xa
 924 06a7 0E01     		.2byte	0x10e
 925 06a9 4B050000 		.4byte	0x54b
 926 06ad 5C       		.byte	0x5c
 927 06ae 0A       		.uleb128 0xa
 928 06af 6C7200   		.ascii	"lr\000"
 929 06b2 0A       		.byte	0xa
 930 06b3 0F01     		.2byte	0x10f
 931 06b5 4B050000 		.4byte	0x54b
 932 06b9 60       		.byte	0x60
 933 06ba 00       		.byte	0
 934 06bb 0C       		.uleb128 0xc
 935 06bc 04       		.byte	0x4
 936 06bd 7A050000 		.4byte	0x57a
 937 06c1 16       		.uleb128 0x16
 938 06c2 04       		.byte	0x4
 939 06c3 0B       		.byte	0xb
 940 06c4 38       		.byte	0x38
 941 06c5 88040000 		.4byte	.LASF131
 942 06c9 DA060000 		.4byte	0x6da
 943 06cd 09       		.uleb128 0x9
 944 06ce D5040000 		.4byte	.LASF105
 945 06d2 0B       		.byte	0xb
 946 06d3 3C       		.byte	0x3c
 947 06d4 D3000000 		.4byte	0xd3
 948 06d8 00       		.byte	0
 949 06d9 00       		.byte	0
 950 06da 03       		.uleb128 0x3
 951 06db 09030000 		.4byte	.LASF106
 952 06df 0B       		.byte	0xb
 953 06e0 3D       		.byte	0x3d
 954 06e1 C1060000 		.4byte	0x6c1
 955 06e5 0C       		.uleb128 0xc
 956 06e6 04       		.byte	0x4
 957 06e7 AE020000 		.4byte	0x2ae
 958 06eb 06       		.uleb128 0x6
 959 06ec 23040000 		.4byte	.LASF107
 960 06f0 0C       		.byte	0xc
 961 06f1 0C       		.byte	0xc
 962 06f2 34       		.byte	0x34
 963 06f3 10070000 		.4byte	0x710
 964 06f7 09       		.uleb128 0x9
 965 06f8 94010000 		.4byte	.LASF108
 966 06fc 0C       		.byte	0xc
 967 06fd 35       		.byte	0x35
 968 06fe E3020000 		.4byte	0x2e3
 969 0702 00       		.byte	0
ARM GAS  C:\Users\IDONNO~1\AppData\Local\Temp\ccu5KOQd.s 			page 18


 970 0703 09       		.uleb128 0x9
 971 0704 21020000 		.4byte	.LASF109
 972 0708 0C       		.byte	0xc
 973 0709 37       		.byte	0x37
 974 070a 2B010000 		.4byte	0x12b
 975 070e 08       		.byte	0x8
 976 070f 00       		.byte	0
 977 0710 0C       		.uleb128 0xc
 978 0711 04       		.byte	0x4
 979 0712 EB060000 		.4byte	0x6eb
 980 0716 06       		.uleb128 0x6
 981 0717 6D060000 		.4byte	.LASF110
 982 071b 10       		.byte	0x10
 983 071c 0D       		.byte	0xd
 984 071d 39       		.byte	0x39
 985 071e 47070000 		.4byte	0x747
 986 0722 09       		.uleb128 0x9
 987 0723 26010000 		.4byte	.LASF111
 988 0727 0D       		.byte	0xd
 989 0728 3A       		.byte	0x3a
 990 0729 E3020000 		.4byte	0x2e3
 991 072d 00       		.byte	0
 992 072e 09       		.uleb128 0x9
 993 072f A5060000 		.4byte	.LASF112
 994 0733 0D       		.byte	0xd
 995 0734 3C       		.byte	0x3c
 996 0735 B9020000 		.4byte	0x2b9
 997 0739 08       		.byte	0x8
 998 073a 09       		.uleb128 0x9
 999 073b 9B040000 		.4byte	.LASF113
 1000 073f 0D       		.byte	0xd
 1001 0740 3E       		.byte	0x3e
 1002 0741 8A070000 		.4byte	0x78a
 1003 0745 0C       		.byte	0xc
 1004 0746 00       		.byte	0
 1005 0747 0C       		.uleb128 0xc
 1006 0748 04       		.byte	0x4
 1007 0749 16070000 		.4byte	0x716
 1008 074d 0C       		.uleb128 0xc
 1009 074e 04       		.byte	0x4
 1010 074f 5A070000 		.4byte	0x75a
 1011 0753 04       		.uleb128 0x4
 1012 0754 01       		.byte	0x1
 1013 0755 08       		.byte	0x8
 1014 0756 7C040000 		.4byte	.LASF114
 1015 075a 17       		.uleb128 0x17
 1016 075b 53070000 		.4byte	0x753
 1017 075f 05       		.uleb128 0x5
 1018 0760 36010000 		.4byte	0x136
 1019 0764 0C       		.uleb128 0xc
 1020 0765 04       		.byte	0x4
 1021 0766 98030000 		.4byte	0x398
 1022 076a 05       		.uleb128 0x5
 1023 076b 4D070000 		.4byte	0x74d
 1024 076f 18       		.uleb128 0x18
 1025 0770 56050000 		.4byte	0x556
 1026 0774 7F070000 		.4byte	0x77f
ARM GAS  C:\Users\IDONNO~1\AppData\Local\Temp\ccu5KOQd.s 			page 19


 1027 0778 19       		.uleb128 0x19
 1028 0779 CC040000 		.4byte	0x4cc
 1029 077d 3A       		.byte	0x3a
 1030 077e 00       		.byte	0
 1031 077f 03       		.uleb128 0x3
 1032 0780 C7010000 		.4byte	.LASF115
 1033 0784 0D       		.byte	0xd
 1034 0785 34       		.byte	0x34
 1035 0786 16070000 		.4byte	0x716
 1036 078a 0C       		.uleb128 0xc
 1037 078b 04       		.byte	0x4
 1038 078c 7F070000 		.4byte	0x77f
 1039 0790 04       		.uleb128 0x4
 1040 0791 01       		.byte	0x1
 1041 0792 02       		.byte	0x2
 1042 0793 73020000 		.4byte	.LASF116
 1043 0797 04       		.uleb128 0x4
 1044 0798 08       		.byte	0x8
 1045 0799 04       		.byte	0x4
 1046 079a AD060000 		.4byte	.LASF117
 1047 079e 04       		.uleb128 0x4
 1048 079f 04       		.byte	0x4
 1049 07a0 04       		.byte	0x4
 1050 07a1 67030000 		.4byte	.LASF118
 1051 07a5 04       		.uleb128 0x4
 1052 07a6 08       		.byte	0x8
 1053 07a7 04       		.byte	0x4
 1054 07a8 70040000 		.4byte	.LASF119
 1055 07ac 1A       		.uleb128 0x1a
 1056 07ad 03030000 		.4byte	.LASF132
 1057 07b1 01       		.byte	0x1
 1058 07b2 01       		.byte	0x1
 1059 07b3 19       		.byte	0x19
 1060 07b4 CF070000 		.4byte	0x7cf
 1061 07b8 1B       		.uleb128 0x1b
 1062 07b9 AD010000 		.4byte	.LASF133
 1063 07bd 01       		.byte	0x1
 1064 07be 1C       		.byte	0x1c
 1065 07bf A7020000 		.4byte	.LASF134
 1066 07c3 01       		.byte	0x1
 1067 07c4 C8070000 		.4byte	0x7c8
 1068 07c8 1C       		.uleb128 0x1c
 1069 07c9 CF070000 		.4byte	0x7cf
 1070 07cd 00       		.byte	0
 1071 07ce 00       		.byte	0
 1072 07cf 0C       		.uleb128 0xc
 1073 07d0 04       		.byte	0x4
 1074 07d1 AC070000 		.4byte	0x7ac
 1075 07d5 1D       		.uleb128 0x1d
 1076 07d6 B8070000 		.4byte	0x7b8
 1077 07da 20       		.byte	0x20
 1078 07db 01       		.byte	0x1
 1079 07dc E4070000 		.4byte	0x7e4
 1080 07e0 EE070000 		.4byte	0x7ee
 1081 07e4 1E       		.uleb128 0x1e
 1082 07e5 87010000 		.4byte	.LASF135
 1083 07e9 EE070000 		.4byte	0x7ee
ARM GAS  C:\Users\IDONNO~1\AppData\Local\Temp\ccu5KOQd.s 			page 20


 1084 07ed 00       		.byte	0
 1085 07ee 17       		.uleb128 0x17
 1086 07ef CF070000 		.4byte	0x7cf
 1087 07f3 1F       		.uleb128 0x1f
 1088 07f4 D5070000 		.4byte	0x7d5
 1089 07f8 A7020000 		.4byte	.LASF134
 1090 07fc 00000000 		.4byte	.LFB257
 1091 0800 02000000 		.4byte	.LFE257-.LFB257
 1092 0804 01       		.uleb128 0x1
 1093 0805 9C       		.byte	0x9c
 1094 0806 0E080000 		.4byte	0x80e
 1095 080a 16080000 		.4byte	0x816
 1096 080e 20       		.uleb128 0x20
 1097 080f E4070000 		.4byte	0x7e4
 1098 0813 01       		.uleb128 0x1
 1099 0814 50       		.byte	0x50
 1100 0815 00       		.byte	0
 1101 0816 21       		.uleb128 0x21
 1102 0817 92060000 		.4byte	.LASF136
 1103 081b 01       		.byte	0x1
 1104 081c 2F       		.byte	0x2f
 1105 081d 25000000 		.4byte	0x25
 1106 0821 00000000 		.4byte	.LFB258
 1107 0825 22000000 		.4byte	.LFE258-.LFB258
 1108 0829 01       		.uleb128 0x1
 1109 082a 9C       		.byte	0x9c
 1110 082b 79080000 		.4byte	0x879
 1111 082f 22       		.uleb128 0x22
 1112 0830 06000000 		.4byte	.LVL1
 1113 0834 A1080000 		.4byte	0x8a1
 1114 0838 22       		.uleb128 0x22
 1115 0839 0A000000 		.4byte	.LVL2
 1116 083d AC080000 		.4byte	0x8ac
 1117 0841 22       		.uleb128 0x22
 1118 0842 0E000000 		.4byte	.LVL3
 1119 0846 B7080000 		.4byte	0x8b7
 1120 084a 23       		.uleb128 0x23
 1121 084b 16000000 		.4byte	.LVL4
 1122 084f C2080000 		.4byte	0x8c2
 1123 0853 5F080000 		.4byte	0x85f
 1124 0857 24       		.uleb128 0x24
 1125 0858 01       		.uleb128 0x1
 1126 0859 50       		.byte	0x50
 1127 085a 03       		.uleb128 0x3
 1128 085b 0A       		.byte	0xa
 1129 085c E803     		.2byte	0x3e8
 1130 085e 00       		.byte	0
 1131 085f 22       		.uleb128 0x22
 1132 0860 1A000000 		.4byte	.LVL5
 1133 0864 CD080000 		.4byte	0x8cd
 1134 0868 25       		.uleb128 0x25
 1135 0869 20000000 		.4byte	.LVL6
 1136 086d D8080000 		.4byte	0x8d8
 1137 0871 24       		.uleb128 0x24
 1138 0872 01       		.uleb128 0x1
 1139 0873 50       		.byte	0x50
 1140 0874 02       		.uleb128 0x2
ARM GAS  C:\Users\IDONNO~1\AppData\Local\Temp\ccu5KOQd.s 			page 21


 1141 0875 08       		.byte	0x8
 1142 0876 64       		.byte	0x64
 1143 0877 00       		.byte	0
 1144 0878 00       		.byte	0
 1145 0879 26       		.uleb128 0x26
 1146 087a C3000000 		.4byte	.LASF120
 1147 087e 0E       		.byte	0xe
 1148 087f A706     		.2byte	0x6a7
 1149 0881 CE000000 		.4byte	0xce
 1150 0885 27       		.uleb128 0x27
 1151 0886 636800   		.ascii	"ch\000"
 1152 0889 07       		.byte	0x7
 1153 088a 0902     		.2byte	0x209
 1154 088c 65040000 		.4byte	0x465
 1155 0890 28       		.uleb128 0x28
 1156 0891 A8000000 		.4byte	.LASF121
 1157 0895 01       		.byte	0x1
 1158 0896 26       		.byte	0x26
 1159 0897 AC070000 		.4byte	0x7ac
 1160 089b 05       		.uleb128 0x5
 1161 089c 03       		.byte	0x3
 1162 089d 00000000 		.4byte	test
 1163 08a1 29       		.uleb128 0x29
 1164 08a2 D0000000 		.4byte	.LASF122
 1165 08a6 D0000000 		.4byte	.LASF122
 1166 08aa 0F       		.byte	0xf
 1167 08ab 3A       		.byte	0x3a
 1168 08ac 29       		.uleb128 0x29
 1169 08ad 18020000 		.4byte	.LASF123
 1170 08b1 18020000 		.4byte	.LASF123
 1171 08b5 10       		.byte	0x10
 1172 08b6 2A       		.byte	0x2a
 1173 08b7 29       		.uleb128 0x29
 1174 08b8 3F010000 		.4byte	.LASF124
 1175 08bc 3F010000 		.4byte	.LASF124
 1176 08c0 11       		.byte	0x11
 1177 08c1 24       		.byte	0x24
 1178 08c2 29       		.uleb128 0x29
 1179 08c3 F1020000 		.4byte	.LASF125
 1180 08c7 F1020000 		.4byte	.LASF125
 1181 08cb 11       		.byte	0x11
 1182 08cc 25       		.byte	0x25
 1183 08cd 29       		.uleb128 0x29
 1184 08ce 97060000 		.4byte	.LASF126
 1185 08d2 97060000 		.4byte	.LASF126
 1186 08d6 12       		.byte	0x12
 1187 08d7 28       		.byte	0x28
 1188 08d8 29       		.uleb128 0x29
 1189 08d9 F5040000 		.4byte	.LASF127
 1190 08dd F5040000 		.4byte	.LASF127
 1191 08e1 13       		.byte	0x13
 1192 08e2 96       		.byte	0x96
 1193 08e3 00       		.byte	0
 1194              		.section	.debug_abbrev,"",%progbits
 1195              	.Ldebug_abbrev0:
 1196 0000 01       		.uleb128 0x1
 1197 0001 11       		.uleb128 0x11
ARM GAS  C:\Users\IDONNO~1\AppData\Local\Temp\ccu5KOQd.s 			page 22


 1198 0002 01       		.byte	0x1
 1199 0003 25       		.uleb128 0x25
 1200 0004 0E       		.uleb128 0xe
 1201 0005 13       		.uleb128 0x13
 1202 0006 0B       		.uleb128 0xb
 1203 0007 03       		.uleb128 0x3
 1204 0008 0E       		.uleb128 0xe
 1205 0009 1B       		.uleb128 0x1b
 1206 000a 0E       		.uleb128 0xe
 1207 000b 55       		.uleb128 0x55
 1208 000c 17       		.uleb128 0x17
 1209 000d 11       		.uleb128 0x11
 1210 000e 01       		.uleb128 0x1
 1211 000f 10       		.uleb128 0x10
 1212 0010 17       		.uleb128 0x17
 1213 0011 00       		.byte	0
 1214 0012 00       		.byte	0
 1215 0013 02       		.uleb128 0x2
 1216 0014 24       		.uleb128 0x24
 1217 0015 00       		.byte	0
 1218 0016 0B       		.uleb128 0xb
 1219 0017 0B       		.uleb128 0xb
 1220 0018 3E       		.uleb128 0x3e
 1221 0019 0B       		.uleb128 0xb
 1222 001a 03       		.uleb128 0x3
 1223 001b 08       		.uleb128 0x8
 1224 001c 00       		.byte	0
 1225 001d 00       		.byte	0
 1226 001e 03       		.uleb128 0x3
 1227 001f 16       		.uleb128 0x16
 1228 0020 00       		.byte	0
 1229 0021 03       		.uleb128 0x3
 1230 0022 0E       		.uleb128 0xe
 1231 0023 3A       		.uleb128 0x3a
 1232 0024 0B       		.uleb128 0xb
 1233 0025 3B       		.uleb128 0x3b
 1234 0026 0B       		.uleb128 0xb
 1235 0027 49       		.uleb128 0x49
 1236 0028 13       		.uleb128 0x13
 1237 0029 00       		.byte	0
 1238 002a 00       		.byte	0
 1239 002b 04       		.uleb128 0x4
 1240 002c 24       		.uleb128 0x24
 1241 002d 00       		.byte	0
 1242 002e 0B       		.uleb128 0xb
 1243 002f 0B       		.uleb128 0xb
 1244 0030 3E       		.uleb128 0x3e
 1245 0031 0B       		.uleb128 0xb
 1246 0032 03       		.uleb128 0x3
 1247 0033 0E       		.uleb128 0xe
 1248 0034 00       		.byte	0
 1249 0035 00       		.byte	0
 1250 0036 05       		.uleb128 0x5
 1251 0037 35       		.uleb128 0x35
 1252 0038 00       		.byte	0
 1253 0039 49       		.uleb128 0x49
 1254 003a 13       		.uleb128 0x13
ARM GAS  C:\Users\IDONNO~1\AppData\Local\Temp\ccu5KOQd.s 			page 23


 1255 003b 00       		.byte	0
 1256 003c 00       		.byte	0
 1257 003d 06       		.uleb128 0x6
 1258 003e 13       		.uleb128 0x13
 1259 003f 01       		.byte	0x1
 1260 0040 03       		.uleb128 0x3
 1261 0041 0E       		.uleb128 0xe
 1262 0042 0B       		.uleb128 0xb
 1263 0043 0B       		.uleb128 0xb
 1264 0044 3A       		.uleb128 0x3a
 1265 0045 0B       		.uleb128 0xb
 1266 0046 3B       		.uleb128 0x3b
 1267 0047 0B       		.uleb128 0xb
 1268 0048 01       		.uleb128 0x1
 1269 0049 13       		.uleb128 0x13
 1270 004a 00       		.byte	0
 1271 004b 00       		.byte	0
 1272 004c 07       		.uleb128 0x7
 1273 004d 17       		.uleb128 0x17
 1274 004e 01       		.byte	0x1
 1275 004f 0B       		.uleb128 0xb
 1276 0050 0B       		.uleb128 0xb
 1277 0051 3A       		.uleb128 0x3a
 1278 0052 0B       		.uleb128 0xb
 1279 0053 3B       		.uleb128 0x3b
 1280 0054 0B       		.uleb128 0xb
 1281 0055 01       		.uleb128 0x1
 1282 0056 13       		.uleb128 0x13
 1283 0057 00       		.byte	0
 1284 0058 00       		.byte	0
 1285 0059 08       		.uleb128 0x8
 1286 005a 0D       		.uleb128 0xd
 1287 005b 00       		.byte	0
 1288 005c 03       		.uleb128 0x3
 1289 005d 0E       		.uleb128 0xe
 1290 005e 3A       		.uleb128 0x3a
 1291 005f 0B       		.uleb128 0xb
 1292 0060 3B       		.uleb128 0x3b
 1293 0061 05       		.uleb128 0x5
 1294 0062 49       		.uleb128 0x49
 1295 0063 13       		.uleb128 0x13
 1296 0064 00       		.byte	0
 1297 0065 00       		.byte	0
 1298 0066 09       		.uleb128 0x9
 1299 0067 0D       		.uleb128 0xd
 1300 0068 00       		.byte	0
 1301 0069 03       		.uleb128 0x3
 1302 006a 0E       		.uleb128 0xe
 1303 006b 3A       		.uleb128 0x3a
 1304 006c 0B       		.uleb128 0xb
 1305 006d 3B       		.uleb128 0x3b
 1306 006e 0B       		.uleb128 0xb
 1307 006f 49       		.uleb128 0x49
 1308 0070 13       		.uleb128 0x13
 1309 0071 38       		.uleb128 0x38
 1310 0072 0B       		.uleb128 0xb
 1311 0073 00       		.byte	0
ARM GAS  C:\Users\IDONNO~1\AppData\Local\Temp\ccu5KOQd.s 			page 24


 1312 0074 00       		.byte	0
 1313 0075 0A       		.uleb128 0xa
 1314 0076 0D       		.uleb128 0xd
 1315 0077 00       		.byte	0
 1316 0078 03       		.uleb128 0x3
 1317 0079 08       		.uleb128 0x8
 1318 007a 3A       		.uleb128 0x3a
 1319 007b 0B       		.uleb128 0xb
 1320 007c 3B       		.uleb128 0x3b
 1321 007d 05       		.uleb128 0x5
 1322 007e 49       		.uleb128 0x49
 1323 007f 13       		.uleb128 0x13
 1324 0080 38       		.uleb128 0x38
 1325 0081 0B       		.uleb128 0xb
 1326 0082 00       		.byte	0
 1327 0083 00       		.byte	0
 1328 0084 0B       		.uleb128 0xb
 1329 0085 0D       		.uleb128 0xd
 1330 0086 00       		.byte	0
 1331 0087 03       		.uleb128 0x3
 1332 0088 0E       		.uleb128 0xe
 1333 0089 3A       		.uleb128 0x3a
 1334 008a 0B       		.uleb128 0xb
 1335 008b 3B       		.uleb128 0x3b
 1336 008c 05       		.uleb128 0x5
 1337 008d 49       		.uleb128 0x49
 1338 008e 13       		.uleb128 0x13
 1339 008f 38       		.uleb128 0x38
 1340 0090 0B       		.uleb128 0xb
 1341 0091 00       		.byte	0
 1342 0092 00       		.byte	0
 1343 0093 0C       		.uleb128 0xc
 1344 0094 0F       		.uleb128 0xf
 1345 0095 00       		.byte	0
 1346 0096 0B       		.uleb128 0xb
 1347 0097 0B       		.uleb128 0xb
 1348 0098 49       		.uleb128 0x49
 1349 0099 13       		.uleb128 0x13
 1350 009a 00       		.byte	0
 1351 009b 00       		.byte	0
 1352 009c 0D       		.uleb128 0xd
 1353 009d 13       		.uleb128 0x13
 1354 009e 01       		.byte	0x1
 1355 009f 03       		.uleb128 0x3
 1356 00a0 0E       		.uleb128 0xe
 1357 00a1 0B       		.uleb128 0xb
 1358 00a2 0B       		.uleb128 0xb
 1359 00a3 3A       		.uleb128 0x3a
 1360 00a4 0B       		.uleb128 0xb
 1361 00a5 3B       		.uleb128 0x3b
 1362 00a6 05       		.uleb128 0x5
 1363 00a7 01       		.uleb128 0x1
 1364 00a8 13       		.uleb128 0x13
 1365 00a9 00       		.byte	0
 1366 00aa 00       		.byte	0
 1367 00ab 0E       		.uleb128 0xe
 1368 00ac 15       		.uleb128 0x15
ARM GAS  C:\Users\IDONNO~1\AppData\Local\Temp\ccu5KOQd.s 			page 25


 1369 00ad 01       		.byte	0x1
 1370 00ae 01       		.uleb128 0x1
 1371 00af 13       		.uleb128 0x13
 1372 00b0 00       		.byte	0
 1373 00b1 00       		.byte	0
 1374 00b2 0F       		.uleb128 0xf
 1375 00b3 05       		.uleb128 0x5
 1376 00b4 00       		.byte	0
 1377 00b5 49       		.uleb128 0x49
 1378 00b6 13       		.uleb128 0x13
 1379 00b7 00       		.byte	0
 1380 00b8 00       		.byte	0
 1381 00b9 10       		.uleb128 0x10
 1382 00ba 0F       		.uleb128 0xf
 1383 00bb 00       		.byte	0
 1384 00bc 0B       		.uleb128 0xb
 1385 00bd 0B       		.uleb128 0xb
 1386 00be 00       		.byte	0
 1387 00bf 00       		.byte	0
 1388 00c0 11       		.uleb128 0x11
 1389 00c1 13       		.uleb128 0x13
 1390 00c2 01       		.byte	0x1
 1391 00c3 03       		.uleb128 0x3
 1392 00c4 0E       		.uleb128 0xe
 1393 00c5 0B       		.uleb128 0xb
 1394 00c6 05       		.uleb128 0x5
 1395 00c7 3A       		.uleb128 0x3a
 1396 00c8 0B       		.uleb128 0xb
 1397 00c9 3B       		.uleb128 0x3b
 1398 00ca 05       		.uleb128 0x5
 1399 00cb 01       		.uleb128 0x1
 1400 00cc 13       		.uleb128 0x13
 1401 00cd 00       		.byte	0
 1402 00ce 00       		.byte	0
 1403 00cf 12       		.uleb128 0x12
 1404 00d0 04       		.uleb128 0x4
 1405 00d1 01       		.byte	0x1
 1406 00d2 0B       		.uleb128 0xb
 1407 00d3 0B       		.uleb128 0xb
 1408 00d4 49       		.uleb128 0x49
 1409 00d5 13       		.uleb128 0x13
 1410 00d6 3A       		.uleb128 0x3a
 1411 00d7 0B       		.uleb128 0xb
 1412 00d8 3B       		.uleb128 0x3b
 1413 00d9 0B       		.uleb128 0xb
 1414 00da 6E       		.uleb128 0x6e
 1415 00db 0E       		.uleb128 0xe
 1416 00dc 01       		.uleb128 0x1
 1417 00dd 13       		.uleb128 0x13
 1418 00de 00       		.byte	0
 1419 00df 00       		.byte	0
 1420 00e0 13       		.uleb128 0x13
 1421 00e1 28       		.uleb128 0x28
 1422 00e2 00       		.byte	0
 1423 00e3 03       		.uleb128 0x3
 1424 00e4 0E       		.uleb128 0xe
 1425 00e5 1C       		.uleb128 0x1c
ARM GAS  C:\Users\IDONNO~1\AppData\Local\Temp\ccu5KOQd.s 			page 26


 1426 00e6 0B       		.uleb128 0xb
 1427 00e7 00       		.byte	0
 1428 00e8 00       		.byte	0
 1429 00e9 14       		.uleb128 0x14
 1430 00ea 28       		.uleb128 0x28
 1431 00eb 00       		.byte	0
 1432 00ec 03       		.uleb128 0x3
 1433 00ed 08       		.uleb128 0x8
 1434 00ee 1C       		.uleb128 0x1c
 1435 00ef 0B       		.uleb128 0xb
 1436 00f0 00       		.byte	0
 1437 00f1 00       		.byte	0
 1438 00f2 15       		.uleb128 0x15
 1439 00f3 0D       		.uleb128 0xd
 1440 00f4 00       		.byte	0
 1441 00f5 03       		.uleb128 0x3
 1442 00f6 08       		.uleb128 0x8
 1443 00f7 3A       		.uleb128 0x3a
 1444 00f8 0B       		.uleb128 0xb
 1445 00f9 3B       		.uleb128 0x3b
 1446 00fa 0B       		.uleb128 0xb
 1447 00fb 49       		.uleb128 0x49
 1448 00fc 13       		.uleb128 0x13
 1449 00fd 38       		.uleb128 0x38
 1450 00fe 0B       		.uleb128 0xb
 1451 00ff 00       		.byte	0
 1452 0100 00       		.byte	0
 1453 0101 16       		.uleb128 0x16
 1454 0102 13       		.uleb128 0x13
 1455 0103 01       		.byte	0x1
 1456 0104 0B       		.uleb128 0xb
 1457 0105 0B       		.uleb128 0xb
 1458 0106 3A       		.uleb128 0x3a
 1459 0107 0B       		.uleb128 0xb
 1460 0108 3B       		.uleb128 0x3b
 1461 0109 0B       		.uleb128 0xb
 1462 010a 6E       		.uleb128 0x6e
 1463 010b 0E       		.uleb128 0xe
 1464 010c 01       		.uleb128 0x1
 1465 010d 13       		.uleb128 0x13
 1466 010e 00       		.byte	0
 1467 010f 00       		.byte	0
 1468 0110 17       		.uleb128 0x17
 1469 0111 26       		.uleb128 0x26
 1470 0112 00       		.byte	0
 1471 0113 49       		.uleb128 0x49
 1472 0114 13       		.uleb128 0x13
 1473 0115 00       		.byte	0
 1474 0116 00       		.byte	0
 1475 0117 18       		.uleb128 0x18
 1476 0118 01       		.uleb128 0x1
 1477 0119 01       		.byte	0x1
 1478 011a 49       		.uleb128 0x49
 1479 011b 13       		.uleb128 0x13
 1480 011c 01       		.uleb128 0x1
 1481 011d 13       		.uleb128 0x13
 1482 011e 00       		.byte	0
ARM GAS  C:\Users\IDONNO~1\AppData\Local\Temp\ccu5KOQd.s 			page 27


 1483 011f 00       		.byte	0
 1484 0120 19       		.uleb128 0x19
 1485 0121 21       		.uleb128 0x21
 1486 0122 00       		.byte	0
 1487 0123 49       		.uleb128 0x49
 1488 0124 13       		.uleb128 0x13
 1489 0125 2F       		.uleb128 0x2f
 1490 0126 0B       		.uleb128 0xb
 1491 0127 00       		.byte	0
 1492 0128 00       		.byte	0
 1493 0129 1A       		.uleb128 0x1a
 1494 012a 02       		.uleb128 0x2
 1495 012b 01       		.byte	0x1
 1496 012c 03       		.uleb128 0x3
 1497 012d 0E       		.uleb128 0xe
 1498 012e 0B       		.uleb128 0xb
 1499 012f 0B       		.uleb128 0xb
 1500 0130 3A       		.uleb128 0x3a
 1501 0131 0B       		.uleb128 0xb
 1502 0132 3B       		.uleb128 0x3b
 1503 0133 0B       		.uleb128 0xb
 1504 0134 01       		.uleb128 0x1
 1505 0135 13       		.uleb128 0x13
 1506 0136 00       		.byte	0
 1507 0137 00       		.byte	0
 1508 0138 1B       		.uleb128 0x1b
 1509 0139 2E       		.uleb128 0x2e
 1510 013a 01       		.byte	0x1
 1511 013b 3F       		.uleb128 0x3f
 1512 013c 19       		.uleb128 0x19
 1513 013d 03       		.uleb128 0x3
 1514 013e 0E       		.uleb128 0xe
 1515 013f 3A       		.uleb128 0x3a
 1516 0140 0B       		.uleb128 0xb
 1517 0141 3B       		.uleb128 0x3b
 1518 0142 0B       		.uleb128 0xb
 1519 0143 6E       		.uleb128 0x6e
 1520 0144 0E       		.uleb128 0xe
 1521 0145 32       		.uleb128 0x32
 1522 0146 0B       		.uleb128 0xb
 1523 0147 3C       		.uleb128 0x3c
 1524 0148 19       		.uleb128 0x19
 1525 0149 64       		.uleb128 0x64
 1526 014a 13       		.uleb128 0x13
 1527 014b 00       		.byte	0
 1528 014c 00       		.byte	0
 1529 014d 1C       		.uleb128 0x1c
 1530 014e 05       		.uleb128 0x5
 1531 014f 00       		.byte	0
 1532 0150 49       		.uleb128 0x49
 1533 0151 13       		.uleb128 0x13
 1534 0152 34       		.uleb128 0x34
 1535 0153 19       		.uleb128 0x19
 1536 0154 00       		.byte	0
 1537 0155 00       		.byte	0
 1538 0156 1D       		.uleb128 0x1d
 1539 0157 2E       		.uleb128 0x2e
ARM GAS  C:\Users\IDONNO~1\AppData\Local\Temp\ccu5KOQd.s 			page 28


 1540 0158 01       		.byte	0x1
 1541 0159 47       		.uleb128 0x47
 1542 015a 13       		.uleb128 0x13
 1543 015b 3B       		.uleb128 0x3b
 1544 015c 0B       		.uleb128 0xb
 1545 015d 20       		.uleb128 0x20
 1546 015e 0B       		.uleb128 0xb
 1547 015f 64       		.uleb128 0x64
 1548 0160 13       		.uleb128 0x13
 1549 0161 01       		.uleb128 0x1
 1550 0162 13       		.uleb128 0x13
 1551 0163 00       		.byte	0
 1552 0164 00       		.byte	0
 1553 0165 1E       		.uleb128 0x1e
 1554 0166 05       		.uleb128 0x5
 1555 0167 00       		.byte	0
 1556 0168 03       		.uleb128 0x3
 1557 0169 0E       		.uleb128 0xe
 1558 016a 49       		.uleb128 0x49
 1559 016b 13       		.uleb128 0x13
 1560 016c 34       		.uleb128 0x34
 1561 016d 19       		.uleb128 0x19
 1562 016e 00       		.byte	0
 1563 016f 00       		.byte	0
 1564 0170 1F       		.uleb128 0x1f
 1565 0171 2E       		.uleb128 0x2e
 1566 0172 01       		.byte	0x1
 1567 0173 31       		.uleb128 0x31
 1568 0174 13       		.uleb128 0x13
 1569 0175 6E       		.uleb128 0x6e
 1570 0176 0E       		.uleb128 0xe
 1571 0177 11       		.uleb128 0x11
 1572 0178 01       		.uleb128 0x1
 1573 0179 12       		.uleb128 0x12
 1574 017a 06       		.uleb128 0x6
 1575 017b 40       		.uleb128 0x40
 1576 017c 18       		.uleb128 0x18
 1577 017d 64       		.uleb128 0x64
 1578 017e 13       		.uleb128 0x13
 1579 017f 9742     		.uleb128 0x2117
 1580 0181 19       		.uleb128 0x19
 1581 0182 01       		.uleb128 0x1
 1582 0183 13       		.uleb128 0x13
 1583 0184 00       		.byte	0
 1584 0185 00       		.byte	0
 1585 0186 20       		.uleb128 0x20
 1586 0187 05       		.uleb128 0x5
 1587 0188 00       		.byte	0
 1588 0189 31       		.uleb128 0x31
 1589 018a 13       		.uleb128 0x13
 1590 018b 02       		.uleb128 0x2
 1591 018c 18       		.uleb128 0x18
 1592 018d 00       		.byte	0
 1593 018e 00       		.byte	0
 1594 018f 21       		.uleb128 0x21
 1595 0190 2E       		.uleb128 0x2e
 1596 0191 01       		.byte	0x1
ARM GAS  C:\Users\IDONNO~1\AppData\Local\Temp\ccu5KOQd.s 			page 29


 1597 0192 3F       		.uleb128 0x3f
 1598 0193 19       		.uleb128 0x19
 1599 0194 03       		.uleb128 0x3
 1600 0195 0E       		.uleb128 0xe
 1601 0196 3A       		.uleb128 0x3a
 1602 0197 0B       		.uleb128 0xb
 1603 0198 3B       		.uleb128 0x3b
 1604 0199 0B       		.uleb128 0xb
 1605 019a 49       		.uleb128 0x49
 1606 019b 13       		.uleb128 0x13
 1607 019c 8701     		.uleb128 0x87
 1608 019e 19       		.uleb128 0x19
 1609 019f 11       		.uleb128 0x11
 1610 01a0 01       		.uleb128 0x1
 1611 01a1 12       		.uleb128 0x12
 1612 01a2 06       		.uleb128 0x6
 1613 01a3 40       		.uleb128 0x40
 1614 01a4 18       		.uleb128 0x18
 1615 01a5 9742     		.uleb128 0x2117
 1616 01a7 19       		.uleb128 0x19
 1617 01a8 01       		.uleb128 0x1
 1618 01a9 13       		.uleb128 0x13
 1619 01aa 00       		.byte	0
 1620 01ab 00       		.byte	0
 1621 01ac 22       		.uleb128 0x22
 1622 01ad 898201   		.uleb128 0x4109
 1623 01b0 00       		.byte	0
 1624 01b1 11       		.uleb128 0x11
 1625 01b2 01       		.uleb128 0x1
 1626 01b3 31       		.uleb128 0x31
 1627 01b4 13       		.uleb128 0x13
 1628 01b5 00       		.byte	0
 1629 01b6 00       		.byte	0
 1630 01b7 23       		.uleb128 0x23
 1631 01b8 898201   		.uleb128 0x4109
 1632 01bb 01       		.byte	0x1
 1633 01bc 11       		.uleb128 0x11
 1634 01bd 01       		.uleb128 0x1
 1635 01be 31       		.uleb128 0x31
 1636 01bf 13       		.uleb128 0x13
 1637 01c0 01       		.uleb128 0x1
 1638 01c1 13       		.uleb128 0x13
 1639 01c2 00       		.byte	0
 1640 01c3 00       		.byte	0
 1641 01c4 24       		.uleb128 0x24
 1642 01c5 8A8201   		.uleb128 0x410a
 1643 01c8 00       		.byte	0
 1644 01c9 02       		.uleb128 0x2
 1645 01ca 18       		.uleb128 0x18
 1646 01cb 9142     		.uleb128 0x2111
 1647 01cd 18       		.uleb128 0x18
 1648 01ce 00       		.byte	0
 1649 01cf 00       		.byte	0
 1650 01d0 25       		.uleb128 0x25
 1651 01d1 898201   		.uleb128 0x4109
 1652 01d4 01       		.byte	0x1
 1653 01d5 11       		.uleb128 0x11
ARM GAS  C:\Users\IDONNO~1\AppData\Local\Temp\ccu5KOQd.s 			page 30


 1654 01d6 01       		.uleb128 0x1
 1655 01d7 31       		.uleb128 0x31
 1656 01d8 13       		.uleb128 0x13
 1657 01d9 00       		.byte	0
 1658 01da 00       		.byte	0
 1659 01db 26       		.uleb128 0x26
 1660 01dc 34       		.uleb128 0x34
 1661 01dd 00       		.byte	0
 1662 01de 03       		.uleb128 0x3
 1663 01df 0E       		.uleb128 0xe
 1664 01e0 3A       		.uleb128 0x3a
 1665 01e1 0B       		.uleb128 0xb
 1666 01e2 3B       		.uleb128 0x3b
 1667 01e3 05       		.uleb128 0x5
 1668 01e4 49       		.uleb128 0x49
 1669 01e5 13       		.uleb128 0x13
 1670 01e6 3F       		.uleb128 0x3f
 1671 01e7 19       		.uleb128 0x19
 1672 01e8 3C       		.uleb128 0x3c
 1673 01e9 19       		.uleb128 0x19
 1674 01ea 00       		.byte	0
 1675 01eb 00       		.byte	0
 1676 01ec 27       		.uleb128 0x27
 1677 01ed 34       		.uleb128 0x34
 1678 01ee 00       		.byte	0
 1679 01ef 03       		.uleb128 0x3
 1680 01f0 08       		.uleb128 0x8
 1681 01f1 3A       		.uleb128 0x3a
 1682 01f2 0B       		.uleb128 0xb
 1683 01f3 3B       		.uleb128 0x3b
 1684 01f4 05       		.uleb128 0x5
 1685 01f5 49       		.uleb128 0x49
 1686 01f6 13       		.uleb128 0x13
 1687 01f7 3F       		.uleb128 0x3f
 1688 01f8 19       		.uleb128 0x19
 1689 01f9 3C       		.uleb128 0x3c
 1690 01fa 19       		.uleb128 0x19
 1691 01fb 00       		.byte	0
 1692 01fc 00       		.byte	0
 1693 01fd 28       		.uleb128 0x28
 1694 01fe 34       		.uleb128 0x34
 1695 01ff 00       		.byte	0
 1696 0200 03       		.uleb128 0x3
 1697 0201 0E       		.uleb128 0xe
 1698 0202 3A       		.uleb128 0x3a
 1699 0203 0B       		.uleb128 0xb
 1700 0204 3B       		.uleb128 0x3b
 1701 0205 0B       		.uleb128 0xb
 1702 0206 49       		.uleb128 0x49
 1703 0207 13       		.uleb128 0x13
 1704 0208 3F       		.uleb128 0x3f
 1705 0209 19       		.uleb128 0x19
 1706 020a 02       		.uleb128 0x2
 1707 020b 18       		.uleb128 0x18
 1708 020c 00       		.byte	0
 1709 020d 00       		.byte	0
 1710 020e 29       		.uleb128 0x29
ARM GAS  C:\Users\IDONNO~1\AppData\Local\Temp\ccu5KOQd.s 			page 31


 1711 020f 2E       		.uleb128 0x2e
 1712 0210 00       		.byte	0
 1713 0211 3F       		.uleb128 0x3f
 1714 0212 19       		.uleb128 0x19
 1715 0213 3C       		.uleb128 0x3c
 1716 0214 19       		.uleb128 0x19
 1717 0215 6E       		.uleb128 0x6e
 1718 0216 0E       		.uleb128 0xe
 1719 0217 03       		.uleb128 0x3
 1720 0218 0E       		.uleb128 0xe
 1721 0219 3A       		.uleb128 0x3a
 1722 021a 0B       		.uleb128 0xb
 1723 021b 3B       		.uleb128 0x3b
 1724 021c 0B       		.uleb128 0xb
 1725 021d 00       		.byte	0
 1726 021e 00       		.byte	0
 1727 021f 00       		.byte	0
 1728              		.section	.debug_aranges,"",%progbits
 1729 0000 24000000 		.4byte	0x24
 1730 0004 0200     		.2byte	0x2
 1731 0006 00000000 		.4byte	.Ldebug_info0
 1732 000a 04       		.byte	0x4
 1733 000b 00       		.byte	0
 1734 000c 0000     		.2byte	0
 1735 000e 0000     		.2byte	0
 1736 0010 00000000 		.4byte	.LFB257
 1737 0014 02000000 		.4byte	.LFE257-.LFB257
 1738 0018 00000000 		.4byte	.LFB258
 1739 001c 22000000 		.4byte	.LFE258-.LFB258
 1740 0020 00000000 		.4byte	0
 1741 0024 00000000 		.4byte	0
 1742              		.section	.debug_ranges,"",%progbits
 1743              	.Ldebug_ranges0:
 1744 0000 00000000 		.4byte	.LFB257
 1745 0004 02000000 		.4byte	.LFE257
 1746 0008 00000000 		.4byte	.LFB258
 1747 000c 22000000 		.4byte	.LFE258
 1748 0010 00000000 		.4byte	0
 1749 0014 00000000 		.4byte	0
 1750              		.section	.debug_line,"",%progbits
 1751              	.Ldebug_line0:
 1752 0000 1C030000 		.section	.debug_str,"MS",%progbits,1
 1752      0200ED02 
 1752      00000201 
 1752      FB0E0D00 
 1752      01010101 
 1753              	.LASF61:
 1754 0000 72656164 		.ascii	"ready_list_t\000"
 1754      795F6C69 
 1754      73745F74 
 1754      00
 1755              	.LASF97:
 1756 000d 31314572 		.ascii	"11ErrorStatus\000"
 1756      726F7253 
 1756      74617475 
 1756      7300
 1757              	.LASF2:
ARM GAS  C:\Users\IDONNO~1\AppData\Local\Temp\ccu5KOQd.s 			page 32


 1758 001b 73697A65 		.ascii	"size_t\000"
 1758      5F7400
 1759              	.LASF29:
 1760 0022 7264796D 		.ascii	"rdymsg\000"
 1760      736700
 1761              	.LASF91:
 1762 0029 466C6167 		.ascii	"FlagStatus\000"
 1762      53746174 
 1762      757300
 1763              	.LASF17:
 1764 0034 75696E74 		.ascii	"uint64_t\000"
 1764      36345F74 
 1764      00
 1765              	.LASF3:
 1766 003d 5F5F7569 		.ascii	"__uint8_t\000"
 1766      6E74385F 
 1766      7400
 1767              	.LASF104:
 1768 0047 706F7274 		.ascii	"port_intctx\000"
 1768      5F696E74 
 1768      63747800 
 1769              	.LASF86:
 1770 0053 76746C69 		.ascii	"vtlist\000"
 1770      737400
 1771              	.LASF94:
 1772 005a 44495341 		.ascii	"DISABLE\000"
 1772      424C4500 
 1773              	.LASF130:
 1774 0062 443A5C67 		.ascii	"D:\\git\\oroca_bldc_dev\\oroca_bldc_FW\000"
 1774      69745C6F 
 1774      726F6361 
 1774      5F626C64 
 1774      635F6465 
 1775              	.LASF13:
 1776 0086 6C6F6E67 		.ascii	"long long unsigned int\000"
 1776      206C6F6E 
 1776      6720756E 
 1776      7369676E 
 1776      65642069 
 1777              	.LASF87:
 1778 009d 6D61696E 		.ascii	"mainthread\000"
 1778      74687265 
 1778      616400
 1779              	.LASF121:
 1780 00a8 74657374 		.ascii	"test\000"
 1780      00
 1781              	.LASF77:
 1782 00ad 76697274 		.ascii	"virtual_timers_list_t\000"
 1782      75616C5F 
 1782      74696D65 
 1782      72735F6C 
 1782      6973745F 
 1783              	.LASF120:
 1784 00c3 49544D5F 		.ascii	"ITM_RxBuffer\000"
 1784      52784275 
 1784      66666572 
 1784      00
ARM GAS  C:\Users\IDONNO~1\AppData\Local\Temp\ccu5KOQd.s 			page 33


 1785              	.LASF122:
 1786 00d0 626C6463 		.ascii	"bldc_init\000"
 1786      5F696E69 
 1786      7400
 1787              	.LASF60:
 1788 00da 63685F74 		.ascii	"ch_threads_queue\000"
 1788      68726561 
 1788      64735F71 
 1788      75657565 
 1788      00
 1789              	.LASF38:
 1790 00eb 705F7072 		.ascii	"p_prio\000"
 1790      696F00
 1791              	.LASF11:
 1792 00f2 6C6F6E67 		.ascii	"long long int\000"
 1792      206C6F6E 
 1792      6720696E 
 1792      7400
 1793              	.LASF1:
 1794 0100 7369676E 		.ascii	"signed char\000"
 1794      65642063 
 1794      68617200 
 1795              	.LASF10:
 1796 010c 6C6F6E67 		.ascii	"long unsigned int\000"
 1796      20756E73 
 1796      69676E65 
 1796      6420696E 
 1796      7400
 1797              	.LASF54:
 1798 011e 705F6D70 		.ascii	"p_mpool\000"
 1798      6F6F6C00 
 1799              	.LASF111:
 1800 0126 6D5F7175 		.ascii	"m_queue\000"
 1800      65756500 
 1801              	.LASF31:
 1802 012e 77746F62 		.ascii	"wtobjp\000"
 1802      6A7000
 1803              	.LASF22:
 1804 0135 74736C69 		.ascii	"tslices_t\000"
 1804      6365735F 
 1804      7400
 1805              	.LASF124:
 1806 013f 74696D65 		.ascii	"timeout_init\000"
 1806      6F75745F 
 1806      696E6974 
 1806      00
 1807              	.LASF32:
 1808 014c 77747472 		.ascii	"wttrp\000"
 1808      7000
 1809              	.LASF84:
 1810 0152 63685F73 		.ascii	"ch_system\000"
 1810      79737465 
 1810      6D00
 1811              	.LASF8:
 1812 015c 6C6F6E67 		.ascii	"long int\000"
 1812      20696E74 
 1812      00
ARM GAS  C:\Users\IDONNO~1\AppData\Local\Temp\ccu5KOQd.s 			page 34


 1813              	.LASF95:
 1814 0165 454E4142 		.ascii	"ENABLE\000"
 1814      4C4500
 1815              	.LASF20:
 1816 016c 74737461 		.ascii	"tstate_t\000"
 1816      74655F74 
 1816      00
 1817              	.LASF93:
 1818 0175 31354675 		.ascii	"15FunctionalState\000"
 1818      6E637469 
 1818      6F6E616C 
 1818      53746174 
 1818      6500
 1819              	.LASF135:
 1820 0187 74686973 		.ascii	"this\000"
 1820      00
 1821              	.LASF40:
 1822 018c 705F6E65 		.ascii	"p_newer\000"
 1822      77657200 
 1823              	.LASF108:
 1824 0194 735F7175 		.ascii	"s_queue\000"
 1824      65756500 
 1825              	.LASF30:
 1826 019c 65786974 		.ascii	"exitcode\000"
 1826      636F6465 
 1826      00
 1827              	.LASF66:
 1828 01a5 725F6E65 		.ascii	"r_newer\000"
 1828      77657200 
 1829              	.LASF133:
 1830 01ad 7072696E 		.ascii	"print\000"
 1830      7400
 1831              	.LASF100:
 1832 01b3 4572726F 		.ascii	"ErrorStatus\000"
 1832      72537461 
 1832      74757300 
 1833              	.LASF73:
 1834 01bf 76745F70 		.ascii	"vt_prev\000"
 1834      72657600 
 1835              	.LASF115:
 1836 01c7 6D757465 		.ascii	"mutex_t\000"
 1836      785F7400 
 1837              	.LASF88:
 1838 01cf 69646C65 		.ascii	"idle_thread_wa\000"
 1838      5F746872 
 1838      6561645F 
 1838      776100
 1839              	.LASF26:
 1840 01de 636E745F 		.ascii	"cnt_t\000"
 1840      7400
 1841              	.LASF0:
 1842 01e4 756E7369 		.ascii	"unsigned int\000"
 1842      676E6564 
 1842      20696E74 
 1842      00
 1843              	.LASF72:
 1844 01f1 76745F6E 		.ascii	"vt_next\000"
ARM GAS  C:\Users\IDONNO~1\AppData\Local\Temp\ccu5KOQd.s 			page 35


 1844      65787400 
 1845              	.LASF33:
 1846 01f9 77747365 		.ascii	"wtsemp\000"
 1846      6D7000
 1847              	.LASF74:
 1848 0200 76745F64 		.ascii	"vt_delta\000"
 1848      656C7461 
 1848      00
 1849              	.LASF80:
 1850 0209 73797374 		.ascii	"system_debug_t\000"
 1850      656D5F64 
 1850      65627567 
 1850      5F7400
 1851              	.LASF123:
 1852 0218 6170705F 		.ascii	"app_init\000"
 1852      696E6974 
 1852      00
 1853              	.LASF109:
 1854 0221 735F636E 		.ascii	"s_cnt\000"
 1854      7400
 1855              	.LASF103:
 1856 0227 636F6E74 		.ascii	"context\000"
 1856      65787400 
 1857              	.LASF6:
 1858 022f 73686F72 		.ascii	"short unsigned int\000"
 1858      7420756E 
 1858      7369676E 
 1858      65642069 
 1858      6E7400
 1859              	.LASF57:
 1860 0242 63685F74 		.ascii	"ch_thread\000"
 1860      68726561 
 1860      6400
 1861              	.LASF24:
 1862 024c 6D73675F 		.ascii	"msg_t\000"
 1862      7400
 1863              	.LASF92:
 1864 0252 3130466C 		.ascii	"10FlagStatus\000"
 1864      61675374 
 1864      61747573 
 1864      00
 1865              	.LASF83:
 1866 025f 63685F73 		.ascii	"ch_system_t\000"
 1866      79737465 
 1866      6D5F7400 
 1867              	.LASF19:
 1868 026b 746D6F64 		.ascii	"tmode_t\000"
 1868      655F7400 
 1869              	.LASF116:
 1870 0273 626F6F6C 		.ascii	"bool\000"
 1870      00
 1871              	.LASF62:
 1872 0278 63685F72 		.ascii	"ch_ready_list\000"
 1872      65616479 
 1872      5F6C6973 
 1872      7400
 1873              	.LASF25:
ARM GAS  C:\Users\IDONNO~1\AppData\Local\Temp\ccu5KOQd.s 			page 36


 1874 0286 6576656E 		.ascii	"eventmask_t\000"
 1874      746D6173 
 1874      6B5F7400 
 1875              	.LASF7:
 1876 0292 5F5F696E 		.ascii	"__int32_t\000"
 1876      7433325F 
 1876      7400
 1877              	.LASF102:
 1878 029c 73746B61 		.ascii	"stkalign_t\000"
 1878      6C69676E 
 1878      5F7400
 1879              	.LASF134:
 1880 02a7 5F5A4E35 		.ascii	"_ZN5cTest5printEv\000"
 1880      63546573 
 1880      74357072 
 1880      696E7445 
 1880      7600
 1881              	.LASF18:
 1882 02b9 7274636E 		.ascii	"rtcnt_t\000"
 1882      745F7400 
 1883              	.LASF55:
 1884 02c1 74687265 		.ascii	"thread_reference_t\000"
 1884      61645F72 
 1884      65666572 
 1884      656E6365 
 1884      5F7400
 1885              	.LASF78:
 1886 02d4 63685F76 		.ascii	"ch_virtual_timers_list\000"
 1886      69727475 
 1886      616C5F74 
 1886      696D6572 
 1886      735F6C69 
 1887              	.LASF98:
 1888 02eb 4552524F 		.ascii	"ERROR\000"
 1888      5200
 1889              	.LASF125:
 1890 02f1 74696D65 		.ascii	"timeout_configure\000"
 1890      6F75745F 
 1890      636F6E66 
 1890      69677572 
 1890      6500
 1891              	.LASF132:
 1892 0303 63546573 		.ascii	"cTest\000"
 1892      7400
 1893              	.LASF106:
 1894 0309 746D5F63 		.ascii	"tm_calibration_t\000"
 1894      616C6962 
 1894      72617469 
 1894      6F6E5F74 
 1894      00
 1895              	.LASF41:
 1896 031a 705F6F6C 		.ascii	"p_older\000"
 1896      64657200 
 1897              	.LASF65:
 1898 0322 725F6374 		.ascii	"r_ctx\000"
 1898      7800
 1899              	.LASF96:
ARM GAS  C:\Users\IDONNO~1\AppData\Local\Temp\ccu5KOQd.s 			page 37


 1900 0328 46756E63 		.ascii	"FunctionalState\000"
 1900      74696F6E 
 1900      616C5374 
 1900      61746500 
 1901              	.LASF75:
 1902 0338 76745F66 		.ascii	"vt_func\000"
 1902      756E6300 
 1903              	.LASF68:
 1904 0340 725F6375 		.ascii	"r_current\000"
 1904      7272656E 
 1904      7400
 1905              	.LASF67:
 1906 034a 725F6F6C 		.ascii	"r_older\000"
 1906      64657200 
 1907              	.LASF46:
 1908 0352 705F7072 		.ascii	"p_preempt\000"
 1908      65656D70 
 1908      7400
 1909              	.LASF12:
 1910 035c 5F5F7569 		.ascii	"__uint64_t\000"
 1910      6E743634 
 1910      5F7400
 1911              	.LASF118:
 1912 0367 666C6F61 		.ascii	"float\000"
 1912      7400
 1913              	.LASF21:
 1914 036d 74726566 		.ascii	"trefs_t\000"
 1914      735F7400 
 1915              	.LASF70:
 1916 0375 76697274 		.ascii	"virtual_timer_t\000"
 1916      75616C5F 
 1916      74696D65 
 1916      725F7400 
 1917              	.LASF37:
 1918 0385 705F7072 		.ascii	"p_prev\000"
 1918      657600
 1919              	.LASF90:
 1920 038c 52455345 		.ascii	"RESET\000"
 1920      5400
 1921              	.LASF23:
 1922 0392 74707269 		.ascii	"tprio_t\000"
 1922      6F5F7400 
 1923              	.LASF81:
 1924 039a 63685F73 		.ascii	"ch_system_debug\000"
 1924      79737465 
 1924      6D5F6465 
 1924      62756700 
 1925              	.LASF15:
 1926 03aa 696E7433 		.ascii	"int32_t\000"
 1926      325F7400 
 1927              	.LASF4:
 1928 03b2 756E7369 		.ascii	"unsigned char\000"
 1928      676E6564 
 1928      20636861 
 1928      7200
 1929              	.LASF52:
 1930 03c0 705F6D74 		.ascii	"p_mtxlist\000"
ARM GAS  C:\Users\IDONNO~1\AppData\Local\Temp\ccu5KOQd.s 			page 38


 1930      786C6973 
 1930      7400
 1931              	.LASF5:
 1932 03ca 73686F72 		.ascii	"short int\000"
 1932      7420696E 
 1932      7400
 1933              	.LASF43:
 1934 03d4 705F7374 		.ascii	"p_state\000"
 1934      61746500 
 1935              	.LASF129:
 1936 03dc 6D61696E 		.ascii	"main.cpp\000"
 1936      2E637070 
 1936      00
 1937              	.LASF64:
 1938 03e5 725F7072 		.ascii	"r_prio\000"
 1938      696F00
 1939              	.LASF35:
 1940 03ec 65776D61 		.ascii	"ewmask\000"
 1940      736B00
 1941              	.LASF36:
 1942 03f3 705F6E65 		.ascii	"p_next\000"
 1942      787400
 1943              	.LASF44:
 1944 03fa 705F666C 		.ascii	"p_flags\000"
 1944      61677300 
 1945              	.LASF59:
 1946 0402 74687265 		.ascii	"threads_queue_t\000"
 1946      6164735F 
 1946      71756575 
 1946      655F7400 
 1947              	.LASF71:
 1948 0412 63685F76 		.ascii	"ch_virtual_timer\000"
 1948      69727475 
 1948      616C5F74 
 1948      696D6572 
 1948      00
 1949              	.LASF107:
 1950 0423 63685F73 		.ascii	"ch_semaphore\000"
 1950      656D6170 
 1950      686F7265 
 1950      00
 1951              	.LASF51:
 1952 0430 705F6570 		.ascii	"p_epending\000"
 1952      656E6469 
 1952      6E6700
 1953              	.LASF16:
 1954 043b 75696E74 		.ascii	"uint32_t\000"
 1954      33325F74 
 1954      00
 1955              	.LASF101:
 1956 0444 72656761 		.ascii	"regarm_t\000"
 1956      726D5F74 
 1956      00
 1957              	.LASF63:
 1958 044d 725F7175 		.ascii	"r_queue\000"
 1958      65756500 
 1959              	.LASF79:
ARM GAS  C:\Users\IDONNO~1\AppData\Local\Temp\ccu5KOQd.s 			page 39


 1960 0455 76745F73 		.ascii	"vt_systime\000"
 1960      79737469 
 1960      6D6500
 1961              	.LASF58:
 1962 0460 63685F74 		.ascii	"ch_threads_list\000"
 1962      68726561 
 1962      64735F6C 
 1962      69737400 
 1963              	.LASF119:
 1964 0470 6C6F6E67 		.ascii	"long double\000"
 1964      20646F75 
 1964      626C6500 
 1965              	.LASF114:
 1966 047c 63686172 		.ascii	"char\000"
 1966      00
 1967              	.LASF34:
 1968 0481 77746D74 		.ascii	"wtmtxp\000"
 1968      787000
 1969              	.LASF131:
 1970 0488 3136746D 		.ascii	"16tm_calibration_t\000"
 1970      5F63616C 
 1970      69627261 
 1970      74696F6E 
 1970      5F7400
 1971              	.LASF113:
 1972 049b 6D5F6E65 		.ascii	"m_next\000"
 1972      787400
 1973              	.LASF27:
 1974 04a2 73797374 		.ascii	"systime_t\000"
 1974      696D655F 
 1974      7400
 1975              	.LASF53:
 1976 04ac 705F7265 		.ascii	"p_realprio\000"
 1976      616C7072 
 1976      696F00
 1977              	.LASF69:
 1978 04b7 76746675 		.ascii	"vtfunc_t\000"
 1978      6E635F74 
 1978      00
 1979              	.LASF9:
 1980 04c0 5F5F7569 		.ascii	"__uint32_t\000"
 1980      6E743332 
 1980      5F7400
 1981              	.LASF82:
 1982 04cb 70616E69 		.ascii	"panic_msg\000"
 1982      635F6D73 
 1982      6700
 1983              	.LASF105:
 1984 04d5 6F666673 		.ascii	"offset\000"
 1984      657400
 1985              	.LASF47:
 1986 04dc 705F7469 		.ascii	"p_time\000"
 1986      6D6500
 1987              	.LASF49:
 1988 04e3 705F6D73 		.ascii	"p_msgqueue\000"
 1988      67717565 
 1988      756500
ARM GAS  C:\Users\IDONNO~1\AppData\Local\Temp\ccu5KOQd.s 			page 40


 1989              	.LASF76:
 1990 04ee 76745F70 		.ascii	"vt_par\000"
 1990      617200
 1991              	.LASF127:
 1992 04f5 63685468 		.ascii	"chThdSleep\000"
 1992      64536C65 
 1992      657000
 1993              	.LASF45:
 1994 0500 705F7265 		.ascii	"p_refs\000"
 1994      667300
 1995              	.LASF28:
 1996 0507 74687265 		.ascii	"thread_t\000"
 1996      61645F74 
 1996      00
 1997              	.LASF85:
 1998 0510 726C6973 		.ascii	"rlist\000"
 1998      7400
 1999              	.LASF14:
 2000 0516 75696E74 		.ascii	"uint8_t\000"
 2000      385F7400 
 2001              	.LASF99:
 2002 051e 53554343 		.ascii	"SUCCESS\000"
 2002      45535300 
 2003              	.LASF128:
 2004 0526 474E5520 		.ascii	"GNU C++ 5.4.1 20160919 (release) [ARM/embedded-5-br"
 2004      432B2B20 
 2004      352E342E 
 2004      31203230 
 2004      31363039 
 2005 0559 616E6368 		.ascii	"anch revision 240496] -mcpu=cortex-m4 -mfloat-abi=h"
 2005      20726576 
 2005      6973696F 
 2005      6E203234 
 2005      30343936 
 2006 058c 61726420 		.ascii	"ard -mfpu=fpv4-sp-d16 -mno-thumb-interwork -mthumb "
 2006      2D6D6670 
 2006      753D6670 
 2006      76342D73 
 2006      702D6431 
 2007 05bf 2D676764 		.ascii	"-ggdb -O2 -std=gnu99 -fomit-frame-pointer -falign-f"
 2007      62202D4F 
 2007      32202D73 
 2007      74643D67 
 2007      6E753939 
 2008 05f2 756E6374 		.ascii	"unctions=16 -ffunction-sections -fdata-sections -fn"
 2008      696F6E73 
 2008      3D313620 
 2008      2D666675 
 2008      6E637469 
 2009 0625 6F2D636F 		.ascii	"o-common -fsingle-precision-constant -fno-rtti -fno"
 2009      6D6D6F6E 
 2009      202D6673 
 2009      696E676C 
 2009      652D7072 
 2010 0658 2D657863 		.ascii	"-exceptions\000"
 2010      65707469 
 2010      6F6E7300 
ARM GAS  C:\Users\IDONNO~1\AppData\Local\Temp\ccu5KOQd.s 			page 41


 2011              	.LASF89:
 2012 0664 73697A65 		.ascii	"sizetype\000"
 2012      74797065 
 2012      00
 2013              	.LASF110:
 2014 066d 63685F6D 		.ascii	"ch_mutex\000"
 2014      75746578 
 2014      00
 2015              	.LASF42:
 2016 0676 705F6E61 		.ascii	"p_name\000"
 2016      6D6500
 2017              	.LASF56:
 2018 067d 74687265 		.ascii	"threads_list_t\000"
 2018      6164735F 
 2018      6C697374 
 2018      5F7400
 2019              	.LASF50:
 2020 068c 705F6D73 		.ascii	"p_msg\000"
 2020      6700
 2021              	.LASF136:
 2022 0692 6D61696E 		.ascii	"main\000"
 2022      00
 2023              	.LASF126:
 2024 0697 636F6D6D 		.ascii	"comm_can_init\000"
 2024      5F63616E 
 2024      5F696E69 
 2024      7400
 2025              	.LASF112:
 2026 06a5 6D5F6F77 		.ascii	"m_owner\000"
 2026      6E657200 
 2027              	.LASF117:
 2028 06ad 646F7562 		.ascii	"double\000"
 2028      6C6500
 2029              	.LASF39:
 2030 06b4 705F6374 		.ascii	"p_ctx\000"
 2030      7800
 2031              	.LASF48:
 2032 06ba 705F7761 		.ascii	"p_waiting\000"
 2032      6974696E 
 2032      6700
 2033              		.ident	"GCC: (GNU Tools for ARM Embedded Processors) 5.4.1 20160919 (release) [ARM/embedded-5-bran
ARM GAS  C:\Users\IDONNO~1\AppData\Local\Temp\ccu5KOQd.s 			page 42


DEFINED SYMBOLS
                            *ABS*:00000000 main.cpp
C:\Users\IDONNO~1\AppData\Local\Temp\ccu5KOQd.s:22     .text._ZN5cTest5printEv:00000000 $t
C:\Users\IDONNO~1\AppData\Local\Temp\ccu5KOQd.s:28     .text._ZN5cTest5printEv:00000000 _ZN5cTest5printEv
C:\Users\IDONNO~1\AppData\Local\Temp\ccu5KOQd.s:42     .text.startup.main:00000000 $t
C:\Users\IDONNO~1\AppData\Local\Temp\ccu5KOQd.s:48     .text.startup.main:00000000 main
C:\Users\IDONNO~1\AppData\Local\Temp\ccu5KOQd.s:90     .bss.test:00000000 test
C:\Users\IDONNO~1\AppData\Local\Temp\ccu5KOQd.s:87     .bss.test:00000000 $d
                     .debug_frame:00000010 $d

UNDEFINED SYMBOLS
bldc_init
app_init
timeout_init
timeout_configure
comm_can_init
chThdSleep
