ARM GAS  C:\Users\IDONNO~1\AppData\Local\Temp\cctCrHPd.s 			page 1


   1              		.syntax unified
   2              		.cpu cortex-m4
   3              		.eabi_attribute 27, 1
   4              		.eabi_attribute 28, 1
   5              		.fpu fpv4-sp-d16
   6              		.eabi_attribute 20, 1
   7              		.eabi_attribute 21, 1
   8              		.eabi_attribute 23, 3
   9              		.eabi_attribute 24, 1
  10              		.eabi_attribute 25, 1
  11              		.eabi_attribute 26, 1
  12              		.eabi_attribute 30, 2
  13              		.eabi_attribute 34, 1
  14              		.eabi_attribute 18, 4
  15              		.thumb
  16              		.syntax unified
  17              		.file	"main.cpp"
  18              		.text
  19              	.Ltext0:
  20              		.cfi_sections	.debug_frame
  21              		.section	.text._ZN5cTest5printEv,"ax",%progbits
  22              		.align	2
  23              		.p2align 4,,15
  24              		.global	_ZN5cTest5printEv
  25              		.thumb
  26              		.thumb_func
  27              		.type	_ZN5cTest5printEv, %function
  28              	_ZN5cTest5printEv:
  29              	.LFB256:
  30              		.file 1 "main.cpp"
  31              		.loc 1 25 0
  32              		.cfi_startproc
  33              		@ args = 0, pretend = 0, frame = 0
  34              		@ frame_needed = 0, uses_anonymous_args = 0
  35              		@ link register save eliminated.
  36              	.LVL0:
  37 0000 7047     		bx	lr
  38              		.cfi_endproc
  39              	.LFE256:
  40              		.size	_ZN5cTest5printEv, .-_ZN5cTest5printEv
  41 0002 00BF     		.section	.text.startup.main,"ax",%progbits
  42              		.align	2
  43              		.p2align 4,,15
  44              		.global	main
  45              		.thumb
  46              		.thumb_func
  47              		.type	main, %function
  48              	main:
  49              	.LFB257:
  50              		.loc 1 40 0
  51              		.cfi_startproc
  52              		@ args = 0, pretend = 0, frame = 0
  53              		@ frame_needed = 0, uses_anonymous_args = 0
  54              		.loc 1 40 0
  55 0000 08B5     		push	{r3, lr}
  56              		.cfi_def_cfa_offset 8
  57              		.cfi_offset 3, -8
ARM GAS  C:\Users\IDONNO~1\AppData\Local\Temp\cctCrHPd.s 			page 2


  58              		.cfi_offset 14, -4
  59              	.LBB6:
  60              	.LBB7:
  61              		.loc 1 65 0
  62 0002 FFF7FEFF 		bl	bldc_init
  63              	.LVL1:
  64              	.LBE7:
  65              	.LBE6:
  66              		.loc 1 47 0
  67 0006 FFF7FEFF 		bl	bldc_start
  68              	.LVL2:
  69              		.loc 1 51 0
  70 000a 0020     		movs	r0, #0
  71 000c 08BD     		pop	{r3, pc}
  72              		.cfi_endproc
  73              	.LFE257:
  74              		.size	main, .-main
  75 000e 00BF     		.section	.text._Z9main_initv,"ax",%progbits
  76              		.align	2
  77              		.p2align 4,,15
  78              		.global	_Z9main_initv
  79              		.thumb
  80              		.thumb_func
  81              		.type	_Z9main_initv, %function
  82              	_Z9main_initv:
  83              	.LFB258:
  84              		.loc 1 64 0
  85              		.cfi_startproc
  86              		@ args = 0, pretend = 0, frame = 0
  87              		@ frame_needed = 0, uses_anonymous_args = 0
  88              		@ link register save eliminated.
  89              		.loc 1 65 0
  90 0000 FFF7FEBF 		b	bldc_init
  91              	.LVL3:
  92              		.cfi_endproc
  93              	.LFE258:
  94              		.size	_Z9main_initv, .-_Z9main_initv
  95              		.global	test
  96              		.section	.bss.test,"aw",%nobits
  97              		.align	2
  98              		.type	test, %object
  99              		.size	test, 1
 100              	test:
 101 0000 00       		.space	1
 102              		.text
 103              	.Letext0:
 104              		.file 2 "c:\\program files (x86)\\gnu tools arm embedded\\5.2 2015q4\\arm-none-eabi\\include\\mach
 105              		.file 3 "c:\\program files (x86)\\gnu tools arm embedded\\5.2 2015q4\\arm-none-eabi\\include\\sys\
 106              		.file 4 "c:\\program files (x86)\\gnu tools arm embedded\\5.2 2015q4\\lib\\gcc\\arm-none-eabi\\5.2
 107              		.file 5 "lib/ChibiOS_3.0.2/os/rt/ports/ARMCMx/compilers/GCC/chtypes.h"
 108              		.file 6 "lib/ChibiOS_3.0.2/os/rt/include/chsystypes.h"
 109              		.file 7 "lib/ChibiOS_3.0.2/os/rt/include/chschd.h"
 110              		.file 8 "lib/ChibiOS_3.0.2/os/ext/CMSIS/ST/stm32f4xx.h"
 111              		.file 9 "lib/ChibiOS_3.0.2/os/rt/ports/ARMCMx/chcore.h"
 112              		.file 10 "lib/ChibiOS_3.0.2/os/rt/ports/ARMCMx/chcore_v7m.h"
 113              		.file 11 "lib/ChibiOS_3.0.2/os/rt/include/chtm.h"
 114              		.file 12 "lib/ChibiOS_3.0.2/os/rt/include/chsem.h"
ARM GAS  C:\Users\IDONNO~1\AppData\Local\Temp\cctCrHPd.s 			page 3


 115              		.file 13 "lib/ChibiOS_3.0.2/os/rt/include/chmtx.h"
 116              		.file 14 "lib/ChibiOS_3.0.2/os/ext/CMSIS/include/core_cm4.h"
 117              		.file 15 "src/bldc/bldc.h"
 118              		.section	.debug_info,"",%progbits
 119              	.Ldebug_info0:
 120 0000 9D080000 		.4byte	0x89d
 121 0004 0400     		.2byte	0x4
 122 0006 00000000 		.4byte	.Ldebug_abbrev0
 123 000a 04       		.byte	0x4
 124 000b 01       		.uleb128 0x1
 125 000c 02020000 		.4byte	.LASF121
 126 0010 04       		.byte	0x4
 127 0011 F6040000 		.4byte	.LASF122
 128 0015 59000000 		.4byte	.LASF123
 129 0019 00000000 		.4byte	.Ldebug_ranges0+0
 130 001d 00000000 		.4byte	0
 131 0021 00000000 		.4byte	.Ldebug_line0
 132 0025 02       		.uleb128 0x2
 133 0026 01       		.byte	0x1
 134 0027 06       		.byte	0x6
 135 0028 F7000000 		.4byte	.LASF0
 136 002c 03       		.uleb128 0x3
 137 002d 34000000 		.4byte	.LASF4
 138 0031 02       		.byte	0x2
 139 0032 1D       		.byte	0x1d
 140 0033 37000000 		.4byte	0x37
 141 0037 02       		.uleb128 0x2
 142 0038 01       		.byte	0x1
 143 0039 08       		.byte	0x8
 144 003a CC040000 		.4byte	.LASF1
 145 003e 02       		.uleb128 0x2
 146 003f 02       		.byte	0x2
 147 0040 05       		.byte	0x5
 148 0041 E4040000 		.4byte	.LASF2
 149 0045 02       		.uleb128 0x2
 150 0046 02       		.byte	0x2
 151 0047 07       		.byte	0x7
 152 0048 4E030000 		.4byte	.LASF3
 153 004c 03       		.uleb128 0x3
 154 004d BF030000 		.4byte	.LASF5
 155 0051 02       		.byte	0x2
 156 0052 3F       		.byte	0x3f
 157 0053 57000000 		.4byte	0x57
 158 0057 02       		.uleb128 0x2
 159 0058 04       		.byte	0x4
 160 0059 05       		.byte	0x5
 161 005a 46010000 		.4byte	.LASF6
 162 005e 03       		.uleb128 0x3
 163 005f CA050000 		.4byte	.LASF7
 164 0063 02       		.byte	0x2
 165 0064 41       		.byte	0x41
 166 0065 69000000 		.4byte	0x69
 167 0069 02       		.uleb128 0x2
 168 006a 04       		.byte	0x4
 169 006b 07       		.byte	0x7
 170 006c 03010000 		.4byte	.LASF8
 171 0070 02       		.uleb128 0x2
ARM GAS  C:\Users\IDONNO~1\AppData\Local\Temp\cctCrHPd.s 			page 4


 172 0071 08       		.byte	0x8
 173 0072 05       		.byte	0x5
 174 0073 E9000000 		.4byte	.LASF9
 175 0077 02       		.uleb128 0x2
 176 0078 08       		.byte	0x8
 177 0079 07       		.byte	0x7
 178 007a 7D000000 		.4byte	.LASF10
 179 007e 04       		.uleb128 0x4
 180 007f 04       		.byte	0x4
 181 0080 05       		.byte	0x5
 182 0081 696E7400 		.ascii	"int\000"
 183 0085 02       		.uleb128 0x2
 184 0086 04       		.byte	0x4
 185 0087 07       		.byte	0x7
 186 0088 CE010000 		.4byte	.LASF11
 187 008c 03       		.uleb128 0x3
 188 008d 25060000 		.4byte	.LASF12
 189 0091 03       		.byte	0x3
 190 0092 14       		.byte	0x14
 191 0093 2C000000 		.4byte	0x2c
 192 0097 03       		.uleb128 0x3
 193 0098 C4040000 		.4byte	.LASF13
 194 009c 03       		.byte	0x3
 195 009d 1F       		.byte	0x1f
 196 009e 4C000000 		.4byte	0x4c
 197 00a2 03       		.uleb128 0x3
 198 00a3 45050000 		.4byte	.LASF14
 199 00a7 03       		.byte	0x3
 200 00a8 20       		.byte	0x20
 201 00a9 5E000000 		.4byte	0x5e
 202 00ad 03       		.uleb128 0x3
 203 00ae 1B000000 		.4byte	.LASF15
 204 00b2 04       		.byte	0x4
 205 00b3 D8       		.byte	0xd8
 206 00b4 85000000 		.4byte	0x85
 207 00b8 05       		.uleb128 0x5
 208 00b9 04       		.byte	0x4
 209 00ba 02       		.uleb128 0x2
 210 00bb 04       		.byte	0x4
 211 00bc 07       		.byte	0x7
 212 00bd 35060000 		.4byte	.LASF16
 213 00c1 02       		.uleb128 0x2
 214 00c2 01       		.byte	0x1
 215 00c3 08       		.byte	0x8
 216 00c4 86050000 		.4byte	.LASF17
 217 00c8 06       		.uleb128 0x6
 218 00c9 04       		.byte	0x4
 219 00ca CE000000 		.4byte	0xce
 220 00ce 07       		.uleb128 0x7
 221 00cf C1000000 		.4byte	0xc1
 222 00d3 02       		.uleb128 0x2
 223 00d4 08       		.byte	0x8
 224 00d5 04       		.byte	0x4
 225 00d6 70060000 		.4byte	.LASF18
 226 00da 02       		.uleb128 0x2
 227 00db 04       		.byte	0x4
 228 00dc 04       		.byte	0x4
ARM GAS  C:\Users\IDONNO~1\AppData\Local\Temp\cctCrHPd.s 			page 5


 229 00dd 77040000 		.4byte	.LASF19
 230 00e1 02       		.uleb128 0x2
 231 00e2 08       		.byte	0x8
 232 00e3 04       		.byte	0x4
 233 00e4 7A050000 		.4byte	.LASF20
 234 00e8 08       		.uleb128 0x8
 235 00e9 97000000 		.4byte	0x97
 236 00ed 03       		.uleb128 0x3
 237 00ee DB030000 		.4byte	.LASF21
 238 00f2 05       		.byte	0x5
 239 00f3 45       		.byte	0x45
 240 00f4 A2000000 		.4byte	0xa2
 241 00f8 03       		.uleb128 0x3
 242 00f9 98030000 		.4byte	.LASF22
 243 00fd 05       		.byte	0x5
 244 00fe 48       		.byte	0x48
 245 00ff 8C000000 		.4byte	0x8c
 246 0103 03       		.uleb128 0x3
 247 0104 56010000 		.4byte	.LASF23
 248 0108 05       		.byte	0x5
 249 0109 49       		.byte	0x49
 250 010a 8C000000 		.4byte	0x8c
 251 010e 03       		.uleb128 0x3
 252 010f 7D040000 		.4byte	.LASF24
 253 0113 05       		.byte	0x5
 254 0114 4A       		.byte	0x4a
 255 0115 8C000000 		.4byte	0x8c
 256 0119 03       		.uleb128 0x3
 257 011a 2C010000 		.4byte	.LASF25
 258 011e 05       		.byte	0x5
 259 011f 4B       		.byte	0x4b
 260 0120 8C000000 		.4byte	0x8c
 261 0124 03       		.uleb128 0x3
 262 0125 AC040000 		.4byte	.LASF26
 263 0129 05       		.byte	0x5
 264 012a 4C       		.byte	0x4c
 265 012b A2000000 		.4byte	0xa2
 266 012f 03       		.uleb128 0x3
 267 0130 79030000 		.4byte	.LASF27
 268 0134 05       		.byte	0x5
 269 0135 4D       		.byte	0x4d
 270 0136 97000000 		.4byte	0x97
 271 013a 03       		.uleb128 0x3
 272 013b B3030000 		.4byte	.LASF28
 273 013f 05       		.byte	0x5
 274 0140 4F       		.byte	0x4f
 275 0141 A2000000 		.4byte	0xa2
 276 0145 03       		.uleb128 0x3
 277 0146 C8010000 		.4byte	.LASF29
 278 014a 05       		.byte	0x5
 279 014b 51       		.byte	0x51
 280 014c 97000000 		.4byte	0x97
 281 0150 03       		.uleb128 0x3
 282 0151 AC050000 		.4byte	.LASF30
 283 0155 06       		.byte	0x6
 284 0156 33       		.byte	0x33
 285 0157 A2000000 		.4byte	0xa2
ARM GAS  C:\Users\IDONNO~1\AppData\Local\Temp\cctCrHPd.s 			page 6


 286 015b 03       		.uleb128 0x3
 287 015c 16060000 		.4byte	.LASF31
 288 0160 06       		.byte	0x6
 289 0161 3F       		.byte	0x3f
 290 0162 66010000 		.4byte	0x166
 291 0166 09       		.uleb128 0x9
 292 0167 61030000 		.4byte	.LASF60
 293 016b 48       		.byte	0x48
 294 016c 07       		.byte	0x7
 295 016d C2       		.byte	0xc2
 296 016e C8020000 		.4byte	0x2c8
 297 0172 0A       		.uleb128 0xa
 298 0173 04       		.byte	0x4
 299 0174 07       		.byte	0x7
 300 0175 FA       		.byte	0xfa
 301 0176 CF010000 		.4byte	0x1cf
 302 017a 0B       		.uleb128 0xb
 303 017b 22000000 		.4byte	.LASF32
 304 017f 07       		.byte	0x7
 305 0180 0101     		.2byte	0x101
 306 0182 2F010000 		.4byte	0x12f
 307 0186 0B       		.uleb128 0xb
 308 0187 86010000 		.4byte	.LASF33
 309 018b 07       		.byte	0x7
 310 018c 0801     		.2byte	0x108
 311 018e 2F010000 		.4byte	0x12f
 312 0192 0B       		.uleb128 0xb
 313 0193 25010000 		.4byte	.LASF34
 314 0197 07       		.byte	0x7
 315 0198 0F01     		.2byte	0x10f
 316 019a B8000000 		.4byte	0xb8
 317 019e 0B       		.uleb128 0xb
 318 019f 36010000 		.4byte	.LASF35
 319 01a3 07       		.byte	0x7
 320 01a4 1601     		.2byte	0x116
 321 01a6 EB060000 		.4byte	0x6eb
 322 01aa 0B       		.uleb128 0xb
 323 01ab E3010000 		.4byte	.LASF36
 324 01af 07       		.byte	0x7
 325 01b0 1E01     		.2byte	0x11e
 326 01b2 16070000 		.4byte	0x716
 327 01b6 0B       		.uleb128 0xb
 328 01b7 8B050000 		.4byte	.LASF37
 329 01bb 07       		.byte	0x7
 330 01bc 2701     		.2byte	0x127
 331 01be 4D070000 		.4byte	0x74d
 332 01c2 0B       		.uleb128 0xb
 333 01c3 06050000 		.4byte	.LASF38
 334 01c7 07       		.byte	0x7
 335 01c8 2F01     		.2byte	0x12f
 336 01ca 3A010000 		.4byte	0x13a
 337 01ce 00       		.byte	0
 338 01cf 0C       		.uleb128 0xc
 339 01d0 0D050000 		.4byte	.LASF39
 340 01d4 07       		.byte	0x7
 341 01d5 C3       		.byte	0xc3
 342 01d6 D3020000 		.4byte	0x2d3
ARM GAS  C:\Users\IDONNO~1\AppData\Local\Temp\cctCrHPd.s 			page 7


 343 01da 00       		.byte	0
 344 01db 0C       		.uleb128 0xc
 345 01dc 9F040000 		.4byte	.LASF40
 346 01e0 07       		.byte	0x7
 347 01e1 C5       		.byte	0xc5
 348 01e2 D3020000 		.4byte	0x2d3
 349 01e6 04       		.byte	0x4
 350 01e7 0C       		.uleb128 0xc
 351 01e8 E2000000 		.4byte	.LASF41
 352 01ec 07       		.byte	0x7
 353 01ed C7       		.byte	0xc7
 354 01ee 24010000 		.4byte	0x124
 355 01f2 08       		.byte	0x8
 356 01f3 0C       		.uleb128 0xc
 357 01f4 77060000 		.4byte	.LASF42
 358 01f8 07       		.byte	0x7
 359 01f9 C8       		.byte	0xc8
 360 01fa 67050000 		.4byte	0x567
 361 01fe 0C       		.byte	0xc
 362 01ff 0C       		.uleb128 0xc
 363 0200 76010000 		.4byte	.LASF43
 364 0204 07       		.byte	0x7
 365 0205 CA       		.byte	0xca
 366 0206 D3020000 		.4byte	0x2d3
 367 020a 10       		.byte	0x10
 368 020b 0C       		.uleb128 0xc
 369 020c 2A040000 		.4byte	.LASF44
 370 0210 07       		.byte	0x7
 371 0211 CB       		.byte	0xcb
 372 0212 D3020000 		.4byte	0x2d3
 373 0216 14       		.byte	0x14
 374 0217 0C       		.uleb128 0xc
 375 0218 47060000 		.4byte	.LASF45
 376 021c 07       		.byte	0x7
 377 021d D2       		.byte	0xd2
 378 021e C8000000 		.4byte	0xc8
 379 0222 18       		.byte	0x18
 380 0223 0C       		.uleb128 0xc
 381 0224 EE040000 		.4byte	.LASF46
 382 0228 07       		.byte	0x7
 383 0229 DD       		.byte	0xdd
 384 022a 03010000 		.4byte	0x103
 385 022e 1C       		.byte	0x1c
 386 022f 0C       		.uleb128 0xc
 387 0230 14050000 		.4byte	.LASF47
 388 0234 07       		.byte	0x7
 389 0235 E1       		.byte	0xe1
 390 0236 F8000000 		.4byte	0xf8
 391 023a 1D       		.byte	0x1d
 392 023b 0C       		.uleb128 0xc
 393 023c 0F060000 		.4byte	.LASF48
 394 0240 07       		.byte	0x7
 395 0241 E6       		.byte	0xe6
 396 0242 0E010000 		.4byte	0x10e
 397 0246 1E       		.byte	0x1e
 398 0247 0C       		.uleb128 0xc
 399 0248 6D040000 		.4byte	.LASF49
ARM GAS  C:\Users\IDONNO~1\AppData\Local\Temp\cctCrHPd.s 			page 8


 400 024c 07       		.byte	0x7
 401 024d EC       		.byte	0xec
 402 024e 19010000 		.4byte	0x119
 403 0252 1F       		.byte	0x1f
 404 0253 0C       		.uleb128 0xc
 405 0254 E6050000 		.4byte	.LASF50
 406 0258 07       		.byte	0x7
 407 0259 F3       		.byte	0xf3
 408 025a 53070000 		.4byte	0x753
 409 025e 20       		.byte	0x20
 410 025f 0D       		.uleb128 0xd
 411 0260 705F7500 		.ascii	"p_u\000"
 412 0264 07       		.byte	0x7
 413 0265 3101     		.2byte	0x131
 414 0267 72010000 		.4byte	0x172
 415 026b 24       		.byte	0x24
 416 026c 0E       		.uleb128 0xe
 417 026d 7D060000 		.4byte	.LASF51
 418 0271 07       		.byte	0x7
 419 0272 3601     		.2byte	0x136
 420 0274 D9020000 		.4byte	0x2d9
 421 0278 28       		.byte	0x28
 422 0279 0E       		.uleb128 0xe
 423 027a ED050000 		.4byte	.LASF52
 424 027e 07       		.byte	0x7
 425 027f 3C01     		.2byte	0x13c
 426 0281 FD020000 		.4byte	0x2fd
 427 0285 2C       		.byte	0x2c
 428 0286 0E       		.uleb128 0xe
 429 0287 5D060000 		.4byte	.LASF53
 430 028b 07       		.byte	0x7
 431 028c 4001     		.2byte	0x140
 432 028e 2F010000 		.4byte	0x12f
 433 0292 34       		.byte	0x34
 434 0293 0E       		.uleb128 0xe
 435 0294 3A050000 		.4byte	.LASF54
 436 0298 07       		.byte	0x7
 437 0299 4601     		.2byte	0x146
 438 029b 3A010000 		.4byte	0x13a
 439 029f 38       		.byte	0x38
 440 02a0 0E       		.uleb128 0xe
 441 02a1 DA040000 		.4byte	.LASF55
 442 02a5 07       		.byte	0x7
 443 02a6 4D01     		.2byte	0x14d
 444 02a8 4D070000 		.4byte	0x74d
 445 02ac 3C       		.byte	0x3c
 446 02ad 0E       		.uleb128 0xe
 447 02ae B6050000 		.4byte	.LASF56
 448 02b2 07       		.byte	0x7
 449 02b3 5101     		.2byte	0x151
 450 02b5 24010000 		.4byte	0x124
 451 02b9 40       		.byte	0x40
 452 02ba 0E       		.uleb128 0xe
 453 02bb 15010000 		.4byte	.LASF57
 454 02bf 07       		.byte	0x7
 455 02c0 5801     		.2byte	0x158
 456 02c2 B8000000 		.4byte	0xb8
ARM GAS  C:\Users\IDONNO~1\AppData\Local\Temp\cctCrHPd.s 			page 9


 457 02c6 44       		.byte	0x44
 458 02c7 00       		.byte	0
 459 02c8 03       		.uleb128 0x3
 460 02c9 E3030000 		.4byte	.LASF58
 461 02cd 06       		.byte	0x6
 462 02ce 44       		.byte	0x44
 463 02cf D3020000 		.4byte	0x2d3
 464 02d3 06       		.uleb128 0x6
 465 02d4 04       		.byte	0x4
 466 02d5 5B010000 		.4byte	0x15b
 467 02d9 03       		.uleb128 0x3
 468 02da 4E060000 		.4byte	.LASF59
 469 02de 06       		.byte	0x6
 470 02df 49       		.byte	0x49
 471 02e0 E4020000 		.4byte	0x2e4
 472 02e4 09       		.uleb128 0x9
 473 02e5 6A050000 		.4byte	.LASF61
 474 02e9 04       		.byte	0x4
 475 02ea 07       		.byte	0x7
 476 02eb B0       		.byte	0xb0
 477 02ec FD020000 		.4byte	0x2fd
 478 02f0 0C       		.uleb128 0xc
 479 02f1 0D050000 		.4byte	.LASF39
 480 02f5 07       		.byte	0x7
 481 02f6 B1       		.byte	0xb1
 482 02f7 D3020000 		.4byte	0x2d3
 483 02fb 00       		.byte	0
 484 02fc 00       		.byte	0
 485 02fd 03       		.uleb128 0x3
 486 02fe FF050000 		.4byte	.LASF62
 487 0302 06       		.byte	0x6
 488 0303 50       		.byte	0x50
 489 0304 08030000 		.4byte	0x308
 490 0308 09       		.uleb128 0x9
 491 0309 D1000000 		.4byte	.LASF63
 492 030d 08       		.byte	0x8
 493 030e 07       		.byte	0x7
 494 030f B7       		.byte	0xb7
 495 0310 2D030000 		.4byte	0x32d
 496 0314 0C       		.uleb128 0xc
 497 0315 0D050000 		.4byte	.LASF39
 498 0319 07       		.byte	0x7
 499 031a B8       		.byte	0xb8
 500 031b D3020000 		.4byte	0x2d3
 501 031f 00       		.byte	0
 502 0320 0C       		.uleb128 0xc
 503 0321 9F040000 		.4byte	.LASF40
 504 0325 07       		.byte	0x7
 505 0326 B9       		.byte	0xb9
 506 0327 D3020000 		.4byte	0x2d3
 507 032b 04       		.byte	0x4
 508 032c 00       		.byte	0
 509 032d 03       		.uleb128 0x3
 510 032e 00000000 		.4byte	.LASF64
 511 0332 06       		.byte	0x6
 512 0333 57       		.byte	0x57
 513 0334 38030000 		.4byte	0x338
ARM GAS  C:\Users\IDONNO~1\AppData\Local\Temp\cctCrHPd.s 			page 10


 514 0338 0F       		.uleb128 0xf
 515 0339 A5030000 		.4byte	.LASF65
 516 033d 1C       		.byte	0x1c
 517 033e 07       		.byte	0x7
 518 033f 9001     		.2byte	0x190
 519 0341 94030000 		.4byte	0x394
 520 0345 0E       		.uleb128 0xe
 521 0346 57050000 		.4byte	.LASF66
 522 034a 07       		.byte	0x7
 523 034b 9101     		.2byte	0x191
 524 034d FD020000 		.4byte	0x2fd
 525 0351 00       		.byte	0
 526 0352 0E       		.uleb128 0xe
 527 0353 FF040000 		.4byte	.LASF67
 528 0357 07       		.byte	0x7
 529 0358 9201     		.2byte	0x192
 530 035a 24010000 		.4byte	0x124
 531 035e 08       		.byte	0x8
 532 035f 0E       		.uleb128 0xe
 533 0360 32040000 		.4byte	.LASF68
 534 0364 07       		.byte	0x7
 535 0365 9401     		.2byte	0x194
 536 0367 67050000 		.4byte	0x567
 537 036b 0C       		.byte	0xc
 538 036c 0E       		.uleb128 0xe
 539 036d 8F010000 		.4byte	.LASF69
 540 0371 07       		.byte	0x7
 541 0372 9701     		.2byte	0x197
 542 0374 D3020000 		.4byte	0x2d3
 543 0378 10       		.byte	0x10
 544 0379 0E       		.uleb128 0xe
 545 037a 65040000 		.4byte	.LASF70
 546 037e 07       		.byte	0x7
 547 037f 9801     		.2byte	0x198
 548 0381 D3020000 		.4byte	0x2d3
 549 0385 14       		.byte	0x14
 550 0386 0E       		.uleb128 0xe
 551 0387 5B040000 		.4byte	.LASF71
 552 038b 07       		.byte	0x7
 553 038c 9B01     		.2byte	0x19b
 554 038e D3020000 		.4byte	0x2d3
 555 0392 18       		.byte	0x18
 556 0393 00       		.byte	0
 557 0394 03       		.uleb128 0x3
 558 0395 C1050000 		.4byte	.LASF72
 559 0399 06       		.byte	0x6
 560 039a 5C       		.byte	0x5c
 561 039b 9F030000 		.4byte	0x39f
 562 039f 06       		.uleb128 0x6
 563 03a0 04       		.byte	0x4
 564 03a1 A5030000 		.4byte	0x3a5
 565 03a5 10       		.uleb128 0x10
 566 03a6 B0030000 		.4byte	0x3b0
 567 03aa 11       		.uleb128 0x11
 568 03ab B8000000 		.4byte	0xb8
 569 03af 00       		.byte	0
 570 03b0 03       		.uleb128 0x3
ARM GAS  C:\Users\IDONNO~1\AppData\Local\Temp\cctCrHPd.s 			page 11


 571 03b1 8F040000 		.4byte	.LASF73
 572 03b5 06       		.byte	0x6
 573 03b6 61       		.byte	0x61
 574 03b7 BB030000 		.4byte	0x3bb
 575 03bb 0F       		.uleb128 0xf
 576 03bc 1C050000 		.4byte	.LASF74
 577 03c0 14       		.byte	0x14
 578 03c1 07       		.byte	0x7
 579 03c2 6B01     		.2byte	0x16b
 580 03c4 0A040000 		.4byte	0x40a
 581 03c8 0E       		.uleb128 0xe
 582 03c9 DB010000 		.4byte	.LASF75
 583 03cd 07       		.byte	0x7
 584 03ce 6C01     		.2byte	0x16c
 585 03d0 58070000 		.4byte	0x758
 586 03d4 00       		.byte	0
 587 03d5 0E       		.uleb128 0xe
 588 03d6 A9010000 		.4byte	.LASF76
 589 03da 07       		.byte	0x7
 590 03db 6D01     		.2byte	0x16d
 591 03dd 58070000 		.4byte	0x758
 592 03e1 04       		.byte	0x4
 593 03e2 0E       		.uleb128 0xe
 594 03e3 EA010000 		.4byte	.LASF77
 595 03e7 07       		.byte	0x7
 596 03e8 6E01     		.2byte	0x16e
 597 03ea 50010000 		.4byte	0x150
 598 03ee 08       		.byte	0x8
 599 03ef 0E       		.uleb128 0xe
 600 03f0 48040000 		.4byte	.LASF78
 601 03f4 07       		.byte	0x7
 602 03f5 6F01     		.2byte	0x16f
 603 03f7 94030000 		.4byte	0x394
 604 03fb 0C       		.byte	0xc
 605 03fc 0E       		.uleb128 0xe
 606 03fd F8050000 		.4byte	.LASF79
 607 0401 07       		.byte	0x7
 608 0402 7101     		.2byte	0x171
 609 0404 B8000000 		.4byte	0xb8
 610 0408 10       		.byte	0x10
 611 0409 00       		.byte	0
 612 040a 03       		.uleb128 0x3
 613 040b A4000000 		.4byte	.LASF80
 614 040f 06       		.byte	0x6
 615 0410 66       		.byte	0x66
 616 0411 15040000 		.4byte	0x415
 617 0415 0F       		.uleb128 0xf
 618 0416 F6030000 		.4byte	.LASF81
 619 041a 10       		.byte	0x10
 620 041b 07       		.byte	0x7
 621 041c 7B01     		.2byte	0x17b
 622 041e 57040000 		.4byte	0x457
 623 0422 0E       		.uleb128 0xe
 624 0423 DB010000 		.4byte	.LASF75
 625 0427 07       		.byte	0x7
 626 0428 7C01     		.2byte	0x17c
 627 042a 58070000 		.4byte	0x758
ARM GAS  C:\Users\IDONNO~1\AppData\Local\Temp\cctCrHPd.s 			page 12


 628 042e 00       		.byte	0
 629 042f 0E       		.uleb128 0xe
 630 0430 A9010000 		.4byte	.LASF76
 631 0434 07       		.byte	0x7
 632 0435 7E01     		.2byte	0x17e
 633 0437 58070000 		.4byte	0x758
 634 043b 04       		.byte	0x4
 635 043c 0E       		.uleb128 0xe
 636 043d EA010000 		.4byte	.LASF77
 637 0441 07       		.byte	0x7
 638 0442 8001     		.2byte	0x180
 639 0444 50010000 		.4byte	0x150
 640 0448 08       		.byte	0x8
 641 0449 0E       		.uleb128 0xe
 642 044a 5F050000 		.4byte	.LASF82
 643 044e 07       		.byte	0x7
 644 044f 8201     		.2byte	0x182
 645 0451 53070000 		.4byte	0x753
 646 0455 0C       		.byte	0xc
 647 0456 00       		.byte	0
 648 0457 03       		.uleb128 0x3
 649 0458 F3010000 		.4byte	.LASF83
 650 045c 06       		.byte	0x6
 651 045d 6B       		.byte	0x6b
 652 045e 62040000 		.4byte	0x462
 653 0462 0F       		.uleb128 0xf
 654 0463 B4040000 		.4byte	.LASF84
 655 0467 04       		.byte	0x4
 656 0468 07       		.byte	0x7
 657 0469 A201     		.2byte	0x1a2
 658 046b 7D040000 		.4byte	0x47d
 659 046f 0E       		.uleb128 0xe
 660 0470 D5050000 		.4byte	.LASF85
 661 0474 07       		.byte	0x7
 662 0475 AA01     		.2byte	0x1aa
 663 0477 5E070000 		.4byte	0x75e
 664 047b 00       		.byte	0
 665 047c 00       		.byte	0
 666 047d 03       		.uleb128 0x3
 667 047e 8C030000 		.4byte	.LASF86
 668 0482 06       		.byte	0x6
 669 0483 70       		.byte	0x70
 670 0484 88040000 		.4byte	0x488
 671 0488 12       		.uleb128 0x12
 672 0489 3C010000 		.4byte	.LASF87
 673 048d 5802     		.2byte	0x258
 674 048f 07       		.byte	0x7
 675 0490 C201     		.2byte	0x1c2
 676 0492 E4040000 		.4byte	0x4e4
 677 0496 0E       		.uleb128 0xe
 678 0497 1F060000 		.4byte	.LASF88
 679 049b 07       		.byte	0x7
 680 049c C601     		.2byte	0x1c6
 681 049e 2D030000 		.4byte	0x32d
 682 04a2 00       		.byte	0
 683 04a3 0E       		.uleb128 0xe
 684 04a4 4A000000 		.4byte	.LASF89
ARM GAS  C:\Users\IDONNO~1\AppData\Local\Temp\cctCrHPd.s 			page 13


 685 04a8 07       		.byte	0x7
 686 04a9 CA01     		.2byte	0x1ca
 687 04ab 0A040000 		.4byte	0x40a
 688 04af 1C       		.byte	0x1c
 689 04b0 0D       		.uleb128 0xd
 690 04b1 64626700 		.ascii	"dbg\000"
 691 04b5 07       		.byte	0x7
 692 04b6 CE01     		.2byte	0x1ce
 693 04b8 57040000 		.4byte	0x457
 694 04bc 2C       		.byte	0x2c
 695 04bd 0E       		.uleb128 0xe
 696 04be 94000000 		.4byte	.LASF90
 697 04c2 07       		.byte	0x7
 698 04c3 D201     		.2byte	0x1d2
 699 04c5 5B010000 		.4byte	0x15b
 700 04c9 30       		.byte	0x30
 701 04ca 0D       		.uleb128 0xd
 702 04cb 746D00   		.ascii	"tm\000"
 703 04ce 07       		.byte	0x7
 704 04cf D701     		.2byte	0x1d7
 705 04d1 E0060000 		.4byte	0x6e0
 706 04d5 78       		.byte	0x78
 707 04d6 0E       		.uleb128 0xe
 708 04d7 B9010000 		.4byte	.LASF91
 709 04db 07       		.byte	0x7
 710 04dc E301     		.2byte	0x1e3
 711 04de 63070000 		.4byte	0x763
 712 04e2 80       		.byte	0x80
 713 04e3 00       		.byte	0
 714 04e4 13       		.uleb128 0x13
 715 04e5 01       		.byte	0x1
 716 04e6 37000000 		.4byte	0x37
 717 04ea 08       		.byte	0x8
 718 04eb A2       		.byte	0xa2
 719 04ec 7F030000 		.4byte	.LASF94
 720 04f0 01050000 		.4byte	0x501
 721 04f4 14       		.uleb128 0x14
 722 04f5 A6040000 		.4byte	.LASF92
 723 04f9 00       		.byte	0
 724 04fa 15       		.uleb128 0x15
 725 04fb 53455400 		.ascii	"SET\000"
 726 04ff 01       		.byte	0x1
 727 0500 00       		.byte	0
 728 0501 03       		.uleb128 0x3
 729 0502 29000000 		.4byte	.LASF93
 730 0506 08       		.byte	0x8
 731 0507 A5       		.byte	0xa5
 732 0508 E4040000 		.4byte	0x4e4
 733 050c 13       		.uleb128 0x13
 734 050d 01       		.byte	0x1
 735 050e 37000000 		.4byte	0x37
 736 0512 08       		.byte	0x8
 737 0513 A8       		.byte	0xa8
 738 0514 5F010000 		.4byte	.LASF95
 739 0518 29050000 		.4byte	0x529
 740 051c 14       		.uleb128 0x14
 741 051d 51000000 		.4byte	.LASF96
ARM GAS  C:\Users\IDONNO~1\AppData\Local\Temp\cctCrHPd.s 			page 14


 742 0521 00       		.byte	0
 743 0522 14       		.uleb128 0x14
 744 0523 4F010000 		.4byte	.LASF97
 745 0527 01       		.byte	0x1
 746 0528 00       		.byte	0
 747 0529 03       		.uleb128 0x3
 748 052a 38040000 		.4byte	.LASF98
 749 052e 08       		.byte	0x8
 750 052f AB       		.byte	0xab
 751 0530 0C050000 		.4byte	0x50c
 752 0534 13       		.uleb128 0x13
 753 0535 01       		.byte	0x1
 754 0536 37000000 		.4byte	0x37
 755 053a 08       		.byte	0x8
 756 053b AF       		.byte	0xaf
 757 053c 0D000000 		.4byte	.LASF99
 758 0540 51050000 		.4byte	0x551
 759 0544 14       		.uleb128 0x14
 760 0545 0D040000 		.4byte	.LASF100
 761 0549 00       		.byte	0
 762 054a 14       		.uleb128 0x14
 763 054b 2D060000 		.4byte	.LASF101
 764 054f 01       		.byte	0x1
 765 0550 00       		.byte	0
 766 0551 03       		.uleb128 0x3
 767 0552 9D010000 		.4byte	.LASF102
 768 0556 08       		.byte	0x8
 769 0557 B2       		.byte	0xb2
 770 0558 34050000 		.4byte	0x534
 771 055c 03       		.uleb128 0x3
 772 055d 4E050000 		.4byte	.LASF103
 773 0561 09       		.byte	0x9
 774 0562 65       		.byte	0x65
 775 0563 B8000000 		.4byte	0xb8
 776 0567 09       		.uleb128 0x9
 777 0568 46030000 		.4byte	.LASF104
 778 056c 04       		.byte	0x4
 779 056d 09       		.byte	0x9
 780 056e 89       		.byte	0x89
 781 056f 80050000 		.4byte	0x580
 782 0573 16       		.uleb128 0x16
 783 0574 72313300 		.ascii	"r13\000"
 784 0578 09       		.byte	0x9
 785 0579 8A       		.byte	0x8a
 786 057a C1060000 		.4byte	0x6c1
 787 057e 00       		.byte	0
 788 057f 00       		.byte	0
 789 0580 09       		.uleb128 0x9
 790 0581 3E000000 		.4byte	.LASF105
 791 0585 64       		.byte	0x64
 792 0586 0A       		.byte	0xa
 793 0587 F4       		.byte	0xf4
 794 0588 C1060000 		.4byte	0x6c1
 795 058c 16       		.uleb128 0x16
 796 058d 73313600 		.ascii	"s16\000"
 797 0591 0A       		.byte	0xa
 798 0592 F6       		.byte	0xf6
ARM GAS  C:\Users\IDONNO~1\AppData\Local\Temp\cctCrHPd.s 			page 15


 799 0593 5C050000 		.4byte	0x55c
 800 0597 00       		.byte	0
 801 0598 16       		.uleb128 0x16
 802 0599 73313700 		.ascii	"s17\000"
 803 059d 0A       		.byte	0xa
 804 059e F7       		.byte	0xf7
 805 059f 5C050000 		.4byte	0x55c
 806 05a3 04       		.byte	0x4
 807 05a4 16       		.uleb128 0x16
 808 05a5 73313800 		.ascii	"s18\000"
 809 05a9 0A       		.byte	0xa
 810 05aa F8       		.byte	0xf8
 811 05ab 5C050000 		.4byte	0x55c
 812 05af 08       		.byte	0x8
 813 05b0 16       		.uleb128 0x16
 814 05b1 73313900 		.ascii	"s19\000"
 815 05b5 0A       		.byte	0xa
 816 05b6 F9       		.byte	0xf9
 817 05b7 5C050000 		.4byte	0x55c
 818 05bb 0C       		.byte	0xc
 819 05bc 16       		.uleb128 0x16
 820 05bd 73323000 		.ascii	"s20\000"
 821 05c1 0A       		.byte	0xa
 822 05c2 FA       		.byte	0xfa
 823 05c3 5C050000 		.4byte	0x55c
 824 05c7 10       		.byte	0x10
 825 05c8 16       		.uleb128 0x16
 826 05c9 73323100 		.ascii	"s21\000"
 827 05cd 0A       		.byte	0xa
 828 05ce FB       		.byte	0xfb
 829 05cf 5C050000 		.4byte	0x55c
 830 05d3 14       		.byte	0x14
 831 05d4 16       		.uleb128 0x16
 832 05d5 73323200 		.ascii	"s22\000"
 833 05d9 0A       		.byte	0xa
 834 05da FC       		.byte	0xfc
 835 05db 5C050000 		.4byte	0x55c
 836 05df 18       		.byte	0x18
 837 05e0 16       		.uleb128 0x16
 838 05e1 73323300 		.ascii	"s23\000"
 839 05e5 0A       		.byte	0xa
 840 05e6 FD       		.byte	0xfd
 841 05e7 5C050000 		.4byte	0x55c
 842 05eb 1C       		.byte	0x1c
 843 05ec 16       		.uleb128 0x16
 844 05ed 73323400 		.ascii	"s24\000"
 845 05f1 0A       		.byte	0xa
 846 05f2 FE       		.byte	0xfe
 847 05f3 5C050000 		.4byte	0x55c
 848 05f7 20       		.byte	0x20
 849 05f8 16       		.uleb128 0x16
 850 05f9 73323500 		.ascii	"s25\000"
 851 05fd 0A       		.byte	0xa
 852 05fe FF       		.byte	0xff
 853 05ff 5C050000 		.4byte	0x55c
 854 0603 24       		.byte	0x24
 855 0604 0D       		.uleb128 0xd
ARM GAS  C:\Users\IDONNO~1\AppData\Local\Temp\cctCrHPd.s 			page 16


 856 0605 73323600 		.ascii	"s26\000"
 857 0609 0A       		.byte	0xa
 858 060a 0001     		.2byte	0x100
 859 060c 5C050000 		.4byte	0x55c
 860 0610 28       		.byte	0x28
 861 0611 0D       		.uleb128 0xd
 862 0612 73323700 		.ascii	"s27\000"
 863 0616 0A       		.byte	0xa
 864 0617 0101     		.2byte	0x101
 865 0619 5C050000 		.4byte	0x55c
 866 061d 2C       		.byte	0x2c
 867 061e 0D       		.uleb128 0xd
 868 061f 73323800 		.ascii	"s28\000"
 869 0623 0A       		.byte	0xa
 870 0624 0201     		.2byte	0x102
 871 0626 5C050000 		.4byte	0x55c
 872 062a 30       		.byte	0x30
 873 062b 0D       		.uleb128 0xd
 874 062c 73323900 		.ascii	"s29\000"
 875 0630 0A       		.byte	0xa
 876 0631 0301     		.2byte	0x103
 877 0633 5C050000 		.4byte	0x55c
 878 0637 34       		.byte	0x34
 879 0638 0D       		.uleb128 0xd
 880 0639 73333000 		.ascii	"s30\000"
 881 063d 0A       		.byte	0xa
 882 063e 0401     		.2byte	0x104
 883 0640 5C050000 		.4byte	0x55c
 884 0644 38       		.byte	0x38
 885 0645 0D       		.uleb128 0xd
 886 0646 73333100 		.ascii	"s31\000"
 887 064a 0A       		.byte	0xa
 888 064b 0501     		.2byte	0x105
 889 064d 5C050000 		.4byte	0x55c
 890 0651 3C       		.byte	0x3c
 891 0652 0D       		.uleb128 0xd
 892 0653 723400   		.ascii	"r4\000"
 893 0656 0A       		.byte	0xa
 894 0657 0701     		.2byte	0x107
 895 0659 5C050000 		.4byte	0x55c
 896 065d 40       		.byte	0x40
 897 065e 0D       		.uleb128 0xd
 898 065f 723500   		.ascii	"r5\000"
 899 0662 0A       		.byte	0xa
 900 0663 0801     		.2byte	0x108
 901 0665 5C050000 		.4byte	0x55c
 902 0669 44       		.byte	0x44
 903 066a 0D       		.uleb128 0xd
 904 066b 723600   		.ascii	"r6\000"
 905 066e 0A       		.byte	0xa
 906 066f 0901     		.2byte	0x109
 907 0671 5C050000 		.4byte	0x55c
 908 0675 48       		.byte	0x48
 909 0676 0D       		.uleb128 0xd
 910 0677 723700   		.ascii	"r7\000"
 911 067a 0A       		.byte	0xa
 912 067b 0A01     		.2byte	0x10a
ARM GAS  C:\Users\IDONNO~1\AppData\Local\Temp\cctCrHPd.s 			page 17


 913 067d 5C050000 		.4byte	0x55c
 914 0681 4C       		.byte	0x4c
 915 0682 0D       		.uleb128 0xd
 916 0683 723800   		.ascii	"r8\000"
 917 0686 0A       		.byte	0xa
 918 0687 0B01     		.2byte	0x10b
 919 0689 5C050000 		.4byte	0x55c
 920 068d 50       		.byte	0x50
 921 068e 0D       		.uleb128 0xd
 922 068f 723900   		.ascii	"r9\000"
 923 0692 0A       		.byte	0xa
 924 0693 0C01     		.2byte	0x10c
 925 0695 5C050000 		.4byte	0x55c
 926 0699 54       		.byte	0x54
 927 069a 0D       		.uleb128 0xd
 928 069b 72313000 		.ascii	"r10\000"
 929 069f 0A       		.byte	0xa
 930 06a0 0D01     		.2byte	0x10d
 931 06a2 5C050000 		.4byte	0x55c
 932 06a6 58       		.byte	0x58
 933 06a7 0D       		.uleb128 0xd
 934 06a8 72313100 		.ascii	"r11\000"
 935 06ac 0A       		.byte	0xa
 936 06ad 0E01     		.2byte	0x10e
 937 06af 5C050000 		.4byte	0x55c
 938 06b3 5C       		.byte	0x5c
 939 06b4 0D       		.uleb128 0xd
 940 06b5 6C7200   		.ascii	"lr\000"
 941 06b8 0A       		.byte	0xa
 942 06b9 0F01     		.2byte	0x10f
 943 06bb 5C050000 		.4byte	0x55c
 944 06bf 60       		.byte	0x60
 945 06c0 00       		.byte	0
 946 06c1 06       		.uleb128 0x6
 947 06c2 04       		.byte	0x4
 948 06c3 80050000 		.4byte	0x580
 949 06c7 17       		.uleb128 0x17
 950 06c8 04       		.byte	0x4
 951 06c9 0B       		.byte	0xb
 952 06ca 38       		.byte	0x38
 953 06cb 92050000 		.4byte	.LASF124
 954 06cf E0060000 		.4byte	0x6e0
 955 06d3 0C       		.uleb128 0xc
 956 06d4 DF050000 		.4byte	.LASF106
 957 06d8 0B       		.byte	0xb
 958 06d9 3C       		.byte	0x3c
 959 06da ED000000 		.4byte	0xed
 960 06de 00       		.byte	0
 961 06df 00       		.byte	0
 962 06e0 03       		.uleb128 0x3
 963 06e1 19040000 		.4byte	.LASF107
 964 06e5 0B       		.byte	0xb
 965 06e6 3D       		.byte	0x3d
 966 06e7 C7060000 		.4byte	0x6c7
 967 06eb 06       		.uleb128 0x6
 968 06ec 04       		.byte	0x4
 969 06ed C8020000 		.4byte	0x2c8
ARM GAS  C:\Users\IDONNO~1\AppData\Local\Temp\cctCrHPd.s 			page 18


 970 06f1 09       		.uleb128 0x9
 971 06f2 2D050000 		.4byte	.LASF108
 972 06f6 0C       		.byte	0xc
 973 06f7 0C       		.byte	0xc
 974 06f8 34       		.byte	0x34
 975 06f9 16070000 		.4byte	0x716
 976 06fd 0C       		.uleb128 0xc
 977 06fe 7E010000 		.4byte	.LASF109
 978 0702 0C       		.byte	0xc
 979 0703 35       		.byte	0x35
 980 0704 FD020000 		.4byte	0x2fd
 981 0708 00       		.byte	0
 982 0709 0C       		.uleb128 0xc
 983 070a 40030000 		.4byte	.LASF110
 984 070e 0C       		.byte	0xc
 985 070f 37       		.byte	0x37
 986 0710 45010000 		.4byte	0x145
 987 0714 08       		.byte	0x8
 988 0715 00       		.byte	0
 989 0716 06       		.uleb128 0x6
 990 0717 04       		.byte	0x4
 991 0718 F1060000 		.4byte	0x6f1
 992 071c 09       		.uleb128 0x9
 993 071d 3E060000 		.4byte	.LASF111
 994 0721 10       		.byte	0x10
 995 0722 0D       		.byte	0xd
 996 0723 39       		.byte	0x39
 997 0724 4D070000 		.4byte	0x74d
 998 0728 0C       		.uleb128 0xc
 999 0729 1D010000 		.4byte	.LASF112
 1000 072d 0D       		.byte	0xd
 1001 072e 3A       		.byte	0x3a
 1002 072f FD020000 		.4byte	0x2fd
 1003 0733 00       		.byte	0
 1004 0734 0C       		.uleb128 0xc
 1005 0735 68060000 		.4byte	.LASF113
 1006 0739 0D       		.byte	0xd
 1007 073a 3C       		.byte	0x3c
 1008 073b D3020000 		.4byte	0x2d3
 1009 073f 08       		.byte	0x8
 1010 0740 0C       		.uleb128 0xc
 1011 0741 A5050000 		.4byte	.LASF114
 1012 0745 0D       		.byte	0xd
 1013 0746 3E       		.byte	0x3e
 1014 0747 7E070000 		.4byte	0x77e
 1015 074b 0C       		.byte	0xc
 1016 074c 00       		.byte	0
 1017 074d 06       		.uleb128 0x6
 1018 074e 04       		.byte	0x4
 1019 074f 1C070000 		.4byte	0x71c
 1020 0753 08       		.uleb128 0x8
 1021 0754 50010000 		.4byte	0x150
 1022 0758 06       		.uleb128 0x6
 1023 0759 04       		.byte	0x4
 1024 075a B0030000 		.4byte	0x3b0
 1025 075e 08       		.uleb128 0x8
 1026 075f C8000000 		.4byte	0xc8
ARM GAS  C:\Users\IDONNO~1\AppData\Local\Temp\cctCrHPd.s 			page 19


 1027 0763 18       		.uleb128 0x18
 1028 0764 77000000 		.4byte	0x77
 1029 0768 73070000 		.4byte	0x773
 1030 076c 19       		.uleb128 0x19
 1031 076d BA000000 		.4byte	0xba
 1032 0771 3A       		.byte	0x3a
 1033 0772 00       		.byte	0
 1034 0773 03       		.uleb128 0x3
 1035 0774 B1010000 		.4byte	.LASF115
 1036 0778 0D       		.byte	0xd
 1037 0779 34       		.byte	0x34
 1038 077a 1C070000 		.4byte	0x71c
 1039 077e 06       		.uleb128 0x6
 1040 077f 04       		.byte	0x4
 1041 0780 73070000 		.4byte	0x773
 1042 0784 02       		.uleb128 0x2
 1043 0785 01       		.byte	0x1
 1044 0786 02       		.byte	0x2
 1045 0787 A0030000 		.4byte	.LASF116
 1046 078b 1A       		.uleb128 0x1a
 1047 078c 13040000 		.4byte	.LASF125
 1048 0790 01       		.byte	0x1
 1049 0791 01       		.byte	0x1
 1050 0792 11       		.byte	0x11
 1051 0793 AE070000 		.4byte	0x7ae
 1052 0797 1B       		.uleb128 0x1b
 1053 0798 97010000 		.4byte	.LASF126
 1054 079c 01       		.byte	0x1
 1055 079d 14       		.byte	0x14
 1056 079e C9030000 		.4byte	.LASF127
 1057 07a2 01       		.byte	0x1
 1058 07a3 A7070000 		.4byte	0x7a7
 1059 07a7 1C       		.uleb128 0x1c
 1060 07a8 AE070000 		.4byte	0x7ae
 1061 07ac 00       		.byte	0
 1062 07ad 00       		.byte	0
 1063 07ae 06       		.uleb128 0x6
 1064 07af 04       		.byte	0x4
 1065 07b0 8B070000 		.4byte	0x78b
 1066 07b4 1D       		.uleb128 0x1d
 1067 07b5 97070000 		.4byte	0x797
 1068 07b9 18       		.byte	0x18
 1069 07ba 01       		.byte	0x1
 1070 07bb C3070000 		.4byte	0x7c3
 1071 07bf CD070000 		.4byte	0x7cd
 1072 07c3 1E       		.uleb128 0x1e
 1073 07c4 71010000 		.4byte	.LASF128
 1074 07c8 CD070000 		.4byte	0x7cd
 1075 07cc 00       		.byte	0
 1076 07cd 07       		.uleb128 0x7
 1077 07ce AE070000 		.4byte	0x7ae
 1078 07d2 1F       		.uleb128 0x1f
 1079 07d3 85040000 		.4byte	.LASF129
 1080 07d7 01       		.byte	0x1
 1081 07d8 3F       		.byte	0x3f
 1082 07d9 6B030000 		.4byte	.LASF130
 1083 07dd 01       		.byte	0x1
ARM GAS  C:\Users\IDONNO~1\AppData\Local\Temp\cctCrHPd.s 			page 20


 1084 07de 20       		.uleb128 0x20
 1085 07df B4070000 		.4byte	0x7b4
 1086 07e3 C9030000 		.4byte	.LASF127
 1087 07e7 00000000 		.4byte	.LFB256
 1088 07eb 02000000 		.4byte	.LFE256-.LFB256
 1089 07ef 01       		.uleb128 0x1
 1090 07f0 9C       		.byte	0x9c
 1091 07f1 F9070000 		.4byte	0x7f9
 1092 07f5 01080000 		.4byte	0x801
 1093 07f9 21       		.uleb128 0x21
 1094 07fa C3070000 		.4byte	0x7c3
 1095 07fe 01       		.uleb128 0x1
 1096 07ff 50       		.byte	0x50
 1097 0800 00       		.byte	0
 1098 0801 22       		.uleb128 0x22
 1099 0802 63060000 		.4byte	.LASF131
 1100 0806 01       		.byte	0x1
 1101 0807 27       		.byte	0x27
 1102 0808 7E000000 		.4byte	0x7e
 1103 080c 00000000 		.4byte	.LFB257
 1104 0810 0E000000 		.4byte	.LFE257-.LFB257
 1105 0814 01       		.uleb128 0x1
 1106 0815 9C       		.byte	0x9c
 1107 0816 41080000 		.4byte	0x841
 1108 081a 23       		.uleb128 0x23
 1109 081b D2070000 		.4byte	0x7d2
 1110 081f 02000000 		.4byte	.LBB6
 1111 0823 04000000 		.4byte	.LBE6-.LBB6
 1112 0827 01       		.byte	0x1
 1113 0828 29       		.byte	0x29
 1114 0829 37080000 		.4byte	0x837
 1115 082d 24       		.uleb128 0x24
 1116 082e 06000000 		.4byte	.LVL1
 1117 0832 8A080000 		.4byte	0x88a
 1118 0836 00       		.byte	0
 1119 0837 24       		.uleb128 0x24
 1120 0838 0A000000 		.4byte	.LVL2
 1121 083c 95080000 		.4byte	0x895
 1122 0840 00       		.byte	0
 1123 0841 25       		.uleb128 0x25
 1124 0842 D2070000 		.4byte	0x7d2
 1125 0846 6B030000 		.4byte	.LASF130
 1126 084a 00000000 		.4byte	.LFB258
 1127 084e 04000000 		.4byte	.LFE258-.LFB258
 1128 0852 01       		.uleb128 0x1
 1129 0853 9C       		.byte	0x9c
 1130 0854 62080000 		.4byte	0x862
 1131 0858 26       		.uleb128 0x26
 1132 0859 04000000 		.4byte	.LVL3
 1133 085d 8A080000 		.4byte	0x88a
 1134 0861 00       		.byte	0
 1135 0862 27       		.uleb128 0x27
 1136 0863 BA000000 		.4byte	.LASF117
 1137 0867 0E       		.byte	0xe
 1138 0868 A706     		.2byte	0x6a7
 1139 086a E8000000 		.4byte	0xe8
 1140 086e 28       		.uleb128 0x28
ARM GAS  C:\Users\IDONNO~1\AppData\Local\Temp\cctCrHPd.s 			page 21


 1141 086f 636800   		.ascii	"ch\000"
 1142 0872 07       		.byte	0x7
 1143 0873 0902     		.2byte	0x209
 1144 0875 7D040000 		.4byte	0x47d
 1145 0879 29       		.uleb128 0x29
 1146 087a 9F000000 		.4byte	.LASF118
 1147 087e 01       		.byte	0x1
 1148 087f 1E       		.byte	0x1e
 1149 0880 8B070000 		.4byte	0x78b
 1150 0884 05       		.uleb128 0x5
 1151 0885 03       		.byte	0x3
 1152 0886 00000000 		.4byte	test
 1153 088a 2A       		.uleb128 0x2a
 1154 088b C7000000 		.4byte	.LASF119
 1155 088f C7000000 		.4byte	.LASF119
 1156 0893 0F       		.byte	0xf
 1157 0894 3A       		.byte	0x3a
 1158 0895 2A       		.uleb128 0x2a
 1159 0896 50040000 		.4byte	.LASF120
 1160 089a 50040000 		.4byte	.LASF120
 1161 089e 0F       		.byte	0xf
 1162 089f 3B       		.byte	0x3b
 1163 08a0 00       		.byte	0
 1164              		.section	.debug_abbrev,"",%progbits
 1165              	.Ldebug_abbrev0:
 1166 0000 01       		.uleb128 0x1
 1167 0001 11       		.uleb128 0x11
 1168 0002 01       		.byte	0x1
 1169 0003 25       		.uleb128 0x25
 1170 0004 0E       		.uleb128 0xe
 1171 0005 13       		.uleb128 0x13
 1172 0006 0B       		.uleb128 0xb
 1173 0007 03       		.uleb128 0x3
 1174 0008 0E       		.uleb128 0xe
 1175 0009 1B       		.uleb128 0x1b
 1176 000a 0E       		.uleb128 0xe
 1177 000b 55       		.uleb128 0x55
 1178 000c 17       		.uleb128 0x17
 1179 000d 11       		.uleb128 0x11
 1180 000e 01       		.uleb128 0x1
 1181 000f 10       		.uleb128 0x10
 1182 0010 17       		.uleb128 0x17
 1183 0011 00       		.byte	0
 1184 0012 00       		.byte	0
 1185 0013 02       		.uleb128 0x2
 1186 0014 24       		.uleb128 0x24
 1187 0015 00       		.byte	0
 1188 0016 0B       		.uleb128 0xb
 1189 0017 0B       		.uleb128 0xb
 1190 0018 3E       		.uleb128 0x3e
 1191 0019 0B       		.uleb128 0xb
 1192 001a 03       		.uleb128 0x3
 1193 001b 0E       		.uleb128 0xe
 1194 001c 00       		.byte	0
 1195 001d 00       		.byte	0
 1196 001e 03       		.uleb128 0x3
 1197 001f 16       		.uleb128 0x16
ARM GAS  C:\Users\IDONNO~1\AppData\Local\Temp\cctCrHPd.s 			page 22


 1198 0020 00       		.byte	0
 1199 0021 03       		.uleb128 0x3
 1200 0022 0E       		.uleb128 0xe
 1201 0023 3A       		.uleb128 0x3a
 1202 0024 0B       		.uleb128 0xb
 1203 0025 3B       		.uleb128 0x3b
 1204 0026 0B       		.uleb128 0xb
 1205 0027 49       		.uleb128 0x49
 1206 0028 13       		.uleb128 0x13
 1207 0029 00       		.byte	0
 1208 002a 00       		.byte	0
 1209 002b 04       		.uleb128 0x4
 1210 002c 24       		.uleb128 0x24
 1211 002d 00       		.byte	0
 1212 002e 0B       		.uleb128 0xb
 1213 002f 0B       		.uleb128 0xb
 1214 0030 3E       		.uleb128 0x3e
 1215 0031 0B       		.uleb128 0xb
 1216 0032 03       		.uleb128 0x3
 1217 0033 08       		.uleb128 0x8
 1218 0034 00       		.byte	0
 1219 0035 00       		.byte	0
 1220 0036 05       		.uleb128 0x5
 1221 0037 0F       		.uleb128 0xf
 1222 0038 00       		.byte	0
 1223 0039 0B       		.uleb128 0xb
 1224 003a 0B       		.uleb128 0xb
 1225 003b 00       		.byte	0
 1226 003c 00       		.byte	0
 1227 003d 06       		.uleb128 0x6
 1228 003e 0F       		.uleb128 0xf
 1229 003f 00       		.byte	0
 1230 0040 0B       		.uleb128 0xb
 1231 0041 0B       		.uleb128 0xb
 1232 0042 49       		.uleb128 0x49
 1233 0043 13       		.uleb128 0x13
 1234 0044 00       		.byte	0
 1235 0045 00       		.byte	0
 1236 0046 07       		.uleb128 0x7
 1237 0047 26       		.uleb128 0x26
 1238 0048 00       		.byte	0
 1239 0049 49       		.uleb128 0x49
 1240 004a 13       		.uleb128 0x13
 1241 004b 00       		.byte	0
 1242 004c 00       		.byte	0
 1243 004d 08       		.uleb128 0x8
 1244 004e 35       		.uleb128 0x35
 1245 004f 00       		.byte	0
 1246 0050 49       		.uleb128 0x49
 1247 0051 13       		.uleb128 0x13
 1248 0052 00       		.byte	0
 1249 0053 00       		.byte	0
 1250 0054 09       		.uleb128 0x9
 1251 0055 13       		.uleb128 0x13
 1252 0056 01       		.byte	0x1
 1253 0057 03       		.uleb128 0x3
 1254 0058 0E       		.uleb128 0xe
ARM GAS  C:\Users\IDONNO~1\AppData\Local\Temp\cctCrHPd.s 			page 23


 1255 0059 0B       		.uleb128 0xb
 1256 005a 0B       		.uleb128 0xb
 1257 005b 3A       		.uleb128 0x3a
 1258 005c 0B       		.uleb128 0xb
 1259 005d 3B       		.uleb128 0x3b
 1260 005e 0B       		.uleb128 0xb
 1261 005f 01       		.uleb128 0x1
 1262 0060 13       		.uleb128 0x13
 1263 0061 00       		.byte	0
 1264 0062 00       		.byte	0
 1265 0063 0A       		.uleb128 0xa
 1266 0064 17       		.uleb128 0x17
 1267 0065 01       		.byte	0x1
 1268 0066 0B       		.uleb128 0xb
 1269 0067 0B       		.uleb128 0xb
 1270 0068 3A       		.uleb128 0x3a
 1271 0069 0B       		.uleb128 0xb
 1272 006a 3B       		.uleb128 0x3b
 1273 006b 0B       		.uleb128 0xb
 1274 006c 01       		.uleb128 0x1
 1275 006d 13       		.uleb128 0x13
 1276 006e 00       		.byte	0
 1277 006f 00       		.byte	0
 1278 0070 0B       		.uleb128 0xb
 1279 0071 0D       		.uleb128 0xd
 1280 0072 00       		.byte	0
 1281 0073 03       		.uleb128 0x3
 1282 0074 0E       		.uleb128 0xe
 1283 0075 3A       		.uleb128 0x3a
 1284 0076 0B       		.uleb128 0xb
 1285 0077 3B       		.uleb128 0x3b
 1286 0078 05       		.uleb128 0x5
 1287 0079 49       		.uleb128 0x49
 1288 007a 13       		.uleb128 0x13
 1289 007b 00       		.byte	0
 1290 007c 00       		.byte	0
 1291 007d 0C       		.uleb128 0xc
 1292 007e 0D       		.uleb128 0xd
 1293 007f 00       		.byte	0
 1294 0080 03       		.uleb128 0x3
 1295 0081 0E       		.uleb128 0xe
 1296 0082 3A       		.uleb128 0x3a
 1297 0083 0B       		.uleb128 0xb
 1298 0084 3B       		.uleb128 0x3b
 1299 0085 0B       		.uleb128 0xb
 1300 0086 49       		.uleb128 0x49
 1301 0087 13       		.uleb128 0x13
 1302 0088 38       		.uleb128 0x38
 1303 0089 0B       		.uleb128 0xb
 1304 008a 00       		.byte	0
 1305 008b 00       		.byte	0
 1306 008c 0D       		.uleb128 0xd
 1307 008d 0D       		.uleb128 0xd
 1308 008e 00       		.byte	0
 1309 008f 03       		.uleb128 0x3
 1310 0090 08       		.uleb128 0x8
 1311 0091 3A       		.uleb128 0x3a
ARM GAS  C:\Users\IDONNO~1\AppData\Local\Temp\cctCrHPd.s 			page 24


 1312 0092 0B       		.uleb128 0xb
 1313 0093 3B       		.uleb128 0x3b
 1314 0094 05       		.uleb128 0x5
 1315 0095 49       		.uleb128 0x49
 1316 0096 13       		.uleb128 0x13
 1317 0097 38       		.uleb128 0x38
 1318 0098 0B       		.uleb128 0xb
 1319 0099 00       		.byte	0
 1320 009a 00       		.byte	0
 1321 009b 0E       		.uleb128 0xe
 1322 009c 0D       		.uleb128 0xd
 1323 009d 00       		.byte	0
 1324 009e 03       		.uleb128 0x3
 1325 009f 0E       		.uleb128 0xe
 1326 00a0 3A       		.uleb128 0x3a
 1327 00a1 0B       		.uleb128 0xb
 1328 00a2 3B       		.uleb128 0x3b
 1329 00a3 05       		.uleb128 0x5
 1330 00a4 49       		.uleb128 0x49
 1331 00a5 13       		.uleb128 0x13
 1332 00a6 38       		.uleb128 0x38
 1333 00a7 0B       		.uleb128 0xb
 1334 00a8 00       		.byte	0
 1335 00a9 00       		.byte	0
 1336 00aa 0F       		.uleb128 0xf
 1337 00ab 13       		.uleb128 0x13
 1338 00ac 01       		.byte	0x1
 1339 00ad 03       		.uleb128 0x3
 1340 00ae 0E       		.uleb128 0xe
 1341 00af 0B       		.uleb128 0xb
 1342 00b0 0B       		.uleb128 0xb
 1343 00b1 3A       		.uleb128 0x3a
 1344 00b2 0B       		.uleb128 0xb
 1345 00b3 3B       		.uleb128 0x3b
 1346 00b4 05       		.uleb128 0x5
 1347 00b5 01       		.uleb128 0x1
 1348 00b6 13       		.uleb128 0x13
 1349 00b7 00       		.byte	0
 1350 00b8 00       		.byte	0
 1351 00b9 10       		.uleb128 0x10
 1352 00ba 15       		.uleb128 0x15
 1353 00bb 01       		.byte	0x1
 1354 00bc 01       		.uleb128 0x1
 1355 00bd 13       		.uleb128 0x13
 1356 00be 00       		.byte	0
 1357 00bf 00       		.byte	0
 1358 00c0 11       		.uleb128 0x11
 1359 00c1 05       		.uleb128 0x5
 1360 00c2 00       		.byte	0
 1361 00c3 49       		.uleb128 0x49
 1362 00c4 13       		.uleb128 0x13
 1363 00c5 00       		.byte	0
 1364 00c6 00       		.byte	0
 1365 00c7 12       		.uleb128 0x12
 1366 00c8 13       		.uleb128 0x13
 1367 00c9 01       		.byte	0x1
 1368 00ca 03       		.uleb128 0x3
ARM GAS  C:\Users\IDONNO~1\AppData\Local\Temp\cctCrHPd.s 			page 25


 1369 00cb 0E       		.uleb128 0xe
 1370 00cc 0B       		.uleb128 0xb
 1371 00cd 05       		.uleb128 0x5
 1372 00ce 3A       		.uleb128 0x3a
 1373 00cf 0B       		.uleb128 0xb
 1374 00d0 3B       		.uleb128 0x3b
 1375 00d1 05       		.uleb128 0x5
 1376 00d2 01       		.uleb128 0x1
 1377 00d3 13       		.uleb128 0x13
 1378 00d4 00       		.byte	0
 1379 00d5 00       		.byte	0
 1380 00d6 13       		.uleb128 0x13
 1381 00d7 04       		.uleb128 0x4
 1382 00d8 01       		.byte	0x1
 1383 00d9 0B       		.uleb128 0xb
 1384 00da 0B       		.uleb128 0xb
 1385 00db 49       		.uleb128 0x49
 1386 00dc 13       		.uleb128 0x13
 1387 00dd 3A       		.uleb128 0x3a
 1388 00de 0B       		.uleb128 0xb
 1389 00df 3B       		.uleb128 0x3b
 1390 00e0 0B       		.uleb128 0xb
 1391 00e1 6E       		.uleb128 0x6e
 1392 00e2 0E       		.uleb128 0xe
 1393 00e3 01       		.uleb128 0x1
 1394 00e4 13       		.uleb128 0x13
 1395 00e5 00       		.byte	0
 1396 00e6 00       		.byte	0
 1397 00e7 14       		.uleb128 0x14
 1398 00e8 28       		.uleb128 0x28
 1399 00e9 00       		.byte	0
 1400 00ea 03       		.uleb128 0x3
 1401 00eb 0E       		.uleb128 0xe
 1402 00ec 1C       		.uleb128 0x1c
 1403 00ed 0B       		.uleb128 0xb
 1404 00ee 00       		.byte	0
 1405 00ef 00       		.byte	0
 1406 00f0 15       		.uleb128 0x15
 1407 00f1 28       		.uleb128 0x28
 1408 00f2 00       		.byte	0
 1409 00f3 03       		.uleb128 0x3
 1410 00f4 08       		.uleb128 0x8
 1411 00f5 1C       		.uleb128 0x1c
 1412 00f6 0B       		.uleb128 0xb
 1413 00f7 00       		.byte	0
 1414 00f8 00       		.byte	0
 1415 00f9 16       		.uleb128 0x16
 1416 00fa 0D       		.uleb128 0xd
 1417 00fb 00       		.byte	0
 1418 00fc 03       		.uleb128 0x3
 1419 00fd 08       		.uleb128 0x8
 1420 00fe 3A       		.uleb128 0x3a
 1421 00ff 0B       		.uleb128 0xb
 1422 0100 3B       		.uleb128 0x3b
 1423 0101 0B       		.uleb128 0xb
 1424 0102 49       		.uleb128 0x49
 1425 0103 13       		.uleb128 0x13
ARM GAS  C:\Users\IDONNO~1\AppData\Local\Temp\cctCrHPd.s 			page 26


 1426 0104 38       		.uleb128 0x38
 1427 0105 0B       		.uleb128 0xb
 1428 0106 00       		.byte	0
 1429 0107 00       		.byte	0
 1430 0108 17       		.uleb128 0x17
 1431 0109 13       		.uleb128 0x13
 1432 010a 01       		.byte	0x1
 1433 010b 0B       		.uleb128 0xb
 1434 010c 0B       		.uleb128 0xb
 1435 010d 3A       		.uleb128 0x3a
 1436 010e 0B       		.uleb128 0xb
 1437 010f 3B       		.uleb128 0x3b
 1438 0110 0B       		.uleb128 0xb
 1439 0111 6E       		.uleb128 0x6e
 1440 0112 0E       		.uleb128 0xe
 1441 0113 01       		.uleb128 0x1
 1442 0114 13       		.uleb128 0x13
 1443 0115 00       		.byte	0
 1444 0116 00       		.byte	0
 1445 0117 18       		.uleb128 0x18
 1446 0118 01       		.uleb128 0x1
 1447 0119 01       		.byte	0x1
 1448 011a 49       		.uleb128 0x49
 1449 011b 13       		.uleb128 0x13
 1450 011c 01       		.uleb128 0x1
 1451 011d 13       		.uleb128 0x13
 1452 011e 00       		.byte	0
 1453 011f 00       		.byte	0
 1454 0120 19       		.uleb128 0x19
 1455 0121 21       		.uleb128 0x21
 1456 0122 00       		.byte	0
 1457 0123 49       		.uleb128 0x49
 1458 0124 13       		.uleb128 0x13
 1459 0125 2F       		.uleb128 0x2f
 1460 0126 0B       		.uleb128 0xb
 1461 0127 00       		.byte	0
 1462 0128 00       		.byte	0
 1463 0129 1A       		.uleb128 0x1a
 1464 012a 02       		.uleb128 0x2
 1465 012b 01       		.byte	0x1
 1466 012c 03       		.uleb128 0x3
 1467 012d 0E       		.uleb128 0xe
 1468 012e 0B       		.uleb128 0xb
 1469 012f 0B       		.uleb128 0xb
 1470 0130 3A       		.uleb128 0x3a
 1471 0131 0B       		.uleb128 0xb
 1472 0132 3B       		.uleb128 0x3b
 1473 0133 0B       		.uleb128 0xb
 1474 0134 01       		.uleb128 0x1
 1475 0135 13       		.uleb128 0x13
 1476 0136 00       		.byte	0
 1477 0137 00       		.byte	0
 1478 0138 1B       		.uleb128 0x1b
 1479 0139 2E       		.uleb128 0x2e
 1480 013a 01       		.byte	0x1
 1481 013b 3F       		.uleb128 0x3f
 1482 013c 19       		.uleb128 0x19
ARM GAS  C:\Users\IDONNO~1\AppData\Local\Temp\cctCrHPd.s 			page 27


 1483 013d 03       		.uleb128 0x3
 1484 013e 0E       		.uleb128 0xe
 1485 013f 3A       		.uleb128 0x3a
 1486 0140 0B       		.uleb128 0xb
 1487 0141 3B       		.uleb128 0x3b
 1488 0142 0B       		.uleb128 0xb
 1489 0143 6E       		.uleb128 0x6e
 1490 0144 0E       		.uleb128 0xe
 1491 0145 32       		.uleb128 0x32
 1492 0146 0B       		.uleb128 0xb
 1493 0147 3C       		.uleb128 0x3c
 1494 0148 19       		.uleb128 0x19
 1495 0149 64       		.uleb128 0x64
 1496 014a 13       		.uleb128 0x13
 1497 014b 00       		.byte	0
 1498 014c 00       		.byte	0
 1499 014d 1C       		.uleb128 0x1c
 1500 014e 05       		.uleb128 0x5
 1501 014f 00       		.byte	0
 1502 0150 49       		.uleb128 0x49
 1503 0151 13       		.uleb128 0x13
 1504 0152 34       		.uleb128 0x34
 1505 0153 19       		.uleb128 0x19
 1506 0154 00       		.byte	0
 1507 0155 00       		.byte	0
 1508 0156 1D       		.uleb128 0x1d
 1509 0157 2E       		.uleb128 0x2e
 1510 0158 01       		.byte	0x1
 1511 0159 47       		.uleb128 0x47
 1512 015a 13       		.uleb128 0x13
 1513 015b 3B       		.uleb128 0x3b
 1514 015c 0B       		.uleb128 0xb
 1515 015d 20       		.uleb128 0x20
 1516 015e 0B       		.uleb128 0xb
 1517 015f 64       		.uleb128 0x64
 1518 0160 13       		.uleb128 0x13
 1519 0161 01       		.uleb128 0x1
 1520 0162 13       		.uleb128 0x13
 1521 0163 00       		.byte	0
 1522 0164 00       		.byte	0
 1523 0165 1E       		.uleb128 0x1e
 1524 0166 05       		.uleb128 0x5
 1525 0167 00       		.byte	0
 1526 0168 03       		.uleb128 0x3
 1527 0169 0E       		.uleb128 0xe
 1528 016a 49       		.uleb128 0x49
 1529 016b 13       		.uleb128 0x13
 1530 016c 34       		.uleb128 0x34
 1531 016d 19       		.uleb128 0x19
 1532 016e 00       		.byte	0
 1533 016f 00       		.byte	0
 1534 0170 1F       		.uleb128 0x1f
 1535 0171 2E       		.uleb128 0x2e
 1536 0172 00       		.byte	0
 1537 0173 3F       		.uleb128 0x3f
 1538 0174 19       		.uleb128 0x19
 1539 0175 03       		.uleb128 0x3
ARM GAS  C:\Users\IDONNO~1\AppData\Local\Temp\cctCrHPd.s 			page 28


 1540 0176 0E       		.uleb128 0xe
 1541 0177 3A       		.uleb128 0x3a
 1542 0178 0B       		.uleb128 0xb
 1543 0179 3B       		.uleb128 0x3b
 1544 017a 0B       		.uleb128 0xb
 1545 017b 6E       		.uleb128 0x6e
 1546 017c 0E       		.uleb128 0xe
 1547 017d 20       		.uleb128 0x20
 1548 017e 0B       		.uleb128 0xb
 1549 017f 00       		.byte	0
 1550 0180 00       		.byte	0
 1551 0181 20       		.uleb128 0x20
 1552 0182 2E       		.uleb128 0x2e
 1553 0183 01       		.byte	0x1
 1554 0184 31       		.uleb128 0x31
 1555 0185 13       		.uleb128 0x13
 1556 0186 6E       		.uleb128 0x6e
 1557 0187 0E       		.uleb128 0xe
 1558 0188 11       		.uleb128 0x11
 1559 0189 01       		.uleb128 0x1
 1560 018a 12       		.uleb128 0x12
 1561 018b 06       		.uleb128 0x6
 1562 018c 40       		.uleb128 0x40
 1563 018d 18       		.uleb128 0x18
 1564 018e 64       		.uleb128 0x64
 1565 018f 13       		.uleb128 0x13
 1566 0190 9742     		.uleb128 0x2117
 1567 0192 19       		.uleb128 0x19
 1568 0193 01       		.uleb128 0x1
 1569 0194 13       		.uleb128 0x13
 1570 0195 00       		.byte	0
 1571 0196 00       		.byte	0
 1572 0197 21       		.uleb128 0x21
 1573 0198 05       		.uleb128 0x5
 1574 0199 00       		.byte	0
 1575 019a 31       		.uleb128 0x31
 1576 019b 13       		.uleb128 0x13
 1577 019c 02       		.uleb128 0x2
 1578 019d 18       		.uleb128 0x18
 1579 019e 00       		.byte	0
 1580 019f 00       		.byte	0
 1581 01a0 22       		.uleb128 0x22
 1582 01a1 2E       		.uleb128 0x2e
 1583 01a2 01       		.byte	0x1
 1584 01a3 3F       		.uleb128 0x3f
 1585 01a4 19       		.uleb128 0x19
 1586 01a5 03       		.uleb128 0x3
 1587 01a6 0E       		.uleb128 0xe
 1588 01a7 3A       		.uleb128 0x3a
 1589 01a8 0B       		.uleb128 0xb
 1590 01a9 3B       		.uleb128 0x3b
 1591 01aa 0B       		.uleb128 0xb
 1592 01ab 49       		.uleb128 0x49
 1593 01ac 13       		.uleb128 0x13
 1594 01ad 11       		.uleb128 0x11
 1595 01ae 01       		.uleb128 0x1
 1596 01af 12       		.uleb128 0x12
ARM GAS  C:\Users\IDONNO~1\AppData\Local\Temp\cctCrHPd.s 			page 29


 1597 01b0 06       		.uleb128 0x6
 1598 01b1 40       		.uleb128 0x40
 1599 01b2 18       		.uleb128 0x18
 1600 01b3 9742     		.uleb128 0x2117
 1601 01b5 19       		.uleb128 0x19
 1602 01b6 01       		.uleb128 0x1
 1603 01b7 13       		.uleb128 0x13
 1604 01b8 00       		.byte	0
 1605 01b9 00       		.byte	0
 1606 01ba 23       		.uleb128 0x23
 1607 01bb 1D       		.uleb128 0x1d
 1608 01bc 01       		.byte	0x1
 1609 01bd 31       		.uleb128 0x31
 1610 01be 13       		.uleb128 0x13
 1611 01bf 11       		.uleb128 0x11
 1612 01c0 01       		.uleb128 0x1
 1613 01c1 12       		.uleb128 0x12
 1614 01c2 06       		.uleb128 0x6
 1615 01c3 58       		.uleb128 0x58
 1616 01c4 0B       		.uleb128 0xb
 1617 01c5 59       		.uleb128 0x59
 1618 01c6 0B       		.uleb128 0xb
 1619 01c7 01       		.uleb128 0x1
 1620 01c8 13       		.uleb128 0x13
 1621 01c9 00       		.byte	0
 1622 01ca 00       		.byte	0
 1623 01cb 24       		.uleb128 0x24
 1624 01cc 898201   		.uleb128 0x4109
 1625 01cf 00       		.byte	0
 1626 01d0 11       		.uleb128 0x11
 1627 01d1 01       		.uleb128 0x1
 1628 01d2 31       		.uleb128 0x31
 1629 01d3 13       		.uleb128 0x13
 1630 01d4 00       		.byte	0
 1631 01d5 00       		.byte	0
 1632 01d6 25       		.uleb128 0x25
 1633 01d7 2E       		.uleb128 0x2e
 1634 01d8 01       		.byte	0x1
 1635 01d9 31       		.uleb128 0x31
 1636 01da 13       		.uleb128 0x13
 1637 01db 6E       		.uleb128 0x6e
 1638 01dc 0E       		.uleb128 0xe
 1639 01dd 11       		.uleb128 0x11
 1640 01de 01       		.uleb128 0x1
 1641 01df 12       		.uleb128 0x12
 1642 01e0 06       		.uleb128 0x6
 1643 01e1 40       		.uleb128 0x40
 1644 01e2 18       		.uleb128 0x18
 1645 01e3 9742     		.uleb128 0x2117
 1646 01e5 19       		.uleb128 0x19
 1647 01e6 01       		.uleb128 0x1
 1648 01e7 13       		.uleb128 0x13
 1649 01e8 00       		.byte	0
 1650 01e9 00       		.byte	0
 1651 01ea 26       		.uleb128 0x26
 1652 01eb 898201   		.uleb128 0x4109
 1653 01ee 00       		.byte	0
ARM GAS  C:\Users\IDONNO~1\AppData\Local\Temp\cctCrHPd.s 			page 30


 1654 01ef 11       		.uleb128 0x11
 1655 01f0 01       		.uleb128 0x1
 1656 01f1 9542     		.uleb128 0x2115
 1657 01f3 19       		.uleb128 0x19
 1658 01f4 31       		.uleb128 0x31
 1659 01f5 13       		.uleb128 0x13
 1660 01f6 00       		.byte	0
 1661 01f7 00       		.byte	0
 1662 01f8 27       		.uleb128 0x27
 1663 01f9 34       		.uleb128 0x34
 1664 01fa 00       		.byte	0
 1665 01fb 03       		.uleb128 0x3
 1666 01fc 0E       		.uleb128 0xe
 1667 01fd 3A       		.uleb128 0x3a
 1668 01fe 0B       		.uleb128 0xb
 1669 01ff 3B       		.uleb128 0x3b
 1670 0200 05       		.uleb128 0x5
 1671 0201 49       		.uleb128 0x49
 1672 0202 13       		.uleb128 0x13
 1673 0203 3F       		.uleb128 0x3f
 1674 0204 19       		.uleb128 0x19
 1675 0205 3C       		.uleb128 0x3c
 1676 0206 19       		.uleb128 0x19
 1677 0207 00       		.byte	0
 1678 0208 00       		.byte	0
 1679 0209 28       		.uleb128 0x28
 1680 020a 34       		.uleb128 0x34
 1681 020b 00       		.byte	0
 1682 020c 03       		.uleb128 0x3
 1683 020d 08       		.uleb128 0x8
 1684 020e 3A       		.uleb128 0x3a
 1685 020f 0B       		.uleb128 0xb
 1686 0210 3B       		.uleb128 0x3b
 1687 0211 05       		.uleb128 0x5
 1688 0212 49       		.uleb128 0x49
 1689 0213 13       		.uleb128 0x13
 1690 0214 3F       		.uleb128 0x3f
 1691 0215 19       		.uleb128 0x19
 1692 0216 3C       		.uleb128 0x3c
 1693 0217 19       		.uleb128 0x19
 1694 0218 00       		.byte	0
 1695 0219 00       		.byte	0
 1696 021a 29       		.uleb128 0x29
 1697 021b 34       		.uleb128 0x34
 1698 021c 00       		.byte	0
 1699 021d 03       		.uleb128 0x3
 1700 021e 0E       		.uleb128 0xe
 1701 021f 3A       		.uleb128 0x3a
 1702 0220 0B       		.uleb128 0xb
 1703 0221 3B       		.uleb128 0x3b
 1704 0222 0B       		.uleb128 0xb
 1705 0223 49       		.uleb128 0x49
 1706 0224 13       		.uleb128 0x13
 1707 0225 3F       		.uleb128 0x3f
 1708 0226 19       		.uleb128 0x19
 1709 0227 02       		.uleb128 0x2
 1710 0228 18       		.uleb128 0x18
ARM GAS  C:\Users\IDONNO~1\AppData\Local\Temp\cctCrHPd.s 			page 31


 1711 0229 00       		.byte	0
 1712 022a 00       		.byte	0
 1713 022b 2A       		.uleb128 0x2a
 1714 022c 2E       		.uleb128 0x2e
 1715 022d 00       		.byte	0
 1716 022e 3F       		.uleb128 0x3f
 1717 022f 19       		.uleb128 0x19
 1718 0230 3C       		.uleb128 0x3c
 1719 0231 19       		.uleb128 0x19
 1720 0232 6E       		.uleb128 0x6e
 1721 0233 0E       		.uleb128 0xe
 1722 0234 03       		.uleb128 0x3
 1723 0235 0E       		.uleb128 0xe
 1724 0236 3A       		.uleb128 0x3a
 1725 0237 0B       		.uleb128 0xb
 1726 0238 3B       		.uleb128 0x3b
 1727 0239 0B       		.uleb128 0xb
 1728 023a 00       		.byte	0
 1729 023b 00       		.byte	0
 1730 023c 00       		.byte	0
 1731              		.section	.debug_aranges,"",%progbits
 1732 0000 2C000000 		.4byte	0x2c
 1733 0004 0200     		.2byte	0x2
 1734 0006 00000000 		.4byte	.Ldebug_info0
 1735 000a 04       		.byte	0x4
 1736 000b 00       		.byte	0
 1737 000c 0000     		.2byte	0
 1738 000e 0000     		.2byte	0
 1739 0010 00000000 		.4byte	.LFB256
 1740 0014 02000000 		.4byte	.LFE256-.LFB256
 1741 0018 00000000 		.4byte	.LFB257
 1742 001c 0E000000 		.4byte	.LFE257-.LFB257
 1743 0020 00000000 		.4byte	.LFB258
 1744 0024 04000000 		.4byte	.LFE258-.LFB258
 1745 0028 00000000 		.4byte	0
 1746 002c 00000000 		.4byte	0
 1747              		.section	.debug_ranges,"",%progbits
 1748              	.Ldebug_ranges0:
 1749 0000 00000000 		.4byte	.LFB256
 1750 0004 02000000 		.4byte	.LFE256
 1751 0008 00000000 		.4byte	.LFB257
 1752 000c 0E000000 		.4byte	.LFE257
 1753 0010 00000000 		.4byte	.LFB258
 1754 0014 04000000 		.4byte	.LFE258
 1755 0018 00000000 		.4byte	0
 1756 001c 00000000 		.4byte	0
 1757              		.section	.debug_line,"",%progbits
 1758              	.Ldebug_line0:
 1759 0000 E5020000 		.section	.debug_str,"MS",%progbits,1
 1759      0200A902 
 1759      00000201 
 1759      FB0E0D00 
 1759      01010101 
 1760              	.LASF64:
 1761 0000 72656164 		.ascii	"ready_list_t\000"
 1761      795F6C69 
 1761      73745F74 
ARM GAS  C:\Users\IDONNO~1\AppData\Local\Temp\cctCrHPd.s 			page 32


 1761      00
 1762              	.LASF99:
 1763 000d 31314572 		.ascii	"11ErrorStatus\000"
 1763      726F7253 
 1763      74617475 
 1763      7300
 1764              	.LASF15:
 1765 001b 73697A65 		.ascii	"size_t\000"
 1765      5F7400
 1766              	.LASF32:
 1767 0022 7264796D 		.ascii	"rdymsg\000"
 1767      736700
 1768              	.LASF93:
 1769 0029 466C6167 		.ascii	"FlagStatus\000"
 1769      53746174 
 1769      757300
 1770              	.LASF4:
 1771 0034 5F5F7569 		.ascii	"__uint8_t\000"
 1771      6E74385F 
 1771      7400
 1772              	.LASF105:
 1773 003e 706F7274 		.ascii	"port_intctx\000"
 1773      5F696E74 
 1773      63747800 
 1774              	.LASF89:
 1775 004a 76746C69 		.ascii	"vtlist\000"
 1775      737400
 1776              	.LASF96:
 1777 0051 44495341 		.ascii	"DISABLE\000"
 1777      424C4500 
 1778              	.LASF123:
 1779 0059 443A5C67 		.ascii	"D:\\git\\oroca_bldc_dev\\oroca_bldc_FW\000"
 1779      69745C6F 
 1779      726F6361 
 1779      5F626C64 
 1779      635F6465 
 1780              	.LASF10:
 1781 007d 6C6F6E67 		.ascii	"long long unsigned int\000"
 1781      206C6F6E 
 1781      6720756E 
 1781      7369676E 
 1781      65642069 
 1782              	.LASF90:
 1783 0094 6D61696E 		.ascii	"mainthread\000"
 1783      74687265 
 1783      616400
 1784              	.LASF118:
 1785 009f 74657374 		.ascii	"test\000"
 1785      00
 1786              	.LASF80:
 1787 00a4 76697274 		.ascii	"virtual_timers_list_t\000"
 1787      75616C5F 
 1787      74696D65 
 1787      72735F6C 
 1787      6973745F 
 1788              	.LASF117:
 1789 00ba 49544D5F 		.ascii	"ITM_RxBuffer\000"
ARM GAS  C:\Users\IDONNO~1\AppData\Local\Temp\cctCrHPd.s 			page 33


 1789      52784275 
 1789      66666572 
 1789      00
 1790              	.LASF119:
 1791 00c7 626C6463 		.ascii	"bldc_init\000"
 1791      5F696E69 
 1791      7400
 1792              	.LASF63:
 1793 00d1 63685F74 		.ascii	"ch_threads_queue\000"
 1793      68726561 
 1793      64735F71 
 1793      75657565 
 1793      00
 1794              	.LASF41:
 1795 00e2 705F7072 		.ascii	"p_prio\000"
 1795      696F00
 1796              	.LASF9:
 1797 00e9 6C6F6E67 		.ascii	"long long int\000"
 1797      206C6F6E 
 1797      6720696E 
 1797      7400
 1798              	.LASF0:
 1799 00f7 7369676E 		.ascii	"signed char\000"
 1799      65642063 
 1799      68617200 
 1800              	.LASF8:
 1801 0103 6C6F6E67 		.ascii	"long unsigned int\000"
 1801      20756E73 
 1801      69676E65 
 1801      6420696E 
 1801      7400
 1802              	.LASF57:
 1803 0115 705F6D70 		.ascii	"p_mpool\000"
 1803      6F6F6C00 
 1804              	.LASF112:
 1805 011d 6D5F7175 		.ascii	"m_queue\000"
 1805      65756500 
 1806              	.LASF34:
 1807 0125 77746F62 		.ascii	"wtobjp\000"
 1807      6A7000
 1808              	.LASF25:
 1809 012c 74736C69 		.ascii	"tslices_t\000"
 1809      6365735F 
 1809      7400
 1810              	.LASF35:
 1811 0136 77747472 		.ascii	"wttrp\000"
 1811      7000
 1812              	.LASF87:
 1813 013c 63685F73 		.ascii	"ch_system\000"
 1813      79737465 
 1813      6D00
 1814              	.LASF6:
 1815 0146 6C6F6E67 		.ascii	"long int\000"
 1815      20696E74 
 1815      00
 1816              	.LASF97:
 1817 014f 454E4142 		.ascii	"ENABLE\000"
ARM GAS  C:\Users\IDONNO~1\AppData\Local\Temp\cctCrHPd.s 			page 34


 1817      4C4500
 1818              	.LASF23:
 1819 0156 74737461 		.ascii	"tstate_t\000"
 1819      74655F74 
 1819      00
 1820              	.LASF95:
 1821 015f 31354675 		.ascii	"15FunctionalState\000"
 1821      6E637469 
 1821      6F6E616C 
 1821      53746174 
 1821      6500
 1822              	.LASF128:
 1823 0171 74686973 		.ascii	"this\000"
 1823      00
 1824              	.LASF43:
 1825 0176 705F6E65 		.ascii	"p_newer\000"
 1825      77657200 
 1826              	.LASF109:
 1827 017e 735F7175 		.ascii	"s_queue\000"
 1827      65756500 
 1828              	.LASF33:
 1829 0186 65786974 		.ascii	"exitcode\000"
 1829      636F6465 
 1829      00
 1830              	.LASF69:
 1831 018f 725F6E65 		.ascii	"r_newer\000"
 1831      77657200 
 1832              	.LASF126:
 1833 0197 7072696E 		.ascii	"print\000"
 1833      7400
 1834              	.LASF102:
 1835 019d 4572726F 		.ascii	"ErrorStatus\000"
 1835      72537461 
 1835      74757300 
 1836              	.LASF76:
 1837 01a9 76745F70 		.ascii	"vt_prev\000"
 1837      72657600 
 1838              	.LASF115:
 1839 01b1 6D757465 		.ascii	"mutex_t\000"
 1839      785F7400 
 1840              	.LASF91:
 1841 01b9 69646C65 		.ascii	"idle_thread_wa\000"
 1841      5F746872 
 1841      6561645F 
 1841      776100
 1842              	.LASF29:
 1843 01c8 636E745F 		.ascii	"cnt_t\000"
 1843      7400
 1844              	.LASF11:
 1845 01ce 756E7369 		.ascii	"unsigned int\000"
 1845      676E6564 
 1845      20696E74 
 1845      00
 1846              	.LASF75:
 1847 01db 76745F6E 		.ascii	"vt_next\000"
 1847      65787400 
 1848              	.LASF36:
ARM GAS  C:\Users\IDONNO~1\AppData\Local\Temp\cctCrHPd.s 			page 35


 1849 01e3 77747365 		.ascii	"wtsemp\000"
 1849      6D7000
 1850              	.LASF77:
 1851 01ea 76745F64 		.ascii	"vt_delta\000"
 1851      656C7461 
 1851      00
 1852              	.LASF83:
 1853 01f3 73797374 		.ascii	"system_debug_t\000"
 1853      656D5F64 
 1853      65627567 
 1853      5F7400
 1854              	.LASF121:
 1855 0202 474E5520 		.ascii	"GNU C++ 5.2.1 20151202 (release) [ARM/embedded-5-br"
 1855      432B2B20 
 1855      352E322E 
 1855      31203230 
 1855      31353132 
 1856 0235 616E6368 		.ascii	"anch revision 231848] -mcpu=cortex-m4 -mfloat-abi=h"
 1856      20726576 
 1856      6973696F 
 1856      6E203233 
 1856      31383438 
 1857 0268 61726420 		.ascii	"ard -mfpu=fpv4-sp-d16 -mno-thumb-interwork -mthumb "
 1857      2D6D6670 
 1857      753D6670 
 1857      76342D73 
 1857      702D6431 
 1858 029b 2D676764 		.ascii	"-ggdb -O2 -std=gnu99 -fomit-frame-pointer -falign-f"
 1858      62202D4F 
 1858      32202D73 
 1858      74643D67 
 1858      6E753939 
 1859 02ce 756E6374 		.ascii	"unctions=16 -ffunction-sections -fdata-sections -fn"
 1859      696F6E73 
 1859      3D313620 
 1859      2D666675 
 1859      6E637469 
 1860 0301 6F2D636F 		.ascii	"o-common -fsingle-precision-constant -fno-rtti -fno"
 1860      6D6D6F6E 
 1860      202D6673 
 1860      696E676C 
 1860      652D7072 
 1861 0334 2D657863 		.ascii	"-exceptions\000"
 1861      65707469 
 1861      6F6E7300 
 1862              	.LASF110:
 1863 0340 735F636E 		.ascii	"s_cnt\000"
 1863      7400
 1864              	.LASF104:
 1865 0346 636F6E74 		.ascii	"context\000"
 1865      65787400 
 1866              	.LASF3:
 1867 034e 73686F72 		.ascii	"short unsigned int\000"
 1867      7420756E 
 1867      7369676E 
 1867      65642069 
 1867      6E7400
ARM GAS  C:\Users\IDONNO~1\AppData\Local\Temp\cctCrHPd.s 			page 36


 1868              	.LASF60:
 1869 0361 63685F74 		.ascii	"ch_thread\000"
 1869      68726561 
 1869      6400
 1870              	.LASF130:
 1871 036b 5F5A396D 		.ascii	"_Z9main_initv\000"
 1871      61696E5F 
 1871      696E6974 
 1871      7600
 1872              	.LASF27:
 1873 0379 6D73675F 		.ascii	"msg_t\000"
 1873      7400
 1874              	.LASF94:
 1875 037f 3130466C 		.ascii	"10FlagStatus\000"
 1875      61675374 
 1875      61747573 
 1875      00
 1876              	.LASF86:
 1877 038c 63685F73 		.ascii	"ch_system_t\000"
 1877      79737465 
 1877      6D5F7400 
 1878              	.LASF22:
 1879 0398 746D6F64 		.ascii	"tmode_t\000"
 1879      655F7400 
 1880              	.LASF116:
 1881 03a0 626F6F6C 		.ascii	"bool\000"
 1881      00
 1882              	.LASF65:
 1883 03a5 63685F72 		.ascii	"ch_ready_list\000"
 1883      65616479 
 1883      5F6C6973 
 1883      7400
 1884              	.LASF28:
 1885 03b3 6576656E 		.ascii	"eventmask_t\000"
 1885      746D6173 
 1885      6B5F7400 
 1886              	.LASF5:
 1887 03bf 5F5F696E 		.ascii	"__int32_t\000"
 1887      7433325F 
 1887      7400
 1888              	.LASF127:
 1889 03c9 5F5A4E35 		.ascii	"_ZN5cTest5printEv\000"
 1889      63546573 
 1889      74357072 
 1889      696E7445 
 1889      7600
 1890              	.LASF21:
 1891 03db 7274636E 		.ascii	"rtcnt_t\000"
 1891      745F7400 
 1892              	.LASF58:
 1893 03e3 74687265 		.ascii	"thread_reference_t\000"
 1893      61645F72 
 1893      65666572 
 1893      656E6365 
 1893      5F7400
 1894              	.LASF81:
 1895 03f6 63685F76 		.ascii	"ch_virtual_timers_list\000"
ARM GAS  C:\Users\IDONNO~1\AppData\Local\Temp\cctCrHPd.s 			page 37


 1895      69727475 
 1895      616C5F74 
 1895      696D6572 
 1895      735F6C69 
 1896              	.LASF100:
 1897 040d 4552524F 		.ascii	"ERROR\000"
 1897      5200
 1898              	.LASF125:
 1899 0413 63546573 		.ascii	"cTest\000"
 1899      7400
 1900              	.LASF107:
 1901 0419 746D5F63 		.ascii	"tm_calibration_t\000"
 1901      616C6962 
 1901      72617469 
 1901      6F6E5F74 
 1901      00
 1902              	.LASF44:
 1903 042a 705F6F6C 		.ascii	"p_older\000"
 1903      64657200 
 1904              	.LASF68:
 1905 0432 725F6374 		.ascii	"r_ctx\000"
 1905      7800
 1906              	.LASF98:
 1907 0438 46756E63 		.ascii	"FunctionalState\000"
 1907      74696F6E 
 1907      616C5374 
 1907      61746500 
 1908              	.LASF78:
 1909 0448 76745F66 		.ascii	"vt_func\000"
 1909      756E6300 
 1910              	.LASF120:
 1911 0450 626C6463 		.ascii	"bldc_start\000"
 1911      5F737461 
 1911      727400
 1912              	.LASF71:
 1913 045b 725F6375 		.ascii	"r_current\000"
 1913      7272656E 
 1913      7400
 1914              	.LASF70:
 1915 0465 725F6F6C 		.ascii	"r_older\000"
 1915      64657200 
 1916              	.LASF49:
 1917 046d 705F7072 		.ascii	"p_preempt\000"
 1917      65656D70 
 1917      7400
 1918              	.LASF19:
 1919 0477 666C6F61 		.ascii	"float\000"
 1919      7400
 1920              	.LASF24:
 1921 047d 74726566 		.ascii	"trefs_t\000"
 1921      735F7400 
 1922              	.LASF129:
 1923 0485 6D61696E 		.ascii	"main_init\000"
 1923      5F696E69 
 1923      7400
 1924              	.LASF73:
 1925 048f 76697274 		.ascii	"virtual_timer_t\000"
ARM GAS  C:\Users\IDONNO~1\AppData\Local\Temp\cctCrHPd.s 			page 38


 1925      75616C5F 
 1925      74696D65 
 1925      725F7400 
 1926              	.LASF40:
 1927 049f 705F7072 		.ascii	"p_prev\000"
 1927      657600
 1928              	.LASF92:
 1929 04a6 52455345 		.ascii	"RESET\000"
 1929      5400
 1930              	.LASF26:
 1931 04ac 74707269 		.ascii	"tprio_t\000"
 1931      6F5F7400 
 1932              	.LASF84:
 1933 04b4 63685F73 		.ascii	"ch_system_debug\000"
 1933      79737465 
 1933      6D5F6465 
 1933      62756700 
 1934              	.LASF13:
 1935 04c4 696E7433 		.ascii	"int32_t\000"
 1935      325F7400 
 1936              	.LASF1:
 1937 04cc 756E7369 		.ascii	"unsigned char\000"
 1937      676E6564 
 1937      20636861 
 1937      7200
 1938              	.LASF55:
 1939 04da 705F6D74 		.ascii	"p_mtxlist\000"
 1939      786C6973 
 1939      7400
 1940              	.LASF2:
 1941 04e4 73686F72 		.ascii	"short int\000"
 1941      7420696E 
 1941      7400
 1942              	.LASF46:
 1943 04ee 705F7374 		.ascii	"p_state\000"
 1943      61746500 
 1944              	.LASF122:
 1945 04f6 6D61696E 		.ascii	"main.cpp\000"
 1945      2E637070 
 1945      00
 1946              	.LASF67:
 1947 04ff 725F7072 		.ascii	"r_prio\000"
 1947      696F00
 1948              	.LASF38:
 1949 0506 65776D61 		.ascii	"ewmask\000"
 1949      736B00
 1950              	.LASF39:
 1951 050d 705F6E65 		.ascii	"p_next\000"
 1951      787400
 1952              	.LASF47:
 1953 0514 705F666C 		.ascii	"p_flags\000"
 1953      61677300 
 1954              	.LASF74:
 1955 051c 63685F76 		.ascii	"ch_virtual_timer\000"
 1955      69727475 
 1955      616C5F74 
 1955      696D6572 
ARM GAS  C:\Users\IDONNO~1\AppData\Local\Temp\cctCrHPd.s 			page 39


 1955      00
 1956              	.LASF108:
 1957 052d 63685F73 		.ascii	"ch_semaphore\000"
 1957      656D6170 
 1957      686F7265 
 1957      00
 1958              	.LASF54:
 1959 053a 705F6570 		.ascii	"p_epending\000"
 1959      656E6469 
 1959      6E6700
 1960              	.LASF14:
 1961 0545 75696E74 		.ascii	"uint32_t\000"
 1961      33325F74 
 1961      00
 1962              	.LASF103:
 1963 054e 72656761 		.ascii	"regarm_t\000"
 1963      726D5F74 
 1963      00
 1964              	.LASF66:
 1965 0557 725F7175 		.ascii	"r_queue\000"
 1965      65756500 
 1966              	.LASF82:
 1967 055f 76745F73 		.ascii	"vt_systime\000"
 1967      79737469 
 1967      6D6500
 1968              	.LASF61:
 1969 056a 63685F74 		.ascii	"ch_threads_list\000"
 1969      68726561 
 1969      64735F6C 
 1969      69737400 
 1970              	.LASF20:
 1971 057a 6C6F6E67 		.ascii	"long double\000"
 1971      20646F75 
 1971      626C6500 
 1972              	.LASF17:
 1973 0586 63686172 		.ascii	"char\000"
 1973      00
 1974              	.LASF37:
 1975 058b 77746D74 		.ascii	"wtmtxp\000"
 1975      787000
 1976              	.LASF124:
 1977 0592 3136746D 		.ascii	"16tm_calibration_t\000"
 1977      5F63616C 
 1977      69627261 
 1977      74696F6E 
 1977      5F7400
 1978              	.LASF114:
 1979 05a5 6D5F6E65 		.ascii	"m_next\000"
 1979      787400
 1980              	.LASF30:
 1981 05ac 73797374 		.ascii	"systime_t\000"
 1981      696D655F 
 1981      7400
 1982              	.LASF56:
 1983 05b6 705F7265 		.ascii	"p_realprio\000"
 1983      616C7072 
 1983      696F00
ARM GAS  C:\Users\IDONNO~1\AppData\Local\Temp\cctCrHPd.s 			page 40


 1984              	.LASF72:
 1985 05c1 76746675 		.ascii	"vtfunc_t\000"
 1985      6E635F74 
 1985      00
 1986              	.LASF7:
 1987 05ca 5F5F7569 		.ascii	"__uint32_t\000"
 1987      6E743332 
 1987      5F7400
 1988              	.LASF85:
 1989 05d5 70616E69 		.ascii	"panic_msg\000"
 1989      635F6D73 
 1989      6700
 1990              	.LASF106:
 1991 05df 6F666673 		.ascii	"offset\000"
 1991      657400
 1992              	.LASF50:
 1993 05e6 705F7469 		.ascii	"p_time\000"
 1993      6D6500
 1994              	.LASF52:
 1995 05ed 705F6D73 		.ascii	"p_msgqueue\000"
 1995      67717565 
 1995      756500
 1996              	.LASF79:
 1997 05f8 76745F70 		.ascii	"vt_par\000"
 1997      617200
 1998              	.LASF62:
 1999 05ff 74687265 		.ascii	"threads_queue_t\000"
 1999      6164735F 
 1999      71756575 
 1999      655F7400 
 2000              	.LASF48:
 2001 060f 705F7265 		.ascii	"p_refs\000"
 2001      667300
 2002              	.LASF31:
 2003 0616 74687265 		.ascii	"thread_t\000"
 2003      61645F74 
 2003      00
 2004              	.LASF88:
 2005 061f 726C6973 		.ascii	"rlist\000"
 2005      7400
 2006              	.LASF12:
 2007 0625 75696E74 		.ascii	"uint8_t\000"
 2007      385F7400 
 2008              	.LASF101:
 2009 062d 53554343 		.ascii	"SUCCESS\000"
 2009      45535300 
 2010              	.LASF16:
 2011 0635 73697A65 		.ascii	"sizetype\000"
 2011      74797065 
 2011      00
 2012              	.LASF111:
 2013 063e 63685F6D 		.ascii	"ch_mutex\000"
 2013      75746578 
 2013      00
 2014              	.LASF45:
 2015 0647 705F6E61 		.ascii	"p_name\000"
 2015      6D6500
ARM GAS  C:\Users\IDONNO~1\AppData\Local\Temp\cctCrHPd.s 			page 41


 2016              	.LASF59:
 2017 064e 74687265 		.ascii	"threads_list_t\000"
 2017      6164735F 
 2017      6C697374 
 2017      5F7400
 2018              	.LASF53:
 2019 065d 705F6D73 		.ascii	"p_msg\000"
 2019      6700
 2020              	.LASF131:
 2021 0663 6D61696E 		.ascii	"main\000"
 2021      00
 2022              	.LASF113:
 2023 0668 6D5F6F77 		.ascii	"m_owner\000"
 2023      6E657200 
 2024              	.LASF18:
 2025 0670 646F7562 		.ascii	"double\000"
 2025      6C6500
 2026              	.LASF42:
 2027 0677 705F6374 		.ascii	"p_ctx\000"
 2027      7800
 2028              	.LASF51:
 2029 067d 705F7761 		.ascii	"p_waiting\000"
 2029      6974696E 
 2029      6700
 2030              		.ident	"GCC: (GNU Tools for ARM Embedded Processors) 5.2.1 20151202 (release) [ARM/embedded-5-bran
ARM GAS  C:\Users\IDONNO~1\AppData\Local\Temp\cctCrHPd.s 			page 42


DEFINED SYMBOLS
                            *ABS*:00000000 main.cpp
C:\Users\IDONNO~1\AppData\Local\Temp\cctCrHPd.s:22     .text._ZN5cTest5printEv:00000000 $t
C:\Users\IDONNO~1\AppData\Local\Temp\cctCrHPd.s:28     .text._ZN5cTest5printEv:00000000 _ZN5cTest5printEv
C:\Users\IDONNO~1\AppData\Local\Temp\cctCrHPd.s:42     .text.startup.main:00000000 $t
C:\Users\IDONNO~1\AppData\Local\Temp\cctCrHPd.s:48     .text.startup.main:00000000 main
C:\Users\IDONNO~1\AppData\Local\Temp\cctCrHPd.s:76     .text._Z9main_initv:00000000 $t
C:\Users\IDONNO~1\AppData\Local\Temp\cctCrHPd.s:82     .text._Z9main_initv:00000000 _Z9main_initv
C:\Users\IDONNO~1\AppData\Local\Temp\cctCrHPd.s:100    .bss.test:00000000 test
C:\Users\IDONNO~1\AppData\Local\Temp\cctCrHPd.s:97     .bss.test:00000000 $d
                     .debug_frame:00000010 $d

UNDEFINED SYMBOLS
bldc_init
bldc_start
