ARM GAS  C:\Users\IDONNO~1\AppData\Local\Temp\cc106gTS.s 			page 1


   1              		.syntax unified
   2              		.cpu cortex-m4
   3              		.eabi_attribute 27, 1
   4              		.eabi_attribute 28, 1
   5              		.fpu fpv4-sp-d16
   6              		.eabi_attribute 20, 1
   7              		.eabi_attribute 21, 1
   8              		.eabi_attribute 23, 3
   9              		.eabi_attribute 24, 1
  10              		.eabi_attribute 25, 1
  11              		.eabi_attribute 26, 1
  12              		.eabi_attribute 30, 2
  13              		.eabi_attribute 34, 1
  14              		.eabi_attribute 18, 4
  15              		.thumb
  16              		.syntax unified
  17              		.file	"mavlink_proc.c"
  18              		.text
  19              	.Ltext0:
  20              		.cfi_sections	.debug_frame
  21              		.section	.text.mavlink_thread,"ax",%progbits
  22              		.align	2
  23              		.p2align 4,,15
  24              		.thumb
  25              		.thumb_func
  26              		.type	mavlink_thread, %function
  27              	mavlink_thread:
  28              	.LFB1944:
  29              		.file 1 "src/core/mavlink_proc.c"
  30              		.loc 1 175 0
  31              		.cfi_startproc
  32              		@ args = 0, pretend = 0, frame = 0
  33              		@ frame_needed = 0, uses_anonymous_args = 0
  34              	.LVL0:
  35 0000 08B5     		push	{r3, lr}
  36              		.cfi_def_cfa_offset 8
  37              		.cfi_offset 3, -8
  38              		.cfi_offset 14, -4
  39              	.LVL1:
  40              	.L2:
  41              	.LBB166:
  42              		.loc 1 181 0
  43 0002 4FF0FF30 		mov	r0, #-1
  44 0006 FFF7FEFF 		bl	chEvtWaitAny
  45              	.LVL2:
  46 000a FAE7     		b	.L2
  47              	.LBE166:
  48              		.cfi_endproc
  49              	.LFE1944:
  50              		.size	mavlink_thread, .-mavlink_thread
  51              		.section	.text.mavlink_uart_send,"ax",%progbits
  52              		.align	2
  53              		.p2align 4,,15
  54              		.global	mavlink_uart_send
  55              		.thumb
  56              		.thumb_func
  57              		.type	mavlink_uart_send, %function
ARM GAS  C:\Users\IDONNO~1\AppData\Local\Temp\cc106gTS.s 			page 2


  58              	mavlink_uart_send:
  59              	.LFB1939:
  60              		.loc 1 62 0
  61              		.cfi_startproc
  62              		@ args = 0, pretend = 0, frame = 0
  63              		@ frame_needed = 0, uses_anonymous_args = 0
  64              		@ link register save eliminated.
  65              	.LVL3:
  66              	.LBB190:
  67              	.LBB191:
  68              	.LBB192:
  69              	.LBB193:
  70              	.LBB194:
  71              		.file 2 "src/core/../../lib/mavlink/oroca_bldc/../mavlink_helpers.h"
  72              		.loc 2 82 0
  73 0000 024A     		ldr	r2, .L6
  74              	.LVL4:
  75 0002 9379     		ldrb	r3, [r2, #6]	@ zero_extendqisi2
  76 0004 0133     		adds	r3, r3, #1
  77 0006 9371     		strb	r3, [r2, #6]
  78              	.LVL5:
  79              	.LBE194:
  80              	.LBE193:
  81              	.LBE192:
  82              	.LBE191:
  83              	.LBE190:
  84              		.loc 1 79 0
  85 0008 7047     		bx	lr
  86              	.L7:
  87 000a 00BF     		.align	2
  88              	.L6:
  89 000c 00000000 		.word	.LANCHOR0
  90              		.cfi_endproc
  91              	.LFE1939:
  92              		.size	mavlink_uart_send, .-mavlink_uart_send
  93              		.section	.text.mavlink_uart_recv,"ax",%progbits
  94              		.align	2
  95              		.p2align 4,,15
  96              		.global	mavlink_uart_recv
  97              		.thumb
  98              		.thumb_func
  99              		.type	mavlink_uart_recv, %function
 100              	mavlink_uart_recv:
 101              	.LFB1940:
 102              		.loc 1 83 0
 103              		.cfi_startproc
 104              		@ args = 0, pretend = 0, frame = 272
 105              		@ frame_needed = 0, uses_anonymous_args = 0
 106              	.LVL6:
 107 0000 2DE9F041 		push	{r4, r5, r6, r7, r8, lr}
 108              		.cfi_def_cfa_offset 24
 109              		.cfi_offset 4, -24
 110              		.cfi_offset 5, -20
 111              		.cfi_offset 6, -16
 112              		.cfi_offset 7, -12
 113              		.cfi_offset 8, -8
 114              		.cfi_offset 14, -4
ARM GAS  C:\Users\IDONNO~1\AppData\Local\Temp\cc106gTS.s 			page 3


 115              	.LBB241:
 116              	.LBB242:
 117              	.LBB243:
 118              	.LBB244:
 119              	.LBB245:
 120              		.loc 2 272 0
 121 0004 834D     		ldr	r5, .L43
 122              		.loc 2 274 0
 123 0006 EB78     		ldrb	r3, [r5, #3]	@ zero_extendqisi2
 124              		.loc 2 272 0
 125 0008 0022     		movs	r2, #0
 126              	.LBE245:
 127              	.LBE244:
 128              	.LBE243:
 129              	.LBE242:
 130              	.LBE241:
 131              		.loc 1 83 0
 132 000a C4B0     		sub	sp, sp, #272
 133              		.cfi_def_cfa_offset 296
 134              		.loc 1 83 0
 135 000c 0446     		mov	r4, r0
 136              	.LVL7:
 137              	.LBB345:
 138              	.LBB340:
 139              	.LBB328:
 140              	.LBB323:
 141              	.LBB318:
 142              		.loc 2 272 0
 143 000e 2A70     		strb	r2, [r5]
 144              		.loc 2 274 0
 145 0010 0A2B     		cmp	r3, #10
 146 0012 00F2EA80 		bhi	.L34
 147 0016 DFE803F0 		tbb	[pc, r3]
 148              	.L11:
 149 001a 39       		.byte	(.L10-.L11)/2
 150 001b 39       		.byte	(.L10-.L11)/2
 151 001c C0       		.byte	(.L12-.L11)/2
 152 001d 9C       		.byte	(.L13-.L11)/2
 153 001e AE       		.byte	(.L14-.L11)/2
 154 001f 3F       		.byte	(.L15-.L11)/2
 155 0020 51       		.byte	(.L16-.L11)/2
 156 0021 66       		.byte	(.L17-.L11)/2
 157 0022 81       		.byte	(.L18-.L11)/2
 158 0023 06       		.byte	(.L19-.L11)/2
 159 0024 06       		.byte	(.L19-.L11)/2
 160 0025 00       		.p2align 1
 161              	.L19:
 162              		.loc 2 373 0
 163 0026 0A2B     		cmp	r3, #10
 164 0028 7B49     		ldr	r1, .L43+4
 165 002a 04D0     		beq	.L24
 166 002c 0B88     		ldrh	r3, [r1]
 167 002e B0EB132F 		cmp	r0, r3, lsr #8
 168 0032 00F0D780 		beq	.L25
 169              	.L24:
 170              		.loc 2 375 0
 171 0036 0227     		movs	r7, #2
ARM GAS  C:\Users\IDONNO~1\AppData\Local\Temp\cc106gTS.s 			page 4


 172 0038 2F70     		strb	r7, [r5]
 173              	.L26:
 174              		.loc 2 381 0
 175 003a 2B79     		ldrb	r3, [r5, #4]	@ zero_extendqisi2
 176 003c DFF8D881 		ldr	r8, .L43+4
 177              		.loc 2 380 0
 178 0040 744E     		ldr	r6, .L43
 179              		.loc 2 381 0
 180 0042 0B44     		add	r3, r3, r1
 181              		.loc 2 380 0
 182 0044 4FF0010E 		mov	lr, #1
 183              		.loc 2 382 0
 184 0048 4146     		mov	r1, r8
 185 004a 6846     		mov	r0, sp
 186              	.LVL8:
 187              		.loc 2 381 0
 188 004c 5C72     		strb	r4, [r3, #9]
 189              		.loc 2 382 0
 190 004e 4FF48872 		mov	r2, #272
 191              		.loc 2 380 0
 192 0052 85F803E0 		strb	lr, [r5, #3]
 193              		.loc 2 382 0
 194 0056 FFF7FEFF 		bl	memcpy
 195              	.LVL9:
 196              		.loc 2 388 0
 197 005a 012F     		cmp	r7, #1
 198 005c 40F0C680 		bne	.L9
 199              		.loc 2 397 0
 200 0060 3389     		ldrh	r3, [r6, #8]
 201              		.loc 2 395 0
 202 0062 98F80420 		ldrb	r2, [r8, #4]	@ zero_extendqisi2
 203 0066 7271     		strb	r2, [r6, #5]
 204              		.loc 2 397 0
 205 0068 03B9     		cbnz	r3, .L27
 206 006a 7381     		strh	r3, [r6, #10]	@ movhi
 207              	.L27:
 208              	.LBE318:
 209              	.LBE323:
 210              	.LBE328:
 211              	.LBE340:
 212              	.LBE345:
 213              		.loc 1 91 0
 214 006c 9DF80720 		ldrb	r2, [sp, #7]	@ zero_extendqisi2
 215              	.LBB346:
 216              	.LBB341:
 217              	.LBB329:
 218              	.LBB324:
 219              	.LBB319:
 220              		.loc 2 399 0
 221 0070 0133     		adds	r3, r3, #1
 222              		.loc 2 408 0
 223 0072 0021     		movs	r1, #0
 224              	.LBE319:
 225              	.LBE324:
 226              	.LBE329:
 227              	.LBE341:
 228              	.LBE346:
ARM GAS  C:\Users\IDONNO~1\AppData\Local\Temp\cc106gTS.s 			page 5


 229              		.loc 1 91 0
 230 0074 DC2A     		cmp	r2, #220
 231              	.LBB347:
 232              	.LBB342:
 233              	.LBB330:
 234              	.LBB325:
 235              	.LBB320:
 236              		.loc 2 399 0
 237 0076 2B81     		strh	r3, [r5, #8]	@ movhi
 238              		.loc 2 408 0
 239 0078 A970     		strb	r1, [r5, #2]
 240              	.LVL10:
 241              	.LBE320:
 242              	.LBE325:
 243              	.LBE330:
 244              	.LBE342:
 245              	.LBE347:
 246              		.loc 1 91 0
 247 007a 00F0A280 		beq	.L41
 248              		.loc 1 101 0
 249 007e DE2A     		cmp	r2, #222
 250 0080 00F09F80 		beq	.L41
 251              	.L30:
 252              		.loc 1 84 0
 253 0084 0020     		movs	r0, #0
 254              	.LVL11:
 255              		.loc 1 113 0
 256 0086 44B0     		add	sp, sp, #272
 257              		.cfi_remember_state
 258              		.cfi_def_cfa_offset 24
 259              		@ sp needed
 260 0088 BDE8F081 		pop	{r4, r5, r6, r7, r8, pc}
 261              	.LVL12:
 262              	.L10:
 263              		.cfi_restore_state
 264              	.LBB348:
 265              	.LBB343:
 266              	.LBB331:
 267              	.LBB326:
 268              	.LBB321:
 269              		.loc 2 278 0
 270 008c FE28     		cmp	r0, #254
 271 008e 00F09F80 		beq	.L42
 272              	.LVL13:
 273              	.L20:
 274              		.loc 2 408 0
 275 0092 0023     		movs	r3, #0
 276 0094 AB70     		strb	r3, [r5, #2]
 277 0096 F5E7     		b	.L30
 278              	.LVL14:
 279              	.L15:
 280              		.loc 2 324 0
 281 0098 5F4A     		ldr	r2, .L43+4
 282              	.LBB246:
 283              	.LBB247:
 284              	.LBB248:
 285              		.file 3 "src/core/../../lib/mavlink/oroca_bldc/../checksum.h"
ARM GAS  C:\Users\IDONNO~1\AppData\Local\Temp\cc106gTS.s 			page 6


 286              		.loc 3 39 0
 287 009a 1188     		ldrh	r1, [r2]
 288              	.LBE248:
 289              	.LBE247:
 290              	.LBE246:
 291              		.loc 2 324 0
 292 009c 9071     		strb	r0, [r2, #6]
 293              	.LVL15:
 294              	.LBB253:
 295              	.LBB251:
 296              	.LBB249:
 297              		.loc 3 39 0
 298 009e 4C40     		eors	r4, r4, r1
 299              	.LVL16:
 300              		.loc 3 40 0
 301 00a0 84EA0414 		eor	r4, r4, r4, lsl #4
 302              	.LVL17:
 303 00a4 E4B2     		uxtb	r4, r4
 304              	.LVL18:
 305              		.loc 3 41 0
 306 00a6 2309     		lsrs	r3, r4, #4
 307 00a8 83EA1123 		eor	r3, r3, r1, lsr #8
 308 00ac 43EA0423 		orr	r3, r3, r4, lsl #8
 309 00b0 83EAC404 		eor	r4, r3, r4, lsl #3
 310              	.LVL19:
 311              	.LBE249:
 312              	.LBE251:
 313              	.LBE253:
 314              		.loc 2 326 0
 315 00b4 0623     		movs	r3, #6
 316              	.LBB254:
 317              	.LBB252:
 318              	.LBB250:
 319              		.loc 3 41 0
 320 00b6 1480     		strh	r4, [r2]	@ movhi
 321              	.LVL20:
 322              	.LBE250:
 323              	.LBE252:
 324              	.LBE254:
 325              		.loc 2 326 0
 326 00b8 EB70     		strb	r3, [r5, #3]
 327 00ba EAE7     		b	.L20
 328              	.L16:
 329              		.loc 2 338 0
 330 00bc 564A     		ldr	r2, .L43+4
 331              	.LBB255:
 332              	.LBB256:
 333              	.LBB257:
 334              		.loc 3 39 0
 335 00be 1188     		ldrh	r1, [r2]
 336              	.LBE257:
 337              	.LBE256:
 338              	.LBE255:
 339              		.loc 2 338 0
 340 00c0 D471     		strb	r4, [r2, #7]
 341              	.LVL21:
 342              	.LBB262:
ARM GAS  C:\Users\IDONNO~1\AppData\Local\Temp\cc106gTS.s 			page 7


 343              	.LBB260:
 344              	.LBB258:
 345              		.loc 3 39 0
 346 00c2 4C40     		eors	r4, r4, r1
 347              	.LVL22:
 348              		.loc 3 40 0
 349 00c4 84EA0414 		eor	r4, r4, r4, lsl #4
 350              	.LVL23:
 351 00c8 E4B2     		uxtb	r4, r4
 352              	.LVL24:
 353              		.loc 3 41 0
 354 00ca 2309     		lsrs	r3, r4, #4
 355 00cc 83EA1123 		eor	r3, r3, r1, lsr #8
 356 00d0 43EA0423 		orr	r3, r3, r4, lsl #8
 357              	.LBE258:
 358              	.LBE260:
 359              	.LBE262:
 360              		.loc 2 340 0
 361 00d4 D078     		ldrb	r0, [r2, #3]	@ zero_extendqisi2
 362              	.LVL25:
 363              	.LBB263:
 364              	.LBB261:
 365              	.LBB259:
 366              		.loc 3 41 0
 367 00d6 83EAC404 		eor	r4, r3, r4, lsl #3
 368              	.LVL26:
 369 00da 1480     		strh	r4, [r2]	@ movhi
 370              	.LVL27:
 371              	.LBE259:
 372              	.LBE261:
 373              	.LBE263:
 374              		.loc 2 340 0
 375 00dc 0028     		cmp	r0, #0
 376 00de 74D1     		bne	.L21
 377              		.loc 2 342 0
 378 00e0 0823     		movs	r3, #8
 379 00e2 EB70     		strb	r3, [r5, #3]
 380 00e4 D5E7     		b	.L20
 381              	.LVL28:
 382              	.L17:
 383              		.loc 2 351 0
 384 00e6 4C49     		ldr	r1, .L43+4
 385 00e8 2B79     		ldrb	r3, [r5, #4]	@ zero_extendqisi2
 386 00ea 4A4E     		ldr	r6, .L43
 387 00ec CA18     		adds	r2, r1, r3
 388 00ee 0133     		adds	r3, r3, #1
 389 00f0 1072     		strb	r0, [r2, #8]
 390              	.LVL29:
 391              	.LBB264:
 392              	.LBB265:
 393              	.LBB266:
 394              		.loc 3 39 0
 395 00f2 0888     		ldrh	r0, [r1]
 396              	.LVL30:
 397              	.LBE266:
 398              	.LBE265:
 399              	.LBE264:
ARM GAS  C:\Users\IDONNO~1\AppData\Local\Temp\cc106gTS.s 			page 8


 400              		.loc 2 353 0
 401 00f4 CF78     		ldrb	r7, [r1, #3]	@ zero_extendqisi2
 402              	.LBB273:
 403              	.LBB270:
 404              	.LBB267:
 405              		.loc 3 39 0
 406 00f6 4440     		eors	r4, r4, r0
 407              	.LVL31:
 408              		.loc 3 40 0
 409 00f8 84EA0414 		eor	r4, r4, r4, lsl #4
 410              	.LVL32:
 411 00fc E4B2     		uxtb	r4, r4
 412              	.LVL33:
 413              		.loc 3 41 0
 414 00fe 2209     		lsrs	r2, r4, #4
 415              	.LVL34:
 416 0100 82EA1022 		eor	r2, r2, r0, lsr #8
 417              	.LBE267:
 418              	.LBE270:
 419              	.LBE273:
 420              		.loc 2 351 0
 421 0104 DBB2     		uxtb	r3, r3
 422              	.LVL35:
 423              	.LBB274:
 424              	.LBB271:
 425              	.LBB268:
 426              		.loc 3 41 0
 427 0106 42EA0422 		orr	r2, r2, r4, lsl #8
 428 010a 82EAC404 		eor	r4, r2, r4, lsl #3
 429              	.LVL36:
 430              	.LBE268:
 431              	.LBE271:
 432              	.LBE274:
 433              		.loc 2 353 0
 434 010e 9F42     		cmp	r7, r3
 435              		.loc 2 351 0
 436 0110 2B71     		strb	r3, [r5, #4]
 437              	.LBB275:
 438              	.LBB272:
 439              	.LBB269:
 440              		.loc 3 41 0
 441 0112 0C80     		strh	r4, [r1]	@ movhi
 442              	.LVL37:
 443              	.LBE269:
 444              	.LBE272:
 445              	.LBE275:
 446              		.loc 2 353 0
 447 0114 BDD1     		bne	.L20
 448              		.loc 2 355 0
 449 0116 0823     		movs	r3, #8
 450 0118 F370     		strb	r3, [r6, #3]
 451 011a BAE7     		b	.L20
 452              	.LVL38:
 453              	.L18:
 454              	.LBB276:
 455              	.LBB277:
 456              	.LBB278:
ARM GAS  C:\Users\IDONNO~1\AppData\Local\Temp\cc106gTS.s 			page 9


 457              		.loc 3 39 0
 458 011c 3E49     		ldr	r1, .L43+4
 459              	.LBE278:
 460              	.LBE277:
 461              	.LBE276:
 462              		.loc 2 361 0
 463 011e 3F4A     		ldr	r2, .L43+8
 464 0120 CB79     		ldrb	r3, [r1, #7]	@ zero_extendqisi2
 465              	.LBB283:
 466              	.LBB281:
 467              	.LBB279:
 468              		.loc 3 39 0
 469 0122 0888     		ldrh	r0, [r1]
 470              	.LVL39:
 471 0124 D35C     		ldrb	r3, [r2, r3]	@ zero_extendqisi2
 472 0126 4340     		eors	r3, r3, r0
 473              	.LVL40:
 474              		.loc 3 40 0
 475 0128 83EA0313 		eor	r3, r3, r3, lsl #4
 476              	.LVL41:
 477 012c DBB2     		uxtb	r3, r3
 478              	.LVL42:
 479              		.loc 3 41 0
 480 012e 1A09     		lsrs	r2, r3, #4
 481 0130 82EA1022 		eor	r2, r2, r0, lsr #8
 482 0134 42EA0322 		orr	r2, r2, r3, lsl #8
 483 0138 82EAC303 		eor	r3, r2, r3, lsl #3
 484              	.LVL43:
 485              	.LBE279:
 486              	.LBE281:
 487              	.LBE283:
 488              		.loc 2 363 0
 489 013c DAB2     		uxtb	r2, r3
 490 013e 9442     		cmp	r4, r2
 491              	.LBB284:
 492              	.LBB282:
 493              	.LBB280:
 494              		.loc 3 41 0
 495 0140 0B80     		strh	r3, [r1]	@ movhi
 496              	.LVL44:
 497              	.LBE280:
 498              	.LBE282:
 499              	.LBE284:
 500              		.loc 2 364 0
 501 0142 14BF     		ite	ne
 502 0144 0A23     		movne	r3, #10
 503              		.loc 2 366 0
 504 0146 0923     		moveq	r3, #9
 505 0148 EB70     		strb	r3, [r5, #3]
 506              		.loc 2 368 0
 507 014a 2B79     		ldrb	r3, [r5, #4]	@ zero_extendqisi2
 508 014c 1944     		add	r1, r1, r3
 509 014e 0C72     		strb	r4, [r1, #8]
 510 0150 9FE7     		b	.L20
 511              	.LVL45:
 512              	.L13:
 513              		.loc 2 318 0
ARM GAS  C:\Users\IDONNO~1\AppData\Local\Temp\cc106gTS.s 			page 10


 514 0152 314A     		ldr	r2, .L43+4
 515              	.LBB285:
 516              	.LBB286:
 517              	.LBB287:
 518              		.loc 3 39 0
 519 0154 1188     		ldrh	r1, [r2]
 520              	.LBE287:
 521              	.LBE286:
 522              	.LBE285:
 523              		.loc 2 318 0
 524 0156 5071     		strb	r0, [r2, #5]
 525              	.LVL46:
 526              	.LBB292:
 527              	.LBB290:
 528              	.LBB288:
 529              		.loc 3 39 0
 530 0158 4C40     		eors	r4, r4, r1
 531              	.LVL47:
 532              		.loc 3 40 0
 533 015a 84EA0414 		eor	r4, r4, r4, lsl #4
 534              	.LVL48:
 535 015e E4B2     		uxtb	r4, r4
 536              	.LVL49:
 537              		.loc 3 41 0
 538 0160 2309     		lsrs	r3, r4, #4
 539 0162 83EA1123 		eor	r3, r3, r1, lsr #8
 540 0166 43EA0423 		orr	r3, r3, r4, lsl #8
 541 016a 83EAC404 		eor	r4, r3, r4, lsl #3
 542              	.LVL50:
 543              	.LBE288:
 544              	.LBE290:
 545              	.LBE292:
 546              		.loc 2 320 0
 547 016e 0523     		movs	r3, #5
 548              	.LBB293:
 549              	.LBB291:
 550              	.LBB289:
 551              		.loc 3 41 0
 552 0170 1480     		strh	r4, [r2]	@ movhi
 553              	.LVL51:
 554              	.LBE289:
 555              	.LBE291:
 556              	.LBE293:
 557              		.loc 2 320 0
 558 0172 EB70     		strb	r3, [r5, #3]
 559 0174 8DE7     		b	.L20
 560              	.L14:
 561              		.loc 2 312 0
 562 0176 284A     		ldr	r2, .L43+4
 563              	.LBB294:
 564              	.LBB295:
 565              	.LBB296:
 566              		.loc 3 39 0
 567 0178 1188     		ldrh	r1, [r2]
 568              	.LBE296:
 569              	.LBE295:
 570              	.LBE294:
ARM GAS  C:\Users\IDONNO~1\AppData\Local\Temp\cc106gTS.s 			page 11


 571              		.loc 2 312 0
 572 017a 1071     		strb	r0, [r2, #4]
 573              	.LVL52:
 574              	.LBB301:
 575              	.LBB299:
 576              	.LBB297:
 577              		.loc 3 39 0
 578 017c 4C40     		eors	r4, r4, r1
 579              	.LVL53:
 580              		.loc 3 40 0
 581 017e 84EA0414 		eor	r4, r4, r4, lsl #4
 582              	.LVL54:
 583 0182 E4B2     		uxtb	r4, r4
 584              	.LVL55:
 585              		.loc 3 41 0
 586 0184 2309     		lsrs	r3, r4, #4
 587 0186 83EA1123 		eor	r3, r3, r1, lsr #8
 588 018a 43EA0423 		orr	r3, r3, r4, lsl #8
 589 018e 83EAC404 		eor	r4, r3, r4, lsl #3
 590              	.LVL56:
 591              	.LBE297:
 592              	.LBE299:
 593              	.LBE301:
 594              		.loc 2 314 0
 595 0192 0323     		movs	r3, #3
 596              	.LBB302:
 597              	.LBB300:
 598              	.LBB298:
 599              		.loc 3 41 0
 600 0194 1480     		strh	r4, [r2]	@ movhi
 601              	.LVL57:
 602              	.LBE298:
 603              	.LBE300:
 604              	.LBE302:
 605              		.loc 2 314 0
 606 0196 EB70     		strb	r3, [r5, #3]
 607 0198 7BE7     		b	.L20
 608              	.L12:
 609              		.loc 2 304 0
 610 019a 1F4A     		ldr	r2, .L43+4
 611              	.LBB303:
 612              	.LBB304:
 613              	.LBB305:
 614              		.loc 3 39 0
 615 019c 1188     		ldrh	r1, [r2]
 616              	.LBE305:
 617              	.LBE304:
 618              	.LBE303:
 619              		.loc 2 304 0
 620 019e D070     		strb	r0, [r2, #3]
 621              	.LBB310:
 622              	.LBB308:
 623              	.LBB306:
 624              		.loc 3 39 0
 625 01a0 4C40     		eors	r4, r4, r1
 626              		.loc 3 40 0
 627 01a2 84EA0414 		eor	r4, r4, r4, lsl #4
ARM GAS  C:\Users\IDONNO~1\AppData\Local\Temp\cc106gTS.s 			page 12


 628 01a6 E4B2     		uxtb	r4, r4
 629              		.loc 3 41 0
 630 01a8 2309     		lsrs	r3, r4, #4
 631 01aa 83EA1123 		eor	r3, r3, r1, lsr #8
 632 01ae 43EA0423 		orr	r3, r3, r4, lsl #8
 633 01b2 83EAC404 		eor	r4, r3, r4, lsl #3
 634              	.LBE306:
 635              	.LBE308:
 636              	.LBE310:
 637              		.loc 2 305 0
 638 01b6 0021     		movs	r1, #0
 639              		.loc 2 307 0
 640 01b8 0423     		movs	r3, #4
 641              	.LBB311:
 642              	.LBB309:
 643              	.LBB307:
 644              		.loc 3 41 0
 645 01ba 1480     		strh	r4, [r2]	@ movhi
 646              	.LBE307:
 647              	.LBE309:
 648              	.LBE311:
 649              		.loc 2 305 0
 650 01bc 2971     		strb	r1, [r5, #4]
 651              		.loc 2 307 0
 652 01be EB70     		strb	r3, [r5, #3]
 653 01c0 67E7     		b	.L20
 654              	.LVL58:
 655              	.L41:
 656              	.LBE321:
 657              	.LBE326:
 658              	.LBE331:
 659              	.LBE343:
 660              	.LBE348:
 661              	.LBB349:
 662              		.loc 1 108 0
 663 01c2 0120     		movs	r0, #1
 664              	.LBE349:
 665              		.loc 1 113 0
 666 01c4 44B0     		add	sp, sp, #272
 667              		.cfi_remember_state
 668              		.cfi_def_cfa_offset 24
 669              		@ sp needed
 670 01c6 BDE8F081 		pop	{r4, r5, r6, r7, r8, pc}
 671              	.LVL59:
 672              	.L21:
 673              		.cfi_restore_state
 674              	.LBB350:
 675              	.LBB344:
 676              	.LBB332:
 677              	.LBB327:
 678              	.LBB322:
 679              		.loc 2 346 0
 680 01ca 0723     		movs	r3, #7
 681 01cc EB70     		strb	r3, [r5, #3]
 682 01ce 60E7     		b	.L20
 683              	.LVL60:
 684              	.L42:
ARM GAS  C:\Users\IDONNO~1\AppData\Local\Temp\cc106gTS.s 			page 13


 685              		.loc 2 281 0
 686 01d0 114B     		ldr	r3, .L43+4
 687 01d2 0020     		movs	r0, #0
 688              	.LVL61:
 689              	.LBB312:
 690              	.LBB313:
 691              	.LBB314:
 692              		.loc 3 53 0
 693 01d4 4FF6FF71 		movw	r1, #65535
 694              	.LBE314:
 695              	.LBE313:
 696              	.LBE312:
 697              		.loc 2 280 0
 698 01d8 0222     		movs	r2, #2
 699              		.loc 2 282 0
 700 01da 9C70     		strb	r4, [r3, #2]
 701              	.LVL62:
 702              		.loc 2 281 0
 703 01dc D870     		strb	r0, [r3, #3]
 704              	.LBB317:
 705              	.LBB316:
 706              	.LBB315:
 707              		.loc 3 53 0
 708 01de 1980     		strh	r1, [r3]	@ movhi
 709              	.LVL63:
 710              	.LBE315:
 711              	.LBE316:
 712              	.LBE317:
 713              		.loc 2 280 0
 714 01e0 EA70     		strb	r2, [r5, #3]
 715 01e2 56E7     		b	.L20
 716              	.LVL64:
 717              	.L25:
 718              		.loc 2 378 0
 719 01e4 0127     		movs	r7, #1
 720 01e6 2F70     		strb	r7, [r5]
 721 01e8 27E7     		b	.L26
 722              	.L34:
 723              		.loc 2 274 0
 724 01ea 0027     		movs	r7, #0
 725              	.LVL65:
 726              	.L9:
 727              		.loc 2 408 0
 728 01ec 0021     		movs	r1, #0
 729              		.loc 2 410 0
 730 01ee 022F     		cmp	r7, #2
 731              		.loc 2 408 0
 732 01f0 A970     		strb	r1, [r5, #2]
 733 01f2 084B     		ldr	r3, .L43
 734              		.loc 2 410 0
 735 01f4 7FF446AF 		bne	.L30
 736              	.LVL66:
 737              	.LBE322:
 738              	.LBE327:
 739              	.LBE332:
 740              	.LBB333:
 741              		.loc 2 522 0
ARM GAS  C:\Users\IDONNO~1\AppData\Local\Temp\cc106gTS.s 			page 14


 742 01f8 0122     		movs	r2, #1
 743              		.loc 2 525 0
 744 01fa FE2C     		cmp	r4, #254
 745              		.loc 2 523 0
 746 01fc 1970     		strb	r1, [r3]
 747              		.loc 2 522 0
 748 01fe 9A70     		strb	r2, [r3, #2]
 749              		.loc 2 525 0
 750 0200 01D0     		beq	.L32
 751              		.loc 2 524 0
 752 0202 DA70     		strb	r2, [r3, #3]
 753 0204 3EE7     		b	.L30
 754              	.L32:
 755              		.loc 2 528 0
 756 0206 044A     		ldr	r2, .L43+4
 757              		.loc 2 527 0
 758 0208 DF70     		strb	r7, [r3, #3]
 759              	.LBB334:
 760              	.LBB335:
 761              	.LBB336:
 762              		.loc 3 53 0
 763 020a 4FF6FF73 		movw	r3, #65535
 764              	.LBE336:
 765              	.LBE335:
 766              	.LBE334:
 767              		.loc 2 528 0
 768 020e D170     		strb	r1, [r2, #3]
 769              	.LVL67:
 770              	.LBB339:
 771              	.LBB338:
 772              	.LBB337:
 773              		.loc 3 53 0
 774 0210 1380     		strh	r3, [r2]	@ movhi
 775              	.LVL68:
 776 0212 37E7     		b	.L30
 777              	.L44:
 778              		.align	2
 779              	.L43:
 780 0214 00000000 		.word	.LANCHOR0
 781 0218 00000000 		.word	.LANCHOR1
 782 021c 00000000 		.word	.LANCHOR2
 783              	.LBE337:
 784              	.LBE338:
 785              	.LBE339:
 786              	.LBE333:
 787              	.LBE344:
 788              	.LBE350:
 789              		.cfi_endproc
 790              	.LFE1940:
 791              		.size	mavlink_uart_recv, .-mavlink_uart_recv
 792              		.section	.text.mavlink_uart_thread,"ax",%progbits
 793              		.align	2
 794              		.p2align 4,,15
 795              		.thumb
 796              		.thumb_func
 797              		.type	mavlink_uart_thread, %function
 798              	mavlink_uart_thread:
ARM GAS  C:\Users\IDONNO~1\AppData\Local\Temp\cc106gTS.s 			page 15


 799              	.LFB1941:
 800              		.loc 1 118 0
 801              		.cfi_startproc
 802              		@ args = 0, pretend = 0, frame = 0
 803              		@ frame_needed = 0, uses_anonymous_args = 0
 804              	.LVL69:
 805 0000 F8B5     		push	{r3, r4, r5, r6, r7, lr}
 806              		.cfi_def_cfa_offset 24
 807              		.cfi_offset 3, -24
 808              		.cfi_offset 4, -20
 809              		.cfi_offset 5, -16
 810              		.cfi_offset 6, -12
 811              		.cfi_offset 7, -8
 812              		.cfi_offset 14, -4
 813              	.LBB351:
 814              	.LBB352:
 815              		.file 4 "lib/ChibiOS_3.0.2/os/rt/include/chregistry.h"
 816              		.loc 4 135 0
 817 0002 124B     		ldr	r3, .L53
 818 0004 124A     		ldr	r2, .L53+4
 819 0006 9B69     		ldr	r3, [r3, #24]
 820 0008 124C     		ldr	r4, .L53+8
 821 000a 134F     		ldr	r7, .L53+12
 822 000c 9A61     		str	r2, [r3, #24]
 823              	.LBE352:
 824              	.LBE351:
 825              	.LBB353:
 826              	.LBB354:
 827              	.LBB355:
 828              	.LBB356:
 829              	.LBB357:
 830              		.file 5 "lib/ChibiOS_3.0.2/os/ext/CMSIS/include/core_cmFunc.h"
 831              		.loc 5 546 0
 832 000e 2026     		movs	r6, #32
 833              	.LBE357:
 834              	.LBE356:
 835              	.LBE355:
 836              	.LBE354:
 837              	.LBE353:
 838              	.LBB362:
 839              	.LBB363:
 840              	.LBB364:
 841              	.LBB365:
 842              	.LBB366:
 843 0010 0025     		movs	r5, #0
 844              	.LVL70:
 845              	.L48:
 846              	.LBE366:
 847              	.LBE365:
 848              	.LBE364:
 849              	.LBE363:
 850              	.LBE362:
 851              		.loc 1 131 0
 852 0012 FFF7FEFF 		bl	Uart3_getch
 853              	.LVL71:
 854              		.loc 1 135 0
 855 0016 FFF7FEFF 		bl	mavlink_uart_recv
ARM GAS  C:\Users\IDONNO~1\AppData\Local\Temp\cc106gTS.s 			page 16


 856              	.LVL72:
 857 001a 38B9     		cbnz	r0, .L46
 858              	.L52:
 859              		.loc 1 143 0
 860 001c 2368     		ldr	r3, [r4]
 861 001e 63B9     		cbnz	r3, .L47
 862              		.loc 1 131 0
 863 0020 FFF7FEFF 		bl	Uart3_getch
 864              	.LVL73:
 865              		.loc 1 135 0
 866 0024 FFF7FEFF 		bl	mavlink_uart_recv
 867              	.LVL74:
 868 0028 0028     		cmp	r0, #0
 869 002a F7D0     		beq	.L52
 870              	.L46:
 871              		.loc 1 137 0
 872 002c 0120     		movs	r0, #1
 873 002e FFF7FEFF 		bl	mavlink_uart_send
 874              	.LVL75:
 875              		.loc 1 139 0
 876 0032 2368     		ldr	r3, [r4]
 877 0034 43F00103 		orr	r3, r3, #1
 878 0038 2360     		str	r3, [r4]
 879              	.L47:
 880              	.LVL76:
 881              	.LBB371:
 882              	.LBB361:
 883              	.LBB360:
 884              	.LBB359:
 885              	.LBB358:
 886              		.loc 5 546 0
 887              		.syntax unified
 888              	@ 546 "lib/ChibiOS_3.0.2/os/ext/CMSIS/include/core_cmFunc.h" 1
 889 003a 86F31188 		MSR basepri, r6
 890              	@ 0 "" 2
 891              	.LVL77:
 892              		.thumb
 893              		.syntax unified
 894              	.LBE358:
 895              	.LBE359:
 896              	.LBE360:
 897              	.LBE361:
 898              	.LBE371:
 899              		.loc 1 146 0
 900 003e 2168     		ldr	r1, [r4]
 901 0040 3868     		ldr	r0, [r7]
 902 0042 FFF7FEFF 		bl	chEvtSignalI
 903              	.LVL78:
 904              	.LBB372:
 905              	.LBB370:
 906              	.LBB369:
 907              	.LBB368:
 908              	.LBB367:
 909              		.loc 5 546 0
 910              		.syntax unified
 911              	@ 546 "lib/ChibiOS_3.0.2/os/ext/CMSIS/include/core_cmFunc.h" 1
 912 0046 85F31188 		MSR basepri, r5
ARM GAS  C:\Users\IDONNO~1\AppData\Local\Temp\cc106gTS.s 			page 17


 913              	@ 0 "" 2
 914              	.LVL79:
 915              		.thumb
 916              		.syntax unified
 917 004a E2E7     		b	.L48
 918              	.L54:
 919              		.align	2
 920              	.L53:
 921 004c 00000000 		.word	ch
 922 0050 00000000 		.word	.LC0
 923 0054 00000000 		.word	.LANCHOR3
 924 0058 00000000 		.word	.LANCHOR4
 925              	.LBE367:
 926              	.LBE368:
 927              	.LBE369:
 928              	.LBE370:
 929              	.LBE372:
 930              		.cfi_endproc
 931              	.LFE1941:
 932              		.size	mavlink_uart_thread, .-mavlink_uart_thread
 933              		.section	.text.mavlink_proc_configure,"ax",%progbits
 934              		.align	2
 935              		.p2align 4,,15
 936              		.global	mavlink_proc_configure
 937              		.thumb
 938              		.thumb_func
 939              		.type	mavlink_proc_configure, %function
 940              	mavlink_proc_configure:
 941              	.LFB1942:
 942              		.loc 1 159 0
 943              		.cfi_startproc
 944              		@ args = 0, pretend = 0, frame = 0
 945              		@ frame_needed = 0, uses_anonymous_args = 0
 946              		@ link register save eliminated.
 947              		.loc 1 161 0
 948 0000 014B     		ldr	r3, .L56
 949 0002 0022     		movs	r2, #0
 950 0004 1A60     		str	r2, [r3]
 951 0006 7047     		bx	lr
 952              	.L57:
 953              		.align	2
 954              	.L56:
 955 0008 00000000 		.word	.LANCHOR3
 956              		.cfi_endproc
 957              	.LFE1942:
 958              		.size	mavlink_proc_configure, .-mavlink_proc_configure
 959              		.section	.text.mavlink_proc_start,"ax",%progbits
 960              		.align	2
 961              		.p2align 4,,15
 962              		.global	mavlink_proc_start
 963              		.thumb
 964              		.thumb_func
 965              		.type	mavlink_proc_start, %function
 966              	mavlink_proc_start:
 967              	.LFB1943:
 968              		.loc 1 165 0
 969              		.cfi_startproc
ARM GAS  C:\Users\IDONNO~1\AppData\Local\Temp\cc106gTS.s 			page 18


 970              		@ args = 0, pretend = 0, frame = 0
 971              		@ frame_needed = 0, uses_anonymous_args = 0
 972 0000 10B5     		push	{r4, lr}
 973              		.cfi_def_cfa_offset 8
 974              		.cfi_offset 4, -8
 975              		.cfi_offset 14, -4
 976 0002 82B0     		sub	sp, sp, #8
 977              		.cfi_def_cfa_offset 16
 978              		.loc 1 166 0
 979 0004 0024     		movs	r4, #0
 980 0006 0094     		str	r4, [sp]
 981 0008 084B     		ldr	r3, .L60
 982 000a 0948     		ldr	r0, .L60+4
 983 000c 4022     		movs	r2, #64
 984 000e 4FF4B361 		mov	r1, #1432
 985 0012 FFF7FEFF 		bl	chThdCreateStatic
 986              	.LVL80:
 987              		.loc 1 170 0
 988 0016 0094     		str	r4, [sp]
 989 0018 064B     		ldr	r3, .L60+8
 990 001a 0748     		ldr	r0, .L60+12
 991 001c 4122     		movs	r2, #65
 992 001e 4FF40671 		mov	r1, #536
 993 0022 FFF7FEFF 		bl	chThdCreateStatic
 994              	.LVL81:
 995              		.loc 1 171 0
 996 0026 02B0     		add	sp, sp, #8
 997              		.cfi_def_cfa_offset 8
 998              		@ sp needed
 999 0028 10BD     		pop	{r4, pc}
 1000              	.L61:
 1001 002a 00BF     		.align	2
 1002              	.L60:
 1003 002c 00000000 		.word	mavlink_uart_thread
 1004 0030 00000000 		.word	.LANCHOR5
 1005 0034 00000000 		.word	mavlink_thread
 1006 0038 00000000 		.word	.LANCHOR6
 1007              		.cfi_endproc
 1008              	.LFE1943:
 1009              		.size	mavlink_proc_start, .-mavlink_proc_start
 1010              		.global	mavlink_events
 1011              		.global	pMavlinkThread
 1012              		.section	.bss.mavlink_uart_thread_wa,"aw",%nobits
 1013              		.align	3
 1014              		.set	.LANCHOR5,. + 0
 1015              		.type	mavlink_uart_thread_wa, %object
 1016              		.size	mavlink_uart_thread_wa, 1432
 1017              	mavlink_uart_thread_wa:
 1018 0000 00000000 		.space	1432
 1018      00000000 
 1018      00000000 
 1018      00000000 
 1018      00000000 
 1019              		.section	.bss.m_mavlink_status.9715,"aw",%nobits
 1020              		.align	2
 1021              		.set	.LANCHOR0,. + 0
 1022              		.type	m_mavlink_status.9715, %object
ARM GAS  C:\Users\IDONNO~1\AppData\Local\Temp\cc106gTS.s 			page 19


 1023              		.size	m_mavlink_status.9715, 48
 1024              	m_mavlink_status.9715:
 1025 0000 00000000 		.space	48
 1025      00000000 
 1025      00000000 
 1025      00000000 
 1025      00000000 
 1026              		.section	.bss.mavlink_events,"aw",%nobits
 1027              		.align	2
 1028              		.set	.LANCHOR3,. + 0
 1029              		.type	mavlink_events, %object
 1030              		.size	mavlink_events, 4
 1031              	mavlink_events:
 1032 0000 00000000 		.space	4
 1033              		.section	.rodata.mavlink_message_crcs.9767,"a",%progbits
 1034              		.align	2
 1035              		.set	.LANCHOR2,. + 0
 1036              		.type	mavlink_message_crcs.9767, %object
 1037              		.size	mavlink_message_crcs.9767, 256
 1038              	mavlink_message_crcs.9767:
 1039 0000 32       		.byte	50
 1040 0001 7C       		.byte	124
 1041 0002 89       		.byte	-119
 1042 0003 00       		.byte	0
 1043 0004 ED       		.byte	-19
 1044 0005 D9       		.byte	-39
 1045 0006 68       		.byte	104
 1046 0007 77       		.byte	119
 1047 0008 00       		.byte	0
 1048 0009 00       		.byte	0
 1049 000a 00       		.byte	0
 1050 000b 59       		.byte	89
 1051 000c 00       		.byte	0
 1052 000d 00       		.byte	0
 1053 000e 00       		.byte	0
 1054 000f 00       		.byte	0
 1055 0010 00       		.byte	0
 1056 0011 00       		.byte	0
 1057 0012 00       		.byte	0
 1058 0013 00       		.byte	0
 1059 0014 D6       		.byte	-42
 1060 0015 9F       		.byte	-97
 1061 0016 DC       		.byte	-36
 1062 0017 A8       		.byte	-88
 1063 0018 18       		.byte	24
 1064 0019 17       		.byte	23
 1065 001a AA       		.byte	-86
 1066 001b 90       		.byte	-112
 1067 001c 43       		.byte	67
 1068 001d 73       		.byte	115
 1069 001e 27       		.byte	39
 1070 001f F6       		.byte	-10
 1071 0020 B9       		.byte	-71
 1072 0021 68       		.byte	104
 1073 0022 ED       		.byte	-19
 1074 0023 F4       		.byte	-12
 1075 0024 DE       		.byte	-34
ARM GAS  C:\Users\IDONNO~1\AppData\Local\Temp\cc106gTS.s 			page 20


 1076 0025 D4       		.byte	-44
 1077 0026 09       		.byte	9
 1078 0027 FE       		.byte	-2
 1079 0028 E6       		.byte	-26
 1080 0029 1C       		.byte	28
 1081 002a 1C       		.byte	28
 1082 002b 84       		.byte	-124
 1083 002c DD       		.byte	-35
 1084 002d E8       		.byte	-24
 1085 002e 0B       		.byte	11
 1086 002f 99       		.byte	-103
 1087 0030 29       		.byte	41
 1088 0031 27       		.byte	39
 1089 0032 4E       		.byte	78
 1090 0033 C4       		.byte	-60
 1091 0034 00       		.byte	0
 1092 0035 00       		.byte	0
 1093 0036 0F       		.byte	15
 1094 0037 03       		.byte	3
 1095 0038 00       		.byte	0
 1096 0039 00       		.byte	0
 1097 003a 00       		.byte	0
 1098 003b 00       		.byte	0
 1099 003c 00       		.byte	0
 1100 003d 99       		.byte	-103
 1101 003e B7       		.byte	-73
 1102 003f 33       		.byte	51
 1103 0040 3B       		.byte	59
 1104 0041 76       		.byte	118
 1105 0042 94       		.byte	-108
 1106 0043 15       		.byte	21
 1107 0044 00       		.byte	0
 1108 0045 F3       		.byte	-13
 1109 0046 7C       		.byte	124
 1110 0047 00       		.byte	0
 1111 0048 00       		.byte	0
 1112 0049 26       		.byte	38
 1113 004a 14       		.byte	20
 1114 004b 9E       		.byte	-98
 1115 004c 98       		.byte	-104
 1116 004d 8F       		.byte	-113
 1117 004e 00       		.byte	0
 1118 004f 00       		.byte	0
 1119 0050 00       		.byte	0
 1120 0051 6A       		.byte	106
 1121 0052 31       		.byte	49
 1122 0053 16       		.byte	22
 1123 0054 8F       		.byte	-113
 1124 0055 8C       		.byte	-116
 1125 0056 05       		.byte	5
 1126 0057 96       		.byte	-106
 1127 0058 00       		.byte	0
 1128 0059 E7       		.byte	-25
 1129 005a B7       		.byte	-73
 1130 005b 3F       		.byte	63
 1131 005c 36       		.byte	54
 1132 005d 00       		.byte	0
ARM GAS  C:\Users\IDONNO~1\AppData\Local\Temp\cc106gTS.s 			page 21


 1133 005e 00       		.byte	0
 1134 005f 00       		.byte	0
 1135 0060 00       		.byte	0
 1136 0061 00       		.byte	0
 1137 0062 00       		.byte	0
 1138 0063 00       		.byte	0
 1139 0064 AF       		.byte	-81
 1140 0065 66       		.byte	102
 1141 0066 9E       		.byte	-98
 1142 0067 D0       		.byte	-48
 1143 0068 38       		.byte	56
 1144 0069 5D       		.byte	93
 1145 006a 8A       		.byte	-118
 1146 006b 6C       		.byte	108
 1147 006c 20       		.byte	32
 1148 006d B9       		.byte	-71
 1149 006e 54       		.byte	84
 1150 006f 22       		.byte	34
 1151 0070 AE       		.byte	-82
 1152 0071 7C       		.byte	124
 1153 0072 ED       		.byte	-19
 1154 0073 04       		.byte	4
 1155 0074 4C       		.byte	76
 1156 0075 80       		.byte	-128
 1157 0076 38       		.byte	56
 1158 0077 74       		.byte	116
 1159 0078 86       		.byte	-122
 1160 0079 ED       		.byte	-19
 1161 007a CB       		.byte	-53
 1162 007b FA       		.byte	-6
 1163 007c 57       		.byte	87
 1164 007d CB       		.byte	-53
 1165 007e DC       		.byte	-36
 1166 007f 19       		.byte	25
 1167 0080 E2       		.byte	-30
 1168 0081 2E       		.byte	46
 1169 0082 1D       		.byte	29
 1170 0083 DF       		.byte	-33
 1171 0084 55       		.byte	85
 1172 0085 06       		.byte	6
 1173 0086 E5       		.byte	-27
 1174 0087 CB       		.byte	-53
 1175 0088 01       		.byte	1
 1176 0089 C3       		.byte	-61
 1177 008a 6D       		.byte	109
 1178 008b A8       		.byte	-88
 1179 008c B5       		.byte	-75
 1180 008d 2F       		.byte	47
 1181 008e 48       		.byte	72
 1182 008f 83       		.byte	-125
 1183 0090 7F       		.byte	127
 1184 0091 00       		.byte	0
 1185 0092 67       		.byte	103
 1186 0093 9A       		.byte	-102
 1187 0094 B2       		.byte	-78
 1188 0095 C8       		.byte	-56
 1189 0096 00       		.byte	0
ARM GAS  C:\Users\IDONNO~1\AppData\Local\Temp\cc106gTS.s 			page 22


 1190 0097 00       		.byte	0
 1191 0098 00       		.byte	0
 1192 0099 00       		.byte	0
 1193 009a 00       		.byte	0
 1194 009b 00       		.byte	0
 1195 009c 00       		.byte	0
 1196 009d 00       		.byte	0
 1197 009e 00       		.byte	0
 1198 009f 00       		.byte	0
 1199 00a0 00       		.byte	0
 1200 00a1 00       		.byte	0
 1201 00a2 00       		.byte	0
 1202 00a3 00       		.byte	0
 1203 00a4 00       		.byte	0
 1204 00a5 00       		.byte	0
 1205 00a6 00       		.byte	0
 1206 00a7 00       		.byte	0
 1207 00a8 00       		.byte	0
 1208 00a9 00       		.byte	0
 1209 00aa 00       		.byte	0
 1210 00ab 00       		.byte	0
 1211 00ac 00       		.byte	0
 1212 00ad 00       		.byte	0
 1213 00ae 00       		.byte	0
 1214 00af 00       		.byte	0
 1215 00b0 00       		.byte	0
 1216 00b1 00       		.byte	0
 1217 00b2 00       		.byte	0
 1218 00b3 00       		.byte	0
 1219 00b4 00       		.byte	0
 1220 00b5 00       		.byte	0
 1221 00b6 00       		.byte	0
 1222 00b7 00       		.byte	0
 1223 00b8 00       		.byte	0
 1224 00b9 00       		.byte	0
 1225 00ba 00       		.byte	0
 1226 00bb 00       		.byte	0
 1227 00bc 00       		.byte	0
 1228 00bd 00       		.byte	0
 1229 00be 00       		.byte	0
 1230 00bf 00       		.byte	0
 1231 00c0 00       		.byte	0
 1232 00c1 00       		.byte	0
 1233 00c2 00       		.byte	0
 1234 00c3 00       		.byte	0
 1235 00c4 00       		.byte	0
 1236 00c5 00       		.byte	0
 1237 00c6 00       		.byte	0
 1238 00c7 00       		.byte	0
 1239 00c8 00       		.byte	0
 1240 00c9 00       		.byte	0
 1241 00ca 00       		.byte	0
 1242 00cb 00       		.byte	0
 1243 00cc 00       		.byte	0
 1244 00cd 00       		.byte	0
 1245 00ce 00       		.byte	0
 1246 00cf 00       		.byte	0
ARM GAS  C:\Users\IDONNO~1\AppData\Local\Temp\cc106gTS.s 			page 23


 1247 00d0 00       		.byte	0
 1248 00d1 00       		.byte	0
 1249 00d2 00       		.byte	0
 1250 00d3 00       		.byte	0
 1251 00d4 00       		.byte	0
 1252 00d5 00       		.byte	0
 1253 00d6 00       		.byte	0
 1254 00d7 00       		.byte	0
 1255 00d8 00       		.byte	0
 1256 00d9 00       		.byte	0
 1257 00da 00       		.byte	0
 1258 00db 00       		.byte	0
 1259 00dc 25       		.byte	37
 1260 00dd B1       		.byte	-79
 1261 00de 94       		.byte	-108
 1262 00df 00       		.byte	0
 1263 00e0 00       		.byte	0
 1264 00e1 00       		.byte	0
 1265 00e2 00       		.byte	0
 1266 00e3 00       		.byte	0
 1267 00e4 00       		.byte	0
 1268 00e5 00       		.byte	0
 1269 00e6 A3       		.byte	-93
 1270 00e7 69       		.byte	105
 1271 00e8 00       		.byte	0
 1272 00e9 00       		.byte	0
 1273 00ea 00       		.byte	0
 1274 00eb 00       		.byte	0
 1275 00ec 00       		.byte	0
 1276 00ed 00       		.byte	0
 1277 00ee 00       		.byte	0
 1278 00ef 00       		.byte	0
 1279 00f0 00       		.byte	0
 1280 00f1 5A       		.byte	90
 1281 00f2 68       		.byte	104
 1282 00f3 55       		.byte	85
 1283 00f4 5F       		.byte	95
 1284 00f5 82       		.byte	-126
 1285 00f6 B8       		.byte	-72
 1286 00f7 00       		.byte	0
 1287 00f8 08       		.byte	8
 1288 00f9 CC       		.byte	-52
 1289 00fa 31       		.byte	49
 1290 00fb AA       		.byte	-86
 1291 00fc 2C       		.byte	44
 1292 00fd 53       		.byte	83
 1293 00fe 2E       		.byte	46
 1294 00ff 00       		.byte	0
 1295              		.section	.bss.pMavlinkThread,"aw",%nobits
 1296              		.align	2
 1297              		.set	.LANCHOR4,. + 0
 1298              		.type	pMavlinkThread, %object
 1299              		.size	pMavlinkThread, 4
 1300              	pMavlinkThread:
 1301 0000 00000000 		.space	4
 1302              		.section	.bss.m_mavlink_buffer.9719,"aw",%nobits
 1303              		.align	2
ARM GAS  C:\Users\IDONNO~1\AppData\Local\Temp\cc106gTS.s 			page 24


 1304              		.set	.LANCHOR1,. + 0
 1305              		.type	m_mavlink_buffer.9719, %object
 1306              		.size	m_mavlink_buffer.9719, 1088
 1307              	m_mavlink_buffer.9719:
 1308 0000 00000000 		.space	1088
 1308      00000000 
 1308      00000000 
 1308      00000000 
 1308      00000000 
 1309              		.section	.rodata.str1.4,"aMS",%progbits,1
 1310              		.align	2
 1311              	.LC0:
 1312 0000 6D61766C 		.ascii	"mavlink_uart_rx_process\000"
 1312      696E6B5F 
 1312      75617274 
 1312      5F72785F 
 1312      70726F63 
 1313              		.section	.bss.mavlink_thread_wa,"aw",%nobits
 1314              		.align	3
 1315              		.set	.LANCHOR6,. + 0
 1316              		.type	mavlink_thread_wa, %object
 1317              		.size	mavlink_thread_wa, 536
 1318              	mavlink_thread_wa:
 1319 0000 00000000 		.space	536
 1319      00000000 
 1319      00000000 
 1319      00000000 
 1319      00000000 
 1320              		.text
 1321              	.Letext0:
 1322              		.file 6 "c:\\program files (x86)\\gnu tools arm embedded\\5.4 2016q3\\lib\\gcc\\arm-none-eabi\\5.4
 1323              		.file 7 "c:\\program files (x86)\\gnu tools arm embedded\\5.4 2016q3\\arm-none-eabi\\include\\mach
 1324              		.file 8 "c:\\program files (x86)\\gnu tools arm embedded\\5.4 2016q3\\arm-none-eabi\\include\\sys\
 1325              		.file 9 "lib/ChibiOS_3.0.2/os/rt/ports/ARMCMx/compilers/GCC/chtypes.h"
 1326              		.file 10 "lib/ChibiOS_3.0.2/os/rt/include/chsystypes.h"
 1327              		.file 11 "lib/ChibiOS_3.0.2/os/rt/include/chschd.h"
 1328              		.file 12 "lib/ChibiOS_3.0.2/os/rt/ports/ARMCMx/chcore.h"
 1329              		.file 13 "lib/ChibiOS_3.0.2/os/rt/ports/ARMCMx/chcore_v7m.h"
 1330              		.file 14 "lib/ChibiOS_3.0.2/os/rt/include/chtm.h"
 1331              		.file 15 "lib/ChibiOS_3.0.2/os/rt/include/chsem.h"
 1332              		.file 16 "lib/ChibiOS_3.0.2/os/rt/include/chmtx.h"
 1333              		.file 17 "src/core/../../lib/mavlink/oroca_bldc/../mavlink_types.h"
 1334              		.file 18 "src/core/../../lib/mavlink/oroca_bldc/./mavlink_msg_test_cmd.h"
 1335              		.file 19 "src/core/../../lib/mavlink/oroca_bldc/./mavlink_msg_set_velocity.h"
 1336              		.file 20 "lib/ChibiOS_3.0.2/os/rt/include/chsys.h"
 1337              		.file 21 "lib/ChibiOS_3.0.2/os/ext/CMSIS/include/core_cm4.h"
 1338              		.file 22 "lib/ChibiOS_3.0.2/os/rt/include/chevents.h"
 1339              		.file 23 "src/core/uart3_print.h"
 1340              		.file 24 "lib/ChibiOS_3.0.2/os/rt/include/chthreads.h"