ARM GAS  C:\Users\IDONNO~1\AppData\Local\Temp\ccm1q34l.s 			page 1


   1              		.syntax unified
   2              		.cpu cortex-m4
   3              		.eabi_attribute 27, 1
   4              		.eabi_attribute 28, 1
   5              		.fpu fpv4-sp-d16
   6              		.eabi_attribute 20, 1
   7              		.eabi_attribute 21, 1
   8              		.eabi_attribute 23, 3
   9              		.eabi_attribute 24, 1
  10              		.eabi_attribute 25, 1
  11              		.eabi_attribute 26, 1
  12              		.eabi_attribute 30, 2
  13              		.eabi_attribute 34, 1
  14              		.eabi_attribute 18, 4
  15              		.thumb
  16              		.syntax unified
  17              		.file	"mcpwm.c"
  18              		.text
  19              	.Ltext0:
  20              		.cfi_sections	.debug_frame
  21              		.section	.text.mcpwm_adc_int_handler,"ax",%progbits
  22              		.align	2
  23              		.p2align 4,,15
  24              		.global	mcpwm_adc_int_handler
  25              		.thumb
  26              		.thumb_func
  27              		.type	mcpwm_adc_int_handler, %function
  28              	mcpwm_adc_int_handler:
  29              	.LFB260:
  30              		.file 1 "src/bldc/mcpwm.c"
  31              		.loc 1 679 0
  32              		.cfi_startproc
  33              		@ args = 0, pretend = 0, frame = 0
  34              		@ frame_needed = 0, uses_anonymous_args = 0
  35              		@ link register save eliminated.
  36              	.LVL0:
  37              		.loc 1 684 0
  38 0000 044B     		ldr	r3, .L2
  39              		.loc 1 683 0
  40 0002 0549     		ldr	r1, .L2+4
  41              	.LVL1:
  42 0004 0020     		movs	r0, #0
  43              	.LVL2:
  44              		.loc 1 684 0
  45 0006 4022     		movs	r2, #64
  46              		.loc 1 683 0
  47 0008 4862     		str	r0, [r1, #36]
  48              		.loc 1 684 0
  49 000a 1A83     		strh	r2, [r3, #24]	@ movhi
  50              		.loc 1 689 0
  51 000c 6420     		movs	r0, #100
  52              		.loc 1 685 0
  53 000e 5A83     		strh	r2, [r3, #26]	@ movhi
  54              		.loc 1 689 0
  55 0010 FFF7FEBF 		b	WWDG_SetCounter
  56              	.LVL3:
  57              	.L3:
ARM GAS  C:\Users\IDONNO~1\AppData\Local\Temp\ccm1q34l.s 			page 2


  58              		.align	2
  59              	.L2:
  60 0014 00040240 		.word	1073873920
  61 0018 00180040 		.word	1073747968
  62              		.cfi_endproc
  63              	.LFE260:
  64              		.size	mcpwm_adc_int_handler, .-mcpwm_adc_int_handler
  65              		.section	.text.SetupParm,"ax",%progbits
  66              		.align	2
  67              		.p2align 4,,15
  68              		.global	SetupParm
  69              		.thumb
  70              		.thumb_func
  71              		.type	SetupParm, %function
  72              	SetupParm:
  73              	.LFB261:
  74              		.loc 1 698 0
  75              		.cfi_startproc
  76              		@ args = 0, pretend = 0, frame = 0
  77              		@ frame_needed = 0, uses_anonymous_args = 0
  78              		@ link register save eliminated.
  79              		.loc 1 708 0
  80 0000 124A     		ldr	r2, .L6
  81              		.loc 1 701 0
  82 0002 134B     		ldr	r3, .L6+4
  83              		.loc 1 708 0
  84 0004 128A     		ldrh	r2, [r2, #16]
  85              		.loc 1 701 0
  86 0006 9FED137A 		vldr.32	s14, .L6+8
  87              		.loc 1 705 0
  88 000a 1349     		ldr	r1, .L6+12
  89              		.loc 1 712 0
  90 000c 1348     		ldr	r0, .L6+16
  91              		.loc 1 708 0
  92 000e 07EE902A 		vmov	s15, r2	@ int
  93 0012 F8EE677A 		vcvt.f32.u32	s15, s15
  94              		.loc 1 705 0
  95 0016 124A     		ldr	r2, .L6+20
  96              		.loc 1 698 0
  97 0018 30B4     		push	{r4, r5}
  98              		.cfi_def_cfa_offset 8
  99              		.cfi_offset 4, -8
 100              		.cfi_offset 5, -4
 101              		.loc 1 708 0
 102 001a 67EE877A 		vmul.f32	s15, s15, s14
 103              		.loc 1 701 0
 104 001e 83ED007A 		vstr.32	s14, [r3]
 105              		.loc 1 702 0
 106 0022 83ED027A 		vstr.32	s14, [r3, #8]
 107              		.loc 1 708 0
 108 0026 9FED0F7A 		vldr.32	s14, .L6+24
 109              		.loc 1 705 0
 110 002a 0968     		ldr	r1, [r1]
 111 002c 1268     		ldr	r2, [r2]
 112              		.loc 1 708 0
 113 002e 0E4D     		ldr	r5, .L6+28
 114              		.loc 1 712 0
ARM GAS  C:\Users\IDONNO~1\AppData\Local\Temp\ccm1q34l.s 			page 3


 115 0030 0E4C     		ldr	r4, .L6+32
 116              		.loc 1 708 0
 117 0032 67EE877A 		vmul.f32	s15, s15, s14
 118              		.loc 1 705 0
 119 0036 89B2     		uxth	r1, r1
 120 0038 92B2     		uxth	r2, r2
 121              	.LVL4:
 122              	.LBB18:
 123              	.LBB19:
 124              		.loc 1 910 0
 125 003a 9980     		strh	r1, [r3, #4]	@ movhi
 126              		.loc 1 911 0
 127 003c 9A81     		strh	r2, [r3, #12]	@ movhi
 128              	.LVL5:
 129              	.LBE19:
 130              	.LBE18:
 131              		.loc 1 708 0
 132 003e C5ED007A 		vstr.32	s15, [r5]
 133              		.loc 1 712 0
 134 0042 E36A     		ldr	r3, [r4, #44]
 135 0044 0360     		str	r3, [r0]
 136              		.loc 1 717 0
 137 0046 30BC     		pop	{r4, r5}
 138              		.cfi_restore 5
 139              		.cfi_restore 4
 140              		.cfi_def_cfa_offset 0
 141 0048 0020     		movs	r0, #0
 142 004a 7047     		bx	lr
 143              	.L7:
 144              		.align	2
 145              	.L6:
 146 004c 00000000 		.word	.LANCHOR3
 147 0050 00000000 		.word	.LANCHOR0
 148 0054 6740533A 		.word	978534503
 149 0058 00000000 		.word	.LANCHOR1
 150 005c 00000000 		.word	.LANCHOR5
 151 0060 00000000 		.word	.LANCHOR2
 152 0064 74D19541 		.word	1100337524
 153 0068 00000000 		.word	.LANCHOR4
 154 006c 00000140 		.word	1073807360
 155              		.cfi_endproc
 156              	.LFE261:
 157              		.size	SetupParm, .-SetupParm
 158              		.section	.text.ClarkePark,"ax",%progbits
 159              		.align	2
 160              		.p2align 4,,15
 161              		.global	ClarkePark
 162              		.thumb
 163              		.thumb_func
 164              		.type	ClarkePark, %function
 165              	ClarkePark:
 166              	.LFB262:
 167              		.loc 1 720 0
 168              		.cfi_startproc
 169              		@ args = 0, pretend = 0, frame = 0
 170              		@ frame_needed = 0, uses_anonymous_args = 0
 171 0000 10B5     		push	{r4, lr}
ARM GAS  C:\Users\IDONNO~1\AppData\Local\Temp\ccm1q34l.s 			page 4


 172              		.cfi_def_cfa_offset 8
 173              		.cfi_offset 4, -8
 174              		.cfi_offset 14, -4
 175              		.loc 1 721 0
 176 0002 174C     		ldr	r4, .L10
 177              		.loc 1 722 0
 178 0004 DFED177A 		vldr.32	s15, .L10+4
 179              		.loc 1 720 0
 180 0008 2DED048B 		vpush.64	{d8, d9}
 181              		.cfi_def_cfa_offset 24
 182              		.cfi_offset 80, -24
 183              		.cfi_offset 81, -20
 184              		.cfi_offset 82, -16
 185              		.cfi_offset 83, -12
 186              		.loc 1 722 0
 187 000c 94ED048A 		vldr.32	s16, [r4, #16]
 188              		.loc 1 721 0
 189 0010 D4ED038A 		vldr.32	s17, [r4, #12]
 190              		.loc 1 726 0
 191 0014 D4ED009A 		vldr.32	s19, [r4]
 192              		.loc 1 721 0
 193 0018 C4ED058A 		vstr.32	s17, [r4, #20]
 194              		.loc 1 722 0
 195 001c 38EE088A 		vadd.f32	s16, s16, s16
 196              		.loc 1 726 0
 197 0020 B0EE690A 		vmov.f32	s0, s19
 198              		.loc 1 722 0
 199 0024 28EE278A 		vmul.f32	s16, s16, s15
 200 0028 A8EEA78A 		vfma.f32	s16, s17, s15
 201 002c 84ED068A 		vstr.32	s16, [r4, #24]
 202              		.loc 1 726 0
 203 0030 FFF7FEFF 		bl	cosf
 204              	.LVL6:
 205 0034 B0EE409A 		vmov.f32	s18, s0
 206 0038 B0EE690A 		vmov.f32	s0, s19
 207 003c FFF7FEFF 		bl	sinf
 208              	.LVL7:
 209              		.loc 1 727 0
 210 0040 68EE097A 		vmul.f32	s15, s16, s18
 211              		.loc 1 726 0
 212 0044 28EE008A 		vmul.f32	s16, s16, s0
 213              		.loc 1 727 0
 214 0048 E8EEC07A 		vfms.f32	s15, s17, s0
 215              		.loc 1 726 0
 216 004c A8EE898A 		vfma.f32	s16, s17, s18
 217              		.loc 1 727 0
 218 0050 C4ED087A 		vstr.32	s15, [r4, #32]
 219              		.loc 1 726 0
 220 0054 84ED078A 		vstr.32	s16, [r4, #28]
 221              		.loc 1 730 0
 222 0058 BDEC048B 		vldm	sp!, {d8-d9}
 223              		.cfi_restore 82
 224              		.cfi_restore 83
 225              		.cfi_restore 80
 226              		.cfi_restore 81
 227              		.cfi_def_cfa_offset 8
 228 005c 10BD     		pop	{r4, pc}
ARM GAS  C:\Users\IDONNO~1\AppData\Local\Temp\ccm1q34l.s 			page 5


 229              	.L11:
 230 005e 00BF     		.align	2
 231              	.L10:
 232 0060 00000000 		.word	.LANCHOR6
 233 0064 3ACD133F 		.word	1058262330
 234              		.cfi_endproc
 235              	.LFE262:
 236              		.size	ClarkePark, .-ClarkePark
 237              		.section	.text.InitPI,"ax",%progbits
 238              		.align	2
 239              		.p2align 4,,15
 240              		.global	InitPI
 241              		.thumb
 242              		.thumb_func
 243              		.type	InitPI, %function
 244              	InitPI:
 245              	.LFB264:
 246              		.loc 1 793 0
 247              		.cfi_startproc
 248              		@ args = 0, pretend = 0, frame = 0
 249              		@ frame_needed = 0, uses_anonymous_args = 0
 250              		@ link register save eliminated.
 251              	.LVL8:
 252              		.loc 1 794 0
 253 0000 0023     		movs	r3, #0
 254 0002 0360     		str	r3, [r0]	@ float
 255              		.loc 1 795 0
 256 0004 0362     		str	r3, [r0, #32]	@ float
 257 0006 7047     		bx	lr
 258              		.cfi_endproc
 259              	.LFE264:
 260              		.size	InitPI, .-InitPI
 261              		.section	.text.CalcPI,"ax",%progbits
 262              		.align	2
 263              		.p2align 4,,15
 264              		.global	CalcPI
 265              		.thumb
 266              		.thumb_func
 267              		.type	CalcPI, %function
 268              	CalcPI:
 269              	.LFB265:
 270              		.loc 1 799 0
 271              		.cfi_startproc
 272              		@ args = 0, pretend = 0, frame = 0
 273              		@ frame_needed = 0, uses_anonymous_args = 0
 274              		@ link register save eliminated.
 275              	.LVL9:
 276              		.loc 1 801 0
 277 0000 90ED067A 		vldr.32	s14, [r0, #24]
 278 0004 90ED076A 		vldr.32	s12, [r0, #28]
 279              		.loc 1 803 0
 280 0008 D0ED007A 		vldr.32	s15, [r0]
 281 000c D0ED015A 		vldr.32	s11, [r0, #4]
 282              		.loc 1 805 0
 283 0010 D0ED046A 		vldr.32	s13, [r0, #16]
 284              		.loc 1 801 0
 285 0014 37EE466A 		vsub.f32	s12, s14, s12
ARM GAS  C:\Users\IDONNO~1\AppData\Local\Temp\ccm1q34l.s 			page 6


 286              	.LVL10:
 287              		.loc 1 803 0
 288 0018 B0EE677A 		vmov.f32	s14, s15
 289 001c A6EE257A 		vfma.f32	s14, s12, s11
 290              	.LVL11:
 291              		.loc 1 805 0
 292 0020 B4EEE67A 		vcmpe.f32	s14, s13
 293 0024 F1EE10FA 		vmrs	APSR_nzcv, FPSCR
 294 0028 0BDC     		bgt	.L23
 295              		.loc 1 806 0
 296 002a D0ED056A 		vldr.32	s13, [r0, #20]
 297 002e B4EEE67A 		vcmpe.f32	s14, s13
 298 0032 F1EE10FA 		vmrs	APSR_nzcv, FPSCR
 299 0036 04D4     		bmi	.L23
 300              		.loc 1 807 0
 301 0038 F0EE476A 		vmov.f32	s13, s14
 302 003c 80ED087A 		vstr.32	s14, [r0, #32]
 303 0040 01E0     		b	.L16
 304              	.L23:
 305              		.loc 1 806 0 discriminator 1
 306 0042 C0ED086A 		vstr.32	s13, [r0, #32]
 307              	.L16:
 308              	.LVL12:
 309              		.loc 1 811 0
 310 0046 90ED025A 		vldr.32	s10, [r0, #8]
 311 004a D0ED035A 		vldr.32	s11, [r0, #12]
 312 004e E6EE057A 		vfma.f32	s15, s12, s10
 313 0052 37EE667A 		vsub.f32	s14, s14, s13
 314              	.LVL13:
 315 0056 E7EE657A 		vfms.f32	s15, s14, s11
 316 005a C0ED007A 		vstr.32	s15, [r0]
 317              	.LVL14:
 318 005e 7047     		bx	lr
 319              		.cfi_endproc
 320              	.LFE265:
 321              		.size	CalcPI, .-CalcPI
 322              		.section	.text.SetupControlParameters,"ax",%progbits
 323              		.align	2
 324              		.p2align 4,,15
 325              		.global	SetupControlParameters
 326              		.thumb
 327              		.thumb_func
 328              		.type	SetupControlParameters, %function
 329              	SetupControlParameters:
 330              	.LFB266:
 331              		.loc 1 816 0
 332              		.cfi_startproc
 333              		@ args = 0, pretend = 0, frame = 0
 334              		@ frame_needed = 0, uses_anonymous_args = 0
 335 0000 F0B5     		push	{r4, r5, r6, r7, lr}
 336              		.cfi_def_cfa_offset 20
 337              		.cfi_offset 4, -20
 338              		.cfi_offset 5, -16
 339              		.cfi_offset 6, -12
 340              		.cfi_offset 7, -8
 341              		.cfi_offset 14, -4
 342              		.loc 1 828 0
ARM GAS  C:\Users\IDONNO~1\AppData\Local\Temp\ccm1q34l.s 			page 7


 343 0002 1848     		ldr	r0, .L27
 344              		.loc 1 819 0
 345 0004 184C     		ldr	r4, .L27+4
 346              		.loc 1 837 0
 347 0006 1949     		ldr	r1, .L27+8
 348              		.loc 1 846 0
 349 0008 194A     		ldr	r2, .L27+12
 350              		.loc 1 821 0
 351 000a 1A4D     		ldr	r5, .L27+16
 352              		.loc 1 820 0
 353 000c 1A4E     		ldr	r6, .L27+20
 354              		.loc 1 819 0
 355 000e DFF874E0 		ldr	lr, .L27+32
 356              		.loc 1 823 0
 357 0012 1A4F     		ldr	r7, .L27+24
 358              		.loc 1 828 0
 359 0014 C0F804E0 		str	lr, [r0, #4]	@ float
 360              	.LBB20:
 361              	.LBB21:
 362              		.loc 1 794 0
 363 0018 0023     		movs	r3, #0
 364              	.LBE21:
 365              	.LBE20:
 366              		.loc 1 832 0
 367 001a 4761     		str	r7, [r0, #20]	@ float
 368              		.loc 1 819 0
 369 001c C4F804E0 		str	lr, [r4, #4]	@ float
 370              		.loc 1 829 0
 371 0020 8660     		str	r6, [r0, #8]	@ float
 372              		.loc 1 840 0
 373 0022 DFF864E0 		ldr	lr, .L27+36
 374              		.loc 1 830 0
 375 0026 C560     		str	r5, [r0, #12]	@ float
 376              		.loc 1 831 0
 377 0028 0561     		str	r5, [r0, #16]	@ float
 378              		.loc 1 823 0
 379 002a 6761     		str	r7, [r4, #20]	@ float
 380              	.LVL15:
 381              	.LBB23:
 382              	.LBB24:
 383              		.loc 1 794 0
 384 002c 0360     		str	r3, [r0]	@ float
 385              	.LBE24:
 386              	.LBE23:
 387              		.loc 1 841 0
 388 002e 144F     		ldr	r7, .L27+28
 389              	.LBB26:
 390              	.LBB25:
 391              		.loc 1 795 0
 392 0030 0362     		str	r3, [r0, #32]	@ float
 393              	.LBE25:
 394              	.LBE26:
 395              		.loc 1 837 0
 396 0032 4FF08040 		mov	r0, #1073741824
 397              		.loc 1 820 0
 398 0036 A660     		str	r6, [r4, #8]	@ float
 399              		.loc 1 821 0
ARM GAS  C:\Users\IDONNO~1\AppData\Local\Temp\ccm1q34l.s 			page 8


 400 0038 E560     		str	r5, [r4, #12]	@ float
 401              		.loc 1 822 0
 402 003a 2561     		str	r5, [r4, #16]	@ float
 403              	.LBB27:
 404              	.LBB22:
 405              		.loc 1 794 0
 406 003c 2360     		str	r3, [r4]	@ float
 407              		.loc 1 795 0
 408 003e 2362     		str	r3, [r4, #32]	@ float
 409              	.LVL16:
 410              	.LBE22:
 411              	.LBE27:
 412              		.loc 1 838 0
 413 0040 8E60     		str	r6, [r1, #8]	@ float
 414              		.loc 1 839 0
 415 0042 CD60     		str	r5, [r1, #12]	@ float
 416              	.LBB28:
 417              	.LBB29:
 418              		.loc 1 794 0
 419 0044 0B60     		str	r3, [r1]	@ float
 420              		.loc 1 795 0
 421 0046 0B62     		str	r3, [r1, #32]	@ float
 422              	.LBE29:
 423              	.LBE28:
 424              		.loc 1 847 0
 425 0048 9660     		str	r6, [r2, #8]	@ float
 426              		.loc 1 848 0
 427 004a D560     		str	r5, [r2, #12]	@ float
 428              	.LBB30:
 429              	.LBB31:
 430              		.loc 1 794 0
 431 004c 1360     		str	r3, [r2]	@ float
 432              		.loc 1 795 0
 433 004e 1362     		str	r3, [r2, #32]	@ float
 434              	.LBE31:
 435              	.LBE30:
 436              		.loc 1 837 0
 437 0050 4860     		str	r0, [r1, #4]	@ float
 438              		.loc 1 846 0
 439 0052 5060     		str	r0, [r2, #4]	@ float
 440              		.loc 1 840 0
 441 0054 C1F810E0 		str	lr, [r1, #16]	@ float
 442              		.loc 1 849 0
 443 0058 C2F810E0 		str	lr, [r2, #16]	@ float
 444              		.loc 1 841 0
 445 005c 4F61     		str	r7, [r1, #20]	@ float
 446              		.loc 1 850 0
 447 005e 5761     		str	r7, [r2, #20]	@ float
 448 0060 F0BD     		pop	{r4, r5, r6, r7, pc}
 449              	.L28:
 450 0062 00BF     		.align	2
 451              	.L27:
 452 0064 00000000 		.word	.LANCHOR8
 453 0068 00000000 		.word	.LANCHOR7
 454 006c 00000000 		.word	.LANCHOR9
 455 0070 00000000 		.word	.LANCHOR10
 456 0074 58FF7F3F 		.word	1065353048
ARM GAS  C:\Users\IDONNO~1\AppData\Local\Temp\ccm1q34l.s 			page 9


 457 0078 0AD7233C 		.word	1008981770
 458 007c 58FF7FBF 		.word	-1082130600
 459 0080 333373BF 		.word	-1082969293
 460 0084 CDCC4C3D 		.word	1028443341
 461 0088 3333733F 		.word	1064514355
 462              		.cfi_endproc
 463              	.LFE266:
 464              		.size	SetupControlParameters, .-SetupControlParameters
 465              		.section	.text.mcpwm_init,"ax",%progbits
 466              		.align	2
 467              		.p2align 4,,15
 468              		.global	mcpwm_init
 469              		.thumb
 470              		.thumb_func
 471              		.type	mcpwm_init, %function
 472              	mcpwm_init:
 473              	.LFB257:
 474              		.loc 1 289 0
 475              		.cfi_startproc
 476              		@ args = 0, pretend = 0, frame = 152
 477              		@ frame_needed = 0, uses_anonymous_args = 0
 478              	.LVL17:
 479 0000 2DE9F04F 		push	{r4, r5, r6, r7, r8, r9, r10, fp, lr}
 480              		.cfi_def_cfa_offset 36
 481              		.cfi_offset 4, -36
 482              		.cfi_offset 5, -32
 483              		.cfi_offset 6, -28
 484              		.cfi_offset 7, -24
 485              		.cfi_offset 8, -20
 486              		.cfi_offset 9, -16
 487              		.cfi_offset 10, -12
 488              		.cfi_offset 11, -8
 489              		.cfi_offset 14, -4
 490 0004 A7B0     		sub	sp, sp, #156
 491              		.cfi_def_cfa_offset 192
 492              		.loc 1 290 0
 493 0006 FFF7FEFF 		bl	utils_sys_lock_cnt
 494              	.LVL18:
 495              		.loc 1 298 0
 496 000a DA4B     		ldr	r3, .L36
 497              		.loc 1 301 0
 498 000c DA4E     		ldr	r6, .L36+4
 499              		.loc 1 302 0
 500 000e DB4F     		ldr	r7, .L36+8
 501              		.loc 1 312 0
 502 0010 DFF894B3 		ldr	fp, .L36+52
 503              		.loc 1 298 0
 504 0014 0024     		movs	r4, #0
 505 0016 1C70     		strb	r4, [r3]
 506              		.loc 1 299 0
 507 0018 D94B     		ldr	r3, .L36+12
 508              		.loc 1 301 0
 509 001a 3046     		mov	r0, r6
 510              		.loc 1 299 0
 511 001c 1C70     		strb	r4, [r3]
 512              		.loc 1 301 0
 513 001e FFF7FEFF 		bl	TIM_DeInit
ARM GAS  C:\Users\IDONNO~1\AppData\Local\Temp\ccm1q34l.s 			page 10


 514              	.LVL19:
 515              		.loc 1 302 0
 516 0022 3846     		mov	r0, r7
 517 0024 FFF7FEFF 		bl	TIM_DeInit
 518              	.LVL20:
 519              		.loc 1 307 0
 520 0028 0121     		movs	r1, #1
 521 002a 0846     		mov	r0, r1
 522              		.loc 1 303 0
 523 002c 7462     		str	r4, [r6, #36]
 524              		.loc 1 304 0
 525 002e 7C62     		str	r4, [r7, #36]
 526              		.loc 1 314 0
 527 0030 0125     		movs	r5, #1
 528              		.loc 1 307 0
 529 0032 FFF7FEFF 		bl	RCC_APB2PeriphClockCmd
 530              	.LVL21:
 531              		.loc 1 311 0
 532 0036 4FF0200E 		mov	lr, #32	@ movhi
 533              		.loc 1 316 0
 534 003a 3046     		mov	r0, r6
 535 003c 01A9     		add	r1, sp, #4
 536              		.loc 1 312 0
 537 003e DBF80020 		ldr	r2, [fp]
 538              		.loc 1 311 0
 539 0042 ADF806E0 		strh	lr, [sp, #6]	@ movhi
 540              		.loc 1 310 0
 541 0046 ADF80440 		strh	r4, [sp, #4]	@ movhi
 542              		.loc 1 313 0
 543 004a ADF80C40 		strh	r4, [sp, #12]	@ movhi
 544              		.loc 1 312 0
 545 004e CD4B     		ldr	r3, .L36+16
 546              		.loc 1 314 0
 547 0050 8DF80E50 		strb	r5, [sp, #14]
 548              		.loc 1 312 0
 549 0054 93FBF2F3 		sdiv	r3, r3, r2
 550 0058 0293     		str	r3, [sp, #8]
 551              		.loc 1 316 0
 552 005a FFF7FEFF 		bl	TIM_TimeBaseInit
 553              	.LVL22:
 554              		.loc 1 322 0
 555 005e F36A     		ldr	r3, [r6, #44]
 556              		.loc 1 320 0
 557 0060 ADF83250 		strh	r5, [sp, #50]	@ movhi
 558              		.loc 1 322 0
 559 0064 EB40     		lsrs	r3, r3, r5
 560 0066 0E93     		str	r3, [sp, #56]
 561              		.loc 1 319 0
 562 0068 4FF06003 		mov	r3, #96	@ movhi
 563              		.loc 1 321 0
 564 006c 4FF00409 		mov	r9, #4
 565              		.loc 1 325 0
 566 0070 4FF48078 		mov	r8, #256
 567              		.loc 1 328 0
 568 0074 3046     		mov	r0, r6
 569 0076 0CA9     		add	r1, sp, #48
 570              		.loc 1 319 0
ARM GAS  C:\Users\IDONNO~1\AppData\Local\Temp\ccm1q34l.s 			page 11


 571 0078 ADF83030 		strh	r3, [sp, #48]	@ movhi
 572              		.loc 1 326 0
 573 007c 4FF40073 		mov	r3, #512	@ movhi
 574 0080 ADF84230 		strh	r3, [sp, #66]	@ movhi
 575              		.loc 1 323 0
 576 0084 ADF83C40 		strh	r4, [sp, #60]	@ movhi
 577              		.loc 1 324 0
 578 0088 ADF83E40 		strh	r4, [sp, #62]	@ movhi
 579              		.loc 1 321 0
 580 008c ADF83490 		strh	r9, [sp, #52]	@ movhi
 581              		.loc 1 325 0
 582 0090 ADF84080 		strh	r8, [sp, #64]	@ movhi
 583              		.loc 1 328 0
 584 0094 FFF7FEFF 		bl	TIM_OC1Init
 585              	.LVL23:
 586              		.loc 1 329 0
 587 0098 0CA9     		add	r1, sp, #48
 588 009a 3046     		mov	r0, r6
 589 009c FFF7FEFF 		bl	TIM_OC2Init
 590              	.LVL24:
 591              		.loc 1 330 0
 592 00a0 0CA9     		add	r1, sp, #48
 593 00a2 3046     		mov	r0, r6
 594 00a4 FFF7FEFF 		bl	TIM_OC3Init
 595              	.LVL25:
 596              		.loc 1 331 0
 597 00a8 0CA9     		add	r1, sp, #48
 598 00aa 3046     		mov	r0, r6
 599 00ac FFF7FEFF 		bl	TIM_OC4Init
 600              	.LVL26:
 601              		.loc 1 333 0
 602 00b0 3046     		mov	r0, r6
 603 00b2 0821     		movs	r1, #8
 604 00b4 FFF7FEFF 		bl	TIM_OC1PreloadConfig
 605              	.LVL27:
 606              		.loc 1 334 0
 607 00b8 3046     		mov	r0, r6
 608 00ba 0821     		movs	r1, #8
 609 00bc FFF7FEFF 		bl	TIM_OC2PreloadConfig
 610              	.LVL28:
 611              		.loc 1 335 0
 612 00c0 3046     		mov	r0, r6
 613 00c2 0821     		movs	r1, #8
 614 00c4 FFF7FEFF 		bl	TIM_OC3PreloadConfig
 615              	.LVL29:
 616              		.loc 1 336 0
 617 00c8 3046     		mov	r0, r6
 618 00ca 0821     		movs	r1, #8
 619 00cc FFF7FEFF 		bl	TIM_OC4PreloadConfig
 620              	.LVL30:
 621              		.loc 1 342 0
 622 00d0 5023     		movs	r3, #80
 623              		.loc 1 339 0
 624 00d2 4FF4006A 		mov	r10, #2048
 625              		.loc 1 347 0
 626 00d6 3046     		mov	r0, r6
 627 00d8 04A9     		add	r1, sp, #16
ARM GAS  C:\Users\IDONNO~1\AppData\Local\Temp\ccm1q34l.s 			page 12


 628              		.loc 1 342 0
 629 00da ADF81630 		strh	r3, [sp, #22]	@ movhi
 630              		.loc 1 344 0
 631 00de 4FF40053 		mov	r3, #8192	@ movhi
 632 00e2 ADF81A30 		strh	r3, [sp, #26]	@ movhi
 633              		.loc 1 339 0
 634 00e6 ADF810A0 		strh	r10, [sp, #16]	@ movhi
 635              		.loc 1 340 0
 636 00ea ADF812A0 		strh	r10, [sp, #18]	@ movhi
 637              		.loc 1 341 0
 638 00ee ADF81440 		strh	r4, [sp, #20]	@ movhi
 639              		.loc 1 343 0
 640 00f2 ADF81840 		strh	r4, [sp, #24]	@ movhi
 641              		.loc 1 345 0
 642 00f6 ADF81C40 		strh	r4, [sp, #28]	@ movhi
 643              		.loc 1 347 0
 644 00fa FFF7FEFF 		bl	TIM_BDTRConfig
 645              	.LVL31:
 646              		.loc 1 348 0
 647 00fe 2946     		mov	r1, r5
 648 0100 3046     		mov	r0, r6
 649 0102 FFF7FEFF 		bl	TIM_CCPreloadControl
 650              	.LVL32:
 651              		.loc 1 349 0
 652 0106 2946     		mov	r1, r5
 653 0108 3046     		mov	r0, r6
 654 010a FFF7FEFF 		bl	TIM_ARRPreloadConfig
 655              	.LVL33:
 656              		.loc 1 359 0
 657 010e 2946     		mov	r1, r5
 658 0110 9D48     		ldr	r0, .L36+20
 659 0112 FFF7FEFF 		bl	RCC_AHB1PeriphClockCmd
 660              	.LVL34:
 661              		.loc 1 360 0
 662 0116 2946     		mov	r1, r5
 663 0118 4FF4E060 		mov	r0, #1792
 664 011c FFF7FEFF 		bl	RCC_APB2PeriphClockCmd
 665              	.LVL35:
 666              		.loc 1 362 0
 667 0120 2346     		mov	r3, r4
 668 0122 9A4A     		ldr	r2, .L36+24
 669 0124 9A48     		ldr	r0, .L36+28
 670 0126 0321     		movs	r1, #3
 671 0128 FFF7FEFF 		bl	dmaStreamAllocate
 672              	.LVL36:
 673              		.loc 1 373 0
 674 012c 4FF40051 		mov	r1, #8192
 675              		.loc 1 366 0
 676 0130 DFF878C2 		ldr	ip, .L36+56
 677              		.loc 1 367 0
 678 0134 DFF878E2 		ldr	lr, .L36+60
 679              		.loc 1 380 0
 680 0138 9648     		ldr	r0, .L36+32
 681              		.loc 1 372 0
 682 013a CDF878A0 		str	r10, [sp, #120]
 683              		.loc 1 375 0
 684 013e 4FF40033 		mov	r3, #131072
ARM GAS  C:\Users\IDONNO~1\AppData\Local\Temp\ccm1q34l.s 			page 13


 685              		.loc 1 371 0
 686 0142 4FF48062 		mov	r2, #1024
 687              		.loc 1 373 0
 688 0146 1F91     		str	r1, [sp, #124]
 689              		.loc 1 369 0
 690 0148 4FF00C0A 		mov	r10, #12
 691              		.loc 1 380 0
 692 014c 17A9     		add	r1, sp, #92
 693              		.loc 1 366 0
 694 014e CDF864C0 		str	ip, [sp, #100]
 695              		.loc 1 367 0
 696 0152 CDF860E0 		str	lr, [sp, #96]
 697              		.loc 1 375 0
 698 0156 2193     		str	r3, [sp, #132]
 699              		.loc 1 371 0
 700 0158 1D92     		str	r2, [sp, #116]
 701              		.loc 1 365 0
 702 015a 1794     		str	r4, [sp, #92]
 703              		.loc 1 368 0
 704 015c 1A94     		str	r4, [sp, #104]
 705              		.loc 1 370 0
 706 015e 1C94     		str	r4, [sp, #112]
 707              		.loc 1 374 0
 708 0160 CDF88080 		str	r8, [sp, #128]
 709              		.loc 1 376 0
 710 0164 2294     		str	r4, [sp, #136]
 711              		.loc 1 377 0
 712 0166 2394     		str	r4, [sp, #140]
 713              		.loc 1 378 0
 714 0168 2494     		str	r4, [sp, #144]
 715              		.loc 1 379 0
 716 016a 2594     		str	r4, [sp, #148]
 717              		.loc 1 369 0
 718 016c CDF86CA0 		str	r10, [sp, #108]
 719              		.loc 1 380 0
 720 0170 FFF7FEFF 		bl	DMA_Init
 721              	.LVL37:
 722              		.loc 1 383 0
 723 0174 2946     		mov	r1, r5
 724 0176 8748     		ldr	r0, .L36+32
 725 0178 FFF7FEFF 		bl	DMA_Cmd
 726              	.LVL38:
 727              		.loc 1 386 0
 728 017c 1021     		movs	r1, #16
 729 017e 2A46     		mov	r2, r5
 730 0180 8448     		ldr	r0, .L36+32
 731 0182 FFF7FEFF 		bl	DMA_ITConfig
 732              	.LVL39:
 733              		.loc 1 391 0
 734 0186 1622     		movs	r2, #22
 735              		.loc 1 393 0
 736 0188 4FF48043 		mov	r3, #16384
 737              		.loc 1 395 0
 738 018c 08A8     		add	r0, sp, #32
 739              		.loc 1 391 0
 740 018e 0892     		str	r2, [sp, #32]
 741              		.loc 1 393 0
ARM GAS  C:\Users\IDONNO~1\AppData\Local\Temp\ccm1q34l.s 			page 14


 742 0190 0A93     		str	r3, [sp, #40]
 743              		.loc 1 392 0
 744 0192 0994     		str	r4, [sp, #36]
 745              		.loc 1 394 0
 746 0194 0B94     		str	r4, [sp, #44]
 747              		.loc 1 395 0
 748 0196 FFF7FEFF 		bl	ADC_CommonInit
 749              	.LVL40:
 750              		.loc 1 402 0
 751 019a 4FF05063 		mov	r3, #218103808
 752              		.loc 1 401 0
 753 019e 4FF00052 		mov	r2, #536870912
 754              		.loc 1 406 0
 755 01a2 11A9     		add	r1, sp, #68
 756 01a4 7C48     		ldr	r0, .L36+36
 757              		.loc 1 402 0
 758 01a6 1493     		str	r3, [sp, #80]
 759              		.loc 1 401 0
 760 01a8 1392     		str	r2, [sp, #76]
 761              		.loc 1 398 0
 762 01aa 1194     		str	r4, [sp, #68]
 763              		.loc 1 399 0
 764 01ac 8DF84850 		strb	r5, [sp, #72]
 765              		.loc 1 400 0
 766 01b0 8DF84940 		strb	r4, [sp, #73]
 767              		.loc 1 403 0
 768 01b4 1594     		str	r4, [sp, #84]
 769              		.loc 1 404 0
 770 01b6 8DF85890 		strb	r9, [sp, #88]
 771              		.loc 1 406 0
 772 01ba FFF7FEFF 		bl	ADC_Init
 773              	.LVL41:
 774              		.loc 1 409 0
 775 01be 11A9     		add	r1, sp, #68
 776 01c0 7648     		ldr	r0, .L36+40
 777              		.loc 1 407 0
 778 01c2 1394     		str	r4, [sp, #76]
 779              		.loc 1 408 0
 780 01c4 1494     		str	r4, [sp, #80]
 781              		.loc 1 409 0
 782 01c6 FFF7FEFF 		bl	ADC_Init
 783              	.LVL42:
 784              		.loc 1 410 0
 785 01ca 11A9     		add	r1, sp, #68
 786 01cc 7448     		ldr	r0, .L36+44
 787 01ce FFF7FEFF 		bl	ADC_Init
 788              	.LVL43:
 789              		.loc 1 412 0
 790 01d2 FFF7FEFF 		bl	hw_setup_adc_channels
 791              	.LVL44:
 792              		.loc 1 415 0
 793 01d6 2846     		mov	r0, r5
 794 01d8 FFF7FEFF 		bl	ADC_MultiModeDMARequestAfterLastTransferCmd
 795              	.LVL45:
 796              		.loc 1 418 0
 797 01dc 4FF44021 		mov	r1, #786432
 798 01e0 6D48     		ldr	r0, .L36+36
ARM GAS  C:\Users\IDONNO~1\AppData\Local\Temp\ccm1q34l.s 			page 15


 799 01e2 FFF7FEFF 		bl	ADC_ExternalTrigInjectedConvConfig
 800              	.LVL46:
 801              		.loc 1 419 0
 802 01e6 4FF45021 		mov	r1, #851968
 803 01ea 6C48     		ldr	r0, .L36+40
 804 01ec FFF7FEFF 		bl	ADC_ExternalTrigInjectedConvConfig
 805              	.LVL47:
 806              		.loc 1 420 0
 807 01f0 4FF40011 		mov	r1, #2097152
 808 01f4 6848     		ldr	r0, .L36+36
 809 01f6 FFF7FEFF 		bl	ADC_ExternalTrigInjectedConvEdgeConfig
 810              	.LVL48:
 811              		.loc 1 421 0
 812 01fa 4FF40011 		mov	r1, #2097152
 813 01fe 6748     		ldr	r0, .L36+40
 814 0200 FFF7FEFF 		bl	ADC_ExternalTrigInjectedConvEdgeConfig
 815              	.LVL49:
 816              		.loc 1 422 0
 817 0204 2946     		mov	r1, r5
 818 0206 6448     		ldr	r0, .L36+36
 819 0208 FFF7FEFF 		bl	ADC_InjectedSequencerLengthConfig
 820              	.LVL50:
 821              		.loc 1 423 0
 822 020c 2946     		mov	r1, r5
 823 020e 6348     		ldr	r0, .L36+40
 824 0210 FFF7FEFF 		bl	ADC_InjectedSequencerLengthConfig
 825              	.LVL51:
 826              		.loc 1 426 0
 827 0214 40F20741 		movw	r1, #1031
 828 0218 2A46     		mov	r2, r5
 829 021a 5F48     		ldr	r0, .L36+36
 830 021c FFF7FEFF 		bl	ADC_ITConfig
 831              	.LVL52:
 832              		.loc 1 428 0
 833 0220 0323     		movs	r3, #3
 834              		.loc 1 427 0
 835 0222 1222     		movs	r2, #18
 836              		.loc 1 431 0
 837 0224 6846     		mov	r0, sp
 838              		.loc 1 427 0
 839 0226 8DF80020 		strb	r2, [sp]
 840              		.loc 1 428 0
 841 022a 8DF80130 		strb	r3, [sp, #1]
 842              		.loc 1 429 0
 843 022e 8DF80230 		strb	r3, [sp, #2]
 844              		.loc 1 430 0
 845 0232 8DF80350 		strb	r5, [sp, #3]
 846              		.loc 1 431 0
 847 0236 FFF7FEFF 		bl	NVIC_Init
 848              	.LVL53:
 849              		.loc 1 434 0
 850 023a 2946     		mov	r1, r5
 851 023c 5648     		ldr	r0, .L36+36
 852 023e FFF7FEFF 		bl	ADC_Cmd
 853              	.LVL54:
 854              		.loc 1 437 0
 855 0242 2946     		mov	r1, r5
ARM GAS  C:\Users\IDONNO~1\AppData\Local\Temp\ccm1q34l.s 			page 16


 856 0244 5548     		ldr	r0, .L36+40
 857 0246 FFF7FEFF 		bl	ADC_Cmd
 858              	.LVL55:
 859              		.loc 1 440 0
 860 024a 2946     		mov	r1, r5
 861 024c 5448     		ldr	r0, .L36+44
 862 024e FFF7FEFF 		bl	ADC_Cmd
 863              	.LVL56:
 864              		.loc 1 444 0
 865 0252 2946     		mov	r1, r5
 866 0254 0220     		movs	r0, #2
 867 0256 FFF7FEFF 		bl	RCC_APB2PeriphClockCmd
 868              	.LVL57:
 869              		.loc 1 452 0
 870 025a 0DEB0901 		add	r1, sp, r9
 871 025e 3846     		mov	r0, r7
 872              		.loc 1 448 0
 873 0260 DBF80020 		ldr	r2, [fp]
 874              		.loc 1 446 0
 875 0264 ADF80440 		strh	r4, [sp, #4]	@ movhi
 876              		.loc 1 447 0
 877 0268 ADF80640 		strh	r4, [sp, #6]	@ movhi
 878              		.loc 1 449 0
 879 026c ADF80C40 		strh	r4, [sp, #12]	@ movhi
 880              		.loc 1 450 0
 881 0270 8DF80E40 		strb	r4, [sp, #14]
 882              		.loc 1 448 0
 883 0274 4B4B     		ldr	r3, .L36+48
 884 0276 93FBF2F3 		sdiv	r3, r3, r2
 885 027a 0293     		str	r3, [sp, #8]
 886              		.loc 1 452 0
 887 027c FFF7FEFF 		bl	TIM_TimeBaseInit
 888              	.LVL58:
 889              		.loc 1 454 0
 890 0280 4FF06002 		mov	r2, #96	@ movhi
 891              		.loc 1 456 0
 892 0284 F36A     		ldr	r3, [r6, #44]
 893              		.loc 1 454 0
 894 0286 ADF83020 		strh	r2, [sp, #48]	@ movhi
 895              		.loc 1 461 0
 896 028a 0CA9     		add	r1, sp, #48
 897              		.loc 1 460 0
 898 028c 4FF40072 		mov	r2, #512	@ movhi
 899              		.loc 1 461 0
 900 0290 3846     		mov	r0, r7
 901              		.loc 1 460 0
 902 0292 ADF84220 		strh	r2, [sp, #66]	@ movhi
 903              		.loc 1 456 0
 904 0296 0E93     		str	r3, [sp, #56]
 905              		.loc 1 455 0
 906 0298 ADF83250 		strh	r5, [sp, #50]	@ movhi
 907              		.loc 1 457 0
 908 029c ADF83C40 		strh	r4, [sp, #60]	@ movhi
 909              		.loc 1 458 0
 910 02a0 ADF83E40 		strh	r4, [sp, #62]	@ movhi
 911              		.loc 1 459 0
 912 02a4 ADF84080 		strh	r8, [sp, #64]	@ movhi
ARM GAS  C:\Users\IDONNO~1\AppData\Local\Temp\ccm1q34l.s 			page 17


 913              		.loc 1 461 0
 914 02a8 FFF7FEFF 		bl	TIM_OC1Init
 915              	.LVL59:
 916 02ac 3846     		mov	r0, r7
 917 02ae 0821     		movs	r1, #8
 918 02b0 FFF7FEFF 		bl	TIM_OC1PreloadConfig
 919              	.LVL60:
 920              		.loc 1 462 0
 921 02b4 0CA9     		add	r1, sp, #48
 922 02b6 3846     		mov	r0, r7
 923 02b8 FFF7FEFF 		bl	TIM_OC2Init
 924              	.LVL61:
 925 02bc 3846     		mov	r0, r7
 926 02be 0821     		movs	r1, #8
 927 02c0 FFF7FEFF 		bl	TIM_OC2PreloadConfig
 928              	.LVL62:
 929              		.loc 1 463 0
 930 02c4 0CA9     		add	r1, sp, #48
 931 02c6 3846     		mov	r0, r7
 932 02c8 FFF7FEFF 		bl	TIM_OC3Init
 933              	.LVL63:
 934 02cc 3846     		mov	r0, r7
 935 02ce 0821     		movs	r1, #8
 936 02d0 FFF7FEFF 		bl	TIM_OC3PreloadConfig
 937              	.LVL64:
 938              		.loc 1 465 0
 939 02d4 2946     		mov	r1, r5
 940 02d6 3846     		mov	r0, r7
 941 02d8 FFF7FEFF 		bl	TIM_ARRPreloadConfig
 942              	.LVL65:
 943              		.loc 1 466 0
 944 02dc 2946     		mov	r1, r5
 945 02de 3846     		mov	r0, r7
 946 02e0 FFF7FEFF 		bl	TIM_CCPreloadControl
 947              	.LVL66:
 948              		.loc 1 469 0
 949 02e4 2946     		mov	r1, r5
 950 02e6 3846     		mov	r0, r7
 951 02e8 FFF7FEFF 		bl	TIM_CtrlPWMOutputs
 952              	.LVL67:
 953              		.loc 1 472 0
 954 02ec 2021     		movs	r1, #32
 955 02ee 3046     		mov	r0, r6
 956 02f0 FFF7FEFF 		bl	TIM_SelectOutputTrigger
 957              	.LVL68:
 958              		.loc 1 473 0
 959 02f4 3046     		mov	r0, r6
 960 02f6 8021     		movs	r1, #128
 961 02f8 FFF7FEFF 		bl	TIM_SelectMasterSlaveMode
 962              	.LVL69:
 963              		.loc 1 474 0
 964 02fc 2146     		mov	r1, r4
 965 02fe 3846     		mov	r0, r7
 966 0300 FFF7FEFF 		bl	TIM_SelectInputTrigger
 967              	.LVL70:
 968              		.loc 1 475 0
 969 0304 4946     		mov	r1, r9
ARM GAS  C:\Users\IDONNO~1\AppData\Local\Temp\ccm1q34l.s 			page 18


 970 0306 3846     		mov	r0, r7
 971 0308 FFF7FEFF 		bl	TIM_SelectSlaveMode
 972              	.LVL71:
 973              		.loc 1 478 0
 974 030c 2946     		mov	r1, r5
 975 030e 3846     		mov	r0, r7
 976 0310 FFF7FEFF 		bl	TIM_Cmd
 977              	.LVL72:
 978              		.loc 1 481 0
 979 0314 2946     		mov	r1, r5
 980 0316 3046     		mov	r0, r6
 981 0318 FFF7FEFF 		bl	TIM_Cmd
 982              	.LVL73:
 983              		.loc 1 484 0
 984 031c 2946     		mov	r1, r5
 985 031e 3046     		mov	r0, r6
 986 0320 FFF7FEFF 		bl	TIM_CtrlPWMOutputs
 987              	.LVL74:
 988              		.loc 1 487 0
 989 0324 2946     		mov	r1, r5
 990 0326 2846     		mov	r0, r5
 991 0328 FFF7FEFF 		bl	RCC_APB1PeriphClockCmd
 992              	.LVL75:
 993              		.loc 1 491 0
 994 032c 4FF0FF32 		mov	r2, #-1
 995              		.loc 1 492 0
 996 0330 5323     		movs	r3, #83
 997              		.loc 1 495 0
 998 0332 0DEB0901 		add	r1, sp, r9
 999 0336 4FF08040 		mov	r0, #1073741824
 1000              		.loc 1 491 0
 1001 033a 0292     		str	r2, [sp, #8]
 1002              		.loc 1 492 0
 1003 033c ADF80430 		strh	r3, [sp, #4]	@ movhi
 1004              		.loc 1 493 0
 1005 0340 ADF80C40 		strh	r4, [sp, #12]	@ movhi
 1006              		.loc 1 494 0
 1007 0344 ADF80640 		strh	r4, [sp, #6]	@ movhi
 1008              		.loc 1 495 0
 1009 0348 FFF7FEFF 		bl	TIM_TimeBaseInit
 1010              	.LVL76:
 1011              		.loc 1 498 0
 1012 034c 2946     		mov	r1, r5
 1013 034e 4FF08040 		mov	r0, #1073741824
 1014 0352 FFF7FEFF 		bl	TIM_Cmd
 1015              	.LVL77:
 1016              		.loc 1 503 0
 1017 0356 FFF7FEFF 		bl	utils_sys_lock_cnt
 1018              	.LVL78:
 1019              		.loc 1 506 0
 1020 035a 3368     		ldr	r3, [r6]
 1021 035c 43F00203 		orr	r3, r3, #2
 1022 0360 3360     		str	r3, [r6]
 1023              		.loc 1 507 0
 1024 0362 3B68     		ldr	r3, [r7]
 1025              		.loc 1 509 0
 1026 0364 4FF4FA72 		mov	r2, #500
ARM GAS  C:\Users\IDONNO~1\AppData\Local\Temp\ccm1q34l.s 			page 19


 1027              		.loc 1 507 0
 1028 0368 43F00203 		orr	r3, r3, #2
 1029 036c 3B60     		str	r3, [r7]
 1030              		.loc 1 509 0
 1031 036e 7A63     		str	r2, [r7, #52]
 1032 0370 20E0     		b	.L37
 1033              	.L38:
 1034 0372 00BF     		.align	2
 1035              	.L36:
 1036 0374 00000000 		.word	.LANCHOR11
 1037 0378 00000140 		.word	1073807360
 1038 037c 00040140 		.word	1073808384
 1039 0380 00000000 		.word	.LANCHOR12
 1040 0384 00BD0105 		.word	84000000
 1041 0388 05004000 		.word	4194309
 1042 038c 00000000 		.word	mcpwm_adc_int_handler
 1043 0390 90000000 		.word	_stm32_dma_streams+144
 1044 0394 70640240 		.word	1073898608
 1045 0398 00200140 		.word	1073815552
 1046 039c 00210140 		.word	1073815808
 1047 03a0 00220140 		.word	1073816064
 1048 03a4 007A030A 		.word	168000000
 1049 03a8 00000000 		.word	.LANCHOR13
 1050 03ac 00000000 		.word	.LANCHOR3
 1051 03b0 08230140 		.word	1073816328
 1052              	.L37:
 1053              		.loc 1 510 0
 1054 03b4 F36A     		ldr	r3, [r6, #44]
 1055 03b6 BB63     		str	r3, [r7, #56]
 1056              		.loc 1 511 0
 1057 03b8 F36A     		ldr	r3, [r6, #44]
 1058 03ba FB63     		str	r3, [r7, #60]
 1059              		.loc 1 514 0
 1060 03bc 3368     		ldr	r3, [r6]
 1061 03be 23F00203 		bic	r3, r3, #2
 1062 03c2 3360     		str	r3, [r6]
 1063              		.loc 1 515 0
 1064 03c4 3B68     		ldr	r3, [r7]
 1065 03c6 23F00203 		bic	r3, r3, #2
 1066 03ca 3B60     		str	r3, [r7]
 1067              		.loc 1 517 0
 1068 03cc FFF7FEFF 		bl	utils_sys_unlock_cnt
 1069              	.LVL79:
 1070              		.loc 1 521 0
 1071 03d0 2E4B     		ldr	r3, .L39
 1072              	.LBB34:
 1073              	.LBB35:
 1074              		.loc 1 579 0
 1075 03d2 2F4A     		ldr	r2, .L39+4
 1076              	.LBE35:
 1077              	.LBE34:
 1078              		.loc 1 522 0
 1079 03d4 8021     		movs	r1, #128
 1080              		.loc 1 521 0
 1081 03d6 4020     		movs	r0, #64
 1082 03d8 1883     		strh	r0, [r3, #24]	@ movhi
 1083              		.loc 1 522 0
ARM GAS  C:\Users\IDONNO~1\AppData\Local\Temp\ccm1q34l.s 			page 20


 1084 03da 5983     		strh	r1, [r3, #26]	@ movhi
 1085              		.loc 1 523 0
 1086 03dc A3F81A80 		strh	r8, [r3, #26]	@ movhi
 1087              	.LBB38:
 1088              	.LBB36:
 1089              		.loc 1 578 0
 1090 03e0 1983     		strh	r1, [r3, #24]	@ movhi
 1091              	.L30:
 1092              		.loc 1 579 0
 1093 03e2 1369     		ldr	r3, [r2, #16]
 1094 03e4 DB04     		lsls	r3, r3, #19
 1095 03e6 FCD5     		bpl	.L30
 1096              		.loc 1 580 0
 1097 03e8 42F21070 		movw	r0, #10000
 1098 03ec FFF7FEFF 		bl	chThdSleep
 1099              	.LVL80:
 1100              		.loc 1 581 0
 1101 03f0 284C     		ldr	r4, .L39+8
 1102              		.loc 1 582 0
 1103 03f2 2948     		ldr	r0, .L39+12
 1104              		.loc 1 583 0
 1105 03f4 2949     		ldr	r1, .L39+16
 1106              		.loc 1 581 0
 1107 03f6 0023     		movs	r3, #0
 1108 03f8 2360     		str	r3, [r4]
 1109              		.loc 1 582 0
 1110 03fa 0360     		str	r3, [r0]
 1111              		.loc 1 583 0
 1112 03fc 0B60     		str	r3, [r1]
 1113              	.L31:
 1114              		.loc 1 584 0
 1115 03fe 0B68     		ldr	r3, [r1]
 1116 0400 264A     		ldr	r2, .L39+16
 1117 0402 B3F57A6F 		cmp	r3, #4000
 1118 0406 FADB     		blt	.L31
 1119              		.loc 1 585 0
 1120 0408 254D     		ldr	r5, .L39+20
 1121              		.loc 1 586 0
 1122 040a 2649     		ldr	r1, .L39+24
 1123              		.loc 1 585 0
 1124 040c 2368     		ldr	r3, [r4]
 1125 040e 1468     		ldr	r4, [r2]
 1126 0410 93FBF4F3 		sdiv	r3, r3, r4
 1127              		.loc 1 587 0
 1128 0414 1D4C     		ldr	r4, .L39
 1129              		.loc 1 585 0
 1130 0416 2B60     		str	r3, [r5]
 1131              		.loc 1 586 0
 1132 0418 0368     		ldr	r3, [r0]
 1133 041a 1268     		ldr	r2, [r2]
 1134 041c 93FBF2F3 		sdiv	r3, r3, r2
 1135              		.loc 1 588 0
 1136 0420 0125     		movs	r5, #1
 1137              		.loc 1 586 0
 1138 0422 0B60     		str	r3, [r1]
 1139              		.loc 1 587 0
 1140 0424 8026     		movs	r6, #128
ARM GAS  C:\Users\IDONNO~1\AppData\Local\Temp\ccm1q34l.s 			page 21


 1141              		.loc 1 588 0
 1142 0426 204B     		ldr	r3, .L39+28
 1143              		.loc 1 587 0
 1144 0428 6683     		strh	r6, [r4, #26]	@ movhi
 1145              	.LBE36:
 1146              	.LBE38:
 1147              		.loc 1 528 0
 1148 042a 2946     		mov	r1, r5
 1149 042c 4020     		movs	r0, #64
 1150              		.loc 1 534 0
 1151 042e 0024     		movs	r4, #0
 1152              	.LBB39:
 1153              	.LBB37:
 1154              		.loc 1 588 0
 1155 0430 1D70     		strb	r5, [r3]
 1156              	.LBE37:
 1157              	.LBE39:
 1158              		.loc 1 528 0
 1159 0432 FFF7FEFF 		bl	RCC_APB1PeriphClockCmd
 1160              	.LVL81:
 1161              		.loc 1 532 0
 1162 0436 4FF0FF32 		mov	r2, #-1
 1163              		.loc 1 533 0
 1164 043a 0723     		movs	r3, #7
 1165              		.loc 1 536 0
 1166 043c 01A9     		add	r1, sp, #4
 1167 043e 1B48     		ldr	r0, .L39+32
 1168              		.loc 1 532 0
 1169 0440 0292     		str	r2, [sp, #8]
 1170              		.loc 1 533 0
 1171 0442 ADF80430 		strh	r3, [sp, #4]	@ movhi
 1172              		.loc 1 534 0
 1173 0446 ADF80C40 		strh	r4, [sp, #12]	@ movhi
 1174              		.loc 1 535 0
 1175 044a ADF80640 		strh	r4, [sp, #6]	@ movhi
 1176              		.loc 1 536 0
 1177 044e FFF7FEFF 		bl	TIM_TimeBaseInit
 1178              	.LVL82:
 1179              		.loc 1 539 0
 1180 0452 2946     		mov	r1, r5
 1181 0454 1548     		ldr	r0, .L39+32
 1182 0456 FFF7FEFF 		bl	TIM_Cmd
 1183              	.LVL83:
 1184              		.loc 1 545 0
 1185 045a 2946     		mov	r1, r5
 1186 045c 4FF40060 		mov	r0, #2048
 1187 0460 FFF7FEFF 		bl	RCC_APB1PeriphClockCmd
 1188              	.LVL84:
 1189              		.loc 1 546 0
 1190 0464 2046     		mov	r0, r4
 1191 0466 FFF7FEFF 		bl	WWDG_SetPrescaler
 1192              	.LVL85:
 1193              		.loc 1 547 0
 1194 046a FF20     		movs	r0, #255
 1195 046c FFF7FEFF 		bl	WWDG_SetWindowValue
 1196              	.LVL86:
 1197              		.loc 1 548 0
ARM GAS  C:\Users\IDONNO~1\AppData\Local\Temp\ccm1q34l.s 			page 22


 1198 0470 6420     		movs	r0, #100
 1199 0472 FFF7FEFF 		bl	WWDG_Enable
 1200              	.LVL87:
 1201              		.loc 1 553 0
 1202 0476 FFF7FEFF 		bl	SetupControlParameters
 1203              	.LVL88:
 1204              		.loc 1 555 0
 1205 047a 0D4B     		ldr	r3, .L39+36
 1206              		.loc 1 564 0
 1207 047c 0222     		movs	r2, #2
 1208              		.loc 1 555 0
 1209 047e 1C80     		strh	r4, [r3]	@ movhi
 1210              		.loc 1 564 0
 1211 0480 1A70     		strb	r2, [r3]
 1212              		.loc 1 566 0
 1213 0482 FFF7FEFF 		bl	spi_dac_hw_init
 1214              	.LVL89:
 1215              		.loc 1 568 0
 1216 0486 27B0     		add	sp, sp, #156
 1217              		.cfi_def_cfa_offset 36
 1218              		@ sp needed
 1219 0488 BDE8F08F 		pop	{r4, r5, r6, r7, r8, r9, r10, fp, pc}
 1220              	.L40:
 1221              		.align	2
 1222              	.L39:
 1223 048c 00080240 		.word	1073874944
 1224 0490 00040240 		.word	1073873920
 1225 0494 00000000 		.word	.LANCHOR14
 1226 0498 00000000 		.word	.LANCHOR15
 1227 049c 00000000 		.word	.LANCHOR16
 1228 04a0 00000000 		.word	.LANCHOR1
 1229 04a4 00000000 		.word	.LANCHOR2
 1230 04a8 00000000 		.word	.LANCHOR12
 1231 04ac 00180040 		.word	1073747968
 1232 04b0 00000000 		.word	.LANCHOR17
 1233              		.cfi_endproc
 1234              	.LFE257:
 1235              		.size	mcpwm_init, .-mcpwm_init
 1236              		.section	.text.VoltRippleComp,"ax",%progbits
 1237              		.align	2
 1238              		.p2align 4,,15
 1239              		.global	VoltRippleComp
 1240              		.thumb
 1241              		.thumb_func
 1242              		.type	VoltRippleComp, %function
 1243              	VoltRippleComp:
 1244              	.LFB267:
 1245              		.loc 1 865 0
 1246              		.cfi_startproc
 1247              		@ args = 0, pretend = 0, frame = 0
 1248              		@ frame_needed = 0, uses_anonymous_args = 0
 1249              		@ link register save eliminated.
 1250              	.LVL90:
 1251              		.loc 1 886 0
 1252 0000 144A     		ldr	r2, .L50
 1253 0002 154B     		ldr	r3, .L50+4
 1254 0004 92ED007A 		vldr.32	s14, [r2]
ARM GAS  C:\Users\IDONNO~1\AppData\Local\Temp\ccm1q34l.s 			page 23


 1255 0008 D3ED007A 		vldr.32	s15, [r3]
 1256 000c B4EEE77A 		vcmpe.f32	s14, s15
 1257 0010 F1EE10FA 		vmrs	APSR_nzcv, FPSCR
 1258 0014 11DC     		bgt	.L49
 1259              		.loc 1 888 0
 1260 0016 93ED007A 		vldr.32	s14, [r3]
 1261 001a D2ED007A 		vldr.32	s15, [r2]
 1262 001e B4EEE77A 		vcmpe.f32	s14, s15
 1263 0022 F1EE10FA 		vmrs	APSR_nzcv, FPSCR
 1264 0026 07DD     		ble	.L44
 1265              	.LVL91:
 1266              	.LBB42:
 1267              	.LBB43:
 1268              		.loc 1 889 0
 1269 0028 D2ED006A 		vldr.32	s13, [r2]
 1270 002c 93ED007A 		vldr.32	s14, [r3]
 1271 0030 C6EE877A 		vdiv.f32	s15, s13, s14
 1272 0034 20EE270A 		vmul.f32	s0, s0, s15
 1273              	.LVL92:
 1274              	.L44:
 1275              	.LBE43:
 1276              	.LBE42:
 1277              		.loc 1 894 0
 1278 0038 7047     		bx	lr
 1279              	.LVL93:
 1280              	.L49:
 1281              		.loc 1 887 0
 1282 003a D2ED007A 		vldr.32	s15, [r2]
 1283 003e 93ED007A 		vldr.32	s14, [r3]
 1284 0042 D3ED006A 		vldr.32	s13, [r3]
 1285 0046 77EEC77A 		vsub.f32	s15, s15, s14
 1286 004a 87EEA67A 		vdiv.f32	s14, s15, s13
 1287 004e A7EE000A 		vfma.f32	s0, s14, s0
 1288              	.LVL94:
 1289 0052 7047     		bx	lr
 1290              	.L51:
 1291              		.align	2
 1292              	.L50:
 1293 0054 00000000 		.word	.LANCHOR4
 1294 0058 00000000 		.word	.LANCHOR18
 1295              		.cfi_endproc
 1296              	.LFE267:
 1297              		.size	VoltRippleComp, .-VoltRippleComp
 1298              		.section	.text.DoControl,"ax",%progbits
 1299              		.align	2
 1300              		.p2align 4,,15
 1301              		.global	DoControl
 1302              		.thumb
 1303              		.thumb_func
 1304              		.type	DoControl, %function
 1305              	DoControl:
 1306              	.LFB263:
 1307              		.loc 1 735 0
 1308              		.cfi_startproc
 1309              		@ args = 0, pretend = 0, frame = 0
 1310              		@ frame_needed = 0, uses_anonymous_args = 0
 1311 0000 F8B5     		push	{r3, r4, r5, r6, r7, lr}
ARM GAS  C:\Users\IDONNO~1\AppData\Local\Temp\ccm1q34l.s 			page 24


 1312              		.cfi_def_cfa_offset 24
 1313              		.cfi_offset 3, -24
 1314              		.cfi_offset 4, -20
 1315              		.cfi_offset 5, -16
 1316              		.cfi_offset 6, -12
 1317              		.cfi_offset 7, -8
 1318              		.cfi_offset 14, -4
 1319              		.loc 1 737 0
 1320 0002 374C     		ldr	r4, .L74
 1321 0004 2378     		ldrb	r3, [r4]	@ zero_extendqisi2
 1322 0006 DD07     		lsls	r5, r3, #31
 1323 0008 4AD4     		bmi	.L52
 1324              		.loc 1 744 0
 1325 000a 364A     		ldr	r2, .L74+4
 1326              		.loc 1 747 0
 1327 000c 364F     		ldr	r7, .L74+8
 1328              		.loc 1 744 0
 1329 000e 1288     		ldrh	r2, [r2]
 1330 0010 002A     		cmp	r2, #0
 1331 0012 46D0     		beq	.L69
 1332 0014 354D     		ldr	r5, .L74+12
 1333              	.L55:
 1334              		.loc 1 759 0
 1335 0016 364E     		ldr	r6, .L74+16
 1336              		.loc 1 760 0
 1337 0018 6A68     		ldr	r2, [r5, #4]	@ float
 1338              		.loc 1 759 0
 1339 001a F169     		ldr	r1, [r6, #28]	@ float
 1340              		.loc 1 753 0
 1341 001c 5807     		lsls	r0, r3, #29
 1342              		.loc 1 754 0
 1343 001e 44BF     		itt	mi
 1344 0020 2B68     		ldrmi	r3, [r5]	@ float
 1345 0022 AB60     		strmi	r3, [r5, #8]	@ float
 1346              		.loc 1 759 0
 1347 0024 334B     		ldr	r3, .L74+20
 1348              		.loc 1 761 0
 1349 0026 1846     		mov	r0, r3
 1350              		.loc 1 759 0
 1351 0028 D961     		str	r1, [r3, #28]	@ float
 1352              		.loc 1 760 0
 1353 002a 9A61     		str	r2, [r3, #24]	@ float
 1354              		.loc 1 761 0
 1355 002c FFF7FEFF 		bl	CalcPI
 1356              	.LVL95:
 1357              		.loc 1 763 0
 1358 0030 2278     		ldrb	r2, [r4]	@ zero_extendqisi2
 1359              		.loc 1 764 0
 1360 0032 93ED080A 		vldr.32	s0, [r3, #32]
 1361              		.loc 1 763 0
 1362 0036 1107     		lsls	r1, r2, #28
 1363 0038 47D4     		bmi	.L71
 1364              		.loc 1 766 0
 1365 003a 86ED090A 		vstr.32	s0, [r6, #36]
 1366              	.L58:
 1367              		.loc 1 768 0
 1368 003e 20EE000A 		vmul.f32	s0, s0, s0
ARM GAS  C:\Users\IDONNO~1\AppData\Local\Temp\ccm1q34l.s 			page 25


 1369 0042 2D4B     		ldr	r3, .L74+24
 1370              		.loc 1 769 0
 1371 0044 DFED2D7A 		vldr.32	s15, .L74+28
 1372              		.loc 1 768 0
 1373 0048 83ED000A 		vstr.32	s0, [r3]
 1374              		.loc 1 769 0
 1375 004c 93ED000A 		vldr.32	s0, [r3]
 1376 0050 37EEC00A 		vsub.f32	s0, s15, s0
 1377 0054 F1EEC07A 		vsqrt.f32	s15, s0
 1378 0058 F4EE677A 		vcmp.f32	s15, s15
 1379 005c F1EE10FA 		vmrs	APSR_nzcv, FPSCR
 1380 0060 38D1     		bne	.L72
 1381              	.L59:
 1382 0062 274B     		ldr	r3, .L74+32
 1383              		.loc 1 773 0
 1384 0064 316A     		ldr	r1, [r6, #32]	@ float
 1385              		.loc 1 774 0
 1386 0066 AA68     		ldr	r2, [r5, #8]	@ float
 1387              		.loc 1 773 0
 1388 0068 D961     		str	r1, [r3, #28]	@ float
 1389              		.loc 1 770 0
 1390 006a B1EE677A 		vneg.f32	s14, s15
 1391              		.loc 1 775 0
 1392 006e 1846     		mov	r0, r3
 1393              		.loc 1 774 0
 1394 0070 9A61     		str	r2, [r3, #24]	@ float
 1395              		.loc 1 769 0
 1396 0072 C3ED047A 		vstr.32	s15, [r3, #16]
 1397              		.loc 1 770 0
 1398 0076 83ED057A 		vstr.32	s14, [r3, #20]
 1399              		.loc 1 775 0
 1400 007a FFF7FEFF 		bl	CalcPI
 1401              	.LVL96:
 1402              		.loc 1 779 0
 1403 007e 2278     		ldrb	r2, [r4]	@ zero_extendqisi2
 1404              		.loc 1 773 0
 1405 0080 1B49     		ldr	r1, .L74+16
 1406              		.loc 1 779 0
 1407 0082 1207     		lsls	r2, r2, #28
 1408 0084 1AD4     		bmi	.L73
 1409              		.loc 1 782 0
 1410 0086 1B6A     		ldr	r3, [r3, #32]	@ float
 1411 0088 8B62     		str	r3, [r1, #40]	@ float
 1412              	.L61:
 1413              		.loc 1 785 0
 1414 008a D7ED187A 		vldr.32	s15, [r7, #96]
 1415 008e F5EEC07A 		vcmpe.f32	s15, #0
 1416 0092 F1EE10FA 		vmrs	APSR_nzcv, FPSCR
 1417 0096 03D5     		bpl	.L52
 1418              		.loc 1 787 0
 1419 0098 2378     		ldrb	r3, [r4]	@ zero_extendqisi2
 1420 009a 6FF34103 		bfc	r3, #1, #1
 1421 009e 2370     		strb	r3, [r4]
 1422              	.L52:
 1423 00a0 F8BD     		pop	{r3, r4, r5, r6, r7, pc}
 1424              	.L69:
 1425              		.loc 1 747 0
ARM GAS  C:\Users\IDONNO~1\AppData\Local\Temp\ccm1q34l.s 			page 26


 1426 00a2 184B     		ldr	r3, .L74+36
 1427              		.loc 1 748 0
 1428 00a4 184A     		ldr	r2, .L74+40
 1429              		.loc 1 747 0
 1430 00a6 F96D     		ldr	r1, [r7, #92]	@ float
 1431              		.loc 1 748 0
 1432 00a8 9A61     		str	r2, [r3, #24]	@ float
 1433              		.loc 1 749 0
 1434 00aa 1846     		mov	r0, r3
 1435              		.loc 1 747 0
 1436 00ac D961     		str	r1, [r3, #28]	@ float
 1437              		.loc 1 749 0
 1438 00ae FFF7FEFF 		bl	CalcPI
 1439              	.LVL97:
 1440              		.loc 1 750 0
 1441 00b2 0E4D     		ldr	r5, .L74+12
 1442 00b4 1A6A     		ldr	r2, [r3, #32]	@ float
 1443 00b6 AA60     		str	r2, [r5, #8]	@ float
 1444 00b8 2378     		ldrb	r3, [r4]	@ zero_extendqisi2
 1445 00ba ACE7     		b	.L55
 1446              	.L73:
 1447              		.loc 1 780 0
 1448 00bc 93ED080A 		vldr.32	s0, [r3, #32]
 1449 00c0 FFF7FEFF 		bl	VoltRippleComp
 1450              	.LVL98:
 1451 00c4 81ED0A0A 		vstr.32	s0, [r1, #40]
 1452 00c8 DFE7     		b	.L61
 1453              	.L71:
 1454              		.loc 1 764 0
 1455 00ca FFF7FEFF 		bl	VoltRippleComp
 1456              	.LVL99:
 1457 00ce 86ED090A 		vstr.32	s0, [r6, #36]
 1458 00d2 B4E7     		b	.L58
 1459              	.L72:
 1460              		.loc 1 769 0
 1461 00d4 FFF7FEFF 		bl	sqrtf
 1462              	.LVL100:
 1463 00d8 F0EE407A 		vmov.f32	s15, s0
 1464 00dc C1E7     		b	.L59
 1465              	.L75:
 1466 00de 00BF     		.align	2
 1467              	.L74:
 1468 00e0 00000000 		.word	.LANCHOR17
 1469 00e4 00000000 		.word	.LANCHOR19
 1470 00e8 00000000 		.word	.LANCHOR20
 1471 00ec 00000000 		.word	.LANCHOR21
 1472 00f0 00000000 		.word	.LANCHOR6
 1473 00f4 00000000 		.word	.LANCHOR7
 1474 00f8 00000000 		.word	.LANCHOR22
 1475 00fc 3D0A673F 		.word	1063717437
 1476 0100 00000000 		.word	.LANCHOR8
 1477 0104 00000000 		.word	.LANCHOR9
 1478 0108 0AD7233C 		.word	1008981770
 1479              		.cfi_endproc
 1480              	.LFE263:
 1481              		.size	DoControl, .-DoControl
 1482              		.section	.text.MeasCompCurr,"ax",%progbits
ARM GAS  C:\Users\IDONNO~1\AppData\Local\Temp\ccm1q34l.s 			page 27


 1483              		.align	2
 1484              		.p2align 4,,15
 1485              		.global	MeasCompCurr
 1486              		.thumb
 1487              		.thumb_func
 1488              		.type	MeasCompCurr, %function
 1489              	MeasCompCurr:
 1490              	.LFB268:
 1491              		.loc 1 896 0
 1492              		.cfi_startproc
 1493              		@ args = 0, pretend = 0, frame = 0
 1494              		@ frame_needed = 0, uses_anonymous_args = 0
 1495              		@ link register save eliminated.
 1496              	.LVL101:
 1497 0000 30B4     		push	{r4, r5}
 1498              		.cfi_def_cfa_offset 8
 1499              		.cfi_offset 4, -8
 1500              		.cfi_offset 5, -4
 1501              		.loc 1 899 0
 1502 0002 0F4C     		ldr	r4, .L78
 1503              		.loc 1 903 0
 1504 0004 0F4D     		ldr	r5, .L78+4
 1505              		.loc 1 899 0
 1506 0006 A288     		ldrh	r2, [r4, #4]
 1507              	.LVL102:
 1508              		.loc 1 900 0
 1509 0008 A389     		ldrh	r3, [r4, #12]
 1510              	.LVL103:
 1511              		.loc 1 903 0
 1512 000a 94ED006A 		vldr.32	s12, [r4]
 1513              		.loc 1 904 0
 1514 000e D4ED026A 		vldr.32	s13, [r4, #8]
 1515              		.loc 1 903 0
 1516 0012 12B2     		sxth	r2, r2
 1517 0014 801A     		subs	r0, r0, r2
 1518              	.LVL104:
 1519 0016 07EE900A 		vmov	s15, r0	@ int
 1520              		.loc 1 904 0
 1521 001a 1BB2     		sxth	r3, r3
 1522 001c C91A     		subs	r1, r1, r3
 1523              	.LVL105:
 1524              		.loc 1 903 0
 1525 001e B8EEE77A 		vcvt.f32.s32	s14, s15
 1526              		.loc 1 904 0
 1527 0022 07EE901A 		vmov	s15, r1	@ int
 1528 0026 F8EEE77A 		vcvt.f32.s32	s15, s15
 1529              		.loc 1 903 0
 1530 002a 27EE067A 		vmul.f32	s14, s14, s12
 1531              		.loc 1 904 0
 1532 002e 67EEA67A 		vmul.f32	s15, s15, s13
 1533              		.loc 1 903 0
 1534 0032 85ED037A 		vstr.32	s14, [r5, #12]
 1535              		.loc 1 904 0
 1536 0036 C5ED047A 		vstr.32	s15, [r5, #16]
 1537              		.loc 1 907 0
 1538 003a 30BC     		pop	{r4, r5}
 1539              		.cfi_restore 5
ARM GAS  C:\Users\IDONNO~1\AppData\Local\Temp\ccm1q34l.s 			page 28


 1540              		.cfi_restore 4
 1541              		.cfi_def_cfa_offset 0
 1542 003c 7047     		bx	lr
 1543              	.L79:
 1544 003e 00BF     		.align	2
 1545              	.L78:
 1546 0040 00000000 		.word	.LANCHOR0
 1547 0044 00000000 		.word	.LANCHOR6
 1548              		.cfi_endproc
 1549              	.LFE268:
 1550              		.size	MeasCompCurr, .-MeasCompCurr
 1551              		.section	.text.InitMeasCompCurr,"ax",%progbits
 1552              		.align	2
 1553              		.p2align 4,,15
 1554              		.global	InitMeasCompCurr
 1555              		.thumb
 1556              		.thumb_func
 1557              		.type	InitMeasCompCurr, %function
 1558              	InitMeasCompCurr:
 1559              	.LFB269:
 1560              		.loc 1 909 0
 1561              		.cfi_startproc
 1562              		@ args = 0, pretend = 0, frame = 0
 1563              		@ frame_needed = 0, uses_anonymous_args = 0
 1564              		@ link register save eliminated.
 1565              	.LVL106:
 1566              		.loc 1 910 0
 1567 0000 014B     		ldr	r3, .L81
 1568 0002 9880     		strh	r0, [r3, #4]	@ movhi
 1569              		.loc 1 911 0
 1570 0004 9981     		strh	r1, [r3, #12]	@ movhi
 1571 0006 7047     		bx	lr
 1572              	.L82:
 1573              		.align	2
 1574              	.L81:
 1575 0008 00000000 		.word	.LANCHOR0
 1576              		.cfi_endproc
 1577              	.LFE269:
 1578              		.size	InitMeasCompCurr, .-InitMeasCompCurr
 1579              		.section	.text.InvPark,"ax",%progbits
 1580              		.align	2
 1581              		.p2align 4,,15
 1582              		.global	InvPark
 1583              		.thumb
 1584              		.thumb_func
 1585              		.type	InvPark, %function
 1586              	InvPark:
 1587              	.LFB270:
 1588              		.loc 1 915 0
 1589              		.cfi_startproc
 1590              		@ args = 0, pretend = 0, frame = 0
 1591              		@ frame_needed = 0, uses_anonymous_args = 0
 1592 0000 10B5     		push	{r4, lr}
 1593              		.cfi_def_cfa_offset 8
 1594              		.cfi_offset 4, -8
 1595              		.cfi_offset 14, -4
 1596              		.loc 1 916 0
ARM GAS  C:\Users\IDONNO~1\AppData\Local\Temp\ccm1q34l.s 			page 29


 1597 0002 114C     		ldr	r4, .L85
 1598              		.loc 1 915 0
 1599 0004 2DED048B 		vpush.64	{d8, d9}
 1600              		.cfi_def_cfa_offset 24
 1601              		.cfi_offset 80, -24
 1602              		.cfi_offset 81, -20
 1603              		.cfi_offset 82, -16
 1604              		.cfi_offset 83, -12
 1605              		.loc 1 916 0
 1606 0008 94ED009A 		vldr.32	s18, [r4]
 1607 000c 94ED098A 		vldr.32	s16, [r4, #36]
 1608 0010 B0EE490A 		vmov.f32	s0, s18
 1609 0014 FFF7FEFF 		bl	cosf
 1610              	.LVL107:
 1611 0018 F0EE408A 		vmov.f32	s17, s0
 1612 001c B0EE490A 		vmov.f32	s0, s18
 1613 0020 FFF7FEFF 		bl	sinf
 1614              	.LVL108:
 1615 0024 D4ED0A7A 		vldr.32	s15, [r4, #40]
 1616 0028 20EE677A 		vnmul.f32	s14, s0, s15
 1617              		.loc 1 917 0
 1618 002c 68EEA77A 		vmul.f32	s15, s17, s15
 1619              		.loc 1 916 0
 1620 0030 A8EE287A 		vfma.f32	s14, s16, s17
 1621              		.loc 1 917 0
 1622 0034 E8EE007A 		vfma.f32	s15, s16, s0
 1623              		.loc 1 919 0
 1624 0038 BDEC048B 		vldm	sp!, {d8-d9}
 1625              		.cfi_restore 82
 1626              		.cfi_restore 83
 1627              		.cfi_restore 80
 1628              		.cfi_restore 81
 1629              		.cfi_def_cfa_offset 8
 1630              		.loc 1 916 0
 1631 003c 84ED0B7A 		vstr.32	s14, [r4, #44]
 1632              		.loc 1 917 0
 1633 0040 C4ED0C7A 		vstr.32	s15, [r4, #48]
 1634              		.loc 1 919 0
 1635 0044 10BD     		pop	{r4, pc}
 1636              	.L86:
 1637 0046 00BF     		.align	2
 1638              	.L85:
 1639 0048 00000000 		.word	.LANCHOR6
 1640              		.cfi_endproc
 1641              	.LFE270:
 1642              		.size	InvPark, .-InvPark
 1643              		.section	.text.CalcRefVec,"ax",%progbits
 1644              		.align	2
 1645              		.p2align 4,,15
 1646              		.global	CalcRefVec
 1647              		.thumb
 1648              		.thumb_func
 1649              		.type	CalcRefVec, %function
 1650              	CalcRefVec:
 1651              	.LFB271:
 1652              		.loc 1 921 0
 1653              		.cfi_startproc
ARM GAS  C:\Users\IDONNO~1\AppData\Local\Temp\ccm1q34l.s 			page 30


 1654              		@ args = 0, pretend = 0, frame = 0
 1655              		@ frame_needed = 0, uses_anonymous_args = 0
 1656              		@ link register save eliminated.
 1657              		.loc 1 926 0
 1658 0000 0E4B     		ldr	r3, .L88
 1659              		.loc 1 927 0
 1660 0002 9FED0F6A 		vldr.32	s12, .L88+4
 1661              		.loc 1 926 0
 1662 0006 D3ED0C6A 		vldr.32	s13, [r3, #48]
 1663              		.loc 1 927 0
 1664 000a D3ED0B5A 		vldr.32	s11, [r3, #44]
 1665              		.loc 1 926 0
 1666 000e 0D4B     		ldr	r3, .L88+8
 1667              		.loc 1 927 0
 1668 0010 F1EE667A 		vneg.f32	s15, s13
 1669 0014 B0EE677A 		vmov.f32	s14, s15
 1670 0018 A5EE867A 		vfma.f32	s14, s11, s12
 1671              		.loc 1 928 0
 1672 001c E5EEC67A 		vfms.f32	s15, s11, s12
 1673              		.loc 1 927 0
 1674 0020 B6EE006A 		vmov.f32	s12, #5.0e-1
 1675 0024 27EE067A 		vmul.f32	s14, s14, s12
 1676              		.loc 1 928 0
 1677 0028 67EE867A 		vmul.f32	s15, s15, s12
 1678              		.loc 1 926 0
 1679 002c C3ED016A 		vstr.32	s13, [r3, #4]
 1680              		.loc 1 927 0
 1681 0030 83ED027A 		vstr.32	s14, [r3, #8]
 1682              		.loc 1 928 0
 1683 0034 C3ED037A 		vstr.32	s15, [r3, #12]
 1684 0038 7047     		bx	lr
 1685              	.L89:
 1686 003a 00BF     		.align	2
 1687              	.L88:
 1688 003c 00000000 		.word	.LANCHOR6
 1689 0040 D7B3DD3F 		.word	1071494103
 1690 0044 00000000 		.word	.LANCHOR5
 1691              		.cfi_endproc
 1692              	.LFE271:
 1693              		.size	CalcRefVec, .-CalcRefVec
 1694              		.section	.text.CalcTimes,"ax",%progbits
 1695              		.align	2
 1696              		.p2align 4,,15
 1697              		.global	CalcTimes
 1698              		.thumb
 1699              		.thumb_func
 1700              		.type	CalcTimes, %function
 1701              	CalcTimes:
 1702              	.LFB272:
 1703              		.loc 1 933 0
 1704              		.cfi_startproc
 1705              		@ args = 0, pretend = 0, frame = 0
 1706              		@ frame_needed = 0, uses_anonymous_args = 0
 1707              		@ link register save eliminated.
 1708              		.loc 1 934 0
 1709 0000 184B     		ldr	r3, .L91
 1710 0002 194A     		ldr	r2, .L91+4
ARM GAS  C:\Users\IDONNO~1\AppData\Local\Temp\ccm1q34l.s 			page 31


 1711 0004 DB6A     		ldr	r3, [r3, #44]
 1712              		.loc 1 936 0
 1713 0006 92ED046A 		vldr.32	s12, [r2, #16]
 1714              		.loc 1 937 0
 1715 000a D2ED056A 		vldr.32	s13, [r2, #20]
 1716              		.loc 1 934 0
 1717 000e 1360     		str	r3, [r2]
 1718              		.loc 1 936 0
 1719 0010 07EE903A 		vmov	s15, r3	@ int
 1720 0014 F8EE677A 		vcvt.f32.u32	s15, s15
 1721              		.loc 1 938 0
 1722 0018 B6EE007A 		vmov.f32	s14, #5.0e-1
 1723              		.loc 1 936 0
 1724 001c 27EE866A 		vmul.f32	s12, s15, s12
 1725              		.loc 1 937 0
 1726 0020 67EEA66A 		vmul.f32	s13, s15, s13
 1727              		.loc 1 938 0
 1728 0024 77EEC67A 		vsub.f32	s15, s15, s12
 1729              		.loc 1 936 0
 1730 0028 82ED046A 		vstr.32	s12, [r2, #16]
 1731              		.loc 1 938 0
 1732 002c 77EEE67A 		vsub.f32	s15, s15, s13
 1733              		.loc 1 937 0
 1734 0030 C2ED056A 		vstr.32	s13, [r2, #20]
 1735              		.loc 1 938 0
 1736 0034 67EE877A 		vmul.f32	s15, s15, s14
 1737 0038 FCEEE77A 		vcvt.u32.f32	s15, s15
 1738              		.loc 1 939 0
 1739 003c B8EE677A 		vcvt.f32.u32	s14, s15
 1740              		.loc 1 938 0
 1741 0040 C2ED087A 		vstr.32	s15, [r2, #32]	@ int
 1742              		.loc 1 939 0
 1743 0044 77EE067A 		vadd.f32	s15, s14, s12
 1744 0048 FCEEE77A 		vcvt.u32.f32	s15, s15
 1745              		.loc 1 940 0
 1746 004c B8EE677A 		vcvt.f32.u32	s14, s15
 1747              		.loc 1 939 0
 1748 0050 C2ED077A 		vstr.32	s15, [r2, #28]	@ int
 1749              		.loc 1 940 0
 1750 0054 77EE267A 		vadd.f32	s15, s14, s13
 1751 0058 FCEEE77A 		vcvt.u32.f32	s15, s15
 1752 005c C2ED067A 		vstr.32	s15, [r2, #24]	@ int
 1753 0060 7047     		bx	lr
 1754              	.L92:
 1755 0062 00BF     		.align	2
 1756              	.L91:
 1757 0064 00000140 		.word	1073807360
 1758 0068 00000000 		.word	.LANCHOR5
 1759              		.cfi_endproc
 1760              	.LFE272:
 1761              		.size	CalcTimes, .-CalcTimes
 1762              		.section	.text.update_timer_Duty,"ax",%progbits
 1763              		.align	2
 1764              		.p2align 4,,15
 1765              		.global	update_timer_Duty
 1766              		.thumb
 1767              		.thumb_func
ARM GAS  C:\Users\IDONNO~1\AppData\Local\Temp\ccm1q34l.s 			page 32


 1768              		.type	update_timer_Duty, %function
 1769              	update_timer_Duty:
 1770              	.LFB273:
 1771              		.loc 1 945 0
 1772              		.cfi_startproc
 1773              		@ args = 0, pretend = 0, frame = 0
 1774              		@ frame_needed = 0, uses_anonymous_args = 0
 1775              	.LVL109:
 1776 0000 2DE9F041 		push	{r4, r5, r6, r7, r8, lr}
 1777              		.cfi_def_cfa_offset 24
 1778              		.cfi_offset 4, -24
 1779              		.cfi_offset 5, -20
 1780              		.cfi_offset 6, -16
 1781              		.cfi_offset 7, -12
 1782              		.cfi_offset 8, -8
 1783              		.cfi_offset 14, -4
 1784              		.loc 1 945 0
 1785 0004 1646     		mov	r6, r2
 1786 0006 8046     		mov	r8, r0
 1787 0008 0F46     		mov	r7, r1
 1788              		.loc 1 946 0
 1789 000a FFF7FEFF 		bl	utils_sys_lock_cnt
 1790              	.LVL110:
 1791              		.loc 1 949 0
 1792 000e 0D4B     		ldr	r3, .L95
 1793              		.loc 1 950 0
 1794 0010 0D4C     		ldr	r4, .L95+4
 1795              		.loc 1 949 0
 1796 0012 1D68     		ldr	r5, [r3]
 1797 0014 45F00205 		orr	r5, r5, #2
 1798 0018 1D60     		str	r5, [r3]
 1799              		.loc 1 950 0
 1800 001a 2568     		ldr	r5, [r4]
 1801 001c 45F00205 		orr	r5, r5, #2
 1802 0020 2560     		str	r5, [r4]
 1803              		.loc 1 952 0
 1804 0022 C3F83480 		str	r8, [r3, #52]
 1805              		.loc 1 953 0
 1806 0026 9F63     		str	r7, [r3, #56]
 1807              		.loc 1 954 0
 1808 0028 DE63     		str	r6, [r3, #60]
 1809              		.loc 1 964 0
 1810 002a 1A68     		ldr	r2, [r3]
 1811 002c 22F00202 		bic	r2, r2, #2
 1812 0030 1A60     		str	r2, [r3]
 1813              		.loc 1 965 0
 1814 0032 2368     		ldr	r3, [r4]
 1815 0034 23F00203 		bic	r3, r3, #2
 1816 0038 2360     		str	r3, [r4]
 1817              		.loc 1 968 0
 1818 003a BDE8F041 		pop	{r4, r5, r6, r7, r8, lr}
 1819              		.cfi_restore 14
 1820              		.cfi_restore 8
 1821              		.cfi_restore 7
 1822              		.cfi_restore 6
 1823              		.cfi_restore 5
 1824              		.cfi_restore 4
ARM GAS  C:\Users\IDONNO~1\AppData\Local\Temp\ccm1q34l.s 			page 33


 1825              		.cfi_def_cfa_offset 0
 1826              	.LVL111:
 1827              		.loc 1 967 0
 1828 003e FFF7FEBF 		b	utils_sys_unlock_cnt
 1829              	.LVL112:
 1830              	.L96:
 1831 0042 00BF     		.align	2
 1832              	.L95:
 1833 0044 00000140 		.word	1073807360
 1834 0048 00040140 		.word	1073808384
 1835              		.cfi_endproc
 1836              	.LFE273:
 1837              		.size	update_timer_Duty, .-update_timer_Duty
 1838              		.section	.text.CalcSVGen,"ax",%progbits
 1839              		.align	2
 1840              		.p2align 4,,15
 1841              		.global	CalcSVGen
 1842              		.thumb
 1843              		.thumb_func
 1844              		.type	CalcSVGen, %function
 1845              	CalcSVGen:
 1846              	.LFB274:
 1847              		.loc 1 970 0
 1848              		.cfi_startproc
 1849              		@ args = 0, pretend = 0, frame = 0
 1850              		@ frame_needed = 0, uses_anonymous_args = 0
 1851              		.loc 1 971 0
 1852 0000 3E48     		ldr	r0, .L120
 1853 0002 D0ED017A 		vldr.32	s15, [r0, #4]
 1854 0006 F5EEC07A 		vcmpe.f32	s15, #0
 1855 000a F1EE10FA 		vmrs	APSR_nzcv, FPSCR
 1856              		.loc 1 970 0
 1857 000e 08B5     		push	{r3, lr}
 1858              		.cfi_def_cfa_offset 8
 1859              		.cfi_offset 3, -8
 1860              		.cfi_offset 14, -4
 1861              		.loc 1 971 0
 1862 0010 26DB     		blt	.L113
 1863              		.loc 1 974 0
 1864 0012 90ED027A 		vldr.32	s14, [r0, #8]
 1865 0016 B5EEC07A 		vcmpe.f32	s14, #0
 1866 001a F1EE10FA 		vmrs	APSR_nzcv, FPSCR
 1867 001e 13DA     		bge	.L119
 1868              		.loc 1 987 0
 1869 0020 D0ED036A 		vldr.32	s13, [r0, #12]
 1870 0024 F5EEC06A 		vcmpe.f32	s13, #0
 1871 0028 F1EE10FA 		vmrs	APSR_nzcv, FPSCR
 1872 002c 44DB     		blt	.L115
 1873              		.loc 1 990 0
 1874 002e C0ED057A 		vstr.32	s15, [r0, #20]
 1875              		.loc 1 991 0
 1876 0032 C0ED046A 		vstr.32	s13, [r0, #16]
 1877              		.loc 1 992 0
 1878 0036 FFF7FEFF 		bl	CalcTimes
 1879              	.LVL113:
 1880              		.loc 1 1041 0
 1881 003a BDE80840 		pop	{r3, lr}
ARM GAS  C:\Users\IDONNO~1\AppData\Local\Temp\ccm1q34l.s 			page 34


 1882              		.cfi_remember_state
 1883              		.cfi_restore 14
 1884              		.cfi_restore 3
 1885              		.cfi_def_cfa_offset 0
 1886              		.loc 1 993 0
 1887 003e C269     		ldr	r2, [r0, #28]
 1888 0040 8169     		ldr	r1, [r0, #24]
 1889 0042 006A     		ldr	r0, [r0, #32]
 1890 0044 FFF7FEBF 		b	update_timer_Duty
 1891              	.LVL114:
 1892              	.L119:
 1893              		.cfi_restore_state
 1894              		.loc 1 979 0
 1895 0048 80ED057A 		vstr.32	s14, [r0, #20]
 1896              		.loc 1 980 0
 1897 004c C0ED047A 		vstr.32	s15, [r0, #16]
 1898              		.loc 1 981 0
 1899 0050 FFF7FEFF 		bl	CalcTimes
 1900              	.LVL115:
 1901              		.loc 1 982 0
 1902 0054 1830     		adds	r0, r0, #24
 1903 0056 07C8     		ldmia	r0, {r0, r1, r2}
 1904              		.loc 1 1041 0
 1905 0058 BDE80840 		pop	{r3, lr}
 1906              		.cfi_remember_state
 1907              		.cfi_restore 14
 1908              		.cfi_restore 3
 1909              		.cfi_def_cfa_offset 0
 1910              		.loc 1 982 0
 1911 005c FFF7FEBF 		b	update_timer_Duty
 1912              	.LVL116:
 1913              	.L113:
 1914              		.cfi_restore_state
 1915              		.loc 1 1009 0
 1916 0060 D0ED026A 		vldr.32	s13, [r0, #8]
 1917 0064 F5EEC06A 		vcmpe.f32	s13, #0
 1918 0068 F1EE10FA 		vmrs	APSR_nzcv, FPSCR
 1919 006c 35DB     		blt	.L116
 1920              		.loc 1 1012 0
 1921 006e 90ED037A 		vldr.32	s14, [r0, #12]
 1922 0072 B5EEC07A 		vcmpe.f32	s14, #0
 1923 0076 F1EE10FA 		vmrs	APSR_nzcv, FPSCR
 1924 007a 0CDB     		blt	.L117
 1925              		.loc 1 1015 0
 1926 007c 80ED057A 		vstr.32	s14, [r0, #20]
 1927              		.loc 1 1016 0
 1928 0080 C0ED046A 		vstr.32	s13, [r0, #16]
 1929              		.loc 1 1017 0
 1930 0084 FFF7FEFF 		bl	CalcTimes
 1931              	.LVL117:
 1932              		.loc 1 1041 0
 1933 0088 BDE80840 		pop	{r3, lr}
 1934              		.cfi_remember_state
 1935              		.cfi_restore 14
 1936              		.cfi_restore 3
 1937              		.cfi_def_cfa_offset 0
 1938              		.loc 1 1018 0
ARM GAS  C:\Users\IDONNO~1\AppData\Local\Temp\ccm1q34l.s 			page 35


 1939 008c 8269     		ldr	r2, [r0, #24]
 1940 008e 016A     		ldr	r1, [r0, #32]
 1941 0090 C069     		ldr	r0, [r0, #28]
 1942 0092 FFF7FEBF 		b	update_timer_Duty
 1943              	.LVL118:
 1944              	.L117:
 1945              		.cfi_restore_state
 1946              		.loc 1 1023 0
 1947 0096 B1EE477A 		vneg.f32	s14, s14
 1948              		.loc 1 1024 0
 1949 009a F1EE677A 		vneg.f32	s15, s15
 1950              		.loc 1 1023 0
 1951 009e 80ED057A 		vstr.32	s14, [r0, #20]
 1952              		.loc 1 1024 0
 1953 00a2 C0ED047A 		vstr.32	s15, [r0, #16]
 1954              		.loc 1 1025 0
 1955 00a6 FFF7FEFF 		bl	CalcTimes
 1956              	.LVL119:
 1957              		.loc 1 1041 0
 1958 00aa BDE80840 		pop	{r3, lr}
 1959              		.cfi_remember_state
 1960              		.cfi_restore 14
 1961              		.cfi_restore 3
 1962              		.cfi_def_cfa_offset 0
 1963              		.loc 1 1026 0
 1964 00ae C269     		ldr	r2, [r0, #28]
 1965 00b0 016A     		ldr	r1, [r0, #32]
 1966 00b2 8069     		ldr	r0, [r0, #24]
 1967 00b4 FFF7FEBF 		b	update_timer_Duty
 1968              	.LVL120:
 1969              	.L115:
 1970              		.cfi_restore_state
 1971              		.loc 1 999 0
 1972 00b8 B1EE477A 		vneg.f32	s14, s14
 1973              		.loc 1 1000 0
 1974 00bc F1EE666A 		vneg.f32	s13, s13
 1975              		.loc 1 999 0
 1976 00c0 80ED057A 		vstr.32	s14, [r0, #20]
 1977              		.loc 1 1000 0
 1978 00c4 C0ED046A 		vstr.32	s13, [r0, #16]
 1979              		.loc 1 1001 0
 1980 00c8 FFF7FEFF 		bl	CalcTimes
 1981              	.LVL121:
 1982              		.loc 1 1041 0
 1983 00cc BDE80840 		pop	{r3, lr}
 1984              		.cfi_remember_state
 1985              		.cfi_restore 14
 1986              		.cfi_restore 3
 1987              		.cfi_def_cfa_offset 0
 1988              		.loc 1 1002 0
 1989 00d0 026A     		ldr	r2, [r0, #32]
 1990 00d2 8169     		ldr	r1, [r0, #24]
 1991 00d4 C069     		ldr	r0, [r0, #28]
 1992 00d6 FFF7FEBF 		b	update_timer_Duty
 1993              	.LVL122:
 1994              	.L116:
 1995              		.cfi_restore_state
ARM GAS  C:\Users\IDONNO~1\AppData\Local\Temp\ccm1q34l.s 			page 36


 1996              		.loc 1 1034 0
 1997 00da F1EE677A 		vneg.f32	s15, s15
 1998              		.loc 1 1035 0
 1999 00de F1EE666A 		vneg.f32	s13, s13
 2000              		.loc 1 1034 0
 2001 00e2 C0ED057A 		vstr.32	s15, [r0, #20]
 2002              		.loc 1 1035 0
 2003 00e6 C0ED046A 		vstr.32	s13, [r0, #16]
 2004              		.loc 1 1036 0
 2005 00ea FFF7FEFF 		bl	CalcTimes
 2006              	.LVL123:
 2007              		.loc 1 1041 0
 2008 00ee BDE80840 		pop	{r3, lr}
 2009              		.cfi_restore 14
 2010              		.cfi_restore 3
 2011              		.cfi_def_cfa_offset 0
 2012              		.loc 1 1037 0
 2013 00f2 8269     		ldr	r2, [r0, #24]
 2014 00f4 C169     		ldr	r1, [r0, #28]
 2015 00f6 006A     		ldr	r0, [r0, #32]
 2016 00f8 FFF7FEBF 		b	update_timer_Duty
 2017              	.LVL124:
 2018              	.L121:
 2019              		.align	2
 2020              	.L120:
 2021 00fc 00000000 		.word	.LANCHOR5
 2022              		.cfi_endproc
 2023              	.LFE274:
 2024              		.size	CalcSVGen, .-CalcSVGen
 2025              		.section	.text.SMC_HallSensor_Estimation,"ax",%progbits
 2026              		.align	2
 2027              		.p2align 4,,15
 2028              		.global	SMC_HallSensor_Estimation
 2029              		.thumb
 2030              		.thumb_func
 2031              		.type	SMC_HallSensor_Estimation, %function
 2032              	SMC_HallSensor_Estimation:
 2033              	.LFB275:
 2034              		.loc 1 1120 0
 2035              		.cfi_startproc
 2036              		@ args = 0, pretend = 0, frame = 8
 2037              		@ frame_needed = 0, uses_anonymous_args = 0
 2038              	.LVL125:
 2039              		.loc 1 1122 0
 2040 0000 974B     		ldr	r3, .L142
 2041 0002 9FED986A 		vldr.32	s12, .L142+4
 2042 0006 9A88     		ldrh	r2, [r3, #4]
 2043              		.loc 1 1123 0
 2044 0008 5B88     		ldrh	r3, [r3, #2]
 2045              		.loc 1 1122 0
 2046 000a DFED976A 		vldr.32	s13, .L142+8
 2047 000e 07EE102A 		vmov	s14, r2	@ int
 2048              		.loc 1 1123 0
 2049 0012 07EE903A 		vmov	s15, r3	@ int
 2050              		.loc 1 1120 0
 2051 0016 F0B5     		push	{r4, r5, r6, r7, lr}
 2052              		.cfi_def_cfa_offset 20
ARM GAS  C:\Users\IDONNO~1\AppData\Local\Temp\ccm1q34l.s 			page 37


 2053              		.cfi_offset 4, -20
 2054              		.cfi_offset 5, -16
 2055              		.cfi_offset 6, -12
 2056              		.cfi_offset 7, -8
 2057              		.cfi_offset 14, -4
 2058              		.loc 1 1122 0
 2059 0018 B8EE477A 		vcvt.f32.u32	s14, s14
 2060              		.loc 1 1123 0
 2061 001c F8EE677A 		vcvt.f32.u32	s15, s15
 2062              		.loc 1 1122 0
 2063 0020 37EE467A 		vsub.f32	s14, s14, s12
 2064              		.loc 1 1123 0
 2065 0024 77EEC67A 		vsub.f32	s15, s15, s12
 2066              		.loc 1 1120 0
 2067 0028 2DED048B 		vpush.64	{d8, d9}
 2068              		.cfi_def_cfa_offset 36
 2069              		.cfi_offset 80, -36
 2070              		.cfi_offset 81, -32
 2071              		.cfi_offset 82, -28
 2072              		.cfi_offset 83, -24
 2073              		.loc 1 1122 0
 2074 002c 87EE268A 		vdiv.f32	s16, s14, s13
 2075              		.loc 1 1125 0
 2076 0030 8E4C     		ldr	r4, .L142+12
 2077              		.loc 1 1122 0
 2078 0032 8F4A     		ldr	r2, .L142+16
 2079              		.loc 1 1123 0
 2080 0034 8F4B     		ldr	r3, .L142+20
 2081              		.loc 1 1135 0
 2082 0036 904D     		ldr	r5, .L142+24
 2083              		.loc 1 1128 0
 2084 0038 904F     		ldr	r7, .L142+28
 2085              		.loc 1 1120 0
 2086 003a 83B0     		sub	sp, sp, #12
 2087              		.cfi_def_cfa_offset 48
 2088              		.loc 1 1120 0
 2089 003c 0646     		mov	r6, r0
 2090              		.loc 1 1123 0
 2091 003e C7EEA68A 		vdiv.f32	s17, s15, s13
 2092              		.loc 1 1125 0
 2093 0042 94ED000A 		vldr.32	s0, [r4]
 2094              		.loc 1 1122 0
 2095 0046 82ED008A 		vstr.32	s16, [r2]
 2096              		.loc 1 1125 0
 2097 004a F0EE089A 		vmov.f32	s19, #3.0e+0
 2098 004e 20EE290A 		vmul.f32	s0, s0, s19
 2099              		.loc 1 1123 0
 2100 0052 C3ED008A 		vstr.32	s17, [r3]
 2101              		.loc 1 1125 0
 2102 0056 FFF7FEFF 		bl	cosf
 2103              	.LVL126:
 2104 005a B0EE409A 		vmov.f32	s18, s0
 2105              		.loc 1 1126 0
 2106 005e 94ED000A 		vldr.32	s0, [r4]
 2107              		.loc 1 1125 0
 2108 0062 874B     		ldr	r3, .L142+32
 2109              		.loc 1 1126 0
ARM GAS  C:\Users\IDONNO~1\AppData\Local\Temp\ccm1q34l.s 			page 38


 2110 0064 20EE290A 		vmul.f32	s0, s0, s19
 2111              		.loc 1 1125 0
 2112 0068 83ED009A 		vstr.32	s18, [r3]
 2113              		.loc 1 1126 0
 2114 006c FFF7FEFF 		bl	sinf
 2115              	.LVL127:
 2116              		.loc 1 1128 0
 2117 0070 844B     		ldr	r3, .L142+36
 2118              		.loc 1 1135 0
 2119 0072 95ED004A 		vldr.32	s8, [r5]
 2120              		.loc 1 1128 0
 2121 0076 93ED003A 		vldr.32	s6, [r3]
 2122              		.loc 1 1137 0
 2123 007a 834A     		ldr	r2, .L142+40
 2124              		.loc 1 1134 0
 2125 007c 8349     		ldr	r1, .L142+44
 2126              		.loc 1 1137 0
 2127 007e 92ED006A 		vldr.32	s12, [r2]
 2128              		.loc 1 1134 0
 2129 0082 91ED005A 		vldr.32	s10, [r1]
 2130              		.loc 1 1138 0
 2131 0086 824B     		ldr	r3, .L142+48
 2132              		.loc 1 1126 0
 2133 0088 8248     		ldr	r0, .L142+52
 2134              		.loc 1 1138 0
 2135 008a 93ED007A 		vldr.32	s14, [r3]
 2136              		.loc 1 1132 0
 2137 008e DFF850E2 		ldr	lr, .L142+128
 2138              		.loc 1 1126 0
 2139 0092 F0EE407A 		vmov.f32	s15, s0
 2140              		.loc 1 1128 0
 2141 0096 68EE273A 		vmul.f32	s7, s16, s15
 2142              		.loc 1 1132 0
 2143 009a 68EEA75A 		vmul.f32	s11, s17, s15
 2144              		.loc 1 1128 0
 2145 009e 63EE833A 		vmul.f32	s7, s7, s6
 2146              		.loc 1 1129 0
 2147 00a2 68EE094A 		vmul.f32	s9, s16, s18
 2148              		.loc 1 1132 0
 2149 00a6 65EE835A 		vmul.f32	s11, s11, s6
 2150              		.loc 1 1129 0
 2151 00aa 64EE834A 		vmul.f32	s9, s9, s6
 2152              		.loc 1 1135 0
 2153 00ae 33EE844A 		vadd.f32	s8, s7, s8
 2154              		.loc 1 1131 0
 2155 00b2 68EE896A 		vmul.f32	s13, s17, s18
 2156              		.loc 1 1137 0
 2157 00b6 35EE866A 		vadd.f32	s12, s11, s12
 2158              		.loc 1 1131 0
 2159 00ba 66EE836A 		vmul.f32	s13, s13, s6
 2160              		.loc 1 1140 0
 2161 00be 67EE842A 		vmul.f32	s5, s15, s8
 2162              		.loc 1 1134 0
 2163 00c2 34EE855A 		vadd.f32	s10, s9, s10
 2164              		.loc 1 1126 0
 2165 00c6 C0ED007A 		vstr.32	s15, [r0]
 2166              		.loc 1 1138 0
ARM GAS  C:\Users\IDONNO~1\AppData\Local\Temp\ccm1q34l.s 			page 39


 2167 00ca 36EE877A 		vadd.f32	s14, s13, s14
 2168              		.loc 1 1143 0
 2169 00ce 67EE867A 		vmul.f32	s15, s15, s12
 2170              		.loc 1 1141 0
 2171 00d2 29EE053A 		vmul.f32	s6, s18, s10
 2172              		.loc 1 1146 0
 2173 00d6 38EE628A 		vsub.f32	s16, s16, s5
 2174              		.loc 1 1140 0
 2175 00da 6F48     		ldr	r0, .L142+56
 2176              		.loc 1 1128 0
 2177 00dc C7ED003A 		vstr.32	s7, [r7]
 2178              		.loc 1 1144 0
 2179 00e0 29EE079A 		vmul.f32	s18, s18, s14
 2180              		.loc 1 1135 0
 2181 00e4 85ED004A 		vstr.32	s8, [r5]
 2182              		.loc 1 1140 0
 2183 00e8 C0ED002A 		vstr.32	s5, [r0]
 2184              		.loc 1 1147 0
 2185 00ec 78EEE78A 		vsub.f32	s17, s17, s15
 2186              		.loc 1 1146 0
 2187 00f0 38EE438A 		vsub.f32	s16, s16, s6
 2188              		.loc 1 1129 0
 2189 00f4 694F     		ldr	r7, .L142+60
 2190              		.loc 1 1146 0
 2191 00f6 6A4D     		ldr	r5, .L142+64
 2192              		.loc 1 1141 0
 2193 00f8 6A48     		ldr	r0, .L142+68
 2194              		.loc 1 1129 0
 2195 00fa C7ED004A 		vstr.32	s9, [r7]
 2196              		.loc 1 1134 0
 2197 00fe 81ED005A 		vstr.32	s10, [r1]
 2198              		.loc 1 1146 0
 2199 0102 85ED008A 		vstr.32	s16, [r5]
 2200              		.loc 1 1141 0
 2201 0106 80ED003A 		vstr.32	s6, [r0]
 2202              		.loc 1 1144 0
 2203 010a 6749     		ldr	r1, .L142+72
 2204              		.loc 1 1147 0
 2205 010c 6748     		ldr	r0, .L142+76
 2206              		.loc 1 1131 0
 2207 010e 684D     		ldr	r5, .L142+80
 2208              		.loc 1 1143 0
 2209 0110 684F     		ldr	r7, .L142+84
 2210              		.loc 1 1149 0
 2211 0112 94ED000A 		vldr.32	s0, [r4]
 2212              		.loc 1 1137 0
 2213 0116 82ED006A 		vstr.32	s12, [r2]
 2214              		.loc 1 1147 0
 2215 011a 78EEC98A 		vsub.f32	s17, s17, s18
 2216              		.loc 1 1131 0
 2217 011e C5ED006A 		vstr.32	s13, [r5]
 2218              		.loc 1 1138 0
 2219 0122 83ED007A 		vstr.32	s14, [r3]
 2220              		.loc 1 1147 0
 2221 0126 C0ED008A 		vstr.32	s17, [r0]
 2222              		.loc 1 1144 0
 2223 012a 81ED009A 		vstr.32	s18, [r1]
ARM GAS  C:\Users\IDONNO~1\AppData\Local\Temp\ccm1q34l.s 			page 40


 2224              		.loc 1 1143 0
 2225 012e C7ED007A 		vstr.32	s15, [r7]
 2226              		.loc 1 1132 0
 2227 0132 CEED005A 		vstr.32	s11, [lr]
 2228              		.loc 1 1149 0
 2229 0136 FFF7FEFF 		bl	cosf
 2230              	.LVL128:
 2231 013a 5F4B     		ldr	r3, .L142+88
 2232              		.loc 1 1152 0
 2233 013c 5F4D     		ldr	r5, .L142+92
 2234              		.loc 1 1149 0
 2235 013e B0EE409A 		vmov.f32	s18, s0
 2236              		.loc 1 1150 0
 2237 0142 94ED000A 		vldr.32	s0, [r4]
 2238              		.loc 1 1149 0
 2239 0146 83ED009A 		vstr.32	s18, [r3]
 2240              		.loc 1 1150 0
 2241 014a FFF7FEFF 		bl	sinf
 2242              	.LVL129:
 2243              		.loc 1 1152 0
 2244 014e 28EE098A 		vmul.f32	s16, s16, s18
 2245              		.loc 1 1153 0
 2246 0152 68EE808A 		vmul.f32	s17, s17, s0
 2247              		.loc 1 1159 0
 2248 0156 5A4A     		ldr	r2, .L142+96
 2249 0158 9FED5A6A 		vldr.32	s12, .L142+100
 2250 015c D2ED007A 		vldr.32	s15, [r2]
 2251              		.loc 1 1152 0
 2252 0160 85ED008A 		vstr.32	s16, [r5]
 2253              		.loc 1 1158 0
 2254 0164 38EE688A 		vsub.f32	s16, s16, s17
 2255              		.loc 1 1159 0
 2256 0168 574B     		ldr	r3, .L142+104
 2257              		.loc 1 1153 0
 2258 016a 5848     		ldr	r0, .L142+108
 2259              		.loc 1 1159 0
 2260 016c D3ED006A 		vldr.32	s13, [r3]
 2261              		.loc 1 1150 0
 2262 0170 5749     		ldr	r1, .L142+112
 2263              		.loc 1 1153 0
 2264 0172 C0ED008A 		vstr.32	s17, [r0]
 2265              	.LVL130:
 2266              		.loc 1 1159 0
 2267 0176 D8EE067A 		vfnms.f32	s15, s16, s12
 2268              		.loc 1 1160 0
 2269 017a B2EE047A 		vmov.f32	s14, #1.0e+1
 2270              		.loc 1 1159 0
 2271 017e 77EEA67A 		vadd.f32	s15, s15, s13
 2272              		.loc 1 1150 0
 2273 0182 81ED000A 		vstr.32	s0, [r1]
 2274              		.loc 1 1159 0
 2275 0186 C3ED007A 		vstr.32	s15, [r3]
 2276              		.loc 1 1160 0
 2277 018a D3ED007A 		vldr.32	s15, [r3]
 2278 018e F4EEC77A 		vcmpe.f32	s15, s14
 2279 0192 F1EE10FA 		vmrs	APSR_nzcv, FPSCR
 2280 0196 0ADC     		bgt	.L123
ARM GAS  C:\Users\IDONNO~1\AppData\Local\Temp\ccm1q34l.s 			page 41


 2281              		.loc 1 1160 0 is_stmt 0 discriminator 2
 2282 0198 D3ED007A 		vldr.32	s15, [r3]
 2283 019c BAEE047A 		vmov.f32	s14, #-1.0e+1
 2284 01a0 F4EEC77A 		vcmpe.f32	s15, s14
 2285 01a4 F1EE10FA 		vmrs	APSR_nzcv, FPSCR
 2286 01a8 58BF     		it	pl
 2287 01aa 93ED007A 		vldrpl.32	s14, [r3]
 2288              	.L123:
 2289              		.loc 1 1160 0 discriminator 8
 2290 01ae 83ED007A 		vstr.32	s14, [r3]
 2291              		.loc 1 1161 0 is_stmt 1 discriminator 8
 2292 01b2 82ED008A 		vstr.32	s16, [r2]
 2293              		.loc 1 1163 0 discriminator 8
 2294 01b6 D3ED007A 		vldr.32	s15, [r3]
 2295 01ba D4ED006A 		vldr.32	s13, [r4]
 2296              		.loc 1 1164 0 discriminator 8
 2297 01be 9FED457A 		vldr.32	s14, .L142+116
 2298              		.loc 1 1163 0 discriminator 8
 2299 01c2 2A4A     		ldr	r2, .L142+12
 2300 01c4 77EEA67A 		vadd.f32	s15, s15, s13
 2301 01c8 C4ED007A 		vstr.32	s15, [r4]
 2302              		.loc 1 1164 0 discriminator 8
 2303 01cc D4ED007A 		vldr.32	s15, [r4]
 2304 01d0 F4EEC77A 		vcmpe.f32	s15, s14
 2305 01d4 F1EE10FA 		vmrs	APSR_nzcv, FPSCR
 2306 01d8 D2ED007A 		vldr.32	s15, [r2]
 2307 01dc 2EDD     		ble	.L137
 2308              		.loc 1 1164 0 is_stmt 0 discriminator 1
 2309 01de 37EEC77A 		vsub.f32	s14, s15, s14
 2310 01e2 82ED007A 		vstr.32	s14, [r2]
 2311              	.L126:
 2312              		.loc 1 1167 0 is_stmt 1
 2313 01e6 94ED007A 		vldr.32	s14, [r4]
 2314 01ea DFED3B7A 		vldr.32	s15, .L142+120
 2315              		.loc 1 1169 0
 2316 01ee DFED396A 		vldr.32	s13, .L142+116
 2317              		.loc 1 1167 0
 2318 01f2 77EE277A 		vadd.f32	s15, s14, s15
 2319              		.loc 1 1169 0
 2320 01f6 F4EEE67A 		vcmpe.f32	s15, s13
 2321 01fa F1EE10FA 		vmrs	APSR_nzcv, FPSCR
 2322 01fe 29DC     		bgt	.L141
 2323              		.loc 1 1170 0
 2324 0200 F5EEC07A 		vcmpe.f32	s15, #0
 2325 0204 F1EE10FA 		vmrs	APSR_nzcv, FPSCR
 2326 0208 48BF     		it	mi
 2327 020a 77EEA67A 		vaddmi.f32	s15, s15, s13
 2328 020e C6ED167A 		vstr.32	s15, [r6, #88]
 2329              	.L130:
 2330              		.loc 1 1172 0
 2331 0212 1B68     		ldr	r3, [r3]	@ float
 2332              		.loc 1 1185 0
 2333 0214 9FED317A 		vldr.32	s14, .L142+124
 2334 0218 D4ED007A 		vldr.32	s15, [r4]
 2335              		.loc 1 1172 0
 2336 021c F365     		str	r3, [r6, #92]	@ float
 2337              		.loc 1 1185 0
ARM GAS  C:\Users\IDONNO~1\AppData\Local\Temp\ccm1q34l.s 			page 42


 2338 021e 67EE877A 		vmul.f32	s15, s15, s14
 2339 0222 FDEEE77A 		vcvt.s32.f32	s15, s15
 2340 0226 CDED017A 		vstr.32	s15, [sp, #4]	@ int
 2341 022a BDF90400 		ldrsh	r0, [sp, #4]
 2342              		.loc 1 1198 0
 2343 022e 03B0     		add	sp, sp, #12
 2344              		.cfi_remember_state
 2345              		.cfi_def_cfa_offset 36
 2346              		@ sp needed
 2347 0230 BDEC048B 		vldm	sp!, {d8-d9}
 2348              		.cfi_restore 82
 2349              		.cfi_restore 83
 2350              		.cfi_restore 80
 2351              		.cfi_restore 81
 2352              		.cfi_def_cfa_offset 20
 2353              	.LVL131:
 2354 0234 BDE8F040 		pop	{r4, r5, r6, r7, lr}
 2355              		.cfi_restore 14
 2356              		.cfi_restore 7
 2357              		.cfi_restore 6
 2358              		.cfi_restore 5
 2359              		.cfi_restore 4
 2360              		.cfi_def_cfa_offset 0
 2361              	.LVL132:
 2362              		.loc 1 1185 0
 2363 0238 FFF7FEBF 		b	spi_dac_write_B
 2364              	.LVL133:
 2365              	.L137:
 2366              		.cfi_restore_state
 2367              		.loc 1 1165 0
 2368 023c F5EEC07A 		vcmpe.f32	s15, #0
 2369 0240 F1EE10FA 		vmrs	APSR_nzcv, FPSCR
 2370 0244 CFD5     		bpl	.L126
 2371              		.loc 1 1165 0 is_stmt 0 discriminator 1
 2372 0246 D2ED007A 		vldr.32	s15, [r2]
 2373 024a 37EE877A 		vadd.f32	s14, s15, s14
 2374 024e 82ED007A 		vstr.32	s14, [r2]
 2375 0252 C8E7     		b	.L126
 2376              	.L141:
 2377              		.loc 1 1169 0 is_stmt 1 discriminator 1
 2378 0254 77EEE67A 		vsub.f32	s15, s15, s13
 2379 0258 C6ED167A 		vstr.32	s15, [r6, #88]
 2380 025c D9E7     		b	.L130
 2381              	.L143:
 2382 025e 00BF     		.align	2
 2383              	.L142:
 2384 0260 00000000 		.word	.LANCHOR3
 2385 0264 00209B44 		.word	1151016960
 2386 0268 00F07F45 		.word	1166012416
 2387 026c 00000000 		.word	.LANCHOR25
 2388 0270 00000000 		.word	.LANCHOR23
 2389 0274 00000000 		.word	.LANCHOR24
 2390 0278 00000000 		.word	.LANCHOR34
 2391 027c 00000000 		.word	.LANCHOR29
 2392 0280 00000000 		.word	.LANCHOR26
 2393 0284 00000000 		.word	.LANCHOR28
 2394 0288 00000000 		.word	.LANCHOR35
ARM GAS  C:\Users\IDONNO~1\AppData\Local\Temp\ccm1q34l.s 			page 43


 2395 028c 00000000 		.word	.LANCHOR33
 2396 0290 00000000 		.word	.LANCHOR36
 2397 0294 00000000 		.word	.LANCHOR27
 2398 0298 00000000 		.word	.LANCHOR37
 2399 029c 00000000 		.word	.LANCHOR30
 2400 02a0 00000000 		.word	.LANCHOR41
 2401 02a4 00000000 		.word	.LANCHOR38
 2402 02a8 00000000 		.word	.LANCHOR40
 2403 02ac 00000000 		.word	.LANCHOR42
 2404 02b0 00000000 		.word	.LANCHOR31
 2405 02b4 00000000 		.word	.LANCHOR39
 2406 02b8 00000000 		.word	.LANCHOR43
 2407 02bc 00000000 		.word	.LANCHOR45
 2408 02c0 00000000 		.word	.LANCHOR47
 2409 02c4 0C02803F 		.word	1065353740
 2410 02c8 00000000 		.word	.LANCHOR48
 2411 02cc 00000000 		.word	.LANCHOR46
 2412 02d0 00000000 		.word	.LANCHOR44
 2413 02d4 DB0FC940 		.word	1086918619
 2414 02d8 9A99993E 		.word	1050253722
 2415 02dc 00004843 		.word	1128792064
 2416 02e0 00000000 		.word	.LANCHOR32
 2417              		.cfi_endproc
 2418              	.LFE275:
 2419              		.size	SMC_HallSensor_Estimation, .-SMC_HallSensor_Estimation
 2420              		.section	.text.mcpwm_adc_inj_int_handler,"ax",%progbits
 2421              		.align	2
 2422              		.p2align 4,,15
 2423              		.global	mcpwm_adc_inj_int_handler
 2424              		.thumb
 2425              		.thumb_func
 2426              		.type	mcpwm_adc_inj_int_handler, %function
 2427              	mcpwm_adc_inj_int_handler:
 2428              	.LFB259:
 2429              		.loc 1 593 0
 2430              		.cfi_startproc
 2431              		@ args = 0, pretend = 0, frame = 0
 2432              		@ frame_needed = 0, uses_anonymous_args = 0
 2433 0000 F8B5     		push	{r3, r4, r5, r6, r7, lr}
 2434              		.cfi_def_cfa_offset 24
 2435              		.cfi_offset 3, -24
 2436              		.cfi_offset 4, -20
 2437              		.cfi_offset 5, -16
 2438              		.cfi_offset 6, -12
 2439              		.cfi_offset 7, -8
 2440              		.cfi_offset 14, -4
 2441              		.loc 1 594 0
 2442 0002 454B     		ldr	r3, .L153
 2443              		.loc 1 596 0
 2444 0004 4548     		ldr	r0, .L153+4
 2445              		.loc 1 599 0
 2446 0006 464E     		ldr	r6, .L153+8
 2447              		.loc 1 594 0
 2448 0008 0027     		movs	r7, #0
 2449 000a 5F62     		str	r7, [r3, #36]
 2450              		.loc 1 596 0
 2451 000c 1421     		movs	r1, #20
ARM GAS  C:\Users\IDONNO~1\AppData\Local\Temp\ccm1q34l.s 			page 44


 2452 000e FFF7FEFF 		bl	ADC_GetInjectedConversionValue
 2453              	.LVL134:
 2454              		.loc 1 597 0
 2455 0012 1421     		movs	r1, #20
 2456              		.loc 1 596 0
 2457 0014 0546     		mov	r5, r0
 2458              	.LVL135:
 2459              		.loc 1 597 0
 2460 0016 4348     		ldr	r0, .L153+12
 2461              	.LVL136:
 2462 0018 FFF7FEFF 		bl	ADC_GetInjectedConversionValue
 2463              	.LVL137:
 2464              		.loc 1 599 0
 2465 001c 3368     		ldr	r3, [r6]
 2466              		.loc 1 600 0
 2467 001e 4249     		ldr	r1, .L153+16
 2468              		.loc 1 601 0
 2469 0020 424A     		ldr	r2, .L153+20
 2470              		.loc 1 599 0
 2471 0022 2B44     		add	r3, r3, r5
 2472 0024 3360     		str	r3, [r6]
 2473              		.loc 1 600 0
 2474 0026 0B68     		ldr	r3, [r1]
 2475              		.loc 1 597 0
 2476 0028 0446     		mov	r4, r0
 2477              	.LVL138:
 2478              		.loc 1 600 0
 2479 002a 2344     		add	r3, r3, r4
 2480 002c 0B60     		str	r3, [r1]
 2481              		.loc 1 601 0
 2482 002e 1368     		ldr	r3, [r2]
 2483              		.loc 1 603 0
 2484 0030 3F48     		ldr	r0, .L153+24
 2485              	.LVL139:
 2486              		.loc 1 601 0
 2487 0032 0133     		adds	r3, r3, #1
 2488 0034 1360     		str	r3, [r2]
 2489              		.loc 1 603 0
 2490 0036 FFF7FEFF 		bl	SMC_HallSensor_Estimation
 2491              	.LVL140:
 2492              		.loc 1 609 0
 2493 003a 3E4B     		ldr	r3, .L153+28
 2494 003c 1B78     		ldrb	r3, [r3]	@ zero_extendqisi2
 2495 003e 9B07     		lsls	r3, r3, #30
 2496 0040 65D5     		bpl	.L145
 2497              		.loc 1 611 0
 2498 0042 3D49     		ldr	r1, .L153+32
 2499              		.loc 1 612 0
 2500 0044 3D4A     		ldr	r2, .L153+36
 2501              	.LBB44:
 2502              	.LBB45:
 2503              		.loc 1 899 0
 2504 0046 3E4B     		ldr	r3, .L153+40
 2505              	.LBE45:
 2506              	.LBE44:
 2507              		.loc 1 627 0
 2508 0048 3E48     		ldr	r0, .L153+44
ARM GAS  C:\Users\IDONNO~1\AppData\Local\Temp\ccm1q34l.s 			page 45


 2509              		.loc 1 611 0
 2510 004a 4026     		movs	r6, #64
 2511 004c 0E83     		strh	r6, [r1, #24]	@ movhi
 2512              		.loc 1 612 0
 2513 004e 8021     		movs	r1, #128
 2514 0050 1183     		strh	r1, [r2, #24]	@ movhi
 2515              	.LVL141:
 2516              	.LBB50:
 2517              	.LBB46:
 2518              		.loc 1 899 0
 2519 0052 9988     		ldrh	r1, [r3, #4]
 2520              	.LVL142:
 2521              		.loc 1 900 0
 2522 0054 9A89     		ldrh	r2, [r3, #12]
 2523              	.LVL143:
 2524              		.loc 1 903 0
 2525 0056 93ED006A 		vldr.32	s12, [r3]
 2526              		.loc 1 904 0
 2527 005a D3ED026A 		vldr.32	s13, [r3, #8]
 2528              	.LBE46:
 2529              	.LBE50:
 2530              		.loc 1 627 0
 2531 005e 0388     		ldrh	r3, [r0]
 2532              	.LBB51:
 2533              	.LBB47:
 2534              		.loc 1 903 0
 2535 0060 394E     		ldr	r6, .L153+48
 2536 0062 09B2     		sxth	r1, r1
 2537              		.loc 1 904 0
 2538 0064 12B2     		sxth	r2, r2
 2539 0066 A21A     		subs	r2, r4, r2
 2540              	.LVL144:
 2541              		.loc 1 903 0
 2542 0068 691A     		subs	r1, r5, r1
 2543              	.LVL145:
 2544              		.loc 1 904 0
 2545 006a 07EE902A 		vmov	s15, r2	@ int
 2546              		.loc 1 903 0
 2547 006e 07EE101A 		vmov	s14, r1	@ int
 2548              		.loc 1 904 0
 2549 0072 F8EEE77A 		vcvt.f32.s32	s15, s15
 2550              		.loc 1 903 0
 2551 0076 B8EEC77A 		vcvt.f32.s32	s14, s14
 2552              	.LBE47:
 2553              	.LBE51:
 2554              		.loc 1 627 0
 2555 007a 0133     		adds	r3, r3, #1
 2556              	.LBB52:
 2557              	.LBB48:
 2558              		.loc 1 903 0
 2559 007c 27EE067A 		vmul.f32	s14, s14, s12
 2560              		.loc 1 904 0
 2561 0080 67EEA67A 		vmul.f32	s15, s15, s13
 2562              	.LBE48:
 2563              	.LBE52:
 2564              		.loc 1 627 0
 2565 0084 9BB2     		uxth	r3, r3
ARM GAS  C:\Users\IDONNO~1\AppData\Local\Temp\ccm1q34l.s 			page 46


 2566              		.loc 1 628 0
 2567 0086 102B     		cmp	r3, #16
 2568              		.loc 1 627 0
 2569 0088 14BF     		ite	ne
 2570 008a 0380     		strhne	r3, [r0]	@ movhi
 2571              		.loc 1 630 0
 2572 008c 0780     		strheq	r7, [r0]	@ movhi
 2573              	.LBB53:
 2574              	.LBB49:
 2575              		.loc 1 903 0
 2576 008e 86ED037A 		vstr.32	s14, [r6, #12]
 2577              		.loc 1 904 0
 2578 0092 C6ED047A 		vstr.32	s15, [r6, #16]
 2579              	.LVL146:
 2580              	.LBE49:
 2581              	.LBE53:
 2582              		.loc 1 635 0
 2583 0096 FFF7FEFF 		bl	ClarkePark
 2584              	.LVL147:
 2585              		.loc 1 649 0
 2586 009a 96ED007A 		vldr.32	s14, [r6]
 2587 009e DFED2B7A 		vldr.32	s15, .L153+52
 2588              		.loc 1 650 0
 2589 00a2 DFED2B6A 		vldr.32	s13, .L153+56
 2590              		.loc 1 649 0
 2591 00a6 77EE277A 		vadd.f32	s15, s14, s15
 2592              		.loc 1 642 0
 2593 00aa 0023     		movs	r3, #0
 2594              		.loc 1 650 0
 2595 00ac F4EEE67A 		vcmpe.f32	s15, s13
 2596 00b0 F1EE10FA 		vmrs	APSR_nzcv, FPSCR
 2597              		.loc 1 642 0
 2598 00b4 B362     		str	r3, [r6, #40]	@ float
 2599              		.loc 1 641 0
 2600 00b6 4FF07C53 		mov	r3, #1056964608
 2601              		.loc 1 650 0
 2602 00ba C8BF     		it	gt
 2603 00bc 76EEE77A 		vsubgt.f32	s15, s13, s15
 2604              		.loc 1 641 0
 2605 00c0 7362     		str	r3, [r6, #36]	@ float
 2606 00c2 214B     		ldr	r3, .L153+48
 2607              		.loc 1 650 0
 2608 00c4 C3ED007A 		vstr.32	s15, [r3]
 2609              		.loc 1 654 0
 2610 00c8 FFF7FEFF 		bl	InvPark
 2611              	.LVL148:
 2612              	.LBB54:
 2613              	.LBB55:
 2614              		.loc 1 926 0
 2615 00cc D6ED0C6A 		vldr.32	s13, [r6, #48]
 2616              		.loc 1 927 0
 2617 00d0 D6ED0B5A 		vldr.32	s11, [r6, #44]
 2618 00d4 9FED1F6A 		vldr.32	s12, .L153+60
 2619              		.loc 1 926 0
 2620 00d8 1F4B     		ldr	r3, .L153+64
 2621              		.loc 1 927 0
 2622 00da F1EE667A 		vneg.f32	s15, s13
ARM GAS  C:\Users\IDONNO~1\AppData\Local\Temp\ccm1q34l.s 			page 47


 2623 00de B0EE677A 		vmov.f32	s14, s15
 2624 00e2 A5EE867A 		vfma.f32	s14, s11, s12
 2625              		.loc 1 928 0
 2626 00e6 E5EEC67A 		vfms.f32	s15, s11, s12
 2627              		.loc 1 927 0
 2628 00ea B6EE006A 		vmov.f32	s12, #5.0e-1
 2629 00ee 27EE067A 		vmul.f32	s14, s14, s12
 2630              		.loc 1 928 0
 2631 00f2 67EE867A 		vmul.f32	s15, s15, s12
 2632              		.loc 1 926 0
 2633 00f6 C3ED016A 		vstr.32	s13, [r3, #4]
 2634              		.loc 1 927 0
 2635 00fa 83ED027A 		vstr.32	s14, [r3, #8]
 2636              		.loc 1 928 0
 2637 00fe C3ED037A 		vstr.32	s15, [r3, #12]
 2638              	.LBE55:
 2639              	.LBE54:
 2640              		.loc 1 660 0
 2641 0102 FFF7FEFF 		bl	CalcSVGen
 2642              	.LVL149:
 2643              		.loc 1 662 0
 2644 0106 0D4B     		ldr	r3, .L153+36
 2645 0108 8022     		movs	r2, #128
 2646 010a 5A83     		strh	r2, [r3, #26]	@ movhi
 2647 010c F8BD     		pop	{r3, r4, r5, r6, r7, pc}
 2648              	.LVL150:
 2649              	.L145:
 2650              		.loc 1 669 0
 2651 010e 0A4B     		ldr	r3, .L153+32
 2652 0110 4022     		movs	r2, #64
 2653 0112 5A83     		strh	r2, [r3, #26]	@ movhi
 2654 0114 F8BD     		pop	{r3, r4, r5, r6, r7, pc}
 2655              	.LVL151:
 2656              	.L154:
 2657 0116 00BF     		.align	2
 2658              	.L153:
 2659 0118 00180040 		.word	1073747968
 2660 011c 00200140 		.word	1073815552
 2661 0120 00000000 		.word	.LANCHOR14
 2662 0124 00210140 		.word	1073815808
 2663 0128 00000000 		.word	.LANCHOR15
 2664 012c 00000000 		.word	.LANCHOR16
 2665 0130 00000000 		.word	.LANCHOR20
 2666 0134 00000000 		.word	.LANCHOR17
 2667 0138 00080240 		.word	1073874944
 2668 013c 00040240 		.word	1073873920
 2669 0140 00000000 		.word	.LANCHOR0
 2670 0144 00000000 		.word	.LANCHOR19
 2671 0148 00000000 		.word	.LANCHOR6
 2672 014c 6F12033B 		.word	990057071
 2673 0150 DB0FC940 		.word	1086918619
 2674 0154 D7B3DD3F 		.word	1071494103
 2675 0158 00000000 		.word	.LANCHOR5
 2676              		.cfi_endproc
 2677              	.LFE259:
 2678              		.size	mcpwm_adc_inj_int_handler, .-mcpwm_adc_inj_int_handler
 2679              		.section	.text.stop_pwm_hw,"ax",%progbits
ARM GAS  C:\Users\IDONNO~1\AppData\Local\Temp\ccm1q34l.s 			page 48


 2680              		.align	2
 2681              		.p2align 4,,15
 2682              		.global	stop_pwm_hw
 2683              		.thumb
 2684              		.thumb_func
 2685              		.type	stop_pwm_hw, %function
 2686              	stop_pwm_hw:
 2687              	.LFB276:
 2688              		.loc 1 1261 0
 2689              		.cfi_startproc
 2690              		@ args = 0, pretend = 0, frame = 0
 2691              		@ frame_needed = 0, uses_anonymous_args = 0
 2692 0000 10B5     		push	{r4, lr}
 2693              		.cfi_def_cfa_offset 8
 2694              		.cfi_offset 4, -8
 2695              		.cfi_offset 14, -4
 2696              		.loc 1 1262 0
 2697 0002 1A4C     		ldr	r4, .L157
 2698 0004 4022     		movs	r2, #64
 2699 0006 2046     		mov	r0, r4
 2700 0008 0021     		movs	r1, #0
 2701 000a FFF7FEFF 		bl	TIM_SelectOCxM
 2702              	.LVL152:
 2703              		.loc 1 1263 0
 2704 000e 2046     		mov	r0, r4
 2705 0010 0122     		movs	r2, #1
 2706 0012 0021     		movs	r1, #0
 2707 0014 FFF7FEFF 		bl	TIM_CCxCmd
 2708              	.LVL153:
 2709              		.loc 1 1264 0
 2710 0018 0022     		movs	r2, #0
 2711 001a 2046     		mov	r0, r4
 2712 001c 1146     		mov	r1, r2
 2713 001e FFF7FEFF 		bl	TIM_CCxNCmd
 2714              	.LVL154:
 2715              		.loc 1 1266 0
 2716 0022 2046     		mov	r0, r4
 2717 0024 4022     		movs	r2, #64
 2718 0026 0421     		movs	r1, #4
 2719 0028 FFF7FEFF 		bl	TIM_SelectOCxM
 2720              	.LVL155:
 2721              		.loc 1 1267 0
 2722 002c 2046     		mov	r0, r4
 2723 002e 0122     		movs	r2, #1
 2724 0030 0421     		movs	r1, #4
 2725 0032 FFF7FEFF 		bl	TIM_CCxCmd
 2726              	.LVL156:
 2727              		.loc 1 1268 0
 2728 0036 2046     		mov	r0, r4
 2729 0038 0022     		movs	r2, #0
 2730 003a 0421     		movs	r1, #4
 2731 003c FFF7FEFF 		bl	TIM_CCxNCmd
 2732              	.LVL157:
 2733              		.loc 1 1270 0
 2734 0040 2046     		mov	r0, r4
 2735 0042 4022     		movs	r2, #64
 2736 0044 0821     		movs	r1, #8
ARM GAS  C:\Users\IDONNO~1\AppData\Local\Temp\ccm1q34l.s 			page 49


 2737 0046 FFF7FEFF 		bl	TIM_SelectOCxM
 2738              	.LVL158:
 2739              		.loc 1 1271 0
 2740 004a 2046     		mov	r0, r4
 2741 004c 0122     		movs	r2, #1
 2742 004e 0821     		movs	r1, #8
 2743 0050 FFF7FEFF 		bl	TIM_CCxCmd
 2744              	.LVL159:
 2745              		.loc 1 1272 0
 2746 0054 2046     		mov	r0, r4
 2747 0056 0821     		movs	r1, #8
 2748 0058 0022     		movs	r2, #0
 2749 005a FFF7FEFF 		bl	TIM_CCxNCmd
 2750              	.LVL160:
 2751              		.loc 1 1274 0
 2752 005e 2046     		mov	r0, r4
 2753 0060 2021     		movs	r1, #32
 2754              		.loc 1 1275 0
 2755 0062 BDE81040 		pop	{r4, lr}
 2756              		.cfi_restore 14
 2757              		.cfi_restore 4
 2758              		.cfi_def_cfa_offset 0
 2759              		.loc 1 1274 0
 2760 0066 FFF7FEBF 		b	TIM_GenerateEvent
 2761              	.LVL161:
 2762              	.L158:
 2763 006a 00BF     		.align	2
 2764              	.L157:
 2765 006c 00000140 		.word	1073807360
 2766              		.cfi_endproc
 2767              	.LFE276:
 2768              		.size	stop_pwm_hw, .-stop_pwm_hw
 2769              		.section	.text.fputc,"ax",%progbits
 2770              		.align	2
 2771              		.p2align 4,,15
 2772              		.global	fputc
 2773              		.thumb
 2774              		.thumb_func
 2775              		.type	fputc, %function
 2776              	fputc:
 2777              	.LFB277:
 2778              		.loc 1 1284 0
 2779              		.cfi_startproc
 2780              		@ args = 0, pretend = 0, frame = 0
 2781              		@ frame_needed = 0, uses_anonymous_args = 0
 2782              		@ link register save eliminated.
 2783              	.LVL162:
 2784              	.LBB56:
 2785              	.LBB57:
 2786              		.file 2 "lib/ChibiOS_3.0.2/os/ext/CMSIS/include/core_cm4.h"
 2787              		.loc 2 1719 0
 2788 0000 4FF06042 		mov	r2, #-536870912
 2789              	.LVL163:
 2790 0004 D2F8803E 		ldr	r3, [r2, #3712]
 2791 0008 D907     		lsls	r1, r3, #31
 2792              	.LVL164:
 2793 000a 0AD5     		bpl	.L160
ARM GAS  C:\Users\IDONNO~1\AppData\Local\Temp\ccm1q34l.s 			page 50


 2794              		.loc 2 1720 0
 2795 000c D2F8003E 		ldr	r3, [r2, #3584]
 2796              		.loc 2 1719 0
 2797 0010 DB07     		lsls	r3, r3, #31
 2798 0012 06D5     		bpl	.L160
 2799              	.L167:
 2800              		.loc 2 1722 0
 2801 0014 1368     		ldr	r3, [r2]
 2802 0016 4FF06041 		mov	r1, #-536870912
 2803 001a 002B     		cmp	r3, #0
 2804 001c FAD0     		beq	.L167
 2805              		.loc 2 1723 0
 2806 001e C3B2     		uxtb	r3, r0
 2807 0020 0B70     		strb	r3, [r1]
 2808              	.L160:
 2809              	.LVL165:
 2810              	.LBE57:
 2811              	.LBE56:
 2812              		.loc 1 1286 0
 2813 0022 7047     		bx	lr
 2814              		.cfi_endproc
 2815              	.LFE277:
 2816              		.size	fputc, .-fputc
 2817              		.section	.text.mcpwm_Set_RunStop,"ax",%progbits
 2818              		.align	2
 2819              		.p2align 4,,15
 2820              		.global	mcpwm_Set_RunStop
 2821              		.thumb
 2822              		.thumb_func
 2823              		.type	mcpwm_Set_RunStop, %function
 2824              	mcpwm_Set_RunStop:
 2825              	.LFB278:
 2826              		.loc 1 1289 0
 2827              		.cfi_startproc
 2828              		@ args = 0, pretend = 0, frame = 0
 2829              		@ frame_needed = 0, uses_anonymous_args = 0
 2830              		@ link register save eliminated.
 2831              	.LVL166:
 2832              		.loc 1 1290 0
 2833 0000 28B9     		cbnz	r0, .L174
 2834              		.loc 1 1291 0
 2835 0002 064B     		ldr	r3, .L175
 2836 0004 1A78     		ldrb	r2, [r3]	@ zero_extendqisi2
 2837 0006 60F34102 		bfi	r2, r0, #1, #1
 2838 000a 1A70     		strb	r2, [r3]
 2839 000c 7047     		bx	lr
 2840              	.L174:
 2841              		.loc 1 1290 0 discriminator 1
 2842 000e 034A     		ldr	r2, .L175
 2843 0010 1378     		ldrb	r3, [r2]	@ zero_extendqisi2
 2844 0012 43F00203 		orr	r3, r3, #2
 2845 0016 1370     		strb	r3, [r2]
 2846 0018 7047     		bx	lr
 2847              	.L176:
 2848 001a 00BF     		.align	2
 2849              	.L175:
 2850 001c 00000000 		.word	.LANCHOR17
ARM GAS  C:\Users\IDONNO~1\AppData\Local\Temp\ccm1q34l.s 			page 51


 2851              		.cfi_endproc
 2852              	.LFE278:
 2853              		.size	mcpwm_Set_RunStop, .-mcpwm_Set_RunStop
 2854              		.section	.text.mcpwm_Get_Control,"ax",%progbits
 2855              		.align	2
 2856              		.p2align 4,,15
 2857              		.global	mcpwm_Get_Control
 2858              		.thumb
 2859              		.thumb_func
 2860              		.type	mcpwm_Get_Control, %function
 2861              	mcpwm_Get_Control:
 2862              	.LFB279:
 2863              		.loc 1 1297 0
 2864              		.cfi_startproc
 2865              		@ args = 0, pretend = 0, frame = 0
 2866              		@ frame_needed = 0, uses_anonymous_args = 0
 2867              		@ link register save eliminated.
 2868              		.loc 1 1298 0
 2869 0000 014B     		ldr	r3, .L178
 2870              		.loc 1 1299 0
 2871 0002 1888     		ldrh	r0, [r3]
 2872 0004 7047     		bx	lr
 2873              	.L179:
 2874 0006 00BF     		.align	2
 2875              	.L178:
 2876 0008 00000000 		.word	.LANCHOR17
 2877              		.cfi_endproc
 2878              	.LFE279:
 2879              		.size	mcpwm_Get_Control, .-mcpwm_Get_Control
 2880              		.section	.text.mcpwm_Set_Velocity,"ax",%progbits
 2881              		.align	2
 2882              		.p2align 4,,15
 2883              		.global	mcpwm_Set_Velocity
 2884              		.thumb
 2885              		.thumb_func
 2886              		.type	mcpwm_Set_Velocity, %function
 2887              	mcpwm_Set_Velocity:
 2888              	.LFB280:
 2889              		.loc 1 1302 0
 2890              		.cfi_startproc
 2891              		@ args = 0, pretend = 0, frame = 0
 2892              		@ frame_needed = 0, uses_anonymous_args = 0
 2893              		@ link register save eliminated.
 2894              	.LVL167:
 2895              		.loc 1 1303 0
 2896 0000 014B     		ldr	r3, .L181
 2897 0002 83ED000A 		vstr.32	s0, [r3]
 2898 0006 7047     		bx	lr
 2899              	.L182:
 2900              		.align	2
 2901              	.L181:
 2902 0008 00000000 		.word	.LANCHOR21
 2903              		.cfi_endproc
 2904              	.LFE280:
 2905              		.size	mcpwm_Set_Velocity, .-mcpwm_Set_Velocity
 2906              		.section	.text.mcpwm_Get_CtrlParm,"ax",%progbits
 2907              		.align	2
ARM GAS  C:\Users\IDONNO~1\AppData\Local\Temp\ccm1q34l.s 			page 52


 2908              		.p2align 4,,15
 2909              		.global	mcpwm_Get_CtrlParm
 2910              		.thumb
 2911              		.thumb_func
 2912              		.type	mcpwm_Get_CtrlParm, %function
 2913              	mcpwm_Get_CtrlParm:
 2914              	.LFB281:
 2915              		.loc 1 1307 0
 2916              		.cfi_startproc
 2917              		@ args = 0, pretend = 0, frame = 32
 2918              		@ frame_needed = 0, uses_anonymous_args = 0
 2919              		@ link register save eliminated.
 2920              		.loc 1 1308 0
 2921 0000 074B     		ldr	r3, .L185
 2922 0002 93E80700 		ldmia	r3, {r0, r1, r2}
 2923              		.loc 1 1307 0
 2924 0006 88B0     		sub	sp, sp, #32
 2925              		.cfi_def_cfa_offset 32
 2926              		.loc 1 1308 0
 2927 0008 08AB     		add	r3, sp, #32
 2928 000a 03E90700 		stmdb	r3, {r0, r1, r2}
 2929              		.loc 1 1309 0
 2930 000e 9DED050A 		vldr.32	s0, [sp, #20]
 2931 0012 DDED060A 		vldr.32	s1, [sp, #24]
 2932 0016 9DED071A 		vldr.32	s2, [sp, #28]
 2933 001a 08B0     		add	sp, sp, #32
 2934              		.cfi_def_cfa_offset 0
 2935              		@ sp needed
 2936 001c 7047     		bx	lr
 2937              	.L186:
 2938 001e 00BF     		.align	2
 2939              	.L185:
 2940 0020 00000000 		.word	.LANCHOR21
 2941              		.cfi_endproc
 2942              	.LFE281:
 2943              		.size	mcpwm_Get_CtrlParm, .-mcpwm_Get_CtrlParm
 2944              		.global	sin3th
 2945              		.global	cos3th
 2946              		.global	ANF_PLLB
 2947              		.global	ANF_PLLA
 2948              		.global	Bcos3th
 2949              		.global	Bsin3th
 2950              		.global	Acos3th
 2951              		.global	Asin3th
 2952              		.global	sinth
 2953              		.global	costh
 2954              		.global	Gamma
 2955              		.global	Hall_CosSin
 2956              		.global	Hall_SinCos
 2957              		.global	HallPLLB_filtered
 2958              		.global	HallPLLA_filtered
 2959              		.global	HallPLLB_old
 2960              		.global	HallPLLA_old
 2961              		.global	HallPLLB_cos3th_Integral
 2962              		.global	HallPLLB_sin3th_Integral
 2963              		.global	HallPLLA_sin3th_Integral
 2964              		.global	HallPLLA_cos3th_Integral
ARM GAS  C:\Users\IDONNO~1\AppData\Local\Temp\ccm1q34l.s 			page 53


 2965              		.global	HallPLLB_cos3th
 2966              		.global	HallPLLB_sin3th
 2967              		.global	HallPLLA_sin3th
 2968              		.global	HallPLLA_cos3th
 2969              		.global	HallPLLB
 2970              		.global	HallPLLA1
 2971              		.global	HallPLLA
 2972              		.global	Ipll
 2973              		.global	Kpll
 2974              		.global	Wplli
 2975              		.global	Wpllp
 2976              		.global	Wpll1
 2977              		.global	Wpll
 2978              		.global	HallPLLdef1
 2979              		.global	HallPLLdef
 2980              		.global	HallPLLde1
 2981              		.global	HallPLLde
 2982              		.global	HallPLLqe
 2983              		.global	HallPLLlead2
 2984              		.global	HallPLLlead1
 2985              		.global	HallPLLlead
 2986              		.global	AccumThetaCnt
 2987              		.global	AccumTheta
 2988              		.global	switching_frequency_now
 2989              		.global	SpeedReference
 2990              		.global	FdWeakParm
 2991              		.global	SVGenParm
 2992              		.global	CtrlParm
 2993              		.global	PIParmPLL
 2994              		.global	PIParmW
 2995              		.global	PIParmQ
 2996              		.global	PIParmD
 2997              		.global	ParkParm
 2998              		.global	ADC_Value
 2999              		.global	smc1
 3000              		.global	VelReq
 3001              		.global	count
 3002              		.global	uGF
 3003              		.section	.bss.Asin3th,"aw",%nobits
 3004              		.align	2
 3005              		.set	.LANCHOR37,. + 0
 3006              		.type	Asin3th, %object
 3007              		.size	Asin3th, 4
 3008              	Asin3th:
 3009 0000 00000000 		.space	4
 3010              		.section	.bss.ADC_Value,"aw",%nobits
 3011              		.align	2
 3012              		.set	.LANCHOR3,. + 0
 3013              		.type	ADC_Value, %object
 3014              		.size	ADC_Value, 24
 3015              	ADC_Value:
 3016 0000 00000000 		.space	24
 3016      00000000 
 3016      00000000 
 3016      00000000 
 3016      00000000 
 3017              		.section	.bss.CtrlParm,"aw",%nobits
ARM GAS  C:\Users\IDONNO~1\AppData\Local\Temp\ccm1q34l.s 			page 54


 3018              		.align	2
 3019              		.set	.LANCHOR21,. + 0
 3020              		.type	CtrlParm, %object
 3021              		.size	CtrlParm, 12
 3022              	CtrlParm:
 3023 0000 00000000 		.space	12
 3023      00000000 
 3023      00000000 
 3024              		.section	.bss.PIParmD,"aw",%nobits
 3025              		.align	2
 3026              		.set	.LANCHOR7,. + 0
 3027              		.type	PIParmD, %object
 3028              		.size	PIParmD, 36
 3029              	PIParmD:
 3030 0000 00000000 		.space	36
 3030      00000000 
 3030      00000000 
 3030      00000000 
 3030      00000000 
 3031              		.section	.bss.HallPLLA_cos3th_Integral,"aw",%nobits
 3032              		.align	2
 3033              		.set	.LANCHOR33,. + 0
 3034              		.type	HallPLLA_cos3th_Integral, %object
 3035              		.size	HallPLLA_cos3th_Integral, 4
 3036              	HallPLLA_cos3th_Integral:
 3037 0000 00000000 		.space	4
 3038              		.section	.bss.HallPLLA1,"aw",%nobits
 3039              		.align	2
 3040              		.type	HallPLLA1, %object
 3041              		.size	HallPLLA1, 4
 3042              	HallPLLA1:
 3043 0000 00000000 		.space	4
 3044              		.section	.bss.Acos3th,"aw",%nobits
 3045              		.align	2
 3046              		.set	.LANCHOR38,. + 0
 3047              		.type	Acos3th, %object
 3048              		.size	Acos3th, 4
 3049              	Acos3th:
 3050 0000 00000000 		.space	4
 3051              		.section	.bss.HallPLLde1,"aw",%nobits
 3052              		.align	2
 3053              		.type	HallPLLde1, %object
 3054              		.size	HallPLLde1, 4
 3055              	HallPLLde1:
 3056 0000 00000000 		.space	4
 3057              		.section	.bss.curr1_sum,"aw",%nobits
 3058              		.align	2
 3059              		.set	.LANCHOR15,. + 0
 3060              		.type	curr1_sum, %object
 3061              		.size	curr1_sum, 4
 3062              	curr1_sum:
 3063 0000 00000000 		.space	4
 3064              		.section	.bss.HallPLLB_sin3th_Integral,"aw",%nobits
 3065              		.align	2
 3066              		.set	.LANCHOR35,. + 0
 3067              		.type	HallPLLB_sin3th_Integral, %object
 3068              		.size	HallPLLB_sin3th_Integral, 4
ARM GAS  C:\Users\IDONNO~1\AppData\Local\Temp\ccm1q34l.s 			page 55


 3069              	HallPLLB_sin3th_Integral:
 3070 0000 00000000 		.space	4
 3071              		.section	.bss.Bsin3th,"aw",%nobits
 3072              		.align	2
 3073              		.set	.LANCHOR39,. + 0
 3074              		.type	Bsin3th, %object
 3075              		.size	Bsin3th, 4
 3076              	Bsin3th:
 3077 0000 00000000 		.space	4
 3078              		.section	.bss.PIParmW,"aw",%nobits
 3079              		.align	2
 3080              		.set	.LANCHOR9,. + 0
 3081              		.type	PIParmW, %object
 3082              		.size	PIParmW, 36
 3083              	PIParmW:
 3084 0000 00000000 		.space	36
 3084      00000000 
 3084      00000000 
 3084      00000000 
 3084      00000000 
 3085              		.section	.bss.HallPLLlead1,"aw",%nobits
 3086              		.align	2
 3087              		.type	HallPLLlead1, %object
 3088              		.size	HallPLLlead1, 4
 3089              	HallPLLlead1:
 3090 0000 00000000 		.space	4
 3091              		.section	.bss.PIParmQ,"aw",%nobits
 3092              		.align	2
 3093              		.set	.LANCHOR8,. + 0
 3094              		.type	PIParmQ, %object
 3095              		.size	PIParmQ, 36
 3096              	PIParmQ:
 3097 0000 00000000 		.space	36
 3097      00000000 
 3097      00000000 
 3097      00000000 
 3097      00000000 
 3098              		.section	.data.Kpll,"aw",%progbits
 3099              		.align	2
 3100              		.type	Kpll, %object
 3101              		.size	Kpll, 4
 3102              	Kpll:
 3103 0000 D122DB3E 		.word	1054548689
 3104              		.section	.bss.HallPLLdef1,"aw",%nobits
 3105              		.align	2
 3106              		.type	HallPLLdef1, %object
 3107              		.size	HallPLLdef1, 4
 3108              	HallPLLdef1:
 3109 0000 00000000 		.space	4
 3110              		.section	.bss.uGF,"aw",%nobits
 3111              		.align	2
 3112              		.set	.LANCHOR17,. + 0
 3113              		.type	uGF, %object
 3114              		.size	uGF, 4
 3115              	uGF:
 3116 0000 00000000 		.space	4
 3117              		.section	.data.switching_frequency_now,"aw",%progbits
ARM GAS  C:\Users\IDONNO~1\AppData\Local\Temp\ccm1q34l.s 			page 56


 3118              		.align	2
 3119              		.set	.LANCHOR13,. + 0
 3120              		.type	switching_frequency_now, %object
 3121              		.size	switching_frequency_now, 4
 3122              	switching_frequency_now:
 3123 0000 803E0000 		.word	16000
 3124              		.section	.bss.curr_start_samples,"aw",%nobits
 3125              		.align	2
 3126              		.set	.LANCHOR16,. + 0
 3127              		.type	curr_start_samples, %object
 3128              		.size	curr_start_samples, 4
 3129              	curr_start_samples:
 3130 0000 00000000 		.space	4
 3131              		.section	.bss.Hall_CosSin,"aw",%nobits
 3132              		.align	2
 3133              		.set	.LANCHOR46,. + 0
 3134              		.type	Hall_CosSin, %object
 3135              		.size	Hall_CosSin, 4
 3136              	Hall_CosSin:
 3137 0000 00000000 		.space	4
 3138              		.section	.bss.dccal_done,"aw",%nobits
 3139              		.set	.LANCHOR12,. + 0
 3140              		.type	dccal_done, %object
 3141              		.size	dccal_done, 1
 3142              	dccal_done:
 3143 0000 00       		.space	1
 3144              		.section	.bss.Hall_Err0,"aw",%nobits
 3145              		.align	2
 3146              		.set	.LANCHOR47,. + 0
 3147              		.type	Hall_Err0, %object
 3148              		.size	Hall_Err0, 4
 3149              	Hall_Err0:
 3150 0000 00000000 		.space	4
 3151              		.section	.bss.curr0_offset,"aw",%nobits
 3152              		.align	2
 3153              		.set	.LANCHOR1,. + 0
 3154              		.type	curr0_offset, %object
 3155              		.size	curr0_offset, 4
 3156              	curr0_offset:
 3157 0000 00000000 		.space	4
 3158              		.section	.bss.Wpll1,"aw",%nobits
 3159              		.align	2
 3160              		.type	Wpll1, %object
 3161              		.size	Wpll1, 4
 3162              	Wpll1:
 3163 0000 00000000 		.space	4
 3164              		.section	.bss.HallPLLB_cos3th,"aw",%nobits
 3165              		.align	2
 3166              		.set	.LANCHOR31,. + 0
 3167              		.type	HallPLLB_cos3th, %object
 3168              		.size	HallPLLB_cos3th, 4
 3169              	HallPLLB_cos3th:
 3170 0000 00000000 		.space	4
 3171              		.section	.bss.Futi,"aw",%nobits
 3172              		.align	2
 3173              		.type	Futi, %object
 3174              		.size	Futi, 4
ARM GAS  C:\Users\IDONNO~1\AppData\Local\Temp\ccm1q34l.s 			page 57


 3175              	Futi:
 3176 0000 00000000 		.space	4
 3177              		.section	.bss.sin3th,"aw",%nobits
 3178              		.align	2
 3179              		.set	.LANCHOR27,. + 0
 3180              		.type	sin3th, %object
 3181              		.size	sin3th, 4
 3182              	sin3th:
 3183 0000 00000000 		.space	4
 3184              		.section	.bss.ANF_PLLA,"aw",%nobits
 3185              		.align	2
 3186              		.set	.LANCHOR41,. + 0
 3187              		.type	ANF_PLLA, %object
 3188              		.size	ANF_PLLA, 4
 3189              	ANF_PLLA:
 3190 0000 00000000 		.space	4
 3191              		.section	.bss.count,"aw",%nobits
 3192              		.align	2
 3193              		.type	count, %object
 3194              		.size	count, 4
 3195              	count:
 3196 0000 00000000 		.space	4
 3197              		.section	.bss.HallPLLdef,"aw",%nobits
 3198              		.align	2
 3199              		.type	HallPLLdef, %object
 3200              		.size	HallPLLdef, 4
 3201              	HallPLLdef:
 3202 0000 00000000 		.space	4
 3203              		.section	.bss.Wplli,"aw",%nobits
 3204              		.align	2
 3205              		.type	Wplli, %object
 3206              		.size	Wplli, 4
 3207              	Wplli:
 3208 0000 00000000 		.space	4
 3209              		.section	.bss.Hall_SinCos,"aw",%nobits
 3210              		.align	2
 3211              		.set	.LANCHOR45,. + 0
 3212              		.type	Hall_SinCos, %object
 3213              		.size	Hall_SinCos, 4
 3214              	Hall_SinCos:
 3215 0000 00000000 		.space	4
 3216              		.section	.bss.HallPLLde,"aw",%nobits
 3217              		.align	2
 3218              		.type	HallPLLde, %object
 3219              		.size	HallPLLde, 4
 3220              	HallPLLde:
 3221 0000 00000000 		.space	4
 3222              		.section	.bss.PIParmPLL,"aw",%nobits
 3223              		.align	2
 3224              		.set	.LANCHOR10,. + 0
 3225              		.type	PIParmPLL, %object
 3226              		.size	PIParmPLL, 36
 3227              	PIParmPLL:
 3228 0000 00000000 		.space	36
 3228      00000000 
 3228      00000000 
 3228      00000000 
ARM GAS  C:\Users\IDONNO~1\AppData\Local\Temp\ccm1q34l.s 			page 58


 3228      00000000 
 3229              		.section	.bss.SpeedReference,"aw",%nobits
 3230              		.align	2
 3231              		.type	SpeedReference, %object
 3232              		.size	SpeedReference, 4
 3233              	SpeedReference:
 3234 0000 00000000 		.space	4
 3235              		.section	.bss.HallPLLA_cos3th,"aw",%nobits
 3236              		.align	2
 3237              		.set	.LANCHOR30,. + 0
 3238              		.type	HallPLLA_cos3th, %object
 3239              		.size	HallPLLA_cos3th, 4
 3240              	HallPLLA_cos3th:
 3241 0000 00000000 		.space	4
 3242              		.section	.bss.ANF_PLLB,"aw",%nobits
 3243              		.align	2
 3244              		.set	.LANCHOR42,. + 0
 3245              		.type	ANF_PLLB, %object
 3246              		.size	ANF_PLLB, 4
 3247              	ANF_PLLB:
 3248 0000 00000000 		.space	4
 3249              		.section	.bss.HallPLLA_sin3th_Integral,"aw",%nobits
 3250              		.align	2
 3251              		.set	.LANCHOR34,. + 0
 3252              		.type	HallPLLA_sin3th_Integral, %object
 3253              		.size	HallPLLA_sin3th_Integral, 4
 3254              	HallPLLA_sin3th_Integral:
 3255 0000 00000000 		.space	4
 3256              		.section	.bss.sinth,"aw",%nobits
 3257              		.align	2
 3258              		.set	.LANCHOR44,. + 0
 3259              		.type	sinth, %object
 3260              		.size	sinth, 4
 3261              	sinth:
 3262 0000 00000000 		.space	4
 3263              		.section	.bss.qVdSquared,"aw",%nobits
 3264              		.align	2
 3265              		.set	.LANCHOR22,. + 0
 3266              		.type	qVdSquared, %object
 3267              		.size	qVdSquared, 4
 3268              	qVdSquared:
 3269 0000 00000000 		.space	4
 3270              		.section	.bss.DCbus,"aw",%nobits
 3271              		.align	2
 3272              		.set	.LANCHOR18,. + 0
 3273              		.type	DCbus, %object
 3274              		.size	DCbus, 4
 3275              	DCbus:
 3276 0000 00000000 		.space	4
 3277              		.section	.bss.Hall_KA,"aw",%nobits
 3278              		.align	2
 3279              		.type	Hall_KA, %object
 3280              		.size	Hall_KA, 4
 3281              	Hall_KA:
 3282 0000 00000000 		.space	4
 3283              		.section	.bss.Hall_KB,"aw",%nobits
 3284              		.align	2
ARM GAS  C:\Users\IDONNO~1\AppData\Local\Temp\ccm1q34l.s 			page 59


 3285              		.type	Hall_KB, %object
 3286              		.size	Hall_KB, 4
 3287              	Hall_KB:
 3288 0000 00000000 		.space	4
 3289              		.section	.bss.FdWeakParm,"aw",%nobits
 3290              		.align	2
 3291              		.type	FdWeakParm, %object
 3292              		.size	FdWeakParm, 92
 3293              	FdWeakParm:
 3294 0000 00000000 		.space	92
 3294      00000000 
 3294      00000000 
 3294      00000000 
 3294      00000000 
 3295              		.section	.bss.TargetDCbus,"aw",%nobits
 3296              		.align	2
 3297              		.set	.LANCHOR4,. + 0
 3298              		.type	TargetDCbus, %object
 3299              		.size	TargetDCbus, 4
 3300              	TargetDCbus:
 3301 0000 00000000 		.space	4
 3302              		.section	.bss.Bcos3th,"aw",%nobits
 3303              		.align	2
 3304              		.set	.LANCHOR40,. + 0
 3305              		.type	Bcos3th, %object
 3306              		.size	Bcos3th, 4
 3307              	Bcos3th:
 3308 0000 00000000 		.space	4
 3309              		.section	.bss.AccumThetaCnt,"aw",%nobits
 3310              		.align	1
 3311              		.set	.LANCHOR19,. + 0
 3312              		.type	AccumThetaCnt, %object
 3313              		.size	AccumThetaCnt, 2
 3314              	AccumThetaCnt:
 3315 0000 0000     		.space	2
 3316              		.section	.bss.HallPLLlead,"aw",%nobits
 3317              		.align	2
 3318              		.type	HallPLLlead, %object
 3319              		.size	HallPLLlead, 4
 3320              	HallPLLlead:
 3321 0000 00000000 		.space	4
 3322              		.section	.bss.ThetaCal,"aw",%nobits
 3323              		.align	2
 3324              		.type	ThetaCal, %object
 3325              		.size	ThetaCal, 4
 3326              	ThetaCal:
 3327 0000 00000000 		.space	4
 3328              		.section	.bss.HallPLLB_cos3th_Integral,"aw",%nobits
 3329              		.align	2
 3330              		.set	.LANCHOR36,. + 0
 3331              		.type	HallPLLB_cos3th_Integral, %object
 3332              		.size	HallPLLB_cos3th_Integral, 4
 3333              	HallPLLB_cos3th_Integral:
 3334 0000 00000000 		.space	4
 3335              		.section	.bss.Theta,"aw",%nobits
 3336              		.align	2
 3337              		.set	.LANCHOR25,. + 0
ARM GAS  C:\Users\IDONNO~1\AppData\Local\Temp\ccm1q34l.s 			page 60


 3338              		.type	Theta, %object
 3339              		.size	Theta, 4
 3340              	Theta:
 3341 0000 00000000 		.space	4
 3342              		.section	.bss.HallPLLB_filtered,"aw",%nobits
 3343              		.align	2
 3344              		.type	HallPLLB_filtered, %object
 3345              		.size	HallPLLB_filtered, 4
 3346              	HallPLLB_filtered:
 3347 0000 00000000 		.space	4
 3348              		.section	.bss.VelReq,"aw",%nobits
 3349              		.align	2
 3350              		.type	VelReq, %object
 3351              		.size	VelReq, 4
 3352              	VelReq:
 3353 0000 00000000 		.space	4
 3354              		.section	.bss.smc1,"aw",%nobits
 3355              		.align	2
 3356              		.set	.LANCHOR20,. + 0
 3357              		.type	smc1, %object
 3358              		.size	smc1, 100
 3359              	smc1:
 3360 0000 00000000 		.space	100
 3360      00000000 
 3360      00000000 
 3360      00000000 
 3360      00000000 
 3361              		.section	.bss.ParkParm,"aw",%nobits
 3362              		.align	2
 3363              		.set	.LANCHOR6,. + 0
 3364              		.type	ParkParm, %object
 3365              		.size	ParkParm, 64
 3366              	ParkParm:
 3367 0000 00000000 		.space	64
 3367      00000000 
 3367      00000000 
 3367      00000000 
 3367      00000000 
 3368              		.section	.bss.costh,"aw",%nobits
 3369              		.align	2
 3370              		.set	.LANCHOR43,. + 0
 3371              		.type	costh, %object
 3372              		.size	costh, 4
 3373              	costh:
 3374 0000 00000000 		.space	4
 3375              		.section	.bss.HallPLLA_old,"aw",%nobits
 3376              		.align	2
 3377              		.type	HallPLLA_old, %object
 3378              		.size	HallPLLA_old, 4
 3379              	HallPLLA_old:
 3380 0000 00000000 		.space	4
 3381              		.section	.bss.Wpllp,"aw",%nobits
 3382              		.align	2
 3383              		.type	Wpllp, %object
 3384              		.size	Wpllp, 4
 3385              	Wpllp:
 3386 0000 00000000 		.space	4
ARM GAS  C:\Users\IDONNO~1\AppData\Local\Temp\ccm1q34l.s 			page 61


 3387              		.section	.bss.SVGenParm,"aw",%nobits
 3388              		.align	2
 3389              		.set	.LANCHOR5,. + 0
 3390              		.type	SVGenParm, %object
 3391              		.size	SVGenParm, 36
 3392              	SVGenParm:
 3393 0000 00000000 		.space	36
 3393      00000000 
 3393      00000000 
 3393      00000000 
 3393      00000000 
 3394              		.section	.data.Ipll,"aw",%progbits
 3395              		.align	2
 3396              		.type	Ipll, %object
 3397              		.size	Ipll, 4
 3398              	Ipll:
 3399 0000 D7A3E641 		.word	1105634263
 3400              		.section	.bss.HallPLLqe,"aw",%nobits
 3401              		.align	2
 3402              		.type	HallPLLqe, %object
 3403              		.size	HallPLLqe, 4
 3404              	HallPLLqe:
 3405 0000 00000000 		.space	4
 3406              		.section	.bss.HallPLLB_sin3th,"aw",%nobits
 3407              		.align	2
 3408              		.set	.LANCHOR32,. + 0
 3409              		.type	HallPLLB_sin3th, %object
 3410              		.size	HallPLLB_sin3th, 4
 3411              	HallPLLB_sin3th:
 3412 0000 00000000 		.space	4
 3413              		.section	.bss.cos3th,"aw",%nobits
 3414              		.align	2
 3415              		.set	.LANCHOR26,. + 0
 3416              		.type	cos3th, %object
 3417              		.size	cos3th, 4
 3418              	cos3th:
 3419 0000 00000000 		.space	4
 3420              		.section	.bss.HallPLLA_filtered,"aw",%nobits
 3421              		.align	2
 3422              		.type	HallPLLA_filtered, %object
 3423              		.size	HallPLLA_filtered, 4
 3424              	HallPLLA_filtered:
 3425 0000 00000000 		.space	4
 3426              		.section	.bss.curr1_offset,"aw",%nobits
 3427              		.align	2
 3428              		.set	.LANCHOR2,. + 0
 3429              		.type	curr1_offset, %object
 3430              		.size	curr1_offset, 4
 3431              	curr1_offset:
 3432 0000 00000000 		.space	4
 3433              		.section	.bss.curr0_sum,"aw",%nobits
 3434              		.align	2
 3435              		.set	.LANCHOR14,. + 0
 3436              		.type	curr0_sum, %object
 3437              		.size	curr0_sum, 4
 3438              	curr0_sum:
 3439 0000 00000000 		.space	4
ARM GAS  C:\Users\IDONNO~1\AppData\Local\Temp\ccm1q34l.s 			page 62


 3440              		.section	.bss.AccumTheta,"aw",%nobits
 3441              		.align	2
 3442              		.type	AccumTheta, %object
 3443              		.size	AccumTheta, 4
 3444              	AccumTheta:
 3445 0000 00000000 		.space	4
 3446              		.section	.bss.HallPLLB_old,"aw",%nobits
 3447              		.align	2
 3448              		.type	HallPLLB_old, %object
 3449              		.size	HallPLLB_old, 4
 3450              	HallPLLB_old:
 3451 0000 00000000 		.space	4
 3452              		.section	.bss.Hall_PIout,"aw",%nobits
 3453              		.align	2
 3454              		.set	.LANCHOR48,. + 0
 3455              		.type	Hall_PIout, %object
 3456              		.size	Hall_PIout, 4
 3457              	Hall_PIout:
 3458 0000 00000000 		.space	4
 3459              		.section	.bss.fault_now,"aw",%nobits
 3460              		.set	.LANCHOR11,. + 0
 3461              		.type	fault_now, %object
 3462              		.size	fault_now, 1
 3463              	fault_now:
 3464 0000 00       		.space	1
 3465              		.section	.bss.HallPLLlead2,"aw",%nobits
 3466              		.align	2
 3467              		.type	HallPLLlead2, %object
 3468              		.size	HallPLLlead2, 4
 3469              	HallPLLlead2:
 3470 0000 00000000 		.space	4
 3471              		.section	.bss.HallPLLA,"aw",%nobits
 3472              		.align	2
 3473              		.set	.LANCHOR23,. + 0
 3474              		.type	HallPLLA, %object
 3475              		.size	HallPLLA, 4
 3476              	HallPLLA:
 3477 0000 00000000 		.space	4
 3478              		.section	.bss.HallPLLB,"aw",%nobits
 3479              		.align	2
 3480              		.set	.LANCHOR24,. + 0
 3481              		.type	HallPLLB, %object
 3482              		.size	HallPLLB, 4
 3483              	HallPLLB:
 3484 0000 00000000 		.space	4
 3485              		.section	.bss.MeasCurrParm,"aw",%nobits
 3486              		.align	2
 3487              		.set	.LANCHOR0,. + 0
 3488              		.type	MeasCurrParm, %object
 3489              		.size	MeasCurrParm, 16
 3490              	MeasCurrParm:
 3491 0000 00000000 		.space	16
 3491      00000000 
 3491      00000000 
 3491      00000000 
 3492              		.section	.data.Gamma,"aw",%progbits
 3493              		.align	2
ARM GAS  C:\Users\IDONNO~1\AppData\Local\Temp\ccm1q34l.s 			page 63


 3494              		.set	.LANCHOR28,. + 0
 3495              		.type	Gamma, %object
 3496              		.size	Gamma, 4
 3497              	Gamma:
 3498 0000 0000803F 		.word	1065353216
 3499              		.section	.bss.HallPLLA_sin3th,"aw",%nobits
 3500              		.align	2
 3501              		.set	.LANCHOR29,. + 0
 3502              		.type	HallPLLA_sin3th, %object
 3503              		.size	HallPLLA_sin3th, 4
 3504              	HallPLLA_sin3th:
 3505 0000 00000000 		.space	4
 3506              		.section	.bss.Wpll,"aw",%nobits
 3507              		.align	2
 3508              		.type	Wpll, %object
 3509              		.size	Wpll, 4
 3510              	Wpll:
 3511 0000 00000000 		.space	4
 3512              		.text
 3513              	.Letext0:
 3514              		.file 3 "c:\\program files (x86)\\gnu tools arm embedded\\5.2 2015q4\\lib\\gcc\\arm-none-eabi\\5.2
 3515              		.file 4 "c:\\program files (x86)\\gnu tools arm embedded\\5.2 2015q4\\arm-none-eabi\\include\\mach
 3516              		.file 5 "c:\\program files (x86)\\gnu tools arm embedded\\5.2 2015q4\\arm-none-eabi\\include\\sys\
 3517              		.file 6 "lib/ChibiOS_3.0.2/os/rt/ports/ARMCMx/compilers/GCC/chtypes.h"
 3518              		.file 7 "lib/ChibiOS_3.0.2/os/rt/include/chsystypes.h"
 3519              		.file 8 "lib/ChibiOS_3.0.2/os/rt/include/chschd.h"
 3520              		.file 9 "lib/ChibiOS_3.0.2/os/ext/CMSIS/ST/stm32f407xx.h"
 3521              		.file 10 "lib/ChibiOS_3.0.2/os/ext/CMSIS/ST/stm32f4xx.h"
 3522              		.file 11 "lib/ChibiOS_3.0.2/os/rt/ports/ARMCMx/chcore.h"
 3523              		.file 12 "lib/ChibiOS_3.0.2/os/rt/ports/ARMCMx/chcore_v7m.h"
 3524              		.file 13 "lib/ChibiOS_3.0.2/os/rt/include/chtm.h"
 3525              		.file 14 "lib/ChibiOS_3.0.2/os/rt/include/chsem.h"
 3526              		.file 15 "lib/ChibiOS_3.0.2/os/rt/include/chmtx.h"
 3527              		.file 16 "lib/ChibiOS_3.0.2/os/hal/ports/STM32/STM32F4xx/stm32_dma.h"
 3528              		.file 17 "lib/ChibiOS_3.0.2/os/hal/ports/STM32/LLD/GPIOv2/pal_lld.h"
 3529              		.file 18 "lib/ChibiOS_3.0.2/ext/stdperiph_stm32f4/inc/misc.h"
 3530              		.file 19 "lib/ChibiOS_3.0.2/ext/stdperiph_stm32f4/inc/stm32f4xx_dma.h"
 3531              		.file 20 "lib/ChibiOS_3.0.2/ext/stdperiph_stm32f4/inc/stm32f4xx_adc.h"
 3532              		.file 21 "lib/ChibiOS_3.0.2/ext/stdperiph_stm32f4/inc/stm32f4xx_tim.h"
 3533              		.file 22 "c:\\program files (x86)\\gnu tools arm embedded\\5.2 2015q4\\arm-none-eabi\\include\\sys
 3534              		.file 23 "c:\\program files (x86)\\gnu tools arm embedded\\5.2 2015q4\\arm-none-eabi\\include\\sys
 3535              		.file 24 "c:\\program files (x86)\\gnu tools arm embedded\\5.2 2015q4\\arm-none-eabi\\include\\sys
 3536              		.file 25 "c:\\program files (x86)\\gnu tools arm embedded\\5.2 2015q4\\arm-none-eabi\\include\\std
 3537              		.file 26 "src/core/datatypes.h"
 3538              		.file 27 "src/bldc/mcpwm.h"
 3539              		.file 28 "lib/ChibiOS_3.0.2/ext/stdperiph_stm32f4/inc/stm32f4xx_wwdg.h"
 3540              		.file 29 "c:\\program files (x86)\\gnu tools arm embedded\\5.2 2015q4\\arm-none-eabi\\include\\mat
 3541              		.file 30 "lib/ChibiOS_3.0.2/os/rt/include/chthreads.h"
 3542              		.file 31 "src/core/utils.h"
 3543              		.file 32 "lib/ChibiOS_3.0.2/ext/stdperiph_stm32f4/inc/stm32f4xx_rcc.h"
 3544              		.file 33 "lib/hwconf/hw.h"
 3545              		.section	.debug_info,"",%progbits
 3546              	.Ldebug_info0:
 3547 0000 013B0000 		.4byte	0x3b01
 3548 0004 0400     		.2byte	0x4
 3549 0006 00000000 		.4byte	.Ldebug_abbrev0
 3550 000a 04       		.byte	0x4
ARM GAS  C:\Users\IDONNO~1\AppData\Local\Temp\ccm1q34l.s 			page 64


 3551 000b 01       		.uleb128 0x1
 3552 000c 66210000 		.4byte	.LASF754
 3553 0010 0C       		.byte	0xc
 3554 0011 5B1B0000 		.4byte	.LASF755
 3555 0015 27080000 		.4byte	.LASF756
 3556 0019 80000000 		.4byte	.Ldebug_ranges0+0x80
 3557 001d 00000000 		.4byte	0
 3558 0021 00000000 		.4byte	.Ldebug_line0
 3559 0025 02       		.uleb128 0x2
 3560 0026 04       		.byte	0x4
 3561 0027 04       		.byte	0x4
 3562 0028 FD080000 		.4byte	.LASF0
 3563 002c 03       		.uleb128 0x3
 3564 002d 04       		.byte	0x4
 3565 002e 05       		.byte	0x5
 3566 002f 696E7400 		.ascii	"int\000"
 3567 0033 04       		.uleb128 0x4
 3568 0034 E90B0000 		.4byte	.LASF2
 3569 0038 03       		.byte	0x3
 3570 0039 D8       		.byte	0xd8
 3571 003a 3E000000 		.4byte	0x3e
 3572 003e 02       		.uleb128 0x2
 3573 003f 04       		.byte	0x4
 3574 0040 07       		.byte	0x7
 3575 0041 B1230000 		.4byte	.LASF1
 3576 0045 04       		.uleb128 0x4
 3577 0046 FF220000 		.4byte	.LASF3
 3578 004a 04       		.byte	0x4
 3579 004b 1B       		.byte	0x1b
 3580 004c 50000000 		.4byte	0x50
 3581 0050 02       		.uleb128 0x2
 3582 0051 01       		.byte	0x1
 3583 0052 06       		.byte	0x6
 3584 0053 1A120000 		.4byte	.LASF4
 3585 0057 04       		.uleb128 0x4
 3586 0058 C8000000 		.4byte	.LASF5
 3587 005c 04       		.byte	0x4
 3588 005d 1D       		.byte	0x1d
 3589 005e 62000000 		.4byte	0x62
 3590 0062 02       		.uleb128 0x2
 3591 0063 01       		.byte	0x1
 3592 0064 08       		.byte	0x8
 3593 0065 8B080000 		.4byte	.LASF6
 3594 0069 02       		.uleb128 0x2
 3595 006a 02       		.byte	0x2
 3596 006b 05       		.byte	0x5
 3597 006c 12240000 		.4byte	.LASF7
 3598 0070 04       		.uleb128 0x4
 3599 0071 2B070000 		.4byte	.LASF8
 3600 0075 04       		.byte	0x4
 3601 0076 2B       		.byte	0x2b
 3602 0077 7B000000 		.4byte	0x7b
 3603 007b 02       		.uleb128 0x2
 3604 007c 02       		.byte	0x2
 3605 007d 07       		.byte	0x7
 3606 007e FA110000 		.4byte	.LASF9
 3607 0082 04       		.uleb128 0x4
ARM GAS  C:\Users\IDONNO~1\AppData\Local\Temp\ccm1q34l.s 			page 65


 3608 0083 461B0000 		.4byte	.LASF10
 3609 0087 04       		.byte	0x4
 3610 0088 3F       		.byte	0x3f
 3611 0089 8D000000 		.4byte	0x8d
 3612 008d 02       		.uleb128 0x2
 3613 008e 04       		.byte	0x4
 3614 008f 05       		.byte	0x5
 3615 0090 E4140000 		.4byte	.LASF11
 3616 0094 04       		.uleb128 0x4
 3617 0095 501B0000 		.4byte	.LASF12
 3618 0099 04       		.byte	0x4
 3619 009a 41       		.byte	0x41
 3620 009b 9F000000 		.4byte	0x9f
 3621 009f 02       		.uleb128 0x2
 3622 00a0 04       		.byte	0x4
 3623 00a1 07       		.byte	0x7
 3624 00a2 E7160000 		.4byte	.LASF13
 3625 00a6 02       		.uleb128 0x2
 3626 00a7 08       		.byte	0x8
 3627 00a8 05       		.byte	0x5
 3628 00a9 EF1F0000 		.4byte	.LASF14
 3629 00ad 04       		.uleb128 0x4
 3630 00ae 140E0000 		.4byte	.LASF15
 3631 00b2 04       		.byte	0x4
 3632 00b3 5B       		.byte	0x5b
 3633 00b4 B8000000 		.4byte	0xb8
 3634 00b8 02       		.uleb128 0x2
 3635 00b9 08       		.byte	0x8
 3636 00ba 07       		.byte	0x7
 3637 00bb B01D0000 		.4byte	.LASF16
 3638 00bf 04       		.uleb128 0x4
 3639 00c0 BF100000 		.4byte	.LASF17
 3640 00c4 05       		.byte	0x5
 3641 00c5 13       		.byte	0x13
 3642 00c6 45000000 		.4byte	0x45
 3643 00ca 04       		.uleb128 0x4
 3644 00cb 070C0000 		.4byte	.LASF18
 3645 00cf 05       		.byte	0x5
 3646 00d0 14       		.byte	0x14
 3647 00d1 57000000 		.4byte	0x57
 3648 00d5 04       		.uleb128 0x4
 3649 00d6 D6010000 		.4byte	.LASF19
 3650 00da 05       		.byte	0x5
 3651 00db 1A       		.byte	0x1a
 3652 00dc 70000000 		.4byte	0x70
 3653 00e0 04       		.uleb128 0x4
 3654 00e1 01040000 		.4byte	.LASF20
 3655 00e5 05       		.byte	0x5
 3656 00e6 1F       		.byte	0x1f
 3657 00e7 82000000 		.4byte	0x82
 3658 00eb 04       		.uleb128 0x4
 3659 00ec 33160000 		.4byte	.LASF21
 3660 00f0 05       		.byte	0x5
 3661 00f1 20       		.byte	0x20
 3662 00f2 94000000 		.4byte	0x94
 3663 00f6 04       		.uleb128 0x4
 3664 00f7 6F0A0000 		.4byte	.LASF22
ARM GAS  C:\Users\IDONNO~1\AppData\Local\Temp\ccm1q34l.s 			page 66


 3665 00fb 05       		.byte	0x5
 3666 00fc 26       		.byte	0x26
 3667 00fd AD000000 		.4byte	0xad
 3668 0101 05       		.uleb128 0x5
 3669 0102 CA000000 		.4byte	0xca
 3670 0106 05       		.uleb128 0x5
 3671 0107 D5000000 		.4byte	0xd5
 3672 010b 05       		.uleb128 0x5
 3673 010c E0000000 		.4byte	0xe0
 3674 0110 05       		.uleb128 0x5
 3675 0111 EB000000 		.4byte	0xeb
 3676 0115 04       		.uleb128 0x4
 3677 0116 660B0000 		.4byte	.LASF23
 3678 011a 06       		.byte	0x6
 3679 011b 45       		.byte	0x45
 3680 011c EB000000 		.4byte	0xeb
 3681 0120 04       		.uleb128 0x4
 3682 0121 B60F0000 		.4byte	.LASF24
 3683 0125 06       		.byte	0x6
 3684 0126 48       		.byte	0x48
 3685 0127 CA000000 		.4byte	0xca
 3686 012b 04       		.uleb128 0x4
 3687 012c 9B1E0000 		.4byte	.LASF25
 3688 0130 06       		.byte	0x6
 3689 0131 49       		.byte	0x49
 3690 0132 CA000000 		.4byte	0xca
 3691 0136 04       		.uleb128 0x4
 3692 0137 300F0000 		.4byte	.LASF26
 3693 013b 06       		.byte	0x6
 3694 013c 4A       		.byte	0x4a
 3695 013d CA000000 		.4byte	0xca
 3696 0141 04       		.uleb128 0x4
 3697 0142 4A110000 		.4byte	.LASF27
 3698 0146 06       		.byte	0x6
 3699 0147 4B       		.byte	0x4b
 3700 0148 CA000000 		.4byte	0xca
 3701 014c 04       		.uleb128 0x4
 3702 014d 6A060000 		.4byte	.LASF28
 3703 0151 06       		.byte	0x6
 3704 0152 4C       		.byte	0x4c
 3705 0153 EB000000 		.4byte	0xeb
 3706 0157 04       		.uleb128 0x4
 3707 0158 61000000 		.4byte	.LASF29
 3708 015c 06       		.byte	0x6
 3709 015d 4D       		.byte	0x4d
 3710 015e E0000000 		.4byte	0xe0
 3711 0162 04       		.uleb128 0x4
 3712 0163 A6160000 		.4byte	.LASF30
 3713 0167 06       		.byte	0x6
 3714 0168 4F       		.byte	0x4f
 3715 0169 EB000000 		.4byte	0xeb
 3716 016d 04       		.uleb128 0x4
 3717 016e 18190000 		.4byte	.LASF31
 3718 0172 06       		.byte	0x6
 3719 0173 51       		.byte	0x51
 3720 0174 E0000000 		.4byte	0xe0
 3721 0178 04       		.uleb128 0x4
ARM GAS  C:\Users\IDONNO~1\AppData\Local\Temp\ccm1q34l.s 			page 67


 3722 0179 17040000 		.4byte	.LASF32
 3723 017d 07       		.byte	0x7
 3724 017e 33       		.byte	0x33
 3725 017f EB000000 		.4byte	0xeb
 3726 0183 04       		.uleb128 0x4
 3727 0184 A8030000 		.4byte	.LASF33
 3728 0188 07       		.byte	0x7
 3729 0189 3F       		.byte	0x3f
 3730 018a 8E010000 		.4byte	0x18e
 3731 018e 06       		.uleb128 0x6
 3732 018f CA080000 		.4byte	.LASF55
 3733 0193 48       		.byte	0x48
 3734 0194 08       		.byte	0x8
 3735 0195 C2       		.byte	0xc2
 3736 0196 93020000 		.4byte	0x293
 3737 019a 07       		.uleb128 0x7
 3738 019b C70E0000 		.4byte	.LASF34
 3739 019f 08       		.byte	0x8
 3740 01a0 C3       		.byte	0xc3
 3741 01a1 9E020000 		.4byte	0x29e
 3742 01a5 00       		.byte	0
 3743 01a6 07       		.uleb128 0x7
 3744 01a7 1D0C0000 		.4byte	.LASF35
 3745 01ab 08       		.byte	0x8
 3746 01ac C5       		.byte	0xc5
 3747 01ad 9E020000 		.4byte	0x29e
 3748 01b1 04       		.byte	0x4
 3749 01b2 07       		.uleb128 0x7
 3750 01b3 0D0E0000 		.4byte	.LASF36
 3751 01b7 08       		.byte	0x8
 3752 01b8 C7       		.byte	0xc7
 3753 01b9 4C010000 		.4byte	0x14c
 3754 01bd 08       		.byte	0x8
 3755 01be 07       		.uleb128 0x7
 3756 01bf A8090000 		.4byte	.LASF37
 3757 01c3 08       		.byte	0x8
 3758 01c4 C8       		.byte	0xc8
 3759 01c5 FE0B0000 		.4byte	0xbfe
 3760 01c9 0C       		.byte	0xc
 3761 01ca 07       		.uleb128 0x7
 3762 01cb D9020000 		.4byte	.LASF38
 3763 01cf 08       		.byte	0x8
 3764 01d0 CA       		.byte	0xca
 3765 01d1 9E020000 		.4byte	0x29e
 3766 01d5 10       		.byte	0x10
 3767 01d6 07       		.uleb128 0x7
 3768 01d7 12210000 		.4byte	.LASF39
 3769 01db 08       		.byte	0x8
 3770 01dc CB       		.byte	0xcb
 3771 01dd 9E020000 		.4byte	0x29e
 3772 01e1 14       		.byte	0x14
 3773 01e2 07       		.uleb128 0x7
 3774 01e3 CA1E0000 		.4byte	.LASF40
 3775 01e7 08       		.byte	0x8
 3776 01e8 D2       		.byte	0xd2
 3777 01e9 430E0000 		.4byte	0xe43
 3778 01ed 18       		.byte	0x18
ARM GAS  C:\Users\IDONNO~1\AppData\Local\Temp\ccm1q34l.s 			page 68


 3779 01ee 07       		.uleb128 0x7
 3780 01ef 7E240000 		.4byte	.LASF41
 3781 01f3 08       		.byte	0x8
 3782 01f4 DD       		.byte	0xdd
 3783 01f5 2B010000 		.4byte	0x12b
 3784 01f9 1C       		.byte	0x1c
 3785 01fa 07       		.uleb128 0x7
 3786 01fb 251E0000 		.4byte	.LASF42
 3787 01ff 08       		.byte	0x8
 3788 0200 E1       		.byte	0xe1
 3789 0201 20010000 		.4byte	0x120
 3790 0205 1D       		.byte	0x1d
 3791 0206 07       		.uleb128 0x7
 3792 0207 C6140000 		.4byte	.LASF43
 3793 020b 08       		.byte	0x8
 3794 020c E6       		.byte	0xe6
 3795 020d 36010000 		.4byte	0x136
 3796 0211 1E       		.byte	0x1e
 3797 0212 07       		.uleb128 0x7
 3798 0213 44120000 		.4byte	.LASF44
 3799 0217 08       		.byte	0x8
 3800 0218 EC       		.byte	0xec
 3801 0219 41010000 		.4byte	0x141
 3802 021d 1F       		.byte	0x1f
 3803 021e 07       		.uleb128 0x7
 3804 021f 70120000 		.4byte	.LASF45
 3805 0223 08       		.byte	0x8
 3806 0224 F3       		.byte	0xf3
 3807 0225 550E0000 		.4byte	0xe55
 3808 0229 20       		.byte	0x20
 3809 022a 08       		.uleb128 0x8
 3810 022b 705F7500 		.ascii	"p_u\000"
 3811 022f 08       		.byte	0x8
 3812 0230 3101     		.2byte	0x131
 3813 0232 7E0D0000 		.4byte	0xd7e
 3814 0236 24       		.byte	0x24
 3815 0237 09       		.uleb128 0x9
 3816 0238 71050000 		.4byte	.LASF46
 3817 023c 08       		.byte	0x8
 3818 023d 3601     		.2byte	0x136
 3819 023f A4020000 		.4byte	0x2a4
 3820 0243 28       		.byte	0x28
 3821 0244 09       		.uleb128 0x9
 3822 0245 19130000 		.4byte	.LASF47
 3823 0249 08       		.byte	0x8
 3824 024a 3C01     		.2byte	0x13c
 3825 024c C8020000 		.4byte	0x2c8
 3826 0250 2C       		.byte	0x2c
 3827 0251 09       		.uleb128 0x9
 3828 0252 4B070000 		.4byte	.LASF48
 3829 0256 08       		.byte	0x8
 3830 0257 4001     		.2byte	0x140
 3831 0259 57010000 		.4byte	0x157
 3832 025d 34       		.byte	0x34
 3833 025e 09       		.uleb128 0x9
 3834 025f 5B1C0000 		.4byte	.LASF49
 3835 0263 08       		.byte	0x8
ARM GAS  C:\Users\IDONNO~1\AppData\Local\Temp\ccm1q34l.s 			page 69


 3836 0264 4601     		.2byte	0x146
 3837 0266 62010000 		.4byte	0x162
 3838 026a 38       		.byte	0x38
 3839 026b 09       		.uleb128 0x9
 3840 026c 571E0000 		.4byte	.LASF50
 3841 0270 08       		.byte	0x8
 3842 0271 4D01     		.2byte	0x14d
 3843 0273 3D0E0000 		.4byte	0xe3d
 3844 0277 3C       		.byte	0x3c
 3845 0278 09       		.uleb128 0x9
 3846 0279 371A0000 		.4byte	.LASF51
 3847 027d 08       		.byte	0x8
 3848 027e 5101     		.2byte	0x151
 3849 0280 4C010000 		.4byte	0x14c
 3850 0284 40       		.byte	0x40
 3851 0285 09       		.uleb128 0x9
 3852 0286 450F0000 		.4byte	.LASF52
 3853 028a 08       		.byte	0x8
 3854 028b 5801     		.2byte	0x158
 3855 028d 7B030000 		.4byte	0x37b
 3856 0291 44       		.byte	0x44
 3857 0292 00       		.byte	0
 3858 0293 04       		.uleb128 0x4
 3859 0294 47210000 		.4byte	.LASF53
 3860 0298 07       		.byte	0x7
 3861 0299 44       		.byte	0x44
 3862 029a 9E020000 		.4byte	0x29e
 3863 029e 0A       		.uleb128 0xa
 3864 029f 04       		.byte	0x4
 3865 02a0 83010000 		.4byte	0x183
 3866 02a4 04       		.uleb128 0x4
 3867 02a5 9F050000 		.4byte	.LASF54
 3868 02a9 07       		.byte	0x7
 3869 02aa 49       		.byte	0x49
 3870 02ab AF020000 		.4byte	0x2af
 3871 02af 06       		.uleb128 0x6
 3872 02b0 86240000 		.4byte	.LASF56
 3873 02b4 04       		.byte	0x4
 3874 02b5 08       		.byte	0x8
 3875 02b6 B0       		.byte	0xb0
 3876 02b7 C8020000 		.4byte	0x2c8
 3877 02bb 07       		.uleb128 0x7
 3878 02bc C70E0000 		.4byte	.LASF34
 3879 02c0 08       		.byte	0x8
 3880 02c1 B1       		.byte	0xb1
 3881 02c2 9E020000 		.4byte	0x29e
 3882 02c6 00       		.byte	0
 3883 02c7 00       		.byte	0
 3884 02c8 04       		.uleb128 0x4
 3885 02c9 8E140000 		.4byte	.LASF57
 3886 02cd 07       		.byte	0x7
 3887 02ce 50       		.byte	0x50
 3888 02cf D3020000 		.4byte	0x2d3
 3889 02d3 06       		.uleb128 0x6
 3890 02d4 8C020000 		.4byte	.LASF58
 3891 02d8 08       		.byte	0x8
 3892 02d9 08       		.byte	0x8
ARM GAS  C:\Users\IDONNO~1\AppData\Local\Temp\ccm1q34l.s 			page 70


 3893 02da B7       		.byte	0xb7
 3894 02db F8020000 		.4byte	0x2f8
 3895 02df 07       		.uleb128 0x7
 3896 02e0 C70E0000 		.4byte	.LASF34
 3897 02e4 08       		.byte	0x8
 3898 02e5 B8       		.byte	0xb8
 3899 02e6 9E020000 		.4byte	0x29e
 3900 02ea 00       		.byte	0
 3901 02eb 07       		.uleb128 0x7
 3902 02ec 1D0C0000 		.4byte	.LASF35
 3903 02f0 08       		.byte	0x8
 3904 02f1 B9       		.byte	0xb9
 3905 02f2 9E020000 		.4byte	0x29e
 3906 02f6 04       		.byte	0x4
 3907 02f7 00       		.byte	0
 3908 02f8 04       		.uleb128 0x4
 3909 02f9 BD080000 		.4byte	.LASF59
 3910 02fd 07       		.byte	0x7
 3911 02fe 57       		.byte	0x57
 3912 02ff 03030000 		.4byte	0x303
 3913 0303 0B       		.uleb128 0xb
 3914 0304 2B1B0000 		.4byte	.LASF60
 3915 0308 1C       		.byte	0x1c
 3916 0309 08       		.byte	0x8
 3917 030a 9001     		.2byte	0x190
 3918 030c 5F030000 		.4byte	0x35f
 3919 0310 09       		.uleb128 0x9
 3920 0311 6A170000 		.4byte	.LASF61
 3921 0315 08       		.byte	0x8
 3922 0316 9101     		.2byte	0x191
 3923 0318 C8020000 		.4byte	0x2c8
 3924 031c 00       		.byte	0
 3925 031d 09       		.uleb128 0x9
 3926 031e 821D0000 		.4byte	.LASF62
 3927 0322 08       		.byte	0x8
 3928 0323 9201     		.2byte	0x192
 3929 0325 4C010000 		.4byte	0x14c
 3930 0329 08       		.byte	0x8
 3931 032a 09       		.uleb128 0x9
 3932 032b 1C0B0000 		.4byte	.LASF63
 3933 032f 08       		.byte	0x8
 3934 0330 9401     		.2byte	0x194
 3935 0332 FE0B0000 		.4byte	0xbfe
 3936 0336 0C       		.byte	0xc
 3937 0337 09       		.uleb128 0x9
 3938 0338 ED100000 		.4byte	.LASF64
 3939 033c 08       		.byte	0x8
 3940 033d 9701     		.2byte	0x197
 3941 033f 9E020000 		.4byte	0x29e
 3942 0343 10       		.byte	0x10
 3943 0344 09       		.uleb128 0x9
 3944 0345 150C0000 		.4byte	.LASF65
 3945 0349 08       		.byte	0x8
 3946 034a 9801     		.2byte	0x198
 3947 034c 9E020000 		.4byte	0x29e
 3948 0350 14       		.byte	0x14
 3949 0351 09       		.uleb128 0x9
ARM GAS  C:\Users\IDONNO~1\AppData\Local\Temp\ccm1q34l.s 			page 71


 3950 0352 E7090000 		.4byte	.LASF66
 3951 0356 08       		.byte	0x8
 3952 0357 9B01     		.2byte	0x19b
 3953 0359 9E020000 		.4byte	0x29e
 3954 035d 18       		.byte	0x18
 3955 035e 00       		.byte	0
 3956 035f 04       		.uleb128 0x4
 3957 0360 091A0000 		.4byte	.LASF67
 3958 0364 07       		.byte	0x7
 3959 0365 5C       		.byte	0x5c
 3960 0366 6A030000 		.4byte	0x36a
 3961 036a 0A       		.uleb128 0xa
 3962 036b 04       		.byte	0x4
 3963 036c 70030000 		.4byte	0x370
 3964 0370 0C       		.uleb128 0xc
 3965 0371 7B030000 		.4byte	0x37b
 3966 0375 0D       		.uleb128 0xd
 3967 0376 7B030000 		.4byte	0x37b
 3968 037a 00       		.byte	0
 3969 037b 0E       		.uleb128 0xe
 3970 037c 04       		.byte	0x4
 3971 037d 04       		.uleb128 0x4
 3972 037e 0C0B0000 		.4byte	.LASF68
 3973 0382 07       		.byte	0x7
 3974 0383 61       		.byte	0x61
 3975 0384 88030000 		.4byte	0x388
 3976 0388 0B       		.uleb128 0xb
 3977 0389 141E0000 		.4byte	.LASF69
 3978 038d 14       		.byte	0x14
 3979 038e 08       		.byte	0x8
 3980 038f 6B01     		.2byte	0x16b
 3981 0391 D7030000 		.4byte	0x3d7
 3982 0395 09       		.uleb128 0x9
 3983 0396 220B0000 		.4byte	.LASF70
 3984 039a 08       		.byte	0x8
 3985 039b 6C01     		.2byte	0x16c
 3986 039d 5A0E0000 		.4byte	0xe5a
 3987 03a1 00       		.byte	0
 3988 03a2 09       		.uleb128 0x9
 3989 03a3 83080000 		.4byte	.LASF71
 3990 03a7 08       		.byte	0x8
 3991 03a8 6D01     		.2byte	0x16d
 3992 03aa 5A0E0000 		.4byte	0xe5a
 3993 03ae 04       		.byte	0x4
 3994 03af 09       		.uleb128 0x9
 3995 03b0 94110000 		.4byte	.LASF72
 3996 03b4 08       		.byte	0x8
 3997 03b5 6E01     		.2byte	0x16e
 3998 03b7 78010000 		.4byte	0x178
 3999 03bb 08       		.byte	0x8
 4000 03bc 09       		.uleb128 0x9
 4001 03bd 071E0000 		.4byte	.LASF73
 4002 03c1 08       		.byte	0x8
 4003 03c2 6F01     		.2byte	0x16f
 4004 03c4 5F030000 		.4byte	0x35f
 4005 03c8 0C       		.byte	0xc
 4006 03c9 09       		.uleb128 0x9
ARM GAS  C:\Users\IDONNO~1\AppData\Local\Temp\ccm1q34l.s 			page 72


 4007 03ca AE090000 		.4byte	.LASF74
 4008 03ce 08       		.byte	0x8
 4009 03cf 7101     		.2byte	0x171
 4010 03d1 7B030000 		.4byte	0x37b
 4011 03d5 10       		.byte	0x10
 4012 03d6 00       		.byte	0
 4013 03d7 04       		.uleb128 0x4
 4014 03d8 031F0000 		.4byte	.LASF75
 4015 03dc 07       		.byte	0x7
 4016 03dd 66       		.byte	0x66
 4017 03de E2030000 		.4byte	0x3e2
 4018 03e2 0B       		.uleb128 0xb
 4019 03e3 D2030000 		.4byte	.LASF76
 4020 03e7 10       		.byte	0x10
 4021 03e8 08       		.byte	0x8
 4022 03e9 7B01     		.2byte	0x17b
 4023 03eb 24040000 		.4byte	0x424
 4024 03ef 09       		.uleb128 0x9
 4025 03f0 220B0000 		.4byte	.LASF70
 4026 03f4 08       		.byte	0x8
 4027 03f5 7C01     		.2byte	0x17c
 4028 03f7 5A0E0000 		.4byte	0xe5a
 4029 03fb 00       		.byte	0
 4030 03fc 09       		.uleb128 0x9
 4031 03fd 83080000 		.4byte	.LASF71
 4032 0401 08       		.byte	0x8
 4033 0402 7E01     		.2byte	0x17e
 4034 0404 5A0E0000 		.4byte	0xe5a
 4035 0408 04       		.byte	0x4
 4036 0409 09       		.uleb128 0x9
 4037 040a 94110000 		.4byte	.LASF72
 4038 040e 08       		.byte	0x8
 4039 040f 8001     		.2byte	0x180
 4040 0411 78010000 		.4byte	0x178
 4041 0415 08       		.byte	0x8
 4042 0416 09       		.uleb128 0x9
 4043 0417 5C010000 		.4byte	.LASF77
 4044 041b 08       		.byte	0x8
 4045 041c 8201     		.2byte	0x182
 4046 041e 550E0000 		.4byte	0xe55
 4047 0422 0C       		.byte	0xc
 4048 0423 00       		.byte	0
 4049 0424 04       		.uleb128 0x4
 4050 0425 83090000 		.4byte	.LASF78
 4051 0429 07       		.byte	0x7
 4052 042a 6B       		.byte	0x6b
 4053 042b 2F040000 		.4byte	0x42f
 4054 042f 0B       		.uleb128 0xb
 4055 0430 6C1B0000 		.4byte	.LASF79
 4056 0434 04       		.byte	0x4
 4057 0435 08       		.byte	0x8
 4058 0436 A201     		.2byte	0x1a2
 4059 0438 4A040000 		.4byte	0x44a
 4060 043c 09       		.uleb128 0x9
 4061 043d E3100000 		.4byte	.LASF80
 4062 0441 08       		.byte	0x8
 4063 0442 AA01     		.2byte	0x1aa
ARM GAS  C:\Users\IDONNO~1\AppData\Local\Temp\ccm1q34l.s 			page 73


 4064 0444 600E0000 		.4byte	0xe60
 4065 0448 00       		.byte	0
 4066 0449 00       		.byte	0
 4067 044a 04       		.uleb128 0x4
 4068 044b BC000000 		.4byte	.LASF81
 4069 044f 07       		.byte	0x7
 4070 0450 70       		.byte	0x70
 4071 0451 55040000 		.4byte	0x455
 4072 0455 0F       		.uleb128 0xf
 4073 0456 E4130000 		.4byte	.LASF82
 4074 045a 5802     		.2byte	0x258
 4075 045c 08       		.byte	0x8
 4076 045d C201     		.2byte	0x1c2
 4077 045f B1040000 		.4byte	0x4b1
 4078 0463 09       		.uleb128 0x9
 4079 0464 99050000 		.4byte	.LASF83
 4080 0468 08       		.byte	0x8
 4081 0469 C601     		.2byte	0x1c6
 4082 046b F8020000 		.4byte	0x2f8
 4083 046f 00       		.byte	0
 4084 0470 09       		.uleb128 0x9
 4085 0471 4A050000 		.4byte	.LASF84
 4086 0475 08       		.byte	0x8
 4087 0476 CA01     		.2byte	0x1ca
 4088 0478 D7030000 		.4byte	0x3d7
 4089 047c 1C       		.byte	0x1c
 4090 047d 08       		.uleb128 0x8
 4091 047e 64626700 		.ascii	"dbg\000"
 4092 0482 08       		.byte	0x8
 4093 0483 CE01     		.2byte	0x1ce
 4094 0485 24040000 		.4byte	0x424
 4095 0489 2C       		.byte	0x2c
 4096 048a 09       		.uleb128 0x9
 4097 048b FE140000 		.4byte	.LASF85
 4098 048f 08       		.byte	0x8
 4099 0490 D201     		.2byte	0x1d2
 4100 0492 83010000 		.4byte	0x183
 4101 0496 30       		.byte	0x30
 4102 0497 08       		.uleb128 0x8
 4103 0498 746D00   		.ascii	"tm\000"
 4104 049b 08       		.byte	0x8
 4105 049c D701     		.2byte	0x1d7
 4106 049e 730D0000 		.4byte	0xd73
 4107 04a2 78       		.byte	0x78
 4108 04a3 09       		.uleb128 0x9
 4109 04a4 F81D0000 		.4byte	.LASF86
 4110 04a8 08       		.byte	0x8
 4111 04a9 E301     		.2byte	0x1e3
 4112 04ab 650E0000 		.4byte	0xe65
 4113 04af 80       		.byte	0x80
 4114 04b0 00       		.byte	0
 4115 04b1 10       		.uleb128 0x10
 4116 04b2 01       		.byte	0x1
 4117 04b3 50000000 		.4byte	0x50
 4118 04b7 09       		.byte	0x9
 4119 04b8 56       		.byte	0x56
 4120 04b9 D4060000 		.4byte	0x6d4
ARM GAS  C:\Users\IDONNO~1\AppData\Local\Temp\ccm1q34l.s 			page 74


 4121 04bd 11       		.uleb128 0x11
 4122 04be 8D1C0000 		.4byte	.LASF87
 4123 04c2 72       		.sleb128 -14
 4124 04c3 11       		.uleb128 0x11
 4125 04c4 B1110000 		.4byte	.LASF88
 4126 04c8 74       		.sleb128 -12
 4127 04c9 11       		.uleb128 0x11
 4128 04ca 96240000 		.4byte	.LASF89
 4129 04ce 75       		.sleb128 -11
 4130 04cf 11       		.uleb128 0x11
 4131 04d0 A60F0000 		.4byte	.LASF90
 4132 04d4 76       		.sleb128 -10
 4133 04d5 11       		.uleb128 0x11
 4134 04d6 38050000 		.4byte	.LASF91
 4135 04da 7B       		.sleb128 -5
 4136 04db 11       		.uleb128 0x11
 4137 04dc DE000000 		.4byte	.LASF92
 4138 04e0 7C       		.sleb128 -4
 4139 04e1 11       		.uleb128 0x11
 4140 04e2 671F0000 		.4byte	.LASF93
 4141 04e6 7E       		.sleb128 -2
 4142 04e7 11       		.uleb128 0x11
 4143 04e8 951B0000 		.4byte	.LASF94
 4144 04ec 7F       		.sleb128 -1
 4145 04ed 12       		.uleb128 0x12
 4146 04ee FF050000 		.4byte	.LASF95
 4147 04f2 00       		.byte	0
 4148 04f3 12       		.uleb128 0x12
 4149 04f4 6B230000 		.4byte	.LASF96
 4150 04f8 01       		.byte	0x1
 4151 04f9 12       		.uleb128 0x12
 4152 04fa 3E0A0000 		.4byte	.LASF97
 4153 04fe 02       		.byte	0x2
 4154 04ff 12       		.uleb128 0x12
 4155 0500 9C0C0000 		.4byte	.LASF98
 4156 0504 03       		.byte	0x3
 4157 0505 12       		.uleb128 0x12
 4158 0506 190D0000 		.4byte	.LASF99
 4159 050a 04       		.byte	0x4
 4160 050b 12       		.uleb128 0x12
 4161 050c 5E030000 		.4byte	.LASF100
 4162 0510 05       		.byte	0x5
 4163 0511 12       		.uleb128 0x12
 4164 0512 C7090000 		.4byte	.LASF101
 4165 0516 06       		.byte	0x6
 4166 0517 12       		.uleb128 0x12
 4167 0518 03090000 		.4byte	.LASF102
 4168 051c 07       		.byte	0x7
 4169 051d 12       		.uleb128 0x12
 4170 051e 71080000 		.4byte	.LASF103
 4171 0522 08       		.byte	0x8
 4172 0523 12       		.uleb128 0x12
 4173 0524 F9160000 		.4byte	.LASF104
 4174 0528 09       		.byte	0x9
 4175 0529 12       		.uleb128 0x12
 4176 052a 70160000 		.4byte	.LASF105
 4177 052e 0A       		.byte	0xa
ARM GAS  C:\Users\IDONNO~1\AppData\Local\Temp\ccm1q34l.s 			page 75


 4178 052f 12       		.uleb128 0x12
 4179 0530 61100000 		.4byte	.LASF106
 4180 0534 0B       		.byte	0xb
 4181 0535 12       		.uleb128 0x12
 4182 0536 0F1B0000 		.4byte	.LASF107
 4183 053a 0C       		.byte	0xc
 4184 053b 12       		.uleb128 0x12
 4185 053c 6A1A0000 		.4byte	.LASF108
 4186 0540 0D       		.byte	0xd
 4187 0541 12       		.uleb128 0x12
 4188 0542 E3190000 		.4byte	.LASF109
 4189 0546 0E       		.byte	0xe
 4190 0547 12       		.uleb128 0x12
 4191 0548 2B060000 		.4byte	.LASF110
 4192 054c 0F       		.byte	0xf
 4193 054d 12       		.uleb128 0x12
 4194 054e 87050000 		.4byte	.LASF111
 4195 0552 10       		.byte	0x10
 4196 0553 12       		.uleb128 0x12
 4197 0554 26050000 		.4byte	.LASF112
 4198 0558 11       		.byte	0x11
 4199 0559 12       		.uleb128 0x12
 4200 055a 89010000 		.4byte	.LASF113
 4201 055e 12       		.byte	0x12
 4202 055f 12       		.uleb128 0x12
 4203 0560 F00E0000 		.4byte	.LASF114
 4204 0564 13       		.byte	0x13
 4205 0565 12       		.uleb128 0x12
 4206 0566 B50C0000 		.4byte	.LASF115
 4207 056a 14       		.byte	0x14
 4208 056b 12       		.uleb128 0x12
 4209 056c 380C0000 		.4byte	.LASF116
 4210 0570 15       		.byte	0x15
 4211 0571 12       		.uleb128 0x12
 4212 0572 721C0000 		.4byte	.LASF117
 4213 0576 16       		.byte	0x16
 4214 0577 12       		.uleb128 0x12
 4215 0578 630C0000 		.4byte	.LASF118
 4216 057c 17       		.byte	0x17
 4217 057d 12       		.uleb128 0x12
 4218 057e 0A110000 		.4byte	.LASF119
 4219 0582 18       		.byte	0x18
 4220 0583 12       		.uleb128 0x12
 4221 0584 1E1D0000 		.4byte	.LASF120
 4222 0588 19       		.byte	0x19
 4223 0589 12       		.uleb128 0x12
 4224 058a 4F1F0000 		.4byte	.LASF121
 4225 058e 1A       		.byte	0x1a
 4226 058f 12       		.uleb128 0x12
 4227 0590 9C150000 		.4byte	.LASF122
 4228 0594 1B       		.byte	0x1b
 4229 0595 12       		.uleb128 0x12
 4230 0596 30000000 		.4byte	.LASF123
 4231 059a 1C       		.byte	0x1c
 4232 059b 12       		.uleb128 0x12
 4233 059c 6E240000 		.4byte	.LASF124
 4234 05a0 1D       		.byte	0x1d
ARM GAS  C:\Users\IDONNO~1\AppData\Local\Temp\ccm1q34l.s 			page 76


 4235 05a1 12       		.uleb128 0x12
 4236 05a2 1C240000 		.4byte	.LASF125
 4237 05a6 1E       		.byte	0x1e
 4238 05a7 12       		.uleb128 0x12
 4239 05a8 30180000 		.4byte	.LASF126
 4240 05ac 1F       		.byte	0x1f
 4241 05ad 12       		.uleb128 0x12
 4242 05ae 251F0000 		.4byte	.LASF127
 4243 05b2 20       		.byte	0x20
 4244 05b3 12       		.uleb128 0x12
 4245 05b4 4B180000 		.4byte	.LASF128
 4246 05b8 21       		.byte	0x21
 4247 05b9 12       		.uleb128 0x12
 4248 05ba 7D1F0000 		.4byte	.LASF129
 4249 05be 22       		.byte	0x22
 4250 05bf 12       		.uleb128 0x12
 4251 05c0 FA0A0000 		.4byte	.LASF130
 4252 05c4 23       		.byte	0x23
 4253 05c5 12       		.uleb128 0x12
 4254 05c6 C70A0000 		.4byte	.LASF131
 4255 05ca 24       		.byte	0x24
 4256 05cb 12       		.uleb128 0x12
 4257 05cc 58180000 		.4byte	.LASF132
 4258 05d0 25       		.byte	0x25
 4259 05d1 12       		.uleb128 0x12
 4260 05d2 DA170000 		.4byte	.LASF133
 4261 05d6 26       		.byte	0x26
 4262 05d7 12       		.uleb128 0x12
 4263 05d8 5E170000 		.4byte	.LASF134
 4264 05dc 27       		.byte	0x27
 4265 05dd 12       		.uleb128 0x12
 4266 05de 93130000 		.4byte	.LASF135
 4267 05e2 28       		.byte	0x28
 4268 05e3 12       		.uleb128 0x12
 4269 05e4 7A040000 		.4byte	.LASF136
 4270 05e8 29       		.byte	0x29
 4271 05e9 12       		.uleb128 0x12
 4272 05ea 73100000 		.4byte	.LASF137
 4273 05ee 2A       		.byte	0x2a
 4274 05ef 12       		.uleb128 0x12
 4275 05f0 A3000000 		.4byte	.LASF138
 4276 05f4 2B       		.byte	0x2b
 4277 05f5 12       		.uleb128 0x12
 4278 05f6 1A210000 		.4byte	.LASF139
 4279 05fa 2C       		.byte	0x2c
 4280 05fb 12       		.uleb128 0x12
 4281 05fc 69140000 		.4byte	.LASF140
 4282 0600 2D       		.byte	0x2d
 4283 0601 12       		.uleb128 0x12
 4284 0602 4B060000 		.4byte	.LASF141
 4285 0606 2E       		.byte	0x2e
 4286 0607 12       		.uleb128 0x12
 4287 0608 69130000 		.4byte	.LASF142
 4288 060c 2F       		.byte	0x2f
 4289 060d 12       		.uleb128 0x12
 4290 060e 7B130000 		.4byte	.LASF143
 4291 0612 30       		.byte	0x30
ARM GAS  C:\Users\IDONNO~1\AppData\Local\Temp\ccm1q34l.s 			page 77


 4292 0613 12       		.uleb128 0x12
 4293 0614 36040000 		.4byte	.LASF144
 4294 0618 31       		.byte	0x31
 4295 0619 12       		.uleb128 0x12
 4296 061a 430D0000 		.4byte	.LASF145
 4297 061e 32       		.byte	0x32
 4298 061f 12       		.uleb128 0x12
 4299 0620 3F190000 		.4byte	.LASF146
 4300 0624 33       		.byte	0x33
 4301 0625 12       		.uleb128 0x12
 4302 0626 86160000 		.4byte	.LASF147
 4303 062a 34       		.byte	0x34
 4304 062b 12       		.uleb128 0x12
 4305 062c CE190000 		.4byte	.LASF148
 4306 0630 35       		.byte	0x35
 4307 0631 12       		.uleb128 0x12
 4308 0632 24130000 		.4byte	.LASF149
 4309 0636 36       		.byte	0x36
 4310 0637 12       		.uleb128 0x12
 4311 0638 840C0000 		.4byte	.LASF150
 4312 063c 37       		.byte	0x37
 4313 063d 12       		.uleb128 0x12
 4314 063e C3160000 		.4byte	.LASF151
 4315 0642 38       		.byte	0x38
 4316 0643 12       		.uleb128 0x12
 4317 0644 3C160000 		.4byte	.LASF152
 4318 0648 39       		.byte	0x39
 4319 0649 12       		.uleb128 0x12
 4320 064a DF010000 		.4byte	.LASF153
 4321 064e 3A       		.byte	0x3a
 4322 064f 12       		.uleb128 0x12
 4323 0650 67010000 		.4byte	.LASF154
 4324 0654 3B       		.byte	0x3b
 4325 0655 12       		.uleb128 0x12
 4326 0656 1E010000 		.4byte	.LASF155
 4327 065a 3C       		.byte	0x3c
 4328 065b 12       		.uleb128 0x12
 4329 065c 8C1B0000 		.4byte	.LASF156
 4330 0660 3D       		.byte	0x3d
 4331 0661 12       		.uleb128 0x12
 4332 0662 77000000 		.4byte	.LASF157
 4333 0666 3E       		.byte	0x3e
 4334 0667 12       		.uleb128 0x12
 4335 0668 090F0000 		.4byte	.LASF158
 4336 066c 3F       		.byte	0x3f
 4337 066d 12       		.uleb128 0x12
 4338 066e A7120000 		.4byte	.LASF159
 4339 0672 40       		.byte	0x40
 4340 0673 12       		.uleb128 0x12
 4341 0674 26120000 		.4byte	.LASF160
 4342 0678 41       		.byte	0x41
 4343 0679 12       		.uleb128 0x12
 4344 067a 4A240000 		.4byte	.LASF161
 4345 067e 42       		.byte	0x42
 4346 067f 12       		.uleb128 0x12
 4347 0680 3A000000 		.4byte	.LASF162
 4348 0684 43       		.byte	0x43
ARM GAS  C:\Users\IDONNO~1\AppData\Local\Temp\ccm1q34l.s 			page 78


 4349 0685 12       		.uleb128 0x12
 4350 0686 1E0F0000 		.4byte	.LASF163
 4351 068a 44       		.byte	0x44
 4352 068b 12       		.uleb128 0x12
 4353 068c AA0E0000 		.4byte	.LASF164
 4354 0690 45       		.byte	0x45
 4355 0691 12       		.uleb128 0x12
 4356 0692 2D0E0000 		.4byte	.LASF165
 4357 0696 46       		.byte	0x46
 4358 0697 12       		.uleb128 0x12
 4359 0698 2D020000 		.4byte	.LASF166
 4360 069c 47       		.byte	0x47
 4361 069d 12       		.uleb128 0x12
 4362 069e 84180000 		.4byte	.LASF167
 4363 06a2 48       		.byte	0x48
 4364 06a3 12       		.uleb128 0x12
 4365 06a4 AB1F0000 		.4byte	.LASF168
 4366 06a8 49       		.byte	0x49
 4367 06a9 12       		.uleb128 0x12
 4368 06aa 04190000 		.4byte	.LASF169
 4369 06ae 4A       		.byte	0x4a
 4370 06af 12       		.uleb128 0x12
 4371 06b0 D4080000 		.4byte	.LASF170
 4372 06b4 4B       		.byte	0x4b
 4373 06b5 12       		.uleb128 0x12
 4374 06b6 30010000 		.4byte	.LASF171
 4375 06ba 4C       		.byte	0x4c
 4376 06bb 12       		.uleb128 0x12
 4377 06bc 630E0000 		.4byte	.LASF172
 4378 06c0 4D       		.byte	0x4d
 4379 06c1 12       		.uleb128 0x12
 4380 06c2 45040000 		.4byte	.LASF173
 4381 06c6 4E       		.byte	0x4e
 4382 06c7 12       		.uleb128 0x12
 4383 06c8 11180000 		.4byte	.LASF174
 4384 06cc 50       		.byte	0x50
 4385 06cd 12       		.uleb128 0x12
 4386 06ce 61110000 		.4byte	.LASF175
 4387 06d2 51       		.byte	0x51
 4388 06d3 00       		.byte	0
 4389 06d4 02       		.uleb128 0x2
 4390 06d5 04       		.byte	0x4
 4391 06d6 07       		.byte	0x7
 4392 06d7 9D110000 		.4byte	.LASF176
 4393 06db 13       		.uleb128 0x13
 4394 06dc 10010000 		.4byte	0x110
 4395 06e0 14       		.uleb128 0x14
 4396 06e1 04       		.byte	0x4
 4397 06e2 02       		.byte	0x2
 4398 06e3 A302     		.2byte	0x2a3
 4399 06e5 0D070000 		.4byte	0x70d
 4400 06e9 15       		.uleb128 0x15
 4401 06ea 753800   		.ascii	"u8\000"
 4402 06ed 02       		.byte	0x2
 4403 06ee A502     		.2byte	0x2a5
 4404 06f0 01010000 		.4byte	0x101
 4405 06f4 15       		.uleb128 0x15
ARM GAS  C:\Users\IDONNO~1\AppData\Local\Temp\ccm1q34l.s 			page 79


 4406 06f5 75313600 		.ascii	"u16\000"
 4407 06f9 02       		.byte	0x2
 4408 06fa A602     		.2byte	0x2a6
 4409 06fc 06010000 		.4byte	0x106
 4410 0700 15       		.uleb128 0x15
 4411 0701 75333200 		.ascii	"u32\000"
 4412 0705 02       		.byte	0x2
 4413 0706 A702     		.2byte	0x2a7
 4414 0708 10010000 		.4byte	0x110
 4415 070c 00       		.byte	0
 4416 070d 16       		.uleb128 0x16
 4417 070e 0010     		.2byte	0x1000
 4418 0710 02       		.byte	0x2
 4419 0711 A102     		.2byte	0x2a1
 4420 0713 90080000 		.4byte	0x890
 4421 0717 09       		.uleb128 0x9
 4422 0718 D31D0000 		.4byte	.LASF177
 4423 071c 02       		.byte	0x2
 4424 071d A802     		.2byte	0x2a8
 4425 071f A0080000 		.4byte	0x8a0
 4426 0723 00       		.byte	0
 4427 0724 09       		.uleb128 0x9
 4428 0725 BE1C0000 		.4byte	.LASF178
 4429 0729 02       		.byte	0x2
 4430 072a A902     		.2byte	0x2a9
 4431 072c A5080000 		.4byte	0x8a5
 4432 0730 80       		.byte	0x80
 4433 0731 17       		.uleb128 0x17
 4434 0732 54455200 		.ascii	"TER\000"
 4435 0736 02       		.byte	0x2
 4436 0737 AA02     		.2byte	0x2aa
 4437 0739 10010000 		.4byte	0x110
 4438 073d 000E     		.2byte	0xe00
 4439 073f 18       		.uleb128 0x18
 4440 0740 C81C0000 		.4byte	.LASF179
 4441 0744 02       		.byte	0x2
 4442 0745 AB02     		.2byte	0x2ab
 4443 0747 B6080000 		.4byte	0x8b6
 4444 074b 040E     		.2byte	0xe04
 4445 074d 17       		.uleb128 0x17
 4446 074e 54505200 		.ascii	"TPR\000"
 4447 0752 02       		.byte	0x2
 4448 0753 AC02     		.2byte	0x2ac
 4449 0755 10010000 		.4byte	0x110
 4450 0759 400E     		.2byte	0xe40
 4451 075b 18       		.uleb128 0x18
 4452 075c D21C0000 		.4byte	.LASF180
 4453 0760 02       		.byte	0x2
 4454 0761 AD02     		.2byte	0x2ad
 4455 0763 B6080000 		.4byte	0x8b6
 4456 0767 440E     		.2byte	0xe44
 4457 0769 17       		.uleb128 0x17
 4458 076a 54435200 		.ascii	"TCR\000"
 4459 076e 02       		.byte	0x2
 4460 076f AE02     		.2byte	0x2ae
 4461 0771 10010000 		.4byte	0x110
 4462 0775 800E     		.2byte	0xe80
ARM GAS  C:\Users\IDONNO~1\AppData\Local\Temp\ccm1q34l.s 			page 80


 4463 0777 18       		.uleb128 0x18
 4464 0778 DC1C0000 		.4byte	.LASF181
 4465 077c 02       		.byte	0x2
 4466 077d AF02     		.2byte	0x2af
 4467 077f C6080000 		.4byte	0x8c6
 4468 0783 840E     		.2byte	0xe84
 4469 0785 17       		.uleb128 0x17
 4470 0786 49575200 		.ascii	"IWR\000"
 4471 078a 02       		.byte	0x2
 4472 078b B002     		.2byte	0x2b0
 4473 078d 10010000 		.4byte	0x110
 4474 0791 F80E     		.2byte	0xef8
 4475 0793 17       		.uleb128 0x17
 4476 0794 49525200 		.ascii	"IRR\000"
 4477 0798 02       		.byte	0x2
 4478 0799 B102     		.2byte	0x2b1
 4479 079b DB060000 		.4byte	0x6db
 4480 079f FC0E     		.2byte	0xefc
 4481 07a1 18       		.uleb128 0x18
 4482 07a2 D2000000 		.4byte	.LASF182
 4483 07a6 02       		.byte	0x2
 4484 07a7 B202     		.2byte	0x2b2
 4485 07a9 10010000 		.4byte	0x110
 4486 07ad 000F     		.2byte	0xf00
 4487 07af 18       		.uleb128 0x18
 4488 07b0 E61C0000 		.4byte	.LASF183
 4489 07b4 02       		.byte	0x2
 4490 07b5 B302     		.2byte	0x2b3
 4491 07b7 D6080000 		.4byte	0x8d6
 4492 07bb 040F     		.2byte	0xf04
 4493 07bd 17       		.uleb128 0x17
 4494 07be 4C415200 		.ascii	"LAR\000"
 4495 07c2 02       		.byte	0x2
 4496 07c3 B402     		.2byte	0x2b4
 4497 07c5 10010000 		.4byte	0x110
 4498 07c9 B00F     		.2byte	0xfb0
 4499 07cb 17       		.uleb128 0x17
 4500 07cc 4C535200 		.ascii	"LSR\000"
 4501 07d0 02       		.byte	0x2
 4502 07d1 B502     		.2byte	0x2b5
 4503 07d3 DB060000 		.4byte	0x6db
 4504 07d7 B40F     		.2byte	0xfb4
 4505 07d9 18       		.uleb128 0x18
 4506 07da F01C0000 		.4byte	.LASF184
 4507 07de 02       		.byte	0x2
 4508 07df B602     		.2byte	0x2b6
 4509 07e1 E6080000 		.4byte	0x8e6
 4510 07e5 B80F     		.2byte	0xfb8
 4511 07e7 18       		.uleb128 0x18
 4512 07e8 99000000 		.4byte	.LASF185
 4513 07ec 02       		.byte	0x2
 4514 07ed B702     		.2byte	0x2b7
 4515 07ef DB060000 		.4byte	0x6db
 4516 07f3 D00F     		.2byte	0xfd0
 4517 07f5 18       		.uleb128 0x18
 4518 07f6 9E000000 		.4byte	.LASF186
 4519 07fa 02       		.byte	0x2
ARM GAS  C:\Users\IDONNO~1\AppData\Local\Temp\ccm1q34l.s 			page 81


 4520 07fb B802     		.2byte	0x2b8
 4521 07fd DB060000 		.4byte	0x6db
 4522 0801 D40F     		.2byte	0xfd4
 4523 0803 18       		.uleb128 0x18
 4524 0804 E41D0000 		.4byte	.LASF187
 4525 0808 02       		.byte	0x2
 4526 0809 B902     		.2byte	0x2b9
 4527 080b DB060000 		.4byte	0x6db
 4528 080f D80F     		.2byte	0xfd8
 4529 0811 18       		.uleb128 0x18
 4530 0812 B7000000 		.4byte	.LASF188
 4531 0816 02       		.byte	0x2
 4532 0817 BA02     		.2byte	0x2ba
 4533 0819 DB060000 		.4byte	0x6db
 4534 081d DC0F     		.2byte	0xfdc
 4535 081f 18       		.uleb128 0x18
 4536 0820 85000000 		.4byte	.LASF189
 4537 0824 02       		.byte	0x2
 4538 0825 BB02     		.2byte	0x2bb
 4539 0827 DB060000 		.4byte	0x6db
 4540 082b E00F     		.2byte	0xfe0
 4541 082d 18       		.uleb128 0x18
 4542 082e 8A000000 		.4byte	.LASF190
 4543 0832 02       		.byte	0x2
 4544 0833 BC02     		.2byte	0x2bc
 4545 0835 DB060000 		.4byte	0x6db
 4546 0839 E40F     		.2byte	0xfe4
 4547 083b 18       		.uleb128 0x18
 4548 083c 8F000000 		.4byte	.LASF191
 4549 0840 02       		.byte	0x2
 4550 0841 BD02     		.2byte	0x2bd
 4551 0843 DB060000 		.4byte	0x6db
 4552 0847 E80F     		.2byte	0xfe8
 4553 0849 18       		.uleb128 0x18
 4554 084a 94000000 		.4byte	.LASF192
 4555 084e 02       		.byte	0x2
 4556 084f BE02     		.2byte	0x2be
 4557 0851 DB060000 		.4byte	0x6db
 4558 0855 EC0F     		.2byte	0xfec
 4559 0857 18       		.uleb128 0x18
 4560 0858 F5190000 		.4byte	.LASF193
 4561 085c 02       		.byte	0x2
 4562 085d BF02     		.2byte	0x2bf
 4563 085f DB060000 		.4byte	0x6db
 4564 0863 F00F     		.2byte	0xff0
 4565 0865 18       		.uleb128 0x18
 4566 0866 FA190000 		.4byte	.LASF194
 4567 086a 02       		.byte	0x2
 4568 086b C002     		.2byte	0x2c0
 4569 086d DB060000 		.4byte	0x6db
 4570 0871 F40F     		.2byte	0xff4
 4571 0873 18       		.uleb128 0x18
 4572 0874 FF190000 		.4byte	.LASF195
 4573 0878 02       		.byte	0x2
 4574 0879 C102     		.2byte	0x2c1
 4575 087b DB060000 		.4byte	0x6db
 4576 087f F80F     		.2byte	0xff8
ARM GAS  C:\Users\IDONNO~1\AppData\Local\Temp\ccm1q34l.s 			page 82


 4577 0881 18       		.uleb128 0x18
 4578 0882 041A0000 		.4byte	.LASF196
 4579 0886 02       		.byte	0x2
 4580 0887 C202     		.2byte	0x2c2
 4581 0889 DB060000 		.4byte	0x6db
 4582 088d FC0F     		.2byte	0xffc
 4583 088f 00       		.byte	0
 4584 0890 19       		.uleb128 0x19
 4585 0891 E0060000 		.4byte	0x6e0
 4586 0895 A0080000 		.4byte	0x8a0
 4587 0899 1A       		.uleb128 0x1a
 4588 089a D4060000 		.4byte	0x6d4
 4589 089e 1F       		.byte	0x1f
 4590 089f 00       		.byte	0
 4591 08a0 05       		.uleb128 0x5
 4592 08a1 90080000 		.4byte	0x890
 4593 08a5 19       		.uleb128 0x19
 4594 08a6 EB000000 		.4byte	0xeb
 4595 08aa B6080000 		.4byte	0x8b6
 4596 08ae 1B       		.uleb128 0x1b
 4597 08af D4060000 		.4byte	0x6d4
 4598 08b3 5F03     		.2byte	0x35f
 4599 08b5 00       		.byte	0
 4600 08b6 19       		.uleb128 0x19
 4601 08b7 EB000000 		.4byte	0xeb
 4602 08bb C6080000 		.4byte	0x8c6
 4603 08bf 1A       		.uleb128 0x1a
 4604 08c0 D4060000 		.4byte	0x6d4
 4605 08c4 0E       		.byte	0xe
 4606 08c5 00       		.byte	0
 4607 08c6 19       		.uleb128 0x19
 4608 08c7 EB000000 		.4byte	0xeb
 4609 08cb D6080000 		.4byte	0x8d6
 4610 08cf 1A       		.uleb128 0x1a
 4611 08d0 D4060000 		.4byte	0x6d4
 4612 08d4 1C       		.byte	0x1c
 4613 08d5 00       		.byte	0
 4614 08d6 19       		.uleb128 0x19
 4615 08d7 EB000000 		.4byte	0xeb
 4616 08db E6080000 		.4byte	0x8e6
 4617 08df 1A       		.uleb128 0x1a
 4618 08e0 D4060000 		.4byte	0x6d4
 4619 08e4 2A       		.byte	0x2a
 4620 08e5 00       		.byte	0
 4621 08e6 19       		.uleb128 0x19
 4622 08e7 EB000000 		.4byte	0xeb
 4623 08eb F6080000 		.4byte	0x8f6
 4624 08ef 1A       		.uleb128 0x1a
 4625 08f0 D4060000 		.4byte	0x6d4
 4626 08f4 05       		.byte	0x5
 4627 08f5 00       		.byte	0
 4628 08f6 1C       		.uleb128 0x1c
 4629 08f7 27180000 		.4byte	.LASF197
 4630 08fb 02       		.byte	0x2
 4631 08fc C302     		.2byte	0x2c3
 4632 08fe 0D070000 		.4byte	0x70d
 4633 0902 1D       		.uleb128 0x1d
ARM GAS  C:\Users\IDONNO~1\AppData\Local\Temp\ccm1q34l.s 			page 83


 4634 0903 50       		.byte	0x50
 4635 0904 09       		.byte	0x9
 4636 0905 C4       		.byte	0xc4
 4637 0906 F9090000 		.4byte	0x9f9
 4638 090a 1E       		.uleb128 0x1e
 4639 090b 535200   		.ascii	"SR\000"
 4640 090e 09       		.byte	0x9
 4641 090f C6       		.byte	0xc6
 4642 0910 10010000 		.4byte	0x110
 4643 0914 00       		.byte	0
 4644 0915 1E       		.uleb128 0x1e
 4645 0916 43523100 		.ascii	"CR1\000"
 4646 091a 09       		.byte	0x9
 4647 091b C7       		.byte	0xc7
 4648 091c 10010000 		.4byte	0x110
 4649 0920 04       		.byte	0x4
 4650 0921 1E       		.uleb128 0x1e
 4651 0922 43523200 		.ascii	"CR2\000"
 4652 0926 09       		.byte	0x9
 4653 0927 C8       		.byte	0xc8
 4654 0928 10010000 		.4byte	0x110
 4655 092c 08       		.byte	0x8
 4656 092d 07       		.uleb128 0x7
 4657 092e FD020000 		.4byte	.LASF198
 4658 0932 09       		.byte	0x9
 4659 0933 C9       		.byte	0xc9
 4660 0934 10010000 		.4byte	0x110
 4661 0938 0C       		.byte	0xc
 4662 0939 07       		.uleb128 0x7
 4663 093a 03030000 		.4byte	.LASF199
 4664 093e 09       		.byte	0x9
 4665 093f CA       		.byte	0xca
 4666 0940 10010000 		.4byte	0x110
 4667 0944 10       		.byte	0x10
 4668 0945 07       		.uleb128 0x7
 4669 0946 B5090000 		.4byte	.LASF200
 4670 094a 09       		.byte	0x9
 4671 094b CB       		.byte	0xcb
 4672 094c 10010000 		.4byte	0x110
 4673 0950 14       		.byte	0x14
 4674 0951 07       		.uleb128 0x7
 4675 0952 BB090000 		.4byte	.LASF201
 4676 0956 09       		.byte	0x9
 4677 0957 CC       		.byte	0xcc
 4678 0958 10010000 		.4byte	0x110
 4679 095c 18       		.byte	0x18
 4680 095d 07       		.uleb128 0x7
 4681 095e C1090000 		.4byte	.LASF202
 4682 0962 09       		.byte	0x9
 4683 0963 CD       		.byte	0xcd
 4684 0964 10010000 		.4byte	0x110
 4685 0968 1C       		.byte	0x1c
 4686 0969 07       		.uleb128 0x7
 4687 096a 070E0000 		.4byte	.LASF203
 4688 096e 09       		.byte	0x9
 4689 096f CE       		.byte	0xce
 4690 0970 10010000 		.4byte	0x110
ARM GAS  C:\Users\IDONNO~1\AppData\Local\Temp\ccm1q34l.s 			page 84


 4691 0974 20       		.byte	0x20
 4692 0975 1E       		.uleb128 0x1e
 4693 0976 48545200 		.ascii	"HTR\000"
 4694 097a 09       		.byte	0x9
 4695 097b CF       		.byte	0xcf
 4696 097c 10010000 		.4byte	0x110
 4697 0980 24       		.byte	0x24
 4698 0981 1E       		.uleb128 0x1e
 4699 0982 4C545200 		.ascii	"LTR\000"
 4700 0986 09       		.byte	0x9
 4701 0987 D0       		.byte	0xd0
 4702 0988 10010000 		.4byte	0x110
 4703 098c 28       		.byte	0x28
 4704 098d 07       		.uleb128 0x7
 4705 098e E20F0000 		.4byte	.LASF204
 4706 0992 09       		.byte	0x9
 4707 0993 D1       		.byte	0xd1
 4708 0994 10010000 		.4byte	0x110
 4709 0998 2C       		.byte	0x2c
 4710 0999 07       		.uleb128 0x7
 4711 099a E70F0000 		.4byte	.LASF205
 4712 099e 09       		.byte	0x9
 4713 099f D2       		.byte	0xd2
 4714 09a0 10010000 		.4byte	0x110
 4715 09a4 30       		.byte	0x30
 4716 09a5 07       		.uleb128 0x7
 4717 09a6 EC0F0000 		.4byte	.LASF206
 4718 09aa 09       		.byte	0x9
 4719 09ab D3       		.byte	0xd3
 4720 09ac 10010000 		.4byte	0x110
 4721 09b0 34       		.byte	0x34
 4722 09b1 07       		.uleb128 0x7
 4723 09b2 DC0A0000 		.4byte	.LASF207
 4724 09b6 09       		.byte	0x9
 4725 09b7 D4       		.byte	0xd4
 4726 09b8 10010000 		.4byte	0x110
 4727 09bc 38       		.byte	0x38
 4728 09bd 07       		.uleb128 0x7
 4729 09be DC1E0000 		.4byte	.LASF208
 4730 09c2 09       		.byte	0x9
 4731 09c3 D5       		.byte	0xd5
 4732 09c4 10010000 		.4byte	0x110
 4733 09c8 3C       		.byte	0x3c
 4734 09c9 07       		.uleb128 0x7
 4735 09ca E11E0000 		.4byte	.LASF209
 4736 09ce 09       		.byte	0x9
 4737 09cf D6       		.byte	0xd6
 4738 09d0 10010000 		.4byte	0x110
 4739 09d4 40       		.byte	0x40
 4740 09d5 07       		.uleb128 0x7
 4741 09d6 E61E0000 		.4byte	.LASF210
 4742 09da 09       		.byte	0x9
 4743 09db D7       		.byte	0xd7
 4744 09dc 10010000 		.4byte	0x110
 4745 09e0 44       		.byte	0x44
 4746 09e1 07       		.uleb128 0x7
 4747 09e2 EB1E0000 		.4byte	.LASF211
ARM GAS  C:\Users\IDONNO~1\AppData\Local\Temp\ccm1q34l.s 			page 85


 4748 09e6 09       		.byte	0x9
 4749 09e7 D8       		.byte	0xd8
 4750 09e8 10010000 		.4byte	0x110
 4751 09ec 48       		.byte	0x48
 4752 09ed 1E       		.uleb128 0x1e
 4753 09ee 445200   		.ascii	"DR\000"
 4754 09f1 09       		.byte	0x9
 4755 09f2 D9       		.byte	0xd9
 4756 09f3 10010000 		.4byte	0x110
 4757 09f7 4C       		.byte	0x4c
 4758 09f8 00       		.byte	0
 4759 09f9 04       		.uleb128 0x4
 4760 09fa EE110000 		.4byte	.LASF212
 4761 09fe 09       		.byte	0x9
 4762 09ff DA       		.byte	0xda
 4763 0a00 02090000 		.4byte	0x902
 4764 0a04 1D       		.uleb128 0x1d
 4765 0a05 0C       		.byte	0xc
 4766 0a06 09       		.byte	0x9
 4767 0a07 DC       		.byte	0xdc
 4768 0a08 310A0000 		.4byte	0xa31
 4769 0a0c 1E       		.uleb128 0x1e
 4770 0a0d 43535200 		.ascii	"CSR\000"
 4771 0a11 09       		.byte	0x9
 4772 0a12 DE       		.byte	0xde
 4773 0a13 10010000 		.4byte	0x110
 4774 0a17 00       		.byte	0
 4775 0a18 1E       		.uleb128 0x1e
 4776 0a19 43435200 		.ascii	"CCR\000"
 4777 0a1d 09       		.byte	0x9
 4778 0a1e DF       		.byte	0xdf
 4779 0a1f 10010000 		.4byte	0x110
 4780 0a23 04       		.byte	0x4
 4781 0a24 1E       		.uleb128 0x1e
 4782 0a25 43445200 		.ascii	"CDR\000"
 4783 0a29 09       		.byte	0x9
 4784 0a2a E0       		.byte	0xe0
 4785 0a2b 10010000 		.4byte	0x110
 4786 0a2f 08       		.byte	0x8
 4787 0a30 00       		.byte	0
 4788 0a31 04       		.uleb128 0x4
 4789 0a32 09150000 		.4byte	.LASF213
 4790 0a36 09       		.byte	0x9
 4791 0a37 E2       		.byte	0xe2
 4792 0a38 040A0000 		.4byte	0xa04
 4793 0a3c 1F       		.uleb128 0x1f
 4794 0a3d 18       		.byte	0x18
 4795 0a3e 09       		.byte	0x9
 4796 0a3f 6B01     		.2byte	0x16b
 4797 0a41 930A0000 		.4byte	0xa93
 4798 0a45 08       		.uleb128 0x8
 4799 0a46 435200   		.ascii	"CR\000"
 4800 0a49 09       		.byte	0x9
 4801 0a4a 6D01     		.2byte	0x16d
 4802 0a4c 10010000 		.4byte	0x110
 4803 0a50 00       		.byte	0
 4804 0a51 09       		.uleb128 0x9
ARM GAS  C:\Users\IDONNO~1\AppData\Local\Temp\ccm1q34l.s 			page 86


 4805 0a52 C20D0000 		.4byte	.LASF214
 4806 0a56 09       		.byte	0x9
 4807 0a57 6E01     		.2byte	0x16e
 4808 0a59 10010000 		.4byte	0x110
 4809 0a5d 04       		.byte	0x4
 4810 0a5e 08       		.uleb128 0x8
 4811 0a5f 50415200 		.ascii	"PAR\000"
 4812 0a63 09       		.byte	0x9
 4813 0a64 6F01     		.2byte	0x16f
 4814 0a66 10010000 		.4byte	0x110
 4815 0a6a 08       		.byte	0x8
 4816 0a6b 09       		.uleb128 0x9
 4817 0a6c 40040000 		.4byte	.LASF215
 4818 0a70 09       		.byte	0x9
 4819 0a71 7001     		.2byte	0x170
 4820 0a73 10010000 		.4byte	0x110
 4821 0a77 0C       		.byte	0xc
 4822 0a78 09       		.uleb128 0x9
 4823 0a79 A3070000 		.4byte	.LASF216
 4824 0a7d 09       		.byte	0x9
 4825 0a7e 7101     		.2byte	0x171
 4826 0a80 10010000 		.4byte	0x110
 4827 0a84 10       		.byte	0x10
 4828 0a85 08       		.uleb128 0x8
 4829 0a86 46435200 		.ascii	"FCR\000"
 4830 0a8a 09       		.byte	0x9
 4831 0a8b 7201     		.2byte	0x172
 4832 0a8d 10010000 		.4byte	0x110
 4833 0a91 14       		.byte	0x14
 4834 0a92 00       		.byte	0
 4835 0a93 1C       		.uleb128 0x1c
 4836 0a94 AD070000 		.4byte	.LASF217
 4837 0a98 09       		.byte	0x9
 4838 0a99 7301     		.2byte	0x173
 4839 0a9b 3C0A0000 		.4byte	0xa3c
 4840 0a9f 1F       		.uleb128 0x1f
 4841 0aa0 54       		.byte	0x54
 4842 0aa1 09       		.byte	0x9
 4843 0aa2 EC02     		.2byte	0x2ec
 4844 0aa4 B80B0000 		.4byte	0xbb8
 4845 0aa8 08       		.uleb128 0x8
 4846 0aa9 43523100 		.ascii	"CR1\000"
 4847 0aad 09       		.byte	0x9
 4848 0aae EE02     		.2byte	0x2ee
 4849 0ab0 10010000 		.4byte	0x110
 4850 0ab4 00       		.byte	0
 4851 0ab5 08       		.uleb128 0x8
 4852 0ab6 43523200 		.ascii	"CR2\000"
 4853 0aba 09       		.byte	0x9
 4854 0abb EF02     		.2byte	0x2ef
 4855 0abd 10010000 		.4byte	0x110
 4856 0ac1 04       		.byte	0x4
 4857 0ac2 09       		.uleb128 0x9
 4858 0ac3 0F1E0000 		.4byte	.LASF218
 4859 0ac7 09       		.byte	0x9
 4860 0ac8 F002     		.2byte	0x2f0
 4861 0aca 10010000 		.4byte	0x110
ARM GAS  C:\Users\IDONNO~1\AppData\Local\Temp\ccm1q34l.s 			page 87


 4862 0ace 08       		.byte	0x8
 4863 0acf 09       		.uleb128 0x9
 4864 0ad0 A3090000 		.4byte	.LASF219
 4865 0ad4 09       		.byte	0x9
 4866 0ad5 F102     		.2byte	0x2f1
 4867 0ad7 10010000 		.4byte	0x110
 4868 0adb 0C       		.byte	0xc
 4869 0adc 08       		.uleb128 0x8
 4870 0add 535200   		.ascii	"SR\000"
 4871 0ae0 09       		.byte	0x9
 4872 0ae1 F202     		.2byte	0x2f2
 4873 0ae3 10010000 		.4byte	0x110
 4874 0ae7 10       		.byte	0x10
 4875 0ae8 08       		.uleb128 0x8
 4876 0ae9 45475200 		.ascii	"EGR\000"
 4877 0aed 09       		.byte	0x9
 4878 0aee F302     		.2byte	0x2f3
 4879 0af0 10010000 		.4byte	0x110
 4880 0af4 14       		.byte	0x14
 4881 0af5 09       		.uleb128 0x9
 4882 0af6 8E230000 		.4byte	.LASF220
 4883 0afa 09       		.byte	0x9
 4884 0afb F402     		.2byte	0x2f4
 4885 0afd 10010000 		.4byte	0x110
 4886 0b01 18       		.byte	0x18
 4887 0b02 09       		.uleb128 0x9
 4888 0b03 94230000 		.4byte	.LASF221
 4889 0b07 09       		.byte	0x9
 4890 0b08 F502     		.2byte	0x2f5
 4891 0b0a 10010000 		.4byte	0x110
 4892 0b0e 1C       		.byte	0x1c
 4893 0b0f 09       		.uleb128 0x9
 4894 0b10 EF060000 		.4byte	.LASF222
 4895 0b14 09       		.byte	0x9
 4896 0b15 F602     		.2byte	0x2f6
 4897 0b17 10010000 		.4byte	0x110
 4898 0b1b 20       		.byte	0x20
 4899 0b1c 08       		.uleb128 0x8
 4900 0b1d 434E5400 		.ascii	"CNT\000"
 4901 0b21 09       		.byte	0x9
 4902 0b22 F702     		.2byte	0x2f7
 4903 0b24 10010000 		.4byte	0x110
 4904 0b28 24       		.byte	0x24
 4905 0b29 08       		.uleb128 0x8
 4906 0b2a 50534300 		.ascii	"PSC\000"
 4907 0b2e 09       		.byte	0x9
 4908 0b2f F802     		.2byte	0x2f8
 4909 0b31 10010000 		.4byte	0x110
 4910 0b35 28       		.byte	0x28
 4911 0b36 08       		.uleb128 0x8
 4912 0b37 41525200 		.ascii	"ARR\000"
 4913 0b3b 09       		.byte	0x9
 4914 0b3c F902     		.2byte	0x2f9
 4915 0b3e 10010000 		.4byte	0x110
 4916 0b42 2C       		.byte	0x2c
 4917 0b43 08       		.uleb128 0x8
 4918 0b44 52435200 		.ascii	"RCR\000"
ARM GAS  C:\Users\IDONNO~1\AppData\Local\Temp\ccm1q34l.s 			page 88


 4919 0b48 09       		.byte	0x9
 4920 0b49 FA02     		.2byte	0x2fa
 4921 0b4b 10010000 		.4byte	0x110
 4922 0b4f 30       		.byte	0x30
 4923 0b50 09       		.uleb128 0x9
 4924 0b51 6E0D0000 		.4byte	.LASF223
 4925 0b55 09       		.byte	0x9
 4926 0b56 FB02     		.2byte	0x2fb
 4927 0b58 10010000 		.4byte	0x110
 4928 0b5c 34       		.byte	0x34
 4929 0b5d 09       		.uleb128 0x9
 4930 0b5e 730D0000 		.4byte	.LASF224
 4931 0b62 09       		.byte	0x9
 4932 0b63 FC02     		.2byte	0x2fc
 4933 0b65 10010000 		.4byte	0x110
 4934 0b69 38       		.byte	0x38
 4935 0b6a 09       		.uleb128 0x9
 4936 0b6b 780D0000 		.4byte	.LASF225
 4937 0b6f 09       		.byte	0x9
 4938 0b70 FD02     		.2byte	0x2fd
 4939 0b72 10010000 		.4byte	0x110
 4940 0b76 3C       		.byte	0x3c
 4941 0b77 09       		.uleb128 0x9
 4942 0b78 7D0D0000 		.4byte	.LASF226
 4943 0b7c 09       		.byte	0x9
 4944 0b7d FE02     		.2byte	0x2fe
 4945 0b7f 10010000 		.4byte	0x110
 4946 0b83 40       		.byte	0x40
 4947 0b84 09       		.uleb128 0x9
 4948 0b85 C5010000 		.4byte	.LASF227
 4949 0b89 09       		.byte	0x9
 4950 0b8a FF02     		.2byte	0x2ff
 4951 0b8c 10010000 		.4byte	0x110
 4952 0b90 44       		.byte	0x44
 4953 0b91 08       		.uleb128 0x8
 4954 0b92 44435200 		.ascii	"DCR\000"
 4955 0b96 09       		.byte	0x9
 4956 0b97 0003     		.2byte	0x300
 4957 0b99 10010000 		.4byte	0x110
 4958 0b9d 48       		.byte	0x48
 4959 0b9e 09       		.uleb128 0x9
 4960 0b9f DF130000 		.4byte	.LASF228
 4961 0ba3 09       		.byte	0x9
 4962 0ba4 0103     		.2byte	0x301
 4963 0ba6 10010000 		.4byte	0x110
 4964 0baa 4C       		.byte	0x4c
 4965 0bab 08       		.uleb128 0x8
 4966 0bac 4F5200   		.ascii	"OR\000"
 4967 0baf 09       		.byte	0x9
 4968 0bb0 0203     		.2byte	0x302
 4969 0bb2 10010000 		.4byte	0x110
 4970 0bb6 50       		.byte	0x50
 4971 0bb7 00       		.byte	0
 4972 0bb8 1C       		.uleb128 0x1c
 4973 0bb9 22100000 		.4byte	.LASF229
 4974 0bbd 09       		.byte	0x9
 4975 0bbe 0303     		.2byte	0x303
ARM GAS  C:\Users\IDONNO~1\AppData\Local\Temp\ccm1q34l.s 			page 89


 4976 0bc0 9F0A0000 		.4byte	0xa9f
 4977 0bc4 10       		.uleb128 0x10
 4978 0bc5 01       		.byte	0x1
 4979 0bc6 62000000 		.4byte	0x62
 4980 0bca 0A       		.byte	0xa
 4981 0bcb A8       		.byte	0xa8
 4982 0bcc DD0B0000 		.4byte	0xbdd
 4983 0bd0 12       		.uleb128 0x12
 4984 0bd1 800A0000 		.4byte	.LASF230
 4985 0bd5 00       		.byte	0
 4986 0bd6 12       		.uleb128 0x12
 4987 0bd7 7C080000 		.4byte	.LASF231
 4988 0bdb 01       		.byte	0x1
 4989 0bdc 00       		.byte	0
 4990 0bdd 04       		.uleb128 0x4
 4991 0bde 7C1B0000 		.4byte	.LASF232
 4992 0be2 0A       		.byte	0xa
 4993 0be3 AB       		.byte	0xab
 4994 0be4 C40B0000 		.4byte	0xbc4
 4995 0be8 04       		.uleb128 0x4
 4996 0be9 9D160000 		.4byte	.LASF233
 4997 0bed 0B       		.byte	0xb
 4998 0bee 65       		.byte	0x65
 4999 0bef 7B030000 		.4byte	0x37b
 5000 0bf3 04       		.uleb128 0x4
 5001 0bf4 66080000 		.4byte	.LASF234
 5002 0bf8 0B       		.byte	0xb
 5003 0bf9 6D       		.byte	0x6d
 5004 0bfa F6000000 		.4byte	0xf6
 5005 0bfe 06       		.uleb128 0x6
 5006 0bff E9150000 		.4byte	.LASF235
 5007 0c03 04       		.byte	0x4
 5008 0c04 0B       		.byte	0xb
 5009 0c05 89       		.byte	0x89
 5010 0c06 170C0000 		.4byte	0xc17
 5011 0c0a 1E       		.uleb128 0x1e
 5012 0c0b 72313300 		.ascii	"r13\000"
 5013 0c0f 0B       		.byte	0xb
 5014 0c10 8A       		.byte	0x8a
 5015 0c11 580D0000 		.4byte	0xd58
 5016 0c15 00       		.byte	0
 5017 0c16 00       		.byte	0
 5018 0c17 06       		.uleb128 0x6
 5019 0c18 00000000 		.4byte	.LASF236
 5020 0c1c 64       		.byte	0x64
 5021 0c1d 0C       		.byte	0xc
 5022 0c1e F4       		.byte	0xf4
 5023 0c1f 580D0000 		.4byte	0xd58
 5024 0c23 1E       		.uleb128 0x1e
 5025 0c24 73313600 		.ascii	"s16\000"
 5026 0c28 0C       		.byte	0xc
 5027 0c29 F6       		.byte	0xf6
 5028 0c2a E80B0000 		.4byte	0xbe8
 5029 0c2e 00       		.byte	0
 5030 0c2f 1E       		.uleb128 0x1e
 5031 0c30 73313700 		.ascii	"s17\000"
 5032 0c34 0C       		.byte	0xc
ARM GAS  C:\Users\IDONNO~1\AppData\Local\Temp\ccm1q34l.s 			page 90


 5033 0c35 F7       		.byte	0xf7
 5034 0c36 E80B0000 		.4byte	0xbe8
 5035 0c3a 04       		.byte	0x4
 5036 0c3b 1E       		.uleb128 0x1e
 5037 0c3c 73313800 		.ascii	"s18\000"
 5038 0c40 0C       		.byte	0xc
 5039 0c41 F8       		.byte	0xf8
 5040 0c42 E80B0000 		.4byte	0xbe8
 5041 0c46 08       		.byte	0x8
 5042 0c47 1E       		.uleb128 0x1e
 5043 0c48 73313900 		.ascii	"s19\000"
 5044 0c4c 0C       		.byte	0xc
 5045 0c4d F9       		.byte	0xf9
 5046 0c4e E80B0000 		.4byte	0xbe8
 5047 0c52 0C       		.byte	0xc
 5048 0c53 1E       		.uleb128 0x1e
 5049 0c54 73323000 		.ascii	"s20\000"
 5050 0c58 0C       		.byte	0xc
 5051 0c59 FA       		.byte	0xfa
 5052 0c5a E80B0000 		.4byte	0xbe8
 5053 0c5e 10       		.byte	0x10
 5054 0c5f 1E       		.uleb128 0x1e
 5055 0c60 73323100 		.ascii	"s21\000"
 5056 0c64 0C       		.byte	0xc
 5057 0c65 FB       		.byte	0xfb
 5058 0c66 E80B0000 		.4byte	0xbe8
 5059 0c6a 14       		.byte	0x14
 5060 0c6b 1E       		.uleb128 0x1e
 5061 0c6c 73323200 		.ascii	"s22\000"
 5062 0c70 0C       		.byte	0xc
 5063 0c71 FC       		.byte	0xfc
 5064 0c72 E80B0000 		.4byte	0xbe8
 5065 0c76 18       		.byte	0x18
 5066 0c77 1E       		.uleb128 0x1e
 5067 0c78 73323300 		.ascii	"s23\000"
 5068 0c7c 0C       		.byte	0xc
 5069 0c7d FD       		.byte	0xfd
 5070 0c7e E80B0000 		.4byte	0xbe8
 5071 0c82 1C       		.byte	0x1c
 5072 0c83 1E       		.uleb128 0x1e
 5073 0c84 73323400 		.ascii	"s24\000"
 5074 0c88 0C       		.byte	0xc
 5075 0c89 FE       		.byte	0xfe
 5076 0c8a E80B0000 		.4byte	0xbe8
 5077 0c8e 20       		.byte	0x20
 5078 0c8f 1E       		.uleb128 0x1e
 5079 0c90 73323500 		.ascii	"s25\000"
 5080 0c94 0C       		.byte	0xc
 5081 0c95 FF       		.byte	0xff
 5082 0c96 E80B0000 		.4byte	0xbe8
 5083 0c9a 24       		.byte	0x24
 5084 0c9b 08       		.uleb128 0x8
 5085 0c9c 73323600 		.ascii	"s26\000"
 5086 0ca0 0C       		.byte	0xc
 5087 0ca1 0001     		.2byte	0x100
 5088 0ca3 E80B0000 		.4byte	0xbe8
 5089 0ca7 28       		.byte	0x28
ARM GAS  C:\Users\IDONNO~1\AppData\Local\Temp\ccm1q34l.s 			page 91


 5090 0ca8 08       		.uleb128 0x8
 5091 0ca9 73323700 		.ascii	"s27\000"
 5092 0cad 0C       		.byte	0xc
 5093 0cae 0101     		.2byte	0x101
 5094 0cb0 E80B0000 		.4byte	0xbe8
 5095 0cb4 2C       		.byte	0x2c
 5096 0cb5 08       		.uleb128 0x8
 5097 0cb6 73323800 		.ascii	"s28\000"
 5098 0cba 0C       		.byte	0xc
 5099 0cbb 0201     		.2byte	0x102
 5100 0cbd E80B0000 		.4byte	0xbe8
 5101 0cc1 30       		.byte	0x30
 5102 0cc2 08       		.uleb128 0x8
 5103 0cc3 73323900 		.ascii	"s29\000"
 5104 0cc7 0C       		.byte	0xc
 5105 0cc8 0301     		.2byte	0x103
 5106 0cca E80B0000 		.4byte	0xbe8
 5107 0cce 34       		.byte	0x34
 5108 0ccf 08       		.uleb128 0x8
 5109 0cd0 73333000 		.ascii	"s30\000"
 5110 0cd4 0C       		.byte	0xc
 5111 0cd5 0401     		.2byte	0x104
 5112 0cd7 E80B0000 		.4byte	0xbe8
 5113 0cdb 38       		.byte	0x38
 5114 0cdc 08       		.uleb128 0x8
 5115 0cdd 73333100 		.ascii	"s31\000"
 5116 0ce1 0C       		.byte	0xc
 5117 0ce2 0501     		.2byte	0x105
 5118 0ce4 E80B0000 		.4byte	0xbe8
 5119 0ce8 3C       		.byte	0x3c
 5120 0ce9 08       		.uleb128 0x8
 5121 0cea 723400   		.ascii	"r4\000"
 5122 0ced 0C       		.byte	0xc
 5123 0cee 0701     		.2byte	0x107
 5124 0cf0 E80B0000 		.4byte	0xbe8
 5125 0cf4 40       		.byte	0x40
 5126 0cf5 08       		.uleb128 0x8
 5127 0cf6 723500   		.ascii	"r5\000"
 5128 0cf9 0C       		.byte	0xc
 5129 0cfa 0801     		.2byte	0x108
 5130 0cfc E80B0000 		.4byte	0xbe8
 5131 0d00 44       		.byte	0x44
 5132 0d01 08       		.uleb128 0x8
 5133 0d02 723600   		.ascii	"r6\000"
 5134 0d05 0C       		.byte	0xc
 5135 0d06 0901     		.2byte	0x109
 5136 0d08 E80B0000 		.4byte	0xbe8
 5137 0d0c 48       		.byte	0x48
 5138 0d0d 08       		.uleb128 0x8
 5139 0d0e 723700   		.ascii	"r7\000"
 5140 0d11 0C       		.byte	0xc
 5141 0d12 0A01     		.2byte	0x10a
 5142 0d14 E80B0000 		.4byte	0xbe8
 5143 0d18 4C       		.byte	0x4c
 5144 0d19 08       		.uleb128 0x8
 5145 0d1a 723800   		.ascii	"r8\000"
 5146 0d1d 0C       		.byte	0xc
ARM GAS  C:\Users\IDONNO~1\AppData\Local\Temp\ccm1q34l.s 			page 92


 5147 0d1e 0B01     		.2byte	0x10b
 5148 0d20 E80B0000 		.4byte	0xbe8
 5149 0d24 50       		.byte	0x50
 5150 0d25 08       		.uleb128 0x8
 5151 0d26 723900   		.ascii	"r9\000"
 5152 0d29 0C       		.byte	0xc
 5153 0d2a 0C01     		.2byte	0x10c
 5154 0d2c E80B0000 		.4byte	0xbe8
 5155 0d30 54       		.byte	0x54
 5156 0d31 08       		.uleb128 0x8
 5157 0d32 72313000 		.ascii	"r10\000"
 5158 0d36 0C       		.byte	0xc
 5159 0d37 0D01     		.2byte	0x10d
 5160 0d39 E80B0000 		.4byte	0xbe8
 5161 0d3d 58       		.byte	0x58
 5162 0d3e 08       		.uleb128 0x8
 5163 0d3f 72313100 		.ascii	"r11\000"
 5164 0d43 0C       		.byte	0xc
 5165 0d44 0E01     		.2byte	0x10e
 5166 0d46 E80B0000 		.4byte	0xbe8
 5167 0d4a 5C       		.byte	0x5c
 5168 0d4b 08       		.uleb128 0x8
 5169 0d4c 6C7200   		.ascii	"lr\000"
 5170 0d4f 0C       		.byte	0xc
 5171 0d50 0F01     		.2byte	0x10f
 5172 0d52 E80B0000 		.4byte	0xbe8
 5173 0d56 60       		.byte	0x60
 5174 0d57 00       		.byte	0
 5175 0d58 0A       		.uleb128 0xa
 5176 0d59 04       		.byte	0x4
 5177 0d5a 170C0000 		.4byte	0xc17
 5178 0d5e 1D       		.uleb128 0x1d
 5179 0d5f 04       		.byte	0x4
 5180 0d60 0D       		.byte	0xd
 5181 0d61 38       		.byte	0x38
 5182 0d62 730D0000 		.4byte	0xd73
 5183 0d66 07       		.uleb128 0x7
 5184 0d67 C71D0000 		.4byte	.LASF237
 5185 0d6b 0D       		.byte	0xd
 5186 0d6c 3C       		.byte	0x3c
 5187 0d6d 15010000 		.4byte	0x115
 5188 0d71 00       		.byte	0
 5189 0d72 00       		.byte	0
 5190 0d73 04       		.uleb128 0x4
 5191 0d74 E4220000 		.4byte	.LASF238
 5192 0d78 0D       		.byte	0xd
 5193 0d79 3D       		.byte	0x3d
 5194 0d7a 5E0D0000 		.4byte	0xd5e
 5195 0d7e 20       		.uleb128 0x20
 5196 0d7f 04       		.byte	0x4
 5197 0d80 08       		.byte	0x8
 5198 0d81 FA       		.byte	0xfa
 5199 0d82 DB0D0000 		.4byte	0xddb
 5200 0d86 21       		.uleb128 0x21
 5201 0d87 D40D0000 		.4byte	.LASF239
 5202 0d8b 08       		.byte	0x8
 5203 0d8c 0101     		.2byte	0x101
ARM GAS  C:\Users\IDONNO~1\AppData\Local\Temp\ccm1q34l.s 			page 93


 5204 0d8e 57010000 		.4byte	0x157
 5205 0d92 21       		.uleb128 0x21
 5206 0d93 9A070000 		.4byte	.LASF240
 5207 0d97 08       		.byte	0x8
 5208 0d98 0801     		.2byte	0x108
 5209 0d9a 57010000 		.4byte	0x157
 5210 0d9e 21       		.uleb128 0x21
 5211 0d9f 221A0000 		.4byte	.LASF241
 5212 0da3 08       		.byte	0x8
 5213 0da4 0F01     		.2byte	0x10f
 5214 0da6 7B030000 		.4byte	0x37b
 5215 0daa 21       		.uleb128 0x21
 5216 0dab E3150000 		.4byte	.LASF242
 5217 0daf 08       		.byte	0x8
 5218 0db0 1601     		.2byte	0x116
 5219 0db2 DB0D0000 		.4byte	0xddb
 5220 0db6 21       		.uleb128 0x21
 5221 0db7 D7000000 		.4byte	.LASF243
 5222 0dbb 08       		.byte	0x8
 5223 0dbc 1E01     		.2byte	0x11e
 5224 0dbe 060E0000 		.4byte	0xe06
 5225 0dc2 21       		.uleb128 0x21
 5226 0dc3 631A0000 		.4byte	.LASF244
 5227 0dc7 08       		.byte	0x8
 5228 0dc8 2701     		.2byte	0x127
 5229 0dca 3D0E0000 		.4byte	0xe3d
 5230 0dce 21       		.uleb128 0x21
 5231 0dcf 2D1E0000 		.4byte	.LASF245
 5232 0dd3 08       		.byte	0x8
 5233 0dd4 2F01     		.2byte	0x12f
 5234 0dd6 62010000 		.4byte	0x162
 5235 0dda 00       		.byte	0
 5236 0ddb 0A       		.uleb128 0xa
 5237 0ddc 04       		.byte	0x4
 5238 0ddd 93020000 		.4byte	0x293
 5239 0de1 06       		.uleb128 0x6
 5240 0de2 4B140000 		.4byte	.LASF246
 5241 0de6 0C       		.byte	0xc
 5242 0de7 0E       		.byte	0xe
 5243 0de8 34       		.byte	0x34
 5244 0de9 060E0000 		.4byte	0xe06
 5245 0ded 07       		.uleb128 0x7
 5246 0dee A31F0000 		.4byte	.LASF247
 5247 0df2 0E       		.byte	0xe
 5248 0df3 35       		.byte	0x35
 5249 0df4 C8020000 		.4byte	0x2c8
 5250 0df8 00       		.byte	0
 5251 0df9 07       		.uleb128 0x7
 5252 0dfa B7080000 		.4byte	.LASF248
 5253 0dfe 0E       		.byte	0xe
 5254 0dff 37       		.byte	0x37
 5255 0e00 6D010000 		.4byte	0x16d
 5256 0e04 08       		.byte	0x8
 5257 0e05 00       		.byte	0
 5258 0e06 0A       		.uleb128 0xa
 5259 0e07 04       		.byte	0x4
 5260 0e08 E10D0000 		.4byte	0xde1
ARM GAS  C:\Users\IDONNO~1\AppData\Local\Temp\ccm1q34l.s 			page 94


 5261 0e0c 06       		.uleb128 0x6
 5262 0e0d B00A0000 		.4byte	.LASF249
 5263 0e11 10       		.byte	0x10
 5264 0e12 0F       		.byte	0xf
 5265 0e13 39       		.byte	0x39
 5266 0e14 3D0E0000 		.4byte	0xe3d
 5267 0e18 07       		.uleb128 0x7
 5268 0e19 3C150000 		.4byte	.LASF250
 5269 0e1d 0F       		.byte	0xf
 5270 0e1e 3A       		.byte	0x3a
 5271 0e1f C8020000 		.4byte	0x2c8
 5272 0e23 00       		.byte	0
 5273 0e24 07       		.uleb128 0x7
 5274 0e25 32130000 		.4byte	.LASF251
 5275 0e29 0F       		.byte	0xf
 5276 0e2a 3C       		.byte	0x3c
 5277 0e2b 9E020000 		.4byte	0x29e
 5278 0e2f 08       		.byte	0x8
 5279 0e30 07       		.uleb128 0x7
 5280 0e31 82010000 		.4byte	.LASF252
 5281 0e35 0F       		.byte	0xf
 5282 0e36 3E       		.byte	0x3e
 5283 0e37 800E0000 		.4byte	0xe80
 5284 0e3b 0C       		.byte	0xc
 5285 0e3c 00       		.byte	0
 5286 0e3d 0A       		.uleb128 0xa
 5287 0e3e 04       		.byte	0x4
 5288 0e3f 0C0E0000 		.4byte	0xe0c
 5289 0e43 0A       		.uleb128 0xa
 5290 0e44 04       		.byte	0x4
 5291 0e45 500E0000 		.4byte	0xe50
 5292 0e49 02       		.uleb128 0x2
 5293 0e4a 01       		.byte	0x1
 5294 0e4b 08       		.byte	0x8
 5295 0e4c 59170000 		.4byte	.LASF253
 5296 0e50 13       		.uleb128 0x13
 5297 0e51 490E0000 		.4byte	0xe49
 5298 0e55 05       		.uleb128 0x5
 5299 0e56 78010000 		.4byte	0x178
 5300 0e5a 0A       		.uleb128 0xa
 5301 0e5b 04       		.byte	0x4
 5302 0e5c 7D030000 		.4byte	0x37d
 5303 0e60 05       		.uleb128 0x5
 5304 0e61 430E0000 		.4byte	0xe43
 5305 0e65 19       		.uleb128 0x19
 5306 0e66 F30B0000 		.4byte	0xbf3
 5307 0e6a 750E0000 		.4byte	0xe75
 5308 0e6e 1A       		.uleb128 0x1a
 5309 0e6f D4060000 		.4byte	0x6d4
 5310 0e73 3A       		.byte	0x3a
 5311 0e74 00       		.byte	0
 5312 0e75 04       		.uleb128 0x4
 5313 0e76 2F1C0000 		.4byte	.LASF254
 5314 0e7a 0F       		.byte	0xf
 5315 0e7b 34       		.byte	0x34
 5316 0e7c 0C0E0000 		.4byte	0xe0c
 5317 0e80 0A       		.uleb128 0xa
ARM GAS  C:\Users\IDONNO~1\AppData\Local\Temp\ccm1q34l.s 			page 95


 5318 0e81 04       		.byte	0x4
 5319 0e82 750E0000 		.4byte	0xe75
 5320 0e86 1D       		.uleb128 0x1d
 5321 0e87 0C       		.byte	0xc
 5322 0e88 10       		.byte	0x10
 5323 0e89 DA       		.byte	0xda
 5324 0e8a CB0E0000 		.4byte	0xecb
 5325 0e8e 07       		.uleb128 0x7
 5326 0e8f CD230000 		.4byte	.LASF255
 5327 0e93 10       		.byte	0x10
 5328 0e94 DB       		.byte	0xdb
 5329 0e95 CB0E0000 		.4byte	0xecb
 5330 0e99 00       		.byte	0
 5331 0e9a 07       		.uleb128 0x7
 5332 0e9b B60D0000 		.4byte	.LASF256
 5333 0e9f 10       		.byte	0x10
 5334 0ea0 DC       		.byte	0xdc
 5335 0ea1 D10E0000 		.4byte	0xed1
 5336 0ea5 04       		.byte	0x4
 5337 0ea6 07       		.uleb128 0x7
 5338 0ea7 DC040000 		.4byte	.LASF257
 5339 0eab 10       		.byte	0x10
 5340 0eac DD       		.byte	0xdd
 5341 0ead CA000000 		.4byte	0xca
 5342 0eb1 08       		.byte	0x8
 5343 0eb2 07       		.uleb128 0x7
 5344 0eb3 1F1C0000 		.4byte	.LASF258
 5345 0eb7 10       		.byte	0x10
 5346 0eb8 DF       		.byte	0xdf
 5347 0eb9 CA000000 		.4byte	0xca
 5348 0ebd 09       		.byte	0x9
 5349 0ebe 07       		.uleb128 0x7
 5350 0ebf E9030000 		.4byte	.LASF259
 5351 0ec3 10       		.byte	0x10
 5352 0ec4 E0       		.byte	0xe0
 5353 0ec5 CA000000 		.4byte	0xca
 5354 0ec9 0A       		.byte	0xa
 5355 0eca 00       		.byte	0
 5356 0ecb 0A       		.uleb128 0xa
 5357 0ecc 04       		.byte	0x4
 5358 0ecd 930A0000 		.4byte	0xa93
 5359 0ed1 0A       		.uleb128 0xa
 5360 0ed2 04       		.byte	0x4
 5361 0ed3 10010000 		.4byte	0x110
 5362 0ed7 04       		.uleb128 0x4
 5363 0ed8 13050000 		.4byte	.LASF260
 5364 0edc 10       		.byte	0x10
 5365 0edd E1       		.byte	0xe1
 5366 0ede 860E0000 		.4byte	0xe86
 5367 0ee2 04       		.uleb128 0x4
 5368 0ee3 A4170000 		.4byte	.LASF261
 5369 0ee7 10       		.byte	0x10
 5370 0ee8 EA       		.byte	0xea
 5371 0ee9 ED0E0000 		.4byte	0xeed
 5372 0eed 0A       		.uleb128 0xa
 5373 0eee 04       		.byte	0x4
 5374 0eef F30E0000 		.4byte	0xef3
ARM GAS  C:\Users\IDONNO~1\AppData\Local\Temp\ccm1q34l.s 			page 96


 5375 0ef3 0C       		.uleb128 0xc
 5376 0ef4 030F0000 		.4byte	0xf03
 5377 0ef8 0D       		.uleb128 0xd
 5378 0ef9 7B030000 		.4byte	0x37b
 5379 0efd 0D       		.uleb128 0xd
 5380 0efe EB000000 		.4byte	0xeb
 5381 0f02 00       		.byte	0
 5382 0f03 02       		.uleb128 0x2
 5383 0f04 01       		.byte	0x1
 5384 0f05 02       		.byte	0x2
 5385 0f06 FF000000 		.4byte	.LASF262
 5386 0f0a 1D       		.uleb128 0x1d
 5387 0f0b 04       		.byte	0x4
 5388 0f0c 11       		.byte	0x11
 5389 0f0d B3       		.byte	0xb3
 5390 0f0e 2B0F0000 		.4byte	0xf2b
 5391 0f12 1E       		.uleb128 0x1e
 5392 0f13 73657400 		.ascii	"set\000"
 5393 0f17 11       		.byte	0x11
 5394 0f18 B4       		.byte	0xb4
 5395 0f19 D5000000 		.4byte	0xd5
 5396 0f1d 00       		.byte	0
 5397 0f1e 07       		.uleb128 0x7
 5398 0f1f CA0B0000 		.4byte	.LASF263
 5399 0f23 11       		.byte	0x11
 5400 0f24 B5       		.byte	0xb5
 5401 0f25 D5000000 		.4byte	0xd5
 5402 0f29 02       		.byte	0x2
 5403 0f2a 00       		.byte	0
 5404 0f2b 20       		.uleb128 0x20
 5405 0f2c 04       		.byte	0x4
 5406 0f2d 11       		.byte	0x11
 5407 0f2e B1       		.byte	0xb1
 5408 0f2f 460F0000 		.4byte	0xf46
 5409 0f33 22       		.uleb128 0x22
 5410 0f34 5700     		.ascii	"W\000"
 5411 0f36 11       		.byte	0x11
 5412 0f37 B2       		.byte	0xb2
 5413 0f38 EB000000 		.4byte	0xeb
 5414 0f3c 22       		.uleb128 0x22
 5415 0f3d 4800     		.ascii	"H\000"
 5416 0f3f 11       		.byte	0x11
 5417 0f40 B6       		.byte	0xb6
 5418 0f41 0A0F0000 		.4byte	0xf0a
 5419 0f45 00       		.byte	0
 5420 0f46 1D       		.uleb128 0x1d
 5421 0f47 2C       		.byte	0x2c
 5422 0f48 11       		.byte	0x11
 5423 0f49 A9       		.byte	0xa9
 5424 0f4a D30F0000 		.4byte	0xfd3
 5425 0f4e 07       		.uleb128 0x7
 5426 0f4f 871C0000 		.4byte	.LASF264
 5427 0f53 11       		.byte	0x11
 5428 0f54 AB       		.byte	0xab
 5429 0f55 10010000 		.4byte	0x110
 5430 0f59 00       		.byte	0
 5431 0f5a 07       		.uleb128 0x7
ARM GAS  C:\Users\IDONNO~1\AppData\Local\Temp\ccm1q34l.s 			page 97


 5432 0f5b 91030000 		.4byte	.LASF265
 5433 0f5f 11       		.byte	0x11
 5434 0f60 AC       		.byte	0xac
 5435 0f61 10010000 		.4byte	0x110
 5436 0f65 04       		.byte	0x4
 5437 0f66 07       		.uleb128 0x7
 5438 0f67 D90C0000 		.4byte	.LASF266
 5439 0f6b 11       		.byte	0x11
 5440 0f6c AD       		.byte	0xad
 5441 0f6d 10010000 		.4byte	0x110
 5442 0f71 08       		.byte	0x8
 5443 0f72 07       		.uleb128 0x7
 5444 0f73 401B0000 		.4byte	.LASF267
 5445 0f77 11       		.byte	0x11
 5446 0f78 AE       		.byte	0xae
 5447 0f79 10010000 		.4byte	0x110
 5448 0f7d 0C       		.byte	0xc
 5449 0f7e 1E       		.uleb128 0x1e
 5450 0f7f 49445200 		.ascii	"IDR\000"
 5451 0f83 11       		.byte	0x11
 5452 0f84 AF       		.byte	0xaf
 5453 0f85 10010000 		.4byte	0x110
 5454 0f89 10       		.byte	0x10
 5455 0f8a 1E       		.uleb128 0x1e
 5456 0f8b 4F445200 		.ascii	"ODR\000"
 5457 0f8f 11       		.byte	0x11
 5458 0f90 B0       		.byte	0xb0
 5459 0f91 10010000 		.4byte	0x110
 5460 0f95 14       		.byte	0x14
 5461 0f96 07       		.uleb128 0x7
 5462 0f97 0B100000 		.4byte	.LASF268
 5463 0f9b 11       		.byte	0x11
 5464 0f9c B7       		.byte	0xb7
 5465 0f9d D30F0000 		.4byte	0xfd3
 5466 0fa1 18       		.byte	0x18
 5467 0fa2 07       		.uleb128 0x7
 5468 0fa3 26160000 		.4byte	.LASF269
 5469 0fa7 11       		.byte	0x11
 5470 0fa8 B8       		.byte	0xb8
 5471 0fa9 10010000 		.4byte	0x110
 5472 0fad 1C       		.byte	0x1c
 5473 0fae 07       		.uleb128 0x7
 5474 0faf 60190000 		.4byte	.LASF270
 5475 0fb3 11       		.byte	0x11
 5476 0fb4 B9       		.byte	0xb9
 5477 0fb5 10010000 		.4byte	0x110
 5478 0fb9 20       		.byte	0x20
 5479 0fba 07       		.uleb128 0x7
 5480 0fbb 5B190000 		.4byte	.LASF271
 5481 0fbf 11       		.byte	0x11
 5482 0fc0 BA       		.byte	0xba
 5483 0fc1 10010000 		.4byte	0x110
 5484 0fc5 24       		.byte	0x24
 5485 0fc6 1E       		.uleb128 0x1e
 5486 0fc7 42525200 		.ascii	"BRR\000"
 5487 0fcb 11       		.byte	0x11
 5488 0fcc BB       		.byte	0xbb
ARM GAS  C:\Users\IDONNO~1\AppData\Local\Temp\ccm1q34l.s 			page 98


 5489 0fcd 10010000 		.4byte	0x110
 5490 0fd1 28       		.byte	0x28
 5491 0fd2 00       		.byte	0
 5492 0fd3 05       		.uleb128 0x5
 5493 0fd4 2B0F0000 		.4byte	0xf2b
 5494 0fd8 04       		.uleb128 0x4
 5495 0fd9 C70D0000 		.4byte	.LASF272
 5496 0fdd 11       		.byte	0x11
 5497 0fde BC       		.byte	0xbc
 5498 0fdf 460F0000 		.4byte	0xf46
 5499 0fe3 1C       		.uleb128 0x1c
 5500 0fe4 CD110000 		.4byte	.LASF273
 5501 0fe8 11       		.byte	0x11
 5502 0fe9 0E01     		.2byte	0x10e
 5503 0feb EB000000 		.4byte	0xeb
 5504 0fef 1D       		.uleb128 0x1d
 5505 0ff0 04       		.byte	0x4
 5506 0ff1 12       		.byte	0x12
 5507 0ff2 36       		.byte	0x36
 5508 0ff3 28100000 		.4byte	0x1028
 5509 0ff7 07       		.uleb128 0x7
 5510 0ff8 D3150000 		.4byte	.LASF274
 5511 0ffc 12       		.byte	0x12
 5512 0ffd 38       		.byte	0x38
 5513 0ffe CA000000 		.4byte	0xca
 5514 1002 00       		.byte	0
 5515 1003 07       		.uleb128 0x7
 5516 1004 6E0B0000 		.4byte	.LASF275
 5517 1008 12       		.byte	0x12
 5518 1009 3D       		.byte	0x3d
 5519 100a CA000000 		.4byte	0xca
 5520 100e 01       		.byte	0x1
 5521 100f 07       		.uleb128 0x7
 5522 1010 C9220000 		.4byte	.LASF276
 5523 1014 12       		.byte	0x12
 5524 1015 42       		.byte	0x42
 5525 1016 CA000000 		.4byte	0xca
 5526 101a 02       		.byte	0x2
 5527 101b 07       		.uleb128 0x7
 5528 101c 18070000 		.4byte	.LASF277
 5529 1020 12       		.byte	0x12
 5530 1021 47       		.byte	0x47
 5531 1022 DD0B0000 		.4byte	0xbdd
 5532 1026 03       		.byte	0x3
 5533 1027 00       		.byte	0
 5534 1028 04       		.uleb128 0x4
 5535 1029 F0030000 		.4byte	.LASF278
 5536 102d 12       		.byte	0x12
 5537 102e 4A       		.byte	0x4a
 5538 102f EF0F0000 		.4byte	0xfef
 5539 1033 1D       		.uleb128 0x1d
 5540 1034 3C       		.byte	0x3c
 5541 1035 13       		.byte	0x13
 5542 1036 36       		.byte	0x36
 5543 1037 F0100000 		.4byte	0x10f0
 5544 103b 07       		.uleb128 0x7
 5545 103c 8B060000 		.4byte	.LASF279
ARM GAS  C:\Users\IDONNO~1\AppData\Local\Temp\ccm1q34l.s 			page 99


 5546 1040 13       		.byte	0x13
 5547 1041 38       		.byte	0x38
 5548 1042 EB000000 		.4byte	0xeb
 5549 1046 00       		.byte	0
 5550 1047 07       		.uleb128 0x7
 5551 1048 4E120000 		.4byte	.LASF280
 5552 104c 13       		.byte	0x13
 5553 104d 3B       		.byte	0x3b
 5554 104e EB000000 		.4byte	0xeb
 5555 1052 04       		.byte	0x4
 5556 1053 07       		.uleb128 0x7
 5557 1054 DA110000 		.4byte	.LASF281
 5558 1058 13       		.byte	0x13
 5559 1059 3D       		.byte	0x3d
 5560 105a EB000000 		.4byte	0xeb
 5561 105e 08       		.byte	0x8
 5562 105f 07       		.uleb128 0x7
 5563 1060 58160000 		.4byte	.LASF282
 5564 1064 13       		.byte	0x13
 5565 1065 41       		.byte	0x41
 5566 1066 EB000000 		.4byte	0xeb
 5567 106a 0C       		.byte	0xc
 5568 106b 07       		.uleb128 0x7
 5569 106c B5120000 		.4byte	.LASF283
 5570 1070 13       		.byte	0x13
 5571 1071 45       		.byte	0x45
 5572 1072 EB000000 		.4byte	0xeb
 5573 1076 10       		.byte	0x10
 5574 1077 07       		.uleb128 0x7
 5575 1078 A9150000 		.4byte	.LASF284
 5576 107c 13       		.byte	0x13
 5577 107d 49       		.byte	0x49
 5578 107e EB000000 		.4byte	0xeb
 5579 1082 14       		.byte	0x14
 5580 1083 07       		.uleb128 0x7
 5581 1084 2A0B0000 		.4byte	.LASF285
 5582 1088 13       		.byte	0x13
 5583 1089 4C       		.byte	0x4c
 5584 108a EB000000 		.4byte	0xeb
 5585 108e 18       		.byte	0x18
 5586 108f 07       		.uleb128 0x7
 5587 1090 580A0000 		.4byte	.LASF286
 5588 1094 13       		.byte	0x13
 5589 1095 4F       		.byte	0x4f
 5590 1096 EB000000 		.4byte	0xeb
 5591 109a 1C       		.byte	0x1c
 5592 109b 07       		.uleb128 0x7
 5593 109c 290D0000 		.4byte	.LASF287
 5594 10a0 13       		.byte	0x13
 5595 10a1 52       		.byte	0x52
 5596 10a2 EB000000 		.4byte	0xeb
 5597 10a6 20       		.byte	0x20
 5598 10a7 07       		.uleb128 0x7
 5599 10a8 77120000 		.4byte	.LASF288
 5600 10ac 13       		.byte	0x13
 5601 10ad 55       		.byte	0x55
 5602 10ae EB000000 		.4byte	0xeb
ARM GAS  C:\Users\IDONNO~1\AppData\Local\Temp\ccm1q34l.s 			page 100


 5603 10b2 24       		.byte	0x24
 5604 10b3 07       		.uleb128 0x7
 5605 10b4 7F020000 		.4byte	.LASF289
 5606 10b8 13       		.byte	0x13
 5607 10b9 5A       		.byte	0x5a
 5608 10ba EB000000 		.4byte	0xeb
 5609 10be 28       		.byte	0x28
 5610 10bf 07       		.uleb128 0x7
 5611 10c0 2B110000 		.4byte	.LASF290
 5612 10c4 13       		.byte	0x13
 5613 10c5 5D       		.byte	0x5d
 5614 10c6 EB000000 		.4byte	0xeb
 5615 10ca 2C       		.byte	0x2c
 5616 10cb 07       		.uleb128 0x7
 5617 10cc AA200000 		.4byte	.LASF291
 5618 10d0 13       		.byte	0x13
 5619 10d1 62       		.byte	0x62
 5620 10d2 EB000000 		.4byte	0xeb
 5621 10d6 30       		.byte	0x30
 5622 10d7 07       		.uleb128 0x7
 5623 10d8 FA1C0000 		.4byte	.LASF292
 5624 10dc 13       		.byte	0x13
 5625 10dd 65       		.byte	0x65
 5626 10de EB000000 		.4byte	0xeb
 5627 10e2 34       		.byte	0x34
 5628 10e3 07       		.uleb128 0x7
 5629 10e4 240C0000 		.4byte	.LASF293
 5630 10e8 13       		.byte	0x13
 5631 10e9 6A       		.byte	0x6a
 5632 10ea EB000000 		.4byte	0xeb
 5633 10ee 38       		.byte	0x38
 5634 10ef 00       		.byte	0
 5635 10f0 04       		.uleb128 0x4
 5636 10f1 5E020000 		.4byte	.LASF294
 5637 10f5 13       		.byte	0x13
 5638 10f6 6E       		.byte	0x6e
 5639 10f7 33100000 		.4byte	0x1033
 5640 10fb 1D       		.uleb128 0x1d
 5641 10fc 18       		.byte	0x18
 5642 10fd 14       		.byte	0x14
 5643 10fe 35       		.byte	0x35
 5644 10ff 58110000 		.4byte	0x1158
 5645 1103 07       		.uleb128 0x7
 5646 1104 88190000 		.4byte	.LASF295
 5647 1108 14       		.byte	0x14
 5648 1109 37       		.byte	0x37
 5649 110a EB000000 		.4byte	0xeb
 5650 110e 00       		.byte	0
 5651 110f 07       		.uleb128 0x7
 5652 1110 B9130000 		.4byte	.LASF296
 5653 1114 14       		.byte	0x14
 5654 1115 39       		.byte	0x39
 5655 1116 DD0B0000 		.4byte	0xbdd
 5656 111a 04       		.byte	0x4
 5657 111b 07       		.uleb128 0x7
 5658 111c 441C0000 		.4byte	.LASF297
 5659 1120 14       		.byte	0x14
ARM GAS  C:\Users\IDONNO~1\AppData\Local\Temp\ccm1q34l.s 			page 101


 5660 1121 3D       		.byte	0x3d
 5661 1122 DD0B0000 		.4byte	0xbdd
 5662 1126 05       		.byte	0x5
 5663 1127 07       		.uleb128 0x7
 5664 1128 97060000 		.4byte	.LASF298
 5665 112c 14       		.byte	0x14
 5666 112d 40       		.byte	0x40
 5667 112e EB000000 		.4byte	0xeb
 5668 1132 08       		.byte	0x8
 5669 1133 07       		.uleb128 0x7
 5670 1134 C6100000 		.4byte	.LASF299
 5671 1138 14       		.byte	0x14
 5672 1139 44       		.byte	0x44
 5673 113a EB000000 		.4byte	0xeb
 5674 113e 0C       		.byte	0xc
 5675 113f 07       		.uleb128 0x7
 5676 1140 1D110000 		.4byte	.LASF300
 5677 1144 14       		.byte	0x14
 5678 1145 48       		.byte	0x48
 5679 1146 EB000000 		.4byte	0xeb
 5680 114a 10       		.byte	0x10
 5681 114b 07       		.uleb128 0x7
 5682 114c E9020000 		.4byte	.LASF301
 5683 1150 14       		.byte	0x14
 5684 1151 4B       		.byte	0x4b
 5685 1152 CA000000 		.4byte	0xca
 5686 1156 14       		.byte	0x14
 5687 1157 00       		.byte	0
 5688 1158 04       		.uleb128 0x4
 5689 1159 FD1F0000 		.4byte	.LASF302
 5690 115d 14       		.byte	0x14
 5691 115e 4F       		.byte	0x4f
 5692 115f FB100000 		.4byte	0x10fb
 5693 1163 1D       		.uleb128 0x1d
 5694 1164 10       		.byte	0x10
 5695 1165 14       		.byte	0x14
 5696 1166 54       		.byte	0x54
 5697 1167 9C110000 		.4byte	0x119c
 5698 116b 07       		.uleb128 0x7
 5699 116c 67030000 		.4byte	.LASF303
 5700 1170 14       		.byte	0x14
 5701 1171 56       		.byte	0x56
 5702 1172 EB000000 		.4byte	0xeb
 5703 1176 00       		.byte	0
 5704 1177 07       		.uleb128 0x7
 5705 1178 85130000 		.4byte	.LASF304
 5706 117c 14       		.byte	0x14
 5707 117d 59       		.byte	0x59
 5708 117e EB000000 		.4byte	0xeb
 5709 1182 04       		.byte	0x4
 5710 1183 07       		.uleb128 0x7
 5711 1184 58060000 		.4byte	.LASF305
 5712 1188 14       		.byte	0x14
 5713 1189 5C       		.byte	0x5c
 5714 118a EB000000 		.4byte	0xeb
 5715 118e 08       		.byte	0x8
 5716 118f 07       		.uleb128 0x7
ARM GAS  C:\Users\IDONNO~1\AppData\Local\Temp\ccm1q34l.s 			page 102


 5717 1190 C5170000 		.4byte	.LASF306
 5718 1194 14       		.byte	0x14
 5719 1195 60       		.byte	0x60
 5720 1196 EB000000 		.4byte	0xeb
 5721 119a 0C       		.byte	0xc
 5722 119b 00       		.byte	0
 5723 119c 04       		.uleb128 0x4
 5724 119d 4A1D0000 		.4byte	.LASF307
 5725 11a1 14       		.byte	0x14
 5726 11a2 64       		.byte	0x64
 5727 11a3 63110000 		.4byte	0x1163
 5728 11a7 1D       		.uleb128 0x1d
 5729 11a8 0C       		.byte	0xc
 5730 11a9 15       		.byte	0x15
 5731 11aa 37       		.byte	0x37
 5732 11ab EC110000 		.4byte	0x11ec
 5733 11af 07       		.uleb128 0x7
 5734 11b0 530B0000 		.4byte	.LASF308
 5735 11b4 15       		.byte	0x15
 5736 11b5 39       		.byte	0x39
 5737 11b6 D5000000 		.4byte	0xd5
 5738 11ba 00       		.byte	0
 5739 11bb 07       		.uleb128 0x7
 5740 11bc 4D150000 		.4byte	.LASF309
 5741 11c0 15       		.byte	0x15
 5742 11c1 3C       		.byte	0x3c
 5743 11c2 D5000000 		.4byte	0xd5
 5744 11c6 02       		.byte	0x2
 5745 11c7 07       		.uleb128 0x7
 5746 11c8 920A0000 		.4byte	.LASF310
 5747 11cc 15       		.byte	0x15
 5748 11cd 3F       		.byte	0x3f
 5749 11ce EB000000 		.4byte	0xeb
 5750 11d2 04       		.byte	0x4
 5751 11d3 07       		.uleb128 0x7
 5752 11d4 1D030000 		.4byte	.LASF311
 5753 11d8 15       		.byte	0x15
 5754 11d9 43       		.byte	0x43
 5755 11da D5000000 		.4byte	0xd5
 5756 11de 08       		.byte	0x8
 5757 11df 07       		.uleb128 0x7
 5758 11e0 6D090000 		.4byte	.LASF312
 5759 11e4 15       		.byte	0x15
 5760 11e5 46       		.byte	0x46
 5761 11e6 CA000000 		.4byte	0xca
 5762 11ea 0A       		.byte	0xa
 5763 11eb 00       		.byte	0
 5764 11ec 04       		.uleb128 0x4
 5765 11ed 5D150000 		.4byte	.LASF313
 5766 11f1 15       		.byte	0x15
 5767 11f2 4E       		.byte	0x4e
 5768 11f3 A7110000 		.4byte	0x11a7
 5769 11f7 1D       		.uleb128 0x1d
 5770 11f8 14       		.byte	0x14
 5771 11f9 15       		.byte	0x15
 5772 11fa 54       		.byte	0x54
 5773 11fb 60120000 		.4byte	0x1260
ARM GAS  C:\Users\IDONNO~1\AppData\Local\Temp\ccm1q34l.s 			page 103


 5774 11ff 07       		.uleb128 0x7
 5775 1200 C0070000 		.4byte	.LASF314
 5776 1204 15       		.byte	0x15
 5777 1205 56       		.byte	0x56
 5778 1206 D5000000 		.4byte	0xd5
 5779 120a 00       		.byte	0
 5780 120b 07       		.uleb128 0x7
 5781 120c 34120000 		.4byte	.LASF315
 5782 1210 15       		.byte	0x15
 5783 1211 59       		.byte	0x59
 5784 1212 D5000000 		.4byte	0xd5
 5785 1216 02       		.byte	0x2
 5786 1217 07       		.uleb128 0x7
 5787 1218 15160000 		.4byte	.LASF316
 5788 121c 15       		.byte	0x15
 5789 121d 5C       		.byte	0x5c
 5790 121e D5000000 		.4byte	0xd5
 5791 1222 04       		.byte	0x4
 5792 1223 07       		.uleb128 0x7
 5793 1224 23020000 		.4byte	.LASF317
 5794 1228 15       		.byte	0x15
 5795 1229 60       		.byte	0x60
 5796 122a EB000000 		.4byte	0xeb
 5797 122e 08       		.byte	0x8
 5798 122f 07       		.uleb128 0x7
 5799 1230 F0000000 		.4byte	.LASF318
 5800 1234 15       		.byte	0x15
 5801 1235 63       		.byte	0x63
 5802 1236 D5000000 		.4byte	0xd5
 5803 123a 0C       		.byte	0xc
 5804 123b 07       		.uleb128 0x7
 5805 123c 9A0E0000 		.4byte	.LASF319
 5806 1240 15       		.byte	0x15
 5807 1241 66       		.byte	0x66
 5808 1242 D5000000 		.4byte	0xd5
 5809 1246 0E       		.byte	0xe
 5810 1247 07       		.uleb128 0x7
 5811 1248 FB040000 		.4byte	.LASF320
 5812 124c 15       		.byte	0x15
 5813 124d 6A       		.byte	0x6a
 5814 124e D5000000 		.4byte	0xd5
 5815 1252 10       		.byte	0x10
 5816 1253 07       		.uleb128 0x7
 5817 1254 A6040000 		.4byte	.LASF321
 5818 1258 15       		.byte	0x15
 5819 1259 6E       		.byte	0x6e
 5820 125a D5000000 		.4byte	0xd5
 5821 125e 12       		.byte	0x12
 5822 125f 00       		.byte	0
 5823 1260 04       		.uleb128 0x4
 5824 1261 EA0D0000 		.4byte	.LASF322
 5825 1265 15       		.byte	0x15
 5826 1266 71       		.byte	0x71
 5827 1267 F7110000 		.4byte	0x11f7
 5828 126b 1D       		.uleb128 0x1d
 5829 126c 0E       		.byte	0xe
 5830 126d 15       		.byte	0x15
ARM GAS  C:\Users\IDONNO~1\AppData\Local\Temp\ccm1q34l.s 			page 104


 5831 126e 8F       		.byte	0x8f
 5832 126f C8120000 		.4byte	0x12c8
 5833 1273 07       		.uleb128 0x7
 5834 1274 D6140000 		.4byte	.LASF323
 5835 1278 15       		.byte	0x15
 5836 1279 92       		.byte	0x92
 5837 127a D5000000 		.4byte	0xd5
 5838 127e 00       		.byte	0
 5839 127f 07       		.uleb128 0x7
 5840 1280 8D1E0000 		.4byte	.LASF324
 5841 1284 15       		.byte	0x15
 5842 1285 95       		.byte	0x95
 5843 1286 D5000000 		.4byte	0xd5
 5844 128a 02       		.byte	0x2
 5845 128b 07       		.uleb128 0x7
 5846 128c 1F090000 		.4byte	.LASF325
 5847 1290 15       		.byte	0x15
 5848 1291 98       		.byte	0x98
 5849 1292 D5000000 		.4byte	0xd5
 5850 1296 04       		.byte	0x4
 5851 1297 07       		.uleb128 0x7
 5852 1298 0D120000 		.4byte	.LASF326
 5853 129c 15       		.byte	0x15
 5854 129d 9B       		.byte	0x9b
 5855 129e D5000000 		.4byte	0xd5
 5856 12a2 06       		.byte	0x6
 5857 12a3 07       		.uleb128 0x7
 5858 12a4 D2090000 		.4byte	.LASF327
 5859 12a8 15       		.byte	0x15
 5860 12a9 9F       		.byte	0x9f
 5861 12aa D5000000 		.4byte	0xd5
 5862 12ae 08       		.byte	0x8
 5863 12af 07       		.uleb128 0x7
 5864 12b0 B80B0000 		.4byte	.LASF328
 5865 12b4 15       		.byte	0x15
 5866 12b5 A2       		.byte	0xa2
 5867 12b6 D5000000 		.4byte	0xd5
 5868 12ba 0A       		.byte	0xa
 5869 12bb 07       		.uleb128 0x7
 5870 12bc BE030000 		.4byte	.LASF329
 5871 12c0 15       		.byte	0x15
 5872 12c1 A5       		.byte	0xa5
 5873 12c2 D5000000 		.4byte	0xd5
 5874 12c6 0C       		.byte	0xc
 5875 12c7 00       		.byte	0
 5876 12c8 04       		.uleb128 0x4
 5877 12c9 0A1D0000 		.4byte	.LASF330
 5878 12cd 15       		.byte	0x15
 5879 12ce A7       		.byte	0xa7
 5880 12cf 6B120000 		.4byte	0x126b
 5881 12d3 04       		.uleb128 0x4
 5882 12d4 9E140000 		.4byte	.LASF331
 5883 12d8 16       		.byte	0x16
 5884 12d9 07       		.byte	0x7
 5885 12da 2C000000 		.4byte	0x2c
 5886 12de 04       		.uleb128 0x4
 5887 12df E20B0000 		.4byte	.LASF332
ARM GAS  C:\Users\IDONNO~1\AppData\Local\Temp\ccm1q34l.s 			page 105


 5888 12e3 17       		.byte	0x17
 5889 12e4 10       		.byte	0x10
 5890 12e5 8D000000 		.4byte	0x8d
 5891 12e9 04       		.uleb128 0x4
 5892 12ea 291A0000 		.4byte	.LASF333
 5893 12ee 17       		.byte	0x17
 5894 12ef 27       		.byte	0x27
 5895 12f0 8D000000 		.4byte	0x8d
 5896 12f4 1C       		.uleb128 0x1c
 5897 12f5 120D0000 		.4byte	.LASF334
 5898 12f9 03       		.byte	0x3
 5899 12fa 6501     		.2byte	0x165
 5900 12fc 3E000000 		.4byte	0x3e
 5901 1300 20       		.uleb128 0x20
 5902 1301 04       		.byte	0x4
 5903 1302 17       		.byte	0x17
 5904 1303 4A       		.byte	0x4a
 5905 1304 1F130000 		.4byte	0x131f
 5906 1308 23       		.uleb128 0x23
 5907 1309 2B140000 		.4byte	.LASF335
 5908 130d 17       		.byte	0x17
 5909 130e 4C       		.byte	0x4c
 5910 130f F4120000 		.4byte	0x12f4
 5911 1313 23       		.uleb128 0x23
 5912 1314 E10C0000 		.4byte	.LASF336
 5913 1318 17       		.byte	0x17
 5914 1319 4D       		.byte	0x4d
 5915 131a 1F130000 		.4byte	0x131f
 5916 131e 00       		.byte	0
 5917 131f 19       		.uleb128 0x19
 5918 1320 62000000 		.4byte	0x62
 5919 1324 2F130000 		.4byte	0x132f
 5920 1328 1A       		.uleb128 0x1a
 5921 1329 D4060000 		.4byte	0x6d4
 5922 132d 03       		.byte	0x3
 5923 132e 00       		.byte	0
 5924 132f 1D       		.uleb128 0x1d
 5925 1330 08       		.byte	0x8
 5926 1331 17       		.byte	0x17
 5927 1332 47       		.byte	0x47
 5928 1333 50130000 		.4byte	0x1350
 5929 1337 07       		.uleb128 0x7
 5930 1338 FF0B0000 		.4byte	.LASF337
 5931 133c 17       		.byte	0x17
 5932 133d 49       		.byte	0x49
 5933 133e 2C000000 		.4byte	0x2c
 5934 1342 00       		.byte	0
 5935 1343 07       		.uleb128 0x7
 5936 1344 A21B0000 		.4byte	.LASF338
 5937 1348 17       		.byte	0x17
 5938 1349 4E       		.byte	0x4e
 5939 134a 00130000 		.4byte	0x1300
 5940 134e 04       		.byte	0x4
 5941 134f 00       		.byte	0
 5942 1350 04       		.uleb128 0x4
 5943 1351 BB1A0000 		.4byte	.LASF339
 5944 1355 17       		.byte	0x17
ARM GAS  C:\Users\IDONNO~1\AppData\Local\Temp\ccm1q34l.s 			page 106


 5945 1356 4F       		.byte	0x4f
 5946 1357 2F130000 		.4byte	0x132f
 5947 135b 04       		.uleb128 0x4
 5948 135c FA1E0000 		.4byte	.LASF340
 5949 1360 17       		.byte	0x17
 5950 1361 53       		.byte	0x53
 5951 1362 D3120000 		.4byte	0x12d3
 5952 1366 04       		.uleb128 0x4
 5953 1367 DB100000 		.4byte	.LASF341
 5954 136b 18       		.byte	0x18
 5955 136c 16       		.byte	0x16
 5956 136d 9F000000 		.4byte	0x9f
 5957 1371 06       		.uleb128 0x6
 5958 1372 F6170000 		.4byte	.LASF342
 5959 1376 18       		.byte	0x18
 5960 1377 18       		.byte	0x18
 5961 1378 2D       		.byte	0x2d
 5962 1379 C4130000 		.4byte	0x13c4
 5963 137d 07       		.uleb128 0x7
 5964 137e 5D0E0000 		.4byte	.LASF343
 5965 1382 18       		.byte	0x18
 5966 1383 2F       		.byte	0x2f
 5967 1384 C4130000 		.4byte	0x13c4
 5968 1388 00       		.byte	0
 5969 1389 1E       		.uleb128 0x1e
 5970 138a 5F6B00   		.ascii	"_k\000"
 5971 138d 18       		.byte	0x18
 5972 138e 30       		.byte	0x30
 5973 138f 2C000000 		.4byte	0x2c
 5974 1393 04       		.byte	0x4
 5975 1394 07       		.uleb128 0x7
 5976 1395 60160000 		.4byte	.LASF344
 5977 1399 18       		.byte	0x18
 5978 139a 30       		.byte	0x30
 5979 139b 2C000000 		.4byte	0x2c
 5980 139f 08       		.byte	0x8
 5981 13a0 07       		.uleb128 0x7
 5982 13a1 7B160000 		.4byte	.LASF345
 5983 13a5 18       		.byte	0x18
 5984 13a6 30       		.byte	0x30
 5985 13a7 2C000000 		.4byte	0x2c
 5986 13ab 0C       		.byte	0xc
 5987 13ac 07       		.uleb128 0x7
 5988 13ad F8080000 		.4byte	.LASF346
 5989 13b1 18       		.byte	0x18
 5990 13b2 30       		.byte	0x30
 5991 13b3 2C000000 		.4byte	0x2c
 5992 13b7 10       		.byte	0x10
 5993 13b8 1E       		.uleb128 0x1e
 5994 13b9 5F7800   		.ascii	"_x\000"
 5995 13bc 18       		.byte	0x18
 5996 13bd 31       		.byte	0x31
 5997 13be CA130000 		.4byte	0x13ca
 5998 13c2 14       		.byte	0x14
 5999 13c3 00       		.byte	0
 6000 13c4 0A       		.uleb128 0xa
 6001 13c5 04       		.byte	0x4
ARM GAS  C:\Users\IDONNO~1\AppData\Local\Temp\ccm1q34l.s 			page 107


 6002 13c6 71130000 		.4byte	0x1371
 6003 13ca 19       		.uleb128 0x19
 6004 13cb 66130000 		.4byte	0x1366
 6005 13cf DA130000 		.4byte	0x13da
 6006 13d3 1A       		.uleb128 0x1a
 6007 13d4 D4060000 		.4byte	0x6d4
 6008 13d8 00       		.byte	0
 6009 13d9 00       		.byte	0
 6010 13da 06       		.uleb128 0x6
 6011 13db B0060000 		.4byte	.LASF347
 6012 13df 24       		.byte	0x24
 6013 13e0 18       		.byte	0x18
 6014 13e1 35       		.byte	0x35
 6015 13e2 53140000 		.4byte	0x1453
 6016 13e6 07       		.uleb128 0x7
 6017 13e7 610F0000 		.4byte	.LASF348
 6018 13eb 18       		.byte	0x18
 6019 13ec 37       		.byte	0x37
 6020 13ed 2C000000 		.4byte	0x2c
 6021 13f1 00       		.byte	0
 6022 13f2 07       		.uleb128 0x7
 6023 13f3 2D230000 		.4byte	.LASF349
 6024 13f7 18       		.byte	0x18
 6025 13f8 38       		.byte	0x38
 6026 13f9 2C000000 		.4byte	0x2c
 6027 13fd 04       		.byte	0x4
 6028 13fe 07       		.uleb128 0x7
 6029 13ff FE0C0000 		.4byte	.LASF350
 6030 1403 18       		.byte	0x18
 6031 1404 39       		.byte	0x39
 6032 1405 2C000000 		.4byte	0x2c
 6033 1409 08       		.byte	0x8
 6034 140a 07       		.uleb128 0x7
 6035 140b AC0D0000 		.4byte	.LASF351
 6036 140f 18       		.byte	0x18
 6037 1410 3A       		.byte	0x3a
 6038 1411 2C000000 		.4byte	0x2c
 6039 1415 0C       		.byte	0xc
 6040 1416 07       		.uleb128 0x7
 6041 1417 4D100000 		.4byte	.LASF352
 6042 141b 18       		.byte	0x18
 6043 141c 3B       		.byte	0x3b
 6044 141d 2C000000 		.4byte	0x2c
 6045 1421 10       		.byte	0x10
 6046 1422 07       		.uleb128 0x7
 6047 1423 880A0000 		.4byte	.LASF353
 6048 1427 18       		.byte	0x18
 6049 1428 3C       		.byte	0x3c
 6050 1429 2C000000 		.4byte	0x2c
 6051 142d 14       		.byte	0x14
 6052 142e 07       		.uleb128 0x7
 6053 142f 4B080000 		.4byte	.LASF354
 6054 1433 18       		.byte	0x18
 6055 1434 3D       		.byte	0x3d
 6056 1435 2C000000 		.4byte	0x2c
 6057 1439 18       		.byte	0x18
 6058 143a 07       		.uleb128 0x7
ARM GAS  C:\Users\IDONNO~1\AppData\Local\Temp\ccm1q34l.s 			page 108


 6059 143b DD060000 		.4byte	.LASF355
 6060 143f 18       		.byte	0x18
 6061 1440 3E       		.byte	0x3e
 6062 1441 2C000000 		.4byte	0x2c
 6063 1445 1C       		.byte	0x1c
 6064 1446 07       		.uleb128 0x7
 6065 1447 55080000 		.4byte	.LASF356
 6066 144b 18       		.byte	0x18
 6067 144c 3F       		.byte	0x3f
 6068 144d 2C000000 		.4byte	0x2c
 6069 1451 20       		.byte	0x20
 6070 1452 00       		.byte	0
 6071 1453 24       		.uleb128 0x24
 6072 1454 8E0F0000 		.4byte	.LASF357
 6073 1458 0801     		.2byte	0x108
 6074 145a 18       		.byte	0x18
 6075 145b 48       		.byte	0x48
 6076 145c 93140000 		.4byte	0x1493
 6077 1460 07       		.uleb128 0x7
 6078 1461 DB0D0000 		.4byte	.LASF358
 6079 1465 18       		.byte	0x18
 6080 1466 49       		.byte	0x49
 6081 1467 93140000 		.4byte	0x1493
 6082 146b 00       		.byte	0
 6083 146c 07       		.uleb128 0x7
 6084 146d 13080000 		.4byte	.LASF359
 6085 1471 18       		.byte	0x18
 6086 1472 4A       		.byte	0x4a
 6087 1473 93140000 		.4byte	0x1493
 6088 1477 80       		.byte	0x80
 6089 1478 25       		.uleb128 0x25
 6090 1479 79010000 		.4byte	.LASF360
 6091 147d 18       		.byte	0x18
 6092 147e 4C       		.byte	0x4c
 6093 147f 66130000 		.4byte	0x1366
 6094 1483 0001     		.2byte	0x100
 6095 1485 25       		.uleb128 0x25
 6096 1486 B91B0000 		.4byte	.LASF361
 6097 148a 18       		.byte	0x18
 6098 148b 4F       		.byte	0x4f
 6099 148c 66130000 		.4byte	0x1366
 6100 1490 0401     		.2byte	0x104
 6101 1492 00       		.byte	0
 6102 1493 19       		.uleb128 0x19
 6103 1494 7B030000 		.4byte	0x37b
 6104 1498 A3140000 		.4byte	0x14a3
 6105 149c 1A       		.uleb128 0x1a
 6106 149d D4060000 		.4byte	0x6d4
 6107 14a1 1F       		.byte	0x1f
 6108 14a2 00       		.byte	0
 6109 14a3 24       		.uleb128 0x24
 6110 14a4 2D210000 		.4byte	.LASF362
 6111 14a8 9001     		.2byte	0x190
 6112 14aa 18       		.byte	0x18
 6113 14ab 5B       		.byte	0x5b
 6114 14ac E1140000 		.4byte	0x14e1
 6115 14b0 07       		.uleb128 0x7
ARM GAS  C:\Users\IDONNO~1\AppData\Local\Temp\ccm1q34l.s 			page 109


 6116 14b1 5D0E0000 		.4byte	.LASF343
 6117 14b5 18       		.byte	0x18
 6118 14b6 5C       		.byte	0x5c
 6119 14b7 E1140000 		.4byte	0x14e1
 6120 14bb 00       		.byte	0
 6121 14bc 07       		.uleb128 0x7
 6122 14bd AA010000 		.4byte	.LASF363
 6123 14c1 18       		.byte	0x18
 6124 14c2 5D       		.byte	0x5d
 6125 14c3 2C000000 		.4byte	0x2c
 6126 14c7 04       		.byte	0x4
 6127 14c8 07       		.uleb128 0x7
 6128 14c9 931A0000 		.4byte	.LASF364
 6129 14cd 18       		.byte	0x18
 6130 14ce 5F       		.byte	0x5f
 6131 14cf E7140000 		.4byte	0x14e7
 6132 14d3 08       		.byte	0x8
 6133 14d4 07       		.uleb128 0x7
 6134 14d5 8E0F0000 		.4byte	.LASF357
 6135 14d9 18       		.byte	0x18
 6136 14da 60       		.byte	0x60
 6137 14db 53140000 		.4byte	0x1453
 6138 14df 88       		.byte	0x88
 6139 14e0 00       		.byte	0
 6140 14e1 0A       		.uleb128 0xa
 6141 14e2 04       		.byte	0x4
 6142 14e3 A3140000 		.4byte	0x14a3
 6143 14e7 19       		.uleb128 0x19
 6144 14e8 F7140000 		.4byte	0x14f7
 6145 14ec F7140000 		.4byte	0x14f7
 6146 14f0 1A       		.uleb128 0x1a
 6147 14f1 D4060000 		.4byte	0x6d4
 6148 14f5 1F       		.byte	0x1f
 6149 14f6 00       		.byte	0
 6150 14f7 0A       		.uleb128 0xa
 6151 14f8 04       		.byte	0x4
 6152 14f9 FD140000 		.4byte	0x14fd
 6153 14fd 26       		.uleb128 0x26
 6154 14fe 06       		.uleb128 0x6
 6155 14ff 081B0000 		.4byte	.LASF365
 6156 1503 08       		.byte	0x8
 6157 1504 18       		.byte	0x18
 6158 1505 73       		.byte	0x73
 6159 1506 23150000 		.4byte	0x1523
 6160 150a 07       		.uleb128 0x7
 6161 150b DC0F0000 		.4byte	.LASF366
 6162 150f 18       		.byte	0x18
 6163 1510 74       		.byte	0x74
 6164 1511 23150000 		.4byte	0x1523
 6165 1515 00       		.byte	0
 6166 1516 07       		.uleb128 0x7
 6167 1517 5B090000 		.4byte	.LASF367
 6168 151b 18       		.byte	0x18
 6169 151c 75       		.byte	0x75
 6170 151d 2C000000 		.4byte	0x2c
 6171 1521 04       		.byte	0x4
 6172 1522 00       		.byte	0
ARM GAS  C:\Users\IDONNO~1\AppData\Local\Temp\ccm1q34l.s 			page 110


 6173 1523 0A       		.uleb128 0xa
 6174 1524 04       		.byte	0x4
 6175 1525 62000000 		.4byte	0x62
 6176 1529 06       		.uleb128 0x6
 6177 152a 7C1A0000 		.4byte	.LASF368
 6178 152e 68       		.byte	0x68
 6179 152f 18       		.byte	0x18
 6180 1530 B3       		.byte	0xb3
 6181 1531 53160000 		.4byte	0x1653
 6182 1535 1E       		.uleb128 0x1e
 6183 1536 5F7000   		.ascii	"_p\000"
 6184 1539 18       		.byte	0x18
 6185 153a B4       		.byte	0xb4
 6186 153b 23150000 		.4byte	0x1523
 6187 153f 00       		.byte	0
 6188 1540 1E       		.uleb128 0x1e
 6189 1541 5F7200   		.ascii	"_r\000"
 6190 1544 18       		.byte	0x18
 6191 1545 B5       		.byte	0xb5
 6192 1546 2C000000 		.4byte	0x2c
 6193 154a 04       		.byte	0x4
 6194 154b 1E       		.uleb128 0x1e
 6195 154c 5F7700   		.ascii	"_w\000"
 6196 154f 18       		.byte	0x18
 6197 1550 B6       		.byte	0xb6
 6198 1551 2C000000 		.4byte	0x2c
 6199 1555 08       		.byte	0x8
 6200 1556 07       		.uleb128 0x7
 6201 1557 12020000 		.4byte	.LASF369
 6202 155b 18       		.byte	0x18
 6203 155c B7       		.byte	0xb7
 6204 155d 69000000 		.4byte	0x69
 6205 1561 0C       		.byte	0xc
 6206 1562 07       		.uleb128 0x7
 6207 1563 311A0000 		.4byte	.LASF370
 6208 1567 18       		.byte	0x18
 6209 1568 B8       		.byte	0xb8
 6210 1569 69000000 		.4byte	0x69
 6211 156d 0E       		.byte	0xe
 6212 156e 1E       		.uleb128 0x1e
 6213 156f 5F626600 		.ascii	"_bf\000"
 6214 1573 18       		.byte	0x18
 6215 1574 B9       		.byte	0xb9
 6216 1575 FE140000 		.4byte	0x14fe
 6217 1579 10       		.byte	0x10
 6218 157a 07       		.uleb128 0x7
 6219 157b F2040000 		.4byte	.LASF371
 6220 157f 18       		.byte	0x18
 6221 1580 BA       		.byte	0xba
 6222 1581 2C000000 		.4byte	0x2c
 6223 1585 18       		.byte	0x18
 6224 1586 07       		.uleb128 0x7
 6225 1587 920E0000 		.4byte	.LASF372
 6226 158b 18       		.byte	0x18
 6227 158c C1       		.byte	0xc1
 6228 158d 7B030000 		.4byte	0x37b
 6229 1591 1C       		.byte	0x1c
ARM GAS  C:\Users\IDONNO~1\AppData\Local\Temp\ccm1q34l.s 			page 111


 6230 1592 07       		.uleb128 0x7
 6231 1593 26240000 		.4byte	.LASF373
 6232 1597 18       		.byte	0x18
 6233 1598 C3       		.byte	0xc3
 6234 1599 AF170000 		.4byte	0x17af
 6235 159d 20       		.byte	0x20
 6236 159e 07       		.uleb128 0x7
 6237 159f F1090000 		.4byte	.LASF374
 6238 15a3 18       		.byte	0x18
 6239 15a4 C5       		.byte	0xc5
 6240 15a5 D3170000 		.4byte	0x17d3
 6241 15a9 24       		.byte	0x24
 6242 15aa 07       		.uleb128 0x7
 6243 15ab C7110000 		.4byte	.LASF375
 6244 15af 18       		.byte	0x18
 6245 15b0 C8       		.byte	0xc8
 6246 15b1 F7170000 		.4byte	0x17f7
 6247 15b5 28       		.byte	0x28
 6248 15b6 07       		.uleb128 0x7
 6249 15b7 52170000 		.4byte	.LASF376
 6250 15bb 18       		.byte	0x18
 6251 15bc C9       		.byte	0xc9
 6252 15bd 11180000 		.4byte	0x1811
 6253 15c1 2C       		.byte	0x2c
 6254 15c2 1E       		.uleb128 0x1e
 6255 15c3 5F756200 		.ascii	"_ub\000"
 6256 15c7 18       		.byte	0x18
 6257 15c8 CC       		.byte	0xcc
 6258 15c9 FE140000 		.4byte	0x14fe
 6259 15cd 30       		.byte	0x30
 6260 15ce 1E       		.uleb128 0x1e
 6261 15cf 5F757000 		.ascii	"_up\000"
 6262 15d3 18       		.byte	0x18
 6263 15d4 CD       		.byte	0xcd
 6264 15d5 23150000 		.4byte	0x1523
 6265 15d9 38       		.byte	0x38
 6266 15da 1E       		.uleb128 0x1e
 6267 15db 5F757200 		.ascii	"_ur\000"
 6268 15df 18       		.byte	0x18
 6269 15e0 CE       		.byte	0xce
 6270 15e1 2C000000 		.4byte	0x2c
 6271 15e5 3C       		.byte	0x3c
 6272 15e6 07       		.uleb128 0x7
 6273 15e7 B3190000 		.4byte	.LASF377
 6274 15eb 18       		.byte	0x18
 6275 15ec D1       		.byte	0xd1
 6276 15ed 17180000 		.4byte	0x1817
 6277 15f1 40       		.byte	0x40
 6278 15f2 07       		.uleb128 0x7
 6279 15f3 0F030000 		.4byte	.LASF378
 6280 15f7 18       		.byte	0x18
 6281 15f8 D2       		.byte	0xd2
 6282 15f9 27180000 		.4byte	0x1827
 6283 15fd 43       		.byte	0x43
 6284 15fe 1E       		.uleb128 0x1e
 6285 15ff 5F6C6200 		.ascii	"_lb\000"
 6286 1603 18       		.byte	0x18
ARM GAS  C:\Users\IDONNO~1\AppData\Local\Temp\ccm1q34l.s 			page 112


 6287 1604 D5       		.byte	0xd5
 6288 1605 FE140000 		.4byte	0x14fe
 6289 1609 44       		.byte	0x44
 6290 160a 07       		.uleb128 0x7
 6291 160b 7F190000 		.4byte	.LASF379
 6292 160f 18       		.byte	0x18
 6293 1610 D8       		.byte	0xd8
 6294 1611 2C000000 		.4byte	0x2c
 6295 1615 4C       		.byte	0x4c
 6296 1616 07       		.uleb128 0x7
 6297 1617 61130000 		.4byte	.LASF380
 6298 161b 18       		.byte	0x18
 6299 161c D9       		.byte	0xd9
 6300 161d DE120000 		.4byte	0x12de
 6301 1621 50       		.byte	0x50
 6302 1622 07       		.uleb128 0x7
 6303 1623 44050000 		.4byte	.LASF381
 6304 1627 18       		.byte	0x18
 6305 1628 DC       		.byte	0xdc
 6306 1629 71160000 		.4byte	0x1671
 6307 162d 54       		.byte	0x54
 6308 162e 07       		.uleb128 0x7
 6309 162f 09030000 		.4byte	.LASF382
 6310 1633 18       		.byte	0x18
 6311 1634 E0       		.byte	0xe0
 6312 1635 5B130000 		.4byte	0x135b
 6313 1639 58       		.byte	0x58
 6314 163a 07       		.uleb128 0x7
 6315 163b 15010000 		.4byte	.LASF383
 6316 163f 18       		.byte	0x18
 6317 1640 E2       		.byte	0xe2
 6318 1641 50130000 		.4byte	0x1350
 6319 1645 5C       		.byte	0x5c
 6320 1646 07       		.uleb128 0x7
 6321 1647 0D200000 		.4byte	.LASF384
 6322 164b 18       		.byte	0x18
 6323 164c E3       		.byte	0xe3
 6324 164d 2C000000 		.4byte	0x2c
 6325 1651 64       		.byte	0x64
 6326 1652 00       		.byte	0
 6327 1653 27       		.uleb128 0x27
 6328 1654 2C000000 		.4byte	0x2c
 6329 1658 71160000 		.4byte	0x1671
 6330 165c 0D       		.uleb128 0xd
 6331 165d 71160000 		.4byte	0x1671
 6332 1661 0D       		.uleb128 0xd
 6333 1662 7B030000 		.4byte	0x37b
 6334 1666 0D       		.uleb128 0xd
 6335 1667 A9170000 		.4byte	0x17a9
 6336 166b 0D       		.uleb128 0xd
 6337 166c 2C000000 		.4byte	0x2c
 6338 1670 00       		.byte	0
 6339 1671 0A       		.uleb128 0xa
 6340 1672 04       		.byte	0x4
 6341 1673 77160000 		.4byte	0x1677
 6342 1677 0F       		.uleb128 0xf
 6343 1678 D1050000 		.4byte	.LASF385
ARM GAS  C:\Users\IDONNO~1\AppData\Local\Temp\ccm1q34l.s 			page 113


 6344 167c 2804     		.2byte	0x428
 6345 167e 18       		.byte	0x18
 6346 167f 3802     		.2byte	0x238
 6347 1681 A9170000 		.4byte	0x17a9
 6348 1685 09       		.uleb128 0x9
 6349 1686 8D0D0000 		.4byte	.LASF386
 6350 168a 18       		.byte	0x18
 6351 168b 3A02     		.2byte	0x23a
 6352 168d 2C000000 		.4byte	0x2c
 6353 1691 00       		.byte	0
 6354 1692 09       		.uleb128 0x9
 6355 1693 E10A0000 		.4byte	.LASF387
 6356 1697 18       		.byte	0x18
 6357 1698 3F02     		.2byte	0x23f
 6358 169a 7E180000 		.4byte	0x187e
 6359 169e 04       		.byte	0x4
 6360 169f 09       		.uleb128 0x9
 6361 16a0 99080000 		.4byte	.LASF388
 6362 16a4 18       		.byte	0x18
 6363 16a5 3F02     		.2byte	0x23f
 6364 16a7 7E180000 		.4byte	0x187e
 6365 16ab 08       		.byte	0x8
 6366 16ac 09       		.uleb128 0x9
 6367 16ad F9070000 		.4byte	.LASF389
 6368 16b1 18       		.byte	0x18
 6369 16b2 3F02     		.2byte	0x23f
 6370 16b4 7E180000 		.4byte	0x187e
 6371 16b8 0C       		.byte	0xc
 6372 16b9 09       		.uleb128 0x9
 6373 16ba A5010000 		.4byte	.LASF390
 6374 16be 18       		.byte	0x18
 6375 16bf 4102     		.2byte	0x241
 6376 16c1 2C000000 		.4byte	0x2c
 6377 16c5 10       		.byte	0x10
 6378 16c6 09       		.uleb128 0x9
 6379 16c7 A1100000 		.4byte	.LASF391
 6380 16cb 18       		.byte	0x18
 6381 16cc 4202     		.2byte	0x242
 6382 16ce 601A0000 		.4byte	0x1a60
 6383 16d2 14       		.byte	0x14
 6384 16d3 09       		.uleb128 0x9
 6385 16d4 38110000 		.4byte	.LASF392
 6386 16d8 18       		.byte	0x18
 6387 16d9 4402     		.2byte	0x244
 6388 16db 2C000000 		.4byte	0x2c
 6389 16df 30       		.byte	0x30
 6390 16e0 09       		.uleb128 0x9
 6391 16e1 98030000 		.4byte	.LASF393
 6392 16e5 18       		.byte	0x18
 6393 16e6 4502     		.2byte	0x245
 6394 16e8 430E0000 		.4byte	0xe43
 6395 16ec 34       		.byte	0x34
 6396 16ed 09       		.uleb128 0x9
 6397 16ee D11E0000 		.4byte	.LASF394
 6398 16f2 18       		.byte	0x18
 6399 16f3 4702     		.2byte	0x247
 6400 16f5 2C000000 		.4byte	0x2c
ARM GAS  C:\Users\IDONNO~1\AppData\Local\Temp\ccm1q34l.s 			page 114


 6401 16f9 38       		.byte	0x38
 6402 16fa 09       		.uleb128 0x9
 6403 16fb D9190000 		.4byte	.LASF395
 6404 16ff 18       		.byte	0x18
 6405 1700 4902     		.2byte	0x249
 6406 1702 7B1A0000 		.4byte	0x1a7b
 6407 1706 3C       		.byte	0x3c
 6408 1707 09       		.uleb128 0x9
 6409 1708 01080000 		.4byte	.LASF396
 6410 170c 18       		.byte	0x18
 6411 170d 4C02     		.2byte	0x24c
 6412 170f C4130000 		.4byte	0x13c4
 6413 1713 40       		.byte	0x40
 6414 1714 09       		.uleb128 0x9
 6415 1715 EF070000 		.4byte	.LASF397
 6416 1719 18       		.byte	0x18
 6417 171a 4D02     		.2byte	0x24d
 6418 171c 2C000000 		.4byte	0x2c
 6419 1720 44       		.byte	0x44
 6420 1721 09       		.uleb128 0x9
 6421 1722 3F1C0000 		.4byte	.LASF398
 6422 1726 18       		.byte	0x18
 6423 1727 4E02     		.2byte	0x24e
 6424 1729 C4130000 		.4byte	0x13c4
 6425 172d 48       		.byte	0x48
 6426 172e 09       		.uleb128 0x9
 6427 172f D7120000 		.4byte	.LASF399
 6428 1733 18       		.byte	0x18
 6429 1734 4F02     		.2byte	0x24f
 6430 1736 811A0000 		.4byte	0x1a81
 6431 173a 4C       		.byte	0x4c
 6432 173b 09       		.uleb128 0x9
 6433 173c 6E020000 		.4byte	.LASF400
 6434 1740 18       		.byte	0x18
 6435 1741 5202     		.2byte	0x252
 6436 1743 2C000000 		.4byte	0x2c
 6437 1747 50       		.byte	0x50
 6438 1748 09       		.uleb128 0x9
 6439 1749 700C0000 		.4byte	.LASF401
 6440 174d 18       		.byte	0x18
 6441 174e 5302     		.2byte	0x253
 6442 1750 A9170000 		.4byte	0x17a9
 6443 1754 54       		.byte	0x54
 6444 1755 09       		.uleb128 0x9
 6445 1756 240D0000 		.4byte	.LASF402
 6446 175a 18       		.byte	0x18
 6447 175b 7602     		.2byte	0x276
 6448 175d 3E1A0000 		.4byte	0x1a3e
 6449 1761 58       		.byte	0x58
 6450 1762 18       		.uleb128 0x18
 6451 1763 2D210000 		.4byte	.LASF362
 6452 1767 18       		.byte	0x18
 6453 1768 7A02     		.2byte	0x27a
 6454 176a E1140000 		.4byte	0x14e1
 6455 176e 4801     		.2byte	0x148
 6456 1770 18       		.uleb128 0x18
 6457 1771 64180000 		.4byte	.LASF403
ARM GAS  C:\Users\IDONNO~1\AppData\Local\Temp\ccm1q34l.s 			page 115


 6458 1775 18       		.byte	0x18
 6459 1776 7B02     		.2byte	0x27b
 6460 1778 A3140000 		.4byte	0x14a3
 6461 177c 4C01     		.2byte	0x14c
 6462 177e 18       		.uleb128 0x18
 6463 177f A5020000 		.4byte	.LASF404
 6464 1783 18       		.byte	0x18
 6465 1784 7F02     		.2byte	0x27f
 6466 1786 921A0000 		.4byte	0x1a92
 6467 178a DC02     		.2byte	0x2dc
 6468 178c 18       		.uleb128 0x18
 6469 178d C6190000 		.4byte	.LASF405
 6470 1791 18       		.byte	0x18
 6471 1792 8402     		.2byte	0x284
 6472 1794 43180000 		.4byte	0x1843
 6473 1798 E002     		.2byte	0x2e0
 6474 179a 18       		.uleb128 0x18
 6475 179b 26060000 		.4byte	.LASF406
 6476 179f 18       		.byte	0x18
 6477 17a0 8502     		.2byte	0x285
 6478 17a2 9E1A0000 		.4byte	0x1a9e
 6479 17a6 EC02     		.2byte	0x2ec
 6480 17a8 00       		.byte	0
 6481 17a9 0A       		.uleb128 0xa
 6482 17aa 04       		.byte	0x4
 6483 17ab 490E0000 		.4byte	0xe49
 6484 17af 0A       		.uleb128 0xa
 6485 17b0 04       		.byte	0x4
 6486 17b1 53160000 		.4byte	0x1653
 6487 17b5 27       		.uleb128 0x27
 6488 17b6 2C000000 		.4byte	0x2c
 6489 17ba D3170000 		.4byte	0x17d3
 6490 17be 0D       		.uleb128 0xd
 6491 17bf 71160000 		.4byte	0x1671
 6492 17c3 0D       		.uleb128 0xd
 6493 17c4 7B030000 		.4byte	0x37b
 6494 17c8 0D       		.uleb128 0xd
 6495 17c9 430E0000 		.4byte	0xe43
 6496 17cd 0D       		.uleb128 0xd
 6497 17ce 2C000000 		.4byte	0x2c
 6498 17d2 00       		.byte	0
 6499 17d3 0A       		.uleb128 0xa
 6500 17d4 04       		.byte	0x4
 6501 17d5 B5170000 		.4byte	0x17b5
 6502 17d9 27       		.uleb128 0x27
 6503 17da E9120000 		.4byte	0x12e9
 6504 17de F7170000 		.4byte	0x17f7
 6505 17e2 0D       		.uleb128 0xd
 6506 17e3 71160000 		.4byte	0x1671
 6507 17e7 0D       		.uleb128 0xd
 6508 17e8 7B030000 		.4byte	0x37b
 6509 17ec 0D       		.uleb128 0xd
 6510 17ed E9120000 		.4byte	0x12e9
 6511 17f1 0D       		.uleb128 0xd
 6512 17f2 2C000000 		.4byte	0x2c
 6513 17f6 00       		.byte	0
 6514 17f7 0A       		.uleb128 0xa
ARM GAS  C:\Users\IDONNO~1\AppData\Local\Temp\ccm1q34l.s 			page 116


 6515 17f8 04       		.byte	0x4
 6516 17f9 D9170000 		.4byte	0x17d9
 6517 17fd 27       		.uleb128 0x27
 6518 17fe 2C000000 		.4byte	0x2c
 6519 1802 11180000 		.4byte	0x1811
 6520 1806 0D       		.uleb128 0xd
 6521 1807 71160000 		.4byte	0x1671
 6522 180b 0D       		.uleb128 0xd
 6523 180c 7B030000 		.4byte	0x37b
 6524 1810 00       		.byte	0
 6525 1811 0A       		.uleb128 0xa
 6526 1812 04       		.byte	0x4
 6527 1813 FD170000 		.4byte	0x17fd
 6528 1817 19       		.uleb128 0x19
 6529 1818 62000000 		.4byte	0x62
 6530 181c 27180000 		.4byte	0x1827
 6531 1820 1A       		.uleb128 0x1a
 6532 1821 D4060000 		.4byte	0x6d4
 6533 1825 02       		.byte	0x2
 6534 1826 00       		.byte	0
 6535 1827 19       		.uleb128 0x19
 6536 1828 62000000 		.4byte	0x62
 6537 182c 37180000 		.4byte	0x1837
 6538 1830 1A       		.uleb128 0x1a
 6539 1831 D4060000 		.4byte	0x6d4
 6540 1835 00       		.byte	0
 6541 1836 00       		.byte	0
 6542 1837 1C       		.uleb128 0x1c
 6543 1838 A8220000 		.4byte	.LASF407
 6544 183c 18       		.byte	0x18
 6545 183d 1D01     		.2byte	0x11d
 6546 183f 29150000 		.4byte	0x1529
 6547 1843 0B       		.uleb128 0xb
 6548 1844 72170000 		.4byte	.LASF408
 6549 1848 0C       		.byte	0xc
 6550 1849 18       		.byte	0x18
 6551 184a 2101     		.2byte	0x121
 6552 184c 78180000 		.4byte	0x1878
 6553 1850 09       		.uleb128 0x9
 6554 1851 5D0E0000 		.4byte	.LASF343
 6555 1855 18       		.byte	0x18
 6556 1856 2301     		.2byte	0x123
 6557 1858 78180000 		.4byte	0x1878
 6558 185c 00       		.byte	0
 6559 185d 09       		.uleb128 0x9
 6560 185e 3C0D0000 		.4byte	.LASF409
 6561 1862 18       		.byte	0x18
 6562 1863 2401     		.2byte	0x124
 6563 1865 2C000000 		.4byte	0x2c
 6564 1869 04       		.byte	0x4
 6565 186a 09       		.uleb128 0x9
 6566 186b CD150000 		.4byte	.LASF410
 6567 186f 18       		.byte	0x18
 6568 1870 2501     		.2byte	0x125
 6569 1872 7E180000 		.4byte	0x187e
 6570 1876 08       		.byte	0x8
 6571 1877 00       		.byte	0
ARM GAS  C:\Users\IDONNO~1\AppData\Local\Temp\ccm1q34l.s 			page 117


 6572 1878 0A       		.uleb128 0xa
 6573 1879 04       		.byte	0x4
 6574 187a 43180000 		.4byte	0x1843
 6575 187e 0A       		.uleb128 0xa
 6576 187f 04       		.byte	0x4
 6577 1880 37180000 		.4byte	0x1837
 6578 1884 0B       		.uleb128 0xb
 6579 1885 42240000 		.4byte	.LASF411
 6580 1889 0E       		.byte	0xe
 6581 188a 18       		.byte	0x18
 6582 188b 3D01     		.2byte	0x13d
 6583 188d B9180000 		.4byte	0x18b9
 6584 1891 09       		.uleb128 0x9
 6585 1892 AB110000 		.4byte	.LASF412
 6586 1896 18       		.byte	0x18
 6587 1897 3E01     		.2byte	0x13e
 6588 1899 B9180000 		.4byte	0x18b9
 6589 189d 00       		.byte	0
 6590 189e 09       		.uleb128 0x9
 6591 189f 9D0A0000 		.4byte	.LASF413
 6592 18a3 18       		.byte	0x18
 6593 18a4 3F01     		.2byte	0x13f
 6594 18a6 B9180000 		.4byte	0x18b9
 6595 18aa 06       		.byte	0x6
 6596 18ab 09       		.uleb128 0x9
 6597 18ac 31040000 		.4byte	.LASF414
 6598 18b0 18       		.byte	0x18
 6599 18b1 4001     		.2byte	0x140
 6600 18b3 7B000000 		.4byte	0x7b
 6601 18b7 0C       		.byte	0xc
 6602 18b8 00       		.byte	0
 6603 18b9 19       		.uleb128 0x19
 6604 18ba 7B000000 		.4byte	0x7b
 6605 18be C9180000 		.4byte	0x18c9
 6606 18c2 1A       		.uleb128 0x1a
 6607 18c3 D4060000 		.4byte	0x6d4
 6608 18c7 02       		.byte	0x2
 6609 18c8 00       		.byte	0
 6610 18c9 1F       		.uleb128 0x1f
 6611 18ca D0       		.byte	0xd0
 6612 18cb 18       		.byte	0x18
 6613 18cc 5702     		.2byte	0x257
 6614 18ce CA190000 		.4byte	0x19ca
 6615 18d2 09       		.uleb128 0x9
 6616 18d3 51070000 		.4byte	.LASF415
 6617 18d7 18       		.byte	0x18
 6618 18d8 5902     		.2byte	0x259
 6619 18da 3E000000 		.4byte	0x3e
 6620 18de 00       		.byte	0
 6621 18df 09       		.uleb128 0x9
 6622 18e0 54110000 		.4byte	.LASF416
 6623 18e4 18       		.byte	0x18
 6624 18e5 5A02     		.2byte	0x25a
 6625 18e7 A9170000 		.4byte	0x17a9
 6626 18eb 04       		.byte	0x4
 6627 18ec 09       		.uleb128 0x9
 6628 18ed 06140000 		.4byte	.LASF417
ARM GAS  C:\Users\IDONNO~1\AppData\Local\Temp\ccm1q34l.s 			page 118


 6629 18f1 18       		.byte	0x18
 6630 18f2 5B02     		.2byte	0x25b
 6631 18f4 CA190000 		.4byte	0x19ca
 6632 18f8 08       		.byte	0x8
 6633 18f9 09       		.uleb128 0x9
 6634 18fa F00B0000 		.4byte	.LASF418
 6635 18fe 18       		.byte	0x18
 6636 18ff 5C02     		.2byte	0x25c
 6637 1901 DA130000 		.4byte	0x13da
 6638 1905 24       		.byte	0x24
 6639 1906 09       		.uleb128 0x9
 6640 1907 E91D0000 		.4byte	.LASF419
 6641 190b 18       		.byte	0x18
 6642 190c 5D02     		.2byte	0x25d
 6643 190e 2C000000 		.4byte	0x2c
 6644 1912 48       		.byte	0x48
 6645 1913 09       		.uleb128 0x9
 6646 1914 F1150000 		.4byte	.LASF420
 6647 1918 18       		.byte	0x18
 6648 1919 5E02     		.2byte	0x25e
 6649 191b B8000000 		.4byte	0xb8
 6650 191f 50       		.byte	0x50
 6651 1920 09       		.uleb128 0x9
 6652 1921 BE230000 		.4byte	.LASF421
 6653 1925 18       		.byte	0x18
 6654 1926 5F02     		.2byte	0x25f
 6655 1928 84180000 		.4byte	0x1884
 6656 192c 58       		.byte	0x58
 6657 192d 09       		.uleb128 0x9
 6658 192e B9190000 		.4byte	.LASF422
 6659 1932 18       		.byte	0x18
 6660 1933 6002     		.2byte	0x260
 6661 1935 50130000 		.4byte	0x1350
 6662 1939 68       		.byte	0x68
 6663 193a 09       		.uleb128 0x9
 6664 193b 3D060000 		.4byte	.LASF423
 6665 193f 18       		.byte	0x18
 6666 1940 6102     		.2byte	0x261
 6667 1942 50130000 		.4byte	0x1350
 6668 1946 70       		.byte	0x70
 6669 1947 09       		.uleb128 0x9
 6670 1948 09040000 		.4byte	.LASF424
 6671 194c 18       		.byte	0x18
 6672 194d 6202     		.2byte	0x262
 6673 194f 50130000 		.4byte	0x1350
 6674 1953 78       		.byte	0x78
 6675 1954 09       		.uleb128 0x9
 6676 1955 AF130000 		.4byte	.LASF425
 6677 1959 18       		.byte	0x18
 6678 195a 6302     		.2byte	0x263
 6679 195c DA190000 		.4byte	0x19da
 6680 1960 80       		.byte	0x80
 6681 1961 09       		.uleb128 0x9
 6682 1962 860E0000 		.4byte	.LASF426
 6683 1966 18       		.byte	0x18
 6684 1967 6402     		.2byte	0x264
 6685 1969 EA190000 		.4byte	0x19ea
ARM GAS  C:\Users\IDONNO~1\AppData\Local\Temp\ccm1q34l.s 			page 119


 6686 196d 88       		.byte	0x88
 6687 196e 09       		.uleb128 0x9
 6688 196f D4180000 		.4byte	.LASF427
 6689 1973 18       		.byte	0x18
 6690 1974 6502     		.2byte	0x265
 6691 1976 2C000000 		.4byte	0x2c
 6692 197a A0       		.byte	0xa0
 6693 197b 09       		.uleb128 0x9
 6694 197c B90A0000 		.4byte	.LASF428
 6695 1980 18       		.byte	0x18
 6696 1981 6602     		.2byte	0x266
 6697 1983 50130000 		.4byte	0x1350
 6698 1987 A4       		.byte	0xa4
 6699 1988 09       		.uleb128 0x9
 6700 1989 E80C0000 		.4byte	.LASF429
 6701 198d 18       		.byte	0x18
 6702 198e 6702     		.2byte	0x267
 6703 1990 50130000 		.4byte	0x1350
 6704 1994 AC       		.byte	0xac
 6705 1995 09       		.uleb128 0x9
 6706 1996 E7080000 		.4byte	.LASF430
 6707 199a 18       		.byte	0x18
 6708 199b 6802     		.2byte	0x268
 6709 199d 50130000 		.4byte	0x1350
 6710 19a1 B4       		.byte	0xb4
 6711 19a2 09       		.uleb128 0x9
 6712 19a3 2E100000 		.4byte	.LASF431
 6713 19a7 18       		.byte	0x18
 6714 19a8 6902     		.2byte	0x269
 6715 19aa 50130000 		.4byte	0x1350
 6716 19ae BC       		.byte	0xbc
 6717 19af 09       		.uleb128 0x9
 6718 19b0 58140000 		.4byte	.LASF432
 6719 19b4 18       		.byte	0x18
 6720 19b5 6A02     		.2byte	0x26a
 6721 19b7 50130000 		.4byte	0x1350
 6722 19bb C4       		.byte	0xc4
 6723 19bc 09       		.uleb128 0x9
 6724 19bd C61A0000 		.4byte	.LASF433
 6725 19c1 18       		.byte	0x18
 6726 19c2 6B02     		.2byte	0x26b
 6727 19c4 2C000000 		.4byte	0x2c
 6728 19c8 CC       		.byte	0xcc
 6729 19c9 00       		.byte	0
 6730 19ca 19       		.uleb128 0x19
 6731 19cb 490E0000 		.4byte	0xe49
 6732 19cf DA190000 		.4byte	0x19da
 6733 19d3 1A       		.uleb128 0x1a
 6734 19d4 D4060000 		.4byte	0x6d4
 6735 19d8 19       		.byte	0x19
 6736 19d9 00       		.byte	0
 6737 19da 19       		.uleb128 0x19
 6738 19db 490E0000 		.4byte	0xe49
 6739 19df EA190000 		.4byte	0x19ea
 6740 19e3 1A       		.uleb128 0x1a
 6741 19e4 D4060000 		.4byte	0x6d4
 6742 19e8 07       		.byte	0x7
ARM GAS  C:\Users\IDONNO~1\AppData\Local\Temp\ccm1q34l.s 			page 120


 6743 19e9 00       		.byte	0
 6744 19ea 19       		.uleb128 0x19
 6745 19eb 490E0000 		.4byte	0xe49
 6746 19ef FA190000 		.4byte	0x19fa
 6747 19f3 1A       		.uleb128 0x1a
 6748 19f4 D4060000 		.4byte	0x6d4
 6749 19f8 17       		.byte	0x17
 6750 19f9 00       		.byte	0
 6751 19fa 1F       		.uleb128 0x1f
 6752 19fb F0       		.byte	0xf0
 6753 19fc 18       		.byte	0x18
 6754 19fd 7002     		.2byte	0x270
 6755 19ff 1E1A0000 		.4byte	0x1a1e
 6756 1a03 09       		.uleb128 0x9
 6757 1a04 15200000 		.4byte	.LASF434
 6758 1a08 18       		.byte	0x18
 6759 1a09 7302     		.2byte	0x273
 6760 1a0b 1E1A0000 		.4byte	0x1a1e
 6761 1a0f 00       		.byte	0
 6762 1a10 09       		.uleb128 0x9
 6763 1a11 F10A0000 		.4byte	.LASF435
 6764 1a15 18       		.byte	0x18
 6765 1a16 7402     		.2byte	0x274
 6766 1a18 2E1A0000 		.4byte	0x1a2e
 6767 1a1c 78       		.byte	0x78
 6768 1a1d 00       		.byte	0
 6769 1a1e 19       		.uleb128 0x19
 6770 1a1f 23150000 		.4byte	0x1523
 6771 1a23 2E1A0000 		.4byte	0x1a2e
 6772 1a27 1A       		.uleb128 0x1a
 6773 1a28 D4060000 		.4byte	0x6d4
 6774 1a2c 1D       		.byte	0x1d
 6775 1a2d 00       		.byte	0
 6776 1a2e 19       		.uleb128 0x19
 6777 1a2f 3E000000 		.4byte	0x3e
 6778 1a33 3E1A0000 		.4byte	0x1a3e
 6779 1a37 1A       		.uleb128 0x1a
 6780 1a38 D4060000 		.4byte	0x6d4
 6781 1a3c 1D       		.byte	0x1d
 6782 1a3d 00       		.byte	0
 6783 1a3e 14       		.uleb128 0x14
 6784 1a3f F0       		.byte	0xf0
 6785 1a40 18       		.byte	0x18
 6786 1a41 5502     		.2byte	0x255
 6787 1a43 601A0000 		.4byte	0x1a60
 6788 1a47 21       		.uleb128 0x21
 6789 1a48 D1050000 		.4byte	.LASF385
 6790 1a4c 18       		.byte	0x18
 6791 1a4d 6C02     		.2byte	0x26c
 6792 1a4f C9180000 		.4byte	0x18c9
 6793 1a53 21       		.uleb128 0x21
 6794 1a54 15030000 		.4byte	.LASF436
 6795 1a58 18       		.byte	0x18
 6796 1a59 7502     		.2byte	0x275
 6797 1a5b FA190000 		.4byte	0x19fa
 6798 1a5f 00       		.byte	0
 6799 1a60 19       		.uleb128 0x19
ARM GAS  C:\Users\IDONNO~1\AppData\Local\Temp\ccm1q34l.s 			page 121


 6800 1a61 490E0000 		.4byte	0xe49
 6801 1a65 701A0000 		.4byte	0x1a70
 6802 1a69 1A       		.uleb128 0x1a
 6803 1a6a D4060000 		.4byte	0x6d4
 6804 1a6e 18       		.byte	0x18
 6805 1a6f 00       		.byte	0
 6806 1a70 0C       		.uleb128 0xc
 6807 1a71 7B1A0000 		.4byte	0x1a7b
 6808 1a75 0D       		.uleb128 0xd
 6809 1a76 71160000 		.4byte	0x1671
 6810 1a7a 00       		.byte	0
 6811 1a7b 0A       		.uleb128 0xa
 6812 1a7c 04       		.byte	0x4
 6813 1a7d 701A0000 		.4byte	0x1a70
 6814 1a81 0A       		.uleb128 0xa
 6815 1a82 04       		.byte	0x4
 6816 1a83 C4130000 		.4byte	0x13c4
 6817 1a87 0C       		.uleb128 0xc
 6818 1a88 921A0000 		.4byte	0x1a92
 6819 1a8c 0D       		.uleb128 0xd
 6820 1a8d 2C000000 		.4byte	0x2c
 6821 1a91 00       		.byte	0
 6822 1a92 0A       		.uleb128 0xa
 6823 1a93 04       		.byte	0x4
 6824 1a94 981A0000 		.4byte	0x1a98
 6825 1a98 0A       		.uleb128 0xa
 6826 1a99 04       		.byte	0x4
 6827 1a9a 871A0000 		.4byte	0x1a87
 6828 1a9e 19       		.uleb128 0x19
 6829 1a9f 37180000 		.4byte	0x1837
 6830 1aa3 AE1A0000 		.4byte	0x1aae
 6831 1aa7 1A       		.uleb128 0x1a
 6832 1aa8 D4060000 		.4byte	0x6d4
 6833 1aac 02       		.byte	0x2
 6834 1aad 00       		.byte	0
 6835 1aae 02       		.uleb128 0x2
 6836 1aaf 08       		.byte	0x8
 6837 1ab0 04       		.byte	0x4
 6838 1ab1 8C1A0000 		.4byte	.LASF437
 6839 1ab5 02       		.uleb128 0x2
 6840 1ab6 08       		.byte	0x8
 6841 1ab7 04       		.byte	0x4
 6842 1ab8 91160000 		.4byte	.LASF438
 6843 1abc 04       		.uleb128 0x4
 6844 1abd 9F0B0000 		.4byte	.LASF439
 6845 1ac1 19       		.byte	0x19
 6846 1ac2 35       		.byte	0x35
 6847 1ac3 37180000 		.4byte	0x1837
 6848 1ac7 10       		.uleb128 0x10
 6849 1ac8 01       		.byte	0x1
 6850 1ac9 62000000 		.4byte	0x62
 6851 1acd 1A       		.byte	0x1a
 6852 1ace 2A       		.byte	0x2a
 6853 1acf E61A0000 		.4byte	0x1ae6
 6854 1ad3 12       		.uleb128 0x12
 6855 1ad4 321F0000 		.4byte	.LASF440
 6856 1ad8 00       		.byte	0
ARM GAS  C:\Users\IDONNO~1\AppData\Local\Temp\ccm1q34l.s 			page 122


 6857 1ad9 12       		.uleb128 0x12
 6858 1ada 3D170000 		.4byte	.LASF441
 6859 1ade 01       		.byte	0x1
 6860 1adf 12       		.uleb128 0x12
 6861 1ae0 95040000 		.4byte	.LASF442
 6862 1ae4 02       		.byte	0x2
 6863 1ae5 00       		.byte	0
 6864 1ae6 04       		.uleb128 0x4
 6865 1ae7 B7040000 		.4byte	.LASF443
 6866 1aeb 1A       		.byte	0x1a
 6867 1aec 2E       		.byte	0x2e
 6868 1aed C71A0000 		.4byte	0x1ac7
 6869 1af1 10       		.uleb128 0x10
 6870 1af2 01       		.byte	0x1
 6871 1af3 62000000 		.4byte	0x62
 6872 1af7 1A       		.byte	0x1a
 6873 1af8 30       		.byte	0x30
 6874 1af9 0A1B0000 		.4byte	0x1b0a
 6875 1afd 12       		.uleb128 0x12
 6876 1afe 88150000 		.4byte	.LASF444
 6877 1b02 00       		.byte	0
 6878 1b03 12       		.uleb128 0x12
 6879 1b04 91180000 		.4byte	.LASF445
 6880 1b08 01       		.byte	0x1
 6881 1b09 00       		.byte	0
 6882 1b0a 04       		.uleb128 0x4
 6883 1b0b BD1E0000 		.4byte	.LASF446
 6884 1b0f 1A       		.byte	0x1a
 6885 1b10 33       		.byte	0x33
 6886 1b11 F11A0000 		.4byte	0x1af1
 6887 1b15 10       		.uleb128 0x10
 6888 1b16 01       		.byte	0x1
 6889 1b17 62000000 		.4byte	0x62
 6890 1b1b 1A       		.byte	0x1a
 6891 1b1c 35       		.byte	0x35
 6892 1b1d 2E1B0000 		.4byte	0x1b2e
 6893 1b21 12       		.uleb128 0x12
 6894 1b22 32240000 		.4byte	.LASF447
 6895 1b26 00       		.byte	0
 6896 1b27 12       		.uleb128 0x12
 6897 1b28 93100000 		.4byte	.LASF448
 6898 1b2c 01       		.byte	0x1
 6899 1b2d 00       		.byte	0
 6900 1b2e 04       		.uleb128 0x4
 6901 1b2f 1F0E0000 		.4byte	.LASF449
 6902 1b33 1A       		.byte	0x1a
 6903 1b34 38       		.byte	0x38
 6904 1b35 151B0000 		.4byte	0x1b15
 6905 1b39 10       		.uleb128 0x10
 6906 1b3a 01       		.byte	0x1
 6907 1b3b 62000000 		.4byte	0x62
 6908 1b3f 1A       		.byte	0x1a
 6909 1b40 3A       		.byte	0x3a
 6910 1b41 701B0000 		.4byte	0x1b70
 6911 1b45 12       		.uleb128 0x12
 6912 1b46 E1120000 		.4byte	.LASF450
 6913 1b4a 00       		.byte	0
ARM GAS  C:\Users\IDONNO~1\AppData\Local\Temp\ccm1q34l.s 			page 123


 6914 1b4b 12       		.uleb128 0x12
 6915 1b4c 940D0000 		.4byte	.LASF451
 6916 1b50 01       		.byte	0x1
 6917 1b51 12       		.uleb128 0x12
 6918 1b52 E1180000 		.4byte	.LASF452
 6919 1b56 02       		.byte	0x2
 6920 1b57 12       		.uleb128 0x12
 6921 1b58 9D1D0000 		.4byte	.LASF453
 6922 1b5c 03       		.byte	0x3
 6923 1b5d 12       		.uleb128 0x12
 6924 1b5e 220A0000 		.4byte	.LASF454
 6925 1b62 04       		.byte	0x4
 6926 1b63 12       		.uleb128 0x12
 6927 1b64 61040000 		.4byte	.LASF455
 6928 1b68 05       		.byte	0x5
 6929 1b69 12       		.uleb128 0x12
 6930 1b6a F1120000 		.4byte	.LASF456
 6931 1b6e 06       		.byte	0x6
 6932 1b6f 00       		.byte	0
 6933 1b70 04       		.uleb128 0x4
 6934 1b71 CA1F0000 		.4byte	.LASF457
 6935 1b75 1A       		.byte	0x1a
 6936 1b76 42       		.byte	0x42
 6937 1b77 391B0000 		.4byte	0x1b39
 6938 1b7b 1D       		.uleb128 0x1d
 6939 1b7c B0       		.byte	0xb0
 6940 1b7d 1A       		.byte	0x1a
 6941 1b7e 57       		.byte	0x57
 6942 1b7f D01D0000 		.4byte	0x1dd0
 6943 1b83 07       		.uleb128 0x7
 6944 1b84 4D0F0000 		.4byte	.LASF458
 6945 1b88 1A       		.byte	0x1a
 6946 1b89 59       		.byte	0x59
 6947 1b8a E61A0000 		.4byte	0x1ae6
 6948 1b8e 00       		.byte	0
 6949 1b8f 07       		.uleb128 0x7
 6950 1b90 030A0000 		.4byte	.LASF459
 6951 1b94 1A       		.byte	0x1a
 6952 1b95 5A       		.byte	0x5a
 6953 1b96 0A1B0000 		.4byte	0x1b0a
 6954 1b9a 01       		.byte	0x1
 6955 1b9b 07       		.uleb128 0x7
 6956 1b9c 560F0000 		.4byte	.LASF460
 6957 1ba0 1A       		.byte	0x1a
 6958 1ba1 5B       		.byte	0x5b
 6959 1ba2 2E1B0000 		.4byte	0x1b2e
 6960 1ba6 02       		.byte	0x2
 6961 1ba7 07       		.uleb128 0x7
 6962 1ba8 F8130000 		.4byte	.LASF461
 6963 1bac 1A       		.byte	0x1a
 6964 1bad 5D       		.byte	0x5d
 6965 1bae 25000000 		.4byte	0x25
 6966 1bb2 04       		.byte	0x4
 6967 1bb3 07       		.uleb128 0x7
 6968 1bb4 A1180000 		.4byte	.LASF462
 6969 1bb8 1A       		.byte	0x1a
 6970 1bb9 5E       		.byte	0x5e
ARM GAS  C:\Users\IDONNO~1\AppData\Local\Temp\ccm1q34l.s 			page 124


 6971 1bba 25000000 		.4byte	0x25
 6972 1bbe 08       		.byte	0x8
 6973 1bbf 07       		.uleb128 0x7
 6974 1bc0 DF200000 		.4byte	.LASF463
 6975 1bc4 1A       		.byte	0x1a
 6976 1bc5 5F       		.byte	0x5f
 6977 1bc6 25000000 		.4byte	0x25
 6978 1bca 0C       		.byte	0xc
 6979 1bcb 07       		.uleb128 0x7
 6980 1bcc B4010000 		.4byte	.LASF464
 6981 1bd0 1A       		.byte	0x1a
 6982 1bd1 60       		.byte	0x60
 6983 1bd2 25000000 		.4byte	0x25
 6984 1bd6 10       		.byte	0x10
 6985 1bd7 07       		.uleb128 0x7
 6986 1bd8 1E000000 		.4byte	.LASF465
 6987 1bdc 1A       		.byte	0x1a
 6988 1bdd 61       		.byte	0x61
 6989 1bde 25000000 		.4byte	0x25
 6990 1be2 14       		.byte	0x14
 6991 1be3 07       		.uleb128 0x7
 6992 1be4 CE020000 		.4byte	.LASF466
 6993 1be8 1A       		.byte	0x1a
 6994 1be9 62       		.byte	0x62
 6995 1bea 25000000 		.4byte	0x25
 6996 1bee 18       		.byte	0x18
 6997 1bef 07       		.uleb128 0x7
 6998 1bf0 65120000 		.4byte	.LASF467
 6999 1bf4 1A       		.byte	0x1a
 7000 1bf5 63       		.byte	0x63
 7001 1bf6 25000000 		.4byte	0x25
 7002 1bfa 1C       		.byte	0x1c
 7003 1bfb 07       		.uleb128 0x7
 7004 1bfc 0C000000 		.4byte	.LASF468
 7005 1c00 1A       		.byte	0x1a
 7006 1c01 64       		.byte	0x64
 7007 1c02 25000000 		.4byte	0x25
 7008 1c06 20       		.byte	0x20
 7009 1c07 07       		.uleb128 0x7
 7010 1c08 5C200000 		.4byte	.LASF469
 7011 1c0c 1A       		.byte	0x1a
 7012 1c0d 65       		.byte	0x65
 7013 1c0e 25000000 		.4byte	0x25
 7014 1c12 24       		.byte	0x24
 7015 1c13 07       		.uleb128 0x7
 7016 1c14 080D0000 		.4byte	.LASF470
 7017 1c18 1A       		.byte	0x1a
 7018 1c19 66       		.byte	0x66
 7019 1c1a 25000000 		.4byte	0x25
 7020 1c1e 28       		.byte	0x28
 7021 1c1f 07       		.uleb128 0x7
 7022 1c20 510C0000 		.4byte	.LASF471
 7023 1c24 1A       		.byte	0x1a
 7024 1c25 67       		.byte	0x67
 7025 1c26 25000000 		.4byte	0x25
 7026 1c2a 2C       		.byte	0x2c
 7027 1c2b 07       		.uleb128 0x7
ARM GAS  C:\Users\IDONNO~1\AppData\Local\Temp\ccm1q34l.s 			page 125


 7028 1c2c 92010000 		.4byte	.LASF472
 7029 1c30 1A       		.byte	0x1a
 7030 1c31 68       		.byte	0x68
 7031 1c32 030F0000 		.4byte	0xf03
 7032 1c36 30       		.byte	0x30
 7033 1c37 07       		.uleb128 0x7
 7034 1c38 0D0A0000 		.4byte	.LASF473
 7035 1c3c 1A       		.byte	0x1a
 7036 1c3d 69       		.byte	0x69
 7037 1c3e 030F0000 		.4byte	0xf03
 7038 1c42 31       		.byte	0x31
 7039 1c43 07       		.uleb128 0x7
 7040 1c44 92090000 		.4byte	.LASF474
 7041 1c48 1A       		.byte	0x1a
 7042 1c49 6A       		.byte	0x6a
 7043 1c4a 25000000 		.4byte	0x25
 7044 1c4e 34       		.byte	0x34
 7045 1c4f 07       		.uleb128 0x7
 7046 1c50 82030000 		.4byte	.LASF475
 7047 1c54 1A       		.byte	0x1a
 7048 1c55 6B       		.byte	0x6b
 7049 1c56 25000000 		.4byte	0x25
 7050 1c5a 38       		.byte	0x38
 7051 1c5b 07       		.uleb128 0x7
 7052 1c5c FE170000 		.4byte	.LASF476
 7053 1c60 1A       		.byte	0x1a
 7054 1c61 6C       		.byte	0x6c
 7055 1c62 25000000 		.4byte	0x25
 7056 1c66 3C       		.byte	0x3c
 7057 1c67 07       		.uleb128 0x7
 7058 1c68 AA1A0000 		.4byte	.LASF477
 7059 1c6c 1A       		.byte	0x1a
 7060 1c6d 6D       		.byte	0x6d
 7061 1c6e 25000000 		.4byte	0x25
 7062 1c72 40       		.byte	0x40
 7063 1c73 07       		.uleb128 0x7
 7064 1c74 3F230000 		.4byte	.LASF478
 7065 1c78 1A       		.byte	0x1a
 7066 1c79 6E       		.byte	0x6e
 7067 1c7a 25000000 		.4byte	0x25
 7068 1c7e 44       		.byte	0x44
 7069 1c7f 07       		.uleb128 0x7
 7070 1c80 FC0D0000 		.4byte	.LASF479
 7071 1c84 1A       		.byte	0x1a
 7072 1c85 6F       		.byte	0x6f
 7073 1c86 25000000 		.4byte	0x25
 7074 1c8a 48       		.byte	0x48
 7075 1c8b 07       		.uleb128 0x7
 7076 1c8c 900B0000 		.4byte	.LASF480
 7077 1c90 1A       		.byte	0x1a
 7078 1c91 71       		.byte	0x71
 7079 1c92 25000000 		.4byte	0x25
 7080 1c96 4C       		.byte	0x4c
 7081 1c97 07       		.uleb128 0x7
 7082 1c98 1E190000 		.4byte	.LASF481
 7083 1c9c 1A       		.byte	0x1a
 7084 1c9d 72       		.byte	0x72
ARM GAS  C:\Users\IDONNO~1\AppData\Local\Temp\ccm1q34l.s 			page 126


 7085 1c9e 25000000 		.4byte	0x25
 7086 1ca2 50       		.byte	0x50
 7087 1ca3 07       		.uleb128 0x7
 7088 1ca4 601D0000 		.4byte	.LASF482
 7089 1ca8 1A       		.byte	0x1a
 7090 1ca9 73       		.byte	0x73
 7091 1caa 25000000 		.4byte	0x25
 7092 1cae 54       		.byte	0x54
 7093 1caf 07       		.uleb128 0x7
 7094 1cb0 08230000 		.4byte	.LASF483
 7095 1cb4 1A       		.byte	0x1a
 7096 1cb5 74       		.byte	0x74
 7097 1cb6 25000000 		.4byte	0x25
 7098 1cba 58       		.byte	0x58
 7099 1cbb 07       		.uleb128 0x7
 7100 1cbc 0E090000 		.4byte	.LASF484
 7101 1cc0 1A       		.byte	0x1a
 7102 1cc1 76       		.byte	0x76
 7103 1cc2 030F0000 		.4byte	0xf03
 7104 1cc6 5C       		.byte	0x5c
 7105 1cc7 07       		.uleb128 0x7
 7106 1cc8 8A220000 		.4byte	.LASF485
 7107 1ccc 1A       		.byte	0x1a
 7108 1ccd 77       		.byte	0x77
 7109 1cce 25000000 		.4byte	0x25
 7110 1cd2 60       		.byte	0x60
 7111 1cd3 07       		.uleb128 0x7
 7112 1cd4 AE050000 		.4byte	.LASF486
 7113 1cd8 1A       		.byte	0x1a
 7114 1cd9 78       		.byte	0x78
 7115 1cda 25000000 		.4byte	0x25
 7116 1cde 64       		.byte	0x64
 7117 1cdf 07       		.uleb128 0x7
 7118 1ce0 6A0F0000 		.4byte	.LASF487
 7119 1ce4 1A       		.byte	0x1a
 7120 1ce5 79       		.byte	0x79
 7121 1ce6 25000000 		.4byte	0x25
 7122 1cea 68       		.byte	0x68
 7123 1ceb 07       		.uleb128 0x7
 7124 1cec AC100000 		.4byte	.LASF488
 7125 1cf0 1A       		.byte	0x1a
 7126 1cf1 7A       		.byte	0x7a
 7127 1cf2 25000000 		.4byte	0x25
 7128 1cf6 6C       		.byte	0x6c
 7129 1cf7 07       		.uleb128 0x7
 7130 1cf8 41130000 		.4byte	.LASF489
 7131 1cfc 1A       		.byte	0x1a
 7132 1cfd 7B       		.byte	0x7b
 7133 1cfe 25000000 		.4byte	0x25
 7134 1d02 70       		.byte	0x70
 7135 1d03 07       		.uleb128 0x7
 7136 1d04 611E0000 		.4byte	.LASF490
 7137 1d08 1A       		.byte	0x1a
 7138 1d09 7C       		.byte	0x7c
 7139 1d0a 25000000 		.4byte	0x25
 7140 1d0e 74       		.byte	0x74
 7141 1d0f 07       		.uleb128 0x7
ARM GAS  C:\Users\IDONNO~1\AppData\Local\Temp\ccm1q34l.s 			page 127


 7142 1d10 78170000 		.4byte	.LASF491
 7143 1d14 1A       		.byte	0x1a
 7144 1d15 7D       		.byte	0x7d
 7145 1d16 25000000 		.4byte	0x25
 7146 1d1a 78       		.byte	0x78
 7147 1d1b 07       		.uleb128 0x7
 7148 1d1c 76020000 		.4byte	.LASF492
 7149 1d20 1A       		.byte	0x1a
 7150 1d21 7F       		.byte	0x7f
 7151 1d22 BF000000 		.4byte	0xbf
 7152 1d26 7C       		.byte	0x7c
 7153 1d27 07       		.uleb128 0x7
 7154 1d28 30170000 		.4byte	.LASF493
 7155 1d2c 1A       		.byte	0x1a
 7156 1d2d 80       		.byte	0x80
 7157 1d2e BF000000 		.4byte	0xbf
 7158 1d32 7D       		.byte	0x7d
 7159 1d33 07       		.uleb128 0x7
 7160 1d34 8D070000 		.4byte	.LASF494
 7161 1d38 1A       		.byte	0x1a
 7162 1d39 81       		.byte	0x81
 7163 1d3a BF000000 		.4byte	0xbf
 7164 1d3e 7E       		.byte	0x7e
 7165 1d3f 07       		.uleb128 0x7
 7166 1d40 52190000 		.4byte	.LASF495
 7167 1d44 1A       		.byte	0x1a
 7168 1d45 83       		.byte	0x83
 7169 1d46 25000000 		.4byte	0x25
 7170 1d4a 80       		.byte	0x80
 7171 1d4b 07       		.uleb128 0x7
 7172 1d4c 49190000 		.4byte	.LASF496
 7173 1d50 1A       		.byte	0x1a
 7174 1d51 84       		.byte	0x84
 7175 1d52 25000000 		.4byte	0x25
 7176 1d56 84       		.byte	0x84
 7177 1d57 07       		.uleb128 0x7
 7178 1d58 DF070000 		.4byte	.LASF497
 7179 1d5c 1A       		.byte	0x1a
 7180 1d5d 85       		.byte	0x85
 7181 1d5e 25000000 		.4byte	0x25
 7182 1d62 88       		.byte	0x88
 7183 1d63 07       		.uleb128 0x7
 7184 1d64 31140000 		.4byte	.LASF498
 7185 1d68 1A       		.byte	0x1a
 7186 1d69 86       		.byte	0x86
 7187 1d6a 25000000 		.4byte	0x25
 7188 1d6e 8C       		.byte	0x8c
 7189 1d6f 07       		.uleb128 0x7
 7190 1d70 27170000 		.4byte	.LASF499
 7191 1d74 1A       		.byte	0x1a
 7192 1d75 88       		.byte	0x88
 7193 1d76 25000000 		.4byte	0x25
 7194 1d7a 90       		.byte	0x90
 7195 1d7b 07       		.uleb128 0x7
 7196 1d7c 1E170000 		.4byte	.LASF500
 7197 1d80 1A       		.byte	0x1a
 7198 1d81 89       		.byte	0x89
ARM GAS  C:\Users\IDONNO~1\AppData\Local\Temp\ccm1q34l.s 			page 128


 7199 1d82 25000000 		.4byte	0x25
 7200 1d86 94       		.byte	0x94
 7201 1d87 07       		.uleb128 0x7
 7202 1d88 15170000 		.4byte	.LASF501
 7203 1d8c 1A       		.byte	0x1a
 7204 1d8d 8A       		.byte	0x8a
 7205 1d8e 25000000 		.4byte	0x25
 7206 1d92 98       		.byte	0x98
 7207 1d93 07       		.uleb128 0x7
 7208 1d94 39020000 		.4byte	.LASF502
 7209 1d98 1A       		.byte	0x1a
 7210 1d99 8C       		.byte	0x8c
 7211 1d9a 25000000 		.4byte	0x25
 7212 1d9e 9C       		.byte	0x9c
 7213 1d9f 07       		.uleb128 0x7
 7214 1da0 A40B0000 		.4byte	.LASF503
 7215 1da4 1A       		.byte	0x1a
 7216 1da5 8D       		.byte	0x8d
 7217 1da6 25000000 		.4byte	0x25
 7218 1daa A0       		.byte	0xa0
 7219 1dab 07       		.uleb128 0x7
 7220 1dac 160F0000 		.4byte	.LASF504
 7221 1db0 1A       		.byte	0x1a
 7222 1db1 8E       		.byte	0x8e
 7223 1db2 25000000 		.4byte	0x25
 7224 1db6 A4       		.byte	0xa4
 7225 1db7 07       		.uleb128 0x7
 7226 1db8 04170000 		.4byte	.LASF505
 7227 1dbc 1A       		.byte	0x1a
 7228 1dbd 8F       		.byte	0x8f
 7229 1dbe 25000000 		.4byte	0x25
 7230 1dc2 A8       		.byte	0xa8
 7231 1dc3 07       		.uleb128 0x7
 7232 1dc4 78070000 		.4byte	.LASF506
 7233 1dc8 1A       		.byte	0x1a
 7234 1dc9 91       		.byte	0x91
 7235 1dca E0000000 		.4byte	0xe0
 7236 1dce AC       		.byte	0xac
 7237 1dcf 00       		.byte	0
 7238 1dd0 04       		.uleb128 0x4
 7239 1dd1 DE1F0000 		.4byte	.LASF507
 7240 1dd5 1A       		.byte	0x1a
 7241 1dd6 92       		.byte	0x92
 7242 1dd7 7B1B0000 		.4byte	0x1b7b
 7243 1ddb 04       		.uleb128 0x4
 7244 1ddc A8070000 		.4byte	.LASF508
 7245 1de0 1B       		.byte	0x1b
 7246 1de1 27       		.byte	0x27
 7247 1de2 7B000000 		.4byte	0x7b
 7248 1de6 1D       		.uleb128 0x1d
 7249 1de7 04       		.byte	0x4
 7250 1de8 01       		.byte	0x1
 7251 1de9 2B       		.byte	0x2b
 7252 1dea 491E0000 		.4byte	0x1e49
 7253 1dee 28       		.uleb128 0x28
 7254 1def B3170000 		.4byte	.LASF509
 7255 1df3 01       		.byte	0x1
ARM GAS  C:\Users\IDONNO~1\AppData\Local\Temp\ccm1q34l.s 			page 129


 7256 1df4 2C       		.byte	0x2c
 7257 1df5 3E000000 		.4byte	0x3e
 7258 1df9 04       		.byte	0x4
 7259 1dfa 01       		.byte	0x1
 7260 1dfb 1F       		.byte	0x1f
 7261 1dfc 00       		.byte	0
 7262 1dfd 28       		.uleb128 0x28
 7263 1dfe 05010000 		.4byte	.LASF510
 7264 1e02 01       		.byte	0x1
 7265 1e03 2D       		.byte	0x2d
 7266 1e04 3E000000 		.4byte	0x3e
 7267 1e08 04       		.byte	0x4
 7268 1e09 01       		.byte	0x1
 7269 1e0a 1E       		.byte	0x1e
 7270 1e0b 00       		.byte	0
 7271 1e0c 28       		.uleb128 0x28
 7272 1e0d 5A210000 		.4byte	.LASF511
 7273 1e11 01       		.byte	0x1
 7274 1e12 2E       		.byte	0x2e
 7275 1e13 3E000000 		.4byte	0x3e
 7276 1e17 04       		.byte	0x4
 7277 1e18 01       		.byte	0x1
 7278 1e19 1D       		.byte	0x1d
 7279 1e1a 00       		.byte	0
 7280 1e1b 28       		.uleb128 0x28
 7281 1e1c 61090000 		.4byte	.LASF512
 7282 1e20 01       		.byte	0x1
 7283 1e21 2F       		.byte	0x2f
 7284 1e22 3E000000 		.4byte	0x3e
 7285 1e26 04       		.byte	0x4
 7286 1e27 01       		.byte	0x1
 7287 1e28 1C       		.byte	0x1c
 7288 1e29 00       		.byte	0
 7289 1e2a 28       		.uleb128 0x28
 7290 1e2b 6F0E0000 		.4byte	.LASF513
 7291 1e2f 01       		.byte	0x1
 7292 1e30 30       		.byte	0x30
 7293 1e31 3E000000 		.4byte	0x3e
 7294 1e35 04       		.byte	0x4
 7295 1e36 01       		.byte	0x1
 7296 1e37 1B       		.byte	0x1b
 7297 1e38 00       		.byte	0
 7298 1e39 28       		.uleb128 0x28
 7299 1e3a CE0E0000 		.4byte	.LASF514
 7300 1e3e 01       		.byte	0x1
 7301 1e3f 34       		.byte	0x34
 7302 1e40 3E000000 		.4byte	0x3e
 7303 1e44 04       		.byte	0x4
 7304 1e45 01       		.byte	0x1
 7305 1e46 1A       		.byte	0x1a
 7306 1e47 00       		.byte	0
 7307 1e48 00       		.byte	0
 7308 1e49 20       		.uleb128 0x20
 7309 1e4a 04       		.byte	0x4
 7310 1e4b 01       		.byte	0x1
 7311 1e4c 2A       		.byte	0x2a
 7312 1e4d 681E0000 		.4byte	0x1e68
ARM GAS  C:\Users\IDONNO~1\AppData\Local\Temp\ccm1q34l.s 			page 130


 7313 1e51 22       		.uleb128 0x22
 7314 1e52 62697400 		.ascii	"bit\000"
 7315 1e56 01       		.byte	0x1
 7316 1e57 37       		.byte	0x37
 7317 1e58 E61D0000 		.4byte	0x1de6
 7318 1e5c 23       		.uleb128 0x23
 7319 1e5d CE1D0000 		.4byte	.LASF515
 7320 1e61 01       		.byte	0x1
 7321 1e62 38       		.byte	0x38
 7322 1e63 DB1D0000 		.4byte	0x1ddb
 7323 1e67 00       		.byte	0
 7324 1e68 1D       		.uleb128 0x1d
 7325 1e69 10       		.byte	0x10
 7326 1e6a 01       		.byte	0x1
 7327 1e6b 3B       		.byte	0x3b
 7328 1e6c A11E0000 		.4byte	0x1ea1
 7329 1e70 1E       		.uleb128 0x1e
 7330 1e71 714B6100 		.ascii	"qKa\000"
 7331 1e75 01       		.byte	0x1
 7332 1e76 3C       		.byte	0x3c
 7333 1e77 25000000 		.4byte	0x25
 7334 1e7b 00       		.byte	0
 7335 1e7c 07       		.uleb128 0x7
 7336 1e7d E6170000 		.4byte	.LASF516
 7337 1e81 01       		.byte	0x1
 7338 1e82 3D       		.byte	0x3d
 7339 1e83 69000000 		.4byte	0x69
 7340 1e87 04       		.byte	0x4
 7341 1e88 1E       		.uleb128 0x1e
 7342 1e89 714B6200 		.ascii	"qKb\000"
 7343 1e8d 01       		.byte	0x1
 7344 1e8e 3F       		.byte	0x3f
 7345 1e8f 25000000 		.4byte	0x25
 7346 1e93 08       		.byte	0x8
 7347 1e94 07       		.uleb128 0x7
 7348 1e95 EE170000 		.4byte	.LASF517
 7349 1e99 01       		.byte	0x1
 7350 1e9a 40       		.byte	0x40
 7351 1e9b 69000000 		.4byte	0x69
 7352 1e9f 0C       		.byte	0xc
 7353 1ea0 00       		.byte	0
 7354 1ea1 04       		.uleb128 0x4
 7355 1ea2 600D0000 		.4byte	.LASF518
 7356 1ea6 01       		.byte	0x1
 7357 1ea7 41       		.byte	0x41
 7358 1ea8 681E0000 		.4byte	0x1e68
 7359 1eac 1D       		.uleb128 0x1d
 7360 1ead 64       		.byte	0x64
 7361 1eae 01       		.byte	0x1
 7362 1eaf 43       		.byte	0x43
 7363 1eb0 E11F0000 		.4byte	0x1fe1
 7364 1eb4 07       		.uleb128 0x7
 7365 1eb5 391B0000 		.4byte	.LASF519
 7366 1eb9 01       		.byte	0x1
 7367 1eba 44       		.byte	0x44
 7368 1ebb 25000000 		.4byte	0x25
 7369 1ebf 00       		.byte	0
ARM GAS  C:\Users\IDONNO~1\AppData\Local\Temp\ccm1q34l.s 			page 131


 7370 1ec0 07       		.uleb128 0x7
 7371 1ec1 DD1D0000 		.4byte	.LASF520
 7372 1ec5 01       		.byte	0x1
 7373 1ec6 45       		.byte	0x45
 7374 1ec7 25000000 		.4byte	0x25
 7375 1ecb 04       		.byte	0x4
 7376 1ecc 07       		.uleb128 0x7
 7377 1ecd CF1A0000 		.4byte	.LASF521
 7378 1ed1 01       		.byte	0x1
 7379 1ed2 46       		.byte	0x46
 7380 1ed3 25000000 		.4byte	0x25
 7381 1ed7 08       		.byte	0x8
 7382 1ed8 07       		.uleb128 0x7
 7383 1ed9 CA050000 		.4byte	.LASF522
 7384 1edd 01       		.byte	0x1
 7385 1ede 47       		.byte	0x47
 7386 1edf 25000000 		.4byte	0x25
 7387 1ee3 0C       		.byte	0xc
 7388 1ee4 07       		.uleb128 0x7
 7389 1ee5 371C0000 		.4byte	.LASF523
 7390 1ee9 01       		.byte	0x1
 7391 1eea 48       		.byte	0x48
 7392 1eeb 25000000 		.4byte	0x25
 7393 1eef 10       		.byte	0x10
 7394 1ef0 07       		.uleb128 0x7
 7395 1ef1 E3040000 		.4byte	.LASF524
 7396 1ef5 01       		.byte	0x1
 7397 1ef6 49       		.byte	0x49
 7398 1ef7 25000000 		.4byte	0x25
 7399 1efb 14       		.byte	0x14
 7400 1efc 07       		.uleb128 0x7
 7401 1efd A41E0000 		.4byte	.LASF525
 7402 1f01 01       		.byte	0x1
 7403 1f02 4A       		.byte	0x4a
 7404 1f03 25000000 		.4byte	0x25
 7405 1f07 18       		.byte	0x18
 7406 1f08 07       		.uleb128 0x7
 7407 1f09 2C240000 		.4byte	.LASF526
 7408 1f0d 01       		.byte	0x1
 7409 1f0e 4B       		.byte	0x4b
 7410 1f0f 25000000 		.4byte	0x25
 7411 1f13 1C       		.byte	0x1c
 7412 1f14 07       		.uleb128 0x7
 7413 1f15 570E0000 		.4byte	.LASF527
 7414 1f19 01       		.byte	0x1
 7415 1f1a 4C       		.byte	0x4c
 7416 1f1b 25000000 		.4byte	0x25
 7417 1f1f 20       		.byte	0x20
 7418 1f20 07       		.uleb128 0x7
 7419 1f21 BC0E0000 		.4byte	.LASF528
 7420 1f25 01       		.byte	0x1
 7421 1f26 4D       		.byte	0x4d
 7422 1f27 25000000 		.4byte	0x25
 7423 1f2b 24       		.byte	0x24
 7424 1f2c 07       		.uleb128 0x7
 7425 1f2d 46000000 		.4byte	.LASF529
 7426 1f31 01       		.byte	0x1
ARM GAS  C:\Users\IDONNO~1\AppData\Local\Temp\ccm1q34l.s 			page 132


 7427 1f32 4E       		.byte	0x4e
 7428 1f33 25000000 		.4byte	0x25
 7429 1f37 28       		.byte	0x28
 7430 1f38 07       		.uleb128 0x7
 7431 1f39 380B0000 		.4byte	.LASF530
 7432 1f3d 01       		.byte	0x1
 7433 1f3e 4F       		.byte	0x4f
 7434 1f3f 25000000 		.4byte	0x25
 7435 1f43 2C       		.byte	0x2c
 7436 1f44 07       		.uleb128 0x7
 7437 1f45 E8070000 		.4byte	.LASF531
 7438 1f49 01       		.byte	0x1
 7439 1f4a 50       		.byte	0x50
 7440 1f4b 25000000 		.4byte	0x25
 7441 1f4f 30       		.byte	0x30
 7442 1f50 07       		.uleb128 0x7
 7443 1f51 CA010000 		.4byte	.LASF532
 7444 1f55 01       		.byte	0x1
 7445 1f56 51       		.byte	0x51
 7446 1f57 25000000 		.4byte	0x25
 7447 1f5b 34       		.byte	0x34
 7448 1f5c 07       		.uleb128 0x7
 7449 1f5d 65190000 		.4byte	.LASF533
 7450 1f61 01       		.byte	0x1
 7451 1f62 52       		.byte	0x52
 7452 1f63 25000000 		.4byte	0x25
 7453 1f67 38       		.byte	0x38
 7454 1f68 07       		.uleb128 0x7
 7455 1f69 9E1A0000 		.4byte	.LASF534
 7456 1f6d 01       		.byte	0x1
 7457 1f6e 53       		.byte	0x53
 7458 1f6f 25000000 		.4byte	0x25
 7459 1f73 3C       		.byte	0x3c
 7460 1f74 07       		.uleb128 0x7
 7461 1f75 9E170000 		.4byte	.LASF535
 7462 1f79 01       		.byte	0x1
 7463 1f7a 54       		.byte	0x54
 7464 1f7b 25000000 		.4byte	0x25
 7465 1f7f 40       		.byte	0x40
 7466 1f80 07       		.uleb128 0x7
 7467 1f81 AA0C0000 		.4byte	.LASF536
 7468 1f85 01       		.byte	0x1
 7469 1f86 55       		.byte	0x55
 7470 1f87 25000000 		.4byte	0x25
 7471 1f8b 44       		.byte	0x44
 7472 1f8c 07       		.uleb128 0x7
 7473 1f8d DD0B0000 		.4byte	.LASF537
 7474 1f91 01       		.byte	0x1
 7475 1f92 56       		.byte	0x56
 7476 1f93 25000000 		.4byte	0x25
 7477 1f97 48       		.byte	0x48
 7478 1f98 07       		.uleb128 0x7
 7479 1f99 4E160000 		.4byte	.LASF538
 7480 1f9d 01       		.byte	0x1
 7481 1f9e 57       		.byte	0x57
 7482 1f9f 25000000 		.4byte	0x25
 7483 1fa3 4C       		.byte	0x4c
ARM GAS  C:\Users\IDONNO~1\AppData\Local\Temp\ccm1q34l.s 			page 133


 7484 1fa4 07       		.uleb128 0x7
 7485 1fa5 BC200000 		.4byte	.LASF539
 7486 1fa9 01       		.byte	0x1
 7487 1faa 58       		.byte	0x58
 7488 1fab 25000000 		.4byte	0x25
 7489 1faf 50       		.byte	0x50
 7490 1fb0 07       		.uleb128 0x7
 7491 1fb1 B5060000 		.4byte	.LASF540
 7492 1fb5 01       		.byte	0x1
 7493 1fb6 59       		.byte	0x59
 7494 1fb7 25000000 		.4byte	0x25
 7495 1fbb 54       		.byte	0x54
 7496 1fbc 07       		.uleb128 0x7
 7497 1fbd 71000000 		.4byte	.LASF541
 7498 1fc1 01       		.byte	0x1
 7499 1fc2 5A       		.byte	0x5a
 7500 1fc3 25000000 		.4byte	0x25
 7501 1fc7 58       		.byte	0x58
 7502 1fc8 07       		.uleb128 0x7
 7503 1fc9 BD160000 		.4byte	.LASF542
 7504 1fcd 01       		.byte	0x1
 7505 1fce 5B       		.byte	0x5b
 7506 1fcf 25000000 		.4byte	0x25
 7507 1fd3 5C       		.byte	0x5c
 7508 1fd4 07       		.uleb128 0x7
 7509 1fd5 5C050000 		.4byte	.LASF543
 7510 1fd9 01       		.byte	0x1
 7511 1fda 5C       		.byte	0x5c
 7512 1fdb 25000000 		.4byte	0x25
 7513 1fdf 60       		.byte	0x60
 7514 1fe0 00       		.byte	0
 7515 1fe1 29       		.uleb128 0x29
 7516 1fe2 534D4300 		.ascii	"SMC\000"
 7517 1fe6 01       		.byte	0x1
 7518 1fe7 5D       		.byte	0x5d
 7519 1fe8 AC1E0000 		.4byte	0x1eac
 7520 1fec 0A       		.uleb128 0xa
 7521 1fed 04       		.byte	0x4
 7522 1fee E11F0000 		.4byte	0x1fe1
 7523 1ff2 1D       		.uleb128 0x1d
 7524 1ff3 24       		.byte	0x24
 7525 1ff4 01       		.byte	0x1
 7526 1ff5 60       		.byte	0x60
 7527 1ff6 67200000 		.4byte	0x2067
 7528 1ffa 07       		.uleb128 0x7
 7529 1ffb 030F0000 		.4byte	.LASF544
 7530 1fff 01       		.byte	0x1
 7531 2000 61       		.byte	0x61
 7532 2001 25000000 		.4byte	0x25
 7533 2005 00       		.byte	0
 7534 2006 1E       		.uleb128 0x1e
 7535 2007 714B7000 		.ascii	"qKp\000"
 7536 200b 01       		.byte	0x1
 7537 200c 62       		.byte	0x62
 7538 200d 25000000 		.4byte	0x25
 7539 2011 04       		.byte	0x4
 7540 2012 1E       		.uleb128 0x1e
ARM GAS  C:\Users\IDONNO~1\AppData\Local\Temp\ccm1q34l.s 			page 134


 7541 2013 714B6900 		.ascii	"qKi\000"
 7542 2017 01       		.byte	0x1
 7543 2018 63       		.byte	0x63
 7544 2019 25000000 		.4byte	0x25
 7545 201d 08       		.byte	0x8
 7546 201e 1E       		.uleb128 0x1e
 7547 201f 714B6300 		.ascii	"qKc\000"
 7548 2023 01       		.byte	0x1
 7549 2024 64       		.byte	0x64
 7550 2025 25000000 		.4byte	0x25
 7551 2029 0C       		.byte	0xc
 7552 202a 07       		.uleb128 0x7
 7553 202b 2B160000 		.4byte	.LASF545
 7554 202f 01       		.byte	0x1
 7555 2030 65       		.byte	0x65
 7556 2031 25000000 		.4byte	0x25
 7557 2035 10       		.byte	0x10
 7558 2036 07       		.uleb128 0x7
 7559 2037 841A0000 		.4byte	.LASF546
 7560 203b 01       		.byte	0x1
 7561 203c 66       		.byte	0x66
 7562 203d 25000000 		.4byte	0x25
 7563 2041 14       		.byte	0x14
 7564 2042 07       		.uleb128 0x7
 7565 2043 F70C0000 		.4byte	.LASF547
 7566 2047 01       		.byte	0x1
 7567 2048 67       		.byte	0x67
 7568 2049 25000000 		.4byte	0x25
 7569 204d 18       		.byte	0x18
 7570 204e 07       		.uleb128 0x7
 7571 204f 1E060000 		.4byte	.LASF548
 7572 2053 01       		.byte	0x1
 7573 2054 68       		.byte	0x68
 7574 2055 25000000 		.4byte	0x25
 7575 2059 1C       		.byte	0x1c
 7576 205a 07       		.uleb128 0x7
 7577 205b B30B0000 		.4byte	.LASF549
 7578 205f 01       		.byte	0x1
 7579 2060 69       		.byte	0x69
 7580 2061 25000000 		.4byte	0x25
 7581 2065 20       		.byte	0x20
 7582 2066 00       		.byte	0
 7583 2067 04       		.uleb128 0x4
 7584 2068 410B0000 		.4byte	.LASF550
 7585 206c 01       		.byte	0x1
 7586 206d 6A       		.byte	0x6a
 7587 206e F21F0000 		.4byte	0x1ff2
 7588 2072 1D       		.uleb128 0x1d
 7589 2073 40       		.byte	0x40
 7590 2074 01       		.byte	0x1
 7591 2075 6C       		.byte	0x6c
 7592 2076 3B210000 		.4byte	0x213b
 7593 207a 07       		.uleb128 0x7
 7594 207b E30D0000 		.4byte	.LASF551
 7595 207f 01       		.byte	0x1
 7596 2080 6D       		.byte	0x6d
 7597 2081 25000000 		.4byte	0x25
ARM GAS  C:\Users\IDONNO~1\AppData\Local\Temp\ccm1q34l.s 			page 135


 7598 2085 00       		.byte	0
 7599 2086 07       		.uleb128 0x7
 7600 2087 A6110000 		.4byte	.LASF552
 7601 208b 01       		.byte	0x1
 7602 208c 6E       		.byte	0x6e
 7603 208d 25000000 		.4byte	0x25
 7604 2091 04       		.byte	0x4
 7605 2092 07       		.uleb128 0x7
 7606 2093 D8060000 		.4byte	.LASF553
 7607 2097 01       		.byte	0x1
 7608 2098 6F       		.byte	0x6f
 7609 2099 25000000 		.4byte	0x25
 7610 209d 08       		.byte	0x8
 7611 209e 1E       		.uleb128 0x1e
 7612 209f 71496100 		.ascii	"qIa\000"
 7613 20a3 01       		.byte	0x1
 7614 20a4 70       		.byte	0x70
 7615 20a5 25000000 		.4byte	0x25
 7616 20a9 0C       		.byte	0xc
 7617 20aa 1E       		.uleb128 0x1e
 7618 20ab 71496200 		.ascii	"qIb\000"
 7619 20af 01       		.byte	0x1
 7620 20b0 71       		.byte	0x71
 7621 20b1 25000000 		.4byte	0x25
 7622 20b5 10       		.byte	0x10
 7623 20b6 07       		.uleb128 0x7
 7624 20b7 780A0000 		.4byte	.LASF554
 7625 20bb 01       		.byte	0x1
 7626 20bc 72       		.byte	0x72
 7627 20bd 25000000 		.4byte	0x25
 7628 20c1 14       		.byte	0x14
 7629 20c2 07       		.uleb128 0x7
 7630 20c3 BB0D0000 		.4byte	.LASF555
 7631 20c7 01       		.byte	0x1
 7632 20c8 73       		.byte	0x73
 7633 20c9 25000000 		.4byte	0x25
 7634 20cd 18       		.byte	0x18
 7635 20ce 1E       		.uleb128 0x1e
 7636 20cf 71496400 		.ascii	"qId\000"
 7637 20d3 01       		.byte	0x1
 7638 20d4 74       		.byte	0x74
 7639 20d5 25000000 		.4byte	0x25
 7640 20d9 1C       		.byte	0x1c
 7641 20da 1E       		.uleb128 0x1e
 7642 20db 71497100 		.ascii	"qIq\000"
 7643 20df 01       		.byte	0x1
 7644 20e0 75       		.byte	0x75
 7645 20e1 25000000 		.4byte	0x25
 7646 20e5 20       		.byte	0x20
 7647 20e6 1E       		.uleb128 0x1e
 7648 20e7 71566400 		.ascii	"qVd\000"
 7649 20eb 01       		.byte	0x1
 7650 20ec 76       		.byte	0x76
 7651 20ed 25000000 		.4byte	0x25
 7652 20f1 24       		.byte	0x24
 7653 20f2 1E       		.uleb128 0x1e
 7654 20f3 71567100 		.ascii	"qVq\000"
ARM GAS  C:\Users\IDONNO~1\AppData\Local\Temp\ccm1q34l.s 			page 136


 7655 20f7 01       		.byte	0x1
 7656 20f8 77       		.byte	0x77
 7657 20f9 25000000 		.4byte	0x25
 7658 20fd 28       		.byte	0x28
 7659 20fe 07       		.uleb128 0x7
 7660 20ff A11C0000 		.4byte	.LASF556
 7661 2103 01       		.byte	0x1
 7662 2104 78       		.byte	0x78
 7663 2105 25000000 		.4byte	0x25
 7664 2109 2C       		.byte	0x2c
 7665 210a 07       		.uleb128 0x7
 7666 210b 11070000 		.4byte	.LASF557
 7667 210f 01       		.byte	0x1
 7668 2110 79       		.byte	0x79
 7669 2111 25000000 		.4byte	0x25
 7670 2115 30       		.byte	0x30
 7671 2116 1E       		.uleb128 0x1e
 7672 2117 71563100 		.ascii	"qV1\000"
 7673 211b 01       		.byte	0x1
 7674 211c 7A       		.byte	0x7a
 7675 211d 25000000 		.4byte	0x25
 7676 2121 34       		.byte	0x34
 7677 2122 1E       		.uleb128 0x1e
 7678 2123 71563200 		.ascii	"qV2\000"
 7679 2127 01       		.byte	0x1
 7680 2128 7B       		.byte	0x7b
 7681 2129 25000000 		.4byte	0x25
 7682 212d 38       		.byte	0x38
 7683 212e 1E       		.uleb128 0x1e
 7684 212f 71563300 		.ascii	"qV3\000"
 7685 2133 01       		.byte	0x1
 7686 2134 7C       		.byte	0x7c
 7687 2135 25000000 		.4byte	0x25
 7688 2139 3C       		.byte	0x3c
 7689 213a 00       		.byte	0
 7690 213b 04       		.uleb128 0x4
 7691 213c 490B0000 		.4byte	.LASF558
 7692 2140 01       		.byte	0x1
 7693 2141 7D       		.byte	0x7d
 7694 2142 72200000 		.4byte	0x2072
 7695 2146 1D       		.uleb128 0x1d
 7696 2147 0C       		.byte	0xc
 7697 2148 01       		.byte	0x1
 7698 2149 7F       		.byte	0x7f
 7699 214a 73210000 		.4byte	0x2173
 7700 214e 07       		.uleb128 0x7
 7701 214f E1020000 		.4byte	.LASF559
 7702 2153 01       		.byte	0x1
 7703 2154 80       		.byte	0x80
 7704 2155 25000000 		.4byte	0x25
 7705 2159 00       		.byte	0
 7706 215a 07       		.uleb128 0x7
 7707 215b 801C0000 		.4byte	.LASF560
 7708 215f 01       		.byte	0x1
 7709 2160 81       		.byte	0x81
 7710 2161 25000000 		.4byte	0x25
 7711 2165 04       		.byte	0x4
ARM GAS  C:\Users\IDONNO~1\AppData\Local\Temp\ccm1q34l.s 			page 137


 7712 2166 07       		.uleb128 0x7
 7713 2167 1C200000 		.4byte	.LASF561
 7714 216b 01       		.byte	0x1
 7715 216c 82       		.byte	0x82
 7716 216d 25000000 		.4byte	0x25
 7717 2171 08       		.byte	0x8
 7718 2172 00       		.byte	0
 7719 2173 04       		.uleb128 0x4
 7720 2174 84230000 		.4byte	.LASF562
 7721 2178 01       		.byte	0x1
 7722 2179 83       		.byte	0x83
 7723 217a 46210000 		.4byte	0x2146
 7724 217e 1D       		.uleb128 0x1d
 7725 217f 5C       		.byte	0x5c
 7726 2180 01       		.byte	0x1
 7727 2181 87       		.byte	0x87
 7728 2182 E7210000 		.4byte	0x21e7
 7729 2186 1E       		.uleb128 0x1e
 7730 2187 714B3100 		.ascii	"qK1\000"
 7731 218b 01       		.byte	0x1
 7732 218c 88       		.byte	0x88
 7733 218d 25000000 		.4byte	0x25
 7734 2191 00       		.byte	0
 7735 2192 07       		.uleb128 0x7
 7736 2193 3A130000 		.4byte	.LASF563
 7737 2197 01       		.byte	0x1
 7738 2198 89       		.byte	0x89
 7739 2199 25000000 		.4byte	0x25
 7740 219d 04       		.byte	0x4
 7741 219e 07       		.uleb128 0x7
 7742 219f DC090000 		.4byte	.LASF564
 7743 21a3 01       		.byte	0x1
 7744 21a4 8A       		.byte	0x8a
 7745 21a5 25000000 		.4byte	0x25
 7746 21a9 08       		.byte	0x8
 7747 21aa 07       		.uleb128 0x7
 7748 21ab BC170000 		.4byte	.LASF565
 7749 21af 01       		.byte	0x1
 7750 21b0 8B       		.byte	0x8b
 7751 21b1 25000000 		.4byte	0x25
 7752 21b5 0C       		.byte	0xc
 7753 21b6 07       		.uleb128 0x7
 7754 21b7 D5040000 		.4byte	.LASF566
 7755 21bb 01       		.byte	0x1
 7756 21bc 8C       		.byte	0x8c
 7757 21bd 2C000000 		.4byte	0x2c
 7758 21c1 10       		.byte	0x10
 7759 21c2 07       		.uleb128 0x7
 7760 21c3 23200000 		.4byte	.LASF567
 7761 21c7 01       		.byte	0x1
 7762 21c8 8D       		.byte	0x8d
 7763 21c9 25000000 		.4byte	0x25
 7764 21cd 14       		.byte	0x14
 7765 21ce 07       		.uleb128 0x7
 7766 21cf AC1E0000 		.4byte	.LASF568
 7767 21d3 01       		.byte	0x1
 7768 21d4 8E       		.byte	0x8e
ARM GAS  C:\Users\IDONNO~1\AppData\Local\Temp\ccm1q34l.s 			page 138


 7769 21d5 25000000 		.4byte	0x25
 7770 21d9 18       		.byte	0x18
 7771 21da 07       		.uleb128 0x7
 7772 21db 58000000 		.4byte	.LASF569
 7773 21df 01       		.byte	0x1
 7774 21e0 8F       		.byte	0x8f
 7775 21e1 E7210000 		.4byte	0x21e7
 7776 21e5 1C       		.byte	0x1c
 7777 21e6 00       		.byte	0
 7778 21e7 19       		.uleb128 0x19
 7779 21e8 25000000 		.4byte	0x25
 7780 21ec F7210000 		.4byte	0x21f7
 7781 21f0 1A       		.uleb128 0x1a
 7782 21f1 D4060000 		.4byte	0x6d4
 7783 21f5 0F       		.byte	0xf
 7784 21f6 00       		.byte	0
 7785 21f7 04       		.uleb128 0x4
 7786 21f8 89040000 		.4byte	.LASF570
 7787 21fc 01       		.byte	0x1
 7788 21fd 90       		.byte	0x90
 7789 21fe 7E210000 		.4byte	0x217e
 7790 2202 1D       		.uleb128 0x1d
 7791 2203 24       		.byte	0x24
 7792 2204 01       		.byte	0x1
 7793 2205 94       		.byte	0x94
 7794 2206 72220000 		.4byte	0x2272
 7795 220a 07       		.uleb128 0x7
 7796 220b 1C150000 		.4byte	.LASF571
 7797 220f 01       		.byte	0x1
 7798 2210 95       		.byte	0x95
 7799 2211 3E000000 		.4byte	0x3e
 7800 2215 00       		.byte	0
 7801 2216 07       		.uleb128 0x7
 7802 2217 F5220000 		.4byte	.LASF572
 7803 221b 01       		.byte	0x1
 7804 221c 97       		.byte	0x97
 7805 221d 25000000 		.4byte	0x25
 7806 2221 04       		.byte	0x4
 7807 2222 07       		.uleb128 0x7
 7808 2223 FA220000 		.4byte	.LASF573
 7809 2227 01       		.byte	0x1
 7810 2228 98       		.byte	0x98
 7811 2229 25000000 		.4byte	0x25
 7812 222d 08       		.byte	0x8
 7813 222e 07       		.uleb128 0x7
 7814 222f 7D1D0000 		.4byte	.LASF574
 7815 2233 01       		.byte	0x1
 7816 2234 99       		.byte	0x99
 7817 2235 25000000 		.4byte	0x25
 7818 2239 0C       		.byte	0xc
 7819 223a 1E       		.uleb128 0x1e
 7820 223b 543100   		.ascii	"T1\000"
 7821 223e 01       		.byte	0x1
 7822 223f 9B       		.byte	0x9b
 7823 2240 25000000 		.4byte	0x25
 7824 2244 10       		.byte	0x10
 7825 2245 1E       		.uleb128 0x1e
ARM GAS  C:\Users\IDONNO~1\AppData\Local\Temp\ccm1q34l.s 			page 139


 7826 2246 543200   		.ascii	"T2\000"
 7827 2249 01       		.byte	0x1
 7828 224a 9C       		.byte	0x9c
 7829 224b 25000000 		.4byte	0x25
 7830 224f 14       		.byte	0x14
 7831 2250 1E       		.uleb128 0x1e
 7832 2251 546100   		.ascii	"Ta\000"
 7833 2254 01       		.byte	0x1
 7834 2255 9E       		.byte	0x9e
 7835 2256 3E000000 		.4byte	0x3e
 7836 225a 18       		.byte	0x18
 7837 225b 1E       		.uleb128 0x1e
 7838 225c 546200   		.ascii	"Tb\000"
 7839 225f 01       		.byte	0x1
 7840 2260 9F       		.byte	0x9f
 7841 2261 3E000000 		.4byte	0x3e
 7842 2265 1C       		.byte	0x1c
 7843 2266 1E       		.uleb128 0x1e
 7844 2267 546300   		.ascii	"Tc\000"
 7845 226a 01       		.byte	0x1
 7846 226b A0       		.byte	0xa0
 7847 226c 3E000000 		.4byte	0x3e
 7848 2270 20       		.byte	0x20
 7849 2271 00       		.byte	0
 7850 2272 04       		.uleb128 0x4
 7851 2273 D10A0000 		.4byte	.LASF575
 7852 2277 01       		.byte	0x1
 7853 2278 A2       		.byte	0xa2
 7854 2279 02220000 		.4byte	0x2202
 7855 227d 2A       		.uleb128 0x2a
 7856 227e 961D0000 		.4byte	.LASF577
 7857 2282 01       		.byte	0x1
 7858 2283 1803     		.2byte	0x318
 7859 2285 01       		.byte	0x1
 7860 2286 97220000 		.4byte	0x2297
 7861 228a 2B       		.uleb128 0x2b
 7862 228b 291C0000 		.4byte	.LASF576
 7863 228f 01       		.byte	0x1
 7864 2290 1803     		.2byte	0x318
 7865 2292 97220000 		.4byte	0x2297
 7866 2296 00       		.byte	0
 7867 2297 0A       		.uleb128 0xa
 7868 2298 04       		.byte	0x4
 7869 2299 67200000 		.4byte	0x2067
 7870 229d 2C       		.uleb128 0x2c
 7871 229e 92200000 		.4byte	.LASF757
 7872 22a2 01       		.byte	0x1
 7873 22a3 6003     		.2byte	0x360
 7874 22a5 25000000 		.4byte	0x25
 7875 22a9 01       		.byte	0x1
 7876 22aa C7220000 		.4byte	0x22c7
 7877 22ae 2D       		.uleb128 0x2d
 7878 22af 56647100 		.ascii	"Vdq\000"
 7879 22b3 01       		.byte	0x1
 7880 22b4 6003     		.2byte	0x360
 7881 22b6 25000000 		.4byte	0x25
 7882 22ba 2E       		.uleb128 0x2e
ARM GAS  C:\Users\IDONNO~1\AppData\Local\Temp\ccm1q34l.s 			page 140


 7883 22bb 8A200000 		.4byte	.LASF584
 7884 22bf 01       		.byte	0x1
 7885 22c0 6203     		.2byte	0x362
 7886 22c2 25000000 		.4byte	0x25
 7887 22c6 00       		.byte	0
 7888 22c7 2A       		.uleb128 0x2a
 7889 22c8 83110000 		.4byte	.LASF578
 7890 22cc 01       		.byte	0x1
 7891 22cd 8C03     		.2byte	0x38c
 7892 22cf 01       		.byte	0x1
 7893 22d0 ED220000 		.4byte	0x22ed
 7894 22d4 2B       		.uleb128 0x2b
 7895 22d5 B7220000 		.4byte	.LASF579
 7896 22d9 01       		.byte	0x1
 7897 22da 8C03     		.2byte	0x38c
 7898 22dc 69000000 		.4byte	0x69
 7899 22e0 2B       		.uleb128 0x2b
 7900 22e1 C0220000 		.4byte	.LASF580
 7901 22e5 01       		.byte	0x1
 7902 22e6 8C03     		.2byte	0x38c
 7903 22e8 69000000 		.4byte	0x69
 7904 22ec 00       		.byte	0
 7905 22ed 2A       		.uleb128 0x2a
 7906 22ee 0C130000 		.4byte	.LASF581
 7907 22f2 01       		.byte	0x1
 7908 22f3 7F03     		.2byte	0x37f
 7909 22f5 01       		.byte	0x1
 7910 22f6 2B230000 		.4byte	0x232b
 7911 22fa 2B       		.uleb128 0x2b
 7912 22fb 05070000 		.4byte	.LASF582
 7913 22ff 01       		.byte	0x1
 7914 2300 7F03     		.2byte	0x37f
 7915 2302 2C000000 		.4byte	0x2c
 7916 2306 2B       		.uleb128 0x2b
 7917 2307 0B070000 		.4byte	.LASF583
 7918 230b 01       		.byte	0x1
 7919 230c 7F03     		.2byte	0x37f
 7920 230e 2C000000 		.4byte	0x2c
 7921 2312 2E       		.uleb128 0x2e
 7922 2313 96220000 		.4byte	.LASF585
 7923 2317 01       		.byte	0x1
 7924 2318 8103     		.2byte	0x381
 7925 231a 2C000000 		.4byte	0x2c
 7926 231e 2E       		.uleb128 0x2e
 7927 231f 9F220000 		.4byte	.LASF586
 7928 2323 01       		.byte	0x1
 7929 2324 8103     		.2byte	0x381
 7930 2326 2C000000 		.4byte	0x2c
 7931 232a 00       		.byte	0
 7932 232b 2F       		.uleb128 0x2f
 7933 232c B2160000 		.4byte	.LASF758
 7934 2330 01       		.byte	0x1
 7935 2331 9803     		.2byte	0x398
 7936 2333 01       		.byte	0x1
 7937 2334 30       		.uleb128 0x30
 7938 2335 D00B0000 		.4byte	.LASF759
 7939 2339 02       		.byte	0x2
ARM GAS  C:\Users\IDONNO~1\AppData\Local\Temp\ccm1q34l.s 			page 141


 7940 233a B506     		.2byte	0x6b5
 7941 233c EB000000 		.4byte	0xeb
 7942 2340 03       		.byte	0x3
 7943 2341 51230000 		.4byte	0x2351
 7944 2345 2D       		.uleb128 0x2d
 7945 2346 636800   		.ascii	"ch\000"
 7946 2349 02       		.byte	0x2
 7947 234a B506     		.2byte	0x6b5
 7948 234c EB000000 		.4byte	0xeb
 7949 2350 00       		.byte	0
 7950 2351 31       		.uleb128 0x31
 7951 2352 A1080000 		.4byte	.LASF588
 7952 2356 01       		.byte	0x1
 7953 2357 A702     		.2byte	0x2a7
 7954 2359 00000000 		.4byte	.LFB260
 7955 235d 1C000000 		.4byte	.LFE260-.LFB260
 7956 2361 01       		.uleb128 0x1
 7957 2362 9C       		.byte	0x9c
 7958 2363 96230000 		.4byte	0x2396
 7959 2367 32       		.uleb128 0x32
 7960 2368 7000     		.ascii	"p\000"
 7961 236a 01       		.byte	0x1
 7962 236b A702     		.2byte	0x2a7
 7963 236d 7B030000 		.4byte	0x37b
 7964 2371 00000000 		.4byte	.LLST0
 7965 2375 33       		.uleb128 0x33
 7966 2376 78240000 		.4byte	.LASF587
 7967 237a 01       		.byte	0x1
 7968 237b A702     		.2byte	0x2a7
 7969 237d EB000000 		.4byte	0xeb
 7970 2381 21000000 		.4byte	.LLST1
 7971 2385 34       		.uleb128 0x34
 7972 2386 14000000 		.4byte	.LVL3
 7973 238a 93380000 		.4byte	0x3893
 7974 238e 35       		.uleb128 0x35
 7975 238f 01       		.uleb128 0x1
 7976 2390 50       		.byte	0x50
 7977 2391 02       		.uleb128 0x2
 7978 2392 08       		.byte	0x8
 7979 2393 64       		.byte	0x64
 7980 2394 00       		.byte	0
 7981 2395 00       		.byte	0
 7982 2396 36       		.uleb128 0x36
 7983 2397 EE130000 		.4byte	.LASF615
 7984 239b 01       		.byte	0x1
 7985 239c B902     		.2byte	0x2b9
 7986 239e 030F0000 		.4byte	0xf03
 7987 23a2 00000000 		.4byte	.LFB261
 7988 23a6 70000000 		.4byte	.LFE261-.LFB261
 7989 23aa 01       		.uleb128 0x1
 7990 23ab 9C       		.byte	0x9c
 7991 23ac D4230000 		.4byte	0x23d4
 7992 23b0 37       		.uleb128 0x37
 7993 23b1 C7220000 		.4byte	0x22c7
 7994 23b5 3A000000 		.4byte	.LBB18
 7995 23b9 04000000 		.4byte	.LBE18-.LBB18
 7996 23bd 01       		.byte	0x1
ARM GAS  C:\Users\IDONNO~1\AppData\Local\Temp\ccm1q34l.s 			page 142


 7997 23be C102     		.2byte	0x2c1
 7998 23c0 38       		.uleb128 0x38
 7999 23c1 E0220000 		.4byte	0x22e0
 8000 23c5 42000000 		.4byte	.LLST2
 8001 23c9 38       		.uleb128 0x38
 8002 23ca D4220000 		.4byte	0x22d4
 8003 23ce 55000000 		.4byte	.LLST3
 8004 23d2 00       		.byte	0
 8005 23d3 00       		.byte	0
 8006 23d4 31       		.uleb128 0x31
 8007 23d5 41010000 		.4byte	.LASF589
 8008 23d9 01       		.byte	0x1
 8009 23da CF02     		.2byte	0x2cf
 8010 23dc 00000000 		.4byte	.LFB262
 8011 23e0 68000000 		.4byte	.LFE262-.LFB262
 8012 23e4 01       		.uleb128 0x1
 8013 23e5 9C       		.byte	0x9c
 8014 23e6 13240000 		.4byte	0x2413
 8015 23ea 39       		.uleb128 0x39
 8016 23eb 34000000 		.4byte	.LVL6
 8017 23ef 9E380000 		.4byte	0x389e
 8018 23f3 00240000 		.4byte	0x2400
 8019 23f7 35       		.uleb128 0x35
 8020 23f8 02       		.uleb128 0x2
 8021 23f9 90       		.byte	0x90
 8022 23fa 40       		.uleb128 0x40
 8023 23fb 03       		.uleb128 0x3
 8024 23fc F5       		.byte	0xf5
 8025 23fd 53       		.uleb128 0x53
 8026 23fe 25       		.uleb128 0x25
 8027 23ff 00       		.byte	0
 8028 2400 3A       		.uleb128 0x3a
 8029 2401 40000000 		.4byte	.LVL7
 8030 2405 AA380000 		.4byte	0x38aa
 8031 2409 35       		.uleb128 0x35
 8032 240a 02       		.uleb128 0x2
 8033 240b 90       		.byte	0x90
 8034 240c 40       		.uleb128 0x40
 8035 240d 03       		.uleb128 0x3
 8036 240e F5       		.byte	0xf5
 8037 240f 53       		.uleb128 0x53
 8038 2410 25       		.uleb128 0x25
 8039 2411 00       		.byte	0
 8040 2412 00       		.byte	0
 8041 2413 3B       		.uleb128 0x3b
 8042 2414 7D220000 		.4byte	0x227d
 8043 2418 00000000 		.4byte	.LFB264
 8044 241c 08000000 		.4byte	.LFE264-.LFB264
 8045 2420 01       		.uleb128 0x1
 8046 2421 9C       		.byte	0x9c
 8047 2422 2E240000 		.4byte	0x242e
 8048 2426 3C       		.uleb128 0x3c
 8049 2427 8A220000 		.4byte	0x228a
 8050 242b 01       		.uleb128 0x1
 8051 242c 50       		.byte	0x50
 8052 242d 00       		.byte	0
 8053 242e 31       		.uleb128 0x31
ARM GAS  C:\Users\IDONNO~1\AppData\Local\Temp\ccm1q34l.s 			page 143


 8054 242f F11A0000 		.4byte	.LASF590
 8055 2433 01       		.byte	0x1
 8056 2434 1E03     		.2byte	0x31e
 8057 2436 00000000 		.4byte	.LFB265
 8058 243a 60000000 		.4byte	.LFE265-.LFB265
 8059 243e 01       		.uleb128 0x1
 8060 243f 9C       		.byte	0x9c
 8061 2440 80240000 		.4byte	0x2480
 8062 2444 3D       		.uleb128 0x3d
 8063 2445 291C0000 		.4byte	.LASF576
 8064 2449 01       		.byte	0x1
 8065 244a 1E03     		.2byte	0x31e
 8066 244c 97220000 		.4byte	0x2297
 8067 2450 01       		.uleb128 0x1
 8068 2451 50       		.byte	0x50
 8069 2452 3E       		.uleb128 0x3e
 8070 2453 5500     		.ascii	"U\000"
 8071 2455 01       		.byte	0x1
 8072 2456 2003     		.2byte	0x320
 8073 2458 25000000 		.4byte	0x25
 8074 245c 68000000 		.4byte	.LLST4
 8075 2460 3E       		.uleb128 0x3e
 8076 2461 45786300 		.ascii	"Exc\000"
 8077 2465 01       		.byte	0x1
 8078 2466 2003     		.2byte	0x320
 8079 2468 25000000 		.4byte	0x25
 8080 246c 7C000000 		.4byte	.LLST5
 8081 2470 3F       		.uleb128 0x3f
 8082 2471 45727200 		.ascii	"Err\000"
 8083 2475 01       		.byte	0x1
 8084 2476 2003     		.2byte	0x320
 8085 2478 25000000 		.4byte	0x25
 8086 247c 02       		.uleb128 0x2
 8087 247d 90       		.byte	0x90
 8088 247e 4C       		.uleb128 0x4c
 8089 247f 00       		.byte	0
 8090 2480 31       		.uleb128 0x31
 8091 2481 6D180000 		.4byte	.LASF591
 8092 2485 01       		.byte	0x1
 8093 2486 2F03     		.2byte	0x32f
 8094 2488 00000000 		.4byte	.LFB266
 8095 248c 8C000000 		.4byte	.LFE266-.LFB266
 8096 2490 01       		.uleb128 0x1
 8097 2491 9C       		.byte	0x9c
 8098 2492 FF240000 		.4byte	0x24ff
 8099 2496 40       		.uleb128 0x40
 8100 2497 7D220000 		.4byte	0x227d
 8101 249b 18000000 		.4byte	.LBB20
 8102 249f 00000000 		.4byte	.Ldebug_ranges0+0
 8103 24a3 01       		.byte	0x1
 8104 24a4 3903     		.2byte	0x339
 8105 24a6 B4240000 		.4byte	0x24b4
 8106 24aa 38       		.uleb128 0x38
 8107 24ab 8A220000 		.4byte	0x228a
 8108 24af A2000000 		.4byte	.LLST6
 8109 24b3 00       		.byte	0
 8110 24b4 40       		.uleb128 0x40
ARM GAS  C:\Users\IDONNO~1\AppData\Local\Temp\ccm1q34l.s 			page 144


 8111 24b5 7D220000 		.4byte	0x227d
 8112 24b9 2C000000 		.4byte	.LBB23
 8113 24bd 18000000 		.4byte	.Ldebug_ranges0+0x18
 8114 24c1 01       		.byte	0x1
 8115 24c2 4203     		.2byte	0x342
 8116 24c4 CE240000 		.4byte	0x24ce
 8117 24c8 41       		.uleb128 0x41
 8118 24c9 8A220000 		.4byte	0x228a
 8119 24cd 00       		.byte	0
 8120 24ce 42       		.uleb128 0x42
 8121 24cf 7D220000 		.4byte	0x227d
 8122 24d3 44000000 		.4byte	.LBB28
 8123 24d7 04000000 		.4byte	.LBE28-.LBB28
 8124 24db 01       		.byte	0x1
 8125 24dc 4B03     		.2byte	0x34b
 8126 24de E8240000 		.4byte	0x24e8
 8127 24e2 41       		.uleb128 0x41
 8128 24e3 8A220000 		.4byte	0x228a
 8129 24e7 00       		.byte	0
 8130 24e8 37       		.uleb128 0x37
 8131 24e9 7D220000 		.4byte	0x227d
 8132 24ed 4C000000 		.4byte	.LBB30
 8133 24f1 04000000 		.4byte	.LBE30-.LBB30
 8134 24f5 01       		.byte	0x1
 8135 24f6 5403     		.2byte	0x354
 8136 24f8 41       		.uleb128 0x41
 8137 24f9 8A220000 		.4byte	0x228a
 8138 24fd 00       		.byte	0
 8139 24fe 00       		.byte	0
 8140 24ff 43       		.uleb128 0x43
 8141 2500 C3230000 		.4byte	.LASF760
 8142 2504 01       		.byte	0x1
 8143 2505 4002     		.2byte	0x240
 8144 2507 01       		.byte	0x1
 8145 2508 31       		.uleb128 0x31
 8146 2509 F4060000 		.4byte	.LASF592
 8147 250d 01       		.byte	0x1
 8148 250e 2101     		.2byte	0x121
 8149 2510 00000000 		.4byte	.LFB257
 8150 2514 B4040000 		.4byte	.LFE257-.LFB257
 8151 2518 01       		.uleb128 0x1
 8152 2519 9C       		.byte	0x9c
 8153 251a DD2C0000 		.4byte	0x2cdd
 8154 251e 33       		.uleb128 0x33
 8155 251f 3D180000 		.4byte	.LASF593
 8156 2523 01       		.byte	0x1
 8157 2524 2101     		.2byte	0x121
 8158 2526 DD2C0000 		.4byte	0x2cdd
 8159 252a BA000000 		.4byte	.LLST7
 8160 252e 44       		.uleb128 0x44
 8161 252f B0140000 		.4byte	.LASF594
 8162 2533 01       		.byte	0x1
 8163 2534 2401     		.2byte	0x124
 8164 2536 EC110000 		.4byte	0x11ec
 8165 253a 03       		.uleb128 0x3
 8166 253b 91       		.byte	0x91
 8167 253c C47E     		.sleb128 -188
ARM GAS  C:\Users\IDONNO~1\AppData\Local\Temp\ccm1q34l.s 			page 145


 8168 253e 44       		.uleb128 0x44
 8169 253f 9F190000 		.4byte	.LASF595
 8170 2543 01       		.byte	0x1
 8171 2544 2501     		.2byte	0x125
 8172 2546 60120000 		.4byte	0x1260
 8173 254a 03       		.uleb128 0x3
 8174 254b 91       		.byte	0x91
 8175 254c F07E     		.sleb128 -144
 8176 254e 44       		.uleb128 0x44
 8177 254f DA0E0000 		.4byte	.LASF596
 8178 2553 01       		.byte	0x1
 8179 2554 2601     		.2byte	0x126
 8180 2556 C8120000 		.4byte	0x12c8
 8181 255a 03       		.uleb128 0x3
 8182 255b 91       		.byte	0x91
 8183 255c D07E     		.sleb128 -176
 8184 255e 44       		.uleb128 0x44
 8185 255f C90F0000 		.4byte	.LASF597
 8186 2563 01       		.byte	0x1
 8187 2564 2701     		.2byte	0x127
 8188 2566 28100000 		.4byte	0x1028
 8189 256a 03       		.uleb128 0x3
 8190 256b 91       		.byte	0x91
 8191 256c C07E     		.sleb128 -192
 8192 256e 44       		.uleb128 0x44
 8193 256f 13140000 		.4byte	.LASF598
 8194 2573 01       		.byte	0x1
 8195 2574 6201     		.2byte	0x162
 8196 2576 9C110000 		.4byte	0x119c
 8197 257a 03       		.uleb128 0x3
 8198 257b 91       		.byte	0x91
 8199 257c E07E     		.sleb128 -160
 8200 257e 44       		.uleb128 0x44
 8201 257f BB150000 		.4byte	.LASF599
 8202 2583 01       		.byte	0x1
 8203 2584 6301     		.2byte	0x163
 8204 2586 F0100000 		.4byte	0x10f0
 8205 258a 03       		.uleb128 0x3
 8206 258b 91       		.byte	0x91
 8207 258c 9C7F     		.sleb128 -100
 8208 258e 44       		.uleb128 0x44
 8209 258f 2D190000 		.4byte	.LASF600
 8210 2593 01       		.byte	0x1
 8211 2594 6401     		.2byte	0x164
 8212 2596 58110000 		.4byte	0x1158
 8213 259a 03       		.uleb128 0x3
 8214 259b 91       		.byte	0x91
 8215 259c 847F     		.sleb128 -124
 8216 259e 45       		.uleb128 0x45
 8217 259f 4F020000 		.4byte	.LASF601
 8218 25a3 01       		.byte	0x1
 8219 25a4 E801     		.2byte	0x1e8
 8220 25a6 D5000000 		.4byte	0xd5
 8221 25aa DB000000 		.4byte	.LLST8
 8222 25ae 40       		.uleb128 0x40
 8223 25af FF240000 		.4byte	0x24ff
 8224 25b3 D2030000 		.4byte	.LBB34
ARM GAS  C:\Users\IDONNO~1\AppData\Local\Temp\ccm1q34l.s 			page 146


 8225 25b7 30000000 		.4byte	.Ldebug_ranges0+0x30
 8226 25bb 01       		.byte	0x1
 8227 25bc 0C02     		.2byte	0x20c
 8228 25be D4250000 		.4byte	0x25d4
 8229 25c2 3A       		.uleb128 0x3a
 8230 25c3 F0030000 		.4byte	.LVL80
 8231 25c7 B6380000 		.4byte	0x38b6
 8232 25cb 35       		.uleb128 0x35
 8233 25cc 01       		.uleb128 0x1
 8234 25cd 50       		.byte	0x50
 8235 25ce 03       		.uleb128 0x3
 8236 25cf 0A       		.byte	0xa
 8237 25d0 1027     		.2byte	0x2710
 8238 25d2 00       		.byte	0
 8239 25d3 00       		.byte	0
 8240 25d4 46       		.uleb128 0x46
 8241 25d5 0A000000 		.4byte	.LVL18
 8242 25d9 C1380000 		.4byte	0x38c1
 8243 25dd 39       		.uleb128 0x39
 8244 25de 22000000 		.4byte	.LVL19
 8245 25e2 CC380000 		.4byte	0x38cc
 8246 25e6 F1250000 		.4byte	0x25f1
 8247 25ea 35       		.uleb128 0x35
 8248 25eb 01       		.uleb128 0x1
 8249 25ec 50       		.byte	0x50
 8250 25ed 02       		.uleb128 0x2
 8251 25ee 76       		.byte	0x76
 8252 25ef 00       		.sleb128 0
 8253 25f0 00       		.byte	0
 8254 25f1 39       		.uleb128 0x39
 8255 25f2 28000000 		.4byte	.LVL20
 8256 25f6 CC380000 		.4byte	0x38cc
 8257 25fa 05260000 		.4byte	0x2605
 8258 25fe 35       		.uleb128 0x35
 8259 25ff 01       		.uleb128 0x1
 8260 2600 50       		.byte	0x50
 8261 2601 02       		.uleb128 0x2
 8262 2602 77       		.byte	0x77
 8263 2603 00       		.sleb128 0
 8264 2604 00       		.byte	0
 8265 2605 39       		.uleb128 0x39
 8266 2606 36000000 		.4byte	.LVL21
 8267 260a D8380000 		.4byte	0x38d8
 8268 260e 1F260000 		.4byte	0x261f
 8269 2612 35       		.uleb128 0x35
 8270 2613 01       		.uleb128 0x1
 8271 2614 50       		.byte	0x50
 8272 2615 02       		.uleb128 0x2
 8273 2616 75       		.byte	0x75
 8274 2617 00       		.sleb128 0
 8275 2618 35       		.uleb128 0x35
 8276 2619 01       		.uleb128 0x1
 8277 261a 51       		.byte	0x51
 8278 261b 02       		.uleb128 0x2
 8279 261c 75       		.byte	0x75
 8280 261d 00       		.sleb128 0
 8281 261e 00       		.byte	0
ARM GAS  C:\Users\IDONNO~1\AppData\Local\Temp\ccm1q34l.s 			page 147


 8282 261f 39       		.uleb128 0x39
 8283 2620 5E000000 		.4byte	.LVL22
 8284 2624 E4380000 		.4byte	0x38e4
 8285 2628 3A260000 		.4byte	0x263a
 8286 262c 35       		.uleb128 0x35
 8287 262d 01       		.uleb128 0x1
 8288 262e 50       		.byte	0x50
 8289 262f 02       		.uleb128 0x2
 8290 2630 76       		.byte	0x76
 8291 2631 00       		.sleb128 0
 8292 2632 35       		.uleb128 0x35
 8293 2633 01       		.uleb128 0x1
 8294 2634 51       		.byte	0x51
 8295 2635 03       		.uleb128 0x3
 8296 2636 91       		.byte	0x91
 8297 2637 C47E     		.sleb128 -188
 8298 2639 00       		.byte	0
 8299 263a 39       		.uleb128 0x39
 8300 263b 98000000 		.4byte	.LVL23
 8301 263f F0380000 		.4byte	0x38f0
 8302 2643 55260000 		.4byte	0x2655
 8303 2647 35       		.uleb128 0x35
 8304 2648 01       		.uleb128 0x1
 8305 2649 50       		.byte	0x50
 8306 264a 02       		.uleb128 0x2
 8307 264b 76       		.byte	0x76
 8308 264c 00       		.sleb128 0
 8309 264d 35       		.uleb128 0x35
 8310 264e 01       		.uleb128 0x1
 8311 264f 51       		.byte	0x51
 8312 2650 03       		.uleb128 0x3
 8313 2651 91       		.byte	0x91
 8314 2652 F07E     		.sleb128 -144
 8315 2654 00       		.byte	0
 8316 2655 39       		.uleb128 0x39
 8317 2656 A0000000 		.4byte	.LVL24
 8318 265a FC380000 		.4byte	0x38fc
 8319 265e 70260000 		.4byte	0x2670
 8320 2662 35       		.uleb128 0x35
 8321 2663 01       		.uleb128 0x1
 8322 2664 50       		.byte	0x50
 8323 2665 02       		.uleb128 0x2
 8324 2666 76       		.byte	0x76
 8325 2667 00       		.sleb128 0
 8326 2668 35       		.uleb128 0x35
 8327 2669 01       		.uleb128 0x1
 8328 266a 51       		.byte	0x51
 8329 266b 03       		.uleb128 0x3
 8330 266c 91       		.byte	0x91
 8331 266d F07E     		.sleb128 -144
 8332 266f 00       		.byte	0
 8333 2670 39       		.uleb128 0x39
 8334 2671 A8000000 		.4byte	.LVL25
 8335 2675 08390000 		.4byte	0x3908
 8336 2679 8B260000 		.4byte	0x268b
 8337 267d 35       		.uleb128 0x35
 8338 267e 01       		.uleb128 0x1
ARM GAS  C:\Users\IDONNO~1\AppData\Local\Temp\ccm1q34l.s 			page 148


 8339 267f 50       		.byte	0x50
 8340 2680 02       		.uleb128 0x2
 8341 2681 76       		.byte	0x76
 8342 2682 00       		.sleb128 0
 8343 2683 35       		.uleb128 0x35
 8344 2684 01       		.uleb128 0x1
 8345 2685 51       		.byte	0x51
 8346 2686 03       		.uleb128 0x3
 8347 2687 91       		.byte	0x91
 8348 2688 F07E     		.sleb128 -144
 8349 268a 00       		.byte	0
 8350 268b 39       		.uleb128 0x39
 8351 268c B0000000 		.4byte	.LVL26
 8352 2690 14390000 		.4byte	0x3914
 8353 2694 A6260000 		.4byte	0x26a6
 8354 2698 35       		.uleb128 0x35
 8355 2699 01       		.uleb128 0x1
 8356 269a 50       		.byte	0x50
 8357 269b 02       		.uleb128 0x2
 8358 269c 76       		.byte	0x76
 8359 269d 00       		.sleb128 0
 8360 269e 35       		.uleb128 0x35
 8361 269f 01       		.uleb128 0x1
 8362 26a0 51       		.byte	0x51
 8363 26a1 03       		.uleb128 0x3
 8364 26a2 91       		.byte	0x91
 8365 26a3 F07E     		.sleb128 -144
 8366 26a5 00       		.byte	0
 8367 26a6 39       		.uleb128 0x39
 8368 26a7 B8000000 		.4byte	.LVL27
 8369 26ab 20390000 		.4byte	0x3920
 8370 26af BF260000 		.4byte	0x26bf
 8371 26b3 35       		.uleb128 0x35
 8372 26b4 01       		.uleb128 0x1
 8373 26b5 50       		.byte	0x50
 8374 26b6 02       		.uleb128 0x2
 8375 26b7 76       		.byte	0x76
 8376 26b8 00       		.sleb128 0
 8377 26b9 35       		.uleb128 0x35
 8378 26ba 01       		.uleb128 0x1
 8379 26bb 51       		.byte	0x51
 8380 26bc 01       		.uleb128 0x1
 8381 26bd 38       		.byte	0x38
 8382 26be 00       		.byte	0
 8383 26bf 39       		.uleb128 0x39
 8384 26c0 C0000000 		.4byte	.LVL28
 8385 26c4 2C390000 		.4byte	0x392c
 8386 26c8 D8260000 		.4byte	0x26d8
 8387 26cc 35       		.uleb128 0x35
 8388 26cd 01       		.uleb128 0x1
 8389 26ce 50       		.byte	0x50
 8390 26cf 02       		.uleb128 0x2
 8391 26d0 76       		.byte	0x76
 8392 26d1 00       		.sleb128 0
 8393 26d2 35       		.uleb128 0x35
 8394 26d3 01       		.uleb128 0x1
 8395 26d4 51       		.byte	0x51
ARM GAS  C:\Users\IDONNO~1\AppData\Local\Temp\ccm1q34l.s 			page 149


 8396 26d5 01       		.uleb128 0x1
 8397 26d6 38       		.byte	0x38
 8398 26d7 00       		.byte	0
 8399 26d8 39       		.uleb128 0x39
 8400 26d9 C8000000 		.4byte	.LVL29
 8401 26dd 38390000 		.4byte	0x3938
 8402 26e1 F1260000 		.4byte	0x26f1
 8403 26e5 35       		.uleb128 0x35
 8404 26e6 01       		.uleb128 0x1
 8405 26e7 50       		.byte	0x50
 8406 26e8 02       		.uleb128 0x2
 8407 26e9 76       		.byte	0x76
 8408 26ea 00       		.sleb128 0
 8409 26eb 35       		.uleb128 0x35
 8410 26ec 01       		.uleb128 0x1
 8411 26ed 51       		.byte	0x51
 8412 26ee 01       		.uleb128 0x1
 8413 26ef 38       		.byte	0x38
 8414 26f0 00       		.byte	0
 8415 26f1 39       		.uleb128 0x39
 8416 26f2 D0000000 		.4byte	.LVL30
 8417 26f6 44390000 		.4byte	0x3944
 8418 26fa 0A270000 		.4byte	0x270a
 8419 26fe 35       		.uleb128 0x35
 8420 26ff 01       		.uleb128 0x1
 8421 2700 50       		.byte	0x50
 8422 2701 02       		.uleb128 0x2
 8423 2702 76       		.byte	0x76
 8424 2703 00       		.sleb128 0
 8425 2704 35       		.uleb128 0x35
 8426 2705 01       		.uleb128 0x1
 8427 2706 51       		.byte	0x51
 8428 2707 01       		.uleb128 0x1
 8429 2708 38       		.byte	0x38
 8430 2709 00       		.byte	0
 8431 270a 39       		.uleb128 0x39
 8432 270b FE000000 		.4byte	.LVL31
 8433 270f 50390000 		.4byte	0x3950
 8434 2713 25270000 		.4byte	0x2725
 8435 2717 35       		.uleb128 0x35
 8436 2718 01       		.uleb128 0x1
 8437 2719 50       		.byte	0x50
 8438 271a 02       		.uleb128 0x2
 8439 271b 76       		.byte	0x76
 8440 271c 00       		.sleb128 0
 8441 271d 35       		.uleb128 0x35
 8442 271e 01       		.uleb128 0x1
 8443 271f 51       		.byte	0x51
 8444 2720 03       		.uleb128 0x3
 8445 2721 91       		.byte	0x91
 8446 2722 D07E     		.sleb128 -176
 8447 2724 00       		.byte	0
 8448 2725 39       		.uleb128 0x39
 8449 2726 06010000 		.4byte	.LVL32
 8450 272a 5C390000 		.4byte	0x395c
 8451 272e 3F270000 		.4byte	0x273f
 8452 2732 35       		.uleb128 0x35
ARM GAS  C:\Users\IDONNO~1\AppData\Local\Temp\ccm1q34l.s 			page 150


 8453 2733 01       		.uleb128 0x1
 8454 2734 50       		.byte	0x50
 8455 2735 02       		.uleb128 0x2
 8456 2736 76       		.byte	0x76
 8457 2737 00       		.sleb128 0
 8458 2738 35       		.uleb128 0x35
 8459 2739 01       		.uleb128 0x1
 8460 273a 51       		.byte	0x51
 8461 273b 02       		.uleb128 0x2
 8462 273c 75       		.byte	0x75
 8463 273d 00       		.sleb128 0
 8464 273e 00       		.byte	0
 8465 273f 39       		.uleb128 0x39
 8466 2740 0E010000 		.4byte	.LVL33
 8467 2744 68390000 		.4byte	0x3968
 8468 2748 59270000 		.4byte	0x2759
 8469 274c 35       		.uleb128 0x35
 8470 274d 01       		.uleb128 0x1
 8471 274e 50       		.byte	0x50
 8472 274f 02       		.uleb128 0x2
 8473 2750 76       		.byte	0x76
 8474 2751 00       		.sleb128 0
 8475 2752 35       		.uleb128 0x35
 8476 2753 01       		.uleb128 0x1
 8477 2754 51       		.byte	0x51
 8478 2755 02       		.uleb128 0x2
 8479 2756 75       		.byte	0x75
 8480 2757 00       		.sleb128 0
 8481 2758 00       		.byte	0
 8482 2759 39       		.uleb128 0x39
 8483 275a 16010000 		.4byte	.LVL34
 8484 275e 74390000 		.4byte	0x3974
 8485 2762 76270000 		.4byte	0x2776
 8486 2766 35       		.uleb128 0x35
 8487 2767 01       		.uleb128 0x1
 8488 2768 50       		.byte	0x50
 8489 2769 05       		.uleb128 0x5
 8490 276a 0C       		.byte	0xc
 8491 276b 05004000 		.4byte	0x400005
 8492 276f 35       		.uleb128 0x35
 8493 2770 01       		.uleb128 0x1
 8494 2771 51       		.byte	0x51
 8495 2772 02       		.uleb128 0x2
 8496 2773 75       		.byte	0x75
 8497 2774 00       		.sleb128 0
 8498 2775 00       		.byte	0
 8499 2776 39       		.uleb128 0x39
 8500 2777 20010000 		.4byte	.LVL35
 8501 277b D8380000 		.4byte	0x38d8
 8502 277f 91270000 		.4byte	0x2791
 8503 2783 35       		.uleb128 0x35
 8504 2784 01       		.uleb128 0x1
 8505 2785 50       		.byte	0x50
 8506 2786 03       		.uleb128 0x3
 8507 2787 0A       		.byte	0xa
 8508 2788 0007     		.2byte	0x700
 8509 278a 35       		.uleb128 0x35
ARM GAS  C:\Users\IDONNO~1\AppData\Local\Temp\ccm1q34l.s 			page 151


 8510 278b 01       		.uleb128 0x1
 8511 278c 51       		.byte	0x51
 8512 278d 02       		.uleb128 0x2
 8513 278e 75       		.byte	0x75
 8514 278f 00       		.sleb128 0
 8515 2790 00       		.byte	0
 8516 2791 39       		.uleb128 0x39
 8517 2792 2C010000 		.4byte	.LVL36
 8518 2796 80390000 		.4byte	0x3980
 8519 279a B3270000 		.4byte	0x27b3
 8520 279e 35       		.uleb128 0x35
 8521 279f 01       		.uleb128 0x1
 8522 27a0 51       		.byte	0x51
 8523 27a1 01       		.uleb128 0x1
 8524 27a2 33       		.byte	0x33
 8525 27a3 35       		.uleb128 0x35
 8526 27a4 01       		.uleb128 0x1
 8527 27a5 52       		.byte	0x52
 8528 27a6 05       		.uleb128 0x5
 8529 27a7 03       		.byte	0x3
 8530 27a8 00000000 		.4byte	mcpwm_adc_int_handler
 8531 27ac 35       		.uleb128 0x35
 8532 27ad 01       		.uleb128 0x1
 8533 27ae 53       		.byte	0x53
 8534 27af 02       		.uleb128 0x2
 8535 27b0 74       		.byte	0x74
 8536 27b1 00       		.sleb128 0
 8537 27b2 00       		.byte	0
 8538 27b3 39       		.uleb128 0x39
 8539 27b4 74010000 		.4byte	.LVL37
 8540 27b8 8C390000 		.4byte	0x398c
 8541 27bc D1270000 		.4byte	0x27d1
 8542 27c0 35       		.uleb128 0x35
 8543 27c1 01       		.uleb128 0x1
 8544 27c2 50       		.byte	0x50
 8545 27c3 05       		.uleb128 0x5
 8546 27c4 0C       		.byte	0xc
 8547 27c5 70640240 		.4byte	0x40026470
 8548 27c9 35       		.uleb128 0x35
 8549 27ca 01       		.uleb128 0x1
 8550 27cb 51       		.byte	0x51
 8551 27cc 03       		.uleb128 0x3
 8552 27cd 91       		.byte	0x91
 8553 27ce 9C7F     		.sleb128 -100
 8554 27d0 00       		.byte	0
 8555 27d1 39       		.uleb128 0x39
 8556 27d2 7C010000 		.4byte	.LVL38
 8557 27d6 98390000 		.4byte	0x3998
 8558 27da EE270000 		.4byte	0x27ee
 8559 27de 35       		.uleb128 0x35
 8560 27df 01       		.uleb128 0x1
 8561 27e0 50       		.byte	0x50
 8562 27e1 05       		.uleb128 0x5
 8563 27e2 0C       		.byte	0xc
 8564 27e3 70640240 		.4byte	0x40026470
 8565 27e7 35       		.uleb128 0x35
 8566 27e8 01       		.uleb128 0x1
ARM GAS  C:\Users\IDONNO~1\AppData\Local\Temp\ccm1q34l.s 			page 152


 8567 27e9 51       		.byte	0x51
 8568 27ea 02       		.uleb128 0x2
 8569 27eb 75       		.byte	0x75
 8570 27ec 00       		.sleb128 0
 8571 27ed 00       		.byte	0
 8572 27ee 39       		.uleb128 0x39
 8573 27ef 86010000 		.4byte	.LVL39
 8574 27f3 A4390000 		.4byte	0x39a4
 8575 27f7 10280000 		.4byte	0x2810
 8576 27fb 35       		.uleb128 0x35
 8577 27fc 01       		.uleb128 0x1
 8578 27fd 50       		.byte	0x50
 8579 27fe 05       		.uleb128 0x5
 8580 27ff 0C       		.byte	0xc
 8581 2800 70640240 		.4byte	0x40026470
 8582 2804 35       		.uleb128 0x35
 8583 2805 01       		.uleb128 0x1
 8584 2806 51       		.byte	0x51
 8585 2807 01       		.uleb128 0x1
 8586 2808 40       		.byte	0x40
 8587 2809 35       		.uleb128 0x35
 8588 280a 01       		.uleb128 0x1
 8589 280b 52       		.byte	0x52
 8590 280c 02       		.uleb128 0x2
 8591 280d 75       		.byte	0x75
 8592 280e 00       		.sleb128 0
 8593 280f 00       		.byte	0
 8594 2810 39       		.uleb128 0x39
 8595 2811 9A010000 		.4byte	.LVL40
 8596 2815 B0390000 		.4byte	0x39b0
 8597 2819 25280000 		.4byte	0x2825
 8598 281d 35       		.uleb128 0x35
 8599 281e 01       		.uleb128 0x1
 8600 281f 50       		.byte	0x50
 8601 2820 03       		.uleb128 0x3
 8602 2821 91       		.byte	0x91
 8603 2822 E07E     		.sleb128 -160
 8604 2824 00       		.byte	0
 8605 2825 39       		.uleb128 0x39
 8606 2826 BE010000 		.4byte	.LVL41
 8607 282a BC390000 		.4byte	0x39bc
 8608 282e 43280000 		.4byte	0x2843
 8609 2832 35       		.uleb128 0x35
 8610 2833 01       		.uleb128 0x1
 8611 2834 50       		.byte	0x50
 8612 2835 05       		.uleb128 0x5
 8613 2836 0C       		.byte	0xc
 8614 2837 00200140 		.4byte	0x40012000
 8615 283b 35       		.uleb128 0x35
 8616 283c 01       		.uleb128 0x1
 8617 283d 51       		.byte	0x51
 8618 283e 03       		.uleb128 0x3
 8619 283f 91       		.byte	0x91
 8620 2840 847F     		.sleb128 -124
 8621 2842 00       		.byte	0
 8622 2843 39       		.uleb128 0x39
 8623 2844 CA010000 		.4byte	.LVL42
ARM GAS  C:\Users\IDONNO~1\AppData\Local\Temp\ccm1q34l.s 			page 153


 8624 2848 BC390000 		.4byte	0x39bc
 8625 284c 61280000 		.4byte	0x2861
 8626 2850 35       		.uleb128 0x35
 8627 2851 01       		.uleb128 0x1
 8628 2852 50       		.byte	0x50
 8629 2853 05       		.uleb128 0x5
 8630 2854 0C       		.byte	0xc
 8631 2855 00210140 		.4byte	0x40012100
 8632 2859 35       		.uleb128 0x35
 8633 285a 01       		.uleb128 0x1
 8634 285b 51       		.byte	0x51
 8635 285c 03       		.uleb128 0x3
 8636 285d 91       		.byte	0x91
 8637 285e 847F     		.sleb128 -124
 8638 2860 00       		.byte	0
 8639 2861 39       		.uleb128 0x39
 8640 2862 D2010000 		.4byte	.LVL43
 8641 2866 BC390000 		.4byte	0x39bc
 8642 286a 7F280000 		.4byte	0x287f
 8643 286e 35       		.uleb128 0x35
 8644 286f 01       		.uleb128 0x1
 8645 2870 50       		.byte	0x50
 8646 2871 05       		.uleb128 0x5
 8647 2872 0C       		.byte	0xc
 8648 2873 00220140 		.4byte	0x40012200
 8649 2877 35       		.uleb128 0x35
 8650 2878 01       		.uleb128 0x1
 8651 2879 51       		.byte	0x51
 8652 287a 03       		.uleb128 0x3
 8653 287b 91       		.byte	0x91
 8654 287c 847F     		.sleb128 -124
 8655 287e 00       		.byte	0
 8656 287f 46       		.uleb128 0x46
 8657 2880 D6010000 		.4byte	.LVL44
 8658 2884 C8390000 		.4byte	0x39c8
 8659 2888 39       		.uleb128 0x39
 8660 2889 DC010000 		.4byte	.LVL45
 8661 288d D3390000 		.4byte	0x39d3
 8662 2891 9C280000 		.4byte	0x289c
 8663 2895 35       		.uleb128 0x35
 8664 2896 01       		.uleb128 0x1
 8665 2897 50       		.byte	0x50
 8666 2898 02       		.uleb128 0x2
 8667 2899 75       		.byte	0x75
 8668 289a 00       		.sleb128 0
 8669 289b 00       		.byte	0
 8670 289c 39       		.uleb128 0x39
 8671 289d E6010000 		.4byte	.LVL46
 8672 28a1 DF390000 		.4byte	0x39df
 8673 28a5 BA280000 		.4byte	0x28ba
 8674 28a9 35       		.uleb128 0x35
 8675 28aa 01       		.uleb128 0x1
 8676 28ab 50       		.byte	0x50
 8677 28ac 05       		.uleb128 0x5
 8678 28ad 0C       		.byte	0xc
 8679 28ae 00200140 		.4byte	0x40012000
 8680 28b2 35       		.uleb128 0x35
ARM GAS  C:\Users\IDONNO~1\AppData\Local\Temp\ccm1q34l.s 			page 154


 8681 28b3 01       		.uleb128 0x1
 8682 28b4 51       		.byte	0x51
 8683 28b5 03       		.uleb128 0x3
 8684 28b6 48       		.byte	0x48
 8685 28b7 3F       		.byte	0x3f
 8686 28b8 24       		.byte	0x24
 8687 28b9 00       		.byte	0
 8688 28ba 39       		.uleb128 0x39
 8689 28bb F0010000 		.4byte	.LVL47
 8690 28bf DF390000 		.4byte	0x39df
 8691 28c3 D8280000 		.4byte	0x28d8
 8692 28c7 35       		.uleb128 0x35
 8693 28c8 01       		.uleb128 0x1
 8694 28c9 50       		.byte	0x50
 8695 28ca 05       		.uleb128 0x5
 8696 28cb 0C       		.byte	0xc
 8697 28cc 00210140 		.4byte	0x40012100
 8698 28d0 35       		.uleb128 0x35
 8699 28d1 01       		.uleb128 0x1
 8700 28d2 51       		.byte	0x51
 8701 28d3 03       		.uleb128 0x3
 8702 28d4 4A       		.byte	0x4a
 8703 28d5 3F       		.byte	0x3f
 8704 28d6 24       		.byte	0x24
 8705 28d7 00       		.byte	0
 8706 28d8 39       		.uleb128 0x39
 8707 28d9 FA010000 		.4byte	.LVL48
 8708 28dd EB390000 		.4byte	0x39eb
 8709 28e1 F6280000 		.4byte	0x28f6
 8710 28e5 35       		.uleb128 0x35
 8711 28e6 01       		.uleb128 0x1
 8712 28e7 50       		.byte	0x50
 8713 28e8 05       		.uleb128 0x5
 8714 28e9 0C       		.byte	0xc
 8715 28ea 00200140 		.4byte	0x40012000
 8716 28ee 35       		.uleb128 0x35
 8717 28ef 01       		.uleb128 0x1
 8718 28f0 51       		.byte	0x51
 8719 28f1 03       		.uleb128 0x3
 8720 28f2 40       		.byte	0x40
 8721 28f3 41       		.byte	0x41
 8722 28f4 24       		.byte	0x24
 8723 28f5 00       		.byte	0
 8724 28f6 39       		.uleb128 0x39
 8725 28f7 04020000 		.4byte	.LVL49
 8726 28fb EB390000 		.4byte	0x39eb
 8727 28ff 14290000 		.4byte	0x2914
 8728 2903 35       		.uleb128 0x35
 8729 2904 01       		.uleb128 0x1
 8730 2905 50       		.byte	0x50
 8731 2906 05       		.uleb128 0x5
 8732 2907 0C       		.byte	0xc
 8733 2908 00210140 		.4byte	0x40012100
 8734 290c 35       		.uleb128 0x35
 8735 290d 01       		.uleb128 0x1
 8736 290e 51       		.byte	0x51
 8737 290f 03       		.uleb128 0x3
ARM GAS  C:\Users\IDONNO~1\AppData\Local\Temp\ccm1q34l.s 			page 155


 8738 2910 40       		.byte	0x40
 8739 2911 41       		.byte	0x41
 8740 2912 24       		.byte	0x24
 8741 2913 00       		.byte	0
 8742 2914 39       		.uleb128 0x39
 8743 2915 0C020000 		.4byte	.LVL50
 8744 2919 F7390000 		.4byte	0x39f7
 8745 291d 31290000 		.4byte	0x2931
 8746 2921 35       		.uleb128 0x35
 8747 2922 01       		.uleb128 0x1
 8748 2923 50       		.byte	0x50
 8749 2924 05       		.uleb128 0x5
 8750 2925 0C       		.byte	0xc
 8751 2926 00200140 		.4byte	0x40012000
 8752 292a 35       		.uleb128 0x35
 8753 292b 01       		.uleb128 0x1
 8754 292c 51       		.byte	0x51
 8755 292d 02       		.uleb128 0x2
 8756 292e 75       		.byte	0x75
 8757 292f 00       		.sleb128 0
 8758 2930 00       		.byte	0
 8759 2931 39       		.uleb128 0x39
 8760 2932 14020000 		.4byte	.LVL51
 8761 2936 F7390000 		.4byte	0x39f7
 8762 293a 4E290000 		.4byte	0x294e
 8763 293e 35       		.uleb128 0x35
 8764 293f 01       		.uleb128 0x1
 8765 2940 50       		.byte	0x50
 8766 2941 05       		.uleb128 0x5
 8767 2942 0C       		.byte	0xc
 8768 2943 00210140 		.4byte	0x40012100
 8769 2947 35       		.uleb128 0x35
 8770 2948 01       		.uleb128 0x1
 8771 2949 51       		.byte	0x51
 8772 294a 02       		.uleb128 0x2
 8773 294b 75       		.byte	0x75
 8774 294c 00       		.sleb128 0
 8775 294d 00       		.byte	0
 8776 294e 39       		.uleb128 0x39
 8777 294f 20020000 		.4byte	.LVL52
 8778 2953 033A0000 		.4byte	0x3a03
 8779 2957 72290000 		.4byte	0x2972
 8780 295b 35       		.uleb128 0x35
 8781 295c 01       		.uleb128 0x1
 8782 295d 50       		.byte	0x50
 8783 295e 05       		.uleb128 0x5
 8784 295f 0C       		.byte	0xc
 8785 2960 00200140 		.4byte	0x40012000
 8786 2964 35       		.uleb128 0x35
 8787 2965 01       		.uleb128 0x1
 8788 2966 51       		.byte	0x51
 8789 2967 03       		.uleb128 0x3
 8790 2968 0A       		.byte	0xa
 8791 2969 0704     		.2byte	0x407
 8792 296b 35       		.uleb128 0x35
 8793 296c 01       		.uleb128 0x1
 8794 296d 52       		.byte	0x52
ARM GAS  C:\Users\IDONNO~1\AppData\Local\Temp\ccm1q34l.s 			page 156


 8795 296e 02       		.uleb128 0x2
 8796 296f 75       		.byte	0x75
 8797 2970 00       		.sleb128 0
 8798 2971 00       		.byte	0
 8799 2972 39       		.uleb128 0x39
 8800 2973 3A020000 		.4byte	.LVL53
 8801 2977 0F3A0000 		.4byte	0x3a0f
 8802 297b 86290000 		.4byte	0x2986
 8803 297f 35       		.uleb128 0x35
 8804 2980 01       		.uleb128 0x1
 8805 2981 50       		.byte	0x50
 8806 2982 02       		.uleb128 0x2
 8807 2983 7D       		.byte	0x7d
 8808 2984 00       		.sleb128 0
 8809 2985 00       		.byte	0
 8810 2986 39       		.uleb128 0x39
 8811 2987 42020000 		.4byte	.LVL54
 8812 298b 1A3A0000 		.4byte	0x3a1a
 8813 298f A3290000 		.4byte	0x29a3
 8814 2993 35       		.uleb128 0x35
 8815 2994 01       		.uleb128 0x1
 8816 2995 50       		.byte	0x50
 8817 2996 05       		.uleb128 0x5
 8818 2997 0C       		.byte	0xc
 8819 2998 00200140 		.4byte	0x40012000
 8820 299c 35       		.uleb128 0x35
 8821 299d 01       		.uleb128 0x1
 8822 299e 51       		.byte	0x51
 8823 299f 02       		.uleb128 0x2
 8824 29a0 75       		.byte	0x75
 8825 29a1 00       		.sleb128 0
 8826 29a2 00       		.byte	0
 8827 29a3 39       		.uleb128 0x39
 8828 29a4 4A020000 		.4byte	.LVL55
 8829 29a8 1A3A0000 		.4byte	0x3a1a
 8830 29ac C0290000 		.4byte	0x29c0
 8831 29b0 35       		.uleb128 0x35
 8832 29b1 01       		.uleb128 0x1
 8833 29b2 50       		.byte	0x50
 8834 29b3 05       		.uleb128 0x5
 8835 29b4 0C       		.byte	0xc
 8836 29b5 00210140 		.4byte	0x40012100
 8837 29b9 35       		.uleb128 0x35
 8838 29ba 01       		.uleb128 0x1
 8839 29bb 51       		.byte	0x51
 8840 29bc 02       		.uleb128 0x2
 8841 29bd 75       		.byte	0x75
 8842 29be 00       		.sleb128 0
 8843 29bf 00       		.byte	0
 8844 29c0 39       		.uleb128 0x39
 8845 29c1 52020000 		.4byte	.LVL56
 8846 29c5 1A3A0000 		.4byte	0x3a1a
 8847 29c9 DD290000 		.4byte	0x29dd
 8848 29cd 35       		.uleb128 0x35
 8849 29ce 01       		.uleb128 0x1
 8850 29cf 50       		.byte	0x50
 8851 29d0 05       		.uleb128 0x5
ARM GAS  C:\Users\IDONNO~1\AppData\Local\Temp\ccm1q34l.s 			page 157


 8852 29d1 0C       		.byte	0xc
 8853 29d2 00220140 		.4byte	0x40012200
 8854 29d6 35       		.uleb128 0x35
 8855 29d7 01       		.uleb128 0x1
 8856 29d8 51       		.byte	0x51
 8857 29d9 02       		.uleb128 0x2
 8858 29da 75       		.byte	0x75
 8859 29db 00       		.sleb128 0
 8860 29dc 00       		.byte	0
 8861 29dd 39       		.uleb128 0x39
 8862 29de 5A020000 		.4byte	.LVL57
 8863 29e2 D8380000 		.4byte	0x38d8
 8864 29e6 F6290000 		.4byte	0x29f6
 8865 29ea 35       		.uleb128 0x35
 8866 29eb 01       		.uleb128 0x1
 8867 29ec 50       		.byte	0x50
 8868 29ed 01       		.uleb128 0x1
 8869 29ee 32       		.byte	0x32
 8870 29ef 35       		.uleb128 0x35
 8871 29f0 01       		.uleb128 0x1
 8872 29f1 51       		.byte	0x51
 8873 29f2 02       		.uleb128 0x2
 8874 29f3 75       		.byte	0x75
 8875 29f4 00       		.sleb128 0
 8876 29f5 00       		.byte	0
 8877 29f6 39       		.uleb128 0x39
 8878 29f7 80020000 		.4byte	.LVL58
 8879 29fb E4380000 		.4byte	0x38e4
 8880 29ff 162A0000 		.4byte	0x2a16
 8881 2a03 35       		.uleb128 0x35
 8882 2a04 01       		.uleb128 0x1
 8883 2a05 50       		.byte	0x50
 8884 2a06 02       		.uleb128 0x2
 8885 2a07 77       		.byte	0x77
 8886 2a08 00       		.sleb128 0
 8887 2a09 35       		.uleb128 0x35
 8888 2a0a 01       		.uleb128 0x1
 8889 2a0b 51       		.byte	0x51
 8890 2a0c 08       		.uleb128 0x8
 8891 2a0d 91       		.byte	0x91
 8892 2a0e 00       		.sleb128 0
 8893 2a0f 79       		.byte	0x79
 8894 2a10 00       		.sleb128 0
 8895 2a11 22       		.byte	0x22
 8896 2a12 08       		.byte	0x8
 8897 2a13 C0       		.byte	0xc0
 8898 2a14 1C       		.byte	0x1c
 8899 2a15 00       		.byte	0
 8900 2a16 39       		.uleb128 0x39
 8901 2a17 AC020000 		.4byte	.LVL59
 8902 2a1b F0380000 		.4byte	0x38f0
 8903 2a1f 312A0000 		.4byte	0x2a31
 8904 2a23 35       		.uleb128 0x35
 8905 2a24 01       		.uleb128 0x1
 8906 2a25 50       		.byte	0x50
 8907 2a26 02       		.uleb128 0x2
 8908 2a27 77       		.byte	0x77
ARM GAS  C:\Users\IDONNO~1\AppData\Local\Temp\ccm1q34l.s 			page 158


 8909 2a28 00       		.sleb128 0
 8910 2a29 35       		.uleb128 0x35
 8911 2a2a 01       		.uleb128 0x1
 8912 2a2b 51       		.byte	0x51
 8913 2a2c 03       		.uleb128 0x3
 8914 2a2d 91       		.byte	0x91
 8915 2a2e F07E     		.sleb128 -144
 8916 2a30 00       		.byte	0
 8917 2a31 39       		.uleb128 0x39
 8918 2a32 B4020000 		.4byte	.LVL60
 8919 2a36 20390000 		.4byte	0x3920
 8920 2a3a 4A2A0000 		.4byte	0x2a4a
 8921 2a3e 35       		.uleb128 0x35
 8922 2a3f 01       		.uleb128 0x1
 8923 2a40 50       		.byte	0x50
 8924 2a41 02       		.uleb128 0x2
 8925 2a42 77       		.byte	0x77
 8926 2a43 00       		.sleb128 0
 8927 2a44 35       		.uleb128 0x35
 8928 2a45 01       		.uleb128 0x1
 8929 2a46 51       		.byte	0x51
 8930 2a47 01       		.uleb128 0x1
 8931 2a48 38       		.byte	0x38
 8932 2a49 00       		.byte	0
 8933 2a4a 39       		.uleb128 0x39
 8934 2a4b BC020000 		.4byte	.LVL61
 8935 2a4f FC380000 		.4byte	0x38fc
 8936 2a53 652A0000 		.4byte	0x2a65
 8937 2a57 35       		.uleb128 0x35
 8938 2a58 01       		.uleb128 0x1
 8939 2a59 50       		.byte	0x50
 8940 2a5a 02       		.uleb128 0x2
 8941 2a5b 77       		.byte	0x77
 8942 2a5c 00       		.sleb128 0
 8943 2a5d 35       		.uleb128 0x35
 8944 2a5e 01       		.uleb128 0x1
 8945 2a5f 51       		.byte	0x51
 8946 2a60 03       		.uleb128 0x3
 8947 2a61 91       		.byte	0x91
 8948 2a62 F07E     		.sleb128 -144
 8949 2a64 00       		.byte	0
 8950 2a65 39       		.uleb128 0x39
 8951 2a66 C4020000 		.4byte	.LVL62
 8952 2a6a 2C390000 		.4byte	0x392c
 8953 2a6e 7E2A0000 		.4byte	0x2a7e
 8954 2a72 35       		.uleb128 0x35
 8955 2a73 01       		.uleb128 0x1
 8956 2a74 50       		.byte	0x50
 8957 2a75 02       		.uleb128 0x2
 8958 2a76 77       		.byte	0x77
 8959 2a77 00       		.sleb128 0
 8960 2a78 35       		.uleb128 0x35
 8961 2a79 01       		.uleb128 0x1
 8962 2a7a 51       		.byte	0x51
 8963 2a7b 01       		.uleb128 0x1
 8964 2a7c 38       		.byte	0x38
 8965 2a7d 00       		.byte	0
ARM GAS  C:\Users\IDONNO~1\AppData\Local\Temp\ccm1q34l.s 			page 159


 8966 2a7e 39       		.uleb128 0x39
 8967 2a7f CC020000 		.4byte	.LVL63
 8968 2a83 08390000 		.4byte	0x3908
 8969 2a87 992A0000 		.4byte	0x2a99
 8970 2a8b 35       		.uleb128 0x35
 8971 2a8c 01       		.uleb128 0x1
 8972 2a8d 50       		.byte	0x50
 8973 2a8e 02       		.uleb128 0x2
 8974 2a8f 77       		.byte	0x77
 8975 2a90 00       		.sleb128 0
 8976 2a91 35       		.uleb128 0x35
 8977 2a92 01       		.uleb128 0x1
 8978 2a93 51       		.byte	0x51
 8979 2a94 03       		.uleb128 0x3
 8980 2a95 91       		.byte	0x91
 8981 2a96 F07E     		.sleb128 -144
 8982 2a98 00       		.byte	0
 8983 2a99 39       		.uleb128 0x39
 8984 2a9a D4020000 		.4byte	.LVL64
 8985 2a9e 38390000 		.4byte	0x3938
 8986 2aa2 B22A0000 		.4byte	0x2ab2
 8987 2aa6 35       		.uleb128 0x35
 8988 2aa7 01       		.uleb128 0x1
 8989 2aa8 50       		.byte	0x50
 8990 2aa9 02       		.uleb128 0x2
 8991 2aaa 77       		.byte	0x77
 8992 2aab 00       		.sleb128 0
 8993 2aac 35       		.uleb128 0x35
 8994 2aad 01       		.uleb128 0x1
 8995 2aae 51       		.byte	0x51
 8996 2aaf 01       		.uleb128 0x1
 8997 2ab0 38       		.byte	0x38
 8998 2ab1 00       		.byte	0
 8999 2ab2 39       		.uleb128 0x39
 9000 2ab3 DC020000 		.4byte	.LVL65
 9001 2ab7 68390000 		.4byte	0x3968
 9002 2abb CC2A0000 		.4byte	0x2acc
 9003 2abf 35       		.uleb128 0x35
 9004 2ac0 01       		.uleb128 0x1
 9005 2ac1 50       		.byte	0x50
 9006 2ac2 02       		.uleb128 0x2
 9007 2ac3 77       		.byte	0x77
 9008 2ac4 00       		.sleb128 0
 9009 2ac5 35       		.uleb128 0x35
 9010 2ac6 01       		.uleb128 0x1
 9011 2ac7 51       		.byte	0x51
 9012 2ac8 02       		.uleb128 0x2
 9013 2ac9 75       		.byte	0x75
 9014 2aca 00       		.sleb128 0
 9015 2acb 00       		.byte	0
 9016 2acc 39       		.uleb128 0x39
 9017 2acd E4020000 		.4byte	.LVL66
 9018 2ad1 5C390000 		.4byte	0x395c
 9019 2ad5 E62A0000 		.4byte	0x2ae6
 9020 2ad9 35       		.uleb128 0x35
 9021 2ada 01       		.uleb128 0x1
 9022 2adb 50       		.byte	0x50
ARM GAS  C:\Users\IDONNO~1\AppData\Local\Temp\ccm1q34l.s 			page 160


 9023 2adc 02       		.uleb128 0x2
 9024 2add 77       		.byte	0x77
 9025 2ade 00       		.sleb128 0
 9026 2adf 35       		.uleb128 0x35
 9027 2ae0 01       		.uleb128 0x1
 9028 2ae1 51       		.byte	0x51
 9029 2ae2 02       		.uleb128 0x2
 9030 2ae3 75       		.byte	0x75
 9031 2ae4 00       		.sleb128 0
 9032 2ae5 00       		.byte	0
 9033 2ae6 39       		.uleb128 0x39
 9034 2ae7 EC020000 		.4byte	.LVL67
 9035 2aeb 263A0000 		.4byte	0x3a26
 9036 2aef 002B0000 		.4byte	0x2b00
 9037 2af3 35       		.uleb128 0x35
 9038 2af4 01       		.uleb128 0x1
 9039 2af5 50       		.byte	0x50
 9040 2af6 02       		.uleb128 0x2
 9041 2af7 77       		.byte	0x77
 9042 2af8 00       		.sleb128 0
 9043 2af9 35       		.uleb128 0x35
 9044 2afa 01       		.uleb128 0x1
 9045 2afb 51       		.byte	0x51
 9046 2afc 02       		.uleb128 0x2
 9047 2afd 75       		.byte	0x75
 9048 2afe 00       		.sleb128 0
 9049 2aff 00       		.byte	0
 9050 2b00 39       		.uleb128 0x39
 9051 2b01 F4020000 		.4byte	.LVL68
 9052 2b05 323A0000 		.4byte	0x3a32
 9053 2b09 1A2B0000 		.4byte	0x2b1a
 9054 2b0d 35       		.uleb128 0x35
 9055 2b0e 01       		.uleb128 0x1
 9056 2b0f 50       		.byte	0x50
 9057 2b10 02       		.uleb128 0x2
 9058 2b11 76       		.byte	0x76
 9059 2b12 00       		.sleb128 0
 9060 2b13 35       		.uleb128 0x35
 9061 2b14 01       		.uleb128 0x1
 9062 2b15 51       		.byte	0x51
 9063 2b16 02       		.uleb128 0x2
 9064 2b17 08       		.byte	0x8
 9065 2b18 20       		.byte	0x20
 9066 2b19 00       		.byte	0
 9067 2b1a 39       		.uleb128 0x39
 9068 2b1b FC020000 		.4byte	.LVL69
 9069 2b1f 3E3A0000 		.4byte	0x3a3e
 9070 2b23 342B0000 		.4byte	0x2b34
 9071 2b27 35       		.uleb128 0x35
 9072 2b28 01       		.uleb128 0x1
 9073 2b29 50       		.byte	0x50
 9074 2b2a 02       		.uleb128 0x2
 9075 2b2b 76       		.byte	0x76
 9076 2b2c 00       		.sleb128 0
 9077 2b2d 35       		.uleb128 0x35
 9078 2b2e 01       		.uleb128 0x1
 9079 2b2f 51       		.byte	0x51
ARM GAS  C:\Users\IDONNO~1\AppData\Local\Temp\ccm1q34l.s 			page 161


 9080 2b30 02       		.uleb128 0x2
 9081 2b31 08       		.byte	0x8
 9082 2b32 80       		.byte	0x80
 9083 2b33 00       		.byte	0
 9084 2b34 39       		.uleb128 0x39
 9085 2b35 04030000 		.4byte	.LVL70
 9086 2b39 4A3A0000 		.4byte	0x3a4a
 9087 2b3d 4E2B0000 		.4byte	0x2b4e
 9088 2b41 35       		.uleb128 0x35
 9089 2b42 01       		.uleb128 0x1
 9090 2b43 50       		.byte	0x50
 9091 2b44 02       		.uleb128 0x2
 9092 2b45 77       		.byte	0x77
 9093 2b46 00       		.sleb128 0
 9094 2b47 35       		.uleb128 0x35
 9095 2b48 01       		.uleb128 0x1
 9096 2b49 51       		.byte	0x51
 9097 2b4a 02       		.uleb128 0x2
 9098 2b4b 74       		.byte	0x74
 9099 2b4c 00       		.sleb128 0
 9100 2b4d 00       		.byte	0
 9101 2b4e 39       		.uleb128 0x39
 9102 2b4f 0C030000 		.4byte	.LVL71
 9103 2b53 563A0000 		.4byte	0x3a56
 9104 2b57 682B0000 		.4byte	0x2b68
 9105 2b5b 35       		.uleb128 0x35
 9106 2b5c 01       		.uleb128 0x1
 9107 2b5d 50       		.byte	0x50
 9108 2b5e 02       		.uleb128 0x2
 9109 2b5f 77       		.byte	0x77
 9110 2b60 00       		.sleb128 0
 9111 2b61 35       		.uleb128 0x35
 9112 2b62 01       		.uleb128 0x1
 9113 2b63 51       		.byte	0x51
 9114 2b64 02       		.uleb128 0x2
 9115 2b65 79       		.byte	0x79
 9116 2b66 00       		.sleb128 0
 9117 2b67 00       		.byte	0
 9118 2b68 39       		.uleb128 0x39
 9119 2b69 14030000 		.4byte	.LVL72
 9120 2b6d 623A0000 		.4byte	0x3a62
 9121 2b71 822B0000 		.4byte	0x2b82
 9122 2b75 35       		.uleb128 0x35
 9123 2b76 01       		.uleb128 0x1
 9124 2b77 50       		.byte	0x50
 9125 2b78 02       		.uleb128 0x2
 9126 2b79 77       		.byte	0x77
 9127 2b7a 00       		.sleb128 0
 9128 2b7b 35       		.uleb128 0x35
 9129 2b7c 01       		.uleb128 0x1
 9130 2b7d 51       		.byte	0x51
 9131 2b7e 02       		.uleb128 0x2
 9132 2b7f 75       		.byte	0x75
 9133 2b80 00       		.sleb128 0
 9134 2b81 00       		.byte	0
 9135 2b82 39       		.uleb128 0x39
 9136 2b83 1C030000 		.4byte	.LVL73
ARM GAS  C:\Users\IDONNO~1\AppData\Local\Temp\ccm1q34l.s 			page 162


 9137 2b87 623A0000 		.4byte	0x3a62
 9138 2b8b 9C2B0000 		.4byte	0x2b9c
 9139 2b8f 35       		.uleb128 0x35
 9140 2b90 01       		.uleb128 0x1
 9141 2b91 50       		.byte	0x50
 9142 2b92 02       		.uleb128 0x2
 9143 2b93 76       		.byte	0x76
 9144 2b94 00       		.sleb128 0
 9145 2b95 35       		.uleb128 0x35
 9146 2b96 01       		.uleb128 0x1
 9147 2b97 51       		.byte	0x51
 9148 2b98 02       		.uleb128 0x2
 9149 2b99 75       		.byte	0x75
 9150 2b9a 00       		.sleb128 0
 9151 2b9b 00       		.byte	0
 9152 2b9c 39       		.uleb128 0x39
 9153 2b9d 24030000 		.4byte	.LVL74
 9154 2ba1 263A0000 		.4byte	0x3a26
 9155 2ba5 B62B0000 		.4byte	0x2bb6
 9156 2ba9 35       		.uleb128 0x35
 9157 2baa 01       		.uleb128 0x1
 9158 2bab 50       		.byte	0x50
 9159 2bac 02       		.uleb128 0x2
 9160 2bad 76       		.byte	0x76
 9161 2bae 00       		.sleb128 0
 9162 2baf 35       		.uleb128 0x35
 9163 2bb0 01       		.uleb128 0x1
 9164 2bb1 51       		.byte	0x51
 9165 2bb2 02       		.uleb128 0x2
 9166 2bb3 75       		.byte	0x75
 9167 2bb4 00       		.sleb128 0
 9168 2bb5 00       		.byte	0
 9169 2bb6 39       		.uleb128 0x39
 9170 2bb7 2C030000 		.4byte	.LVL75
 9171 2bbb 6E3A0000 		.4byte	0x3a6e
 9172 2bbf D02B0000 		.4byte	0x2bd0
 9173 2bc3 35       		.uleb128 0x35
 9174 2bc4 01       		.uleb128 0x1
 9175 2bc5 50       		.byte	0x50
 9176 2bc6 02       		.uleb128 0x2
 9177 2bc7 75       		.byte	0x75
 9178 2bc8 00       		.sleb128 0
 9179 2bc9 35       		.uleb128 0x35
 9180 2bca 01       		.uleb128 0x1
 9181 2bcb 51       		.byte	0x51
 9182 2bcc 02       		.uleb128 0x2
 9183 2bcd 75       		.byte	0x75
 9184 2bce 00       		.sleb128 0
 9185 2bcf 00       		.byte	0
 9186 2bd0 39       		.uleb128 0x39
 9187 2bd1 4C030000 		.4byte	.LVL76
 9188 2bd5 E4380000 		.4byte	0x38e4
 9189 2bd9 F12B0000 		.4byte	0x2bf1
 9190 2bdd 35       		.uleb128 0x35
 9191 2bde 01       		.uleb128 0x1
 9192 2bdf 50       		.byte	0x50
 9193 2be0 03       		.uleb128 0x3
ARM GAS  C:\Users\IDONNO~1\AppData\Local\Temp\ccm1q34l.s 			page 163


 9194 2be1 40       		.byte	0x40
 9195 2be2 4A       		.byte	0x4a
 9196 2be3 24       		.byte	0x24
 9197 2be4 35       		.uleb128 0x35
 9198 2be5 01       		.uleb128 0x1
 9199 2be6 51       		.byte	0x51
 9200 2be7 08       		.uleb128 0x8
 9201 2be8 91       		.byte	0x91
 9202 2be9 00       		.sleb128 0
 9203 2bea 79       		.byte	0x79
 9204 2beb 00       		.sleb128 0
 9205 2bec 22       		.byte	0x22
 9206 2bed 08       		.byte	0x8
 9207 2bee C0       		.byte	0xc0
 9208 2bef 1C       		.byte	0x1c
 9209 2bf0 00       		.byte	0
 9210 2bf1 39       		.uleb128 0x39
 9211 2bf2 56030000 		.4byte	.LVL77
 9212 2bf6 623A0000 		.4byte	0x3a62
 9213 2bfa 0C2C0000 		.4byte	0x2c0c
 9214 2bfe 35       		.uleb128 0x35
 9215 2bff 01       		.uleb128 0x1
 9216 2c00 50       		.byte	0x50
 9217 2c01 03       		.uleb128 0x3
 9218 2c02 40       		.byte	0x40
 9219 2c03 4A       		.byte	0x4a
 9220 2c04 24       		.byte	0x24
 9221 2c05 35       		.uleb128 0x35
 9222 2c06 01       		.uleb128 0x1
 9223 2c07 51       		.byte	0x51
 9224 2c08 02       		.uleb128 0x2
 9225 2c09 75       		.byte	0x75
 9226 2c0a 00       		.sleb128 0
 9227 2c0b 00       		.byte	0
 9228 2c0c 46       		.uleb128 0x46
 9229 2c0d 5A030000 		.4byte	.LVL78
 9230 2c11 C1380000 		.4byte	0x38c1
 9231 2c15 46       		.uleb128 0x46
 9232 2c16 D0030000 		.4byte	.LVL79
 9233 2c1a 7A3A0000 		.4byte	0x3a7a
 9234 2c1e 39       		.uleb128 0x39
 9235 2c1f 36040000 		.4byte	.LVL81
 9236 2c23 6E3A0000 		.4byte	0x3a6e
 9237 2c27 382C0000 		.4byte	0x2c38
 9238 2c2b 35       		.uleb128 0x35
 9239 2c2c 01       		.uleb128 0x1
 9240 2c2d 50       		.byte	0x50
 9241 2c2e 02       		.uleb128 0x2
 9242 2c2f 08       		.byte	0x8
 9243 2c30 40       		.byte	0x40
 9244 2c31 35       		.uleb128 0x35
 9245 2c32 01       		.uleb128 0x1
 9246 2c33 51       		.byte	0x51
 9247 2c34 02       		.uleb128 0x2
 9248 2c35 75       		.byte	0x75
 9249 2c36 00       		.sleb128 0
 9250 2c37 00       		.byte	0
ARM GAS  C:\Users\IDONNO~1\AppData\Local\Temp\ccm1q34l.s 			page 164


 9251 2c38 39       		.uleb128 0x39
 9252 2c39 52040000 		.4byte	.LVL82
 9253 2c3d E4380000 		.4byte	0x38e4
 9254 2c41 562C0000 		.4byte	0x2c56
 9255 2c45 35       		.uleb128 0x35
 9256 2c46 01       		.uleb128 0x1
 9257 2c47 50       		.byte	0x50
 9258 2c48 05       		.uleb128 0x5
 9259 2c49 0C       		.byte	0xc
 9260 2c4a 00180040 		.4byte	0x40001800
 9261 2c4e 35       		.uleb128 0x35
 9262 2c4f 01       		.uleb128 0x1
 9263 2c50 51       		.byte	0x51
 9264 2c51 03       		.uleb128 0x3
 9265 2c52 91       		.byte	0x91
 9266 2c53 C47E     		.sleb128 -188
 9267 2c55 00       		.byte	0
 9268 2c56 39       		.uleb128 0x39
 9269 2c57 5A040000 		.4byte	.LVL83
 9270 2c5b 623A0000 		.4byte	0x3a62
 9271 2c5f 732C0000 		.4byte	0x2c73
 9272 2c63 35       		.uleb128 0x35
 9273 2c64 01       		.uleb128 0x1
 9274 2c65 50       		.byte	0x50
 9275 2c66 05       		.uleb128 0x5
 9276 2c67 0C       		.byte	0xc
 9277 2c68 00180040 		.4byte	0x40001800
 9278 2c6c 35       		.uleb128 0x35
 9279 2c6d 01       		.uleb128 0x1
 9280 2c6e 51       		.byte	0x51
 9281 2c6f 02       		.uleb128 0x2
 9282 2c70 75       		.byte	0x75
 9283 2c71 00       		.sleb128 0
 9284 2c72 00       		.byte	0
 9285 2c73 39       		.uleb128 0x39
 9286 2c74 64040000 		.4byte	.LVL84
 9287 2c78 6E3A0000 		.4byte	0x3a6e
 9288 2c7c 8E2C0000 		.4byte	0x2c8e
 9289 2c80 35       		.uleb128 0x35
 9290 2c81 01       		.uleb128 0x1
 9291 2c82 50       		.byte	0x50
 9292 2c83 03       		.uleb128 0x3
 9293 2c84 0A       		.byte	0xa
 9294 2c85 0008     		.2byte	0x800
 9295 2c87 35       		.uleb128 0x35
 9296 2c88 01       		.uleb128 0x1
 9297 2c89 51       		.byte	0x51
 9298 2c8a 02       		.uleb128 0x2
 9299 2c8b 75       		.byte	0x75
 9300 2c8c 00       		.sleb128 0
 9301 2c8d 00       		.byte	0
 9302 2c8e 39       		.uleb128 0x39
 9303 2c8f 6A040000 		.4byte	.LVL85
 9304 2c93 853A0000 		.4byte	0x3a85
 9305 2c97 A22C0000 		.4byte	0x2ca2
 9306 2c9b 35       		.uleb128 0x35
 9307 2c9c 01       		.uleb128 0x1
ARM GAS  C:\Users\IDONNO~1\AppData\Local\Temp\ccm1q34l.s 			page 165


 9308 2c9d 50       		.byte	0x50
 9309 2c9e 02       		.uleb128 0x2
 9310 2c9f 74       		.byte	0x74
 9311 2ca0 00       		.sleb128 0
 9312 2ca1 00       		.byte	0
 9313 2ca2 39       		.uleb128 0x39
 9314 2ca3 70040000 		.4byte	.LVL86
 9315 2ca7 903A0000 		.4byte	0x3a90
 9316 2cab B62C0000 		.4byte	0x2cb6
 9317 2caf 35       		.uleb128 0x35
 9318 2cb0 01       		.uleb128 0x1
 9319 2cb1 50       		.byte	0x50
 9320 2cb2 02       		.uleb128 0x2
 9321 2cb3 09       		.byte	0x9
 9322 2cb4 FF       		.byte	0xff
 9323 2cb5 00       		.byte	0
 9324 2cb6 39       		.uleb128 0x39
 9325 2cb7 76040000 		.4byte	.LVL87
 9326 2cbb 9B3A0000 		.4byte	0x3a9b
 9327 2cbf CA2C0000 		.4byte	0x2cca
 9328 2cc3 35       		.uleb128 0x35
 9329 2cc4 01       		.uleb128 0x1
 9330 2cc5 50       		.byte	0x50
 9331 2cc6 02       		.uleb128 0x2
 9332 2cc7 08       		.byte	0x8
 9333 2cc8 64       		.byte	0x64
 9334 2cc9 00       		.byte	0
 9335 2cca 46       		.uleb128 0x46
 9336 2ccb 7A040000 		.4byte	.LVL88
 9337 2ccf 80240000 		.4byte	0x2480
 9338 2cd3 46       		.uleb128 0x46
 9339 2cd4 86040000 		.4byte	.LVL89
 9340 2cd8 A63A0000 		.4byte	0x3aa6
 9341 2cdc 00       		.byte	0
 9342 2cdd 0A       		.uleb128 0xa
 9343 2cde 04       		.byte	0x4
 9344 2cdf D01D0000 		.4byte	0x1dd0
 9345 2ce3 3B       		.uleb128 0x3b
 9346 2ce4 9D220000 		.4byte	0x229d
 9347 2ce8 00000000 		.4byte	.LFB267
 9348 2cec 5C000000 		.4byte	.LFE267-.LFB267
 9349 2cf0 01       		.uleb128 0x1
 9350 2cf1 9C       		.byte	0x9c
 9351 2cf2 2B2D0000 		.4byte	0x2d2b
 9352 2cf6 38       		.uleb128 0x38
 9353 2cf7 AE220000 		.4byte	0x22ae
 9354 2cfb FC000000 		.4byte	.LLST9
 9355 2cff 47       		.uleb128 0x47
 9356 2d00 BA220000 		.4byte	0x22ba
 9357 2d04 3C010000 		.4byte	.LLST10
 9358 2d08 48       		.uleb128 0x48
 9359 2d09 28000000 		.4byte	.LBB42
 9360 2d0d 10000000 		.4byte	.LBE42-.LBB42
 9361 2d11 38       		.uleb128 0x38
 9362 2d12 AE220000 		.4byte	0x22ae
 9363 2d16 5C010000 		.4byte	.LLST11
 9364 2d1a 48       		.uleb128 0x48
ARM GAS  C:\Users\IDONNO~1\AppData\Local\Temp\ccm1q34l.s 			page 166


 9365 2d1b 28000000 		.4byte	.LBB43
 9366 2d1f 10000000 		.4byte	.LBE43-.LBB43
 9367 2d23 49       		.uleb128 0x49
 9368 2d24 BA220000 		.4byte	0x22ba
 9369 2d28 00       		.byte	0
 9370 2d29 00       		.byte	0
 9371 2d2a 00       		.byte	0
 9372 2d2b 31       		.uleb128 0x31
 9373 2d2c F01E0000 		.4byte	.LASF602
 9374 2d30 01       		.byte	0x1
 9375 2d31 DE02     		.2byte	0x2de
 9376 2d33 00000000 		.4byte	.LFB263
 9377 2d37 0C010000 		.4byte	.LFE263-.LFB263
 9378 2d3b 01       		.uleb128 0x1
 9379 2d3c 9C       		.byte	0x9c
 9380 2d3d A22D0000 		.4byte	0x2da2
 9381 2d41 39       		.uleb128 0x39
 9382 2d42 30000000 		.4byte	.LVL95
 9383 2d46 2E240000 		.4byte	0x242e
 9384 2d4a 582D0000 		.4byte	0x2d58
 9385 2d4e 35       		.uleb128 0x35
 9386 2d4f 01       		.uleb128 0x1
 9387 2d50 50       		.byte	0x50
 9388 2d51 05       		.uleb128 0x5
 9389 2d52 03       		.byte	0x3
 9390 2d53 00000000 		.4byte	.LANCHOR7
 9391 2d57 00       		.byte	0
 9392 2d58 39       		.uleb128 0x39
 9393 2d59 7E000000 		.4byte	.LVL96
 9394 2d5d 2E240000 		.4byte	0x242e
 9395 2d61 6F2D0000 		.4byte	0x2d6f
 9396 2d65 35       		.uleb128 0x35
 9397 2d66 01       		.uleb128 0x1
 9398 2d67 50       		.byte	0x50
 9399 2d68 05       		.uleb128 0x5
 9400 2d69 03       		.byte	0x3
 9401 2d6a 00000000 		.4byte	.LANCHOR8
 9402 2d6e 00       		.byte	0
 9403 2d6f 39       		.uleb128 0x39
 9404 2d70 B2000000 		.4byte	.LVL97
 9405 2d74 2E240000 		.4byte	0x242e
 9406 2d78 862D0000 		.4byte	0x2d86
 9407 2d7c 35       		.uleb128 0x35
 9408 2d7d 01       		.uleb128 0x1
 9409 2d7e 50       		.byte	0x50
 9410 2d7f 05       		.uleb128 0x5
 9411 2d80 03       		.byte	0x3
 9412 2d81 00000000 		.4byte	.LANCHOR9
 9413 2d85 00       		.byte	0
 9414 2d86 46       		.uleb128 0x46
 9415 2d87 C4000000 		.4byte	.LVL98
 9416 2d8b 9D220000 		.4byte	0x229d
 9417 2d8f 46       		.uleb128 0x46
 9418 2d90 CE000000 		.4byte	.LVL99
 9419 2d94 9D220000 		.4byte	0x229d
 9420 2d98 46       		.uleb128 0x46
 9421 2d99 D8000000 		.4byte	.LVL100
ARM GAS  C:\Users\IDONNO~1\AppData\Local\Temp\ccm1q34l.s 			page 167


 9422 2d9d B13A0000 		.4byte	0x3ab1
 9423 2da1 00       		.byte	0
 9424 2da2 3B       		.uleb128 0x3b
 9425 2da3 ED220000 		.4byte	0x22ed
 9426 2da7 00000000 		.4byte	.LFB268
 9427 2dab 48000000 		.4byte	.LFE268-.LFB268
 9428 2daf 01       		.uleb128 0x1
 9429 2db0 9C       		.byte	0x9c
 9430 2db1 DA2D0000 		.4byte	0x2dda
 9431 2db5 38       		.uleb128 0x38
 9432 2db6 FA220000 		.4byte	0x22fa
 9433 2dba 70010000 		.4byte	.LLST12
 9434 2dbe 38       		.uleb128 0x38
 9435 2dbf 06230000 		.4byte	0x2306
 9436 2dc3 91010000 		.4byte	.LLST13
 9437 2dc7 47       		.uleb128 0x47
 9438 2dc8 12230000 		.4byte	0x2312
 9439 2dcc B2010000 		.4byte	.LLST14
 9440 2dd0 47       		.uleb128 0x47
 9441 2dd1 1E230000 		.4byte	0x231e
 9442 2dd5 D9010000 		.4byte	.LLST15
 9443 2dd9 00       		.byte	0
 9444 2dda 3B       		.uleb128 0x3b
 9445 2ddb C7220000 		.4byte	0x22c7
 9446 2ddf 00000000 		.4byte	.LFB269
 9447 2de3 0C000000 		.4byte	.LFE269-.LFB269
 9448 2de7 01       		.uleb128 0x1
 9449 2de8 9C       		.byte	0x9c
 9450 2de9 FC2D0000 		.4byte	0x2dfc
 9451 2ded 3C       		.uleb128 0x3c
 9452 2dee D4220000 		.4byte	0x22d4
 9453 2df2 01       		.uleb128 0x1
 9454 2df3 50       		.byte	0x50
 9455 2df4 3C       		.uleb128 0x3c
 9456 2df5 E0220000 		.4byte	0x22e0
 9457 2df9 01       		.uleb128 0x1
 9458 2dfa 51       		.byte	0x51
 9459 2dfb 00       		.byte	0
 9460 2dfc 31       		.uleb128 0x31
 9461 2dfd E7060000 		.4byte	.LASF603
 9462 2e01 01       		.byte	0x1
 9463 2e02 9203     		.2byte	0x392
 9464 2e04 00000000 		.4byte	.LFB270
 9465 2e08 4C000000 		.4byte	.LFE270-.LFB270
 9466 2e0c 01       		.uleb128 0x1
 9467 2e0d 9C       		.byte	0x9c
 9468 2e0e 3B2E0000 		.4byte	0x2e3b
 9469 2e12 39       		.uleb128 0x39
 9470 2e13 18000000 		.4byte	.LVL107
 9471 2e17 9E380000 		.4byte	0x389e
 9472 2e1b 282E0000 		.4byte	0x2e28
 9473 2e1f 35       		.uleb128 0x35
 9474 2e20 02       		.uleb128 0x2
 9475 2e21 90       		.byte	0x90
 9476 2e22 40       		.uleb128 0x40
 9477 2e23 03       		.uleb128 0x3
 9478 2e24 F5       		.byte	0xf5
ARM GAS  C:\Users\IDONNO~1\AppData\Local\Temp\ccm1q34l.s 			page 168


 9479 2e25 52       		.uleb128 0x52
 9480 2e26 25       		.uleb128 0x25
 9481 2e27 00       		.byte	0
 9482 2e28 3A       		.uleb128 0x3a
 9483 2e29 24000000 		.4byte	.LVL108
 9484 2e2d AA380000 		.4byte	0x38aa
 9485 2e31 35       		.uleb128 0x35
 9486 2e32 02       		.uleb128 0x2
 9487 2e33 90       		.byte	0x90
 9488 2e34 40       		.uleb128 0x40
 9489 2e35 03       		.uleb128 0x3
 9490 2e36 F5       		.byte	0xf5
 9491 2e37 52       		.uleb128 0x52
 9492 2e38 25       		.uleb128 0x25
 9493 2e39 00       		.byte	0
 9494 2e3a 00       		.byte	0
 9495 2e3b 4A       		.uleb128 0x4a
 9496 2e3c 2B230000 		.4byte	0x232b
 9497 2e40 00000000 		.4byte	.LFB271
 9498 2e44 48000000 		.4byte	.LFE271-.LFB271
 9499 2e48 01       		.uleb128 0x1
 9500 2e49 9C       		.byte	0x9c
 9501 2e4a 4B       		.uleb128 0x4b
 9502 2e4b 19020000 		.4byte	.LASF761
 9503 2e4f 01       		.byte	0x1
 9504 2e50 A403     		.2byte	0x3a4
 9505 2e52 00000000 		.4byte	.LFB272
 9506 2e56 6C000000 		.4byte	.LFE272-.LFB272
 9507 2e5a 01       		.uleb128 0x1
 9508 2e5b 9C       		.byte	0x9c
 9509 2e5c 31       		.uleb128 0x31
 9510 2e5d 70030000 		.4byte	.LASF604
 9511 2e61 01       		.byte	0x1
 9512 2e62 B003     		.2byte	0x3b0
 9513 2e64 00000000 		.4byte	.LFB273
 9514 2e68 4C000000 		.4byte	.LFE273-.LFB273
 9515 2e6c 01       		.uleb128 0x1
 9516 2e6d 9C       		.byte	0x9c
 9517 2e6e B52E0000 		.4byte	0x2eb5
 9518 2e72 33       		.uleb128 0x33
 9519 2e73 09060000 		.4byte	.LASF605
 9520 2e77 01       		.byte	0x1
 9521 2e78 B003     		.2byte	0x3b0
 9522 2e7a 3E000000 		.4byte	0x3e
 9523 2e7e 00020000 		.4byte	.LLST16
 9524 2e82 33       		.uleb128 0x33
 9525 2e83 10060000 		.4byte	.LASF606
 9526 2e87 01       		.byte	0x1
 9527 2e88 B003     		.2byte	0x3b0
 9528 2e8a 3E000000 		.4byte	0x3e
 9529 2e8e 2C020000 		.4byte	.LLST17
 9530 2e92 33       		.uleb128 0x33
 9531 2e93 17060000 		.4byte	.LASF607
 9532 2e97 01       		.byte	0x1
 9533 2e98 B003     		.2byte	0x3b0
 9534 2e9a 3E000000 		.4byte	0x3e
 9535 2e9e 58020000 		.4byte	.LLST18
ARM GAS  C:\Users\IDONNO~1\AppData\Local\Temp\ccm1q34l.s 			page 169


 9536 2ea2 46       		.uleb128 0x46
 9537 2ea3 0E000000 		.4byte	.LVL110
 9538 2ea7 C1380000 		.4byte	0x38c1
 9539 2eab 4C       		.uleb128 0x4c
 9540 2eac 42000000 		.4byte	.LVL112
 9541 2eb0 7A3A0000 		.4byte	0x3a7a
 9542 2eb4 00       		.byte	0
 9543 2eb5 31       		.uleb128 0x31
 9544 2eb6 71200000 		.4byte	.LASF608
 9545 2eba 01       		.byte	0x1
 9546 2ebb C903     		.2byte	0x3c9
 9547 2ebd 00000000 		.4byte	.LFB274
 9548 2ec1 00010000 		.4byte	.LFE274-.LFB274
 9549 2ec5 01       		.uleb128 0x1
 9550 2ec6 9C       		.byte	0x9c
 9551 2ec7 382F0000 		.4byte	0x2f38
 9552 2ecb 46       		.uleb128 0x46
 9553 2ecc 3A000000 		.4byte	.LVL113
 9554 2ed0 4A2E0000 		.4byte	0x2e4a
 9555 2ed4 4C       		.uleb128 0x4c
 9556 2ed5 48000000 		.4byte	.LVL114
 9557 2ed9 5C2E0000 		.4byte	0x2e5c
 9558 2edd 46       		.uleb128 0x46
 9559 2ede 54000000 		.4byte	.LVL115
 9560 2ee2 4A2E0000 		.4byte	0x2e4a
 9561 2ee6 4C       		.uleb128 0x4c
 9562 2ee7 60000000 		.4byte	.LVL116
 9563 2eeb 5C2E0000 		.4byte	0x2e5c
 9564 2eef 46       		.uleb128 0x46
 9565 2ef0 88000000 		.4byte	.LVL117
 9566 2ef4 4A2E0000 		.4byte	0x2e4a
 9567 2ef8 4C       		.uleb128 0x4c
 9568 2ef9 96000000 		.4byte	.LVL118
 9569 2efd 5C2E0000 		.4byte	0x2e5c
 9570 2f01 46       		.uleb128 0x46
 9571 2f02 AA000000 		.4byte	.LVL119
 9572 2f06 4A2E0000 		.4byte	0x2e4a
 9573 2f0a 4C       		.uleb128 0x4c
 9574 2f0b B8000000 		.4byte	.LVL120
 9575 2f0f 5C2E0000 		.4byte	0x2e5c
 9576 2f13 46       		.uleb128 0x46
 9577 2f14 CC000000 		.4byte	.LVL121
 9578 2f18 4A2E0000 		.4byte	0x2e4a
 9579 2f1c 4C       		.uleb128 0x4c
 9580 2f1d DA000000 		.4byte	.LVL122
 9581 2f21 5C2E0000 		.4byte	0x2e5c
 9582 2f25 46       		.uleb128 0x46
 9583 2f26 EE000000 		.4byte	.LVL123
 9584 2f2a 4A2E0000 		.4byte	0x2e4a
 9585 2f2e 4C       		.uleb128 0x4c
 9586 2f2f FC000000 		.4byte	.LVL124
 9587 2f33 5C2E0000 		.4byte	0x2e5c
 9588 2f37 00       		.byte	0
 9589 2f38 31       		.uleb128 0x31
 9590 2f39 5E070000 		.4byte	.LASF609
 9591 2f3d 01       		.byte	0x1
 9592 2f3e 5F04     		.2byte	0x45f
ARM GAS  C:\Users\IDONNO~1\AppData\Local\Temp\ccm1q34l.s 			page 170


 9593 2f40 00000000 		.4byte	.LFB275
 9594 2f44 E4020000 		.4byte	.LFE275-.LFB275
 9595 2f48 01       		.uleb128 0x1
 9596 2f49 9C       		.byte	0x9c
 9597 2f4a C52F0000 		.4byte	0x2fc5
 9598 2f4e 32       		.uleb128 0x32
 9599 2f4f 7300     		.ascii	"s\000"
 9600 2f51 01       		.byte	0x1
 9601 2f52 5F04     		.2byte	0x45f
 9602 2f54 EC1F0000 		.4byte	0x1fec
 9603 2f58 84020000 		.4byte	.LLST19
 9604 2f5c 3E       		.uleb128 0x3e
 9605 2f5d 65727200 		.ascii	"err\000"
 9606 2f61 01       		.byte	0x1
 9607 2f62 8304     		.2byte	0x483
 9608 2f64 25000000 		.4byte	0x25
 9609 2f68 BB020000 		.4byte	.LLST20
 9610 2f6c 4D       		.uleb128 0x4d
 9611 2f6d D20C0000 		.4byte	.LASF610
 9612 2f71 01       		.byte	0x1
 9613 2f72 8304     		.2byte	0x483
 9614 2f74 25000000 		.4byte	0x25
 9615 2f78 04       		.byte	0x4
 9616 2f79 0000803F 		.4byte	0x3f800000
 9617 2f7d 4D       		.uleb128 0x4d
 9618 2f7e 1F080000 		.4byte	.LASF611
 9619 2f82 01       		.byte	0x1
 9620 2f83 8304     		.2byte	0x483
 9621 2f85 25000000 		.4byte	0x25
 9622 2f89 04       		.byte	0x4
 9623 2f8a 0C02803F 		.4byte	0x3f80020c
 9624 2f8e 46       		.uleb128 0x46
 9625 2f8f 5A000000 		.4byte	.LVL126
 9626 2f93 9E380000 		.4byte	0x389e
 9627 2f97 46       		.uleb128 0x46
 9628 2f98 70000000 		.4byte	.LVL127
 9629 2f9c AA380000 		.4byte	0x38aa
 9630 2fa0 46       		.uleb128 0x46
 9631 2fa1 3A010000 		.4byte	.LVL128
 9632 2fa5 9E380000 		.4byte	0x389e
 9633 2fa9 46       		.uleb128 0x46
 9634 2faa 4E010000 		.4byte	.LVL129
 9635 2fae AA380000 		.4byte	0x38aa
 9636 2fb2 34       		.uleb128 0x34
 9637 2fb3 3C020000 		.4byte	.LVL133
 9638 2fb7 BD3A0000 		.4byte	0x3abd
 9639 2fbb 35       		.uleb128 0x35
 9640 2fbc 01       		.uleb128 0x1
 9641 2fbd 50       		.byte	0x50
 9642 2fbe 04       		.uleb128 0x4
 9643 2fbf 7D       		.byte	0x7d
 9644 2fc0 54       		.sleb128 -44
 9645 2fc1 94       		.byte	0x94
 9646 2fc2 02       		.byte	0x2
 9647 2fc3 00       		.byte	0
 9648 2fc4 00       		.byte	0
 9649 2fc5 31       		.uleb128 0x31
ARM GAS  C:\Users\IDONNO~1\AppData\Local\Temp\ccm1q34l.s 			page 171


 9650 2fc6 C11B0000 		.4byte	.LASF612
 9651 2fca 01       		.byte	0x1
 9652 2fcb 5002     		.2byte	0x250
 9653 2fcd 00000000 		.4byte	.LFB259
 9654 2fd1 5C010000 		.4byte	.LFE259-.LFB259
 9655 2fd5 01       		.uleb128 0x1
 9656 2fd6 9C       		.byte	0x9c
 9657 2fd7 B5300000 		.4byte	0x30b5
 9658 2fdb 45       		.uleb128 0x45
 9659 2fdc FF060000 		.4byte	.LASF613
 9660 2fe0 01       		.byte	0x1
 9661 2fe1 5402     		.2byte	0x254
 9662 2fe3 2C000000 		.4byte	0x2c
 9663 2fe7 09030000 		.4byte	.LLST21
 9664 2feb 45       		.uleb128 0x45
 9665 2fec 05070000 		.4byte	.LASF582
 9666 2ff0 01       		.byte	0x1
 9667 2ff1 5502     		.2byte	0x255
 9668 2ff3 2C000000 		.4byte	0x2c
 9669 2ff7 27030000 		.4byte	.LLST22
 9670 2ffb 40       		.uleb128 0x40
 9671 2ffc ED220000 		.4byte	0x22ed
 9672 3000 46000000 		.4byte	.LBB44
 9673 3004 50000000 		.4byte	.Ldebug_ranges0+0x50
 9674 3008 01       		.byte	0x1
 9675 3009 6702     		.2byte	0x267
 9676 300b 3A300000 		.4byte	0x303a
 9677 300f 38       		.uleb128 0x38
 9678 3010 06230000 		.4byte	0x2306
 9679 3014 45030000 		.4byte	.LLST23
 9680 3018 38       		.uleb128 0x38
 9681 3019 FA220000 		.4byte	0x22fa
 9682 301d 58030000 		.4byte	.LLST24
 9683 3021 4E       		.uleb128 0x4e
 9684 3022 50000000 		.4byte	.Ldebug_ranges0+0x50
 9685 3026 47       		.uleb128 0x47
 9686 3027 12230000 		.4byte	0x2312
 9687 302b 6B030000 		.4byte	.LLST25
 9688 302f 47       		.uleb128 0x47
 9689 3030 1E230000 		.4byte	0x231e
 9690 3034 92030000 		.4byte	.LLST26
 9691 3038 00       		.byte	0
 9692 3039 00       		.byte	0
 9693 303a 4F       		.uleb128 0x4f
 9694 303b 2B230000 		.4byte	0x232b
 9695 303f CC000000 		.4byte	.LBB54
 9696 3043 36000000 		.4byte	.LBE54-.LBB54
 9697 3047 01       		.byte	0x1
 9698 3048 9102     		.2byte	0x291
 9699 304a 39       		.uleb128 0x39
 9700 304b 12000000 		.4byte	.LVL134
 9701 304f C83A0000 		.4byte	0x3ac8
 9702 3053 66300000 		.4byte	0x3066
 9703 3057 35       		.uleb128 0x35
 9704 3058 01       		.uleb128 0x1
 9705 3059 50       		.byte	0x50
 9706 305a 05       		.uleb128 0x5
ARM GAS  C:\Users\IDONNO~1\AppData\Local\Temp\ccm1q34l.s 			page 172


 9707 305b 0C       		.byte	0xc
 9708 305c 00200140 		.4byte	0x40012000
 9709 3060 35       		.uleb128 0x35
 9710 3061 01       		.uleb128 0x1
 9711 3062 51       		.byte	0x51
 9712 3063 01       		.uleb128 0x1
 9713 3064 44       		.byte	0x44
 9714 3065 00       		.byte	0
 9715 3066 39       		.uleb128 0x39
 9716 3067 1C000000 		.4byte	.LVL137
 9717 306b C83A0000 		.4byte	0x3ac8
 9718 306f 82300000 		.4byte	0x3082
 9719 3073 35       		.uleb128 0x35
 9720 3074 01       		.uleb128 0x1
 9721 3075 50       		.byte	0x50
 9722 3076 05       		.uleb128 0x5
 9723 3077 0C       		.byte	0xc
 9724 3078 00210140 		.4byte	0x40012100
 9725 307c 35       		.uleb128 0x35
 9726 307d 01       		.uleb128 0x1
 9727 307e 51       		.byte	0x51
 9728 307f 01       		.uleb128 0x1
 9729 3080 44       		.byte	0x44
 9730 3081 00       		.byte	0
 9731 3082 39       		.uleb128 0x39
 9732 3083 3A000000 		.4byte	.LVL140
 9733 3087 382F0000 		.4byte	0x2f38
 9734 308b 99300000 		.4byte	0x3099
 9735 308f 35       		.uleb128 0x35
 9736 3090 01       		.uleb128 0x1
 9737 3091 50       		.byte	0x50
 9738 3092 05       		.uleb128 0x5
 9739 3093 03       		.byte	0x3
 9740 3094 00000000 		.4byte	.LANCHOR20
 9741 3098 00       		.byte	0
 9742 3099 46       		.uleb128 0x46
 9743 309a 9A000000 		.4byte	.LVL147
 9744 309e D4230000 		.4byte	0x23d4
 9745 30a2 46       		.uleb128 0x46
 9746 30a3 CC000000 		.4byte	.LVL148
 9747 30a7 FC2D0000 		.4byte	0x2dfc
 9748 30ab 46       		.uleb128 0x46
 9749 30ac 06010000 		.4byte	.LVL149
 9750 30b0 B52E0000 		.4byte	0x2eb5
 9751 30b4 00       		.byte	0
 9752 30b5 31       		.uleb128 0x31
 9753 30b6 421A0000 		.4byte	.LASF614
 9754 30ba 01       		.byte	0x1
 9755 30bb ED04     		.2byte	0x4ed
 9756 30bd 00000000 		.4byte	.LFB276
 9757 30c1 70000000 		.4byte	.LFE276-.LFB276
 9758 30c5 01       		.uleb128 0x1
 9759 30c6 9C       		.byte	0x9c
 9760 30c7 F6310000 		.4byte	0x31f6
 9761 30cb 39       		.uleb128 0x39
 9762 30cc 0E000000 		.4byte	.LVL152
 9763 30d0 D43A0000 		.4byte	0x3ad4
ARM GAS  C:\Users\IDONNO~1\AppData\Local\Temp\ccm1q34l.s 			page 173


 9764 30d4 EA300000 		.4byte	0x30ea
 9765 30d8 35       		.uleb128 0x35
 9766 30d9 01       		.uleb128 0x1
 9767 30da 50       		.byte	0x50
 9768 30db 02       		.uleb128 0x2
 9769 30dc 74       		.byte	0x74
 9770 30dd 00       		.sleb128 0
 9771 30de 35       		.uleb128 0x35
 9772 30df 01       		.uleb128 0x1
 9773 30e0 51       		.byte	0x51
 9774 30e1 01       		.uleb128 0x1
 9775 30e2 30       		.byte	0x30
 9776 30e3 35       		.uleb128 0x35
 9777 30e4 01       		.uleb128 0x1
 9778 30e5 52       		.byte	0x52
 9779 30e6 02       		.uleb128 0x2
 9780 30e7 08       		.byte	0x8
 9781 30e8 40       		.byte	0x40
 9782 30e9 00       		.byte	0
 9783 30ea 39       		.uleb128 0x39
 9784 30eb 18000000 		.4byte	.LVL153
 9785 30ef E03A0000 		.4byte	0x3ae0
 9786 30f3 08310000 		.4byte	0x3108
 9787 30f7 35       		.uleb128 0x35
 9788 30f8 01       		.uleb128 0x1
 9789 30f9 50       		.byte	0x50
 9790 30fa 02       		.uleb128 0x2
 9791 30fb 74       		.byte	0x74
 9792 30fc 00       		.sleb128 0
 9793 30fd 35       		.uleb128 0x35
 9794 30fe 01       		.uleb128 0x1
 9795 30ff 51       		.byte	0x51
 9796 3100 01       		.uleb128 0x1
 9797 3101 30       		.byte	0x30
 9798 3102 35       		.uleb128 0x35
 9799 3103 01       		.uleb128 0x1
 9800 3104 52       		.byte	0x52
 9801 3105 01       		.uleb128 0x1
 9802 3106 31       		.byte	0x31
 9803 3107 00       		.byte	0
 9804 3108 39       		.uleb128 0x39
 9805 3109 22000000 		.4byte	.LVL154
 9806 310d EC3A0000 		.4byte	0x3aec
 9807 3111 26310000 		.4byte	0x3126
 9808 3115 35       		.uleb128 0x35
 9809 3116 01       		.uleb128 0x1
 9810 3117 50       		.byte	0x50
 9811 3118 02       		.uleb128 0x2
 9812 3119 74       		.byte	0x74
 9813 311a 00       		.sleb128 0
 9814 311b 35       		.uleb128 0x35
 9815 311c 01       		.uleb128 0x1
 9816 311d 51       		.byte	0x51
 9817 311e 01       		.uleb128 0x1
 9818 311f 30       		.byte	0x30
 9819 3120 35       		.uleb128 0x35
 9820 3121 01       		.uleb128 0x1
ARM GAS  C:\Users\IDONNO~1\AppData\Local\Temp\ccm1q34l.s 			page 174


 9821 3122 52       		.byte	0x52
 9822 3123 01       		.uleb128 0x1
 9823 3124 30       		.byte	0x30
 9824 3125 00       		.byte	0
 9825 3126 39       		.uleb128 0x39
 9826 3127 2C000000 		.4byte	.LVL155
 9827 312b D43A0000 		.4byte	0x3ad4
 9828 312f 45310000 		.4byte	0x3145
 9829 3133 35       		.uleb128 0x35
 9830 3134 01       		.uleb128 0x1
 9831 3135 50       		.byte	0x50
 9832 3136 02       		.uleb128 0x2
 9833 3137 74       		.byte	0x74
 9834 3138 00       		.sleb128 0
 9835 3139 35       		.uleb128 0x35
 9836 313a 01       		.uleb128 0x1
 9837 313b 51       		.byte	0x51
 9838 313c 01       		.uleb128 0x1
 9839 313d 34       		.byte	0x34
 9840 313e 35       		.uleb128 0x35
 9841 313f 01       		.uleb128 0x1
 9842 3140 52       		.byte	0x52
 9843 3141 02       		.uleb128 0x2
 9844 3142 08       		.byte	0x8
 9845 3143 40       		.byte	0x40
 9846 3144 00       		.byte	0
 9847 3145 39       		.uleb128 0x39
 9848 3146 36000000 		.4byte	.LVL156
 9849 314a E03A0000 		.4byte	0x3ae0
 9850 314e 63310000 		.4byte	0x3163
 9851 3152 35       		.uleb128 0x35
 9852 3153 01       		.uleb128 0x1
 9853 3154 50       		.byte	0x50
 9854 3155 02       		.uleb128 0x2
 9855 3156 74       		.byte	0x74
 9856 3157 00       		.sleb128 0
 9857 3158 35       		.uleb128 0x35
 9858 3159 01       		.uleb128 0x1
 9859 315a 51       		.byte	0x51
 9860 315b 01       		.uleb128 0x1
 9861 315c 34       		.byte	0x34
 9862 315d 35       		.uleb128 0x35
 9863 315e 01       		.uleb128 0x1
 9864 315f 52       		.byte	0x52
 9865 3160 01       		.uleb128 0x1
 9866 3161 31       		.byte	0x31
 9867 3162 00       		.byte	0
 9868 3163 39       		.uleb128 0x39
 9869 3164 40000000 		.4byte	.LVL157
 9870 3168 EC3A0000 		.4byte	0x3aec
 9871 316c 81310000 		.4byte	0x3181
 9872 3170 35       		.uleb128 0x35
 9873 3171 01       		.uleb128 0x1
 9874 3172 50       		.byte	0x50
 9875 3173 02       		.uleb128 0x2
 9876 3174 74       		.byte	0x74
 9877 3175 00       		.sleb128 0
ARM GAS  C:\Users\IDONNO~1\AppData\Local\Temp\ccm1q34l.s 			page 175


 9878 3176 35       		.uleb128 0x35
 9879 3177 01       		.uleb128 0x1
 9880 3178 51       		.byte	0x51
 9881 3179 01       		.uleb128 0x1
 9882 317a 34       		.byte	0x34
 9883 317b 35       		.uleb128 0x35
 9884 317c 01       		.uleb128 0x1
 9885 317d 52       		.byte	0x52
 9886 317e 01       		.uleb128 0x1
 9887 317f 30       		.byte	0x30
 9888 3180 00       		.byte	0
 9889 3181 39       		.uleb128 0x39
 9890 3182 4A000000 		.4byte	.LVL158
 9891 3186 D43A0000 		.4byte	0x3ad4
 9892 318a A0310000 		.4byte	0x31a0
 9893 318e 35       		.uleb128 0x35
 9894 318f 01       		.uleb128 0x1
 9895 3190 50       		.byte	0x50
 9896 3191 02       		.uleb128 0x2
 9897 3192 74       		.byte	0x74
 9898 3193 00       		.sleb128 0
 9899 3194 35       		.uleb128 0x35
 9900 3195 01       		.uleb128 0x1
 9901 3196 51       		.byte	0x51
 9902 3197 01       		.uleb128 0x1
 9903 3198 38       		.byte	0x38
 9904 3199 35       		.uleb128 0x35
 9905 319a 01       		.uleb128 0x1
 9906 319b 52       		.byte	0x52
 9907 319c 02       		.uleb128 0x2
 9908 319d 08       		.byte	0x8
 9909 319e 40       		.byte	0x40
 9910 319f 00       		.byte	0
 9911 31a0 39       		.uleb128 0x39
 9912 31a1 54000000 		.4byte	.LVL159
 9913 31a5 E03A0000 		.4byte	0x3ae0
 9914 31a9 BE310000 		.4byte	0x31be
 9915 31ad 35       		.uleb128 0x35
 9916 31ae 01       		.uleb128 0x1
 9917 31af 50       		.byte	0x50
 9918 31b0 02       		.uleb128 0x2
 9919 31b1 74       		.byte	0x74
 9920 31b2 00       		.sleb128 0
 9921 31b3 35       		.uleb128 0x35
 9922 31b4 01       		.uleb128 0x1
 9923 31b5 51       		.byte	0x51
 9924 31b6 01       		.uleb128 0x1
 9925 31b7 38       		.byte	0x38
 9926 31b8 35       		.uleb128 0x35
 9927 31b9 01       		.uleb128 0x1
 9928 31ba 52       		.byte	0x52
 9929 31bb 01       		.uleb128 0x1
 9930 31bc 31       		.byte	0x31
 9931 31bd 00       		.byte	0
 9932 31be 39       		.uleb128 0x39
 9933 31bf 5E000000 		.4byte	.LVL160
 9934 31c3 EC3A0000 		.4byte	0x3aec
ARM GAS  C:\Users\IDONNO~1\AppData\Local\Temp\ccm1q34l.s 			page 176


 9935 31c7 DC310000 		.4byte	0x31dc
 9936 31cb 35       		.uleb128 0x35
 9937 31cc 01       		.uleb128 0x1
 9938 31cd 50       		.byte	0x50
 9939 31ce 02       		.uleb128 0x2
 9940 31cf 74       		.byte	0x74
 9941 31d0 00       		.sleb128 0
 9942 31d1 35       		.uleb128 0x35
 9943 31d2 01       		.uleb128 0x1
 9944 31d3 51       		.byte	0x51
 9945 31d4 01       		.uleb128 0x1
 9946 31d5 38       		.byte	0x38
 9947 31d6 35       		.uleb128 0x35
 9948 31d7 01       		.uleb128 0x1
 9949 31d8 52       		.byte	0x52
 9950 31d9 01       		.uleb128 0x1
 9951 31da 30       		.byte	0x30
 9952 31db 00       		.byte	0
 9953 31dc 34       		.uleb128 0x34
 9954 31dd 6A000000 		.4byte	.LVL161
 9955 31e1 F83A0000 		.4byte	0x3af8
 9956 31e5 35       		.uleb128 0x35
 9957 31e6 01       		.uleb128 0x1
 9958 31e7 50       		.byte	0x50
 9959 31e8 05       		.uleb128 0x5
 9960 31e9 0C       		.byte	0xc
 9961 31ea 00000140 		.4byte	0x40010000
 9962 31ee 35       		.uleb128 0x35
 9963 31ef 01       		.uleb128 0x1
 9964 31f0 51       		.byte	0x51
 9965 31f1 02       		.uleb128 0x2
 9966 31f2 08       		.byte	0x8
 9967 31f3 20       		.byte	0x20
 9968 31f4 00       		.byte	0
 9969 31f5 00       		.byte	0
 9970 31f6 50       		.uleb128 0x50
 9971 31f7 01020000 		.4byte	.LASF616
 9972 31fb 19       		.byte	0x19
 9973 31fc C3       		.byte	0xc3
 9974 31fd 2C000000 		.4byte	0x2c
 9975 3201 00000000 		.4byte	.LFB277
 9976 3205 24000000 		.4byte	.LFE277-.LFB277
 9977 3209 01       		.uleb128 0x1
 9978 320a 9C       		.byte	0x9c
 9979 320b 45320000 		.4byte	0x3245
 9980 320f 51       		.uleb128 0x51
 9981 3210 636800   		.ascii	"ch\000"
 9982 3213 01       		.byte	0x1
 9983 3214 0305     		.2byte	0x503
 9984 3216 2C000000 		.4byte	0x2c
 9985 321a 01       		.uleb128 0x1
 9986 321b 50       		.byte	0x50
 9987 321c 32       		.uleb128 0x32
 9988 321d 6600     		.ascii	"f\000"
 9989 321f 01       		.byte	0x1
 9990 3220 0305     		.2byte	0x503
 9991 3222 45320000 		.4byte	0x3245
ARM GAS  C:\Users\IDONNO~1\AppData\Local\Temp\ccm1q34l.s 			page 177


 9992 3226 B9030000 		.4byte	.LLST27
 9993 322a 37       		.uleb128 0x37
 9994 322b 34230000 		.4byte	0x2334
 9995 322f 00000000 		.4byte	.LBB56
 9996 3233 22000000 		.4byte	.LBE56-.LBB56
 9997 3237 01       		.byte	0x1
 9998 3238 0505     		.2byte	0x505
 9999 323a 38       		.uleb128 0x38
 10000 323b 45230000 		.4byte	0x2345
 10001 323f DA030000 		.4byte	.LLST28
 10002 3243 00       		.byte	0
 10003 3244 00       		.byte	0
 10004 3245 0A       		.uleb128 0xa
 10005 3246 04       		.byte	0x4
 10006 3247 BC1A0000 		.4byte	0x1abc
 10007 324b 31       		.uleb128 0x31
 10008 324c D4230000 		.4byte	.LASF617
 10009 3250 01       		.byte	0x1
 10010 3251 0805     		.2byte	0x508
 10011 3253 00000000 		.4byte	.LFB278
 10012 3257 20000000 		.4byte	.LFE278-.LFB278
 10013 325b 01       		.uleb128 0x1
 10014 325c 9C       		.byte	0x9c
 10015 325d 70320000 		.4byte	0x3270
 10016 3261 3D       		.uleb128 0x3d
 10017 3262 F1010000 		.4byte	.LASF618
 10018 3266 01       		.byte	0x1
 10019 3267 0805     		.2byte	0x508
 10020 3269 030F0000 		.4byte	0xf03
 10021 326d 01       		.uleb128 0x1
 10022 326e 50       		.byte	0x50
 10023 326f 00       		.byte	0
 10024 3270 52       		.uleb128 0x52
 10025 3271 D5160000 		.4byte	.LASF621
 10026 3275 01       		.byte	0x1
 10027 3276 1005     		.2byte	0x510
 10028 3278 DB1D0000 		.4byte	0x1ddb
 10029 327c 00000000 		.4byte	.LFB279
 10030 3280 0C000000 		.4byte	.LFE279-.LFB279
 10031 3284 01       		.uleb128 0x1
 10032 3285 9C       		.byte	0x9c
 10033 3286 31       		.uleb128 0x31
 10034 3287 6C190000 		.4byte	.LASF619
 10035 328b 01       		.byte	0x1
 10036 328c 1505     		.2byte	0x515
 10037 328e 00000000 		.4byte	.LFB280
 10038 3292 0C000000 		.4byte	.LFE280-.LFB280
 10039 3296 01       		.uleb128 0x1
 10040 3297 9C       		.byte	0x9c
 10041 3298 AC320000 		.4byte	0x32ac
 10042 329c 3D       		.uleb128 0x3d
 10043 329d 82060000 		.4byte	.LASF620
 10044 32a1 01       		.byte	0x1
 10045 32a2 1505     		.2byte	0x515
 10046 32a4 25000000 		.4byte	0x25
 10047 32a8 02       		.uleb128 0x2
 10048 32a9 90       		.byte	0x90
ARM GAS  C:\Users\IDONNO~1\AppData\Local\Temp\ccm1q34l.s 			page 178


 10049 32aa 40       		.uleb128 0x40
 10050 32ab 00       		.byte	0
 10051 32ac 52       		.uleb128 0x52
 10052 32ad 6A110000 		.4byte	.LASF622
 10053 32b1 01       		.byte	0x1
 10054 32b2 1A05     		.2byte	0x51a
 10055 32b4 73210000 		.4byte	0x2173
 10056 32b8 00000000 		.4byte	.LFB281
 10057 32bc 24000000 		.4byte	.LFE281-.LFB281
 10058 32c0 01       		.uleb128 0x1
 10059 32c1 9C       		.byte	0x9c
 10060 32c2 53       		.uleb128 0x53
 10061 32c3 FA180000 		.4byte	.LASF623
 10062 32c7 01       		.byte	0x1
 10063 32c8 BE       		.byte	0xbe
 10064 32c9 D3320000 		.4byte	0x32d3
 10065 32cd 05       		.uleb128 0x5
 10066 32ce 03       		.byte	0x3
 10067 32cf 00000000 		.4byte	fault_now
 10068 32d3 05       		.uleb128 0x5
 10069 32d4 701B0000 		.4byte	0x1b70
 10070 32d8 53       		.uleb128 0x53
 10071 32d9 07020000 		.4byte	.LASF624
 10072 32dd 01       		.byte	0x1
 10073 32de BF       		.byte	0xbf
 10074 32df E9320000 		.4byte	0x32e9
 10075 32e3 05       		.uleb128 0x5
 10076 32e4 03       		.byte	0x3
 10077 32e5 00000000 		.4byte	dccal_done
 10078 32e9 05       		.uleb128 0x5
 10079 32ea 030F0000 		.4byte	0xf03
 10080 32ee 53       		.uleb128 0x53
 10081 32ef 81140000 		.4byte	.LASF625
 10082 32f3 01       		.byte	0x1
 10083 32f4 C7       		.byte	0xc7
 10084 32f5 FF320000 		.4byte	0x32ff
 10085 32f9 05       		.uleb128 0x5
 10086 32fa 03       		.byte	0x3
 10087 32fb 00000000 		.4byte	MeasCurrParm
 10088 32ff 05       		.uleb128 0x5
 10089 3300 A11E0000 		.4byte	0x1ea1
 10090 3304 53       		.uleb128 0x53
 10091 3305 D4200000 		.4byte	.LASF626
 10092 3309 01       		.byte	0x1
 10093 330a E6       		.byte	0xe6
 10094 330b 15330000 		.4byte	0x3315
 10095 330f 05       		.uleb128 0x5
 10096 3310 03       		.byte	0x3
 10097 3311 00000000 		.4byte	qVdSquared
 10098 3315 05       		.uleb128 0x5
 10099 3316 25000000 		.4byte	0x25
 10100 331a 53       		.uleb128 0x53
 10101 331b D81F0000 		.4byte	.LASF627
 10102 331f 01       		.byte	0x1
 10103 3320 EA       		.byte	0xea
 10104 3321 15330000 		.4byte	0x3315
 10105 3325 05       		.uleb128 0x5
ARM GAS  C:\Users\IDONNO~1\AppData\Local\Temp\ccm1q34l.s 			page 179


 10106 3326 03       		.byte	0x3
 10107 3327 00000000 		.4byte	DCbus
 10108 332b 53       		.uleb128 0x53
 10109 332c 191F0000 		.4byte	.LASF628
 10110 3330 01       		.byte	0x1
 10111 3331 EF       		.byte	0xef
 10112 3332 15330000 		.4byte	0x3315
 10113 3336 05       		.uleb128 0x5
 10114 3337 03       		.byte	0x3
 10115 3338 00000000 		.4byte	TargetDCbus
 10116 333c 19       		.uleb128 0x19
 10117 333d F30B0000 		.4byte	0xbf3
 10118 3341 4D330000 		.4byte	0x334d
 10119 3345 1B       		.uleb128 0x1b
 10120 3346 D4060000 		.4byte	0x6d4
 10121 334a 3201     		.2byte	0x132
 10122 334c 00       		.byte	0
 10123 334d 2E       		.uleb128 0x2e
 10124 334e C4120000 		.4byte	.LASF629
 10125 3352 01       		.byte	0x1
 10126 3353 1E01     		.2byte	0x11e
 10127 3355 3C330000 		.4byte	0x333c
 10128 3359 44       		.uleb128 0x44
 10129 335a 9C0F0000 		.4byte	.LASF630
 10130 335e 01       		.byte	0x1
 10131 335f 3B02     		.2byte	0x23b
 10132 3361 6B330000 		.4byte	0x336b
 10133 3365 05       		.uleb128 0x5
 10134 3366 03       		.byte	0x3
 10135 3367 00000000 		.4byte	curr0_sum
 10136 336b 05       		.uleb128 0x5
 10137 336c 2C000000 		.4byte	0x2c
 10138 3370 44       		.uleb128 0x44
 10139 3371 211B0000 		.4byte	.LASF631
 10140 3375 01       		.byte	0x1
 10141 3376 3C02     		.2byte	0x23c
 10142 3378 6B330000 		.4byte	0x336b
 10143 337c 05       		.uleb128 0x5
 10144 337d 03       		.byte	0x3
 10145 337e 00000000 		.4byte	curr1_sum
 10146 3382 44       		.uleb128 0x44
 10147 3383 8B170000 		.4byte	.LASF632
 10148 3387 01       		.byte	0x1
 10149 3388 3D02     		.2byte	0x23d
 10150 338a 6B330000 		.4byte	0x336b
 10151 338e 05       		.uleb128 0x5
 10152 338f 03       		.byte	0x3
 10153 3390 00000000 		.4byte	curr_start_samples
 10154 3394 44       		.uleb128 0x44
 10155 3395 380F0000 		.4byte	.LASF633
 10156 3399 01       		.byte	0x1
 10157 339a 3E02     		.2byte	0x23e
 10158 339c 6B330000 		.4byte	0x336b
 10159 33a0 05       		.uleb128 0x5
 10160 33a1 03       		.byte	0x3
 10161 33a2 00000000 		.4byte	curr0_offset
 10162 33a6 44       		.uleb128 0x44
ARM GAS  C:\Users\IDONNO~1\AppData\Local\Temp\ccm1q34l.s 			page 180


 10163 33a7 A2130000 		.4byte	.LASF634
 10164 33ab 01       		.byte	0x1
 10165 33ac 3F02     		.2byte	0x23f
 10166 33ae 6B330000 		.4byte	0x336b
 10167 33b2 05       		.uleb128 0x5
 10168 33b3 03       		.byte	0x3
 10169 33b4 00000000 		.4byte	curr1_offset
 10170 33b8 44       		.uleb128 0x44
 10171 33b9 71000000 		.4byte	.LASF541
 10172 33bd 01       		.byte	0x1
 10173 33be 2404     		.2byte	0x424
 10174 33c0 15330000 		.4byte	0x3315
 10175 33c4 05       		.uleb128 0x5
 10176 33c5 03       		.byte	0x3
 10177 33c6 00000000 		.4byte	Theta
 10178 33ca 44       		.uleb128 0x44
 10179 33cb 44150000 		.4byte	.LASF635
 10180 33cf 01       		.byte	0x1
 10181 33d0 2504     		.2byte	0x425
 10182 33d2 15330000 		.4byte	0x3315
 10183 33d6 05       		.uleb128 0x5
 10184 33d7 03       		.byte	0x3
 10185 33d8 00000000 		.4byte	ThetaCal
 10186 33dc 44       		.uleb128 0x44
 10187 33dd 56090000 		.4byte	.LASF636
 10188 33e1 01       		.byte	0x1
 10189 33e2 2704     		.2byte	0x427
 10190 33e4 15330000 		.4byte	0x3315
 10191 33e8 05       		.uleb128 0x5
 10192 33e9 03       		.byte	0x3
 10193 33ea 00000000 		.4byte	Futi
 10194 33ee 44       		.uleb128 0x44
 10195 33ef 68160000 		.4byte	.LASF637
 10196 33f3 01       		.byte	0x1
 10197 33f4 3104     		.2byte	0x431
 10198 33f6 15330000 		.4byte	0x3315
 10199 33fa 05       		.uleb128 0x5
 10200 33fb 03       		.byte	0x3
 10201 33fc 00000000 		.4byte	Hall_KA
 10202 3400 44       		.uleb128 0x44
 10203 3401 1F180000 		.4byte	.LASF638
 10204 3405 01       		.byte	0x1
 10205 3406 3204     		.2byte	0x432
 10206 3408 15330000 		.4byte	0x3315
 10207 340c 05       		.uleb128 0x5
 10208 340d 03       		.byte	0x3
 10209 340e 00000000 		.4byte	Hall_KB
 10210 3412 44       		.uleb128 0x44
 10211 3413 51050000 		.4byte	.LASF639
 10212 3417 01       		.byte	0x1
 10213 3418 3404     		.2byte	0x434
 10214 341a 15330000 		.4byte	0x3315
 10215 341e 05       		.uleb128 0x5
 10216 341f 03       		.byte	0x3
 10217 3420 00000000 		.4byte	Hall_PIout
 10218 3424 44       		.uleb128 0x44
 10219 3425 731F0000 		.4byte	.LASF640
ARM GAS  C:\Users\IDONNO~1\AppData\Local\Temp\ccm1q34l.s 			page 181


 10220 3429 01       		.byte	0x1
 10221 342a 3504     		.2byte	0x435
 10222 342c 15330000 		.4byte	0x3315
 10223 3430 05       		.uleb128 0x5
 10224 3431 03       		.byte	0x3
 10225 3432 00000000 		.4byte	Hall_Err0
 10226 3436 54       		.uleb128 0x54
 10227 3437 891D0000 		.4byte	.LASF641
 10228 343b 02       		.byte	0x2
 10229 343c A706     		.2byte	0x6a7
 10230 343e 0B010000 		.4byte	0x10b
 10231 3442 55       		.uleb128 0x55
 10232 3443 636800   		.ascii	"ch\000"
 10233 3446 08       		.byte	0x8
 10234 3447 0902     		.2byte	0x209
 10235 3449 4A040000 		.4byte	0x44a
 10236 344d 19       		.uleb128 0x19
 10237 344e D70E0000 		.4byte	0xed7
 10238 3452 5D340000 		.4byte	0x345d
 10239 3456 1A       		.uleb128 0x1a
 10240 3457 D4060000 		.4byte	0x6d4
 10241 345b 0F       		.byte	0xf
 10242 345c 00       		.byte	0
 10243 345d 54       		.uleb128 0x54
 10244 345e AF180000 		.4byte	.LASF642
 10245 3462 10       		.byte	0x10
 10246 3463 BB01     		.2byte	0x1bb
 10247 3465 69340000 		.4byte	0x3469
 10248 3469 13       		.uleb128 0x13
 10249 346a 4D340000 		.4byte	0x344d
 10250 346e 19       		.uleb128 0x19
 10251 346f D5000000 		.4byte	0xd5
 10252 3473 7E340000 		.4byte	0x347e
 10253 3477 1A       		.uleb128 0x1a
 10254 3478 D4060000 		.4byte	0x6d4
 10255 347c 0B       		.byte	0xb
 10256 347d 00       		.byte	0
 10257 347e 56       		.uleb128 0x56
 10258 347f 4E0A0000 		.4byte	.LASF643
 10259 3483 01       		.byte	0x1
 10260 3484 CB       		.byte	0xcb
 10261 3485 6E340000 		.4byte	0x346e
 10262 3489 05       		.uleb128 0x5
 10263 348a 03       		.byte	0x3
 10264 348b 00000000 		.4byte	ADC_Value
 10265 348f 56       		.uleb128 0x56
 10266 3490 C30C0000 		.4byte	.LASF644
 10267 3494 01       		.byte	0x1
 10268 3495 D8       		.byte	0xd8
 10269 3496 2C000000 		.4byte	0x2c
 10270 349a 05       		.uleb128 0x5
 10271 349b 03       		.byte	0x3
 10272 349c 00000000 		.4byte	SpeedReference
 10273 34a0 57       		.uleb128 0x57
 10274 34a1 75474600 		.ascii	"uGF\000"
 10275 34a5 01       		.byte	0x1
 10276 34a6 39       		.byte	0x39
ARM GAS  C:\Users\IDONNO~1\AppData\Local\Temp\ccm1q34l.s 			page 182


 10277 34a7 491E0000 		.4byte	0x1e49
 10278 34ab 05       		.uleb128 0x5
 10279 34ac 03       		.byte	0x3
 10280 34ad 00000000 		.4byte	uGF
 10281 34b1 56       		.uleb128 0x56
 10282 34b2 94120000 		.4byte	.LASF645
 10283 34b6 01       		.byte	0x1
 10284 34b7 C3       		.byte	0xc3
 10285 34b8 2C000000 		.4byte	0x2c
 10286 34bc 05       		.uleb128 0x5
 10287 34bd 03       		.byte	0x3
 10288 34be 00000000 		.4byte	count
 10289 34c2 56       		.uleb128 0x56
 10290 34c3 0E010000 		.4byte	.LASF646
 10291 34c7 01       		.byte	0x1
 10292 34c8 C4       		.byte	0xc4
 10293 34c9 2C000000 		.4byte	0x2c
 10294 34cd 05       		.uleb128 0x5
 10295 34ce 03       		.byte	0x3
 10296 34cf 00000000 		.4byte	VelReq
 10297 34d3 56       		.uleb128 0x56
 10298 34d4 610B0000 		.4byte	.LASF647
 10299 34d8 01       		.byte	0x1
 10300 34d9 C8       		.byte	0xc8
 10301 34da E11F0000 		.4byte	0x1fe1
 10302 34de 05       		.uleb128 0x5
 10303 34df 03       		.byte	0x3
 10304 34e0 00000000 		.4byte	smc1
 10305 34e4 56       		.uleb128 0x56
 10306 34e5 E80A0000 		.4byte	.LASF648
 10307 34e9 01       		.byte	0x1
 10308 34ea CD       		.byte	0xcd
 10309 34eb 3B210000 		.4byte	0x213b
 10310 34ef 05       		.uleb128 0x5
 10311 34f0 03       		.byte	0x3
 10312 34f1 00000000 		.4byte	ParkParm
 10313 34f5 56       		.uleb128 0x56
 10314 34f6 63230000 		.4byte	.LASF649
 10315 34fa 01       		.byte	0x1
 10316 34fb CF       		.byte	0xcf
 10317 34fc 67200000 		.4byte	0x2067
 10318 3500 05       		.uleb128 0x5
 10319 3501 03       		.byte	0x3
 10320 3502 00000000 		.4byte	PIParmD
 10321 3506 56       		.uleb128 0x56
 10322 3507 74230000 		.4byte	.LASF650
 10323 350b 01       		.byte	0x1
 10324 350c D0       		.byte	0xd0
 10325 350d 67200000 		.4byte	0x2067
 10326 3511 05       		.uleb128 0x5
 10327 3512 03       		.byte	0x3
 10328 3513 00000000 		.4byte	PIParmQ
 10329 3517 56       		.uleb128 0x56
 10330 3518 7C230000 		.4byte	.LASF651
 10331 351c 01       		.byte	0x1
 10332 351d D1       		.byte	0xd1
 10333 351e 67200000 		.4byte	0x2067
ARM GAS  C:\Users\IDONNO~1\AppData\Local\Temp\ccm1q34l.s 			page 183


 10334 3522 05       		.uleb128 0x5
 10335 3523 03       		.byte	0x3
 10336 3524 00000000 		.4byte	PIParmW
 10337 3528 56       		.uleb128 0x56
 10338 3529 58240000 		.4byte	.LASF652
 10339 352d 01       		.byte	0x1
 10340 352e D2       		.byte	0xd2
 10341 352f 67200000 		.4byte	0x2067
 10342 3533 05       		.uleb128 0x5
 10343 3534 03       		.byte	0x3
 10344 3535 00000000 		.4byte	PIParmPLL
 10345 3539 56       		.uleb128 0x56
 10346 353a 36230000 		.4byte	.LASF653
 10347 353e 01       		.byte	0x1
 10348 353f D4       		.byte	0xd4
 10349 3540 73210000 		.4byte	0x2173
 10350 3544 05       		.uleb128 0x5
 10351 3545 03       		.byte	0x3
 10352 3546 00000000 		.4byte	CtrlParm
 10353 354a 56       		.uleb128 0x56
 10354 354b E71A0000 		.4byte	.LASF654
 10355 354f 01       		.byte	0x1
 10356 3550 D5       		.byte	0xd5
 10357 3551 72220000 		.4byte	0x2272
 10358 3555 05       		.uleb128 0x5
 10359 3556 03       		.byte	0x3
 10360 3557 00000000 		.4byte	SVGenParm
 10361 355b 56       		.uleb128 0x56
 10362 355c 460C0000 		.4byte	.LASF655
 10363 3560 01       		.byte	0x1
 10364 3561 D6       		.byte	0xd6
 10365 3562 F7210000 		.4byte	0x21f7
 10366 3566 05       		.uleb128 0x5
 10367 3567 03       		.byte	0x3
 10368 3568 00000000 		.4byte	FdWeakParm
 10369 356c 56       		.uleb128 0x56
 10370 356d 3F0E0000 		.4byte	.LASF656
 10371 3571 01       		.byte	0x1
 10372 3572 D9       		.byte	0xd9
 10373 3573 3E000000 		.4byte	0x3e
 10374 3577 05       		.uleb128 0x5
 10375 3578 03       		.byte	0x3
 10376 3579 00000000 		.4byte	switching_frequency_now
 10377 357d 56       		.uleb128 0x56
 10378 357e A91C0000 		.4byte	.LASF657
 10379 3582 01       		.byte	0x1
 10380 3583 DD       		.byte	0xdd
 10381 3584 25000000 		.4byte	0x25
 10382 3588 05       		.uleb128 0x5
 10383 3589 03       		.byte	0x3
 10384 358a 00000000 		.4byte	AccumTheta
 10385 358e 56       		.uleb128 0x56
 10386 358f 8E0C0000 		.4byte	.LASF658
 10387 3593 01       		.byte	0x1
 10388 3594 DE       		.byte	0xde
 10389 3595 DB1D0000 		.4byte	0x1ddb
 10390 3599 05       		.uleb128 0x5
ARM GAS  C:\Users\IDONNO~1\AppData\Local\Temp\ccm1q34l.s 			page 184


 10391 359a 03       		.byte	0x3
 10392 359b 00000000 		.4byte	AccumThetaCnt
 10393 359f 58       		.uleb128 0x58
 10394 35a0 3F140000 		.4byte	.LASF659
 10395 35a4 01       		.byte	0x1
 10396 35a5 1804     		.2byte	0x418
 10397 35a7 25000000 		.4byte	0x25
 10398 35ab 05       		.uleb128 0x5
 10399 35ac 03       		.byte	0x3
 10400 35ad 00000000 		.4byte	HallPLLlead
 10401 35b1 58       		.uleb128 0x58
 10402 35b2 F10F0000 		.4byte	.LASF660
 10403 35b6 01       		.byte	0x1
 10404 35b7 1904     		.2byte	0x419
 10405 35b9 25000000 		.4byte	0x25
 10406 35bd 05       		.uleb128 0x5
 10407 35be 03       		.byte	0x3
 10408 35bf 00000000 		.4byte	HallPLLlead1
 10409 35c3 58       		.uleb128 0x58
 10410 35c4 FE0F0000 		.4byte	.LASF661
 10411 35c8 01       		.byte	0x1
 10412 35c9 1A04     		.2byte	0x41a
 10413 35cb 25000000 		.4byte	0x25
 10414 35cf 05       		.uleb128 0x5
 10415 35d0 03       		.byte	0x3
 10416 35d1 00000000 		.4byte	HallPLLlead2
 10417 35d5 58       		.uleb128 0x58
 10418 35d6 67000000 		.4byte	.LASF662
 10419 35da 01       		.byte	0x1
 10420 35db 1B04     		.2byte	0x41b
 10421 35dd 25000000 		.4byte	0x25
 10422 35e1 05       		.uleb128 0x5
 10423 35e2 03       		.byte	0x3
 10424 35e3 00000000 		.4byte	HallPLLqe
 10425 35e7 58       		.uleb128 0x58
 10426 35e8 B41C0000 		.4byte	.LASF663
 10427 35ec 01       		.byte	0x1
 10428 35ed 1C04     		.2byte	0x41c
 10429 35ef 25000000 		.4byte	0x25
 10430 35f3 05       		.uleb128 0x5
 10431 35f4 03       		.byte	0x3
 10432 35f5 00000000 		.4byte	HallPLLde
 10433 35f9 58       		.uleb128 0x58
 10434 35fa BE0F0000 		.4byte	.LASF664
 10435 35fe 01       		.byte	0x1
 10436 35ff 1D04     		.2byte	0x41d
 10437 3601 25000000 		.4byte	0x25
 10438 3605 05       		.uleb128 0x5
 10439 3606 03       		.byte	0x3
 10440 3607 00000000 		.4byte	HallPLLde1
 10441 360b 58       		.uleb128 0x58
 10442 360c 56100000 		.4byte	.LASF665
 10443 3610 01       		.byte	0x1
 10444 3611 1E04     		.2byte	0x41e
 10445 3613 25000000 		.4byte	0x25
 10446 3617 05       		.uleb128 0x5
 10447 3618 03       		.byte	0x3
ARM GAS  C:\Users\IDONNO~1\AppData\Local\Temp\ccm1q34l.s 			page 185


 10448 3619 00000000 		.4byte	HallPLLdef
 10449 361d 58       		.uleb128 0x58
 10450 361e 661C0000 		.4byte	.LASF666
 10451 3622 01       		.byte	0x1
 10452 3623 1F04     		.2byte	0x41f
 10453 3625 25000000 		.4byte	0x25
 10454 3629 05       		.uleb128 0x5
 10455 362a 03       		.byte	0x3
 10456 362b 00000000 		.4byte	HallPLLdef1
 10457 362f 58       		.uleb128 0x58
 10458 3630 D81D0000 		.4byte	.LASF667
 10459 3634 01       		.byte	0x1
 10460 3635 2804     		.2byte	0x428
 10461 3637 25000000 		.4byte	0x25
 10462 363b 05       		.uleb128 0x5
 10463 363c 03       		.byte	0x3
 10464 363d 00000000 		.4byte	Wpll
 10465 3641 58       		.uleb128 0x58
 10466 3642 0F0C0000 		.4byte	.LASF668
 10467 3646 01       		.byte	0x1
 10468 3647 2904     		.2byte	0x429
 10469 3649 25000000 		.4byte	0x25
 10470 364d 05       		.uleb128 0x5
 10471 364e 03       		.byte	0x3
 10472 364f 00000000 		.4byte	Wpll1
 10473 3653 58       		.uleb128 0x58
 10474 3654 7E0C0000 		.4byte	.LASF669
 10475 3658 01       		.byte	0x1
 10476 3659 2A04     		.2byte	0x42a
 10477 365b 25000000 		.4byte	0x25
 10478 365f 05       		.uleb128 0x5
 10479 3660 03       		.byte	0x3
 10480 3661 00000000 		.4byte	Wpllp
 10481 3665 58       		.uleb128 0x58
 10482 3666 780C0000 		.4byte	.LASF670
 10483 366a 01       		.byte	0x1
 10484 366b 2B04     		.2byte	0x42b
 10485 366d 25000000 		.4byte	0x25
 10486 3671 05       		.uleb128 0x5
 10487 3672 03       		.byte	0x3
 10488 3673 00000000 		.4byte	Wplli
 10489 3677 58       		.uleb128 0x58
 10490 3678 AF010000 		.4byte	.LASF671
 10491 367c 01       		.byte	0x1
 10492 367d 2D04     		.2byte	0x42d
 10493 367f 25000000 		.4byte	0x25
 10494 3683 05       		.uleb128 0x5
 10495 3684 03       		.byte	0x3
 10496 3685 00000000 		.4byte	Kpll
 10497 3689 58       		.uleb128 0x58
 10498 368a 2F030000 		.4byte	.LASF672
 10499 368e 01       		.byte	0x1
 10500 368f 2E04     		.2byte	0x42e
 10501 3691 25000000 		.4byte	0x25
 10502 3695 05       		.uleb128 0x5
 10503 3696 03       		.byte	0x3
 10504 3697 00000000 		.4byte	Ipll
ARM GAS  C:\Users\IDONNO~1\AppData\Local\Temp\ccm1q34l.s 			page 186


 10505 369b 58       		.uleb128 0x58
 10506 369c A1200000 		.4byte	.LASF673
 10507 36a0 01       		.byte	0x1
 10508 36a1 3804     		.2byte	0x438
 10509 36a3 25000000 		.4byte	0x25
 10510 36a7 05       		.uleb128 0x5
 10511 36a8 03       		.byte	0x3
 10512 36a9 00000000 		.4byte	HallPLLA
 10513 36ad 58       		.uleb128 0x58
 10514 36ae 09080000 		.4byte	.LASF674
 10515 36b2 01       		.byte	0x1
 10516 36b3 3904     		.2byte	0x439
 10517 36b5 25000000 		.4byte	0x25
 10518 36b9 05       		.uleb128 0x5
 10519 36ba 03       		.byte	0x3
 10520 36bb 00000000 		.4byte	HallPLLA1
 10521 36bf 58       		.uleb128 0x58
 10522 36c0 58130000 		.4byte	.LASF675
 10523 36c4 01       		.byte	0x1
 10524 36c5 3A04     		.2byte	0x43a
 10525 36c7 25000000 		.4byte	0x25
 10526 36cb 05       		.uleb128 0x5
 10527 36cc 03       		.byte	0x3
 10528 36cd 00000000 		.4byte	HallPLLB
 10529 36d1 58       		.uleb128 0x58
 10530 36d2 4E030000 		.4byte	.LASF676
 10531 36d6 01       		.byte	0x1
 10532 36d7 3C04     		.2byte	0x43c
 10533 36d9 25000000 		.4byte	0x25
 10534 36dd 05       		.uleb128 0x5
 10535 36de 03       		.byte	0x3
 10536 36df 00000000 		.4byte	HallPLLA_cos3th
 10537 36e3 58       		.uleb128 0x58
 10538 36e4 121A0000 		.4byte	.LASF677
 10539 36e8 01       		.byte	0x1
 10540 36e9 3D04     		.2byte	0x43d
 10541 36eb 25000000 		.4byte	0x25
 10542 36ef 05       		.uleb128 0x5
 10543 36f0 03       		.byte	0x3
 10544 36f1 00000000 		.4byte	HallPLLA_sin3th
 10545 36f5 58       		.uleb128 0x58
 10546 36f6 F81A0000 		.4byte	.LASF678
 10547 36fa 01       		.byte	0x1
 10548 36fb 3E04     		.2byte	0x43e
 10549 36fd 25000000 		.4byte	0x25
 10550 3701 05       		.uleb128 0x5
 10551 3702 03       		.byte	0x3
 10552 3703 00000000 		.4byte	HallPLLB_sin3th
 10553 3707 58       		.uleb128 0x58
 10554 3708 21040000 		.4byte	.LASF679
 10555 370c 01       		.byte	0x1
 10556 370d 3F04     		.2byte	0x43f
 10557 370f 25000000 		.4byte	0x25
 10558 3713 05       		.uleb128 0x5
 10559 3714 03       		.byte	0x3
 10560 3715 00000000 		.4byte	HallPLLB_cos3th
 10561 3719 58       		.uleb128 0x58
ARM GAS  C:\Users\IDONNO~1\AppData\Local\Temp\ccm1q34l.s 			page 187


 10562 371a 311D0000 		.4byte	.LASF680
 10563 371e 01       		.byte	0x1
 10564 371f 4104     		.2byte	0x441
 10565 3721 25000000 		.4byte	0x25
 10566 3725 05       		.uleb128 0x5
 10567 3726 03       		.byte	0x3
 10568 3727 00000000 		.4byte	HallPLLA_cos3th_Integral
 10569 372b 58       		.uleb128 0x58
 10570 372c 4A230000 		.4byte	.LASF681
 10571 3730 01       		.byte	0x1
 10572 3731 4204     		.2byte	0x442
 10573 3733 25000000 		.4byte	0x25
 10574 3737 05       		.uleb128 0x5
 10575 3738 03       		.byte	0x3
 10576 3739 00000000 		.4byte	HallPLLA_sin3th_Integral
 10577 373d 58       		.uleb128 0x58
 10578 373e 8A1F0000 		.4byte	.LASF682
 10579 3742 01       		.byte	0x1
 10580 3743 4304     		.2byte	0x443
 10581 3745 25000000 		.4byte	0x25
 10582 3749 05       		.uleb128 0x5
 10583 374a 03       		.byte	0x3
 10584 374b 00000000 		.4byte	HallPLLB_sin3th_Integral
 10585 374f 58       		.uleb128 0x58
 10586 3750 FC150000 		.4byte	.LASF683
 10587 3754 01       		.byte	0x1
 10588 3755 4404     		.2byte	0x444
 10589 3757 25000000 		.4byte	0x25
 10590 375b 05       		.uleb128 0x5
 10591 375c 03       		.byte	0x3
 10592 375d 00000000 		.4byte	HallPLLB_cos3th_Integral
 10593 3761 58       		.uleb128 0x58
 10594 3762 B1030000 		.4byte	.LASF684
 10595 3766 01       		.byte	0x1
 10596 3767 4604     		.2byte	0x446
 10597 3769 25000000 		.4byte	0x25
 10598 376d 05       		.uleb128 0x5
 10599 376e 03       		.byte	0x3
 10600 376f 00000000 		.4byte	HallPLLA_old
 10601 3773 58       		.uleb128 0x58
 10602 3774 C7200000 		.4byte	.LASF685
 10603 3778 01       		.byte	0x1
 10604 3779 4704     		.2byte	0x447
 10605 377b 25000000 		.4byte	0x25
 10606 377f 05       		.uleb128 0x5
 10607 3780 03       		.byte	0x3
 10608 3781 00000000 		.4byte	HallPLLB_old
 10609 3785 58       		.uleb128 0x58
 10610 3786 35210000 		.4byte	.LASF686
 10611 378a 01       		.byte	0x1
 10612 378b 4904     		.2byte	0x449
 10613 378d 25000000 		.4byte	0x25
 10614 3791 05       		.uleb128 0x5
 10615 3792 03       		.byte	0x3
 10616 3793 00000000 		.4byte	HallPLLA_filtered
 10617 3797 58       		.uleb128 0x58
 10618 3798 4F040000 		.4byte	.LASF687
ARM GAS  C:\Users\IDONNO~1\AppData\Local\Temp\ccm1q34l.s 			page 188


 10619 379c 01       		.byte	0x1
 10620 379d 4A04     		.2byte	0x44a
 10621 379f 25000000 		.4byte	0x25
 10622 37a3 05       		.uleb128 0x5
 10623 37a4 03       		.byte	0x3
 10624 37a5 00000000 		.4byte	HallPLLB_filtered
 10625 37a9 58       		.uleb128 0x58
 10626 37aa 62240000 		.4byte	.LASF688
 10627 37ae 01       		.byte	0x1
 10628 37af 4C04     		.2byte	0x44c
 10629 37b1 25000000 		.4byte	0x25
 10630 37b5 05       		.uleb128 0x5
 10631 37b6 03       		.byte	0x3
 10632 37b7 00000000 		.4byte	Hall_SinCos
 10633 37bb 58       		.uleb128 0x58
 10634 37bc DB1A0000 		.4byte	.LASF689
 10635 37c0 01       		.byte	0x1
 10636 37c1 4D04     		.2byte	0x44d
 10637 37c3 25000000 		.4byte	0x25
 10638 37c7 05       		.uleb128 0x5
 10639 37c8 03       		.byte	0x3
 10640 37c9 00000000 		.4byte	Hall_CosSin
 10641 37cd 58       		.uleb128 0x58
 10642 37ce 60080000 		.4byte	.LASF690
 10643 37d2 01       		.byte	0x1
 10644 37d3 4F04     		.2byte	0x44f
 10645 37d5 25000000 		.4byte	0x25
 10646 37d9 05       		.uleb128 0x5
 10647 37da 03       		.byte	0x3
 10648 37db 00000000 		.4byte	Gamma
 10649 37df 58       		.uleb128 0x58
 10650 37e0 FD0E0000 		.4byte	.LASF691
 10651 37e4 01       		.byte	0x1
 10652 37e5 5104     		.2byte	0x451
 10653 37e7 25000000 		.4byte	0x25
 10654 37eb 05       		.uleb128 0x5
 10655 37ec 03       		.byte	0x3
 10656 37ed 00000000 		.4byte	costh
 10657 37f1 58       		.uleb128 0x58
 10658 37f2 7D110000 		.4byte	.LASF692
 10659 37f6 01       		.byte	0x1
 10660 37f7 5204     		.2byte	0x452
 10661 37f9 25000000 		.4byte	0x25
 10662 37fd 05       		.uleb128 0x5
 10663 37fe 03       		.byte	0x3
 10664 37ff 00000000 		.4byte	sinth
 10665 3803 58       		.uleb128 0x58
 10666 3804 D7070000 		.4byte	.LASF693
 10667 3808 01       		.byte	0x1
 10668 3809 5404     		.2byte	0x454
 10669 380b 25000000 		.4byte	0x25
 10670 380f 05       		.uleb128 0x5
 10671 3810 03       		.byte	0x3
 10672 3811 00000000 		.4byte	Asin3th
 10673 3815 58       		.uleb128 0x58
 10674 3816 040B0000 		.4byte	.LASF694
 10675 381a 01       		.byte	0x1
ARM GAS  C:\Users\IDONNO~1\AppData\Local\Temp\ccm1q34l.s 			page 189


 10676 381b 5504     		.2byte	0x455
 10677 381d 25000000 		.4byte	0x25
 10678 3821 05       		.uleb128 0x5
 10679 3822 03       		.byte	0x3
 10680 3823 00000000 		.4byte	Acos3th
 10681 3827 58       		.uleb128 0x58
 10682 3828 97190000 		.4byte	.LASF695
 10683 382c 01       		.byte	0x1
 10684 382d 5604     		.2byte	0x456
 10685 382f 25000000 		.4byte	0x25
 10686 3833 05       		.uleb128 0x5
 10687 3834 03       		.byte	0x3
 10688 3835 00000000 		.4byte	Bsin3th
 10689 3839 58       		.uleb128 0x58
 10690 383a 9D020000 		.4byte	.LASF696
 10691 383e 01       		.byte	0x1
 10692 383f 5704     		.2byte	0x457
 10693 3841 25000000 		.4byte	0x25
 10694 3845 05       		.uleb128 0x5
 10695 3846 03       		.byte	0x3
 10696 3847 00000000 		.4byte	Bcos3th
 10697 384b 58       		.uleb128 0x58
 10698 384c C2180000 		.4byte	.LASF697
 10699 3850 01       		.byte	0x1
 10700 3851 5804     		.2byte	0x458
 10701 3853 25000000 		.4byte	0x25
 10702 3857 05       		.uleb128 0x5
 10703 3858 03       		.byte	0x3
 10704 3859 00000000 		.4byte	ANF_PLLA
 10705 385d 58       		.uleb128 0x58
 10706 385e CB180000 		.4byte	.LASF698
 10707 3862 01       		.byte	0x1
 10708 3863 5904     		.2byte	0x459
 10709 3865 25000000 		.4byte	0x25
 10710 3869 05       		.uleb128 0x5
 10711 386a 03       		.byte	0x3
 10712 386b 00000000 		.4byte	ANF_PLLB
 10713 386f 58       		.uleb128 0x58
 10714 3870 590D0000 		.4byte	.LASF699
 10715 3874 01       		.byte	0x1
 10716 3875 5B04     		.2byte	0x45b
 10717 3877 25000000 		.4byte	0x25
 10718 387b 05       		.uleb128 0x5
 10719 387c 03       		.byte	0x3
 10720 387d 00000000 		.4byte	cos3th
 10721 3881 58       		.uleb128 0x58
 10722 3882 FA010000 		.4byte	.LASF700
 10723 3886 01       		.byte	0x1
 10724 3887 5C04     		.2byte	0x45c
 10725 3889 25000000 		.4byte	0x25
 10726 388d 05       		.uleb128 0x5
 10727 388e 03       		.byte	0x3
 10728 388f 00000000 		.4byte	sin3th
 10729 3893 59       		.uleb128 0x59
 10730 3894 4C010000 		.4byte	.LASF701
 10731 3898 4C010000 		.4byte	.LASF701
 10732 389c 1C       		.byte	0x1c
ARM GAS  C:\Users\IDONNO~1\AppData\Local\Temp\ccm1q34l.s 			page 190


 10733 389d 58       		.byte	0x58
 10734 389e 5A       		.uleb128 0x5a
 10735 389f 81160000 		.4byte	.LASF702
 10736 38a3 81160000 		.4byte	.LASF702
 10737 38a7 1D       		.byte	0x1d
 10738 38a8 3F01     		.2byte	0x13f
 10739 38aa 5A       		.uleb128 0x5a
 10740 38ab ED040000 		.4byte	.LASF703
 10741 38af ED040000 		.4byte	.LASF703
 10742 38b3 1D       		.byte	0x1d
 10743 38b4 4001     		.2byte	0x140
 10744 38b6 59       		.uleb128 0x59
 10745 38b7 721D0000 		.4byte	.LASF704
 10746 38bb 721D0000 		.4byte	.LASF704
 10747 38bf 1E       		.byte	0x1e
 10748 38c0 96       		.byte	0x96
 10749 38c1 59       		.uleb128 0x59
 10750 38c2 75150000 		.4byte	.LASF705
 10751 38c6 75150000 		.4byte	.LASF705
 10752 38ca 1F       		.byte	0x1f
 10753 38cb 23       		.byte	0x23
 10754 38cc 5A       		.uleb128 0x5a
 10755 38cd 820D0000 		.4byte	.LASF706
 10756 38d1 820D0000 		.4byte	.LASF706
 10757 38d5 15       		.byte	0x15
 10758 38d6 0204     		.2byte	0x402
 10759 38d8 5A       		.uleb128 0x5a
 10760 38d9 081C0000 		.4byte	.LASF707
 10761 38dd 081C0000 		.4byte	.LASF707
 10762 38e1 20       		.byte	0x20
 10763 38e2 5C03     		.2byte	0x35c
 10764 38e4 5A       		.uleb128 0x5a
 10765 38e5 ED140000 		.4byte	.LASF708
 10766 38e9 ED140000 		.4byte	.LASF708
 10767 38ed 15       		.byte	0x15
 10768 38ee 0304     		.2byte	0x403
 10769 38f0 5A       		.uleb128 0x5a
 10770 38f1 CB070000 		.4byte	.LASF709
 10771 38f5 CB070000 		.4byte	.LASF709
 10772 38f9 15       		.byte	0x15
 10773 38fa 1304     		.2byte	0x413
 10774 38fc 5A       		.uleb128 0x5a
 10775 38fd 4D0D0000 		.4byte	.LASF710
 10776 3901 4D0D0000 		.4byte	.LASF710
 10777 3905 15       		.byte	0x15
 10778 3906 1404     		.2byte	0x414
 10779 3908 5A       		.uleb128 0x5a
 10780 3909 7A0E0000 		.4byte	.LASF711
 10781 390d 7A0E0000 		.4byte	.LASF711
 10782 3911 15       		.byte	0x15
 10783 3912 1504     		.2byte	0x415
 10784 3914 5A       		.uleb128 0x5a
 10785 3915 7B050000 		.4byte	.LASF712
 10786 3919 7B050000 		.4byte	.LASF712
 10787 391d 15       		.byte	0x15
 10788 391e 1604     		.2byte	0x416
 10789 3920 5A       		.uleb128 0x5a
ARM GAS  C:\Users\IDONNO~1\AppData\Local\Temp\ccm1q34l.s 			page 191


 10790 3921 27150000 		.4byte	.LASF713
 10791 3925 27150000 		.4byte	.LASF713
 10792 3929 15       		.byte	0x15
 10793 392a 2104     		.2byte	0x421
 10794 392c 5A       		.uleb128 0x5a
 10795 392d 47200000 		.4byte	.LASF714
 10796 3931 47200000 		.4byte	.LASF714
 10797 3935 15       		.byte	0x15
 10798 3936 2204     		.2byte	0x422
 10799 3938 5A       		.uleb128 0x5a
 10800 3939 36070000 		.4byte	.LASF715
 10801 393d 36070000 		.4byte	.LASF715
 10802 3941 15       		.byte	0x15
 10803 3942 2304     		.2byte	0x423
 10804 3944 5A       		.uleb128 0x5a
 10805 3945 F5100000 		.4byte	.LASF716
 10806 3949 F5100000 		.4byte	.LASF716
 10807 394d 15       		.byte	0x15
 10808 394e 2404     		.2byte	0x424
 10809 3950 5A       		.uleb128 0x5a
 10810 3951 84100000 		.4byte	.LASF717
 10811 3955 84100000 		.4byte	.LASF717
 10812 3959 15       		.byte	0x15
 10813 395a 4504     		.2byte	0x445
 10814 395c 5A       		.uleb128 0x5a
 10815 395d 2D090000 		.4byte	.LASF718
 10816 3961 2D090000 		.4byte	.LASF718
 10817 3965 15       		.byte	0x15
 10818 3966 4904     		.2byte	0x449
 10819 3968 5A       		.uleb128 0x5a
 10820 3969 4E1A0000 		.4byte	.LASF719
 10821 396d 4E1A0000 		.4byte	.LASF719
 10822 3971 15       		.byte	0x15
 10823 3972 0D04     		.2byte	0x40d
 10824 3974 5A       		.uleb128 0x5a
 10825 3975 F11B0000 		.4byte	.LASF720
 10826 3979 F11B0000 		.4byte	.LASF720
 10827 397d 20       		.byte	0x20
 10828 397e 5803     		.2byte	0x358
 10829 3980 5A       		.uleb128 0x5a
 10830 3981 10100000 		.4byte	.LASF721
 10831 3985 10100000 		.4byte	.LASF721
 10832 3989 10       		.byte	0x10
 10833 398a C201     		.2byte	0x1c2
 10834 398c 5A       		.uleb128 0x5a
 10835 398d CD140000 		.4byte	.LASF722
 10836 3991 CD140000 		.4byte	.LASF722
 10837 3995 13       		.byte	0x13
 10838 3996 3502     		.2byte	0x235
 10839 3998 5A       		.uleb128 0x5a
 10840 3999 0B050000 		.4byte	.LASF723
 10841 399d 0B050000 		.4byte	.LASF723
 10842 39a1 13       		.byte	0x13
 10843 39a2 3702     		.2byte	0x237
 10844 39a4 5A       		.uleb128 0x5a
 10845 39a5 9A120000 		.4byte	.LASF724
 10846 39a9 9A120000 		.4byte	.LASF724
ARM GAS  C:\Users\IDONNO~1\AppData\Local\Temp\ccm1q34l.s 			page 192


 10847 39ad 13       		.byte	0x13
 10848 39ae 4E02     		.2byte	0x24e
 10849 39b0 5A       		.uleb128 0x5a
 10850 39b1 AA1B0000 		.4byte	.LASF725
 10851 39b5 AA1B0000 		.4byte	.LASF725
 10852 39b9 14       		.byte	0x14
 10853 39ba 5202     		.2byte	0x252
 10854 39bc 5A       		.uleb128 0x5a
 10855 39bd 68050000 		.4byte	.LASF726
 10856 39c1 68050000 		.4byte	.LASF726
 10857 39c5 14       		.byte	0x14
 10858 39c6 5002     		.2byte	0x250
 10859 39c8 59       		.uleb128 0x59
 10860 39c9 DB1B0000 		.4byte	.LASF727
 10861 39cd DB1B0000 		.4byte	.LASF727
 10862 39d1 21       		.byte	0x21
 10863 39d2 32       		.byte	0x32
 10864 39d3 5A       		.uleb128 0x5a
 10865 39d4 E6230000 		.4byte	.LASF728
 10866 39d8 E6230000 		.4byte	.LASF728
 10867 39dc 14       		.byte	0x14
 10868 39dd 6D02     		.2byte	0x26d
 10869 39df 5A       		.uleb128 0x5a
 10870 39e0 341E0000 		.4byte	.LASF729
 10871 39e4 341E0000 		.4byte	.LASF729
 10872 39e8 14       		.byte	0x14
 10873 39e9 7302     		.2byte	0x273
 10874 39eb 5A       		.uleb128 0x5a
 10875 39ec D8050000 		.4byte	.LASF730
 10876 39f0 D8050000 		.4byte	.LASF730
 10877 39f4 14       		.byte	0x14
 10878 39f5 7402     		.2byte	0x274
 10879 39f7 5A       		.uleb128 0x5a
 10880 39f8 F0200000 		.4byte	.LASF731
 10881 39fc F0200000 		.4byte	.LASF731
 10882 3a00 14       		.byte	0x14
 10883 3a01 7102     		.2byte	0x271
 10884 3a03 5A       		.uleb128 0x5a
 10885 3a04 A30A0000 		.4byte	.LASF732
 10886 3a08 A30A0000 		.4byte	.LASF732
 10887 3a0c 14       		.byte	0x14
 10888 3a0d 7C02     		.2byte	0x27c
 10889 3a0f 59       		.uleb128 0x59
 10890 3a10 31200000 		.4byte	.LASF733
 10891 3a14 31200000 		.4byte	.LASF733
 10892 3a18 12       		.byte	0x12
 10893 3a19 9F       		.byte	0x9f
 10894 3a1a 5A       		.uleb128 0x5a
 10895 3a1b AF220000 		.4byte	.LASF734
 10896 3a1f AF220000 		.4byte	.LASF734
 10897 3a23 14       		.byte	0x14
 10898 3a24 5402     		.2byte	0x254
 10899 3a26 5A       		.uleb128 0x5a
 10900 3a27 1A230000 		.4byte	.LASF735
 10901 3a2b 1A230000 		.4byte	.LASF735
 10902 3a2f 15       		.byte	0x15
 10903 3a30 4704     		.2byte	0x447
ARM GAS  C:\Users\IDONNO~1\AppData\Local\Temp\ccm1q34l.s 			page 193


 10904 3a32 5A       		.uleb128 0x5a
 10905 3a33 751E0000 		.4byte	.LASF736
 10906 3a37 751E0000 		.4byte	.LASF736
 10907 3a3b 15       		.byte	0x15
 10908 3a3c 6204     		.2byte	0x462
 10909 3a3e 5A       		.uleb128 0x5a
 10910 3a3f 34030000 		.4byte	.LASF737
 10911 3a43 34030000 		.4byte	.LASF737
 10912 3a47 15       		.byte	0x15
 10913 3a48 6404     		.2byte	0x464
 10914 3a4a 5A       		.uleb128 0x5a
 10915 3a4b C1060000 		.4byte	.LASF738
 10916 3a4f C1060000 		.4byte	.LASF738
 10917 3a53 15       		.byte	0x15
 10918 3a54 6104     		.2byte	0x461
 10919 3a56 5A       		.uleb128 0x5a
 10920 3a57 80120000 		.4byte	.LASF739
 10921 3a5b 80120000 		.4byte	.LASF739
 10922 3a5f 15       		.byte	0x15
 10923 3a60 6304     		.2byte	0x463
 10924 3a62 5A       		.uleb128 0x5a
 10925 3a63 5B0C0000 		.4byte	.LASF740
 10926 3a67 5B0C0000 		.4byte	.LASF740
 10927 3a6b 15       		.byte	0x15
 10928 3a6c 1004     		.2byte	0x410
 10929 3a6e 5A       		.uleb128 0x5a
 10930 3a6f 9A230000 		.4byte	.LASF741
 10931 3a73 9A230000 		.4byte	.LASF741
 10932 3a77 20       		.byte	0x20
 10933 3a78 5B03     		.2byte	0x35b
 10934 3a7a 59       		.uleb128 0x59
 10935 3a7b CA130000 		.4byte	.LASF742
 10936 3a7f CA130000 		.4byte	.LASF742
 10937 3a83 1F       		.byte	0x1f
 10938 3a84 24       		.byte	0x24
 10939 3a85 59       		.uleb128 0x59
 10940 3a86 C3040000 		.4byte	.LASF743
 10941 3a8a C3040000 		.4byte	.LASF743
 10942 3a8e 1C       		.byte	0x1c
 10943 3a8f 55       		.byte	0x55
 10944 3a90 59       		.uleb128 0x59
 10945 3a91 42090000 		.4byte	.LASF744
 10946 3a95 42090000 		.4byte	.LASF744
 10947 3a99 1C       		.byte	0x1c
 10948 3a9a 56       		.byte	0x56
 10949 3a9b 59       		.uleb128 0x59
 10950 3a9c 4C000000 		.4byte	.LASF745
 10951 3aa0 4C000000 		.4byte	.LASF745
 10952 3aa4 1C       		.byte	0x1c
 10953 3aa5 5B       		.byte	0x5b
 10954 3aa6 59       		.uleb128 0x59
 10955 3aa7 72060000 		.4byte	.LASF746
 10956 3aab 72060000 		.4byte	.LASF746
 10957 3aaf 1B       		.byte	0x1b
 10958 3ab0 20       		.byte	0x20
 10959 3ab1 5A       		.uleb128 0x5a
 10960 3ab2 981A0000 		.4byte	.LASF747
ARM GAS  C:\Users\IDONNO~1\AppData\Local\Temp\ccm1q34l.s 			page 194


 10961 3ab6 981A0000 		.4byte	.LASF747
 10962 3aba 1D       		.byte	0x1d
 10963 3abb 5401     		.2byte	0x154
 10964 3abd 59       		.uleb128 0x59
 10965 3abe 3D100000 		.4byte	.LASF748
 10966 3ac2 3D100000 		.4byte	.LASF748
 10967 3ac6 1B       		.byte	0x1b
 10968 3ac7 22       		.byte	0x22
 10969 3ac8 5A       		.uleb128 0x5a
 10970 3ac9 AF020000 		.4byte	.LASF749
 10971 3acd AF020000 		.4byte	.LASF749
 10972 3ad1 14       		.byte	0x14
 10973 3ad2 7902     		.2byte	0x279
 10974 3ad4 5A       		.uleb128 0x5a
 10975 3ad5 7B200000 		.4byte	.LASF750
 10976 3ad9 7B200000 		.4byte	.LASF750
 10977 3add 15       		.byte	0x15
 10978 3ade 1804     		.2byte	0x418
 10979 3ae0 5A       		.uleb128 0x5a
 10980 3ae1 F8090000 		.4byte	.LASF751
 10981 3ae5 F8090000 		.4byte	.LASF751
 10982 3ae9 15       		.byte	0x15
 10983 3aea 3404     		.2byte	0x434
 10984 3aec 5A       		.uleb128 0x5a
 10985 3aed 3B200000 		.4byte	.LASF752
 10986 3af1 3B200000 		.4byte	.LASF752
 10987 3af5 15       		.byte	0x15
 10988 3af6 3504     		.2byte	0x435
 10989 3af8 5A       		.uleb128 0x5a
 10990 3af9 B81F0000 		.4byte	.LASF753
 10991 3afd B81F0000 		.4byte	.LASF753
 10992 3b01 15       		.byte	0x15
 10993 3b02 4D04     		.2byte	0x44d
 10994 3b04 00       		.byte	0
 10995              		.section	.debug_abbrev,"",%progbits
 10996              	.Ldebug_abbrev0:
 10997 0000 01       		.uleb128 0x1
 10998 0001 11       		.uleb128 0x11
 10999 0002 01       		.byte	0x1
 11000 0003 25       		.uleb128 0x25
 11001 0004 0E       		.uleb128 0xe
 11002 0005 13       		.uleb128 0x13
 11003 0006 0B       		.uleb128 0xb
 11004 0007 03       		.uleb128 0x3
 11005 0008 0E       		.uleb128 0xe
 11006 0009 1B       		.uleb128 0x1b
 11007 000a 0E       		.uleb128 0xe
 11008 000b 55       		.uleb128 0x55
 11009 000c 17       		.uleb128 0x17
 11010 000d 11       		.uleb128 0x11
 11011 000e 01       		.uleb128 0x1
 11012 000f 10       		.uleb128 0x10
 11013 0010 17       		.uleb128 0x17
 11014 0011 00       		.byte	0
 11015 0012 00       		.byte	0
 11016 0013 02       		.uleb128 0x2
 11017 0014 24       		.uleb128 0x24
ARM GAS  C:\Users\IDONNO~1\AppData\Local\Temp\ccm1q34l.s 			page 195


 11018 0015 00       		.byte	0
 11019 0016 0B       		.uleb128 0xb
 11020 0017 0B       		.uleb128 0xb
 11021 0018 3E       		.uleb128 0x3e
 11022 0019 0B       		.uleb128 0xb
 11023 001a 03       		.uleb128 0x3
 11024 001b 0E       		.uleb128 0xe
 11025 001c 00       		.byte	0
 11026 001d 00       		.byte	0
 11027 001e 03       		.uleb128 0x3
 11028 001f 24       		.uleb128 0x24
 11029 0020 00       		.byte	0
 11030 0021 0B       		.uleb128 0xb
 11031 0022 0B       		.uleb128 0xb
 11032 0023 3E       		.uleb128 0x3e
 11033 0024 0B       		.uleb128 0xb
 11034 0025 03       		.uleb128 0x3
 11035 0026 08       		.uleb128 0x8
 11036 0027 00       		.byte	0
 11037 0028 00       		.byte	0
 11038 0029 04       		.uleb128 0x4
 11039 002a 16       		.uleb128 0x16
 11040 002b 00       		.byte	0
 11041 002c 03       		.uleb128 0x3
 11042 002d 0E       		.uleb128 0xe
 11043 002e 3A       		.uleb128 0x3a
 11044 002f 0B       		.uleb128 0xb
 11045 0030 3B       		.uleb128 0x3b
 11046 0031 0B       		.uleb128 0xb
 11047 0032 49       		.uleb128 0x49
 11048 0033 13       		.uleb128 0x13
 11049 0034 00       		.byte	0
 11050 0035 00       		.byte	0
 11051 0036 05       		.uleb128 0x5
 11052 0037 35       		.uleb128 0x35
 11053 0038 00       		.byte	0
 11054 0039 49       		.uleb128 0x49
 11055 003a 13       		.uleb128 0x13
 11056 003b 00       		.byte	0
 11057 003c 00       		.byte	0
 11058 003d 06       		.uleb128 0x6
 11059 003e 13       		.uleb128 0x13
 11060 003f 01       		.byte	0x1
 11061 0040 03       		.uleb128 0x3
 11062 0041 0E       		.uleb128 0xe
 11063 0042 0B       		.uleb128 0xb
 11064 0043 0B       		.uleb128 0xb
 11065 0044 3A       		.uleb128 0x3a
 11066 0045 0B       		.uleb128 0xb
 11067 0046 3B       		.uleb128 0x3b
 11068 0047 0B       		.uleb128 0xb
 11069 0048 01       		.uleb128 0x1
 11070 0049 13       		.uleb128 0x13
 11071 004a 00       		.byte	0
 11072 004b 00       		.byte	0
 11073 004c 07       		.uleb128 0x7
 11074 004d 0D       		.uleb128 0xd
ARM GAS  C:\Users\IDONNO~1\AppData\Local\Temp\ccm1q34l.s 			page 196


 11075 004e 00       		.byte	0
 11076 004f 03       		.uleb128 0x3
 11077 0050 0E       		.uleb128 0xe
 11078 0051 3A       		.uleb128 0x3a
 11079 0052 0B       		.uleb128 0xb
 11080 0053 3B       		.uleb128 0x3b
 11081 0054 0B       		.uleb128 0xb
 11082 0055 49       		.uleb128 0x49
 11083 0056 13       		.uleb128 0x13
 11084 0057 38       		.uleb128 0x38
 11085 0058 0B       		.uleb128 0xb
 11086 0059 00       		.byte	0
 11087 005a 00       		.byte	0
 11088 005b 08       		.uleb128 0x8
 11089 005c 0D       		.uleb128 0xd
 11090 005d 00       		.byte	0
 11091 005e 03       		.uleb128 0x3
 11092 005f 08       		.uleb128 0x8
 11093 0060 3A       		.uleb128 0x3a
 11094 0061 0B       		.uleb128 0xb
 11095 0062 3B       		.uleb128 0x3b
 11096 0063 05       		.uleb128 0x5
 11097 0064 49       		.uleb128 0x49
 11098 0065 13       		.uleb128 0x13
 11099 0066 38       		.uleb128 0x38
 11100 0067 0B       		.uleb128 0xb
 11101 0068 00       		.byte	0
 11102 0069 00       		.byte	0
 11103 006a 09       		.uleb128 0x9
 11104 006b 0D       		.uleb128 0xd
 11105 006c 00       		.byte	0
 11106 006d 03       		.uleb128 0x3
 11107 006e 0E       		.uleb128 0xe
 11108 006f 3A       		.uleb128 0x3a
 11109 0070 0B       		.uleb128 0xb
 11110 0071 3B       		.uleb128 0x3b
 11111 0072 05       		.uleb128 0x5
 11112 0073 49       		.uleb128 0x49
 11113 0074 13       		.uleb128 0x13
 11114 0075 38       		.uleb128 0x38
 11115 0076 0B       		.uleb128 0xb
 11116 0077 00       		.byte	0
 11117 0078 00       		.byte	0
 11118 0079 0A       		.uleb128 0xa
 11119 007a 0F       		.uleb128 0xf
 11120 007b 00       		.byte	0
 11121 007c 0B       		.uleb128 0xb
 11122 007d 0B       		.uleb128 0xb
 11123 007e 49       		.uleb128 0x49
 11124 007f 13       		.uleb128 0x13
 11125 0080 00       		.byte	0
 11126 0081 00       		.byte	0
 11127 0082 0B       		.uleb128 0xb
 11128 0083 13       		.uleb128 0x13
 11129 0084 01       		.byte	0x1
 11130 0085 03       		.uleb128 0x3
 11131 0086 0E       		.uleb128 0xe
ARM GAS  C:\Users\IDONNO~1\AppData\Local\Temp\ccm1q34l.s 			page 197


 11132 0087 0B       		.uleb128 0xb
 11133 0088 0B       		.uleb128 0xb
 11134 0089 3A       		.uleb128 0x3a
 11135 008a 0B       		.uleb128 0xb
 11136 008b 3B       		.uleb128 0x3b
 11137 008c 05       		.uleb128 0x5
 11138 008d 01       		.uleb128 0x1
 11139 008e 13       		.uleb128 0x13
 11140 008f 00       		.byte	0
 11141 0090 00       		.byte	0
 11142 0091 0C       		.uleb128 0xc
 11143 0092 15       		.uleb128 0x15
 11144 0093 01       		.byte	0x1
 11145 0094 27       		.uleb128 0x27
 11146 0095 19       		.uleb128 0x19
 11147 0096 01       		.uleb128 0x1
 11148 0097 13       		.uleb128 0x13
 11149 0098 00       		.byte	0
 11150 0099 00       		.byte	0
 11151 009a 0D       		.uleb128 0xd
 11152 009b 05       		.uleb128 0x5
 11153 009c 00       		.byte	0
 11154 009d 49       		.uleb128 0x49
 11155 009e 13       		.uleb128 0x13
 11156 009f 00       		.byte	0
 11157 00a0 00       		.byte	0
 11158 00a1 0E       		.uleb128 0xe
 11159 00a2 0F       		.uleb128 0xf
 11160 00a3 00       		.byte	0
 11161 00a4 0B       		.uleb128 0xb
 11162 00a5 0B       		.uleb128 0xb
 11163 00a6 00       		.byte	0
 11164 00a7 00       		.byte	0
 11165 00a8 0F       		.uleb128 0xf
 11166 00a9 13       		.uleb128 0x13
 11167 00aa 01       		.byte	0x1
 11168 00ab 03       		.uleb128 0x3
 11169 00ac 0E       		.uleb128 0xe
 11170 00ad 0B       		.uleb128 0xb
 11171 00ae 05       		.uleb128 0x5
 11172 00af 3A       		.uleb128 0x3a
 11173 00b0 0B       		.uleb128 0xb
 11174 00b1 3B       		.uleb128 0x3b
 11175 00b2 05       		.uleb128 0x5
 11176 00b3 01       		.uleb128 0x1
 11177 00b4 13       		.uleb128 0x13
 11178 00b5 00       		.byte	0
 11179 00b6 00       		.byte	0
 11180 00b7 10       		.uleb128 0x10
 11181 00b8 04       		.uleb128 0x4
 11182 00b9 01       		.byte	0x1
 11183 00ba 0B       		.uleb128 0xb
 11184 00bb 0B       		.uleb128 0xb
 11185 00bc 49       		.uleb128 0x49
 11186 00bd 13       		.uleb128 0x13
 11187 00be 3A       		.uleb128 0x3a
 11188 00bf 0B       		.uleb128 0xb
ARM GAS  C:\Users\IDONNO~1\AppData\Local\Temp\ccm1q34l.s 			page 198


 11189 00c0 3B       		.uleb128 0x3b
 11190 00c1 0B       		.uleb128 0xb
 11191 00c2 01       		.uleb128 0x1
 11192 00c3 13       		.uleb128 0x13
 11193 00c4 00       		.byte	0
 11194 00c5 00       		.byte	0
 11195 00c6 11       		.uleb128 0x11
 11196 00c7 28       		.uleb128 0x28
 11197 00c8 00       		.byte	0
 11198 00c9 03       		.uleb128 0x3
 11199 00ca 0E       		.uleb128 0xe
 11200 00cb 1C       		.uleb128 0x1c
 11201 00cc 0D       		.uleb128 0xd
 11202 00cd 00       		.byte	0
 11203 00ce 00       		.byte	0
 11204 00cf 12       		.uleb128 0x12
 11205 00d0 28       		.uleb128 0x28
 11206 00d1 00       		.byte	0
 11207 00d2 03       		.uleb128 0x3
 11208 00d3 0E       		.uleb128 0xe
 11209 00d4 1C       		.uleb128 0x1c
 11210 00d5 0B       		.uleb128 0xb
 11211 00d6 00       		.byte	0
 11212 00d7 00       		.byte	0
 11213 00d8 13       		.uleb128 0x13
 11214 00d9 26       		.uleb128 0x26
 11215 00da 00       		.byte	0
 11216 00db 49       		.uleb128 0x49
 11217 00dc 13       		.uleb128 0x13
 11218 00dd 00       		.byte	0
 11219 00de 00       		.byte	0
 11220 00df 14       		.uleb128 0x14
 11221 00e0 17       		.uleb128 0x17
 11222 00e1 01       		.byte	0x1
 11223 00e2 0B       		.uleb128 0xb
 11224 00e3 0B       		.uleb128 0xb
 11225 00e4 3A       		.uleb128 0x3a
 11226 00e5 0B       		.uleb128 0xb
 11227 00e6 3B       		.uleb128 0x3b
 11228 00e7 05       		.uleb128 0x5
 11229 00e8 01       		.uleb128 0x1
 11230 00e9 13       		.uleb128 0x13
 11231 00ea 00       		.byte	0
 11232 00eb 00       		.byte	0
 11233 00ec 15       		.uleb128 0x15
 11234 00ed 0D       		.uleb128 0xd
 11235 00ee 00       		.byte	0
 11236 00ef 03       		.uleb128 0x3
 11237 00f0 08       		.uleb128 0x8
 11238 00f1 3A       		.uleb128 0x3a
 11239 00f2 0B       		.uleb128 0xb
 11240 00f3 3B       		.uleb128 0x3b
 11241 00f4 05       		.uleb128 0x5
 11242 00f5 49       		.uleb128 0x49
 11243 00f6 13       		.uleb128 0x13
 11244 00f7 00       		.byte	0
 11245 00f8 00       		.byte	0
ARM GAS  C:\Users\IDONNO~1\AppData\Local\Temp\ccm1q34l.s 			page 199


 11246 00f9 16       		.uleb128 0x16
 11247 00fa 13       		.uleb128 0x13
 11248 00fb 01       		.byte	0x1
 11249 00fc 0B       		.uleb128 0xb
 11250 00fd 05       		.uleb128 0x5
 11251 00fe 3A       		.uleb128 0x3a
 11252 00ff 0B       		.uleb128 0xb
 11253 0100 3B       		.uleb128 0x3b
 11254 0101 05       		.uleb128 0x5
 11255 0102 01       		.uleb128 0x1
 11256 0103 13       		.uleb128 0x13
 11257 0104 00       		.byte	0
 11258 0105 00       		.byte	0
 11259 0106 17       		.uleb128 0x17
 11260 0107 0D       		.uleb128 0xd
 11261 0108 00       		.byte	0
 11262 0109 03       		.uleb128 0x3
 11263 010a 08       		.uleb128 0x8
 11264 010b 3A       		.uleb128 0x3a
 11265 010c 0B       		.uleb128 0xb
 11266 010d 3B       		.uleb128 0x3b
 11267 010e 05       		.uleb128 0x5
 11268 010f 49       		.uleb128 0x49
 11269 0110 13       		.uleb128 0x13
 11270 0111 38       		.uleb128 0x38
 11271 0112 05       		.uleb128 0x5
 11272 0113 00       		.byte	0
 11273 0114 00       		.byte	0
 11274 0115 18       		.uleb128 0x18
 11275 0116 0D       		.uleb128 0xd
 11276 0117 00       		.byte	0
 11277 0118 03       		.uleb128 0x3
 11278 0119 0E       		.uleb128 0xe
 11279 011a 3A       		.uleb128 0x3a
 11280 011b 0B       		.uleb128 0xb
 11281 011c 3B       		.uleb128 0x3b
 11282 011d 05       		.uleb128 0x5
 11283 011e 49       		.uleb128 0x49
 11284 011f 13       		.uleb128 0x13
 11285 0120 38       		.uleb128 0x38
 11286 0121 05       		.uleb128 0x5
 11287 0122 00       		.byte	0
 11288 0123 00       		.byte	0
 11289 0124 19       		.uleb128 0x19
 11290 0125 01       		.uleb128 0x1
 11291 0126 01       		.byte	0x1
 11292 0127 49       		.uleb128 0x49
 11293 0128 13       		.uleb128 0x13
 11294 0129 01       		.uleb128 0x1
 11295 012a 13       		.uleb128 0x13
 11296 012b 00       		.byte	0
 11297 012c 00       		.byte	0
 11298 012d 1A       		.uleb128 0x1a
 11299 012e 21       		.uleb128 0x21
 11300 012f 00       		.byte	0
 11301 0130 49       		.uleb128 0x49
 11302 0131 13       		.uleb128 0x13
ARM GAS  C:\Users\IDONNO~1\AppData\Local\Temp\ccm1q34l.s 			page 200


 11303 0132 2F       		.uleb128 0x2f
 11304 0133 0B       		.uleb128 0xb
 11305 0134 00       		.byte	0
 11306 0135 00       		.byte	0
 11307 0136 1B       		.uleb128 0x1b
 11308 0137 21       		.uleb128 0x21
 11309 0138 00       		.byte	0
 11310 0139 49       		.uleb128 0x49
 11311 013a 13       		.uleb128 0x13
 11312 013b 2F       		.uleb128 0x2f
 11313 013c 05       		.uleb128 0x5
 11314 013d 00       		.byte	0
 11315 013e 00       		.byte	0
 11316 013f 1C       		.uleb128 0x1c
 11317 0140 16       		.uleb128 0x16
 11318 0141 00       		.byte	0
 11319 0142 03       		.uleb128 0x3
 11320 0143 0E       		.uleb128 0xe
 11321 0144 3A       		.uleb128 0x3a
 11322 0145 0B       		.uleb128 0xb
 11323 0146 3B       		.uleb128 0x3b
 11324 0147 05       		.uleb128 0x5
 11325 0148 49       		.uleb128 0x49
 11326 0149 13       		.uleb128 0x13
 11327 014a 00       		.byte	0
 11328 014b 00       		.byte	0
 11329 014c 1D       		.uleb128 0x1d
 11330 014d 13       		.uleb128 0x13
 11331 014e 01       		.byte	0x1
 11332 014f 0B       		.uleb128 0xb
 11333 0150 0B       		.uleb128 0xb
 11334 0151 3A       		.uleb128 0x3a
 11335 0152 0B       		.uleb128 0xb
 11336 0153 3B       		.uleb128 0x3b
 11337 0154 0B       		.uleb128 0xb
 11338 0155 01       		.uleb128 0x1
 11339 0156 13       		.uleb128 0x13
 11340 0157 00       		.byte	0
 11341 0158 00       		.byte	0
 11342 0159 1E       		.uleb128 0x1e
 11343 015a 0D       		.uleb128 0xd
 11344 015b 00       		.byte	0
 11345 015c 03       		.uleb128 0x3
 11346 015d 08       		.uleb128 0x8
 11347 015e 3A       		.uleb128 0x3a
 11348 015f 0B       		.uleb128 0xb
 11349 0160 3B       		.uleb128 0x3b
 11350 0161 0B       		.uleb128 0xb
 11351 0162 49       		.uleb128 0x49
 11352 0163 13       		.uleb128 0x13
 11353 0164 38       		.uleb128 0x38
 11354 0165 0B       		.uleb128 0xb
 11355 0166 00       		.byte	0
 11356 0167 00       		.byte	0
 11357 0168 1F       		.uleb128 0x1f
 11358 0169 13       		.uleb128 0x13
 11359 016a 01       		.byte	0x1
ARM GAS  C:\Users\IDONNO~1\AppData\Local\Temp\ccm1q34l.s 			page 201


 11360 016b 0B       		.uleb128 0xb
 11361 016c 0B       		.uleb128 0xb
 11362 016d 3A       		.uleb128 0x3a
 11363 016e 0B       		.uleb128 0xb
 11364 016f 3B       		.uleb128 0x3b
 11365 0170 05       		.uleb128 0x5
 11366 0171 01       		.uleb128 0x1
 11367 0172 13       		.uleb128 0x13
 11368 0173 00       		.byte	0
 11369 0174 00       		.byte	0
 11370 0175 20       		.uleb128 0x20
 11371 0176 17       		.uleb128 0x17
 11372 0177 01       		.byte	0x1
 11373 0178 0B       		.uleb128 0xb
 11374 0179 0B       		.uleb128 0xb
 11375 017a 3A       		.uleb128 0x3a
 11376 017b 0B       		.uleb128 0xb
 11377 017c 3B       		.uleb128 0x3b
 11378 017d 0B       		.uleb128 0xb
 11379 017e 01       		.uleb128 0x1
 11380 017f 13       		.uleb128 0x13
 11381 0180 00       		.byte	0
 11382 0181 00       		.byte	0
 11383 0182 21       		.uleb128 0x21
 11384 0183 0D       		.uleb128 0xd
 11385 0184 00       		.byte	0
 11386 0185 03       		.uleb128 0x3
 11387 0186 0E       		.uleb128 0xe
 11388 0187 3A       		.uleb128 0x3a
 11389 0188 0B       		.uleb128 0xb
 11390 0189 3B       		.uleb128 0x3b
 11391 018a 05       		.uleb128 0x5
 11392 018b 49       		.uleb128 0x49
 11393 018c 13       		.uleb128 0x13
 11394 018d 00       		.byte	0
 11395 018e 00       		.byte	0
 11396 018f 22       		.uleb128 0x22
 11397 0190 0D       		.uleb128 0xd
 11398 0191 00       		.byte	0
 11399 0192 03       		.uleb128 0x3
 11400 0193 08       		.uleb128 0x8
 11401 0194 3A       		.uleb128 0x3a
 11402 0195 0B       		.uleb128 0xb
 11403 0196 3B       		.uleb128 0x3b
 11404 0197 0B       		.uleb128 0xb
 11405 0198 49       		.uleb128 0x49
 11406 0199 13       		.uleb128 0x13
 11407 019a 00       		.byte	0
 11408 019b 00       		.byte	0
 11409 019c 23       		.uleb128 0x23
 11410 019d 0D       		.uleb128 0xd
 11411 019e 00       		.byte	0
 11412 019f 03       		.uleb128 0x3
 11413 01a0 0E       		.uleb128 0xe
 11414 01a1 3A       		.uleb128 0x3a
 11415 01a2 0B       		.uleb128 0xb
 11416 01a3 3B       		.uleb128 0x3b
ARM GAS  C:\Users\IDONNO~1\AppData\Local\Temp\ccm1q34l.s 			page 202


 11417 01a4 0B       		.uleb128 0xb
 11418 01a5 49       		.uleb128 0x49
 11419 01a6 13       		.uleb128 0x13
 11420 01a7 00       		.byte	0
 11421 01a8 00       		.byte	0
 11422 01a9 24       		.uleb128 0x24
 11423 01aa 13       		.uleb128 0x13
 11424 01ab 01       		.byte	0x1
 11425 01ac 03       		.uleb128 0x3
 11426 01ad 0E       		.uleb128 0xe
 11427 01ae 0B       		.uleb128 0xb
 11428 01af 05       		.uleb128 0x5
 11429 01b0 3A       		.uleb128 0x3a
 11430 01b1 0B       		.uleb128 0xb
 11431 01b2 3B       		.uleb128 0x3b
 11432 01b3 0B       		.uleb128 0xb
 11433 01b4 01       		.uleb128 0x1
 11434 01b5 13       		.uleb128 0x13
 11435 01b6 00       		.byte	0
 11436 01b7 00       		.byte	0
 11437 01b8 25       		.uleb128 0x25
 11438 01b9 0D       		.uleb128 0xd
 11439 01ba 00       		.byte	0
 11440 01bb 03       		.uleb128 0x3
 11441 01bc 0E       		.uleb128 0xe
 11442 01bd 3A       		.uleb128 0x3a
 11443 01be 0B       		.uleb128 0xb
 11444 01bf 3B       		.uleb128 0x3b
 11445 01c0 0B       		.uleb128 0xb
 11446 01c1 49       		.uleb128 0x49
 11447 01c2 13       		.uleb128 0x13
 11448 01c3 38       		.uleb128 0x38
 11449 01c4 05       		.uleb128 0x5
 11450 01c5 00       		.byte	0
 11451 01c6 00       		.byte	0
 11452 01c7 26       		.uleb128 0x26
 11453 01c8 15       		.uleb128 0x15
 11454 01c9 00       		.byte	0
 11455 01ca 27       		.uleb128 0x27
 11456 01cb 19       		.uleb128 0x19
 11457 01cc 00       		.byte	0
 11458 01cd 00       		.byte	0
 11459 01ce 27       		.uleb128 0x27
 11460 01cf 15       		.uleb128 0x15
 11461 01d0 01       		.byte	0x1
 11462 01d1 27       		.uleb128 0x27
 11463 01d2 19       		.uleb128 0x19
 11464 01d3 49       		.uleb128 0x49
 11465 01d4 13       		.uleb128 0x13
 11466 01d5 01       		.uleb128 0x1
 11467 01d6 13       		.uleb128 0x13
 11468 01d7 00       		.byte	0
 11469 01d8 00       		.byte	0
 11470 01d9 28       		.uleb128 0x28
 11471 01da 0D       		.uleb128 0xd
 11472 01db 00       		.byte	0
 11473 01dc 03       		.uleb128 0x3
ARM GAS  C:\Users\IDONNO~1\AppData\Local\Temp\ccm1q34l.s 			page 203


 11474 01dd 0E       		.uleb128 0xe
 11475 01de 3A       		.uleb128 0x3a
 11476 01df 0B       		.uleb128 0xb
 11477 01e0 3B       		.uleb128 0x3b
 11478 01e1 0B       		.uleb128 0xb
 11479 01e2 49       		.uleb128 0x49
 11480 01e3 13       		.uleb128 0x13
 11481 01e4 0B       		.uleb128 0xb
 11482 01e5 0B       		.uleb128 0xb
 11483 01e6 0D       		.uleb128 0xd
 11484 01e7 0B       		.uleb128 0xb
 11485 01e8 0C       		.uleb128 0xc
 11486 01e9 0B       		.uleb128 0xb
 11487 01ea 38       		.uleb128 0x38
 11488 01eb 0B       		.uleb128 0xb
 11489 01ec 00       		.byte	0
 11490 01ed 00       		.byte	0
 11491 01ee 29       		.uleb128 0x29
 11492 01ef 16       		.uleb128 0x16
 11493 01f0 00       		.byte	0
 11494 01f1 03       		.uleb128 0x3
 11495 01f2 08       		.uleb128 0x8
 11496 01f3 3A       		.uleb128 0x3a
 11497 01f4 0B       		.uleb128 0xb
 11498 01f5 3B       		.uleb128 0x3b
 11499 01f6 0B       		.uleb128 0xb
 11500 01f7 49       		.uleb128 0x49
 11501 01f8 13       		.uleb128 0x13
 11502 01f9 00       		.byte	0
 11503 01fa 00       		.byte	0
 11504 01fb 2A       		.uleb128 0x2a
 11505 01fc 2E       		.uleb128 0x2e
 11506 01fd 01       		.byte	0x1
 11507 01fe 3F       		.uleb128 0x3f
 11508 01ff 19       		.uleb128 0x19
 11509 0200 03       		.uleb128 0x3
 11510 0201 0E       		.uleb128 0xe
 11511 0202 3A       		.uleb128 0x3a
 11512 0203 0B       		.uleb128 0xb
 11513 0204 3B       		.uleb128 0x3b
 11514 0205 05       		.uleb128 0x5
 11515 0206 27       		.uleb128 0x27
 11516 0207 19       		.uleb128 0x19
 11517 0208 20       		.uleb128 0x20
 11518 0209 0B       		.uleb128 0xb
 11519 020a 01       		.uleb128 0x1
 11520 020b 13       		.uleb128 0x13
 11521 020c 00       		.byte	0
 11522 020d 00       		.byte	0
 11523 020e 2B       		.uleb128 0x2b
 11524 020f 05       		.uleb128 0x5
 11525 0210 00       		.byte	0
 11526 0211 03       		.uleb128 0x3
 11527 0212 0E       		.uleb128 0xe
 11528 0213 3A       		.uleb128 0x3a
 11529 0214 0B       		.uleb128 0xb
 11530 0215 3B       		.uleb128 0x3b
ARM GAS  C:\Users\IDONNO~1\AppData\Local\Temp\ccm1q34l.s 			page 204


 11531 0216 05       		.uleb128 0x5
 11532 0217 49       		.uleb128 0x49
 11533 0218 13       		.uleb128 0x13
 11534 0219 00       		.byte	0
 11535 021a 00       		.byte	0
 11536 021b 2C       		.uleb128 0x2c
 11537 021c 2E       		.uleb128 0x2e
 11538 021d 01       		.byte	0x1
 11539 021e 3F       		.uleb128 0x3f
 11540 021f 19       		.uleb128 0x19
 11541 0220 03       		.uleb128 0x3
 11542 0221 0E       		.uleb128 0xe
 11543 0222 3A       		.uleb128 0x3a
 11544 0223 0B       		.uleb128 0xb
 11545 0224 3B       		.uleb128 0x3b
 11546 0225 05       		.uleb128 0x5
 11547 0226 27       		.uleb128 0x27
 11548 0227 19       		.uleb128 0x19
 11549 0228 49       		.uleb128 0x49
 11550 0229 13       		.uleb128 0x13
 11551 022a 20       		.uleb128 0x20
 11552 022b 0B       		.uleb128 0xb
 11553 022c 01       		.uleb128 0x1
 11554 022d 13       		.uleb128 0x13
 11555 022e 00       		.byte	0
 11556 022f 00       		.byte	0
 11557 0230 2D       		.uleb128 0x2d
 11558 0231 05       		.uleb128 0x5
 11559 0232 00       		.byte	0
 11560 0233 03       		.uleb128 0x3
 11561 0234 08       		.uleb128 0x8
 11562 0235 3A       		.uleb128 0x3a
 11563 0236 0B       		.uleb128 0xb
 11564 0237 3B       		.uleb128 0x3b
 11565 0238 05       		.uleb128 0x5
 11566 0239 49       		.uleb128 0x49
 11567 023a 13       		.uleb128 0x13
 11568 023b 00       		.byte	0
 11569 023c 00       		.byte	0
 11570 023d 2E       		.uleb128 0x2e
 11571 023e 34       		.uleb128 0x34
 11572 023f 00       		.byte	0
 11573 0240 03       		.uleb128 0x3
 11574 0241 0E       		.uleb128 0xe
 11575 0242 3A       		.uleb128 0x3a
 11576 0243 0B       		.uleb128 0xb
 11577 0244 3B       		.uleb128 0x3b
 11578 0245 05       		.uleb128 0x5
 11579 0246 49       		.uleb128 0x49
 11580 0247 13       		.uleb128 0x13
 11581 0248 00       		.byte	0
 11582 0249 00       		.byte	0
 11583 024a 2F       		.uleb128 0x2f
 11584 024b 2E       		.uleb128 0x2e
 11585 024c 00       		.byte	0
 11586 024d 3F       		.uleb128 0x3f
 11587 024e 19       		.uleb128 0x19
ARM GAS  C:\Users\IDONNO~1\AppData\Local\Temp\ccm1q34l.s 			page 205


 11588 024f 03       		.uleb128 0x3
 11589 0250 0E       		.uleb128 0xe
 11590 0251 3A       		.uleb128 0x3a
 11591 0252 0B       		.uleb128 0xb
 11592 0253 3B       		.uleb128 0x3b
 11593 0254 05       		.uleb128 0x5
 11594 0255 27       		.uleb128 0x27
 11595 0256 19       		.uleb128 0x19
 11596 0257 20       		.uleb128 0x20
 11597 0258 0B       		.uleb128 0xb
 11598 0259 00       		.byte	0
 11599 025a 00       		.byte	0
 11600 025b 30       		.uleb128 0x30
 11601 025c 2E       		.uleb128 0x2e
 11602 025d 01       		.byte	0x1
 11603 025e 03       		.uleb128 0x3
 11604 025f 0E       		.uleb128 0xe
 11605 0260 3A       		.uleb128 0x3a
 11606 0261 0B       		.uleb128 0xb
 11607 0262 3B       		.uleb128 0x3b
 11608 0263 05       		.uleb128 0x5
 11609 0264 27       		.uleb128 0x27
 11610 0265 19       		.uleb128 0x19
 11611 0266 49       		.uleb128 0x49
 11612 0267 13       		.uleb128 0x13
 11613 0268 20       		.uleb128 0x20
 11614 0269 0B       		.uleb128 0xb
 11615 026a 01       		.uleb128 0x1
 11616 026b 13       		.uleb128 0x13
 11617 026c 00       		.byte	0
 11618 026d 00       		.byte	0
 11619 026e 31       		.uleb128 0x31
 11620 026f 2E       		.uleb128 0x2e
 11621 0270 01       		.byte	0x1
 11622 0271 3F       		.uleb128 0x3f
 11623 0272 19       		.uleb128 0x19
 11624 0273 03       		.uleb128 0x3
 11625 0274 0E       		.uleb128 0xe
 11626 0275 3A       		.uleb128 0x3a
 11627 0276 0B       		.uleb128 0xb
 11628 0277 3B       		.uleb128 0x3b
 11629 0278 05       		.uleb128 0x5
 11630 0279 27       		.uleb128 0x27
 11631 027a 19       		.uleb128 0x19
 11632 027b 11       		.uleb128 0x11
 11633 027c 01       		.uleb128 0x1
 11634 027d 12       		.uleb128 0x12
 11635 027e 06       		.uleb128 0x6
 11636 027f 40       		.uleb128 0x40
 11637 0280 18       		.uleb128 0x18
 11638 0281 9742     		.uleb128 0x2117
 11639 0283 19       		.uleb128 0x19
 11640 0284 01       		.uleb128 0x1
 11641 0285 13       		.uleb128 0x13
 11642 0286 00       		.byte	0
 11643 0287 00       		.byte	0
 11644 0288 32       		.uleb128 0x32
ARM GAS  C:\Users\IDONNO~1\AppData\Local\Temp\ccm1q34l.s 			page 206


 11645 0289 05       		.uleb128 0x5
 11646 028a 00       		.byte	0
 11647 028b 03       		.uleb128 0x3
 11648 028c 08       		.uleb128 0x8
 11649 028d 3A       		.uleb128 0x3a
 11650 028e 0B       		.uleb128 0xb
 11651 028f 3B       		.uleb128 0x3b
 11652 0290 05       		.uleb128 0x5
 11653 0291 49       		.uleb128 0x49
 11654 0292 13       		.uleb128 0x13
 11655 0293 02       		.uleb128 0x2
 11656 0294 17       		.uleb128 0x17
 11657 0295 00       		.byte	0
 11658 0296 00       		.byte	0
 11659 0297 33       		.uleb128 0x33
 11660 0298 05       		.uleb128 0x5
 11661 0299 00       		.byte	0
 11662 029a 03       		.uleb128 0x3
 11663 029b 0E       		.uleb128 0xe
 11664 029c 3A       		.uleb128 0x3a
 11665 029d 0B       		.uleb128 0xb
 11666 029e 3B       		.uleb128 0x3b
 11667 029f 05       		.uleb128 0x5
 11668 02a0 49       		.uleb128 0x49
 11669 02a1 13       		.uleb128 0x13
 11670 02a2 02       		.uleb128 0x2
 11671 02a3 17       		.uleb128 0x17
 11672 02a4 00       		.byte	0
 11673 02a5 00       		.byte	0
 11674 02a6 34       		.uleb128 0x34
 11675 02a7 898201   		.uleb128 0x4109
 11676 02aa 01       		.byte	0x1
 11677 02ab 11       		.uleb128 0x11
 11678 02ac 01       		.uleb128 0x1
 11679 02ad 9542     		.uleb128 0x2115
 11680 02af 19       		.uleb128 0x19
 11681 02b0 31       		.uleb128 0x31
 11682 02b1 13       		.uleb128 0x13
 11683 02b2 00       		.byte	0
 11684 02b3 00       		.byte	0
 11685 02b4 35       		.uleb128 0x35
 11686 02b5 8A8201   		.uleb128 0x410a
 11687 02b8 00       		.byte	0
 11688 02b9 02       		.uleb128 0x2
 11689 02ba 18       		.uleb128 0x18
 11690 02bb 9142     		.uleb128 0x2111
 11691 02bd 18       		.uleb128 0x18
 11692 02be 00       		.byte	0
 11693 02bf 00       		.byte	0
 11694 02c0 36       		.uleb128 0x36
 11695 02c1 2E       		.uleb128 0x2e
 11696 02c2 01       		.byte	0x1
 11697 02c3 3F       		.uleb128 0x3f
 11698 02c4 19       		.uleb128 0x19
 11699 02c5 03       		.uleb128 0x3
 11700 02c6 0E       		.uleb128 0xe
 11701 02c7 3A       		.uleb128 0x3a
ARM GAS  C:\Users\IDONNO~1\AppData\Local\Temp\ccm1q34l.s 			page 207


 11702 02c8 0B       		.uleb128 0xb
 11703 02c9 3B       		.uleb128 0x3b
 11704 02ca 05       		.uleb128 0x5
 11705 02cb 27       		.uleb128 0x27
 11706 02cc 19       		.uleb128 0x19
 11707 02cd 49       		.uleb128 0x49
 11708 02ce 13       		.uleb128 0x13
 11709 02cf 11       		.uleb128 0x11
 11710 02d0 01       		.uleb128 0x1
 11711 02d1 12       		.uleb128 0x12
 11712 02d2 06       		.uleb128 0x6
 11713 02d3 40       		.uleb128 0x40
 11714 02d4 18       		.uleb128 0x18
 11715 02d5 9742     		.uleb128 0x2117
 11716 02d7 19       		.uleb128 0x19
 11717 02d8 01       		.uleb128 0x1
 11718 02d9 13       		.uleb128 0x13
 11719 02da 00       		.byte	0
 11720 02db 00       		.byte	0
 11721 02dc 37       		.uleb128 0x37
 11722 02dd 1D       		.uleb128 0x1d
 11723 02de 01       		.byte	0x1
 11724 02df 31       		.uleb128 0x31
 11725 02e0 13       		.uleb128 0x13
 11726 02e1 11       		.uleb128 0x11
 11727 02e2 01       		.uleb128 0x1
 11728 02e3 12       		.uleb128 0x12
 11729 02e4 06       		.uleb128 0x6
 11730 02e5 58       		.uleb128 0x58
 11731 02e6 0B       		.uleb128 0xb
 11732 02e7 59       		.uleb128 0x59
 11733 02e8 05       		.uleb128 0x5
 11734 02e9 00       		.byte	0
 11735 02ea 00       		.byte	0
 11736 02eb 38       		.uleb128 0x38
 11737 02ec 05       		.uleb128 0x5
 11738 02ed 00       		.byte	0
 11739 02ee 31       		.uleb128 0x31
 11740 02ef 13       		.uleb128 0x13
 11741 02f0 02       		.uleb128 0x2
 11742 02f1 17       		.uleb128 0x17
 11743 02f2 00       		.byte	0
 11744 02f3 00       		.byte	0
 11745 02f4 39       		.uleb128 0x39
 11746 02f5 898201   		.uleb128 0x4109
 11747 02f8 01       		.byte	0x1
 11748 02f9 11       		.uleb128 0x11
 11749 02fa 01       		.uleb128 0x1
 11750 02fb 31       		.uleb128 0x31
 11751 02fc 13       		.uleb128 0x13
 11752 02fd 01       		.uleb128 0x1
 11753 02fe 13       		.uleb128 0x13
 11754 02ff 00       		.byte	0
 11755 0300 00       		.byte	0
 11756 0301 3A       		.uleb128 0x3a
 11757 0302 898201   		.uleb128 0x4109
 11758 0305 01       		.byte	0x1
ARM GAS  C:\Users\IDONNO~1\AppData\Local\Temp\ccm1q34l.s 			page 208


 11759 0306 11       		.uleb128 0x11
 11760 0307 01       		.uleb128 0x1
 11761 0308 31       		.uleb128 0x31
 11762 0309 13       		.uleb128 0x13
 11763 030a 00       		.byte	0
 11764 030b 00       		.byte	0
 11765 030c 3B       		.uleb128 0x3b
 11766 030d 2E       		.uleb128 0x2e
 11767 030e 01       		.byte	0x1
 11768 030f 31       		.uleb128 0x31
 11769 0310 13       		.uleb128 0x13
 11770 0311 11       		.uleb128 0x11
 11771 0312 01       		.uleb128 0x1
 11772 0313 12       		.uleb128 0x12
 11773 0314 06       		.uleb128 0x6
 11774 0315 40       		.uleb128 0x40
 11775 0316 18       		.uleb128 0x18
 11776 0317 9742     		.uleb128 0x2117
 11777 0319 19       		.uleb128 0x19
 11778 031a 01       		.uleb128 0x1
 11779 031b 13       		.uleb128 0x13
 11780 031c 00       		.byte	0
 11781 031d 00       		.byte	0
 11782 031e 3C       		.uleb128 0x3c
 11783 031f 05       		.uleb128 0x5
 11784 0320 00       		.byte	0
 11785 0321 31       		.uleb128 0x31
 11786 0322 13       		.uleb128 0x13
 11787 0323 02       		.uleb128 0x2
 11788 0324 18       		.uleb128 0x18
 11789 0325 00       		.byte	0
 11790 0326 00       		.byte	0
 11791 0327 3D       		.uleb128 0x3d
 11792 0328 05       		.uleb128 0x5
 11793 0329 00       		.byte	0
 11794 032a 03       		.uleb128 0x3
 11795 032b 0E       		.uleb128 0xe
 11796 032c 3A       		.uleb128 0x3a
 11797 032d 0B       		.uleb128 0xb
 11798 032e 3B       		.uleb128 0x3b
 11799 032f 05       		.uleb128 0x5
 11800 0330 49       		.uleb128 0x49
 11801 0331 13       		.uleb128 0x13
 11802 0332 02       		.uleb128 0x2
 11803 0333 18       		.uleb128 0x18
 11804 0334 00       		.byte	0
 11805 0335 00       		.byte	0
 11806 0336 3E       		.uleb128 0x3e
 11807 0337 34       		.uleb128 0x34
 11808 0338 00       		.byte	0
 11809 0339 03       		.uleb128 0x3
 11810 033a 08       		.uleb128 0x8
 11811 033b 3A       		.uleb128 0x3a
 11812 033c 0B       		.uleb128 0xb
 11813 033d 3B       		.uleb128 0x3b
 11814 033e 05       		.uleb128 0x5
 11815 033f 49       		.uleb128 0x49
ARM GAS  C:\Users\IDONNO~1\AppData\Local\Temp\ccm1q34l.s 			page 209


 11816 0340 13       		.uleb128 0x13
 11817 0341 02       		.uleb128 0x2
 11818 0342 17       		.uleb128 0x17
 11819 0343 00       		.byte	0
 11820 0344 00       		.byte	0
 11821 0345 3F       		.uleb128 0x3f
 11822 0346 34       		.uleb128 0x34
 11823 0347 00       		.byte	0
 11824 0348 03       		.uleb128 0x3
 11825 0349 08       		.uleb128 0x8
 11826 034a 3A       		.uleb128 0x3a
 11827 034b 0B       		.uleb128 0xb
 11828 034c 3B       		.uleb128 0x3b
 11829 034d 05       		.uleb128 0x5
 11830 034e 49       		.uleb128 0x49
 11831 034f 13       		.uleb128 0x13
 11832 0350 02       		.uleb128 0x2
 11833 0351 18       		.uleb128 0x18
 11834 0352 00       		.byte	0
 11835 0353 00       		.byte	0
 11836 0354 40       		.uleb128 0x40
 11837 0355 1D       		.uleb128 0x1d
 11838 0356 01       		.byte	0x1
 11839 0357 31       		.uleb128 0x31
 11840 0358 13       		.uleb128 0x13
 11841 0359 52       		.uleb128 0x52
 11842 035a 01       		.uleb128 0x1
 11843 035b 55       		.uleb128 0x55
 11844 035c 17       		.uleb128 0x17
 11845 035d 58       		.uleb128 0x58
 11846 035e 0B       		.uleb128 0xb
 11847 035f 59       		.uleb128 0x59
 11848 0360 05       		.uleb128 0x5
 11849 0361 01       		.uleb128 0x1
 11850 0362 13       		.uleb128 0x13
 11851 0363 00       		.byte	0
 11852 0364 00       		.byte	0
 11853 0365 41       		.uleb128 0x41
 11854 0366 05       		.uleb128 0x5
 11855 0367 00       		.byte	0
 11856 0368 31       		.uleb128 0x31
 11857 0369 13       		.uleb128 0x13
 11858 036a 00       		.byte	0
 11859 036b 00       		.byte	0
 11860 036c 42       		.uleb128 0x42
 11861 036d 1D       		.uleb128 0x1d
 11862 036e 01       		.byte	0x1
 11863 036f 31       		.uleb128 0x31
 11864 0370 13       		.uleb128 0x13
 11865 0371 11       		.uleb128 0x11
 11866 0372 01       		.uleb128 0x1
 11867 0373 12       		.uleb128 0x12
 11868 0374 06       		.uleb128 0x6
 11869 0375 58       		.uleb128 0x58
 11870 0376 0B       		.uleb128 0xb
 11871 0377 59       		.uleb128 0x59
 11872 0378 05       		.uleb128 0x5
ARM GAS  C:\Users\IDONNO~1\AppData\Local\Temp\ccm1q34l.s 			page 210


 11873 0379 01       		.uleb128 0x1
 11874 037a 13       		.uleb128 0x13
 11875 037b 00       		.byte	0
 11876 037c 00       		.byte	0
 11877 037d 43       		.uleb128 0x43
 11878 037e 2E       		.uleb128 0x2e
 11879 037f 00       		.byte	0
 11880 0380 03       		.uleb128 0x3
 11881 0381 0E       		.uleb128 0xe
 11882 0382 3A       		.uleb128 0x3a
 11883 0383 0B       		.uleb128 0xb
 11884 0384 3B       		.uleb128 0x3b
 11885 0385 05       		.uleb128 0x5
 11886 0386 27       		.uleb128 0x27
 11887 0387 19       		.uleb128 0x19
 11888 0388 20       		.uleb128 0x20
 11889 0389 0B       		.uleb128 0xb
 11890 038a 00       		.byte	0
 11891 038b 00       		.byte	0
 11892 038c 44       		.uleb128 0x44
 11893 038d 34       		.uleb128 0x34
 11894 038e 00       		.byte	0
 11895 038f 03       		.uleb128 0x3
 11896 0390 0E       		.uleb128 0xe
 11897 0391 3A       		.uleb128 0x3a
 11898 0392 0B       		.uleb128 0xb
 11899 0393 3B       		.uleb128 0x3b
 11900 0394 05       		.uleb128 0x5
 11901 0395 49       		.uleb128 0x49
 11902 0396 13       		.uleb128 0x13
 11903 0397 02       		.uleb128 0x2
 11904 0398 18       		.uleb128 0x18
 11905 0399 00       		.byte	0
 11906 039a 00       		.byte	0
 11907 039b 45       		.uleb128 0x45
 11908 039c 34       		.uleb128 0x34
 11909 039d 00       		.byte	0
 11910 039e 03       		.uleb128 0x3
 11911 039f 0E       		.uleb128 0xe
 11912 03a0 3A       		.uleb128 0x3a
 11913 03a1 0B       		.uleb128 0xb
 11914 03a2 3B       		.uleb128 0x3b
 11915 03a3 05       		.uleb128 0x5
 11916 03a4 49       		.uleb128 0x49
 11917 03a5 13       		.uleb128 0x13
 11918 03a6 02       		.uleb128 0x2
 11919 03a7 17       		.uleb128 0x17
 11920 03a8 00       		.byte	0
 11921 03a9 00       		.byte	0
 11922 03aa 46       		.uleb128 0x46
 11923 03ab 898201   		.uleb128 0x4109
 11924 03ae 00       		.byte	0
 11925 03af 11       		.uleb128 0x11
 11926 03b0 01       		.uleb128 0x1
 11927 03b1 31       		.uleb128 0x31
 11928 03b2 13       		.uleb128 0x13
 11929 03b3 00       		.byte	0
ARM GAS  C:\Users\IDONNO~1\AppData\Local\Temp\ccm1q34l.s 			page 211


 11930 03b4 00       		.byte	0
 11931 03b5 47       		.uleb128 0x47
 11932 03b6 34       		.uleb128 0x34
 11933 03b7 00       		.byte	0
 11934 03b8 31       		.uleb128 0x31
 11935 03b9 13       		.uleb128 0x13
 11936 03ba 02       		.uleb128 0x2
 11937 03bb 17       		.uleb128 0x17
 11938 03bc 00       		.byte	0
 11939 03bd 00       		.byte	0
 11940 03be 48       		.uleb128 0x48
 11941 03bf 0B       		.uleb128 0xb
 11942 03c0 01       		.byte	0x1
 11943 03c1 11       		.uleb128 0x11
 11944 03c2 01       		.uleb128 0x1
 11945 03c3 12       		.uleb128 0x12
 11946 03c4 06       		.uleb128 0x6
 11947 03c5 00       		.byte	0
 11948 03c6 00       		.byte	0
 11949 03c7 49       		.uleb128 0x49
 11950 03c8 34       		.uleb128 0x34
 11951 03c9 00       		.byte	0
 11952 03ca 31       		.uleb128 0x31
 11953 03cb 13       		.uleb128 0x13
 11954 03cc 00       		.byte	0
 11955 03cd 00       		.byte	0
 11956 03ce 4A       		.uleb128 0x4a
 11957 03cf 2E       		.uleb128 0x2e
 11958 03d0 00       		.byte	0
 11959 03d1 31       		.uleb128 0x31
 11960 03d2 13       		.uleb128 0x13
 11961 03d3 11       		.uleb128 0x11
 11962 03d4 01       		.uleb128 0x1
 11963 03d5 12       		.uleb128 0x12
 11964 03d6 06       		.uleb128 0x6
 11965 03d7 40       		.uleb128 0x40
 11966 03d8 18       		.uleb128 0x18
 11967 03d9 9742     		.uleb128 0x2117
 11968 03db 19       		.uleb128 0x19
 11969 03dc 00       		.byte	0
 11970 03dd 00       		.byte	0
 11971 03de 4B       		.uleb128 0x4b
 11972 03df 2E       		.uleb128 0x2e
 11973 03e0 00       		.byte	0
 11974 03e1 3F       		.uleb128 0x3f
 11975 03e2 19       		.uleb128 0x19
 11976 03e3 03       		.uleb128 0x3
 11977 03e4 0E       		.uleb128 0xe
 11978 03e5 3A       		.uleb128 0x3a
 11979 03e6 0B       		.uleb128 0xb
 11980 03e7 3B       		.uleb128 0x3b
 11981 03e8 05       		.uleb128 0x5
 11982 03e9 27       		.uleb128 0x27
 11983 03ea 19       		.uleb128 0x19
 11984 03eb 11       		.uleb128 0x11
 11985 03ec 01       		.uleb128 0x1
 11986 03ed 12       		.uleb128 0x12
ARM GAS  C:\Users\IDONNO~1\AppData\Local\Temp\ccm1q34l.s 			page 212


 11987 03ee 06       		.uleb128 0x6
 11988 03ef 40       		.uleb128 0x40
 11989 03f0 18       		.uleb128 0x18
 11990 03f1 9742     		.uleb128 0x2117
 11991 03f3 19       		.uleb128 0x19
 11992 03f4 00       		.byte	0
 11993 03f5 00       		.byte	0
 11994 03f6 4C       		.uleb128 0x4c
 11995 03f7 898201   		.uleb128 0x4109
 11996 03fa 00       		.byte	0
 11997 03fb 11       		.uleb128 0x11
 11998 03fc 01       		.uleb128 0x1
 11999 03fd 9542     		.uleb128 0x2115
 12000 03ff 19       		.uleb128 0x19
 12001 0400 31       		.uleb128 0x31
 12002 0401 13       		.uleb128 0x13
 12003 0402 00       		.byte	0
 12004 0403 00       		.byte	0
 12005 0404 4D       		.uleb128 0x4d
 12006 0405 34       		.uleb128 0x34
 12007 0406 00       		.byte	0
 12008 0407 03       		.uleb128 0x3
 12009 0408 0E       		.uleb128 0xe
 12010 0409 3A       		.uleb128 0x3a
 12011 040a 0B       		.uleb128 0xb
 12012 040b 3B       		.uleb128 0x3b
 12013 040c 05       		.uleb128 0x5
 12014 040d 49       		.uleb128 0x49
 12015 040e 13       		.uleb128 0x13
 12016 040f 1C       		.uleb128 0x1c
 12017 0410 0A       		.uleb128 0xa
 12018 0411 00       		.byte	0
 12019 0412 00       		.byte	0
 12020 0413 4E       		.uleb128 0x4e
 12021 0414 0B       		.uleb128 0xb
 12022 0415 01       		.byte	0x1
 12023 0416 55       		.uleb128 0x55
 12024 0417 17       		.uleb128 0x17
 12025 0418 00       		.byte	0
 12026 0419 00       		.byte	0
 12027 041a 4F       		.uleb128 0x4f
 12028 041b 1D       		.uleb128 0x1d
 12029 041c 00       		.byte	0
 12030 041d 31       		.uleb128 0x31
 12031 041e 13       		.uleb128 0x13
 12032 041f 11       		.uleb128 0x11
 12033 0420 01       		.uleb128 0x1
 12034 0421 12       		.uleb128 0x12
 12035 0422 06       		.uleb128 0x6
 12036 0423 58       		.uleb128 0x58
 12037 0424 0B       		.uleb128 0xb
 12038 0425 59       		.uleb128 0x59
 12039 0426 05       		.uleb128 0x5
 12040 0427 00       		.byte	0
 12041 0428 00       		.byte	0
 12042 0429 50       		.uleb128 0x50
 12043 042a 2E       		.uleb128 0x2e
ARM GAS  C:\Users\IDONNO~1\AppData\Local\Temp\ccm1q34l.s 			page 213


 12044 042b 01       		.byte	0x1
 12045 042c 3F       		.uleb128 0x3f
 12046 042d 19       		.uleb128 0x19
 12047 042e 03       		.uleb128 0x3
 12048 042f 0E       		.uleb128 0xe
 12049 0430 3A       		.uleb128 0x3a
 12050 0431 0B       		.uleb128 0xb
 12051 0432 3B       		.uleb128 0x3b
 12052 0433 0B       		.uleb128 0xb
 12053 0434 27       		.uleb128 0x27
 12054 0435 19       		.uleb128 0x19
 12055 0436 49       		.uleb128 0x49
 12056 0437 13       		.uleb128 0x13
 12057 0438 11       		.uleb128 0x11
 12058 0439 01       		.uleb128 0x1
 12059 043a 12       		.uleb128 0x12
 12060 043b 06       		.uleb128 0x6
 12061 043c 40       		.uleb128 0x40
 12062 043d 18       		.uleb128 0x18
 12063 043e 9742     		.uleb128 0x2117
 12064 0440 19       		.uleb128 0x19
 12065 0441 01       		.uleb128 0x1
 12066 0442 13       		.uleb128 0x13
 12067 0443 00       		.byte	0
 12068 0444 00       		.byte	0
 12069 0445 51       		.uleb128 0x51
 12070 0446 05       		.uleb128 0x5
 12071 0447 00       		.byte	0
 12072 0448 03       		.uleb128 0x3
 12073 0449 08       		.uleb128 0x8
 12074 044a 3A       		.uleb128 0x3a
 12075 044b 0B       		.uleb128 0xb
 12076 044c 3B       		.uleb128 0x3b
 12077 044d 05       		.uleb128 0x5
 12078 044e 49       		.uleb128 0x49
 12079 044f 13       		.uleb128 0x13
 12080 0450 02       		.uleb128 0x2
 12081 0451 18       		.uleb128 0x18
 12082 0452 00       		.byte	0
 12083 0453 00       		.byte	0
 12084 0454 52       		.uleb128 0x52
 12085 0455 2E       		.uleb128 0x2e
 12086 0456 00       		.byte	0
 12087 0457 3F       		.uleb128 0x3f
 12088 0458 19       		.uleb128 0x19
 12089 0459 03       		.uleb128 0x3
 12090 045a 0E       		.uleb128 0xe
 12091 045b 3A       		.uleb128 0x3a
 12092 045c 0B       		.uleb128 0xb
 12093 045d 3B       		.uleb128 0x3b
 12094 045e 05       		.uleb128 0x5
 12095 045f 27       		.uleb128 0x27
 12096 0460 19       		.uleb128 0x19
 12097 0461 49       		.uleb128 0x49
 12098 0462 13       		.uleb128 0x13
 12099 0463 11       		.uleb128 0x11
 12100 0464 01       		.uleb128 0x1
ARM GAS  C:\Users\IDONNO~1\AppData\Local\Temp\ccm1q34l.s 			page 214


 12101 0465 12       		.uleb128 0x12
 12102 0466 06       		.uleb128 0x6
 12103 0467 40       		.uleb128 0x40
 12104 0468 18       		.uleb128 0x18
 12105 0469 9742     		.uleb128 0x2117
 12106 046b 19       		.uleb128 0x19
 12107 046c 00       		.byte	0
 12108 046d 00       		.byte	0
 12109 046e 53       		.uleb128 0x53
 12110 046f 34       		.uleb128 0x34
 12111 0470 00       		.byte	0
 12112 0471 03       		.uleb128 0x3
 12113 0472 0E       		.uleb128 0xe
 12114 0473 3A       		.uleb128 0x3a
 12115 0474 0B       		.uleb128 0xb
 12116 0475 3B       		.uleb128 0x3b
 12117 0476 0B       		.uleb128 0xb
 12118 0477 49       		.uleb128 0x49
 12119 0478 13       		.uleb128 0x13
 12120 0479 02       		.uleb128 0x2
 12121 047a 18       		.uleb128 0x18
 12122 047b 00       		.byte	0
 12123 047c 00       		.byte	0
 12124 047d 54       		.uleb128 0x54
 12125 047e 34       		.uleb128 0x34
 12126 047f 00       		.byte	0
 12127 0480 03       		.uleb128 0x3
 12128 0481 0E       		.uleb128 0xe
 12129 0482 3A       		.uleb128 0x3a
 12130 0483 0B       		.uleb128 0xb
 12131 0484 3B       		.uleb128 0x3b
 12132 0485 05       		.uleb128 0x5
 12133 0486 49       		.uleb128 0x49
 12134 0487 13       		.uleb128 0x13
 12135 0488 3F       		.uleb128 0x3f
 12136 0489 19       		.uleb128 0x19
 12137 048a 3C       		.uleb128 0x3c
 12138 048b 19       		.uleb128 0x19
 12139 048c 00       		.byte	0
 12140 048d 00       		.byte	0
 12141 048e 55       		.uleb128 0x55
 12142 048f 34       		.uleb128 0x34
 12143 0490 00       		.byte	0
 12144 0491 03       		.uleb128 0x3
 12145 0492 08       		.uleb128 0x8
 12146 0493 3A       		.uleb128 0x3a
 12147 0494 0B       		.uleb128 0xb
 12148 0495 3B       		.uleb128 0x3b
 12149 0496 05       		.uleb128 0x5
 12150 0497 49       		.uleb128 0x49
 12151 0498 13       		.uleb128 0x13
 12152 0499 3F       		.uleb128 0x3f
 12153 049a 19       		.uleb128 0x19
 12154 049b 3C       		.uleb128 0x3c
 12155 049c 19       		.uleb128 0x19
 12156 049d 00       		.byte	0
 12157 049e 00       		.byte	0
ARM GAS  C:\Users\IDONNO~1\AppData\Local\Temp\ccm1q34l.s 			page 215


 12158 049f 56       		.uleb128 0x56
 12159 04a0 34       		.uleb128 0x34
 12160 04a1 00       		.byte	0
 12161 04a2 03       		.uleb128 0x3
 12162 04a3 0E       		.uleb128 0xe
 12163 04a4 3A       		.uleb128 0x3a
 12164 04a5 0B       		.uleb128 0xb
 12165 04a6 3B       		.uleb128 0x3b
 12166 04a7 0B       		.uleb128 0xb
 12167 04a8 49       		.uleb128 0x49
 12168 04a9 13       		.uleb128 0x13
 12169 04aa 3F       		.uleb128 0x3f
 12170 04ab 19       		.uleb128 0x19
 12171 04ac 02       		.uleb128 0x2
 12172 04ad 18       		.uleb128 0x18
 12173 04ae 00       		.byte	0
 12174 04af 00       		.byte	0
 12175 04b0 57       		.uleb128 0x57
 12176 04b1 34       		.uleb128 0x34
 12177 04b2 00       		.byte	0
 12178 04b3 03       		.uleb128 0x3
 12179 04b4 08       		.uleb128 0x8
 12180 04b5 3A       		.uleb128 0x3a
 12181 04b6 0B       		.uleb128 0xb
 12182 04b7 3B       		.uleb128 0x3b
 12183 04b8 0B       		.uleb128 0xb
 12184 04b9 49       		.uleb128 0x49
 12185 04ba 13       		.uleb128 0x13
 12186 04bb 3F       		.uleb128 0x3f
 12187 04bc 19       		.uleb128 0x19
 12188 04bd 02       		.uleb128 0x2
 12189 04be 18       		.uleb128 0x18
 12190 04bf 00       		.byte	0
 12191 04c0 00       		.byte	0
 12192 04c1 58       		.uleb128 0x58
 12193 04c2 34       		.uleb128 0x34
 12194 04c3 00       		.byte	0
 12195 04c4 03       		.uleb128 0x3
 12196 04c5 0E       		.uleb128 0xe
 12197 04c6 3A       		.uleb128 0x3a
 12198 04c7 0B       		.uleb128 0xb
 12199 04c8 3B       		.uleb128 0x3b
 12200 04c9 05       		.uleb128 0x5
 12201 04ca 49       		.uleb128 0x49
 12202 04cb 13       		.uleb128 0x13
 12203 04cc 3F       		.uleb128 0x3f
 12204 04cd 19       		.uleb128 0x19
 12205 04ce 02       		.uleb128 0x2
 12206 04cf 18       		.uleb128 0x18
 12207 04d0 00       		.byte	0
 12208 04d1 00       		.byte	0
 12209 04d2 59       		.uleb128 0x59
 12210 04d3 2E       		.uleb128 0x2e
 12211 04d4 00       		.byte	0
 12212 04d5 3F       		.uleb128 0x3f
 12213 04d6 19       		.uleb128 0x19
 12214 04d7 3C       		.uleb128 0x3c
ARM GAS  C:\Users\IDONNO~1\AppData\Local\Temp\ccm1q34l.s 			page 216


 12215 04d8 19       		.uleb128 0x19
 12216 04d9 6E       		.uleb128 0x6e
 12217 04da 0E       		.uleb128 0xe
 12218 04db 03       		.uleb128 0x3
 12219 04dc 0E       		.uleb128 0xe
 12220 04dd 3A       		.uleb128 0x3a
 12221 04de 0B       		.uleb128 0xb
 12222 04df 3B       		.uleb128 0x3b
 12223 04e0 0B       		.uleb128 0xb
 12224 04e1 00       		.byte	0
 12225 04e2 00       		.byte	0
 12226 04e3 5A       		.uleb128 0x5a
 12227 04e4 2E       		.uleb128 0x2e
 12228 04e5 00       		.byte	0
 12229 04e6 3F       		.uleb128 0x3f
 12230 04e7 19       		.uleb128 0x19
 12231 04e8 3C       		.uleb128 0x3c
 12232 04e9 19       		.uleb128 0x19
 12233 04ea 6E       		.uleb128 0x6e
 12234 04eb 0E       		.uleb128 0xe
 12235 04ec 03       		.uleb128 0x3
 12236 04ed 0E       		.uleb128 0xe
 12237 04ee 3A       		.uleb128 0x3a
 12238 04ef 0B       		.uleb128 0xb
 12239 04f0 3B       		.uleb128 0x3b
 12240 04f1 05       		.uleb128 0x5
 12241 04f2 00       		.byte	0
 12242 04f3 00       		.byte	0
 12243 04f4 00       		.byte	0
 12244              		.section	.debug_loc,"",%progbits
 12245              	.Ldebug_loc0:
 12246              	.LLST0:
 12247 0000 00000000 		.4byte	.LVL0
 12248 0004 06000000 		.4byte	.LVL2
 12249 0008 0100     		.2byte	0x1
 12250 000a 50       		.byte	0x50
 12251 000b 06000000 		.4byte	.LVL2
 12252 000f 1C000000 		.4byte	.LFE260
 12253 0013 0400     		.2byte	0x4
 12254 0015 F3       		.byte	0xf3
 12255 0016 01       		.uleb128 0x1
 12256 0017 50       		.byte	0x50
 12257 0018 9F       		.byte	0x9f
 12258 0019 00000000 		.4byte	0
 12259 001d 00000000 		.4byte	0
 12260              	.LLST1:
 12261 0021 00000000 		.4byte	.LVL0
 12262 0025 04000000 		.4byte	.LVL1
 12263 0029 0100     		.2byte	0x1
 12264 002b 51       		.byte	0x51
 12265 002c 04000000 		.4byte	.LVL1
 12266 0030 1C000000 		.4byte	.LFE260
 12267 0034 0400     		.2byte	0x4
 12268 0036 F3       		.byte	0xf3
 12269 0037 01       		.uleb128 0x1
 12270 0038 51       		.byte	0x51
 12271 0039 9F       		.byte	0x9f
ARM GAS  C:\Users\IDONNO~1\AppData\Local\Temp\ccm1q34l.s 			page 217


 12272 003a 00000000 		.4byte	0
 12273 003e 00000000 		.4byte	0
 12274              	.LLST2:
 12275 0042 3A000000 		.4byte	.LVL4
 12276 0046 3E000000 		.4byte	.LVL5
 12277 004a 0100     		.2byte	0x1
 12278 004c 52       		.byte	0x52
 12279 004d 00000000 		.4byte	0
 12280 0051 00000000 		.4byte	0
 12281              	.LLST3:
 12282 0055 3A000000 		.4byte	.LVL4
 12283 0059 3E000000 		.4byte	.LVL5
 12284 005d 0100     		.2byte	0x1
 12285 005f 51       		.byte	0x51
 12286 0060 00000000 		.4byte	0
 12287 0064 00000000 		.4byte	0
 12288              	.LLST4:
 12289 0068 20000000 		.4byte	.LVL11
 12290 006c 56000000 		.4byte	.LVL13
 12291 0070 0200     		.2byte	0x2
 12292 0072 90       		.byte	0x90
 12293 0073 4E       		.uleb128 0x4e
 12294 0074 00000000 		.4byte	0
 12295 0078 00000000 		.4byte	0
 12296              	.LLST5:
 12297 007c 46000000 		.4byte	.LVL12
 12298 0080 56000000 		.4byte	.LVL13
 12299 0084 0800     		.2byte	0x8
 12300 0086 F5       		.byte	0xf5
 12301 0087 4E       		.uleb128 0x4e
 12302 0088 25       		.uleb128 0x25
 12303 0089 F5       		.byte	0xf5
 12304 008a 4D       		.uleb128 0x4d
 12305 008b 25       		.uleb128 0x25
 12306 008c 1C       		.byte	0x1c
 12307 008d 9F       		.byte	0x9f
 12308 008e 56000000 		.4byte	.LVL13
 12309 0092 60000000 		.4byte	.LFE265
 12310 0096 0200     		.2byte	0x2
 12311 0098 90       		.byte	0x90
 12312 0099 4E       		.uleb128 0x4e
 12313 009a 00000000 		.4byte	0
 12314 009e 00000000 		.4byte	0
 12315              	.LLST6:
 12316 00a2 2C000000 		.4byte	.LVL15
 12317 00a6 40000000 		.4byte	.LVL16
 12318 00aa 0600     		.2byte	0x6
 12319 00ac 03       		.byte	0x3
 12320 00ad 00000000 		.4byte	PIParmD
 12321 00b1 9F       		.byte	0x9f
 12322 00b2 00000000 		.4byte	0
 12323 00b6 00000000 		.4byte	0
 12324              	.LLST7:
 12325 00ba 00000000 		.4byte	.LVL17
 12326 00be 09000000 		.4byte	.LVL18-1
 12327 00c2 0100     		.2byte	0x1
 12328 00c4 50       		.byte	0x50
ARM GAS  C:\Users\IDONNO~1\AppData\Local\Temp\ccm1q34l.s 			page 218


 12329 00c5 09000000 		.4byte	.LVL18-1
 12330 00c9 B4040000 		.4byte	.LFE257
 12331 00cd 0400     		.2byte	0x4
 12332 00cf F3       		.byte	0xf3
 12333 00d0 01       		.uleb128 0x1
 12334 00d1 50       		.byte	0x50
 12335 00d2 9F       		.byte	0x9f
 12336 00d3 00000000 		.4byte	0
 12337 00d7 00000000 		.4byte	0
 12338              	.LLST8:
 12339 00db 2C030000 		.4byte	.LVL75
 12340 00df 36040000 		.4byte	.LVL81
 12341 00e3 0300     		.2byte	0x3
 12342 00e5 08       		.byte	0x8
 12343 00e6 53       		.byte	0x53
 12344 00e7 9F       		.byte	0x9f
 12345 00e8 36040000 		.4byte	.LVL81
 12346 00ec B4040000 		.4byte	.LFE257
 12347 00f0 0200     		.2byte	0x2
 12348 00f2 37       		.byte	0x37
 12349 00f3 9F       		.byte	0x9f
 12350 00f4 00000000 		.4byte	0
 12351 00f8 00000000 		.4byte	0
 12352              	.LLST9:
 12353 00fc 00000000 		.4byte	.LVL90
 12354 0100 38000000 		.4byte	.LVL92
 12355 0104 0200     		.2byte	0x2
 12356 0106 90       		.byte	0x90
 12357 0107 40       		.uleb128 0x40
 12358 0108 38000000 		.4byte	.LVL92
 12359 010c 3A000000 		.4byte	.LVL93
 12360 0110 0600     		.2byte	0x6
 12361 0112 F3       		.byte	0xf3
 12362 0113 03       		.uleb128 0x3
 12363 0114 F5       		.byte	0xf5
 12364 0115 40       		.uleb128 0x40
 12365 0116 25       		.uleb128 0x25
 12366 0117 9F       		.byte	0x9f
 12367 0118 3A000000 		.4byte	.LVL93
 12368 011c 52000000 		.4byte	.LVL94
 12369 0120 0200     		.2byte	0x2
 12370 0122 90       		.byte	0x90
 12371 0123 40       		.uleb128 0x40
 12372 0124 52000000 		.4byte	.LVL94
 12373 0128 5C000000 		.4byte	.LFE267
 12374 012c 0600     		.2byte	0x6
 12375 012e F3       		.byte	0xf3
 12376 012f 03       		.uleb128 0x3
 12377 0130 F5       		.byte	0xf5
 12378 0131 40       		.uleb128 0x40
 12379 0132 25       		.uleb128 0x25
 12380 0133 9F       		.byte	0x9f
 12381 0134 00000000 		.4byte	0
 12382 0138 00000000 		.4byte	0
 12383              	.LLST10:
 12384 013c 38000000 		.4byte	.LVL92
 12385 0140 3A000000 		.4byte	.LVL93
ARM GAS  C:\Users\IDONNO~1\AppData\Local\Temp\ccm1q34l.s 			page 219


 12386 0144 0200     		.2byte	0x2
 12387 0146 90       		.byte	0x90
 12388 0147 40       		.uleb128 0x40
 12389 0148 52000000 		.4byte	.LVL94
 12390 014c 5C000000 		.4byte	.LFE267
 12391 0150 0200     		.2byte	0x2
 12392 0152 90       		.byte	0x90
 12393 0153 40       		.uleb128 0x40
 12394 0154 00000000 		.4byte	0
 12395 0158 00000000 		.4byte	0
 12396              	.LLST11:
 12397 015c 28000000 		.4byte	.LVL91
 12398 0160 38000000 		.4byte	.LVL92
 12399 0164 0200     		.2byte	0x2
 12400 0166 90       		.byte	0x90
 12401 0167 40       		.uleb128 0x40
 12402 0168 00000000 		.4byte	0
 12403 016c 00000000 		.4byte	0
 12404              	.LLST12:
 12405 0170 00000000 		.4byte	.LVL101
 12406 0174 16000000 		.4byte	.LVL104
 12407 0178 0100     		.2byte	0x1
 12408 017a 50       		.byte	0x50
 12409 017b 16000000 		.4byte	.LVL104
 12410 017f 48000000 		.4byte	.LFE268
 12411 0183 0400     		.2byte	0x4
 12412 0185 F3       		.byte	0xf3
 12413 0186 01       		.uleb128 0x1
 12414 0187 50       		.byte	0x50
 12415 0188 9F       		.byte	0x9f
 12416 0189 00000000 		.4byte	0
 12417 018d 00000000 		.4byte	0
 12418              	.LLST13:
 12419 0191 00000000 		.4byte	.LVL101
 12420 0195 1E000000 		.4byte	.LVL105
 12421 0199 0100     		.2byte	0x1
 12422 019b 51       		.byte	0x51
 12423 019c 1E000000 		.4byte	.LVL105
 12424 01a0 48000000 		.4byte	.LFE268
 12425 01a4 0400     		.2byte	0x4
 12426 01a6 F3       		.byte	0xf3
 12427 01a7 01       		.uleb128 0x1
 12428 01a8 51       		.byte	0x51
 12429 01a9 9F       		.byte	0x9f
 12430 01aa 00000000 		.4byte	0
 12431 01ae 00000000 		.4byte	0
 12432              	.LLST14:
 12433 01b2 08000000 		.4byte	.LVL102
 12434 01b6 16000000 		.4byte	.LVL104
 12435 01ba 0A00     		.2byte	0xa
 12436 01bc 70       		.byte	0x70
 12437 01bd 00       		.sleb128 0
 12438 01be 72       		.byte	0x72
 12439 01bf 00       		.sleb128 0
 12440 01c0 40       		.byte	0x40
 12441 01c1 24       		.byte	0x24
 12442 01c2 40       		.byte	0x40
ARM GAS  C:\Users\IDONNO~1\AppData\Local\Temp\ccm1q34l.s 			page 220


 12443 01c3 26       		.byte	0x26
 12444 01c4 1C       		.byte	0x1c
 12445 01c5 9F       		.byte	0x9f
 12446 01c6 16000000 		.4byte	.LVL104
 12447 01ca 48000000 		.4byte	.LFE268
 12448 01ce 0100     		.2byte	0x1
 12449 01d0 50       		.byte	0x50
 12450 01d1 00000000 		.4byte	0
 12451 01d5 00000000 		.4byte	0
 12452              	.LLST15:
 12453 01d9 0A000000 		.4byte	.LVL103
 12454 01dd 1E000000 		.4byte	.LVL105
 12455 01e1 0A00     		.2byte	0xa
 12456 01e3 71       		.byte	0x71
 12457 01e4 00       		.sleb128 0
 12458 01e5 73       		.byte	0x73
 12459 01e6 00       		.sleb128 0
 12460 01e7 40       		.byte	0x40
 12461 01e8 24       		.byte	0x24
 12462 01e9 40       		.byte	0x40
 12463 01ea 26       		.byte	0x26
 12464 01eb 1C       		.byte	0x1c
 12465 01ec 9F       		.byte	0x9f
 12466 01ed 1E000000 		.4byte	.LVL105
 12467 01f1 48000000 		.4byte	.LFE268
 12468 01f5 0100     		.2byte	0x1
 12469 01f7 51       		.byte	0x51
 12470 01f8 00000000 		.4byte	0
 12471 01fc 00000000 		.4byte	0
 12472              	.LLST16:
 12473 0200 00000000 		.4byte	.LVL109
 12474 0204 0D000000 		.4byte	.LVL110-1
 12475 0208 0100     		.2byte	0x1
 12476 020a 50       		.byte	0x50
 12477 020b 0D000000 		.4byte	.LVL110-1
 12478 020f 3E000000 		.4byte	.LVL111
 12479 0213 0100     		.2byte	0x1
 12480 0215 58       		.byte	0x58
 12481 0216 3E000000 		.4byte	.LVL111
 12482 021a 4C000000 		.4byte	.LFE273
 12483 021e 0400     		.2byte	0x4
 12484 0220 F3       		.byte	0xf3
 12485 0221 01       		.uleb128 0x1
 12486 0222 50       		.byte	0x50
 12487 0223 9F       		.byte	0x9f
 12488 0224 00000000 		.4byte	0
 12489 0228 00000000 		.4byte	0
 12490              	.LLST17:
 12491 022c 00000000 		.4byte	.LVL109
 12492 0230 0D000000 		.4byte	.LVL110-1
 12493 0234 0100     		.2byte	0x1
 12494 0236 51       		.byte	0x51
 12495 0237 0D000000 		.4byte	.LVL110-1
 12496 023b 3E000000 		.4byte	.LVL111
 12497 023f 0100     		.2byte	0x1
 12498 0241 57       		.byte	0x57
 12499 0242 3E000000 		.4byte	.LVL111
ARM GAS  C:\Users\IDONNO~1\AppData\Local\Temp\ccm1q34l.s 			page 221


 12500 0246 4C000000 		.4byte	.LFE273
 12501 024a 0400     		.2byte	0x4
 12502 024c F3       		.byte	0xf3
 12503 024d 01       		.uleb128 0x1
 12504 024e 51       		.byte	0x51
 12505 024f 9F       		.byte	0x9f
 12506 0250 00000000 		.4byte	0
 12507 0254 00000000 		.4byte	0
 12508              	.LLST18:
 12509 0258 00000000 		.4byte	.LVL109
 12510 025c 0D000000 		.4byte	.LVL110-1
 12511 0260 0100     		.2byte	0x1
 12512 0262 52       		.byte	0x52
 12513 0263 0D000000 		.4byte	.LVL110-1
 12514 0267 3E000000 		.4byte	.LVL111
 12515 026b 0100     		.2byte	0x1
 12516 026d 56       		.byte	0x56
 12517 026e 3E000000 		.4byte	.LVL111
 12518 0272 4C000000 		.4byte	.LFE273
 12519 0276 0400     		.2byte	0x4
 12520 0278 F3       		.byte	0xf3
 12521 0279 01       		.uleb128 0x1
 12522 027a 52       		.byte	0x52
 12523 027b 9F       		.byte	0x9f
 12524 027c 00000000 		.4byte	0
 12525 0280 00000000 		.4byte	0
 12526              	.LLST19:
 12527 0284 00000000 		.4byte	.LVL125
 12528 0288 59000000 		.4byte	.LVL126-1
 12529 028c 0100     		.2byte	0x1
 12530 028e 50       		.byte	0x50
 12531 028f 59000000 		.4byte	.LVL126-1
 12532 0293 38020000 		.4byte	.LVL132
 12533 0297 0100     		.2byte	0x1
 12534 0299 56       		.byte	0x56
 12535 029a 38020000 		.4byte	.LVL132
 12536 029e 3C020000 		.4byte	.LVL133
 12537 02a2 0400     		.2byte	0x4
 12538 02a4 F3       		.byte	0xf3
 12539 02a5 01       		.uleb128 0x1
 12540 02a6 50       		.byte	0x50
 12541 02a7 9F       		.byte	0x9f
 12542 02a8 3C020000 		.4byte	.LVL133
 12543 02ac E4020000 		.4byte	.LFE275
 12544 02b0 0100     		.2byte	0x1
 12545 02b2 56       		.byte	0x56
 12546 02b3 00000000 		.4byte	0
 12547 02b7 00000000 		.4byte	0
 12548              	.LLST20:
 12549 02bb 76010000 		.4byte	.LVL130
 12550 02bf 34020000 		.4byte	.LVL131
 12551 02c3 0200     		.2byte	0x2
 12552 02c5 90       		.byte	0x90
 12553 02c6 50       		.uleb128 0x50
 12554 02c7 34020000 		.4byte	.LVL131
 12555 02cb 38020000 		.4byte	.LVL132
 12556 02cf 0D00     		.2byte	0xd
ARM GAS  C:\Users\IDONNO~1\AppData\Local\Temp\ccm1q34l.s 			page 222


 12557 02d1 03       		.byte	0x3
 12558 02d2 00000000 		.4byte	Hall_SinCos
 12559 02d6 F6       		.byte	0xf6
 12560 02d7 04       		.byte	0x4
 12561 02d8 25       		.uleb128 0x25
 12562 02d9 F5       		.byte	0xf5
 12563 02da 51       		.uleb128 0x51
 12564 02db 25       		.uleb128 0x25
 12565 02dc 1C       		.byte	0x1c
 12566 02dd 9F       		.byte	0x9f
 12567 02de 38020000 		.4byte	.LVL132
 12568 02e2 3B020000 		.4byte	.LVL133-1
 12569 02e6 0D00     		.2byte	0xd
 12570 02e8 03       		.byte	0x3
 12571 02e9 00000000 		.4byte	Hall_SinCos
 12572 02ed F6       		.byte	0xf6
 12573 02ee 04       		.byte	0x4
 12574 02ef 25       		.uleb128 0x25
 12575 02f0 F5       		.byte	0xf5
 12576 02f1 51       		.uleb128 0x51
 12577 02f2 25       		.uleb128 0x25
 12578 02f3 1C       		.byte	0x1c
 12579 02f4 9F       		.byte	0x9f
 12580 02f5 3C020000 		.4byte	.LVL133
 12581 02f9 E4020000 		.4byte	.LFE275
 12582 02fd 0200     		.2byte	0x2
 12583 02ff 90       		.byte	0x90
 12584 0300 50       		.uleb128 0x50
 12585 0301 00000000 		.4byte	0
 12586 0305 00000000 		.4byte	0
 12587              	.LLST21:
 12588 0309 16000000 		.4byte	.LVL135
 12589 030d 18000000 		.4byte	.LVL136
 12590 0311 0100     		.2byte	0x1
 12591 0313 50       		.byte	0x50
 12592 0314 18000000 		.4byte	.LVL136
 12593 0318 16010000 		.4byte	.LVL151
 12594 031c 0100     		.2byte	0x1
 12595 031e 55       		.byte	0x55
 12596 031f 00000000 		.4byte	0
 12597 0323 00000000 		.4byte	0
 12598              	.LLST22:
 12599 0327 2A000000 		.4byte	.LVL138
 12600 032b 32000000 		.4byte	.LVL139
 12601 032f 0100     		.2byte	0x1
 12602 0331 50       		.byte	0x50
 12603 0332 32000000 		.4byte	.LVL139
 12604 0336 16010000 		.4byte	.LVL151
 12605 033a 0100     		.2byte	0x1
 12606 033c 54       		.byte	0x54
 12607 033d 00000000 		.4byte	0
 12608 0341 00000000 		.4byte	0
 12609              	.LLST23:
 12610 0345 52000000 		.4byte	.LVL141
 12611 0349 96000000 		.4byte	.LVL146
 12612 034d 0100     		.2byte	0x1
 12613 034f 54       		.byte	0x54
ARM GAS  C:\Users\IDONNO~1\AppData\Local\Temp\ccm1q34l.s 			page 223


 12614 0350 00000000 		.4byte	0
 12615 0354 00000000 		.4byte	0
 12616              	.LLST24:
 12617 0358 52000000 		.4byte	.LVL141
 12618 035c 96000000 		.4byte	.LVL146
 12619 0360 0100     		.2byte	0x1
 12620 0362 55       		.byte	0x55
 12621 0363 00000000 		.4byte	0
 12622 0367 00000000 		.4byte	0
 12623              	.LLST25:
 12624 036b 54000000 		.4byte	.LVL142
 12625 036f 6A000000 		.4byte	.LVL145
 12626 0373 0A00     		.2byte	0xa
 12627 0375 75       		.byte	0x75
 12628 0376 00       		.sleb128 0
 12629 0377 71       		.byte	0x71
 12630 0378 00       		.sleb128 0
 12631 0379 40       		.byte	0x40
 12632 037a 24       		.byte	0x24
 12633 037b 40       		.byte	0x40
 12634 037c 26       		.byte	0x26
 12635 037d 1C       		.byte	0x1c
 12636 037e 9F       		.byte	0x9f
 12637 037f 6A000000 		.4byte	.LVL145
 12638 0383 96000000 		.4byte	.LVL146
 12639 0387 0100     		.2byte	0x1
 12640 0389 51       		.byte	0x51
 12641 038a 00000000 		.4byte	0
 12642 038e 00000000 		.4byte	0
 12643              	.LLST26:
 12644 0392 56000000 		.4byte	.LVL143
 12645 0396 68000000 		.4byte	.LVL144
 12646 039a 0A00     		.2byte	0xa
 12647 039c 74       		.byte	0x74
 12648 039d 00       		.sleb128 0
 12649 039e 72       		.byte	0x72
 12650 039f 00       		.sleb128 0
 12651 03a0 40       		.byte	0x40
 12652 03a1 24       		.byte	0x24
 12653 03a2 40       		.byte	0x40
 12654 03a3 26       		.byte	0x26
 12655 03a4 1C       		.byte	0x1c
 12656 03a5 9F       		.byte	0x9f
 12657 03a6 68000000 		.4byte	.LVL144
 12658 03aa 96000000 		.4byte	.LVL146
 12659 03ae 0100     		.2byte	0x1
 12660 03b0 52       		.byte	0x52
 12661 03b1 00000000 		.4byte	0
 12662 03b5 00000000 		.4byte	0
 12663              	.LLST27:
 12664 03b9 00000000 		.4byte	.LVL162
 12665 03bd 0A000000 		.4byte	.LVL164
 12666 03c1 0100     		.2byte	0x1
 12667 03c3 51       		.byte	0x51
 12668 03c4 0A000000 		.4byte	.LVL164
 12669 03c8 24000000 		.4byte	.LFE277
 12670 03cc 0400     		.2byte	0x4
ARM GAS  C:\Users\IDONNO~1\AppData\Local\Temp\ccm1q34l.s 			page 224


 12671 03ce F3       		.byte	0xf3
 12672 03cf 01       		.uleb128 0x1
 12673 03d0 51       		.byte	0x51
 12674 03d1 9F       		.byte	0x9f
 12675 03d2 00000000 		.4byte	0
 12676 03d6 00000000 		.4byte	0
 12677              	.LLST28:
 12678 03da 04000000 		.4byte	.LVL163
 12679 03de 22000000 		.4byte	.LVL165
 12680 03e2 0100     		.2byte	0x1
 12681 03e4 50       		.byte	0x50
 12682 03e5 00000000 		.4byte	0
 12683 03e9 00000000 		.4byte	0
 12684              		.section	.debug_aranges,"",%progbits
 12685 0000 D4000000 		.4byte	0xd4
 12686 0004 0200     		.2byte	0x2
 12687 0006 00000000 		.4byte	.Ldebug_info0
 12688 000a 04       		.byte	0x4
 12689 000b 00       		.byte	0
 12690 000c 0000     		.2byte	0
 12691 000e 0000     		.2byte	0
 12692 0010 00000000 		.4byte	.LFB260
 12693 0014 1C000000 		.4byte	.LFE260-.LFB260
 12694 0018 00000000 		.4byte	.LFB261
 12695 001c 70000000 		.4byte	.LFE261-.LFB261
 12696 0020 00000000 		.4byte	.LFB262
 12697 0024 68000000 		.4byte	.LFE262-.LFB262
 12698 0028 00000000 		.4byte	.LFB264
 12699 002c 08000000 		.4byte	.LFE264-.LFB264
 12700 0030 00000000 		.4byte	.LFB265
 12701 0034 60000000 		.4byte	.LFE265-.LFB265
 12702 0038 00000000 		.4byte	.LFB266
 12703 003c 8C000000 		.4byte	.LFE266-.LFB266
 12704 0040 00000000 		.4byte	.LFB257
 12705 0044 B4040000 		.4byte	.LFE257-.LFB257
 12706 0048 00000000 		.4byte	.LFB267
 12707 004c 5C000000 		.4byte	.LFE267-.LFB267
 12708 0050 00000000 		.4byte	.LFB263
 12709 0054 0C010000 		.4byte	.LFE263-.LFB263
 12710 0058 00000000 		.4byte	.LFB268
 12711 005c 48000000 		.4byte	.LFE268-.LFB268
 12712 0060 00000000 		.4byte	.LFB269
 12713 0064 0C000000 		.4byte	.LFE269-.LFB269
 12714 0068 00000000 		.4byte	.LFB270
 12715 006c 4C000000 		.4byte	.LFE270-.LFB270
 12716 0070 00000000 		.4byte	.LFB271
 12717 0074 48000000 		.4byte	.LFE271-.LFB271
 12718 0078 00000000 		.4byte	.LFB272
 12719 007c 6C000000 		.4byte	.LFE272-.LFB272
 12720 0080 00000000 		.4byte	.LFB273
 12721 0084 4C000000 		.4byte	.LFE273-.LFB273
 12722 0088 00000000 		.4byte	.LFB274
 12723 008c 00010000 		.4byte	.LFE274-.LFB274
 12724 0090 00000000 		.4byte	.LFB275
 12725 0094 E4020000 		.4byte	.LFE275-.LFB275
 12726 0098 00000000 		.4byte	.LFB259
 12727 009c 5C010000 		.4byte	.LFE259-.LFB259
ARM GAS  C:\Users\IDONNO~1\AppData\Local\Temp\ccm1q34l.s 			page 225


 12728 00a0 00000000 		.4byte	.LFB276
 12729 00a4 70000000 		.4byte	.LFE276-.LFB276
 12730 00a8 00000000 		.4byte	.LFB277
 12731 00ac 24000000 		.4byte	.LFE277-.LFB277
 12732 00b0 00000000 		.4byte	.LFB278
 12733 00b4 20000000 		.4byte	.LFE278-.LFB278
 12734 00b8 00000000 		.4byte	.LFB279
 12735 00bc 0C000000 		.4byte	.LFE279-.LFB279
 12736 00c0 00000000 		.4byte	.LFB280
 12737 00c4 0C000000 		.4byte	.LFE280-.LFB280
 12738 00c8 00000000 		.4byte	.LFB281
 12739 00cc 24000000 		.4byte	.LFE281-.LFB281
 12740 00d0 00000000 		.4byte	0
 12741 00d4 00000000 		.4byte	0
 12742              		.section	.debug_ranges,"",%progbits
 12743              	.Ldebug_ranges0:
 12744 0000 18000000 		.4byte	.LBB20
 12745 0004 1A000000 		.4byte	.LBE20
 12746 0008 3C000000 		.4byte	.LBB27
 12747 000c 40000000 		.4byte	.LBE27
 12748 0010 00000000 		.4byte	0
 12749 0014 00000000 		.4byte	0
 12750 0018 2C000000 		.4byte	.LBB23
 12751 001c 2E000000 		.4byte	.LBE23
 12752 0020 30000000 		.4byte	.LBB26
 12753 0024 32000000 		.4byte	.LBE26
 12754 0028 00000000 		.4byte	0
 12755 002c 00000000 		.4byte	0
 12756 0030 D2030000 		.4byte	.LBB34
 12757 0034 D4030000 		.4byte	.LBE34
 12758 0038 E0030000 		.4byte	.LBB38
 12759 003c 2A040000 		.4byte	.LBE38
 12760 0040 30040000 		.4byte	.LBB39
 12761 0044 32040000 		.4byte	.LBE39
 12762 0048 00000000 		.4byte	0
 12763 004c 00000000 		.4byte	0
 12764 0050 46000000 		.4byte	.LBB44
 12765 0054 48000000 		.4byte	.LBE44
 12766 0058 52000000 		.4byte	.LBB50
 12767 005c 5E000000 		.4byte	.LBE50
 12768 0060 60000000 		.4byte	.LBB51
 12769 0064 7A000000 		.4byte	.LBE51
 12770 0068 7C000000 		.4byte	.LBB52
 12771 006c 84000000 		.4byte	.LBE52
 12772 0070 8E000000 		.4byte	.LBB53
 12773 0074 96000000 		.4byte	.LBE53
 12774 0078 00000000 		.4byte	0
 12775 007c 00000000 		.4byte	0
 12776 0080 00000000 		.4byte	.LFB260
 12777 0084 1C000000 		.4byte	.LFE260
 12778 0088 00000000 		.4byte	.LFB261
 12779 008c 70000000 		.4byte	.LFE261
 12780 0090 00000000 		.4byte	.LFB262
 12781 0094 68000000 		.4byte	.LFE262
 12782 0098 00000000 		.4byte	.LFB264
 12783 009c 08000000 		.4byte	.LFE264
 12784 00a0 00000000 		.4byte	.LFB265
ARM GAS  C:\Users\IDONNO~1\AppData\Local\Temp\ccm1q34l.s 			page 226


 12785 00a4 60000000 		.4byte	.LFE265
 12786 00a8 00000000 		.4byte	.LFB266
 12787 00ac 8C000000 		.4byte	.LFE266
 12788 00b0 00000000 		.4byte	.LFB257
 12789 00b4 B4040000 		.4byte	.LFE257
 12790 00b8 00000000 		.4byte	.LFB267
 12791 00bc 5C000000 		.4byte	.LFE267
 12792 00c0 00000000 		.4byte	.LFB263
 12793 00c4 0C010000 		.4byte	.LFE263
 12794 00c8 00000000 		.4byte	.LFB268
 12795 00cc 48000000 		.4byte	.LFE268
 12796 00d0 00000000 		.4byte	.LFB269
 12797 00d4 0C000000 		.4byte	.LFE269
 12798 00d8 00000000 		.4byte	.LFB270
 12799 00dc 4C000000 		.4byte	.LFE270
 12800 00e0 00000000 		.4byte	.LFB271
 12801 00e4 48000000 		.4byte	.LFE271
 12802 00e8 00000000 		.4byte	.LFB272
 12803 00ec 6C000000 		.4byte	.LFE272
 12804 00f0 00000000 		.4byte	.LFB273
 12805 00f4 4C000000 		.4byte	.LFE273
 12806 00f8 00000000 		.4byte	.LFB274
 12807 00fc 00010000 		.4byte	.LFE274
 12808 0100 00000000 		.4byte	.LFB275
 12809 0104 E4020000 		.4byte	.LFE275
 12810 0108 00000000 		.4byte	.LFB259
 12811 010c 5C010000 		.4byte	.LFE259
 12812 0110 00000000 		.4byte	.LFB276
 12813 0114 70000000 		.4byte	.LFE276
 12814 0118 00000000 		.4byte	.LFB277
 12815 011c 24000000 		.4byte	.LFE277
 12816 0120 00000000 		.4byte	.LFB278
 12817 0124 20000000 		.4byte	.LFE278
 12818 0128 00000000 		.4byte	.LFB279
 12819 012c 0C000000 		.4byte	.LFE279
 12820 0130 00000000 		.4byte	.LFB280
 12821 0134 0C000000 		.4byte	.LFE280
 12822 0138 00000000 		.4byte	.LFB281
 12823 013c 24000000 		.4byte	.LFE281
 12824 0140 00000000 		.4byte	0
 12825 0144 00000000 		.4byte	0
 12826              		.section	.debug_line,"",%progbits
 12827              	.Ldebug_line0:
 12828 0000 6C0A0000 		.section	.debug_str,"MS",%progbits,1
 12828      02009504 
 12828      00000201 
 12828      FB0E0D00 
 12828      01010101 
 12829              	.LASF236:
 12830 0000 706F7274 		.ascii	"port_intctx\000"
 12830      5F696E74 
 12830      63747800 
 12831              	.LASF468:
 12832 000c 6C5F6D61 		.ascii	"l_max_erpm_fbrake\000"
 12832      785F6572 
 12832      706D5F66 
 12832      6272616B 
ARM GAS  C:\Users\IDONNO~1\AppData\Local\Temp\ccm1q34l.s 			page 227


 12832      6500
 12833              	.LASF465:
 12834 001e 6C5F6162 		.ascii	"l_abs_current_max\000"
 12834      735F6375 
 12834      7272656E 
 12834      745F6D61 
 12834      7800
 12835              	.LASF123:
 12836 0030 54494D32 		.ascii	"TIM2_IRQn\000"
 12836      5F495251 
 12836      6E00
 12837              	.LASF162:
 12838 003a 4F54475F 		.ascii	"OTG_FS_IRQn\000"
 12838      46535F49 
 12838      52516E00 
 12839              	.LASF529:
 12840 0046 5A626574 		.ascii	"Zbeta\000"
 12840      6100
 12841              	.LASF745:
 12842 004c 57574447 		.ascii	"WWDG_Enable\000"
 12842      5F456E61 
 12842      626C6500 
 12843              	.LASF569:
 12844 0058 71467743 		.ascii	"qFwCurve\000"
 12844      75727665 
 12844      00
 12845              	.LASF29:
 12846 0061 6D73675F 		.ascii	"msg_t\000"
 12846      7400
 12847              	.LASF662:
 12848 0067 48616C6C 		.ascii	"HallPLLqe\000"
 12848      504C4C71 
 12848      6500
 12849              	.LASF541:
 12850 0071 54686574 		.ascii	"Theta\000"
 12850      6100
 12851              	.LASF157:
 12852 0077 4554485F 		.ascii	"ETH_WKUP_IRQn\000"
 12852      574B5550 
 12852      5F495251 
 12852      6E00
 12853              	.LASF189:
 12854 0085 50494430 		.ascii	"PID0\000"
 12854      00
 12855              	.LASF190:
 12856 008a 50494431 		.ascii	"PID1\000"
 12856      00
 12857              	.LASF191:
 12858 008f 50494432 		.ascii	"PID2\000"
 12858      00
 12859              	.LASF192:
 12860 0094 50494433 		.ascii	"PID3\000"
 12860      00
 12861              	.LASF185:
 12862 0099 50494434 		.ascii	"PID4\000"
 12862      00
 12863              	.LASF186:
ARM GAS  C:\Users\IDONNO~1\AppData\Local\Temp\ccm1q34l.s 			page 228


 12864 009e 50494435 		.ascii	"PID5\000"
 12864      00
 12865              	.LASF138:
 12866 00a3 54494D38 		.ascii	"TIM8_BRK_TIM12_IRQn\000"
 12866      5F42524B 
 12866      5F54494D 
 12866      31325F49 
 12866      52516E00 
 12867              	.LASF188:
 12868 00b7 50494437 		.ascii	"PID7\000"
 12868      00
 12869              	.LASF81:
 12870 00bc 63685F73 		.ascii	"ch_system_t\000"
 12870      79737465 
 12870      6D5F7400 
 12871              	.LASF5:
 12872 00c8 5F5F7569 		.ascii	"__uint8_t\000"
 12872      6E74385F 
 12872      7400
 12873              	.LASF182:
 12874 00d2 494D4352 		.ascii	"IMCR\000"
 12874      00
 12875              	.LASF243:
 12876 00d7 77747365 		.ascii	"wtsemp\000"
 12876      6D7000
 12877              	.LASF92:
 12878 00de 44656275 		.ascii	"DebugMonitor_IRQn\000"
 12878      674D6F6E 
 12878      69746F72 
 12878      5F495251 
 12878      6E00
 12879              	.LASF318:
 12880 00f0 54494D5F 		.ascii	"TIM_OCPolarity\000"
 12880      4F43506F 
 12880      6C617269 
 12880      747900
 12881              	.LASF262:
 12882 00ff 5F426F6F 		.ascii	"_Bool\000"
 12882      6C00
 12883              	.LASF510:
 12884 0105 52756E4D 		.ascii	"RunMotor\000"
 12884      6F746F72 
 12884      00
 12885              	.LASF646:
 12886 010e 56656C52 		.ascii	"VelReq\000"
 12886      657100
 12887              	.LASF383:
 12888 0115 5F6D6273 		.ascii	"_mbstate\000"
 12888      74617465 
 12888      00
 12889              	.LASF155:
 12890 011e 444D4132 		.ascii	"DMA2_Stream4_IRQn\000"
 12890      5F537472 
 12890      65616D34 
 12890      5F495251 
 12890      6E00
 12891              	.LASF171:
ARM GAS  C:\Users\IDONNO~1\AppData\Local\Temp\ccm1q34l.s 			page 229


 12892 0130 4F54475F 		.ascii	"OTG_HS_WKUP_IRQn\000"
 12892      48535F57 
 12892      4B55505F 
 12892      4952516E 
 12892      00
 12893              	.LASF589:
 12894 0141 436C6172 		.ascii	"ClarkePark\000"
 12894      6B655061 
 12894      726B00
 12895              	.LASF701:
 12896 014c 57574447 		.ascii	"WWDG_SetCounter\000"
 12896      5F536574 
 12896      436F756E 
 12896      74657200 
 12897              	.LASF77:
 12898 015c 76745F73 		.ascii	"vt_systime\000"
 12898      79737469 
 12898      6D6500
 12899              	.LASF154:
 12900 0167 444D4132 		.ascii	"DMA2_Stream3_IRQn\000"
 12900      5F537472 
 12900      65616D33 
 12900      5F495251 
 12900      6E00
 12901              	.LASF360:
 12902 0179 5F666E74 		.ascii	"_fntypes\000"
 12902      79706573 
 12902      00
 12903              	.LASF252:
 12904 0182 6D5F6E65 		.ascii	"m_next\000"
 12904      787400
 12905              	.LASF113:
 12906 0189 4144435F 		.ascii	"ADC_IRQn\000"
 12906      4952516E 
 12906      00
 12907              	.LASF472:
 12908 0192 6C5F736C 		.ascii	"l_slow_abs_current\000"
 12908      6F775F61 
 12908      62735F63 
 12908      75727265 
 12908      6E7400
 12909              	.LASF390:
 12910 01a5 5F696E63 		.ascii	"_inc\000"
 12910      00
 12911              	.LASF363:
 12912 01aa 5F696E64 		.ascii	"_ind\000"
 12912      00
 12913              	.LASF671:
 12914 01af 4B706C6C 		.ascii	"Kpll\000"
 12914      00
 12915              	.LASF464:
 12916 01b4 6C5F696E 		.ascii	"l_in_current_min\000"
 12916      5F637572 
 12916      72656E74 
 12916      5F6D696E 
 12916      00
 12917              	.LASF227:
ARM GAS  C:\Users\IDONNO~1\AppData\Local\Temp\ccm1q34l.s 			page 230


 12918 01c5 42445452 		.ascii	"BDTR\000"
 12918      00
 12919              	.LASF532:
 12920 01ca 49616C70 		.ascii	"IalphaError\000"
 12920      68614572 
 12920      726F7200 
 12921              	.LASF19:
 12922 01d6 75696E74 		.ascii	"uint16_t\000"
 12922      31365F74 
 12922      00
 12923              	.LASF153:
 12924 01df 444D4132 		.ascii	"DMA2_Stream2_IRQn\000"
 12924      5F537472 
 12924      65616D32 
 12924      5F495251 
 12924      6E00
 12925              	.LASF618:
 12926 01f1 72756E5F 		.ascii	"run_stop\000"
 12926      73746F70 
 12926      00
 12927              	.LASF700:
 12928 01fa 73696E33 		.ascii	"sin3th\000"
 12928      746800
 12929              	.LASF616:
 12930 0201 66707574 		.ascii	"fputc\000"
 12930      6300
 12931              	.LASF624:
 12932 0207 64636361 		.ascii	"dccal_done\000"
 12932      6C5F646F 
 12932      6E6500
 12933              	.LASF369:
 12934 0212 5F666C61 		.ascii	"_flags\000"
 12934      677300
 12935              	.LASF761:
 12936 0219 43616C63 		.ascii	"CalcTimes\000"
 12936      54696D65 
 12936      7300
 12937              	.LASF317:
 12938 0223 54494D5F 		.ascii	"TIM_Pulse\000"
 12938      50756C73 
 12938      6500
 12939              	.LASF166:
 12940 022d 55534152 		.ascii	"USART6_IRQn\000"
 12940      54365F49 
 12940      52516E00 
 12941              	.LASF502:
 12942 0239 63635F73 		.ascii	"cc_startup_boost_duty\000"
 12942      74617274 
 12942      75705F62 
 12942      6F6F7374 
 12942      5F647574 
 12943              	.LASF601:
 12944 024f 50726573 		.ascii	"PrescalerValue\000"
 12944      63616C65 
 12944      7256616C 
 12944      756500
 12945              	.LASF294:
ARM GAS  C:\Users\IDONNO~1\AppData\Local\Temp\ccm1q34l.s 			page 231


 12946 025e 444D415F 		.ascii	"DMA_InitTypeDef\000"
 12946      496E6974 
 12946      54797065 
 12946      44656600 
 12947              	.LASF400:
 12948 026e 5F637674 		.ascii	"_cvtlen\000"
 12948      6C656E00 
 12949              	.LASF492:
 12950 0276 68616C6C 		.ascii	"hall_dir\000"
 12950      5F646972 
 12950      00
 12951              	.LASF289:
 12952 027f 444D415F 		.ascii	"DMA_Priority\000"
 12952      5072696F 
 12952      72697479 
 12952      00
 12953              	.LASF58:
 12954 028c 63685F74 		.ascii	"ch_threads_queue\000"
 12954      68726561 
 12954      64735F71 
 12954      75657565 
 12954      00
 12955              	.LASF696:
 12956 029d 42636F73 		.ascii	"Bcos3th\000"
 12956      33746800 
 12957              	.LASF404:
 12958 02a5 5F736967 		.ascii	"_sig_func\000"
 12958      5F66756E 
 12958      6300
 12959              	.LASF749:
 12960 02af 4144435F 		.ascii	"ADC_GetInjectedConversionValue\000"
 12960      47657449 
 12960      6E6A6563 
 12960      74656443 
 12960      6F6E7665 
 12961              	.LASF466:
 12962 02ce 6C5F6D69 		.ascii	"l_min_erpm\000"
 12962      6E5F6572 
 12962      706D00
 12963              	.LASF38:
 12964 02d9 705F6E65 		.ascii	"p_newer\000"
 12964      77657200 
 12965              	.LASF559:
 12966 02e1 7156656C 		.ascii	"qVelRef\000"
 12966      52656600 
 12967              	.LASF301:
 12968 02e9 4144435F 		.ascii	"ADC_NbrOfConversion\000"
 12968      4E62724F 
 12968      66436F6E 
 12968      76657273 
 12968      696F6E00 
 12969              	.LASF198:
 12970 02fd 534D5052 		.ascii	"SMPR1\000"
 12970      3100
 12971              	.LASF199:
 12972 0303 534D5052 		.ascii	"SMPR2\000"
 12972      3200
ARM GAS  C:\Users\IDONNO~1\AppData\Local\Temp\ccm1q34l.s 			page 232


 12973              	.LASF382:
 12974 0309 5F6C6F63 		.ascii	"_lock\000"
 12974      6B00
 12975              	.LASF378:
 12976 030f 5F6E6275 		.ascii	"_nbuf\000"
 12976      6600
 12977              	.LASF436:
 12978 0315 5F756E75 		.ascii	"_unused\000"
 12978      73656400 
 12979              	.LASF311:
 12980 031d 54494D5F 		.ascii	"TIM_ClockDivision\000"
 12980      436C6F63 
 12980      6B446976 
 12980      6973696F 
 12980      6E00
 12981              	.LASF672:
 12982 032f 49706C6C 		.ascii	"Ipll\000"
 12982      00
 12983              	.LASF737:
 12984 0334 54494D5F 		.ascii	"TIM_SelectMasterSlaveMode\000"
 12984      53656C65 
 12984      63744D61 
 12984      73746572 
 12984      536C6176 
 12985              	.LASF676:
 12986 034e 48616C6C 		.ascii	"HallPLLA_cos3th\000"
 12986      504C4C41 
 12986      5F636F73 
 12986      33746800 
 12987              	.LASF100:
 12988 035e 5243435F 		.ascii	"RCC_IRQn\000"
 12988      4952516E 
 12988      00
 12989              	.LASF303:
 12990 0367 4144435F 		.ascii	"ADC_Mode\000"
 12990      4D6F6465 
 12990      00
 12991              	.LASF604:
 12992 0370 75706461 		.ascii	"update_timer_Duty\000"
 12992      74655F74 
 12992      696D6572 
 12992      5F447574 
 12992      7900
 12993              	.LASF475:
 12994 0382 6C5F7465 		.ascii	"l_temp_fet_end\000"
 12994      6D705F66 
 12994      65745F65 
 12994      6E6400
 12995              	.LASF265:
 12996 0391 4F545950 		.ascii	"OTYPER\000"
 12996      455200
 12997              	.LASF393:
 12998 0398 5F637572 		.ascii	"_current_locale\000"
 12998      72656E74 
 12998      5F6C6F63 
 12998      616C6500 
 12999              	.LASF33:
ARM GAS  C:\Users\IDONNO~1\AppData\Local\Temp\ccm1q34l.s 			page 233


 13000 03a8 74687265 		.ascii	"thread_t\000"
 13000      61645F74 
 13000      00
 13001              	.LASF684:
 13002 03b1 48616C6C 		.ascii	"HallPLLA_old\000"
 13002      504C4C41 
 13002      5F6F6C64 
 13002      00
 13003              	.LASF329:
 13004 03be 54494D5F 		.ascii	"TIM_AutomaticOutput\000"
 13004      4175746F 
 13004      6D617469 
 13004      634F7574 
 13004      70757400 
 13005              	.LASF76:
 13006 03d2 63685F76 		.ascii	"ch_virtual_timers_list\000"
 13006      69727475 
 13006      616C5F74 
 13006      696D6572 
 13006      735F6C69 
 13007              	.LASF259:
 13008 03e9 76656374 		.ascii	"vector\000"
 13008      6F7200
 13009              	.LASF278:
 13010 03f0 4E564943 		.ascii	"NVIC_InitTypeDef\000"
 13010      5F496E69 
 13010      74547970 
 13010      65446566 
 13010      00
 13011              	.LASF20:
 13012 0401 696E7433 		.ascii	"int32_t\000"
 13012      325F7400 
 13013              	.LASF424:
 13014 0409 5F776374 		.ascii	"_wctomb_state\000"
 13014      6F6D625F 
 13014      73746174 
 13014      6500
 13015              	.LASF32:
 13016 0417 73797374 		.ascii	"systime_t\000"
 13016      696D655F 
 13016      7400
 13017              	.LASF679:
 13018 0421 48616C6C 		.ascii	"HallPLLB_cos3th\000"
 13018      504C4C42 
 13018      5F636F73 
 13018      33746800 
 13019              	.LASF414:
 13020 0431 5F616464 		.ascii	"_add\000"
 13020      00
 13021              	.LASF144:
 13022 0436 5344494F 		.ascii	"SDIO_IRQn\000"
 13022      5F495251 
 13022      6E00
 13023              	.LASF215:
 13024 0440 4D304152 		.ascii	"M0AR\000"
 13024      00
 13025              	.LASF173:
ARM GAS  C:\Users\IDONNO~1\AppData\Local\Temp\ccm1q34l.s 			page 234


 13026 0445 44434D49 		.ascii	"DCMI_IRQn\000"
 13026      5F495251 
 13026      6E00
 13027              	.LASF687:
 13028 044f 48616C6C 		.ascii	"HallPLLB_filtered\000"
 13028      504C4C42 
 13028      5F66696C 
 13028      74657265 
 13028      6400
 13029              	.LASF455:
 13030 0461 4641554C 		.ascii	"FAULT_CODE_OVER_TEMP_FET\000"
 13030      545F434F 
 13030      44455F4F 
 13030      5645525F 
 13030      54454D50 
 13031              	.LASF136:
 13032 047a 5254435F 		.ascii	"RTC_Alarm_IRQn\000"
 13032      416C6172 
 13032      6D5F4952 
 13032      516E00
 13033              	.LASF570:
 13034 0489 74466457 		.ascii	"tFdWeakParm\000"
 13034      65616B50 
 13034      61726D00 
 13035              	.LASF442:
 13036 0495 50574D5F 		.ascii	"PWM_MODE_BIPOLAR\000"
 13036      4D4F4445 
 13036      5F424950 
 13036      4F4C4152 
 13036      00
 13037              	.LASF321:
 13038 04a6 54494D5F 		.ascii	"TIM_OCNIdleState\000"
 13038      4F434E49 
 13038      646C6553 
 13038      74617465 
 13038      00
 13039              	.LASF443:
 13040 04b7 6D635F70 		.ascii	"mc_pwm_mode\000"
 13040      776D5F6D 
 13040      6F646500 
 13041              	.LASF743:
 13042 04c3 57574447 		.ascii	"WWDG_SetPrescaler\000"
 13042      5F536574 
 13042      50726573 
 13042      63616C65 
 13042      7200
 13043              	.LASF566:
 13044 04d5 71496E64 		.ascii	"qIndex\000"
 13044      657800
 13045              	.LASF257:
 13046 04dc 69736869 		.ascii	"ishift\000"
 13046      667400
 13047              	.LASF524:
 13048 04e3 45737449 		.ascii	"EstIalpha\000"
 13048      616C7068 
 13048      6100
 13049              	.LASF703:
ARM GAS  C:\Users\IDONNO~1\AppData\Local\Temp\ccm1q34l.s 			page 235


 13050 04ed 73696E66 		.ascii	"sinf\000"
 13050      00
 13051              	.LASF371:
 13052 04f2 5F6C6266 		.ascii	"_lbfsize\000"
 13052      73697A65 
 13052      00
 13053              	.LASF320:
 13054 04fb 54494D5F 		.ascii	"TIM_OCIdleState\000"
 13054      4F434964 
 13054      6C655374 
 13054      61746500 
 13055              	.LASF723:
 13056 050b 444D415F 		.ascii	"DMA_Cmd\000"
 13056      436D6400 
 13057              	.LASF260:
 13058 0513 73746D33 		.ascii	"stm32_dma_stream_t\000"
 13058      325F646D 
 13058      615F7374 
 13058      7265616D 
 13058      5F7400
 13059              	.LASF112:
 13060 0526 444D4131 		.ascii	"DMA1_Stream6_IRQn\000"
 13060      5F537472 
 13060      65616D36 
 13060      5F495251 
 13060      6E00
 13061              	.LASF91:
 13062 0538 53564361 		.ascii	"SVCall_IRQn\000"
 13062      6C6C5F49 
 13062      52516E00 
 13063              	.LASF381:
 13064 0544 5F646174 		.ascii	"_data\000"
 13064      6100
 13065              	.LASF84:
 13066 054a 76746C69 		.ascii	"vtlist\000"
 13066      737400
 13067              	.LASF639:
 13068 0551 48616C6C 		.ascii	"Hall_PIout\000"
 13068      5F50496F 
 13068      757400
 13069              	.LASF543:
 13070 055c 4F6D6567 		.ascii	"OmegaFltred\000"
 13070      61466C74 
 13070      72656400 
 13071              	.LASF726:
 13072 0568 4144435F 		.ascii	"ADC_Init\000"
 13072      496E6974 
 13072      00
 13073              	.LASF46:
 13074 0571 705F7761 		.ascii	"p_waiting\000"
 13074      6974696E 
 13074      6700
 13075              	.LASF712:
 13076 057b 54494D5F 		.ascii	"TIM_OC4Init\000"
 13076      4F433449 
 13076      6E697400 
 13077              	.LASF111:
ARM GAS  C:\Users\IDONNO~1\AppData\Local\Temp\ccm1q34l.s 			page 236


 13078 0587 444D4131 		.ascii	"DMA1_Stream5_IRQn\000"
 13078      5F537472 
 13078      65616D35 
 13078      5F495251 
 13078      6E00
 13079              	.LASF83:
 13080 0599 726C6973 		.ascii	"rlist\000"
 13080      7400
 13081              	.LASF54:
 13082 059f 74687265 		.ascii	"threads_list_t\000"
 13082      6164735F 
 13082      6C697374 
 13082      5F7400
 13083              	.LASF486:
 13084 05ae 736C5F6D 		.ascii	"sl_min_erpm_cycle_int_limit\000"
 13084      696E5F65 
 13084      72706D5F 
 13084      6379636C 
 13084      655F696E 
 13085              	.LASF522:
 13086 05ca 5A616C70 		.ascii	"Zalpha\000"
 13086      686100
 13087              	.LASF385:
 13088 05d1 5F726565 		.ascii	"_reent\000"
 13088      6E7400
 13089              	.LASF730:
 13090 05d8 4144435F 		.ascii	"ADC_ExternalTrigInjectedConvEdgeConfig\000"
 13090      45787465 
 13090      726E616C 
 13090      54726967 
 13090      496E6A65 
 13091              	.LASF95:
 13092 05ff 57574447 		.ascii	"WWDG_IRQn\000"
 13092      5F495251 
 13092      6E00
 13093              	.LASF605:
 13094 0609 64757479 		.ascii	"duty_A\000"
 13094      5F4100
 13095              	.LASF606:
 13096 0610 64757479 		.ascii	"duty_B\000"
 13096      5F4200
 13097              	.LASF607:
 13098 0617 64757479 		.ascii	"duty_C\000"
 13098      5F4300
 13099              	.LASF548:
 13100 061e 71496E4D 		.ascii	"qInMeas\000"
 13100      65617300 
 13101              	.LASF406:
 13102 0626 5F5F7366 		.ascii	"__sf\000"
 13102      00
 13103              	.LASF110:
 13104 062b 444D4131 		.ascii	"DMA1_Stream4_IRQn\000"
 13104      5F537472 
 13104      65616D34 
 13104      5F495251 
 13104      6E00
 13105              	.LASF423:
ARM GAS  C:\Users\IDONNO~1\AppData\Local\Temp\ccm1q34l.s 			page 237


 13106 063d 5F6D6274 		.ascii	"_mbtowc_state\000"
 13106      6F77635F 
 13106      73746174 
 13106      6500
 13107              	.LASF141:
 13108 064b 54494D38 		.ascii	"TIM8_CC_IRQn\000"
 13108      5F43435F 
 13108      4952516E 
 13108      00
 13109              	.LASF305:
 13110 0658 4144435F 		.ascii	"ADC_DMAAccessMode\000"
 13110      444D4141 
 13110      63636573 
 13110      734D6F64 
 13110      6500
 13111              	.LASF28:
 13112 066a 74707269 		.ascii	"tprio_t\000"
 13112      6F5F7400 
 13113              	.LASF746:
 13114 0672 7370695F 		.ascii	"spi_dac_hw_init\000"
 13114      6461635F 
 13114      68775F69 
 13114      6E697400 
 13115              	.LASF620:
 13116 0682 56656C6F 		.ascii	"Velocity\000"
 13116      63697479 
 13116      00
 13117              	.LASF279:
 13118 068b 444D415F 		.ascii	"DMA_Channel\000"
 13118      4368616E 
 13118      6E656C00 
 13119              	.LASF298:
 13120 0697 4144435F 		.ascii	"ADC_ExternalTrigConvEdge\000"
 13120      45787465 
 13120      726E616C 
 13120      54726967 
 13120      436F6E76 
 13121              	.LASF347:
 13122 06b0 5F5F746D 		.ascii	"__tm\000"
 13122      00
 13123              	.LASF540:
 13124 06b5 54686574 		.ascii	"ThetaOffset\000"
 13124      614F6666 
 13124      73657400 
 13125              	.LASF738:
 13126 06c1 54494D5F 		.ascii	"TIM_SelectInputTrigger\000"
 13126      53656C65 
 13126      6374496E 
 13126      70757454 
 13126      72696767 
 13127              	.LASF553:
 13128 06d8 71436F73 		.ascii	"qCos\000"
 13128      00
 13129              	.LASF355:
 13130 06dd 5F5F746D 		.ascii	"__tm_yday\000"
 13130      5F796461 
 13130      7900
ARM GAS  C:\Users\IDONNO~1\AppData\Local\Temp\ccm1q34l.s 			page 238


 13131              	.LASF603:
 13132 06e7 496E7650 		.ascii	"InvPark\000"
 13132      61726B00 
 13133              	.LASF222:
 13134 06ef 43434552 		.ascii	"CCER\000"
 13134      00
 13135              	.LASF592:
 13136 06f4 6D637077 		.ascii	"mcpwm_init\000"
 13136      6D5F696E 
 13136      697400
 13137              	.LASF613:
 13138 06ff 63757272 		.ascii	"curr0\000"
 13138      3000
 13139              	.LASF582:
 13140 0705 63757272 		.ascii	"curr1\000"
 13140      3100
 13141              	.LASF583:
 13142 070b 63757272 		.ascii	"curr2\000"
 13142      3200
 13143              	.LASF557:
 13144 0711 71566265 		.ascii	"qVbeta\000"
 13144      746100
 13145              	.LASF277:
 13146 0718 4E564943 		.ascii	"NVIC_IRQChannelCmd\000"
 13146      5F495251 
 13146      4368616E 
 13146      6E656C43 
 13146      6D6400
 13147              	.LASF8:
 13148 072b 5F5F7569 		.ascii	"__uint16_t\000"
 13148      6E743136 
 13148      5F7400
 13149              	.LASF715:
 13150 0736 54494D5F 		.ascii	"TIM_OC3PreloadConfig\000"
 13150      4F433350 
 13150      72656C6F 
 13150      6164436F 
 13150      6E666967 
 13151              	.LASF48:
 13152 074b 705F6D73 		.ascii	"p_msg\000"
 13152      6700
 13153              	.LASF415:
 13154 0751 5F756E75 		.ascii	"_unused_rand\000"
 13154      7365645F 
 13154      72616E64 
 13154      00
 13155              	.LASF609:
 13156 075e 534D435F 		.ascii	"SMC_HallSensor_Estimation\000"
 13156      48616C6C 
 13156      53656E73 
 13156      6F725F45 
 13156      7374696D 
 13157              	.LASF506:
 13158 0778 6D5F6661 		.ascii	"m_fault_stop_time_ms\000"
 13158      756C745F 
 13158      73746F70 
 13158      5F74696D 
ARM GAS  C:\Users\IDONNO~1\AppData\Local\Temp\ccm1q34l.s 			page 239


 13158      655F6D73 
 13159              	.LASF494:
 13160 078d 68616C6C 		.ascii	"hall_rev_add\000"
 13160      5F726576 
 13160      5F616464 
 13160      00
 13161              	.LASF240:
 13162 079a 65786974 		.ascii	"exitcode\000"
 13162      636F6465 
 13162      00
 13163              	.LASF216:
 13164 07a3 4D314152 		.ascii	"M1AR\000"
 13164      00
 13165              	.LASF508:
 13166 07a8 574F5244 		.ascii	"WORD\000"
 13166      00
 13167              	.LASF217:
 13168 07ad 444D415F 		.ascii	"DMA_Stream_TypeDef\000"
 13168      53747265 
 13168      616D5F54 
 13168      79706544 
 13168      656600
 13169              	.LASF314:
 13170 07c0 54494D5F 		.ascii	"TIM_OCMode\000"
 13170      4F434D6F 
 13170      646500
 13171              	.LASF709:
 13172 07cb 54494D5F 		.ascii	"TIM_OC1Init\000"
 13172      4F433149 
 13172      6E697400 
 13173              	.LASF693:
 13174 07d7 4173696E 		.ascii	"Asin3th\000"
 13174      33746800 
 13175              	.LASF497:
 13176 07df 735F7069 		.ascii	"s_pid_kd\000"
 13176      645F6B64 
 13176      00
 13177              	.LASF531:
 13178 07e8 49616C70 		.ascii	"Ialpha\000"
 13178      686100
 13179              	.LASF397:
 13180 07ef 5F726573 		.ascii	"_result_k\000"
 13180      756C745F 
 13180      6B00
 13181              	.LASF389:
 13182 07f9 5F737464 		.ascii	"_stderr\000"
 13182      65727200 
 13183              	.LASF396:
 13184 0801 5F726573 		.ascii	"_result\000"
 13184      756C7400 
 13185              	.LASF674:
 13186 0809 48616C6C 		.ascii	"HallPLLA1\000"
 13186      504C4C41 
 13186      3100
 13187              	.LASF359:
 13188 0813 5F64736F 		.ascii	"_dso_handle\000"
 13188      5F68616E 
ARM GAS  C:\Users\IDONNO~1\AppData\Local\Temp\ccm1q34l.s 			page 240


 13188      646C6500 
 13189              	.LASF611:
 13190 081f 746D705F 		.ascii	"tmp_kpi\000"
 13190      6B706900 
 13191              	.LASF756:
 13192 0827 443A5C67 		.ascii	"D:\\git\\oroca_bldc_dev\\oroca_bldc_FW\000"
 13192      69745C6F 
 13192      726F6361 
 13192      5F626C64 
 13192      635F6465 
 13193              	.LASF354:
 13194 084b 5F5F746D 		.ascii	"__tm_wday\000"
 13194      5F776461 
 13194      7900
 13195              	.LASF356:
 13196 0855 5F5F746D 		.ascii	"__tm_isdst\000"
 13196      5F697364 
 13196      737400
 13197              	.LASF690:
 13198 0860 47616D6D 		.ascii	"Gamma\000"
 13198      6100
 13199              	.LASF234:
 13200 0866 73746B61 		.ascii	"stkalign_t\000"
 13200      6C69676E 
 13200      5F7400
 13201              	.LASF103:
 13202 0871 45585449 		.ascii	"EXTI2_IRQn\000"
 13202      325F4952 
 13202      516E00
 13203              	.LASF231:
 13204 087c 454E4142 		.ascii	"ENABLE\000"
 13204      4C4500
 13205              	.LASF71:
 13206 0883 76745F70 		.ascii	"vt_prev\000"
 13206      72657600 
 13207              	.LASF6:
 13208 088b 756E7369 		.ascii	"unsigned char\000"
 13208      676E6564 
 13208      20636861 
 13208      7200
 13209              	.LASF388:
 13210 0899 5F737464 		.ascii	"_stdout\000"
 13210      6F757400 
 13211              	.LASF588:
 13212 08a1 6D637077 		.ascii	"mcpwm_adc_int_handler\000"
 13212      6D5F6164 
 13212      635F696E 
 13212      745F6861 
 13212      6E646C65 
 13213              	.LASF248:
 13214 08b7 735F636E 		.ascii	"s_cnt\000"
 13214      7400
 13215              	.LASF59:
 13216 08bd 72656164 		.ascii	"ready_list_t\000"
 13216      795F6C69 
 13216      73745F74 
 13216      00
ARM GAS  C:\Users\IDONNO~1\AppData\Local\Temp\ccm1q34l.s 			page 241


 13217              	.LASF55:
 13218 08ca 63685F74 		.ascii	"ch_thread\000"
 13218      68726561 
 13218      6400
 13219              	.LASF170:
 13220 08d4 4F54475F 		.ascii	"OTG_HS_EP1_IN_IRQn\000"
 13220      48535F45 
 13220      50315F49 
 13220      4E5F4952 
 13220      516E00
 13221              	.LASF430:
 13222 08e7 5F6D6273 		.ascii	"_mbsrtowcs_state\000"
 13222      72746F77 
 13222      63735F73 
 13222      74617465 
 13222      00
 13223              	.LASF346:
 13224 08f8 5F776473 		.ascii	"_wds\000"
 13224      00
 13225              	.LASF0:
 13226 08fd 666C6F61 		.ascii	"float\000"
 13226      7400
 13227              	.LASF102:
 13228 0903 45585449 		.ascii	"EXTI1_IRQn\000"
 13228      315F4952 
 13228      516E00
 13229              	.LASF484:
 13230 090e 736C5F69 		.ascii	"sl_is_sensorless\000"
 13230      735F7365 
 13230      6E736F72 
 13230      6C657373 
 13230      00
 13231              	.LASF325:
 13232 091f 54494D5F 		.ascii	"TIM_LOCKLevel\000"
 13232      4C4F434B 
 13232      4C657665 
 13232      6C00
 13233              	.LASF718:
 13234 092d 54494D5F 		.ascii	"TIM_CCPreloadControl\000"
 13234      43435072 
 13234      656C6F61 
 13234      64436F6E 
 13234      74726F6C 
 13235              	.LASF744:
 13236 0942 57574447 		.ascii	"WWDG_SetWindowValue\000"
 13236      5F536574 
 13236      57696E64 
 13236      6F775661 
 13236      6C756500 
 13237              	.LASF636:
 13238 0956 46757469 		.ascii	"Futi\000"
 13238      00
 13239              	.LASF367:
 13240 095b 5F73697A 		.ascii	"_size\000"
 13240      6500
 13241              	.LASF512:
 13242 0961 456E566F 		.ascii	"EnVoltRipCo\000"
ARM GAS  C:\Users\IDONNO~1\AppData\Local\Temp\ccm1q34l.s 			page 242


 13242      6C745269 
 13242      70436F00 
 13243              	.LASF312:
 13244 096d 54494D5F 		.ascii	"TIM_RepetitionCounter\000"
 13244      52657065 
 13244      74697469 
 13244      6F6E436F 
 13244      756E7465 
 13245              	.LASF78:
 13246 0983 73797374 		.ascii	"system_debug_t\000"
 13246      656D5F64 
 13246      65627567 
 13246      5F7400
 13247              	.LASF474:
 13248 0992 6C5F7465 		.ascii	"l_temp_fet_start\000"
 13248      6D705F66 
 13248      65745F73 
 13248      74617274 
 13248      00
 13249              	.LASF219:
 13250 09a3 44494552 		.ascii	"DIER\000"
 13250      00
 13251              	.LASF37:
 13252 09a8 705F6374 		.ascii	"p_ctx\000"
 13252      7800
 13253              	.LASF74:
 13254 09ae 76745F70 		.ascii	"vt_par\000"
 13254      617200
 13255              	.LASF200:
 13256 09b5 4A4F4652 		.ascii	"JOFR1\000"
 13256      3100
 13257              	.LASF201:
 13258 09bb 4A4F4652 		.ascii	"JOFR2\000"
 13258      3200
 13259              	.LASF202:
 13260 09c1 4A4F4652 		.ascii	"JOFR3\000"
 13260      3300
 13261              	.LASF101:
 13262 09c7 45585449 		.ascii	"EXTI0_IRQn\000"
 13262      305F4952 
 13262      516E00
 13263              	.LASF327:
 13264 09d2 54494D5F 		.ascii	"TIM_Break\000"
 13264      42726561 
 13264      6B00
 13265              	.LASF564:
 13266 09dc 7146774F 		.ascii	"qFwOnSpeed\000"
 13266      6E537065 
 13266      656400
 13267              	.LASF66:
 13268 09e7 725F6375 		.ascii	"r_current\000"
 13268      7272656E 
 13268      7400
 13269              	.LASF374:
 13270 09f1 5F777269 		.ascii	"_write\000"
 13270      746500
 13271              	.LASF751:
ARM GAS  C:\Users\IDONNO~1\AppData\Local\Temp\ccm1q34l.s 			page 243


 13272 09f8 54494D5F 		.ascii	"TIM_CCxCmd\000"
 13272      43437843 
 13272      6D6400
 13273              	.LASF459:
 13274 0a03 636F6D6D 		.ascii	"comm_mode\000"
 13274      5F6D6F64 
 13274      6500
 13275              	.LASF473:
 13276 0a0d 6C5F7270 		.ascii	"l_rpm_lim_neg_torque\000"
 13276      6D5F6C69 
 13276      6D5F6E65 
 13276      675F746F 
 13276      72717565 
 13277              	.LASF454:
 13278 0a22 4641554C 		.ascii	"FAULT_CODE_ABS_OVER_CURRENT\000"
 13278      545F434F 
 13278      44455F41 
 13278      42535F4F 
 13278      5645525F 
 13279              	.LASF97:
 13280 0a3e 54414D50 		.ascii	"TAMP_STAMP_IRQn\000"
 13280      5F535441 
 13280      4D505F49 
 13280      52516E00 
 13281              	.LASF643:
 13282 0a4e 4144435F 		.ascii	"ADC_Value\000"
 13282      56616C75 
 13282      6500
 13283              	.LASF286:
 13284 0a58 444D415F 		.ascii	"DMA_PeripheralDataSize\000"
 13284      50657269 
 13284      70686572 
 13284      616C4461 
 13284      74615369 
 13285              	.LASF22:
 13286 0a6f 75696E74 		.ascii	"uint64_t\000"
 13286      36345F74 
 13286      00
 13287              	.LASF554:
 13288 0a78 7149616C 		.ascii	"qIalpha\000"
 13288      70686100 
 13289              	.LASF230:
 13290 0a80 44495341 		.ascii	"DISABLE\000"
 13290      424C4500 
 13291              	.LASF353:
 13292 0a88 5F5F746D 		.ascii	"__tm_year\000"
 13292      5F796561 
 13292      7200
 13293              	.LASF310:
 13294 0a92 54494D5F 		.ascii	"TIM_Period\000"
 13294      50657269 
 13294      6F6400
 13295              	.LASF413:
 13296 0a9d 5F6D756C 		.ascii	"_mult\000"
 13296      7400
 13297              	.LASF732:
 13298 0aa3 4144435F 		.ascii	"ADC_ITConfig\000"
ARM GAS  C:\Users\IDONNO~1\AppData\Local\Temp\ccm1q34l.s 			page 244


 13298      4954436F 
 13298      6E666967 
 13298      00
 13299              	.LASF249:
 13300 0ab0 63685F6D 		.ascii	"ch_mutex\000"
 13300      75746578 
 13300      00
 13301              	.LASF428:
 13302 0ab9 5F6D6272 		.ascii	"_mbrlen_state\000"
 13302      6C656E5F 
 13302      73746174 
 13302      6500
 13303              	.LASF131:
 13304 0ac7 53504932 		.ascii	"SPI2_IRQn\000"
 13304      5F495251 
 13304      6E00
 13305              	.LASF575:
 13306 0ad1 74535647 		.ascii	"tSVGenParm\000"
 13306      656E5061 
 13306      726D00
 13307              	.LASF207:
 13308 0adc 4A535152 		.ascii	"JSQR\000"
 13308      00
 13309              	.LASF387:
 13310 0ae1 5F737464 		.ascii	"_stdin\000"
 13310      696E00
 13311              	.LASF648:
 13312 0ae8 5061726B 		.ascii	"ParkParm\000"
 13312      5061726D 
 13312      00
 13313              	.LASF435:
 13314 0af1 5F6E6D61 		.ascii	"_nmalloc\000"
 13314      6C6C6F63 
 13314      00
 13315              	.LASF130:
 13316 0afa 53504931 		.ascii	"SPI1_IRQn\000"
 13316      5F495251 
 13316      6E00
 13317              	.LASF694:
 13318 0b04 41636F73 		.ascii	"Acos3th\000"
 13318      33746800 
 13319              	.LASF68:
 13320 0b0c 76697274 		.ascii	"virtual_timer_t\000"
 13320      75616C5F 
 13320      74696D65 
 13320      725F7400 
 13321              	.LASF63:
 13322 0b1c 725F6374 		.ascii	"r_ctx\000"
 13322      7800
 13323              	.LASF70:
 13324 0b22 76745F6E 		.ascii	"vt_next\000"
 13324      65787400 
 13325              	.LASF285:
 13326 0b2a 444D415F 		.ascii	"DMA_MemoryInc\000"
 13326      4D656D6F 
 13326      7279496E 
 13326      6300
ARM GAS  C:\Users\IDONNO~1\AppData\Local\Temp\ccm1q34l.s 			page 245


 13327              	.LASF530:
 13328 0b38 45737449 		.ascii	"EstIbeta\000"
 13328      62657461 
 13328      00
 13329              	.LASF550:
 13330 0b41 74504950 		.ascii	"tPIParm\000"
 13330      61726D00 
 13331              	.LASF558:
 13332 0b49 74506172 		.ascii	"tParkParm\000"
 13332      6B506172 
 13332      6D00
 13333              	.LASF308:
 13334 0b53 54494D5F 		.ascii	"TIM_Prescaler\000"
 13334      50726573 
 13334      63616C65 
 13334      7200
 13335              	.LASF647:
 13336 0b61 736D6331 		.ascii	"smc1\000"
 13336      00
 13337              	.LASF23:
 13338 0b66 7274636E 		.ascii	"rtcnt_t\000"
 13338      745F7400 
 13339              	.LASF275:
 13340 0b6e 4E564943 		.ascii	"NVIC_IRQChannelPreemptionPriority\000"
 13340      5F495251 
 13340      4368616E 
 13340      6E656C50 
 13340      7265656D 
 13341              	.LASF480:
 13342 0b90 6C6F5F63 		.ascii	"lo_current_max\000"
 13342      75727265 
 13342      6E745F6D 
 13342      617800
 13343              	.LASF439:
 13344 0b9f 46494C45 		.ascii	"FILE\000"
 13344      00
 13345              	.LASF503:
 13346 0ba4 63635F6D 		.ascii	"cc_min_current\000"
 13346      696E5F63 
 13346      75727265 
 13346      6E7400
 13347              	.LASF549:
 13348 0bb3 714F7574 		.ascii	"qOut\000"
 13348      00
 13349              	.LASF328:
 13350 0bb8 54494D5F 		.ascii	"TIM_BreakPolarity\000"
 13350      42726561 
 13350      6B506F6C 
 13350      61726974 
 13350      7900
 13351              	.LASF263:
 13352 0bca 636C6561 		.ascii	"clear\000"
 13352      7200
 13353              	.LASF759:
 13354 0bd0 49544D5F 		.ascii	"ITM_SendChar\000"
 13354      53656E64 
 13354      43686172 
ARM GAS  C:\Users\IDONNO~1\AppData\Local\Temp\ccm1q34l.s 			page 246


 13354      00
 13355              	.LASF537:
 13356 0bdd 4B736C66 		.ascii	"Kslf\000"
 13356      00
 13357              	.LASF332:
 13358 0be2 5F6F6666 		.ascii	"_off_t\000"
 13358      5F7400
 13359              	.LASF2:
 13360 0be9 73697A65 		.ascii	"size_t\000"
 13360      5F7400
 13361              	.LASF418:
 13362 0bf0 5F6C6F63 		.ascii	"_localtime_buf\000"
 13362      616C7469 
 13362      6D655F62 
 13362      756600
 13363              	.LASF337:
 13364 0bff 5F5F636F 		.ascii	"__count\000"
 13364      756E7400 
 13365              	.LASF18:
 13366 0c07 75696E74 		.ascii	"uint8_t\000"
 13366      385F7400 
 13367              	.LASF668:
 13368 0c0f 57706C6C 		.ascii	"Wpll1\000"
 13368      3100
 13369              	.LASF65:
 13370 0c15 725F6F6C 		.ascii	"r_older\000"
 13370      64657200 
 13371              	.LASF35:
 13372 0c1d 705F7072 		.ascii	"p_prev\000"
 13372      657600
 13373              	.LASF293:
 13374 0c24 444D415F 		.ascii	"DMA_PeripheralBurst\000"
 13374      50657269 
 13374      70686572 
 13374      616C4275 
 13374      72737400 
 13375              	.LASF116:
 13376 0c38 43414E31 		.ascii	"CAN1_RX1_IRQn\000"
 13376      5F525831 
 13376      5F495251 
 13376      6E00
 13377              	.LASF655:
 13378 0c46 46645765 		.ascii	"FdWeakParm\000"
 13378      616B5061 
 13378      726D00
 13379              	.LASF471:
 13380 0c51 6C5F6D61 		.ascii	"l_max_vin\000"
 13380      785F7669 
 13380      6E00
 13381              	.LASF740:
 13382 0c5b 54494D5F 		.ascii	"TIM_Cmd\000"
 13382      436D6400 
 13383              	.LASF118:
 13384 0c63 45585449 		.ascii	"EXTI9_5_IRQn\000"
 13384      395F355F 
 13384      4952516E 
 13384      00
ARM GAS  C:\Users\IDONNO~1\AppData\Local\Temp\ccm1q34l.s 			page 247


 13385              	.LASF401:
 13386 0c70 5F637674 		.ascii	"_cvtbuf\000"
 13386      62756600 
 13387              	.LASF670:
 13388 0c78 57706C6C 		.ascii	"Wplli\000"
 13388      6900
 13389              	.LASF669:
 13390 0c7e 57706C6C 		.ascii	"Wpllp\000"
 13390      7000
 13391              	.LASF150:
 13392 0c84 54494D37 		.ascii	"TIM7_IRQn\000"
 13392      5F495251 
 13392      6E00
 13393              	.LASF658:
 13394 0c8e 41636375 		.ascii	"AccumThetaCnt\000"
 13394      6D546865 
 13394      7461436E 
 13394      7400
 13395              	.LASF98:
 13396 0c9c 5254435F 		.ascii	"RTC_WKUP_IRQn\000"
 13396      574B5550 
 13396      5F495251 
 13396      6E00
 13397              	.LASF536:
 13398 0caa 49626574 		.ascii	"IbetaError\000"
 13398      61457272 
 13398      6F7200
 13399              	.LASF115:
 13400 0cb5 43414E31 		.ascii	"CAN1_RX0_IRQn\000"
 13400      5F525830 
 13400      5F495251 
 13400      6E00
 13401              	.LASF644:
 13402 0cc3 53706565 		.ascii	"SpeedReference\000"
 13402      64526566 
 13402      6572656E 
 13402      636500
 13403              	.LASF610:
 13404 0cd2 746D705F 		.ascii	"tmp_kp\000"
 13404      6B7000
 13405              	.LASF266:
 13406 0cd9 4F535045 		.ascii	"OSPEEDR\000"
 13406      45445200 
 13407              	.LASF336:
 13408 0ce1 5F5F7763 		.ascii	"__wchb\000"
 13408      686200
 13409              	.LASF429:
 13410 0ce8 5F6D6272 		.ascii	"_mbrtowc_state\000"
 13410      746F7763 
 13410      5F737461 
 13410      746500
 13411              	.LASF547:
 13412 0cf7 71496E52 		.ascii	"qInRef\000"
 13412      656600
 13413              	.LASF350:
 13414 0cfe 5F5F746D 		.ascii	"__tm_hour\000"
 13414      5F686F75 
ARM GAS  C:\Users\IDONNO~1\AppData\Local\Temp\ccm1q34l.s 			page 248


 13414      7200
 13415              	.LASF470:
 13416 0d08 6C5F6D69 		.ascii	"l_min_vin\000"
 13416      6E5F7669 
 13416      6E00
 13417              	.LASF334:
 13418 0d12 77696E74 		.ascii	"wint_t\000"
 13418      5F7400
 13419              	.LASF99:
 13420 0d19 464C4153 		.ascii	"FLASH_IRQn\000"
 13420      485F4952 
 13420      516E00
 13421              	.LASF402:
 13422 0d24 5F6E6577 		.ascii	"_new\000"
 13422      00
 13423              	.LASF287:
 13424 0d29 444D415F 		.ascii	"DMA_MemoryDataSize\000"
 13424      4D656D6F 
 13424      72794461 
 13424      74615369 
 13424      7A6500
 13425              	.LASF409:
 13426 0d3c 5F6E696F 		.ascii	"_niobs\000"
 13426      627300
 13427              	.LASF145:
 13428 0d43 54494D35 		.ascii	"TIM5_IRQn\000"
 13428      5F495251 
 13428      6E00
 13429              	.LASF710:
 13430 0d4d 54494D5F 		.ascii	"TIM_OC2Init\000"
 13430      4F433249 
 13430      6E697400 
 13431              	.LASF699:
 13432 0d59 636F7333 		.ascii	"cos3th\000"
 13432      746800
 13433              	.LASF518:
 13434 0d60 744D6561 		.ascii	"tMeasCurrParm\000"
 13434      73437572 
 13434      72506172 
 13434      6D00
 13435              	.LASF223:
 13436 0d6e 43435231 		.ascii	"CCR1\000"
 13436      00
 13437              	.LASF224:
 13438 0d73 43435232 		.ascii	"CCR2\000"
 13438      00
 13439              	.LASF225:
 13440 0d78 43435233 		.ascii	"CCR3\000"
 13440      00
 13441              	.LASF226:
 13442 0d7d 43435234 		.ascii	"CCR4\000"
 13442      00
 13443              	.LASF706:
 13444 0d82 54494D5F 		.ascii	"TIM_DeInit\000"
 13444      4465496E 
 13444      697400
 13445              	.LASF386:
ARM GAS  C:\Users\IDONNO~1\AppData\Local\Temp\ccm1q34l.s 			page 249


 13446 0d8d 5F657272 		.ascii	"_errno\000"
 13446      6E6F00
 13447              	.LASF451:
 13448 0d94 4641554C 		.ascii	"FAULT_CODE_OVER_VOLTAGE\000"
 13448      545F434F 
 13448      44455F4F 
 13448      5645525F 
 13448      564F4C54 
 13449              	.LASF351:
 13450 0dac 5F5F746D 		.ascii	"__tm_mday\000"
 13450      5F6D6461 
 13450      7900
 13451              	.LASF256:
 13452 0db6 69666372 		.ascii	"ifcr\000"
 13452      00
 13453              	.LASF555:
 13454 0dbb 71496265 		.ascii	"qIbeta\000"
 13454      746100
 13455              	.LASF214:
 13456 0dc2 4E445452 		.ascii	"NDTR\000"
 13456      00
 13457              	.LASF272:
 13458 0dc7 73746D33 		.ascii	"stm32_gpio_t\000"
 13458      325F6770 
 13458      696F5F74 
 13458      00
 13459              	.LASF239:
 13460 0dd4 7264796D 		.ascii	"rdymsg\000"
 13460      736700
 13461              	.LASF358:
 13462 0ddb 5F666E61 		.ascii	"_fnargs\000"
 13462      72677300 
 13463              	.LASF551:
 13464 0de3 71416E67 		.ascii	"qAngle\000"
 13464      6C6500
 13465              	.LASF322:
 13466 0dea 54494D5F 		.ascii	"TIM_OCInitTypeDef\000"
 13466      4F43496E 
 13466      69745479 
 13466      70654465 
 13466      6600
 13467              	.LASF479:
 13468 0dfc 6C5F6D61 		.ascii	"l_max_duty\000"
 13468      785F6475 
 13468      747900
 13469              	.LASF203:
 13470 0e07 4A4F4652 		.ascii	"JOFR4\000"
 13470      3400
 13471              	.LASF36:
 13472 0e0d 705F7072 		.ascii	"p_prio\000"
 13472      696F00
 13473              	.LASF15:
 13474 0e14 5F5F7569 		.ascii	"__uint64_t\000"
 13474      6E743634 
 13474      5F7400
 13475              	.LASF449:
 13476 0e1f 6D635F6D 		.ascii	"mc_motor_type\000"
ARM GAS  C:\Users\IDONNO~1\AppData\Local\Temp\ccm1q34l.s 			page 250


 13476      6F746F72 
 13476      5F747970 
 13476      6500
 13477              	.LASF165:
 13478 0e2d 444D4132 		.ascii	"DMA2_Stream7_IRQn\000"
 13478      5F537472 
 13478      65616D37 
 13478      5F495251 
 13478      6E00
 13479              	.LASF656:
 13480 0e3f 73776974 		.ascii	"switching_frequency_now\000"
 13480      6368696E 
 13480      675F6672 
 13480      65717565 
 13480      6E63795F 
 13481              	.LASF527:
 13482 0e57 45626574 		.ascii	"Ebeta\000"
 13482      6100
 13483              	.LASF343:
 13484 0e5d 5F6E6578 		.ascii	"_next\000"
 13484      7400
 13485              	.LASF172:
 13486 0e63 4F54475F 		.ascii	"OTG_HS_IRQn\000"
 13486      48535F49 
 13486      52516E00 
 13487              	.LASF513:
 13488 0e6f 4368616E 		.ascii	"ChangeMode\000"
 13488      67654D6F 
 13488      646500
 13489              	.LASF711:
 13490 0e7a 54494D5F 		.ascii	"TIM_OC3Init\000"
 13490      4F433349 
 13490      6E697400 
 13491              	.LASF426:
 13492 0e86 5F736967 		.ascii	"_signal_buf\000"
 13492      6E616C5F 
 13492      62756600 
 13493              	.LASF372:
 13494 0e92 5F636F6F 		.ascii	"_cookie\000"
 13494      6B696500 
 13495              	.LASF319:
 13496 0e9a 54494D5F 		.ascii	"TIM_OCNPolarity\000"
 13496      4F434E50 
 13496      6F6C6172 
 13496      69747900 
 13497              	.LASF164:
 13498 0eaa 444D4132 		.ascii	"DMA2_Stream6_IRQn\000"
 13498      5F537472 
 13498      65616D36 
 13498      5F495251 
 13498      6E00
 13499              	.LASF528:
 13500 0ebc 45626574 		.ascii	"EbetaFinal\000"
 13500      6146696E 
 13500      616C00
 13501              	.LASF34:
 13502 0ec7 705F6E65 		.ascii	"p_next\000"
ARM GAS  C:\Users\IDONNO~1\AppData\Local\Temp\ccm1q34l.s 			page 251


 13502      787400
 13503              	.LASF514:
 13504 0ece 4368616E 		.ascii	"ChangeSpeed\000"
 13504      67655370 
 13504      65656400 
 13505              	.LASF596:
 13506 0eda 54494D5F 		.ascii	"TIM_BDTRInitStructure\000"
 13506      42445452 
 13506      496E6974 
 13506      53747275 
 13506      63747572 
 13507              	.LASF114:
 13508 0ef0 43414E31 		.ascii	"CAN1_TX_IRQn\000"
 13508      5F54585F 
 13508      4952516E 
 13508      00
 13509              	.LASF691:
 13510 0efd 636F7374 		.ascii	"costh\000"
 13510      6800
 13511              	.LASF544:
 13512 0f03 71645375 		.ascii	"qdSum\000"
 13512      6D00
 13513              	.LASF158:
 13514 0f09 43414E32 		.ascii	"CAN2_TX_IRQn\000"
 13514      5F54585F 
 13514      4952516E 
 13514      00
 13515              	.LASF504:
 13516 0f16 63635F67 		.ascii	"cc_gain\000"
 13516      61696E00 
 13517              	.LASF163:
 13518 0f1e 444D4132 		.ascii	"DMA2_Stream5_IRQn\000"
 13518      5F537472 
 13518      65616D35 
 13518      5F495251 
 13518      6E00
 13519              	.LASF26:
 13520 0f30 74726566 		.ascii	"trefs_t\000"
 13520      735F7400 
 13521              	.LASF633:
 13522 0f38 63757272 		.ascii	"curr0_offset\000"
 13522      305F6F66 
 13522      66736574 
 13522      00
 13523              	.LASF52:
 13524 0f45 705F6D70 		.ascii	"p_mpool\000"
 13524      6F6F6C00 
 13525              	.LASF458:
 13526 0f4d 70776D5F 		.ascii	"pwm_mode\000"
 13526      6D6F6465 
 13526      00
 13527              	.LASF460:
 13528 0f56 6D6F746F 		.ascii	"motor_type\000"
 13528      725F7479 
 13528      706500
 13529              	.LASF348:
 13530 0f61 5F5F746D 		.ascii	"__tm_sec\000"
ARM GAS  C:\Users\IDONNO~1\AppData\Local\Temp\ccm1q34l.s 			page 252


 13530      5F736563 
 13530      00
 13531              	.LASF487:
 13532 0f6a 736C5F6D 		.ascii	"sl_max_fullbreak_current_dir_change\000"
 13532      61785F66 
 13532      756C6C62 
 13532      7265616B 
 13532      5F637572 
 13533              	.LASF357:
 13534 0f8e 5F6F6E5F 		.ascii	"_on_exit_args\000"
 13534      65786974 
 13534      5F617267 
 13534      7300
 13535              	.LASF630:
 13536 0f9c 63757272 		.ascii	"curr0_sum\000"
 13536      305F7375 
 13536      6D00
 13537              	.LASF90:
 13538 0fa6 55736167 		.ascii	"UsageFault_IRQn\000"
 13538      65466175 
 13538      6C745F49 
 13538      52516E00 
 13539              	.LASF24:
 13540 0fb6 746D6F64 		.ascii	"tmode_t\000"
 13540      655F7400 
 13541              	.LASF664:
 13542 0fbe 48616C6C 		.ascii	"HallPLLde1\000"
 13542      504C4C64 
 13542      653100
 13543              	.LASF597:
 13544 0fc9 4E564943 		.ascii	"NVIC_InitStructure\000"
 13544      5F496E69 
 13544      74537472 
 13544      75637475 
 13544      726500
 13545              	.LASF366:
 13546 0fdc 5F626173 		.ascii	"_base\000"
 13546      6500
 13547              	.LASF204:
 13548 0fe2 53515231 		.ascii	"SQR1\000"
 13548      00
 13549              	.LASF205:
 13550 0fe7 53515232 		.ascii	"SQR2\000"
 13550      00
 13551              	.LASF206:
 13552 0fec 53515233 		.ascii	"SQR3\000"
 13552      00
 13553              	.LASF660:
 13554 0ff1 48616C6C 		.ascii	"HallPLLlead1\000"
 13554      504C4C6C 
 13554      65616431 
 13554      00
 13555              	.LASF661:
 13556 0ffe 48616C6C 		.ascii	"HallPLLlead2\000"
 13556      504C4C6C 
 13556      65616432 
 13556      00
ARM GAS  C:\Users\IDONNO~1\AppData\Local\Temp\ccm1q34l.s 			page 253


 13557              	.LASF268:
 13558 100b 42535252 		.ascii	"BSRR\000"
 13558      00
 13559              	.LASF721:
 13560 1010 646D6153 		.ascii	"dmaStreamAllocate\000"
 13560      74726561 
 13560      6D416C6C 
 13560      6F636174 
 13560      6500
 13561              	.LASF229:
 13562 1022 54494D5F 		.ascii	"TIM_TypeDef\000"
 13562      54797065 
 13562      44656600 
 13563              	.LASF431:
 13564 102e 5F776372 		.ascii	"_wcrtomb_state\000"
 13564      746F6D62 
 13564      5F737461 
 13564      746500
 13565              	.LASF748:
 13566 103d 7370695F 		.ascii	"spi_dac_write_B\000"
 13566      6461635F 
 13566      77726974 
 13566      655F4200 
 13567              	.LASF352:
 13568 104d 5F5F746D 		.ascii	"__tm_mon\000"
 13568      5F6D6F6E 
 13568      00
 13569              	.LASF665:
 13570 1056 48616C6C 		.ascii	"HallPLLdef\000"
 13570      504C4C64 
 13570      656600
 13571              	.LASF106:
 13572 1061 444D4131 		.ascii	"DMA1_Stream0_IRQn\000"
 13572      5F537472 
 13572      65616D30 
 13572      5F495251 
 13572      6E00
 13573              	.LASF137:
 13574 1073 4F54475F 		.ascii	"OTG_FS_WKUP_IRQn\000"
 13574      46535F57 
 13574      4B55505F 
 13574      4952516E 
 13574      00
 13575              	.LASF717:
 13576 1084 54494D5F 		.ascii	"TIM_BDTRConfig\000"
 13576      42445452 
 13576      436F6E66 
 13576      696700
 13577              	.LASF448:
 13578 1093 4D4F544F 		.ascii	"MOTOR_TYPE_DC\000"
 13578      525F5459 
 13578      50455F44 
 13578      4300
 13579              	.LASF391:
 13580 10a1 5F656D65 		.ascii	"_emergency\000"
 13580      7267656E 
 13580      637900
ARM GAS  C:\Users\IDONNO~1\AppData\Local\Temp\ccm1q34l.s 			page 254


 13581              	.LASF488:
 13582 10ac 736C5F63 		.ascii	"sl_cycle_int_limit\000"
 13582      79636C65 
 13582      5F696E74 
 13582      5F6C696D 
 13582      697400
 13583              	.LASF17:
 13584 10bf 696E7438 		.ascii	"int8_t\000"
 13584      5F7400
 13585              	.LASF299:
 13586 10c6 4144435F 		.ascii	"ADC_ExternalTrigConv\000"
 13586      45787465 
 13586      726E616C 
 13586      54726967 
 13586      436F6E76 
 13587              	.LASF341:
 13588 10db 5F5F554C 		.ascii	"__ULong\000"
 13588      6F6E6700 
 13589              	.LASF80:
 13590 10e3 70616E69 		.ascii	"panic_msg\000"
 13590      635F6D73 
 13590      6700
 13591              	.LASF64:
 13592 10ed 725F6E65 		.ascii	"r_newer\000"
 13592      77657200 
 13593              	.LASF716:
 13594 10f5 54494D5F 		.ascii	"TIM_OC4PreloadConfig\000"
 13594      4F433450 
 13594      72656C6F 
 13594      6164436F 
 13594      6E666967 
 13595              	.LASF119:
 13596 110a 54494D31 		.ascii	"TIM1_BRK_TIM9_IRQn\000"
 13596      5F42524B 
 13596      5F54494D 
 13596      395F4952 
 13596      516E00
 13597              	.LASF300:
 13598 111d 4144435F 		.ascii	"ADC_DataAlign\000"
 13598      44617461 
 13598      416C6967 
 13598      6E00
 13599              	.LASF290:
 13600 112b 444D415F 		.ascii	"DMA_FIFOMode\000"
 13600      4649464F 
 13600      4D6F6465 
 13600      00
 13601              	.LASF392:
 13602 1138 5F637572 		.ascii	"_current_category\000"
 13602      72656E74 
 13602      5F636174 
 13602      65676F72 
 13602      7900
 13603              	.LASF27:
 13604 114a 74736C69 		.ascii	"tslices_t\000"
 13604      6365735F 
 13604      7400
ARM GAS  C:\Users\IDONNO~1\AppData\Local\Temp\ccm1q34l.s 			page 255


 13605              	.LASF416:
 13606 1154 5F737472 		.ascii	"_strtok_last\000"
 13606      746F6B5F 
 13606      6C617374 
 13606      00
 13607              	.LASF175:
 13608 1161 4650555F 		.ascii	"FPU_IRQn\000"
 13608      4952516E 
 13608      00
 13609              	.LASF622:
 13610 116a 6D637077 		.ascii	"mcpwm_Get_CtrlParm\000"
 13610      6D5F4765 
 13610      745F4374 
 13610      726C5061 
 13610      726D00
 13611              	.LASF692:
 13612 117d 73696E74 		.ascii	"sinth\000"
 13612      6800
 13613              	.LASF578:
 13614 1183 496E6974 		.ascii	"InitMeasCompCurr\000"
 13614      4D656173 
 13614      436F6D70 
 13614      43757272 
 13614      00
 13615              	.LASF72:
 13616 1194 76745F64 		.ascii	"vt_delta\000"
 13616      656C7461 
 13616      00
 13617              	.LASF176:
 13618 119d 73697A65 		.ascii	"sizetype\000"
 13618      74797065 
 13618      00
 13619              	.LASF552:
 13620 11a6 7153696E 		.ascii	"qSin\000"
 13620      00
 13621              	.LASF412:
 13622 11ab 5F736565 		.ascii	"_seed\000"
 13622      6400
 13623              	.LASF88:
 13624 11b1 4D656D6F 		.ascii	"MemoryManagement_IRQn\000"
 13624      72794D61 
 13624      6E616765 
 13624      6D656E74 
 13624      5F495251 
 13625              	.LASF375:
 13626 11c7 5F736565 		.ascii	"_seek\000"
 13626      6B00
 13627              	.LASF273:
 13628 11cd 696F706F 		.ascii	"ioportmask_t\000"
 13628      72746D61 
 13628      736B5F74 
 13628      00
 13629              	.LASF281:
 13630 11da 444D415F 		.ascii	"DMA_Memory0BaseAddr\000"
 13630      4D656D6F 
 13630      72793042 
 13630      61736541 
ARM GAS  C:\Users\IDONNO~1\AppData\Local\Temp\ccm1q34l.s 			page 256


 13630      64647200 
 13631              	.LASF212:
 13632 11ee 4144435F 		.ascii	"ADC_TypeDef\000"
 13632      54797065 
 13632      44656600 
 13633              	.LASF9:
 13634 11fa 73686F72 		.ascii	"short unsigned int\000"
 13634      7420756E 
 13634      7369676E 
 13634      65642069 
 13634      6E7400
 13635              	.LASF326:
 13636 120d 54494D5F 		.ascii	"TIM_DeadTime\000"
 13636      44656164 
 13636      54696D65 
 13636      00
 13637              	.LASF4:
 13638 121a 7369676E 		.ascii	"signed char\000"
 13638      65642063 
 13638      68617200 
 13639              	.LASF160:
 13640 1226 43414E32 		.ascii	"CAN2_RX1_IRQn\000"
 13640      5F525831 
 13640      5F495251 
 13640      6E00
 13641              	.LASF315:
 13642 1234 54494D5F 		.ascii	"TIM_OutputState\000"
 13642      4F757470 
 13642      75745374 
 13642      61746500 
 13643              	.LASF44:
 13644 1244 705F7072 		.ascii	"p_preempt\000"
 13644      65656D70 
 13644      7400
 13645              	.LASF280:
 13646 124e 444D415F 		.ascii	"DMA_PeripheralBaseAddr\000"
 13646      50657269 
 13646      70686572 
 13646      616C4261 
 13646      73654164 
 13647              	.LASF467:
 13648 1265 6C5F6D61 		.ascii	"l_max_erpm\000"
 13648      785F6572 
 13648      706D00
 13649              	.LASF45:
 13650 1270 705F7469 		.ascii	"p_time\000"
 13650      6D6500
 13651              	.LASF288:
 13652 1277 444D415F 		.ascii	"DMA_Mode\000"
 13652      4D6F6465 
 13652      00
 13653              	.LASF739:
 13654 1280 54494D5F 		.ascii	"TIM_SelectSlaveMode\000"
 13654      53656C65 
 13654      6374536C 
 13654      6176654D 
 13654      6F646500 
ARM GAS  C:\Users\IDONNO~1\AppData\Local\Temp\ccm1q34l.s 			page 257


 13655              	.LASF645:
 13656 1294 636F756E 		.ascii	"count\000"
 13656      7400
 13657              	.LASF724:
 13658 129a 444D415F 		.ascii	"DMA_ITConfig\000"
 13658      4954436F 
 13658      6E666967 
 13658      00
 13659              	.LASF159:
 13660 12a7 43414E32 		.ascii	"CAN2_RX0_IRQn\000"
 13660      5F525830 
 13660      5F495251 
 13660      6E00
 13661              	.LASF283:
 13662 12b5 444D415F 		.ascii	"DMA_BufferSize\000"
 13662      42756666 
 13662      65725369 
 13662      7A6500
 13663              	.LASF629:
 13664 12c4 53455155 		.ascii	"SEQUENCE_thread_wa\000"
 13664      454E4345 
 13664      5F746872 
 13664      6561645F 
 13664      776100
 13665              	.LASF399:
 13666 12d7 5F667265 		.ascii	"_freelist\000"
 13666      656C6973 
 13666      7400
 13667              	.LASF450:
 13668 12e1 4641554C 		.ascii	"FAULT_CODE_NONE\000"
 13668      545F434F 
 13668      44455F4E 
 13668      4F4E4500 
 13669              	.LASF456:
 13670 12f1 4641554C 		.ascii	"FAULT_CODE_OVER_TEMP_MOTOR\000"
 13670      545F434F 
 13670      44455F4F 
 13670      5645525F 
 13670      54454D50 
 13671              	.LASF581:
 13672 130c 4D656173 		.ascii	"MeasCompCurr\000"
 13672      436F6D70 
 13672      43757272 
 13672      00
 13673              	.LASF47:
 13674 1319 705F6D73 		.ascii	"p_msgqueue\000"
 13674      67717565 
 13674      756500
 13675              	.LASF149:
 13676 1324 54494D36 		.ascii	"TIM6_DAC_IRQn\000"
 13676      5F444143 
 13676      5F495251 
 13676      6E00
 13677              	.LASF251:
 13678 1332 6D5F6F77 		.ascii	"m_owner\000"
 13678      6E657200 
 13679              	.LASF563:
ARM GAS  C:\Users\IDONNO~1\AppData\Local\Temp\ccm1q34l.s 			page 258


 13680 133a 71496452 		.ascii	"qIdRef\000"
 13680      656600
 13681              	.LASF489:
 13682 1341 736C5F70 		.ascii	"sl_phase_advance_at_br\000"
 13682      68617365 
 13682      5F616476 
 13682      616E6365 
 13682      5F61745F 
 13683              	.LASF675:
 13684 1358 48616C6C 		.ascii	"HallPLLB\000"
 13684      504C4C42 
 13684      00
 13685              	.LASF380:
 13686 1361 5F6F6666 		.ascii	"_offset\000"
 13686      73657400 
 13687              	.LASF142:
 13688 1369 444D4131 		.ascii	"DMA1_Stream7_IRQn\000"
 13688      5F537472 
 13688      65616D37 
 13688      5F495251 
 13688      6E00
 13689              	.LASF143:
 13690 137b 46534D43 		.ascii	"FSMC_IRQn\000"
 13690      5F495251 
 13690      6E00
 13691              	.LASF304:
 13692 1385 4144435F 		.ascii	"ADC_Prescaler\000"
 13692      50726573 
 13692      63616C65 
 13692      7200
 13693              	.LASF135:
 13694 1393 45585449 		.ascii	"EXTI15_10_IRQn\000"
 13694      31355F31 
 13694      305F4952 
 13694      516E00
 13695              	.LASF634:
 13696 13a2 63757272 		.ascii	"curr1_offset\000"
 13696      315F6F66 
 13696      66736574 
 13696      00
 13697              	.LASF425:
 13698 13af 5F6C3634 		.ascii	"_l64a_buf\000"
 13698      615F6275 
 13698      6600
 13699              	.LASF296:
 13700 13b9 4144435F 		.ascii	"ADC_ScanConvMode\000"
 13700      5363616E 
 13700      436F6E76 
 13700      4D6F6465 
 13700      00
 13701              	.LASF742:
 13702 13ca 7574696C 		.ascii	"utils_sys_unlock_cnt\000"
 13702      735F7379 
 13702      735F756E 
 13702      6C6F636B 
 13702      5F636E74 
 13703              	.LASF228:
ARM GAS  C:\Users\IDONNO~1\AppData\Local\Temp\ccm1q34l.s 			page 259


 13704 13df 444D4152 		.ascii	"DMAR\000"
 13704      00
 13705              	.LASF82:
 13706 13e4 63685F73 		.ascii	"ch_system\000"
 13706      79737465 
 13706      6D00
 13707              	.LASF615:
 13708 13ee 53657475 		.ascii	"SetupParm\000"
 13708      70506172 
 13708      6D00
 13709              	.LASF461:
 13710 13f8 6C5F6375 		.ascii	"l_current_max\000"
 13710      7272656E 
 13710      745F6D61 
 13710      7800
 13711              	.LASF417:
 13712 1406 5F617363 		.ascii	"_asctime_buf\000"
 13712      74696D65 
 13712      5F627566 
 13712      00
 13713              	.LASF598:
 13714 1413 4144435F 		.ascii	"ADC_CommonInitStructure\000"
 13714      436F6D6D 
 13714      6F6E496E 
 13714      69745374 
 13714      72756374 
 13715              	.LASF335:
 13716 142b 5F5F7763 		.ascii	"__wch\000"
 13716      6800
 13717              	.LASF498:
 13718 1431 735F7069 		.ascii	"s_pid_min_rpm\000"
 13718      645F6D69 
 13718      6E5F7270 
 13718      6D00
 13719              	.LASF659:
 13720 143f 48616C6C 		.ascii	"HallPLLlead\000"
 13720      504C4C6C 
 13720      65616400 
 13721              	.LASF246:
 13722 144b 63685F73 		.ascii	"ch_semaphore\000"
 13722      656D6170 
 13722      686F7265 
 13722      00
 13723              	.LASF432:
 13724 1458 5F776373 		.ascii	"_wcsrtombs_state\000"
 13724      72746F6D 
 13724      62735F73 
 13724      74617465 
 13724      00
 13725              	.LASF140:
 13726 1469 54494D38 		.ascii	"TIM8_TRG_COM_TIM14_IRQn\000"
 13726      5F545247 
 13726      5F434F4D 
 13726      5F54494D 
 13726      31345F49 
 13727              	.LASF625:
 13728 1481 4D656173 		.ascii	"MeasCurrParm\000"
ARM GAS  C:\Users\IDONNO~1\AppData\Local\Temp\ccm1q34l.s 			page 260


 13728      43757272 
 13728      5061726D 
 13728      00
 13729              	.LASF57:
 13730 148e 74687265 		.ascii	"threads_queue_t\000"
 13730      6164735F 
 13730      71756575 
 13730      655F7400 
 13731              	.LASF331:
 13732 149e 5F4C4F43 		.ascii	"_LOCK_RECURSIVE_T\000"
 13732      4B5F5245 
 13732      43555253 
 13732      4956455F 
 13732      5400
 13733              	.LASF594:
 13734 14b0 54494D5F 		.ascii	"TIM_TimeBaseStructure\000"
 13734      54696D65 
 13734      42617365 
 13734      53747275 
 13734      63747572 
 13735              	.LASF43:
 13736 14c6 705F7265 		.ascii	"p_refs\000"
 13736      667300
 13737              	.LASF722:
 13738 14cd 444D415F 		.ascii	"DMA_Init\000"
 13738      496E6974 
 13738      00
 13739              	.LASF323:
 13740 14d6 54494D5F 		.ascii	"TIM_OSSRState\000"
 13740      4F535352 
 13740      53746174 
 13740      6500
 13741              	.LASF11:
 13742 14e4 6C6F6E67 		.ascii	"long int\000"
 13742      20696E74 
 13742      00
 13743              	.LASF708:
 13744 14ed 54494D5F 		.ascii	"TIM_TimeBaseInit\000"
 13744      54696D65 
 13744      42617365 
 13744      496E6974 
 13744      00
 13745              	.LASF85:
 13746 14fe 6D61696E 		.ascii	"mainthread\000"
 13746      74687265 
 13746      616400
 13747              	.LASF213:
 13748 1509 4144435F 		.ascii	"ADC_Common_TypeDef\000"
 13748      436F6D6D 
 13748      6F6E5F54 
 13748      79706544 
 13748      656600
 13749              	.LASF571:
 13750 151c 6950574D 		.ascii	"iPWMPeriod\000"
 13750      50657269 
 13750      6F6400
 13751              	.LASF713:
ARM GAS  C:\Users\IDONNO~1\AppData\Local\Temp\ccm1q34l.s 			page 261


 13752 1527 54494D5F 		.ascii	"TIM_OC1PreloadConfig\000"
 13752      4F433150 
 13752      72656C6F 
 13752      6164436F 
 13752      6E666967 
 13753              	.LASF250:
 13754 153c 6D5F7175 		.ascii	"m_queue\000"
 13754      65756500 
 13755              	.LASF635:
 13756 1544 54686574 		.ascii	"ThetaCal\000"
 13756      6143616C 
 13756      00
 13757              	.LASF309:
 13758 154d 54494D5F 		.ascii	"TIM_CounterMode\000"
 13758      436F756E 
 13758      7465724D 
 13758      6F646500 
 13759              	.LASF313:
 13760 155d 54494D5F 		.ascii	"TIM_TimeBaseInitTypeDef\000"
 13760      54696D65 
 13760      42617365 
 13760      496E6974 
 13760      54797065 
 13761              	.LASF705:
 13762 1575 7574696C 		.ascii	"utils_sys_lock_cnt\000"
 13762      735F7379 
 13762      735F6C6F 
 13762      636B5F63 
 13762      6E7400
 13763              	.LASF444:
 13764 1588 434F4D4D 		.ascii	"COMM_MODE_INTEGRATE\000"
 13764      5F4D4F44 
 13764      455F494E 
 13764      54454752 
 13764      41544500 
 13765              	.LASF122:
 13766 159c 54494D31 		.ascii	"TIM1_CC_IRQn\000"
 13766      5F43435F 
 13766      4952516E 
 13766      00
 13767              	.LASF284:
 13768 15a9 444D415F 		.ascii	"DMA_PeripheralInc\000"
 13768      50657269 
 13768      70686572 
 13768      616C496E 
 13768      6300
 13769              	.LASF599:
 13770 15bb 444D415F 		.ascii	"DMA_InitStructure\000"
 13770      496E6974 
 13770      53747275 
 13770      63747572 
 13770      6500
 13771              	.LASF410:
 13772 15cd 5F696F62 		.ascii	"_iobs\000"
 13772      7300
 13773              	.LASF274:
 13774 15d3 4E564943 		.ascii	"NVIC_IRQChannel\000"
ARM GAS  C:\Users\IDONNO~1\AppData\Local\Temp\ccm1q34l.s 			page 262


 13774      5F495251 
 13774      4368616E 
 13774      6E656C00 
 13775              	.LASF242:
 13776 15e3 77747472 		.ascii	"wttrp\000"
 13776      7000
 13777              	.LASF235:
 13778 15e9 636F6E74 		.ascii	"context\000"
 13778      65787400 
 13779              	.LASF420:
 13780 15f1 5F72616E 		.ascii	"_rand_next\000"
 13780      645F6E65 
 13780      787400
 13781              	.LASF683:
 13782 15fc 48616C6C 		.ascii	"HallPLLB_cos3th_Integral\000"
 13782      504C4C42 
 13782      5F636F73 
 13782      3374685F 
 13782      496E7465 
 13783              	.LASF316:
 13784 1615 54494D5F 		.ascii	"TIM_OutputNState\000"
 13784      4F757470 
 13784      75744E53 
 13784      74617465 
 13784      00
 13785              	.LASF269:
 13786 1626 4C434B52 		.ascii	"LCKR\000"
 13786      00
 13787              	.LASF545:
 13788 162b 714F7574 		.ascii	"qOutMax\000"
 13788      4D617800 
 13789              	.LASF21:
 13790 1633 75696E74 		.ascii	"uint32_t\000"
 13790      33325F74 
 13790      00
 13791              	.LASF152:
 13792 163c 444D4132 		.ascii	"DMA2_Stream1_IRQn\000"
 13792      5F537472 
 13792      65616D31 
 13792      5F495251 
 13792      6E00
 13793              	.LASF538:
 13794 164e 4B736C66 		.ascii	"KslfFinal\000"
 13794      46696E61 
 13794      6C00
 13795              	.LASF282:
 13796 1658 444D415F 		.ascii	"DMA_DIR\000"
 13796      44495200 
 13797              	.LASF344:
 13798 1660 5F6D6178 		.ascii	"_maxwds\000"
 13798      77647300 
 13799              	.LASF637:
 13800 1668 48616C6C 		.ascii	"Hall_KA\000"
 13800      5F4B4100 
 13801              	.LASF105:
 13802 1670 45585449 		.ascii	"EXTI4_IRQn\000"
 13802      345F4952 
ARM GAS  C:\Users\IDONNO~1\AppData\Local\Temp\ccm1q34l.s 			page 263


 13802      516E00
 13803              	.LASF345:
 13804 167b 5F736967 		.ascii	"_sign\000"
 13804      6E00
 13805              	.LASF702:
 13806 1681 636F7366 		.ascii	"cosf\000"
 13806      00
 13807              	.LASF147:
 13808 1686 55415254 		.ascii	"UART4_IRQn\000"
 13808      345F4952 
 13808      516E00
 13809              	.LASF438:
 13810 1691 6C6F6E67 		.ascii	"long double\000"
 13810      20646F75 
 13810      626C6500 
 13811              	.LASF233:
 13812 169d 72656761 		.ascii	"regarm_t\000"
 13812      726D5F74 
 13812      00
 13813              	.LASF30:
 13814 16a6 6576656E 		.ascii	"eventmask_t\000"
 13814      746D6173 
 13814      6B5F7400 
 13815              	.LASF758:
 13816 16b2 43616C63 		.ascii	"CalcRefVec\000"
 13816      52656656 
 13816      656300
 13817              	.LASF542:
 13818 16bd 4F6D6567 		.ascii	"Omega\000"
 13818      6100
 13819              	.LASF151:
 13820 16c3 444D4132 		.ascii	"DMA2_Stream0_IRQn\000"
 13820      5F537472 
 13820      65616D30 
 13820      5F495251 
 13820      6E00
 13821              	.LASF621:
 13822 16d5 6D637077 		.ascii	"mcpwm_Get_Control\000"
 13822      6D5F4765 
 13822      745F436F 
 13822      6E74726F 
 13822      6C00
 13823              	.LASF13:
 13824 16e7 6C6F6E67 		.ascii	"long unsigned int\000"
 13824      20756E73 
 13824      69676E65 
 13824      6420696E 
 13824      7400
 13825              	.LASF104:
 13826 16f9 45585449 		.ascii	"EXTI3_IRQn\000"
 13826      335F4952 
 13826      516E00
 13827              	.LASF505:
 13828 1704 63635F72 		.ascii	"cc_ramp_step_max\000"
 13828      616D705F 
 13828      73746570 
 13828      5F6D6178 
ARM GAS  C:\Users\IDONNO~1\AppData\Local\Temp\ccm1q34l.s 			page 264


 13828      00
 13829              	.LASF501:
 13830 1715 705F7069 		.ascii	"p_pid_kd\000"
 13830      645F6B64 
 13830      00
 13831              	.LASF500:
 13832 171e 705F7069 		.ascii	"p_pid_ki\000"
 13832      645F6B69 
 13832      00
 13833              	.LASF499:
 13834 1727 705F7069 		.ascii	"p_pid_kp\000"
 13834      645F6B70 
 13834      00
 13835              	.LASF493:
 13836 1730 68616C6C 		.ascii	"hall_fwd_add\000"
 13836      5F667764 
 13836      5F616464 
 13836      00
 13837              	.LASF441:
 13838 173d 50574D5F 		.ascii	"PWM_MODE_SYNCHRONOUS\000"
 13838      4D4F4445 
 13838      5F53594E 
 13838      4348524F 
 13838      4E4F5553 
 13839              	.LASF376:
 13840 1752 5F636C6F 		.ascii	"_close\000"
 13840      736500
 13841              	.LASF253:
 13842 1759 63686172 		.ascii	"char\000"
 13842      00
 13843              	.LASF134:
 13844 175e 55534152 		.ascii	"USART3_IRQn\000"
 13844      54335F49 
 13844      52516E00 
 13845              	.LASF61:
 13846 176a 725F7175 		.ascii	"r_queue\000"
 13846      65756500 
 13847              	.LASF408:
 13848 1772 5F676C75 		.ascii	"_glue\000"
 13848      6500
 13849              	.LASF491:
 13850 1778 736C5F62 		.ascii	"sl_bemf_coupling_k\000"
 13850      656D665F 
 13850      636F7570 
 13850      6C696E67 
 13850      5F6B00
 13851              	.LASF632:
 13852 178b 63757272 		.ascii	"curr_start_samples\000"
 13852      5F737461 
 13852      72745F73 
 13852      616D706C 
 13852      657300
 13853              	.LASF535:
 13854 179e 49626574 		.ascii	"Ibeta\000"
 13854      6100
 13855              	.LASF261:
 13856 17a4 73746D33 		.ascii	"stm32_dmaisr_t\000"
ARM GAS  C:\Users\IDONNO~1\AppData\Local\Temp\ccm1q34l.s 			page 265


 13856      325F646D 
 13856      61697372 
 13856      5F7400
 13857              	.LASF509:
 13858 17b3 4F70656E 		.ascii	"OpenLoop\000"
 13858      4C6F6F70 
 13858      00
 13859              	.LASF565:
 13860 17bc 71467741 		.ascii	"qFwActiv\000"
 13860      63746976 
 13860      00
 13861              	.LASF306:
 13862 17c5 4144435F 		.ascii	"ADC_TwoSamplingDelay\000"
 13862      54776F53 
 13862      616D706C 
 13862      696E6744 
 13862      656C6179 
 13863              	.LASF133:
 13864 17da 55534152 		.ascii	"USART2_IRQn\000"
 13864      54325F49 
 13864      52516E00 
 13865              	.LASF516:
 13866 17e6 4F666673 		.ascii	"Offseta\000"
 13866      65746100 
 13867              	.LASF517:
 13868 17ee 4F666673 		.ascii	"Offsetb\000"
 13868      65746200 
 13869              	.LASF342:
 13870 17f6 5F426967 		.ascii	"_Bigint\000"
 13870      696E7400 
 13871              	.LASF476:
 13872 17fe 6C5F7465 		.ascii	"l_temp_motor_start\000"
 13872      6D705F6D 
 13872      6F746F72 
 13872      5F737461 
 13872      727400
 13873              	.LASF174:
 13874 1811 48415348 		.ascii	"HASH_RNG_IRQn\000"
 13874      5F524E47 
 13874      5F495251 
 13874      6E00
 13875              	.LASF638:
 13876 181f 48616C6C 		.ascii	"Hall_KB\000"
 13876      5F4B4200 
 13877              	.LASF197:
 13878 1827 49544D5F 		.ascii	"ITM_Type\000"
 13878      54797065 
 13878      00
 13879              	.LASF126:
 13880 1830 49324331 		.ascii	"I2C1_EV_IRQn\000"
 13880      5F45565F 
 13880      4952516E 
 13880      00
 13881              	.LASF593:
 13882 183d 636F6E66 		.ascii	"configuration\000"
 13882      69677572 
 13882      6174696F 
ARM GAS  C:\Users\IDONNO~1\AppData\Local\Temp\ccm1q34l.s 			page 266


 13882      6E00
 13883              	.LASF128:
 13884 184b 49324332 		.ascii	"I2C2_EV_IRQn\000"
 13884      5F45565F 
 13884      4952516E 
 13884      00
 13885              	.LASF132:
 13886 1858 55534152 		.ascii	"USART1_IRQn\000"
 13886      54315F49 
 13886      52516E00 
 13887              	.LASF403:
 13888 1864 5F617465 		.ascii	"_atexit0\000"
 13888      78697430 
 13888      00
 13889              	.LASF591:
 13890 186d 53657475 		.ascii	"SetupControlParameters\000"
 13890      70436F6E 
 13890      74726F6C 
 13890      50617261 
 13890      6D657465 
 13891              	.LASF167:
 13892 1884 49324333 		.ascii	"I2C3_EV_IRQn\000"
 13892      5F45565F 
 13892      4952516E 
 13892      00
 13893              	.LASF445:
 13894 1891 434F4D4D 		.ascii	"COMM_MODE_DELAY\000"
 13894      5F4D4F44 
 13894      455F4445 
 13894      4C415900 
 13895              	.LASF462:
 13896 18a1 6C5F6375 		.ascii	"l_current_min\000"
 13896      7272656E 
 13896      745F6D69 
 13896      6E00
 13897              	.LASF642:
 13898 18af 5F73746D 		.ascii	"_stm32_dma_streams\000"
 13898      33325F64 
 13898      6D615F73 
 13898      74726561 
 13898      6D7300
 13899              	.LASF697:
 13900 18c2 414E465F 		.ascii	"ANF_PLLA\000"
 13900      504C4C41 
 13900      00
 13901              	.LASF698:
 13902 18cb 414E465F 		.ascii	"ANF_PLLB\000"
 13902      504C4C42 
 13902      00
 13903              	.LASF427:
 13904 18d4 5F676574 		.ascii	"_getdate_err\000"
 13904      64617465 
 13904      5F657272 
 13904      00
 13905              	.LASF452:
 13906 18e1 4641554C 		.ascii	"FAULT_CODE_UNDER_VOLTAGE\000"
 13906      545F434F 
ARM GAS  C:\Users\IDONNO~1\AppData\Local\Temp\ccm1q34l.s 			page 267


 13906      44455F55 
 13906      4E444552 
 13906      5F564F4C 
 13907              	.LASF623:
 13908 18fa 6661756C 		.ascii	"fault_now\000"
 13908      745F6E6F 
 13908      7700
 13909              	.LASF169:
 13910 1904 4F54475F 		.ascii	"OTG_HS_EP1_OUT_IRQn\000"
 13910      48535F45 
 13910      50315F4F 
 13910      55545F49 
 13910      52516E00 
 13911              	.LASF31:
 13912 1918 636E745F 		.ascii	"cnt_t\000"
 13912      7400
 13913              	.LASF481:
 13914 191e 6C6F5F63 		.ascii	"lo_current_min\000"
 13914      75727265 
 13914      6E745F6D 
 13914      696E00
 13915              	.LASF600:
 13916 192d 4144435F 		.ascii	"ADC_InitStructure\000"
 13916      496E6974 
 13916      53747275 
 13916      63747572 
 13916      6500
 13917              	.LASF146:
 13918 193f 53504933 		.ascii	"SPI3_IRQn\000"
 13918      5F495251 
 13918      6E00
 13919              	.LASF496:
 13920 1949 735F7069 		.ascii	"s_pid_ki\000"
 13920      645F6B69 
 13920      00
 13921              	.LASF495:
 13922 1952 735F7069 		.ascii	"s_pid_kp\000"
 13922      645F6B70 
 13922      00
 13923              	.LASF271:
 13924 195b 41465248 		.ascii	"AFRH\000"
 13924      00
 13925              	.LASF270:
 13926 1960 4146524C 		.ascii	"AFRL\000"
 13926      00
 13927              	.LASF533:
 13928 1965 4B736C69 		.ascii	"Kslide\000"
 13928      646500
 13929              	.LASF619:
 13930 196c 6D637077 		.ascii	"mcpwm_Set_Velocity\000"
 13930      6D5F5365 
 13930      745F5665 
 13930      6C6F6369 
 13930      747900
 13931              	.LASF379:
 13932 197f 5F626C6B 		.ascii	"_blksize\000"
 13932      73697A65 
ARM GAS  C:\Users\IDONNO~1\AppData\Local\Temp\ccm1q34l.s 			page 268


 13932      00
 13933              	.LASF295:
 13934 1988 4144435F 		.ascii	"ADC_Resolution\000"
 13934      5265736F 
 13934      6C757469 
 13934      6F6E00
 13935              	.LASF695:
 13936 1997 4273696E 		.ascii	"Bsin3th\000"
 13936      33746800 
 13937              	.LASF595:
 13938 199f 54494D5F 		.ascii	"TIM_OCInitStructure\000"
 13938      4F43496E 
 13938      69745374 
 13938      72756374 
 13938      75726500 
 13939              	.LASF377:
 13940 19b3 5F756275 		.ascii	"_ubuf\000"
 13940      6600
 13941              	.LASF422:
 13942 19b9 5F6D626C 		.ascii	"_mblen_state\000"
 13942      656E5F73 
 13942      74617465 
 13942      00
 13943              	.LASF405:
 13944 19c6 5F5F7367 		.ascii	"__sglue\000"
 13944      6C756500 
 13945              	.LASF148:
 13946 19ce 55415254 		.ascii	"UART5_IRQn\000"
 13946      355F4952 
 13946      516E00
 13947              	.LASF395:
 13948 19d9 5F5F636C 		.ascii	"__cleanup\000"
 13948      65616E75 
 13948      7000
 13949              	.LASF109:
 13950 19e3 444D4131 		.ascii	"DMA1_Stream3_IRQn\000"
 13950      5F537472 
 13950      65616D33 
 13950      5F495251 
 13950      6E00
 13951              	.LASF193:
 13952 19f5 43494430 		.ascii	"CID0\000"
 13952      00
 13953              	.LASF194:
 13954 19fa 43494431 		.ascii	"CID1\000"
 13954      00
 13955              	.LASF195:
 13956 19ff 43494432 		.ascii	"CID2\000"
 13956      00
 13957              	.LASF196:
 13958 1a04 43494433 		.ascii	"CID3\000"
 13958      00
 13959              	.LASF67:
 13960 1a09 76746675 		.ascii	"vtfunc_t\000"
 13960      6E635F74 
 13960      00
 13961              	.LASF677:
ARM GAS  C:\Users\IDONNO~1\AppData\Local\Temp\ccm1q34l.s 			page 269


 13962 1a12 48616C6C 		.ascii	"HallPLLA_sin3th\000"
 13962      504C4C41 
 13962      5F73696E 
 13962      33746800 
 13963              	.LASF241:
 13964 1a22 77746F62 		.ascii	"wtobjp\000"
 13964      6A7000
 13965              	.LASF333:
 13966 1a29 5F66706F 		.ascii	"_fpos_t\000"
 13966      735F7400 
 13967              	.LASF370:
 13968 1a31 5F66696C 		.ascii	"_file\000"
 13968      6500
 13969              	.LASF51:
 13970 1a37 705F7265 		.ascii	"p_realprio\000"
 13970      616C7072 
 13970      696F00
 13971              	.LASF614:
 13972 1a42 73746F70 		.ascii	"stop_pwm_hw\000"
 13972      5F70776D 
 13972      5F687700 
 13973              	.LASF719:
 13974 1a4e 54494D5F 		.ascii	"TIM_ARRPreloadConfig\000"
 13974      41525250 
 13974      72656C6F 
 13974      6164436F 
 13974      6E666967 
 13975              	.LASF244:
 13976 1a63 77746D74 		.ascii	"wtmtxp\000"
 13976      787000
 13977              	.LASF108:
 13978 1a6a 444D4131 		.ascii	"DMA1_Stream2_IRQn\000"
 13978      5F537472 
 13978      65616D32 
 13978      5F495251 
 13978      6E00
 13979              	.LASF368:
 13980 1a7c 5F5F7346 		.ascii	"__sFILE\000"
 13980      494C4500 
 13981              	.LASF546:
 13982 1a84 714F7574 		.ascii	"qOutMin\000"
 13982      4D696E00 
 13983              	.LASF437:
 13984 1a8c 646F7562 		.ascii	"double\000"
 13984      6C6500
 13985              	.LASF364:
 13986 1a93 5F666E73 		.ascii	"_fns\000"
 13986      00
 13987              	.LASF747:
 13988 1a98 73717274 		.ascii	"sqrtf\000"
 13988      6600
 13989              	.LASF534:
 13990 1a9e 4D617853 		.ascii	"MaxSMCError\000"
 13990      4D434572 
 13990      726F7200 
 13991              	.LASF477:
 13992 1aaa 6C5F7465 		.ascii	"l_temp_motor_end\000"
ARM GAS  C:\Users\IDONNO~1\AppData\Local\Temp\ccm1q34l.s 			page 270


 13992      6D705F6D 
 13992      6F746F72 
 13992      5F656E64 
 13992      00
 13993              	.LASF339:
 13994 1abb 5F6D6273 		.ascii	"_mbstate_t\000"
 13994      74617465 
 13994      5F7400
 13995              	.LASF433:
 13996 1ac6 5F685F65 		.ascii	"_h_errno\000"
 13996      72726E6F 
 13996      00
 13997              	.LASF521:
 13998 1acf 45616C70 		.ascii	"EalphaFinal\000"
 13998      68614669 
 13998      6E616C00 
 13999              	.LASF689:
 14000 1adb 48616C6C 		.ascii	"Hall_CosSin\000"
 14000      5F436F73 
 14000      53696E00 
 14001              	.LASF654:
 14002 1ae7 53564765 		.ascii	"SVGenParm\000"
 14002      6E506172 
 14002      6D00
 14003              	.LASF590:
 14004 1af1 43616C63 		.ascii	"CalcPI\000"
 14004      504900
 14005              	.LASF678:
 14006 1af8 48616C6C 		.ascii	"HallPLLB_sin3th\000"
 14006      504C4C42 
 14006      5F73696E 
 14006      33746800 
 14007              	.LASF365:
 14008 1b08 5F5F7362 		.ascii	"__sbuf\000"
 14008      756600
 14009              	.LASF107:
 14010 1b0f 444D4131 		.ascii	"DMA1_Stream1_IRQn\000"
 14010      5F537472 
 14010      65616D31 
 14010      5F495251 
 14010      6E00
 14011              	.LASF631:
 14012 1b21 63757272 		.ascii	"curr1_sum\000"
 14012      315F7375 
 14012      6D00
 14013              	.LASF60:
 14014 1b2b 63685F72 		.ascii	"ch_ready_list\000"
 14014      65616479 
 14014      5F6C6973 
 14014      7400
 14015              	.LASF519:
 14016 1b39 56616C70 		.ascii	"Valpha\000"
 14016      686100
 14017              	.LASF267:
 14018 1b40 50555044 		.ascii	"PUPDR\000"
 14018      5200
 14019              	.LASF10:
ARM GAS  C:\Users\IDONNO~1\AppData\Local\Temp\ccm1q34l.s 			page 271


 14020 1b46 5F5F696E 		.ascii	"__int32_t\000"
 14020      7433325F 
 14020      7400
 14021              	.LASF12:
 14022 1b50 5F5F7569 		.ascii	"__uint32_t\000"
 14022      6E743332 
 14022      5F7400
 14023              	.LASF755:
 14024 1b5b 7372632F 		.ascii	"src/bldc/mcpwm.c\000"
 14024      626C6463 
 14024      2F6D6370 
 14024      776D2E63 
 14024      00
 14025              	.LASF79:
 14026 1b6c 63685F73 		.ascii	"ch_system_debug\000"
 14026      79737465 
 14026      6D5F6465 
 14026      62756700 
 14027              	.LASF232:
 14028 1b7c 46756E63 		.ascii	"FunctionalState\000"
 14028      74696F6E 
 14028      616C5374 
 14028      61746500 
 14029              	.LASF156:
 14030 1b8c 4554485F 		.ascii	"ETH_IRQn\000"
 14030      4952516E 
 14030      00
 14031              	.LASF94:
 14032 1b95 53797354 		.ascii	"SysTick_IRQn\000"
 14032      69636B5F 
 14032      4952516E 
 14032      00
 14033              	.LASF338:
 14034 1ba2 5F5F7661 		.ascii	"__value\000"
 14034      6C756500 
 14035              	.LASF725:
 14036 1baa 4144435F 		.ascii	"ADC_CommonInit\000"
 14036      436F6D6D 
 14036      6F6E496E 
 14036      697400
 14037              	.LASF361:
 14038 1bb9 5F69735F 		.ascii	"_is_cxa\000"
 14038      63786100 
 14039              	.LASF612:
 14040 1bc1 6D637077 		.ascii	"mcpwm_adc_inj_int_handler\000"
 14040      6D5F6164 
 14040      635F696E 
 14040      6A5F696E 
 14040      745F6861 
 14041              	.LASF727:
 14042 1bdb 68775F73 		.ascii	"hw_setup_adc_channels\000"
 14042      65747570 
 14042      5F616463 
 14042      5F636861 
 14042      6E6E656C 
 14043              	.LASF720:
 14044 1bf1 5243435F 		.ascii	"RCC_AHB1PeriphClockCmd\000"
ARM GAS  C:\Users\IDONNO~1\AppData\Local\Temp\ccm1q34l.s 			page 272


 14044      41484231 
 14044      50657269 
 14044      7068436C 
 14044      6F636B43 
 14045              	.LASF707:
 14046 1c08 5243435F 		.ascii	"RCC_APB2PeriphClockCmd\000"
 14046      41504232 
 14046      50657269 
 14046      7068436C 
 14046      6F636B43 
 14047              	.LASF258:
 14048 1c1f 73656C66 		.ascii	"selfindex\000"
 14048      696E6465 
 14048      7800
 14049              	.LASF576:
 14050 1c29 70506172 		.ascii	"pParm\000"
 14050      6D00
 14051              	.LASF254:
 14052 1c2f 6D757465 		.ascii	"mutex_t\000"
 14052      785F7400 
 14053              	.LASF523:
 14054 1c37 47736D6F 		.ascii	"Gsmopos\000"
 14054      706F7300 
 14055              	.LASF398:
 14056 1c3f 5F703573 		.ascii	"_p5s\000"
 14056      00
 14057              	.LASF297:
 14058 1c44 4144435F 		.ascii	"ADC_ContinuousConvMode\000"
 14058      436F6E74 
 14058      696E756F 
 14058      7573436F 
 14058      6E764D6F 
 14059              	.LASF49:
 14060 1c5b 705F6570 		.ascii	"p_epending\000"
 14060      656E6469 
 14060      6E6700
 14061              	.LASF666:
 14062 1c66 48616C6C 		.ascii	"HallPLLdef1\000"
 14062      504C4C64 
 14062      65663100 
 14063              	.LASF117:
 14064 1c72 43414E31 		.ascii	"CAN1_SCE_IRQn\000"
 14064      5F534345 
 14064      5F495251 
 14064      6E00
 14065              	.LASF560:
 14066 1c80 71566452 		.ascii	"qVdRef\000"
 14066      656600
 14067              	.LASF264:
 14068 1c87 4D4F4445 		.ascii	"MODER\000"
 14068      5200
 14069              	.LASF87:
 14070 1c8d 4E6F6E4D 		.ascii	"NonMaskableInt_IRQn\000"
 14070      61736B61 
 14070      626C6549 
 14070      6E745F49 
 14070      52516E00 
ARM GAS  C:\Users\IDONNO~1\AppData\Local\Temp\ccm1q34l.s 			page 273


 14071              	.LASF556:
 14072 1ca1 7156616C 		.ascii	"qValpha\000"
 14072      70686100 
 14073              	.LASF657:
 14074 1ca9 41636375 		.ascii	"AccumTheta\000"
 14074      6D546865 
 14074      746100
 14075              	.LASF663:
 14076 1cb4 48616C6C 		.ascii	"HallPLLde\000"
 14076      504C4C64 
 14076      6500
 14077              	.LASF178:
 14078 1cbe 52455345 		.ascii	"RESERVED0\000"
 14078      52564544 
 14078      3000
 14079              	.LASF179:
 14080 1cc8 52455345 		.ascii	"RESERVED1\000"
 14080      52564544 
 14080      3100
 14081              	.LASF180:
 14082 1cd2 52455345 		.ascii	"RESERVED2\000"
 14082      52564544 
 14082      3200
 14083              	.LASF181:
 14084 1cdc 52455345 		.ascii	"RESERVED3\000"
 14084      52564544 
 14084      3300
 14085              	.LASF183:
 14086 1ce6 52455345 		.ascii	"RESERVED4\000"
 14086      52564544 
 14086      3400
 14087              	.LASF184:
 14088 1cf0 52455345 		.ascii	"RESERVED5\000"
 14088      52564544 
 14088      3500
 14089              	.LASF292:
 14090 1cfa 444D415F 		.ascii	"DMA_MemoryBurst\000"
 14090      4D656D6F 
 14090      72794275 
 14090      72737400 
 14091              	.LASF330:
 14092 1d0a 54494D5F 		.ascii	"TIM_BDTRInitTypeDef\000"
 14092      42445452 
 14092      496E6974 
 14092      54797065 
 14092      44656600 
 14093              	.LASF120:
 14094 1d1e 54494D31 		.ascii	"TIM1_UP_TIM10_IRQn\000"
 14094      5F55505F 
 14094      54494D31 
 14094      305F4952 
 14094      516E00
 14095              	.LASF680:
 14096 1d31 48616C6C 		.ascii	"HallPLLA_cos3th_Integral\000"
 14096      504C4C41 
 14096      5F636F73 
 14096      3374685F 
ARM GAS  C:\Users\IDONNO~1\AppData\Local\Temp\ccm1q34l.s 			page 274


 14096      496E7465 
 14097              	.LASF307:
 14098 1d4a 4144435F 		.ascii	"ADC_CommonInitTypeDef\000"
 14098      436F6D6D 
 14098      6F6E496E 
 14098      69745479 
 14098      70654465 
 14099              	.LASF482:
 14100 1d60 6C6F5F69 		.ascii	"lo_in_current_max\000"
 14100      6E5F6375 
 14100      7272656E 
 14100      745F6D61 
 14100      7800
 14101              	.LASF704:
 14102 1d72 63685468 		.ascii	"chThdSleep\000"
 14102      64536C65 
 14102      657000
 14103              	.LASF574:
 14104 1d7d 71567233 		.ascii	"qVr3\000"
 14104      00
 14105              	.LASF62:
 14106 1d82 725F7072 		.ascii	"r_prio\000"
 14106      696F00
 14107              	.LASF641:
 14108 1d89 49544D5F 		.ascii	"ITM_RxBuffer\000"
 14108      52784275 
 14108      66666572 
 14108      00
 14109              	.LASF577:
 14110 1d96 496E6974 		.ascii	"InitPI\000"
 14110      504900
 14111              	.LASF453:
 14112 1d9d 4641554C 		.ascii	"FAULT_CODE_DRV8302\000"
 14112      545F434F 
 14112      44455F44 
 14112      52563833 
 14112      303200
 14113              	.LASF16:
 14114 1db0 6C6F6E67 		.ascii	"long long unsigned int\000"
 14114      206C6F6E 
 14114      6720756E 
 14114      7369676E 
 14114      65642069 
 14115              	.LASF237:
 14116 1dc7 6F666673 		.ascii	"offset\000"
 14116      657400
 14117              	.LASF515:
 14118 1dce 576F7264 		.ascii	"Word\000"
 14118      00
 14119              	.LASF177:
 14120 1dd3 504F5254 		.ascii	"PORT\000"
 14120      00
 14121              	.LASF667:
 14122 1dd8 57706C6C 		.ascii	"Wpll\000"
 14122      00
 14123              	.LASF520:
 14124 1ddd 45616C70 		.ascii	"Ealpha\000"
ARM GAS  C:\Users\IDONNO~1\AppData\Local\Temp\ccm1q34l.s 			page 275


 14124      686100
 14125              	.LASF187:
 14126 1de4 50494436 		.ascii	"PID6\000"
 14126      00
 14127              	.LASF419:
 14128 1de9 5F67616D 		.ascii	"_gamma_signgam\000"
 14128      6D615F73 
 14128      69676E67 
 14128      616D00
 14129              	.LASF86:
 14130 1df8 69646C65 		.ascii	"idle_thread_wa\000"
 14130      5F746872 
 14130      6561645F 
 14130      776100
 14131              	.LASF73:
 14132 1e07 76745F66 		.ascii	"vt_func\000"
 14132      756E6300 
 14133              	.LASF218:
 14134 1e0f 534D4352 		.ascii	"SMCR\000"
 14134      00
 14135              	.LASF69:
 14136 1e14 63685F76 		.ascii	"ch_virtual_timer\000"
 14136      69727475 
 14136      616C5F74 
 14136      696D6572 
 14136      00
 14137              	.LASF42:
 14138 1e25 705F666C 		.ascii	"p_flags\000"
 14138      61677300 
 14139              	.LASF245:
 14140 1e2d 65776D61 		.ascii	"ewmask\000"
 14140      736B00
 14141              	.LASF729:
 14142 1e34 4144435F 		.ascii	"ADC_ExternalTrigInjectedConvConfig\000"
 14142      45787465 
 14142      726E616C 
 14142      54726967 
 14142      496E6A65 
 14143              	.LASF50:
 14144 1e57 705F6D74 		.ascii	"p_mtxlist\000"
 14144      786C6973 
 14144      7400
 14145              	.LASF490:
 14146 1e61 736C5F63 		.ascii	"sl_cycle_int_rpm_br\000"
 14146      79636C65 
 14146      5F696E74 
 14146      5F72706D 
 14146      5F627200 
 14147              	.LASF736:
 14148 1e75 54494D5F 		.ascii	"TIM_SelectOutputTrigger\000"
 14148      53656C65 
 14148      63744F75 
 14148      74707574 
 14148      54726967 
 14149              	.LASF324:
 14150 1e8d 54494D5F 		.ascii	"TIM_OSSIState\000"
 14150      4F535349 
ARM GAS  C:\Users\IDONNO~1\AppData\Local\Temp\ccm1q34l.s 			page 276


 14150      53746174 
 14150      6500
 14151              	.LASF25:
 14152 1e9b 74737461 		.ascii	"tstate_t\000"
 14152      74655F74 
 14152      00
 14153              	.LASF525:
 14154 1ea4 46736D6F 		.ascii	"Fsmopos\000"
 14154      706F7300 
 14155              	.LASF568:
 14156 1eac 71496E74 		.ascii	"qInterpolPortion\000"
 14156      6572706F 
 14156      6C506F72 
 14156      74696F6E 
 14156      00
 14157              	.LASF446:
 14158 1ebd 6D635F63 		.ascii	"mc_comm_mode\000"
 14158      6F6D6D5F 
 14158      6D6F6465 
 14158      00
 14159              	.LASF40:
 14160 1eca 705F6E61 		.ascii	"p_name\000"
 14160      6D6500
 14161              	.LASF394:
 14162 1ed1 5F5F7364 		.ascii	"__sdidinit\000"
 14162      6964696E 
 14162      697400
 14163              	.LASF208:
 14164 1edc 4A445231 		.ascii	"JDR1\000"
 14164      00
 14165              	.LASF209:
 14166 1ee1 4A445232 		.ascii	"JDR2\000"
 14166      00
 14167              	.LASF210:
 14168 1ee6 4A445233 		.ascii	"JDR3\000"
 14168      00
 14169              	.LASF211:
 14170 1eeb 4A445234 		.ascii	"JDR4\000"
 14170      00
 14171              	.LASF602:
 14172 1ef0 446F436F 		.ascii	"DoControl\000"
 14172      6E74726F 
 14172      6C00
 14173              	.LASF340:
 14174 1efa 5F666C6F 		.ascii	"_flock_t\000"
 14174      636B5F74 
 14174      00
 14175              	.LASF75:
 14176 1f03 76697274 		.ascii	"virtual_timers_list_t\000"
 14176      75616C5F 
 14176      74696D65 
 14176      72735F6C 
 14176      6973745F 
 14177              	.LASF628:
 14178 1f19 54617267 		.ascii	"TargetDCbus\000"
 14178      65744443 
 14178      62757300 
ARM GAS  C:\Users\IDONNO~1\AppData\Local\Temp\ccm1q34l.s 			page 277


 14179              	.LASF127:
 14180 1f25 49324331 		.ascii	"I2C1_ER_IRQn\000"
 14180      5F45525F 
 14180      4952516E 
 14180      00
 14181              	.LASF440:
 14182 1f32 50574D5F 		.ascii	"PWM_MODE_NONSYNCHRONOUS_HISW\000"
 14182      4D4F4445 
 14182      5F4E4F4E 
 14182      53594E43 
 14182      48524F4E 
 14183              	.LASF121:
 14184 1f4f 54494D31 		.ascii	"TIM1_TRG_COM_TIM11_IRQn\000"
 14184      5F545247 
 14184      5F434F4D 
 14184      5F54494D 
 14184      31315F49 
 14185              	.LASF93:
 14186 1f67 50656E64 		.ascii	"PendSV_IRQn\000"
 14186      53565F49 
 14186      52516E00 
 14187              	.LASF640:
 14188 1f73 48616C6C 		.ascii	"Hall_Err0\000"
 14188      5F457272 
 14188      3000
 14189              	.LASF129:
 14190 1f7d 49324332 		.ascii	"I2C2_ER_IRQn\000"
 14190      5F45525F 
 14190      4952516E 
 14190      00
 14191              	.LASF682:
 14192 1f8a 48616C6C 		.ascii	"HallPLLB_sin3th_Integral\000"
 14192      504C4C42 
 14192      5F73696E 
 14192      3374685F 
 14192      496E7465 
 14193              	.LASF247:
 14194 1fa3 735F7175 		.ascii	"s_queue\000"
 14194      65756500 
 14195              	.LASF168:
 14196 1fab 49324333 		.ascii	"I2C3_ER_IRQn\000"
 14196      5F45525F 
 14196      4952516E 
 14196      00
 14197              	.LASF753:
 14198 1fb8 54494D5F 		.ascii	"TIM_GenerateEvent\000"
 14198      47656E65 
 14198      72617465 
 14198      4576656E 
 14198      7400
 14199              	.LASF457:
 14200 1fca 6D635F66 		.ascii	"mc_fault_code\000"
 14200      61756C74 
 14200      5F636F64 
 14200      6500
 14201              	.LASF627:
 14202 1fd8 44436275 		.ascii	"DCbus\000"
ARM GAS  C:\Users\IDONNO~1\AppData\Local\Temp\ccm1q34l.s 			page 278


 14202      7300
 14203              	.LASF507:
 14204 1fde 6D635F63 		.ascii	"mc_configuration\000"
 14204      6F6E6669 
 14204      67757261 
 14204      74696F6E 
 14204      00
 14205              	.LASF14:
 14206 1fef 6C6F6E67 		.ascii	"long long int\000"
 14206      206C6F6E 
 14206      6720696E 
 14206      7400
 14207              	.LASF302:
 14208 1ffd 4144435F 		.ascii	"ADC_InitTypeDef\000"
 14208      496E6974 
 14208      54797065 
 14208      44656600 
 14209              	.LASF384:
 14210 200d 5F666C61 		.ascii	"_flags2\000"
 14210      67733200 
 14211              	.LASF434:
 14212 2015 5F6E6578 		.ascii	"_nextf\000"
 14212      746600
 14213              	.LASF561:
 14214 201c 71567152 		.ascii	"qVqRef\000"
 14214      656600
 14215              	.LASF567:
 14216 2023 71465750 		.ascii	"qFWPercentage\000"
 14216      65726365 
 14216      6E746167 
 14216      6500
 14217              	.LASF733:
 14218 2031 4E564943 		.ascii	"NVIC_Init\000"
 14218      5F496E69 
 14218      7400
 14219              	.LASF752:
 14220 203b 54494D5F 		.ascii	"TIM_CCxNCmd\000"
 14220      4343784E 
 14220      436D6400 
 14221              	.LASF714:
 14222 2047 54494D5F 		.ascii	"TIM_OC2PreloadConfig\000"
 14222      4F433250 
 14222      72656C6F 
 14222      6164436F 
 14222      6E666967 
 14223              	.LASF469:
 14224 205c 6C5F6D61 		.ascii	"l_max_erpm_fbrake_cc\000"
 14224      785F6572 
 14224      706D5F66 
 14224      6272616B 
 14224      655F6363 
 14225              	.LASF608:
 14226 2071 43616C63 		.ascii	"CalcSVGen\000"
 14226      53564765 
 14226      6E00
 14227              	.LASF750:
 14228 207b 54494D5F 		.ascii	"TIM_SelectOCxM\000"
ARM GAS  C:\Users\IDONNO~1\AppData\Local\Temp\ccm1q34l.s 			page 279


 14228      53656C65 
 14228      63744F43 
 14228      784D00
 14229              	.LASF584:
 14230 208a 436F6D70 		.ascii	"CompVdq\000"
 14230      56647100 
 14231              	.LASF757:
 14232 2092 566F6C74 		.ascii	"VoltRippleComp\000"
 14232      52697070 
 14232      6C65436F 
 14232      6D7000
 14233              	.LASF673:
 14234 20a1 48616C6C 		.ascii	"HallPLLA\000"
 14234      504C4C41 
 14234      00
 14235              	.LASF291:
 14236 20aa 444D415F 		.ascii	"DMA_FIFOThreshold\000"
 14236      4649464F 
 14236      54687265 
 14236      73686F6C 
 14236      6400
 14237              	.LASF539:
 14238 20bc 46696C74 		.ascii	"FiltOmCoef\000"
 14238      4F6D436F 
 14238      656600
 14239              	.LASF685:
 14240 20c7 48616C6C 		.ascii	"HallPLLB_old\000"
 14240      504C4C42 
 14240      5F6F6C64 
 14240      00
 14241              	.LASF626:
 14242 20d4 71566453 		.ascii	"qVdSquared\000"
 14242      71756172 
 14242      656400
 14243              	.LASF463:
 14244 20df 6C5F696E 		.ascii	"l_in_current_max\000"
 14244      5F637572 
 14244      72656E74 
 14244      5F6D6178 
 14244      00
 14245              	.LASF731:
 14246 20f0 4144435F 		.ascii	"ADC_InjectedSequencerLengthConfig\000"
 14246      496E6A65 
 14246      63746564 
 14246      53657175 
 14246      656E6365 
 14247              	.LASF39:
 14248 2112 705F6F6C 		.ascii	"p_older\000"
 14248      64657200 
 14249              	.LASF139:
 14250 211a 54494D38 		.ascii	"TIM8_UP_TIM13_IRQn\000"
 14250      5F55505F 
 14250      54494D31 
 14250      335F4952 
 14250      516E00
 14251              	.LASF362:
 14252 212d 5F617465 		.ascii	"_atexit\000"
ARM GAS  C:\Users\IDONNO~1\AppData\Local\Temp\ccm1q34l.s 			page 280


 14252      78697400 
 14253              	.LASF686:
 14254 2135 48616C6C 		.ascii	"HallPLLA_filtered\000"
 14254      504C4C41 
 14254      5F66696C 
 14254      74657265 
 14254      6400
 14255              	.LASF53:
 14256 2147 74687265 		.ascii	"thread_reference_t\000"
 14256      61645F72 
 14256      65666572 
 14256      656E6365 
 14256      5F7400
 14257              	.LASF511:
 14258 215a 456E546F 		.ascii	"EnTorqueMod\000"
 14258      72717565 
 14258      4D6F6400 
 14259              	.LASF754:
 14260 2166 474E5520 		.ascii	"GNU C99 5.2.1 20151202 (release) [ARM/embedded-5-br"
 14260      43393920 
 14260      352E322E 
 14260      31203230 
 14260      31353132 
 14261 2199 616E6368 		.ascii	"anch revision 231848] -mcpu=cortex-m4 -mfloat-abi=h"
 14261      20726576 
 14261      6973696F 
 14261      6E203233 
 14261      31383438 
 14262 21cc 61726420 		.ascii	"ard -mfpu=fpv4-sp-d16 -mno-thumb-interwork -mthumb "
 14262      2D6D6670 
 14262      753D6670 
 14262      76342D73 
 14262      702D6431 
 14263 21ff 2D676764 		.ascii	"-ggdb -O2 -std=gnu99 -fomit-frame-pointer -falign-f"
 14263      62202D4F 
 14263      32202D73 
 14263      74643D67 
 14263      6E753939 
 14264 2232 756E6374 		.ascii	"unctions=16 -ffunction-sections -fdata-sections -fn"
 14264      696F6E73 
 14264      3D313620 
 14264      2D666675 
 14264      6E637469 
 14265 2265 6F2D636F 		.ascii	"o-common -fsingle-precision-constant\000"
 14265      6D6D6F6E 
 14265      202D6673 
 14265      696E676C 
 14265      652D7072 
 14266              	.LASF485:
 14267 228a 736C5F6D 		.ascii	"sl_min_erpm\000"
 14267      696E5F65 
 14267      72706D00 
 14268              	.LASF585:
 14269 2296 436F7272 		.ascii	"CorrADC1\000"
 14269      41444331 
 14269      00
 14270              	.LASF586:
ARM GAS  C:\Users\IDONNO~1\AppData\Local\Temp\ccm1q34l.s 			page 281


 14271 229f 436F7272 		.ascii	"CorrADC2\000"
 14271      41444332 
 14271      00
 14272              	.LASF407:
 14273 22a8 5F5F4649 		.ascii	"__FILE\000"
 14273      4C4500
 14274              	.LASF734:
 14275 22af 4144435F 		.ascii	"ADC_Cmd\000"
 14275      436D6400 
 14276              	.LASF579:
 14277 22b7 4F666673 		.ascii	"Offset_a\000"
 14277      65745F61 
 14277      00
 14278              	.LASF580:
 14279 22c0 4F666673 		.ascii	"Offset_b\000"
 14279      65745F62 
 14279      00
 14280              	.LASF276:
 14281 22c9 4E564943 		.ascii	"NVIC_IRQChannelSubPriority\000"
 14281      5F495251 
 14281      4368616E 
 14281      6E656C53 
 14281      75625072 
 14282              	.LASF238:
 14283 22e4 746D5F63 		.ascii	"tm_calibration_t\000"
 14283      616C6962 
 14283      72617469 
 14283      6F6E5F74 
 14283      00
 14284              	.LASF572:
 14285 22f5 71567231 		.ascii	"qVr1\000"
 14285      00
 14286              	.LASF573:
 14287 22fa 71567232 		.ascii	"qVr2\000"
 14287      00
 14288              	.LASF3:
 14289 22ff 5F5F696E 		.ascii	"__int8_t\000"
 14289      74385F74 
 14289      00
 14290              	.LASF483:
 14291 2308 6C6F5F69 		.ascii	"lo_in_current_min\000"
 14291      6E5F6375 
 14291      7272656E 
 14291      745F6D69 
 14291      6E00
 14292              	.LASF735:
 14293 231a 54494D5F 		.ascii	"TIM_CtrlPWMOutputs\000"
 14293      4374726C 
 14293      50574D4F 
 14293      75747075 
 14293      747300
 14294              	.LASF349:
 14295 232d 5F5F746D 		.ascii	"__tm_min\000"
 14295      5F6D696E 
 14295      00
 14296              	.LASF653:
 14297 2336 4374726C 		.ascii	"CtrlParm\000"
ARM GAS  C:\Users\IDONNO~1\AppData\Local\Temp\ccm1q34l.s 			page 282


 14297      5061726D 
 14297      00
 14298              	.LASF478:
 14299 233f 6C5F6D69 		.ascii	"l_min_duty\000"
 14299      6E5F6475 
 14299      747900
 14300              	.LASF681:
 14301 234a 48616C6C 		.ascii	"HallPLLA_sin3th_Integral\000"
 14301      504C4C41 
 14301      5F73696E 
 14301      3374685F 
 14301      496E7465 
 14302              	.LASF649:
 14303 2363 50495061 		.ascii	"PIParmD\000"
 14303      726D4400 
 14304              	.LASF96:
 14305 236b 5056445F 		.ascii	"PVD_IRQn\000"
 14305      4952516E 
 14305      00
 14306              	.LASF650:
 14307 2374 50495061 		.ascii	"PIParmQ\000"
 14307      726D5100 
 14308              	.LASF651:
 14309 237c 50495061 		.ascii	"PIParmW\000"
 14309      726D5700 
 14310              	.LASF562:
 14311 2384 74437472 		.ascii	"tCtrlParm\000"
 14311      6C506172 
 14311      6D00
 14312              	.LASF220:
 14313 238e 43434D52 		.ascii	"CCMR1\000"
 14313      3100
 14314              	.LASF221:
 14315 2394 43434D52 		.ascii	"CCMR2\000"
 14315      3200
 14316              	.LASF741:
 14317 239a 5243435F 		.ascii	"RCC_APB1PeriphClockCmd\000"
 14317      41504231 
 14317      50657269 
 14317      7068436C 
 14317      6F636B43 
 14318              	.LASF1:
 14319 23b1 756E7369 		.ascii	"unsigned int\000"
 14319      676E6564 
 14319      20696E74 
 14319      00
 14320              	.LASF421:
 14321 23be 5F723438 		.ascii	"_r48\000"
 14321      00
 14322              	.LASF760:
 14323 23c3 646F5F64 		.ascii	"do_dc_cal\000"
 14323      635F6361 
 14323      6C00
 14324              	.LASF255:
 14325 23cd 73747265 		.ascii	"stream\000"
 14325      616D00
 14326              	.LASF617:
ARM GAS  C:\Users\IDONNO~1\AppData\Local\Temp\ccm1q34l.s 			page 283


 14327 23d4 6D637077 		.ascii	"mcpwm_Set_RunStop\000"
 14327      6D5F5365 
 14327      745F5275 
 14327      6E53746F 
 14327      7000
 14328              	.LASF728:
 14329 23e6 4144435F 		.ascii	"ADC_MultiModeDMARequestAfterLastTransferCmd\000"
 14329      4D756C74 
 14329      694D6F64 
 14329      65444D41 
 14329      52657175 
 14330              	.LASF7:
 14331 2412 73686F72 		.ascii	"short int\000"
 14331      7420696E 
 14331      7400
 14332              	.LASF125:
 14333 241c 54494D34 		.ascii	"TIM4_IRQn\000"
 14333      5F495251 
 14333      6E00
 14334              	.LASF373:
 14335 2426 5F726561 		.ascii	"_read\000"
 14335      6400
 14336              	.LASF526:
 14337 242c 56626574 		.ascii	"Vbeta\000"
 14337      6100
 14338              	.LASF447:
 14339 2432 4D4F544F 		.ascii	"MOTOR_TYPE_BLDC\000"
 14339      525F5459 
 14339      50455F42 
 14339      4C444300 
 14340              	.LASF411:
 14341 2442 5F72616E 		.ascii	"_rand48\000"
 14341      64343800 
 14342              	.LASF161:
 14343 244a 43414E32 		.ascii	"CAN2_SCE_IRQn\000"
 14343      5F534345 
 14343      5F495251 
 14343      6E00
 14344              	.LASF652:
 14345 2458 50495061 		.ascii	"PIParmPLL\000"
 14345      726D504C 
 14345      4C00
 14346              	.LASF688:
 14347 2462 48616C6C 		.ascii	"Hall_SinCos\000"
 14347      5F53696E 
 14347      436F7300 
 14348              	.LASF124:
 14349 246e 54494D33 		.ascii	"TIM3_IRQn\000"
 14349      5F495251 
 14349      6E00
 14350              	.LASF587:
 14351 2478 666C6167 		.ascii	"flags\000"
 14351      7300
 14352              	.LASF41:
 14353 247e 705F7374 		.ascii	"p_state\000"
 14353      61746500 
 14354              	.LASF56:
ARM GAS  C:\Users\IDONNO~1\AppData\Local\Temp\ccm1q34l.s 			page 284


 14355 2486 63685F74 		.ascii	"ch_threads_list\000"
 14355      68726561 
 14355      64735F6C 
 14355      69737400 
 14356              	.LASF89:
 14357 2496 42757346 		.ascii	"BusFault_IRQn\000"
 14357      61756C74 
 14357      5F495251 
 14357      6E00
 14358              		.ident	"GCC: (GNU Tools for ARM Embedded Processors) 5.2.1 20151202 (release) [ARM/embedded-5-bran
ARM GAS  C:\Users\IDONNO~1\AppData\Local\Temp\ccm1q34l.s 			page 285


DEFINED SYMBOLS
                            *ABS*:00000000 mcpwm.c
C:\Users\IDONNO~1\AppData\Local\Temp\ccm1q34l.s:22     .text.mcpwm_adc_int_handler:00000000 $t
C:\Users\IDONNO~1\AppData\Local\Temp\ccm1q34l.s:28     .text.mcpwm_adc_int_handler:00000000 mcpwm_adc_int_handler
C:\Users\IDONNO~1\AppData\Local\Temp\ccm1q34l.s:60     .text.mcpwm_adc_int_handler:00000014 $d
C:\Users\IDONNO~1\AppData\Local\Temp\ccm1q34l.s:66     .text.SetupParm:00000000 $t
C:\Users\IDONNO~1\AppData\Local\Temp\ccm1q34l.s:72     .text.SetupParm:00000000 SetupParm
C:\Users\IDONNO~1\AppData\Local\Temp\ccm1q34l.s:146    .text.SetupParm:0000004c $d
C:\Users\IDONNO~1\AppData\Local\Temp\ccm1q34l.s:159    .text.ClarkePark:00000000 $t
C:\Users\IDONNO~1\AppData\Local\Temp\ccm1q34l.s:165    .text.ClarkePark:00000000 ClarkePark
C:\Users\IDONNO~1\AppData\Local\Temp\ccm1q34l.s:232    .text.ClarkePark:00000060 $d
C:\Users\IDONNO~1\AppData\Local\Temp\ccm1q34l.s:238    .text.InitPI:00000000 $t
C:\Users\IDONNO~1\AppData\Local\Temp\ccm1q34l.s:244    .text.InitPI:00000000 InitPI
C:\Users\IDONNO~1\AppData\Local\Temp\ccm1q34l.s:262    .text.CalcPI:00000000 $t
C:\Users\IDONNO~1\AppData\Local\Temp\ccm1q34l.s:268    .text.CalcPI:00000000 CalcPI
C:\Users\IDONNO~1\AppData\Local\Temp\ccm1q34l.s:323    .text.SetupControlParameters:00000000 $t
C:\Users\IDONNO~1\AppData\Local\Temp\ccm1q34l.s:329    .text.SetupControlParameters:00000000 SetupControlParameters
C:\Users\IDONNO~1\AppData\Local\Temp\ccm1q34l.s:452    .text.SetupControlParameters:00000064 $d
C:\Users\IDONNO~1\AppData\Local\Temp\ccm1q34l.s:466    .text.mcpwm_init:00000000 $t
C:\Users\IDONNO~1\AppData\Local\Temp\ccm1q34l.s:472    .text.mcpwm_init:00000000 mcpwm_init
C:\Users\IDONNO~1\AppData\Local\Temp\ccm1q34l.s:1036   .text.mcpwm_init:00000374 $d
C:\Users\IDONNO~1\AppData\Local\Temp\ccm1q34l.s:1054   .text.mcpwm_init:000003b4 $t
C:\Users\IDONNO~1\AppData\Local\Temp\ccm1q34l.s:1223   .text.mcpwm_init:0000048c $d
C:\Users\IDONNO~1\AppData\Local\Temp\ccm1q34l.s:1237   .text.VoltRippleComp:00000000 $t
C:\Users\IDONNO~1\AppData\Local\Temp\ccm1q34l.s:1243   .text.VoltRippleComp:00000000 VoltRippleComp
C:\Users\IDONNO~1\AppData\Local\Temp\ccm1q34l.s:1293   .text.VoltRippleComp:00000054 $d
C:\Users\IDONNO~1\AppData\Local\Temp\ccm1q34l.s:1299   .text.DoControl:00000000 $t
C:\Users\IDONNO~1\AppData\Local\Temp\ccm1q34l.s:1305   .text.DoControl:00000000 DoControl
C:\Users\IDONNO~1\AppData\Local\Temp\ccm1q34l.s:1468   .text.DoControl:000000e0 $d
C:\Users\IDONNO~1\AppData\Local\Temp\ccm1q34l.s:1483   .text.MeasCompCurr:00000000 $t
C:\Users\IDONNO~1\AppData\Local\Temp\ccm1q34l.s:1489   .text.MeasCompCurr:00000000 MeasCompCurr
C:\Users\IDONNO~1\AppData\Local\Temp\ccm1q34l.s:1546   .text.MeasCompCurr:00000040 $d
C:\Users\IDONNO~1\AppData\Local\Temp\ccm1q34l.s:1552   .text.InitMeasCompCurr:00000000 $t
C:\Users\IDONNO~1\AppData\Local\Temp\ccm1q34l.s:1558   .text.InitMeasCompCurr:00000000 InitMeasCompCurr
C:\Users\IDONNO~1\AppData\Local\Temp\ccm1q34l.s:1575   .text.InitMeasCompCurr:00000008 $d
C:\Users\IDONNO~1\AppData\Local\Temp\ccm1q34l.s:1580   .text.InvPark:00000000 $t
C:\Users\IDONNO~1\AppData\Local\Temp\ccm1q34l.s:1586   .text.InvPark:00000000 InvPark
C:\Users\IDONNO~1\AppData\Local\Temp\ccm1q34l.s:1639   .text.InvPark:00000048 $d
C:\Users\IDONNO~1\AppData\Local\Temp\ccm1q34l.s:1644   .text.CalcRefVec:00000000 $t
C:\Users\IDONNO~1\AppData\Local\Temp\ccm1q34l.s:1650   .text.CalcRefVec:00000000 CalcRefVec
C:\Users\IDONNO~1\AppData\Local\Temp\ccm1q34l.s:1688   .text.CalcRefVec:0000003c $d
C:\Users\IDONNO~1\AppData\Local\Temp\ccm1q34l.s:1695   .text.CalcTimes:00000000 $t
C:\Users\IDONNO~1\AppData\Local\Temp\ccm1q34l.s:1701   .text.CalcTimes:00000000 CalcTimes
C:\Users\IDONNO~1\AppData\Local\Temp\ccm1q34l.s:1757   .text.CalcTimes:00000064 $d
C:\Users\IDONNO~1\AppData\Local\Temp\ccm1q34l.s:1763   .text.update_timer_Duty:00000000 $t
C:\Users\IDONNO~1\AppData\Local\Temp\ccm1q34l.s:1769   .text.update_timer_Duty:00000000 update_timer_Duty
C:\Users\IDONNO~1\AppData\Local\Temp\ccm1q34l.s:1833   .text.update_timer_Duty:00000044 $d
C:\Users\IDONNO~1\AppData\Local\Temp\ccm1q34l.s:1839   .text.CalcSVGen:00000000 $t
C:\Users\IDONNO~1\AppData\Local\Temp\ccm1q34l.s:1845   .text.CalcSVGen:00000000 CalcSVGen
C:\Users\IDONNO~1\AppData\Local\Temp\ccm1q34l.s:2021   .text.CalcSVGen:000000fc $d
C:\Users\IDONNO~1\AppData\Local\Temp\ccm1q34l.s:2026   .text.SMC_HallSensor_Estimation:00000000 $t
C:\Users\IDONNO~1\AppData\Local\Temp\ccm1q34l.s:2032   .text.SMC_HallSensor_Estimation:00000000 SMC_HallSensor_Estimation
C:\Users\IDONNO~1\AppData\Local\Temp\ccm1q34l.s:2384   .text.SMC_HallSensor_Estimation:00000260 $d
C:\Users\IDONNO~1\AppData\Local\Temp\ccm1q34l.s:2421   .text.mcpwm_adc_inj_int_handler:00000000 $t
C:\Users\IDONNO~1\AppData\Local\Temp\ccm1q34l.s:2427   .text.mcpwm_adc_inj_int_handler:00000000 mcpwm_adc_inj_int_handler
C:\Users\IDONNO~1\AppData\Local\Temp\ccm1q34l.s:2659   .text.mcpwm_adc_inj_int_handler:00000118 $d
C:\Users\IDONNO~1\AppData\Local\Temp\ccm1q34l.s:2680   .text.stop_pwm_hw:00000000 $t
ARM GAS  C:\Users\IDONNO~1\AppData\Local\Temp\ccm1q34l.s 			page 286


C:\Users\IDONNO~1\AppData\Local\Temp\ccm1q34l.s:2686   .text.stop_pwm_hw:00000000 stop_pwm_hw
C:\Users\IDONNO~1\AppData\Local\Temp\ccm1q34l.s:2765   .text.stop_pwm_hw:0000006c $d
C:\Users\IDONNO~1\AppData\Local\Temp\ccm1q34l.s:2770   .text.fputc:00000000 $t
C:\Users\IDONNO~1\AppData\Local\Temp\ccm1q34l.s:2776   .text.fputc:00000000 fputc
C:\Users\IDONNO~1\AppData\Local\Temp\ccm1q34l.s:2818   .text.mcpwm_Set_RunStop:00000000 $t
C:\Users\IDONNO~1\AppData\Local\Temp\ccm1q34l.s:2824   .text.mcpwm_Set_RunStop:00000000 mcpwm_Set_RunStop
C:\Users\IDONNO~1\AppData\Local\Temp\ccm1q34l.s:2850   .text.mcpwm_Set_RunStop:0000001c $d
C:\Users\IDONNO~1\AppData\Local\Temp\ccm1q34l.s:2855   .text.mcpwm_Get_Control:00000000 $t
C:\Users\IDONNO~1\AppData\Local\Temp\ccm1q34l.s:2861   .text.mcpwm_Get_Control:00000000 mcpwm_Get_Control
C:\Users\IDONNO~1\AppData\Local\Temp\ccm1q34l.s:2876   .text.mcpwm_Get_Control:00000008 $d
C:\Users\IDONNO~1\AppData\Local\Temp\ccm1q34l.s:2881   .text.mcpwm_Set_Velocity:00000000 $t
C:\Users\IDONNO~1\AppData\Local\Temp\ccm1q34l.s:2887   .text.mcpwm_Set_Velocity:00000000 mcpwm_Set_Velocity
C:\Users\IDONNO~1\AppData\Local\Temp\ccm1q34l.s:2902   .text.mcpwm_Set_Velocity:00000008 $d
C:\Users\IDONNO~1\AppData\Local\Temp\ccm1q34l.s:2907   .text.mcpwm_Get_CtrlParm:00000000 $t
C:\Users\IDONNO~1\AppData\Local\Temp\ccm1q34l.s:2913   .text.mcpwm_Get_CtrlParm:00000000 mcpwm_Get_CtrlParm
C:\Users\IDONNO~1\AppData\Local\Temp\ccm1q34l.s:2940   .text.mcpwm_Get_CtrlParm:00000020 $d
C:\Users\IDONNO~1\AppData\Local\Temp\ccm1q34l.s:3182   .bss.sin3th:00000000 sin3th
C:\Users\IDONNO~1\AppData\Local\Temp\ccm1q34l.s:3418   .bss.cos3th:00000000 cos3th
C:\Users\IDONNO~1\AppData\Local\Temp\ccm1q34l.s:3247   .bss.ANF_PLLB:00000000 ANF_PLLB
C:\Users\IDONNO~1\AppData\Local\Temp\ccm1q34l.s:3189   .bss.ANF_PLLA:00000000 ANF_PLLA
C:\Users\IDONNO~1\AppData\Local\Temp\ccm1q34l.s:3307   .bss.Bcos3th:00000000 Bcos3th
C:\Users\IDONNO~1\AppData\Local\Temp\ccm1q34l.s:3076   .bss.Bsin3th:00000000 Bsin3th
C:\Users\IDONNO~1\AppData\Local\Temp\ccm1q34l.s:3049   .bss.Acos3th:00000000 Acos3th
C:\Users\IDONNO~1\AppData\Local\Temp\ccm1q34l.s:3008   .bss.Asin3th:00000000 Asin3th
C:\Users\IDONNO~1\AppData\Local\Temp\ccm1q34l.s:3261   .bss.sinth:00000000 sinth
C:\Users\IDONNO~1\AppData\Local\Temp\ccm1q34l.s:3373   .bss.costh:00000000 costh
C:\Users\IDONNO~1\AppData\Local\Temp\ccm1q34l.s:3497   .data.Gamma:00000000 Gamma
C:\Users\IDONNO~1\AppData\Local\Temp\ccm1q34l.s:3136   .bss.Hall_CosSin:00000000 Hall_CosSin
C:\Users\IDONNO~1\AppData\Local\Temp\ccm1q34l.s:3214   .bss.Hall_SinCos:00000000 Hall_SinCos
C:\Users\IDONNO~1\AppData\Local\Temp\ccm1q34l.s:3346   .bss.HallPLLB_filtered:00000000 HallPLLB_filtered
C:\Users\IDONNO~1\AppData\Local\Temp\ccm1q34l.s:3424   .bss.HallPLLA_filtered:00000000 HallPLLA_filtered
C:\Users\IDONNO~1\AppData\Local\Temp\ccm1q34l.s:3450   .bss.HallPLLB_old:00000000 HallPLLB_old
C:\Users\IDONNO~1\AppData\Local\Temp\ccm1q34l.s:3379   .bss.HallPLLA_old:00000000 HallPLLA_old
C:\Users\IDONNO~1\AppData\Local\Temp\ccm1q34l.s:3333   .bss.HallPLLB_cos3th_Integral:00000000 HallPLLB_cos3th_Integral
C:\Users\IDONNO~1\AppData\Local\Temp\ccm1q34l.s:3069   .bss.HallPLLB_sin3th_Integral:00000000 HallPLLB_sin3th_Integral
C:\Users\IDONNO~1\AppData\Local\Temp\ccm1q34l.s:3254   .bss.HallPLLA_sin3th_Integral:00000000 HallPLLA_sin3th_Integral
C:\Users\IDONNO~1\AppData\Local\Temp\ccm1q34l.s:3036   .bss.HallPLLA_cos3th_Integral:00000000 HallPLLA_cos3th_Integral
C:\Users\IDONNO~1\AppData\Local\Temp\ccm1q34l.s:3169   .bss.HallPLLB_cos3th:00000000 HallPLLB_cos3th
C:\Users\IDONNO~1\AppData\Local\Temp\ccm1q34l.s:3411   .bss.HallPLLB_sin3th:00000000 HallPLLB_sin3th
C:\Users\IDONNO~1\AppData\Local\Temp\ccm1q34l.s:3504   .bss.HallPLLA_sin3th:00000000 HallPLLA_sin3th
C:\Users\IDONNO~1\AppData\Local\Temp\ccm1q34l.s:3240   .bss.HallPLLA_cos3th:00000000 HallPLLA_cos3th
C:\Users\IDONNO~1\AppData\Local\Temp\ccm1q34l.s:3483   .bss.HallPLLB:00000000 HallPLLB
C:\Users\IDONNO~1\AppData\Local\Temp\ccm1q34l.s:3042   .bss.HallPLLA1:00000000 HallPLLA1
C:\Users\IDONNO~1\AppData\Local\Temp\ccm1q34l.s:3476   .bss.HallPLLA:00000000 HallPLLA
C:\Users\IDONNO~1\AppData\Local\Temp\ccm1q34l.s:3398   .data.Ipll:00000000 Ipll
C:\Users\IDONNO~1\AppData\Local\Temp\ccm1q34l.s:3102   .data.Kpll:00000000 Kpll
C:\Users\IDONNO~1\AppData\Local\Temp\ccm1q34l.s:3207   .bss.Wplli:00000000 Wplli
C:\Users\IDONNO~1\AppData\Local\Temp\ccm1q34l.s:3385   .bss.Wpllp:00000000 Wpllp
C:\Users\IDONNO~1\AppData\Local\Temp\ccm1q34l.s:3162   .bss.Wpll1:00000000 Wpll1
C:\Users\IDONNO~1\AppData\Local\Temp\ccm1q34l.s:3510   .bss.Wpll:00000000 Wpll
C:\Users\IDONNO~1\AppData\Local\Temp\ccm1q34l.s:3108   .bss.HallPLLdef1:00000000 HallPLLdef1
C:\Users\IDONNO~1\AppData\Local\Temp\ccm1q34l.s:3201   .bss.HallPLLdef:00000000 HallPLLdef
C:\Users\IDONNO~1\AppData\Local\Temp\ccm1q34l.s:3055   .bss.HallPLLde1:00000000 HallPLLde1
C:\Users\IDONNO~1\AppData\Local\Temp\ccm1q34l.s:3220   .bss.HallPLLde:00000000 HallPLLde
C:\Users\IDONNO~1\AppData\Local\Temp\ccm1q34l.s:3404   .bss.HallPLLqe:00000000 HallPLLqe
C:\Users\IDONNO~1\AppData\Local\Temp\ccm1q34l.s:3469   .bss.HallPLLlead2:00000000 HallPLLlead2
C:\Users\IDONNO~1\AppData\Local\Temp\ccm1q34l.s:3089   .bss.HallPLLlead1:00000000 HallPLLlead1
ARM GAS  C:\Users\IDONNO~1\AppData\Local\Temp\ccm1q34l.s 			page 287


C:\Users\IDONNO~1\AppData\Local\Temp\ccm1q34l.s:3320   .bss.HallPLLlead:00000000 HallPLLlead
C:\Users\IDONNO~1\AppData\Local\Temp\ccm1q34l.s:3314   .bss.AccumThetaCnt:00000000 AccumThetaCnt
C:\Users\IDONNO~1\AppData\Local\Temp\ccm1q34l.s:3444   .bss.AccumTheta:00000000 AccumTheta
C:\Users\IDONNO~1\AppData\Local\Temp\ccm1q34l.s:3122   .data.switching_frequency_now:00000000 switching_frequency_now
C:\Users\IDONNO~1\AppData\Local\Temp\ccm1q34l.s:3233   .bss.SpeedReference:00000000 SpeedReference
C:\Users\IDONNO~1\AppData\Local\Temp\ccm1q34l.s:3293   .bss.FdWeakParm:00000000 FdWeakParm
C:\Users\IDONNO~1\AppData\Local\Temp\ccm1q34l.s:3392   .bss.SVGenParm:00000000 SVGenParm
C:\Users\IDONNO~1\AppData\Local\Temp\ccm1q34l.s:3022   .bss.CtrlParm:00000000 CtrlParm
C:\Users\IDONNO~1\AppData\Local\Temp\ccm1q34l.s:3227   .bss.PIParmPLL:00000000 PIParmPLL
C:\Users\IDONNO~1\AppData\Local\Temp\ccm1q34l.s:3083   .bss.PIParmW:00000000 PIParmW
C:\Users\IDONNO~1\AppData\Local\Temp\ccm1q34l.s:3096   .bss.PIParmQ:00000000 PIParmQ
C:\Users\IDONNO~1\AppData\Local\Temp\ccm1q34l.s:3029   .bss.PIParmD:00000000 PIParmD
C:\Users\IDONNO~1\AppData\Local\Temp\ccm1q34l.s:3366   .bss.ParkParm:00000000 ParkParm
C:\Users\IDONNO~1\AppData\Local\Temp\ccm1q34l.s:3015   .bss.ADC_Value:00000000 ADC_Value
C:\Users\IDONNO~1\AppData\Local\Temp\ccm1q34l.s:3359   .bss.smc1:00000000 smc1
C:\Users\IDONNO~1\AppData\Local\Temp\ccm1q34l.s:3352   .bss.VelReq:00000000 VelReq
C:\Users\IDONNO~1\AppData\Local\Temp\ccm1q34l.s:3195   .bss.count:00000000 count
C:\Users\IDONNO~1\AppData\Local\Temp\ccm1q34l.s:3115   .bss.uGF:00000000 uGF
C:\Users\IDONNO~1\AppData\Local\Temp\ccm1q34l.s:3004   .bss.Asin3th:00000000 $d
C:\Users\IDONNO~1\AppData\Local\Temp\ccm1q34l.s:3011   .bss.ADC_Value:00000000 $d
C:\Users\IDONNO~1\AppData\Local\Temp\ccm1q34l.s:3018   .bss.CtrlParm:00000000 $d
C:\Users\IDONNO~1\AppData\Local\Temp\ccm1q34l.s:3025   .bss.PIParmD:00000000 $d
C:\Users\IDONNO~1\AppData\Local\Temp\ccm1q34l.s:3032   .bss.HallPLLA_cos3th_Integral:00000000 $d
C:\Users\IDONNO~1\AppData\Local\Temp\ccm1q34l.s:3039   .bss.HallPLLA1:00000000 $d
C:\Users\IDONNO~1\AppData\Local\Temp\ccm1q34l.s:3045   .bss.Acos3th:00000000 $d
C:\Users\IDONNO~1\AppData\Local\Temp\ccm1q34l.s:3052   .bss.HallPLLde1:00000000 $d
C:\Users\IDONNO~1\AppData\Local\Temp\ccm1q34l.s:3058   .bss.curr1_sum:00000000 $d
C:\Users\IDONNO~1\AppData\Local\Temp\ccm1q34l.s:3062   .bss.curr1_sum:00000000 curr1_sum
C:\Users\IDONNO~1\AppData\Local\Temp\ccm1q34l.s:3065   .bss.HallPLLB_sin3th_Integral:00000000 $d
C:\Users\IDONNO~1\AppData\Local\Temp\ccm1q34l.s:3072   .bss.Bsin3th:00000000 $d
C:\Users\IDONNO~1\AppData\Local\Temp\ccm1q34l.s:3079   .bss.PIParmW:00000000 $d
C:\Users\IDONNO~1\AppData\Local\Temp\ccm1q34l.s:3086   .bss.HallPLLlead1:00000000 $d
C:\Users\IDONNO~1\AppData\Local\Temp\ccm1q34l.s:3092   .bss.PIParmQ:00000000 $d
C:\Users\IDONNO~1\AppData\Local\Temp\ccm1q34l.s:3099   .data.Kpll:00000000 $d
C:\Users\IDONNO~1\AppData\Local\Temp\ccm1q34l.s:3105   .bss.HallPLLdef1:00000000 $d
C:\Users\IDONNO~1\AppData\Local\Temp\ccm1q34l.s:3111   .bss.uGF:00000000 $d
C:\Users\IDONNO~1\AppData\Local\Temp\ccm1q34l.s:3118   .data.switching_frequency_now:00000000 $d
C:\Users\IDONNO~1\AppData\Local\Temp\ccm1q34l.s:3125   .bss.curr_start_samples:00000000 $d
C:\Users\IDONNO~1\AppData\Local\Temp\ccm1q34l.s:3129   .bss.curr_start_samples:00000000 curr_start_samples
C:\Users\IDONNO~1\AppData\Local\Temp\ccm1q34l.s:3132   .bss.Hall_CosSin:00000000 $d
C:\Users\IDONNO~1\AppData\Local\Temp\ccm1q34l.s:3142   .bss.dccal_done:00000000 dccal_done
C:\Users\IDONNO~1\AppData\Local\Temp\ccm1q34l.s:3143   .bss.dccal_done:00000000 $d
C:\Users\IDONNO~1\AppData\Local\Temp\ccm1q34l.s:3145   .bss.Hall_Err0:00000000 $d
C:\Users\IDONNO~1\AppData\Local\Temp\ccm1q34l.s:3149   .bss.Hall_Err0:00000000 Hall_Err0
C:\Users\IDONNO~1\AppData\Local\Temp\ccm1q34l.s:3152   .bss.curr0_offset:00000000 $d
C:\Users\IDONNO~1\AppData\Local\Temp\ccm1q34l.s:3156   .bss.curr0_offset:00000000 curr0_offset
C:\Users\IDONNO~1\AppData\Local\Temp\ccm1q34l.s:3159   .bss.Wpll1:00000000 $d
C:\Users\IDONNO~1\AppData\Local\Temp\ccm1q34l.s:3165   .bss.HallPLLB_cos3th:00000000 $d
C:\Users\IDONNO~1\AppData\Local\Temp\ccm1q34l.s:3172   .bss.Futi:00000000 $d
C:\Users\IDONNO~1\AppData\Local\Temp\ccm1q34l.s:3175   .bss.Futi:00000000 Futi
C:\Users\IDONNO~1\AppData\Local\Temp\ccm1q34l.s:3178   .bss.sin3th:00000000 $d
C:\Users\IDONNO~1\AppData\Local\Temp\ccm1q34l.s:3185   .bss.ANF_PLLA:00000000 $d
C:\Users\IDONNO~1\AppData\Local\Temp\ccm1q34l.s:3192   .bss.count:00000000 $d
C:\Users\IDONNO~1\AppData\Local\Temp\ccm1q34l.s:3198   .bss.HallPLLdef:00000000 $d
C:\Users\IDONNO~1\AppData\Local\Temp\ccm1q34l.s:3204   .bss.Wplli:00000000 $d
C:\Users\IDONNO~1\AppData\Local\Temp\ccm1q34l.s:3210   .bss.Hall_SinCos:00000000 $d
C:\Users\IDONNO~1\AppData\Local\Temp\ccm1q34l.s:3217   .bss.HallPLLde:00000000 $d
ARM GAS  C:\Users\IDONNO~1\AppData\Local\Temp\ccm1q34l.s 			page 288


C:\Users\IDONNO~1\AppData\Local\Temp\ccm1q34l.s:3223   .bss.PIParmPLL:00000000 $d
C:\Users\IDONNO~1\AppData\Local\Temp\ccm1q34l.s:3230   .bss.SpeedReference:00000000 $d
C:\Users\IDONNO~1\AppData\Local\Temp\ccm1q34l.s:3236   .bss.HallPLLA_cos3th:00000000 $d
C:\Users\IDONNO~1\AppData\Local\Temp\ccm1q34l.s:3243   .bss.ANF_PLLB:00000000 $d
C:\Users\IDONNO~1\AppData\Local\Temp\ccm1q34l.s:3250   .bss.HallPLLA_sin3th_Integral:00000000 $d
C:\Users\IDONNO~1\AppData\Local\Temp\ccm1q34l.s:3257   .bss.sinth:00000000 $d
C:\Users\IDONNO~1\AppData\Local\Temp\ccm1q34l.s:3264   .bss.qVdSquared:00000000 $d
C:\Users\IDONNO~1\AppData\Local\Temp\ccm1q34l.s:3268   .bss.qVdSquared:00000000 qVdSquared
C:\Users\IDONNO~1\AppData\Local\Temp\ccm1q34l.s:3271   .bss.DCbus:00000000 $d
C:\Users\IDONNO~1\AppData\Local\Temp\ccm1q34l.s:3275   .bss.DCbus:00000000 DCbus
C:\Users\IDONNO~1\AppData\Local\Temp\ccm1q34l.s:3278   .bss.Hall_KA:00000000 $d
C:\Users\IDONNO~1\AppData\Local\Temp\ccm1q34l.s:3281   .bss.Hall_KA:00000000 Hall_KA
C:\Users\IDONNO~1\AppData\Local\Temp\ccm1q34l.s:3284   .bss.Hall_KB:00000000 $d
C:\Users\IDONNO~1\AppData\Local\Temp\ccm1q34l.s:3287   .bss.Hall_KB:00000000 Hall_KB
C:\Users\IDONNO~1\AppData\Local\Temp\ccm1q34l.s:3290   .bss.FdWeakParm:00000000 $d
C:\Users\IDONNO~1\AppData\Local\Temp\ccm1q34l.s:3296   .bss.TargetDCbus:00000000 $d
C:\Users\IDONNO~1\AppData\Local\Temp\ccm1q34l.s:3300   .bss.TargetDCbus:00000000 TargetDCbus
C:\Users\IDONNO~1\AppData\Local\Temp\ccm1q34l.s:3303   .bss.Bcos3th:00000000 $d
C:\Users\IDONNO~1\AppData\Local\Temp\ccm1q34l.s:3310   .bss.AccumThetaCnt:00000000 $d
C:\Users\IDONNO~1\AppData\Local\Temp\ccm1q34l.s:3317   .bss.HallPLLlead:00000000 $d
C:\Users\IDONNO~1\AppData\Local\Temp\ccm1q34l.s:3323   .bss.ThetaCal:00000000 $d
C:\Users\IDONNO~1\AppData\Local\Temp\ccm1q34l.s:3326   .bss.ThetaCal:00000000 ThetaCal
C:\Users\IDONNO~1\AppData\Local\Temp\ccm1q34l.s:3329   .bss.HallPLLB_cos3th_Integral:00000000 $d
C:\Users\IDONNO~1\AppData\Local\Temp\ccm1q34l.s:3336   .bss.Theta:00000000 $d
C:\Users\IDONNO~1\AppData\Local\Temp\ccm1q34l.s:3340   .bss.Theta:00000000 Theta
C:\Users\IDONNO~1\AppData\Local\Temp\ccm1q34l.s:3343   .bss.HallPLLB_filtered:00000000 $d
C:\Users\IDONNO~1\AppData\Local\Temp\ccm1q34l.s:3349   .bss.VelReq:00000000 $d
C:\Users\IDONNO~1\AppData\Local\Temp\ccm1q34l.s:3355   .bss.smc1:00000000 $d
C:\Users\IDONNO~1\AppData\Local\Temp\ccm1q34l.s:3362   .bss.ParkParm:00000000 $d
C:\Users\IDONNO~1\AppData\Local\Temp\ccm1q34l.s:3369   .bss.costh:00000000 $d
C:\Users\IDONNO~1\AppData\Local\Temp\ccm1q34l.s:3376   .bss.HallPLLA_old:00000000 $d
C:\Users\IDONNO~1\AppData\Local\Temp\ccm1q34l.s:3382   .bss.Wpllp:00000000 $d
C:\Users\IDONNO~1\AppData\Local\Temp\ccm1q34l.s:3388   .bss.SVGenParm:00000000 $d
C:\Users\IDONNO~1\AppData\Local\Temp\ccm1q34l.s:3395   .data.Ipll:00000000 $d
C:\Users\IDONNO~1\AppData\Local\Temp\ccm1q34l.s:3401   .bss.HallPLLqe:00000000 $d
C:\Users\IDONNO~1\AppData\Local\Temp\ccm1q34l.s:3407   .bss.HallPLLB_sin3th:00000000 $d
C:\Users\IDONNO~1\AppData\Local\Temp\ccm1q34l.s:3414   .bss.cos3th:00000000 $d
C:\Users\IDONNO~1\AppData\Local\Temp\ccm1q34l.s:3421   .bss.HallPLLA_filtered:00000000 $d
C:\Users\IDONNO~1\AppData\Local\Temp\ccm1q34l.s:3427   .bss.curr1_offset:00000000 $d
C:\Users\IDONNO~1\AppData\Local\Temp\ccm1q34l.s:3431   .bss.curr1_offset:00000000 curr1_offset
C:\Users\IDONNO~1\AppData\Local\Temp\ccm1q34l.s:3434   .bss.curr0_sum:00000000 $d
C:\Users\IDONNO~1\AppData\Local\Temp\ccm1q34l.s:3438   .bss.curr0_sum:00000000 curr0_sum
C:\Users\IDONNO~1\AppData\Local\Temp\ccm1q34l.s:3441   .bss.AccumTheta:00000000 $d
C:\Users\IDONNO~1\AppData\Local\Temp\ccm1q34l.s:3447   .bss.HallPLLB_old:00000000 $d
C:\Users\IDONNO~1\AppData\Local\Temp\ccm1q34l.s:3453   .bss.Hall_PIout:00000000 $d
C:\Users\IDONNO~1\AppData\Local\Temp\ccm1q34l.s:3457   .bss.Hall_PIout:00000000 Hall_PIout
C:\Users\IDONNO~1\AppData\Local\Temp\ccm1q34l.s:3463   .bss.fault_now:00000000 fault_now
C:\Users\IDONNO~1\AppData\Local\Temp\ccm1q34l.s:3464   .bss.fault_now:00000000 $d
C:\Users\IDONNO~1\AppData\Local\Temp\ccm1q34l.s:3466   .bss.HallPLLlead2:00000000 $d
C:\Users\IDONNO~1\AppData\Local\Temp\ccm1q34l.s:3472   .bss.HallPLLA:00000000 $d
C:\Users\IDONNO~1\AppData\Local\Temp\ccm1q34l.s:3479   .bss.HallPLLB:00000000 $d
C:\Users\IDONNO~1\AppData\Local\Temp\ccm1q34l.s:3486   .bss.MeasCurrParm:00000000 $d
C:\Users\IDONNO~1\AppData\Local\Temp\ccm1q34l.s:3490   .bss.MeasCurrParm:00000000 MeasCurrParm
C:\Users\IDONNO~1\AppData\Local\Temp\ccm1q34l.s:3493   .data.Gamma:00000000 $d
C:\Users\IDONNO~1\AppData\Local\Temp\ccm1q34l.s:3500   .bss.HallPLLA_sin3th:00000000 $d
C:\Users\IDONNO~1\AppData\Local\Temp\ccm1q34l.s:3507   .bss.Wpll:00000000 $d
                     .debug_frame:00000010 $d
ARM GAS  C:\Users\IDONNO~1\AppData\Local\Temp\ccm1q34l.s 			page 289



UNDEFINED SYMBOLS
WWDG_SetCounter
cosf
sinf
utils_sys_lock_cnt
TIM_DeInit
RCC_APB2PeriphClockCmd
TIM_TimeBaseInit
TIM_OC1Init
TIM_OC2Init
TIM_OC3Init
TIM_OC4Init
TIM_OC1PreloadConfig
TIM_OC2PreloadConfig
TIM_OC3PreloadConfig
TIM_OC4PreloadConfig
TIM_BDTRConfig
TIM_CCPreloadControl
TIM_ARRPreloadConfig
RCC_AHB1PeriphClockCmd
dmaStreamAllocate
DMA_Init
DMA_Cmd
DMA_ITConfig
ADC_CommonInit
ADC_Init
hw_setup_adc_channels
ADC_MultiModeDMARequestAfterLastTransferCmd
ADC_ExternalTrigInjectedConvConfig
ADC_ExternalTrigInjectedConvEdgeConfig
ADC_InjectedSequencerLengthConfig
ADC_ITConfig
NVIC_Init
ADC_Cmd
TIM_CtrlPWMOutputs
TIM_SelectOutputTrigger
TIM_SelectMasterSlaveMode
TIM_SelectInputTrigger
TIM_SelectSlaveMode
TIM_Cmd
RCC_APB1PeriphClockCmd
_stm32_dma_streams
utils_sys_unlock_cnt
chThdSleep
WWDG_SetPrescaler
WWDG_SetWindowValue
WWDG_Enable
spi_dac_hw_init
sqrtf
spi_dac_write_B
ADC_GetInjectedConversionValue
TIM_SelectOCxM
TIM_CCxCmd
TIM_CCxNCmd
TIM_GenerateEvent
