ARM GAS  C:\Users\IDONNO~1\AppData\Local\Temp\ccABwXCh.s 			page 1


   1              		.syntax unified
   2              		.cpu cortex-m4
   3              		.eabi_attribute 27, 1
   4              		.eabi_attribute 28, 1
   5              		.fpu fpv4-sp-d16
   6              		.eabi_attribute 20, 1
   7              		.eabi_attribute 21, 1
   8              		.eabi_attribute 23, 3
   9              		.eabi_attribute 24, 1
  10              		.eabi_attribute 25, 1
  11              		.eabi_attribute 26, 1
  12              		.eabi_attribute 30, 2
  13              		.eabi_attribute 34, 1
  14              		.eabi_attribute 18, 4
  15              		.thumb
  16              		.syntax unified
  17              		.file	"nvic.c"
  18              		.text
  19              	.Ltext0:
  20              		.cfi_sections	.debug_frame
  21              		.section	.text.nvicEnableVector,"ax",%progbits
  22              		.align	2
  23              		.p2align 4,,15
  24              		.global	nvicEnableVector
  25              		.thumb
  26              		.thumb_func
  27              		.type	nvicEnableVector, %function
  28              	nvicEnableVector:
  29              	.LFB256:
  30              		.file 1 "lib/ChibiOS_3.0.2/os/hal/ports/common/ARMCMx/nvic.c"
  31              		.loc 1 57 0
  32              		.cfi_startproc
  33              		@ args = 0, pretend = 0, frame = 0
  34              		@ frame_needed = 0, uses_anonymous_args = 0
  35              		@ link register save eliminated.
  36              	.LVL0:
  37 0000 4309     		lsrs	r3, r0, #5
  38 0002 9B00     		lsls	r3, r3, #2
  39 0004 10B4     		push	{r4}
  40              		.cfi_def_cfa_offset 4
  41              		.cfi_offset 4, -4
  42 0006 03F16043 		add	r3, r3, #-536870912
  43              		.loc 1 59 0
  44 000a 00F16044 		add	r4, r0, #-536870912
  45 000e 04F56144 		add	r4, r4, #57600
  46 0012 03F56143 		add	r3, r3, #57600
  47 0016 0901     		lsls	r1, r1, #4
  48              	.LVL1:
  49              		.loc 1 60 0
  50 0018 00F01F00 		and	r0, r0, #31
  51              	.LVL2:
  52 001c 0122     		movs	r2, #1
  53 001e 02FA00F0 		lsl	r0, r2, r0
  54              		.loc 1 59 0
  55 0022 C9B2     		uxtb	r1, r1
  56 0024 84F80013 		strb	r1, [r4, #768]
  57              		.loc 1 60 0
ARM GAS  C:\Users\IDONNO~1\AppData\Local\Temp\ccABwXCh.s 			page 2


  58 0028 C3F88001 		str	r0, [r3, #384]
  59              		.loc 1 61 0
  60 002c 1860     		str	r0, [r3]
  61              		.loc 1 62 0
  62 002e 5DF8044B 		ldr	r4, [sp], #4
  63              		.cfi_restore 4
  64              		.cfi_def_cfa_offset 0
  65              	.LVL3:
  66 0032 7047     		bx	lr
  67              		.cfi_endproc
  68              	.LFE256:
  69              		.size	nvicEnableVector, .-nvicEnableVector
  70              		.section	.text.nvicDisableVector,"ax",%progbits
  71              		.align	2
  72              		.p2align 4,,15
  73              		.global	nvicDisableVector
  74              		.thumb
  75              		.thumb_func
  76              		.type	nvicDisableVector, %function
  77              	nvicDisableVector:
  78              	.LFB257:
  79              		.loc 1 69 0
  80              		.cfi_startproc
  81              		@ args = 0, pretend = 0, frame = 0
  82              		@ frame_needed = 0, uses_anonymous_args = 0
  83              		@ link register save eliminated.
  84              	.LVL4:
  85              		.loc 1 71 0
  86 0000 0849     		ldr	r1, .L5
  87 0002 4309     		lsrs	r3, r0, #5
  88              		.loc 1 69 0
  89 0004 10B4     		push	{r4}
  90              		.cfi_def_cfa_offset 4
  91              		.cfi_offset 4, -4
  92              		.loc 1 71 0
  93 0006 2033     		adds	r3, r3, #32
  94 0008 00F01F04 		and	r4, r0, #31
  95 000c 0122     		movs	r2, #1
  96              		.loc 1 72 0
  97 000e 0844     		add	r0, r0, r1
  98              	.LVL5:
  99              		.loc 1 71 0
 100 0010 A240     		lsls	r2, r2, r4
 101              		.loc 1 72 0
 102 0012 0024     		movs	r4, #0
 103              		.loc 1 71 0
 104 0014 41F82320 		str	r2, [r1, r3, lsl #2]
 105              		.loc 1 72 0
 106 0018 80F80043 		strb	r4, [r0, #768]
 107              		.loc 1 73 0
 108 001c 5DF8044B 		ldr	r4, [sp], #4
 109              		.cfi_restore 4
 110              		.cfi_def_cfa_offset 0
 111 0020 7047     		bx	lr
 112              	.L6:
 113 0022 00BF     		.align	2
 114              	.L5:
ARM GAS  C:\Users\IDONNO~1\AppData\Local\Temp\ccABwXCh.s 			page 3


 115 0024 00E100E0 		.word	-536813312
 116              		.cfi_endproc
 117              	.LFE257:
 118              		.size	nvicDisableVector, .-nvicDisableVector
 119              		.section	.text.nvicSetSystemHandlerPriority,"ax",%progbits
 120              		.align	2
 121              		.p2align 4,,15
 122              		.global	nvicSetSystemHandlerPriority
 123              		.thumb
 124              		.thumb_func
 125              		.type	nvicSetSystemHandlerPriority, %function
 126              	nvicSetSystemHandlerPriority:
 127              	.LFB258:
 128              		.loc 1 81 0
 129              		.cfi_startproc
 130              		@ args = 0, pretend = 0, frame = 0
 131              		@ frame_needed = 0, uses_anonymous_args = 0
 132              		@ link register save eliminated.
 133              	.LVL6:
 134              		.loc 1 85 0
 135 0000 00F16040 		add	r0, r0, #-536870912
 136              	.LVL7:
 137 0004 00F56D40 		add	r0, r0, #60672
 138              	.LVL8:
 139 0008 0901     		lsls	r1, r1, #4
 140              	.LVL9:
 141 000a C9B2     		uxtb	r1, r1
 142 000c 0176     		strb	r1, [r0, #24]
 143 000e 7047     		bx	lr
 144              		.cfi_endproc
 145              	.LFE258:
 146              		.size	nvicSetSystemHandlerPriority, .-nvicSetSystemHandlerPriority
 147              		.section	.text.nvicClearPending,"ax",%progbits
 148              		.align	2
 149              		.p2align 4,,15
 150              		.global	nvicClearPending
 151              		.thumb
 152              		.thumb_func
 153              		.type	nvicClearPending, %function
 154              	nvicClearPending:
 155              	.LFB259:
 156              		.loc 1 93 0
 157              		.cfi_startproc
 158              		@ args = 0, pretend = 0, frame = 0
 159              		@ frame_needed = 0, uses_anonymous_args = 0
 160              		@ link register save eliminated.
 161              	.LVL10:
 162              		.loc 1 95 0
 163 0000 4309     		lsrs	r3, r0, #5
 164 0002 6033     		adds	r3, r3, #96
 165 0004 00F01F00 		and	r0, r0, #31
 166              	.LVL11:
 167 0008 0122     		movs	r2, #1
 168 000a 0349     		ldr	r1, .L9
 169 000c 02FA00F0 		lsl	r0, r2, r0
 170 0010 41F82300 		str	r0, [r1, r3, lsl #2]
 171 0014 7047     		bx	lr
ARM GAS  C:\Users\IDONNO~1\AppData\Local\Temp\ccABwXCh.s 			page 4


 172              	.L10:
 173 0016 00BF     		.align	2
 174              	.L9:
 175 0018 00E100E0 		.word	-536813312
 176              		.cfi_endproc
 177              	.LFE259:
 178              		.size	nvicClearPending, .-nvicClearPending
 179              		.text
 180              	.Letext0:
 181              		.file 2 "c:\\program files (x86)\\gnu tools arm embedded\\5.2 2015q4\\arm-none-eabi\\include\\mach
 182              		.file 3 "c:\\program files (x86)\\gnu tools arm embedded\\5.2 2015q4\\arm-none-eabi\\include\\sys\
 183              		.file 4 "lib/ChibiOS_3.0.2/os/rt/ports/ARMCMx/compilers/GCC/chtypes.h"
 184              		.file 5 "lib/ChibiOS_3.0.2/os/rt/include/chsystypes.h"
 185              		.file 6 "lib/ChibiOS_3.0.2/os/rt/include/chschd.h"
 186              		.file 7 "lib/ChibiOS_3.0.2/os/ext/CMSIS/include/core_cm4.h"
 187              		.file 8 "lib/ChibiOS_3.0.2/os/rt/ports/ARMCMx/chcore.h"
 188              		.file 9 "lib/ChibiOS_3.0.2/os/rt/ports/ARMCMx/chcore_v7m.h"
 189              		.file 10 "lib/ChibiOS_3.0.2/os/rt/include/chtm.h"
 190              		.file 11 "lib/ChibiOS_3.0.2/os/rt/include/chsem.h"
 191              		.file 12 "lib/ChibiOS_3.0.2/os/rt/include/chmtx.h"