ARM GAS  C:\Users\IDONNO~1.SON\AppData\Local\Temp\ccHdDn3U.s 			page 1


   1              		.syntax unified
   2              		.cpu cortex-m4
   3              		.eabi_attribute 27, 1
   4              		.eabi_attribute 28, 1
   5              		.fpu fpv4-sp-d16
   6              		.eabi_attribute 20, 1
   7              		.eabi_attribute 21, 1
   8              		.eabi_attribute 23, 3
   9              		.eabi_attribute 24, 1
  10              		.eabi_attribute 25, 1
  11              		.eabi_attribute 26, 1
  12              		.eabi_attribute 30, 2
  13              		.eabi_attribute 34, 1
  14              		.eabi_attribute 18, 4
  15              		.thumb
  16              		.syntax unified
  17              		.file	"serial.c"
  18              		.text
  19              	.Ltext0:
  20              		.cfi_sections	.debug_frame
  21              		.section	.text.readt,"ax",%progbits
  22              		.align	2
  23              		.p2align 4,,15
  24              		.thumb
  25              		.thumb_func
  26              		.type	readt, %function
  27              	readt:
  28              	.LFB263:
  29              		.file 1 "lib/ChibiOS_3.0.2/os/hal/src/serial.c"
  30              		.loc 1 87 0
  31              		.cfi_startproc
  32              		@ args = 0, pretend = 0, frame = 0
  33              		@ frame_needed = 0, uses_anonymous_args = 0
  34              		@ link register save eliminated.
  35              	.LVL0:
  36              		.loc 1 89 0
  37 0000 0C30     		adds	r0, r0, #12
  38              	.LVL1:
  39 0002 FFF7FEBF 		b	chIQReadTimeout
  40              	.LVL2:
  41              		.cfi_endproc
  42              	.LFE263:
  43              		.size	readt, .-readt
  44 0006 00BF     		.section	.text.read,"ax",%progbits
  45              		.align	2
  46              		.p2align 4,,15
  47              		.thumb
  48              		.thumb_func
  49              		.type	read, %function
  50              	read:
  51              	.LFB257:
  52              		.loc 1 56 0
  53              		.cfi_startproc
  54              		@ args = 0, pretend = 0, frame = 0
  55              		@ frame_needed = 0, uses_anonymous_args = 0
  56              		@ link register save eliminated.
  57              	.LVL3:
ARM GAS  C:\Users\IDONNO~1.SON\AppData\Local\Temp\ccHdDn3U.s 			page 2


  58              		.loc 1 58 0
  59 0000 0C30     		adds	r0, r0, #12
  60              	.LVL4:
  61 0002 4FF0FF33 		mov	r3, #-1
  62 0006 FFF7FEBF 		b	chIQReadTimeout
  63              	.LVL5:
  64              		.cfi_endproc
  65              	.LFE257:
  66              		.size	read, .-read
  67 000a 00BF     		.section	.text.writet,"ax",%progbits
  68              		.align	2
  69              		.p2align 4,,15
  70              		.thumb
  71              		.thumb_func
  72              		.type	writet, %function
  73              	writet:
  74              	.LFB262:
  75              		.loc 1 82 0
  76              		.cfi_startproc
  77              		@ args = 0, pretend = 0, frame = 0
  78              		@ frame_needed = 0, uses_anonymous_args = 0
  79              		@ link register save eliminated.
  80              	.LVL6:
  81              		.loc 1 84 0
  82 0000 3030     		adds	r0, r0, #48
  83              	.LVL7:
  84 0002 FFF7FEBF 		b	chOQWriteTimeout
  85              	.LVL8:
  86              		.cfi_endproc
  87              	.LFE262:
  88              		.size	writet, .-writet
  89 0006 00BF     		.section	.text.write,"ax",%progbits
  90              		.align	2
  91              		.p2align 4,,15
  92              		.thumb
  93              		.thumb_func
  94              		.type	write, %function
  95              	write:
  96              	.LFB256:
  97              		.loc 1 50 0
  98              		.cfi_startproc
  99              		@ args = 0, pretend = 0, frame = 0
 100              		@ frame_needed = 0, uses_anonymous_args = 0
 101              		@ link register save eliminated.
 102              	.LVL9:
 103              		.loc 1 52 0
 104 0000 3030     		adds	r0, r0, #48
 105              	.LVL10:
 106 0002 4FF0FF33 		mov	r3, #-1
 107 0006 FFF7FEBF 		b	chOQWriteTimeout
 108              	.LVL11:
 109              		.cfi_endproc
 110              	.LFE256:
 111              		.size	write, .-write
 112 000a 00BF     		.section	.text.gett,"ax",%progbits
 113              		.align	2
 114              		.p2align 4,,15
ARM GAS  C:\Users\IDONNO~1.SON\AppData\Local\Temp\ccHdDn3U.s 			page 3


 115              		.thumb
 116              		.thumb_func
 117              		.type	gett, %function
 118              	gett:
 119              	.LFB261:
 120              		.loc 1 77 0
 121              		.cfi_startproc
 122              		@ args = 0, pretend = 0, frame = 0
 123              		@ frame_needed = 0, uses_anonymous_args = 0
 124              		@ link register save eliminated.
 125              	.LVL12:
 126              		.loc 1 79 0
 127 0000 0C30     		adds	r0, r0, #12
 128              	.LVL13:
 129 0002 FFF7FEBF 		b	chIQGetTimeout
 130              	.LVL14:
 131              		.cfi_endproc
 132              	.LFE261:
 133              		.size	gett, .-gett
 134 0006 00BF     		.section	.text.get,"ax",%progbits
 135              		.align	2
 136              		.p2align 4,,15
 137              		.thumb
 138              		.thumb_func
 139              		.type	get, %function
 140              	get:
 141              	.LFB259:
 142              		.loc 1 67 0
 143              		.cfi_startproc
 144              		@ args = 0, pretend = 0, frame = 0
 145              		@ frame_needed = 0, uses_anonymous_args = 0
 146              		@ link register save eliminated.
 147              	.LVL15:
 148              		.loc 1 69 0
 149 0000 0C30     		adds	r0, r0, #12
 150              	.LVL16:
 151 0002 4FF0FF31 		mov	r1, #-1
 152 0006 FFF7FEBF 		b	chIQGetTimeout
 153              	.LVL17:
 154              		.cfi_endproc
 155              	.LFE259:
 156              		.size	get, .-get
 157 000a 00BF     		.section	.text.putt,"ax",%progbits
 158              		.align	2
 159              		.p2align 4,,15
 160              		.thumb
 161              		.thumb_func
 162              		.type	putt, %function
 163              	putt:
 164              	.LFB260:
 165              		.loc 1 72 0
 166              		.cfi_startproc
 167              		@ args = 0, pretend = 0, frame = 0
 168              		@ frame_needed = 0, uses_anonymous_args = 0
 169              		@ link register save eliminated.
 170              	.LVL18:
 171              		.loc 1 74 0
ARM GAS  C:\Users\IDONNO~1.SON\AppData\Local\Temp\ccHdDn3U.s 			page 4


 172 0000 3030     		adds	r0, r0, #48
 173              	.LVL19:
 174 0002 FFF7FEBF 		b	chOQPutTimeout
 175              	.LVL20:
 176              		.cfi_endproc
 177              	.LFE260:
 178              		.size	putt, .-putt
 179 0006 00BF     		.section	.text.put,"ax",%progbits
 180              		.align	2
 181              		.p2align 4,,15
 182              		.thumb
 183              		.thumb_func
 184              		.type	put, %function
 185              	put:
 186              	.LFB258:
 187              		.loc 1 62 0
 188              		.cfi_startproc
 189              		@ args = 0, pretend = 0, frame = 0
 190              		@ frame_needed = 0, uses_anonymous_args = 0
 191              		@ link register save eliminated.
 192              	.LVL21:
 193              		.loc 1 64 0
 194 0000 3030     		adds	r0, r0, #48
 195              	.LVL22:
 196 0002 4FF0FF32 		mov	r2, #-1
 197 0006 FFF7FEBF 		b	chOQPutTimeout
 198              	.LVL23:
 199              		.cfi_endproc
 200              	.LFE258:
 201              		.size	put, .-put
 202 000a 00BF     		.section	.text.sdInit,"ax",%progbits
 203              		.align	2
 204              		.p2align 4,,15
 205              		.global	sdInit
 206              		.thumb
 207              		.thumb_func
 208              		.type	sdInit, %function
 209              	sdInit:
 210              	.LFB264:
 211              		.loc 1 108 0
 212              		.cfi_startproc
 213              		@ args = 0, pretend = 0, frame = 0
 214              		@ frame_needed = 0, uses_anonymous_args = 0
 215              		@ link register save eliminated.
 216              		.loc 1 110 0
 217 0000 FFF7FEBF 		b	sd_lld_init
 218              	.LVL24:
 219              		.cfi_endproc
 220              	.LFE264:
 221              		.size	sdInit, .-sdInit
 222              		.section	.text.sdObjectInit,"ax",%progbits
 223              		.align	2
 224              		.p2align 4,,15
 225              		.global	sdObjectInit
 226              		.thumb
 227              		.thumb_func
 228              		.type	sdObjectInit, %function
ARM GAS  C:\Users\IDONNO~1.SON\AppData\Local\Temp\ccHdDn3U.s 			page 5


 229              	sdObjectInit:
 230              	.LFB265:
 231              		.loc 1 128 0
 232              		.cfi_startproc
 233              		@ args = 0, pretend = 0, frame = 0
 234              		@ frame_needed = 0, uses_anonymous_args = 0
 235              	.LVL25:
 236 0000 70B5     		push	{r4, r5, r6, lr}
 237              		.cfi_def_cfa_offset 16
 238              		.cfi_offset 4, -16
 239              		.cfi_offset 5, -12
 240              		.cfi_offset 6, -8
 241              		.cfi_offset 14, -4
 242              		.loc 1 130 0
 243 0002 0F4B     		ldr	r3, .L12
 244              		.loc 1 128 0
 245 0004 0446     		mov	r4, r0
 246 0006 82B0     		sub	sp, sp, #8
 247              		.cfi_def_cfa_offset 24
 248              		.loc 1 130 0
 249 0008 40F8043B 		str	r3, [r0], #4
 250              	.LVL26:
 251              		.loc 1 132 0
 252 000c 0126     		movs	r6, #1
 253              		.loc 1 133 0
 254 000e 0094     		str	r4, [sp]
 255              		.loc 1 128 0
 256 0010 1546     		mov	r5, r2
 257              		.loc 1 133 0
 258 0012 0B46     		mov	r3, r1
 259              	.LBB66:
 260              	.LBB67:
 261              	.LBB68:
 262              		.file 2 "lib/ChibiOS_3.0.2/os/rt/include/chevents.h"
 263              		.loc 2 172 0
 264 0014 6060     		str	r0, [r4, #4]
 265              	.LVL27:
 266              	.LBE68:
 267              	.LBE67:
 268              	.LBE66:
 269              		.loc 1 133 0
 270 0016 04F15401 		add	r1, r4, #84
 271              	.LVL28:
 272 001a 04F10C00 		add	r0, r4, #12
 273              		.loc 1 132 0
 274 001e 2672     		strb	r6, [r4, #8]
 275              		.loc 1 133 0
 276 0020 4FF48072 		mov	r2, #256
 277              	.LVL29:
 278 0024 FFF7FEFF 		bl	chIQObjectInit
 279              	.LVL30:
 280              		.loc 1 134 0
 281 0028 0094     		str	r4, [sp]
 282 002a 2B46     		mov	r3, r5
 283 002c 04F5AA71 		add	r1, r4, #340
 284 0030 04F13000 		add	r0, r4, #48
 285 0034 4FF48072 		mov	r2, #256
ARM GAS  C:\Users\IDONNO~1.SON\AppData\Local\Temp\ccHdDn3U.s 			page 6


 286 0038 FFF7FEFF 		bl	chOQObjectInit
 287              	.LVL31:
 288              		.loc 1 135 0
 289 003c 02B0     		add	sp, sp, #8
 290              		.cfi_def_cfa_offset 16
 291              		@ sp needed
 292 003e 70BD     		pop	{r4, r5, r6, pc}
 293              	.LVL32:
 294              	.L13:
 295              		.align	2
 296              	.L12:
 297 0040 00000000 		.word	.LANCHOR0
 298              		.cfi_endproc
 299              	.LFE265:
 300              		.size	sdObjectInit, .-sdObjectInit
 301              		.section	.text.sdStart,"ax",%progbits
 302              		.align	2
 303              		.p2align 4,,15
 304              		.global	sdStart
 305              		.thumb
 306              		.thumb_func
 307              		.type	sdStart, %function
 308              	sdStart:
 309              	.LFB266:
 310              		.loc 1 147 0
 311              		.cfi_startproc
 312              		@ args = 0, pretend = 0, frame = 0
 313              		@ frame_needed = 0, uses_anonymous_args = 0
 314              	.LVL33:
 315 0000 10B5     		push	{r4, lr}
 316              		.cfi_def_cfa_offset 8
 317              		.cfi_offset 4, -8
 318              		.cfi_offset 14, -4
 319              	.LBB69:
 320              	.LBB70:
 321              	.LBB71:
 322              	.LBB72:
 323              	.LBB73:
 324              		.file 3 "lib/ChibiOS_3.0.2/os/ext/CMSIS/include/core_cmFunc.h"
 325              		.loc 3 546 0
 326 0002 2023     		movs	r3, #32
 327              	.LBE73:
 328              	.LBE72:
 329              	.LBE71:
 330              	.LBE70:
 331              	.LBE69:
 332              		.loc 1 147 0
 333 0004 0446     		mov	r4, r0
 334              	.LBB78:
 335              	.LBB77:
 336              	.LBB76:
 337              	.LBB75:
 338              	.LBB74:
 339              		.loc 3 546 0
 340              		.syntax unified
 341              	@ 546 "lib/ChibiOS_3.0.2/os/ext/CMSIS/include/core_cmFunc.h" 1
 342 0006 83F31188 		MSR basepri, r3
ARM GAS  C:\Users\IDONNO~1.SON\AppData\Local\Temp\ccHdDn3U.s 			page 7


 343              	@ 0 "" 2
 344              	.LVL34:
 345              		.thumb
 346              		.syntax unified
 347              	.LBE74:
 348              	.LBE75:
 349              	.LBE76:
 350              	.LBE77:
 351              	.LBE78:
 352              		.loc 1 154 0
 353 000a FFF7FEFF 		bl	sd_lld_start
 354              	.LVL35:
 355              		.loc 1 155 0
 356 000e 0223     		movs	r3, #2
 357 0010 2372     		strb	r3, [r4, #8]
 358              	.LVL36:
 359              	.LBB79:
 360              	.LBB80:
 361              	.LBB81:
 362              	.LBB82:
 363              	.LBB83:
 364              	.LBB84:
 365              		.loc 3 546 0
 366 0012 0023     		movs	r3, #0
 367              		.syntax unified
 368              	@ 546 "lib/ChibiOS_3.0.2/os/ext/CMSIS/include/core_cmFunc.h" 1
 369 0014 83F31188 		MSR basepri, r3
 370              	@ 0 "" 2
 371              	.LVL37:
 372              		.thumb
 373              		.syntax unified
 374 0018 10BD     		pop	{r4, pc}
 375              	.LBE84:
 376              	.LBE83:
 377              	.LBE82:
 378              	.LBE81:
 379              	.LBE80:
 380              	.LBE79:
 381              		.cfi_endproc
 382              	.LFE266:
 383              		.size	sdStart, .-sdStart
 384 001a 00BF     		.section	.text.sdStop,"ax",%progbits
 385              		.align	2
 386              		.p2align 4,,15
 387              		.global	sdStop
 388              		.thumb
 389              		.thumb_func
 390              		.type	sdStop, %function
 391              	sdStop:
 392              	.LFB267:
 393              		.loc 1 168 0
 394              		.cfi_startproc
 395              		@ args = 0, pretend = 0, frame = 0
 396              		@ frame_needed = 0, uses_anonymous_args = 0
 397              	.LVL38:
 398 0000 10B5     		push	{r4, lr}
 399              		.cfi_def_cfa_offset 8
ARM GAS  C:\Users\IDONNO~1.SON\AppData\Local\Temp\ccHdDn3U.s 			page 8


 400              		.cfi_offset 4, -8
 401              		.cfi_offset 14, -4
 402              	.LBB85:
 403              	.LBB86:
 404              	.LBB87:
 405              	.LBB88:
 406              	.LBB89:
 407              		.loc 3 546 0
 408 0002 2023     		movs	r3, #32
 409              	.LBE89:
 410              	.LBE88:
 411              	.LBE87:
 412              	.LBE86:
 413              	.LBE85:
 414              		.loc 1 168 0
 415 0004 0446     		mov	r4, r0
 416              	.LBB94:
 417              	.LBB93:
 418              	.LBB92:
 419              	.LBB91:
 420              	.LBB90:
 421              		.loc 3 546 0
 422              		.syntax unified
 423              	@ 546 "lib/ChibiOS_3.0.2/os/ext/CMSIS/include/core_cmFunc.h" 1
 424 0006 83F31188 		MSR basepri, r3
 425              	@ 0 "" 2
 426              	.LVL39:
 427              		.thumb
 428              		.syntax unified
 429              	.LBE90:
 430              	.LBE91:
 431              	.LBE92:
 432              	.LBE93:
 433              	.LBE94:
 434              		.loc 1 175 0
 435 000a FFF7FEFF 		bl	sd_lld_stop
 436              	.LVL40:
 437              		.loc 1 176 0
 438 000e 0123     		movs	r3, #1
 439 0010 2372     		strb	r3, [r4, #8]
 440              		.loc 1 177 0
 441 0012 04F13000 		add	r0, r4, #48
 442 0016 FFF7FEFF 		bl	chOQResetI
 443              	.LVL41:
 444              		.loc 1 178 0
 445 001a 04F10C00 		add	r0, r4, #12
 446 001e FFF7FEFF 		bl	chIQResetI
 447              	.LVL42:
 448              	.LBB95:
 449              	.LBB96:
 450              		.file 4 "lib/ChibiOS_3.0.2/os/hal/osal/rt/osal.h"
 451              		.loc 4 600 0
 452 0022 FFF7FEFF 		bl	chSchRescheduleS
 453              	.LVL43:
 454              	.LBE96:
 455              	.LBE95:
 456              	.LBB97:
ARM GAS  C:\Users\IDONNO~1.SON\AppData\Local\Temp\ccHdDn3U.s 			page 9


 457              	.LBB98:
 458              	.LBB99:
 459              	.LBB100:
 460              	.LBB101:
 461              	.LBB102:
 462              		.loc 3 546 0
 463 0026 0023     		movs	r3, #0
 464              		.syntax unified
 465              	@ 546 "lib/ChibiOS_3.0.2/os/ext/CMSIS/include/core_cmFunc.h" 1
 466 0028 83F31188 		MSR basepri, r3
 467              	@ 0 "" 2
 468              	.LVL44:
 469              		.thumb
 470              		.syntax unified
 471 002c 10BD     		pop	{r4, pc}
 472              	.LBE102:
 473              	.LBE101:
 474              	.LBE100:
 475              	.LBE99:
 476              	.LBE98:
 477              	.LBE97:
 478              		.cfi_endproc
 479              	.LFE267:
 480              		.size	sdStop, .-sdStop
 481 002e 00BF     		.section	.text.sdIncomingDataI,"ax",%progbits
 482              		.align	2
 483              		.p2align 4,,15
 484              		.global	sdIncomingDataI
 485              		.thumb
 486              		.thumb_func
 487              		.type	sdIncomingDataI, %function
 488              	sdIncomingDataI:
 489              	.LFB268:
 490              		.loc 1 199 0
 491              		.cfi_startproc
 492              		@ args = 0, pretend = 0, frame = 0
 493              		@ frame_needed = 0, uses_anonymous_args = 0
 494              	.LVL45:
 495 0000 38B5     		push	{r3, r4, r5, lr}
 496              		.cfi_def_cfa_offset 16
 497              		.cfi_offset 3, -16
 498              		.cfi_offset 4, -12
 499              		.cfi_offset 5, -8
 500              		.cfi_offset 14, -4
 501              	.LBB103:
 502              	.LBB104:
 503              		.file 5 "lib/ChibiOS_3.0.2/os/rt/include/chqueues.h"
 504              		.loc 5 307 0
 505 0002 4369     		ldr	r3, [r0, #20]
 506              	.LBE104:
 507              	.LBE103:
 508              		.loc 1 199 0
 509 0004 0446     		mov	r4, r0
 510              	.LVL46:
 511 0006 0D46     		mov	r5, r1
 512              		.loc 1 204 0
 513 0008 3BB1     		cbz	r3, .L23
ARM GAS  C:\Users\IDONNO~1.SON\AppData\Local\Temp\ccHdDn3U.s 			page 10


 514              		.loc 1 206 0
 515 000a 2946     		mov	r1, r5
 516              	.LVL47:
 517 000c 04F10C00 		add	r0, r4, #12
 518              	.LVL48:
 519 0010 FFF7FEFF 		bl	chIQPutI
 520              	.LVL49:
 521 0014 0028     		cmp	r0, #0
 522 0016 0BDB     		blt	.L24
 523              	.L18:
 524 0018 38BD     		pop	{r3, r4, r5, pc}
 525              	.LVL50:
 526              	.L23:
 527              	.LBB105:
 528              	.LBB106:
 529              		.loc 4 844 0
 530 001a 0421     		movs	r1, #4
 531              	.LVL51:
 532 001c 0844     		add	r0, r0, r1
 533              	.LVL52:
 534 001e FFF7FEFF 		bl	chEvtBroadcastFlagsI
 535              	.LVL53:
 536              	.LBE106:
 537              	.LBE105:
 538              		.loc 1 206 0
 539 0022 2946     		mov	r1, r5
 540 0024 04F10C00 		add	r0, r4, #12
 541 0028 FFF7FEFF 		bl	chIQPutI
 542              	.LVL54:
 543 002c 0028     		cmp	r0, #0
 544 002e F3DA     		bge	.L18
 545              	.LVL55:
 546              	.L24:
 547              	.LBB107:
 548              	.LBB108:
 549              		.loc 4 844 0
 550 0030 201D     		adds	r0, r4, #4
 551              	.LVL56:
 552 0032 8021     		movs	r1, #128
 553              	.LBE108:
 554              	.LBE107:
 555              		.loc 1 208 0
 556 0034 BDE83840 		pop	{r3, r4, r5, lr}
 557              		.cfi_restore 14
 558              		.cfi_restore 5
 559              		.cfi_restore 4
 560              		.cfi_restore 3
 561              		.cfi_def_cfa_offset 0
 562              	.LVL57:
 563              	.LBB110:
 564              	.LBB109:
 565              		.loc 4 844 0
 566 0038 FFF7FEBF 		b	chEvtBroadcastFlagsI
 567              	.LVL58:
 568              	.LBE109:
 569              	.LBE110:
 570              		.cfi_endproc
ARM GAS  C:\Users\IDONNO~1.SON\AppData\Local\Temp\ccHdDn3U.s 			page 11


 571              	.LFE268:
 572              		.size	sdIncomingDataI, .-sdIncomingDataI
 573              		.section	.text.sdRequestDataI,"ax",%progbits
 574              		.align	2
 575              		.p2align 4,,15
 576              		.global	sdRequestDataI
 577              		.thumb
 578              		.thumb_func
 579              		.type	sdRequestDataI, %function
 580              	sdRequestDataI:
 581              	.LFB269:
 582              		.loc 1 225 0
 583              		.cfi_startproc
 584              		@ args = 0, pretend = 0, frame = 0
 585              		@ frame_needed = 0, uses_anonymous_args = 0
 586              	.LVL59:
 587 0000 38B5     		push	{r3, r4, r5, lr}
 588              		.cfi_def_cfa_offset 16
 589              		.cfi_offset 3, -16
 590              		.cfi_offset 4, -12
 591              		.cfi_offset 5, -8
 592              		.cfi_offset 14, -4
 593              		.loc 1 225 0
 594 0002 0446     		mov	r4, r0
 595              		.loc 1 231 0
 596 0004 3030     		adds	r0, r0, #48
 597              	.LVL60:
 598 0006 FFF7FEFF 		bl	chOQGetI
 599              	.LVL61:
 600              		.loc 1 232 0
 601 000a 051E     		subs	r5, r0, #0
 602 000c 01DB     		blt	.L28
 603              		.loc 1 235 0
 604 000e 2846     		mov	r0, r5
 605 0010 38BD     		pop	{r3, r4, r5, pc}
 606              	.LVL62:
 607              	.L28:
 608              	.LBB111:
 609              	.LBB112:
 610              		.loc 4 844 0
 611 0012 201D     		adds	r0, r4, #4
 612              	.LVL63:
 613 0014 0821     		movs	r1, #8
 614 0016 FFF7FEFF 		bl	chEvtBroadcastFlagsI
 615              	.LVL64:
 616              	.LBE112:
 617              	.LBE111:
 618              		.loc 1 235 0
 619 001a 2846     		mov	r0, r5
 620 001c 38BD     		pop	{r3, r4, r5, pc}
 621              		.cfi_endproc
 622              	.LFE269:
 623              		.size	sdRequestDataI, .-sdRequestDataI
 624 001e 00BF     		.section	.rodata.vmt,"a",%progbits
 625              		.align	2
 626              		.set	.LANCHOR0,. + 0
 627              		.type	vmt, %object
ARM GAS  C:\Users\IDONNO~1.SON\AppData\Local\Temp\ccHdDn3U.s 			page 12


 628              		.size	vmt, 32
 629              	vmt:
 630 0000 00000000 		.word	write
 631 0004 00000000 		.word	read
 632 0008 00000000 		.word	put
 633 000c 00000000 		.word	get
 634 0010 00000000 		.word	putt
 635 0014 00000000 		.word	gett
 636 0018 00000000 		.word	writet
 637 001c 00000000 		.word	readt
 638              		.text
 639              	.Letext0:
 640              		.file 6 "c:\\program files (x86)\\gnu tools arm embedded\\5.4 2016q2\\lib\\gcc\\arm-none-eabi\\5.4
 641              		.file 7 "c:\\program files (x86)\\gnu tools arm embedded\\5.4 2016q2\\arm-none-eabi\\include\\mach
 642              		.file 8 "c:\\program files (x86)\\gnu tools arm embedded\\5.4 2016q2\\arm-none-eabi\\include\\sys\
 643              		.file 9 "lib/ChibiOS_3.0.2/os/rt/ports/ARMCMx/compilers/GCC/chtypes.h"
 644              		.file 10 "lib/ChibiOS_3.0.2/os/rt/include/chsystypes.h"
 645              		.file 11 "lib/ChibiOS_3.0.2/os/rt/include/chschd.h"
 646              		.file 12 "lib/ChibiOS_3.0.2/os/ext/CMSIS/ST/stm32f407xx.h"
 647              		.file 13 "lib/ChibiOS_3.0.2/os/rt/ports/ARMCMx/chcore.h"
 648              		.file 14 "lib/ChibiOS_3.0.2/os/rt/ports/ARMCMx/chcore_v7m.h"
 649              		.file 15 "lib/ChibiOS_3.0.2/os/rt/include/chtm.h"
 650              		.file 16 "lib/ChibiOS_3.0.2/os/rt/include/chsem.h"
 651              		.file 17 "lib/ChibiOS_3.0.2/os/rt/include/chmtx.h"
 652              		.file 18 "lib/ChibiOS_3.0.2/os/hal/include/serial.h"
 653              		.file 19 "lib/ChibiOS_3.0.2/os/hal/ports/STM32/LLD/USARTv1/serial_lld.h"
 654              		.file 20 "lib/ChibiOS_3.0.2/os/rt/include/chsys.h"
 655              		.file 21 "lib/ChibiOS_3.0.2/os/ext/CMSIS/include/core_cm4.h"