ARM GAS  C:\Users\IDONNO~1\AppData\Local\Temp\ccyIofbo.s 			page 1


   1              		.syntax unified
   2              		.cpu cortex-m4
   3              		.eabi_attribute 27, 1
   4              		.eabi_attribute 28, 1
   5              		.fpu fpv4-sp-d16
   6              		.eabi_attribute 20, 1
   7              		.eabi_attribute 21, 1
   8              		.eabi_attribute 23, 3
   9              		.eabi_attribute 24, 1
  10              		.eabi_attribute 25, 1
  11              		.eabi_attribute 26, 1
  12              		.eabi_attribute 30, 2
  13              		.eabi_attribute 34, 1
  14              		.eabi_attribute 18, 4
  15              		.thumb
  16              		.syntax unified
  17              		.file	"servo_dec.c"
  18              		.text
  19              	.Ltext0:
  20              		.cfi_sections	.debug_frame
  21              		.section	.text.icuperiodcb,"ax",%progbits
  22              		.align	2
  23              		.p2align 4,,15
  24              		.thumb
  25              		.thumb_func
  26              		.type	icuperiodcb, %function
  27              	icuperiodcb:
  28              	.LFB257:
  29              		.file 1 "src/core/servo_dec.c"
  30              		.loc 1 99 0
  31              		.cfi_startproc
  32              		@ args = 0, pretend = 0, frame = 0
  33              		@ frame_needed = 0, uses_anonymous_args = 0
  34              		@ link register save eliminated.
  35              	.LVL0:
  36 0000 7047     		bx	lr
  37              		.cfi_endproc
  38              	.LFE257:
  39              		.size	icuperiodcb, .-icuperiodcb
  40 0002 00BF     		.section	.text.icuwidthcb,"ax",%progbits
  41              		.align	2
  42              		.p2align 4,,15
  43              		.thumb
  44              		.thumb_func
  45              		.type	icuwidthcb, %function
  46              	icuwidthcb:
  47              	.LFB256:
  48              		.loc 1 51 0
  49              		.cfi_startproc
  50              		@ args = 0, pretend = 0, frame = 0
  51              		@ frame_needed = 0, uses_anonymous_args = 0
  52              	.LVL1:
  53              		.loc 1 53 0
  54 0000 0369     		ldr	r3, [r0, #16]
  55 0002 DFED3F6A 		vldr.32	s13, .L25
  56 0006 1B68     		ldr	r3, [r3]
  57 0008 3E49     		ldr	r1, .L25+4
ARM GAS  C:\Users\IDONNO~1\AppData\Local\Temp\ccyIofbo.s 			page 2


  58              		.loc 1 55 0
  59 000a 3F4A     		ldr	r2, .L25+8
  60              		.loc 1 56 0
  61 000c 3F48     		ldr	r0, .L25+12
  62              	.LVL2:
  63              		.loc 1 53 0
  64 000e 0133     		adds	r3, r3, #1
  65 0010 07EE903A 		vmov	s15, r3	@ int
  66 0014 F8EE677A 		vcvt.f32.u32	s15, s15
  67              		.loc 1 51 0
  68 0018 70B5     		push	{r4, r5, r6, lr}
  69              		.cfi_def_cfa_offset 16
  70              		.cfi_offset 4, -16
  71              		.cfi_offset 5, -12
  72              		.cfi_offset 6, -8
  73              		.cfi_offset 14, -4
  74              		.loc 1 53 0
  75 001a 87EEA67A 		vdiv.f32	s14, s15, s13
  76              		.loc 1 51 0
  77 001e 2DED028B 		vpush.64	{d8}
  78              		.cfi_def_cfa_offset 24
  79              		.cfi_offset 80, -24
  80              		.cfi_offset 81, -20
  81              		.loc 1 53 0
  82 0022 81ED007A 		vstr.32	s14, [r1]
  83              		.loc 1 55 0
  84 0026 D1ED007A 		vldr.32	s15, [r1]
  85 002a 92ED006A 		vldr.32	s12, [r2]
  86              		.loc 1 56 0
  87 002e 90ED007A 		vldr.32	s14, [r0]
  88 0032 D2ED006A 		vldr.32	s13, [r2]
  89              		.loc 1 55 0
  90 0036 77EEC67A 		vsub.f32	s15, s15, s12
  91              	.LVL3:
  92              		.loc 1 56 0
  93 003a 37EE667A 		vsub.f32	s14, s14, s13
  94              	.LVL4:
  95              		.loc 1 60 0
  96 003e F4EEC77A 		vcmpe.f32	s15, s14
  97 0042 F1EE10FA 		vmrs	APSR_nzcv, FPSCR
  98 0046 2DDD     		ble	.L21
  99              		.loc 1 61 0
 100 0048 DFED316A 		vldr.32	s13, .L25+16
 101 004c 67EE266A 		vmul.f32	s13, s14, s13
 102 0050 F4EEE67A 		vcmpe.f32	s15, s13
 103 0054 F1EE10FA 		vmrs	APSR_nzcv, FPSCR
 104 0058 3BD5     		bpl	.L2
 105              		.loc 1 62 0
 106 005a F0EE477A 		vmov.f32	s15, s14
 107              	.LVL5:
 108              	.L5:
 109              		.loc 1 76 0
 110 005e F5EEC07A 		vcmpe.f32	s15, #0
 111 0062 F1EE10FA 		vmrs	APSR_nzcv, FPSCR
 112 0066 34DB     		blt	.L2
 113 0068 77EEA77A 		vadd.f32	s15, s15, s15
 114              	.LVL6:
ARM GAS  C:\Users\IDONNO~1\AppData\Local\Temp\ccyIofbo.s 			page 3


 115              	.L8:
 116              		.loc 1 77 0
 117 006c 294B     		ldr	r3, .L25+20
 118 006e 1B78     		ldrb	r3, [r3]	@ zero_extendqisi2
 119              	.LBB46:
 120              		.loc 1 78 0
 121 0070 77EEC77A 		vsub.f32	s15, s15, s14
 122              	.LBE46:
 123              		.loc 1 77 0
 124 0074 83BB     		cbnz	r3, .L24
 125              		.loc 1 88 0
 126 0076 C7EE876A 		vdiv.f32	s13, s15, s14
 127 007a 274B     		ldr	r3, .L25+24
 128 007c C3ED006A 		vstr.32	s13, [r3]
 129              	.LVL7:
 130              	.L12:
 131              	.LBB47:
 132              	.LBB48:
 133              	.LBB49:
 134              	.LBB50:
 135              	.LBB51:
 136              	.LBB52:
 137              		.file 2 "lib/ChibiOS_3.0.2/os/ext/CMSIS/include/core_cmFunc.h"
 138              		.loc 2 546 0
 139 0080 2023     		movs	r3, #32
 140              		.syntax unified
 141              	@ 546 "lib/ChibiOS_3.0.2/os/ext/CMSIS/include/core_cmFunc.h" 1
 142 0082 83F31188 		MSR basepri, r3
 143              	@ 0 "" 2
 144              	.LVL8:
 145              		.thumb
 146              		.syntax unified
 147              	.LBE52:
 148              	.LBE51:
 149              	.LBE50:
 150              	.LBE49:
 151              	.LBB53:
 152              	.LBB54:
 153              		.file 3 "lib/ChibiOS_3.0.2/os/rt/include/chvt.h"
 154              		.loc 3 231 0
 155 0086 254A     		ldr	r2, .L25+28
 156              	.LBE54:
 157              	.LBE53:
 158              	.LBB56:
 159              	.LBB57:
 160              	.LBB58:
 161              	.LBB59:
 162              	.LBB60:
 163              		.loc 2 546 0
 164 0088 0023     		movs	r3, #0
 165              	.LBE60:
 166              	.LBE59:
 167              	.LBE58:
 168              	.LBE57:
 169              	.LBE56:
 170              	.LBB65:
 171              	.LBB55:
ARM GAS  C:\Users\IDONNO~1\AppData\Local\Temp\ccyIofbo.s 			page 4


 172              		.loc 3 231 0
 173 008a 916A     		ldr	r1, [r2, #40]
 174              	.LVL9:
 175              	.LBE55:
 176              	.LBE65:
 177              	.LBB66:
 178              	.LBB64:
 179              	.LBB63:
 180              	.LBB62:
 181              	.LBB61:
 182              		.loc 2 546 0
 183              		.syntax unified
 184              	@ 546 "lib/ChibiOS_3.0.2/os/ext/CMSIS/include/core_cmFunc.h" 1
 185 008c 83F31188 		MSR basepri, r3
 186              	@ 0 "" 2
 187              	.LVL10:
 188              		.thumb
 189              		.syntax unified
 190              	.LBE61:
 191              	.LBE62:
 192              	.LBE63:
 193              	.LBE64:
 194              	.LBE66:
 195              	.LBE48:
 196              	.LBE47:
 197              		.loc 1 93 0
 198 0090 234B     		ldr	r3, .L25+32
 199              		.loc 1 91 0
 200 0092 244A     		ldr	r2, .L25+36
 201              		.loc 1 93 0
 202 0094 1B68     		ldr	r3, [r3]
 203              		.loc 1 91 0
 204 0096 1160     		str	r1, [r2]
 205              		.loc 1 93 0
 206 0098 DBB1     		cbz	r3, .L2
 207              		.loc 1 97 0
 208 009a BDEC028B 		vldm	sp!, {d8}
 209              		.cfi_remember_state
 210              		.cfi_restore 80
 211              		.cfi_restore 81
 212              		.cfi_def_cfa_offset 16
 213 009e BDE87040 		pop	{r4, r5, r6, lr}
 214              		.cfi_restore 14
 215              		.cfi_restore 6
 216              		.cfi_restore 5
 217              		.cfi_restore 4
 218              		.cfi_def_cfa_offset 0
 219              		.loc 1 94 0
 220 00a2 1847     		bx	r3	@ indirect register sibling call
 221              	.LVL11:
 222              	.L21:
 223              		.cfi_restore_state
 224              		.loc 1 67 0
 225 00a4 F5EEC07A 		vcmpe.f32	s15, #0
 226 00a8 F1EE10FA 		vmrs	APSR_nzcv, FPSCR
 227 00ac D7D5     		bpl	.L5
 228              		.loc 1 68 0
ARM GAS  C:\Users\IDONNO~1\AppData\Local\Temp\ccyIofbo.s 			page 5


 229 00ae D2ED005A 		vldr.32	s11, [r2]
 230 00b2 9FED1D6A 		vldr.32	s12, .L25+40
 231 00b6 D2ED006A 		vldr.32	s13, [r2]
 232 00ba 77EEA57A 		vadd.f32	s15, s15, s11
 233              	.LVL12:
 234 00be 66EE866A 		vmul.f32	s13, s13, s12
 235 00c2 F4EEE67A 		vcmpe.f32	s15, s13
 236 00c6 F1EE10FA 		vmrs	APSR_nzcv, FPSCR
 237 00ca 02DD     		ble	.L2
 238 00cc DFED177A 		vldr.32	s15, .L25+44
 239 00d0 CCE7     		b	.L8
 240              	.LVL13:
 241              	.L2:
 242              		.loc 1 97 0
 243 00d2 BDEC028B 		vldm	sp!, {d8}
 244              		.cfi_remember_state
 245              		.cfi_restore 80
 246              		.cfi_restore 81
 247              		.cfi_def_cfa_offset 16
 248 00d6 70BD     		pop	{r4, r5, r6, pc}
 249              	.LVL14:
 250              	.L24:
 251              		.cfi_restore_state
 252              	.LBB67:
 253              		.loc 1 78 0
 254 00d8 87EE878A 		vdiv.f32	s16, s15, s14
 255              	.LVL15:
 256              		.loc 1 81 0
 257 00dc 144C     		ldr	r4, .L25+48
 258 00de 154D     		ldr	r5, .L25+52
 259 00e0 D4ED000A 		vldr.32	s1, [r4]
 260 00e4 95ED001A 		vldr.32	s2, [r5]
 261 00e8 B0EE480A 		vmov.f32	s0, s16
 262 00ec FFF7FEFF 		bl	utils_middle_of_3
 263              	.LVL16:
 264              		.loc 1 86 0
 265 00f0 094B     		ldr	r3, .L25+24
 266              		.loc 1 83 0
 267 00f2 2268     		ldr	r2, [r4]	@ float
 268 00f4 2A60     		str	r2, [r5]	@ float
 269              		.loc 1 84 0
 270 00f6 84ED008A 		vstr.32	s16, [r4]
 271              		.loc 1 86 0
 272 00fa 83ED000A 		vstr.32	s0, [r3]
 273              	.LBE67:
 274 00fe BFE7     		b	.L12
 275              	.L26:
 276              		.align	2
 277              	.L25:
 278 0100 00007A44 		.word	1148846080
 279 0104 00000000 		.word	.LANCHOR0
 280 0108 00000000 		.word	.LANCHOR1
 281 010c 00000000 		.word	.LANCHOR2
 282 0110 9A99993F 		.word	1067030938
 283 0114 00000000 		.word	.LANCHOR3
 284 0118 00000000 		.word	.LANCHOR6
 285 011c 00000000 		.word	ch
ARM GAS  C:\Users\IDONNO~1\AppData\Local\Temp\ccyIofbo.s 			page 6


 286 0120 00000000 		.word	.LANCHOR8
 287 0124 00000000 		.word	.LANCHOR7
 288 0128 CDCC4C3F 		.word	1061997773
 289 012c 00000000 		.word	0
 290 0130 00000000 		.word	.LANCHOR5
 291 0134 00000000 		.word	.LANCHOR4
 292              		.cfi_endproc
 293              	.LFE256:
 294              		.size	icuwidthcb, .-icuwidthcb
 295              		.section	.text.servodec_init,"ax",%progbits
 296              		.align	2
 297              		.p2align 4,,15
 298              		.global	servodec_init
 299              		.thumb
 300              		.thumb_func
 301              		.type	servodec_init, %function
 302              	servodec_init:
 303              	.LFB258:
 304              		.loc 1 120 0
 305              		.cfi_startproc
 306              		@ args = 0, pretend = 0, frame = 0
 307              		@ frame_needed = 0, uses_anonymous_args = 0
 308              	.LVL17:
 309 0000 38B5     		push	{r3, r4, r5, lr}
 310              		.cfi_def_cfa_offset 16
 311              		.cfi_offset 3, -16
 312              		.cfi_offset 4, -12
 313              		.cfi_offset 5, -8
 314              		.cfi_offset 14, -4
 315              		.loc 1 121 0
 316 0002 0D4C     		ldr	r4, .L29
 317 0004 0D49     		ldr	r1, .L29+4
 318              		.loc 1 120 0
 319 0006 0546     		mov	r5, r0
 320              		.loc 1 121 0
 321 0008 2046     		mov	r0, r4
 322              	.LVL18:
 323 000a FFF7FEFF 		bl	icuStart
 324              	.LVL19:
 325              		.loc 1 122 0
 326 000e 4FF48172 		mov	r2, #258
 327 0012 8021     		movs	r1, #128
 328 0014 0A48     		ldr	r0, .L29+8
 329 0016 FFF7FEFF 		bl	_pal_lld_setgroupmode
 330              	.LVL20:
 331              		.loc 1 123 0
 332 001a 2046     		mov	r0, r4
 333 001c FFF7FEFF 		bl	icuStartCapture
 334              	.LVL21:
 335              		.loc 1 124 0
 336 0020 2046     		mov	r0, r4
 337 0022 FFF7FEFF 		bl	icuEnableNotifications
 338              	.LVL22:
 339              		.loc 1 132 0
 340 0026 0748     		ldr	r0, .L29+12
 341              	.LBB68:
 342              		.loc 1 127 0
ARM GAS  C:\Users\IDONNO~1\AppData\Local\Temp\ccyIofbo.s 			page 7


 343 0028 0749     		ldr	r1, .L29+16
 344              		.loc 1 128 0
 345 002a 084A     		ldr	r2, .L29+20
 346              	.LBE68:
 347              		.loc 1 132 0
 348 002c 0560     		str	r5, [r0]
 349              	.LBB69:
 350              		.loc 1 127 0
 351 002e 0023     		movs	r3, #0
 352 0030 0B60     		str	r3, [r1]	@ float
 353              		.loc 1 128 0
 354 0032 1360     		str	r3, [r2]	@ float
 355              	.LVL23:
 356 0034 38BD     		pop	{r3, r4, r5, pc}
 357              	.LVL24:
 358              	.L30:
 359 0036 00BF     		.align	2
 360              	.L29:
 361 0038 00000000 		.word	ICUD4
 362 003c 00000000 		.word	.LANCHOR9
 363 0040 00040240 		.word	1073873920
 364 0044 00000000 		.word	.LANCHOR8
 365 0048 00000000 		.word	.LANCHOR6
 366 004c 00000000 		.word	.LANCHOR0
 367              	.LBE69:
 368              		.cfi_endproc
 369              	.LFE258:
 370              		.size	servodec_init, .-servodec_init
 371              		.section	.text.servodec_set_pulse_options,"ax",%progbits
 372              		.align	2
 373              		.p2align 4,,15
 374              		.global	servodec_set_pulse_options
 375              		.thumb
 376              		.thumb_func
 377              		.type	servodec_set_pulse_options, %function
 378              	servodec_set_pulse_options:
 379              	.LFB259:
 380              		.loc 1 144 0
 381              		.cfi_startproc
 382              		@ args = 0, pretend = 0, frame = 0
 383              		@ frame_needed = 0, uses_anonymous_args = 0
 384              		@ link register save eliminated.
 385              	.LVL25:
 386              		.loc 1 145 0
 387 0000 0449     		ldr	r1, .L32
 388              		.loc 1 146 0
 389 0002 054A     		ldr	r2, .L32+4
 390              		.loc 1 147 0
 391 0004 054B     		ldr	r3, .L32+8
 392              		.loc 1 145 0
 393 0006 81ED000A 		vstr.32	s0, [r1]
 394              		.loc 1 146 0
 395 000a C2ED000A 		vstr.32	s1, [r2]
 396              		.loc 1 147 0
 397 000e 1870     		strb	r0, [r3]
 398 0010 7047     		bx	lr
 399              	.L33:
ARM GAS  C:\Users\IDONNO~1\AppData\Local\Temp\ccyIofbo.s 			page 8


 400 0012 00BF     		.align	2
 401              	.L32:
 402 0014 00000000 		.word	.LANCHOR1
 403 0018 00000000 		.word	.LANCHOR2
 404 001c 00000000 		.word	.LANCHOR3
 405              		.cfi_endproc
 406              	.LFE259:
 407              		.size	servodec_set_pulse_options, .-servodec_set_pulse_options
 408              		.section	.text.servodec_get_servo,"ax",%progbits
 409              		.align	2
 410              		.p2align 4,,15
 411              		.global	servodec_get_servo
 412              		.thumb
 413              		.thumb_func
 414              		.type	servodec_get_servo, %function
 415              	servodec_get_servo:
 416              	.LFB260:
 417              		.loc 1 159 0
 418              		.cfi_startproc
 419              		@ args = 0, pretend = 0, frame = 0
 420              		@ frame_needed = 0, uses_anonymous_args = 0
 421              		@ link register save eliminated.
 422              	.LVL26:
 423              		.loc 1 160 0
 424 0000 0028     		cmp	r0, #0
 425              		.loc 1 161 0
 426 0002 DDBF     		ittte	le
 427 0004 034B     		ldrle	r3, .L37
 428 0006 03EB8000 		addle	r0, r3, r0, lsl #2
 429              	.LVL27:
 430 000a 90ED000A 		vldrle.32	s0, [r0]
 431              		.loc 1 163 0
 432 000e 9FED020A 		vldrgt.32	s0, .L37+4
 433              		.loc 1 165 0
 434 0012 7047     		bx	lr
 435              	.L38:
 436              		.align	2
 437              	.L37:
 438 0014 00000000 		.word	.LANCHOR6
 439 0018 00000000 		.word	0
 440              		.cfi_endproc
 441              	.LFE260:
 442              		.size	servodec_get_servo, .-servodec_get_servo
 443              		.section	.text.servodec_get_time_since_update,"ax",%progbits
 444              		.align	2
 445              		.p2align 4,,15
 446              		.global	servodec_get_time_since_update
 447              		.thumb
 448              		.thumb_func
 449              		.type	servodec_get_time_since_update, %function
 450              	servodec_get_time_since_update:
 451              	.LFB261:
 452              		.loc 1 174 0
 453              		.cfi_startproc
 454              		@ args = 0, pretend = 0, frame = 0
 455              		@ frame_needed = 0, uses_anonymous_args = 0
 456              		@ link register save eliminated.
ARM GAS  C:\Users\IDONNO~1\AppData\Local\Temp\ccyIofbo.s 			page 9


 457              		.loc 1 175 0
 458 0000 044A     		ldr	r2, .L40
 459              	.LBB70:
 460              	.LBB71:
 461              	.LBB72:
 462              	.LBB73:
 463              		.loc 3 231 0
 464 0002 054B     		ldr	r3, .L40+4
 465              	.LBE73:
 466              	.LBE72:
 467              	.LBE71:
 468              	.LBE70:
 469              		.loc 1 175 0
 470 0004 1068     		ldr	r0, [r2]
 471              	.LVL28:
 472              	.LBB77:
 473              	.LBB76:
 474              	.LBB75:
 475              	.LBB74:
 476              		.loc 3 231 0
 477 0006 9B6A     		ldr	r3, [r3, #40]
 478              	.LVL29:
 479              	.LBE74:
 480              	.LBE75:
 481              	.LBE76:
 482              	.LBE77:
 483              		.loc 1 175 0
 484 0008 044A     		ldr	r2, .L40+8
 485 000a 181A     		subs	r0, r3, r0
 486 000c A2FB0030 		umull	r3, r0, r2, r0
 487              		.loc 1 176 0
 488 0010 C008     		lsrs	r0, r0, #3
 489 0012 7047     		bx	lr
 490              	.L41:
 491              		.align	2
 492              	.L40:
 493 0014 00000000 		.word	.LANCHOR7
 494 0018 00000000 		.word	ch
 495 001c CDCCCCCC 		.word	-858993459
 496              		.cfi_endproc
 497              	.LFE261:
 498              		.size	servodec_get_time_since_update, .-servodec_get_time_since_update
 499              		.section	.text.servodec_get_last_pulse_len,"ax",%progbits
 500              		.align	2
 501              		.p2align 4,,15
 502              		.global	servodec_get_last_pulse_len
 503              		.thumb
 504              		.thumb_func
 505              		.type	servodec_get_last_pulse_len, %function
 506              	servodec_get_last_pulse_len:
 507              	.LFB262:
 508              		.loc 1 187 0
 509              		.cfi_startproc
 510              		@ args = 0, pretend = 0, frame = 0
 511              		@ frame_needed = 0, uses_anonymous_args = 0
 512              		@ link register save eliminated.
 513              	.LVL30:
ARM GAS  C:\Users\IDONNO~1\AppData\Local\Temp\ccyIofbo.s 			page 10


 514              		.loc 1 188 0
 515 0000 0028     		cmp	r0, #0
 516              		.loc 1 189 0
 517 0002 DDBF     		ittte	le
 518 0004 034B     		ldrle	r3, .L45
 519 0006 03EB8000 		addle	r0, r3, r0, lsl #2
 520              	.LVL31:
 521 000a 90ED000A 		vldrle.32	s0, [r0]
 522              		.loc 1 191 0
 523 000e 9FED020A 		vldrgt.32	s0, .L45+4
 524              		.loc 1 193 0
 525 0012 7047     		bx	lr
 526              	.L46:
 527              		.align	2
 528              	.L45:
 529 0014 00000000 		.word	.LANCHOR0
 530 0018 00000000 		.word	0
 531              		.cfi_endproc
 532              	.LFE262:
 533              		.size	servodec_get_last_pulse_len, .-servodec_get_last_pulse_len
 534              		.section	.bss.servo_pos,"aw",%nobits
 535              		.align	2
 536              		.set	.LANCHOR6,. + 0
 537              		.type	servo_pos, %object
 538              		.size	servo_pos, 4
 539              	servo_pos:
 540 0000 00000000 		.space	4
 541              		.section	.data.pulse_end,"aw",%progbits
 542              		.align	2
 543              		.set	.LANCHOR2,. + 0
 544              		.type	pulse_end, %object
 545              		.size	pulse_end, 4
 546              	pulse_end:
 547 0000 00000040 		.word	1073741824
 548              		.section	.bss.last_update_time,"aw",%nobits
 549              		.align	2
 550              		.set	.LANCHOR7,. + 0
 551              		.type	last_update_time, %object
 552              		.size	last_update_time, 4
 553              	last_update_time:
 554 0000 00000000 		.space	4
 555              		.section	.data.c2.8646,"aw",%progbits
 556              		.align	2
 557              		.set	.LANCHOR4,. + 0
 558              		.type	c2.8646, %object
 559              		.size	c2.8646, 4
 560              	c2.8646:
 561 0000 0000003F 		.word	1056964608
 562              		.section	.bss.last_len_received,"aw",%nobits
 563              		.align	2
 564              		.set	.LANCHOR0,. + 0
 565              		.type	last_len_received, %object
 566              		.size	last_len_received, 4
 567              	last_len_received:
 568 0000 00000000 		.space	4
 569              		.section	.bss.use_median_filter,"aw",%nobits
 570              		.set	.LANCHOR3,. + 0
ARM GAS  C:\Users\IDONNO~1\AppData\Local\Temp\ccyIofbo.s 			page 11


 571              		.type	use_median_filter, %object
 572              		.size	use_median_filter, 1
 573              	use_median_filter:
 574 0000 00       		.space	1
 575              		.section	.data.c1.8645,"aw",%progbits
 576              		.align	2
 577              		.set	.LANCHOR5,. + 0
 578              		.type	c1.8645, %object
 579              		.size	c1.8645, 4
 580              	c1.8645:
 581 0000 0000003F 		.word	1056964608
 582              		.section	.data.pulse_start,"aw",%progbits
 583              		.align	2
 584              		.set	.LANCHOR1,. + 0
 585              		.type	pulse_start, %object
 586              		.size	pulse_start, 4
 587              	pulse_start:
 588 0000 0000803F 		.word	1065353216
 589              		.section	.bss.done_func,"aw",%nobits
 590              		.align	2
 591              		.set	.LANCHOR8,. + 0
 592              		.type	done_func, %object
 593              		.size	done_func, 4
 594              	done_func:
 595 0000 00000000 		.space	4
 596              		.section	.data.icucfg,"aw",%progbits
 597              		.align	2
 598              		.set	.LANCHOR9,. + 0
 599              		.type	icucfg, %object
 600              		.size	icucfg, 28
 601              	icucfg:
 602 0000 00       		.byte	0
 603 0001 000000   		.space	3
 604 0004 40420F00 		.word	1000000
 605 0008 00000000 		.word	icuwidthcb
 606 000c 00000000 		.word	icuperiodcb
 607 0010 00000000 		.word	0
 608 0014 01       		.byte	1
 609 0015 000000   		.space	3
 610 0018 00000000 		.word	0
 611              		.text
 612              	.Letext0:
 613              		.file 4 "c:\\program files (x86)\\gnu tools arm embedded\\5.4 2016q3\\lib\\gcc\\arm-none-eabi\\5.4
 614              		.file 5 "c:\\program files (x86)\\gnu tools arm embedded\\5.4 2016q3\\arm-none-eabi\\include\\mach
 615              		.file 6 "c:\\program files (x86)\\gnu tools arm embedded\\5.4 2016q3\\arm-none-eabi\\include\\sys\
 616              		.file 7 "lib/ChibiOS_3.0.2/os/rt/ports/ARMCMx/compilers/GCC/chtypes.h"
 617              		.file 8 "lib/ChibiOS_3.0.2/os/rt/include/chsystypes.h"
 618              		.file 9 "lib/ChibiOS_3.0.2/os/rt/include/chschd.h"
 619              		.file 10 "lib/ChibiOS_3.0.2/os/rt/ports/ARMCMx/chcore.h"
 620              		.file 11 "lib/ChibiOS_3.0.2/os/rt/ports/ARMCMx/chcore_v7m.h"
 621              		.file 12 "lib/ChibiOS_3.0.2/os/rt/include/chtm.h"
 622              		.file 13 "lib/ChibiOS_3.0.2/os/rt/include/chsem.h"
 623              		.file 14 "lib/ChibiOS_3.0.2/os/rt/include/chmtx.h"
 624              		.file 15 "lib/ChibiOS_3.0.2/os/hal/ports/STM32/LLD/GPIOv2/pal_lld.h"
 625              		.file 16 "lib/ChibiOS_3.0.2/os/hal/ports/STM32/LLD/TIMv1/stm32_tim.h"
 626              		.file 17 "lib/ChibiOS_3.0.2/os/hal/include/icu.h"
 627              		.file 18 "lib/ChibiOS_3.0.2/os/hal/ports/STM32/LLD/TIMv1/icu_lld.h"
ARM GAS  C:\Users\IDONNO~1\AppData\Local\Temp\ccyIofbo.s 			page 12


 628              		.file 19 "lib/ChibiOS_3.0.2/os/rt/include/chsys.h"
 629              		.file 20 "lib/ChibiOS_3.0.2/os/ext/CMSIS/include/core_cm4.h"
 630              		.file 21 "src/core/utils.h"