ARM GAS  C:\Users\ADMINI~1\AppData\Local\Temp\ccwJb011.s 			page 1


   1              		.syntax unified
   2              		.cpu cortex-m4
   3              		.eabi_attribute 27, 1
   4              		.eabi_attribute 28, 1
   5              		.fpu fpv4-sp-d16
   6              		.eabi_attribute 20, 1
   7              		.eabi_attribute 21, 1
   8              		.eabi_attribute 23, 3
   9              		.eabi_attribute 24, 1
  10              		.eabi_attribute 25, 1
  11              		.eabi_attribute 26, 1
  12              		.eabi_attribute 30, 2
  13              		.eabi_attribute 34, 1
  14              		.eabi_attribute 18, 4
  15              		.thumb
  16              		.syntax unified
  17              		.file	"spi_dac.c"
  18              		.text
  19              	.Ltext0:
  20              		.cfi_sections	.debug_frame
  21              		.section	.text.gpt_cb,"ax",%progbits
  22              		.align	2
  23              		.p2align 4,,15
  24              		.thumb
  25              		.thumb_func
  26              		.type	gpt_cb, %function
  27              	gpt_cb:
  28              	.LFB256:
  29              		.file 1 "src/bldc/spi_dac.c"
  30              		.loc 1 23 0
  31              		.cfi_startproc
  32              		@ args = 0, pretend = 0, frame = 0
  33              		@ frame_needed = 0, uses_anonymous_args = 0
  34              		@ link register save eliminated.
  35              	.LVL0:
  36 0000 7047     		bx	lr
  37              		.cfi_endproc
  38              	.LFE256:
  39              		.size	gpt_cb, .-gpt_cb
  40 0002 00BF     		.section	.text._spi_dac_write,"ax",%progbits
  41              		.align	2
  42              		.p2align 4,,15
  43              		.thumb
  44              		.thumb_func
  45              		.type	_spi_dac_write, %function
  46              	_spi_dac_write:
  47              	.LFB263:
  48              		.loc 1 153 0
  49              		.cfi_startproc
  50              		@ args = 0, pretend = 0, frame = 8
  51              		@ frame_needed = 0, uses_anonymous_args = 0
  52              		@ link register save eliminated.
  53              	.LVL1:
  54              		.loc 1 153 0
  55 0000 10B4     		push	{r4}
  56              		.cfi_def_cfa_offset 4
  57              		.cfi_offset 4, -4
ARM GAS  C:\Users\ADMINI~1\AppData\Local\Temp\ccwJb011.s 			page 2


  58              		.loc 1 163 0
  59 0002 204A     		ldr	r2, .L36
  60              		.loc 1 153 0
  61 0004 83B0     		sub	sp, sp, #12
  62              		.cfi_def_cfa_offset 16
  63              	.L3:
  64              		.loc 1 163 0 discriminator 1
  65 0006 9368     		ldr	r3, [r2, #8]
  66 0008 9907     		lsls	r1, r3, #30
  67 000a FCD5     		bpl	.L3
  68              	.LBB50:
  69              	.LBB51:
  70              	.LBB52:
  71              	.LBB53:
  72              		.loc 1 51 0
  73 000c 1E4B     		ldr	r3, .L36+4
  74              	.LBE53:
  75              	.LBE52:
  76              	.LBE51:
  77              	.LBE50:
  78              		.loc 1 167 0
  79 000e 1F4A     		ldr	r2, .L36+8
  80              	.LBB62:
  81              	.LBB60:
  82              	.LBB56:
  83              	.LBB54:
  84              		.loc 1 51 0
  85 0010 DB68     		ldr	r3, [r3, #12]
  86              	.LBE54:
  87              	.LBE56:
  88              	.LBE60:
  89              	.LBE62:
  90              		.loc 1 167 0
  91 0012 4FF40041 		mov	r1, #32768
  92 0016 5183     		strh	r1, [r2, #26]	@ movhi
  93              	.LVL2:
  94              	.LBB63:
  95              	.LBB61:
  96              	.LBB57:
  97              	.LBB55:
  98              		.loc 1 51 0
  99 0018 596A     		ldr	r1, [r3, #36]
 100              	.L30:
 101              	.LBE55:
 102              	.LBE57:
 103              	.LBB58:
 104              	.LBB59:
 105 001a 5A6A     		ldr	r2, [r3, #36]
 106              	.LVL3:
 107              	.LBE59:
 108              	.LBE58:
 109              		.loc 1 58 0
 110 001c 9142     		cmp	r1, r2
 111 001e FCD0     		beq	.L30
 112              	.LVL4:
 113              	.LBE61:
 114              	.LBE63:
ARM GAS  C:\Users\ADMINI~1\AppData\Local\Temp\ccwJb011.s 			page 3


 115              		.loc 1 169 0
 116 0020 1A4A     		ldr	r2, .L36+8
 117 0022 4FF40041 		mov	r1, #32768
 118 0026 1183     		strh	r1, [r2, #24]	@ movhi
 119              	.LVL5:
 120              	.LBB64:
 121              	.LBB65:
 122              	.LBB66:
 123              	.LBB67:
 124              		.loc 1 51 0
 125 0028 596A     		ldr	r1, [r3, #36]
 126              	.L31:
 127              	.LBE67:
 128              	.LBE66:
 129              	.LBB68:
 130              	.LBB69:
 131 002a 5A6A     		ldr	r2, [r3, #36]
 132              	.LVL6:
 133              	.LBE69:
 134              	.LBE68:
 135              		.loc 1 58 0
 136 002c 9142     		cmp	r1, r2
 137 002e FCD0     		beq	.L31
 138              	.LVL7:
 139              	.LBE65:
 140              	.LBE64:
 141              		.loc 1 171 0
 142 0030 1649     		ldr	r1, .L36+8
 143              		.loc 1 174 0
 144 0032 144A     		ldr	r2, .L36
 145              		.loc 1 171 0
 146 0034 4FF40044 		mov	r4, #32768
 147 0038 4C83     		strh	r4, [r1, #26]	@ movhi
 148              		.loc 1 174 0
 149 003a D168     		ldr	r1, [r2, #12]
 150              		.loc 1 179 0
 151 003c 40F48040 		orr	r0, r0, #16384
 152              	.LVL8:
 153              		.loc 1 174 0
 154 0040 09B2     		sxth	r1, r1
 155 0042 ADF80610 		strh	r1, [sp, #6]	@ movhi
 156              		.loc 1 183 0
 157 0046 1146     		mov	r1, r2
 158              		.loc 1 179 0
 159 0048 D060     		str	r0, [r2, #12]
 160              	.L8:
 161              		.loc 1 183 0 discriminator 1
 162 004a 8A68     		ldr	r2, [r1, #8]
 163 004c D207     		lsls	r2, r2, #31
 164 004e FCD5     		bpl	.L8
 165              	.LVL9:
 166              	.LBB70:
 167              	.LBB71:
 168              	.LBB72:
 169              	.LBB73:
 170              		.loc 1 51 0
 171 0050 596A     		ldr	r1, [r3, #36]
ARM GAS  C:\Users\ADMINI~1\AppData\Local\Temp\ccwJb011.s 			page 4


 172              	.L32:
 173              	.LBE73:
 174              	.LBE72:
 175              	.LBB74:
 176              	.LBB75:
 177 0052 5A6A     		ldr	r2, [r3, #36]
 178              	.LVL10:
 179              	.LBE75:
 180              	.LBE74:
 181              		.loc 1 58 0
 182 0054 9142     		cmp	r1, r2
 183 0056 FCD0     		beq	.L32
 184              	.LVL11:
 185              	.LBE71:
 186              	.LBE70:
 187              		.loc 1 187 0
 188 0058 0C4A     		ldr	r2, .L36+8
 189 005a 4FF40041 		mov	r1, #32768
 190 005e 1183     		strh	r1, [r2, #24]	@ movhi
 191              	.LVL12:
 192              	.LBB76:
 193              	.LBB77:
 194              	.LBB78:
 195              	.LBB79:
 196              		.loc 1 51 0
 197 0060 596A     		ldr	r1, [r3, #36]
 198              	.L33:
 199              	.LBE79:
 200              	.LBE78:
 201              	.LBB80:
 202              	.LBB81:
 203 0062 5A6A     		ldr	r2, [r3, #36]
 204              	.LVL13:
 205              	.LBE81:
 206              	.LBE80:
 207              		.loc 1 58 0
 208 0064 9142     		cmp	r1, r2
 209 0066 FCD0     		beq	.L33
 210              	.LVL14:
 211              	.LBE77:
 212              	.LBE76:
 213              		.loc 1 192 0
 214 0068 094A     		ldr	r2, .L36+12
 215 006a 1021     		movs	r1, #16
 216 006c 5183     		strh	r1, [r2, #26]	@ movhi
 217              	.LVL15:
 218              	.LBB82:
 219              	.LBB83:
 220              	.LBB84:
 221              	.LBB85:
 222              		.loc 1 51 0
 223 006e 596A     		ldr	r1, [r3, #36]
 224              	.L34:
 225              	.LBE85:
 226              	.LBE84:
 227              	.LBB86:
 228              	.LBB87:
ARM GAS  C:\Users\ADMINI~1\AppData\Local\Temp\ccwJb011.s 			page 5


 229 0070 5A6A     		ldr	r2, [r3, #36]
 230              	.LVL16:
 231              	.LBE87:
 232              	.LBE86:
 233              		.loc 1 58 0
 234 0072 9142     		cmp	r1, r2
 235 0074 FCD0     		beq	.L34
 236              	.LVL17:
 237              	.LBE83:
 238              	.LBE82:
 239              		.loc 1 195 0
 240 0076 064B     		ldr	r3, .L36+12
 241 0078 1022     		movs	r2, #16
 242 007a 1A83     		strh	r2, [r3, #24]	@ movhi
 243              		.loc 1 198 0
 244 007c 03B0     		add	sp, sp, #12
 245              		.cfi_def_cfa_offset 4
 246              		@ sp needed
 247 007e 5DF8044B 		ldr	r4, [sp], #4
 248              		.cfi_restore 4
 249              		.cfi_def_cfa_offset 0
 250 0082 7047     		bx	lr
 251              	.L37:
 252              		.align	2
 253              	.L36:
 254 0084 00300140 		.word	1073819648
 255 0088 00000000 		.word	GPTD5
 256 008c 00000240 		.word	1073872896
 257 0090 00040240 		.word	1073873920
 258              		.cfi_endproc
 259              	.LFE263:
 260              		.size	_spi_dac_write, .-_spi_dac_write
 261              		.section	.text.initGPT,"ax",%progbits
 262              		.align	2
 263              		.p2align 4,,15
 264              		.global	initGPT
 265              		.thumb
 266              		.thumb_func
 267              		.type	initGPT, %function
 268              	initGPT:
 269              	.LFB257:
 270              		.loc 1 41 0
 271              		.cfi_startproc
 272              		@ args = 0, pretend = 0, frame = 0
 273              		@ frame_needed = 0, uses_anonymous_args = 0
 274 0000 10B5     		push	{r4, lr}
 275              		.cfi_def_cfa_offset 8
 276              		.cfi_offset 4, -8
 277              		.cfi_offset 14, -4
 278              		.loc 1 43 0
 279 0002 064C     		ldr	r4, .L40
 280 0004 0649     		ldr	r1, .L40+4
 281 0006 2046     		mov	r0, r4
 282 0008 FFF7FEFF 		bl	gptStart
 283              	.LVL18:
 284              		.loc 1 44 0
 285 000c 2046     		mov	r0, r4
ARM GAS  C:\Users\ADMINI~1\AppData\Local\Temp\ccwJb011.s 			page 6


 286 000e 4FF0FF31 		mov	r1, #-1
 287              		.loc 1 45 0
 288 0012 BDE81040 		pop	{r4, lr}
 289              		.cfi_restore 14
 290              		.cfi_restore 4
 291              		.cfi_def_cfa_offset 0
 292              		.loc 1 44 0
 293 0016 FFF7FEBF 		b	gptStartContinuous
 294              	.LVL19:
 295              	.L41:
 296 001a 00BF     		.align	2
 297              	.L40:
 298 001c 00000000 		.word	GPTD5
 299 0020 00000000 		.word	.LANCHOR0
 300              		.cfi_endproc
 301              	.LFE257:
 302              		.size	initGPT, .-initGPT
 303              		.section	.text.get_GPT_value,"ax",%progbits
 304              		.align	2
 305              		.p2align 4,,15
 306              		.global	get_GPT_value
 307              		.thumb
 308              		.thumb_func
 309              		.type	get_GPT_value, %function
 310              	get_GPT_value:
 311              	.LFB258:
 312              		.loc 1 49 0
 313              		.cfi_startproc
 314              		@ args = 0, pretend = 0, frame = 0
 315              		@ frame_needed = 0, uses_anonymous_args = 0
 316              		@ link register save eliminated.
 317              		.loc 1 51 0
 318 0000 014B     		ldr	r3, .L43
 319 0002 DB68     		ldr	r3, [r3, #12]
 320 0004 586A     		ldr	r0, [r3, #36]
 321              		.loc 1 52 0
 322 0006 7047     		bx	lr
 323              	.L44:
 324              		.align	2
 325              	.L43:
 326 0008 00000000 		.word	GPTD5
 327              		.cfi_endproc
 328              	.LFE258:
 329              		.size	get_GPT_value, .-get_GPT_value
 330              		.section	.text._udelay,"ax",%progbits
 331              		.align	2
 332              		.p2align 4,,15
 333              		.global	_udelay
 334              		.thumb
 335              		.thumb_func
 336              		.type	_udelay, %function
 337              	_udelay:
 338              	.LFB259:
 339              		.loc 1 55 0
 340              		.cfi_startproc
 341              		@ args = 0, pretend = 0, frame = 0
 342              		@ frame_needed = 0, uses_anonymous_args = 0
ARM GAS  C:\Users\ADMINI~1\AppData\Local\Temp\ccwJb011.s 			page 7


 343              		@ link register save eliminated.
 344              	.LVL20:
 345              	.LBB88:
 346              	.LBB89:
 347              		.loc 1 51 0
 348 0000 054B     		ldr	r3, .L50
 349 0002 DA68     		ldr	r2, [r3, #12]
 350 0004 516A     		ldr	r1, [r2, #36]
 351              	.LBE89:
 352              	.LBE88:
 353              	.LBB90:
 354              	.LBB91:
 355 0006 536A     		ldr	r3, [r2, #36]
 356              	.LVL21:
 357              	.LBE91:
 358              	.LBE90:
 359              		.loc 1 58 0
 360 0008 5B1A     		subs	r3, r3, r1
 361 000a 9842     		cmp	r0, r3
 362 000c 03D9     		bls	.L45
 363              	.L48:
 364              	.LBB92:
 365              	.LBB93:
 366              		.loc 1 51 0
 367 000e 536A     		ldr	r3, [r2, #36]
 368              	.LVL22:
 369              	.LBE93:
 370              	.LBE92:
 371              		.loc 1 58 0
 372 0010 5B1A     		subs	r3, r3, r1
 373              	.LVL23:
 374 0012 8342     		cmp	r3, r0
 375 0014 FBD3     		bcc	.L48
 376              	.L45:
 377 0016 7047     		bx	lr
 378              	.L51:
 379              		.align	2
 380              	.L50:
 381 0018 00000000 		.word	GPTD5
 382              		.cfi_endproc
 383              	.LFE259:
 384              		.size	_udelay, .-_udelay
 385              		.section	.text.spi_hw_init_gpio,"ax",%progbits
 386              		.align	2
 387              		.p2align 4,,15
 388              		.global	spi_hw_init_gpio
 389              		.thumb
 390              		.thumb_func
 391              		.type	spi_hw_init_gpio, %function
 392              	spi_hw_init_gpio:
 393              	.LFB260:
 394              		.loc 1 67 0
 395              		.cfi_startproc
 396              		@ args = 0, pretend = 0, frame = 0
 397              		@ frame_needed = 0, uses_anonymous_args = 0
 398 0000 38B5     		push	{r3, r4, r5, lr}
 399              		.cfi_def_cfa_offset 16
ARM GAS  C:\Users\ADMINI~1\AppData\Local\Temp\ccwJb011.s 			page 8


 400              		.cfi_offset 3, -16
 401              		.cfi_offset 4, -12
 402              		.cfi_offset 5, -8
 403              		.cfi_offset 14, -4
 404              		.loc 1 73 0
 405 0002 0121     		movs	r1, #1
 406 0004 4FF48050 		mov	r0, #4096
 407 0008 FFF7FEFF 		bl	RCC_APB2PeriphClockCmd
 408              	.LVL24:
 409              		.loc 1 81 0
 410 000c 144D     		ldr	r5, .L54
 411              		.loc 1 82 0
 412 000e 154C     		ldr	r4, .L54+4
 413              		.loc 1 76 0
 414 0010 0121     		movs	r1, #1
 415 0012 4FF48050 		mov	r0, #4096
 416 0016 FFF7FEFF 		bl	RCC_APB2PeriphResetCmd
 417              	.LVL25:
 418              		.loc 1 77 0
 419 001a 0021     		movs	r1, #0
 420 001c 4FF48050 		mov	r0, #4096
 421 0020 FFF7FEFF 		bl	RCC_APB2PeriphResetCmd
 422              	.LVL26:
 423              		.loc 1 81 0
 424 0024 2846     		mov	r0, r5
 425 0026 1922     		movs	r2, #25
 426 0028 4FF40041 		mov	r1, #32768
 427 002c FFF7FEFF 		bl	_pal_lld_setgroupmode
 428              	.LVL27:
 429              		.loc 1 82 0
 430 0030 2046     		mov	r0, r4
 431 0032 1922     		movs	r2, #25
 432 0034 1021     		movs	r1, #16
 433 0036 FFF7FEFF 		bl	_pal_lld_setgroupmode
 434              	.LVL28:
 435              		.loc 1 87 0
 436 003a 1023     		movs	r3, #16
 437              		.loc 1 85 0
 438 003c 4FF40042 		mov	r2, #32768
 439 0040 2A83     		strh	r2, [r5, #24]	@ movhi
 440              		.loc 1 95 0
 441 0042 2046     		mov	r0, r4
 442              		.loc 1 87 0
 443 0044 2383     		strh	r3, [r4, #24]	@ movhi
 444              		.loc 1 95 0
 445 0046 40F29A22 		movw	r2, #666
 446 004a 0821     		movs	r1, #8
 447 004c FFF7FEFF 		bl	_pal_lld_setgroupmode
 448              	.LVL29:
 449              		.loc 1 99 0
 450 0050 2046     		mov	r0, r4
 451 0052 40F2BA22 		movw	r2, #698
 452 0056 2021     		movs	r1, #32
 453              		.loc 1 103 0
 454 0058 BDE83840 		pop	{r3, r4, r5, lr}
 455              		.cfi_restore 14
 456              		.cfi_restore 5
ARM GAS  C:\Users\ADMINI~1\AppData\Local\Temp\ccwJb011.s 			page 9


 457              		.cfi_restore 4
 458              		.cfi_restore 3
 459              		.cfi_def_cfa_offset 0
 460              		.loc 1 99 0
 461 005c FFF7FEBF 		b	_pal_lld_setgroupmode
 462              	.LVL30:
 463              	.L55:
 464              		.align	2
 465              	.L54:
 466 0060 00000240 		.word	1073872896
 467 0064 00040240 		.word	1073873920
 468              		.cfi_endproc
 469              	.LFE260:
 470              		.size	spi_hw_init_gpio, .-spi_hw_init_gpio
 471              		.section	.text.SPI_Init_for_DAC_7612,"ax",%progbits
 472              		.align	2
 473              		.p2align 4,,15
 474              		.global	SPI_Init_for_DAC_7612
 475              		.thumb
 476              		.thumb_func
 477              		.type	SPI_Init_for_DAC_7612, %function
 478              	SPI_Init_for_DAC_7612:
 479              	.LFB261:
 480              		.loc 1 110 0
 481              		.cfi_startproc
 482              		@ args = 0, pretend = 0, frame = 0
 483              		@ frame_needed = 0, uses_anonymous_args = 0
 484              		@ link register save eliminated.
 485              	.LVL31:
 486              		.loc 1 136 0
 487 0000 0423     		movs	r3, #4
 488              		.loc 1 131 0
 489 0002 40F62702 		movw	r2, #2087
 490 0006 0260     		str	r2, [r0]
 491              		.loc 1 136 0
 492 0008 4360     		str	r3, [r0, #4]
 493              		.loc 1 139 0
 494 000a 0368     		ldr	r3, [r0]
 495 000c 43F04003 		orr	r3, r3, #64
 496 0010 0360     		str	r3, [r0]
 497 0012 7047     		bx	lr
 498              		.cfi_endproc
 499              	.LFE261:
 500              		.size	SPI_Init_for_DAC_7612, .-SPI_Init_for_DAC_7612
 501              		.section	.text.spi_dac_hw_init,"ax",%progbits
 502              		.align	2
 503              		.p2align 4,,15
 504              		.global	spi_dac_hw_init
 505              		.thumb
 506              		.thumb_func
 507              		.type	spi_dac_hw_init, %function
 508              	spi_dac_hw_init:
 509              	.LFB262:
 510              		.loc 1 145 0
 511              		.cfi_startproc
 512              		@ args = 0, pretend = 0, frame = 0
 513              		@ frame_needed = 0, uses_anonymous_args = 0
ARM GAS  C:\Users\ADMINI~1\AppData\Local\Temp\ccwJb011.s 			page 10


 514 0000 08B5     		push	{r3, lr}
 515              		.cfi_def_cfa_offset 8
 516              		.cfi_offset 3, -8
 517              		.cfi_offset 14, -4
 518              		.loc 1 146 0
 519 0002 FFF7FEFF 		bl	spi_hw_init_gpio
 520              	.LVL32:
 521              		.loc 1 147 0
 522 0006 FFF7FEFF 		bl	initGPT
 523              	.LVL33:
 524              	.LBB94:
 525              	.LBB95:
 526              		.loc 1 131 0
 527 000a 054B     		ldr	r3, .L59
 528              		.loc 1 136 0
 529 000c 0422     		movs	r2, #4
 530              		.loc 1 131 0
 531 000e 40F62701 		movw	r1, #2087
 532 0012 1960     		str	r1, [r3]
 533              		.loc 1 136 0
 534 0014 5A60     		str	r2, [r3, #4]
 535              		.loc 1 139 0
 536 0016 1A68     		ldr	r2, [r3]
 537 0018 42F04002 		orr	r2, r2, #64
 538 001c 1A60     		str	r2, [r3]
 539              	.LVL34:
 540 001e 08BD     		pop	{r3, pc}
 541              	.L60:
 542              		.align	2
 543              	.L59:
 544 0020 00300140 		.word	1073819648
 545              	.LBE95:
 546              	.LBE94:
 547              		.cfi_endproc
 548              	.LFE262:
 549              		.size	spi_dac_hw_init, .-spi_dac_hw_init
 550              		.section	.text.spi_dac_write_AB,"ax",%progbits
 551              		.align	2
 552              		.p2align 4,,15
 553              		.global	spi_dac_write_AB
 554              		.thumb
 555              		.thumb_func
 556              		.type	spi_dac_write_AB, %function
 557              	spi_dac_write_AB:
 558              	.LFB264:
 559              		.loc 1 201 0
 560              		.cfi_startproc
 561              		@ args = 0, pretend = 0, frame = 0
 562              		@ frame_needed = 0, uses_anonymous_args = 0
 563              		@ link register save eliminated.
 564              	.LVL35:
 565              		.loc 1 203 0
 566 0000 C0F30B00 		ubfx	r0, r0, #0, #12
 567              	.LVL36:
 568 0004 FFF7FEBF 		b	_spi_dac_write
 569              	.LVL37:
 570              		.cfi_endproc
ARM GAS  C:\Users\ADMINI~1\AppData\Local\Temp\ccwJb011.s 			page 11


 571              	.LFE264:
 572              		.size	spi_dac_write_AB, .-spi_dac_write_AB
 573              		.section	.text.spi_dac_write_A,"ax",%progbits
 574              		.align	2
 575              		.p2align 4,,15
 576              		.global	spi_dac_write_A
 577              		.thumb
 578              		.thumb_func
 579              		.type	spi_dac_write_A, %function
 580              	spi_dac_write_A:
 581              	.LFB265:
 582              		.loc 1 206 0
 583              		.cfi_startproc
 584              		@ args = 0, pretend = 0, frame = 0
 585              		@ frame_needed = 0, uses_anonymous_args = 0
 586              		@ link register save eliminated.
 587              	.LVL38:
 588              		.loc 1 208 0
 589 0000 C0F30B00 		ubfx	r0, r0, #0, #12
 590              	.LVL39:
 591 0004 40F40050 		orr	r0, r0, #8192
 592 0008 FFF7FEBF 		b	_spi_dac_write
 593              	.LVL40:
 594              		.cfi_endproc
 595              	.LFE265:
 596              		.size	spi_dac_write_A, .-spi_dac_write_A
 597              		.section	.text.spi_dac_write_B,"ax",%progbits
 598              		.align	2
 599              		.p2align 4,,15
 600              		.global	spi_dac_write_B
 601              		.thumb
 602              		.thumb_func
 603              		.type	spi_dac_write_B, %function
 604              	spi_dac_write_B:
 605              	.LFB266:
 606              		.loc 1 211 0
 607              		.cfi_startproc
 608              		@ args = 0, pretend = 0, frame = 0
 609              		@ frame_needed = 0, uses_anonymous_args = 0
 610              		@ link register save eliminated.
 611              	.LVL41:
 612              		.loc 1 213 0
 613 0000 C0F30B00 		ubfx	r0, r0, #0, #12
 614              	.LVL42:
 615 0004 40F44050 		orr	r0, r0, #12288
 616 0008 FFF7FEBF 		b	_spi_dac_write
 617              	.LVL43:
 618              		.cfi_endproc
 619              	.LFE266:
 620              		.size	spi_dac_write_B, .-spi_dac_write_B
 621              		.section	.rodata.gpt_cfg,"a",%progbits
 622              		.align	2
 623              		.set	.LANCHOR0,. + 0
 624              		.type	gpt_cfg, %object
 625              		.size	gpt_cfg, 16
 626              	gpt_cfg:
 627 0000 40420F00 		.word	1000000
ARM GAS  C:\Users\ADMINI~1\AppData\Local\Temp\ccwJb011.s 			page 12


 628 0004 00000000 		.word	gpt_cb
 629 0008 00000000 		.word	0
 630 000c 00000000 		.space	4
 631              		.text
 632              	.Letext0:
 633              		.file 2 "c:\\program files (x86)\\gnu tools arm embedded\\5.3 2016q1\\lib\\gcc\\arm-none-eabi\\5.3
 634              		.file 3 "c:\\program files (x86)\\gnu tools arm embedded\\5.3 2016q1\\arm-none-eabi\\include\\mach
 635              		.file 4 "c:\\program files (x86)\\gnu tools arm embedded\\5.3 2016q1\\arm-none-eabi\\include\\sys\
 636              		.file 5 "lib/ChibiOS_3.0.2/os/rt/ports/ARMCMx/compilers/GCC/chtypes.h"
 637              		.file 6 "lib/ChibiOS_3.0.2/os/rt/include/chsystypes.h"
 638              		.file 7 "lib/ChibiOS_3.0.2/os/rt/include/chschd.h"
 639              		.file 8 "lib/ChibiOS_3.0.2/os/ext/CMSIS/ST/stm32f407xx.h"
 640              		.file 9 "lib/ChibiOS_3.0.2/os/rt/ports/ARMCMx/chcore.h"
 641              		.file 10 "lib/ChibiOS_3.0.2/os/rt/ports/ARMCMx/chcore_v7m.h"
 642              		.file 11 "lib/ChibiOS_3.0.2/os/rt/include/chtm.h"
 643              		.file 12 "lib/ChibiOS_3.0.2/os/rt/include/chsem.h"
 644              		.file 13 "lib/ChibiOS_3.0.2/os/rt/include/chmtx.h"
 645              		.file 14 "lib/ChibiOS_3.0.2/os/hal/ports/STM32/LLD/GPIOv2/pal_lld.h"
 646              		.file 15 "lib/ChibiOS_3.0.2/os/ext/CMSIS/ST/stm32f4xx.h"
 647              		.file 16 "lib/ChibiOS_3.0.2/os/hal/include/gpt.h"
 648              		.file 17 "lib/ChibiOS_3.0.2/os/hal/ports/STM32/LLD/TIMv1/gpt_lld.h"
 649              		.file 18 "lib/ChibiOS_3.0.2/os/hal/ports/STM32/LLD/TIMv1/stm32_tim.h"
 650              		.file 19 "lib/ChibiOS_3.0.2/os/ext/CMSIS/include/core_cm4.h"
 651              		.file 20 "lib/ChibiOS_3.0.2/ext/stdperiph_stm32f4/inc/stm32f4xx_rcc.h"
 652              		.section	.debug_info,"",%progbits
 653              	.Ldebug_info0:
 654 0000 64100000 		.4byte	0x1064
 655 0004 0400     		.2byte	0x4
 656 0006 00000000 		.4byte	.Ldebug_abbrev0
 657 000a 04       		.byte	0x4
 658 000b 01       		.uleb128 0x1
 659 000c D8010000 		.4byte	.LASF177
 660 0010 0C       		.byte	0xc
 661 0011 DF070000 		.4byte	.LASF178
 662 0015 94070000 		.4byte	.LASF179
 663 0019 40000000 		.4byte	.Ldebug_ranges0+0x40
 664 001d 00000000 		.4byte	0
 665 0021 00000000 		.4byte	.Ldebug_line0
 666 0025 02       		.uleb128 0x2
 667 0026 04       		.byte	0x4
 668 0027 05       		.byte	0x5
 669 0028 696E7400 		.ascii	"int\000"
 670 002c 03       		.uleb128 0x3
 671 002d 12000000 		.4byte	.LASF2
 672 0031 02       		.byte	0x2
 673 0032 D8       		.byte	0xd8
 674 0033 37000000 		.4byte	0x37
 675 0037 04       		.uleb128 0x4
 676 0038 04       		.byte	0x4
 677 0039 07       		.byte	0x7
 678 003a 44030000 		.4byte	.LASF0
 679 003e 04       		.uleb128 0x4
 680 003f 01       		.byte	0x1
 681 0040 06       		.byte	0x6
 682 0041 FE000000 		.4byte	.LASF1
 683 0045 03       		.uleb128 0x3
 684 0046 29000000 		.4byte	.LASF3
ARM GAS  C:\Users\ADMINI~1\AppData\Local\Temp\ccwJb011.s 			page 13


 685 004a 03       		.byte	0x3
 686 004b 1D       		.byte	0x1d
 687 004c 50000000 		.4byte	0x50
 688 0050 04       		.uleb128 0x4
 689 0051 01       		.byte	0x1
 690 0052 08       		.byte	0x8
 691 0053 A1050000 		.4byte	.LASF4
 692 0057 04       		.uleb128 0x4
 693 0058 02       		.byte	0x2
 694 0059 05       		.byte	0x5
 695 005a B9050000 		.4byte	.LASF5
 696 005e 03       		.uleb128 0x3
 697 005f A0060000 		.4byte	.LASF6
 698 0063 03       		.byte	0x3
 699 0064 2B       		.byte	0x2b
 700 0065 69000000 		.4byte	0x69
 701 0069 04       		.uleb128 0x4
 702 006a 02       		.byte	0x2
 703 006b 07       		.byte	0x7
 704 006c 9A010000 		.4byte	.LASF7
 705 0070 03       		.uleb128 0x3
 706 0071 36040000 		.4byte	.LASF8
 707 0075 03       		.byte	0x3
 708 0076 3F       		.byte	0x3f
 709 0077 7B000000 		.4byte	0x7b
 710 007b 04       		.uleb128 0x4
 711 007c 04       		.byte	0x4
 712 007d 05       		.byte	0x5
 713 007e 50010000 		.4byte	.LASF9
 714 0082 03       		.uleb128 0x3
 715 0083 01070000 		.4byte	.LASF10
 716 0087 03       		.byte	0x3
 717 0088 41       		.byte	0x41
 718 0089 8D000000 		.4byte	0x8d
 719 008d 04       		.uleb128 0x4
 720 008e 04       		.byte	0x4
 721 008f 07       		.byte	0x7
 722 0090 7D060000 		.4byte	.LASF11
 723 0094 04       		.uleb128 0x4
 724 0095 08       		.byte	0x8
 725 0096 05       		.byte	0x5
 726 0097 1C030000 		.4byte	.LASF12
 727 009b 03       		.uleb128 0x3
 728 009c 14050000 		.4byte	.LASF13
 729 00a0 03       		.byte	0x3
 730 00a1 5B       		.byte	0x5b
 731 00a2 A6000000 		.4byte	0xa6
 732 00a6 04       		.uleb128 0x4
 733 00a7 08       		.byte	0x8
 734 00a8 07       		.byte	0x7
 735 00a9 81000000 		.4byte	.LASF14
 736 00ad 03       		.uleb128 0x3
 737 00ae B8070000 		.4byte	.LASF15
 738 00b2 04       		.byte	0x4
 739 00b3 14       		.byte	0x14
 740 00b4 45000000 		.4byte	0x45
 741 00b8 03       		.uleb128 0x3
ARM GAS  C:\Users\ADMINI~1\AppData\Local\Temp\ccwJb011.s 			page 14


 742 00b9 59030000 		.4byte	.LASF16
 743 00bd 04       		.byte	0x4
 744 00be 1A       		.byte	0x1a
 745 00bf 5E000000 		.4byte	0x5e
 746 00c3 03       		.uleb128 0x3
 747 00c4 99050000 		.4byte	.LASF17
 748 00c8 04       		.byte	0x4
 749 00c9 1F       		.byte	0x1f
 750 00ca 70000000 		.4byte	0x70
 751 00ce 03       		.uleb128 0x3
 752 00cf 56060000 		.4byte	.LASF18
 753 00d3 04       		.byte	0x4
 754 00d4 20       		.byte	0x20
 755 00d5 82000000 		.4byte	0x82
 756 00d9 03       		.uleb128 0x3
 757 00da 20000000 		.4byte	.LASF19
 758 00de 04       		.byte	0x4
 759 00df 26       		.byte	0x26
 760 00e0 9B000000 		.4byte	0x9b
 761 00e4 05       		.uleb128 0x5
 762 00e5 C3000000 		.4byte	0xc3
 763 00e9 05       		.uleb128 0x5
 764 00ea CE000000 		.4byte	0xce
 765 00ee 03       		.uleb128 0x3
 766 00ef 5E070000 		.4byte	.LASF20
 767 00f3 05       		.byte	0x5
 768 00f4 45       		.byte	0x45
 769 00f5 CE000000 		.4byte	0xce
 770 00f9 03       		.uleb128 0x3
 771 00fa FD070000 		.4byte	.LASF21
 772 00fe 05       		.byte	0x5
 773 00ff 48       		.byte	0x48
 774 0100 AD000000 		.4byte	0xad
 775 0104 03       		.uleb128 0x3
 776 0105 60010000 		.4byte	.LASF22
 777 0109 05       		.byte	0x5
 778 010a 49       		.byte	0x49
 779 010b AD000000 		.4byte	0xad
 780 010f 03       		.uleb128 0x3
 781 0110 40050000 		.4byte	.LASF23
 782 0114 05       		.byte	0x5
 783 0115 4A       		.byte	0x4a
 784 0116 AD000000 		.4byte	0xad
 785 011a 03       		.uleb128 0x3
 786 011b 2E010000 		.4byte	.LASF24
 787 011f 05       		.byte	0x5
 788 0120 4B       		.byte	0x4b
 789 0121 AD000000 		.4byte	0xad
 790 0125 03       		.uleb128 0x3
 791 0126 7B050000 		.4byte	.LASF25
 792 012a 05       		.byte	0x5
 793 012b 4C       		.byte	0x4c
 794 012c CE000000 		.4byte	0xce
 795 0130 03       		.uleb128 0x3
 796 0131 CF030000 		.4byte	.LASF26
 797 0135 05       		.byte	0x5
 798 0136 4D       		.byte	0x4d
ARM GAS  C:\Users\ADMINI~1\AppData\Local\Temp\ccwJb011.s 			page 15


 799 0137 C3000000 		.4byte	0xc3
 800 013b 03       		.uleb128 0x3
 801 013c 2A040000 		.4byte	.LASF27
 802 0140 05       		.byte	0x5
 803 0141 4F       		.byte	0x4f
 804 0142 CE000000 		.4byte	0xce
 805 0146 03       		.uleb128 0x3
 806 0147 CE040000 		.4byte	.LASF28
 807 014b 05       		.byte	0x5
 808 014c 51       		.byte	0x51
 809 014d C3000000 		.4byte	0xc3
 810 0151 03       		.uleb128 0x3
 811 0152 E3060000 		.4byte	.LASF29
 812 0156 06       		.byte	0x6
 813 0157 33       		.byte	0x33
 814 0158 CE000000 		.4byte	0xce
 815 015c 03       		.uleb128 0x3
 816 015d CE060000 		.4byte	.LASF30
 817 0161 06       		.byte	0x6
 818 0162 3F       		.byte	0x3f
 819 0163 67010000 		.4byte	0x167
 820 0167 06       		.uleb128 0x6
 821 0168 8C030000 		.4byte	.LASF52
 822 016c 48       		.byte	0x48
 823 016d 07       		.byte	0x7
 824 016e C2       		.byte	0xc2
 825 016f 6C020000 		.4byte	0x26c
 826 0173 07       		.uleb128 0x7
 827 0174 E3050000 		.4byte	.LASF31
 828 0178 07       		.byte	0x7
 829 0179 C3       		.byte	0xc3
 830 017a 77020000 		.4byte	0x277
 831 017e 00       		.byte	0
 832 017f 07       		.uleb128 0x7
 833 0180 74050000 		.4byte	.LASF32
 834 0184 07       		.byte	0x7
 835 0185 C5       		.byte	0xc5
 836 0186 77020000 		.4byte	0x277
 837 018a 04       		.byte	0x4
 838 018b 07       		.uleb128 0x7
 839 018c E5000000 		.4byte	.LASF33
 840 0190 07       		.byte	0x7
 841 0191 C7       		.byte	0xc7
 842 0192 25010000 		.4byte	0x125
 843 0196 08       		.byte	0x8
 844 0197 07       		.uleb128 0x7
 845 0198 28080000 		.4byte	.LASF34
 846 019c 07       		.byte	0x7
 847 019d C8       		.byte	0xc8
 848 019e 69050000 		.4byte	0x569
 849 01a2 0C       		.byte	0xc
 850 01a3 07       		.uleb128 0x7
 851 01a4 7C010000 		.4byte	.LASF35
 852 01a8 07       		.byte	0x7
 853 01a9 CA       		.byte	0xca
 854 01aa 77020000 		.4byte	0x277
 855 01ae 10       		.byte	0x10
ARM GAS  C:\Users\ADMINI~1\AppData\Local\Temp\ccwJb011.s 			page 16


 856 01af 07       		.uleb128 0x7
 857 01b0 D4040000 		.4byte	.LASF36
 858 01b4 07       		.byte	0x7
 859 01b5 CB       		.byte	0xcb
 860 01b6 77020000 		.4byte	0x277
 861 01ba 14       		.byte	0x14
 862 01bb 07       		.uleb128 0x7
 863 01bc D8070000 		.4byte	.LASF37
 864 01c0 07       		.byte	0x7
 865 01c1 D2       		.byte	0xd2
 866 01c2 AE070000 		.4byte	0x7ae
 867 01c6 18       		.byte	0x18
 868 01c7 07       		.uleb128 0x7
 869 01c8 C3050000 		.4byte	.LASF38
 870 01cc 07       		.byte	0x7
 871 01cd DD       		.byte	0xdd
 872 01ce 04010000 		.4byte	0x104
 873 01d2 1C       		.byte	0x1c
 874 01d3 07       		.uleb128 0x7
 875 01d4 EA050000 		.4byte	.LASF39
 876 01d8 07       		.byte	0x7
 877 01d9 E1       		.byte	0xe1
 878 01da F9000000 		.4byte	0xf9
 879 01de 1D       		.byte	0x1d
 880 01df 07       		.uleb128 0x7
 881 01e0 86070000 		.4byte	.LASF40
 882 01e4 07       		.byte	0x7
 883 01e5 E6       		.byte	0xe6
 884 01e6 0F010000 		.4byte	0x10f
 885 01ea 1E       		.byte	0x1e
 886 01eb 07       		.uleb128 0x7
 887 01ec CB050000 		.4byte	.LASF41
 888 01f0 07       		.byte	0x7
 889 01f1 EC       		.byte	0xec
 890 01f2 1A010000 		.4byte	0x11a
 891 01f6 1F       		.byte	0x1f
 892 01f7 07       		.uleb128 0x7
 893 01f8 62030000 		.4byte	.LASF42
 894 01fc 07       		.byte	0x7
 895 01fd F3       		.byte	0xf3
 896 01fe C0070000 		.4byte	0x7c0
 897 0202 20       		.byte	0x20
 898 0203 08       		.uleb128 0x8
 899 0204 705F7500 		.ascii	"p_u\000"
 900 0208 07       		.byte	0x7
 901 0209 3101     		.2byte	0x131
 902 020b E9060000 		.4byte	0x6e9
 903 020f 24       		.byte	0x24
 904 0210 09       		.uleb128 0x9
 905 0211 70040000 		.4byte	.LASF43
 906 0215 07       		.byte	0x7
 907 0216 3601     		.2byte	0x136
 908 0218 7D020000 		.4byte	0x27d
 909 021c 28       		.byte	0x28
 910 021d 09       		.uleb128 0x9
 911 021e 79030000 		.4byte	.LASF44
 912 0222 07       		.byte	0x7
ARM GAS  C:\Users\ADMINI~1\AppData\Local\Temp\ccwJb011.s 			page 17


 913 0223 3C01     		.2byte	0x13c
 914 0225 A1020000 		.4byte	0x2a1
 915 0229 2C       		.byte	0x2c
 916 022a 09       		.uleb128 0x9
 917 022b 0B080000 		.4byte	.LASF45
 918 022f 07       		.byte	0x7
 919 0230 4001     		.2byte	0x140
 920 0232 30010000 		.4byte	0x130
 921 0236 34       		.byte	0x34
 922 0237 09       		.uleb128 0x9
 923 0238 42060000 		.4byte	.LASF46
 924 023c 07       		.byte	0x7
 925 023d 4601     		.2byte	0x146
 926 023f 3B010000 		.4byte	0x13b
 927 0243 38       		.byte	0x38
 928 0244 09       		.uleb128 0x9
 929 0245 AF050000 		.4byte	.LASF47
 930 0249 07       		.byte	0x7
 931 024a 4D01     		.2byte	0x14d
 932 024c A8070000 		.4byte	0x7a8
 933 0250 3C       		.byte	0x3c
 934 0251 09       		.uleb128 0x9
 935 0252 ED060000 		.4byte	.LASF48
 936 0256 07       		.byte	0x7
 937 0257 5101     		.2byte	0x151
 938 0259 25010000 		.4byte	0x125
 939 025d 40       		.byte	0x40
 940 025e 09       		.uleb128 0x9
 941 025f C7030000 		.4byte	.LASF49
 942 0263 07       		.byte	0x7
 943 0264 5801     		.2byte	0x158
 944 0266 54030000 		.4byte	0x354
 945 026a 44       		.byte	0x44
 946 026b 00       		.byte	0
 947 026c 03       		.uleb128 0x3
 948 026d 89040000 		.4byte	.LASF50
 949 0271 06       		.byte	0x6
 950 0272 44       		.byte	0x44
 951 0273 77020000 		.4byte	0x277
 952 0277 0A       		.uleb128 0xa
 953 0278 04       		.byte	0x4
 954 0279 5C010000 		.4byte	0x15c
 955 027d 03       		.uleb128 0x3
 956 027e 61040000 		.4byte	.LASF51
 957 0282 06       		.byte	0x6
 958 0283 49       		.byte	0x49
 959 0284 88020000 		.4byte	0x288
 960 0288 06       		.uleb128 0x6
 961 0289 D5030000 		.4byte	.LASF53
 962 028d 04       		.byte	0x4
 963 028e 07       		.byte	0x7
 964 028f B0       		.byte	0xb0
 965 0290 A1020000 		.4byte	0x2a1
 966 0294 07       		.uleb128 0x7
 967 0295 E3050000 		.4byte	.LASF31
 968 0299 07       		.byte	0x7
 969 029a B1       		.byte	0xb1
ARM GAS  C:\Users\ADMINI~1\AppData\Local\Temp\ccwJb011.s 			page 18


 970 029b 77020000 		.4byte	0x277
 971 029f 00       		.byte	0
 972 02a0 00       		.byte	0
 973 02a1 03       		.uleb128 0x3
 974 02a2 6D070000 		.4byte	.LASF54
 975 02a6 06       		.byte	0x6
 976 02a7 50       		.byte	0x50
 977 02a8 AC020000 		.4byte	0x2ac
 978 02ac 06       		.uleb128 0x6
 979 02ad 46000000 		.4byte	.LASF55
 980 02b1 08       		.byte	0x8
 981 02b2 07       		.byte	0x7
 982 02b3 B7       		.byte	0xb7
 983 02b4 D1020000 		.4byte	0x2d1
 984 02b8 07       		.uleb128 0x7
 985 02b9 E3050000 		.4byte	.LASF31
 986 02bd 07       		.byte	0x7
 987 02be B8       		.byte	0xb8
 988 02bf 77020000 		.4byte	0x277
 989 02c3 00       		.byte	0
 990 02c4 07       		.uleb128 0x7
 991 02c5 74050000 		.4byte	.LASF32
 992 02c9 07       		.byte	0x7
 993 02ca B9       		.byte	0xb9
 994 02cb 77020000 		.4byte	0x277
 995 02cf 04       		.byte	0x4
 996 02d0 00       		.byte	0
 997 02d1 03       		.uleb128 0x3
 998 02d2 00000000 		.4byte	.LASF56
 999 02d6 06       		.byte	0x6
 1000 02d7 57       		.byte	0x57
 1001 02d8 DC020000 		.4byte	0x2dc
 1002 02dc 0B       		.uleb128 0xb
 1003 02dd 1C040000 		.4byte	.LASF57
 1004 02e1 1C       		.byte	0x1c
 1005 02e2 07       		.byte	0x7
 1006 02e3 9001     		.2byte	0x190
 1007 02e5 38030000 		.4byte	0x338
 1008 02e9 09       		.uleb128 0x9
 1009 02ea 66060000 		.4byte	.LASF58
 1010 02ee 07       		.byte	0x7
 1011 02ef 9101     		.2byte	0x191
 1012 02f1 A1020000 		.4byte	0x2a1
 1013 02f5 00       		.byte	0
 1014 02f6 09       		.uleb128 0x9
 1015 02f7 D5050000 		.4byte	.LASF59
 1016 02fb 07       		.byte	0x7
 1017 02fc 9201     		.2byte	0x192
 1018 02fe 25010000 		.4byte	0x125
 1019 0302 08       		.byte	0x8
 1020 0303 09       		.uleb128 0x9
 1021 0304 DC040000 		.4byte	.LASF60
 1022 0308 07       		.byte	0x7
 1023 0309 9401     		.2byte	0x194
 1024 030b 69050000 		.4byte	0x569
 1025 030f 0C       		.byte	0xc
 1026 0310 09       		.uleb128 0x9
ARM GAS  C:\Users\ADMINI~1\AppData\Local\Temp\ccwJb011.s 			page 19


 1027 0311 B5010000 		.4byte	.LASF61
 1028 0315 07       		.byte	0x7
 1029 0316 9701     		.2byte	0x197
 1030 0318 77020000 		.4byte	0x277
 1031 031c 10       		.byte	0x10
 1032 031d 09       		.uleb128 0x9
 1033 031e 2F070000 		.4byte	.LASF62
 1034 0322 07       		.byte	0x7
 1035 0323 9801     		.2byte	0x198
 1036 0325 77020000 		.4byte	0x277
 1037 0329 14       		.byte	0x14
 1038 032a 09       		.uleb128 0x9
 1039 032b F3040000 		.4byte	.LASF63
 1040 032f 07       		.byte	0x7
 1041 0330 9B01     		.2byte	0x19b
 1042 0332 77020000 		.4byte	0x277
 1043 0336 18       		.byte	0x18
 1044 0337 00       		.byte	0
 1045 0338 03       		.uleb128 0x3
 1046 0339 F8060000 		.4byte	.LASF64
 1047 033d 06       		.byte	0x6
 1048 033e 5C       		.byte	0x5c
 1049 033f 43030000 		.4byte	0x343
 1050 0343 0A       		.uleb128 0xa
 1051 0344 04       		.byte	0x4
 1052 0345 49030000 		.4byte	0x349
 1053 0349 0C       		.uleb128 0xc
 1054 034a 54030000 		.4byte	0x354
 1055 034e 0D       		.uleb128 0xd
 1056 034f 54030000 		.4byte	0x354
 1057 0353 00       		.byte	0
 1058 0354 0E       		.uleb128 0xe
 1059 0355 04       		.byte	0x4
 1060 0356 03       		.uleb128 0x3
 1061 0357 64050000 		.4byte	.LASF65
 1062 035b 06       		.byte	0x6
 1063 035c 61       		.byte	0x61
 1064 035d 61030000 		.4byte	0x361
 1065 0361 0B       		.uleb128 0xb
 1066 0362 4D070000 		.4byte	.LASF66
 1067 0366 14       		.byte	0x14
 1068 0367 07       		.byte	0x7
 1069 0368 6B01     		.2byte	0x16b
 1070 036a B0030000 		.4byte	0x3b0
 1071 036e 09       		.uleb128 0x9
 1072 036f 51030000 		.4byte	.LASF67
 1073 0373 07       		.byte	0x7
 1074 0374 6C01     		.2byte	0x16c
 1075 0376 C5070000 		.4byte	0x7c5
 1076 037a 00       		.byte	0
 1077 037b 09       		.uleb128 0x9
 1078 037c D0010000 		.4byte	.LASF68
 1079 0380 07       		.byte	0x7
 1080 0381 6D01     		.2byte	0x16d
 1081 0383 C5070000 		.4byte	0x7c5
 1082 0387 04       		.byte	0x4
 1083 0388 09       		.uleb128 0x9
ARM GAS  C:\Users\ADMINI~1\AppData\Local\Temp\ccwJb011.s 			page 20


 1084 0389 70030000 		.4byte	.LASF69
 1085 038d 07       		.byte	0x7
 1086 038e 6E01     		.2byte	0x16e
 1087 0390 51010000 		.4byte	0x151
 1088 0394 08       		.byte	0x8
 1089 0395 09       		.uleb128 0x9
 1090 0396 2E080000 		.4byte	.LASF70
 1091 039a 07       		.byte	0x7
 1092 039b 6F01     		.2byte	0x16f
 1093 039d 38030000 		.4byte	0x338
 1094 03a1 0C       		.byte	0xc
 1095 03a2 09       		.uleb128 0x9
 1096 03a3 66070000 		.4byte	.LASF71
 1097 03a7 07       		.byte	0x7
 1098 03a8 7101     		.2byte	0x171
 1099 03aa 54030000 		.4byte	0x354
 1100 03ae 10       		.byte	0x10
 1101 03af 00       		.byte	0
 1102 03b0 03       		.uleb128 0x3
 1103 03b1 B2000000 		.4byte	.LASF72
 1104 03b5 06       		.byte	0x6
 1105 03b6 66       		.byte	0x66
 1106 03b7 BB030000 		.4byte	0x3bb
 1107 03bb 0B       		.uleb128 0xb
 1108 03bc 9C040000 		.4byte	.LASF73
 1109 03c0 10       		.byte	0x10
 1110 03c1 07       		.byte	0x7
 1111 03c2 7B01     		.2byte	0x17b
 1112 03c4 FD030000 		.4byte	0x3fd
 1113 03c8 09       		.uleb128 0x9
 1114 03c9 51030000 		.4byte	.LASF67
 1115 03cd 07       		.byte	0x7
 1116 03ce 7C01     		.2byte	0x17c
 1117 03d0 C5070000 		.4byte	0x7c5
 1118 03d4 00       		.byte	0
 1119 03d5 09       		.uleb128 0x9
 1120 03d6 D0010000 		.4byte	.LASF68
 1121 03da 07       		.byte	0x7
 1122 03db 7E01     		.2byte	0x17e
 1123 03dd C5070000 		.4byte	0x7c5
 1124 03e1 04       		.byte	0x4
 1125 03e2 09       		.uleb128 0x9
 1126 03e3 70030000 		.4byte	.LASF69
 1127 03e7 07       		.byte	0x7
 1128 03e8 8001     		.2byte	0x180
 1129 03ea 51010000 		.4byte	0x151
 1130 03ee 08       		.byte	0x8
 1131 03ef 09       		.uleb128 0x9
 1132 03f0 F2070000 		.4byte	.LASF74
 1133 03f4 07       		.byte	0x7
 1134 03f5 8201     		.2byte	0x182
 1135 03f7 C0070000 		.4byte	0x7c0
 1136 03fb 0C       		.byte	0xc
 1137 03fc 00       		.byte	0
 1138 03fd 03       		.uleb128 0x3
 1139 03fe 57000000 		.4byte	.LASF75
 1140 0402 06       		.byte	0x6
ARM GAS  C:\Users\ADMINI~1\AppData\Local\Temp\ccwJb011.s 			page 21


 1141 0403 6B       		.byte	0x6b
 1142 0404 08040000 		.4byte	0x408
 1143 0408 0B       		.uleb128 0xb
 1144 0409 83050000 		.4byte	.LASF76
 1145 040d 04       		.byte	0x4
 1146 040e 07       		.byte	0x7
 1147 040f A201     		.2byte	0x1a2
 1148 0411 23040000 		.4byte	0x423
 1149 0415 09       		.uleb128 0x9
 1150 0416 0C070000 		.4byte	.LASF77
 1151 041a 07       		.byte	0x7
 1152 041b AA01     		.2byte	0x1aa
 1153 041d CB070000 		.4byte	0x7cb
 1154 0421 00       		.byte	0
 1155 0422 00       		.byte	0
 1156 0423 03       		.uleb128 0x3
 1157 0424 EE030000 		.4byte	.LASF78
 1158 0428 06       		.byte	0x6
 1159 0429 70       		.byte	0x70
 1160 042a 2E040000 		.4byte	0x42e
 1161 042e 0F       		.uleb128 0xf
 1162 042f 46010000 		.4byte	.LASF79
 1163 0433 5802     		.2byte	0x258
 1164 0435 07       		.byte	0x7
 1165 0436 C201     		.2byte	0x1c2
 1166 0438 8A040000 		.4byte	0x48a
 1167 043c 09       		.uleb128 0x9
 1168 043d 0F040000 		.4byte	.LASF80
 1169 0441 07       		.byte	0x7
 1170 0442 C601     		.2byte	0x1c6
 1171 0444 D1020000 		.4byte	0x2d1
 1172 0448 00       		.byte	0
 1173 0449 09       		.uleb128 0x9
 1174 044a C0030000 		.4byte	.LASF81
 1175 044e 07       		.byte	0x7
 1176 044f CA01     		.2byte	0x1ca
 1177 0451 B0030000 		.4byte	0x3b0
 1178 0455 1C       		.byte	0x1c
 1179 0456 08       		.uleb128 0x8
 1180 0457 64626700 		.ascii	"dbg\000"
 1181 045b 07       		.byte	0x7
 1182 045c CE01     		.2byte	0x1ce
 1183 045e FD030000 		.4byte	0x3fd
 1184 0462 2C       		.byte	0x2c
 1185 0463 09       		.uleb128 0x9
 1186 0464 A7000000 		.4byte	.LASF82
 1187 0468 07       		.byte	0x7
 1188 0469 D201     		.2byte	0x1d2
 1189 046b 5C010000 		.4byte	0x15c
 1190 046f 30       		.byte	0x30
 1191 0470 08       		.uleb128 0x8
 1192 0471 746D00   		.ascii	"tm\000"
 1193 0474 07       		.byte	0x7
 1194 0475 D701     		.2byte	0x1d7
 1195 0477 DE060000 		.4byte	0x6de
 1196 047b 78       		.byte	0x78
 1197 047c 09       		.uleb128 0x9
ARM GAS  C:\Users\ADMINI~1\AppData\Local\Temp\ccwJb011.s 			page 22


 1198 047d 2A030000 		.4byte	.LASF83
 1199 0481 07       		.byte	0x7
 1200 0482 E301     		.2byte	0x1e3
 1201 0484 D0070000 		.4byte	0x7d0
 1202 0488 80       		.byte	0x80
 1203 0489 00       		.byte	0
 1204 048a 04       		.uleb128 0x4
 1205 048b 04       		.byte	0x4
 1206 048c 07       		.byte	0x7
 1207 048d 80040000 		.4byte	.LASF84
 1208 0491 10       		.uleb128 0x10
 1209 0492 E9000000 		.4byte	0xe9
 1210 0496 A1040000 		.4byte	0x4a1
 1211 049a 11       		.uleb128 0x11
 1212 049b 8A040000 		.4byte	0x48a
 1213 049f 01       		.byte	0x1
 1214 04a0 00       		.byte	0
 1215 04a1 10       		.uleb128 0x10
 1216 04a2 E9000000 		.4byte	0xe9
 1217 04a6 B1040000 		.4byte	0x4b1
 1218 04aa 11       		.uleb128 0x11
 1219 04ab 8A040000 		.4byte	0x48a
 1220 04af 03       		.byte	0x3
 1221 04b0 00       		.byte	0
 1222 04b1 12       		.uleb128 0x12
 1223 04b2 24       		.byte	0x24
 1224 04b3 08       		.byte	0x8
 1225 04b4 DB02     		.2byte	0x2db
 1226 04b6 2E050000 		.4byte	0x52e
 1227 04ba 08       		.uleb128 0x8
 1228 04bb 43523100 		.ascii	"CR1\000"
 1229 04bf 08       		.byte	0x8
 1230 04c0 DD02     		.2byte	0x2dd
 1231 04c2 E9000000 		.4byte	0xe9
 1232 04c6 00       		.byte	0
 1233 04c7 08       		.uleb128 0x8
 1234 04c8 43523200 		.ascii	"CR2\000"
 1235 04cc 08       		.byte	0x8
 1236 04cd DE02     		.2byte	0x2de
 1237 04cf E9000000 		.4byte	0xe9
 1238 04d3 04       		.byte	0x4
 1239 04d4 08       		.uleb128 0x8
 1240 04d5 535200   		.ascii	"SR\000"
 1241 04d8 08       		.byte	0x8
 1242 04d9 DF02     		.2byte	0x2df
 1243 04db E9000000 		.4byte	0xe9
 1244 04df 08       		.byte	0x8
 1245 04e0 08       		.uleb128 0x8
 1246 04e1 445200   		.ascii	"DR\000"
 1247 04e4 08       		.byte	0x8
 1248 04e5 E002     		.2byte	0x2e0
 1249 04e7 E9000000 		.4byte	0xe9
 1250 04eb 0C       		.byte	0xc
 1251 04ec 09       		.uleb128 0x9
 1252 04ed 24050000 		.4byte	.LASF85
 1253 04f1 08       		.byte	0x8
 1254 04f2 E102     		.2byte	0x2e1
ARM GAS  C:\Users\ADMINI~1\AppData\Local\Temp\ccwJb011.s 			page 23


 1255 04f4 E9000000 		.4byte	0xe9
 1256 04f8 10       		.byte	0x10
 1257 04f9 09       		.uleb128 0x9
 1258 04fa 8D070000 		.4byte	.LASF86
 1259 04fe 08       		.byte	0x8
 1260 04ff E202     		.2byte	0x2e2
 1261 0501 E9000000 		.4byte	0xe9
 1262 0505 14       		.byte	0x14
 1263 0506 09       		.uleb128 0x9
 1264 0507 15040000 		.4byte	.LASF87
 1265 050b 08       		.byte	0x8
 1266 050c E302     		.2byte	0x2e3
 1267 050e E9000000 		.4byte	0xe9
 1268 0512 18       		.byte	0x18
 1269 0513 09       		.uleb128 0x9
 1270 0514 0F010000 		.4byte	.LASF88
 1271 0518 08       		.byte	0x8
 1272 0519 E402     		.2byte	0x2e4
 1273 051b E9000000 		.4byte	0xe9
 1274 051f 1C       		.byte	0x1c
 1275 0520 09       		.uleb128 0x9
 1276 0521 7A040000 		.4byte	.LASF89
 1277 0525 08       		.byte	0x8
 1278 0526 E502     		.2byte	0x2e5
 1279 0528 E9000000 		.4byte	0xe9
 1280 052c 20       		.byte	0x20
 1281 052d 00       		.byte	0
 1282 052e 13       		.uleb128 0x13
 1283 052f 8F060000 		.4byte	.LASF90
 1284 0533 08       		.byte	0x8
 1285 0534 E602     		.2byte	0x2e6
 1286 0536 B1040000 		.4byte	0x4b1
 1287 053a 14       		.uleb128 0x14
 1288 053b 01       		.byte	0x1
 1289 053c 50000000 		.4byte	0x50
 1290 0540 0F       		.byte	0xf
 1291 0541 A8       		.byte	0xa8
 1292 0542 53050000 		.4byte	0x553
 1293 0546 15       		.uleb128 0x15
 1294 0547 73000000 		.4byte	.LASF91
 1295 054b 00       		.byte	0
 1296 054c 15       		.uleb128 0x15
 1297 054d 59010000 		.4byte	.LASF92
 1298 0551 01       		.byte	0x1
 1299 0552 00       		.byte	0
 1300 0553 03       		.uleb128 0x3
 1301 0554 C7010000 		.4byte	.LASF93
 1302 0558 09       		.byte	0x9
 1303 0559 65       		.byte	0x65
 1304 055a 54030000 		.4byte	0x354
 1305 055e 03       		.uleb128 0x3
 1306 055f 56040000 		.4byte	.LASF94
 1307 0563 09       		.byte	0x9
 1308 0564 6D       		.byte	0x6d
 1309 0565 D9000000 		.4byte	0xd9
 1310 0569 06       		.uleb128 0x6
 1311 056a 27070000 		.4byte	.LASF95
ARM GAS  C:\Users\ADMINI~1\AppData\Local\Temp\ccwJb011.s 			page 24


 1312 056e 04       		.byte	0x4
 1313 056f 09       		.byte	0x9
 1314 0570 89       		.byte	0x89
 1315 0571 82050000 		.4byte	0x582
 1316 0575 16       		.uleb128 0x16
 1317 0576 72313300 		.ascii	"r13\000"
 1318 057a 09       		.byte	0x9
 1319 057b 8A       		.byte	0x8a
 1320 057c C3060000 		.4byte	0x6c3
 1321 0580 00       		.byte	0
 1322 0581 00       		.byte	0
 1323 0582 06       		.uleb128 0x6
 1324 0583 58050000 		.4byte	.LASF96
 1325 0587 64       		.byte	0x64
 1326 0588 0A       		.byte	0xa
 1327 0589 F4       		.byte	0xf4
 1328 058a C3060000 		.4byte	0x6c3
 1329 058e 16       		.uleb128 0x16
 1330 058f 73313600 		.ascii	"s16\000"
 1331 0593 0A       		.byte	0xa
 1332 0594 F6       		.byte	0xf6
 1333 0595 53050000 		.4byte	0x553
 1334 0599 00       		.byte	0
 1335 059a 16       		.uleb128 0x16
 1336 059b 73313700 		.ascii	"s17\000"
 1337 059f 0A       		.byte	0xa
 1338 05a0 F7       		.byte	0xf7
 1339 05a1 53050000 		.4byte	0x553
 1340 05a5 04       		.byte	0x4
 1341 05a6 16       		.uleb128 0x16
 1342 05a7 73313800 		.ascii	"s18\000"
 1343 05ab 0A       		.byte	0xa
 1344 05ac F8       		.byte	0xf8
 1345 05ad 53050000 		.4byte	0x553
 1346 05b1 08       		.byte	0x8
 1347 05b2 16       		.uleb128 0x16
 1348 05b3 73313900 		.ascii	"s19\000"
 1349 05b7 0A       		.byte	0xa
 1350 05b8 F9       		.byte	0xf9
 1351 05b9 53050000 		.4byte	0x553
 1352 05bd 0C       		.byte	0xc
 1353 05be 16       		.uleb128 0x16
 1354 05bf 73323000 		.ascii	"s20\000"
 1355 05c3 0A       		.byte	0xa
 1356 05c4 FA       		.byte	0xfa
 1357 05c5 53050000 		.4byte	0x553
 1358 05c9 10       		.byte	0x10
 1359 05ca 16       		.uleb128 0x16
 1360 05cb 73323100 		.ascii	"s21\000"
 1361 05cf 0A       		.byte	0xa
 1362 05d0 FB       		.byte	0xfb
 1363 05d1 53050000 		.4byte	0x553
 1364 05d5 14       		.byte	0x14
 1365 05d6 16       		.uleb128 0x16
 1366 05d7 73323200 		.ascii	"s22\000"
 1367 05db 0A       		.byte	0xa
 1368 05dc FC       		.byte	0xfc
ARM GAS  C:\Users\ADMINI~1\AppData\Local\Temp\ccwJb011.s 			page 25


 1369 05dd 53050000 		.4byte	0x553
 1370 05e1 18       		.byte	0x18
 1371 05e2 16       		.uleb128 0x16
 1372 05e3 73323300 		.ascii	"s23\000"
 1373 05e7 0A       		.byte	0xa
 1374 05e8 FD       		.byte	0xfd
 1375 05e9 53050000 		.4byte	0x553
 1376 05ed 1C       		.byte	0x1c
 1377 05ee 16       		.uleb128 0x16
 1378 05ef 73323400 		.ascii	"s24\000"
 1379 05f3 0A       		.byte	0xa
 1380 05f4 FE       		.byte	0xfe
 1381 05f5 53050000 		.4byte	0x553
 1382 05f9 20       		.byte	0x20
 1383 05fa 16       		.uleb128 0x16
 1384 05fb 73323500 		.ascii	"s25\000"
 1385 05ff 0A       		.byte	0xa
 1386 0600 FF       		.byte	0xff
 1387 0601 53050000 		.4byte	0x553
 1388 0605 24       		.byte	0x24
 1389 0606 08       		.uleb128 0x8
 1390 0607 73323600 		.ascii	"s26\000"
 1391 060b 0A       		.byte	0xa
 1392 060c 0001     		.2byte	0x100
 1393 060e 53050000 		.4byte	0x553
 1394 0612 28       		.byte	0x28
 1395 0613 08       		.uleb128 0x8
 1396 0614 73323700 		.ascii	"s27\000"
 1397 0618 0A       		.byte	0xa
 1398 0619 0101     		.2byte	0x101
 1399 061b 53050000 		.4byte	0x553
 1400 061f 2C       		.byte	0x2c
 1401 0620 08       		.uleb128 0x8
 1402 0621 73323800 		.ascii	"s28\000"
 1403 0625 0A       		.byte	0xa
 1404 0626 0201     		.2byte	0x102
 1405 0628 53050000 		.4byte	0x553
 1406 062c 30       		.byte	0x30
 1407 062d 08       		.uleb128 0x8
 1408 062e 73323900 		.ascii	"s29\000"
 1409 0632 0A       		.byte	0xa
 1410 0633 0301     		.2byte	0x103
 1411 0635 53050000 		.4byte	0x553
 1412 0639 34       		.byte	0x34
 1413 063a 08       		.uleb128 0x8
 1414 063b 73333000 		.ascii	"s30\000"
 1415 063f 0A       		.byte	0xa
 1416 0640 0401     		.2byte	0x104
 1417 0642 53050000 		.4byte	0x553
 1418 0646 38       		.byte	0x38
 1419 0647 08       		.uleb128 0x8
 1420 0648 73333100 		.ascii	"s31\000"
 1421 064c 0A       		.byte	0xa
 1422 064d 0501     		.2byte	0x105
 1423 064f 53050000 		.4byte	0x553
 1424 0653 3C       		.byte	0x3c
 1425 0654 08       		.uleb128 0x8
ARM GAS  C:\Users\ADMINI~1\AppData\Local\Temp\ccwJb011.s 			page 26


 1426 0655 723400   		.ascii	"r4\000"
 1427 0658 0A       		.byte	0xa
 1428 0659 0701     		.2byte	0x107
 1429 065b 53050000 		.4byte	0x553
 1430 065f 40       		.byte	0x40
 1431 0660 08       		.uleb128 0x8
 1432 0661 723500   		.ascii	"r5\000"
 1433 0664 0A       		.byte	0xa
 1434 0665 0801     		.2byte	0x108
 1435 0667 53050000 		.4byte	0x553
 1436 066b 44       		.byte	0x44
 1437 066c 08       		.uleb128 0x8
 1438 066d 723600   		.ascii	"r6\000"
 1439 0670 0A       		.byte	0xa
 1440 0671 0901     		.2byte	0x109
 1441 0673 53050000 		.4byte	0x553
 1442 0677 48       		.byte	0x48
 1443 0678 08       		.uleb128 0x8
 1444 0679 723700   		.ascii	"r7\000"
 1445 067c 0A       		.byte	0xa
 1446 067d 0A01     		.2byte	0x10a
 1447 067f 53050000 		.4byte	0x553
 1448 0683 4C       		.byte	0x4c
 1449 0684 08       		.uleb128 0x8
 1450 0685 723800   		.ascii	"r8\000"
 1451 0688 0A       		.byte	0xa
 1452 0689 0B01     		.2byte	0x10b
 1453 068b 53050000 		.4byte	0x553
 1454 068f 50       		.byte	0x50
 1455 0690 08       		.uleb128 0x8
 1456 0691 723900   		.ascii	"r9\000"
 1457 0694 0A       		.byte	0xa
 1458 0695 0C01     		.2byte	0x10c
 1459 0697 53050000 		.4byte	0x553
 1460 069b 54       		.byte	0x54
 1461 069c 08       		.uleb128 0x8
 1462 069d 72313000 		.ascii	"r10\000"
 1463 06a1 0A       		.byte	0xa
 1464 06a2 0D01     		.2byte	0x10d
 1465 06a4 53050000 		.4byte	0x553
 1466 06a8 58       		.byte	0x58
 1467 06a9 08       		.uleb128 0x8
 1468 06aa 72313100 		.ascii	"r11\000"
 1469 06ae 0A       		.byte	0xa
 1470 06af 0E01     		.2byte	0x10e
 1471 06b1 53050000 		.4byte	0x553
 1472 06b5 5C       		.byte	0x5c
 1473 06b6 08       		.uleb128 0x8
 1474 06b7 6C7200   		.ascii	"lr\000"
 1475 06ba 0A       		.byte	0xa
 1476 06bb 0F01     		.2byte	0x10f
 1477 06bd 53050000 		.4byte	0x553
 1478 06c1 60       		.byte	0x60
 1479 06c2 00       		.byte	0
 1480 06c3 0A       		.uleb128 0xa
 1481 06c4 04       		.byte	0x4
 1482 06c5 82050000 		.4byte	0x582
ARM GAS  C:\Users\ADMINI~1\AppData\Local\Temp\ccwJb011.s 			page 27


 1483 06c9 17       		.uleb128 0x17
 1484 06ca 04       		.byte	0x4
 1485 06cb 0B       		.byte	0xb
 1486 06cc 38       		.byte	0x38
 1487 06cd DE060000 		.4byte	0x6de
 1488 06d1 07       		.uleb128 0x7
 1489 06d2 16070000 		.4byte	.LASF97
 1490 06d6 0B       		.byte	0xb
 1491 06d7 3C       		.byte	0x3c
 1492 06d8 EE000000 		.4byte	0xee
 1493 06dc 00       		.byte	0
 1494 06dd 00       		.byte	0
 1495 06de 03       		.uleb128 0x3
 1496 06df E2040000 		.4byte	.LASF98
 1497 06e3 0B       		.byte	0xb
 1498 06e4 3D       		.byte	0x3d
 1499 06e5 C9060000 		.4byte	0x6c9
 1500 06e9 18       		.uleb128 0x18
 1501 06ea 04       		.byte	0x4
 1502 06eb 07       		.byte	0x7
 1503 06ec FA       		.byte	0xfa
 1504 06ed 46070000 		.4byte	0x746
 1505 06f1 19       		.uleb128 0x19
 1506 06f2 19000000 		.4byte	.LASF99
 1507 06f6 07       		.byte	0x7
 1508 06f7 0101     		.2byte	0x101
 1509 06f9 30010000 		.4byte	0x130
 1510 06fd 19       		.uleb128 0x19
 1511 06fe 9E000000 		.4byte	.LASF100
 1512 0702 07       		.byte	0x7
 1513 0703 0801     		.2byte	0x108
 1514 0705 30010000 		.4byte	0x130
 1515 0709 19       		.uleb128 0x19
 1516 070a D1070000 		.4byte	.LASF101
 1517 070e 07       		.byte	0x7
 1518 070f 0F01     		.2byte	0x10f
 1519 0711 54030000 		.4byte	0x354
 1520 0715 19       		.uleb128 0x19
 1521 0716 B9040000 		.4byte	.LASF102
 1522 071a 07       		.byte	0x7
 1523 071b 1601     		.2byte	0x116
 1524 071d 46070000 		.4byte	0x746
 1525 0721 19       		.uleb128 0x19
 1526 0722 69030000 		.4byte	.LASF103
 1527 0726 07       		.byte	0x7
 1528 0727 1E01     		.2byte	0x11e
 1529 0729 71070000 		.4byte	0x771
 1530 072d 19       		.uleb128 0x19
 1531 072e 5F060000 		.4byte	.LASF104
 1532 0732 07       		.byte	0x7
 1533 0733 2701     		.2byte	0x127
 1534 0735 A8070000 		.4byte	0x7a8
 1535 0739 19       		.uleb128 0x19
 1536 073a DC050000 		.4byte	.LASF105
 1537 073e 07       		.byte	0x7
 1538 073f 2F01     		.2byte	0x12f
 1539 0741 3B010000 		.4byte	0x13b
ARM GAS  C:\Users\ADMINI~1\AppData\Local\Temp\ccwJb011.s 			page 28


 1540 0745 00       		.byte	0
 1541 0746 0A       		.uleb128 0xa
 1542 0747 04       		.byte	0x4
 1543 0748 6C020000 		.4byte	0x26c
 1544 074c 06       		.uleb128 0x6
 1545 074d 30060000 		.4byte	.LASF106
 1546 0751 0C       		.byte	0xc
 1547 0752 0C       		.byte	0xc
 1548 0753 34       		.byte	0x34
 1549 0754 71070000 		.4byte	0x771
 1550 0758 07       		.uleb128 0x7
 1551 0759 84010000 		.4byte	.LASF107
 1552 075d 0C       		.byte	0xc
 1553 075e 35       		.byte	0x35
 1554 075f A1020000 		.4byte	0x2a1
 1555 0763 00       		.byte	0
 1556 0764 07       		.uleb128 0x7
 1557 0765 A0030000 		.4byte	.LASF108
 1558 0769 0C       		.byte	0xc
 1559 076a 37       		.byte	0x37
 1560 076b 46010000 		.4byte	0x146
 1561 076f 08       		.byte	0x8
 1562 0770 00       		.byte	0
 1563 0771 0A       		.uleb128 0xa
 1564 0772 04       		.byte	0x4
 1565 0773 4C070000 		.4byte	0x74c
 1566 0777 06       		.uleb128 0x6
 1567 0778 7D070000 		.4byte	.LASF109
 1568 077c 10       		.byte	0x10
 1569 077d 0D       		.byte	0xd
 1570 077e 39       		.byte	0x39
 1571 077f A8070000 		.4byte	0x7a8
 1572 0783 07       		.uleb128 0x7
 1573 0784 17010000 		.4byte	.LASF110
 1574 0788 0D       		.byte	0xd
 1575 0789 3A       		.byte	0x3a
 1576 078a A1020000 		.4byte	0x2a1
 1577 078e 00       		.byte	0
 1578 078f 07       		.uleb128 0x7
 1579 0790 20080000 		.4byte	.LASF111
 1580 0794 0D       		.byte	0xd
 1581 0795 3C       		.byte	0x3c
 1582 0796 77020000 		.4byte	0x277
 1583 079a 08       		.byte	0x8
 1584 079b 07       		.uleb128 0x7
 1585 079c DC060000 		.4byte	.LASF112
 1586 07a0 0D       		.byte	0xd
 1587 07a1 3E       		.byte	0x3e
 1588 07a2 EB070000 		.4byte	0x7eb
 1589 07a6 0C       		.byte	0xc
 1590 07a7 00       		.byte	0
 1591 07a8 0A       		.uleb128 0xa
 1592 07a9 04       		.byte	0x4
 1593 07aa 77070000 		.4byte	0x777
 1594 07ae 0A       		.uleb128 0xa
 1595 07af 04       		.byte	0x4
 1596 07b0 BB070000 		.4byte	0x7bb
ARM GAS  C:\Users\ADMINI~1\AppData\Local\Temp\ccwJb011.s 			page 29


 1597 07b4 04       		.uleb128 0x4
 1598 07b5 01       		.byte	0x1
 1599 07b6 08       		.byte	0x8
 1600 07b7 9B060000 		.4byte	.LASF113
 1601 07bb 1A       		.uleb128 0x1a
 1602 07bc B4070000 		.4byte	0x7b4
 1603 07c0 05       		.uleb128 0x5
 1604 07c1 51010000 		.4byte	0x151
 1605 07c5 0A       		.uleb128 0xa
 1606 07c6 04       		.byte	0x4
 1607 07c7 56030000 		.4byte	0x356
 1608 07cb 05       		.uleb128 0x5
 1609 07cc AE070000 		.4byte	0x7ae
 1610 07d0 10       		.uleb128 0x10
 1611 07d1 5E050000 		.4byte	0x55e
 1612 07d5 E0070000 		.4byte	0x7e0
 1613 07d9 11       		.uleb128 0x11
 1614 07da 8A040000 		.4byte	0x48a
 1615 07de 3A       		.byte	0x3a
 1616 07df 00       		.byte	0
 1617 07e0 03       		.uleb128 0x3
 1618 07e1 18080000 		.4byte	.LASF114
 1619 07e5 0D       		.byte	0xd
 1620 07e6 34       		.byte	0x34
 1621 07e7 77070000 		.4byte	0x777
 1622 07eb 0A       		.uleb128 0xa
 1623 07ec 04       		.byte	0x4
 1624 07ed E0070000 		.4byte	0x7e0
 1625 07f1 04       		.uleb128 0x4
 1626 07f2 01       		.byte	0x1
 1627 07f3 02       		.byte	0x2
 1628 07f4 93050000 		.4byte	.LASF115
 1629 07f8 17       		.uleb128 0x17
 1630 07f9 04       		.byte	0x4
 1631 07fa 0E       		.byte	0xe
 1632 07fb B3       		.byte	0xb3
 1633 07fc 19080000 		.4byte	0x819
 1634 0800 16       		.uleb128 0x16
 1635 0801 73657400 		.ascii	"set\000"
 1636 0805 0E       		.byte	0xe
 1637 0806 B4       		.byte	0xb4
 1638 0807 B8000000 		.4byte	0xb8
 1639 080b 00       		.byte	0
 1640 080c 07       		.uleb128 0x7
 1641 080d B3040000 		.4byte	.LASF116
 1642 0811 0E       		.byte	0xe
 1643 0812 B5       		.byte	0xb5
 1644 0813 B8000000 		.4byte	0xb8
 1645 0817 02       		.byte	0x2
 1646 0818 00       		.byte	0
 1647 0819 18       		.uleb128 0x18
 1648 081a 04       		.byte	0x4
 1649 081b 0E       		.byte	0xe
 1650 081c B1       		.byte	0xb1
 1651 081d 34080000 		.4byte	0x834
 1652 0821 1B       		.uleb128 0x1b
 1653 0822 5700     		.ascii	"W\000"
ARM GAS  C:\Users\ADMINI~1\AppData\Local\Temp\ccwJb011.s 			page 30


 1654 0824 0E       		.byte	0xe
 1655 0825 B2       		.byte	0xb2
 1656 0826 CE000000 		.4byte	0xce
 1657 082a 1B       		.uleb128 0x1b
 1658 082b 4800     		.ascii	"H\000"
 1659 082d 0E       		.byte	0xe
 1660 082e B6       		.byte	0xb6
 1661 082f F8070000 		.4byte	0x7f8
 1662 0833 00       		.byte	0
 1663 0834 17       		.uleb128 0x17
 1664 0835 2C       		.byte	0x2c
 1665 0836 0E       		.byte	0xe
 1666 0837 A9       		.byte	0xa9
 1667 0838 C1080000 		.4byte	0x8c1
 1668 083c 07       		.uleb128 0x7
 1669 083d 7B000000 		.4byte	.LASF117
 1670 0841 0E       		.byte	0xe
 1671 0842 AB       		.byte	0xab
 1672 0843 E9000000 		.4byte	0xe9
 1673 0847 00       		.byte	0
 1674 0848 07       		.uleb128 0x7
 1675 0849 33000000 		.4byte	.LASF118
 1676 084d 0E       		.byte	0xe
 1677 084e AC       		.byte	0xac
 1678 084f E9000000 		.4byte	0xe9
 1679 0853 04       		.byte	0x4
 1680 0854 07       		.uleb128 0x7
 1681 0855 AD010000 		.4byte	.LASF119
 1682 0859 0E       		.byte	0xe
 1683 085a AD       		.byte	0xad
 1684 085b E9000000 		.4byte	0xe9
 1685 085f 08       		.byte	0x8
 1686 0860 07       		.uleb128 0x7
 1687 0861 98000000 		.4byte	.LASF120
 1688 0865 0E       		.byte	0xe
 1689 0866 AE       		.byte	0xae
 1690 0867 E9000000 		.4byte	0xe9
 1691 086b 0C       		.byte	0xc
 1692 086c 16       		.uleb128 0x16
 1693 086d 49445200 		.ascii	"IDR\000"
 1694 0871 0E       		.byte	0xe
 1695 0872 AF       		.byte	0xaf
 1696 0873 E9000000 		.4byte	0xe9
 1697 0877 10       		.byte	0x10
 1698 0878 16       		.uleb128 0x16
 1699 0879 4F445200 		.ascii	"ODR\000"
 1700 087d 0E       		.byte	0xe
 1701 087e B0       		.byte	0xb0
 1702 087f E9000000 		.4byte	0xe9
 1703 0883 14       		.byte	0x14
 1704 0884 07       		.uleb128 0x7
 1705 0885 0A010000 		.4byte	.LASF121
 1706 0889 0E       		.byte	0xe
 1707 088a B7       		.byte	0xb7
 1708 088b C1080000 		.4byte	0x8c1
 1709 088f 18       		.byte	0x18
 1710 0890 07       		.uleb128 0x7
ARM GAS  C:\Users\ADMINI~1\AppData\Local\Temp\ccwJb011.s 			page 31


 1711 0891 96030000 		.4byte	.LASF122
 1712 0895 0E       		.byte	0xe
 1713 0896 B8       		.byte	0xb8
 1714 0897 E9000000 		.4byte	0xe9
 1715 089b 1C       		.byte	0x1c
 1716 089c 07       		.uleb128 0x7
 1717 089d 2A050000 		.4byte	.LASF123
 1718 08a1 0E       		.byte	0xe
 1719 08a2 B9       		.byte	0xb9
 1720 08a3 E9000000 		.4byte	0xe9
 1721 08a7 20       		.byte	0x20
 1722 08a8 07       		.uleb128 0x7
 1723 08a9 1F050000 		.4byte	.LASF124
 1724 08ad 0E       		.byte	0xe
 1725 08ae BA       		.byte	0xba
 1726 08af E9000000 		.4byte	0xe9
 1727 08b3 24       		.byte	0x24
 1728 08b4 16       		.uleb128 0x16
 1729 08b5 42525200 		.ascii	"BRR\000"
 1730 08b9 0E       		.byte	0xe
 1731 08ba BB       		.byte	0xbb
 1732 08bb E9000000 		.4byte	0xe9
 1733 08bf 28       		.byte	0x28
 1734 08c0 00       		.byte	0
 1735 08c1 05       		.uleb128 0x5
 1736 08c2 19080000 		.4byte	0x819
 1737 08c6 03       		.uleb128 0x3
 1738 08c7 0A030000 		.4byte	.LASF125
 1739 08cb 0E       		.byte	0xe
 1740 08cc BC       		.byte	0xbc
 1741 08cd 34080000 		.4byte	0x834
 1742 08d1 13       		.uleb128 0x13
 1743 08d2 66000000 		.4byte	.LASF126
 1744 08d6 0E       		.byte	0xe
 1745 08d7 0E01     		.2byte	0x10e
 1746 08d9 CE000000 		.4byte	0xce
 1747 08dd 14       		.uleb128 0x14
 1748 08de 01       		.byte	0x1
 1749 08df 50000000 		.4byte	0x50
 1750 08e3 10       		.byte	0x10
 1751 08e4 31       		.byte	0x31
 1752 08e5 08090000 		.4byte	0x908
 1753 08e9 15       		.uleb128 0x15
 1754 08ea A6030000 		.4byte	.LASF127
 1755 08ee 00       		.byte	0
 1756 08ef 15       		.uleb128 0x15
 1757 08f0 4D060000 		.4byte	.LASF128
 1758 08f4 01       		.byte	0x1
 1759 08f5 15       		.uleb128 0x15
 1760 08f6 C4040000 		.4byte	.LASF129
 1761 08fa 02       		.byte	0x2
 1762 08fb 15       		.uleb128 0x15
 1763 08fc 1F010000 		.4byte	.LASF130
 1764 0900 03       		.byte	0x3
 1765 0901 15       		.uleb128 0x15
 1766 0902 3A000000 		.4byte	.LASF131
 1767 0906 04       		.byte	0x4
ARM GAS  C:\Users\ADMINI~1\AppData\Local\Temp\ccwJb011.s 			page 32


 1768 0907 00       		.byte	0
 1769 0908 03       		.uleb128 0x3
 1770 0909 39030000 		.4byte	.LASF132
 1771 090d 10       		.byte	0x10
 1772 090e 37       		.byte	0x37
 1773 090f DD080000 		.4byte	0x8dd
 1774 0913 03       		.uleb128 0x3
 1775 0914 BD010000 		.4byte	.LASF133
 1776 0918 10       		.byte	0x10
 1777 0919 3C       		.byte	0x3c
 1778 091a 1E090000 		.4byte	0x91e
 1779 091e 0B       		.uleb128 0xb
 1780 091f BD010000 		.4byte	.LASF133
 1781 0923 10       		.byte	0x10
 1782 0924 11       		.byte	0x11
 1783 0925 9701     		.2byte	0x197
 1784 0927 60090000 		.4byte	0x960
 1785 092b 09       		.uleb128 0x9
 1786 092c 40010000 		.4byte	.LASF134
 1787 0930 11       		.byte	0x11
 1788 0931 9B01     		.2byte	0x19b
 1789 0933 08090000 		.4byte	0x908
 1790 0937 00       		.byte	0
 1791 0938 09       		.uleb128 0x9
 1792 0939 C2060000 		.4byte	.LASF135
 1793 093d 11       		.byte	0x11
 1794 093e 9F01     		.2byte	0x19f
 1795 0940 FA0A0000 		.4byte	0xafa
 1796 0944 04       		.byte	0x4
 1797 0945 09       		.uleb128 0x9
 1798 0946 05080000 		.4byte	.LASF136
 1799 094a 11       		.byte	0x11
 1800 094b A701     		.2byte	0x1a7
 1801 094d CE000000 		.4byte	0xce
 1802 0951 08       		.byte	0x8
 1803 0952 08       		.uleb128 0x8
 1804 0953 74696D00 		.ascii	"tim\000"
 1805 0957 11       		.byte	0x11
 1806 0958 AB01     		.2byte	0x1ab
 1807 095a 050B0000 		.4byte	0xb05
 1808 095e 0C       		.byte	0xc
 1809 095f 00       		.byte	0
 1810 0960 03       		.uleb128 0x3
 1811 0961 8C010000 		.4byte	.LASF137
 1812 0965 10       		.byte	0x10
 1813 0966 43       		.byte	0x43
 1814 0967 6B090000 		.4byte	0x96b
 1815 096b 0A       		.uleb128 0xa
 1816 096c 04       		.byte	0x4
 1817 096d 71090000 		.4byte	0x971
 1818 0971 0C       		.uleb128 0xc
 1819 0972 7C090000 		.4byte	0x97c
 1820 0976 0D       		.uleb128 0xd
 1821 0977 7C090000 		.4byte	0x97c
 1822 097b 00       		.byte	0
 1823 097c 0A       		.uleb128 0xa
 1824 097d 04       		.byte	0x4
ARM GAS  C:\Users\ADMINI~1\AppData\Local\Temp\ccwJb011.s 			page 33


 1825 097e 13090000 		.4byte	0x913
 1826 0982 12       		.uleb128 0x12
 1827 0983 60       		.byte	0x60
 1828 0984 12       		.byte	0x12
 1829 0985 9E01     		.2byte	0x19e
 1830 0987 8E0A0000 		.4byte	0xa8e
 1831 098b 08       		.uleb128 0x8
 1832 098c 43523100 		.ascii	"CR1\000"
 1833 0990 12       		.byte	0x12
 1834 0991 9F01     		.2byte	0x19f
 1835 0993 E9000000 		.4byte	0xe9
 1836 0997 00       		.byte	0
 1837 0998 08       		.uleb128 0x8
 1838 0999 43523200 		.ascii	"CR2\000"
 1839 099d 12       		.byte	0x12
 1840 099e A001     		.2byte	0x1a0
 1841 09a0 E9000000 		.4byte	0xe9
 1842 09a4 04       		.byte	0x4
 1843 09a5 09       		.uleb128 0x9
 1844 09a6 BF040000 		.4byte	.LASF138
 1845 09aa 12       		.byte	0x12
 1846 09ab A101     		.2byte	0x1a1
 1847 09ad E9000000 		.4byte	0xe9
 1848 09b1 08       		.byte	0x8
 1849 09b2 09       		.uleb128 0x9
 1850 09b3 0D000000 		.4byte	.LASF139
 1851 09b7 12       		.byte	0x12
 1852 09b8 A201     		.2byte	0x1a2
 1853 09ba E9000000 		.4byte	0xe9
 1854 09be 0C       		.byte	0xc
 1855 09bf 08       		.uleb128 0x8
 1856 09c0 535200   		.ascii	"SR\000"
 1857 09c3 12       		.byte	0x12
 1858 09c4 A301     		.2byte	0x1a3
 1859 09c6 E9000000 		.4byte	0xe9
 1860 09ca 10       		.byte	0x10
 1861 09cb 08       		.uleb128 0x8
 1862 09cc 45475200 		.ascii	"EGR\000"
 1863 09d0 12       		.byte	0x12
 1864 09d1 A401     		.2byte	0x1a4
 1865 09d3 E9000000 		.4byte	0xe9
 1866 09d7 14       		.byte	0x14
 1867 09d8 09       		.uleb128 0x9
 1868 09d9 EC000000 		.4byte	.LASF140
 1869 09dd 12       		.byte	0x12
 1870 09de A501     		.2byte	0x1a5
 1871 09e0 E9000000 		.4byte	0xe9
 1872 09e4 18       		.byte	0x18
 1873 09e5 09       		.uleb128 0x9
 1874 09e6 F2000000 		.4byte	.LASF141
 1875 09ea 12       		.byte	0x12
 1876 09eb A601     		.2byte	0x1a6
 1877 09ed E9000000 		.4byte	0xe9
 1878 09f1 1C       		.byte	0x1c
 1879 09f2 09       		.uleb128 0x9
 1880 09f3 D7060000 		.4byte	.LASF142
 1881 09f7 12       		.byte	0x12
ARM GAS  C:\Users\ADMINI~1\AppData\Local\Temp\ccwJb011.s 			page 34


 1882 09f8 A701     		.2byte	0x1a7
 1883 09fa E9000000 		.4byte	0xe9
 1884 09fe 20       		.byte	0x20
 1885 09ff 08       		.uleb128 0x8
 1886 0a00 434E5400 		.ascii	"CNT\000"
 1887 0a04 12       		.byte	0x12
 1888 0a05 A801     		.2byte	0x1a8
 1889 0a07 E9000000 		.4byte	0xe9
 1890 0a0b 24       		.byte	0x24
 1891 0a0c 08       		.uleb128 0x8
 1892 0a0d 50534300 		.ascii	"PSC\000"
 1893 0a11 12       		.byte	0x12
 1894 0a12 A901     		.2byte	0x1a9
 1895 0a14 E9000000 		.4byte	0xe9
 1896 0a18 28       		.byte	0x28
 1897 0a19 08       		.uleb128 0x8
 1898 0a1a 41525200 		.ascii	"ARR\000"
 1899 0a1e 12       		.byte	0x12
 1900 0a1f AA01     		.2byte	0x1aa
 1901 0a21 E9000000 		.4byte	0xe9
 1902 0a25 2C       		.byte	0x2c
 1903 0a26 08       		.uleb128 0x8
 1904 0a27 52435200 		.ascii	"RCR\000"
 1905 0a2b 12       		.byte	0x12
 1906 0a2c AB01     		.2byte	0x1ab
 1907 0a2e E9000000 		.4byte	0xe9
 1908 0a32 30       		.byte	0x30
 1909 0a33 08       		.uleb128 0x8
 1910 0a34 43435200 		.ascii	"CCR\000"
 1911 0a38 12       		.byte	0x12
 1912 0a39 AC01     		.2byte	0x1ac
 1913 0a3b 8E0A0000 		.4byte	0xa8e
 1914 0a3f 34       		.byte	0x34
 1915 0a40 09       		.uleb128 0x9
 1916 0a41 17030000 		.4byte	.LASF143
 1917 0a45 12       		.byte	0x12
 1918 0a46 AD01     		.2byte	0x1ad
 1919 0a48 E9000000 		.4byte	0xe9
 1920 0a4c 44       		.byte	0x44
 1921 0a4d 08       		.uleb128 0x8
 1922 0a4e 44435200 		.ascii	"DCR\000"
 1923 0a52 12       		.byte	0x12
 1924 0a53 AE01     		.2byte	0x1ae
 1925 0a55 E9000000 		.4byte	0xe9
 1926 0a59 48       		.byte	0x48
 1927 0a5a 09       		.uleb128 0x9
 1928 0a5b C9060000 		.4byte	.LASF144
 1929 0a5f 12       		.byte	0x12
 1930 0a60 AF01     		.2byte	0x1af
 1931 0a62 E9000000 		.4byte	0xe9
 1932 0a66 4C       		.byte	0x4c
 1933 0a67 08       		.uleb128 0x8
 1934 0a68 4F5200   		.ascii	"OR\000"
 1935 0a6b 12       		.byte	0x12
 1936 0a6c B001     		.2byte	0x1b0
 1937 0a6e E9000000 		.4byte	0xe9
 1938 0a72 50       		.byte	0x50
ARM GAS  C:\Users\ADMINI~1\AppData\Local\Temp\ccwJb011.s 			page 35


 1939 0a73 09       		.uleb128 0x9
 1940 0a74 F8000000 		.4byte	.LASF145
 1941 0a78 12       		.byte	0x12
 1942 0a79 B101     		.2byte	0x1b1
 1943 0a7b E9000000 		.4byte	0xe9
 1944 0a7f 54       		.byte	0x54
 1945 0a80 09       		.uleb128 0x9
 1946 0a81 3D060000 		.4byte	.LASF146
 1947 0a85 12       		.byte	0x12
 1948 0a86 B201     		.2byte	0x1b2
 1949 0a88 930A0000 		.4byte	0xa93
 1950 0a8c 58       		.byte	0x58
 1951 0a8d 00       		.byte	0
 1952 0a8e 05       		.uleb128 0x5
 1953 0a8f A1040000 		.4byte	0x4a1
 1954 0a93 05       		.uleb128 0x5
 1955 0a94 91040000 		.4byte	0x491
 1956 0a98 13       		.uleb128 0x13
 1957 0a99 03040000 		.4byte	.LASF147
 1958 0a9d 12       		.byte	0x12
 1959 0a9e B301     		.2byte	0x1b3
 1960 0aa0 82090000 		.4byte	0x982
 1961 0aa4 13       		.uleb128 0x13
 1962 0aa5 B6030000 		.4byte	.LASF148
 1963 0aa9 11       		.byte	0x11
 1964 0aaa 6D01     		.2byte	0x16d
 1965 0aac CE000000 		.4byte	0xce
 1966 0ab0 12       		.uleb128 0x12
 1967 0ab1 10       		.byte	0x10
 1968 0ab2 11       		.byte	0x11
 1969 0ab3 7801     		.2byte	0x178
 1970 0ab5 EE0A0000 		.4byte	0xaee
 1971 0ab9 09       		.uleb128 0x9
 1972 0aba DB000000 		.4byte	.LASF149
 1973 0abe 11       		.byte	0x11
 1974 0abf 7E01     		.2byte	0x17e
 1975 0ac1 A40A0000 		.4byte	0xaa4
 1976 0ac5 00       		.byte	0
 1977 0ac6 09       		.uleb128 0x9
 1978 0ac7 FA030000 		.4byte	.LASF150
 1979 0acb 11       		.byte	0x11
 1980 0acc 8501     		.2byte	0x185
 1981 0ace 60090000 		.4byte	0x960
 1982 0ad2 04       		.byte	0x4
 1983 0ad3 08       		.uleb128 0x8
 1984 0ad4 63723200 		.ascii	"cr2\000"
 1985 0ad8 11       		.byte	0x11
 1986 0ad9 8B01     		.2byte	0x18b
 1987 0adb CE000000 		.4byte	0xce
 1988 0adf 08       		.byte	0x8
 1989 0ae0 09       		.uleb128 0x9
 1990 0ae1 3D080000 		.4byte	.LASF151
 1991 0ae5 11       		.byte	0x11
 1992 0ae6 9101     		.2byte	0x191
 1993 0ae8 CE000000 		.4byte	0xce
 1994 0aec 0C       		.byte	0xc
 1995 0aed 00       		.byte	0
ARM GAS  C:\Users\ADMINI~1\AppData\Local\Temp\ccwJb011.s 			page 36


 1996 0aee 13       		.uleb128 0x13
 1997 0aef 1D070000 		.4byte	.LASF152
 1998 0af3 11       		.byte	0x11
 1999 0af4 9201     		.2byte	0x192
 2000 0af6 B00A0000 		.4byte	0xab0
 2001 0afa 0A       		.uleb128 0xa
 2002 0afb 04       		.byte	0x4
 2003 0afc 000B0000 		.4byte	0xb00
 2004 0b00 1A       		.uleb128 0x1a
 2005 0b01 EE0A0000 		.4byte	0xaee
 2006 0b05 0A       		.uleb128 0xa
 2007 0b06 04       		.byte	0x4
 2008 0b07 980A0000 		.4byte	0xa98
 2009 0b0b 1C       		.uleb128 0x1c
 2010 0b0c FC020000 		.4byte	.LASF180
 2011 0b10 01       		.byte	0x1
 2012 0b11 30       		.byte	0x30
 2013 0b12 CE000000 		.4byte	0xce
 2014 0b16 01       		.byte	0x1
 2015 0b17 1D       		.uleb128 0x1d
 2016 0b18 38010000 		.4byte	.LASF153
 2017 0b1c 01       		.byte	0x1
 2018 0b1d 36       		.byte	0x36
 2019 0b1e 01       		.byte	0x1
 2020 0b1f 430B0000 		.4byte	0xb43
 2021 0b23 1E       		.uleb128 0x1e
 2022 0b24 76060000 		.4byte	.LASF155
 2023 0b28 01       		.byte	0x1
 2024 0b29 36       		.byte	0x36
 2025 0b2a CE000000 		.4byte	0xce
 2026 0b2e 1F       		.uleb128 0x1f
 2027 0b2f 743100   		.ascii	"t1\000"
 2028 0b32 01       		.byte	0x1
 2029 0b33 38       		.byte	0x38
 2030 0b34 CE000000 		.4byte	0xce
 2031 0b38 1F       		.uleb128 0x1f
 2032 0b39 743200   		.ascii	"t2\000"
 2033 0b3c 01       		.byte	0x1
 2034 0b3d 39       		.byte	0x39
 2035 0b3e CE000000 		.4byte	0xce
 2036 0b42 00       		.byte	0
 2037 0b43 1D       		.uleb128 0x1d
 2038 0b44 40040000 		.4byte	.LASF154
 2039 0b48 01       		.byte	0x1
 2040 0b49 6D       		.byte	0x6d
 2041 0b4a 01       		.byte	0x1
 2042 0b4b 660B0000 		.4byte	0xb66
 2043 0b4f 1E       		.uleb128 0x1e
 2044 0b50 2B060000 		.4byte	.LASF156
 2045 0b54 01       		.byte	0x1
 2046 0b55 6D       		.byte	0x6d
 2047 0b56 660B0000 		.4byte	0xb66
 2048 0b5a 20       		.uleb128 0x20
 2049 0b5b 11080000 		.4byte	.LASF157
 2050 0b5f 01       		.byte	0x1
 2051 0b60 6F       		.byte	0x6f
 2052 0b61 B8000000 		.4byte	0xb8
ARM GAS  C:\Users\ADMINI~1\AppData\Local\Temp\ccwJb011.s 			page 37


 2053 0b65 00       		.byte	0
 2054 0b66 0A       		.uleb128 0xa
 2055 0b67 04       		.byte	0x4
 2056 0b68 2E050000 		.4byte	0x52e
 2057 0b6c 21       		.uleb128 0x21
 2058 0b6d 36080000 		.4byte	.LASF158
 2059 0b71 01       		.byte	0x1
 2060 0b72 17       		.byte	0x17
 2061 0b73 00000000 		.4byte	.LFB256
 2062 0b77 02000000 		.4byte	.LFE256-.LFB256
 2063 0b7b 01       		.uleb128 0x1
 2064 0b7c 9C       		.byte	0x9c
 2065 0b7d 8F0B0000 		.4byte	0xb8f
 2066 0b81 22       		.uleb128 0x22
 2067 0b82 9B030000 		.4byte	.LASF160
 2068 0b86 01       		.byte	0x1
 2069 0b87 17       		.byte	0x17
 2070 0b88 7C090000 		.4byte	0x97c
 2071 0b8c 01       		.uleb128 0x1
 2072 0b8d 50       		.byte	0x50
 2073 0b8e 00       		.byte	0
 2074 0b8f 21       		.uleb128 0x21
 2075 0b90 F2050000 		.4byte	.LASF159
 2076 0b94 01       		.byte	0x1
 2077 0b95 98       		.byte	0x98
 2078 0b96 00000000 		.4byte	.LFB263
 2079 0b9a 94000000 		.4byte	.LFE263-.LFB263
 2080 0b9e 01       		.uleb128 0x1
 2081 0b9f 9C       		.byte	0x9c
 2082 0ba0 680D0000 		.4byte	0xd68
 2083 0ba4 23       		.uleb128 0x23
 2084 0ba5 B1030000 		.4byte	.LASF161
 2085 0ba9 01       		.byte	0x1
 2086 0baa 98       		.byte	0x98
 2087 0bab 57000000 		.4byte	0x57
 2088 0baf 00000000 		.4byte	.LLST0
 2089 0bb3 24       		.uleb128 0x24
 2090 0bb4 01060000 		.4byte	.LASF162
 2091 0bb8 01       		.byte	0x1
 2092 0bb9 9A       		.byte	0x9a
 2093 0bba 680D0000 		.4byte	0xd68
 2094 0bbe 02       		.uleb128 0x2
 2095 0bbf 91       		.byte	0x91
 2096 0bc0 76       		.sleb128 -10
 2097 0bc1 25       		.uleb128 0x25
 2098 0bc2 2B060000 		.4byte	.LASF156
 2099 0bc6 01       		.byte	0x1
 2100 0bc7 9B       		.byte	0x9b
 2101 0bc8 660B0000 		.4byte	0xb66
 2102 0bcc 00300140 		.4byte	0x40013000
 2103 0bd0 26       		.uleb128 0x26
 2104 0bd1 170B0000 		.4byte	0xb17
 2105 0bd5 0C000000 		.4byte	.LBB50
 2106 0bd9 00000000 		.4byte	.Ldebug_ranges0+0
 2107 0bdd 01       		.byte	0x1
 2108 0bde A8       		.byte	0xa8
 2109 0bdf 1F0C0000 		.4byte	0xc1f
ARM GAS  C:\Users\ADMINI~1\AppData\Local\Temp\ccwJb011.s 			page 38


 2110 0be3 27       		.uleb128 0x27
 2111 0be4 230B0000 		.4byte	0xb23
 2112 0be8 21000000 		.4byte	.LLST1
 2113 0bec 28       		.uleb128 0x28
 2114 0bed 00000000 		.4byte	.Ldebug_ranges0+0
 2115 0bf1 29       		.uleb128 0x29
 2116 0bf2 2E0B0000 		.4byte	0xb2e
 2117 0bf6 2A       		.uleb128 0x2a
 2118 0bf7 380B0000 		.4byte	0xb38
 2119 0bfb 35000000 		.4byte	.LLST2
 2120 0bff 2B       		.uleb128 0x2b
 2121 0c00 0B0B0000 		.4byte	0xb0b
 2122 0c04 0C000000 		.4byte	.LBB52
 2123 0c08 20000000 		.4byte	.Ldebug_ranges0+0x20
 2124 0c0c 01       		.byte	0x1
 2125 0c0d 38       		.byte	0x38
 2126 0c0e 2C       		.uleb128 0x2c
 2127 0c0f 0B0B0000 		.4byte	0xb0b
 2128 0c13 1A000000 		.4byte	.LBB58
 2129 0c17 02000000 		.4byte	.LBE58-.LBB58
 2130 0c1b 01       		.byte	0x1
 2131 0c1c 39       		.byte	0x39
 2132 0c1d 00       		.byte	0
 2133 0c1e 00       		.byte	0
 2134 0c1f 2D       		.uleb128 0x2d
 2135 0c20 170B0000 		.4byte	0xb17
 2136 0c24 28000000 		.4byte	.LBB64
 2137 0c28 08000000 		.4byte	.LBE64-.LBB64
 2138 0c2c 01       		.byte	0x1
 2139 0c2d AA       		.byte	0xaa
 2140 0c2e 720C0000 		.4byte	0xc72
 2141 0c32 27       		.uleb128 0x27
 2142 0c33 230B0000 		.4byte	0xb23
 2143 0c37 48000000 		.4byte	.LLST3
 2144 0c3b 2E       		.uleb128 0x2e
 2145 0c3c 28000000 		.4byte	.LBB65
 2146 0c40 08000000 		.4byte	.LBE65-.LBB65
 2147 0c44 29       		.uleb128 0x29
 2148 0c45 2E0B0000 		.4byte	0xb2e
 2149 0c49 2A       		.uleb128 0x2a
 2150 0c4a 380B0000 		.4byte	0xb38
 2151 0c4e 5C000000 		.4byte	.LLST4
 2152 0c52 2C       		.uleb128 0x2c
 2153 0c53 0B0B0000 		.4byte	0xb0b
 2154 0c57 28000000 		.4byte	.LBB66
 2155 0c5b 02000000 		.4byte	.LBE66-.LBB66
 2156 0c5f 01       		.byte	0x1
 2157 0c60 38       		.byte	0x38
 2158 0c61 2C       		.uleb128 0x2c
 2159 0c62 0B0B0000 		.4byte	0xb0b
 2160 0c66 2A000000 		.4byte	.LBB68
 2161 0c6a 02000000 		.4byte	.LBE68-.LBB68
 2162 0c6e 01       		.byte	0x1
 2163 0c6f 39       		.byte	0x39
 2164 0c70 00       		.byte	0
 2165 0c71 00       		.byte	0
 2166 0c72 2D       		.uleb128 0x2d
ARM GAS  C:\Users\ADMINI~1\AppData\Local\Temp\ccwJb011.s 			page 39


 2167 0c73 170B0000 		.4byte	0xb17
 2168 0c77 50000000 		.4byte	.LBB70
 2169 0c7b 08000000 		.4byte	.LBE70-.LBB70
 2170 0c7f 01       		.byte	0x1
 2171 0c80 B9       		.byte	0xb9
 2172 0c81 C50C0000 		.4byte	0xcc5
 2173 0c85 27       		.uleb128 0x27
 2174 0c86 230B0000 		.4byte	0xb23
 2175 0c8a 6F000000 		.4byte	.LLST5
 2176 0c8e 2E       		.uleb128 0x2e
 2177 0c8f 50000000 		.4byte	.LBB71
 2178 0c93 08000000 		.4byte	.LBE71-.LBB71
 2179 0c97 29       		.uleb128 0x29
 2180 0c98 2E0B0000 		.4byte	0xb2e
 2181 0c9c 2A       		.uleb128 0x2a
 2182 0c9d 380B0000 		.4byte	0xb38
 2183 0ca1 83000000 		.4byte	.LLST6
 2184 0ca5 2C       		.uleb128 0x2c
 2185 0ca6 0B0B0000 		.4byte	0xb0b
 2186 0caa 50000000 		.4byte	.LBB72
 2187 0cae 02000000 		.4byte	.LBE72-.LBB72
 2188 0cb2 01       		.byte	0x1
 2189 0cb3 38       		.byte	0x38
 2190 0cb4 2C       		.uleb128 0x2c
 2191 0cb5 0B0B0000 		.4byte	0xb0b
 2192 0cb9 52000000 		.4byte	.LBB74
 2193 0cbd 02000000 		.4byte	.LBE74-.LBB74
 2194 0cc1 01       		.byte	0x1
 2195 0cc2 39       		.byte	0x39
 2196 0cc3 00       		.byte	0
 2197 0cc4 00       		.byte	0
 2198 0cc5 2D       		.uleb128 0x2d
 2199 0cc6 170B0000 		.4byte	0xb17
 2200 0cca 60000000 		.4byte	.LBB76
 2201 0cce 08000000 		.4byte	.LBE76-.LBB76
 2202 0cd2 01       		.byte	0x1
 2203 0cd3 BC       		.byte	0xbc
 2204 0cd4 180D0000 		.4byte	0xd18
 2205 0cd8 27       		.uleb128 0x27
 2206 0cd9 230B0000 		.4byte	0xb23
 2207 0cdd 96000000 		.4byte	.LLST7
 2208 0ce1 2E       		.uleb128 0x2e
 2209 0ce2 60000000 		.4byte	.LBB77
 2210 0ce6 08000000 		.4byte	.LBE77-.LBB77
 2211 0cea 29       		.uleb128 0x29
 2212 0ceb 2E0B0000 		.4byte	0xb2e
 2213 0cef 2A       		.uleb128 0x2a
 2214 0cf0 380B0000 		.4byte	0xb38
 2215 0cf4 AA000000 		.4byte	.LLST8
 2216 0cf8 2C       		.uleb128 0x2c
 2217 0cf9 0B0B0000 		.4byte	0xb0b
 2218 0cfd 60000000 		.4byte	.LBB78
 2219 0d01 02000000 		.4byte	.LBE78-.LBB78
 2220 0d05 01       		.byte	0x1
 2221 0d06 38       		.byte	0x38
 2222 0d07 2C       		.uleb128 0x2c
 2223 0d08 0B0B0000 		.4byte	0xb0b
ARM GAS  C:\Users\ADMINI~1\AppData\Local\Temp\ccwJb011.s 			page 40


 2224 0d0c 62000000 		.4byte	.LBB80
 2225 0d10 02000000 		.4byte	.LBE80-.LBB80
 2226 0d14 01       		.byte	0x1
 2227 0d15 39       		.byte	0x39
 2228 0d16 00       		.byte	0
 2229 0d17 00       		.byte	0
 2230 0d18 2F       		.uleb128 0x2f
 2231 0d19 170B0000 		.4byte	0xb17
 2232 0d1d 6E000000 		.4byte	.LBB82
 2233 0d21 08000000 		.4byte	.LBE82-.LBB82
 2234 0d25 01       		.byte	0x1
 2235 0d26 C2       		.byte	0xc2
 2236 0d27 27       		.uleb128 0x27
 2237 0d28 230B0000 		.4byte	0xb23
 2238 0d2c BD000000 		.4byte	.LLST9
 2239 0d30 2E       		.uleb128 0x2e
 2240 0d31 6E000000 		.4byte	.LBB83
 2241 0d35 08000000 		.4byte	.LBE83-.LBB83
 2242 0d39 29       		.uleb128 0x29
 2243 0d3a 2E0B0000 		.4byte	0xb2e
 2244 0d3e 2A       		.uleb128 0x2a
 2245 0d3f 380B0000 		.4byte	0xb38
 2246 0d43 D1000000 		.4byte	.LLST10
 2247 0d47 2C       		.uleb128 0x2c
 2248 0d48 0B0B0000 		.4byte	0xb0b
 2249 0d4c 6E000000 		.4byte	.LBB84
 2250 0d50 02000000 		.4byte	.LBE84-.LBB84
 2251 0d54 01       		.byte	0x1
 2252 0d55 38       		.byte	0x38
 2253 0d56 2C       		.uleb128 0x2c
 2254 0d57 0B0B0000 		.4byte	0xb0b
 2255 0d5b 70000000 		.4byte	.LBB86
 2256 0d5f 02000000 		.4byte	.LBE86-.LBB86
 2257 0d63 01       		.byte	0x1
 2258 0d64 39       		.byte	0x39
 2259 0d65 00       		.byte	0
 2260 0d66 00       		.byte	0
 2261 0d67 00       		.byte	0
 2262 0d68 05       		.uleb128 0x5
 2263 0d69 57000000 		.4byte	0x57
 2264 0d6d 30       		.uleb128 0x30
 2265 0d6e 6E060000 		.4byte	.LASF163
 2266 0d72 01       		.byte	0x1
 2267 0d73 28       		.byte	0x28
 2268 0d74 00000000 		.4byte	.LFB257
 2269 0d78 24000000 		.4byte	.LFE257-.LFB257
 2270 0d7c 01       		.uleb128 0x1
 2271 0d7d 9C       		.byte	0x9c
 2272 0d7e B00D0000 		.4byte	0xdb0
 2273 0d82 31       		.uleb128 0x31
 2274 0d83 0C000000 		.4byte	.LVL18
 2275 0d87 2D100000 		.4byte	0x102d
 2276 0d8b 9F0D0000 		.4byte	0xd9f
 2277 0d8f 32       		.uleb128 0x32
 2278 0d90 01       		.uleb128 0x1
 2279 0d91 50       		.byte	0x50
 2280 0d92 02       		.uleb128 0x2
ARM GAS  C:\Users\ADMINI~1\AppData\Local\Temp\ccwJb011.s 			page 41


 2281 0d93 74       		.byte	0x74
 2282 0d94 00       		.sleb128 0
 2283 0d95 32       		.uleb128 0x32
 2284 0d96 01       		.uleb128 0x1
 2285 0d97 51       		.byte	0x51
 2286 0d98 05       		.uleb128 0x5
 2287 0d99 03       		.byte	0x3
 2288 0d9a 00000000 		.4byte	.LANCHOR0
 2289 0d9e 00       		.byte	0
 2290 0d9f 33       		.uleb128 0x33
 2291 0da0 1A000000 		.4byte	.LVL19
 2292 0da4 38100000 		.4byte	0x1038
 2293 0da8 32       		.uleb128 0x32
 2294 0da9 01       		.uleb128 0x1
 2295 0daa 51       		.byte	0x51
 2296 0dab 02       		.uleb128 0x2
 2297 0dac 09       		.byte	0x9
 2298 0dad FF       		.byte	0xff
 2299 0dae 00       		.byte	0
 2300 0daf 00       		.byte	0
 2301 0db0 34       		.uleb128 0x34
 2302 0db1 0B0B0000 		.4byte	0xb0b
 2303 0db5 00000000 		.4byte	.LFB258
 2304 0db9 0C000000 		.4byte	.LFE258-.LFB258
 2305 0dbd 01       		.uleb128 0x1
 2306 0dbe 9C       		.byte	0x9c
 2307 0dbf 35       		.uleb128 0x35
 2308 0dc0 170B0000 		.4byte	0xb17
 2309 0dc4 00000000 		.4byte	.LFB259
 2310 0dc8 1C000000 		.4byte	.LFE259-.LFB259
 2311 0dcc 01       		.uleb128 0x1
 2312 0dcd 9C       		.byte	0x9c
 2313 0dce 150E0000 		.4byte	0xe15
 2314 0dd2 36       		.uleb128 0x36
 2315 0dd3 230B0000 		.4byte	0xb23
 2316 0dd7 01       		.uleb128 0x1
 2317 0dd8 50       		.byte	0x50
 2318 0dd9 29       		.uleb128 0x29
 2319 0dda 2E0B0000 		.4byte	0xb2e
 2320 0dde 2A       		.uleb128 0x2a
 2321 0ddf 380B0000 		.4byte	0xb38
 2322 0de3 E4000000 		.4byte	.LLST11
 2323 0de7 2C       		.uleb128 0x2c
 2324 0de8 0B0B0000 		.4byte	0xb0b
 2325 0dec 00000000 		.4byte	.LBB88
 2326 0df0 06000000 		.4byte	.LBE88-.LBB88
 2327 0df4 01       		.byte	0x1
 2328 0df5 38       		.byte	0x38
 2329 0df6 2C       		.uleb128 0x2c
 2330 0df7 0B0B0000 		.4byte	0xb0b
 2331 0dfb 06000000 		.4byte	.LBB90
 2332 0dff 02000000 		.4byte	.LBE90-.LBB90
 2333 0e03 01       		.byte	0x1
 2334 0e04 39       		.byte	0x39
 2335 0e05 2C       		.uleb128 0x2c
 2336 0e06 0B0B0000 		.4byte	0xb0b
 2337 0e0a 0E000000 		.4byte	.LBB92
ARM GAS  C:\Users\ADMINI~1\AppData\Local\Temp\ccwJb011.s 			page 42


 2338 0e0e 02000000 		.4byte	.LBE92-.LBB92
 2339 0e12 01       		.byte	0x1
 2340 0e13 3C       		.byte	0x3c
 2341 0e14 00       		.byte	0
 2342 0e15 30       		.uleb128 0x30
 2343 0e16 2F050000 		.4byte	.LASF164
 2344 0e1a 01       		.byte	0x1
 2345 0e1b 43       		.byte	0x43
 2346 0e1c 00000000 		.4byte	.LFB260
 2347 0e20 68000000 		.4byte	.LFE260-.LFB260
 2348 0e24 01       		.uleb128 0x1
 2349 0e25 9C       		.byte	0x9c
 2350 0e26 F70E0000 		.4byte	0xef7
 2351 0e2a 31       		.uleb128 0x31
 2352 0e2b 0C000000 		.4byte	.LVL24
 2353 0e2f 43100000 		.4byte	0x1043
 2354 0e33 440E0000 		.4byte	0xe44
 2355 0e37 32       		.uleb128 0x32
 2356 0e38 01       		.uleb128 0x1
 2357 0e39 50       		.byte	0x50
 2358 0e3a 03       		.uleb128 0x3
 2359 0e3b 0A       		.byte	0xa
 2360 0e3c 0010     		.2byte	0x1000
 2361 0e3e 32       		.uleb128 0x32
 2362 0e3f 01       		.uleb128 0x1
 2363 0e40 51       		.byte	0x51
 2364 0e41 01       		.uleb128 0x1
 2365 0e42 31       		.byte	0x31
 2366 0e43 00       		.byte	0
 2367 0e44 31       		.uleb128 0x31
 2368 0e45 1A000000 		.4byte	.LVL25
 2369 0e49 4F100000 		.4byte	0x104f
 2370 0e4d 5E0E0000 		.4byte	0xe5e
 2371 0e51 32       		.uleb128 0x32
 2372 0e52 01       		.uleb128 0x1
 2373 0e53 50       		.byte	0x50
 2374 0e54 03       		.uleb128 0x3
 2375 0e55 0A       		.byte	0xa
 2376 0e56 0010     		.2byte	0x1000
 2377 0e58 32       		.uleb128 0x32
 2378 0e59 01       		.uleb128 0x1
 2379 0e5a 51       		.byte	0x51
 2380 0e5b 01       		.uleb128 0x1
 2381 0e5c 31       		.byte	0x31
 2382 0e5d 00       		.byte	0
 2383 0e5e 31       		.uleb128 0x31
 2384 0e5f 24000000 		.4byte	.LVL26
 2385 0e63 4F100000 		.4byte	0x104f
 2386 0e67 780E0000 		.4byte	0xe78
 2387 0e6b 32       		.uleb128 0x32
 2388 0e6c 01       		.uleb128 0x1
 2389 0e6d 50       		.byte	0x50
 2390 0e6e 03       		.uleb128 0x3
 2391 0e6f 0A       		.byte	0xa
 2392 0e70 0010     		.2byte	0x1000
 2393 0e72 32       		.uleb128 0x32
 2394 0e73 01       		.uleb128 0x1
ARM GAS  C:\Users\ADMINI~1\AppData\Local\Temp\ccwJb011.s 			page 43


 2395 0e74 51       		.byte	0x51
 2396 0e75 01       		.uleb128 0x1
 2397 0e76 30       		.byte	0x30
 2398 0e77 00       		.byte	0
 2399 0e78 31       		.uleb128 0x31
 2400 0e79 30000000 		.4byte	.LVL27
 2401 0e7d 5B100000 		.4byte	0x105b
 2402 0e81 980E0000 		.4byte	0xe98
 2403 0e85 32       		.uleb128 0x32
 2404 0e86 01       		.uleb128 0x1
 2405 0e87 50       		.byte	0x50
 2406 0e88 02       		.uleb128 0x2
 2407 0e89 75       		.byte	0x75
 2408 0e8a 00       		.sleb128 0
 2409 0e8b 32       		.uleb128 0x32
 2410 0e8c 01       		.uleb128 0x1
 2411 0e8d 51       		.byte	0x51
 2412 0e8e 03       		.uleb128 0x3
 2413 0e8f 0A       		.byte	0xa
 2414 0e90 0080     		.2byte	0x8000
 2415 0e92 32       		.uleb128 0x32
 2416 0e93 01       		.uleb128 0x1
 2417 0e94 52       		.byte	0x52
 2418 0e95 01       		.uleb128 0x1
 2419 0e96 49       		.byte	0x49
 2420 0e97 00       		.byte	0
 2421 0e98 31       		.uleb128 0x31
 2422 0e99 3A000000 		.4byte	.LVL28
 2423 0e9d 5B100000 		.4byte	0x105b
 2424 0ea1 B60E0000 		.4byte	0xeb6
 2425 0ea5 32       		.uleb128 0x32
 2426 0ea6 01       		.uleb128 0x1
 2427 0ea7 50       		.byte	0x50
 2428 0ea8 02       		.uleb128 0x2
 2429 0ea9 74       		.byte	0x74
 2430 0eaa 00       		.sleb128 0
 2431 0eab 32       		.uleb128 0x32
 2432 0eac 01       		.uleb128 0x1
 2433 0ead 51       		.byte	0x51
 2434 0eae 01       		.uleb128 0x1
 2435 0eaf 40       		.byte	0x40
 2436 0eb0 32       		.uleb128 0x32
 2437 0eb1 01       		.uleb128 0x1
 2438 0eb2 52       		.byte	0x52
 2439 0eb3 01       		.uleb128 0x1
 2440 0eb4 49       		.byte	0x49
 2441 0eb5 00       		.byte	0
 2442 0eb6 31       		.uleb128 0x31
 2443 0eb7 50000000 		.4byte	.LVL29
 2444 0ebb 5B100000 		.4byte	0x105b
 2445 0ebf D60E0000 		.4byte	0xed6
 2446 0ec3 32       		.uleb128 0x32
 2447 0ec4 01       		.uleb128 0x1
 2448 0ec5 50       		.byte	0x50
 2449 0ec6 02       		.uleb128 0x2
 2450 0ec7 74       		.byte	0x74
 2451 0ec8 00       		.sleb128 0
ARM GAS  C:\Users\ADMINI~1\AppData\Local\Temp\ccwJb011.s 			page 44


 2452 0ec9 32       		.uleb128 0x32
 2453 0eca 01       		.uleb128 0x1
 2454 0ecb 51       		.byte	0x51
 2455 0ecc 01       		.uleb128 0x1
 2456 0ecd 38       		.byte	0x38
 2457 0ece 32       		.uleb128 0x32
 2458 0ecf 01       		.uleb128 0x1
 2459 0ed0 52       		.byte	0x52
 2460 0ed1 03       		.uleb128 0x3
 2461 0ed2 0A       		.byte	0xa
 2462 0ed3 9A02     		.2byte	0x29a
 2463 0ed5 00       		.byte	0
 2464 0ed6 33       		.uleb128 0x33
 2465 0ed7 60000000 		.4byte	.LVL30
 2466 0edb 5B100000 		.4byte	0x105b
 2467 0edf 32       		.uleb128 0x32
 2468 0ee0 01       		.uleb128 0x1
 2469 0ee1 50       		.byte	0x50
 2470 0ee2 05       		.uleb128 0x5
 2471 0ee3 0C       		.byte	0xc
 2472 0ee4 00040240 		.4byte	0x40020400
 2473 0ee8 32       		.uleb128 0x32
 2474 0ee9 01       		.uleb128 0x1
 2475 0eea 51       		.byte	0x51
 2476 0eeb 02       		.uleb128 0x2
 2477 0eec 08       		.byte	0x8
 2478 0eed 20       		.byte	0x20
 2479 0eee 32       		.uleb128 0x32
 2480 0eef 01       		.uleb128 0x1
 2481 0ef0 52       		.byte	0x52
 2482 0ef1 03       		.uleb128 0x3
 2483 0ef2 0A       		.byte	0xa
 2484 0ef3 BA02     		.2byte	0x2ba
 2485 0ef5 00       		.byte	0
 2486 0ef6 00       		.byte	0
 2487 0ef7 35       		.uleb128 0x35
 2488 0ef8 430B0000 		.4byte	0xb43
 2489 0efc 00000000 		.4byte	.LFB261
 2490 0f00 14000000 		.4byte	.LFE261-.LFB261
 2491 0f04 01       		.uleb128 0x1
 2492 0f05 9C       		.byte	0x9c
 2493 0f06 190F0000 		.4byte	0xf19
 2494 0f0a 36       		.uleb128 0x36
 2495 0f0b 4F0B0000 		.4byte	0xb4f
 2496 0f0f 01       		.uleb128 0x1
 2497 0f10 50       		.byte	0x50
 2498 0f11 37       		.uleb128 0x37
 2499 0f12 5A0B0000 		.4byte	0xb5a
 2500 0f16 2708     		.2byte	0x827
 2501 0f18 00       		.byte	0
 2502 0f19 30       		.uleb128 0x30
 2503 0f1a 48050000 		.4byte	.LASF165
 2504 0f1e 01       		.byte	0x1
 2505 0f1f 90       		.byte	0x90
 2506 0f20 00000000 		.4byte	.LFB262
 2507 0f24 24000000 		.4byte	.LFE262-.LFB262
 2508 0f28 01       		.uleb128 0x1
ARM GAS  C:\Users\ADMINI~1\AppData\Local\Temp\ccwJb011.s 			page 45


 2509 0f29 9C       		.byte	0x9c
 2510 0f2a 6F0F0000 		.4byte	0xf6f
 2511 0f2e 2D       		.uleb128 0x2d
 2512 0f2f 430B0000 		.4byte	0xb43
 2513 0f33 0A000000 		.4byte	.LBB94
 2514 0f37 1A000000 		.4byte	.LBE94-.LBB94
 2515 0f3b 01       		.byte	0x1
 2516 0f3c 95       		.byte	0x95
 2517 0f3d 5C0F0000 		.4byte	0xf5c
 2518 0f41 27       		.uleb128 0x27
 2519 0f42 4F0B0000 		.4byte	0xb4f
 2520 0f46 F7000000 		.4byte	.LLST12
 2521 0f4a 2E       		.uleb128 0x2e
 2522 0f4b 0A000000 		.4byte	.LBB95
 2523 0f4f 1A000000 		.4byte	.LBE95-.LBB95
 2524 0f53 37       		.uleb128 0x37
 2525 0f54 5A0B0000 		.4byte	0xb5a
 2526 0f58 2708     		.2byte	0x827
 2527 0f5a 00       		.byte	0
 2528 0f5b 00       		.byte	0
 2529 0f5c 38       		.uleb128 0x38
 2530 0f5d 06000000 		.4byte	.LVL32
 2531 0f61 150E0000 		.4byte	0xe15
 2532 0f65 38       		.uleb128 0x38
 2533 0f66 0A000000 		.4byte	.LVL33
 2534 0f6a 6D0D0000 		.4byte	0xd6d
 2535 0f6e 00       		.byte	0
 2536 0f6f 30       		.uleb128 0x30
 2537 0f70 C0070000 		.4byte	.LASF166
 2538 0f74 01       		.byte	0x1
 2539 0f75 C8       		.byte	0xc8
 2540 0f76 00000000 		.4byte	.LFB264
 2541 0f7a 08000000 		.4byte	.LFE264-.LFB264
 2542 0f7e 01       		.uleb128 0x1
 2543 0f7f 9C       		.byte	0x9c
 2544 0f80 9D0F0000 		.4byte	0xf9d
 2545 0f84 23       		.uleb128 0x23
 2546 0f85 B1030000 		.4byte	.LASF161
 2547 0f89 01       		.byte	0x1
 2548 0f8a C8       		.byte	0xc8
 2549 0f8b 57000000 		.4byte	0x57
 2550 0f8f 0F010000 		.4byte	.LLST13
 2551 0f93 39       		.uleb128 0x39
 2552 0f94 08000000 		.4byte	.LVL37
 2553 0f98 8F0B0000 		.4byte	0xb8f
 2554 0f9c 00       		.byte	0
 2555 0f9d 30       		.uleb128 0x30
 2556 0f9e 0B060000 		.4byte	.LASF167
 2557 0fa2 01       		.byte	0x1
 2558 0fa3 CD       		.byte	0xcd
 2559 0fa4 00000000 		.4byte	.LFB265
 2560 0fa8 0C000000 		.4byte	.LFE265-.LFB265
 2561 0fac 01       		.uleb128 0x1
 2562 0fad 9C       		.byte	0x9c
 2563 0fae CB0F0000 		.4byte	0xfcb
 2564 0fb2 23       		.uleb128 0x23
 2565 0fb3 B1030000 		.4byte	.LASF161
ARM GAS  C:\Users\ADMINI~1\AppData\Local\Temp\ccwJb011.s 			page 46


 2566 0fb7 01       		.byte	0x1
 2567 0fb8 CD       		.byte	0xcd
 2568 0fb9 57000000 		.4byte	0x57
 2569 0fbd 45010000 		.4byte	.LLST14
 2570 0fc1 39       		.uleb128 0x39
 2571 0fc2 0C000000 		.4byte	.LVL40
 2572 0fc6 8F0B0000 		.4byte	0xb8f
 2573 0fca 00       		.byte	0
 2574 0fcb 30       		.uleb128 0x30
 2575 0fcc 1B060000 		.4byte	.LASF168
 2576 0fd0 01       		.byte	0x1
 2577 0fd1 D2       		.byte	0xd2
 2578 0fd2 00000000 		.4byte	.LFB266
 2579 0fd6 0C000000 		.4byte	.LFE266-.LFB266
 2580 0fda 01       		.uleb128 0x1
 2581 0fdb 9C       		.byte	0x9c
 2582 0fdc F90F0000 		.4byte	0xff9
 2583 0fe0 23       		.uleb128 0x23
 2584 0fe1 B1030000 		.4byte	.LASF161
 2585 0fe5 01       		.byte	0x1
 2586 0fe6 D2       		.byte	0xd2
 2587 0fe7 57000000 		.4byte	0x57
 2588 0feb 7B010000 		.4byte	.LLST15
 2589 0fef 39       		.uleb128 0x39
 2590 0ff0 0C000000 		.4byte	.LVL43
 2591 0ff4 8F0B0000 		.4byte	0xb8f
 2592 0ff8 00       		.byte	0
 2593 0ff9 24       		.uleb128 0x24
 2594 0ffa 84030000 		.4byte	.LASF169
 2595 0ffe 01       		.byte	0x1
 2596 0fff 1F       		.byte	0x1f
 2597 1000 000B0000 		.4byte	0xb00
 2598 1004 05       		.uleb128 0x5
 2599 1005 03       		.byte	0x3
 2600 1006 00000000 		.4byte	gpt_cfg
 2601 100a 3A       		.uleb128 0x3a
 2602 100b C8000000 		.4byte	.LASF170
 2603 100f 13       		.byte	0x13
 2604 1010 A706     		.2byte	0x6a7
 2605 1012 E4000000 		.4byte	0xe4
 2606 1016 3B       		.uleb128 0x3b
 2607 1017 636800   		.ascii	"ch\000"
 2608 101a 07       		.byte	0x7
 2609 101b 0902     		.2byte	0x209
 2610 101d 23040000 		.4byte	0x423
 2611 1021 3A       		.uleb128 0x3a
 2612 1022 D5000000 		.4byte	.LASF171
 2613 1026 11       		.byte	0x11
 2614 1027 EE01     		.2byte	0x1ee
 2615 1029 13090000 		.4byte	0x913
 2616 102d 3C       		.uleb128 0x3c
 2617 102e E5030000 		.4byte	.LASF172
 2618 1032 E5030000 		.4byte	.LASF172
 2619 1036 10       		.byte	0x10
 2620 1037 7B       		.byte	0x7b
 2621 1038 3C       		.uleb128 0x3c
 2622 1039 69010000 		.4byte	.LASF173
ARM GAS  C:\Users\ADMINI~1\AppData\Local\Temp\ccwJb011.s 			page 47


 2623 103d 69010000 		.4byte	.LASF173
 2624 1041 10       		.byte	0x10
 2625 1042 7D       		.byte	0x7d
 2626 1043 3D       		.uleb128 0x3d
 2627 1044 AB060000 		.4byte	.LASF174
 2628 1048 AB060000 		.4byte	.LASF174
 2629 104c 14       		.byte	0x14
 2630 104d 5C03     		.2byte	0x35c
 2631 104f 3D       		.uleb128 0x3d
 2632 1050 FD040000 		.4byte	.LASF175
 2633 1054 FD040000 		.4byte	.LASF175
 2634 1058 14       		.byte	0x14
 2635 1059 6203     		.2byte	0x362
 2636 105b 3D       		.uleb128 0x3d
 2637 105c 37070000 		.4byte	.LASF176
 2638 1060 37070000 		.4byte	.LASF176
 2639 1064 0E       		.byte	0xe
 2640 1065 E001     		.2byte	0x1e0
 2641 1067 00       		.byte	0
 2642              		.section	.debug_abbrev,"",%progbits
 2643              	.Ldebug_abbrev0:
 2644 0000 01       		.uleb128 0x1
 2645 0001 11       		.uleb128 0x11
 2646 0002 01       		.byte	0x1
 2647 0003 25       		.uleb128 0x25
 2648 0004 0E       		.uleb128 0xe
 2649 0005 13       		.uleb128 0x13
 2650 0006 0B       		.uleb128 0xb
 2651 0007 03       		.uleb128 0x3
 2652 0008 0E       		.uleb128 0xe
 2653 0009 1B       		.uleb128 0x1b
 2654 000a 0E       		.uleb128 0xe
 2655 000b 55       		.uleb128 0x55
 2656 000c 17       		.uleb128 0x17
 2657 000d 11       		.uleb128 0x11
 2658 000e 01       		.uleb128 0x1
 2659 000f 10       		.uleb128 0x10
 2660 0010 17       		.uleb128 0x17
 2661 0011 00       		.byte	0
 2662 0012 00       		.byte	0
 2663 0013 02       		.uleb128 0x2
 2664 0014 24       		.uleb128 0x24
 2665 0015 00       		.byte	0
 2666 0016 0B       		.uleb128 0xb
 2667 0017 0B       		.uleb128 0xb
 2668 0018 3E       		.uleb128 0x3e
 2669 0019 0B       		.uleb128 0xb
 2670 001a 03       		.uleb128 0x3
 2671 001b 08       		.uleb128 0x8
 2672 001c 00       		.byte	0
 2673 001d 00       		.byte	0
 2674 001e 03       		.uleb128 0x3
 2675 001f 16       		.uleb128 0x16
 2676 0020 00       		.byte	0
 2677 0021 03       		.uleb128 0x3
 2678 0022 0E       		.uleb128 0xe
 2679 0023 3A       		.uleb128 0x3a
ARM GAS  C:\Users\ADMINI~1\AppData\Local\Temp\ccwJb011.s 			page 48


 2680 0024 0B       		.uleb128 0xb
 2681 0025 3B       		.uleb128 0x3b
 2682 0026 0B       		.uleb128 0xb
 2683 0027 49       		.uleb128 0x49
 2684 0028 13       		.uleb128 0x13
 2685 0029 00       		.byte	0
 2686 002a 00       		.byte	0
 2687 002b 04       		.uleb128 0x4
 2688 002c 24       		.uleb128 0x24
 2689 002d 00       		.byte	0
 2690 002e 0B       		.uleb128 0xb
 2691 002f 0B       		.uleb128 0xb
 2692 0030 3E       		.uleb128 0x3e
 2693 0031 0B       		.uleb128 0xb
 2694 0032 03       		.uleb128 0x3
 2695 0033 0E       		.uleb128 0xe
 2696 0034 00       		.byte	0
 2697 0035 00       		.byte	0
 2698 0036 05       		.uleb128 0x5
 2699 0037 35       		.uleb128 0x35
 2700 0038 00       		.byte	0
 2701 0039 49       		.uleb128 0x49
 2702 003a 13       		.uleb128 0x13
 2703 003b 00       		.byte	0
 2704 003c 00       		.byte	0
 2705 003d 06       		.uleb128 0x6
 2706 003e 13       		.uleb128 0x13
 2707 003f 01       		.byte	0x1
 2708 0040 03       		.uleb128 0x3
 2709 0041 0E       		.uleb128 0xe
 2710 0042 0B       		.uleb128 0xb
 2711 0043 0B       		.uleb128 0xb
 2712 0044 3A       		.uleb128 0x3a
 2713 0045 0B       		.uleb128 0xb
 2714 0046 3B       		.uleb128 0x3b
 2715 0047 0B       		.uleb128 0xb
 2716 0048 01       		.uleb128 0x1
 2717 0049 13       		.uleb128 0x13
 2718 004a 00       		.byte	0
 2719 004b 00       		.byte	0
 2720 004c 07       		.uleb128 0x7
 2721 004d 0D       		.uleb128 0xd
 2722 004e 00       		.byte	0
 2723 004f 03       		.uleb128 0x3
 2724 0050 0E       		.uleb128 0xe
 2725 0051 3A       		.uleb128 0x3a
 2726 0052 0B       		.uleb128 0xb
 2727 0053 3B       		.uleb128 0x3b
 2728 0054 0B       		.uleb128 0xb
 2729 0055 49       		.uleb128 0x49
 2730 0056 13       		.uleb128 0x13
 2731 0057 38       		.uleb128 0x38
 2732 0058 0B       		.uleb128 0xb
 2733 0059 00       		.byte	0
 2734 005a 00       		.byte	0
 2735 005b 08       		.uleb128 0x8
 2736 005c 0D       		.uleb128 0xd
ARM GAS  C:\Users\ADMINI~1\AppData\Local\Temp\ccwJb011.s 			page 49


 2737 005d 00       		.byte	0
 2738 005e 03       		.uleb128 0x3
 2739 005f 08       		.uleb128 0x8
 2740 0060 3A       		.uleb128 0x3a
 2741 0061 0B       		.uleb128 0xb
 2742 0062 3B       		.uleb128 0x3b
 2743 0063 05       		.uleb128 0x5
 2744 0064 49       		.uleb128 0x49
 2745 0065 13       		.uleb128 0x13
 2746 0066 38       		.uleb128 0x38
 2747 0067 0B       		.uleb128 0xb
 2748 0068 00       		.byte	0
 2749 0069 00       		.byte	0
 2750 006a 09       		.uleb128 0x9
 2751 006b 0D       		.uleb128 0xd
 2752 006c 00       		.byte	0
 2753 006d 03       		.uleb128 0x3
 2754 006e 0E       		.uleb128 0xe
 2755 006f 3A       		.uleb128 0x3a
 2756 0070 0B       		.uleb128 0xb
 2757 0071 3B       		.uleb128 0x3b
 2758 0072 05       		.uleb128 0x5
 2759 0073 49       		.uleb128 0x49
 2760 0074 13       		.uleb128 0x13
 2761 0075 38       		.uleb128 0x38
 2762 0076 0B       		.uleb128 0xb
 2763 0077 00       		.byte	0
 2764 0078 00       		.byte	0
 2765 0079 0A       		.uleb128 0xa
 2766 007a 0F       		.uleb128 0xf
 2767 007b 00       		.byte	0
 2768 007c 0B       		.uleb128 0xb
 2769 007d 0B       		.uleb128 0xb
 2770 007e 49       		.uleb128 0x49
 2771 007f 13       		.uleb128 0x13
 2772 0080 00       		.byte	0
 2773 0081 00       		.byte	0
 2774 0082 0B       		.uleb128 0xb
 2775 0083 13       		.uleb128 0x13
 2776 0084 01       		.byte	0x1
 2777 0085 03       		.uleb128 0x3
 2778 0086 0E       		.uleb128 0xe
 2779 0087 0B       		.uleb128 0xb
 2780 0088 0B       		.uleb128 0xb
 2781 0089 3A       		.uleb128 0x3a
 2782 008a 0B       		.uleb128 0xb
 2783 008b 3B       		.uleb128 0x3b
 2784 008c 05       		.uleb128 0x5
 2785 008d 01       		.uleb128 0x1
 2786 008e 13       		.uleb128 0x13
 2787 008f 00       		.byte	0
 2788 0090 00       		.byte	0
 2789 0091 0C       		.uleb128 0xc
 2790 0092 15       		.uleb128 0x15
 2791 0093 01       		.byte	0x1
 2792 0094 27       		.uleb128 0x27
 2793 0095 19       		.uleb128 0x19
ARM GAS  C:\Users\ADMINI~1\AppData\Local\Temp\ccwJb011.s 			page 50


 2794 0096 01       		.uleb128 0x1
 2795 0097 13       		.uleb128 0x13
 2796 0098 00       		.byte	0
 2797 0099 00       		.byte	0
 2798 009a 0D       		.uleb128 0xd
 2799 009b 05       		.uleb128 0x5
 2800 009c 00       		.byte	0
 2801 009d 49       		.uleb128 0x49
 2802 009e 13       		.uleb128 0x13
 2803 009f 00       		.byte	0
 2804 00a0 00       		.byte	0
 2805 00a1 0E       		.uleb128 0xe
 2806 00a2 0F       		.uleb128 0xf
 2807 00a3 00       		.byte	0
 2808 00a4 0B       		.uleb128 0xb
 2809 00a5 0B       		.uleb128 0xb
 2810 00a6 00       		.byte	0
 2811 00a7 00       		.byte	0
 2812 00a8 0F       		.uleb128 0xf
 2813 00a9 13       		.uleb128 0x13
 2814 00aa 01       		.byte	0x1
 2815 00ab 03       		.uleb128 0x3
 2816 00ac 0E       		.uleb128 0xe
 2817 00ad 0B       		.uleb128 0xb
 2818 00ae 05       		.uleb128 0x5
 2819 00af 3A       		.uleb128 0x3a
 2820 00b0 0B       		.uleb128 0xb
 2821 00b1 3B       		.uleb128 0x3b
 2822 00b2 05       		.uleb128 0x5
 2823 00b3 01       		.uleb128 0x1
 2824 00b4 13       		.uleb128 0x13
 2825 00b5 00       		.byte	0
 2826 00b6 00       		.byte	0
 2827 00b7 10       		.uleb128 0x10
 2828 00b8 01       		.uleb128 0x1
 2829 00b9 01       		.byte	0x1
 2830 00ba 49       		.uleb128 0x49
 2831 00bb 13       		.uleb128 0x13
 2832 00bc 01       		.uleb128 0x1
 2833 00bd 13       		.uleb128 0x13
 2834 00be 00       		.byte	0
 2835 00bf 00       		.byte	0
 2836 00c0 11       		.uleb128 0x11
 2837 00c1 21       		.uleb128 0x21
 2838 00c2 00       		.byte	0
 2839 00c3 49       		.uleb128 0x49
 2840 00c4 13       		.uleb128 0x13
 2841 00c5 2F       		.uleb128 0x2f
 2842 00c6 0B       		.uleb128 0xb
 2843 00c7 00       		.byte	0
 2844 00c8 00       		.byte	0
 2845 00c9 12       		.uleb128 0x12
 2846 00ca 13       		.uleb128 0x13
 2847 00cb 01       		.byte	0x1
 2848 00cc 0B       		.uleb128 0xb
 2849 00cd 0B       		.uleb128 0xb
 2850 00ce 3A       		.uleb128 0x3a
ARM GAS  C:\Users\ADMINI~1\AppData\Local\Temp\ccwJb011.s 			page 51


 2851 00cf 0B       		.uleb128 0xb
 2852 00d0 3B       		.uleb128 0x3b
 2853 00d1 05       		.uleb128 0x5
 2854 00d2 01       		.uleb128 0x1
 2855 00d3 13       		.uleb128 0x13
 2856 00d4 00       		.byte	0
 2857 00d5 00       		.byte	0
 2858 00d6 13       		.uleb128 0x13
 2859 00d7 16       		.uleb128 0x16
 2860 00d8 00       		.byte	0
 2861 00d9 03       		.uleb128 0x3
 2862 00da 0E       		.uleb128 0xe
 2863 00db 3A       		.uleb128 0x3a
 2864 00dc 0B       		.uleb128 0xb
 2865 00dd 3B       		.uleb128 0x3b
 2866 00de 05       		.uleb128 0x5
 2867 00df 49       		.uleb128 0x49
 2868 00e0 13       		.uleb128 0x13
 2869 00e1 00       		.byte	0
 2870 00e2 00       		.byte	0
 2871 00e3 14       		.uleb128 0x14
 2872 00e4 04       		.uleb128 0x4
 2873 00e5 01       		.byte	0x1
 2874 00e6 0B       		.uleb128 0xb
 2875 00e7 0B       		.uleb128 0xb
 2876 00e8 49       		.uleb128 0x49
 2877 00e9 13       		.uleb128 0x13
 2878 00ea 3A       		.uleb128 0x3a
 2879 00eb 0B       		.uleb128 0xb
 2880 00ec 3B       		.uleb128 0x3b
 2881 00ed 0B       		.uleb128 0xb
 2882 00ee 01       		.uleb128 0x1
 2883 00ef 13       		.uleb128 0x13
 2884 00f0 00       		.byte	0
 2885 00f1 00       		.byte	0
 2886 00f2 15       		.uleb128 0x15
 2887 00f3 28       		.uleb128 0x28
 2888 00f4 00       		.byte	0
 2889 00f5 03       		.uleb128 0x3
 2890 00f6 0E       		.uleb128 0xe
 2891 00f7 1C       		.uleb128 0x1c
 2892 00f8 0B       		.uleb128 0xb
 2893 00f9 00       		.byte	0
 2894 00fa 00       		.byte	0
 2895 00fb 16       		.uleb128 0x16
 2896 00fc 0D       		.uleb128 0xd
 2897 00fd 00       		.byte	0
 2898 00fe 03       		.uleb128 0x3
 2899 00ff 08       		.uleb128 0x8
 2900 0100 3A       		.uleb128 0x3a
 2901 0101 0B       		.uleb128 0xb
 2902 0102 3B       		.uleb128 0x3b
 2903 0103 0B       		.uleb128 0xb
 2904 0104 49       		.uleb128 0x49
 2905 0105 13       		.uleb128 0x13
 2906 0106 38       		.uleb128 0x38
 2907 0107 0B       		.uleb128 0xb
ARM GAS  C:\Users\ADMINI~1\AppData\Local\Temp\ccwJb011.s 			page 52


 2908 0108 00       		.byte	0
 2909 0109 00       		.byte	0
 2910 010a 17       		.uleb128 0x17
 2911 010b 13       		.uleb128 0x13
 2912 010c 01       		.byte	0x1
 2913 010d 0B       		.uleb128 0xb
 2914 010e 0B       		.uleb128 0xb
 2915 010f 3A       		.uleb128 0x3a
 2916 0110 0B       		.uleb128 0xb
 2917 0111 3B       		.uleb128 0x3b
 2918 0112 0B       		.uleb128 0xb
 2919 0113 01       		.uleb128 0x1
 2920 0114 13       		.uleb128 0x13
 2921 0115 00       		.byte	0
 2922 0116 00       		.byte	0
 2923 0117 18       		.uleb128 0x18
 2924 0118 17       		.uleb128 0x17
 2925 0119 01       		.byte	0x1
 2926 011a 0B       		.uleb128 0xb
 2927 011b 0B       		.uleb128 0xb
 2928 011c 3A       		.uleb128 0x3a
 2929 011d 0B       		.uleb128 0xb
 2930 011e 3B       		.uleb128 0x3b
 2931 011f 0B       		.uleb128 0xb
 2932 0120 01       		.uleb128 0x1
 2933 0121 13       		.uleb128 0x13
 2934 0122 00       		.byte	0
 2935 0123 00       		.byte	0
 2936 0124 19       		.uleb128 0x19
 2937 0125 0D       		.uleb128 0xd
 2938 0126 00       		.byte	0
 2939 0127 03       		.uleb128 0x3
 2940 0128 0E       		.uleb128 0xe
 2941 0129 3A       		.uleb128 0x3a
 2942 012a 0B       		.uleb128 0xb
 2943 012b 3B       		.uleb128 0x3b
 2944 012c 05       		.uleb128 0x5
 2945 012d 49       		.uleb128 0x49
 2946 012e 13       		.uleb128 0x13
 2947 012f 00       		.byte	0
 2948 0130 00       		.byte	0
 2949 0131 1A       		.uleb128 0x1a
 2950 0132 26       		.uleb128 0x26
 2951 0133 00       		.byte	0
 2952 0134 49       		.uleb128 0x49
 2953 0135 13       		.uleb128 0x13
 2954 0136 00       		.byte	0
 2955 0137 00       		.byte	0
 2956 0138 1B       		.uleb128 0x1b
 2957 0139 0D       		.uleb128 0xd
 2958 013a 00       		.byte	0
 2959 013b 03       		.uleb128 0x3
 2960 013c 08       		.uleb128 0x8
 2961 013d 3A       		.uleb128 0x3a
 2962 013e 0B       		.uleb128 0xb
 2963 013f 3B       		.uleb128 0x3b
 2964 0140 0B       		.uleb128 0xb
ARM GAS  C:\Users\ADMINI~1\AppData\Local\Temp\ccwJb011.s 			page 53


 2965 0141 49       		.uleb128 0x49
 2966 0142 13       		.uleb128 0x13
 2967 0143 00       		.byte	0
 2968 0144 00       		.byte	0
 2969 0145 1C       		.uleb128 0x1c
 2970 0146 2E       		.uleb128 0x2e
 2971 0147 00       		.byte	0
 2972 0148 3F       		.uleb128 0x3f
 2973 0149 19       		.uleb128 0x19
 2974 014a 03       		.uleb128 0x3
 2975 014b 0E       		.uleb128 0xe
 2976 014c 3A       		.uleb128 0x3a
 2977 014d 0B       		.uleb128 0xb
 2978 014e 3B       		.uleb128 0x3b
 2979 014f 0B       		.uleb128 0xb
 2980 0150 27       		.uleb128 0x27
 2981 0151 19       		.uleb128 0x19
 2982 0152 49       		.uleb128 0x49
 2983 0153 13       		.uleb128 0x13
 2984 0154 20       		.uleb128 0x20
 2985 0155 0B       		.uleb128 0xb
 2986 0156 00       		.byte	0
 2987 0157 00       		.byte	0
 2988 0158 1D       		.uleb128 0x1d
 2989 0159 2E       		.uleb128 0x2e
 2990 015a 01       		.byte	0x1
 2991 015b 3F       		.uleb128 0x3f
 2992 015c 19       		.uleb128 0x19
 2993 015d 03       		.uleb128 0x3
 2994 015e 0E       		.uleb128 0xe
 2995 015f 3A       		.uleb128 0x3a
 2996 0160 0B       		.uleb128 0xb
 2997 0161 3B       		.uleb128 0x3b
 2998 0162 0B       		.uleb128 0xb
 2999 0163 27       		.uleb128 0x27
 3000 0164 19       		.uleb128 0x19
 3001 0165 20       		.uleb128 0x20
 3002 0166 0B       		.uleb128 0xb
 3003 0167 01       		.uleb128 0x1
 3004 0168 13       		.uleb128 0x13
 3005 0169 00       		.byte	0
 3006 016a 00       		.byte	0
 3007 016b 1E       		.uleb128 0x1e
 3008 016c 05       		.uleb128 0x5
 3009 016d 00       		.byte	0
 3010 016e 03       		.uleb128 0x3
 3011 016f 0E       		.uleb128 0xe
 3012 0170 3A       		.uleb128 0x3a
 3013 0171 0B       		.uleb128 0xb
 3014 0172 3B       		.uleb128 0x3b
 3015 0173 0B       		.uleb128 0xb
 3016 0174 49       		.uleb128 0x49
 3017 0175 13       		.uleb128 0x13
 3018 0176 00       		.byte	0
 3019 0177 00       		.byte	0
 3020 0178 1F       		.uleb128 0x1f
 3021 0179 34       		.uleb128 0x34
ARM GAS  C:\Users\ADMINI~1\AppData\Local\Temp\ccwJb011.s 			page 54


 3022 017a 00       		.byte	0
 3023 017b 03       		.uleb128 0x3
 3024 017c 08       		.uleb128 0x8
 3025 017d 3A       		.uleb128 0x3a
 3026 017e 0B       		.uleb128 0xb
 3027 017f 3B       		.uleb128 0x3b
 3028 0180 0B       		.uleb128 0xb
 3029 0181 49       		.uleb128 0x49
 3030 0182 13       		.uleb128 0x13
 3031 0183 00       		.byte	0
 3032 0184 00       		.byte	0
 3033 0185 20       		.uleb128 0x20
 3034 0186 34       		.uleb128 0x34
 3035 0187 00       		.byte	0
 3036 0188 03       		.uleb128 0x3
 3037 0189 0E       		.uleb128 0xe
 3038 018a 3A       		.uleb128 0x3a
 3039 018b 0B       		.uleb128 0xb
 3040 018c 3B       		.uleb128 0x3b
 3041 018d 0B       		.uleb128 0xb
 3042 018e 49       		.uleb128 0x49
 3043 018f 13       		.uleb128 0x13
 3044 0190 00       		.byte	0
 3045 0191 00       		.byte	0
 3046 0192 21       		.uleb128 0x21
 3047 0193 2E       		.uleb128 0x2e
 3048 0194 01       		.byte	0x1
 3049 0195 03       		.uleb128 0x3
 3050 0196 0E       		.uleb128 0xe
 3051 0197 3A       		.uleb128 0x3a
 3052 0198 0B       		.uleb128 0xb
 3053 0199 3B       		.uleb128 0x3b
 3054 019a 0B       		.uleb128 0xb
 3055 019b 27       		.uleb128 0x27
 3056 019c 19       		.uleb128 0x19
 3057 019d 11       		.uleb128 0x11
 3058 019e 01       		.uleb128 0x1
 3059 019f 12       		.uleb128 0x12
 3060 01a0 06       		.uleb128 0x6
 3061 01a1 40       		.uleb128 0x40
 3062 01a2 18       		.uleb128 0x18
 3063 01a3 9742     		.uleb128 0x2117
 3064 01a5 19       		.uleb128 0x19
 3065 01a6 01       		.uleb128 0x1
 3066 01a7 13       		.uleb128 0x13
 3067 01a8 00       		.byte	0
 3068 01a9 00       		.byte	0
 3069 01aa 22       		.uleb128 0x22
 3070 01ab 05       		.uleb128 0x5
 3071 01ac 00       		.byte	0
 3072 01ad 03       		.uleb128 0x3
 3073 01ae 0E       		.uleb128 0xe
 3074 01af 3A       		.uleb128 0x3a
 3075 01b0 0B       		.uleb128 0xb
 3076 01b1 3B       		.uleb128 0x3b
 3077 01b2 0B       		.uleb128 0xb
 3078 01b3 49       		.uleb128 0x49
ARM GAS  C:\Users\ADMINI~1\AppData\Local\Temp\ccwJb011.s 			page 55


 3079 01b4 13       		.uleb128 0x13
 3080 01b5 02       		.uleb128 0x2
 3081 01b6 18       		.uleb128 0x18
 3082 01b7 00       		.byte	0
 3083 01b8 00       		.byte	0
 3084 01b9 23       		.uleb128 0x23
 3085 01ba 05       		.uleb128 0x5
 3086 01bb 00       		.byte	0
 3087 01bc 03       		.uleb128 0x3
 3088 01bd 0E       		.uleb128 0xe
 3089 01be 3A       		.uleb128 0x3a
 3090 01bf 0B       		.uleb128 0xb
 3091 01c0 3B       		.uleb128 0x3b
 3092 01c1 0B       		.uleb128 0xb
 3093 01c2 49       		.uleb128 0x49
 3094 01c3 13       		.uleb128 0x13
 3095 01c4 02       		.uleb128 0x2
 3096 01c5 17       		.uleb128 0x17
 3097 01c6 00       		.byte	0
 3098 01c7 00       		.byte	0
 3099 01c8 24       		.uleb128 0x24
 3100 01c9 34       		.uleb128 0x34
 3101 01ca 00       		.byte	0
 3102 01cb 03       		.uleb128 0x3
 3103 01cc 0E       		.uleb128 0xe
 3104 01cd 3A       		.uleb128 0x3a
 3105 01ce 0B       		.uleb128 0xb
 3106 01cf 3B       		.uleb128 0x3b
 3107 01d0 0B       		.uleb128 0xb
 3108 01d1 49       		.uleb128 0x49
 3109 01d2 13       		.uleb128 0x13
 3110 01d3 02       		.uleb128 0x2
 3111 01d4 18       		.uleb128 0x18
 3112 01d5 00       		.byte	0
 3113 01d6 00       		.byte	0
 3114 01d7 25       		.uleb128 0x25
 3115 01d8 34       		.uleb128 0x34
 3116 01d9 00       		.byte	0
 3117 01da 03       		.uleb128 0x3
 3118 01db 0E       		.uleb128 0xe
 3119 01dc 3A       		.uleb128 0x3a
 3120 01dd 0B       		.uleb128 0xb
 3121 01de 3B       		.uleb128 0x3b
 3122 01df 0B       		.uleb128 0xb
 3123 01e0 49       		.uleb128 0x49
 3124 01e1 13       		.uleb128 0x13
 3125 01e2 1C       		.uleb128 0x1c
 3126 01e3 06       		.uleb128 0x6
 3127 01e4 00       		.byte	0
 3128 01e5 00       		.byte	0
 3129 01e6 26       		.uleb128 0x26
 3130 01e7 1D       		.uleb128 0x1d
 3131 01e8 01       		.byte	0x1
 3132 01e9 31       		.uleb128 0x31
 3133 01ea 13       		.uleb128 0x13
 3134 01eb 52       		.uleb128 0x52
 3135 01ec 01       		.uleb128 0x1
ARM GAS  C:\Users\ADMINI~1\AppData\Local\Temp\ccwJb011.s 			page 56


 3136 01ed 55       		.uleb128 0x55
 3137 01ee 17       		.uleb128 0x17
 3138 01ef 58       		.uleb128 0x58
 3139 01f0 0B       		.uleb128 0xb
 3140 01f1 59       		.uleb128 0x59
 3141 01f2 0B       		.uleb128 0xb
 3142 01f3 01       		.uleb128 0x1
 3143 01f4 13       		.uleb128 0x13
 3144 01f5 00       		.byte	0
 3145 01f6 00       		.byte	0
 3146 01f7 27       		.uleb128 0x27
 3147 01f8 05       		.uleb128 0x5
 3148 01f9 00       		.byte	0
 3149 01fa 31       		.uleb128 0x31
 3150 01fb 13       		.uleb128 0x13
 3151 01fc 02       		.uleb128 0x2
 3152 01fd 17       		.uleb128 0x17
 3153 01fe 00       		.byte	0
 3154 01ff 00       		.byte	0
 3155 0200 28       		.uleb128 0x28
 3156 0201 0B       		.uleb128 0xb
 3157 0202 01       		.byte	0x1
 3158 0203 55       		.uleb128 0x55
 3159 0204 17       		.uleb128 0x17
 3160 0205 00       		.byte	0
 3161 0206 00       		.byte	0
 3162 0207 29       		.uleb128 0x29
 3163 0208 34       		.uleb128 0x34
 3164 0209 00       		.byte	0
 3165 020a 31       		.uleb128 0x31
 3166 020b 13       		.uleb128 0x13
 3167 020c 00       		.byte	0
 3168 020d 00       		.byte	0
 3169 020e 2A       		.uleb128 0x2a
 3170 020f 34       		.uleb128 0x34
 3171 0210 00       		.byte	0
 3172 0211 31       		.uleb128 0x31
 3173 0212 13       		.uleb128 0x13
 3174 0213 02       		.uleb128 0x2
 3175 0214 17       		.uleb128 0x17
 3176 0215 00       		.byte	0
 3177 0216 00       		.byte	0
 3178 0217 2B       		.uleb128 0x2b
 3179 0218 1D       		.uleb128 0x1d
 3180 0219 00       		.byte	0
 3181 021a 31       		.uleb128 0x31
 3182 021b 13       		.uleb128 0x13
 3183 021c 52       		.uleb128 0x52
 3184 021d 01       		.uleb128 0x1
 3185 021e 55       		.uleb128 0x55
 3186 021f 17       		.uleb128 0x17
 3187 0220 58       		.uleb128 0x58
 3188 0221 0B       		.uleb128 0xb
 3189 0222 59       		.uleb128 0x59
 3190 0223 0B       		.uleb128 0xb
 3191 0224 00       		.byte	0
 3192 0225 00       		.byte	0
ARM GAS  C:\Users\ADMINI~1\AppData\Local\Temp\ccwJb011.s 			page 57


 3193 0226 2C       		.uleb128 0x2c
 3194 0227 1D       		.uleb128 0x1d
 3195 0228 00       		.byte	0
 3196 0229 31       		.uleb128 0x31
 3197 022a 13       		.uleb128 0x13
 3198 022b 11       		.uleb128 0x11
 3199 022c 01       		.uleb128 0x1
 3200 022d 12       		.uleb128 0x12
 3201 022e 06       		.uleb128 0x6
 3202 022f 58       		.uleb128 0x58
 3203 0230 0B       		.uleb128 0xb
 3204 0231 59       		.uleb128 0x59
 3205 0232 0B       		.uleb128 0xb
 3206 0233 00       		.byte	0
 3207 0234 00       		.byte	0
 3208 0235 2D       		.uleb128 0x2d
 3209 0236 1D       		.uleb128 0x1d
 3210 0237 01       		.byte	0x1
 3211 0238 31       		.uleb128 0x31
 3212 0239 13       		.uleb128 0x13
 3213 023a 11       		.uleb128 0x11
 3214 023b 01       		.uleb128 0x1
 3215 023c 12       		.uleb128 0x12
 3216 023d 06       		.uleb128 0x6
 3217 023e 58       		.uleb128 0x58
 3218 023f 0B       		.uleb128 0xb
 3219 0240 59       		.uleb128 0x59
 3220 0241 0B       		.uleb128 0xb
 3221 0242 01       		.uleb128 0x1
 3222 0243 13       		.uleb128 0x13
 3223 0244 00       		.byte	0
 3224 0245 00       		.byte	0
 3225 0246 2E       		.uleb128 0x2e
 3226 0247 0B       		.uleb128 0xb
 3227 0248 01       		.byte	0x1
 3228 0249 11       		.uleb128 0x11
 3229 024a 01       		.uleb128 0x1
 3230 024b 12       		.uleb128 0x12
 3231 024c 06       		.uleb128 0x6
 3232 024d 00       		.byte	0
 3233 024e 00       		.byte	0
 3234 024f 2F       		.uleb128 0x2f
 3235 0250 1D       		.uleb128 0x1d
 3236 0251 01       		.byte	0x1
 3237 0252 31       		.uleb128 0x31
 3238 0253 13       		.uleb128 0x13
 3239 0254 11       		.uleb128 0x11
 3240 0255 01       		.uleb128 0x1
 3241 0256 12       		.uleb128 0x12
 3242 0257 06       		.uleb128 0x6
 3243 0258 58       		.uleb128 0x58
 3244 0259 0B       		.uleb128 0xb
 3245 025a 59       		.uleb128 0x59
 3246 025b 0B       		.uleb128 0xb
 3247 025c 00       		.byte	0
 3248 025d 00       		.byte	0
 3249 025e 30       		.uleb128 0x30
ARM GAS  C:\Users\ADMINI~1\AppData\Local\Temp\ccwJb011.s 			page 58


 3250 025f 2E       		.uleb128 0x2e
 3251 0260 01       		.byte	0x1
 3252 0261 3F       		.uleb128 0x3f
 3253 0262 19       		.uleb128 0x19
 3254 0263 03       		.uleb128 0x3
 3255 0264 0E       		.uleb128 0xe
 3256 0265 3A       		.uleb128 0x3a
 3257 0266 0B       		.uleb128 0xb
 3258 0267 3B       		.uleb128 0x3b
 3259 0268 0B       		.uleb128 0xb
 3260 0269 27       		.uleb128 0x27
 3261 026a 19       		.uleb128 0x19
 3262 026b 11       		.uleb128 0x11
 3263 026c 01       		.uleb128 0x1
 3264 026d 12       		.uleb128 0x12
 3265 026e 06       		.uleb128 0x6
 3266 026f 40       		.uleb128 0x40
 3267 0270 18       		.uleb128 0x18
 3268 0271 9742     		.uleb128 0x2117
 3269 0273 19       		.uleb128 0x19
 3270 0274 01       		.uleb128 0x1
 3271 0275 13       		.uleb128 0x13
 3272 0276 00       		.byte	0
 3273 0277 00       		.byte	0
 3274 0278 31       		.uleb128 0x31
 3275 0279 898201   		.uleb128 0x4109
 3276 027c 01       		.byte	0x1
 3277 027d 11       		.uleb128 0x11
 3278 027e 01       		.uleb128 0x1
 3279 027f 31       		.uleb128 0x31
 3280 0280 13       		.uleb128 0x13
 3281 0281 01       		.uleb128 0x1
 3282 0282 13       		.uleb128 0x13
 3283 0283 00       		.byte	0
 3284 0284 00       		.byte	0
 3285 0285 32       		.uleb128 0x32
 3286 0286 8A8201   		.uleb128 0x410a
 3287 0289 00       		.byte	0
 3288 028a 02       		.uleb128 0x2
 3289 028b 18       		.uleb128 0x18
 3290 028c 9142     		.uleb128 0x2111
 3291 028e 18       		.uleb128 0x18
 3292 028f 00       		.byte	0
 3293 0290 00       		.byte	0
 3294 0291 33       		.uleb128 0x33
 3295 0292 898201   		.uleb128 0x4109
 3296 0295 01       		.byte	0x1
 3297 0296 11       		.uleb128 0x11
 3298 0297 01       		.uleb128 0x1
 3299 0298 9542     		.uleb128 0x2115
 3300 029a 19       		.uleb128 0x19
 3301 029b 31       		.uleb128 0x31
 3302 029c 13       		.uleb128 0x13
 3303 029d 00       		.byte	0
 3304 029e 00       		.byte	0
 3305 029f 34       		.uleb128 0x34
 3306 02a0 2E       		.uleb128 0x2e
ARM GAS  C:\Users\ADMINI~1\AppData\Local\Temp\ccwJb011.s 			page 59


 3307 02a1 00       		.byte	0
 3308 02a2 31       		.uleb128 0x31
 3309 02a3 13       		.uleb128 0x13
 3310 02a4 11       		.uleb128 0x11
 3311 02a5 01       		.uleb128 0x1
 3312 02a6 12       		.uleb128 0x12
 3313 02a7 06       		.uleb128 0x6
 3314 02a8 40       		.uleb128 0x40
 3315 02a9 18       		.uleb128 0x18
 3316 02aa 9742     		.uleb128 0x2117
 3317 02ac 19       		.uleb128 0x19
 3318 02ad 00       		.byte	0
 3319 02ae 00       		.byte	0
 3320 02af 35       		.uleb128 0x35
 3321 02b0 2E       		.uleb128 0x2e
 3322 02b1 01       		.byte	0x1
 3323 02b2 31       		.uleb128 0x31
 3324 02b3 13       		.uleb128 0x13
 3325 02b4 11       		.uleb128 0x11
 3326 02b5 01       		.uleb128 0x1
 3327 02b6 12       		.uleb128 0x12
 3328 02b7 06       		.uleb128 0x6
 3329 02b8 40       		.uleb128 0x40
 3330 02b9 18       		.uleb128 0x18
 3331 02ba 9742     		.uleb128 0x2117
 3332 02bc 19       		.uleb128 0x19
 3333 02bd 01       		.uleb128 0x1
 3334 02be 13       		.uleb128 0x13
 3335 02bf 00       		.byte	0
 3336 02c0 00       		.byte	0
 3337 02c1 36       		.uleb128 0x36
 3338 02c2 05       		.uleb128 0x5
 3339 02c3 00       		.byte	0
 3340 02c4 31       		.uleb128 0x31
 3341 02c5 13       		.uleb128 0x13
 3342 02c6 02       		.uleb128 0x2
 3343 02c7 18       		.uleb128 0x18
 3344 02c8 00       		.byte	0
 3345 02c9 00       		.byte	0
 3346 02ca 37       		.uleb128 0x37
 3347 02cb 34       		.uleb128 0x34
 3348 02cc 00       		.byte	0
 3349 02cd 31       		.uleb128 0x31
 3350 02ce 13       		.uleb128 0x13
 3351 02cf 1C       		.uleb128 0x1c
 3352 02d0 05       		.uleb128 0x5
 3353 02d1 00       		.byte	0
 3354 02d2 00       		.byte	0
 3355 02d3 38       		.uleb128 0x38
 3356 02d4 898201   		.uleb128 0x4109
 3357 02d7 00       		.byte	0
 3358 02d8 11       		.uleb128 0x11
 3359 02d9 01       		.uleb128 0x1
 3360 02da 31       		.uleb128 0x31
 3361 02db 13       		.uleb128 0x13
 3362 02dc 00       		.byte	0
 3363 02dd 00       		.byte	0
ARM GAS  C:\Users\ADMINI~1\AppData\Local\Temp\ccwJb011.s 			page 60


 3364 02de 39       		.uleb128 0x39
 3365 02df 898201   		.uleb128 0x4109
 3366 02e2 00       		.byte	0
 3367 02e3 11       		.uleb128 0x11
 3368 02e4 01       		.uleb128 0x1
 3369 02e5 9542     		.uleb128 0x2115
 3370 02e7 19       		.uleb128 0x19
 3371 02e8 31       		.uleb128 0x31
 3372 02e9 13       		.uleb128 0x13
 3373 02ea 00       		.byte	0
 3374 02eb 00       		.byte	0
 3375 02ec 3A       		.uleb128 0x3a
 3376 02ed 34       		.uleb128 0x34
 3377 02ee 00       		.byte	0
 3378 02ef 03       		.uleb128 0x3
 3379 02f0 0E       		.uleb128 0xe
 3380 02f1 3A       		.uleb128 0x3a
 3381 02f2 0B       		.uleb128 0xb
 3382 02f3 3B       		.uleb128 0x3b
 3383 02f4 05       		.uleb128 0x5
 3384 02f5 49       		.uleb128 0x49
 3385 02f6 13       		.uleb128 0x13
 3386 02f7 3F       		.uleb128 0x3f
 3387 02f8 19       		.uleb128 0x19
 3388 02f9 3C       		.uleb128 0x3c
 3389 02fa 19       		.uleb128 0x19
 3390 02fb 00       		.byte	0
 3391 02fc 00       		.byte	0
 3392 02fd 3B       		.uleb128 0x3b
 3393 02fe 34       		.uleb128 0x34
 3394 02ff 00       		.byte	0
 3395 0300 03       		.uleb128 0x3
 3396 0301 08       		.uleb128 0x8
 3397 0302 3A       		.uleb128 0x3a
 3398 0303 0B       		.uleb128 0xb
 3399 0304 3B       		.uleb128 0x3b
 3400 0305 05       		.uleb128 0x5
 3401 0306 49       		.uleb128 0x49
 3402 0307 13       		.uleb128 0x13
 3403 0308 3F       		.uleb128 0x3f
 3404 0309 19       		.uleb128 0x19
 3405 030a 3C       		.uleb128 0x3c
 3406 030b 19       		.uleb128 0x19
 3407 030c 00       		.byte	0
 3408 030d 00       		.byte	0
 3409 030e 3C       		.uleb128 0x3c
 3410 030f 2E       		.uleb128 0x2e
 3411 0310 00       		.byte	0
 3412 0311 3F       		.uleb128 0x3f
 3413 0312 19       		.uleb128 0x19
 3414 0313 3C       		.uleb128 0x3c
 3415 0314 19       		.uleb128 0x19
 3416 0315 6E       		.uleb128 0x6e
 3417 0316 0E       		.uleb128 0xe
 3418 0317 03       		.uleb128 0x3
 3419 0318 0E       		.uleb128 0xe
 3420 0319 3A       		.uleb128 0x3a
ARM GAS  C:\Users\ADMINI~1\AppData\Local\Temp\ccwJb011.s 			page 61


 3421 031a 0B       		.uleb128 0xb
 3422 031b 3B       		.uleb128 0x3b
 3423 031c 0B       		.uleb128 0xb
 3424 031d 00       		.byte	0
 3425 031e 00       		.byte	0
 3426 031f 3D       		.uleb128 0x3d
 3427 0320 2E       		.uleb128 0x2e
 3428 0321 00       		.byte	0
 3429 0322 3F       		.uleb128 0x3f
 3430 0323 19       		.uleb128 0x19
 3431 0324 3C       		.uleb128 0x3c
 3432 0325 19       		.uleb128 0x19
 3433 0326 6E       		.uleb128 0x6e
 3434 0327 0E       		.uleb128 0xe
 3435 0328 03       		.uleb128 0x3
 3436 0329 0E       		.uleb128 0xe
 3437 032a 3A       		.uleb128 0x3a
 3438 032b 0B       		.uleb128 0xb
 3439 032c 3B       		.uleb128 0x3b
 3440 032d 05       		.uleb128 0x5
 3441 032e 00       		.byte	0
 3442 032f 00       		.byte	0
 3443 0330 00       		.byte	0
 3444              		.section	.debug_loc,"",%progbits
 3445              	.Ldebug_loc0:
 3446              	.LLST0:
 3447 0000 00000000 		.4byte	.LVL1
 3448 0004 40000000 		.4byte	.LVL8
 3449 0008 0100     		.2byte	0x1
 3450 000a 50       		.byte	0x50
 3451 000b 40000000 		.4byte	.LVL8
 3452 000f 94000000 		.4byte	.LFE263
 3453 0013 0400     		.2byte	0x4
 3454 0015 F3       		.byte	0xf3
 3455 0016 01       		.uleb128 0x1
 3456 0017 50       		.byte	0x50
 3457 0018 9F       		.byte	0x9f
 3458 0019 00000000 		.4byte	0
 3459 001d 00000000 		.4byte	0
 3460              	.LLST1:
 3461 0021 18000000 		.4byte	.LVL2
 3462 0025 20000000 		.4byte	.LVL4
 3463 0029 0200     		.2byte	0x2
 3464 002b 31       		.byte	0x31
 3465 002c 9F       		.byte	0x9f
 3466 002d 00000000 		.4byte	0
 3467 0031 00000000 		.4byte	0
 3468              	.LLST2:
 3469 0035 1C000000 		.4byte	.LVL3
 3470 0039 20000000 		.4byte	.LVL4
 3471 003d 0100     		.2byte	0x1
 3472 003f 52       		.byte	0x52
 3473 0040 00000000 		.4byte	0
 3474 0044 00000000 		.4byte	0
 3475              	.LLST3:
 3476 0048 28000000 		.4byte	.LVL5
 3477 004c 30000000 		.4byte	.LVL7
ARM GAS  C:\Users\ADMINI~1\AppData\Local\Temp\ccwJb011.s 			page 62


 3478 0050 0200     		.2byte	0x2
 3479 0052 31       		.byte	0x31
 3480 0053 9F       		.byte	0x9f
 3481 0054 00000000 		.4byte	0
 3482 0058 00000000 		.4byte	0
 3483              	.LLST4:
 3484 005c 2C000000 		.4byte	.LVL6
 3485 0060 30000000 		.4byte	.LVL7
 3486 0064 0100     		.2byte	0x1
 3487 0066 52       		.byte	0x52
 3488 0067 00000000 		.4byte	0
 3489 006b 00000000 		.4byte	0
 3490              	.LLST5:
 3491 006f 50000000 		.4byte	.LVL9
 3492 0073 58000000 		.4byte	.LVL11
 3493 0077 0200     		.2byte	0x2
 3494 0079 31       		.byte	0x31
 3495 007a 9F       		.byte	0x9f
 3496 007b 00000000 		.4byte	0
 3497 007f 00000000 		.4byte	0
 3498              	.LLST6:
 3499 0083 54000000 		.4byte	.LVL10
 3500 0087 58000000 		.4byte	.LVL11
 3501 008b 0100     		.2byte	0x1
 3502 008d 52       		.byte	0x52
 3503 008e 00000000 		.4byte	0
 3504 0092 00000000 		.4byte	0
 3505              	.LLST7:
 3506 0096 60000000 		.4byte	.LVL12
 3507 009a 68000000 		.4byte	.LVL14
 3508 009e 0200     		.2byte	0x2
 3509 00a0 31       		.byte	0x31
 3510 00a1 9F       		.byte	0x9f
 3511 00a2 00000000 		.4byte	0
 3512 00a6 00000000 		.4byte	0
 3513              	.LLST8:
 3514 00aa 64000000 		.4byte	.LVL13
 3515 00ae 68000000 		.4byte	.LVL14
 3516 00b2 0100     		.2byte	0x1
 3517 00b4 52       		.byte	0x52
 3518 00b5 00000000 		.4byte	0
 3519 00b9 00000000 		.4byte	0
 3520              	.LLST9:
 3521 00bd 6E000000 		.4byte	.LVL15
 3522 00c1 76000000 		.4byte	.LVL17
 3523 00c5 0200     		.2byte	0x2
 3524 00c7 31       		.byte	0x31
 3525 00c8 9F       		.byte	0x9f
 3526 00c9 00000000 		.4byte	0
 3527 00cd 00000000 		.4byte	0
 3528              	.LLST10:
 3529 00d1 72000000 		.4byte	.LVL16
 3530 00d5 76000000 		.4byte	.LVL17
 3531 00d9 0100     		.2byte	0x1
 3532 00db 52       		.byte	0x52
 3533 00dc 00000000 		.4byte	0
 3534 00e0 00000000 		.4byte	0
ARM GAS  C:\Users\ADMINI~1\AppData\Local\Temp\ccwJb011.s 			page 63


 3535              	.LLST11:
 3536 00e4 10000000 		.4byte	.LVL22
 3537 00e8 12000000 		.4byte	.LVL23
 3538 00ec 0100     		.2byte	0x1
 3539 00ee 53       		.byte	0x53
 3540 00ef 00000000 		.4byte	0
 3541 00f3 00000000 		.4byte	0
 3542              	.LLST12:
 3543 00f7 0A000000 		.4byte	.LVL33
 3544 00fb 1E000000 		.4byte	.LVL34
 3545 00ff 0600     		.2byte	0x6
 3546 0101 0C       		.byte	0xc
 3547 0102 00300140 		.4byte	0x40013000
 3548 0106 9F       		.byte	0x9f
 3549 0107 00000000 		.4byte	0
 3550 010b 00000000 		.4byte	0
 3551              	.LLST13:
 3552 010f 00000000 		.4byte	.LVL35
 3553 0113 00000000 		.4byte	.LVL35
 3554 0117 0100     		.2byte	0x1
 3555 0119 50       		.byte	0x50
 3556 011a 00000000 		.4byte	.LVL35
 3557 011e 04000000 		.4byte	.LVL36
 3558 0122 0700     		.2byte	0x7
 3559 0124 70       		.byte	0x70
 3560 0125 00       		.sleb128 0
 3561 0126 0A       		.byte	0xa
 3562 0127 FF0F     		.2byte	0xfff
 3563 0129 1A       		.byte	0x1a
 3564 012a 9F       		.byte	0x9f
 3565 012b 04000000 		.4byte	.LVL36
 3566 012f 08000000 		.4byte	.LFE264
 3567 0133 0800     		.2byte	0x8
 3568 0135 F3       		.byte	0xf3
 3569 0136 01       		.uleb128 0x1
 3570 0137 50       		.byte	0x50
 3571 0138 0A       		.byte	0xa
 3572 0139 FF0F     		.2byte	0xfff
 3573 013b 1A       		.byte	0x1a
 3574 013c 9F       		.byte	0x9f
 3575 013d 00000000 		.4byte	0
 3576 0141 00000000 		.4byte	0
 3577              	.LLST14:
 3578 0145 00000000 		.4byte	.LVL38
 3579 0149 00000000 		.4byte	.LVL38
 3580 014d 0100     		.2byte	0x1
 3581 014f 50       		.byte	0x50
 3582 0150 00000000 		.4byte	.LVL38
 3583 0154 04000000 		.4byte	.LVL39
 3584 0158 0700     		.2byte	0x7
 3585 015a 70       		.byte	0x70
 3586 015b 00       		.sleb128 0
 3587 015c 0A       		.byte	0xa
 3588 015d FF0F     		.2byte	0xfff
 3589 015f 1A       		.byte	0x1a
 3590 0160 9F       		.byte	0x9f
 3591 0161 04000000 		.4byte	.LVL39
ARM GAS  C:\Users\ADMINI~1\AppData\Local\Temp\ccwJb011.s 			page 64


 3592 0165 0C000000 		.4byte	.LFE265
 3593 0169 0800     		.2byte	0x8
 3594 016b F3       		.byte	0xf3
 3595 016c 01       		.uleb128 0x1
 3596 016d 50       		.byte	0x50
 3597 016e 0A       		.byte	0xa
 3598 016f FF0F     		.2byte	0xfff
 3599 0171 1A       		.byte	0x1a
 3600 0172 9F       		.byte	0x9f
 3601 0173 00000000 		.4byte	0
 3602 0177 00000000 		.4byte	0
 3603              	.LLST15:
 3604 017b 00000000 		.4byte	.LVL41
 3605 017f 00000000 		.4byte	.LVL41
 3606 0183 0100     		.2byte	0x1
 3607 0185 50       		.byte	0x50
 3608 0186 00000000 		.4byte	.LVL41
 3609 018a 04000000 		.4byte	.LVL42
 3610 018e 0700     		.2byte	0x7
 3611 0190 70       		.byte	0x70
 3612 0191 00       		.sleb128 0
 3613 0192 0A       		.byte	0xa
 3614 0193 FF0F     		.2byte	0xfff
 3615 0195 1A       		.byte	0x1a
 3616 0196 9F       		.byte	0x9f
 3617 0197 04000000 		.4byte	.LVL42
 3618 019b 0C000000 		.4byte	.LFE266
 3619 019f 0800     		.2byte	0x8
 3620 01a1 F3       		.byte	0xf3
 3621 01a2 01       		.uleb128 0x1
 3622 01a3 50       		.byte	0x50
 3623 01a4 0A       		.byte	0xa
 3624 01a5 FF0F     		.2byte	0xfff
 3625 01a7 1A       		.byte	0x1a
 3626 01a8 9F       		.byte	0x9f
 3627 01a9 00000000 		.4byte	0
 3628 01ad 00000000 		.4byte	0
 3629              		.section	.debug_aranges,"",%progbits
 3630 0000 6C000000 		.4byte	0x6c
 3631 0004 0200     		.2byte	0x2
 3632 0006 00000000 		.4byte	.Ldebug_info0
 3633 000a 04       		.byte	0x4
 3634 000b 00       		.byte	0
 3635 000c 0000     		.2byte	0
 3636 000e 0000     		.2byte	0
 3637 0010 00000000 		.4byte	.LFB256
 3638 0014 02000000 		.4byte	.LFE256-.LFB256
 3639 0018 00000000 		.4byte	.LFB263
 3640 001c 94000000 		.4byte	.LFE263-.LFB263
 3641 0020 00000000 		.4byte	.LFB257
 3642 0024 24000000 		.4byte	.LFE257-.LFB257
 3643 0028 00000000 		.4byte	.LFB258
 3644 002c 0C000000 		.4byte	.LFE258-.LFB258
 3645 0030 00000000 		.4byte	.LFB259
 3646 0034 1C000000 		.4byte	.LFE259-.LFB259
 3647 0038 00000000 		.4byte	.LFB260
 3648 003c 68000000 		.4byte	.LFE260-.LFB260
ARM GAS  C:\Users\ADMINI~1\AppData\Local\Temp\ccwJb011.s 			page 65


 3649 0040 00000000 		.4byte	.LFB261
 3650 0044 14000000 		.4byte	.LFE261-.LFB261
 3651 0048 00000000 		.4byte	.LFB262
 3652 004c 24000000 		.4byte	.LFE262-.LFB262
 3653 0050 00000000 		.4byte	.LFB264
 3654 0054 08000000 		.4byte	.LFE264-.LFB264
 3655 0058 00000000 		.4byte	.LFB265
 3656 005c 0C000000 		.4byte	.LFE265-.LFB265
 3657 0060 00000000 		.4byte	.LFB266
 3658 0064 0C000000 		.4byte	.LFE266-.LFB266
 3659 0068 00000000 		.4byte	0
 3660 006c 00000000 		.4byte	0
 3661              		.section	.debug_ranges,"",%progbits
 3662              	.Ldebug_ranges0:
 3663 0000 0C000000 		.4byte	.LBB50
 3664 0004 0E000000 		.4byte	.LBE50
 3665 0008 10000000 		.4byte	.LBB62
 3666 000c 12000000 		.4byte	.LBE62
 3667 0010 18000000 		.4byte	.LBB63
 3668 0014 20000000 		.4byte	.LBE63
 3669 0018 00000000 		.4byte	0
 3670 001c 00000000 		.4byte	0
 3671 0020 0C000000 		.4byte	.LBB52
 3672 0024 0E000000 		.4byte	.LBE52
 3673 0028 10000000 		.4byte	.LBB56
 3674 002c 12000000 		.4byte	.LBE56
 3675 0030 18000000 		.4byte	.LBB57
 3676 0034 1A000000 		.4byte	.LBE57
 3677 0038 00000000 		.4byte	0
 3678 003c 00000000 		.4byte	0
 3679 0040 00000000 		.4byte	.LFB256
 3680 0044 02000000 		.4byte	.LFE256
 3681 0048 00000000 		.4byte	.LFB263
 3682 004c 94000000 		.4byte	.LFE263
 3683 0050 00000000 		.4byte	.LFB257
 3684 0054 24000000 		.4byte	.LFE257
 3685 0058 00000000 		.4byte	.LFB258
 3686 005c 0C000000 		.4byte	.LFE258
 3687 0060 00000000 		.4byte	.LFB259
 3688 0064 1C000000 		.4byte	.LFE259
 3689 0068 00000000 		.4byte	.LFB260
 3690 006c 68000000 		.4byte	.LFE260
 3691 0070 00000000 		.4byte	.LFB261
 3692 0074 14000000 		.4byte	.LFE261
 3693 0078 00000000 		.4byte	.LFB262
 3694 007c 24000000 		.4byte	.LFE262
 3695 0080 00000000 		.4byte	.LFB264
 3696 0084 08000000 		.4byte	.LFE264
 3697 0088 00000000 		.4byte	.LFB265
 3698 008c 0C000000 		.4byte	.LFE265
 3699 0090 00000000 		.4byte	.LFB266
 3700 0094 0C000000 		.4byte	.LFE266
 3701 0098 00000000 		.4byte	0
 3702 009c 00000000 		.4byte	0
 3703              		.section	.debug_line,"",%progbits
 3704              	.Ldebug_line0:
 3705 0000 E1040000 		.section	.debug_str,"MS",%progbits,1
ARM GAS  C:\Users\ADMINI~1\AppData\Local\Temp\ccwJb011.s 			page 66


 3705      0200A203 
 3705      00000201 
 3705      FB0E0D00 
 3705      01010101 
 3706              	.LASF56:
 3707 0000 72656164 		.ascii	"ready_list_t\000"
 3707      795F6C69 
 3707      73745F74 
 3707      00
 3708              	.LASF139:
 3709 000d 44494552 		.ascii	"DIER\000"
 3709      00
 3710              	.LASF2:
 3711 0012 73697A65 		.ascii	"size_t\000"
 3711      5F7400
 3712              	.LASF99:
 3713 0019 7264796D 		.ascii	"rdymsg\000"
 3713      736700
 3714              	.LASF19:
 3715 0020 75696E74 		.ascii	"uint64_t\000"
 3715      36345F74 
 3715      00
 3716              	.LASF3:
 3717 0029 5F5F7569 		.ascii	"__uint8_t\000"
 3717      6E74385F 
 3717      7400
 3718              	.LASF118:
 3719 0033 4F545950 		.ascii	"OTYPER\000"
 3719      455200
 3720              	.LASF131:
 3721 003a 4750545F 		.ascii	"GPT_ONESHOT\000"
 3721      4F4E4553 
 3721      484F5400 
 3722              	.LASF55:
 3723 0046 63685F74 		.ascii	"ch_threads_queue\000"
 3723      68726561 
 3723      64735F71 
 3723      75657565 
 3723      00
 3724              	.LASF75:
 3725 0057 73797374 		.ascii	"system_debug_t\000"
 3725      656D5F64 
 3725      65627567 
 3725      5F7400
 3726              	.LASF126:
 3727 0066 696F706F 		.ascii	"ioportmask_t\000"
 3727      72746D61 
 3727      736B5F74 
 3727      00
 3728              	.LASF91:
 3729 0073 44495341 		.ascii	"DISABLE\000"
 3729      424C4500 
 3730              	.LASF117:
 3731 007b 4D4F4445 		.ascii	"MODER\000"
 3731      5200
 3732              	.LASF14:
 3733 0081 6C6F6E67 		.ascii	"long long unsigned int\000"
ARM GAS  C:\Users\ADMINI~1\AppData\Local\Temp\ccwJb011.s 			page 67


 3733      206C6F6E 
 3733      6720756E 
 3733      7369676E 
 3733      65642069 
 3734              	.LASF120:
 3735 0098 50555044 		.ascii	"PUPDR\000"
 3735      5200
 3736              	.LASF100:
 3737 009e 65786974 		.ascii	"exitcode\000"
 3737      636F6465 
 3737      00
 3738              	.LASF82:
 3739 00a7 6D61696E 		.ascii	"mainthread\000"
 3739      74687265 
 3739      616400
 3740              	.LASF72:
 3741 00b2 76697274 		.ascii	"virtual_timers_list_t\000"
 3741      75616C5F 
 3741      74696D65 
 3741      72735F6C 
 3741      6973745F 
 3742              	.LASF170:
 3743 00c8 49544D5F 		.ascii	"ITM_RxBuffer\000"
 3743      52784275 
 3743      66666572 
 3743      00
 3744              	.LASF171:
 3745 00d5 47505444 		.ascii	"GPTD5\000"
 3745      3500
 3746              	.LASF149:
 3747 00db 66726571 		.ascii	"frequency\000"
 3747      75656E63 
 3747      7900
 3748              	.LASF33:
 3749 00e5 705F7072 		.ascii	"p_prio\000"
 3749      696F00
 3750              	.LASF140:
 3751 00ec 43434D52 		.ascii	"CCMR1\000"
 3751      3100
 3752              	.LASF141:
 3753 00f2 43434D52 		.ascii	"CCMR2\000"
 3753      3200
 3754              	.LASF145:
 3755 00f8 43434D52 		.ascii	"CCMR3\000"
 3755      3300
 3756              	.LASF1:
 3757 00fe 7369676E 		.ascii	"signed char\000"
 3757      65642063 
 3757      68617200 
 3758              	.LASF121:
 3759 010a 42535252 		.ascii	"BSRR\000"
 3759      00
 3760              	.LASF88:
 3761 010f 49325343 		.ascii	"I2SCFGR\000"
 3761      46475200 
 3762              	.LASF110:
 3763 0117 6D5F7175 		.ascii	"m_queue\000"
ARM GAS  C:\Users\ADMINI~1\AppData\Local\Temp\ccwJb011.s 			page 68


 3763      65756500 
 3764              	.LASF130:
 3765 011f 4750545F 		.ascii	"GPT_CONTINUOUS\000"
 3765      434F4E54 
 3765      494E554F 
 3765      555300
 3766              	.LASF24:
 3767 012e 74736C69 		.ascii	"tslices_t\000"
 3767      6365735F 
 3767      7400
 3768              	.LASF153:
 3769 0138 5F756465 		.ascii	"_udelay\000"
 3769      6C617900 
 3770              	.LASF134:
 3771 0140 73746174 		.ascii	"state\000"
 3771      6500
 3772              	.LASF79:
 3773 0146 63685F73 		.ascii	"ch_system\000"
 3773      79737465 
 3773      6D00
 3774              	.LASF9:
 3775 0150 6C6F6E67 		.ascii	"long int\000"
 3775      20696E74 
 3775      00
 3776              	.LASF92:
 3777 0159 454E4142 		.ascii	"ENABLE\000"
 3777      4C4500
 3778              	.LASF22:
 3779 0160 74737461 		.ascii	"tstate_t\000"
 3779      74655F74 
 3779      00
 3780              	.LASF173:
 3781 0169 67707453 		.ascii	"gptStartContinuous\000"
 3781      74617274 
 3781      436F6E74 
 3781      696E756F 
 3781      757300
 3782              	.LASF35:
 3783 017c 705F6E65 		.ascii	"p_newer\000"
 3783      77657200 
 3784              	.LASF107:
 3785 0184 735F7175 		.ascii	"s_queue\000"
 3785      65756500 
 3786              	.LASF137:
 3787 018c 67707463 		.ascii	"gptcallback_t\000"
 3787      616C6C62 
 3787      61636B5F 
 3787      7400
 3788              	.LASF7:
 3789 019a 73686F72 		.ascii	"short unsigned int\000"
 3789      7420756E 
 3789      7369676E 
 3789      65642069 
 3789      6E7400
 3790              	.LASF119:
 3791 01ad 4F535045 		.ascii	"OSPEEDR\000"
 3791      45445200 
ARM GAS  C:\Users\ADMINI~1\AppData\Local\Temp\ccwJb011.s 			page 69


 3792              	.LASF61:
 3793 01b5 725F6E65 		.ascii	"r_newer\000"
 3793      77657200 
 3794              	.LASF133:
 3795 01bd 47505444 		.ascii	"GPTDriver\000"
 3795      72697665 
 3795      7200
 3796              	.LASF93:
 3797 01c7 72656761 		.ascii	"regarm_t\000"
 3797      726D5F74 
 3797      00
 3798              	.LASF68:
 3799 01d0 76745F70 		.ascii	"vt_prev\000"
 3799      72657600 
 3800              	.LASF177:
 3801 01d8 474E5520 		.ascii	"GNU C99 5.3.1 20160307 (release) [ARM/embedded-5-br"
 3801      43393920 
 3801      352E332E 
 3801      31203230 
 3801      31363033 
 3802 020b 616E6368 		.ascii	"anch revision 234589] -mcpu=cortex-m4 -mfloat-abi=h"
 3802      20726576 
 3802      6973696F 
 3802      6E203233 
 3802      34353839 
 3803 023e 61726420 		.ascii	"ard -mfpu=fpv4-sp-d16 -mno-thumb-interwork -mthumb "
 3803      2D6D6670 
 3803      753D6670 
 3803      76342D73 
 3803      702D6431 
 3804 0271 2D676764 		.ascii	"-ggdb -O2 -std=gnu99 -fomit-frame-pointer -falign-f"
 3804      62202D4F 
 3804      32202D73 
 3804      74643D67 
 3804      6E753939 
 3805 02a4 756E6374 		.ascii	"unctions=16 -ffunction-sections -fdata-sections -fn"
 3805      696F6E73 
 3805      3D313620 
 3805      2D666675 
 3805      6E637469 
 3806 02d7 6F2D636F 		.ascii	"o-common -fsingle-precision-constant\000"
 3806      6D6D6F6E 
 3806      202D6673 
 3806      696E676C 
 3806      652D7072 
 3807              	.LASF180:
 3808 02fc 6765745F 		.ascii	"get_GPT_value\000"
 3808      4750545F 
 3808      76616C75 
 3808      6500
 3809              	.LASF125:
 3810 030a 73746D33 		.ascii	"stm32_gpio_t\000"
 3810      325F6770 
 3810      696F5F74 
 3810      00
 3811              	.LASF143:
 3812 0317 42445452 		.ascii	"BDTR\000"
ARM GAS  C:\Users\ADMINI~1\AppData\Local\Temp\ccwJb011.s 			page 70


 3812      00
 3813              	.LASF12:
 3814 031c 6C6F6E67 		.ascii	"long long int\000"
 3814      206C6F6E 
 3814      6720696E 
 3814      7400
 3815              	.LASF83:
 3816 032a 69646C65 		.ascii	"idle_thread_wa\000"
 3816      5F746872 
 3816      6561645F 
 3816      776100
 3817              	.LASF132:
 3818 0339 67707473 		.ascii	"gptstate_t\000"
 3818      74617465 
 3818      5F7400
 3819              	.LASF0:
 3820 0344 756E7369 		.ascii	"unsigned int\000"
 3820      676E6564 
 3820      20696E74 
 3820      00
 3821              	.LASF67:
 3822 0351 76745F6E 		.ascii	"vt_next\000"
 3822      65787400 
 3823              	.LASF16:
 3824 0359 75696E74 		.ascii	"uint16_t\000"
 3824      31365F74 
 3824      00
 3825              	.LASF42:
 3826 0362 705F7469 		.ascii	"p_time\000"
 3826      6D6500
 3827              	.LASF103:
 3828 0369 77747365 		.ascii	"wtsemp\000"
 3828      6D7000
 3829              	.LASF69:
 3830 0370 76745F64 		.ascii	"vt_delta\000"
 3830      656C7461 
 3830      00
 3831              	.LASF44:
 3832 0379 705F6D73 		.ascii	"p_msgqueue\000"
 3832      67717565 
 3832      756500
 3833              	.LASF169:
 3834 0384 6770745F 		.ascii	"gpt_cfg\000"
 3834      63666700 
 3835              	.LASF52:
 3836 038c 63685F74 		.ascii	"ch_thread\000"
 3836      68726561 
 3836      6400
 3837              	.LASF122:
 3838 0396 4C434B52 		.ascii	"LCKR\000"
 3838      00
 3839              	.LASF160:
 3840 039b 67707470 		.ascii	"gptp\000"
 3840      00
 3841              	.LASF108:
 3842 03a0 735F636E 		.ascii	"s_cnt\000"
 3842      7400
ARM GAS  C:\Users\ADMINI~1\AppData\Local\Temp\ccwJb011.s 			page 71


 3843              	.LASF127:
 3844 03a6 4750545F 		.ascii	"GPT_UNINIT\000"
 3844      554E494E 
 3844      495400
 3845              	.LASF161:
 3846 03b1 64617461 		.ascii	"data\000"
 3846      00
 3847              	.LASF148:
 3848 03b6 67707466 		.ascii	"gptfreq_t\000"
 3848      7265715F 
 3848      7400
 3849              	.LASF81:
 3850 03c0 76746C69 		.ascii	"vtlist\000"
 3850      737400
 3851              	.LASF49:
 3852 03c7 705F6D70 		.ascii	"p_mpool\000"
 3852      6F6F6C00 
 3853              	.LASF26:
 3854 03cf 6D73675F 		.ascii	"msg_t\000"
 3854      7400
 3855              	.LASF53:
 3856 03d5 63685F74 		.ascii	"ch_threads_list\000"
 3856      68726561 
 3856      64735F6C 
 3856      69737400 
 3857              	.LASF172:
 3858 03e5 67707453 		.ascii	"gptStart\000"
 3858      74617274 
 3858      00
 3859              	.LASF78:
 3860 03ee 63685F73 		.ascii	"ch_system_t\000"
 3860      79737465 
 3860      6D5F7400 
 3861              	.LASF150:
 3862 03fa 63616C6C 		.ascii	"callback\000"
 3862      6261636B 
 3862      00
 3863              	.LASF147:
 3864 0403 73746D33 		.ascii	"stm32_tim_t\000"
 3864      325F7469 
 3864      6D5F7400 
 3865              	.LASF80:
 3866 040f 726C6973 		.ascii	"rlist\000"
 3866      7400
 3867              	.LASF87:
 3868 0415 54584352 		.ascii	"TXCRCR\000"
 3868      435200
 3869              	.LASF57:
 3870 041c 63685F72 		.ascii	"ch_ready_list\000"
 3870      65616479 
 3870      5F6C6973 
 3870      7400
 3871              	.LASF27:
 3872 042a 6576656E 		.ascii	"eventmask_t\000"
 3872      746D6173 
 3872      6B5F7400 
 3873              	.LASF8:
ARM GAS  C:\Users\ADMINI~1\AppData\Local\Temp\ccwJb011.s 			page 72


 3874 0436 5F5F696E 		.ascii	"__int32_t\000"
 3874      7433325F 
 3874      7400
 3875              	.LASF154:
 3876 0440 5350495F 		.ascii	"SPI_Init_for_DAC_7612\000"
 3876      496E6974 
 3876      5F666F72 
 3876      5F444143 
 3876      5F373631 
 3877              	.LASF94:
 3878 0456 73746B61 		.ascii	"stkalign_t\000"
 3878      6C69676E 
 3878      5F7400
 3879              	.LASF51:
 3880 0461 74687265 		.ascii	"threads_list_t\000"
 3880      6164735F 
 3880      6C697374 
 3880      5F7400
 3881              	.LASF43:
 3882 0470 705F7761 		.ascii	"p_waiting\000"
 3882      6974696E 
 3882      6700
 3883              	.LASF89:
 3884 047a 49325350 		.ascii	"I2SPR\000"
 3884      5200
 3885              	.LASF84:
 3886 0480 73697A65 		.ascii	"sizetype\000"
 3886      74797065 
 3886      00
 3887              	.LASF50:
 3888 0489 74687265 		.ascii	"thread_reference_t\000"
 3888      61645F72 
 3888      65666572 
 3888      656E6365 
 3888      5F7400
 3889              	.LASF73:
 3890 049c 63685F76 		.ascii	"ch_virtual_timers_list\000"
 3890      69727475 
 3890      616C5F74 
 3890      696D6572 
 3890      735F6C69 
 3891              	.LASF116:
 3892 04b3 636C6561 		.ascii	"clear\000"
 3892      7200
 3893              	.LASF102:
 3894 04b9 77747472 		.ascii	"wttrp\000"
 3894      7000
 3895              	.LASF138:
 3896 04bf 534D4352 		.ascii	"SMCR\000"
 3896      00
 3897              	.LASF129:
 3898 04c4 4750545F 		.ascii	"GPT_READY\000"
 3898      52454144 
 3898      5900
 3899              	.LASF28:
 3900 04ce 636E745F 		.ascii	"cnt_t\000"
 3900      7400
ARM GAS  C:\Users\ADMINI~1\AppData\Local\Temp\ccwJb011.s 			page 73


 3901              	.LASF36:
 3902 04d4 705F6F6C 		.ascii	"p_older\000"
 3902      64657200 
 3903              	.LASF60:
 3904 04dc 725F6374 		.ascii	"r_ctx\000"
 3904      7800
 3905              	.LASF98:
 3906 04e2 746D5F63 		.ascii	"tm_calibration_t\000"
 3906      616C6962 
 3906      72617469 
 3906      6F6E5F74 
 3906      00
 3907              	.LASF63:
 3908 04f3 725F6375 		.ascii	"r_current\000"
 3908      7272656E 
 3908      7400
 3909              	.LASF175:
 3910 04fd 5243435F 		.ascii	"RCC_APB2PeriphResetCmd\000"
 3910      41504232 
 3910      50657269 
 3910      70685265 
 3910      73657443 
 3911              	.LASF13:
 3912 0514 5F5F7569 		.ascii	"__uint64_t\000"
 3912      6E743634 
 3912      5F7400
 3913              	.LASF124:
 3914 051f 41465248 		.ascii	"AFRH\000"
 3914      00
 3915              	.LASF85:
 3916 0524 43524350 		.ascii	"CRCPR\000"
 3916      5200
 3917              	.LASF123:
 3918 052a 4146524C 		.ascii	"AFRL\000"
 3918      00
 3919              	.LASF164:
 3920 052f 7370695F 		.ascii	"spi_hw_init_gpio\000"
 3920      68775F69 
 3920      6E69745F 
 3920      6770696F 
 3920      00
 3921              	.LASF23:
 3922 0540 74726566 		.ascii	"trefs_t\000"
 3922      735F7400 
 3923              	.LASF165:
 3924 0548 7370695F 		.ascii	"spi_dac_hw_init\000"
 3924      6461635F 
 3924      68775F69 
 3924      6E697400 
 3925              	.LASF96:
 3926 0558 706F7274 		.ascii	"port_intctx\000"
 3926      5F696E74 
 3926      63747800 
 3927              	.LASF65:
 3928 0564 76697274 		.ascii	"virtual_timer_t\000"
 3928      75616C5F 
 3928      74696D65 
ARM GAS  C:\Users\ADMINI~1\AppData\Local\Temp\ccwJb011.s 			page 74


 3928      725F7400 
 3929              	.LASF32:
 3930 0574 705F7072 		.ascii	"p_prev\000"
 3930      657600
 3931              	.LASF25:
 3932 057b 74707269 		.ascii	"tprio_t\000"
 3932      6F5F7400 
 3933              	.LASF76:
 3934 0583 63685F73 		.ascii	"ch_system_debug\000"
 3934      79737465 
 3934      6D5F6465 
 3934      62756700 
 3935              	.LASF115:
 3936 0593 5F426F6F 		.ascii	"_Bool\000"
 3936      6C00
 3937              	.LASF17:
 3938 0599 696E7433 		.ascii	"int32_t\000"
 3938      325F7400 
 3939              	.LASF4:
 3940 05a1 756E7369 		.ascii	"unsigned char\000"
 3940      676E6564 
 3940      20636861 
 3940      7200
 3941              	.LASF47:
 3942 05af 705F6D74 		.ascii	"p_mtxlist\000"
 3942      786C6973 
 3942      7400
 3943              	.LASF5:
 3944 05b9 73686F72 		.ascii	"short int\000"
 3944      7420696E 
 3944      7400
 3945              	.LASF38:
 3946 05c3 705F7374 		.ascii	"p_state\000"
 3946      61746500 
 3947              	.LASF41:
 3948 05cb 705F7072 		.ascii	"p_preempt\000"
 3948      65656D70 
 3948      7400
 3949              	.LASF59:
 3950 05d5 725F7072 		.ascii	"r_prio\000"
 3950      696F00
 3951              	.LASF105:
 3952 05dc 65776D61 		.ascii	"ewmask\000"
 3952      736B00
 3953              	.LASF31:
 3954 05e3 705F6E65 		.ascii	"p_next\000"
 3954      787400
 3955              	.LASF39:
 3956 05ea 705F666C 		.ascii	"p_flags\000"
 3956      61677300 
 3957              	.LASF159:
 3958 05f2 5F737069 		.ascii	"_spi_dac_write\000"
 3958      5F646163 
 3958      5F777269 
 3958      746500
 3959              	.LASF162:
 3960 0601 64617461 		.ascii	"data_temp\000"
ARM GAS  C:\Users\ADMINI~1\AppData\Local\Temp\ccwJb011.s 			page 75


 3960      5F74656D 
 3960      7000
 3961              	.LASF167:
 3962 060b 7370695F 		.ascii	"spi_dac_write_A\000"
 3962      6461635F 
 3962      77726974 
 3962      655F4100 
 3963              	.LASF168:
 3964 061b 7370695F 		.ascii	"spi_dac_write_B\000"
 3964      6461635F 
 3964      77726974 
 3964      655F4200 
 3965              	.LASF156:
 3966 062b 53504978 		.ascii	"SPIx\000"
 3966      00
 3967              	.LASF106:
 3968 0630 63685F73 		.ascii	"ch_semaphore\000"
 3968      656D6170 
 3968      686F7265 
 3968      00
 3969              	.LASF146:
 3970 063d 43435852 		.ascii	"CCXR\000"
 3970      00
 3971              	.LASF46:
 3972 0642 705F6570 		.ascii	"p_epending\000"
 3972      656E6469 
 3972      6E6700
 3973              	.LASF128:
 3974 064d 4750545F 		.ascii	"GPT_STOP\000"
 3974      53544F50 
 3974      00
 3975              	.LASF18:
 3976 0656 75696E74 		.ascii	"uint32_t\000"
 3976      33325F74 
 3976      00
 3977              	.LASF104:
 3978 065f 77746D74 		.ascii	"wtmtxp\000"
 3978      787000
 3979              	.LASF58:
 3980 0666 725F7175 		.ascii	"r_queue\000"
 3980      65756500 
 3981              	.LASF163:
 3982 066e 696E6974 		.ascii	"initGPT\000"
 3982      47505400 
 3983              	.LASF155:
 3984 0676 7564656C 		.ascii	"udelay\000"
 3984      617900
 3985              	.LASF11:
 3986 067d 6C6F6E67 		.ascii	"long unsigned int\000"
 3986      20756E73 
 3986      69676E65 
 3986      6420696E 
 3986      7400
 3987              	.LASF90:
 3988 068f 5350495F 		.ascii	"SPI_TypeDef\000"
 3988      54797065 
 3988      44656600 
ARM GAS  C:\Users\ADMINI~1\AppData\Local\Temp\ccwJb011.s 			page 76


 3989              	.LASF113:
 3990 069b 63686172 		.ascii	"char\000"
 3990      00
 3991              	.LASF6:
 3992 06a0 5F5F7569 		.ascii	"__uint16_t\000"
 3992      6E743136 
 3992      5F7400
 3993              	.LASF174:
 3994 06ab 5243435F 		.ascii	"RCC_APB2PeriphClockCmd\000"
 3994      41504232 
 3994      50657269 
 3994      7068436C 
 3994      6F636B43 
 3995              	.LASF135:
 3996 06c2 636F6E66 		.ascii	"config\000"
 3996      696700
 3997              	.LASF144:
 3998 06c9 444D4152 		.ascii	"DMAR\000"
 3998      00
 3999              	.LASF30:
 4000 06ce 74687265 		.ascii	"thread_t\000"
 4000      61645F74 
 4000      00
 4001              	.LASF142:
 4002 06d7 43434552 		.ascii	"CCER\000"
 4002      00
 4003              	.LASF112:
 4004 06dc 6D5F6E65 		.ascii	"m_next\000"
 4004      787400
 4005              	.LASF29:
 4006 06e3 73797374 		.ascii	"systime_t\000"
 4006      696D655F 
 4006      7400
 4007              	.LASF48:
 4008 06ed 705F7265 		.ascii	"p_realprio\000"
 4008      616C7072 
 4008      696F00
 4009              	.LASF64:
 4010 06f8 76746675 		.ascii	"vtfunc_t\000"
 4010      6E635F74 
 4010      00
 4011              	.LASF10:
 4012 0701 5F5F7569 		.ascii	"__uint32_t\000"
 4012      6E743332 
 4012      5F7400
 4013              	.LASF77:
 4014 070c 70616E69 		.ascii	"panic_msg\000"
 4014      635F6D73 
 4014      6700
 4015              	.LASF97:
 4016 0716 6F666673 		.ascii	"offset\000"
 4016      657400
 4017              	.LASF152:
 4018 071d 47505443 		.ascii	"GPTConfig\000"
 4018      6F6E6669 
 4018      6700
 4019              	.LASF95:
ARM GAS  C:\Users\ADMINI~1\AppData\Local\Temp\ccwJb011.s 			page 77


 4020 0727 636F6E74 		.ascii	"context\000"
 4020      65787400 
 4021              	.LASF62:
 4022 072f 725F6F6C 		.ascii	"r_older\000"
 4022      64657200 
 4023              	.LASF176:
 4024 0737 5F70616C 		.ascii	"_pal_lld_setgroupmode\000"
 4024      5F6C6C64 
 4024      5F736574 
 4024      67726F75 
 4024      706D6F64 
 4025              	.LASF66:
 4026 074d 63685F76 		.ascii	"ch_virtual_timer\000"
 4026      69727475 
 4026      616C5F74 
 4026      696D6572 
 4026      00
 4027              	.LASF20:
 4028 075e 7274636E 		.ascii	"rtcnt_t\000"
 4028      745F7400 
 4029              	.LASF71:
 4030 0766 76745F70 		.ascii	"vt_par\000"
 4030      617200
 4031              	.LASF54:
 4032 076d 74687265 		.ascii	"threads_queue_t\000"
 4032      6164735F 
 4032      71756575 
 4032      655F7400 
 4033              	.LASF109:
 4034 077d 63685F6D 		.ascii	"ch_mutex\000"
 4034      75746578 
 4034      00
 4035              	.LASF40:
 4036 0786 705F7265 		.ascii	"p_refs\000"
 4036      667300
 4037              	.LASF86:
 4038 078d 52584352 		.ascii	"RXCRCR\000"
 4038      435200
 4039              	.LASF179:
 4040 0794 563A5C67 		.ascii	"V:\\git\\oroca_bldc_dev\\oroca_bldc_FW\000"
 4040      69745C6F 
 4040      726F6361 
 4040      5F626C64 
 4040      635F6465 
 4041              	.LASF15:
 4042 07b8 75696E74 		.ascii	"uint8_t\000"
 4042      385F7400 
 4043              	.LASF166:
 4044 07c0 7370695F 		.ascii	"spi_dac_write_AB\000"
 4044      6461635F 
 4044      77726974 
 4044      655F4142 
 4044      00
 4045              	.LASF101:
 4046 07d1 77746F62 		.ascii	"wtobjp\000"
 4046      6A7000
 4047              	.LASF37:
ARM GAS  C:\Users\ADMINI~1\AppData\Local\Temp\ccwJb011.s 			page 78


 4048 07d8 705F6E61 		.ascii	"p_name\000"
 4048      6D6500
 4049              	.LASF178:
 4050 07df 7372632F 		.ascii	"src/bldc/spi_dac.c\000"
 4050      626C6463 
 4050      2F737069 
 4050      5F646163 
 4050      2E6300
 4051              	.LASF74:
 4052 07f2 76745F73 		.ascii	"vt_systime\000"
 4052      79737469 
 4052      6D6500
 4053              	.LASF21:
 4054 07fd 746D6F64 		.ascii	"tmode_t\000"
 4054      655F7400 
 4055              	.LASF136:
 4056 0805 636C6F63 		.ascii	"clock\000"
 4056      6B00
 4057              	.LASF45:
 4058 080b 705F6D73 		.ascii	"p_msg\000"
 4058      6700
 4059              	.LASF157:
 4060 0811 746D7072 		.ascii	"tmpreg\000"
 4060      656700
 4061              	.LASF114:
 4062 0818 6D757465 		.ascii	"mutex_t\000"
 4062      785F7400 
 4063              	.LASF111:
 4064 0820 6D5F6F77 		.ascii	"m_owner\000"
 4064      6E657200 
 4065              	.LASF34:
 4066 0828 705F6374 		.ascii	"p_ctx\000"
 4066      7800
 4067              	.LASF70:
 4068 082e 76745F66 		.ascii	"vt_func\000"
 4068      756E6300 
 4069              	.LASF158:
 4070 0836 6770745F 		.ascii	"gpt_cb\000"
 4070      636200
 4071              	.LASF151:
 4072 083d 64696572 		.ascii	"dier\000"
 4072      00
 4073              		.ident	"GCC: (GNU Tools for ARM Embedded Processors) 5.3.1 20160307 (release) [ARM/embedded-5-bran
ARM GAS  C:\Users\ADMINI~1\AppData\Local\Temp\ccwJb011.s 			page 79


DEFINED SYMBOLS
                            *ABS*:00000000 spi_dac.c
C:\Users\ADMINI~1\AppData\Local\Temp\ccwJb011.s:22     .text.gpt_cb:00000000 $t
C:\Users\ADMINI~1\AppData\Local\Temp\ccwJb011.s:27     .text.gpt_cb:00000000 gpt_cb
C:\Users\ADMINI~1\AppData\Local\Temp\ccwJb011.s:41     .text._spi_dac_write:00000000 $t
C:\Users\ADMINI~1\AppData\Local\Temp\ccwJb011.s:46     .text._spi_dac_write:00000000 _spi_dac_write
C:\Users\ADMINI~1\AppData\Local\Temp\ccwJb011.s:254    .text._spi_dac_write:00000084 $d
C:\Users\ADMINI~1\AppData\Local\Temp\ccwJb011.s:262    .text.initGPT:00000000 $t
C:\Users\ADMINI~1\AppData\Local\Temp\ccwJb011.s:268    .text.initGPT:00000000 initGPT
C:\Users\ADMINI~1\AppData\Local\Temp\ccwJb011.s:298    .text.initGPT:0000001c $d
C:\Users\ADMINI~1\AppData\Local\Temp\ccwJb011.s:304    .text.get_GPT_value:00000000 $t
C:\Users\ADMINI~1\AppData\Local\Temp\ccwJb011.s:310    .text.get_GPT_value:00000000 get_GPT_value
C:\Users\ADMINI~1\AppData\Local\Temp\ccwJb011.s:326    .text.get_GPT_value:00000008 $d
C:\Users\ADMINI~1\AppData\Local\Temp\ccwJb011.s:331    .text._udelay:00000000 $t
C:\Users\ADMINI~1\AppData\Local\Temp\ccwJb011.s:337    .text._udelay:00000000 _udelay
C:\Users\ADMINI~1\AppData\Local\Temp\ccwJb011.s:381    .text._udelay:00000018 $d
C:\Users\ADMINI~1\AppData\Local\Temp\ccwJb011.s:386    .text.spi_hw_init_gpio:00000000 $t
C:\Users\ADMINI~1\AppData\Local\Temp\ccwJb011.s:392    .text.spi_hw_init_gpio:00000000 spi_hw_init_gpio
C:\Users\ADMINI~1\AppData\Local\Temp\ccwJb011.s:466    .text.spi_hw_init_gpio:00000060 $d
C:\Users\ADMINI~1\AppData\Local\Temp\ccwJb011.s:472    .text.SPI_Init_for_DAC_7612:00000000 $t
C:\Users\ADMINI~1\AppData\Local\Temp\ccwJb011.s:478    .text.SPI_Init_for_DAC_7612:00000000 SPI_Init_for_DAC_7612
C:\Users\ADMINI~1\AppData\Local\Temp\ccwJb011.s:502    .text.spi_dac_hw_init:00000000 $t
C:\Users\ADMINI~1\AppData\Local\Temp\ccwJb011.s:508    .text.spi_dac_hw_init:00000000 spi_dac_hw_init
C:\Users\ADMINI~1\AppData\Local\Temp\ccwJb011.s:544    .text.spi_dac_hw_init:00000020 $d
C:\Users\ADMINI~1\AppData\Local\Temp\ccwJb011.s:551    .text.spi_dac_write_AB:00000000 $t
C:\Users\ADMINI~1\AppData\Local\Temp\ccwJb011.s:557    .text.spi_dac_write_AB:00000000 spi_dac_write_AB
C:\Users\ADMINI~1\AppData\Local\Temp\ccwJb011.s:574    .text.spi_dac_write_A:00000000 $t
C:\Users\ADMINI~1\AppData\Local\Temp\ccwJb011.s:580    .text.spi_dac_write_A:00000000 spi_dac_write_A
C:\Users\ADMINI~1\AppData\Local\Temp\ccwJb011.s:598    .text.spi_dac_write_B:00000000 $t
C:\Users\ADMINI~1\AppData\Local\Temp\ccwJb011.s:604    .text.spi_dac_write_B:00000000 spi_dac_write_B
C:\Users\ADMINI~1\AppData\Local\Temp\ccwJb011.s:622    .rodata.gpt_cfg:00000000 $d
C:\Users\ADMINI~1\AppData\Local\Temp\ccwJb011.s:626    .rodata.gpt_cfg:00000000 gpt_cfg
                     .debug_frame:00000010 $d

UNDEFINED SYMBOLS
GPTD5
gptStart
gptStartContinuous
RCC_APB2PeriphClockCmd
RCC_APB2PeriphResetCmd
_pal_lld_setgroupmode
