ARM GAS  C:\Users\IDONNO~1.SON\AppData\Local\Temp\ccCtUJn5.s 			page 1


   1              		.syntax unified
   2              		.cpu cortex-m4
   3              		.eabi_attribute 27, 1
   4              		.eabi_attribute 28, 1
   5              		.fpu fpv4-sp-d16
   6              		.eabi_attribute 20, 1
   7              		.eabi_attribute 21, 1
   8              		.eabi_attribute 23, 3
   9              		.eabi_attribute 24, 1
  10              		.eabi_attribute 25, 1
  11              		.eabi_attribute 26, 1
  12              		.eabi_attribute 30, 2
  13              		.eabi_attribute 34, 1
  14              		.eabi_attribute 18, 4
  15              		.thumb
  16              		.syntax unified
  17              		.file	"spi_dac.c"
  18              		.text
  19              	.Ltext0:
  20              		.cfi_sections	.debug_frame
  21              		.section	.text.gpt_cb,"ax",%progbits
  22              		.align	2
  23              		.p2align 4,,15
  24              		.thumb
  25              		.thumb_func
  26              		.type	gpt_cb, %function
  27              	gpt_cb:
  28              	.LFB256:
  29              		.file 1 "src/bldc/spi_dac.c"
  30              		.loc 1 23 0
  31              		.cfi_startproc
  32              		@ args = 0, pretend = 0, frame = 0
  33              		@ frame_needed = 0, uses_anonymous_args = 0
  34              		@ link register save eliminated.
  35              	.LVL0:
  36 0000 7047     		bx	lr
  37              		.cfi_endproc
  38              	.LFE256:
  39              		.size	gpt_cb, .-gpt_cb
  40 0002 00BF     		.section	.text._spi_dac_write,"ax",%progbits
  41              		.align	2
  42              		.p2align 4,,15
  43              		.thumb
  44              		.thumb_func
  45              		.type	_spi_dac_write, %function
  46              	_spi_dac_write:
  47              	.LFB263:
  48              		.loc 1 153 0
  49              		.cfi_startproc
  50              		@ args = 0, pretend = 0, frame = 8
  51              		@ frame_needed = 0, uses_anonymous_args = 0
  52              	.LVL1:
  53              		.loc 1 153 0
  54 0000 30B5     		push	{r4, r5, lr}
  55              		.cfi_def_cfa_offset 12
  56              		.cfi_offset 4, -12
  57              		.cfi_offset 5, -8
ARM GAS  C:\Users\IDONNO~1.SON\AppData\Local\Temp\ccCtUJn5.s 			page 2


  58              		.cfi_offset 14, -4
  59              		.loc 1 158 0
  60 0002 234C     		ldr	r4, .L36
  61 0004 2349     		ldr	r1, .L36+4
  62 0006 2268     		ldr	r2, [r4]
  63              		.loc 1 153 0
  64 0008 83B0     		sub	sp, sp, #12
  65              		.cfi_def_cfa_offset 24
  66              		.loc 1 153 0
  67 000a 0546     		mov	r5, r0
  68              		.loc 1 158 0
  69 000c 2248     		ldr	r0, .L36+8
  70              	.LVL2:
  71 000e FFF7FEFF 		bl	Uart3_printf
  72              	.LVL3:
  73              		.loc 1 163 0
  74 0012 2246     		mov	r2, r4
  75              	.L3:
  76              		.loc 1 163 0 is_stmt 0 discriminator 1
  77 0014 9368     		ldr	r3, [r2, #8]
  78 0016 9907     		lsls	r1, r3, #30
  79 0018 FCD5     		bpl	.L3
  80              	.LBB50:
  81              	.LBB51:
  82              	.LBB52:
  83              	.LBB53:
  84              		.loc 1 51 0 is_stmt 1
  85 001a 204B     		ldr	r3, .L36+12
  86              	.LBE53:
  87              	.LBE52:
  88              	.LBE51:
  89              	.LBE50:
  90              		.loc 1 167 0
  91 001c 204A     		ldr	r2, .L36+16
  92              	.LBB62:
  93              	.LBB60:
  94              	.LBB56:
  95              	.LBB54:
  96              		.loc 1 51 0
  97 001e DB68     		ldr	r3, [r3, #12]
  98              	.LBE54:
  99              	.LBE56:
 100              	.LBE60:
 101              	.LBE62:
 102              		.loc 1 167 0
 103 0020 4FF40041 		mov	r1, #32768
 104 0024 5183     		strh	r1, [r2, #26]	@ movhi
 105              	.LVL4:
 106              	.LBB63:
 107              	.LBB61:
 108              	.LBB57:
 109              	.LBB55:
 110              		.loc 1 51 0
 111 0026 596A     		ldr	r1, [r3, #36]
 112              	.L30:
 113              	.LBE55:
 114              	.LBE57:
ARM GAS  C:\Users\IDONNO~1.SON\AppData\Local\Temp\ccCtUJn5.s 			page 3


 115              	.LBB58:
 116              	.LBB59:
 117 0028 5A6A     		ldr	r2, [r3, #36]
 118              	.LVL5:
 119              	.LBE59:
 120              	.LBE58:
 121              		.loc 1 58 0
 122 002a 9142     		cmp	r1, r2
 123 002c FCD0     		beq	.L30
 124              	.LVL6:
 125              	.LBE61:
 126              	.LBE63:
 127              		.loc 1 169 0
 128 002e 1C4A     		ldr	r2, .L36+16
 129 0030 4FF40041 		mov	r1, #32768
 130 0034 1183     		strh	r1, [r2, #24]	@ movhi
 131              	.LVL7:
 132              	.LBB64:
 133              	.LBB65:
 134              	.LBB66:
 135              	.LBB67:
 136              		.loc 1 51 0
 137 0036 596A     		ldr	r1, [r3, #36]
 138              	.L31:
 139              	.LBE67:
 140              	.LBE66:
 141              	.LBB68:
 142              	.LBB69:
 143 0038 5A6A     		ldr	r2, [r3, #36]
 144              	.LVL8:
 145              	.LBE69:
 146              	.LBE68:
 147              		.loc 1 58 0
 148 003a 9142     		cmp	r1, r2
 149 003c FCD0     		beq	.L31
 150              	.LVL9:
 151              	.LBE65:
 152              	.LBE64:
 153              		.loc 1 171 0
 154 003e 1849     		ldr	r1, .L36+16
 155              		.loc 1 174 0
 156 0040 134A     		ldr	r2, .L36
 157              		.loc 1 171 0
 158 0042 4FF40040 		mov	r0, #32768
 159 0046 4883     		strh	r0, [r1, #26]	@ movhi
 160              		.loc 1 174 0
 161 0048 D168     		ldr	r1, [r2, #12]
 162              		.loc 1 179 0
 163 004a 45F48045 		orr	r5, r5, #16384
 164              		.loc 1 174 0
 165 004e 09B2     		sxth	r1, r1
 166 0050 ADF80610 		strh	r1, [sp, #6]	@ movhi
 167              		.loc 1 183 0
 168 0054 1146     		mov	r1, r2
 169              		.loc 1 179 0
 170 0056 D560     		str	r5, [r2, #12]
 171              	.L8:
ARM GAS  C:\Users\IDONNO~1.SON\AppData\Local\Temp\ccCtUJn5.s 			page 4


 172              		.loc 1 183 0 discriminator 1
 173 0058 8A68     		ldr	r2, [r1, #8]
 174 005a D207     		lsls	r2, r2, #31
 175 005c FCD5     		bpl	.L8
 176              	.LVL10:
 177              	.LBB70:
 178              	.LBB71:
 179              	.LBB72:
 180              	.LBB73:
 181              		.loc 1 51 0
 182 005e 596A     		ldr	r1, [r3, #36]
 183              	.L32:
 184              	.LBE73:
 185              	.LBE72:
 186              	.LBB74:
 187              	.LBB75:
 188 0060 5A6A     		ldr	r2, [r3, #36]
 189              	.LVL11:
 190              	.LBE75:
 191              	.LBE74:
 192              		.loc 1 58 0
 193 0062 9142     		cmp	r1, r2
 194 0064 FCD0     		beq	.L32
 195              	.LVL12:
 196              	.LBE71:
 197              	.LBE70:
 198              		.loc 1 187 0
 199 0066 0E4A     		ldr	r2, .L36+16
 200 0068 4FF40041 		mov	r1, #32768
 201 006c 1183     		strh	r1, [r2, #24]	@ movhi
 202              	.LVL13:
 203              	.LBB76:
 204              	.LBB77:
 205              	.LBB78:
 206              	.LBB79:
 207              		.loc 1 51 0
 208 006e 596A     		ldr	r1, [r3, #36]
 209              	.L33:
 210              	.LBE79:
 211              	.LBE78:
 212              	.LBB80:
 213              	.LBB81:
 214 0070 5A6A     		ldr	r2, [r3, #36]
 215              	.LVL14:
 216              	.LBE81:
 217              	.LBE80:
 218              		.loc 1 58 0
 219 0072 9142     		cmp	r1, r2
 220 0074 FCD0     		beq	.L33
 221              	.LVL15:
 222              	.LBE77:
 223              	.LBE76:
 224              		.loc 1 192 0
 225 0076 0B4A     		ldr	r2, .L36+20
 226 0078 1021     		movs	r1, #16
 227 007a 5183     		strh	r1, [r2, #26]	@ movhi
 228              	.LVL16:
ARM GAS  C:\Users\IDONNO~1.SON\AppData\Local\Temp\ccCtUJn5.s 			page 5


 229              	.LBB82:
 230              	.LBB83:
 231              	.LBB84:
 232              	.LBB85:
 233              		.loc 1 51 0
 234 007c 596A     		ldr	r1, [r3, #36]
 235              	.L34:
 236              	.LBE85:
 237              	.LBE84:
 238              	.LBB86:
 239              	.LBB87:
 240 007e 5A6A     		ldr	r2, [r3, #36]
 241              	.LVL17:
 242              	.LBE87:
 243              	.LBE86:
 244              		.loc 1 58 0
 245 0080 9142     		cmp	r1, r2
 246 0082 FCD0     		beq	.L34
 247              	.LVL18:
 248              	.LBE83:
 249              	.LBE82:
 250              		.loc 1 195 0
 251 0084 074B     		ldr	r3, .L36+20
 252 0086 1022     		movs	r2, #16
 253 0088 1A83     		strh	r2, [r3, #24]	@ movhi
 254              		.loc 1 198 0
 255 008a 03B0     		add	sp, sp, #12
 256              		.cfi_def_cfa_offset 12
 257              		@ sp needed
 258 008c 30BD     		pop	{r4, r5, pc}
 259              	.L37:
 260 008e 00BF     		.align	2
 261              	.L36:
 262 0090 00300140 		.word	1073819648
 263 0094 00000000 		.word	.LC0
 264 0098 00000000 		.word	SD3
 265 009c 00000000 		.word	GPTD5
 266 00a0 00000240 		.word	1073872896
 267 00a4 00040240 		.word	1073873920
 268              		.cfi_endproc
 269              	.LFE263:
 270              		.size	_spi_dac_write, .-_spi_dac_write
 271              		.section	.text.initGPT,"ax",%progbits
 272              		.align	2
 273              		.p2align 4,,15
 274              		.global	initGPT
 275              		.thumb
 276              		.thumb_func
 277              		.type	initGPT, %function
 278              	initGPT:
 279              	.LFB257:
 280              		.loc 1 41 0
 281              		.cfi_startproc
 282              		@ args = 0, pretend = 0, frame = 0
 283              		@ frame_needed = 0, uses_anonymous_args = 0
 284 0000 10B5     		push	{r4, lr}
 285              		.cfi_def_cfa_offset 8
ARM GAS  C:\Users\IDONNO~1.SON\AppData\Local\Temp\ccCtUJn5.s 			page 6


 286              		.cfi_offset 4, -8
 287              		.cfi_offset 14, -4
 288              		.loc 1 43 0
 289 0002 064C     		ldr	r4, .L40
 290 0004 0649     		ldr	r1, .L40+4
 291 0006 2046     		mov	r0, r4
 292 0008 FFF7FEFF 		bl	gptStart
 293              	.LVL19:
 294              		.loc 1 44 0
 295 000c 2046     		mov	r0, r4
 296 000e 4FF0FF31 		mov	r1, #-1
 297              		.loc 1 45 0
 298 0012 BDE81040 		pop	{r4, lr}
 299              		.cfi_restore 14
 300              		.cfi_restore 4
 301              		.cfi_def_cfa_offset 0
 302              		.loc 1 44 0
 303 0016 FFF7FEBF 		b	gptStartContinuous
 304              	.LVL20:
 305              	.L41:
 306 001a 00BF     		.align	2
 307              	.L40:
 308 001c 00000000 		.word	GPTD5
 309 0020 00000000 		.word	.LANCHOR0
 310              		.cfi_endproc
 311              	.LFE257:
 312              		.size	initGPT, .-initGPT
 313              		.section	.text.get_GPT_value,"ax",%progbits
 314              		.align	2
 315              		.p2align 4,,15
 316              		.global	get_GPT_value
 317              		.thumb
 318              		.thumb_func
 319              		.type	get_GPT_value, %function
 320              	get_GPT_value:
 321              	.LFB258:
 322              		.loc 1 49 0
 323              		.cfi_startproc
 324              		@ args = 0, pretend = 0, frame = 0
 325              		@ frame_needed = 0, uses_anonymous_args = 0
 326              		@ link register save eliminated.
 327              		.loc 1 51 0
 328 0000 014B     		ldr	r3, .L43
 329 0002 DB68     		ldr	r3, [r3, #12]
 330 0004 586A     		ldr	r0, [r3, #36]
 331              		.loc 1 52 0
 332 0006 7047     		bx	lr
 333              	.L44:
 334              		.align	2
 335              	.L43:
 336 0008 00000000 		.word	GPTD5
 337              		.cfi_endproc
 338              	.LFE258:
 339              		.size	get_GPT_value, .-get_GPT_value
 340              		.section	.text._udelay,"ax",%progbits
 341              		.align	2
 342              		.p2align 4,,15
ARM GAS  C:\Users\IDONNO~1.SON\AppData\Local\Temp\ccCtUJn5.s 			page 7


 343              		.global	_udelay
 344              		.thumb
 345              		.thumb_func
 346              		.type	_udelay, %function
 347              	_udelay:
 348              	.LFB259:
 349              		.loc 1 55 0
 350              		.cfi_startproc
 351              		@ args = 0, pretend = 0, frame = 0
 352              		@ frame_needed = 0, uses_anonymous_args = 0
 353              		@ link register save eliminated.
 354              	.LVL21:
 355              	.LBB88:
 356              	.LBB89:
 357              		.loc 1 51 0
 358 0000 054B     		ldr	r3, .L50
 359 0002 DA68     		ldr	r2, [r3, #12]
 360 0004 516A     		ldr	r1, [r2, #36]
 361              	.LBE89:
 362              	.LBE88:
 363              	.LBB90:
 364              	.LBB91:
 365 0006 536A     		ldr	r3, [r2, #36]
 366              	.LVL22:
 367              	.LBE91:
 368              	.LBE90:
 369              		.loc 1 58 0
 370 0008 5B1A     		subs	r3, r3, r1
 371 000a 9842     		cmp	r0, r3
 372 000c 03D9     		bls	.L45
 373              	.L48:
 374              	.LBB92:
 375              	.LBB93:
 376              		.loc 1 51 0
 377 000e 536A     		ldr	r3, [r2, #36]
 378              	.LVL23:
 379              	.LBE93:
 380              	.LBE92:
 381              		.loc 1 58 0
 382 0010 5B1A     		subs	r3, r3, r1
 383              	.LVL24:
 384 0012 8342     		cmp	r3, r0
 385 0014 FBD3     		bcc	.L48
 386              	.L45:
 387 0016 7047     		bx	lr
 388              	.L51:
 389              		.align	2
 390              	.L50:
 391 0018 00000000 		.word	GPTD5
 392              		.cfi_endproc
 393              	.LFE259:
 394              		.size	_udelay, .-_udelay
 395              		.section	.text.spi_hw_init_gpio,"ax",%progbits
 396              		.align	2
 397              		.p2align 4,,15
 398              		.global	spi_hw_init_gpio
 399              		.thumb
ARM GAS  C:\Users\IDONNO~1.SON\AppData\Local\Temp\ccCtUJn5.s 			page 8


 400              		.thumb_func
 401              		.type	spi_hw_init_gpio, %function
 402              	spi_hw_init_gpio:
 403              	.LFB260:
 404              		.loc 1 67 0
 405              		.cfi_startproc
 406              		@ args = 0, pretend = 0, frame = 0
 407              		@ frame_needed = 0, uses_anonymous_args = 0
 408 0000 38B5     		push	{r3, r4, r5, lr}
 409              		.cfi_def_cfa_offset 16
 410              		.cfi_offset 3, -16
 411              		.cfi_offset 4, -12
 412              		.cfi_offset 5, -8
 413              		.cfi_offset 14, -4
 414              		.loc 1 73 0
 415 0002 0121     		movs	r1, #1
 416 0004 4FF48050 		mov	r0, #4096
 417 0008 FFF7FEFF 		bl	RCC_APB2PeriphClockCmd
 418              	.LVL25:
 419              		.loc 1 81 0
 420 000c 144D     		ldr	r5, .L54
 421              		.loc 1 82 0
 422 000e 154C     		ldr	r4, .L54+4
 423              		.loc 1 76 0
 424 0010 0121     		movs	r1, #1
 425 0012 4FF48050 		mov	r0, #4096
 426 0016 FFF7FEFF 		bl	RCC_APB2PeriphResetCmd
 427              	.LVL26:
 428              		.loc 1 77 0
 429 001a 0021     		movs	r1, #0
 430 001c 4FF48050 		mov	r0, #4096
 431 0020 FFF7FEFF 		bl	RCC_APB2PeriphResetCmd
 432              	.LVL27:
 433              		.loc 1 81 0
 434 0024 2846     		mov	r0, r5
 435 0026 1922     		movs	r2, #25
 436 0028 4FF40041 		mov	r1, #32768
 437 002c FFF7FEFF 		bl	_pal_lld_setgroupmode
 438              	.LVL28:
 439              		.loc 1 82 0
 440 0030 2046     		mov	r0, r4
 441 0032 1922     		movs	r2, #25
 442 0034 1021     		movs	r1, #16
 443 0036 FFF7FEFF 		bl	_pal_lld_setgroupmode
 444              	.LVL29:
 445              		.loc 1 87 0
 446 003a 1023     		movs	r3, #16
 447              		.loc 1 85 0
 448 003c 4FF40042 		mov	r2, #32768
 449 0040 2A83     		strh	r2, [r5, #24]	@ movhi
 450              		.loc 1 95 0
 451 0042 2046     		mov	r0, r4
 452              		.loc 1 87 0
 453 0044 2383     		strh	r3, [r4, #24]	@ movhi
 454              		.loc 1 95 0
 455 0046 40F29A22 		movw	r2, #666
 456 004a 0821     		movs	r1, #8
ARM GAS  C:\Users\IDONNO~1.SON\AppData\Local\Temp\ccCtUJn5.s 			page 9


 457 004c FFF7FEFF 		bl	_pal_lld_setgroupmode
 458              	.LVL30:
 459              		.loc 1 99 0
 460 0050 2046     		mov	r0, r4
 461 0052 40F2BA22 		movw	r2, #698
 462 0056 2021     		movs	r1, #32
 463              		.loc 1 103 0
 464 0058 BDE83840 		pop	{r3, r4, r5, lr}
 465              		.cfi_restore 14
 466              		.cfi_restore 5
 467              		.cfi_restore 4
 468              		.cfi_restore 3
 469              		.cfi_def_cfa_offset 0
 470              		.loc 1 99 0
 471 005c FFF7FEBF 		b	_pal_lld_setgroupmode
 472              	.LVL31:
 473              	.L55:
 474              		.align	2
 475              	.L54:
 476 0060 00000240 		.word	1073872896
 477 0064 00040240 		.word	1073873920
 478              		.cfi_endproc
 479              	.LFE260:
 480              		.size	spi_hw_init_gpio, .-spi_hw_init_gpio
 481              		.section	.text.SPI_Init_for_DAC_7612,"ax",%progbits
 482              		.align	2
 483              		.p2align 4,,15
 484              		.global	SPI_Init_for_DAC_7612
 485              		.thumb
 486              		.thumb_func
 487              		.type	SPI_Init_for_DAC_7612, %function
 488              	SPI_Init_for_DAC_7612:
 489              	.LFB261:
 490              		.loc 1 110 0
 491              		.cfi_startproc
 492              		@ args = 0, pretend = 0, frame = 0
 493              		@ frame_needed = 0, uses_anonymous_args = 0
 494              	.LVL32:
 495              		.loc 1 131 0
 496 0000 40F62703 		movw	r3, #2087
 497              		.loc 1 110 0
 498 0004 10B5     		push	{r4, lr}
 499              		.cfi_def_cfa_offset 8
 500              		.cfi_offset 4, -8
 501              		.cfi_offset 14, -4
 502              		.loc 1 131 0
 503 0006 0360     		str	r3, [r0]
 504              		.loc 1 110 0
 505 0008 0446     		mov	r4, r0
 506              		.loc 1 133 0
 507 000a 0268     		ldr	r2, [r0]
 508 000c 0549     		ldr	r1, .L58
 509 000e 0648     		ldr	r0, .L58+4
 510              	.LVL33:
 511 0010 FFF7FEFF 		bl	Uart3_printf
 512              	.LVL34:
 513              		.loc 1 136 0
ARM GAS  C:\Users\IDONNO~1.SON\AppData\Local\Temp\ccCtUJn5.s 			page 10


 514 0014 0423     		movs	r3, #4
 515 0016 6360     		str	r3, [r4, #4]
 516              		.loc 1 139 0
 517 0018 2368     		ldr	r3, [r4]
 518 001a 43F04003 		orr	r3, r3, #64
 519 001e 2360     		str	r3, [r4]
 520 0020 10BD     		pop	{r4, pc}
 521              	.LVL35:
 522              	.L59:
 523 0022 00BF     		.align	2
 524              	.L58:
 525 0024 0C000000 		.word	.LC1
 526 0028 00000000 		.word	SD3
 527              		.cfi_endproc
 528              	.LFE261:
 529              		.size	SPI_Init_for_DAC_7612, .-SPI_Init_for_DAC_7612
 530              		.section	.text.spi_dac_hw_init,"ax",%progbits
 531              		.align	2
 532              		.p2align 4,,15
 533              		.global	spi_dac_hw_init
 534              		.thumb
 535              		.thumb_func
 536              		.type	spi_dac_hw_init, %function
 537              	spi_dac_hw_init:
 538              	.LFB262:
 539              		.loc 1 145 0
 540              		.cfi_startproc
 541              		@ args = 0, pretend = 0, frame = 0
 542              		@ frame_needed = 0, uses_anonymous_args = 0
 543 0000 10B5     		push	{r4, lr}
 544              		.cfi_def_cfa_offset 8
 545              		.cfi_offset 4, -8
 546              		.cfi_offset 14, -4
 547              	.LBB94:
 548              	.LBB95:
 549              		.loc 1 131 0
 550 0002 0A4C     		ldr	r4, .L62
 551              	.LBE95:
 552              	.LBE94:
 553              		.loc 1 146 0
 554 0004 FFF7FEFF 		bl	spi_hw_init_gpio
 555              	.LVL36:
 556              		.loc 1 147 0
 557 0008 FFF7FEFF 		bl	initGPT
 558              	.LVL37:
 559              	.LBB97:
 560              	.LBB96:
 561              		.loc 1 131 0
 562 000c 40F62703 		movw	r3, #2087
 563 0010 2360     		str	r3, [r4]
 564              		.loc 1 133 0
 565 0012 2268     		ldr	r2, [r4]
 566 0014 0649     		ldr	r1, .L62+4
 567 0016 0748     		ldr	r0, .L62+8
 568 0018 FFF7FEFF 		bl	Uart3_printf
 569              	.LVL38:
 570              		.loc 1 136 0
ARM GAS  C:\Users\IDONNO~1.SON\AppData\Local\Temp\ccCtUJn5.s 			page 11


 571 001c 0423     		movs	r3, #4
 572 001e 6360     		str	r3, [r4, #4]
 573              		.loc 1 139 0
 574 0020 2368     		ldr	r3, [r4]
 575 0022 43F04003 		orr	r3, r3, #64
 576 0026 2360     		str	r3, [r4]
 577              	.LVL39:
 578 0028 10BD     		pop	{r4, pc}
 579              	.L63:
 580 002a 00BF     		.align	2
 581              	.L62:
 582 002c 00300140 		.word	1073819648
 583 0030 0C000000 		.word	.LC1
 584 0034 00000000 		.word	SD3
 585              	.LBE96:
 586              	.LBE97:
 587              		.cfi_endproc
 588              	.LFE262:
 589              		.size	spi_dac_hw_init, .-spi_dac_hw_init
 590              		.section	.text.spi_dac_write_AB,"ax",%progbits
 591              		.align	2
 592              		.p2align 4,,15
 593              		.global	spi_dac_write_AB
 594              		.thumb
 595              		.thumb_func
 596              		.type	spi_dac_write_AB, %function
 597              	spi_dac_write_AB:
 598              	.LFB264:
 599              		.loc 1 201 0
 600              		.cfi_startproc
 601              		@ args = 0, pretend = 0, frame = 0
 602              		@ frame_needed = 0, uses_anonymous_args = 0
 603              		@ link register save eliminated.
 604              	.LVL40:
 605              		.loc 1 203 0
 606 0000 C0F30B00 		ubfx	r0, r0, #0, #12
 607              	.LVL41:
 608 0004 FFF7FEBF 		b	_spi_dac_write
 609              	.LVL42:
 610              		.cfi_endproc
 611              	.LFE264:
 612              		.size	spi_dac_write_AB, .-spi_dac_write_AB
 613              		.section	.text.spi_dac_write_A,"ax",%progbits
 614              		.align	2
 615              		.p2align 4,,15
 616              		.global	spi_dac_write_A
 617              		.thumb
 618              		.thumb_func
 619              		.type	spi_dac_write_A, %function
 620              	spi_dac_write_A:
 621              	.LFB265:
 622              		.loc 1 206 0
 623              		.cfi_startproc
 624              		@ args = 0, pretend = 0, frame = 0
 625              		@ frame_needed = 0, uses_anonymous_args = 0
 626              		@ link register save eliminated.
 627              	.LVL43:
ARM GAS  C:\Users\IDONNO~1.SON\AppData\Local\Temp\ccCtUJn5.s 			page 12


 628              		.loc 1 208 0
 629 0000 C0F30B00 		ubfx	r0, r0, #0, #12
 630              	.LVL44:
 631 0004 40F40050 		orr	r0, r0, #8192
 632 0008 FFF7FEBF 		b	_spi_dac_write
 633              	.LVL45:
 634              		.cfi_endproc
 635              	.LFE265:
 636              		.size	spi_dac_write_A, .-spi_dac_write_A
 637              		.section	.text.spi_dac_write_B,"ax",%progbits
 638              		.align	2
 639              		.p2align 4,,15
 640              		.global	spi_dac_write_B
 641              		.thumb
 642              		.thumb_func
 643              		.type	spi_dac_write_B, %function
 644              	spi_dac_write_B:
 645              	.LFB266:
 646              		.loc 1 211 0
 647              		.cfi_startproc
 648              		@ args = 0, pretend = 0, frame = 0
 649              		@ frame_needed = 0, uses_anonymous_args = 0
 650              		@ link register save eliminated.
 651              	.LVL46:
 652              		.loc 1 213 0
 653 0000 C0F30B00 		ubfx	r0, r0, #0, #12
 654              	.LVL47:
 655 0004 40F44050 		orr	r0, r0, #12288
 656 0008 FFF7FEBF 		b	_spi_dac_write
 657              	.LVL48:
 658              		.cfi_endproc
 659              	.LFE266:
 660              		.size	spi_dac_write_B, .-spi_dac_write_B
 661              		.section	.rodata.str1.4,"aMS",%progbits,1
 662              		.align	2
 663              	.LC0:
 664 0000 4352313D 		.ascii	"CR1=%X \015\012\000"
 664      2558200D 
 664      0A00
 665 000a 0000     		.space	2
 666              	.LC1:
 667 000c 4352313D 		.ascii	"CR1=%X,%X \015\012\000"
 667      25582C25 
 667      58200D0A 
 667      00
 668              		.section	.rodata.gpt_cfg,"a",%progbits
 669              		.align	2
 670              		.set	.LANCHOR0,. + 0
 671              		.type	gpt_cfg, %object
 672              		.size	gpt_cfg, 16
 673              	gpt_cfg:
 674 0000 40420F00 		.word	1000000
 675 0004 00000000 		.word	gpt_cb
 676 0008 00000000 		.word	0
 677 000c 00000000 		.space	4
 678              		.text
 679              	.Letext0:
ARM GAS  C:\Users\IDONNO~1.SON\AppData\Local\Temp\ccCtUJn5.s 			page 13


 680              		.file 2 "c:\\program files (x86)\\gnu tools arm embedded\\5.4 2016q2\\lib\\gcc\\arm-none-eabi\\5.4
 681              		.file 3 "c:\\program files (x86)\\gnu tools arm embedded\\5.4 2016q2\\arm-none-eabi\\include\\mach
 682              		.file 4 "c:\\program files (x86)\\gnu tools arm embedded\\5.4 2016q2\\arm-none-eabi\\include\\sys\
 683              		.file 5 "lib/ChibiOS_3.0.2/os/rt/ports/ARMCMx/compilers/GCC/chtypes.h"
 684              		.file 6 "lib/ChibiOS_3.0.2/os/rt/include/chsystypes.h"
 685              		.file 7 "lib/ChibiOS_3.0.2/os/rt/include/chschd.h"
 686              		.file 8 "lib/ChibiOS_3.0.2/os/ext/CMSIS/ST/stm32f407xx.h"
 687              		.file 9 "lib/ChibiOS_3.0.2/os/rt/ports/ARMCMx/chcore.h"
 688              		.file 10 "lib/ChibiOS_3.0.2/os/rt/ports/ARMCMx/chcore_v7m.h"
 689              		.file 11 "lib/ChibiOS_3.0.2/os/rt/include/chtm.h"
 690              		.file 12 "lib/ChibiOS_3.0.2/os/rt/include/chsem.h"
 691              		.file 13 "lib/ChibiOS_3.0.2/os/rt/include/chmtx.h"
 692              		.file 14 "lib/ChibiOS_3.0.2/os/rt/include/chevents.h"
 693              		.file 15 "lib/ChibiOS_3.0.2/os/rt/include/chqueues.h"
 694              		.file 16 "lib/ChibiOS_3.0.2/os/hal/ports/STM32/LLD/GPIOv2/pal_lld.h"
 695              		.file 17 "lib/ChibiOS_3.0.2/os/ext/CMSIS/ST/stm32f4xx.h"
 696              		.file 18 "lib/ChibiOS_3.0.2/os/hal/include/gpt.h"
 697              		.file 19 "lib/ChibiOS_3.0.2/os/hal/ports/STM32/LLD/TIMv1/gpt_lld.h"
 698              		.file 20 "lib/ChibiOS_3.0.2/os/hal/ports/STM32/LLD/TIMv1/stm32_tim.h"
 699              		.file 21 "lib/ChibiOS_3.0.2/os/hal/include/serial.h"
 700              		.file 22 "lib/ChibiOS_3.0.2/os/ext/CMSIS/include/core_cm4.h"
 701              		.file 23 "lib/ChibiOS_3.0.2/os/hal/ports/STM32/LLD/USARTv1/serial_lld.h"
 702              		.file 24 "src/core/uart3_print.h"
 703              		.file 25 "lib/ChibiOS_3.0.2/ext/stdperiph_stm32f4/inc/stm32f4xx_rcc.h"