ARM GAS  C:\Users\IDONNO~1.SON\AppData\Local\Temp\ccSKRQ2j.s 			page 1


   1              		.syntax unified
   2              		.cpu cortex-m4
   3              		.eabi_attribute 27, 1
   4              		.eabi_attribute 28, 1
   5              		.fpu fpv4-sp-d16
   6              		.eabi_attribute 20, 1
   7              		.eabi_attribute 21, 1
   8              		.eabi_attribute 23, 3
   9              		.eabi_attribute 24, 1
  10              		.eabi_attribute 25, 1
  11              		.eabi_attribute 26, 1
  12              		.eabi_attribute 30, 2
  13              		.eabi_attribute 34, 1
  14              		.eabi_attribute 18, 4
  15              		.thumb
  16              		.syntax unified
  17              		.file	"stm32f4xx_rcc.c"
  18              		.text
  19              	.Ltext0:
  20              		.cfi_sections	.debug_frame
  21              		.section	.text.RCC_DeInit,"ax",%progbits
  22              		.align	2
  23              		.p2align 4,,15
  24              		.global	RCC_DeInit
  25              		.thumb
  26              		.thumb_func
  27              		.type	RCC_DeInit, %function
  28              	RCC_DeInit:
  29              	.LFB112:
  30              		.file 1 "lib/ChibiOS_3.0.2/ext/stdperiph_stm32f4/src/stm32f4xx_rcc.c"
  31              		.loc 1 246 0
  32              		.cfi_startproc
  33              		@ args = 0, pretend = 0, frame = 0
  34              		@ frame_needed = 0, uses_anonymous_args = 0
  35              		@ link register save eliminated.
  36              		.loc 1 248 0
  37 0000 0A4B     		ldr	r3, .L2
  38              		.loc 1 257 0
  39 0002 0B48     		ldr	r0, .L2+4
  40              		.loc 1 248 0
  41 0004 1A68     		ldr	r2, [r3]
  42              		.loc 1 251 0
  43 0006 0021     		movs	r1, #0
  44              		.loc 1 248 0
  45 0008 42F00102 		orr	r2, r2, #1
  46 000c 1A60     		str	r2, [r3]
  47              		.loc 1 251 0
  48 000e 9960     		str	r1, [r3, #8]
  49              		.loc 1 254 0
  50 0010 1A68     		ldr	r2, [r3]
  51 0012 22F0A852 		bic	r2, r2, #352321536
  52 0016 22F41022 		bic	r2, r2, #589824
  53 001a 1A60     		str	r2, [r3]
  54              		.loc 1 257 0
  55 001c 5860     		str	r0, [r3, #4]
  56              		.loc 1 270 0
  57 001e 1A68     		ldr	r2, [r3]
ARM GAS  C:\Users\IDONNO~1.SON\AppData\Local\Temp\ccSKRQ2j.s 			page 2


  58 0020 22F48022 		bic	r2, r2, #262144
  59 0024 1A60     		str	r2, [r3]
  60              		.loc 1 273 0
  61 0026 D960     		str	r1, [r3, #12]
  62 0028 7047     		bx	lr
  63              	.L3:
  64 002a 00BF     		.align	2
  65              	.L2:
  66 002c 00380240 		.word	1073887232
  67 0030 10300024 		.word	603992080
  68              		.cfi_endproc
  69              	.LFE112:
  70              		.size	RCC_DeInit, .-RCC_DeInit
  71              		.section	.text.RCC_HSEConfig,"ax",%progbits
  72              		.align	2
  73              		.p2align 4,,15
  74              		.global	RCC_HSEConfig
  75              		.thumb
  76              		.thumb_func
  77              		.type	RCC_HSEConfig, %function
  78              	RCC_HSEConfig:
  79              	.LFB113:
  80              		.loc 1 297 0
  81              		.cfi_startproc
  82              		@ args = 0, pretend = 0, frame = 0
  83              		@ frame_needed = 0, uses_anonymous_args = 0
  84              		@ link register save eliminated.
  85              	.LVL0:
  86              		.loc 1 302 0
  87 0000 024B     		ldr	r3, .L5
  88 0002 0022     		movs	r2, #0
  89 0004 1A70     		strb	r2, [r3]
  90              		.loc 1 305 0
  91 0006 1870     		strb	r0, [r3]
  92 0008 7047     		bx	lr
  93              	.L6:
  94 000a 00BF     		.align	2
  95              	.L5:
  96 000c 02380240 		.word	1073887234
  97              		.cfi_endproc
  98              	.LFE113:
  99              		.size	RCC_HSEConfig, .-RCC_HSEConfig
 100              		.section	.text.RCC_WaitForHSEStartUp,"ax",%progbits
 101              		.align	2
 102              		.p2align 4,,15
 103              		.global	RCC_WaitForHSEStartUp
 104              		.thumb
 105              		.thumb_func
 106              		.type	RCC_WaitForHSEStartUp, %function
 107              	RCC_WaitForHSEStartUp:
 108              	.LFB114:
 109              		.loc 1 321 0
 110              		.cfi_startproc
 111              		@ args = 0, pretend = 0, frame = 8
 112              		@ frame_needed = 0, uses_anonymous_args = 0
 113              		@ link register save eliminated.
 114 0000 82B0     		sub	sp, sp, #8
ARM GAS  C:\Users\IDONNO~1.SON\AppData\Local\Temp\ccSKRQ2j.s 			page 3


 115              		.cfi_def_cfa_offset 8
 116              		.loc 1 322 0
 117 0002 0023     		movs	r3, #0
 118              	.LBB6:
 119              	.LBB7:
 120              		.loc 1 2750 0
 121 0004 0A4A     		ldr	r2, .L16
 122              	.LBE7:
 123              	.LBE6:
 124              		.loc 1 322 0
 125 0006 0193     		str	r3, [sp, #4]
 126              	.LVL1:
 127 0008 02E0     		b	.L9
 128              	.LVL2:
 129              	.L15:
 130              		.loc 1 330 0
 131 000a B3F5A04F 		cmp	r3, #20480
 132 000e 08D0     		beq	.L10
 133              	.LVL3:
 134              	.L9:
 135              	.LBB10:
 136              	.LBB8:
 137              		.loc 1 2750 0 discriminator 2
 138 0010 1368     		ldr	r3, [r2]
 139              	.LVL4:
 140              		.loc 1 2763 0 discriminator 2
 141 0012 13F4003F 		tst	r3, #131072
 142              	.LBE8:
 143              	.LBE10:
 144              		.loc 1 329 0 discriminator 2
 145 0016 019B     		ldr	r3, [sp, #4]
 146              	.LVL5:
 147 0018 03F10103 		add	r3, r3, #1
 148 001c 0193     		str	r3, [sp, #4]
 149              		.loc 1 330 0 discriminator 2
 150 001e 019B     		ldr	r3, [sp, #4]
 151              	.LBB11:
 152              	.LBB9:
 153              		.loc 1 2763 0 discriminator 2
 154 0020 F3D0     		beq	.L15
 155              	.L10:
 156              	.LVL6:
 157              	.LBE9:
 158              	.LBE11:
 159              	.LBB12:
 160              	.LBB13:
 161              		.loc 1 2750 0
 162 0022 034B     		ldr	r3, .L16
 163 0024 1868     		ldr	r0, [r3]
 164              	.LVL7:
 165              	.LBE13:
 166              	.LBE12:
 167              		.loc 1 340 0
 168 0026 C0F34040 		ubfx	r0, r0, #17, #1
 169              	.LVL8:
 170              		.loc 1 341 0
 171 002a 02B0     		add	sp, sp, #8
ARM GAS  C:\Users\IDONNO~1.SON\AppData\Local\Temp\ccSKRQ2j.s 			page 4


 172              		.cfi_def_cfa_offset 0
 173              		@ sp needed
 174 002c 7047     		bx	lr
 175              	.L17:
 176 002e 00BF     		.align	2
 177              	.L16:
 178 0030 00380240 		.word	1073887232
 179              		.cfi_endproc
 180              	.LFE114:
 181              		.size	RCC_WaitForHSEStartUp, .-RCC_WaitForHSEStartUp
 182              		.section	.text.RCC_AdjustHSICalibrationValue,"ax",%progbits
 183              		.align	2
 184              		.p2align 4,,15
 185              		.global	RCC_AdjustHSICalibrationValue
 186              		.thumb
 187              		.thumb_func
 188              		.type	RCC_AdjustHSICalibrationValue, %function
 189              	RCC_AdjustHSICalibrationValue:
 190              	.LFB115:
 191              		.loc 1 352 0
 192              		.cfi_startproc
 193              		@ args = 0, pretend = 0, frame = 0
 194              		@ frame_needed = 0, uses_anonymous_args = 0
 195              		@ link register save eliminated.
 196              	.LVL9:
 197              		.loc 1 357 0
 198 0000 034A     		ldr	r2, .L19
 199 0002 1368     		ldr	r3, [r2]
 200              	.LVL10:
 201              		.loc 1 360 0
 202 0004 23F0F803 		bic	r3, r3, #248
 203              	.LVL11:
 204              		.loc 1 363 0
 205 0008 43EAC000 		orr	r0, r3, r0, lsl #3
 206              	.LVL12:
 207              		.loc 1 366 0
 208 000c 1060     		str	r0, [r2]
 209 000e 7047     		bx	lr
 210              	.L20:
 211              		.align	2
 212              	.L19:
 213 0010 00380240 		.word	1073887232
 214              		.cfi_endproc
 215              	.LFE115:
 216              		.size	RCC_AdjustHSICalibrationValue, .-RCC_AdjustHSICalibrationValue
 217              		.section	.text.RCC_HSICmd,"ax",%progbits
 218              		.align	2
 219              		.p2align 4,,15
 220              		.global	RCC_HSICmd
 221              		.thumb
 222              		.thumb_func
 223              		.type	RCC_HSICmd, %function
 224              	RCC_HSICmd:
 225              	.LFB116:
 226              		.loc 1 388 0
 227              		.cfi_startproc
 228              		@ args = 0, pretend = 0, frame = 0
ARM GAS  C:\Users\IDONNO~1.SON\AppData\Local\Temp\ccSKRQ2j.s 			page 5


 229              		@ frame_needed = 0, uses_anonymous_args = 0
 230              		@ link register save eliminated.
 231              	.LVL13:
 232              		.loc 1 392 0
 233 0000 014B     		ldr	r3, .L22
 234 0002 1860     		str	r0, [r3]
 235 0004 7047     		bx	lr
 236              	.L23:
 237 0006 00BF     		.align	2
 238              	.L22:
 239 0008 00004742 		.word	1111949312
 240              		.cfi_endproc
 241              	.LFE116:
 242              		.size	RCC_HSICmd, .-RCC_HSICmd
 243              		.section	.text.RCC_LSEConfig,"ax",%progbits
 244              		.align	2
 245              		.p2align 4,,15
 246              		.global	RCC_LSEConfig
 247              		.thumb
 248              		.thumb_func
 249              		.type	RCC_LSEConfig, %function
 250              	RCC_LSEConfig:
 251              	.LFB117:
 252              		.loc 1 413 0
 253              		.cfi_startproc
 254              		@ args = 0, pretend = 0, frame = 0
 255              		@ frame_needed = 0, uses_anonymous_args = 0
 256              		@ link register save eliminated.
 257              	.LVL14:
 258              		.loc 1 419 0
 259 0000 064B     		ldr	r3, .L29
 260 0002 0022     		movs	r2, #0
 261              		.loc 1 425 0
 262 0004 0128     		cmp	r0, #1
 263              		.loc 1 419 0
 264 0006 1A70     		strb	r2, [r3]
 265              		.loc 1 422 0
 266 0008 1A70     		strb	r2, [r3]
 267              		.loc 1 425 0
 268 000a 05D0     		beq	.L26
 269 000c 0428     		cmp	r0, #4
 270 000e 02D1     		bne	.L28
 271              		.loc 1 433 0
 272 0010 0522     		movs	r2, #5
 273 0012 1A70     		strb	r2, [r3]
 274 0014 7047     		bx	lr
 275              	.L28:
 276 0016 7047     		bx	lr
 277              	.L26:
 278              		.loc 1 429 0
 279 0018 1870     		strb	r0, [r3]
 280              		.loc 1 430 0
 281 001a 7047     		bx	lr
 282              	.L30:
 283              		.align	2
 284              	.L29:
 285 001c 70380240 		.word	1073887344
ARM GAS  C:\Users\IDONNO~1.SON\AppData\Local\Temp\ccSKRQ2j.s 			page 6


 286              		.cfi_endproc
 287              	.LFE117:
 288              		.size	RCC_LSEConfig, .-RCC_LSEConfig
 289              		.section	.text.RCC_LSICmd,"ax",%progbits
 290              		.align	2
 291              		.p2align 4,,15
 292              		.global	RCC_LSICmd
 293              		.thumb
 294              		.thumb_func
 295              		.type	RCC_LSICmd, %function
 296              	RCC_LSICmd:
 297              	.LFB118:
 298              		.loc 1 453 0
 299              		.cfi_startproc
 300              		@ args = 0, pretend = 0, frame = 0
 301              		@ frame_needed = 0, uses_anonymous_args = 0
 302              		@ link register save eliminated.
 303              	.LVL15:
 304              		.loc 1 457 0
 305 0000 014B     		ldr	r3, .L32
 306 0002 1860     		str	r0, [r3]
 307 0004 7047     		bx	lr
 308              	.L33:
 309 0006 00BF     		.align	2
 310              	.L32:
 311 0008 800E4742 		.word	1111953024
 312              		.cfi_endproc
 313              	.LFE118:
 314              		.size	RCC_LSICmd, .-RCC_LSICmd
 315              		.section	.text.RCC_PLLCmd,"ax",%progbits
 316              		.align	2
 317              		.p2align 4,,15
 318              		.global	RCC_PLLCmd
 319              		.thumb
 320              		.thumb_func
 321              		.type	RCC_PLLCmd, %function
 322              	RCC_PLLCmd:
 323              	.LFB119:
 324              		.loc 1 576 0
 325              		.cfi_startproc
 326              		@ args = 0, pretend = 0, frame = 0
 327              		@ frame_needed = 0, uses_anonymous_args = 0
 328              		@ link register save eliminated.
 329              	.LVL16:
 330              		.loc 1 579 0
 331 0000 014B     		ldr	r3, .L35
 332 0002 1860     		str	r0, [r3]
 333 0004 7047     		bx	lr
 334              	.L36:
 335 0006 00BF     		.align	2
 336              	.L35:
 337 0008 60004742 		.word	1111949408
 338              		.cfi_endproc
 339              	.LFE119:
 340              		.size	RCC_PLLCmd, .-RCC_PLLCmd
 341              		.section	.text.RCC_PLLI2SCmd,"ax",%progbits
 342              		.align	2
ARM GAS  C:\Users\IDONNO~1.SON\AppData\Local\Temp\ccSKRQ2j.s 			page 7


 343              		.p2align 4,,15
 344              		.global	RCC_PLLI2SCmd
 345              		.thumb
 346              		.thumb_func
 347              		.type	RCC_PLLI2SCmd, %function
 348              	RCC_PLLI2SCmd:
 349              	.LFB120:
 350              		.loc 1 745 0
 351              		.cfi_startproc
 352              		@ args = 0, pretend = 0, frame = 0
 353              		@ frame_needed = 0, uses_anonymous_args = 0
 354              		@ link register save eliminated.
 355              	.LVL17:
 356              		.loc 1 748 0
 357 0000 014B     		ldr	r3, .L38
 358 0002 1860     		str	r0, [r3]
 359 0004 7047     		bx	lr
 360              	.L39:
 361 0006 00BF     		.align	2
 362              	.L38:
 363 0008 68004742 		.word	1111949416
 364              		.cfi_endproc
 365              	.LFE120:
 366              		.size	RCC_PLLI2SCmd, .-RCC_PLLI2SCmd
 367              		.section	.text.RCC_PLLSAICmd,"ax",%progbits
 368              		.align	2
 369              		.p2align 4,,15
 370              		.global	RCC_PLLSAICmd
 371              		.thumb
 372              		.thumb_func
 373              		.type	RCC_PLLSAICmd, %function
 374              	RCC_PLLSAICmd:
 375              	.LFB121:
 376              		.loc 1 874 0
 377              		.cfi_startproc
 378              		@ args = 0, pretend = 0, frame = 0
 379              		@ frame_needed = 0, uses_anonymous_args = 0
 380              		@ link register save eliminated.
 381              	.LVL18:
 382              		.loc 1 877 0
 383 0000 014B     		ldr	r3, .L41
 384 0002 1860     		str	r0, [r3]
 385 0004 7047     		bx	lr
 386              	.L42:
 387 0006 00BF     		.align	2
 388              	.L41:
 389 0008 70004742 		.word	1111949424
 390              		.cfi_endproc
 391              	.LFE121:
 392              		.size	RCC_PLLSAICmd, .-RCC_PLLSAICmd
 393              		.section	.text.RCC_ClockSecuritySystemCmd,"ax",%progbits
 394              		.align	2
 395              		.p2align 4,,15
 396              		.global	RCC_ClockSecuritySystemCmd
 397              		.thumb
 398              		.thumb_func
 399              		.type	RCC_ClockSecuritySystemCmd, %function
ARM GAS  C:\Users\IDONNO~1.SON\AppData\Local\Temp\ccSKRQ2j.s 			page 8


 400              	RCC_ClockSecuritySystemCmd:
 401              	.LFB122:
 402              		.loc 1 892 0
 403              		.cfi_startproc
 404              		@ args = 0, pretend = 0, frame = 0
 405              		@ frame_needed = 0, uses_anonymous_args = 0
 406              		@ link register save eliminated.
 407              	.LVL19:
 408              		.loc 1 895 0
 409 0000 014B     		ldr	r3, .L44
 410 0002 1860     		str	r0, [r3]
 411 0004 7047     		bx	lr
 412              	.L45:
 413 0006 00BF     		.align	2
 414              	.L44:
 415 0008 4C004742 		.word	1111949388
 416              		.cfi_endproc
 417              	.LFE122:
 418              		.size	RCC_ClockSecuritySystemCmd, .-RCC_ClockSecuritySystemCmd
 419              		.section	.text.RCC_MCO1Config,"ax",%progbits
 420              		.align	2
 421              		.p2align 4,,15
 422              		.global	RCC_MCO1Config
 423              		.thumb
 424              		.thumb_func
 425              		.type	RCC_MCO1Config, %function
 426              	RCC_MCO1Config:
 427              	.LFB123:
 428              		.loc 1 917 0
 429              		.cfi_startproc
 430              		@ args = 0, pretend = 0, frame = 0
 431              		@ frame_needed = 0, uses_anonymous_args = 0
 432              		@ link register save eliminated.
 433              	.LVL20:
 434              		.loc 1 924 0
 435 0000 034A     		ldr	r2, .L47
 436 0002 9368     		ldr	r3, [r2, #8]
 437              	.LVL21:
 438 0004 23F0EC63 		bic	r3, r3, #123731968
 439              	.LVL22:
 440 0008 1943     		orrs	r1, r1, r3
 441              	.LVL23:
 442              		.loc 1 930 0
 443 000a 0843     		orrs	r0, r0, r1
 444              	.LVL24:
 445              		.loc 1 933 0
 446 000c 9060     		str	r0, [r2, #8]
 447 000e 7047     		bx	lr
 448              	.L48:
 449              		.align	2
 450              	.L47:
 451 0010 00380240 		.word	1073887232
 452              		.cfi_endproc
 453              	.LFE123:
 454              		.size	RCC_MCO1Config, .-RCC_MCO1Config
 455              		.section	.text.RCC_MCO2Config,"ax",%progbits
 456              		.align	2
ARM GAS  C:\Users\IDONNO~1.SON\AppData\Local\Temp\ccSKRQ2j.s 			page 9


 457              		.p2align 4,,15
 458              		.global	RCC_MCO2Config
 459              		.thumb
 460              		.thumb_func
 461              		.type	RCC_MCO2Config, %function
 462              	RCC_MCO2Config:
 463              	.LFB124:
 464              		.loc 1 962 0
 465              		.cfi_startproc
 466              		@ args = 0, pretend = 0, frame = 0
 467              		@ frame_needed = 0, uses_anonymous_args = 0
 468              		@ link register save eliminated.
 469              	.LVL25:
 470              		.loc 1 969 0
 471 0000 034A     		ldr	r2, .L50
 472 0002 9368     		ldr	r3, [r2, #8]
 473              	.LVL26:
 474 0004 23F07843 		bic	r3, r3, #-134217728
 475              	.LVL27:
 476 0008 1943     		orrs	r1, r1, r3
 477              	.LVL28:
 478              		.loc 1 975 0
 479 000a 0843     		orrs	r0, r0, r1
 480              	.LVL29:
 481              		.loc 1 978 0
 482 000c 9060     		str	r0, [r2, #8]
 483 000e 7047     		bx	lr
 484              	.L51:
 485              		.align	2
 486              	.L50:
 487 0010 00380240 		.word	1073887232
 488              		.cfi_endproc
 489              	.LFE124:
 490              		.size	RCC_MCO2Config, .-RCC_MCO2Config
 491              		.section	.text.RCC_SYSCLKConfig,"ax",%progbits
 492              		.align	2
 493              		.p2align 4,,15
 494              		.global	RCC_SYSCLKConfig
 495              		.thumb
 496              		.thumb_func
 497              		.type	RCC_SYSCLKConfig, %function
 498              	RCC_SYSCLKConfig:
 499              	.LFB125:
 500              		.loc 1 1162 0
 501              		.cfi_startproc
 502              		@ args = 0, pretend = 0, frame = 0
 503              		@ frame_needed = 0, uses_anonymous_args = 0
 504              		@ link register save eliminated.
 505              	.LVL30:
 506              		.loc 1 1168 0
 507 0000 034A     		ldr	r2, .L53
 508 0002 9368     		ldr	r3, [r2, #8]
 509              	.LVL31:
 510              		.loc 1 1171 0
 511 0004 23F00303 		bic	r3, r3, #3
 512              	.LVL32:
 513              		.loc 1 1174 0
ARM GAS  C:\Users\IDONNO~1.SON\AppData\Local\Temp\ccSKRQ2j.s 			page 10


 514 0008 1843     		orrs	r0, r0, r3
 515              	.LVL33:
 516              		.loc 1 1177 0
 517 000a 9060     		str	r0, [r2, #8]
 518 000c 7047     		bx	lr
 519              	.L54:
 520 000e 00BF     		.align	2
 521              	.L53:
 522 0010 00380240 		.word	1073887232
 523              		.cfi_endproc
 524              	.LFE125:
 525              		.size	RCC_SYSCLKConfig, .-RCC_SYSCLKConfig
 526              		.section	.text.RCC_GetSYSCLKSource,"ax",%progbits
 527              		.align	2
 528              		.p2align 4,,15
 529              		.global	RCC_GetSYSCLKSource
 530              		.thumb
 531              		.thumb_func
 532              		.type	RCC_GetSYSCLKSource, %function
 533              	RCC_GetSYSCLKSource:
 534              	.LFB126:
 535              		.loc 1 1191 0
 536              		.cfi_startproc
 537              		@ args = 0, pretend = 0, frame = 0
 538              		@ frame_needed = 0, uses_anonymous_args = 0
 539              		@ link register save eliminated.
 540              		.loc 1 1192 0
 541 0000 024B     		ldr	r3, .L56
 542 0002 9868     		ldr	r0, [r3, #8]
 543              		.loc 1 1193 0
 544 0004 00F00C00 		and	r0, r0, #12
 545 0008 7047     		bx	lr
 546              	.L57:
 547 000a 00BF     		.align	2
 548              	.L56:
 549 000c 00380240 		.word	1073887232
 550              		.cfi_endproc
 551              	.LFE126:
 552              		.size	RCC_GetSYSCLKSource, .-RCC_GetSYSCLKSource
 553              		.section	.text.RCC_HCLKConfig,"ax",%progbits
 554              		.align	2
 555              		.p2align 4,,15
 556              		.global	RCC_HCLKConfig
 557              		.thumb
 558              		.thumb_func
 559              		.type	RCC_HCLKConfig, %function
 560              	RCC_HCLKConfig:
 561              	.LFB127:
 562              		.loc 1 1216 0
 563              		.cfi_startproc
 564              		@ args = 0, pretend = 0, frame = 0
 565              		@ frame_needed = 0, uses_anonymous_args = 0
 566              		@ link register save eliminated.
 567              	.LVL34:
 568              		.loc 1 1222 0
 569 0000 034A     		ldr	r2, .L59
 570 0002 9368     		ldr	r3, [r2, #8]
ARM GAS  C:\Users\IDONNO~1.SON\AppData\Local\Temp\ccSKRQ2j.s 			page 11


 571              	.LVL35:
 572              		.loc 1 1225 0
 573 0004 23F0F003 		bic	r3, r3, #240
 574              	.LVL36:
 575              		.loc 1 1228 0
 576 0008 1843     		orrs	r0, r0, r3
 577              	.LVL37:
 578              		.loc 1 1231 0
 579 000a 9060     		str	r0, [r2, #8]
 580 000c 7047     		bx	lr
 581              	.L60:
 582 000e 00BF     		.align	2
 583              	.L59:
 584 0010 00380240 		.word	1073887232
 585              		.cfi_endproc
 586              	.LFE127:
 587              		.size	RCC_HCLKConfig, .-RCC_HCLKConfig
 588              		.section	.text.RCC_PCLK1Config,"ax",%progbits
 589              		.align	2
 590              		.p2align 4,,15
 591              		.global	RCC_PCLK1Config
 592              		.thumb
 593              		.thumb_func
 594              		.type	RCC_PCLK1Config, %function
 595              	RCC_PCLK1Config:
 596              	.LFB128:
 597              		.loc 1 1247 0
 598              		.cfi_startproc
 599              		@ args = 0, pretend = 0, frame = 0
 600              		@ frame_needed = 0, uses_anonymous_args = 0
 601              		@ link register save eliminated.
 602              	.LVL38:
 603              		.loc 1 1253 0
 604 0000 034A     		ldr	r2, .L62
 605 0002 9368     		ldr	r3, [r2, #8]
 606              	.LVL39:
 607              		.loc 1 1256 0
 608 0004 23F4E053 		bic	r3, r3, #7168
 609              	.LVL40:
 610              		.loc 1 1259 0
 611 0008 1843     		orrs	r0, r0, r3
 612              	.LVL41:
 613              		.loc 1 1262 0
 614 000a 9060     		str	r0, [r2, #8]
 615 000c 7047     		bx	lr
 616              	.L63:
 617 000e 00BF     		.align	2
 618              	.L62:
 619 0010 00380240 		.word	1073887232
 620              		.cfi_endproc
 621              	.LFE128:
 622              		.size	RCC_PCLK1Config, .-RCC_PCLK1Config
 623              		.section	.text.RCC_PCLK2Config,"ax",%progbits
 624              		.align	2
 625              		.p2align 4,,15
 626              		.global	RCC_PCLK2Config
 627              		.thumb
ARM GAS  C:\Users\IDONNO~1.SON\AppData\Local\Temp\ccSKRQ2j.s 			page 12


 628              		.thumb_func
 629              		.type	RCC_PCLK2Config, %function
 630              	RCC_PCLK2Config:
 631              	.LFB129:
 632              		.loc 1 1278 0
 633              		.cfi_startproc
 634              		@ args = 0, pretend = 0, frame = 0
 635              		@ frame_needed = 0, uses_anonymous_args = 0
 636              		@ link register save eliminated.
 637              	.LVL42:
 638              		.loc 1 1284 0
 639 0000 034A     		ldr	r2, .L65
 640 0002 9368     		ldr	r3, [r2, #8]
 641              	.LVL43:
 642              		.loc 1 1287 0
 643 0004 23F46043 		bic	r3, r3, #57344
 644              	.LVL44:
 645              		.loc 1 1290 0
 646 0008 43EAC000 		orr	r0, r3, r0, lsl #3
 647              	.LVL45:
 648              		.loc 1 1293 0
 649 000c 9060     		str	r0, [r2, #8]
 650 000e 7047     		bx	lr
 651              	.L66:
 652              		.align	2
 653              	.L65:
 654 0010 00380240 		.word	1073887232
 655              		.cfi_endproc
 656              	.LFE129:
 657              		.size	RCC_PCLK2Config, .-RCC_PCLK2Config
 658              		.section	.text.RCC_GetClocksFreq,"ax",%progbits
 659              		.align	2
 660              		.p2align 4,,15
 661              		.global	RCC_GetClocksFreq
 662              		.thumb
 663              		.thumb_func
 664              		.type	RCC_GetClocksFreq, %function
 665              	RCC_GetClocksFreq:
 666              	.LFB130:
 667              		.loc 1 1330 0
 668              		.cfi_startproc
 669              		@ args = 0, pretend = 0, frame = 0
 670              		@ frame_needed = 0, uses_anonymous_args = 0
 671              		@ link register save eliminated.
 672              	.LVL46:
 673 0000 10B4     		push	{r4}
 674              		.cfi_def_cfa_offset 4
 675              		.cfi_offset 4, -4
 676              		.loc 1 1337 0
 677 0002 214C     		ldr	r4, .L79
 678 0004 A368     		ldr	r3, [r4, #8]
 679              	.LVL47:
 680              		.loc 1 1339 0
 681 0006 03F00C03 		and	r3, r3, #12
 682              	.LVL48:
 683 000a 042B     		cmp	r3, #4
 684 000c 1BD0     		beq	.L69
ARM GAS  C:\Users\IDONNO~1.SON\AppData\Local\Temp\ccSKRQ2j.s 			page 13


 685 000e 082B     		cmp	r3, #8
 686 0010 1CD0     		beq	.L78
 687              		.loc 1 1395 0
 688 0012 1E4B     		ldr	r3, .L79+4
 689              	.LVL49:
 690 0014 0360     		str	r3, [r0]
 691              	.LVL50:
 692              	.L72:
 693              		.loc 1 1401 0
 694 0016 1C4A     		ldr	r2, .L79
 695              		.loc 1 1403 0
 696 0018 1D49     		ldr	r1, .L79+8
 697              		.loc 1 1401 0
 698 001a 9468     		ldr	r4, [r2, #8]
 699              	.LVL51:
 700              		.loc 1 1402 0
 701 001c C4F30314 		ubfx	r4, r4, #4, #4
 702              	.LVL52:
 703              		.loc 1 1403 0
 704 0020 0C5D     		ldrb	r4, [r1, r4]	@ zero_extendqisi2
 705              	.LVL53:
 706              		.loc 1 1405 0
 707 0022 E340     		lsrs	r3, r3, r4
 708 0024 4360     		str	r3, [r0, #4]
 709              		.loc 1 1408 0
 710 0026 9468     		ldr	r4, [r2, #8]
 711              	.LVL54:
 712              		.loc 1 1409 0
 713 0028 C4F38224 		ubfx	r4, r4, #10, #3
 714              	.LVL55:
 715              		.loc 1 1410 0
 716 002c 0C5D     		ldrb	r4, [r1, r4]	@ zero_extendqisi2
 717              	.LVL56:
 718              		.loc 1 1412 0
 719 002e 23FA04F4 		lsr	r4, r3, r4
 720              	.LVL57:
 721 0032 8460     		str	r4, [r0, #8]
 722              		.loc 1 1415 0
 723 0034 9268     		ldr	r2, [r2, #8]
 724              	.LVL58:
 725              		.loc 1 1420 0
 726 0036 5DF8044B 		ldr	r4, [sp], #4
 727              		.cfi_remember_state
 728              		.cfi_restore 4
 729              		.cfi_def_cfa_offset 0
 730              		.loc 1 1416 0
 731 003a C2F34232 		ubfx	r2, r2, #13, #3
 732              	.LVL59:
 733              		.loc 1 1417 0
 734 003e 8A5C     		ldrb	r2, [r1, r2]	@ zero_extendqisi2
 735              	.LVL60:
 736              		.loc 1 1419 0
 737 0040 D340     		lsrs	r3, r3, r2
 738 0042 C360     		str	r3, [r0, #12]
 739              		.loc 1 1420 0
 740 0044 7047     		bx	lr
 741              	.LVL61:
ARM GAS  C:\Users\IDONNO~1.SON\AppData\Local\Temp\ccSKRQ2j.s 			page 14


 742              	.L69:
 743              		.cfi_restore_state
 744              		.loc 1 1345 0
 745 0046 134B     		ldr	r3, .L79+12
 746              	.LVL62:
 747 0048 0360     		str	r3, [r0]
 748              		.loc 1 1346 0
 749 004a E4E7     		b	.L72
 750              	.LVL63:
 751              	.L78:
 752              		.loc 1 1352 0
 753 004c 6368     		ldr	r3, [r4, #4]
 754              	.LVL64:
 755              		.loc 1 1353 0
 756 004e 6168     		ldr	r1, [r4, #4]
 757              		.loc 1 1355 0
 758 0050 13F4800F 		tst	r3, #4194304
 759              		.loc 1 1358 0
 760 0054 6368     		ldr	r3, [r4, #4]
 761              	.LVL65:
 762 0056 18BF     		it	ne
 763 0058 0E4C     		ldrne	r4, .L79+12
 764              		.loc 1 1353 0
 765 005a 01F03F02 		and	r2, r1, #63
 766              	.LVL66:
 767              		.loc 1 1363 0
 768 005e 0CBF     		ite	eq
 769 0060 0A49     		ldreq	r1, .L79+4
 770              		.loc 1 1358 0
 771 0062 B4FBF2F1 		udivne	r1, r4, r2
 772              		.loc 1 1363 0
 773 0066 C3F38813 		ubfx	r3, r3, #6, #9
 774 006a 08BF     		it	eq
 775 006c B1FBF2F1 		udiveq	r1, r1, r2
 776 0070 01FB03F2 		mul	r2, r1, r3
 777              	.LVL67:
 778              		.loc 1 1366 0
 779 0074 044B     		ldr	r3, .L79
 780 0076 5B68     		ldr	r3, [r3, #4]
 781              	.LVL68:
 782              		.loc 1 1367 0
 783 0078 C3F30143 		ubfx	r3, r3, #16, #2
 784              	.LVL69:
 785 007c 0133     		adds	r3, r3, #1
 786 007e 5B00     		lsls	r3, r3, #1
 787 0080 B2FBF3F3 		udiv	r3, r2, r3
 788 0084 0360     		str	r3, [r0]
 789              		.loc 1 1368 0
 790 0086 C6E7     		b	.L72
 791              	.L80:
 792              		.align	2
 793              	.L79:
 794 0088 00380240 		.word	1073887232
 795 008c 0024F400 		.word	16000000
 796 0090 00000000 		.word	.LANCHOR0
 797 0094 00127A00 		.word	8000000
 798              		.cfi_endproc
ARM GAS  C:\Users\IDONNO~1.SON\AppData\Local\Temp\ccSKRQ2j.s 			page 15


 799              	.LFE130:
 800              		.size	RCC_GetClocksFreq, .-RCC_GetClocksFreq
 801              		.section	.text.RCC_RTCCLKConfig,"ax",%progbits
 802              		.align	2
 803              		.p2align 4,,15
 804              		.global	RCC_RTCCLKConfig
 805              		.thumb
 806              		.thumb_func
 807              		.type	RCC_RTCCLKConfig, %function
 808              	RCC_RTCCLKConfig:
 809              	.LFB131:
 810              		.loc 1 1483 0
 811              		.cfi_startproc
 812              		@ args = 0, pretend = 0, frame = 0
 813              		@ frame_needed = 0, uses_anonymous_args = 0
 814              		@ link register save eliminated.
 815              	.LVL70:
 816              		.loc 1 1489 0
 817 0000 00F44073 		and	r3, r0, #768
 818 0004 B3F5407F 		cmp	r3, #768
 819 0008 09D1     		bne	.L82
 820              		.loc 1 1491 0
 821 000a 0849     		ldr	r1, .L83
 822 000c 8B68     		ldr	r3, [r1, #8]
 823              	.LVL71:
 824              		.loc 1 1497 0
 825 000e 20F07042 		bic	r2, r0, #-268435456
 826              		.loc 1 1494 0
 827 0012 23F4F813 		bic	r3, r3, #2031616
 828              	.LVL72:
 829              		.loc 1 1497 0
 830 0016 22F44072 		bic	r2, r2, #768
 831 001a 1343     		orrs	r3, r3, r2
 832              	.LVL73:
 833              		.loc 1 1500 0
 834 001c 8B60     		str	r3, [r1, #8]
 835              	.LVL74:
 836              	.L82:
 837              		.loc 1 1504 0
 838 001e 034A     		ldr	r2, .L83
 839 0020 136F     		ldr	r3, [r2, #112]
 840 0022 C0F30B00 		ubfx	r0, r0, #0, #12
 841              	.LVL75:
 842 0026 1843     		orrs	r0, r0, r3
 843 0028 1067     		str	r0, [r2, #112]
 844 002a 7047     		bx	lr
 845              	.L84:
 846              		.align	2
 847              	.L83:
 848 002c 00380240 		.word	1073887232
 849              		.cfi_endproc
 850              	.LFE131:
 851              		.size	RCC_RTCCLKConfig, .-RCC_RTCCLKConfig
 852              		.section	.text.RCC_RTCCLKCmd,"ax",%progbits
 853              		.align	2
 854              		.p2align 4,,15
 855              		.global	RCC_RTCCLKCmd
ARM GAS  C:\Users\IDONNO~1.SON\AppData\Local\Temp\ccSKRQ2j.s 			page 16


 856              		.thumb
 857              		.thumb_func
 858              		.type	RCC_RTCCLKCmd, %function
 859              	RCC_RTCCLKCmd:
 860              	.LFB132:
 861              		.loc 1 1515 0
 862              		.cfi_startproc
 863              		@ args = 0, pretend = 0, frame = 0
 864              		@ frame_needed = 0, uses_anonymous_args = 0
 865              		@ link register save eliminated.
 866              	.LVL76:
 867              		.loc 1 1519 0
 868 0000 014B     		ldr	r3, .L86
 869 0002 1860     		str	r0, [r3]
 870 0004 7047     		bx	lr
 871              	.L87:
 872 0006 00BF     		.align	2
 873              	.L86:
 874 0008 3C0E4742 		.word	1111952956
 875              		.cfi_endproc
 876              	.LFE132:
 877              		.size	RCC_RTCCLKCmd, .-RCC_RTCCLKCmd
 878              		.section	.text.RCC_BackupResetCmd,"ax",%progbits
 879              		.align	2
 880              		.p2align 4,,15
 881              		.global	RCC_BackupResetCmd
 882              		.thumb
 883              		.thumb_func
 884              		.type	RCC_BackupResetCmd, %function
 885              	RCC_BackupResetCmd:
 886              	.LFB133:
 887              		.loc 1 1532 0
 888              		.cfi_startproc
 889              		@ args = 0, pretend = 0, frame = 0
 890              		@ frame_needed = 0, uses_anonymous_args = 0
 891              		@ link register save eliminated.
 892              	.LVL77:
 893              		.loc 1 1535 0
 894 0000 014B     		ldr	r3, .L89
 895 0002 1860     		str	r0, [r3]
 896 0004 7047     		bx	lr
 897              	.L90:
 898 0006 00BF     		.align	2
 899              	.L89:
 900 0008 400E4742 		.word	1111952960
 901              		.cfi_endproc
 902              	.LFE133:
 903              		.size	RCC_BackupResetCmd, .-RCC_BackupResetCmd
 904              		.section	.text.RCC_TIMCLKPresConfig,"ax",%progbits
 905              		.align	2
 906              		.p2align 4,,15
 907              		.global	RCC_TIMCLKPresConfig
 908              		.thumb
 909              		.thumb_func
 910              		.type	RCC_TIMCLKPresConfig, %function
 911              	RCC_TIMCLKPresConfig:
 912              	.LFB134:
ARM GAS  C:\Users\IDONNO~1.SON\AppData\Local\Temp\ccSKRQ2j.s 			page 17


 913              		.loc 1 1756 0
 914              		.cfi_startproc
 915              		@ args = 0, pretend = 0, frame = 0
 916              		@ frame_needed = 0, uses_anonymous_args = 0
 917              		@ link register save eliminated.
 918              	.LVL78:
 919              		.loc 1 1760 0
 920 0000 014B     		ldr	r3, .L92
 921 0002 1860     		str	r0, [r3]
 922 0004 7047     		bx	lr
 923              	.L93:
 924 0006 00BF     		.align	2
 925              	.L92:
 926 0008 E0114742 		.word	1111953888
 927              		.cfi_endproc
 928              	.LFE134:
 929              		.size	RCC_TIMCLKPresConfig, .-RCC_TIMCLKPresConfig
 930              		.section	.text.RCC_AHB1PeriphClockCmd,"ax",%progbits
 931              		.align	2
 932              		.p2align 4,,15
 933              		.global	RCC_AHB1PeriphClockCmd
 934              		.thumb
 935              		.thumb_func
 936              		.type	RCC_AHB1PeriphClockCmd, %function
 937              	RCC_AHB1PeriphClockCmd:
 938              	.LFB135:
 939              		.loc 1 1798 0
 940              		.cfi_startproc
 941              		@ args = 0, pretend = 0, frame = 0
 942              		@ frame_needed = 0, uses_anonymous_args = 0
 943              		@ link register save eliminated.
 944              	.LVL79:
 945              		.loc 1 1803 0
 946 0000 29B9     		cbnz	r1, .L97
 947              		.loc 1 1809 0
 948 0002 054A     		ldr	r2, .L98
 949 0004 136B     		ldr	r3, [r2, #48]
 950 0006 23EA0000 		bic	r0, r3, r0
 951              	.LVL80:
 952 000a 1063     		str	r0, [r2, #48]
 953 000c 7047     		bx	lr
 954              	.LVL81:
 955              	.L97:
 956              		.loc 1 1805 0
 957 000e 024B     		ldr	r3, .L98
 958 0010 1A6B     		ldr	r2, [r3, #48]
 959 0012 1043     		orrs	r0, r0, r2
 960              	.LVL82:
 961 0014 1863     		str	r0, [r3, #48]
 962 0016 7047     		bx	lr
 963              	.L99:
 964              		.align	2
 965              	.L98:
 966 0018 00380240 		.word	1073887232
 967              		.cfi_endproc
 968              	.LFE135:
 969              		.size	RCC_AHB1PeriphClockCmd, .-RCC_AHB1PeriphClockCmd
ARM GAS  C:\Users\IDONNO~1.SON\AppData\Local\Temp\ccSKRQ2j.s 			page 18


 970              		.section	.text.RCC_AHB2PeriphClockCmd,"ax",%progbits
 971              		.align	2
 972              		.p2align 4,,15
 973              		.global	RCC_AHB2PeriphClockCmd
 974              		.thumb
 975              		.thumb_func
 976              		.type	RCC_AHB2PeriphClockCmd, %function
 977              	RCC_AHB2PeriphClockCmd:
 978              	.LFB136:
 979              		.loc 1 1830 0
 980              		.cfi_startproc
 981              		@ args = 0, pretend = 0, frame = 0
 982              		@ frame_needed = 0, uses_anonymous_args = 0
 983              		@ link register save eliminated.
 984              	.LVL83:
 985              		.loc 1 1835 0
 986 0000 29B9     		cbnz	r1, .L103
 987              		.loc 1 1841 0
 988 0002 054A     		ldr	r2, .L104
 989 0004 536B     		ldr	r3, [r2, #52]
 990 0006 23EA0000 		bic	r0, r3, r0
 991              	.LVL84:
 992 000a 5063     		str	r0, [r2, #52]
 993 000c 7047     		bx	lr
 994              	.LVL85:
 995              	.L103:
 996              		.loc 1 1837 0
 997 000e 024B     		ldr	r3, .L104
 998 0010 5A6B     		ldr	r2, [r3, #52]
 999 0012 1043     		orrs	r0, r0, r2
 1000              	.LVL86:
 1001 0014 5863     		str	r0, [r3, #52]
 1002 0016 7047     		bx	lr
 1003              	.L105:
 1004              		.align	2
 1005              	.L104:
 1006 0018 00380240 		.word	1073887232
 1007              		.cfi_endproc
 1008              	.LFE136:
 1009              		.size	RCC_AHB2PeriphClockCmd, .-RCC_AHB2PeriphClockCmd
 1010              		.section	.text.RCC_APB1PeriphClockCmd,"ax",%progbits
 1011              		.align	2
 1012              		.p2align 4,,15
 1013              		.global	RCC_APB1PeriphClockCmd
 1014              		.thumb
 1015              		.thumb_func
 1016              		.type	RCC_APB1PeriphClockCmd, %function
 1017              	RCC_APB1PeriphClockCmd:
 1018              	.LFB137:
 1019              		.loc 1 1917 0
 1020              		.cfi_startproc
 1021              		@ args = 0, pretend = 0, frame = 0
 1022              		@ frame_needed = 0, uses_anonymous_args = 0
 1023              		@ link register save eliminated.
 1024              	.LVL87:
 1025              		.loc 1 1922 0
 1026 0000 29B9     		cbnz	r1, .L109
ARM GAS  C:\Users\IDONNO~1.SON\AppData\Local\Temp\ccSKRQ2j.s 			page 19


 1027              		.loc 1 1928 0
 1028 0002 054A     		ldr	r2, .L110
 1029 0004 136C     		ldr	r3, [r2, #64]
 1030 0006 23EA0000 		bic	r0, r3, r0
 1031              	.LVL88:
 1032 000a 1064     		str	r0, [r2, #64]
 1033 000c 7047     		bx	lr
 1034              	.LVL89:
 1035              	.L109:
 1036              		.loc 1 1924 0
 1037 000e 024B     		ldr	r3, .L110
 1038 0010 1A6C     		ldr	r2, [r3, #64]
 1039 0012 1043     		orrs	r0, r0, r2
 1040              	.LVL90:
 1041 0014 1864     		str	r0, [r3, #64]
 1042 0016 7047     		bx	lr
 1043              	.L111:
 1044              		.align	2
 1045              	.L110:
 1046 0018 00380240 		.word	1073887232
 1047              		.cfi_endproc
 1048              	.LFE137:
 1049              		.size	RCC_APB1PeriphClockCmd, .-RCC_APB1PeriphClockCmd
 1050              		.section	.text.RCC_APB2PeriphClockCmd,"ax",%progbits
 1051              		.align	2
 1052              		.p2align 4,,15
 1053              		.global	RCC_APB2PeriphClockCmd
 1054              		.thumb
 1055              		.thumb_func
 1056              		.type	RCC_APB2PeriphClockCmd, %function
 1057              	RCC_APB2PeriphClockCmd:
 1058              	.LFB138:
 1059              		.loc 1 1964 0
 1060              		.cfi_startproc
 1061              		@ args = 0, pretend = 0, frame = 0
 1062              		@ frame_needed = 0, uses_anonymous_args = 0
 1063              		@ link register save eliminated.
 1064              	.LVL91:
 1065              		.loc 1 1969 0
 1066 0000 29B9     		cbnz	r1, .L115
 1067              		.loc 1 1975 0
 1068 0002 054A     		ldr	r2, .L116
 1069 0004 536C     		ldr	r3, [r2, #68]
 1070 0006 23EA0000 		bic	r0, r3, r0
 1071              	.LVL92:
 1072 000a 5064     		str	r0, [r2, #68]
 1073 000c 7047     		bx	lr
 1074              	.LVL93:
 1075              	.L115:
 1076              		.loc 1 1971 0
 1077 000e 024B     		ldr	r3, .L116
 1078 0010 5A6C     		ldr	r2, [r3, #68]
 1079 0012 1043     		orrs	r0, r0, r2
 1080              	.LVL94:
 1081 0014 5864     		str	r0, [r3, #68]
 1082 0016 7047     		bx	lr
 1083              	.L117:
ARM GAS  C:\Users\IDONNO~1.SON\AppData\Local\Temp\ccSKRQ2j.s 			page 20


 1084              		.align	2
 1085              	.L116:
 1086 0018 00380240 		.word	1073887232
 1087              		.cfi_endproc
 1088              	.LFE138:
 1089              		.size	RCC_APB2PeriphClockCmd, .-RCC_APB2PeriphClockCmd
 1090              		.section	.text.RCC_AHB1PeriphResetCmd,"ax",%progbits
 1091              		.align	2
 1092              		.p2align 4,,15
 1093              		.global	RCC_AHB1PeriphResetCmd
 1094              		.thumb
 1095              		.thumb_func
 1096              		.type	RCC_AHB1PeriphResetCmd, %function
 1097              	RCC_AHB1PeriphResetCmd:
 1098              	.LFB139:
 1099              		.loc 1 2007 0
 1100              		.cfi_startproc
 1101              		@ args = 0, pretend = 0, frame = 0
 1102              		@ frame_needed = 0, uses_anonymous_args = 0
 1103              		@ link register save eliminated.
 1104              	.LVL95:
 1105              		.loc 1 2012 0
 1106 0000 29B9     		cbnz	r1, .L121
 1107              		.loc 1 2018 0
 1108 0002 054A     		ldr	r2, .L122
 1109 0004 1369     		ldr	r3, [r2, #16]
 1110 0006 23EA0000 		bic	r0, r3, r0
 1111              	.LVL96:
 1112 000a 1061     		str	r0, [r2, #16]
 1113 000c 7047     		bx	lr
 1114              	.LVL97:
 1115              	.L121:
 1116              		.loc 1 2014 0
 1117 000e 024B     		ldr	r3, .L122
 1118 0010 1A69     		ldr	r2, [r3, #16]
 1119 0012 1043     		orrs	r0, r0, r2
 1120              	.LVL98:
 1121 0014 1861     		str	r0, [r3, #16]
 1122 0016 7047     		bx	lr
 1123              	.L123:
 1124              		.align	2
 1125              	.L122:
 1126 0018 00380240 		.word	1073887232
 1127              		.cfi_endproc
 1128              	.LFE139:
 1129              		.size	RCC_AHB1PeriphResetCmd, .-RCC_AHB1PeriphResetCmd
 1130              		.section	.text.RCC_AHB2PeriphResetCmd,"ax",%progbits
 1131              		.align	2
 1132              		.p2align 4,,15
 1133              		.global	RCC_AHB2PeriphResetCmd
 1134              		.thumb
 1135              		.thumb_func
 1136              		.type	RCC_AHB2PeriphResetCmd, %function
 1137              	RCC_AHB2PeriphResetCmd:
 1138              	.LFB140:
 1139              		.loc 1 2036 0
 1140              		.cfi_startproc
ARM GAS  C:\Users\IDONNO~1.SON\AppData\Local\Temp\ccSKRQ2j.s 			page 21


 1141              		@ args = 0, pretend = 0, frame = 0
 1142              		@ frame_needed = 0, uses_anonymous_args = 0
 1143              		@ link register save eliminated.
 1144              	.LVL99:
 1145              		.loc 1 2041 0
 1146 0000 29B9     		cbnz	r1, .L127
 1147              		.loc 1 2047 0
 1148 0002 054A     		ldr	r2, .L128
 1149 0004 5369     		ldr	r3, [r2, #20]
 1150 0006 23EA0000 		bic	r0, r3, r0
 1151              	.LVL100:
 1152 000a 5061     		str	r0, [r2, #20]
 1153 000c 7047     		bx	lr
 1154              	.LVL101:
 1155              	.L127:
 1156              		.loc 1 2043 0
 1157 000e 024B     		ldr	r3, .L128
 1158 0010 5A69     		ldr	r2, [r3, #20]
 1159 0012 1043     		orrs	r0, r0, r2
 1160              	.LVL102:
 1161 0014 5861     		str	r0, [r3, #20]
 1162 0016 7047     		bx	lr
 1163              	.L129:
 1164              		.align	2
 1165              	.L128:
 1166 0018 00380240 		.word	1073887232
 1167              		.cfi_endproc
 1168              	.LFE140:
 1169              		.size	RCC_AHB2PeriphResetCmd, .-RCC_AHB2PeriphResetCmd
 1170              		.section	.text.RCC_APB1PeriphResetCmd,"ax",%progbits
 1171              		.align	2
 1172              		.p2align 4,,15
 1173              		.global	RCC_APB1PeriphResetCmd
 1174              		.thumb
 1175              		.thumb_func
 1176              		.type	RCC_APB1PeriphResetCmd, %function
 1177              	RCC_APB1PeriphResetCmd:
 1178              	.LFB141:
 1179              		.loc 1 2117 0
 1180              		.cfi_startproc
 1181              		@ args = 0, pretend = 0, frame = 0
 1182              		@ frame_needed = 0, uses_anonymous_args = 0
 1183              		@ link register save eliminated.
 1184              	.LVL103:
 1185              		.loc 1 2121 0
 1186 0000 29B9     		cbnz	r1, .L133
 1187              		.loc 1 2127 0
 1188 0002 054A     		ldr	r2, .L134
 1189 0004 136A     		ldr	r3, [r2, #32]
 1190 0006 23EA0000 		bic	r0, r3, r0
 1191              	.LVL104:
 1192 000a 1062     		str	r0, [r2, #32]
 1193 000c 7047     		bx	lr
 1194              	.LVL105:
 1195              	.L133:
 1196              		.loc 1 2123 0
 1197 000e 024B     		ldr	r3, .L134
ARM GAS  C:\Users\IDONNO~1.SON\AppData\Local\Temp\ccSKRQ2j.s 			page 22


 1198 0010 1A6A     		ldr	r2, [r3, #32]
 1199 0012 1043     		orrs	r0, r0, r2
 1200              	.LVL106:
 1201 0014 1862     		str	r0, [r3, #32]
 1202 0016 7047     		bx	lr
 1203              	.L135:
 1204              		.align	2
 1205              	.L134:
 1206 0018 00380240 		.word	1073887232
 1207              		.cfi_endproc
 1208              	.LFE141:
 1209              		.size	RCC_APB1PeriphResetCmd, .-RCC_APB1PeriphResetCmd
 1210              		.section	.text.RCC_APB2PeriphResetCmd,"ax",%progbits
 1211              		.align	2
 1212              		.p2align 4,,15
 1213              		.global	RCC_APB2PeriphResetCmd
 1214              		.thumb
 1215              		.thumb_func
 1216              		.type	RCC_APB2PeriphResetCmd, %function
 1217              	RCC_APB2PeriphResetCmd:
 1218              	.LFB142:
 1219              		.loc 1 2160 0
 1220              		.cfi_startproc
 1221              		@ args = 0, pretend = 0, frame = 0
 1222              		@ frame_needed = 0, uses_anonymous_args = 0
 1223              		@ link register save eliminated.
 1224              	.LVL107:
 1225              		.loc 1 2164 0
 1226 0000 29B9     		cbnz	r1, .L139
 1227              		.loc 1 2170 0
 1228 0002 054A     		ldr	r2, .L140
 1229 0004 536A     		ldr	r3, [r2, #36]
 1230 0006 23EA0000 		bic	r0, r3, r0
 1231              	.LVL108:
 1232 000a 5062     		str	r0, [r2, #36]
 1233 000c 7047     		bx	lr
 1234              	.LVL109:
 1235              	.L139:
 1236              		.loc 1 2166 0
 1237 000e 024B     		ldr	r3, .L140
 1238 0010 5A6A     		ldr	r2, [r3, #36]
 1239 0012 1043     		orrs	r0, r0, r2
 1240              	.LVL110:
 1241 0014 5862     		str	r0, [r3, #36]
 1242 0016 7047     		bx	lr
 1243              	.L141:
 1244              		.align	2
 1245              	.L140:
 1246 0018 00380240 		.word	1073887232
 1247              		.cfi_endproc
 1248              	.LFE142:
 1249              		.size	RCC_APB2PeriphResetCmd, .-RCC_APB2PeriphResetCmd
 1250              		.section	.text.RCC_AHB1PeriphClockLPModeCmd,"ax",%progbits
 1251              		.align	2
 1252              		.p2align 4,,15
 1253              		.global	RCC_AHB1PeriphClockLPModeCmd
 1254              		.thumb
ARM GAS  C:\Users\IDONNO~1.SON\AppData\Local\Temp\ccSKRQ2j.s 			page 23


 1255              		.thumb_func
 1256              		.type	RCC_AHB1PeriphClockLPModeCmd, %function
 1257              	RCC_AHB1PeriphClockLPModeCmd:
 1258              	.LFB143:
 1259              		.loc 1 2209 0
 1260              		.cfi_startproc
 1261              		@ args = 0, pretend = 0, frame = 0
 1262              		@ frame_needed = 0, uses_anonymous_args = 0
 1263              		@ link register save eliminated.
 1264              	.LVL111:
 1265              		.loc 1 2213 0
 1266 0000 29B9     		cbnz	r1, .L145
 1267              		.loc 1 2219 0
 1268 0002 054A     		ldr	r2, .L146
 1269 0004 136D     		ldr	r3, [r2, #80]
 1270 0006 23EA0000 		bic	r0, r3, r0
 1271              	.LVL112:
 1272 000a 1065     		str	r0, [r2, #80]
 1273 000c 7047     		bx	lr
 1274              	.LVL113:
 1275              	.L145:
 1276              		.loc 1 2215 0
 1277 000e 024B     		ldr	r3, .L146
 1278 0010 1A6D     		ldr	r2, [r3, #80]
 1279 0012 1043     		orrs	r0, r0, r2
 1280              	.LVL114:
 1281 0014 1865     		str	r0, [r3, #80]
 1282 0016 7047     		bx	lr
 1283              	.L147:
 1284              		.align	2
 1285              	.L146:
 1286 0018 00380240 		.word	1073887232
 1287              		.cfi_endproc
 1288              	.LFE143:
 1289              		.size	RCC_AHB1PeriphClockLPModeCmd, .-RCC_AHB1PeriphClockLPModeCmd
 1290              		.section	.text.RCC_AHB2PeriphClockLPModeCmd,"ax",%progbits
 1291              		.align	2
 1292              		.p2align 4,,15
 1293              		.global	RCC_AHB2PeriphClockLPModeCmd
 1294              		.thumb
 1295              		.thumb_func
 1296              		.type	RCC_AHB2PeriphClockLPModeCmd, %function
 1297              	RCC_AHB2PeriphClockLPModeCmd:
 1298              	.LFB144:
 1299              		.loc 1 2241 0
 1300              		.cfi_startproc
 1301              		@ args = 0, pretend = 0, frame = 0
 1302              		@ frame_needed = 0, uses_anonymous_args = 0
 1303              		@ link register save eliminated.
 1304              	.LVL115:
 1305              		.loc 1 2245 0
 1306 0000 29B9     		cbnz	r1, .L151
 1307              		.loc 1 2251 0
 1308 0002 054A     		ldr	r2, .L152
 1309 0004 536D     		ldr	r3, [r2, #84]
 1310 0006 23EA0000 		bic	r0, r3, r0
 1311              	.LVL116:
ARM GAS  C:\Users\IDONNO~1.SON\AppData\Local\Temp\ccSKRQ2j.s 			page 24


 1312 000a 5065     		str	r0, [r2, #84]
 1313 000c 7047     		bx	lr
 1314              	.LVL117:
 1315              	.L151:
 1316              		.loc 1 2247 0
 1317 000e 024B     		ldr	r3, .L152
 1318 0010 5A6D     		ldr	r2, [r3, #84]
 1319 0012 1043     		orrs	r0, r0, r2
 1320              	.LVL118:
 1321 0014 5865     		str	r0, [r3, #84]
 1322 0016 7047     		bx	lr
 1323              	.L153:
 1324              		.align	2
 1325              	.L152:
 1326 0018 00380240 		.word	1073887232
 1327              		.cfi_endproc
 1328              	.LFE144:
 1329              		.size	RCC_AHB2PeriphClockLPModeCmd, .-RCC_AHB2PeriphClockLPModeCmd
 1330              		.section	.text.RCC_APB1PeriphClockLPModeCmd,"ax",%progbits
 1331              		.align	2
 1332              		.p2align 4,,15
 1333              		.global	RCC_APB1PeriphClockLPModeCmd
 1334              		.thumb
 1335              		.thumb_func
 1336              		.type	RCC_APB1PeriphClockLPModeCmd, %function
 1337              	RCC_APB1PeriphClockLPModeCmd:
 1338              	.LFB145:
 1339              		.loc 1 2328 0
 1340              		.cfi_startproc
 1341              		@ args = 0, pretend = 0, frame = 0
 1342              		@ frame_needed = 0, uses_anonymous_args = 0
 1343              		@ link register save eliminated.
 1344              	.LVL119:
 1345              		.loc 1 2332 0
 1346 0000 29B9     		cbnz	r1, .L157
 1347              		.loc 1 2338 0
 1348 0002 054A     		ldr	r2, .L158
 1349 0004 136E     		ldr	r3, [r2, #96]
 1350 0006 23EA0000 		bic	r0, r3, r0
 1351              	.LVL120:
 1352 000a 1066     		str	r0, [r2, #96]
 1353 000c 7047     		bx	lr
 1354              	.LVL121:
 1355              	.L157:
 1356              		.loc 1 2334 0
 1357 000e 024B     		ldr	r3, .L158
 1358 0010 1A6E     		ldr	r2, [r3, #96]
 1359 0012 1043     		orrs	r0, r0, r2
 1360              	.LVL122:
 1361 0014 1866     		str	r0, [r3, #96]
 1362 0016 7047     		bx	lr
 1363              	.L159:
 1364              		.align	2
 1365              	.L158:
 1366 0018 00380240 		.word	1073887232
 1367              		.cfi_endproc
 1368              	.LFE145:
ARM GAS  C:\Users\IDONNO~1.SON\AppData\Local\Temp\ccSKRQ2j.s 			page 25


 1369              		.size	RCC_APB1PeriphClockLPModeCmd, .-RCC_APB1PeriphClockLPModeCmd
 1370              		.section	.text.RCC_APB2PeriphClockLPModeCmd,"ax",%progbits
 1371              		.align	2
 1372              		.p2align 4,,15
 1373              		.global	RCC_APB2PeriphClockLPModeCmd
 1374              		.thumb
 1375              		.thumb_func
 1376              		.type	RCC_APB2PeriphClockLPModeCmd, %function
 1377              	RCC_APB2PeriphClockLPModeCmd:
 1378              	.LFB146:
 1379              		.loc 1 2375 0
 1380              		.cfi_startproc
 1381              		@ args = 0, pretend = 0, frame = 0
 1382              		@ frame_needed = 0, uses_anonymous_args = 0
 1383              		@ link register save eliminated.
 1384              	.LVL123:
 1385              		.loc 1 2379 0
 1386 0000 29B9     		cbnz	r1, .L163
 1387              		.loc 1 2385 0
 1388 0002 054A     		ldr	r2, .L164
 1389 0004 536E     		ldr	r3, [r2, #100]
 1390 0006 23EA0000 		bic	r0, r3, r0
 1391              	.LVL124:
 1392 000a 5066     		str	r0, [r2, #100]
 1393 000c 7047     		bx	lr
 1394              	.LVL125:
 1395              	.L163:
 1396              		.loc 1 2381 0
 1397 000e 024B     		ldr	r3, .L164
 1398 0010 5A6E     		ldr	r2, [r3, #100]
 1399 0012 1043     		orrs	r0, r0, r2
 1400              	.LVL126:
 1401 0014 5866     		str	r0, [r3, #100]
 1402 0016 7047     		bx	lr
 1403              	.L165:
 1404              		.align	2
 1405              	.L164:
 1406 0018 00380240 		.word	1073887232
 1407              		.cfi_endproc
 1408              	.LFE146:
 1409              		.size	RCC_APB2PeriphClockLPModeCmd, .-RCC_APB2PeriphClockLPModeCmd
 1410              		.section	.text.RCC_LSEModeConfig,"ax",%progbits
 1411              		.align	2
 1412              		.p2align 4,,15
 1413              		.global	RCC_LSEModeConfig
 1414              		.thumb
 1415              		.thumb_func
 1416              		.type	RCC_LSEModeConfig, %function
 1417              	RCC_LSEModeConfig:
 1418              	.LFB147:
 1419              		.loc 1 2399 0
 1420              		.cfi_startproc
 1421              		@ args = 0, pretend = 0, frame = 0
 1422              		@ frame_needed = 0, uses_anonymous_args = 0
 1423              		@ link register save eliminated.
 1424              	.LVL127:
 1425              		.loc 1 2405 0
ARM GAS  C:\Users\IDONNO~1.SON\AppData\Local\Temp\ccSKRQ2j.s 			page 26


 1426 0000 044A     		ldr	r2, .L169
 1427 0002 136F     		ldr	r3, [r2, #112]
 1428              		.loc 1 2403 0
 1429 0004 0128     		cmp	r0, #1
 1430              		.loc 1 2405 0
 1431 0006 0CBF     		ite	eq
 1432 0008 43F00803 		orreq	r3, r3, #8
 1433              		.loc 1 2409 0
 1434 000c 23F00803 		bicne	r3, r3, #8
 1435 0010 1367     		str	r3, [r2, #112]
 1436 0012 7047     		bx	lr
 1437              	.L170:
 1438              		.align	2
 1439              	.L169:
 1440 0014 00380240 		.word	1073887232
 1441              		.cfi_endproc
 1442              	.LFE147:
 1443              		.size	RCC_LSEModeConfig, .-RCC_LSEModeConfig
 1444              		.section	.text.RCC_ITConfig,"ax",%progbits
 1445              		.align	2
 1446              		.p2align 4,,15
 1447              		.global	RCC_ITConfig
 1448              		.thumb
 1449              		.thumb_func
 1450              		.type	RCC_ITConfig, %function
 1451              	RCC_ITConfig:
 1452              	.LFB148:
 1453              		.loc 1 2701 0
 1454              		.cfi_startproc
 1455              		@ args = 0, pretend = 0, frame = 0
 1456              		@ frame_needed = 0, uses_anonymous_args = 0
 1457              		@ link register save eliminated.
 1458              	.LVL128:
 1459              		.loc 1 2705 0
 1460 0000 29B9     		cbnz	r1, .L174
 1461              		.loc 1 2713 0
 1462 0002 054A     		ldr	r2, .L175
 1463 0004 1378     		ldrb	r3, [r2]	@ zero_extendqisi2
 1464 0006 23EA0000 		bic	r0, r3, r0
 1465              	.LVL129:
 1466 000a 1070     		strb	r0, [r2]
 1467 000c 7047     		bx	lr
 1468              	.LVL130:
 1469              	.L174:
 1470              		.loc 1 2708 0
 1471 000e 024B     		ldr	r3, .L175
 1472 0010 1A78     		ldrb	r2, [r3]	@ zero_extendqisi2
 1473 0012 1043     		orrs	r0, r0, r2
 1474              	.LVL131:
 1475 0014 1870     		strb	r0, [r3]
 1476 0016 7047     		bx	lr
 1477              	.L176:
 1478              		.align	2
 1479              	.L175:
 1480 0018 0D380240 		.word	1073887245
 1481              		.cfi_endproc
 1482              	.LFE148:
ARM GAS  C:\Users\IDONNO~1.SON\AppData\Local\Temp\ccSKRQ2j.s 			page 27


 1483              		.size	RCC_ITConfig, .-RCC_ITConfig
 1484              		.section	.text.RCC_GetFlagStatus,"ax",%progbits
 1485              		.align	2
 1486              		.p2align 4,,15
 1487              		.global	RCC_GetFlagStatus
 1488              		.thumb
 1489              		.thumb_func
 1490              		.type	RCC_GetFlagStatus, %function
 1491              	RCC_GetFlagStatus:
 1492              	.LFB149:
 1493              		.loc 1 2738 0
 1494              		.cfi_startproc
 1495              		@ args = 0, pretend = 0, frame = 0
 1496              		@ frame_needed = 0, uses_anonymous_args = 0
 1497              		@ link register save eliminated.
 1498              	.LVL132:
 1499              		.loc 1 2747 0
 1500 0000 4309     		lsrs	r3, r0, #5
 1501              	.LVL133:
 1502              		.loc 1 2748 0
 1503 0002 012B     		cmp	r3, #1
 1504 0004 0BD0     		beq	.L181
 1505              		.loc 1 2752 0
 1506 0006 022B     		cmp	r3, #2
 1507              		.loc 1 2754 0
 1508 0008 094B     		ldr	r3, .L182
 1509              	.LVL134:
 1510 000a 0CBF     		ite	eq
 1511 000c 1B6F     		ldreq	r3, [r3, #112]
 1512              	.LVL135:
 1513              		.loc 1 2758 0
 1514 000e 5B6F     		ldrne	r3, [r3, #116]
 1515              	.LVL136:
 1516              		.loc 1 2772 0
 1517 0010 00F01F00 		and	r0, r0, #31
 1518              	.LVL137:
 1519 0014 23FA00F0 		lsr	r0, r3, r0
 1520              		.loc 1 2773 0
 1521 0018 00F00100 		and	r0, r0, #1
 1522 001c 7047     		bx	lr
 1523              	.LVL138:
 1524              	.L181:
 1525              		.loc 1 2750 0
 1526 001e 044B     		ldr	r3, .L182
 1527              	.LVL139:
 1528 0020 1B68     		ldr	r3, [r3]
 1529              	.LVL140:
 1530              		.loc 1 2772 0
 1531 0022 00F01F00 		and	r0, r0, #31
 1532              	.LVL141:
 1533 0026 23FA00F0 		lsr	r0, r3, r0
 1534              		.loc 1 2773 0
 1535 002a 00F00100 		and	r0, r0, #1
 1536 002e 7047     		bx	lr
 1537              	.L183:
 1538              		.align	2
 1539              	.L182:
ARM GAS  C:\Users\IDONNO~1.SON\AppData\Local\Temp\ccSKRQ2j.s 			page 28


 1540 0030 00380240 		.word	1073887232
 1541              		.cfi_endproc
 1542              	.LFE149:
 1543              		.size	RCC_GetFlagStatus, .-RCC_GetFlagStatus
 1544              		.section	.text.RCC_ClearFlag,"ax",%progbits
 1545              		.align	2
 1546              		.p2align 4,,15
 1547              		.global	RCC_ClearFlag
 1548              		.thumb
 1549              		.thumb_func
 1550              		.type	RCC_ClearFlag, %function
 1551              	RCC_ClearFlag:
 1552              	.LFB150:
 1553              		.loc 1 2783 0
 1554              		.cfi_startproc
 1555              		@ args = 0, pretend = 0, frame = 0
 1556              		@ frame_needed = 0, uses_anonymous_args = 0
 1557              		@ link register save eliminated.
 1558              		.loc 1 2785 0
 1559 0000 024A     		ldr	r2, .L185
 1560 0002 536F     		ldr	r3, [r2, #116]
 1561 0004 43F08073 		orr	r3, r3, #16777216
 1562 0008 5367     		str	r3, [r2, #116]
 1563 000a 7047     		bx	lr
 1564              	.L186:
 1565              		.align	2
 1566              	.L185:
 1567 000c 00380240 		.word	1073887232
 1568              		.cfi_endproc
 1569              	.LFE150:
 1570              		.size	RCC_ClearFlag, .-RCC_ClearFlag
 1571              		.section	.text.RCC_GetITStatus,"ax",%progbits
 1572              		.align	2
 1573              		.p2align 4,,15
 1574              		.global	RCC_GetITStatus
 1575              		.thumb
 1576              		.thumb_func
 1577              		.type	RCC_GetITStatus, %function
 1578              	RCC_GetITStatus:
 1579              	.LFB151:
 1580              		.loc 1 2803 0
 1581              		.cfi_startproc
 1582              		@ args = 0, pretend = 0, frame = 0
 1583              		@ frame_needed = 0, uses_anonymous_args = 0
 1584              		@ link register save eliminated.
 1585              	.LVL142:
 1586              		.loc 1 2810 0
 1587 0000 034B     		ldr	r3, .L188
 1588 0002 DB68     		ldr	r3, [r3, #12]
 1589              	.LVL143:
 1590              		.loc 1 2819 0
 1591 0004 1842     		tst	r0, r3
 1592              		.loc 1 2820 0
 1593 0006 14BF     		ite	ne
 1594 0008 0120     		movne	r0, #1
 1595              	.LVL144:
 1596 000a 0020     		moveq	r0, #0
ARM GAS  C:\Users\IDONNO~1.SON\AppData\Local\Temp\ccSKRQ2j.s 			page 29


 1597 000c 7047     		bx	lr
 1598              	.L189:
 1599 000e 00BF     		.align	2
 1600              	.L188:
 1601 0010 00380240 		.word	1073887232
 1602              		.cfi_endproc
 1603              	.LFE151:
 1604              		.size	RCC_GetITStatus, .-RCC_GetITStatus
 1605              		.section	.text.RCC_ClearITPendingBit,"ax",%progbits
 1606              		.align	2
 1607              		.p2align 4,,15
 1608              		.global	RCC_ClearITPendingBit
 1609              		.thumb
 1610              		.thumb_func
 1611              		.type	RCC_ClearITPendingBit, %function
 1612              	RCC_ClearITPendingBit:
 1613              	.LFB152:
 1614              		.loc 1 2837 0
 1615              		.cfi_startproc
 1616              		@ args = 0, pretend = 0, frame = 0
 1617              		@ frame_needed = 0, uses_anonymous_args = 0
 1618              		@ link register save eliminated.
 1619              	.LVL145:
 1620              		.loc 1 2843 0
 1621 0000 014B     		ldr	r3, .L191
 1622 0002 1870     		strb	r0, [r3]
 1623 0004 7047     		bx	lr
 1624              	.L192:
 1625 0006 00BF     		.align	2
 1626              	.L191:
 1627 0008 0E380240 		.word	1073887246
 1628              		.cfi_endproc
 1629              	.LFE152:
 1630              		.size	RCC_ClearITPendingBit, .-RCC_ClearITPendingBit
 1631              		.section	.data.APBAHBPrescTable,"aw",%progbits
 1632              		.align	2
 1633              		.set	.LANCHOR0,. + 0
 1634              		.type	APBAHBPrescTable, %object
 1635              		.size	APBAHBPrescTable, 16
 1636              	APBAHBPrescTable:
 1637 0000 00       		.byte	0
 1638 0001 00       		.byte	0
 1639 0002 00       		.byte	0
 1640 0003 00       		.byte	0
 1641 0004 01       		.byte	1
 1642 0005 02       		.byte	2
 1643 0006 03       		.byte	3
 1644 0007 04       		.byte	4
 1645 0008 01       		.byte	1
 1646 0009 02       		.byte	2
 1647 000a 03       		.byte	3
 1648 000b 04       		.byte	4
 1649 000c 06       		.byte	6
 1650 000d 07       		.byte	7
 1651 000e 08       		.byte	8
 1652 000f 09       		.byte	9
 1653              		.text
ARM GAS  C:\Users\IDONNO~1.SON\AppData\Local\Temp\ccSKRQ2j.s 			page 30


 1654              	.Letext0:
 1655              		.file 2 "c:\\program files (x86)\\gnu tools arm embedded\\5.4 2016q2\\arm-none-eabi\\include\\mach
 1656              		.file 3 "c:\\program files (x86)\\gnu tools arm embedded\\5.4 2016q2\\arm-none-eabi\\include\\sys\
 1657              		.file 4 "lib/ChibiOS_3.0.2/os/ext/CMSIS/ST/stm32f407xx.h"
 1658              		.file 5 "lib/ChibiOS_3.0.2/os/ext/CMSIS/ST/stm32f4xx.h"
 1659              		.file 6 "lib/ChibiOS_3.0.2/ext/stdperiph_stm32f4/inc/stm32f4xx_rcc.h"
 1660              		.file 7 "lib/ChibiOS_3.0.2/os/ext/CMSIS/include/core_cm4.h"