ARM GAS  C:\Users\IDONNO~1\AppData\Local\Temp\ccaUJebn.s 			page 1


   1              		.syntax unified
   2              		.cpu cortex-m4
   3              		.eabi_attribute 27, 1
   4              		.eabi_attribute 28, 1
   5              		.fpu fpv4-sp-d16
   6              		.eabi_attribute 20, 1
   7              		.eabi_attribute 21, 1
   8              		.eabi_attribute 23, 3
   9              		.eabi_attribute 24, 1
  10              		.eabi_attribute 25, 1
  11              		.eabi_attribute 26, 1
  12              		.eabi_attribute 30, 2
  13              		.eabi_attribute 34, 1
  14              		.eabi_attribute 18, 4
  15              		.thumb
  16              		.syntax unified
  17              		.file	"stm32f4xx_exti.c"
  18              		.text
  19              	.Ltext0:
  20              		.cfi_sections	.debug_frame
  21              		.section	.text.EXTI_DeInit,"ax",%progbits
  22              		.align	2
  23              		.p2align 4,,15
  24              		.global	EXTI_DeInit
  25              		.thumb
  26              		.thumb_func
  27              		.type	EXTI_DeInit, %function
  28              	EXTI_DeInit:
  29              	.LFB112:
  30              		.file 1 "lib/ChibiOS_3.0.2/ext/stdperiph_stm32f4/src/stm32f4xx_exti.c"
  31              		.loc 1 115 0
  32              		.cfi_startproc
  33              		@ args = 0, pretend = 0, frame = 0
  34              		@ frame_needed = 0, uses_anonymous_args = 0
  35              		@ link register save eliminated.
  36              		.loc 1 116 0
  37 0000 044B     		ldr	r3, .L2
  38              		.loc 1 120 0
  39 0002 0549     		ldr	r1, .L2+4
  40              		.loc 1 116 0
  41 0004 0022     		movs	r2, #0
  42 0006 1A60     		str	r2, [r3]
  43              		.loc 1 117 0
  44 0008 5A60     		str	r2, [r3, #4]
  45              		.loc 1 118 0
  46 000a 9A60     		str	r2, [r3, #8]
  47              		.loc 1 119 0
  48 000c DA60     		str	r2, [r3, #12]
  49              		.loc 1 120 0
  50 000e 5961     		str	r1, [r3, #20]
  51 0010 7047     		bx	lr
  52              	.L3:
  53 0012 00BF     		.align	2
  54              	.L2:
  55 0014 003C0140 		.word	1073822720
  56 0018 FFFF7F00 		.word	8388607
  57              		.cfi_endproc
ARM GAS  C:\Users\IDONNO~1\AppData\Local\Temp\ccaUJebn.s 			page 2


  58              	.LFE112:
  59              		.size	EXTI_DeInit, .-EXTI_DeInit
  60              		.section	.text.EXTI_Init,"ax",%progbits
  61              		.align	2
  62              		.p2align 4,,15
  63              		.global	EXTI_Init
  64              		.thumb
  65              		.thumb_func
  66              		.type	EXTI_Init, %function
  67              	EXTI_Init:
  68              	.LFB113:
  69              		.loc 1 131 0
  70              		.cfi_startproc
  71              		@ args = 0, pretend = 0, frame = 0
  72              		@ frame_needed = 0, uses_anonymous_args = 0
  73              		@ link register save eliminated.
  74              	.LVL0:
  75              		.loc 1 142 0
  76 0000 8379     		ldrb	r3, [r0, #6]	@ zero_extendqisi2
  77 0002 33B3     		cbz	r3, .L5
  78              		.loc 1 145 0
  79 0004 1C4B     		ldr	r3, .L12
  80              		.loc 1 150 0
  81 0006 0279     		ldrb	r2, [r0, #4]	@ zero_extendqisi2
  82              		.loc 1 157 0
  83 0008 4179     		ldrb	r1, [r0, #5]	@ zero_extendqisi2
  84              		.loc 1 131 0
  85 000a F0B4     		push	{r4, r5, r6, r7}
  86              		.cfi_def_cfa_offset 16
  87              		.cfi_offset 4, -16
  88              		.cfi_offset 5, -12
  89              		.cfi_offset 6, -8
  90              		.cfi_offset 7, -4
  91              		.loc 1 145 0
  92 000c 0768     		ldr	r7, [r0]
  93 000e 1E68     		ldr	r6, [r3]
  94 0010 FC43     		mvns	r4, r7
  95 0012 2640     		ands	r6, r6, r4
  96 0014 1E60     		str	r6, [r3]
  97              		.loc 1 146 0
  98 0016 5D68     		ldr	r5, [r3, #4]
  99              		.loc 1 150 0
 100 0018 02F18042 		add	r2, r2, #1073741824
 101              		.loc 1 146 0
 102 001c 2540     		ands	r5, r5, r4
 103              		.loc 1 150 0
 104 001e 02F59E32 		add	r2, r2, #80896
 105              		.loc 1 146 0
 106 0022 5D60     		str	r5, [r3, #4]
 107              	.LVL1:
 108              		.loc 1 150 0
 109 0024 1468     		ldr	r4, [r2]
 110 0026 3C43     		orrs	r4, r4, r7
 111 0028 1460     		str	r4, [r2]
 112              	.LVL2:
 113              		.loc 1 153 0
 114 002a 0468     		ldr	r4, [r0]
ARM GAS  C:\Users\IDONNO~1\AppData\Local\Temp\ccaUJebn.s 			page 3


 115 002c 9868     		ldr	r0, [r3, #8]
 116              	.LVL3:
 117 002e E543     		mvns	r5, r4
 118 0030 2840     		ands	r0, r0, r5
 119 0032 9860     		str	r0, [r3, #8]
 120              		.loc 1 154 0
 121 0034 DA68     		ldr	r2, [r3, #12]
 122              		.loc 1 157 0
 123 0036 1029     		cmp	r1, #16
 124              		.loc 1 154 0
 125 0038 02EA0502 		and	r2, r2, r5
 126 003c DA60     		str	r2, [r3, #12]
 127              		.loc 1 157 0
 128 003e 13D0     		beq	.L11
 129              	.LVL4:
 130              		.loc 1 168 0
 131 0040 01F18043 		add	r3, r1, #1073741824
 132 0044 03F59E33 		add	r3, r3, #80896
 133 0048 1A68     		ldr	r2, [r3]
 134 004a 1443     		orrs	r4, r4, r2
 135 004c 1C60     		str	r4, [r3]
 136              		.loc 1 178 0
 137 004e F0BC     		pop	{r4, r5, r6, r7}
 138              		.cfi_restore 7
 139              		.cfi_restore 6
 140              		.cfi_restore 5
 141              		.cfi_restore 4
 142              		.cfi_def_cfa_offset 0
 143 0050 7047     		bx	lr
 144              	.LVL5:
 145              	.L5:
 146              		.loc 1 176 0
 147 0052 0379     		ldrb	r3, [r0, #4]	@ zero_extendqisi2
 148 0054 0168     		ldr	r1, [r0]
 149 0056 03F18043 		add	r3, r3, #1073741824
 150 005a 03F59E33 		add	r3, r3, #80896
 151 005e 1A68     		ldr	r2, [r3]
 152 0060 22EA0102 		bic	r2, r2, r1
 153 0064 1A60     		str	r2, [r3]
 154              	.LVL6:
 155              		.loc 1 178 0
 156 0066 7047     		bx	lr
 157              	.LVL7:
 158              	.L11:
 159              		.cfi_def_cfa_offset 16
 160              		.cfi_offset 4, -16
 161              		.cfi_offset 5, -12
 162              		.cfi_offset 6, -8
 163              		.cfi_offset 7, -4
 164              		.loc 1 160 0
 165 0068 9A68     		ldr	r2, [r3, #8]
 166 006a 2243     		orrs	r2, r2, r4
 167 006c 9A60     		str	r2, [r3, #8]
 168              		.loc 1 161 0
 169 006e DA68     		ldr	r2, [r3, #12]
 170 0070 1443     		orrs	r4, r4, r2
 171 0072 DC60     		str	r4, [r3, #12]
ARM GAS  C:\Users\IDONNO~1\AppData\Local\Temp\ccaUJebn.s 			page 4


 172              		.loc 1 178 0
 173 0074 F0BC     		pop	{r4, r5, r6, r7}
 174              		.cfi_restore 4
 175              		.cfi_restore 5
 176              		.cfi_restore 6
 177              		.cfi_restore 7
 178              		.cfi_def_cfa_offset 0
 179 0076 7047     		bx	lr
 180              	.L13:
 181              		.align	2
 182              	.L12:
 183 0078 003C0140 		.word	1073822720
 184              		.cfi_endproc
 185              	.LFE113:
 186              		.size	EXTI_Init, .-EXTI_Init
 187              		.section	.text.EXTI_StructInit,"ax",%progbits
 188              		.align	2
 189              		.p2align 4,,15
 190              		.global	EXTI_StructInit
 191              		.thumb
 192              		.thumb_func
 193              		.type	EXTI_StructInit, %function
 194              	EXTI_StructInit:
 195              	.LFB114:
 196              		.loc 1 187 0
 197              		.cfi_startproc
 198              		@ args = 0, pretend = 0, frame = 0
 199              		@ frame_needed = 0, uses_anonymous_args = 0
 200              		@ link register save eliminated.
 201              	.LVL8:
 202              		.loc 1 188 0
 203 0000 0023     		movs	r3, #0
 204              		.loc 1 190 0
 205 0002 0C22     		movs	r2, #12
 206 0004 4271     		strb	r2, [r0, #5]
 207              		.loc 1 188 0
 208 0006 0360     		str	r3, [r0]
 209              		.loc 1 189 0
 210 0008 0371     		strb	r3, [r0, #4]
 211              		.loc 1 191 0
 212 000a 8371     		strb	r3, [r0, #6]
 213 000c 7047     		bx	lr
 214              		.cfi_endproc
 215              	.LFE114:
 216              		.size	EXTI_StructInit, .-EXTI_StructInit
 217 000e 00BF     		.section	.text.EXTI_GenerateSWInterrupt,"ax",%progbits
 218              		.align	2
 219              		.p2align 4,,15
 220              		.global	EXTI_GenerateSWInterrupt
 221              		.thumb
 222              		.thumb_func
 223              		.type	EXTI_GenerateSWInterrupt, %function
 224              	EXTI_GenerateSWInterrupt:
 225              	.LFB115:
 226              		.loc 1 202 0
 227              		.cfi_startproc
 228              		@ args = 0, pretend = 0, frame = 0
ARM GAS  C:\Users\IDONNO~1\AppData\Local\Temp\ccaUJebn.s 			page 5


 229              		@ frame_needed = 0, uses_anonymous_args = 0
 230              		@ link register save eliminated.
 231              	.LVL9:
 232              		.loc 1 206 0
 233 0000 024A     		ldr	r2, .L16
 234 0002 1369     		ldr	r3, [r2, #16]
 235 0004 1843     		orrs	r0, r0, r3
 236              	.LVL10:
 237 0006 1061     		str	r0, [r2, #16]
 238 0008 7047     		bx	lr
 239              	.L17:
 240 000a 00BF     		.align	2
 241              	.L16:
 242 000c 003C0140 		.word	1073822720
 243              		.cfi_endproc
 244              	.LFE115:
 245              		.size	EXTI_GenerateSWInterrupt, .-EXTI_GenerateSWInterrupt
 246              		.section	.text.EXTI_ClearFlag,"ax",%progbits
 247              		.align	2
 248              		.p2align 4,,15
 249              		.global	EXTI_ClearFlag
 250              		.thumb
 251              		.thumb_func
 252              		.type	EXTI_ClearFlag, %function
 253              	EXTI_ClearFlag:
 254              	.LFB121:
 255              		.cfi_startproc
 256              		@ args = 0, pretend = 0, frame = 0
 257              		@ frame_needed = 0, uses_anonymous_args = 0
 258              		@ link register save eliminated.
 259 0000 014B     		ldr	r3, .L19
 260 0002 5861     		str	r0, [r3, #20]
 261 0004 7047     		bx	lr
 262              	.L20:
 263 0006 00BF     		.align	2
 264              	.L19:
 265 0008 003C0140 		.word	1073822720
 266              		.cfi_endproc
 267              	.LFE121:
 268              		.size	EXTI_ClearFlag, .-EXTI_ClearFlag
 269              		.section	.text.EXTI_GetITStatus,"ax",%progbits
 270              		.align	2
 271              		.p2align 4,,15
 272              		.global	EXTI_GetITStatus
 273              		.thumb
 274              		.thumb_func
 275              		.type	EXTI_GetITStatus, %function
 276              	EXTI_GetITStatus:
 277              	.LFB118:
 278              		.loc 1 269 0
 279              		.cfi_startproc
 280              		@ args = 0, pretend = 0, frame = 0
 281              		@ frame_needed = 0, uses_anonymous_args = 0
 282              		@ link register save eliminated.
 283              	.LVL11:
 284              		.loc 1 274 0
 285 0000 034B     		ldr	r3, .L22
ARM GAS  C:\Users\IDONNO~1\AppData\Local\Temp\ccaUJebn.s 			page 6


 286 0002 5B69     		ldr	r3, [r3, #20]
 287              	.LVL12:
 288              		.loc 1 282 0
 289 0004 0342     		tst	r3, r0
 290              		.loc 1 284 0
 291 0006 14BF     		ite	ne
 292 0008 0120     		movne	r0, #1
 293              	.LVL13:
 294 000a 0020     		moveq	r0, #0
 295 000c 7047     		bx	lr
 296              	.L23:
 297 000e 00BF     		.align	2
 298              	.L22:
 299 0010 003C0140 		.word	1073822720
 300              		.cfi_endproc
 301              	.LFE118:
 302              		.size	EXTI_GetITStatus, .-EXTI_GetITStatus
 303              		.section	.text.EXTI_GetFlagStatus,"ax",%progbits
 304              		.align	2
 305              		.p2align 4,,15
 306              		.global	EXTI_GetFlagStatus
 307              		.thumb
 308              		.thumb_func
 309              		.type	EXTI_GetFlagStatus, %function
 310              	EXTI_GetFlagStatus:
 311              	.LFB123:
 312              		.cfi_startproc
 313              		@ args = 0, pretend = 0, frame = 0
 314              		@ frame_needed = 0, uses_anonymous_args = 0
 315              		@ link register save eliminated.
 316 0000 FFF7FEBF 		b	EXTI_GetITStatus
 317              		.cfi_endproc
 318              	.LFE123:
 319              		.size	EXTI_GetFlagStatus, .-EXTI_GetFlagStatus
 320              		.section	.text.EXTI_ClearITPendingBit,"ax",%progbits
 321              		.align	2
 322              		.p2align 4,,15
 323              		.global	EXTI_ClearITPendingBit
 324              		.thumb
 325              		.thumb_func
 326              		.type	EXTI_ClearITPendingBit, %function
 327              	EXTI_ClearITPendingBit:
 328              	.LFB119:
 329              		.loc 1 293 0
 330              		.cfi_startproc
 331              		@ args = 0, pretend = 0, frame = 0
 332              		@ frame_needed = 0, uses_anonymous_args = 0
 333              		@ link register save eliminated.
 334              	.LVL14:
 335              		.loc 1 297 0
 336 0000 014B     		ldr	r3, .L26
 337 0002 5861     		str	r0, [r3, #20]
 338 0004 7047     		bx	lr
 339              	.L27:
 340 0006 00BF     		.align	2
 341              	.L26:
 342 0008 003C0140 		.word	1073822720
ARM GAS  C:\Users\IDONNO~1\AppData\Local\Temp\ccaUJebn.s 			page 7


 343              		.cfi_endproc
 344              	.LFE119:
 345              		.size	EXTI_ClearITPendingBit, .-EXTI_ClearITPendingBit
 346              		.text
 347              	.Letext0:
 348              		.file 2 "c:\\program files (x86)\\gnu tools arm embedded\\5.2 2015q4\\arm-none-eabi\\include\\mach
 349              		.file 3 "c:\\program files (x86)\\gnu tools arm embedded\\5.2 2015q4\\arm-none-eabi\\include\\sys\
 350              		.file 4 "lib/ChibiOS_3.0.2/os/ext/CMSIS/ST/stm32f407xx.h"
 351              		.file 5 "lib/ChibiOS_3.0.2/os/ext/CMSIS/ST/stm32f4xx.h"
 352              		.file 6 "lib/ChibiOS_3.0.2/ext/stdperiph_stm32f4/inc/stm32f4xx_exti.h"
 353              		.file 7 "lib/ChibiOS_3.0.2/os/ext/CMSIS/include/core_cm4.h"
 354              		.section	.debug_info,"",%progbits
 355              	.Ldebug_info0:
 356 0000 FC020000 		.4byte	0x2fc
 357 0004 0400     		.2byte	0x4
 358 0006 00000000 		.4byte	.Ldebug_abbrev0
 359 000a 04       		.byte	0x4
 360 000b 01       		.uleb128 0x1
 361 000c 4F010000 		.4byte	.LASF41
 362 0010 0C       		.byte	0xc
 363 0011 79030000 		.4byte	.LASF42
 364 0015 C8000000 		.4byte	.LASF43
 365 0019 00000000 		.4byte	.Ldebug_ranges0+0
 366 001d 00000000 		.4byte	0
 367 0021 00000000 		.4byte	.Ldebug_line0
 368 0025 02       		.uleb128 0x2
 369 0026 01       		.byte	0x1
 370 0027 06       		.byte	0x6
 371 0028 EE020000 		.4byte	.LASF0
 372 002c 02       		.uleb128 0x2
 373 002d 01       		.byte	0x1
 374 002e 08       		.byte	0x8
 375 002f 00010000 		.4byte	.LASF1
 376 0033 02       		.uleb128 0x2
 377 0034 02       		.byte	0x2
 378 0035 05       		.byte	0x5
 379 0036 56030000 		.4byte	.LASF2
 380 003a 02       		.uleb128 0x2
 381 003b 02       		.byte	0x2
 382 003c 07       		.byte	0x7
 383 003d 61000000 		.4byte	.LASF3
 384 0041 03       		.uleb128 0x3
 385 0042 37000000 		.4byte	.LASF5
 386 0046 02       		.byte	0x2
 387 0047 3F       		.byte	0x3f
 388 0048 4C000000 		.4byte	0x4c
 389 004c 02       		.uleb128 0x2
 390 004d 04       		.byte	0x4
 391 004e 05       		.byte	0x5
 392 004f 70030000 		.4byte	.LASF4
 393 0053 03       		.uleb128 0x3
 394 0054 85020000 		.4byte	.LASF6
 395 0058 02       		.byte	0x2
 396 0059 41       		.byte	0x41
 397 005a 5E000000 		.4byte	0x5e
 398 005e 02       		.uleb128 0x2
 399 005f 04       		.byte	0x4
ARM GAS  C:\Users\IDONNO~1\AppData\Local\Temp\ccaUJebn.s 			page 8


 400 0060 07       		.byte	0x7
 401 0061 19010000 		.4byte	.LASF7
 402 0065 02       		.uleb128 0x2
 403 0066 08       		.byte	0x8
 404 0067 05       		.byte	0x5
 405 0068 20030000 		.4byte	.LASF8
 406 006c 02       		.uleb128 0x2
 407 006d 08       		.byte	0x8
 408 006e 07       		.byte	0x7
 409 006f D7020000 		.4byte	.LASF9
 410 0073 04       		.uleb128 0x4
 411 0074 04       		.byte	0x4
 412 0075 05       		.byte	0x5
 413 0076 696E7400 		.ascii	"int\000"
 414 007a 02       		.uleb128 0x2
 415 007b 04       		.byte	0x4
 416 007c 07       		.byte	0x7
 417 007d C0020000 		.4byte	.LASF10
 418 0081 03       		.uleb128 0x3
 419 0082 0F030000 		.4byte	.LASF11
 420 0086 03       		.byte	0x3
 421 0087 1F       		.byte	0x1f
 422 0088 41000000 		.4byte	0x41
 423 008c 03       		.uleb128 0x3
 424 008d 67030000 		.4byte	.LASF12
 425 0091 03       		.byte	0x3
 426 0092 20       		.byte	0x20
 427 0093 53000000 		.4byte	0x53
 428 0097 02       		.uleb128 0x2
 429 0098 04       		.byte	0x4
 430 0099 07       		.byte	0x7
 431 009a 17030000 		.4byte	.LASF13
 432 009e 05       		.uleb128 0x5
 433 009f 8C000000 		.4byte	0x8c
 434 00a3 06       		.uleb128 0x6
 435 00a4 18       		.byte	0x18
 436 00a5 04       		.byte	0x4
 437 00a6 CC01     		.2byte	0x1cc
 438 00a8 FA000000 		.4byte	0xfa
 439 00ac 07       		.uleb128 0x7
 440 00ad 494D5200 		.ascii	"IMR\000"
 441 00b1 04       		.byte	0x4
 442 00b2 CE01     		.2byte	0x1ce
 443 00b4 9E000000 		.4byte	0x9e
 444 00b8 00       		.byte	0
 445 00b9 07       		.uleb128 0x7
 446 00ba 454D5200 		.ascii	"EMR\000"
 447 00be 04       		.byte	0x4
 448 00bf CF01     		.2byte	0x1cf
 449 00c1 9E000000 		.4byte	0x9e
 450 00c5 04       		.byte	0x4
 451 00c6 08       		.uleb128 0x8
 452 00c7 80020000 		.4byte	.LASF14
 453 00cb 04       		.byte	0x4
 454 00cc D001     		.2byte	0x1d0
 455 00ce 9E000000 		.4byte	0x9e
 456 00d2 08       		.byte	0x8
ARM GAS  C:\Users\IDONNO~1\AppData\Local\Temp\ccaUJebn.s 			page 9


 457 00d3 08       		.uleb128 0x8
 458 00d4 E4030000 		.4byte	.LASF15
 459 00d8 04       		.byte	0x4
 460 00d9 D101     		.2byte	0x1d1
 461 00db 9E000000 		.4byte	0x9e
 462 00df 0C       		.byte	0xc
 463 00e0 08       		.uleb128 0x8
 464 00e1 D2030000 		.4byte	.LASF16
 465 00e5 04       		.byte	0x4
 466 00e6 D201     		.2byte	0x1d2
 467 00e8 9E000000 		.4byte	0x9e
 468 00ec 10       		.byte	0x10
 469 00ed 07       		.uleb128 0x7
 470 00ee 505200   		.ascii	"PR\000"
 471 00f1 04       		.byte	0x4
 472 00f2 D301     		.2byte	0x1d3
 473 00f4 9E000000 		.4byte	0x9e
 474 00f8 14       		.byte	0x14
 475 00f9 00       		.byte	0
 476 00fa 09       		.uleb128 0x9
 477 00fb 42010000 		.4byte	.LASF17
 478 00ff 04       		.byte	0x4
 479 0100 D401     		.2byte	0x1d4
 480 0102 A3000000 		.4byte	0xa3
 481 0106 0A       		.uleb128 0xa
 482 0107 01       		.byte	0x1
 483 0108 2C000000 		.4byte	0x2c
 484 010c 05       		.byte	0x5
 485 010d A2       		.byte	0xa2
 486 010e 1F010000 		.4byte	0x11f
 487 0112 0B       		.uleb128 0xb
 488 0113 2B010000 		.4byte	.LASF18
 489 0117 00       		.byte	0
 490 0118 0C       		.uleb128 0xc
 491 0119 53455400 		.ascii	"SET\000"
 492 011d 01       		.byte	0x1
 493 011e 00       		.byte	0
 494 011f 03       		.uleb128 0x3
 495 0120 0E010000 		.4byte	.LASF19
 496 0124 05       		.byte	0x5
 497 0125 A5       		.byte	0xa5
 498 0126 06010000 		.4byte	0x106
 499 012a 03       		.uleb128 0x3
 500 012b 14000000 		.4byte	.LASF20
 501 012f 05       		.byte	0x5
 502 0130 A5       		.byte	0xa5
 503 0131 06010000 		.4byte	0x106
 504 0135 0A       		.uleb128 0xa
 505 0136 01       		.byte	0x1
 506 0137 2C000000 		.4byte	0x2c
 507 013b 05       		.byte	0x5
 508 013c A8       		.byte	0xa8
 509 013d 4E010000 		.4byte	0x14e
 510 0141 0B       		.uleb128 0xb
 511 0142 B6030000 		.4byte	.LASF21
 512 0146 00       		.byte	0
 513 0147 0B       		.uleb128 0xb
ARM GAS  C:\Users\IDONNO~1\AppData\Local\Temp\ccaUJebn.s 			page 10


 514 0148 60030000 		.4byte	.LASF22
 515 014c 01       		.byte	0x1
 516 014d 00       		.byte	0
 517 014e 03       		.uleb128 0x3
 518 014f 74000000 		.4byte	.LASF23
 519 0153 05       		.byte	0x5
 520 0154 AB       		.byte	0xab
 521 0155 35010000 		.4byte	0x135
 522 0159 0A       		.uleb128 0xa
 523 015a 01       		.byte	0x1
 524 015b 2C000000 		.4byte	0x2c
 525 015f 06       		.byte	0x6
 526 0160 37       		.byte	0x37
 527 0161 72010000 		.4byte	0x172
 528 0165 0B       		.uleb128 0xb
 529 0166 EC000000 		.4byte	.LASF24
 530 016a 00       		.byte	0
 531 016b 0B       		.uleb128 0xb
 532 016c 51000000 		.4byte	.LASF25
 533 0170 04       		.byte	0x4
 534 0171 00       		.byte	0
 535 0172 03       		.uleb128 0x3
 536 0173 31010000 		.4byte	.LASF26
 537 0177 06       		.byte	0x6
 538 0178 3A       		.byte	0x3a
 539 0179 59010000 		.4byte	0x159
 540 017d 0A       		.uleb128 0xa
 541 017e 01       		.byte	0x1
 542 017f 2C000000 		.4byte	0x2c
 543 0183 06       		.byte	0x6
 544 0184 43       		.byte	0x43
 545 0185 9C010000 		.4byte	0x19c
 546 0189 0B       		.uleb128 0xb
 547 018a 90020000 		.4byte	.LASF27
 548 018e 08       		.byte	0x8
 549 018f 0B       		.uleb128 0xb
 550 0190 FA020000 		.4byte	.LASF28
 551 0194 0C       		.byte	0xc
 552 0195 0B       		.uleb128 0xb
 553 0196 A4020000 		.4byte	.LASF29
 554 019a 10       		.byte	0x10
 555 019b 00       		.byte	0
 556 019c 03       		.uleb128 0x3
 557 019d BE030000 		.4byte	.LASF30
 558 01a1 06       		.byte	0x6
 559 01a2 47       		.byte	0x47
 560 01a3 7D010000 		.4byte	0x17d
 561 01a7 0D       		.uleb128 0xd
 562 01a8 08       		.byte	0x8
 563 01a9 06       		.byte	0x6
 564 01aa 50       		.byte	0x50
 565 01ab E0010000 		.4byte	0x1e0
 566 01af 0E       		.uleb128 0xe
 567 01b0 00000000 		.4byte	.LASF31
 568 01b4 06       		.byte	0x6
 569 01b5 52       		.byte	0x52
 570 01b6 8C000000 		.4byte	0x8c
ARM GAS  C:\Users\IDONNO~1\AppData\Local\Temp\ccaUJebn.s 			page 11


 571 01ba 00       		.byte	0
 572 01bb 0E       		.uleb128 0xe
 573 01bc 0A000000 		.4byte	.LASF32
 574 01c0 06       		.byte	0x6
 575 01c1 55       		.byte	0x55
 576 01c2 72010000 		.4byte	0x172
 577 01c6 04       		.byte	0x4
 578 01c7 0E       		.uleb128 0xe
 579 01c8 2A000000 		.4byte	.LASF33
 580 01cc 06       		.byte	0x6
 581 01cd 58       		.byte	0x58
 582 01ce 9C010000 		.4byte	0x19c
 583 01d2 05       		.byte	0x5
 584 01d3 0E       		.uleb128 0xe
 585 01d4 1D000000 		.4byte	.LASF34
 586 01d8 06       		.byte	0x6
 587 01d9 5B       		.byte	0x5b
 588 01da 4E010000 		.4byte	0x14e
 589 01de 06       		.byte	0x6
 590 01df 00       		.byte	0
 591 01e0 03       		.uleb128 0x3
 592 01e1 A7000000 		.4byte	.LASF35
 593 01e5 06       		.byte	0x6
 594 01e6 5D       		.byte	0x5d
 595 01e7 A7010000 		.4byte	0x1a7
 596 01eb 0F       		.uleb128 0xf
 597 01ec D8030000 		.4byte	.LASF44
 598 01f0 01       		.byte	0x1
 599 01f1 72       		.byte	0x72
 600 01f2 00000000 		.4byte	.LFB112
 601 01f6 1C000000 		.4byte	.LFE112-.LFB112
 602 01fa 01       		.uleb128 0x1
 603 01fb 9C       		.byte	0x9c
 604 01fc 10       		.uleb128 0x10
 605 01fd CD020000 		.4byte	.LASF36
 606 0201 01       		.byte	0x1
 607 0202 82       		.byte	0x82
 608 0203 00000000 		.4byte	.LFB113
 609 0207 7C000000 		.4byte	.LFE113-.LFB113
 610 020b 01       		.uleb128 0x1
 611 020c 9C       		.byte	0x9c
 612 020d 30020000 		.4byte	0x230
 613 0211 11       		.uleb128 0x11
 614 0212 B8000000 		.4byte	.LASF38
 615 0216 01       		.byte	0x1
 616 0217 82       		.byte	0x82
 617 0218 30020000 		.4byte	0x230
 618 021c 00000000 		.4byte	.LLST0
 619 0220 12       		.uleb128 0x12
 620 0221 746D7000 		.ascii	"tmp\000"
 621 0225 01       		.byte	0x1
 622 0226 84       		.byte	0x84
 623 0227 8C000000 		.4byte	0x8c
 624 022b 3A000000 		.4byte	.LLST1
 625 022f 00       		.byte	0
 626 0230 13       		.uleb128 0x13
 627 0231 04       		.byte	0x4
ARM GAS  C:\Users\IDONNO~1\AppData\Local\Temp\ccaUJebn.s 			page 12


 628 0232 E0010000 		.4byte	0x1e0
 629 0236 10       		.uleb128 0x10
 630 0237 41000000 		.4byte	.LASF37
 631 023b 01       		.byte	0x1
 632 023c BA       		.byte	0xba
 633 023d 00000000 		.4byte	.LFB114
 634 0241 0E000000 		.4byte	.LFE114-.LFB114
 635 0245 01       		.uleb128 0x1
 636 0246 9C       		.byte	0x9c
 637 0247 59020000 		.4byte	0x259
 638 024b 14       		.uleb128 0x14
 639 024c B8000000 		.4byte	.LASF38
 640 0250 01       		.byte	0x1
 641 0251 BA       		.byte	0xba
 642 0252 30020000 		.4byte	0x230
 643 0256 01       		.uleb128 0x1
 644 0257 50       		.byte	0x50
 645 0258 00       		.byte	0
 646 0259 10       		.uleb128 0x10
 647 025a 8E000000 		.4byte	.LASF39
 648 025e 01       		.byte	0x1
 649 025f C9       		.byte	0xc9
 650 0260 00000000 		.4byte	.LFB115
 651 0264 10000000 		.4byte	.LFE115-.LFB115
 652 0268 01       		.uleb128 0x1
 653 0269 9C       		.byte	0x9c
 654 026a 7E020000 		.4byte	0x27e
 655 026e 11       		.uleb128 0x11
 656 026f 00000000 		.4byte	.LASF31
 657 0273 01       		.byte	0x1
 658 0274 C9       		.byte	0xc9
 659 0275 8C000000 		.4byte	0x8c
 660 0279 B2000000 		.4byte	.LLST2
 661 027d 00       		.byte	0
 662 027e 15       		.uleb128 0x15
 663 027f 2E030000 		.4byte	.LASF45
 664 0283 01       		.byte	0x1
 665 0284 0C01     		.2byte	0x10c
 666 0286 2A010000 		.4byte	0x12a
 667 028a 00000000 		.4byte	.LFB118
 668 028e 14000000 		.4byte	.LFE118-.LFB118
 669 0292 01       		.uleb128 0x1
 670 0293 9C       		.byte	0x9c
 671 0294 B9020000 		.4byte	0x2b9
 672 0298 16       		.uleb128 0x16
 673 0299 00000000 		.4byte	.LASF31
 674 029d 01       		.byte	0x1
 675 029e 0C01     		.2byte	0x10c
 676 02a0 8C000000 		.4byte	0x8c
 677 02a4 D3000000 		.4byte	.LLST3
 678 02a8 17       		.uleb128 0x17
 679 02a9 84000000 		.4byte	.LASF40
 680 02ad 01       		.byte	0x1
 681 02ae 0E01     		.2byte	0x10e
 682 02b0 1F010000 		.4byte	0x11f
 683 02b4 F4000000 		.4byte	.LLST4
 684 02b8 00       		.byte	0
ARM GAS  C:\Users\IDONNO~1\AppData\Local\Temp\ccaUJebn.s 			page 13


 685 02b9 18       		.uleb128 0x18
 686 02ba 3F030000 		.4byte	.LASF46
 687 02be 01       		.byte	0x1
 688 02bf 2401     		.2byte	0x124
 689 02c1 01       		.byte	0x1
 690 02c2 D3020000 		.4byte	0x2d3
 691 02c6 19       		.uleb128 0x19
 692 02c7 00000000 		.4byte	.LASF31
 693 02cb 01       		.byte	0x1
 694 02cc 2401     		.2byte	0x124
 695 02ce 8C000000 		.4byte	0x8c
 696 02d2 00       		.byte	0
 697 02d3 1A       		.uleb128 0x1a
 698 02d4 B9020000 		.4byte	0x2b9
 699 02d8 00000000 		.4byte	.LFB119
 700 02dc 0C000000 		.4byte	.LFE119-.LFB119
 701 02e0 01       		.uleb128 0x1
 702 02e1 9C       		.byte	0x9c
 703 02e2 EE020000 		.4byte	0x2ee
 704 02e6 1B       		.uleb128 0x1b
 705 02e7 C6020000 		.4byte	0x2c6
 706 02eb 01       		.uleb128 0x1
 707 02ec 50       		.byte	0x50
 708 02ed 00       		.byte	0
 709 02ee 1C       		.uleb128 0x1c
 710 02ef 73020000 		.4byte	.LASF47
 711 02f3 07       		.byte	0x7
 712 02f4 A706     		.2byte	0x6a7
 713 02f6 FA020000 		.4byte	0x2fa
 714 02fa 05       		.uleb128 0x5
 715 02fb 81000000 		.4byte	0x81
 716 02ff 00       		.byte	0
 717              		.section	.debug_abbrev,"",%progbits
 718              	.Ldebug_abbrev0:
 719 0000 01       		.uleb128 0x1
 720 0001 11       		.uleb128 0x11
 721 0002 01       		.byte	0x1
 722 0003 25       		.uleb128 0x25
 723 0004 0E       		.uleb128 0xe
 724 0005 13       		.uleb128 0x13
 725 0006 0B       		.uleb128 0xb
 726 0007 03       		.uleb128 0x3
 727 0008 0E       		.uleb128 0xe
 728 0009 1B       		.uleb128 0x1b
 729 000a 0E       		.uleb128 0xe
 730 000b 55       		.uleb128 0x55
 731 000c 17       		.uleb128 0x17
 732 000d 11       		.uleb128 0x11
 733 000e 01       		.uleb128 0x1
 734 000f 10       		.uleb128 0x10
 735 0010 17       		.uleb128 0x17
 736 0011 00       		.byte	0
 737 0012 00       		.byte	0
 738 0013 02       		.uleb128 0x2
 739 0014 24       		.uleb128 0x24
 740 0015 00       		.byte	0
 741 0016 0B       		.uleb128 0xb
ARM GAS  C:\Users\IDONNO~1\AppData\Local\Temp\ccaUJebn.s 			page 14


 742 0017 0B       		.uleb128 0xb
 743 0018 3E       		.uleb128 0x3e
 744 0019 0B       		.uleb128 0xb
 745 001a 03       		.uleb128 0x3
 746 001b 0E       		.uleb128 0xe
 747 001c 00       		.byte	0
 748 001d 00       		.byte	0
 749 001e 03       		.uleb128 0x3
 750 001f 16       		.uleb128 0x16
 751 0020 00       		.byte	0
 752 0021 03       		.uleb128 0x3
 753 0022 0E       		.uleb128 0xe
 754 0023 3A       		.uleb128 0x3a
 755 0024 0B       		.uleb128 0xb
 756 0025 3B       		.uleb128 0x3b
 757 0026 0B       		.uleb128 0xb
 758 0027 49       		.uleb128 0x49
 759 0028 13       		.uleb128 0x13
 760 0029 00       		.byte	0
 761 002a 00       		.byte	0
 762 002b 04       		.uleb128 0x4
 763 002c 24       		.uleb128 0x24
 764 002d 00       		.byte	0
 765 002e 0B       		.uleb128 0xb
 766 002f 0B       		.uleb128 0xb
 767 0030 3E       		.uleb128 0x3e
 768 0031 0B       		.uleb128 0xb
 769 0032 03       		.uleb128 0x3
 770 0033 08       		.uleb128 0x8
 771 0034 00       		.byte	0
 772 0035 00       		.byte	0
 773 0036 05       		.uleb128 0x5
 774 0037 35       		.uleb128 0x35
 775 0038 00       		.byte	0
 776 0039 49       		.uleb128 0x49
 777 003a 13       		.uleb128 0x13
 778 003b 00       		.byte	0
 779 003c 00       		.byte	0
 780 003d 06       		.uleb128 0x6
 781 003e 13       		.uleb128 0x13
 782 003f 01       		.byte	0x1
 783 0040 0B       		.uleb128 0xb
 784 0041 0B       		.uleb128 0xb
 785 0042 3A       		.uleb128 0x3a
 786 0043 0B       		.uleb128 0xb
 787 0044 3B       		.uleb128 0x3b
 788 0045 05       		.uleb128 0x5
 789 0046 01       		.uleb128 0x1
 790 0047 13       		.uleb128 0x13
 791 0048 00       		.byte	0
 792 0049 00       		.byte	0
 793 004a 07       		.uleb128 0x7
 794 004b 0D       		.uleb128 0xd
 795 004c 00       		.byte	0
 796 004d 03       		.uleb128 0x3
 797 004e 08       		.uleb128 0x8
 798 004f 3A       		.uleb128 0x3a
ARM GAS  C:\Users\IDONNO~1\AppData\Local\Temp\ccaUJebn.s 			page 15


 799 0050 0B       		.uleb128 0xb
 800 0051 3B       		.uleb128 0x3b
 801 0052 05       		.uleb128 0x5
 802 0053 49       		.uleb128 0x49
 803 0054 13       		.uleb128 0x13
 804 0055 38       		.uleb128 0x38
 805 0056 0B       		.uleb128 0xb
 806 0057 00       		.byte	0
 807 0058 00       		.byte	0
 808 0059 08       		.uleb128 0x8
 809 005a 0D       		.uleb128 0xd
 810 005b 00       		.byte	0
 811 005c 03       		.uleb128 0x3
 812 005d 0E       		.uleb128 0xe
 813 005e 3A       		.uleb128 0x3a
 814 005f 0B       		.uleb128 0xb
 815 0060 3B       		.uleb128 0x3b
 816 0061 05       		.uleb128 0x5
 817 0062 49       		.uleb128 0x49
 818 0063 13       		.uleb128 0x13
 819 0064 38       		.uleb128 0x38
 820 0065 0B       		.uleb128 0xb
 821 0066 00       		.byte	0
 822 0067 00       		.byte	0
 823 0068 09       		.uleb128 0x9
 824 0069 16       		.uleb128 0x16
 825 006a 00       		.byte	0
 826 006b 03       		.uleb128 0x3
 827 006c 0E       		.uleb128 0xe
 828 006d 3A       		.uleb128 0x3a
 829 006e 0B       		.uleb128 0xb
 830 006f 3B       		.uleb128 0x3b
 831 0070 05       		.uleb128 0x5
 832 0071 49       		.uleb128 0x49
 833 0072 13       		.uleb128 0x13
 834 0073 00       		.byte	0
 835 0074 00       		.byte	0
 836 0075 0A       		.uleb128 0xa
 837 0076 04       		.uleb128 0x4
 838 0077 01       		.byte	0x1
 839 0078 0B       		.uleb128 0xb
 840 0079 0B       		.uleb128 0xb
 841 007a 49       		.uleb128 0x49
 842 007b 13       		.uleb128 0x13
 843 007c 3A       		.uleb128 0x3a
 844 007d 0B       		.uleb128 0xb
 845 007e 3B       		.uleb128 0x3b
 846 007f 0B       		.uleb128 0xb
 847 0080 01       		.uleb128 0x1
 848 0081 13       		.uleb128 0x13
 849 0082 00       		.byte	0
 850 0083 00       		.byte	0
 851 0084 0B       		.uleb128 0xb
 852 0085 28       		.uleb128 0x28
 853 0086 00       		.byte	0
 854 0087 03       		.uleb128 0x3
 855 0088 0E       		.uleb128 0xe
ARM GAS  C:\Users\IDONNO~1\AppData\Local\Temp\ccaUJebn.s 			page 16


 856 0089 1C       		.uleb128 0x1c
 857 008a 0B       		.uleb128 0xb
 858 008b 00       		.byte	0
 859 008c 00       		.byte	0
 860 008d 0C       		.uleb128 0xc
 861 008e 28       		.uleb128 0x28
 862 008f 00       		.byte	0
 863 0090 03       		.uleb128 0x3
 864 0091 08       		.uleb128 0x8
 865 0092 1C       		.uleb128 0x1c
 866 0093 0B       		.uleb128 0xb
 867 0094 00       		.byte	0
 868 0095 00       		.byte	0
 869 0096 0D       		.uleb128 0xd
 870 0097 13       		.uleb128 0x13
 871 0098 01       		.byte	0x1
 872 0099 0B       		.uleb128 0xb
 873 009a 0B       		.uleb128 0xb
 874 009b 3A       		.uleb128 0x3a
 875 009c 0B       		.uleb128 0xb
 876 009d 3B       		.uleb128 0x3b
 877 009e 0B       		.uleb128 0xb
 878 009f 01       		.uleb128 0x1
 879 00a0 13       		.uleb128 0x13
 880 00a1 00       		.byte	0
 881 00a2 00       		.byte	0
 882 00a3 0E       		.uleb128 0xe
 883 00a4 0D       		.uleb128 0xd
 884 00a5 00       		.byte	0
 885 00a6 03       		.uleb128 0x3
 886 00a7 0E       		.uleb128 0xe
 887 00a8 3A       		.uleb128 0x3a
 888 00a9 0B       		.uleb128 0xb
 889 00aa 3B       		.uleb128 0x3b
 890 00ab 0B       		.uleb128 0xb
 891 00ac 49       		.uleb128 0x49
 892 00ad 13       		.uleb128 0x13
 893 00ae 38       		.uleb128 0x38
 894 00af 0B       		.uleb128 0xb
 895 00b0 00       		.byte	0
 896 00b1 00       		.byte	0
 897 00b2 0F       		.uleb128 0xf
 898 00b3 2E       		.uleb128 0x2e
 899 00b4 00       		.byte	0
 900 00b5 3F       		.uleb128 0x3f
 901 00b6 19       		.uleb128 0x19
 902 00b7 03       		.uleb128 0x3
 903 00b8 0E       		.uleb128 0xe
 904 00b9 3A       		.uleb128 0x3a
 905 00ba 0B       		.uleb128 0xb
 906 00bb 3B       		.uleb128 0x3b
 907 00bc 0B       		.uleb128 0xb
 908 00bd 27       		.uleb128 0x27
 909 00be 19       		.uleb128 0x19
 910 00bf 11       		.uleb128 0x11
 911 00c0 01       		.uleb128 0x1
 912 00c1 12       		.uleb128 0x12
ARM GAS  C:\Users\IDONNO~1\AppData\Local\Temp\ccaUJebn.s 			page 17


 913 00c2 06       		.uleb128 0x6
 914 00c3 40       		.uleb128 0x40
 915 00c4 18       		.uleb128 0x18
 916 00c5 9742     		.uleb128 0x2117
 917 00c7 19       		.uleb128 0x19
 918 00c8 00       		.byte	0
 919 00c9 00       		.byte	0
 920 00ca 10       		.uleb128 0x10
 921 00cb 2E       		.uleb128 0x2e
 922 00cc 01       		.byte	0x1
 923 00cd 3F       		.uleb128 0x3f
 924 00ce 19       		.uleb128 0x19
 925 00cf 03       		.uleb128 0x3
 926 00d0 0E       		.uleb128 0xe
 927 00d1 3A       		.uleb128 0x3a
 928 00d2 0B       		.uleb128 0xb
 929 00d3 3B       		.uleb128 0x3b
 930 00d4 0B       		.uleb128 0xb
 931 00d5 27       		.uleb128 0x27
 932 00d6 19       		.uleb128 0x19
 933 00d7 11       		.uleb128 0x11
 934 00d8 01       		.uleb128 0x1
 935 00d9 12       		.uleb128 0x12
 936 00da 06       		.uleb128 0x6
 937 00db 40       		.uleb128 0x40
 938 00dc 18       		.uleb128 0x18
 939 00dd 9742     		.uleb128 0x2117
 940 00df 19       		.uleb128 0x19
 941 00e0 01       		.uleb128 0x1
 942 00e1 13       		.uleb128 0x13
 943 00e2 00       		.byte	0
 944 00e3 00       		.byte	0
 945 00e4 11       		.uleb128 0x11
 946 00e5 05       		.uleb128 0x5
 947 00e6 00       		.byte	0
 948 00e7 03       		.uleb128 0x3
 949 00e8 0E       		.uleb128 0xe
 950 00e9 3A       		.uleb128 0x3a
 951 00ea 0B       		.uleb128 0xb
 952 00eb 3B       		.uleb128 0x3b
 953 00ec 0B       		.uleb128 0xb
 954 00ed 49       		.uleb128 0x49
 955 00ee 13       		.uleb128 0x13
 956 00ef 02       		.uleb128 0x2
 957 00f0 17       		.uleb128 0x17
 958 00f1 00       		.byte	0
 959 00f2 00       		.byte	0
 960 00f3 12       		.uleb128 0x12
 961 00f4 34       		.uleb128 0x34
 962 00f5 00       		.byte	0
 963 00f6 03       		.uleb128 0x3
 964 00f7 08       		.uleb128 0x8
 965 00f8 3A       		.uleb128 0x3a
 966 00f9 0B       		.uleb128 0xb
 967 00fa 3B       		.uleb128 0x3b
 968 00fb 0B       		.uleb128 0xb
 969 00fc 49       		.uleb128 0x49
ARM GAS  C:\Users\IDONNO~1\AppData\Local\Temp\ccaUJebn.s 			page 18


 970 00fd 13       		.uleb128 0x13
 971 00fe 02       		.uleb128 0x2
 972 00ff 17       		.uleb128 0x17
 973 0100 00       		.byte	0
 974 0101 00       		.byte	0
 975 0102 13       		.uleb128 0x13
 976 0103 0F       		.uleb128 0xf
 977 0104 00       		.byte	0
 978 0105 0B       		.uleb128 0xb
 979 0106 0B       		.uleb128 0xb
 980 0107 49       		.uleb128 0x49
 981 0108 13       		.uleb128 0x13
 982 0109 00       		.byte	0
 983 010a 00       		.byte	0
 984 010b 14       		.uleb128 0x14
 985 010c 05       		.uleb128 0x5
 986 010d 00       		.byte	0
 987 010e 03       		.uleb128 0x3
 988 010f 0E       		.uleb128 0xe
 989 0110 3A       		.uleb128 0x3a
 990 0111 0B       		.uleb128 0xb
 991 0112 3B       		.uleb128 0x3b
 992 0113 0B       		.uleb128 0xb
 993 0114 49       		.uleb128 0x49
 994 0115 13       		.uleb128 0x13
 995 0116 02       		.uleb128 0x2
 996 0117 18       		.uleb128 0x18
 997 0118 00       		.byte	0
 998 0119 00       		.byte	0
 999 011a 15       		.uleb128 0x15
 1000 011b 2E       		.uleb128 0x2e
 1001 011c 01       		.byte	0x1
 1002 011d 3F       		.uleb128 0x3f
 1003 011e 19       		.uleb128 0x19
 1004 011f 03       		.uleb128 0x3
 1005 0120 0E       		.uleb128 0xe
 1006 0121 3A       		.uleb128 0x3a
 1007 0122 0B       		.uleb128 0xb
 1008 0123 3B       		.uleb128 0x3b
 1009 0124 05       		.uleb128 0x5
 1010 0125 27       		.uleb128 0x27
 1011 0126 19       		.uleb128 0x19
 1012 0127 49       		.uleb128 0x49
 1013 0128 13       		.uleb128 0x13
 1014 0129 11       		.uleb128 0x11
 1015 012a 01       		.uleb128 0x1
 1016 012b 12       		.uleb128 0x12
 1017 012c 06       		.uleb128 0x6
 1018 012d 40       		.uleb128 0x40
 1019 012e 18       		.uleb128 0x18
 1020 012f 9742     		.uleb128 0x2117
 1021 0131 19       		.uleb128 0x19
 1022 0132 01       		.uleb128 0x1
 1023 0133 13       		.uleb128 0x13
 1024 0134 00       		.byte	0
 1025 0135 00       		.byte	0
 1026 0136 16       		.uleb128 0x16
ARM GAS  C:\Users\IDONNO~1\AppData\Local\Temp\ccaUJebn.s 			page 19


 1027 0137 05       		.uleb128 0x5
 1028 0138 00       		.byte	0
 1029 0139 03       		.uleb128 0x3
 1030 013a 0E       		.uleb128 0xe
 1031 013b 3A       		.uleb128 0x3a
 1032 013c 0B       		.uleb128 0xb
 1033 013d 3B       		.uleb128 0x3b
 1034 013e 05       		.uleb128 0x5
 1035 013f 49       		.uleb128 0x49
 1036 0140 13       		.uleb128 0x13
 1037 0141 02       		.uleb128 0x2
 1038 0142 17       		.uleb128 0x17
 1039 0143 00       		.byte	0
 1040 0144 00       		.byte	0
 1041 0145 17       		.uleb128 0x17
 1042 0146 34       		.uleb128 0x34
 1043 0147 00       		.byte	0
 1044 0148 03       		.uleb128 0x3
 1045 0149 0E       		.uleb128 0xe
 1046 014a 3A       		.uleb128 0x3a
 1047 014b 0B       		.uleb128 0xb
 1048 014c 3B       		.uleb128 0x3b
 1049 014d 05       		.uleb128 0x5
 1050 014e 49       		.uleb128 0x49
 1051 014f 13       		.uleb128 0x13
 1052 0150 02       		.uleb128 0x2
 1053 0151 17       		.uleb128 0x17
 1054 0152 00       		.byte	0
 1055 0153 00       		.byte	0
 1056 0154 18       		.uleb128 0x18
 1057 0155 2E       		.uleb128 0x2e
 1058 0156 01       		.byte	0x1
 1059 0157 3F       		.uleb128 0x3f
 1060 0158 19       		.uleb128 0x19
 1061 0159 03       		.uleb128 0x3
 1062 015a 0E       		.uleb128 0xe
 1063 015b 3A       		.uleb128 0x3a
 1064 015c 0B       		.uleb128 0xb
 1065 015d 3B       		.uleb128 0x3b
 1066 015e 05       		.uleb128 0x5
 1067 015f 27       		.uleb128 0x27
 1068 0160 19       		.uleb128 0x19
 1069 0161 20       		.uleb128 0x20
 1070 0162 0B       		.uleb128 0xb
 1071 0163 01       		.uleb128 0x1
 1072 0164 13       		.uleb128 0x13
 1073 0165 00       		.byte	0
 1074 0166 00       		.byte	0
 1075 0167 19       		.uleb128 0x19
 1076 0168 05       		.uleb128 0x5
 1077 0169 00       		.byte	0
 1078 016a 03       		.uleb128 0x3
 1079 016b 0E       		.uleb128 0xe
 1080 016c 3A       		.uleb128 0x3a
 1081 016d 0B       		.uleb128 0xb
 1082 016e 3B       		.uleb128 0x3b
 1083 016f 05       		.uleb128 0x5
ARM GAS  C:\Users\IDONNO~1\AppData\Local\Temp\ccaUJebn.s 			page 20


 1084 0170 49       		.uleb128 0x49
 1085 0171 13       		.uleb128 0x13
 1086 0172 00       		.byte	0
 1087 0173 00       		.byte	0
 1088 0174 1A       		.uleb128 0x1a
 1089 0175 2E       		.uleb128 0x2e
 1090 0176 01       		.byte	0x1
 1091 0177 31       		.uleb128 0x31
 1092 0178 13       		.uleb128 0x13
 1093 0179 11       		.uleb128 0x11
 1094 017a 01       		.uleb128 0x1
 1095 017b 12       		.uleb128 0x12
 1096 017c 06       		.uleb128 0x6
 1097 017d 40       		.uleb128 0x40
 1098 017e 18       		.uleb128 0x18
 1099 017f 9742     		.uleb128 0x2117
 1100 0181 19       		.uleb128 0x19
 1101 0182 01       		.uleb128 0x1
 1102 0183 13       		.uleb128 0x13
 1103 0184 00       		.byte	0
 1104 0185 00       		.byte	0
 1105 0186 1B       		.uleb128 0x1b
 1106 0187 05       		.uleb128 0x5
 1107 0188 00       		.byte	0
 1108 0189 31       		.uleb128 0x31
 1109 018a 13       		.uleb128 0x13
 1110 018b 02       		.uleb128 0x2
 1111 018c 18       		.uleb128 0x18
 1112 018d 00       		.byte	0
 1113 018e 00       		.byte	0
 1114 018f 1C       		.uleb128 0x1c
 1115 0190 34       		.uleb128 0x34
 1116 0191 00       		.byte	0
 1117 0192 03       		.uleb128 0x3
 1118 0193 0E       		.uleb128 0xe
 1119 0194 3A       		.uleb128 0x3a
 1120 0195 0B       		.uleb128 0xb
 1121 0196 3B       		.uleb128 0x3b
 1122 0197 05       		.uleb128 0x5
 1123 0198 49       		.uleb128 0x49
 1124 0199 13       		.uleb128 0x13
 1125 019a 3F       		.uleb128 0x3f
 1126 019b 19       		.uleb128 0x19
 1127 019c 3C       		.uleb128 0x3c
 1128 019d 19       		.uleb128 0x19
 1129 019e 00       		.byte	0
 1130 019f 00       		.byte	0
 1131 01a0 00       		.byte	0
 1132              		.section	.debug_loc,"",%progbits
 1133              	.Ldebug_loc0:
 1134              	.LLST0:
 1135 0000 00000000 		.4byte	.LVL0
 1136 0004 2E000000 		.4byte	.LVL3
 1137 0008 0100     		.2byte	0x1
 1138 000a 50       		.byte	0x50
 1139 000b 2E000000 		.4byte	.LVL3
 1140 000f 52000000 		.4byte	.LVL5
ARM GAS  C:\Users\IDONNO~1\AppData\Local\Temp\ccaUJebn.s 			page 21


 1141 0013 0400     		.2byte	0x4
 1142 0015 F3       		.byte	0xf3
 1143 0016 01       		.uleb128 0x1
 1144 0017 50       		.byte	0x50
 1145 0018 9F       		.byte	0x9f
 1146 0019 52000000 		.4byte	.LVL5
 1147 001d 68000000 		.4byte	.LVL7
 1148 0021 0100     		.2byte	0x1
 1149 0023 50       		.byte	0x50
 1150 0024 68000000 		.4byte	.LVL7
 1151 0028 7C000000 		.4byte	.LFE113
 1152 002c 0400     		.2byte	0x4
 1153 002e F3       		.byte	0xf3
 1154 002f 01       		.uleb128 0x1
 1155 0030 50       		.byte	0x50
 1156 0031 9F       		.byte	0x9f
 1157 0032 00000000 		.4byte	0
 1158 0036 00000000 		.4byte	0
 1159              	.LLST1:
 1160 003a 00000000 		.4byte	.LVL0
 1161 003e 24000000 		.4byte	.LVL1
 1162 0042 0600     		.2byte	0x6
 1163 0044 0C       		.byte	0xc
 1164 0045 003C0140 		.4byte	0x40013c00
 1165 0049 9F       		.byte	0x9f
 1166 004a 24000000 		.4byte	.LVL1
 1167 004e 2A000000 		.4byte	.LVL2
 1168 0052 0E00     		.2byte	0xe
 1169 0054 70       		.byte	0x70
 1170 0055 04       		.sleb128 4
 1171 0056 94       		.byte	0x94
 1172 0057 01       		.byte	0x1
 1173 0058 08       		.byte	0x8
 1174 0059 FF       		.byte	0xff
 1175 005a 1A       		.byte	0x1a
 1176 005b 23       		.byte	0x23
 1177 005c 80F88480 		.uleb128 0x40013c00
 1177      04
 1178 0061 9F       		.byte	0x9f
 1179 0062 40000000 		.4byte	.LVL4
 1180 0066 52000000 		.4byte	.LVL5
 1181 006a 0C00     		.2byte	0xc
 1182 006c 71       		.byte	0x71
 1183 006d 00       		.sleb128 0
 1184 006e 08       		.byte	0x8
 1185 006f FF       		.byte	0xff
 1186 0070 1A       		.byte	0x1a
 1187 0071 23       		.byte	0x23
 1188 0072 80F88480 		.uleb128 0x40013c00
 1188      04
 1189 0077 9F       		.byte	0x9f
 1190 0078 52000000 		.4byte	.LVL5
 1191 007c 66000000 		.4byte	.LVL6
 1192 0080 0E00     		.2byte	0xe
 1193 0082 70       		.byte	0x70
 1194 0083 04       		.sleb128 4
 1195 0084 94       		.byte	0x94
ARM GAS  C:\Users\IDONNO~1\AppData\Local\Temp\ccaUJebn.s 			page 22


 1196 0085 01       		.byte	0x1
 1197 0086 08       		.byte	0x8
 1198 0087 FF       		.byte	0xff
 1199 0088 1A       		.byte	0x1a
 1200 0089 23       		.byte	0x23
 1201 008a 80F88480 		.uleb128 0x40013c00
 1201      04
 1202 008f 9F       		.byte	0x9f
 1203 0090 66000000 		.4byte	.LVL6
 1204 0094 68000000 		.4byte	.LVL7
 1205 0098 1000     		.2byte	0x10
 1206 009a 73       		.byte	0x73
 1207 009b 8088FBFF 		.sleb128 -1073822720
 1207      7B
 1208 00a0 08       		.byte	0x8
 1209 00a1 FF       		.byte	0xff
 1210 00a2 1A       		.byte	0x1a
 1211 00a3 23       		.byte	0x23
 1212 00a4 80F88480 		.uleb128 0x40013c00
 1212      04
 1213 00a9 9F       		.byte	0x9f
 1214 00aa 00000000 		.4byte	0
 1215 00ae 00000000 		.4byte	0
 1216              	.LLST2:
 1217 00b2 00000000 		.4byte	.LVL9
 1218 00b6 06000000 		.4byte	.LVL10
 1219 00ba 0100     		.2byte	0x1
 1220 00bc 50       		.byte	0x50
 1221 00bd 06000000 		.4byte	.LVL10
 1222 00c1 10000000 		.4byte	.LFE115
 1223 00c5 0400     		.2byte	0x4
 1224 00c7 F3       		.byte	0xf3
 1225 00c8 01       		.uleb128 0x1
 1226 00c9 50       		.byte	0x50
 1227 00ca 9F       		.byte	0x9f
 1228 00cb 00000000 		.4byte	0
 1229 00cf 00000000 		.4byte	0
 1230              	.LLST3:
 1231 00d3 00000000 		.4byte	.LVL11
 1232 00d7 0A000000 		.4byte	.LVL13
 1233 00db 0100     		.2byte	0x1
 1234 00dd 50       		.byte	0x50
 1235 00de 0A000000 		.4byte	.LVL13
 1236 00e2 14000000 		.4byte	.LFE118
 1237 00e6 0400     		.2byte	0x4
 1238 00e8 F3       		.byte	0xf3
 1239 00e9 01       		.uleb128 0x1
 1240 00ea 50       		.byte	0x50
 1241 00eb 9F       		.byte	0x9f
 1242 00ec 00000000 		.4byte	0
 1243 00f0 00000000 		.4byte	0
 1244              	.LLST4:
 1245 00f4 00000000 		.4byte	.LVL11
 1246 00f8 04000000 		.4byte	.LVL12
 1247 00fc 0200     		.2byte	0x2
 1248 00fe 30       		.byte	0x30
 1249 00ff 9F       		.byte	0x9f
ARM GAS  C:\Users\IDONNO~1\AppData\Local\Temp\ccaUJebn.s 			page 23


 1250 0100 04000000 		.4byte	.LVL12
 1251 0104 0A000000 		.4byte	.LVL13
 1252 0108 0800     		.2byte	0x8
 1253 010a 73       		.byte	0x73
 1254 010b 00       		.sleb128 0
 1255 010c 70       		.byte	0x70
 1256 010d 00       		.sleb128 0
 1257 010e 1A       		.byte	0x1a
 1258 010f 30       		.byte	0x30
 1259 0110 2E       		.byte	0x2e
 1260 0111 9F       		.byte	0x9f
 1261 0112 0A000000 		.4byte	.LVL13
 1262 0116 14000000 		.4byte	.LFE118
 1263 011a 0900     		.2byte	0x9
 1264 011c 73       		.byte	0x73
 1265 011d 00       		.sleb128 0
 1266 011e F3       		.byte	0xf3
 1267 011f 01       		.uleb128 0x1
 1268 0120 50       		.byte	0x50
 1269 0121 1A       		.byte	0x1a
 1270 0122 30       		.byte	0x30
 1271 0123 2E       		.byte	0x2e
 1272 0124 9F       		.byte	0x9f
 1273 0125 00000000 		.4byte	0
 1274 0129 00000000 		.4byte	0
 1275              		.section	.debug_aranges,"",%progbits
 1276 0000 44000000 		.4byte	0x44
 1277 0004 0200     		.2byte	0x2
 1278 0006 00000000 		.4byte	.Ldebug_info0
 1279 000a 04       		.byte	0x4
 1280 000b 00       		.byte	0
 1281 000c 0000     		.2byte	0
 1282 000e 0000     		.2byte	0
 1283 0010 00000000 		.4byte	.LFB112
 1284 0014 1C000000 		.4byte	.LFE112-.LFB112
 1285 0018 00000000 		.4byte	.LFB113
 1286 001c 7C000000 		.4byte	.LFE113-.LFB113
 1287 0020 00000000 		.4byte	.LFB114
 1288 0024 0E000000 		.4byte	.LFE114-.LFB114
 1289 0028 00000000 		.4byte	.LFB115
 1290 002c 10000000 		.4byte	.LFE115-.LFB115
 1291 0030 00000000 		.4byte	.LFB118
 1292 0034 14000000 		.4byte	.LFE118-.LFB118
 1293 0038 00000000 		.4byte	.LFB119
 1294 003c 0C000000 		.4byte	.LFE119-.LFB119
 1295 0040 00000000 		.4byte	0
 1296 0044 00000000 		.4byte	0
 1297              		.section	.debug_ranges,"",%progbits
 1298              	.Ldebug_ranges0:
 1299 0000 00000000 		.4byte	.LFB112
 1300 0004 1C000000 		.4byte	.LFE112
 1301 0008 00000000 		.4byte	.LFB113
 1302 000c 7C000000 		.4byte	.LFE113
 1303 0010 00000000 		.4byte	.LFB114
 1304 0014 0E000000 		.4byte	.LFE114
 1305 0018 00000000 		.4byte	.LFB115
 1306 001c 10000000 		.4byte	.LFE115
ARM GAS  C:\Users\IDONNO~1\AppData\Local\Temp\ccaUJebn.s 			page 24


 1307 0020 00000000 		.4byte	.LFB118
 1308 0024 14000000 		.4byte	.LFE118
 1309 0028 00000000 		.4byte	.LFB119
 1310 002c 0C000000 		.4byte	.LFE119
 1311 0030 00000000 		.4byte	0
 1312 0034 00000000 		.4byte	0
 1313              		.section	.debug_line,"",%progbits
 1314              	.Ldebug_line0:
 1315 0000 72020000 		.section	.debug_str,"MS",%progbits,1
 1315      0200D501 
 1315      00000201 
 1315      FB0E0D00 
 1315      01010101 
 1316              	.LASF31:
 1317 0000 45585449 		.ascii	"EXTI_Line\000"
 1317      5F4C696E 
 1317      6500
 1318              	.LASF32:
 1319 000a 45585449 		.ascii	"EXTI_Mode\000"
 1319      5F4D6F64 
 1319      6500
 1320              	.LASF20:
 1321 0014 49545374 		.ascii	"ITStatus\000"
 1321      61747573 
 1321      00
 1322              	.LASF34:
 1323 001d 45585449 		.ascii	"EXTI_LineCmd\000"
 1323      5F4C696E 
 1323      65436D64 
 1323      00
 1324              	.LASF33:
 1325 002a 45585449 		.ascii	"EXTI_Trigger\000"
 1325      5F547269 
 1325      67676572 
 1325      00
 1326              	.LASF5:
 1327 0037 5F5F696E 		.ascii	"__int32_t\000"
 1327      7433325F 
 1327      7400
 1328              	.LASF37:
 1329 0041 45585449 		.ascii	"EXTI_StructInit\000"
 1329      5F537472 
 1329      75637449 
 1329      6E697400 
 1330              	.LASF25:
 1331 0051 45585449 		.ascii	"EXTI_Mode_Event\000"
 1331      5F4D6F64 
 1331      655F4576 
 1331      656E7400 
 1332              	.LASF3:
 1333 0061 73686F72 		.ascii	"short unsigned int\000"
 1333      7420756E 
 1333      7369676E 
 1333      65642069 
 1333      6E7400
 1334              	.LASF23:
 1335 0074 46756E63 		.ascii	"FunctionalState\000"
ARM GAS  C:\Users\IDONNO~1\AppData\Local\Temp\ccaUJebn.s 			page 25


 1335      74696F6E 
 1335      616C5374 
 1335      61746500 
 1336              	.LASF40:
 1337 0084 62697473 		.ascii	"bitstatus\000"
 1337      74617475 
 1337      7300
 1338              	.LASF39:
 1339 008e 45585449 		.ascii	"EXTI_GenerateSWInterrupt\000"
 1339      5F47656E 
 1339      65726174 
 1339      65535749 
 1339      6E746572 
 1340              	.LASF35:
 1341 00a7 45585449 		.ascii	"EXTI_InitTypeDef\000"
 1341      5F496E69 
 1341      74547970 
 1341      65446566 
 1341      00
 1342              	.LASF38:
 1343 00b8 45585449 		.ascii	"EXTI_InitStruct\000"
 1343      5F496E69 
 1343      74537472 
 1343      75637400 
 1344              	.LASF43:
 1345 00c8 443A5C67 		.ascii	"D:\\git\\oroca_bldc_dev\\oroca_bldc_FW\000"
 1345      69745C6F 
 1345      726F6361 
 1345      5F626C64 
 1345      635F6465 
 1346              	.LASF24:
 1347 00ec 45585449 		.ascii	"EXTI_Mode_Interrupt\000"
 1347      5F4D6F64 
 1347      655F496E 
 1347      74657272 
 1347      75707400 
 1348              	.LASF1:
 1349 0100 756E7369 		.ascii	"unsigned char\000"
 1349      676E6564 
 1349      20636861 
 1349      7200
 1350              	.LASF19:
 1351 010e 466C6167 		.ascii	"FlagStatus\000"
 1351      53746174 
 1351      757300
 1352              	.LASF7:
 1353 0119 6C6F6E67 		.ascii	"long unsigned int\000"
 1353      20756E73 
 1353      69676E65 
 1353      6420696E 
 1353      7400
 1354              	.LASF18:
 1355 012b 52455345 		.ascii	"RESET\000"
 1355      5400
 1356              	.LASF26:
 1357 0131 45585449 		.ascii	"EXTIMode_TypeDef\000"
 1357      4D6F6465 
ARM GAS  C:\Users\IDONNO~1\AppData\Local\Temp\ccaUJebn.s 			page 26


 1357      5F547970 
 1357      65446566 
 1357      00
 1358              	.LASF17:
 1359 0142 45585449 		.ascii	"EXTI_TypeDef\000"
 1359      5F547970 
 1359      65446566 
 1359      00
 1360              	.LASF41:
 1361 014f 474E5520 		.ascii	"GNU C99 5.2.1 20151202 (release) [ARM/embedded-5-br"
 1361      43393920 
 1361      352E322E 
 1361      31203230 
 1361      31353132 
 1362 0182 616E6368 		.ascii	"anch revision 231848] -mcpu=cortex-m4 -mfloat-abi=h"
 1362      20726576 
 1362      6973696F 
 1362      6E203233 
 1362      31383438 
 1363 01b5 61726420 		.ascii	"ard -mfpu=fpv4-sp-d16 -mno-thumb-interwork -mthumb "
 1363      2D6D6670 
 1363      753D6670 
 1363      76342D73 
 1363      702D6431 
 1364 01e8 2D676764 		.ascii	"-ggdb -O2 -std=gnu99 -fomit-frame-pointer -falign-f"
 1364      62202D4F 
 1364      32202D73 
 1364      74643D67 
 1364      6E753939 
 1365 021b 756E6374 		.ascii	"unctions=16 -ffunction-sections -fdata-sections -fn"
 1365      696F6E73 
 1365      3D313620 
 1365      2D666675 
 1365      6E637469 
 1366 024e 6F2D636F 		.ascii	"o-common -fsingle-precision-constant\000"
 1366      6D6D6F6E 
 1366      202D6673 
 1366      696E676C 
 1366      652D7072 
 1367              	.LASF47:
 1368 0273 49544D5F 		.ascii	"ITM_RxBuffer\000"
 1368      52784275 
 1368      66666572 
 1368      00
 1369              	.LASF14:
 1370 0280 52545352 		.ascii	"RTSR\000"
 1370      00
 1371              	.LASF6:
 1372 0285 5F5F7569 		.ascii	"__uint32_t\000"
 1372      6E743332 
 1372      5F7400
 1373              	.LASF27:
 1374 0290 45585449 		.ascii	"EXTI_Trigger_Rising\000"
 1374      5F547269 
 1374      67676572 
 1374      5F526973 
 1374      696E6700 
ARM GAS  C:\Users\IDONNO~1\AppData\Local\Temp\ccaUJebn.s 			page 27


 1375              	.LASF29:
 1376 02a4 45585449 		.ascii	"EXTI_Trigger_Rising_Falling\000"
 1376      5F547269 
 1376      67676572 
 1376      5F526973 
 1376      696E675F 
 1377              	.LASF10:
 1378 02c0 756E7369 		.ascii	"unsigned int\000"
 1378      676E6564 
 1378      20696E74 
 1378      00
 1379              	.LASF36:
 1380 02cd 45585449 		.ascii	"EXTI_Init\000"
 1380      5F496E69 
 1380      7400
 1381              	.LASF9:
 1382 02d7 6C6F6E67 		.ascii	"long long unsigned int\000"
 1382      206C6F6E 
 1382      6720756E 
 1382      7369676E 
 1382      65642069 
 1383              	.LASF0:
 1384 02ee 7369676E 		.ascii	"signed char\000"
 1384      65642063 
 1384      68617200 
 1385              	.LASF28:
 1386 02fa 45585449 		.ascii	"EXTI_Trigger_Falling\000"
 1386      5F547269 
 1386      67676572 
 1386      5F46616C 
 1386      6C696E67 
 1387              	.LASF11:
 1388 030f 696E7433 		.ascii	"int32_t\000"
 1388      325F7400 
 1389              	.LASF13:
 1390 0317 73697A65 		.ascii	"sizetype\000"
 1390      74797065 
 1390      00
 1391              	.LASF8:
 1392 0320 6C6F6E67 		.ascii	"long long int\000"
 1392      206C6F6E 
 1392      6720696E 
 1392      7400
 1393              	.LASF45:
 1394 032e 45585449 		.ascii	"EXTI_GetITStatus\000"
 1394      5F476574 
 1394      49545374 
 1394      61747573 
 1394      00
 1395              	.LASF46:
 1396 033f 45585449 		.ascii	"EXTI_ClearITPendingBit\000"
 1396      5F436C65 
 1396      61724954 
 1396      50656E64 
 1396      696E6742 
 1397              	.LASF2:
 1398 0356 73686F72 		.ascii	"short int\000"
ARM GAS  C:\Users\IDONNO~1\AppData\Local\Temp\ccaUJebn.s 			page 28


 1398      7420696E 
 1398      7400
 1399              	.LASF22:
 1400 0360 454E4142 		.ascii	"ENABLE\000"
 1400      4C4500
 1401              	.LASF12:
 1402 0367 75696E74 		.ascii	"uint32_t\000"
 1402      33325F74 
 1402      00
 1403              	.LASF4:
 1404 0370 6C6F6E67 		.ascii	"long int\000"
 1404      20696E74 
 1404      00
 1405              	.LASF42:
 1406 0379 6C69622F 		.ascii	"lib/ChibiOS_3.0.2/ext/stdperiph_stm32f4/src/stm32f4"
 1406      43686962 
 1406      694F535F 
 1406      332E302E 
 1406      322F6578 
 1407 03ac 78785F65 		.ascii	"xx_exti.c\000"
 1407      7874692E 
 1407      6300
 1408              	.LASF21:
 1409 03b6 44495341 		.ascii	"DISABLE\000"
 1409      424C4500 
 1410              	.LASF30:
 1411 03be 45585449 		.ascii	"EXTITrigger_TypeDef\000"
 1411      54726967 
 1411      6765725F 
 1411      54797065 
 1411      44656600 
 1412              	.LASF16:
 1413 03d2 53574945 		.ascii	"SWIER\000"
 1413      5200
 1414              	.LASF44:
 1415 03d8 45585449 		.ascii	"EXTI_DeInit\000"
 1415      5F446549 
 1415      6E697400 
 1416              	.LASF15:
 1417 03e4 46545352 		.ascii	"FTSR\000"
 1417      00
 1418              		.ident	"GCC: (GNU Tools for ARM Embedded Processors) 5.2.1 20151202 (release) [ARM/embedded-5-bran
ARM GAS  C:\Users\IDONNO~1\AppData\Local\Temp\ccaUJebn.s 			page 29


DEFINED SYMBOLS
                            *ABS*:00000000 stm32f4xx_exti.c
C:\Users\IDONNO~1\AppData\Local\Temp\ccaUJebn.s:22     .text.EXTI_DeInit:00000000 $t
C:\Users\IDONNO~1\AppData\Local\Temp\ccaUJebn.s:28     .text.EXTI_DeInit:00000000 EXTI_DeInit
C:\Users\IDONNO~1\AppData\Local\Temp\ccaUJebn.s:55     .text.EXTI_DeInit:00000014 $d
C:\Users\IDONNO~1\AppData\Local\Temp\ccaUJebn.s:61     .text.EXTI_Init:00000000 $t
C:\Users\IDONNO~1\AppData\Local\Temp\ccaUJebn.s:67     .text.EXTI_Init:00000000 EXTI_Init
C:\Users\IDONNO~1\AppData\Local\Temp\ccaUJebn.s:183    .text.EXTI_Init:00000078 $d
C:\Users\IDONNO~1\AppData\Local\Temp\ccaUJebn.s:188    .text.EXTI_StructInit:00000000 $t
C:\Users\IDONNO~1\AppData\Local\Temp\ccaUJebn.s:194    .text.EXTI_StructInit:00000000 EXTI_StructInit
C:\Users\IDONNO~1\AppData\Local\Temp\ccaUJebn.s:218    .text.EXTI_GenerateSWInterrupt:00000000 $t
C:\Users\IDONNO~1\AppData\Local\Temp\ccaUJebn.s:224    .text.EXTI_GenerateSWInterrupt:00000000 EXTI_GenerateSWInterrupt
C:\Users\IDONNO~1\AppData\Local\Temp\ccaUJebn.s:242    .text.EXTI_GenerateSWInterrupt:0000000c $d
C:\Users\IDONNO~1\AppData\Local\Temp\ccaUJebn.s:247    .text.EXTI_ClearFlag:00000000 $t
C:\Users\IDONNO~1\AppData\Local\Temp\ccaUJebn.s:253    .text.EXTI_ClearFlag:00000000 EXTI_ClearFlag
C:\Users\IDONNO~1\AppData\Local\Temp\ccaUJebn.s:265    .text.EXTI_ClearFlag:00000008 $d
C:\Users\IDONNO~1\AppData\Local\Temp\ccaUJebn.s:270    .text.EXTI_GetITStatus:00000000 $t
C:\Users\IDONNO~1\AppData\Local\Temp\ccaUJebn.s:276    .text.EXTI_GetITStatus:00000000 EXTI_GetITStatus
C:\Users\IDONNO~1\AppData\Local\Temp\ccaUJebn.s:299    .text.EXTI_GetITStatus:00000010 $d
C:\Users\IDONNO~1\AppData\Local\Temp\ccaUJebn.s:304    .text.EXTI_GetFlagStatus:00000000 $t
C:\Users\IDONNO~1\AppData\Local\Temp\ccaUJebn.s:310    .text.EXTI_GetFlagStatus:00000000 EXTI_GetFlagStatus
C:\Users\IDONNO~1\AppData\Local\Temp\ccaUJebn.s:321    .text.EXTI_ClearITPendingBit:00000000 $t
C:\Users\IDONNO~1\AppData\Local\Temp\ccaUJebn.s:327    .text.EXTI_ClearITPendingBit:00000000 EXTI_ClearITPendingBit
C:\Users\IDONNO~1\AppData\Local\Temp\ccaUJebn.s:342    .text.EXTI_ClearITPendingBit:00000008 $d
                     .debug_frame:00000010 $d

NO UNDEFINED SYMBOLS
