ARM GAS  C:\Users\IDONNO~1\AppData\Local\Temp\ccaUJebn.s 			page 1


   1              		.syntax unified
   2              		.cpu cortex-m4
   3              		.eabi_attribute 27, 1
   4              		.eabi_attribute 28, 1
   5              		.fpu fpv4-sp-d16
   6              		.eabi_attribute 20, 1
   7              		.eabi_attribute 21, 1
   8              		.eabi_attribute 23, 3
   9              		.eabi_attribute 24, 1
  10              		.eabi_attribute 25, 1
  11              		.eabi_attribute 26, 1
  12              		.eabi_attribute 30, 2
  13              		.eabi_attribute 34, 1
  14              		.eabi_attribute 18, 4
  15              		.thumb
  16              		.syntax unified
  17              		.file	"stm32f4xx_exti.c"
  18              		.text
  19              	.Ltext0:
  20              		.cfi_sections	.debug_frame
  21              		.section	.text.EXTI_DeInit,"ax",%progbits
  22              		.align	2
  23              		.p2align 4,,15
  24              		.global	EXTI_DeInit
  25              		.thumb
  26              		.thumb_func
  27              		.type	EXTI_DeInit, %function
  28              	EXTI_DeInit:
  29              	.LFB112:
  30              		.file 1 "lib/ChibiOS_3.0.2/ext/stdperiph_stm32f4/src/stm32f4xx_exti.c"
  31              		.loc 1 115 0
  32              		.cfi_startproc
  33              		@ args = 0, pretend = 0, frame = 0
  34              		@ frame_needed = 0, uses_anonymous_args = 0
  35              		@ link register save eliminated.
  36              		.loc 1 116 0
  37 0000 044B     		ldr	r3, .L2
  38              		.loc 1 120 0
  39 0002 0549     		ldr	r1, .L2+4
  40              		.loc 1 116 0
  41 0004 0022     		movs	r2, #0
  42 0006 1A60     		str	r2, [r3]
  43              		.loc 1 117 0
  44 0008 5A60     		str	r2, [r3, #4]
  45              		.loc 1 118 0
  46 000a 9A60     		str	r2, [r3, #8]
  47              		.loc 1 119 0
  48 000c DA60     		str	r2, [r3, #12]
  49              		.loc 1 120 0
  50 000e 5961     		str	r1, [r3, #20]
  51 0010 7047     		bx	lr
  52              	.L3:
  53 0012 00BF     		.align	2
  54              	.L2:
  55 0014 003C0140 		.word	1073822720
  56 0018 FFFF7F00 		.word	8388607
  57              		.cfi_endproc
ARM GAS  C:\Users\IDONNO~1\AppData\Local\Temp\ccaUJebn.s 			page 2


  58              	.LFE112:
  59              		.size	EXTI_DeInit, .-EXTI_DeInit
  60              		.section	.text.EXTI_Init,"ax",%progbits
  61              		.align	2
  62              		.p2align 4,,15
  63              		.global	EXTI_Init
  64              		.thumb
  65              		.thumb_func
  66              		.type	EXTI_Init, %function
  67              	EXTI_Init:
  68              	.LFB113:
  69              		.loc 1 131 0
  70              		.cfi_startproc
  71              		@ args = 0, pretend = 0, frame = 0
  72              		@ frame_needed = 0, uses_anonymous_args = 0
  73              		@ link register save eliminated.
  74              	.LVL0:
  75              		.loc 1 142 0
  76 0000 8379     		ldrb	r3, [r0, #6]	@ zero_extendqisi2
  77 0002 33B3     		cbz	r3, .L5
  78              		.loc 1 145 0
  79 0004 1C4B     		ldr	r3, .L12
  80              		.loc 1 150 0
  81 0006 0279     		ldrb	r2, [r0, #4]	@ zero_extendqisi2
  82              		.loc 1 157 0
  83 0008 4179     		ldrb	r1, [r0, #5]	@ zero_extendqisi2
  84              		.loc 1 131 0
  85 000a F0B4     		push	{r4, r5, r6, r7}
  86              		.cfi_def_cfa_offset 16
  87              		.cfi_offset 4, -16
  88              		.cfi_offset 5, -12
  89              		.cfi_offset 6, -8
  90              		.cfi_offset 7, -4
  91              		.loc 1 145 0
  92 000c 0768     		ldr	r7, [r0]
  93 000e 1E68     		ldr	r6, [r3]
  94 0010 FC43     		mvns	r4, r7
  95 0012 2640     		ands	r6, r6, r4
  96 0014 1E60     		str	r6, [r3]
  97              		.loc 1 146 0
  98 0016 5D68     		ldr	r5, [r3, #4]
  99              		.loc 1 150 0
 100 0018 02F18042 		add	r2, r2, #1073741824
 101              		.loc 1 146 0
 102 001c 2540     		ands	r5, r5, r4
 103              		.loc 1 150 0
 104 001e 02F59E32 		add	r2, r2, #80896
 105              		.loc 1 146 0
 106 0022 5D60     		str	r5, [r3, #4]
 107              	.LVL1:
 108              		.loc 1 150 0
 109 0024 1468     		ldr	r4, [r2]
 110 0026 3C43     		orrs	r4, r4, r7
 111 0028 1460     		str	r4, [r2]
 112              	.LVL2:
 113              		.loc 1 153 0
 114 002a 0468     		ldr	r4, [r0]
ARM GAS  C:\Users\IDONNO~1\AppData\Local\Temp\ccaUJebn.s 			page 3


 115 002c 9868     		ldr	r0, [r3, #8]
 116              	.LVL3:
 117 002e E543     		mvns	r5, r4
 118 0030 2840     		ands	r0, r0, r5
 119 0032 9860     		str	r0, [r3, #8]
 120              		.loc 1 154 0
 121 0034 DA68     		ldr	r2, [r3, #12]
 122              		.loc 1 157 0
 123 0036 1029     		cmp	r1, #16
 124              		.loc 1 154 0
 125 0038 02EA0502 		and	r2, r2, r5
 126 003c DA60     		str	r2, [r3, #12]
 127              		.loc 1 157 0
 128 003e 13D0     		beq	.L11
 129              	.LVL4:
 130              		.loc 1 168 0
 131 0040 01F18043 		add	r3, r1, #1073741824
 132 0044 03F59E33 		add	r3, r3, #80896
 133 0048 1A68     		ldr	r2, [r3]
 134 004a 1443     		orrs	r4, r4, r2
 135 004c 1C60     		str	r4, [r3]
 136              		.loc 1 178 0
 137 004e F0BC     		pop	{r4, r5, r6, r7}
 138              		.cfi_restore 7
 139              		.cfi_restore 6
 140              		.cfi_restore 5
 141              		.cfi_restore 4
 142              		.cfi_def_cfa_offset 0
 143 0050 7047     		bx	lr
 144              	.LVL5:
 145              	.L5:
 146              		.loc 1 176 0
 147 0052 0379     		ldrb	r3, [r0, #4]	@ zero_extendqisi2
 148 0054 0168     		ldr	r1, [r0]
 149 0056 03F18043 		add	r3, r3, #1073741824
 150 005a 03F59E33 		add	r3, r3, #80896
 151 005e 1A68     		ldr	r2, [r3]
 152 0060 22EA0102 		bic	r2, r2, r1
 153 0064 1A60     		str	r2, [r3]
 154              	.LVL6:
 155              		.loc 1 178 0
 156 0066 7047     		bx	lr
 157              	.LVL7:
 158              	.L11:
 159              		.cfi_def_cfa_offset 16
 160              		.cfi_offset 4, -16
 161              		.cfi_offset 5, -12
 162              		.cfi_offset 6, -8
 163              		.cfi_offset 7, -4
 164              		.loc 1 160 0
 165 0068 9A68     		ldr	r2, [r3, #8]
 166 006a 2243     		orrs	r2, r2, r4
 167 006c 9A60     		str	r2, [r3, #8]
 168              		.loc 1 161 0
 169 006e DA68     		ldr	r2, [r3, #12]
 170 0070 1443     		orrs	r4, r4, r2
 171 0072 DC60     		str	r4, [r3, #12]
ARM GAS  C:\Users\IDONNO~1\AppData\Local\Temp\ccaUJebn.s 			page 4


 172              		.loc 1 178 0
 173 0074 F0BC     		pop	{r4, r5, r6, r7}
 174              		.cfi_restore 4
 175              		.cfi_restore 5
 176              		.cfi_restore 6
 177              		.cfi_restore 7
 178              		.cfi_def_cfa_offset 0
 179 0076 7047     		bx	lr
 180              	.L13:
 181              		.align	2
 182              	.L12:
 183 0078 003C0140 		.word	1073822720
 184              		.cfi_endproc
 185              	.LFE113:
 186              		.size	EXTI_Init, .-EXTI_Init
 187              		.section	.text.EXTI_StructInit,"ax",%progbits
 188              		.align	2
 189              		.p2align 4,,15
 190              		.global	EXTI_StructInit
 191              		.thumb
 192              		.thumb_func
 193              		.type	EXTI_StructInit, %function
 194              	EXTI_StructInit:
 195              	.LFB114:
 196              		.loc 1 187 0
 197              		.cfi_startproc
 198              		@ args = 0, pretend = 0, frame = 0
 199              		@ frame_needed = 0, uses_anonymous_args = 0
 200              		@ link register save eliminated.
 201              	.LVL8:
 202              		.loc 1 188 0
 203 0000 0023     		movs	r3, #0
 204              		.loc 1 190 0
 205 0002 0C22     		movs	r2, #12
 206 0004 4271     		strb	r2, [r0, #5]
 207              		.loc 1 188 0
 208 0006 0360     		str	r3, [r0]
 209              		.loc 1 189 0
 210 0008 0371     		strb	r3, [r0, #4]
 211              		.loc 1 191 0
 212 000a 8371     		strb	r3, [r0, #6]
 213 000c 7047     		bx	lr
 214              		.cfi_endproc
 215              	.LFE114:
 216              		.size	EXTI_StructInit, .-EXTI_StructInit
 217 000e 00BF     		.section	.text.EXTI_GenerateSWInterrupt,"ax",%progbits
 218              		.align	2
 219              		.p2align 4,,15
 220              		.global	EXTI_GenerateSWInterrupt
 221              		.thumb
 222              		.thumb_func
 223              		.type	EXTI_GenerateSWInterrupt, %function
 224              	EXTI_GenerateSWInterrupt:
 225              	.LFB115:
 226              		.loc 1 202 0
 227              		.cfi_startproc
 228              		@ args = 0, pretend = 0, frame = 0
ARM GAS  C:\Users\IDONNO~1\AppData\Local\Temp\ccaUJebn.s 			page 5


 229              		@ frame_needed = 0, uses_anonymous_args = 0
 230              		@ link register save eliminated.
 231              	.LVL9:
 232              		.loc 1 206 0
 233 0000 024A     		ldr	r2, .L16
 234 0002 1369     		ldr	r3, [r2, #16]
 235 0004 1843     		orrs	r0, r0, r3
 236              	.LVL10:
 237 0006 1061     		str	r0, [r2, #16]
 238 0008 7047     		bx	lr
 239              	.L17:
 240 000a 00BF     		.align	2
 241              	.L16:
 242 000c 003C0140 		.word	1073822720
 243              		.cfi_endproc
 244              	.LFE115:
 245              		.size	EXTI_GenerateSWInterrupt, .-EXTI_GenerateSWInterrupt
 246              		.section	.text.EXTI_ClearFlag,"ax",%progbits
 247              		.align	2
 248              		.p2align 4,,15
 249              		.global	EXTI_ClearFlag
 250              		.thumb
 251              		.thumb_func
 252              		.type	EXTI_ClearFlag, %function
 253              	EXTI_ClearFlag:
 254              	.LFB121:
 255              		.cfi_startproc
 256              		@ args = 0, pretend = 0, frame = 0
 257              		@ frame_needed = 0, uses_anonymous_args = 0
 258              		@ link register save eliminated.
 259 0000 014B     		ldr	r3, .L19
 260 0002 5861     		str	r0, [r3, #20]
 261 0004 7047     		bx	lr
 262              	.L20:
 263 0006 00BF     		.align	2
 264              	.L19:
 265 0008 003C0140 		.word	1073822720
 266              		.cfi_endproc
 267              	.LFE121:
 268              		.size	EXTI_ClearFlag, .-EXTI_ClearFlag
 269              		.section	.text.EXTI_GetITStatus,"ax",%progbits
 270              		.align	2
 271              		.p2align 4,,15
 272              		.global	EXTI_GetITStatus
 273              		.thumb
 274              		.thumb_func
 275              		.type	EXTI_GetITStatus, %function
 276              	EXTI_GetITStatus:
 277              	.LFB118:
 278              		.loc 1 269 0
 279              		.cfi_startproc
 280              		@ args = 0, pretend = 0, frame = 0
 281              		@ frame_needed = 0, uses_anonymous_args = 0
 282              		@ link register save eliminated.
 283              	.LVL11:
 284              		.loc 1 274 0
 285 0000 034B     		ldr	r3, .L22
ARM GAS  C:\Users\IDONNO~1\AppData\Local\Temp\ccaUJebn.s 			page 6


 286 0002 5B69     		ldr	r3, [r3, #20]
 287              	.LVL12:
 288              		.loc 1 282 0
 289 0004 0342     		tst	r3, r0
 290              		.loc 1 284 0
 291 0006 14BF     		ite	ne
 292 0008 0120     		movne	r0, #1
 293              	.LVL13:
 294 000a 0020     		moveq	r0, #0
 295 000c 7047     		bx	lr
 296              	.L23:
 297 000e 00BF     		.align	2
 298              	.L22:
 299 0010 003C0140 		.word	1073822720
 300              		.cfi_endproc
 301              	.LFE118:
 302              		.size	EXTI_GetITStatus, .-EXTI_GetITStatus
 303              		.section	.text.EXTI_GetFlagStatus,"ax",%progbits
 304              		.align	2
 305              		.p2align 4,,15
 306              		.global	EXTI_GetFlagStatus
 307              		.thumb
 308              		.thumb_func
 309              		.type	EXTI_GetFlagStatus, %function
 310              	EXTI_GetFlagStatus:
 311              	.LFB123:
 312              		.cfi_startproc
 313              		@ args = 0, pretend = 0, frame = 0
 314              		@ frame_needed = 0, uses_anonymous_args = 0
 315              		@ link register save eliminated.
 316 0000 FFF7FEBF 		b	EXTI_GetITStatus
 317              		.cfi_endproc
 318              	.LFE123:
 319              		.size	EXTI_GetFlagStatus, .-EXTI_GetFlagStatus
 320              		.section	.text.EXTI_ClearITPendingBit,"ax",%progbits
 321              		.align	2
 322              		.p2align 4,,15
 323              		.global	EXTI_ClearITPendingBit
 324              		.thumb
 325              		.thumb_func
 326              		.type	EXTI_ClearITPendingBit, %function
 327              	EXTI_ClearITPendingBit:
 328              	.LFB119:
 329              		.loc 1 293 0
 330              		.cfi_startproc
 331              		@ args = 0, pretend = 0, frame = 0
 332              		@ frame_needed = 0, uses_anonymous_args = 0
 333              		@ link register save eliminated.
 334              	.LVL14:
 335              		.loc 1 297 0
 336 0000 014B     		ldr	r3, .L26
 337 0002 5861     		str	r0, [r3, #20]
 338 0004 7047     		bx	lr
 339              	.L27:
 340 0006 00BF     		.align	2
 341              	.L26:
 342 0008 003C0140 		.word	1073822720
ARM GAS  C:\Users\IDONNO~1\AppData\Local\Temp\ccaUJebn.s 			page 7


 343              		.cfi_endproc
 344              	.LFE119:
 345              		.size	EXTI_ClearITPendingBit, .-EXTI_ClearITPendingBit
 346              		.text
 347              	.Letext0:
 348              		.file 2 "c:\\program files (x86)\\gnu tools arm embedded\\5.2 2015q4\\arm-none-eabi\\include\\mach
 349              		.file 3 "c:\\program files (x86)\\gnu tools arm embedded\\5.2 2015q4\\arm-none-eabi\\include\\sys\
 350              		.file 4 "lib/ChibiOS_3.0.2/os/ext/CMSIS/ST/stm32f407xx.h"
 351              		.file 5 "lib/ChibiOS_3.0.2/os/ext/CMSIS/ST/stm32f4xx.h"
 352              		.file 6 "lib/ChibiOS_3.0.2/ext/stdperiph_stm32f4/inc/stm32f4xx_exti.h"
 353              		.file 7 "lib/ChibiOS_3.0.2/os/ext/CMSIS/include/core_cm4.h"