ARM GAS  C:\Users\ADMINI~1\AppData\Local\Temp\ccKBAR7J.s 			page 1


   1              		.syntax unified
   2              		.cpu cortex-m4
   3              		.eabi_attribute 27, 1
   4              		.eabi_attribute 28, 1
   5              		.fpu fpv4-sp-d16
   6              		.eabi_attribute 20, 1
   7              		.eabi_attribute 21, 1
   8              		.eabi_attribute 23, 3
   9              		.eabi_attribute 24, 1
  10              		.eabi_attribute 25, 1
  11              		.eabi_attribute 26, 1
  12              		.eabi_attribute 30, 2
  13              		.eabi_attribute 34, 1
  14              		.eabi_attribute 18, 4
  15              		.thumb
  16              		.syntax unified
  17              		.file	"timeout.c"
  18              		.text
  19              	.Ltext0:
  20              		.cfi_sections	.debug_frame
  21              		.section	.text.timeout_thread,"ax",%progbits
  22              		.align	2
  23              		.p2align 4,,15
  24              		.thumb
  25              		.thumb_func
  26              		.type	timeout_thread, %function
  27              	timeout_thread:
  28              	.LFB260:
  29              		.file 1 "src/core/timeout.c"
  30              		.loc 1 59 0
  31              		.cfi_startproc
  32              		@ Volatile: function does not return.
  33              		@ args = 0, pretend = 0, frame = 0
  34              		@ frame_needed = 0, uses_anonymous_args = 0
  35              	.LVL0:
  36 0000 80B5     		push	{r7, lr}
  37              		.cfi_def_cfa_offset 8
  38              		.cfi_offset 7, -8
  39              		.cfi_offset 14, -4
  40              	.LBB12:
  41              	.LBB13:
  42              		.file 2 "lib/ChibiOS_3.0.2/os/rt/include/chregistry.h"
  43              		.loc 2 135 0
  44 0002 144F     		ldr	r7, .L11
  45 0004 144C     		ldr	r4, .L11+4
  46 0006 BB69     		ldr	r3, [r7, #24]
  47 0008 144A     		ldr	r2, .L11+8
  48 000a DFF858A0 		ldr	r10, .L11+16
  49 000e 144D     		ldr	r5, .L11+12
  50              	.LBE13:
  51              	.LBE12:
  52              		.loc 1 66 0
  53 0010 DFF85490 		ldr	r9, .L11+20
  54              	.LBB15:
  55              	.LBB14:
  56              		.loc 2 135 0
  57 0014 9A61     		str	r2, [r3, #24]
ARM GAS  C:\Users\ADMINI~1\AppData\Local\Temp\ccKBAR7J.s 			page 2


  58              	.LBE14:
  59              	.LBE15:
  60              		.loc 1 66 0
  61 0016 A046     		mov	r8, r4
  62              		.loc 1 72 0
  63 0018 0026     		movs	r6, #0
  64 001a 14E0     		b	.L4
  65              	.LVL1:
  66              	.L10:
  67              		.loc 1 66 0 discriminator 1
  68 001c DAF80010 		ldr	r1, [r10]
  69              	.LVL2:
  70              	.LBB16:
  71              	.LBB17:
  72              	.LBB18:
  73              	.LBB19:
  74              		.file 3 "lib/ChibiOS_3.0.2/os/rt/include/chvt.h"
  75              		.loc 3 231 0 discriminator 1
  76 0020 BA6A     		ldr	r2, [r7, #40]
  77              	.LVL3:
  78              	.LBE19:
  79              	.LBE18:
  80              	.LBE17:
  81              	.LBE16:
  82              		.loc 1 66 0 discriminator 1
  83 0022 D8F80000 		ldr	r0, [r8]
  84 0026 03FB00F3 		mul	r3, r3, r0
  85 002a 03F2E733 		addw	r3, r3, #999
  86 002e 521A     		subs	r2, r2, r1
  87 0030 A9FB0313 		umull	r1, r3, r9, r3
  88 0034 B2EB931F 		cmp	r2, r3, lsr #6
  89              		.loc 1 68 0 discriminator 1
  90 0038 4FF00103 		mov	r3, #1
  91              		.loc 1 66 0 discriminator 1
  92 003c 08D9     		bls	.L2
  93              		.loc 1 68 0
  94 003e 2B70     		strb	r3, [r5]
  95              	.L3:
  96              		.loc 1 75 0
  97 0040 6420     		movs	r0, #100
  98 0042 FFF7FEFF 		bl	chThdSleep
  99              	.LVL4:
 100              	.L4:
 101              		.loc 1 66 0
 102 0046 2268     		ldr	r2, [r4]
 103 0048 42F21073 		movw	r3, #10000
 104 004c 002A     		cmp	r2, #0
 105 004e E5D1     		bne	.L10
 106              	.L2:
 107              		.loc 1 72 0
 108 0050 2E70     		strb	r6, [r5]
 109 0052 F5E7     		b	.L3
 110              	.L12:
 111              		.align	2
 112              	.L11:
 113 0054 00000000 		.word	ch
 114 0058 00000000 		.word	.LANCHOR0
ARM GAS  C:\Users\ADMINI~1\AppData\Local\Temp\ccKBAR7J.s 			page 3


 115 005c 00000000 		.word	.LC0
 116 0060 00000000 		.word	.LANCHOR2
 117 0064 00000000 		.word	.LANCHOR1
 118 0068 D34D6210 		.word	274877907
 119              		.cfi_endproc
 120              	.LFE260:
 121              		.size	timeout_thread, .-timeout_thread
 122              		.section	.text.timeout_configure,"ax",%progbits
 123              		.align	2
 124              		.p2align 4,,15
 125              		.global	timeout_configure
 126              		.thumb
 127              		.thumb_func
 128              		.type	timeout_configure, %function
 129              	timeout_configure:
 130              	.LFB256:
 131              		.loc 1 42 0
 132              		.cfi_startproc
 133              		@ args = 0, pretend = 0, frame = 0
 134              		@ frame_needed = 0, uses_anonymous_args = 0
 135              		@ link register save eliminated.
 136              	.LVL5:
 137              		.loc 1 43 0
 138 0000 014B     		ldr	r3, .L14
 139 0002 1860     		str	r0, [r3]
 140 0004 7047     		bx	lr
 141              	.L15:
 142 0006 00BF     		.align	2
 143              	.L14:
 144 0008 00000000 		.word	.LANCHOR0
 145              		.cfi_endproc
 146              	.LFE256:
 147              		.size	timeout_configure, .-timeout_configure
 148              		.section	.text.timeout_reset,"ax",%progbits
 149              		.align	2
 150              		.p2align 4,,15
 151              		.global	timeout_reset
 152              		.thumb
 153              		.thumb_func
 154              		.type	timeout_reset, %function
 155              	timeout_reset:
 156              	.LFB257:
 157              		.loc 1 46 0
 158              		.cfi_startproc
 159              		@ args = 0, pretend = 0, frame = 0
 160              		@ frame_needed = 0, uses_anonymous_args = 0
 161              		@ link register save eliminated.
 162              	.LBB20:
 163              	.LBB21:
 164              		.loc 3 231 0
 165 0000 024A     		ldr	r2, .L17
 166              	.LBE21:
 167              	.LBE20:
 168              		.loc 1 47 0
 169 0002 034B     		ldr	r3, .L17+4
 170              	.LBB23:
 171              	.LBB22:
ARM GAS  C:\Users\ADMINI~1\AppData\Local\Temp\ccKBAR7J.s 			page 4


 172              		.loc 3 231 0
 173 0004 926A     		ldr	r2, [r2, #40]
 174              	.LBE22:
 175              	.LBE23:
 176              		.loc 1 47 0
 177 0006 1A60     		str	r2, [r3]
 178 0008 7047     		bx	lr
 179              	.L18:
 180 000a 00BF     		.align	2
 181              	.L17:
 182 000c 00000000 		.word	ch
 183 0010 00000000 		.word	.LANCHOR1
 184              		.cfi_endproc
 185              	.LFE257:
 186              		.size	timeout_reset, .-timeout_reset
 187              		.section	.text.timeout_has_timeout,"ax",%progbits
 188              		.align	2
 189              		.p2align 4,,15
 190              		.global	timeout_has_timeout
 191              		.thumb
 192              		.thumb_func
 193              		.type	timeout_has_timeout, %function
 194              	timeout_has_timeout:
 195              	.LFB258:
 196              		.loc 1 50 0
 197              		.cfi_startproc
 198              		@ args = 0, pretend = 0, frame = 0
 199              		@ frame_needed = 0, uses_anonymous_args = 0
 200              		@ link register save eliminated.
 201              		.loc 1 51 0
 202 0000 014B     		ldr	r3, .L20
 203 0002 1878     		ldrb	r0, [r3]	@ zero_extendqisi2
 204              		.loc 1 52 0
 205 0004 7047     		bx	lr
 206              	.L21:
 207 0006 00BF     		.align	2
 208              	.L20:
 209 0008 00000000 		.word	.LANCHOR2
 210              		.cfi_endproc
 211              	.LFE258:
 212              		.size	timeout_has_timeout, .-timeout_has_timeout
 213              		.section	.text.timeout_get_timeout_msec,"ax",%progbits
 214              		.align	2
 215              		.p2align 4,,15
 216              		.global	timeout_get_timeout_msec
 217              		.thumb
 218              		.thumb_func
 219              		.type	timeout_get_timeout_msec, %function
 220              	timeout_get_timeout_msec:
 221              	.LFB259:
 222              		.loc 1 54 0
 223              		.cfi_startproc
 224              		@ args = 0, pretend = 0, frame = 0
 225              		@ frame_needed = 0, uses_anonymous_args = 0
 226              		@ link register save eliminated.
 227              		.loc 1 55 0
 228 0000 014B     		ldr	r3, .L23
ARM GAS  C:\Users\ADMINI~1\AppData\Local\Temp\ccKBAR7J.s 			page 5


 229 0002 1868     		ldr	r0, [r3]
 230              		.loc 1 56 0
 231 0004 7047     		bx	lr
 232              	.L24:
 233 0006 00BF     		.align	2
 234              	.L23:
 235 0008 00000000 		.word	.LANCHOR0
 236              		.cfi_endproc
 237              	.LFE259:
 238              		.size	timeout_get_timeout_msec, .-timeout_get_timeout_msec
 239              		.section	.text.timeout_init,"ax",%progbits
 240              		.align	2
 241              		.p2align 4,,15
 242              		.global	timeout_init
 243              		.thumb
 244              		.thumb_func
 245              		.type	timeout_init, %function
 246              	timeout_init:
 247              	.LFB261:
 248              		.loc 1 80 0
 249              		.cfi_startproc
 250              		@ args = 0, pretend = 0, frame = 0
 251              		@ frame_needed = 0, uses_anonymous_args = 0
 252 0000 F0B5     		push	{r4, r5, r6, r7, lr}
 253              		.cfi_def_cfa_offset 20
 254              		.cfi_offset 4, -20
 255              		.cfi_offset 5, -16
 256              		.cfi_offset 6, -12
 257              		.cfi_offset 7, -8
 258              		.cfi_offset 14, -4
 259              		.loc 1 81 0
 260 0002 0A49     		ldr	r1, .L27
 261              		.loc 1 82 0
 262 0004 0A4E     		ldr	r6, .L27+4
 263              		.loc 1 83 0
 264 0006 0B4D     		ldr	r5, .L27+8
 265              		.loc 1 85 0
 266 0008 0B4B     		ldr	r3, .L27+12
 267 000a 0C48     		ldr	r0, .L27+16
 268              		.loc 1 80 0
 269 000c 83B0     		sub	sp, sp, #12
 270              		.cfi_def_cfa_offset 32
 271              		.loc 1 82 0
 272 000e 0024     		movs	r4, #0
 273              		.loc 1 81 0
 274 0010 4FF47A77 		mov	r7, #1000
 275              		.loc 1 85 0
 276 0014 0094     		str	r4, [sp]
 277 0016 4022     		movs	r2, #64
 278              		.loc 1 81 0
 279 0018 0F60     		str	r7, [r1]
 280              		.loc 1 85 0
 281 001a 4FF46671 		mov	r1, #920
 282              		.loc 1 82 0
 283 001e 3460     		str	r4, [r6]
 284              		.loc 1 83 0
 285 0020 2C70     		strb	r4, [r5]
ARM GAS  C:\Users\ADMINI~1\AppData\Local\Temp\ccKBAR7J.s 			page 6


 286              		.loc 1 85 0
 287 0022 FFF7FEFF 		bl	chThdCreateStatic
 288              	.LVL6:
 289              		.loc 1 86 0
 290 0026 03B0     		add	sp, sp, #12
 291              		.cfi_def_cfa_offset 20
 292              		@ sp needed
 293 0028 F0BD     		pop	{r4, r5, r6, r7, pc}
 294              	.L28:
 295 002a 00BF     		.align	2
 296              	.L27:
 297 002c 00000000 		.word	.LANCHOR0
 298 0030 00000000 		.word	.LANCHOR1
 299 0034 00000000 		.word	.LANCHOR2
 300 0038 00000000 		.word	timeout_thread
 301 003c 00000000 		.word	.LANCHOR3
 302              		.cfi_endproc
 303              	.LFE261:
 304              		.size	timeout_init, .-timeout_init
 305              		.section	.bss.timeout_thread_wa,"aw",%nobits
 306              		.align	3
 307              		.set	.LANCHOR3,. + 0
 308              		.type	timeout_thread_wa, %object
 309              		.size	timeout_thread_wa, 920
 310              	timeout_thread_wa:
 311 0000 00000000 		.space	920
 311      00000000 
 311      00000000 
 311      00000000 
 311      00000000 
 312              		.section	.bss.last_update_time,"aw",%nobits
 313              		.align	2
 314              		.set	.LANCHOR1,. + 0
 315              		.type	last_update_time, %object
 316              		.size	last_update_time, 4
 317              	last_update_time:
 318 0000 00000000 		.space	4
 319              		.section	.rodata.str1.4,"aMS",%progbits,1
 320              		.align	2
 321              	.LC0:
 322 0000 54696D65 		.ascii	"Timeout\000"
 322      6F757400 
 323              		.section	.bss.has_timeout,"aw",%nobits
 324              		.set	.LANCHOR2,. + 0
 325              		.type	has_timeout, %object
 326              		.size	has_timeout, 1
 327              	has_timeout:
 328 0000 00       		.space	1
 329              		.section	.bss.timeout_msec,"aw",%nobits
 330              		.align	2
 331              		.set	.LANCHOR0,. + 0
 332              		.type	timeout_msec, %object
 333              		.size	timeout_msec, 4
 334              	timeout_msec:
 335 0000 00000000 		.space	4
 336              		.text
 337              	.Letext0:
ARM GAS  C:\Users\ADMINI~1\AppData\Local\Temp\ccKBAR7J.s 			page 7


 338              		.file 4 "c:\\program files (x86)\\gnu tools arm embedded\\5.3 2016q1\\lib\\gcc\\arm-none-eabi\\5.3
 339              		.file 5 "c:\\program files (x86)\\gnu tools arm embedded\\5.3 2016q1\\arm-none-eabi\\include\\mach
 340              		.file 6 "c:\\program files (x86)\\gnu tools arm embedded\\5.3 2016q1\\arm-none-eabi\\include\\sys\
 341              		.file 7 "lib/ChibiOS_3.0.2/os/rt/ports/ARMCMx/compilers/GCC/chtypes.h"
 342              		.file 8 "lib/ChibiOS_3.0.2/os/rt/include/chsystypes.h"
 343              		.file 9 "lib/ChibiOS_3.0.2/os/rt/include/chschd.h"
 344              		.file 10 "lib/ChibiOS_3.0.2/os/rt/ports/ARMCMx/chcore.h"
 345              		.file 11 "lib/ChibiOS_3.0.2/os/rt/ports/ARMCMx/chcore_v7m.h"
 346              		.file 12 "lib/ChibiOS_3.0.2/os/rt/include/chtm.h"
 347              		.file 13 "lib/ChibiOS_3.0.2/os/rt/include/chsem.h"
 348              		.file 14 "lib/ChibiOS_3.0.2/os/rt/include/chmtx.h"
 349              		.file 15 "lib/ChibiOS_3.0.2/os/rt/include/chthreads.h"
 350              		.file 16 "lib/ChibiOS_3.0.2/os/ext/CMSIS/include/core_cm4.h"