ARM GAS  C:\Users\IDONNO~1.SON\AppData\Local\Temp\ccmr4iGZ.s 			page 1


   1              		.syntax unified
   2              		.cpu cortex-m4
   3              		.eabi_attribute 27, 1
   4              		.eabi_attribute 28, 1
   5              		.fpu fpv4-sp-d16
   6              		.eabi_attribute 20, 1
   7              		.eabi_attribute 21, 1
   8              		.eabi_attribute 23, 3
   9              		.eabi_attribute 24, 1
  10              		.eabi_attribute 25, 1
  11              		.eabi_attribute 26, 1
  12              		.eabi_attribute 30, 2
  13              		.eabi_attribute 34, 1
  14              		.eabi_attribute 18, 4
  15              		.thumb
  16              		.syntax unified
  17              		.file	"uart3_print.c"
  18              		.text
  19              	.Ltext0:
  20              		.cfi_sections	.debug_frame
  21              		.section	.text.chprintf,"ax",%progbits
  22              		.align	2
  23              		.p2align 4,,15
  24              		.thumb
  25              		.thumb_func
  26              		.type	chprintf, %function
  27              	chprintf:
  28              	.LFB257:
  29              		.file 1 "lib/ChibiOS_3.0.2/os/hal/lib/streams/chprintf.h"
  30              		.loc 1 69 0
  31              		.cfi_startproc
  32              		@ args = 4, pretend = 12, frame = 8
  33              		@ frame_needed = 0, uses_anonymous_args = 1
  34              	.LVL0:
  35 0000 0EB4     		push	{r1, r2, r3}
  36              		.cfi_def_cfa_offset 12
  37              		.cfi_offset 1, -12
  38              		.cfi_offset 2, -8
  39              		.cfi_offset 3, -4
  40 0002 00B5     		push	{lr}
  41              		.cfi_def_cfa_offset 16
  42              		.cfi_offset 14, -16
  43 0004 82B0     		sub	sp, sp, #8
  44              		.cfi_def_cfa_offset 24
  45              		.loc 1 69 0
  46 0006 03AA     		add	r2, sp, #12
  47 0008 52F8041B 		ldr	r1, [r2], #4
  48              		.loc 1 73 0
  49 000c 0192     		str	r2, [sp, #4]
  50              		.loc 1 74 0
  51 000e FFF7FEFF 		bl	chvprintf
  52              	.LVL1:
  53              		.loc 1 78 0
  54 0012 02B0     		add	sp, sp, #8
  55              		.cfi_def_cfa_offset 16
  56              		@ sp needed
  57 0014 5DF804EB 		ldr	lr, [sp], #4
ARM GAS  C:\Users\IDONNO~1.SON\AppData\Local\Temp\ccmr4iGZ.s 			page 2


  58              		.cfi_restore 14
  59              		.cfi_def_cfa_offset 12
  60 0018 03B0     		add	sp, sp, #12
  61              		.cfi_restore 3
  62              		.cfi_restore 2
  63              		.cfi_restore 1
  64              		.cfi_def_cfa_offset 0
  65 001a 7047     		bx	lr
  66              		.cfi_endproc
  67              	.LFE257:
  68              		.size	chprintf, .-chprintf
  69              		.section	.text.Uart3_print_init,"ax",%progbits
  70              		.align	2
  71              		.p2align 4,,15
  72              		.global	Uart3_print_init
  73              		.thumb
  74              		.thumb_func
  75              		.type	Uart3_print_init, %function
  76              	Uart3_print_init:
  77              	.LFB258:
  78              		.file 2 "src/core/uart3_print.c"
  79              		.loc 2 31 0
  80              		.cfi_startproc
  81              		@ args = 0, pretend = 0, frame = 0
  82              		@ frame_needed = 0, uses_anonymous_args = 0
  83 0000 10B5     		push	{r4, lr}
  84              		.cfi_def_cfa_offset 8
  85              		.cfi_offset 4, -8
  86              		.cfi_offset 14, -4
  87              		.loc 2 40 0
  88 0002 0A4C     		ldr	r4, .L5
  89              		.loc 2 39 0
  90 0004 0A49     		ldr	r1, .L5+4
  91 0006 0B48     		ldr	r0, .L5+8
  92 0008 FFF7FEFF 		bl	sdStart
  93              	.LVL2:
  94              		.loc 2 40 0
  95 000c 2046     		mov	r0, r4
  96 000e 40F28232 		movw	r2, #898
  97 0012 4FF48061 		mov	r1, #1024
  98 0016 FFF7FEFF 		bl	_pal_lld_setgroupmode
  99              	.LVL3:
 100              		.loc 2 41 0
 101 001a 2046     		mov	r0, r4
 102 001c 40F28232 		movw	r2, #898
 103 0020 4FF40061 		mov	r1, #2048
 104              		.loc 2 43 0
 105 0024 BDE81040 		pop	{r4, lr}
 106              		.cfi_restore 14
 107              		.cfi_restore 4
 108              		.cfi_def_cfa_offset 0
 109              		.loc 2 41 0
 110 0028 FFF7FEBF 		b	_pal_lld_setgroupmode
 111              	.LVL4:
 112              	.L6:
 113              		.align	2
 114              	.L5:
ARM GAS  C:\Users\IDONNO~1.SON\AppData\Local\Temp\ccmr4iGZ.s 			page 3


 115 002c 00080240 		.word	1073874944
 116 0030 00000000 		.word	.LANCHOR0
 117 0034 00000000 		.word	SD3
 118              		.cfi_endproc
 119              	.LFE258:
 120              		.size	Uart3_print_init, .-Uart3_print_init
 121              		.section	.text.Uart3_print,"ax",%progbits
 122              		.align	2
 123              		.p2align 4,,15
 124              		.global	Uart3_print
 125              		.thumb
 126              		.thumb_func
 127              		.type	Uart3_print, %function
 128              	Uart3_print:
 129              	.LFB259:
 130              		.loc 2 48 0
 131              		.cfi_startproc
 132              		@ args = 0, pretend = 0, frame = 0
 133              		@ frame_needed = 0, uses_anonymous_args = 0
 134              	.LVL5:
 135              		.loc 2 49 0
 136 0000 0178     		ldrb	r1, [r0]	@ zero_extendqisi2
 137 0002 59B1     		cbz	r1, .L13
 138              		.loc 2 48 0 discriminator 2
 139 0004 38B5     		push	{r3, r4, r5, lr}
 140              		.cfi_def_cfa_offset 16
 141              		.cfi_offset 3, -16
 142              		.cfi_offset 4, -12
 143              		.cfi_offset 5, -8
 144              		.cfi_offset 14, -4
 145 0006 064D     		ldr	r5, .L15
 146 0008 0446     		mov	r4, r0
 147              	.LVL6:
 148              	.L9:
 149              		.loc 2 49 0 discriminator 2
 150 000a 2B68     		ldr	r3, [r5]
 151 000c 0448     		ldr	r0, .L15
 152 000e 9B68     		ldr	r3, [r3, #8]
 153 0010 9847     		blx	r3
 154              	.LVL7:
 155 0012 14F8011F 		ldrb	r1, [r4, #1]!	@ zero_extendqisi2
 156              	.LVL8:
 157 0016 0029     		cmp	r1, #0
 158 0018 F7D1     		bne	.L9
 159 001a 38BD     		pop	{r3, r4, r5, pc}
 160              	.LVL9:
 161              	.L13:
 162              		.cfi_def_cfa_offset 0
 163              		.cfi_restore 3
 164              		.cfi_restore 4
 165              		.cfi_restore 5
 166              		.cfi_restore 14
 167 001c 7047     		bx	lr
 168              	.L16:
 169 001e 00BF     		.align	2
 170              	.L15:
 171 0020 00000000 		.word	SD3
ARM GAS  C:\Users\IDONNO~1.SON\AppData\Local\Temp\ccmr4iGZ.s 			page 4


 172              		.cfi_endproc
 173              	.LFE259:
 174              		.size	Uart3_print, .-Uart3_print
 175              		.section	.text.Uart3_println,"ax",%progbits
 176              		.align	2
 177              		.p2align 4,,15
 178              		.global	Uart3_println
 179              		.thumb
 180              		.thumb_func
 181              		.type	Uart3_println, %function
 182              	Uart3_println:
 183              	.LFB260:
 184              		.loc 2 53 0
 185              		.cfi_startproc
 186              		@ args = 0, pretend = 0, frame = 0
 187              		@ frame_needed = 0, uses_anonymous_args = 0
 188              	.LVL10:
 189 0000 70B5     		push	{r4, r5, r6, lr}
 190              		.cfi_def_cfa_offset 16
 191              		.cfi_offset 4, -16
 192              		.cfi_offset 5, -12
 193              		.cfi_offset 6, -8
 194              		.cfi_offset 14, -4
 195              		.loc 2 54 0
 196 0002 0178     		ldrb	r1, [r0]	@ zero_extendqisi2
 197 0004 89B1     		cbz	r1, .L23
 198 0006 0A4D     		ldr	r5, .L24
 199 0008 0446     		mov	r4, r0
 200              	.LVL11:
 201              	.L19:
 202              		.loc 2 54 0 is_stmt 0 discriminator 2
 203 000a 2B68     		ldr	r3, [r5]
 204 000c 0848     		ldr	r0, .L24
 205 000e 9B68     		ldr	r3, [r3, #8]
 206 0010 9847     		blx	r3
 207              	.LVL12:
 208 0012 14F8011F 		ldrb	r1, [r4, #1]!	@ zero_extendqisi2
 209              	.LVL13:
 210 0016 0029     		cmp	r1, #0
 211 0018 F7D1     		bne	.L19
 212              	.LVL14:
 213              	.L20:
 214              		.loc 2 55 0 is_stmt 1
 215 001a 2B68     		ldr	r3, [r5]
 216 001c 0549     		ldr	r1, .L24+4
 217 001e 1B68     		ldr	r3, [r3]
 218 0020 0348     		ldr	r0, .L24
 219 0022 0222     		movs	r2, #2
 220              		.loc 2 56 0
 221 0024 BDE87040 		pop	{r4, r5, r6, lr}
 222              		.cfi_remember_state
 223              		.cfi_restore 14
 224              		.cfi_restore 6
 225              		.cfi_restore 5
 226              		.cfi_restore 4
 227              		.cfi_def_cfa_offset 0
 228              		.loc 2 55 0
ARM GAS  C:\Users\IDONNO~1.SON\AppData\Local\Temp\ccmr4iGZ.s 			page 5


 229 0028 1847     		bx	r3
 230              	.LVL15:
 231              	.L23:
 232              		.cfi_restore_state
 233 002a 014D     		ldr	r5, .L24
 234 002c F5E7     		b	.L20
 235              	.L25:
 236 002e 00BF     		.align	2
 237              	.L24:
 238 0030 00000000 		.word	SD3
 239 0034 00000000 		.word	.LC0
 240              		.cfi_endproc
 241              	.LFE260:
 242              		.size	Uart3_println, .-Uart3_println
 243              		.section	.text.Uart3_printn,"ax",%progbits
 244              		.align	2
 245              		.p2align 4,,15
 246              		.global	Uart3_printn
 247              		.thumb
 248              		.thumb_func
 249              		.type	Uart3_printn, %function
 250              	Uart3_printn:
 251              	.LFB261:
 252              		.loc 2 59 0
 253              		.cfi_startproc
 254              		@ args = 0, pretend = 0, frame = 16
 255              		@ frame_needed = 0, uses_anonymous_args = 0
 256              	.LVL16:
 257              		.loc 2 62 0
 258 0000 10B3     		cbz	r0, .L34
 259              		.loc 2 59 0
 260 0002 70B5     		push	{r4, r5, r6, lr}
 261              		.cfi_def_cfa_offset 16
 262              		.cfi_offset 4, -16
 263              		.cfi_offset 5, -12
 264              		.cfi_offset 6, -8
 265              		.cfi_offset 14, -4
 266              		.loc 2 66 0
 267 0004 134A     		ldr	r2, .L36
 268              		.loc 2 59 0
 269 0006 84B0     		sub	sp, sp, #16
 270              		.cfi_def_cfa_offset 32
 271 0008 6D46     		mov	r5, sp
 272 000a 6C46     		mov	r4, sp
 273              	.L28:
 274              	.LVL17:
 275              		.loc 2 66 0
 276 000c A2FB0013 		umull	r1, r3, r2, r0
 277 0010 DB08     		lsrs	r3, r3, #3
 278 0012 03EB8301 		add	r1, r3, r3, lsl #2
 279 0016 A0EB4100 		sub	r0, r0, r1, lsl #1
 280              	.LVL18:
 281 001a 00F13001 		add	r1, r0, #48
 282 001e C9B2     		uxtb	r1, r1
 283 0020 04F8011B 		strb	r1, [r4], #1
 284              	.LVL19:
 285              		.loc 2 65 0
ARM GAS  C:\Users\IDONNO~1.SON\AppData\Local\Temp\ccmr4iGZ.s 			page 6


 286 0024 1846     		mov	r0, r3
 287 0026 002B     		cmp	r3, #0
 288 0028 F0D1     		bne	.L28
 289              		.loc 2 67 0
 290 002a AC42     		cmp	r4, r5
 291 002c 0AD9     		bls	.L26
 292 002e 0A4E     		ldr	r6, .L36+4
 293 0030 013C     		subs	r4, r4, #1
 294              	.LVL20:
 295 0032 01E0     		b	.L30
 296              	.LVL21:
 297              	.L35:
 298 0034 14F8011D 		ldrb	r1, [r4, #-1]!	@ zero_extendqisi2
 299              	.LVL22:
 300              	.L30:
 301              		.loc 2 68 0
 302 0038 3368     		ldr	r3, [r6]
 303 003a 0748     		ldr	r0, .L36+4
 304 003c 9B68     		ldr	r3, [r3, #8]
 305 003e 9847     		blx	r3
 306              	.LVL23:
 307              		.loc 2 67 0
 308 0040 AC42     		cmp	r4, r5
 309 0042 F7D1     		bne	.L35
 310              	.LVL24:
 311              	.L26:
 312              		.loc 2 70 0
 313 0044 04B0     		add	sp, sp, #16
 314              		.cfi_def_cfa_offset 16
 315              		@ sp needed
 316 0046 70BD     		pop	{r4, r5, r6, pc}
 317              	.LVL25:
 318              	.L34:
 319              		.cfi_def_cfa_offset 0
 320              		.cfi_restore 4
 321              		.cfi_restore 5
 322              		.cfi_restore 6
 323              		.cfi_restore 14
 324              		.loc 2 62 0 discriminator 1
 325 0048 0348     		ldr	r0, .L36+4
 326              	.LVL26:
 327 004a 0368     		ldr	r3, [r0]
 328 004c 3021     		movs	r1, #48
 329 004e 9B68     		ldr	r3, [r3, #8]
 330 0050 1847     		bx	r3
 331              	.LVL27:
 332              	.L37:
 333 0052 00BF     		.align	2
 334              	.L36:
 335 0054 CDCCCCCC 		.word	-858993459
 336 0058 00000000 		.word	SD3
 337              		.cfi_endproc
 338              	.LFE261:
 339              		.size	Uart3_printn, .-Uart3_printn
 340              		.section	.text.Uart3_SendString,"ax",%progbits
 341              		.align	2
 342              		.p2align 4,,15
ARM GAS  C:\Users\IDONNO~1.SON\AppData\Local\Temp\ccmr4iGZ.s 			page 7


 343              		.global	Uart3_SendString
 344              		.thumb
 345              		.thumb_func
 346              		.type	Uart3_SendString, %function
 347              	Uart3_SendString:
 348              	.LFB262:
 349              		.loc 2 73 0
 350              		.cfi_startproc
 351              		@ args = 0, pretend = 0, frame = 0
 352              		@ frame_needed = 0, uses_anonymous_args = 0
 353              	.LVL28:
 354 0000 70B5     		push	{r4, r5, r6, lr}
 355              		.cfi_def_cfa_offset 16
 356              		.cfi_offset 4, -16
 357              		.cfi_offset 5, -12
 358              		.cfi_offset 6, -8
 359              		.cfi_offset 14, -4
 360              		.loc 2 73 0
 361 0002 0E46     		mov	r6, r1
 362              		.loc 2 75 0
 363 0004 0978     		ldrb	r1, [r1]	@ zero_extendqisi2
 364              	.LVL29:
 365 0006 61B1     		cbz	r1, .L38
 366 0008 00F13005 		add	r5, r0, #48
 367 000c 0024     		movs	r4, #0
 368              	.LVL30:
 369              	.L40:
 370              		.loc 2 75 0 is_stmt 0 discriminator 3
 371 000e 0134     		adds	r4, r4, #1
 372              	.LVL31:
 373 0010 E4B2     		uxtb	r4, r4
 374              	.LBB4:
 375              	.LBB5:
 376              		.file 3 "lib/ChibiOS_3.0.2/os/rt/include/chqueues.h"
 377              		.loc 3 426 0 is_stmt 1 discriminator 3
 378 0012 4FF0FF32 		mov	r2, #-1
 379 0016 2846     		mov	r0, r5
 380 0018 FFF7FEFF 		bl	chOQPutTimeout
 381              	.LVL32:
 382              	.LBE5:
 383              	.LBE4:
 384              		.loc 2 75 0 discriminator 3
 385 001c 315D     		ldrb	r1, [r6, r4]	@ zero_extendqisi2
 386 001e 0029     		cmp	r1, #0
 387 0020 F5D1     		bne	.L40
 388              	.LVL33:
 389              	.L38:
 390 0022 70BD     		pop	{r4, r5, r6, pc}
 391              		.cfi_endproc
 392              	.LFE262:
 393              		.size	Uart3_SendString, .-Uart3_SendString
 394              		.section	.text.Uart3_printf,"ax",%progbits
 395              		.align	2
 396              		.p2align 4,,15
 397              		.global	Uart3_printf
 398              		.thumb
 399              		.thumb_func
ARM GAS  C:\Users\IDONNO~1.SON\AppData\Local\Temp\ccmr4iGZ.s 			page 8


 400              		.type	Uart3_printf, %function
 401              	Uart3_printf:
 402              	.LFB263:
 403              		.loc 2 80 0
 404              		.cfi_startproc
 405              		@ args = 4, pretend = 12, frame = 0
 406              		@ frame_needed = 0, uses_anonymous_args = 1
 407              	.LVL34:
 408 0000 0EB4     		push	{r1, r2, r3}
 409              		.cfi_def_cfa_offset 12
 410              		.cfi_offset 1, -12
 411              		.cfi_offset 2, -8
 412              		.cfi_offset 3, -4
 413 0002 00B5     		push	{lr}
 414              		.cfi_def_cfa_offset 16
 415              		.cfi_offset 14, -16
 416              		.loc 2 82 0
 417 0004 0199     		ldr	r1, [sp, #4]
 418 0006 FFF7FEFF 		bl	chprintf
 419              	.LVL35:
 420              		.loc 2 83 0
 421 000a 5DF804EB 		ldr	lr, [sp], #4
 422              		.cfi_restore 14
 423              		.cfi_def_cfa_offset 12
 424 000e 03B0     		add	sp, sp, #12
 425              		.cfi_restore 3
 426              		.cfi_restore 2
 427              		.cfi_restore 1
 428              		.cfi_def_cfa_offset 0
 429 0010 7047     		bx	lr
 430              		.cfi_endproc
 431              	.LFE263:
 432              		.size	Uart3_printf, .-Uart3_printf
 433 0012 00BF     		.section	.rodata.str1.4,"aMS",%progbits,1
 434              		.align	2
 435              	.LC0:
 436 0000 0D0A00   		.ascii	"\015\012\000"
 437              		.section	.data.sd3cfg,"aw",%progbits
 438              		.align	2
 439              		.set	.LANCHOR0,. + 0
 440              		.type	sd3cfg, %object
 441              		.size	sd3cfg, 12
 442              	sd3cfg:
 443 0000 00C20100 		.word	115200
 444 0004 0014     		.short	5120
 445 0006 0040     		.short	16384
 446 0008 0000     		.short	0
 447 000a 0000     		.space	2
 448              		.text
 449              	.Letext0:
 450              		.file 4 "c:\\program files (x86)\\gnu tools arm embedded\\5.4 2016q2\\lib\\gcc\\arm-none-eabi\\5.4
 451              		.file 5 "c:\\program files (x86)\\gnu tools arm embedded\\5.4 2016q2\\arm-none-eabi\\include\\mach
 452              		.file 6 "c:\\program files (x86)\\gnu tools arm embedded\\5.4 2016q2\\arm-none-eabi\\include\\sys\
 453              		.file 7 "lib/ChibiOS_3.0.2/os/rt/ports/ARMCMx/compilers/GCC/chtypes.h"
 454              		.file 8 "lib/ChibiOS_3.0.2/os/rt/include/chsystypes.h"
 455              		.file 9 "lib/ChibiOS_3.0.2/os/rt/include/chschd.h"
 456              		.file 10 "lib/ChibiOS_3.0.2/os/ext/CMSIS/ST/stm32f407xx.h"
ARM GAS  C:\Users\IDONNO~1.SON\AppData\Local\Temp\ccmr4iGZ.s 			page 9


 457              		.file 11 "lib/ChibiOS_3.0.2/os/rt/ports/ARMCMx/chcore.h"
 458              		.file 12 "lib/ChibiOS_3.0.2/os/rt/ports/ARMCMx/chcore_v7m.h"
 459              		.file 13 "lib/ChibiOS_3.0.2/os/rt/include/chtm.h"
 460              		.file 14 "lib/ChibiOS_3.0.2/os/rt/include/chsem.h"
 461              		.file 15 "lib/ChibiOS_3.0.2/os/rt/include/chmtx.h"
 462              		.file 16 "lib/ChibiOS_3.0.2/os/rt/include/chevents.h"
 463              		.file 17 "lib/ChibiOS_3.0.2/os/rt/include/chstreams.h"
 464              		.file 18 "lib/ChibiOS_3.0.2/os/hal/ports/STM32/LLD/GPIOv2/pal_lld.h"
 465              		.file 19 "lib/ChibiOS_3.0.2/os/hal/include/serial.h"
 466              		.file 20 "lib/ChibiOS_3.0.2/os/hal/ports/STM32/LLD/USARTv1/serial_lld.h"
 467              		.file 21 "c:\\program files (x86)\\gnu tools arm embedded\\5.4 2016q2\\lib\\gcc\\arm-none-eabi\\5.
 468              		.file 22 "<built-in>"
 469              		.file 23 "lib/ChibiOS_3.0.2/os/ext/CMSIS/include/core_cm4.h"
 470              		.section	.debug_info,"",%progbits
 471              	.Ldebug_info0:
 472 0000 0A100000 		.4byte	0x100a
 473 0004 0400     		.2byte	0x4
 474 0006 00000000 		.4byte	.Ldebug_abbrev0
 475 000a 04       		.byte	0x4
 476 000b 01       		.uleb128 0x1
 477 000c 60000000 		.4byte	.LASF187
 478 0010 0C       		.byte	0xc
 479 0011 71080000 		.4byte	.LASF188
 480 0015 91010000 		.4byte	.LASF189
 481 0019 00000000 		.4byte	.Ldebug_ranges0+0
 482 001d 00000000 		.4byte	0
 483 0021 00000000 		.4byte	.Ldebug_line0
 484 0025 02       		.uleb128 0x2
 485 0026 04       		.byte	0x4
 486 0027 05       		.byte	0x5
 487 0028 696E7400 		.ascii	"int\000"
 488 002c 03       		.uleb128 0x3
 489 002d 1C000000 		.4byte	.LASF2
 490 0031 04       		.byte	0x4
 491 0032 D8       		.byte	0xd8
 492 0033 37000000 		.4byte	0x37
 493 0037 04       		.uleb128 0x4
 494 0038 04       		.byte	0x4
 495 0039 07       		.byte	0x7
 496 003a 8D030000 		.4byte	.LASF0
 497 003e 04       		.uleb128 0x4
 498 003f 01       		.byte	0x1
 499 0040 06       		.byte	0x6
 500 0041 86020000 		.4byte	.LASF1
 501 0045 03       		.uleb128 0x3
 502 0046 33000000 		.4byte	.LASF3
 503 004a 05       		.byte	0x5
 504 004b 1D       		.byte	0x1d
 505 004c 50000000 		.4byte	0x50
 506 0050 04       		.uleb128 0x4
 507 0051 01       		.byte	0x1
 508 0052 08       		.byte	0x8
 509 0053 DA050000 		.4byte	.LASF4
 510 0057 04       		.uleb128 0x4
 511 0058 02       		.byte	0x2
 512 0059 05       		.byte	0x5
 513 005a 15060000 		.4byte	.LASF5
ARM GAS  C:\Users\IDONNO~1.SON\AppData\Local\Temp\ccmr4iGZ.s 			page 10


 514 005e 03       		.uleb128 0x3
 515 005f 0A070000 		.4byte	.LASF6
 516 0063 05       		.byte	0x5
 517 0064 2B       		.byte	0x2b
 518 0065 69000000 		.4byte	0x69
 519 0069 04       		.uleb128 0x4
 520 006a 02       		.byte	0x2
 521 006b 07       		.byte	0x7
 522 006c F2020000 		.4byte	.LASF7
 523 0070 03       		.uleb128 0x3
 524 0071 F6010000 		.4byte	.LASF8
 525 0075 05       		.byte	0x5
 526 0076 3F       		.byte	0x3f
 527 0077 7B000000 		.4byte	0x7b
 528 007b 04       		.uleb128 0x4
 529 007c 04       		.byte	0x4
 530 007d 05       		.byte	0x5
 531 007e 68080000 		.4byte	.LASF9
 532 0082 03       		.uleb128 0x3
 533 0083 43070000 		.4byte	.LASF10
 534 0087 05       		.byte	0x5
 535 0088 41       		.byte	0x41
 536 0089 8D000000 		.4byte	0x8d
 537 008d 04       		.uleb128 0x4
 538 008e 04       		.byte	0x4
 539 008f 07       		.byte	0x7
 540 0090 E6060000 		.4byte	.LASF11
 541 0094 04       		.uleb128 0x4
 542 0095 08       		.byte	0x8
 543 0096 05       		.byte	0x5
 544 0097 78020000 		.4byte	.LASF12
 545 009b 03       		.uleb128 0x3
 546 009c 70050000 		.4byte	.LASF13
 547 00a0 05       		.byte	0x5
 548 00a1 5B       		.byte	0x5b
 549 00a2 A6000000 		.4byte	0xa6
 550 00a6 04       		.uleb128 0x4
 551 00a7 08       		.byte	0x8
 552 00a8 07       		.byte	0x7
 553 00a9 B5010000 		.4byte	.LASF14
 554 00ad 03       		.uleb128 0x3
 555 00ae 3D080000 		.4byte	.LASF15
 556 00b2 06       		.byte	0x6
 557 00b3 18       		.byte	0x18
 558 00b4 45000000 		.4byte	0x45
 559 00b8 03       		.uleb128 0x3
 560 00b9 A2030000 		.4byte	.LASF16
 561 00bd 06       		.byte	0x6
 562 00be 24       		.byte	0x24
 563 00bf 5E000000 		.4byte	0x5e
 564 00c3 03       		.uleb128 0x3
 565 00c4 D2050000 		.4byte	.LASF17
 566 00c8 06       		.byte	0x6
 567 00c9 2C       		.byte	0x2c
 568 00ca 70000000 		.4byte	0x70
 569 00ce 03       		.uleb128 0x3
 570 00cf E6070000 		.4byte	.LASF18
ARM GAS  C:\Users\IDONNO~1.SON\AppData\Local\Temp\ccmr4iGZ.s 			page 11


 571 00d3 06       		.byte	0x6
 572 00d4 30       		.byte	0x30
 573 00d5 82000000 		.4byte	0x82
 574 00d9 03       		.uleb128 0x3
 575 00da 2A000000 		.4byte	.LASF19
 576 00de 06       		.byte	0x6
 577 00df 3C       		.byte	0x3c
 578 00e0 9B000000 		.4byte	0x9b
 579 00e4 05       		.uleb128 0x5
 580 00e5 C3000000 		.4byte	0xc3
 581 00e9 05       		.uleb128 0x5
 582 00ea CE000000 		.4byte	0xce
 583 00ee 03       		.uleb128 0x3
 584 00ef B3070000 		.4byte	.LASF20
 585 00f3 07       		.byte	0x7
 586 00f4 45       		.byte	0x45
 587 00f5 CE000000 		.4byte	0xce
 588 00f9 03       		.uleb128 0x3
 589 00fa 40040000 		.4byte	.LASF21
 590 00fe 07       		.byte	0x7
 591 00ff 48       		.byte	0x48
 592 0100 AD000000 		.4byte	0xad
 593 0104 03       		.uleb128 0x3
 594 0105 C6020000 		.4byte	.LASF22
 595 0109 07       		.byte	0x7
 596 010a 49       		.byte	0x49
 597 010b AD000000 		.4byte	0xad
 598 010f 03       		.uleb128 0x3
 599 0110 86050000 		.4byte	.LASF23
 600 0114 07       		.byte	0x7
 601 0115 4A       		.byte	0x4a
 602 0116 AD000000 		.4byte	0xad
 603 011a 03       		.uleb128 0x3
 604 011b AC020000 		.4byte	.LASF24
 605 011f 07       		.byte	0x7
 606 0120 4B       		.byte	0x4b
 607 0121 AD000000 		.4byte	0xad
 608 0125 03       		.uleb128 0x3
 609 0126 A5050000 		.4byte	.LASF25
 610 012a 07       		.byte	0x7
 611 012b 4C       		.byte	0x4c
 612 012c CE000000 		.4byte	0xce
 613 0130 03       		.uleb128 0x3
 614 0131 0A040000 		.4byte	.LASF26
 615 0135 07       		.byte	0x7
 616 0136 4D       		.byte	0x4d
 617 0137 C3000000 		.4byte	0xc3
 618 013b 03       		.uleb128 0x3
 619 013c 56040000 		.4byte	.LASF27
 620 0140 07       		.byte	0x7
 621 0141 4F       		.byte	0x4f
 622 0142 CE000000 		.4byte	0xce
 623 0146 03       		.uleb128 0x3
 624 0147 D9070000 		.4byte	.LASF28
 625 014b 07       		.byte	0x7
 626 014c 50       		.byte	0x50
 627 014d CE000000 		.4byte	0xce
ARM GAS  C:\Users\IDONNO~1.SON\AppData\Local\Temp\ccmr4iGZ.s 			page 12


 628 0151 03       		.uleb128 0x3
 629 0152 81030000 		.4byte	.LASF29
 630 0156 07       		.byte	0x7
 631 0157 51       		.byte	0x51
 632 0158 C3000000 		.4byte	0xc3
 633 015c 03       		.uleb128 0x3
 634 015d 25070000 		.4byte	.LASF30
 635 0161 08       		.byte	0x8
 636 0162 33       		.byte	0x33
 637 0163 CE000000 		.4byte	0xce
 638 0167 03       		.uleb128 0x3
 639 0168 15070000 		.4byte	.LASF31
 640 016c 08       		.byte	0x8
 641 016d 3F       		.byte	0x3f
 642 016e 72010000 		.4byte	0x172
 643 0172 06       		.uleb128 0x6
 644 0173 F6030000 		.4byte	.LASF53
 645 0177 48       		.byte	0x48
 646 0178 09       		.byte	0x9
 647 0179 C2       		.byte	0xc2
 648 017a 77020000 		.4byte	0x277
 649 017e 07       		.uleb128 0x7
 650 017f 37060000 		.4byte	.LASF32
 651 0183 09       		.byte	0x9
 652 0184 C3       		.byte	0xc3
 653 0185 82020000 		.4byte	0x282
 654 0189 00       		.byte	0
 655 018a 07       		.uleb128 0x7
 656 018b 9E050000 		.4byte	.LASF33
 657 018f 09       		.byte	0x9
 658 0190 C5       		.byte	0xc5
 659 0191 82020000 		.4byte	0x282
 660 0195 04       		.byte	0x4
 661 0196 07       		.uleb128 0x7
 662 0197 54020000 		.4byte	.LASF34
 663 019b 09       		.byte	0x9
 664 019c C7       		.byte	0xc7
 665 019d 25010000 		.4byte	0x125
 666 01a1 08       		.byte	0x8
 667 01a2 07       		.uleb128 0x7
 668 01a3 A3080000 		.4byte	.LASF35
 669 01a7 09       		.byte	0x9
 670 01a8 C8       		.byte	0xc8
 671 01a9 21050000 		.4byte	0x521
 672 01ad 0C       		.byte	0xc
 673 01ae 07       		.uleb128 0x7
 674 01af E2020000 		.4byte	.LASF36
 675 01b3 09       		.byte	0x9
 676 01b4 CA       		.byte	0xca
 677 01b5 82020000 		.4byte	0x282
 678 01b9 10       		.byte	0x10
 679 01ba 07       		.uleb128 0x7
 680 01bb 21050000 		.4byte	.LASF37
 681 01bf 09       		.byte	0x9
 682 01c0 CB       		.byte	0xcb
 683 01c1 82020000 		.4byte	0x282
 684 01c5 14       		.byte	0x14
ARM GAS  C:\Users\IDONNO~1.SON\AppData\Local\Temp\ccmr4iGZ.s 			page 13


 685 01c6 07       		.uleb128 0x7
 686 01c7 B5050000 		.4byte	.LASF38
 687 01cb 09       		.byte	0x9
 688 01cc D2       		.byte	0xd2
 689 01cd 66070000 		.4byte	0x766
 690 01d1 18       		.byte	0x18
 691 01d2 07       		.uleb128 0x7
 692 01d3 03060000 		.4byte	.LASF39
 693 01d7 09       		.byte	0x9
 694 01d8 DD       		.byte	0xdd
 695 01d9 04010000 		.4byte	0x104
 696 01dd 1C       		.byte	0x1c
 697 01de 07       		.uleb128 0x7
 698 01df 56060000 		.4byte	.LASF40
 699 01e3 09       		.byte	0x9
 700 01e4 E1       		.byte	0xe1
 701 01e5 F9000000 		.4byte	0xf9
 702 01e9 1D       		.byte	0x1d
 703 01ea 07       		.uleb128 0x7
 704 01eb 40050000 		.4byte	.LASF41
 705 01ef 09       		.byte	0x9
 706 01f0 E6       		.byte	0xe6
 707 01f1 0F010000 		.4byte	0x10f
 708 01f5 1E       		.byte	0x1e
 709 01f6 07       		.uleb128 0x7
 710 01f7 1F060000 		.4byte	.LASF42
 711 01fb 09       		.byte	0x9
 712 01fc EC       		.byte	0xec
 713 01fd 1A010000 		.4byte	0x11a
 714 0201 1F       		.byte	0x1f
 715 0202 07       		.uleb128 0x7
 716 0203 BB030000 		.4byte	.LASF43
 717 0207 09       		.byte	0x9
 718 0208 F3       		.byte	0xf3
 719 0209 78070000 		.4byte	0x778
 720 020d 20       		.byte	0x20
 721 020e 08       		.uleb128 0x8
 722 020f 705F7500 		.ascii	"p_u\000"
 723 0213 09       		.byte	0x9
 724 0214 3101     		.2byte	0x131
 725 0216 A1060000 		.4byte	0x6a1
 726 021a 24       		.byte	0x24
 727 021b 09       		.uleb128 0x9
 728 021c C0080000 		.4byte	.LASF44
 729 0220 09       		.byte	0x9
 730 0221 3601     		.2byte	0x136
 731 0223 88020000 		.4byte	0x288
 732 0227 28       		.byte	0x28
 733 0228 09       		.uleb128 0x9
 734 0229 D2030000 		.4byte	.LASF45
 735 022d 09       		.byte	0x9
 736 022e 3C01     		.2byte	0x13c
 737 0230 AC020000 		.4byte	0x2ac
 738 0234 2C       		.byte	0x2c
 739 0235 09       		.uleb128 0x9
 740 0236 E8050000 		.4byte	.LASF46
 741 023a 09       		.byte	0x9
ARM GAS  C:\Users\IDONNO~1.SON\AppData\Local\Temp\ccmr4iGZ.s 			page 14


 742 023b 4001     		.2byte	0x140
 743 023d 30010000 		.4byte	0x130
 744 0241 34       		.byte	0x34
 745 0242 09       		.uleb128 0x9
 746 0243 94060000 		.4byte	.LASF47
 747 0247 09       		.byte	0x9
 748 0248 4601     		.2byte	0x146
 749 024a 3B010000 		.4byte	0x13b
 750 024e 38       		.byte	0x38
 751 024f 09       		.uleb128 0x9
 752 0250 0B060000 		.4byte	.LASF48
 753 0254 09       		.byte	0x9
 754 0255 4D01     		.2byte	0x14d
 755 0257 60070000 		.4byte	0x760
 756 025b 3C       		.byte	0x3c
 757 025c 09       		.uleb128 0x9
 758 025d 2F070000 		.4byte	.LASF49
 759 0261 09       		.byte	0x9
 760 0262 5101     		.2byte	0x151
 761 0264 25010000 		.4byte	0x125
 762 0268 40       		.byte	0x40
 763 0269 09       		.uleb128 0x9
 764 026a 9C020000 		.4byte	.LASF50
 765 026e 09       		.byte	0x9
 766 026f 5801     		.2byte	0x158
 767 0271 5F030000 		.4byte	0x35f
 768 0275 44       		.byte	0x44
 769 0276 00       		.byte	0
 770 0277 03       		.uleb128 0x3
 771 0278 BE040000 		.4byte	.LASF51
 772 027c 08       		.byte	0x8
 773 027d 44       		.byte	0x44
 774 027e 82020000 		.4byte	0x282
 775 0282 0A       		.uleb128 0xa
 776 0283 04       		.byte	0x4
 777 0284 67010000 		.4byte	0x167
 778 0288 03       		.uleb128 0x3
 779 0289 7D040000 		.4byte	.LASF52
 780 028d 08       		.byte	0x8
 781 028e 49       		.byte	0x49
 782 028f 93020000 		.4byte	0x293
 783 0293 06       		.uleb128 0x6
 784 0294 C9060000 		.4byte	.LASF54
 785 0298 04       		.byte	0x4
 786 0299 09       		.byte	0x9
 787 029a B0       		.byte	0xb0
 788 029b AC020000 		.4byte	0x2ac
 789 029f 07       		.uleb128 0x7
 790 02a0 37060000 		.4byte	.LASF32
 791 02a4 09       		.byte	0x9
 792 02a5 B1       		.byte	0xb1
 793 02a6 82020000 		.4byte	0x282
 794 02aa 00       		.byte	0
 795 02ab 00       		.byte	0
 796 02ac 03       		.uleb128 0x3
 797 02ad 72060000 		.4byte	.LASF55
 798 02b1 08       		.byte	0x8
ARM GAS  C:\Users\IDONNO~1.SON\AppData\Local\Temp\ccmr4iGZ.s 			page 15


 799 02b2 50       		.byte	0x50
 800 02b3 B7020000 		.4byte	0x2b7
 801 02b7 06       		.uleb128 0x6
 802 02b8 F9070000 		.4byte	.LASF56
 803 02bc 08       		.byte	0x8
 804 02bd 09       		.byte	0x9
 805 02be B7       		.byte	0xb7
 806 02bf DC020000 		.4byte	0x2dc
 807 02c3 07       		.uleb128 0x7
 808 02c4 37060000 		.4byte	.LASF32
 809 02c8 09       		.byte	0x9
 810 02c9 B8       		.byte	0xb8
 811 02ca 82020000 		.4byte	0x282
 812 02ce 00       		.byte	0
 813 02cf 07       		.uleb128 0x7
 814 02d0 9E050000 		.4byte	.LASF33
 815 02d4 09       		.byte	0x9
 816 02d5 B9       		.byte	0xb9
 817 02d6 82020000 		.4byte	0x282
 818 02da 04       		.byte	0x4
 819 02db 00       		.byte	0
 820 02dc 03       		.uleb128 0x3
 821 02dd 0F000000 		.4byte	.LASF57
 822 02e1 08       		.byte	0x8
 823 02e2 57       		.byte	0x57
 824 02e3 E7020000 		.4byte	0x2e7
 825 02e7 0B       		.uleb128 0xb
 826 02e8 48040000 		.4byte	.LASF58
 827 02ec 1C       		.byte	0x1c
 828 02ed 09       		.byte	0x9
 829 02ee 9001     		.2byte	0x190
 830 02f0 43030000 		.4byte	0x343
 831 02f4 09       		.uleb128 0x9
 832 02f5 C1060000 		.4byte	.LASF59
 833 02f9 09       		.byte	0x9
 834 02fa 9101     		.2byte	0x191
 835 02fc AC020000 		.4byte	0x2ac
 836 0300 00       		.byte	0
 837 0301 09       		.uleb128 0x9
 838 0302 29060000 		.4byte	.LASF60
 839 0306 09       		.byte	0x9
 840 0307 9201     		.2byte	0x192
 841 0309 25010000 		.4byte	0x125
 842 030d 08       		.byte	0x8
 843 030e 09       		.uleb128 0x9
 844 030f 29050000 		.4byte	.LASF61
 845 0313 09       		.byte	0x9
 846 0314 9401     		.2byte	0x194
 847 0316 21050000 		.4byte	0x521
 848 031a 0C       		.byte	0xc
 849 031b 09       		.uleb128 0x9
 850 031c 19030000 		.4byte	.LASF62
 851 0320 09       		.byte	0x9
 852 0321 9701     		.2byte	0x197
 853 0323 82020000 		.4byte	0x282
 854 0327 10       		.byte	0x10
 855 0328 09       		.uleb128 0x9
ARM GAS  C:\Users\IDONNO~1.SON\AppData\Local\Temp\ccmr4iGZ.s 			page 16


 856 0329 51050000 		.4byte	.LASF63
 857 032d 09       		.byte	0x9
 858 032e 9801     		.2byte	0x198
 859 0330 82020000 		.4byte	0x282
 860 0334 14       		.byte	0x14
 861 0335 09       		.uleb128 0x9
 862 0336 47050000 		.4byte	.LASF64
 863 033a 09       		.byte	0x9
 864 033b 9B01     		.2byte	0x19b
 865 033d 82020000 		.4byte	0x282
 866 0341 18       		.byte	0x18
 867 0342 00       		.byte	0
 868 0343 03       		.uleb128 0x3
 869 0344 3A070000 		.4byte	.LASF65
 870 0348 08       		.byte	0x8
 871 0349 5C       		.byte	0x5c
 872 034a 4E030000 		.4byte	0x34e
 873 034e 0A       		.uleb128 0xa
 874 034f 04       		.byte	0x4
 875 0350 54030000 		.4byte	0x354
 876 0354 0C       		.uleb128 0xc
 877 0355 5F030000 		.4byte	0x35f
 878 0359 0D       		.uleb128 0xd
 879 035a 5F030000 		.4byte	0x35f
 880 035e 00       		.byte	0
 881 035f 0E       		.uleb128 0xe
 882 0360 04       		.byte	0x4
 883 0361 03       		.uleb128 0x3
 884 0362 8E050000 		.4byte	.LASF66
 885 0366 08       		.byte	0x8
 886 0367 61       		.byte	0x61
 887 0368 6C030000 		.4byte	0x36c
 888 036c 0B       		.uleb128 0xb
 889 036d A2070000 		.4byte	.LASF67
 890 0371 14       		.byte	0x14
 891 0372 09       		.byte	0x9
 892 0373 6B01     		.2byte	0x16b
 893 0375 BB030000 		.4byte	0x3bb
 894 0379 09       		.uleb128 0x9
 895 037a 9A030000 		.4byte	.LASF68
 896 037e 09       		.byte	0x9
 897 037f 6C01     		.2byte	0x16c
 898 0381 7D070000 		.4byte	0x77d
 899 0385 00       		.byte	0
 900 0386 09       		.uleb128 0x9
 901 0387 2A030000 		.4byte	.LASF69
 902 038b 09       		.byte	0x9
 903 038c 6D01     		.2byte	0x16d
 904 038e 7D070000 		.4byte	0x77d
 905 0392 04       		.byte	0x4
 906 0393 09       		.uleb128 0x9
 907 0394 C9030000 		.4byte	.LASF70
 908 0398 09       		.byte	0x9
 909 0399 6E01     		.2byte	0x16e
 910 039b 5C010000 		.4byte	0x15c
 911 039f 08       		.byte	0x8
 912 03a0 09       		.uleb128 0x9
ARM GAS  C:\Users\IDONNO~1.SON\AppData\Local\Temp\ccmr4iGZ.s 			page 17


 913 03a1 A9080000 		.4byte	.LASF71
 914 03a5 09       		.byte	0x9
 915 03a6 6F01     		.2byte	0x16f
 916 03a8 43030000 		.4byte	0x343
 917 03ac 0C       		.byte	0xc
 918 03ad 09       		.uleb128 0x9
 919 03ae D2070000 		.4byte	.LASF72
 920 03b2 09       		.byte	0x9
 921 03b3 7101     		.2byte	0x171
 922 03b5 5F030000 		.4byte	0x35f
 923 03b9 10       		.byte	0x10
 924 03ba 00       		.byte	0
 925 03bb 03       		.uleb128 0x3
 926 03bc 00020000 		.4byte	.LASF73
 927 03c0 08       		.byte	0x8
 928 03c1 66       		.byte	0x66
 929 03c2 C6030000 		.4byte	0x3c6
 930 03c6 0B       		.uleb128 0xb
 931 03c7 D1040000 		.4byte	.LASF74
 932 03cb 10       		.byte	0x10
 933 03cc 09       		.byte	0x9
 934 03cd 7B01     		.2byte	0x17b
 935 03cf 08040000 		.4byte	0x408
 936 03d3 09       		.uleb128 0x9
 937 03d4 9A030000 		.4byte	.LASF68
 938 03d8 09       		.byte	0x9
 939 03d9 7C01     		.2byte	0x17c
 940 03db 7D070000 		.4byte	0x77d
 941 03df 00       		.byte	0
 942 03e0 09       		.uleb128 0x9
 943 03e1 2A030000 		.4byte	.LASF69
 944 03e5 09       		.byte	0x9
 945 03e6 7E01     		.2byte	0x17e
 946 03e8 7D070000 		.4byte	0x77d
 947 03ec 04       		.byte	0x4
 948 03ed 09       		.uleb128 0x9
 949 03ee C9030000 		.4byte	.LASF70
 950 03f2 09       		.byte	0x9
 951 03f3 8001     		.2byte	0x180
 952 03f5 5C010000 		.4byte	0x15c
 953 03f9 08       		.byte	0x8
 954 03fa 09       		.uleb128 0x9
 955 03fb 5D080000 		.4byte	.LASF75
 956 03ff 09       		.byte	0x9
 957 0400 8201     		.2byte	0x182
 958 0402 78070000 		.4byte	0x778
 959 0406 0C       		.byte	0xc
 960 0407 00       		.byte	0
 961 0408 03       		.uleb128 0x3
 962 0409 51000000 		.4byte	.LASF76
 963 040d 08       		.byte	0x8
 964 040e 6B       		.byte	0x6b
 965 040f 13040000 		.4byte	0x413
 966 0413 0B       		.uleb128 0xb
 967 0414 BC050000 		.4byte	.LASF77
 968 0418 04       		.byte	0x4
 969 0419 09       		.byte	0x9
ARM GAS  C:\Users\IDONNO~1.SON\AppData\Local\Temp\ccmr4iGZ.s 			page 18


 970 041a A201     		.2byte	0x1a2
 971 041c 2E040000 		.4byte	0x42e
 972 0420 09       		.uleb128 0x9
 973 0421 4E070000 		.4byte	.LASF78
 974 0425 09       		.byte	0x9
 975 0426 AA01     		.2byte	0x1aa
 976 0428 83070000 		.4byte	0x783
 977 042c 00       		.byte	0
 978 042d 00       		.byte	0
 979 042e 03       		.uleb128 0x3
 980 042f 1F040000 		.4byte	.LASF79
 981 0433 08       		.byte	0x8
 982 0434 70       		.byte	0x70
 983 0435 39040000 		.4byte	0x439
 984 0439 0F       		.uleb128 0xf
 985 043a BC020000 		.4byte	.LASF80
 986 043e 5802     		.2byte	0x258
 987 0440 09       		.byte	0x9
 988 0441 C201     		.2byte	0x1c2
 989 0443 95040000 		.4byte	0x495
 990 0447 09       		.uleb128 0x9
 991 0448 2A080000 		.4byte	.LASF81
 992 044c 09       		.byte	0x9
 993 044d C601     		.2byte	0x1c6
 994 044f DC020000 		.4byte	0x2dc
 995 0453 00       		.byte	0
 996 0454 09       		.uleb128 0x9
 997 0455 32030000 		.4byte	.LASF82
 998 0459 09       		.byte	0x9
 999 045a CA01     		.2byte	0x1ca
 1000 045c BB030000 		.4byte	0x3bb
 1001 0460 1C       		.byte	0x1c
 1002 0461 08       		.uleb128 0x8
 1003 0462 64626700 		.ascii	"dbg\000"
 1004 0466 09       		.byte	0x9
 1005 0467 CE01     		.2byte	0x1ce
 1006 0469 08040000 		.4byte	0x408
 1007 046d 2C       		.byte	0x2c
 1008 046e 09       		.uleb128 0x9
 1009 046f EB010000 		.4byte	.LASF83
 1010 0473 09       		.byte	0x9
 1011 0474 D201     		.2byte	0x1d2
 1012 0476 67010000 		.4byte	0x167
 1013 047a 30       		.byte	0x30
 1014 047b 08       		.uleb128 0x8
 1015 047c 746D00   		.ascii	"tm\000"
 1016 047f 09       		.byte	0x9
 1017 0480 D701     		.2byte	0x1d7
 1018 0482 96060000 		.4byte	0x696
 1019 0486 78       		.byte	0x78
 1020 0487 09       		.uleb128 0x9
 1021 0488 72030000 		.4byte	.LASF84
 1022 048c 09       		.byte	0x9
 1023 048d E301     		.2byte	0x1e3
 1024 048f 88070000 		.4byte	0x788
 1025 0493 80       		.byte	0x80
 1026 0494 00       		.byte	0
ARM GAS  C:\Users\IDONNO~1.SON\AppData\Local\Temp\ccmr4iGZ.s 			page 19


 1027 0495 04       		.uleb128 0x4
 1028 0496 04       		.byte	0x4
 1029 0497 07       		.byte	0x7
 1030 0498 B5040000 		.4byte	.LASF85
 1031 049c 10       		.uleb128 0x10
 1032 049d 1C       		.byte	0x1c
 1033 049e 0A       		.byte	0xa
 1034 049f 0903     		.2byte	0x309
 1035 04a1 FF040000 		.4byte	0x4ff
 1036 04a5 08       		.uleb128 0x8
 1037 04a6 535200   		.ascii	"SR\000"
 1038 04a9 0A       		.byte	0xa
 1039 04aa 0B03     		.2byte	0x30b
 1040 04ac E9000000 		.4byte	0xe9
 1041 04b0 00       		.byte	0
 1042 04b1 08       		.uleb128 0x8
 1043 04b2 445200   		.ascii	"DR\000"
 1044 04b5 0A       		.byte	0xa
 1045 04b6 0C03     		.2byte	0x30c
 1046 04b8 E9000000 		.4byte	0xe9
 1047 04bc 04       		.byte	0x4
 1048 04bd 08       		.uleb128 0x8
 1049 04be 42525200 		.ascii	"BRR\000"
 1050 04c2 0A       		.byte	0xa
 1051 04c3 0D03     		.2byte	0x30d
 1052 04c5 E9000000 		.4byte	0xe9
 1053 04c9 08       		.byte	0x8
 1054 04ca 08       		.uleb128 0x8
 1055 04cb 43523100 		.ascii	"CR1\000"
 1056 04cf 0A       		.byte	0xa
 1057 04d0 0E03     		.2byte	0x30e
 1058 04d2 E9000000 		.4byte	0xe9
 1059 04d6 0C       		.byte	0xc
 1060 04d7 08       		.uleb128 0x8
 1061 04d8 43523200 		.ascii	"CR2\000"
 1062 04dc 0A       		.byte	0xa
 1063 04dd 0F03     		.2byte	0x30f
 1064 04df E9000000 		.4byte	0xe9
 1065 04e3 10       		.byte	0x10
 1066 04e4 08       		.uleb128 0x8
 1067 04e5 43523300 		.ascii	"CR3\000"
 1068 04e9 0A       		.byte	0xa
 1069 04ea 1003     		.2byte	0x310
 1070 04ec E9000000 		.4byte	0xe9
 1071 04f0 14       		.byte	0x14
 1072 04f1 09       		.uleb128 0x9
 1073 04f2 97020000 		.4byte	.LASF86
 1074 04f6 0A       		.byte	0xa
 1075 04f7 1103     		.2byte	0x311
 1076 04f9 E9000000 		.4byte	0xe9
 1077 04fd 18       		.byte	0x18
 1078 04fe 00       		.byte	0
 1079 04ff 11       		.uleb128 0x11
 1080 0500 2B040000 		.4byte	.LASF87
 1081 0504 0A       		.byte	0xa
 1082 0505 1203     		.2byte	0x312
 1083 0507 9C040000 		.4byte	0x49c
ARM GAS  C:\Users\IDONNO~1.SON\AppData\Local\Temp\ccmr4iGZ.s 			page 20


 1084 050b 03       		.uleb128 0x3
 1085 050c 21030000 		.4byte	.LASF88
 1086 0510 0B       		.byte	0xb
 1087 0511 65       		.byte	0x65
 1088 0512 5F030000 		.4byte	0x35f
 1089 0516 03       		.uleb128 0x3
 1090 0517 72040000 		.4byte	.LASF89
 1091 051b 0B       		.byte	0xb
 1092 051c 6D       		.byte	0x6d
 1093 051d D9000000 		.4byte	0xd9
 1094 0521 06       		.uleb128 0x6
 1095 0522 84070000 		.4byte	.LASF90
 1096 0526 04       		.byte	0x4
 1097 0527 0B       		.byte	0xb
 1098 0528 89       		.byte	0x89
 1099 0529 3A050000 		.4byte	0x53a
 1100 052d 12       		.uleb128 0x12
 1101 052e 72313300 		.ascii	"r13\000"
 1102 0532 0B       		.byte	0xb
 1103 0533 8A       		.byte	0x8a
 1104 0534 7B060000 		.4byte	0x67b
 1105 0538 00       		.byte	0
 1106 0539 00       		.byte	0
 1107 053a 06       		.uleb128 0x6
 1108 053b 3D000000 		.4byte	.LASF91
 1109 053f 64       		.byte	0x64
 1110 0540 0C       		.byte	0xc
 1111 0541 F4       		.byte	0xf4
 1112 0542 7B060000 		.4byte	0x67b
 1113 0546 12       		.uleb128 0x12
 1114 0547 73313600 		.ascii	"s16\000"
 1115 054b 0C       		.byte	0xc
 1116 054c F6       		.byte	0xf6
 1117 054d 0B050000 		.4byte	0x50b
 1118 0551 00       		.byte	0
 1119 0552 12       		.uleb128 0x12
 1120 0553 73313700 		.ascii	"s17\000"
 1121 0557 0C       		.byte	0xc
 1122 0558 F7       		.byte	0xf7
 1123 0559 0B050000 		.4byte	0x50b
 1124 055d 04       		.byte	0x4
 1125 055e 12       		.uleb128 0x12
 1126 055f 73313800 		.ascii	"s18\000"
 1127 0563 0C       		.byte	0xc
 1128 0564 F8       		.byte	0xf8
 1129 0565 0B050000 		.4byte	0x50b
 1130 0569 08       		.byte	0x8
 1131 056a 12       		.uleb128 0x12
 1132 056b 73313900 		.ascii	"s19\000"
 1133 056f 0C       		.byte	0xc
 1134 0570 F9       		.byte	0xf9
 1135 0571 0B050000 		.4byte	0x50b
 1136 0575 0C       		.byte	0xc
 1137 0576 12       		.uleb128 0x12
 1138 0577 73323000 		.ascii	"s20\000"
 1139 057b 0C       		.byte	0xc
 1140 057c FA       		.byte	0xfa
ARM GAS  C:\Users\IDONNO~1.SON\AppData\Local\Temp\ccmr4iGZ.s 			page 21


 1141 057d 0B050000 		.4byte	0x50b
 1142 0581 10       		.byte	0x10
 1143 0582 12       		.uleb128 0x12
 1144 0583 73323100 		.ascii	"s21\000"
 1145 0587 0C       		.byte	0xc
 1146 0588 FB       		.byte	0xfb
 1147 0589 0B050000 		.4byte	0x50b
 1148 058d 14       		.byte	0x14
 1149 058e 12       		.uleb128 0x12
 1150 058f 73323200 		.ascii	"s22\000"
 1151 0593 0C       		.byte	0xc
 1152 0594 FC       		.byte	0xfc
 1153 0595 0B050000 		.4byte	0x50b
 1154 0599 18       		.byte	0x18
 1155 059a 12       		.uleb128 0x12
 1156 059b 73323300 		.ascii	"s23\000"
 1157 059f 0C       		.byte	0xc
 1158 05a0 FD       		.byte	0xfd
 1159 05a1 0B050000 		.4byte	0x50b
 1160 05a5 1C       		.byte	0x1c
 1161 05a6 12       		.uleb128 0x12
 1162 05a7 73323400 		.ascii	"s24\000"
 1163 05ab 0C       		.byte	0xc
 1164 05ac FE       		.byte	0xfe
 1165 05ad 0B050000 		.4byte	0x50b
 1166 05b1 20       		.byte	0x20
 1167 05b2 12       		.uleb128 0x12
 1168 05b3 73323500 		.ascii	"s25\000"
 1169 05b7 0C       		.byte	0xc
 1170 05b8 FF       		.byte	0xff
 1171 05b9 0B050000 		.4byte	0x50b
 1172 05bd 24       		.byte	0x24
 1173 05be 08       		.uleb128 0x8
 1174 05bf 73323600 		.ascii	"s26\000"
 1175 05c3 0C       		.byte	0xc
 1176 05c4 0001     		.2byte	0x100
 1177 05c6 0B050000 		.4byte	0x50b
 1178 05ca 28       		.byte	0x28
 1179 05cb 08       		.uleb128 0x8
 1180 05cc 73323700 		.ascii	"s27\000"
 1181 05d0 0C       		.byte	0xc
 1182 05d1 0101     		.2byte	0x101
 1183 05d3 0B050000 		.4byte	0x50b
 1184 05d7 2C       		.byte	0x2c
 1185 05d8 08       		.uleb128 0x8
 1186 05d9 73323800 		.ascii	"s28\000"
 1187 05dd 0C       		.byte	0xc
 1188 05de 0201     		.2byte	0x102
 1189 05e0 0B050000 		.4byte	0x50b
 1190 05e4 30       		.byte	0x30
 1191 05e5 08       		.uleb128 0x8
 1192 05e6 73323900 		.ascii	"s29\000"
 1193 05ea 0C       		.byte	0xc
 1194 05eb 0301     		.2byte	0x103
 1195 05ed 0B050000 		.4byte	0x50b
 1196 05f1 34       		.byte	0x34
 1197 05f2 08       		.uleb128 0x8
ARM GAS  C:\Users\IDONNO~1.SON\AppData\Local\Temp\ccmr4iGZ.s 			page 22


 1198 05f3 73333000 		.ascii	"s30\000"
 1199 05f7 0C       		.byte	0xc
 1200 05f8 0401     		.2byte	0x104
 1201 05fa 0B050000 		.4byte	0x50b
 1202 05fe 38       		.byte	0x38
 1203 05ff 08       		.uleb128 0x8
 1204 0600 73333100 		.ascii	"s31\000"
 1205 0604 0C       		.byte	0xc
 1206 0605 0501     		.2byte	0x105
 1207 0607 0B050000 		.4byte	0x50b
 1208 060b 3C       		.byte	0x3c
 1209 060c 08       		.uleb128 0x8
 1210 060d 723400   		.ascii	"r4\000"
 1211 0610 0C       		.byte	0xc
 1212 0611 0701     		.2byte	0x107
 1213 0613 0B050000 		.4byte	0x50b
 1214 0617 40       		.byte	0x40
 1215 0618 08       		.uleb128 0x8
 1216 0619 723500   		.ascii	"r5\000"
 1217 061c 0C       		.byte	0xc
 1218 061d 0801     		.2byte	0x108
 1219 061f 0B050000 		.4byte	0x50b
 1220 0623 44       		.byte	0x44
 1221 0624 08       		.uleb128 0x8
 1222 0625 723600   		.ascii	"r6\000"
 1223 0628 0C       		.byte	0xc
 1224 0629 0901     		.2byte	0x109
 1225 062b 0B050000 		.4byte	0x50b
 1226 062f 48       		.byte	0x48
 1227 0630 08       		.uleb128 0x8
 1228 0631 723700   		.ascii	"r7\000"
 1229 0634 0C       		.byte	0xc
 1230 0635 0A01     		.2byte	0x10a
 1231 0637 0B050000 		.4byte	0x50b
 1232 063b 4C       		.byte	0x4c
 1233 063c 08       		.uleb128 0x8
 1234 063d 723800   		.ascii	"r8\000"
 1235 0640 0C       		.byte	0xc
 1236 0641 0B01     		.2byte	0x10b
 1237 0643 0B050000 		.4byte	0x50b
 1238 0647 50       		.byte	0x50
 1239 0648 08       		.uleb128 0x8
 1240 0649 723900   		.ascii	"r9\000"
 1241 064c 0C       		.byte	0xc
 1242 064d 0C01     		.2byte	0x10c
 1243 064f 0B050000 		.4byte	0x50b
 1244 0653 54       		.byte	0x54
 1245 0654 08       		.uleb128 0x8
 1246 0655 72313000 		.ascii	"r10\000"
 1247 0659 0C       		.byte	0xc
 1248 065a 0D01     		.2byte	0x10d
 1249 065c 0B050000 		.4byte	0x50b
 1250 0660 58       		.byte	0x58
 1251 0661 08       		.uleb128 0x8
 1252 0662 72313100 		.ascii	"r11\000"
 1253 0666 0C       		.byte	0xc
 1254 0667 0E01     		.2byte	0x10e
ARM GAS  C:\Users\IDONNO~1.SON\AppData\Local\Temp\ccmr4iGZ.s 			page 23


 1255 0669 0B050000 		.4byte	0x50b
 1256 066d 5C       		.byte	0x5c
 1257 066e 08       		.uleb128 0x8
 1258 066f 6C7200   		.ascii	"lr\000"
 1259 0672 0C       		.byte	0xc
 1260 0673 0F01     		.2byte	0x10f
 1261 0675 0B050000 		.4byte	0x50b
 1262 0679 60       		.byte	0x60
 1263 067a 00       		.byte	0
 1264 067b 0A       		.uleb128 0xa
 1265 067c 04       		.byte	0x4
 1266 067d 3A050000 		.4byte	0x53a
 1267 0681 13       		.uleb128 0x13
 1268 0682 04       		.byte	0x4
 1269 0683 0D       		.byte	0xd
 1270 0684 38       		.byte	0x38
 1271 0685 96060000 		.4byte	0x696
 1272 0689 07       		.uleb128 0x7
 1273 068a 58070000 		.4byte	.LASF92
 1274 068e 0D       		.byte	0xd
 1275 068f 3C       		.byte	0x3c
 1276 0690 EE000000 		.4byte	0xee
 1277 0694 00       		.byte	0
 1278 0695 00       		.byte	0
 1279 0696 03       		.uleb128 0x3
 1280 0697 2F050000 		.4byte	.LASF93
 1281 069b 0D       		.byte	0xd
 1282 069c 3D       		.byte	0x3d
 1283 069d 81060000 		.4byte	0x681
 1284 06a1 14       		.uleb128 0x14
 1285 06a2 04       		.byte	0x4
 1286 06a3 09       		.byte	0x9
 1287 06a4 FA       		.byte	0xfa
 1288 06a5 FE060000 		.4byte	0x6fe
 1289 06a9 15       		.uleb128 0x15
 1290 06aa 23000000 		.4byte	.LASF94
 1291 06ae 09       		.byte	0x9
 1292 06af 0101     		.2byte	0x101
 1293 06b1 30010000 		.4byte	0x130
 1294 06b5 15       		.uleb128 0x15
 1295 06b6 E2010000 		.4byte	.LASF95
 1296 06ba 09       		.byte	0x9
 1297 06bb 0801     		.2byte	0x108
 1298 06bd 30010000 		.4byte	0x130
 1299 06c1 15       		.uleb128 0x15
 1300 06c2 4F080000 		.4byte	.LASF96
 1301 06c6 09       		.byte	0x9
 1302 06c7 0F01     		.2byte	0x10f
 1303 06c9 5F030000 		.4byte	0x35f
 1304 06cd 15       		.uleb128 0x15
 1305 06ce EE040000 		.4byte	.LASF97
 1306 06d2 09       		.byte	0x9
 1307 06d3 1601     		.2byte	0x116
 1308 06d5 FE060000 		.4byte	0x6fe
 1309 06d9 15       		.uleb128 0x15
 1310 06da C2030000 		.4byte	.LASF98
 1311 06de 09       		.byte	0x9
ARM GAS  C:\Users\IDONNO~1.SON\AppData\Local\Temp\ccmr4iGZ.s 			page 24


 1312 06df 1E01     		.2byte	0x11e
 1313 06e1 29070000 		.4byte	0x729
 1314 06e5 15       		.uleb128 0x15
 1315 06e6 BA060000 		.4byte	.LASF99
 1316 06ea 09       		.byte	0x9
 1317 06eb 2701     		.2byte	0x127
 1318 06ed 60070000 		.4byte	0x760
 1319 06f1 15       		.uleb128 0x15
 1320 06f2 30060000 		.4byte	.LASF100
 1321 06f6 09       		.byte	0x9
 1322 06f7 2F01     		.2byte	0x12f
 1323 06f9 3B010000 		.4byte	0x13b
 1324 06fd 00       		.byte	0
 1325 06fe 0A       		.uleb128 0xa
 1326 06ff 04       		.byte	0x4
 1327 0700 77020000 		.4byte	0x277
 1328 0704 06       		.uleb128 0x6
 1329 0705 87060000 		.4byte	.LASF101
 1330 0709 0C       		.byte	0xc
 1331 070a 0E       		.byte	0xe
 1332 070b 34       		.byte	0x34
 1333 070c 29070000 		.4byte	0x729
 1334 0710 07       		.uleb128 0x7
 1335 0711 EA020000 		.4byte	.LASF102
 1336 0715 0E       		.byte	0xe
 1337 0716 35       		.byte	0x35
 1338 0717 AC020000 		.4byte	0x2ac
 1339 071b 00       		.byte	0
 1340 071c 07       		.uleb128 0x7
 1341 071d E2030000 		.4byte	.LASF103
 1342 0721 0E       		.byte	0xe
 1343 0722 37       		.byte	0x37
 1344 0723 51010000 		.4byte	0x151
 1345 0727 08       		.byte	0x8
 1346 0728 00       		.byte	0
 1347 0729 0A       		.uleb128 0xa
 1348 072a 04       		.byte	0x4
 1349 072b 04070000 		.4byte	0x704
 1350 072f 06       		.uleb128 0x6
 1351 0730 10080000 		.4byte	.LASF104
 1352 0734 10       		.byte	0x10
 1353 0735 0F       		.byte	0xf
 1354 0736 39       		.byte	0x39
 1355 0737 60070000 		.4byte	0x760
 1356 073b 07       		.uleb128 0x7
 1357 073c A4020000 		.4byte	.LASF105
 1358 0740 0F       		.byte	0xf
 1359 0741 3A       		.byte	0x3a
 1360 0742 AC020000 		.4byte	0x2ac
 1361 0746 00       		.byte	0
 1362 0747 07       		.uleb128 0x7
 1363 0748 94080000 		.4byte	.LASF106
 1364 074c 0F       		.byte	0xf
 1365 074d 3C       		.byte	0x3c
 1366 074e 82020000 		.4byte	0x282
 1367 0752 08       		.byte	0x8
 1368 0753 07       		.uleb128 0x7
ARM GAS  C:\Users\IDONNO~1.SON\AppData\Local\Temp\ccmr4iGZ.s 			page 25


 1369 0754 1E070000 		.4byte	.LASF107
 1370 0758 0F       		.byte	0xf
 1371 0759 3E       		.byte	0x3e
 1372 075a A3070000 		.4byte	0x7a3
 1373 075e 0C       		.byte	0xc
 1374 075f 00       		.byte	0
 1375 0760 0A       		.uleb128 0xa
 1376 0761 04       		.byte	0x4
 1377 0762 2F070000 		.4byte	0x72f
 1378 0766 0A       		.uleb128 0xa
 1379 0767 04       		.byte	0x4
 1380 0768 73070000 		.4byte	0x773
 1381 076c 04       		.uleb128 0x4
 1382 076d 01       		.byte	0x1
 1383 076e 08       		.byte	0x8
 1384 076f FD060000 		.4byte	.LASF108
 1385 0773 16       		.uleb128 0x16
 1386 0774 6C070000 		.4byte	0x76c
 1387 0778 05       		.uleb128 0x5
 1388 0779 5C010000 		.4byte	0x15c
 1389 077d 0A       		.uleb128 0xa
 1390 077e 04       		.byte	0x4
 1391 077f 61030000 		.4byte	0x361
 1392 0783 05       		.uleb128 0x5
 1393 0784 66070000 		.4byte	0x766
 1394 0788 17       		.uleb128 0x17
 1395 0789 16050000 		.4byte	0x516
 1396 078d 98070000 		.4byte	0x798
 1397 0791 18       		.uleb128 0x18
 1398 0792 95040000 		.4byte	0x495
 1399 0796 3A       		.byte	0x3a
 1400 0797 00       		.byte	0
 1401 0798 03       		.uleb128 0x3
 1402 0799 46030000 		.4byte	.LASF109
 1403 079d 0F       		.byte	0xf
 1404 079e 34       		.byte	0x34
 1405 079f 2F070000 		.4byte	0x72f
 1406 07a3 0A       		.uleb128 0xa
 1407 07a4 04       		.byte	0x4
 1408 07a5 98070000 		.4byte	0x798
 1409 07a9 03       		.uleb128 0x3
 1410 07aa 6E070000 		.4byte	.LASF110
 1411 07ae 10       		.byte	0x10
 1412 07af 34       		.byte	0x34
 1413 07b0 B4070000 		.4byte	0x7b4
 1414 07b4 06       		.uleb128 0x6
 1415 07b5 B1080000 		.4byte	.LASF111
 1416 07b9 14       		.byte	0x14
 1417 07ba 10       		.byte	0x10
 1418 07bb 39       		.byte	0x39
 1419 07bc FD070000 		.4byte	0x7fd
 1420 07c0 07       		.uleb128 0x7
 1421 07c1 17040000 		.4byte	.LASF112
 1422 07c5 10       		.byte	0x10
 1423 07c6 3A       		.byte	0x3a
 1424 07c7 FD070000 		.4byte	0x7fd
 1425 07cb 00       		.byte	0
ARM GAS  C:\Users\IDONNO~1.SON\AppData\Local\Temp\ccmr4iGZ.s 			page 26


 1426 07cc 07       		.uleb128 0x7
 1427 07cd EE050000 		.4byte	.LASF113
 1428 07d1 10       		.byte	0x10
 1429 07d2 3D       		.byte	0x3d
 1430 07d3 82020000 		.4byte	0x282
 1431 07d7 04       		.byte	0x4
 1432 07d8 07       		.uleb128 0x7
 1433 07d9 59050000 		.4byte	.LASF114
 1434 07dd 10       		.byte	0x10
 1435 07de 3F       		.byte	0x3f
 1436 07df 3B010000 		.4byte	0x13b
 1437 07e3 08       		.byte	0x8
 1438 07e4 07       		.uleb128 0x7
 1439 07e5 FA050000 		.4byte	.LASF115
 1440 07e9 10       		.byte	0x10
 1441 07ea 41       		.byte	0x41
 1442 07eb 46010000 		.4byte	0x146
 1443 07ef 0C       		.byte	0xc
 1444 07f0 07       		.uleb128 0x7
 1445 07f1 00040000 		.4byte	.LASF116
 1446 07f5 10       		.byte	0x10
 1447 07f6 43       		.byte	0x43
 1448 07f7 46010000 		.4byte	0x146
 1449 07fb 10       		.byte	0x10
 1450 07fc 00       		.byte	0
 1451 07fd 0A       		.uleb128 0xa
 1452 07fe 04       		.byte	0x4
 1453 07ff A9070000 		.4byte	0x7a9
 1454 0803 06       		.uleb128 0x6
 1455 0804 30080000 		.4byte	.LASF117
 1456 0808 04       		.byte	0x4
 1457 0809 10       		.byte	0x10
 1458 080a 4A       		.byte	0x4a
 1459 080b 1C080000 		.4byte	0x81c
 1460 080f 07       		.uleb128 0x7
 1461 0810 19080000 		.4byte	.LASF118
 1462 0814 10       		.byte	0x10
 1463 0815 4B       		.byte	0x4b
 1464 0816 FD070000 		.4byte	0x7fd
 1465 081a 00       		.byte	0
 1466 081b 00       		.byte	0
 1467 081c 03       		.uleb128 0x3
 1468 081d 63030000 		.4byte	.LASF119
 1469 0821 10       		.byte	0x10
 1470 0822 4E       		.byte	0x4e
 1471 0823 03080000 		.4byte	0x803
 1472 0827 03       		.uleb128 0x3
 1473 0828 23020000 		.4byte	.LASF120
 1474 082c 03       		.byte	0x3
 1475 082d 3F       		.byte	0x3f
 1476 082e 32080000 		.4byte	0x832
 1477 0832 06       		.uleb128 0x6
 1478 0833 AC040000 		.4byte	.LASF121
 1479 0837 24       		.byte	0x24
 1480 0838 03       		.byte	0x3
 1481 0839 4D       		.byte	0x4d
 1482 083a 9F080000 		.4byte	0x89f
ARM GAS  C:\Users\IDONNO~1.SON\AppData\Local\Temp\ccmr4iGZ.s 			page 27


 1483 083e 07       		.uleb128 0x7
 1484 083f 61020000 		.4byte	.LASF122
 1485 0843 03       		.byte	0x3
 1486 0844 4E       		.byte	0x4e
 1487 0845 AC020000 		.4byte	0x2ac
 1488 0849 00       		.byte	0
 1489 084a 07       		.uleb128 0x7
 1490 084b B0060000 		.4byte	.LASF123
 1491 084f 03       		.byte	0x3
 1492 0850 4F       		.byte	0x4f
 1493 0851 C1080000 		.4byte	0x8c1
 1494 0855 08       		.byte	0x8
 1495 0856 07       		.uleb128 0x7
 1496 0857 D9020000 		.4byte	.LASF124
 1497 085b 03       		.byte	0x3
 1498 085c 50       		.byte	0x50
 1499 085d C6080000 		.4byte	0x8c6
 1500 0861 0C       		.byte	0xc
 1501 0862 07       		.uleb128 0x7
 1502 0863 0A080000 		.4byte	.LASF125
 1503 0867 03       		.byte	0x3
 1504 0868 51       		.byte	0x51
 1505 0869 C6080000 		.4byte	0x8c6
 1506 086d 10       		.byte	0x10
 1507 086e 07       		.uleb128 0x7
 1508 086f EE030000 		.4byte	.LASF126
 1509 0873 03       		.byte	0x3
 1510 0874 53       		.byte	0x53
 1511 0875 C6080000 		.4byte	0x8c6
 1512 0879 14       		.byte	0x14
 1513 087a 07       		.uleb128 0x7
 1514 087b AD050000 		.4byte	.LASF127
 1515 087f 03       		.byte	0x3
 1516 0880 54       		.byte	0x54
 1517 0881 C6080000 		.4byte	0x8c6
 1518 0885 18       		.byte	0x18
 1519 0886 07       		.uleb128 0x7
 1520 0887 21080000 		.4byte	.LASF128
 1521 088b 03       		.byte	0x3
 1522 088c 55       		.byte	0x55
 1523 088d 9F080000 		.4byte	0x89f
 1524 0891 1C       		.byte	0x1c
 1525 0892 07       		.uleb128 0x7
 1526 0893 88080000 		.4byte	.LASF129
 1527 0897 03       		.byte	0x3
 1528 0898 56       		.byte	0x56
 1529 0899 5F030000 		.4byte	0x35f
 1530 089d 20       		.byte	0x20
 1531 089e 00       		.byte	0
 1532 089f 03       		.uleb128 0x3
 1533 08a0 68040000 		.4byte	.LASF130
 1534 08a4 03       		.byte	0x3
 1535 08a5 42       		.byte	0x42
 1536 08a6 AA080000 		.4byte	0x8aa
 1537 08aa 0A       		.uleb128 0xa
 1538 08ab 04       		.byte	0x4
 1539 08ac B0080000 		.4byte	0x8b0
ARM GAS  C:\Users\IDONNO~1.SON\AppData\Local\Temp\ccmr4iGZ.s 			page 28


 1540 08b0 0C       		.uleb128 0xc
 1541 08b1 BB080000 		.4byte	0x8bb
 1542 08b5 0D       		.uleb128 0xd
 1543 08b6 BB080000 		.4byte	0x8bb
 1544 08ba 00       		.byte	0
 1545 08bb 0A       		.uleb128 0xa
 1546 08bc 04       		.byte	0x4
 1547 08bd 27080000 		.4byte	0x827
 1548 08c1 05       		.uleb128 0x5
 1549 08c2 2C000000 		.4byte	0x2c
 1550 08c6 0A       		.uleb128 0xa
 1551 08c7 04       		.byte	0x4
 1552 08c8 AD000000 		.4byte	0xad
 1553 08cc 03       		.uleb128 0x3
 1554 08cd 92040000 		.4byte	.LASF131
 1555 08d1 03       		.byte	0x3
 1556 08d2 64       		.byte	0x64
 1557 08d3 27080000 		.4byte	0x827
 1558 08d7 03       		.uleb128 0x3
 1559 08d8 5F070000 		.4byte	.LASF132
 1560 08dc 03       		.byte	0x3
 1561 08dd 71       		.byte	0x71
 1562 08de 27080000 		.4byte	0x827
 1563 08e2 06       		.uleb128 0x6
 1564 08e3 3E060000 		.4byte	.LASF133
 1565 08e7 10       		.byte	0x10
 1566 08e8 11       		.byte	0x11
 1567 08e9 40       		.byte	0x40
 1568 08ea 1F090000 		.4byte	0x91f
 1569 08ee 07       		.uleb128 0x7
 1570 08ef 8C040000 		.4byte	.LASF134
 1571 08f3 11       		.byte	0x11
 1572 08f4 41       		.byte	0x41
 1573 08f5 43090000 		.4byte	0x943
 1574 08f9 00       		.byte	0
 1575 08fa 07       		.uleb128 0x7
 1576 08fb F8060000 		.4byte	.LASF135
 1577 08ff 11       		.byte	0x11
 1578 0900 41       		.byte	0x41
 1579 0901 62090000 		.4byte	0x962
 1580 0905 04       		.byte	0x4
 1581 0906 12       		.uleb128 0x12
 1582 0907 70757400 		.ascii	"put\000"
 1583 090b 11       		.byte	0x11
 1584 090c 41       		.byte	0x41
 1585 090d 7C090000 		.4byte	0x97c
 1586 0911 08       		.byte	0x8
 1587 0912 12       		.uleb128 0x12
 1588 0913 67657400 		.ascii	"get\000"
 1589 0917 11       		.byte	0x11
 1590 0918 41       		.byte	0x41
 1591 0919 91090000 		.4byte	0x991
 1592 091d 0C       		.byte	0xc
 1593 091e 00       		.byte	0
 1594 091f 19       		.uleb128 0x19
 1595 0920 2C000000 		.4byte	0x2c
 1596 0924 38090000 		.4byte	0x938
ARM GAS  C:\Users\IDONNO~1.SON\AppData\Local\Temp\ccmr4iGZ.s 			page 29


 1597 0928 0D       		.uleb128 0xd
 1598 0929 5F030000 		.4byte	0x35f
 1599 092d 0D       		.uleb128 0xd
 1600 092e 38090000 		.4byte	0x938
 1601 0932 0D       		.uleb128 0xd
 1602 0933 2C000000 		.4byte	0x2c
 1603 0937 00       		.byte	0
 1604 0938 0A       		.uleb128 0xa
 1605 0939 04       		.byte	0x4
 1606 093a 3E090000 		.4byte	0x93e
 1607 093e 16       		.uleb128 0x16
 1608 093f AD000000 		.4byte	0xad
 1609 0943 0A       		.uleb128 0xa
 1610 0944 04       		.byte	0x4
 1611 0945 1F090000 		.4byte	0x91f
 1612 0949 19       		.uleb128 0x19
 1613 094a 2C000000 		.4byte	0x2c
 1614 094e 62090000 		.4byte	0x962
 1615 0952 0D       		.uleb128 0xd
 1616 0953 5F030000 		.4byte	0x35f
 1617 0957 0D       		.uleb128 0xd
 1618 0958 C6080000 		.4byte	0x8c6
 1619 095c 0D       		.uleb128 0xd
 1620 095d 2C000000 		.4byte	0x2c
 1621 0961 00       		.byte	0
 1622 0962 0A       		.uleb128 0xa
 1623 0963 04       		.byte	0x4
 1624 0964 49090000 		.4byte	0x949
 1625 0968 19       		.uleb128 0x19
 1626 0969 30010000 		.4byte	0x130
 1627 096d 7C090000 		.4byte	0x97c
 1628 0971 0D       		.uleb128 0xd
 1629 0972 5F030000 		.4byte	0x35f
 1630 0976 0D       		.uleb128 0xd
 1631 0977 AD000000 		.4byte	0xad
 1632 097b 00       		.byte	0
 1633 097c 0A       		.uleb128 0xa
 1634 097d 04       		.byte	0x4
 1635 097e 68090000 		.4byte	0x968
 1636 0982 19       		.uleb128 0x19
 1637 0983 30010000 		.4byte	0x130
 1638 0987 91090000 		.4byte	0x991
 1639 098b 0D       		.uleb128 0xd
 1640 098c 5F030000 		.4byte	0x35f
 1641 0990 00       		.byte	0
 1642 0991 0A       		.uleb128 0xa
 1643 0992 04       		.byte	0x4
 1644 0993 82090000 		.4byte	0x982
 1645 0997 13       		.uleb128 0x13
 1646 0998 04       		.byte	0x4
 1647 0999 11       		.byte	0x11
 1648 099a 49       		.byte	0x49
 1649 099b AC090000 		.4byte	0x9ac
 1650 099f 12       		.uleb128 0x12
 1651 09a0 766D7400 		.ascii	"vmt\000"
 1652 09a4 11       		.byte	0x11
 1653 09a5 4B       		.byte	0x4b
ARM GAS  C:\Users\IDONNO~1.SON\AppData\Local\Temp\ccmr4iGZ.s 			page 30


 1654 09a6 AC090000 		.4byte	0x9ac
 1655 09aa 00       		.byte	0
 1656 09ab 00       		.byte	0
 1657 09ac 0A       		.uleb128 0xa
 1658 09ad 04       		.byte	0x4
 1659 09ae B2090000 		.4byte	0x9b2
 1660 09b2 16       		.uleb128 0x16
 1661 09b3 E2080000 		.4byte	0x8e2
 1662 09b7 03       		.uleb128 0x3
 1663 09b8 4E030000 		.4byte	.LASF136
 1664 09bc 11       		.byte	0x11
 1665 09bd 4D       		.byte	0x4d
 1666 09be 97090000 		.4byte	0x997
 1667 09c2 19       		.uleb128 0x19
 1668 09c3 30010000 		.4byte	0x130
 1669 09c7 DB090000 		.4byte	0x9db
 1670 09cb 0D       		.uleb128 0xd
 1671 09cc 5F030000 		.4byte	0x35f
 1672 09d0 0D       		.uleb128 0xd
 1673 09d1 AD000000 		.4byte	0xad
 1674 09d5 0D       		.uleb128 0xd
 1675 09d6 5C010000 		.4byte	0x15c
 1676 09da 00       		.byte	0
 1677 09db 0A       		.uleb128 0xa
 1678 09dc 04       		.byte	0x4
 1679 09dd C2090000 		.4byte	0x9c2
 1680 09e1 19       		.uleb128 0x19
 1681 09e2 30010000 		.4byte	0x130
 1682 09e6 F5090000 		.4byte	0x9f5
 1683 09ea 0D       		.uleb128 0xd
 1684 09eb 5F030000 		.4byte	0x35f
 1685 09ef 0D       		.uleb128 0xd
 1686 09f0 5C010000 		.4byte	0x15c
 1687 09f4 00       		.byte	0
 1688 09f5 0A       		.uleb128 0xa
 1689 09f6 04       		.byte	0x4
 1690 09f7 E1090000 		.4byte	0x9e1
 1691 09fb 19       		.uleb128 0x19
 1692 09fc 2C000000 		.4byte	0x2c
 1693 0a00 190A0000 		.4byte	0xa19
 1694 0a04 0D       		.uleb128 0xd
 1695 0a05 5F030000 		.4byte	0x35f
 1696 0a09 0D       		.uleb128 0xd
 1697 0a0a 38090000 		.4byte	0x938
 1698 0a0e 0D       		.uleb128 0xd
 1699 0a0f 2C000000 		.4byte	0x2c
 1700 0a13 0D       		.uleb128 0xd
 1701 0a14 5C010000 		.4byte	0x15c
 1702 0a18 00       		.byte	0
 1703 0a19 0A       		.uleb128 0xa
 1704 0a1a 04       		.byte	0x4
 1705 0a1b FB090000 		.4byte	0x9fb
 1706 0a1f 19       		.uleb128 0x19
 1707 0a20 2C000000 		.4byte	0x2c
 1708 0a24 3D0A0000 		.4byte	0xa3d
 1709 0a28 0D       		.uleb128 0xd
 1710 0a29 5F030000 		.4byte	0x35f
ARM GAS  C:\Users\IDONNO~1.SON\AppData\Local\Temp\ccmr4iGZ.s 			page 31


 1711 0a2d 0D       		.uleb128 0xd
 1712 0a2e C6080000 		.4byte	0x8c6
 1713 0a32 0D       		.uleb128 0xd
 1714 0a33 2C000000 		.4byte	0x2c
 1715 0a37 0D       		.uleb128 0xd
 1716 0a38 5C010000 		.4byte	0x15c
 1717 0a3c 00       		.byte	0
 1718 0a3d 0A       		.uleb128 0xa
 1719 0a3e 04       		.byte	0x4
 1720 0a3f 1F0A0000 		.4byte	0xa1f
 1721 0a43 04       		.uleb128 0x4
 1722 0a44 01       		.byte	0x1
 1723 0a45 02       		.byte	0x2
 1724 0a46 CC050000 		.4byte	.LASF137
 1725 0a4a 13       		.uleb128 0x13
 1726 0a4b 04       		.byte	0x4
 1727 0a4c 12       		.byte	0x12
 1728 0a4d B3       		.byte	0xb3
 1729 0a4e 6B0A0000 		.4byte	0xa6b
 1730 0a52 12       		.uleb128 0x12
 1731 0a53 73657400 		.ascii	"set\000"
 1732 0a57 12       		.byte	0x12
 1733 0a58 B4       		.byte	0xb4
 1734 0a59 B8000000 		.4byte	0xb8
 1735 0a5d 00       		.byte	0
 1736 0a5e 07       		.uleb128 0x7
 1737 0a5f E8040000 		.4byte	.LASF138
 1738 0a63 12       		.byte	0x12
 1739 0a64 B5       		.byte	0xb5
 1740 0a65 B8000000 		.4byte	0xb8
 1741 0a69 02       		.byte	0x2
 1742 0a6a 00       		.byte	0
 1743 0a6b 14       		.uleb128 0x14
 1744 0a6c 04       		.byte	0x4
 1745 0a6d 12       		.byte	0x12
 1746 0a6e B1       		.byte	0xb1
 1747 0a6f 860A0000 		.4byte	0xa86
 1748 0a73 1A       		.uleb128 0x1a
 1749 0a74 5700     		.ascii	"W\000"
 1750 0a76 12       		.byte	0x12
 1751 0a77 B2       		.byte	0xb2
 1752 0a78 CE000000 		.4byte	0xce
 1753 0a7c 1A       		.uleb128 0x1a
 1754 0a7d 4800     		.ascii	"H\000"
 1755 0a7f 12       		.byte	0x12
 1756 0a80 B6       		.byte	0xb6
 1757 0a81 4A0A0000 		.4byte	0xa4a
 1758 0a85 00       		.byte	0
 1759 0a86 13       		.uleb128 0x13
 1760 0a87 2C       		.byte	0x2c
 1761 0a88 12       		.byte	0x12
 1762 0a89 A9       		.byte	0xa9
 1763 0a8a 130B0000 		.4byte	0xb13
 1764 0a8e 07       		.uleb128 0x7
 1765 0a8f 8B010000 		.4byte	.LASF139
 1766 0a93 12       		.byte	0x12
 1767 0a94 AB       		.byte	0xab
ARM GAS  C:\Users\IDONNO~1.SON\AppData\Local\Temp\ccmr4iGZ.s 			page 32


 1768 0a95 E9000000 		.4byte	0xe9
 1769 0a99 00       		.byte	0
 1770 0a9a 07       		.uleb128 0x7
 1771 0a9b 84010000 		.4byte	.LASF140
 1772 0a9f 12       		.byte	0x12
 1773 0aa0 AC       		.byte	0xac
 1774 0aa1 E9000000 		.4byte	0xe9
 1775 0aa5 04       		.byte	0x4
 1776 0aa6 07       		.uleb128 0x7
 1777 0aa7 11030000 		.4byte	.LASF141
 1778 0aab 12       		.byte	0x12
 1779 0aac AD       		.byte	0xad
 1780 0aad E9000000 		.4byte	0xe9
 1781 0ab1 08       		.byte	0x8
 1782 0ab2 07       		.uleb128 0x7
 1783 0ab3 DC010000 		.4byte	.LASF142
 1784 0ab7 12       		.byte	0x12
 1785 0ab8 AE       		.byte	0xae
 1786 0ab9 E9000000 		.4byte	0xe9
 1787 0abd 0C       		.byte	0xc
 1788 0abe 12       		.uleb128 0x12
 1789 0abf 49445200 		.ascii	"IDR\000"
 1790 0ac3 12       		.byte	0x12
 1791 0ac4 AF       		.byte	0xaf
 1792 0ac5 E9000000 		.4byte	0xe9
 1793 0ac9 10       		.byte	0x10
 1794 0aca 12       		.uleb128 0x12
 1795 0acb 4F445200 		.ascii	"ODR\000"
 1796 0acf 12       		.byte	0x12
 1797 0ad0 B0       		.byte	0xb0
 1798 0ad1 E9000000 		.4byte	0xe9
 1799 0ad5 14       		.byte	0x14
 1800 0ad6 07       		.uleb128 0x7
 1801 0ad7 92020000 		.4byte	.LASF143
 1802 0adb 12       		.byte	0x12
 1803 0adc B7       		.byte	0xb7
 1804 0add 130B0000 		.4byte	0xb13
 1805 0ae1 18       		.byte	0x18
 1806 0ae2 07       		.uleb128 0x7
 1807 0ae3 82060000 		.4byte	.LASF144
 1808 0ae7 12       		.byte	0x12
 1809 0ae8 B8       		.byte	0xb8
 1810 0ae9 E9000000 		.4byte	0xe9
 1811 0aed 1C       		.byte	0x1c
 1812 0aee 07       		.uleb128 0x7
 1813 0aef 81050000 		.4byte	.LASF145
 1814 0af3 12       		.byte	0x12
 1815 0af4 B9       		.byte	0xb9
 1816 0af5 E9000000 		.4byte	0xe9
 1817 0af9 20       		.byte	0x20
 1818 0afa 07       		.uleb128 0x7
 1819 0afb 8F080000 		.4byte	.LASF146
 1820 0aff 12       		.byte	0x12
 1821 0b00 BA       		.byte	0xba
 1822 0b01 E9000000 		.4byte	0xe9
 1823 0b05 24       		.byte	0x24
 1824 0b06 12       		.uleb128 0x12
ARM GAS  C:\Users\IDONNO~1.SON\AppData\Local\Temp\ccmr4iGZ.s 			page 33


 1825 0b07 42525200 		.ascii	"BRR\000"
 1826 0b0b 12       		.byte	0x12
 1827 0b0c BB       		.byte	0xbb
 1828 0b0d E9000000 		.4byte	0xe9
 1829 0b11 28       		.byte	0x28
 1830 0b12 00       		.byte	0
 1831 0b13 05       		.uleb128 0x5
 1832 0b14 6B0A0000 		.4byte	0xa6b
 1833 0b18 03       		.uleb128 0x3
 1834 0b19 39030000 		.4byte	.LASF147
 1835 0b1d 12       		.byte	0x12
 1836 0b1e BC       		.byte	0xbc
 1837 0b1f 860A0000 		.4byte	0xa86
 1838 0b23 11       		.uleb128 0x11
 1839 0b24 14050000 		.4byte	.LASF148
 1840 0b28 12       		.byte	0x12
 1841 0b29 0E01     		.2byte	0x10e
 1842 0b2b CE000000 		.4byte	0xce
 1843 0b2f 1B       		.uleb128 0x1b
 1844 0b30 01       		.byte	0x1
 1845 0b31 50000000 		.4byte	0x50
 1846 0b35 13       		.byte	0x13
 1847 0b36 55       		.byte	0x55
 1848 0b37 4E0B0000 		.4byte	0xb4e
 1849 0b3b 1C       		.uleb128 0x1c
 1850 0b3c 9F060000 		.4byte	.LASF149
 1851 0b40 00       		.byte	0
 1852 0b41 1C       		.uleb128 0x1c
 1853 0b42 5E060000 		.4byte	.LASF150
 1854 0b46 01       		.byte	0x1
 1855 0b47 1C       		.uleb128 0x1c
 1856 0b48 BB070000 		.4byte	.LASF151
 1857 0b4c 02       		.byte	0x2
 1858 0b4d 00       		.byte	0
 1859 0b4e 03       		.uleb128 0x3
 1860 0b4f EF070000 		.4byte	.LASF152
 1861 0b53 13       		.byte	0x13
 1862 0b54 59       		.byte	0x59
 1863 0b55 2F0B0000 		.4byte	0xb2f
 1864 0b59 03       		.uleb128 0x3
 1865 0b5a D9060000 		.4byte	.LASF153
 1866 0b5e 13       		.byte	0x13
 1867 0b5f 5E       		.byte	0x5e
 1868 0b60 640B0000 		.4byte	0xb64
 1869 0b64 1D       		.uleb128 0x1d
 1870 0b65 D9060000 		.4byte	.LASF153
 1871 0b69 5802     		.2byte	0x258
 1872 0b6b 13       		.byte	0x13
 1873 0b6c 78       		.byte	0x78
 1874 0b6d D20B0000 		.4byte	0xbd2
 1875 0b71 12       		.uleb128 0x12
 1876 0b72 766D7400 		.ascii	"vmt\000"
 1877 0b76 13       		.byte	0x13
 1878 0b77 7A       		.byte	0x7a
 1879 0b78 830C0000 		.4byte	0xc83
 1880 0b7c 00       		.byte	0
 1881 0b7d 07       		.uleb128 0x7
ARM GAS  C:\Users\IDONNO~1.SON\AppData\Local\Temp\ccmr4iGZ.s 			page 34


 1882 0b7e E8030000 		.4byte	.LASF154
 1883 0b82 13       		.byte	0x13
 1884 0b83 7B       		.byte	0x7b
 1885 0b84 1C080000 		.4byte	0x81c
 1886 0b88 04       		.byte	0x4
 1887 0b89 07       		.uleb128 0x7
 1888 0b8a B6020000 		.4byte	.LASF155
 1889 0b8e 13       		.byte	0x13
 1890 0b8f 7B       		.byte	0x7b
 1891 0b90 4E0B0000 		.4byte	0xb4e
 1892 0b94 08       		.byte	0x8
 1893 0b95 07       		.uleb128 0x7
 1894 0b96 56080000 		.4byte	.LASF156
 1895 0b9a 13       		.byte	0x13
 1896 0b9b 7B       		.byte	0x7b
 1897 0b9c CC080000 		.4byte	0x8cc
 1898 0ba0 0C       		.byte	0xc
 1899 0ba1 07       		.uleb128 0x7
 1900 0ba2 10040000 		.4byte	.LASF157
 1901 0ba6 13       		.byte	0x13
 1902 0ba7 7B       		.byte	0x7b
 1903 0ba8 D7080000 		.4byte	0x8d7
 1904 0bac 30       		.byte	0x30
 1905 0bad 12       		.uleb128 0x12
 1906 0bae 696200   		.ascii	"ib\000"
 1907 0bb1 13       		.byte	0x13
 1908 0bb2 7B       		.byte	0x7b
 1909 0bb3 8E0C0000 		.4byte	0xc8e
 1910 0bb7 54       		.byte	0x54
 1911 0bb8 1E       		.uleb128 0x1e
 1912 0bb9 6F6200   		.ascii	"ob\000"
 1913 0bbc 13       		.byte	0x13
 1914 0bbd 7B       		.byte	0x7b
 1915 0bbe 8E0C0000 		.4byte	0xc8e
 1916 0bc2 5401     		.2byte	0x154
 1917 0bc4 1F       		.uleb128 0x1f
 1918 0bc5 87030000 		.4byte	.LASF158
 1919 0bc9 13       		.byte	0x13
 1920 0bca 7B       		.byte	0x7b
 1921 0bcb 9E0C0000 		.4byte	0xc9e
 1922 0bcf 5402     		.2byte	0x254
 1923 0bd1 00       		.byte	0
 1924 0bd2 13       		.uleb128 0x13
 1925 0bd3 0C       		.byte	0xc
 1926 0bd4 14       		.byte	0x14
 1927 0bd5 D7       		.byte	0xd7
 1928 0bd6 0B0C0000 		.4byte	0xc0b
 1929 0bda 07       		.uleb128 0x7
 1930 0bdb 62040000 		.4byte	.LASF159
 1931 0bdf 14       		.byte	0x14
 1932 0be0 DB       		.byte	0xdb
 1933 0be1 CE000000 		.4byte	0xce
 1934 0be5 00       		.byte	0
 1935 0be6 12       		.uleb128 0x12
 1936 0be7 63723100 		.ascii	"cr1\000"
 1937 0beb 14       		.byte	0x14
 1938 0bec E0       		.byte	0xe0
ARM GAS  C:\Users\IDONNO~1.SON\AppData\Local\Temp\ccmr4iGZ.s 			page 35


 1939 0bed B8000000 		.4byte	0xb8
 1940 0bf1 04       		.byte	0x4
 1941 0bf2 12       		.uleb128 0x12
 1942 0bf3 63723200 		.ascii	"cr2\000"
 1943 0bf7 14       		.byte	0x14
 1944 0bf8 E4       		.byte	0xe4
 1945 0bf9 B8000000 		.4byte	0xb8
 1946 0bfd 06       		.byte	0x6
 1947 0bfe 12       		.uleb128 0x12
 1948 0bff 63723300 		.ascii	"cr3\000"
 1949 0c03 14       		.byte	0x14
 1950 0c04 E8       		.byte	0xe8
 1951 0c05 B8000000 		.4byte	0xb8
 1952 0c09 08       		.byte	0x8
 1953 0c0a 00       		.byte	0
 1954 0c0b 03       		.uleb128 0x3
 1955 0c0c 63050000 		.4byte	.LASF160
 1956 0c10 14       		.byte	0x14
 1957 0c11 E9       		.byte	0xe9
 1958 0c12 D20B0000 		.4byte	0xbd2
 1959 0c16 06       		.uleb128 0x6
 1960 0c17 AB030000 		.4byte	.LASF161
 1961 0c1b 20       		.byte	0x20
 1962 0c1c 13       		.byte	0x13
 1963 0c1d 6D       		.byte	0x6d
 1964 0c1e 830C0000 		.4byte	0xc83
 1965 0c22 07       		.uleb128 0x7
 1966 0c23 8C040000 		.4byte	.LASF134
 1967 0c27 13       		.byte	0x13
 1968 0c28 6E       		.byte	0x6e
 1969 0c29 43090000 		.4byte	0x943
 1970 0c2d 00       		.byte	0
 1971 0c2e 07       		.uleb128 0x7
 1972 0c2f F8060000 		.4byte	.LASF135
 1973 0c33 13       		.byte	0x13
 1974 0c34 6E       		.byte	0x6e
 1975 0c35 62090000 		.4byte	0x962
 1976 0c39 04       		.byte	0x4
 1977 0c3a 12       		.uleb128 0x12
 1978 0c3b 70757400 		.ascii	"put\000"
 1979 0c3f 13       		.byte	0x13
 1980 0c40 6E       		.byte	0x6e
 1981 0c41 7C090000 		.4byte	0x97c
 1982 0c45 08       		.byte	0x8
 1983 0c46 12       		.uleb128 0x12
 1984 0c47 67657400 		.ascii	"get\000"
 1985 0c4b 13       		.byte	0x13
 1986 0c4c 6E       		.byte	0x6e
 1987 0c4d 91090000 		.4byte	0x991
 1988 0c51 0C       		.byte	0xc
 1989 0c52 07       		.uleb128 0x7
 1990 0c53 A0040000 		.4byte	.LASF162
 1991 0c57 13       		.byte	0x13
 1992 0c58 6E       		.byte	0x6e
 1993 0c59 DB090000 		.4byte	0x9db
 1994 0c5d 10       		.byte	0x10
 1995 0c5e 07       		.uleb128 0x7
ARM GAS  C:\Users\IDONNO~1.SON\AppData\Local\Temp\ccmr4iGZ.s 			page 36


 1996 0c5f DD030000 		.4byte	.LASF163
 1997 0c63 13       		.byte	0x13
 1998 0c64 6E       		.byte	0x6e
 1999 0c65 F5090000 		.4byte	0x9f5
 2000 0c69 14       		.byte	0x14
 2001 0c6a 07       		.uleb128 0x7
 2002 0c6b 39040000 		.4byte	.LASF164
 2003 0c6f 13       		.byte	0x13
 2004 0c70 6E       		.byte	0x6e
 2005 0c71 190A0000 		.4byte	0xa19
 2006 0c75 18       		.byte	0x18
 2007 0c76 07       		.uleb128 0x7
 2008 0c77 5B020000 		.4byte	.LASF165
 2009 0c7b 13       		.byte	0x13
 2010 0c7c 6E       		.byte	0x6e
 2011 0c7d 3D0A0000 		.4byte	0xa3d
 2012 0c81 1C       		.byte	0x1c
 2013 0c82 00       		.byte	0
 2014 0c83 0A       		.uleb128 0xa
 2015 0c84 04       		.byte	0x4
 2016 0c85 890C0000 		.4byte	0xc89
 2017 0c89 16       		.uleb128 0x16
 2018 0c8a 160C0000 		.4byte	0xc16
 2019 0c8e 17       		.uleb128 0x17
 2020 0c8f AD000000 		.4byte	0xad
 2021 0c93 9E0C0000 		.4byte	0xc9e
 2022 0c97 18       		.uleb128 0x18
 2023 0c98 95040000 		.4byte	0x495
 2024 0c9c FF       		.byte	0xff
 2025 0c9d 00       		.byte	0
 2026 0c9e 0A       		.uleb128 0xa
 2027 0c9f 04       		.byte	0x4
 2028 0ca0 FF040000 		.4byte	0x4ff
 2029 0ca4 0A       		.uleb128 0xa
 2030 0ca5 04       		.byte	0x4
 2031 0ca6 D7080000 		.4byte	0x8d7
 2032 0caa 0A       		.uleb128 0xa
 2033 0cab 04       		.byte	0x4
 2034 0cac 6C070000 		.4byte	0x76c
 2035 0cb0 04       		.uleb128 0x4
 2036 0cb1 08       		.byte	0x8
 2037 0cb2 04       		.byte	0x4
 2038 0cb3 9C080000 		.4byte	.LASF166
 2039 0cb7 04       		.uleb128 0x4
 2040 0cb8 04       		.byte	0x4
 2041 0cb9 04       		.byte	0x4
 2042 0cba 7B050000 		.4byte	.LASF167
 2043 0cbe 04       		.uleb128 0x4
 2044 0cbf 08       		.byte	0x8
 2045 0cc0 04       		.byte	0x4
 2046 0cc1 05030000 		.4byte	.LASF168
 2047 0cc5 03       		.uleb128 0x3
 2048 0cc6 F4040000 		.4byte	.LASF169
 2049 0cca 15       		.byte	0x15
 2050 0ccb 28       		.byte	0x28
 2051 0ccc D00C0000 		.4byte	0xcd0
 2052 0cd0 06       		.uleb128 0x6
ARM GAS  C:\Users\IDONNO~1.SON\AppData\Local\Temp\ccmr4iGZ.s 			page 37


 2053 0cd1 CF020000 		.4byte	.LASF170
 2054 0cd5 04       		.byte	0x4
 2055 0cd6 16       		.byte	0x16
 2056 0cd7 00       		.byte	0
 2057 0cd8 E70C0000 		.4byte	0xce7
 2058 0cdc 20       		.uleb128 0x20
 2059 0cdd 7F070000 		.4byte	.LASF171
 2060 0ce1 5F030000 		.4byte	0x35f
 2061 0ce5 00       		.byte	0
 2062 0ce6 00       		.byte	0
 2063 0ce7 03       		.uleb128 0x3
 2064 0ce8 49000000 		.4byte	.LASF172
 2065 0cec 15       		.byte	0x15
 2066 0ced 62       		.byte	0x62
 2067 0cee C50C0000 		.4byte	0xcc5
 2068 0cf2 21       		.uleb128 0x21
 2069 0cf3 4C020000 		.4byte	.LASF190
 2070 0cf7 03       		.byte	0x3
 2071 0cf8 A801     		.2byte	0x1a8
 2072 0cfa 30010000 		.4byte	0x130
 2073 0cfe 03       		.byte	0x3
 2074 0cff 1A0D0000 		.4byte	0xd1a
 2075 0d03 22       		.uleb128 0x22
 2076 0d04 6F717000 		.ascii	"oqp\000"
 2077 0d08 03       		.byte	0x3
 2078 0d09 A801     		.2byte	0x1a8
 2079 0d0b A40C0000 		.4byte	0xca4
 2080 0d0f 22       		.uleb128 0x22
 2081 0d10 6200     		.ascii	"b\000"
 2082 0d12 03       		.byte	0x3
 2083 0d13 A801     		.2byte	0x1a8
 2084 0d15 AD000000 		.4byte	0xad
 2085 0d19 00       		.byte	0
 2086 0d1a 23       		.uleb128 0x23
 2087 0d1b CA080000 		.4byte	.LASF191
 2088 0d1f 01       		.byte	0x1
 2089 0d20 45       		.byte	0x45
 2090 0d21 25000000 		.4byte	0x25
 2091 0d25 00000000 		.4byte	.LFB257
 2092 0d29 1C000000 		.4byte	.LFE257-.LFB257
 2093 0d2d 01       		.uleb128 0x1
 2094 0d2e 9C       		.byte	0x9c
 2095 0d2f 8A0D0000 		.4byte	0xd8a
 2096 0d33 24       		.uleb128 0x24
 2097 0d34 63687000 		.ascii	"chp\000"
 2098 0d38 01       		.byte	0x1
 2099 0d39 45       		.byte	0x45
 2100 0d3a 8A0D0000 		.4byte	0xd8a
 2101 0d3e 00000000 		.4byte	.LLST0
 2102 0d42 25       		.uleb128 0x25
 2103 0d43 666D7400 		.ascii	"fmt\000"
 2104 0d47 01       		.byte	0x1
 2105 0d48 45       		.byte	0x45
 2106 0d49 66070000 		.4byte	0x766
 2107 0d4d 02       		.uleb128 0x2
 2108 0d4e 91       		.byte	0x91
 2109 0d4f 74       		.sleb128 -12
ARM GAS  C:\Users\IDONNO~1.SON\AppData\Local\Temp\ccmr4iGZ.s 			page 38


 2110 0d50 26       		.uleb128 0x26
 2111 0d51 27       		.uleb128 0x27
 2112 0d52 617000   		.ascii	"ap\000"
 2113 0d55 01       		.byte	0x1
 2114 0d56 46       		.byte	0x46
 2115 0d57 E70C0000 		.4byte	0xce7
 2116 0d5b 02       		.uleb128 0x2
 2117 0d5c 91       		.byte	0x91
 2118 0d5d 6C       		.sleb128 -20
 2119 0d5e 28       		.uleb128 0x28
 2120 0d5f CC010000 		.4byte	.LASF173
 2121 0d63 01       		.byte	0x1
 2122 0d64 47       		.byte	0x47
 2123 0d65 25000000 		.4byte	0x25
 2124 0d69 01       		.uleb128 0x1
 2125 0d6a 50       		.byte	0x50
 2126 0d6b 29       		.uleb128 0x29
 2127 0d6c 12000000 		.4byte	.LVL1
 2128 0d70 DF0F0000 		.4byte	0xfdf
 2129 0d74 2A       		.uleb128 0x2a
 2130 0d75 01       		.uleb128 0x1
 2131 0d76 50       		.byte	0x50
 2132 0d77 03       		.uleb128 0x3
 2133 0d78 F3       		.byte	0xf3
 2134 0d79 01       		.uleb128 0x1
 2135 0d7a 50       		.byte	0x50
 2136 0d7b 2A       		.uleb128 0x2a
 2137 0d7c 01       		.uleb128 0x1
 2138 0d7d 51       		.byte	0x51
 2139 0d7e 03       		.uleb128 0x3
 2140 0d7f 91       		.byte	0x91
 2141 0d80 5C       		.sleb128 -36
 2142 0d81 06       		.byte	0x6
 2143 0d82 2A       		.uleb128 0x2a
 2144 0d83 01       		.uleb128 0x1
 2145 0d84 52       		.byte	0x52
 2146 0d85 02       		.uleb128 0x2
 2147 0d86 91       		.byte	0x91
 2148 0d87 60       		.sleb128 -32
 2149 0d88 00       		.byte	0
 2150 0d89 00       		.byte	0
 2151 0d8a 0A       		.uleb128 0xa
 2152 0d8b 04       		.byte	0x4
 2153 0d8c B7090000 		.4byte	0x9b7
 2154 0d90 2B       		.uleb128 0x2b
 2155 0d91 03050000 		.4byte	.LASF174
 2156 0d95 02       		.byte	0x2
 2157 0d96 1E       		.byte	0x1e
 2158 0d97 00000000 		.4byte	.LFB258
 2159 0d9b 38000000 		.4byte	.LFE258-.LFB258
 2160 0d9f 01       		.uleb128 0x1
 2161 0da0 9C       		.byte	0x9c
 2162 0da1 000E0000 		.4byte	0xe00
 2163 0da5 2C       		.uleb128 0x2c
 2164 0da6 0C000000 		.4byte	.LVL2
 2165 0daa EA0F0000 		.4byte	0xfea
 2166 0dae BC0D0000 		.4byte	0xdbc
ARM GAS  C:\Users\IDONNO~1.SON\AppData\Local\Temp\ccmr4iGZ.s 			page 39


 2167 0db2 2A       		.uleb128 0x2a
 2168 0db3 01       		.uleb128 0x1
 2169 0db4 51       		.byte	0x51
 2170 0db5 05       		.uleb128 0x5
 2171 0db6 03       		.byte	0x3
 2172 0db7 00000000 		.4byte	.LANCHOR0
 2173 0dbb 00       		.byte	0
 2174 0dbc 2C       		.uleb128 0x2c
 2175 0dbd 1A000000 		.4byte	.LVL3
 2176 0dc1 F60F0000 		.4byte	0xff6
 2177 0dc5 DE0D0000 		.4byte	0xdde
 2178 0dc9 2A       		.uleb128 0x2a
 2179 0dca 01       		.uleb128 0x1
 2180 0dcb 50       		.byte	0x50
 2181 0dcc 02       		.uleb128 0x2
 2182 0dcd 74       		.byte	0x74
 2183 0dce 00       		.sleb128 0
 2184 0dcf 2A       		.uleb128 0x2a
 2185 0dd0 01       		.uleb128 0x1
 2186 0dd1 51       		.byte	0x51
 2187 0dd2 03       		.uleb128 0x3
 2188 0dd3 0A       		.byte	0xa
 2189 0dd4 0004     		.2byte	0x400
 2190 0dd6 2A       		.uleb128 0x2a
 2191 0dd7 01       		.uleb128 0x1
 2192 0dd8 52       		.byte	0x52
 2193 0dd9 03       		.uleb128 0x3
 2194 0dda 0A       		.byte	0xa
 2195 0ddb 8203     		.2byte	0x382
 2196 0ddd 00       		.byte	0
 2197 0dde 2D       		.uleb128 0x2d
 2198 0ddf 2C000000 		.4byte	.LVL4
 2199 0de3 F60F0000 		.4byte	0xff6
 2200 0de7 2A       		.uleb128 0x2a
 2201 0de8 01       		.uleb128 0x1
 2202 0de9 50       		.byte	0x50
 2203 0dea 05       		.uleb128 0x5
 2204 0deb 0C       		.byte	0xc
 2205 0dec 00080240 		.4byte	0x40020800
 2206 0df0 2A       		.uleb128 0x2a
 2207 0df1 01       		.uleb128 0x1
 2208 0df2 51       		.byte	0x51
 2209 0df3 03       		.uleb128 0x3
 2210 0df4 0A       		.byte	0xa
 2211 0df5 0008     		.2byte	0x800
 2212 0df7 2A       		.uleb128 0x2a
 2213 0df8 01       		.uleb128 0x1
 2214 0df9 52       		.byte	0x52
 2215 0dfa 03       		.uleb128 0x3
 2216 0dfb 0A       		.byte	0xa
 2217 0dfc 8203     		.2byte	0x382
 2218 0dfe 00       		.byte	0
 2219 0dff 00       		.byte	0
 2220 0e00 2B       		.uleb128 0x2b
 2221 0e01 66060000 		.4byte	.LASF175
 2222 0e05 02       		.byte	0x2
 2223 0e06 2F       		.byte	0x2f
ARM GAS  C:\Users\IDONNO~1.SON\AppData\Local\Temp\ccmr4iGZ.s 			page 40


 2224 0e07 00000000 		.4byte	.LFB259
 2225 0e0b 24000000 		.4byte	.LFE259-.LFB259
 2226 0e0f 01       		.uleb128 0x1
 2227 0e10 9C       		.byte	0x9c
 2228 0e11 2F0E0000 		.4byte	0xe2f
 2229 0e15 24       		.uleb128 0x24
 2230 0e16 7000     		.ascii	"p\000"
 2231 0e18 02       		.byte	0x2
 2232 0e19 2F       		.byte	0x2f
 2233 0e1a AA0C0000 		.4byte	0xcaa
 2234 0e1e 21000000 		.4byte	.LLST1
 2235 0e22 2E       		.uleb128 0x2e
 2236 0e23 12000000 		.4byte	.LVL7
 2237 0e27 2A       		.uleb128 0x2a
 2238 0e28 01       		.uleb128 0x1
 2239 0e29 50       		.byte	0x50
 2240 0e2a 02       		.uleb128 0x2
 2241 0e2b 75       		.byte	0x75
 2242 0e2c 00       		.sleb128 0
 2243 0e2d 00       		.byte	0
 2244 0e2e 00       		.byte	0
 2245 0e2f 2B       		.uleb128 0x2b
 2246 0e30 C4070000 		.4byte	.LASF176
 2247 0e34 02       		.byte	0x2
 2248 0e35 34       		.byte	0x34
 2249 0e36 00000000 		.4byte	.LFB260
 2250 0e3a 38000000 		.4byte	.LFE260-.LFB260
 2251 0e3e 01       		.uleb128 0x1
 2252 0e3f 9C       		.byte	0x9c
 2253 0e40 760E0000 		.4byte	0xe76
 2254 0e44 24       		.uleb128 0x24
 2255 0e45 7000     		.ascii	"p\000"
 2256 0e47 02       		.byte	0x2
 2257 0e48 34       		.byte	0x34
 2258 0e49 AA0C0000 		.4byte	0xcaa
 2259 0e4d 57000000 		.4byte	.LLST2
 2260 0e51 2F       		.uleb128 0x2f
 2261 0e52 12000000 		.4byte	.LVL12
 2262 0e56 610E0000 		.4byte	0xe61
 2263 0e5a 2A       		.uleb128 0x2a
 2264 0e5b 01       		.uleb128 0x1
 2265 0e5c 50       		.byte	0x50
 2266 0e5d 02       		.uleb128 0x2
 2267 0e5e 75       		.byte	0x75
 2268 0e5f 00       		.sleb128 0
 2269 0e60 00       		.byte	0
 2270 0e61 30       		.uleb128 0x30
 2271 0e62 2A000000 		.4byte	.LVL15
 2272 0e66 2A       		.uleb128 0x2a
 2273 0e67 01       		.uleb128 0x1
 2274 0e68 51       		.byte	0x51
 2275 0e69 05       		.uleb128 0x5
 2276 0e6a 03       		.byte	0x3
 2277 0e6b 00000000 		.4byte	.LC0
 2278 0e6f 2A       		.uleb128 0x2a
 2279 0e70 01       		.uleb128 0x1
 2280 0e71 52       		.byte	0x52
ARM GAS  C:\Users\IDONNO~1.SON\AppData\Local\Temp\ccmr4iGZ.s 			page 41


 2281 0e72 01       		.uleb128 0x1
 2282 0e73 32       		.byte	0x32
 2283 0e74 00       		.byte	0
 2284 0e75 00       		.byte	0
 2285 0e76 2B       		.uleb128 0x2b
 2286 0e77 6B020000 		.4byte	.LASF177
 2287 0e7b 02       		.byte	0x2
 2288 0e7c 3A       		.byte	0x3a
 2289 0e7d 00000000 		.4byte	.LFB261
 2290 0e81 5C000000 		.4byte	.LFE261-.LFB261
 2291 0e85 01       		.uleb128 0x1
 2292 0e86 9C       		.byte	0x9c
 2293 0e87 D00E0000 		.4byte	0xed0
 2294 0e8b 24       		.uleb128 0x24
 2295 0e8c 6E00     		.ascii	"n\000"
 2296 0e8e 02       		.byte	0x2
 2297 0e8f 3A       		.byte	0x3a
 2298 0e90 CE000000 		.4byte	0xce
 2299 0e94 8D000000 		.4byte	.LLST3
 2300 0e98 27       		.uleb128 0x27
 2301 0e99 62756600 		.ascii	"buf\000"
 2302 0e9d 02       		.byte	0x2
 2303 0e9e 3C       		.byte	0x3c
 2304 0e9f D00E0000 		.4byte	0xed0
 2305 0ea3 02       		.uleb128 0x2
 2306 0ea4 91       		.byte	0x91
 2307 0ea5 60       		.sleb128 -32
 2308 0ea6 31       		.uleb128 0x31
 2309 0ea7 7000     		.ascii	"p\000"
 2310 0ea9 02       		.byte	0x2
 2311 0eaa 3C       		.byte	0x3c
 2312 0eab AA0C0000 		.4byte	0xcaa
 2313 0eaf C4000000 		.4byte	.LLST4
 2314 0eb3 2F       		.uleb128 0x2f
 2315 0eb4 40000000 		.4byte	.LVL23
 2316 0eb8 C30E0000 		.4byte	0xec3
 2317 0ebc 2A       		.uleb128 0x2a
 2318 0ebd 01       		.uleb128 0x1
 2319 0ebe 50       		.byte	0x50
 2320 0ebf 02       		.uleb128 0x2
 2321 0ec0 76       		.byte	0x76
 2322 0ec1 00       		.sleb128 0
 2323 0ec2 00       		.byte	0
 2324 0ec3 30       		.uleb128 0x30
 2325 0ec4 52000000 		.4byte	.LVL27
 2326 0ec8 2A       		.uleb128 0x2a
 2327 0ec9 01       		.uleb128 0x1
 2328 0eca 51       		.byte	0x51
 2329 0ecb 02       		.uleb128 0x2
 2330 0ecc 08       		.byte	0x8
 2331 0ecd 30       		.byte	0x30
 2332 0ece 00       		.byte	0
 2333 0ecf 00       		.byte	0
 2334 0ed0 17       		.uleb128 0x17
 2335 0ed1 6C070000 		.4byte	0x76c
 2336 0ed5 E00E0000 		.4byte	0xee0
 2337 0ed9 18       		.uleb128 0x18
ARM GAS  C:\Users\IDONNO~1.SON\AppData\Local\Temp\ccmr4iGZ.s 			page 42


 2338 0eda 95040000 		.4byte	0x495
 2339 0ede 0F       		.byte	0xf
 2340 0edf 00       		.byte	0
 2341 0ee0 2B       		.uleb128 0x2b
 2342 0ee1 2E020000 		.4byte	.LASF178
 2343 0ee5 02       		.byte	0x2
 2344 0ee6 48       		.byte	0x48
 2345 0ee7 00000000 		.4byte	.LFB262
 2346 0eeb 24000000 		.4byte	.LFE262-.LFB262
 2347 0eef 01       		.uleb128 0x1
 2348 0ef0 9C       		.byte	0x9c
 2349 0ef1 590F0000 		.4byte	0xf59
 2350 0ef5 24       		.uleb128 0x24
 2351 0ef6 73647000 		.ascii	"sdp\000"
 2352 0efa 02       		.byte	0x2
 2353 0efb 48       		.byte	0x48
 2354 0efc 590F0000 		.4byte	0xf59
 2355 0f00 EF000000 		.4byte	.LLST5
 2356 0f04 32       		.uleb128 0x32
 2357 0f05 A9060000 		.4byte	.LASF179
 2358 0f09 02       		.byte	0x2
 2359 0f0a 48       		.byte	0x48
 2360 0f0b 66070000 		.4byte	0x766
 2361 0f0f 1D010000 		.4byte	.LLST6
 2362 0f13 31       		.uleb128 0x31
 2363 0f14 6900     		.ascii	"i\000"
 2364 0f16 02       		.byte	0x2
 2365 0f17 4A       		.byte	0x4a
 2366 0f18 AD000000 		.4byte	0xad
 2367 0f1c 3B010000 		.4byte	.LLST7
 2368 0f20 33       		.uleb128 0x33
 2369 0f21 F20C0000 		.4byte	0xcf2
 2370 0f25 12000000 		.4byte	.LBB4
 2371 0f29 0A000000 		.4byte	.LBE4-.LBB4
 2372 0f2d 02       		.byte	0x2
 2373 0f2e 4C       		.byte	0x4c
 2374 0f2f 34       		.uleb128 0x34
 2375 0f30 0F0D0000 		.4byte	0xd0f
 2376 0f34 65010000 		.4byte	.LLST8
 2377 0f38 34       		.uleb128 0x34
 2378 0f39 030D0000 		.4byte	0xd03
 2379 0f3d 78010000 		.4byte	.LLST9
 2380 0f41 29       		.uleb128 0x29
 2381 0f42 1C000000 		.4byte	.LVL32
 2382 0f46 02100000 		.4byte	0x1002
 2383 0f4a 2A       		.uleb128 0x2a
 2384 0f4b 01       		.uleb128 0x1
 2385 0f4c 50       		.byte	0x50
 2386 0f4d 02       		.uleb128 0x2
 2387 0f4e 75       		.byte	0x75
 2388 0f4f 00       		.sleb128 0
 2389 0f50 2A       		.uleb128 0x2a
 2390 0f51 01       		.uleb128 0x1
 2391 0f52 52       		.byte	0x52
 2392 0f53 02       		.uleb128 0x2
 2393 0f54 09       		.byte	0x9
 2394 0f55 FF       		.byte	0xff
ARM GAS  C:\Users\IDONNO~1.SON\AppData\Local\Temp\ccmr4iGZ.s 			page 43


 2395 0f56 00       		.byte	0
 2396 0f57 00       		.byte	0
 2397 0f58 00       		.byte	0
 2398 0f59 0A       		.uleb128 0xa
 2399 0f5a 04       		.byte	0x4
 2400 0f5b 590B0000 		.4byte	0xb59
 2401 0f5f 2B       		.uleb128 0x2b
 2402 0f60 3F020000 		.4byte	.LASF180
 2403 0f64 02       		.byte	0x2
 2404 0f65 4F       		.byte	0x4f
 2405 0f66 00000000 		.4byte	.LFB263
 2406 0f6a 12000000 		.4byte	.LFE263-.LFB263
 2407 0f6e 01       		.uleb128 0x1
 2408 0f6f 9C       		.byte	0x9c
 2409 0f70 AB0F0000 		.4byte	0xfab
 2410 0f74 24       		.uleb128 0x24
 2411 0f75 63687000 		.ascii	"chp\000"
 2412 0f79 02       		.byte	0x2
 2413 0f7a 4F       		.byte	0x4f
 2414 0f7b 8A0D0000 		.4byte	0xd8a
 2415 0f7f 8B010000 		.4byte	.LLST10
 2416 0f83 25       		.uleb128 0x25
 2417 0f84 666D7400 		.ascii	"fmt\000"
 2418 0f88 02       		.byte	0x2
 2419 0f89 4F       		.byte	0x4f
 2420 0f8a 66070000 		.4byte	0x766
 2421 0f8e 02       		.uleb128 0x2
 2422 0f8f 91       		.byte	0x91
 2423 0f90 74       		.sleb128 -12
 2424 0f91 26       		.uleb128 0x26
 2425 0f92 29       		.uleb128 0x29
 2426 0f93 0A000000 		.4byte	.LVL35
 2427 0f97 1A0D0000 		.4byte	0xd1a
 2428 0f9b 2A       		.uleb128 0x2a
 2429 0f9c 01       		.uleb128 0x1
 2430 0f9d 50       		.byte	0x50
 2431 0f9e 03       		.uleb128 0x3
 2432 0f9f F3       		.byte	0xf3
 2433 0fa0 01       		.uleb128 0x1
 2434 0fa1 50       		.byte	0x50
 2435 0fa2 2A       		.uleb128 0x2a
 2436 0fa3 01       		.uleb128 0x1
 2437 0fa4 51       		.byte	0x51
 2438 0fa5 03       		.uleb128 0x3
 2439 0fa6 91       		.byte	0x91
 2440 0fa7 5C       		.sleb128 -36
 2441 0fa8 06       		.byte	0x6
 2442 0fa9 00       		.byte	0
 2443 0faa 00       		.byte	0
 2444 0fab 28       		.uleb128 0x28
 2445 0fac A5040000 		.4byte	.LASF181
 2446 0fb0 02       		.byte	0x2
 2447 0fb1 17       		.byte	0x17
 2448 0fb2 0B0C0000 		.4byte	0xc0b
 2449 0fb6 05       		.uleb128 0x5
 2450 0fb7 03       		.byte	0x3
 2451 0fb8 00000000 		.4byte	sd3cfg
ARM GAS  C:\Users\IDONNO~1.SON\AppData\Local\Temp\ccmr4iGZ.s 			page 44


 2452 0fbc 35       		.uleb128 0x35
 2453 0fbd 16020000 		.4byte	.LASF182
 2454 0fc1 17       		.byte	0x17
 2455 0fc2 A706     		.2byte	0x6a7
 2456 0fc4 E4000000 		.4byte	0xe4
 2457 0fc8 36       		.uleb128 0x36
 2458 0fc9 636800   		.ascii	"ch\000"
 2459 0fcc 09       		.byte	0x9
 2460 0fcd 0902     		.2byte	0x209
 2461 0fcf 2E040000 		.4byte	0x42e
 2462 0fd3 36       		.uleb128 0x36
 2463 0fd4 53443300 		.ascii	"SD3\000"
 2464 0fd8 14       		.byte	0x14
 2465 0fd9 1501     		.2byte	0x115
 2466 0fdb 590B0000 		.4byte	0xb59
 2467 0fdf 37       		.uleb128 0x37
 2468 0fe0 45080000 		.4byte	.LASF183
 2469 0fe4 45080000 		.4byte	.LASF183
 2470 0fe8 01       		.byte	0x1
 2471 0fe9 28       		.byte	0x28
 2472 0fea 38       		.uleb128 0x38
 2473 0feb 02070000 		.4byte	.LASF184
 2474 0fef 02070000 		.4byte	.LASF184
 2475 0ff3 13       		.byte	0x13
 2476 0ff4 2801     		.2byte	0x128
 2477 0ff6 38       		.uleb128 0x38
 2478 0ff7 8C070000 		.4byte	.LASF185
 2479 0ffb 8C070000 		.4byte	.LASF185
 2480 0fff 12       		.byte	0x12
 2481 1000 E001     		.2byte	0x1e0
 2482 1002 37       		.uleb128 0x37
 2483 1003 00000000 		.4byte	.LASF186
 2484 1007 00000000 		.4byte	.LASF186
 2485 100b 03       		.byte	0x3
 2486 100c F9       		.byte	0xf9
 2487 100d 00       		.byte	0
 2488              		.section	.debug_abbrev,"",%progbits
 2489              	.Ldebug_abbrev0:
 2490 0000 01       		.uleb128 0x1
 2491 0001 11       		.uleb128 0x11
 2492 0002 01       		.byte	0x1
 2493 0003 25       		.uleb128 0x25
 2494 0004 0E       		.uleb128 0xe
 2495 0005 13       		.uleb128 0x13
 2496 0006 0B       		.uleb128 0xb
 2497 0007 03       		.uleb128 0x3
 2498 0008 0E       		.uleb128 0xe
 2499 0009 1B       		.uleb128 0x1b
 2500 000a 0E       		.uleb128 0xe
 2501 000b 55       		.uleb128 0x55
 2502 000c 17       		.uleb128 0x17
 2503 000d 11       		.uleb128 0x11
 2504 000e 01       		.uleb128 0x1
 2505 000f 10       		.uleb128 0x10
 2506 0010 17       		.uleb128 0x17
 2507 0011 00       		.byte	0
 2508 0012 00       		.byte	0
ARM GAS  C:\Users\IDONNO~1.SON\AppData\Local\Temp\ccmr4iGZ.s 			page 45


 2509 0013 02       		.uleb128 0x2
 2510 0014 24       		.uleb128 0x24
 2511 0015 00       		.byte	0
 2512 0016 0B       		.uleb128 0xb
 2513 0017 0B       		.uleb128 0xb
 2514 0018 3E       		.uleb128 0x3e
 2515 0019 0B       		.uleb128 0xb
 2516 001a 03       		.uleb128 0x3
 2517 001b 08       		.uleb128 0x8
 2518 001c 00       		.byte	0
 2519 001d 00       		.byte	0
 2520 001e 03       		.uleb128 0x3
 2521 001f 16       		.uleb128 0x16
 2522 0020 00       		.byte	0
 2523 0021 03       		.uleb128 0x3
 2524 0022 0E       		.uleb128 0xe
 2525 0023 3A       		.uleb128 0x3a
 2526 0024 0B       		.uleb128 0xb
 2527 0025 3B       		.uleb128 0x3b
 2528 0026 0B       		.uleb128 0xb
 2529 0027 49       		.uleb128 0x49
 2530 0028 13       		.uleb128 0x13
 2531 0029 00       		.byte	0
 2532 002a 00       		.byte	0
 2533 002b 04       		.uleb128 0x4
 2534 002c 24       		.uleb128 0x24
 2535 002d 00       		.byte	0
 2536 002e 0B       		.uleb128 0xb
 2537 002f 0B       		.uleb128 0xb
 2538 0030 3E       		.uleb128 0x3e
 2539 0031 0B       		.uleb128 0xb
 2540 0032 03       		.uleb128 0x3
 2541 0033 0E       		.uleb128 0xe
 2542 0034 00       		.byte	0
 2543 0035 00       		.byte	0
 2544 0036 05       		.uleb128 0x5
 2545 0037 35       		.uleb128 0x35
 2546 0038 00       		.byte	0
 2547 0039 49       		.uleb128 0x49
 2548 003a 13       		.uleb128 0x13
 2549 003b 00       		.byte	0
 2550 003c 00       		.byte	0
 2551 003d 06       		.uleb128 0x6
 2552 003e 13       		.uleb128 0x13
 2553 003f 01       		.byte	0x1
 2554 0040 03       		.uleb128 0x3
 2555 0041 0E       		.uleb128 0xe
 2556 0042 0B       		.uleb128 0xb
 2557 0043 0B       		.uleb128 0xb
 2558 0044 3A       		.uleb128 0x3a
 2559 0045 0B       		.uleb128 0xb
 2560 0046 3B       		.uleb128 0x3b
 2561 0047 0B       		.uleb128 0xb
 2562 0048 01       		.uleb128 0x1
 2563 0049 13       		.uleb128 0x13
 2564 004a 00       		.byte	0
 2565 004b 00       		.byte	0
ARM GAS  C:\Users\IDONNO~1.SON\AppData\Local\Temp\ccmr4iGZ.s 			page 46


 2566 004c 07       		.uleb128 0x7
 2567 004d 0D       		.uleb128 0xd
 2568 004e 00       		.byte	0
 2569 004f 03       		.uleb128 0x3
 2570 0050 0E       		.uleb128 0xe
 2571 0051 3A       		.uleb128 0x3a
 2572 0052 0B       		.uleb128 0xb
 2573 0053 3B       		.uleb128 0x3b
 2574 0054 0B       		.uleb128 0xb
 2575 0055 49       		.uleb128 0x49
 2576 0056 13       		.uleb128 0x13
 2577 0057 38       		.uleb128 0x38
 2578 0058 0B       		.uleb128 0xb
 2579 0059 00       		.byte	0
 2580 005a 00       		.byte	0
 2581 005b 08       		.uleb128 0x8
 2582 005c 0D       		.uleb128 0xd
 2583 005d 00       		.byte	0
 2584 005e 03       		.uleb128 0x3
 2585 005f 08       		.uleb128 0x8
 2586 0060 3A       		.uleb128 0x3a
 2587 0061 0B       		.uleb128 0xb
 2588 0062 3B       		.uleb128 0x3b
 2589 0063 05       		.uleb128 0x5
 2590 0064 49       		.uleb128 0x49
 2591 0065 13       		.uleb128 0x13
 2592 0066 38       		.uleb128 0x38
 2593 0067 0B       		.uleb128 0xb
 2594 0068 00       		.byte	0
 2595 0069 00       		.byte	0
 2596 006a 09       		.uleb128 0x9
 2597 006b 0D       		.uleb128 0xd
 2598 006c 00       		.byte	0
 2599 006d 03       		.uleb128 0x3
 2600 006e 0E       		.uleb128 0xe
 2601 006f 3A       		.uleb128 0x3a
 2602 0070 0B       		.uleb128 0xb
 2603 0071 3B       		.uleb128 0x3b
 2604 0072 05       		.uleb128 0x5
 2605 0073 49       		.uleb128 0x49
 2606 0074 13       		.uleb128 0x13
 2607 0075 38       		.uleb128 0x38
 2608 0076 0B       		.uleb128 0xb
 2609 0077 00       		.byte	0
 2610 0078 00       		.byte	0
 2611 0079 0A       		.uleb128 0xa
 2612 007a 0F       		.uleb128 0xf
 2613 007b 00       		.byte	0
 2614 007c 0B       		.uleb128 0xb
 2615 007d 0B       		.uleb128 0xb
 2616 007e 49       		.uleb128 0x49
 2617 007f 13       		.uleb128 0x13
 2618 0080 00       		.byte	0
 2619 0081 00       		.byte	0
 2620 0082 0B       		.uleb128 0xb
 2621 0083 13       		.uleb128 0x13
 2622 0084 01       		.byte	0x1
ARM GAS  C:\Users\IDONNO~1.SON\AppData\Local\Temp\ccmr4iGZ.s 			page 47


 2623 0085 03       		.uleb128 0x3
 2624 0086 0E       		.uleb128 0xe
 2625 0087 0B       		.uleb128 0xb
 2626 0088 0B       		.uleb128 0xb
 2627 0089 3A       		.uleb128 0x3a
 2628 008a 0B       		.uleb128 0xb
 2629 008b 3B       		.uleb128 0x3b
 2630 008c 05       		.uleb128 0x5
 2631 008d 01       		.uleb128 0x1
 2632 008e 13       		.uleb128 0x13
 2633 008f 00       		.byte	0
 2634 0090 00       		.byte	0
 2635 0091 0C       		.uleb128 0xc
 2636 0092 15       		.uleb128 0x15
 2637 0093 01       		.byte	0x1
 2638 0094 27       		.uleb128 0x27
 2639 0095 19       		.uleb128 0x19
 2640 0096 01       		.uleb128 0x1
 2641 0097 13       		.uleb128 0x13
 2642 0098 00       		.byte	0
 2643 0099 00       		.byte	0
 2644 009a 0D       		.uleb128 0xd
 2645 009b 05       		.uleb128 0x5
 2646 009c 00       		.byte	0
 2647 009d 49       		.uleb128 0x49
 2648 009e 13       		.uleb128 0x13
 2649 009f 00       		.byte	0
 2650 00a0 00       		.byte	0
 2651 00a1 0E       		.uleb128 0xe
 2652 00a2 0F       		.uleb128 0xf
 2653 00a3 00       		.byte	0
 2654 00a4 0B       		.uleb128 0xb
 2655 00a5 0B       		.uleb128 0xb
 2656 00a6 00       		.byte	0
 2657 00a7 00       		.byte	0
 2658 00a8 0F       		.uleb128 0xf
 2659 00a9 13       		.uleb128 0x13
 2660 00aa 01       		.byte	0x1
 2661 00ab 03       		.uleb128 0x3
 2662 00ac 0E       		.uleb128 0xe
 2663 00ad 0B       		.uleb128 0xb
 2664 00ae 05       		.uleb128 0x5
 2665 00af 3A       		.uleb128 0x3a
 2666 00b0 0B       		.uleb128 0xb
 2667 00b1 3B       		.uleb128 0x3b
 2668 00b2 05       		.uleb128 0x5
 2669 00b3 01       		.uleb128 0x1
 2670 00b4 13       		.uleb128 0x13
 2671 00b5 00       		.byte	0
 2672 00b6 00       		.byte	0
 2673 00b7 10       		.uleb128 0x10
 2674 00b8 13       		.uleb128 0x13
 2675 00b9 01       		.byte	0x1
 2676 00ba 0B       		.uleb128 0xb
 2677 00bb 0B       		.uleb128 0xb
 2678 00bc 3A       		.uleb128 0x3a
 2679 00bd 0B       		.uleb128 0xb
ARM GAS  C:\Users\IDONNO~1.SON\AppData\Local\Temp\ccmr4iGZ.s 			page 48


 2680 00be 3B       		.uleb128 0x3b
 2681 00bf 05       		.uleb128 0x5
 2682 00c0 01       		.uleb128 0x1
 2683 00c1 13       		.uleb128 0x13
 2684 00c2 00       		.byte	0
 2685 00c3 00       		.byte	0
 2686 00c4 11       		.uleb128 0x11
 2687 00c5 16       		.uleb128 0x16
 2688 00c6 00       		.byte	0
 2689 00c7 03       		.uleb128 0x3
 2690 00c8 0E       		.uleb128 0xe
 2691 00c9 3A       		.uleb128 0x3a
 2692 00ca 0B       		.uleb128 0xb
 2693 00cb 3B       		.uleb128 0x3b
 2694 00cc 05       		.uleb128 0x5
 2695 00cd 49       		.uleb128 0x49
 2696 00ce 13       		.uleb128 0x13
 2697 00cf 00       		.byte	0
 2698 00d0 00       		.byte	0
 2699 00d1 12       		.uleb128 0x12
 2700 00d2 0D       		.uleb128 0xd
 2701 00d3 00       		.byte	0
 2702 00d4 03       		.uleb128 0x3
 2703 00d5 08       		.uleb128 0x8
 2704 00d6 3A       		.uleb128 0x3a
 2705 00d7 0B       		.uleb128 0xb
 2706 00d8 3B       		.uleb128 0x3b
 2707 00d9 0B       		.uleb128 0xb
 2708 00da 49       		.uleb128 0x49
 2709 00db 13       		.uleb128 0x13
 2710 00dc 38       		.uleb128 0x38
 2711 00dd 0B       		.uleb128 0xb
 2712 00de 00       		.byte	0
 2713 00df 00       		.byte	0
 2714 00e0 13       		.uleb128 0x13
 2715 00e1 13       		.uleb128 0x13
 2716 00e2 01       		.byte	0x1
 2717 00e3 0B       		.uleb128 0xb
 2718 00e4 0B       		.uleb128 0xb
 2719 00e5 3A       		.uleb128 0x3a
 2720 00e6 0B       		.uleb128 0xb
 2721 00e7 3B       		.uleb128 0x3b
 2722 00e8 0B       		.uleb128 0xb
 2723 00e9 01       		.uleb128 0x1
 2724 00ea 13       		.uleb128 0x13
 2725 00eb 00       		.byte	0
 2726 00ec 00       		.byte	0
 2727 00ed 14       		.uleb128 0x14
 2728 00ee 17       		.uleb128 0x17
 2729 00ef 01       		.byte	0x1
 2730 00f0 0B       		.uleb128 0xb
 2731 00f1 0B       		.uleb128 0xb
 2732 00f2 3A       		.uleb128 0x3a
 2733 00f3 0B       		.uleb128 0xb
 2734 00f4 3B       		.uleb128 0x3b
 2735 00f5 0B       		.uleb128 0xb
 2736 00f6 01       		.uleb128 0x1
ARM GAS  C:\Users\IDONNO~1.SON\AppData\Local\Temp\ccmr4iGZ.s 			page 49


 2737 00f7 13       		.uleb128 0x13
 2738 00f8 00       		.byte	0
 2739 00f9 00       		.byte	0
 2740 00fa 15       		.uleb128 0x15
 2741 00fb 0D       		.uleb128 0xd
 2742 00fc 00       		.byte	0
 2743 00fd 03       		.uleb128 0x3
 2744 00fe 0E       		.uleb128 0xe
 2745 00ff 3A       		.uleb128 0x3a
 2746 0100 0B       		.uleb128 0xb
 2747 0101 3B       		.uleb128 0x3b
 2748 0102 05       		.uleb128 0x5
 2749 0103 49       		.uleb128 0x49
 2750 0104 13       		.uleb128 0x13
 2751 0105 00       		.byte	0
 2752 0106 00       		.byte	0
 2753 0107 16       		.uleb128 0x16
 2754 0108 26       		.uleb128 0x26
 2755 0109 00       		.byte	0
 2756 010a 49       		.uleb128 0x49
 2757 010b 13       		.uleb128 0x13
 2758 010c 00       		.byte	0
 2759 010d 00       		.byte	0
 2760 010e 17       		.uleb128 0x17
 2761 010f 01       		.uleb128 0x1
 2762 0110 01       		.byte	0x1
 2763 0111 49       		.uleb128 0x49
 2764 0112 13       		.uleb128 0x13
 2765 0113 01       		.uleb128 0x1
 2766 0114 13       		.uleb128 0x13
 2767 0115 00       		.byte	0
 2768 0116 00       		.byte	0
 2769 0117 18       		.uleb128 0x18
 2770 0118 21       		.uleb128 0x21
 2771 0119 00       		.byte	0
 2772 011a 49       		.uleb128 0x49
 2773 011b 13       		.uleb128 0x13
 2774 011c 2F       		.uleb128 0x2f
 2775 011d 0B       		.uleb128 0xb
 2776 011e 00       		.byte	0
 2777 011f 00       		.byte	0
 2778 0120 19       		.uleb128 0x19
 2779 0121 15       		.uleb128 0x15
 2780 0122 01       		.byte	0x1
 2781 0123 27       		.uleb128 0x27
 2782 0124 19       		.uleb128 0x19
 2783 0125 49       		.uleb128 0x49
 2784 0126 13       		.uleb128 0x13
 2785 0127 01       		.uleb128 0x1
 2786 0128 13       		.uleb128 0x13
 2787 0129 00       		.byte	0
 2788 012a 00       		.byte	0
 2789 012b 1A       		.uleb128 0x1a
 2790 012c 0D       		.uleb128 0xd
 2791 012d 00       		.byte	0
 2792 012e 03       		.uleb128 0x3
 2793 012f 08       		.uleb128 0x8
ARM GAS  C:\Users\IDONNO~1.SON\AppData\Local\Temp\ccmr4iGZ.s 			page 50


 2794 0130 3A       		.uleb128 0x3a
 2795 0131 0B       		.uleb128 0xb
 2796 0132 3B       		.uleb128 0x3b
 2797 0133 0B       		.uleb128 0xb
 2798 0134 49       		.uleb128 0x49
 2799 0135 13       		.uleb128 0x13
 2800 0136 00       		.byte	0
 2801 0137 00       		.byte	0
 2802 0138 1B       		.uleb128 0x1b
 2803 0139 04       		.uleb128 0x4
 2804 013a 01       		.byte	0x1
 2805 013b 0B       		.uleb128 0xb
 2806 013c 0B       		.uleb128 0xb
 2807 013d 49       		.uleb128 0x49
 2808 013e 13       		.uleb128 0x13
 2809 013f 3A       		.uleb128 0x3a
 2810 0140 0B       		.uleb128 0xb
 2811 0141 3B       		.uleb128 0x3b
 2812 0142 0B       		.uleb128 0xb
 2813 0143 01       		.uleb128 0x1
 2814 0144 13       		.uleb128 0x13
 2815 0145 00       		.byte	0
 2816 0146 00       		.byte	0
 2817 0147 1C       		.uleb128 0x1c
 2818 0148 28       		.uleb128 0x28
 2819 0149 00       		.byte	0
 2820 014a 03       		.uleb128 0x3
 2821 014b 0E       		.uleb128 0xe
 2822 014c 1C       		.uleb128 0x1c
 2823 014d 0B       		.uleb128 0xb
 2824 014e 00       		.byte	0
 2825 014f 00       		.byte	0
 2826 0150 1D       		.uleb128 0x1d
 2827 0151 13       		.uleb128 0x13
 2828 0152 01       		.byte	0x1
 2829 0153 03       		.uleb128 0x3
 2830 0154 0E       		.uleb128 0xe
 2831 0155 0B       		.uleb128 0xb
 2832 0156 05       		.uleb128 0x5
 2833 0157 3A       		.uleb128 0x3a
 2834 0158 0B       		.uleb128 0xb
 2835 0159 3B       		.uleb128 0x3b
 2836 015a 0B       		.uleb128 0xb
 2837 015b 01       		.uleb128 0x1
 2838 015c 13       		.uleb128 0x13
 2839 015d 00       		.byte	0
 2840 015e 00       		.byte	0
 2841 015f 1E       		.uleb128 0x1e
 2842 0160 0D       		.uleb128 0xd
 2843 0161 00       		.byte	0
 2844 0162 03       		.uleb128 0x3
 2845 0163 08       		.uleb128 0x8
 2846 0164 3A       		.uleb128 0x3a
 2847 0165 0B       		.uleb128 0xb
 2848 0166 3B       		.uleb128 0x3b
 2849 0167 0B       		.uleb128 0xb
 2850 0168 49       		.uleb128 0x49
ARM GAS  C:\Users\IDONNO~1.SON\AppData\Local\Temp\ccmr4iGZ.s 			page 51


 2851 0169 13       		.uleb128 0x13
 2852 016a 38       		.uleb128 0x38
 2853 016b 05       		.uleb128 0x5
 2854 016c 00       		.byte	0
 2855 016d 00       		.byte	0
 2856 016e 1F       		.uleb128 0x1f
 2857 016f 0D       		.uleb128 0xd
 2858 0170 00       		.byte	0
 2859 0171 03       		.uleb128 0x3
 2860 0172 0E       		.uleb128 0xe
 2861 0173 3A       		.uleb128 0x3a
 2862 0174 0B       		.uleb128 0xb
 2863 0175 3B       		.uleb128 0x3b
 2864 0176 0B       		.uleb128 0xb
 2865 0177 49       		.uleb128 0x49
 2866 0178 13       		.uleb128 0x13
 2867 0179 38       		.uleb128 0x38
 2868 017a 05       		.uleb128 0x5
 2869 017b 00       		.byte	0
 2870 017c 00       		.byte	0
 2871 017d 20       		.uleb128 0x20
 2872 017e 0D       		.uleb128 0xd
 2873 017f 00       		.byte	0
 2874 0180 03       		.uleb128 0x3
 2875 0181 0E       		.uleb128 0xe
 2876 0182 49       		.uleb128 0x49
 2877 0183 13       		.uleb128 0x13
 2878 0184 38       		.uleb128 0x38
 2879 0185 0B       		.uleb128 0xb
 2880 0186 34       		.uleb128 0x34
 2881 0187 19       		.uleb128 0x19
 2882 0188 00       		.byte	0
 2883 0189 00       		.byte	0
 2884 018a 21       		.uleb128 0x21
 2885 018b 2E       		.uleb128 0x2e
 2886 018c 01       		.byte	0x1
 2887 018d 03       		.uleb128 0x3
 2888 018e 0E       		.uleb128 0xe
 2889 018f 3A       		.uleb128 0x3a
 2890 0190 0B       		.uleb128 0xb
 2891 0191 3B       		.uleb128 0x3b
 2892 0192 05       		.uleb128 0x5
 2893 0193 27       		.uleb128 0x27
 2894 0194 19       		.uleb128 0x19
 2895 0195 49       		.uleb128 0x49
 2896 0196 13       		.uleb128 0x13
 2897 0197 20       		.uleb128 0x20
 2898 0198 0B       		.uleb128 0xb
 2899 0199 01       		.uleb128 0x1
 2900 019a 13       		.uleb128 0x13
 2901 019b 00       		.byte	0
 2902 019c 00       		.byte	0
 2903 019d 22       		.uleb128 0x22
 2904 019e 05       		.uleb128 0x5
 2905 019f 00       		.byte	0
 2906 01a0 03       		.uleb128 0x3
 2907 01a1 08       		.uleb128 0x8
ARM GAS  C:\Users\IDONNO~1.SON\AppData\Local\Temp\ccmr4iGZ.s 			page 52


 2908 01a2 3A       		.uleb128 0x3a
 2909 01a3 0B       		.uleb128 0xb
 2910 01a4 3B       		.uleb128 0x3b
 2911 01a5 05       		.uleb128 0x5
 2912 01a6 49       		.uleb128 0x49
 2913 01a7 13       		.uleb128 0x13
 2914 01a8 00       		.byte	0
 2915 01a9 00       		.byte	0
 2916 01aa 23       		.uleb128 0x23
 2917 01ab 2E       		.uleb128 0x2e
 2918 01ac 01       		.byte	0x1
 2919 01ad 03       		.uleb128 0x3
 2920 01ae 0E       		.uleb128 0xe
 2921 01af 3A       		.uleb128 0x3a
 2922 01b0 0B       		.uleb128 0xb
 2923 01b1 3B       		.uleb128 0x3b
 2924 01b2 0B       		.uleb128 0xb
 2925 01b3 27       		.uleb128 0x27
 2926 01b4 19       		.uleb128 0x19
 2927 01b5 49       		.uleb128 0x49
 2928 01b6 13       		.uleb128 0x13
 2929 01b7 11       		.uleb128 0x11
 2930 01b8 01       		.uleb128 0x1
 2931 01b9 12       		.uleb128 0x12
 2932 01ba 06       		.uleb128 0x6
 2933 01bb 40       		.uleb128 0x40
 2934 01bc 18       		.uleb128 0x18
 2935 01bd 9742     		.uleb128 0x2117
 2936 01bf 19       		.uleb128 0x19
 2937 01c0 01       		.uleb128 0x1
 2938 01c1 13       		.uleb128 0x13
 2939 01c2 00       		.byte	0
 2940 01c3 00       		.byte	0
 2941 01c4 24       		.uleb128 0x24
 2942 01c5 05       		.uleb128 0x5
 2943 01c6 00       		.byte	0
 2944 01c7 03       		.uleb128 0x3
 2945 01c8 08       		.uleb128 0x8
 2946 01c9 3A       		.uleb128 0x3a
 2947 01ca 0B       		.uleb128 0xb
 2948 01cb 3B       		.uleb128 0x3b
 2949 01cc 0B       		.uleb128 0xb
 2950 01cd 49       		.uleb128 0x49
 2951 01ce 13       		.uleb128 0x13
 2952 01cf 02       		.uleb128 0x2
 2953 01d0 17       		.uleb128 0x17
 2954 01d1 00       		.byte	0
 2955 01d2 00       		.byte	0
 2956 01d3 25       		.uleb128 0x25
 2957 01d4 05       		.uleb128 0x5
 2958 01d5 00       		.byte	0
 2959 01d6 03       		.uleb128 0x3
 2960 01d7 08       		.uleb128 0x8
 2961 01d8 3A       		.uleb128 0x3a
 2962 01d9 0B       		.uleb128 0xb
 2963 01da 3B       		.uleb128 0x3b
 2964 01db 0B       		.uleb128 0xb
ARM GAS  C:\Users\IDONNO~1.SON\AppData\Local\Temp\ccmr4iGZ.s 			page 53


 2965 01dc 49       		.uleb128 0x49
 2966 01dd 13       		.uleb128 0x13
 2967 01de 02       		.uleb128 0x2
 2968 01df 18       		.uleb128 0x18
 2969 01e0 00       		.byte	0
 2970 01e1 00       		.byte	0
 2971 01e2 26       		.uleb128 0x26
 2972 01e3 18       		.uleb128 0x18
 2973 01e4 00       		.byte	0
 2974 01e5 00       		.byte	0
 2975 01e6 00       		.byte	0
 2976 01e7 27       		.uleb128 0x27
 2977 01e8 34       		.uleb128 0x34
 2978 01e9 00       		.byte	0
 2979 01ea 03       		.uleb128 0x3
 2980 01eb 08       		.uleb128 0x8
 2981 01ec 3A       		.uleb128 0x3a
 2982 01ed 0B       		.uleb128 0xb
 2983 01ee 3B       		.uleb128 0x3b
 2984 01ef 0B       		.uleb128 0xb
 2985 01f0 49       		.uleb128 0x49
 2986 01f1 13       		.uleb128 0x13
 2987 01f2 02       		.uleb128 0x2
 2988 01f3 18       		.uleb128 0x18
 2989 01f4 00       		.byte	0
 2990 01f5 00       		.byte	0
 2991 01f6 28       		.uleb128 0x28
 2992 01f7 34       		.uleb128 0x34
 2993 01f8 00       		.byte	0
 2994 01f9 03       		.uleb128 0x3
 2995 01fa 0E       		.uleb128 0xe
 2996 01fb 3A       		.uleb128 0x3a
 2997 01fc 0B       		.uleb128 0xb
 2998 01fd 3B       		.uleb128 0x3b
 2999 01fe 0B       		.uleb128 0xb
 3000 01ff 49       		.uleb128 0x49
 3001 0200 13       		.uleb128 0x13
 3002 0201 02       		.uleb128 0x2
 3003 0202 18       		.uleb128 0x18
 3004 0203 00       		.byte	0
 3005 0204 00       		.byte	0
 3006 0205 29       		.uleb128 0x29
 3007 0206 898201   		.uleb128 0x4109
 3008 0209 01       		.byte	0x1
 3009 020a 11       		.uleb128 0x11
 3010 020b 01       		.uleb128 0x1
 3011 020c 31       		.uleb128 0x31
 3012 020d 13       		.uleb128 0x13
 3013 020e 00       		.byte	0
 3014 020f 00       		.byte	0
 3015 0210 2A       		.uleb128 0x2a
 3016 0211 8A8201   		.uleb128 0x410a
 3017 0214 00       		.byte	0
 3018 0215 02       		.uleb128 0x2
 3019 0216 18       		.uleb128 0x18
 3020 0217 9142     		.uleb128 0x2111
 3021 0219 18       		.uleb128 0x18
ARM GAS  C:\Users\IDONNO~1.SON\AppData\Local\Temp\ccmr4iGZ.s 			page 54


 3022 021a 00       		.byte	0
 3023 021b 00       		.byte	0
 3024 021c 2B       		.uleb128 0x2b
 3025 021d 2E       		.uleb128 0x2e
 3026 021e 01       		.byte	0x1
 3027 021f 3F       		.uleb128 0x3f
 3028 0220 19       		.uleb128 0x19
 3029 0221 03       		.uleb128 0x3
 3030 0222 0E       		.uleb128 0xe
 3031 0223 3A       		.uleb128 0x3a
 3032 0224 0B       		.uleb128 0xb
 3033 0225 3B       		.uleb128 0x3b
 3034 0226 0B       		.uleb128 0xb
 3035 0227 27       		.uleb128 0x27
 3036 0228 19       		.uleb128 0x19
 3037 0229 11       		.uleb128 0x11
 3038 022a 01       		.uleb128 0x1
 3039 022b 12       		.uleb128 0x12
 3040 022c 06       		.uleb128 0x6
 3041 022d 40       		.uleb128 0x40
 3042 022e 18       		.uleb128 0x18
 3043 022f 9742     		.uleb128 0x2117
 3044 0231 19       		.uleb128 0x19
 3045 0232 01       		.uleb128 0x1
 3046 0233 13       		.uleb128 0x13
 3047 0234 00       		.byte	0
 3048 0235 00       		.byte	0
 3049 0236 2C       		.uleb128 0x2c
 3050 0237 898201   		.uleb128 0x4109
 3051 023a 01       		.byte	0x1
 3052 023b 11       		.uleb128 0x11
 3053 023c 01       		.uleb128 0x1
 3054 023d 31       		.uleb128 0x31
 3055 023e 13       		.uleb128 0x13
 3056 023f 01       		.uleb128 0x1
 3057 0240 13       		.uleb128 0x13
 3058 0241 00       		.byte	0
 3059 0242 00       		.byte	0
 3060 0243 2D       		.uleb128 0x2d
 3061 0244 898201   		.uleb128 0x4109
 3062 0247 01       		.byte	0x1
 3063 0248 11       		.uleb128 0x11
 3064 0249 01       		.uleb128 0x1
 3065 024a 9542     		.uleb128 0x2115
 3066 024c 19       		.uleb128 0x19
 3067 024d 31       		.uleb128 0x31
 3068 024e 13       		.uleb128 0x13
 3069 024f 00       		.byte	0
 3070 0250 00       		.byte	0
 3071 0251 2E       		.uleb128 0x2e
 3072 0252 898201   		.uleb128 0x4109
 3073 0255 01       		.byte	0x1
 3074 0256 11       		.uleb128 0x11
 3075 0257 01       		.uleb128 0x1
 3076 0258 00       		.byte	0
 3077 0259 00       		.byte	0
 3078 025a 2F       		.uleb128 0x2f
ARM GAS  C:\Users\IDONNO~1.SON\AppData\Local\Temp\ccmr4iGZ.s 			page 55


 3079 025b 898201   		.uleb128 0x4109
 3080 025e 01       		.byte	0x1
 3081 025f 11       		.uleb128 0x11
 3082 0260 01       		.uleb128 0x1
 3083 0261 01       		.uleb128 0x1
 3084 0262 13       		.uleb128 0x13
 3085 0263 00       		.byte	0
 3086 0264 00       		.byte	0
 3087 0265 30       		.uleb128 0x30
 3088 0266 898201   		.uleb128 0x4109
 3089 0269 01       		.byte	0x1
 3090 026a 11       		.uleb128 0x11
 3091 026b 01       		.uleb128 0x1
 3092 026c 9542     		.uleb128 0x2115
 3093 026e 19       		.uleb128 0x19
 3094 026f 00       		.byte	0
 3095 0270 00       		.byte	0
 3096 0271 31       		.uleb128 0x31
 3097 0272 34       		.uleb128 0x34
 3098 0273 00       		.byte	0
 3099 0274 03       		.uleb128 0x3
 3100 0275 08       		.uleb128 0x8
 3101 0276 3A       		.uleb128 0x3a
 3102 0277 0B       		.uleb128 0xb
 3103 0278 3B       		.uleb128 0x3b
 3104 0279 0B       		.uleb128 0xb
 3105 027a 49       		.uleb128 0x49
 3106 027b 13       		.uleb128 0x13
 3107 027c 02       		.uleb128 0x2
 3108 027d 17       		.uleb128 0x17
 3109 027e 00       		.byte	0
 3110 027f 00       		.byte	0
 3111 0280 32       		.uleb128 0x32
 3112 0281 05       		.uleb128 0x5
 3113 0282 00       		.byte	0
 3114 0283 03       		.uleb128 0x3
 3115 0284 0E       		.uleb128 0xe
 3116 0285 3A       		.uleb128 0x3a
 3117 0286 0B       		.uleb128 0xb
 3118 0287 3B       		.uleb128 0x3b
 3119 0288 0B       		.uleb128 0xb
 3120 0289 49       		.uleb128 0x49
 3121 028a 13       		.uleb128 0x13
 3122 028b 02       		.uleb128 0x2
 3123 028c 17       		.uleb128 0x17
 3124 028d 00       		.byte	0
 3125 028e 00       		.byte	0
 3126 028f 33       		.uleb128 0x33
 3127 0290 1D       		.uleb128 0x1d
 3128 0291 01       		.byte	0x1
 3129 0292 31       		.uleb128 0x31
 3130 0293 13       		.uleb128 0x13
 3131 0294 11       		.uleb128 0x11
 3132 0295 01       		.uleb128 0x1
 3133 0296 12       		.uleb128 0x12
 3134 0297 06       		.uleb128 0x6
 3135 0298 58       		.uleb128 0x58
ARM GAS  C:\Users\IDONNO~1.SON\AppData\Local\Temp\ccmr4iGZ.s 			page 56


 3136 0299 0B       		.uleb128 0xb
 3137 029a 59       		.uleb128 0x59
 3138 029b 0B       		.uleb128 0xb
 3139 029c 00       		.byte	0
 3140 029d 00       		.byte	0
 3141 029e 34       		.uleb128 0x34
 3142 029f 05       		.uleb128 0x5
 3143 02a0 00       		.byte	0
 3144 02a1 31       		.uleb128 0x31
 3145 02a2 13       		.uleb128 0x13
 3146 02a3 02       		.uleb128 0x2
 3147 02a4 17       		.uleb128 0x17
 3148 02a5 00       		.byte	0
 3149 02a6 00       		.byte	0
 3150 02a7 35       		.uleb128 0x35
 3151 02a8 34       		.uleb128 0x34
 3152 02a9 00       		.byte	0
 3153 02aa 03       		.uleb128 0x3
 3154 02ab 0E       		.uleb128 0xe
 3155 02ac 3A       		.uleb128 0x3a
 3156 02ad 0B       		.uleb128 0xb
 3157 02ae 3B       		.uleb128 0x3b
 3158 02af 05       		.uleb128 0x5
 3159 02b0 49       		.uleb128 0x49
 3160 02b1 13       		.uleb128 0x13
 3161 02b2 3F       		.uleb128 0x3f
 3162 02b3 19       		.uleb128 0x19
 3163 02b4 3C       		.uleb128 0x3c
 3164 02b5 19       		.uleb128 0x19
 3165 02b6 00       		.byte	0
 3166 02b7 00       		.byte	0
 3167 02b8 36       		.uleb128 0x36
 3168 02b9 34       		.uleb128 0x34
 3169 02ba 00       		.byte	0
 3170 02bb 03       		.uleb128 0x3
 3171 02bc 08       		.uleb128 0x8
 3172 02bd 3A       		.uleb128 0x3a
 3173 02be 0B       		.uleb128 0xb
 3174 02bf 3B       		.uleb128 0x3b
 3175 02c0 05       		.uleb128 0x5
 3176 02c1 49       		.uleb128 0x49
 3177 02c2 13       		.uleb128 0x13
 3178 02c3 3F       		.uleb128 0x3f
 3179 02c4 19       		.uleb128 0x19
 3180 02c5 3C       		.uleb128 0x3c
 3181 02c6 19       		.uleb128 0x19
 3182 02c7 00       		.byte	0
 3183 02c8 00       		.byte	0
 3184 02c9 37       		.uleb128 0x37
 3185 02ca 2E       		.uleb128 0x2e
 3186 02cb 00       		.byte	0
 3187 02cc 3F       		.uleb128 0x3f
 3188 02cd 19       		.uleb128 0x19
 3189 02ce 3C       		.uleb128 0x3c
 3190 02cf 19       		.uleb128 0x19
 3191 02d0 6E       		.uleb128 0x6e
 3192 02d1 0E       		.uleb128 0xe
ARM GAS  C:\Users\IDONNO~1.SON\AppData\Local\Temp\ccmr4iGZ.s 			page 57


 3193 02d2 03       		.uleb128 0x3
 3194 02d3 0E       		.uleb128 0xe
 3195 02d4 3A       		.uleb128 0x3a
 3196 02d5 0B       		.uleb128 0xb
 3197 02d6 3B       		.uleb128 0x3b
 3198 02d7 0B       		.uleb128 0xb
 3199 02d8 00       		.byte	0
 3200 02d9 00       		.byte	0
 3201 02da 38       		.uleb128 0x38
 3202 02db 2E       		.uleb128 0x2e
 3203 02dc 00       		.byte	0
 3204 02dd 3F       		.uleb128 0x3f
 3205 02de 19       		.uleb128 0x19
 3206 02df 3C       		.uleb128 0x3c
 3207 02e0 19       		.uleb128 0x19
 3208 02e1 6E       		.uleb128 0x6e
 3209 02e2 0E       		.uleb128 0xe
 3210 02e3 03       		.uleb128 0x3
 3211 02e4 0E       		.uleb128 0xe
 3212 02e5 3A       		.uleb128 0x3a
 3213 02e6 0B       		.uleb128 0xb
 3214 02e7 3B       		.uleb128 0x3b
 3215 02e8 05       		.uleb128 0x5
 3216 02e9 00       		.byte	0
 3217 02ea 00       		.byte	0
 3218 02eb 00       		.byte	0
 3219              		.section	.debug_loc,"",%progbits
 3220              	.Ldebug_loc0:
 3221              	.LLST0:
 3222 0000 00000000 		.4byte	.LVL0
 3223 0004 11000000 		.4byte	.LVL1-1
 3224 0008 0100     		.2byte	0x1
 3225 000a 50       		.byte	0x50
 3226 000b 11000000 		.4byte	.LVL1-1
 3227 000f 1C000000 		.4byte	.LFE257
 3228 0013 0400     		.2byte	0x4
 3229 0015 F3       		.byte	0xf3
 3230 0016 01       		.uleb128 0x1
 3231 0017 50       		.byte	0x50
 3232 0018 9F       		.byte	0x9f
 3233 0019 00000000 		.4byte	0
 3234 001d 00000000 		.4byte	0
 3235              	.LLST1:
 3236 0021 00000000 		.4byte	.LVL5
 3237 0025 0A000000 		.4byte	.LVL6
 3238 0029 0100     		.2byte	0x1
 3239 002b 50       		.byte	0x50
 3240 002c 0A000000 		.4byte	.LVL6
 3241 0030 16000000 		.4byte	.LVL8
 3242 0034 0100     		.2byte	0x1
 3243 0036 54       		.byte	0x54
 3244 0037 16000000 		.4byte	.LVL8
 3245 003b 1C000000 		.4byte	.LVL9
 3246 003f 0300     		.2byte	0x3
 3247 0041 74       		.byte	0x74
 3248 0042 7F       		.sleb128 -1
 3249 0043 9F       		.byte	0x9f
ARM GAS  C:\Users\IDONNO~1.SON\AppData\Local\Temp\ccmr4iGZ.s 			page 58


 3250 0044 1C000000 		.4byte	.LVL9
 3251 0048 24000000 		.4byte	.LFE259
 3252 004c 0100     		.2byte	0x1
 3253 004e 50       		.byte	0x50
 3254 004f 00000000 		.4byte	0
 3255 0053 00000000 		.4byte	0
 3256              	.LLST2:
 3257 0057 00000000 		.4byte	.LVL10
 3258 005b 0A000000 		.4byte	.LVL11
 3259 005f 0100     		.2byte	0x1
 3260 0061 50       		.byte	0x50
 3261 0062 0A000000 		.4byte	.LVL11
 3262 0066 16000000 		.4byte	.LVL13
 3263 006a 0100     		.2byte	0x1
 3264 006c 54       		.byte	0x54
 3265 006d 16000000 		.4byte	.LVL13
 3266 0071 1A000000 		.4byte	.LVL14
 3267 0075 0300     		.2byte	0x3
 3268 0077 74       		.byte	0x74
 3269 0078 7F       		.sleb128 -1
 3270 0079 9F       		.byte	0x9f
 3271 007a 2A000000 		.4byte	.LVL15
 3272 007e 38000000 		.4byte	.LFE260
 3273 0082 0100     		.2byte	0x1
 3274 0084 50       		.byte	0x50
 3275 0085 00000000 		.4byte	0
 3276 0089 00000000 		.4byte	0
 3277              	.LLST3:
 3278 008d 00000000 		.4byte	.LVL16
 3279 0091 1A000000 		.4byte	.LVL18
 3280 0095 0100     		.2byte	0x1
 3281 0097 50       		.byte	0x50
 3282 0098 24000000 		.4byte	.LVL19
 3283 009c 34000000 		.4byte	.LVL21
 3284 00a0 0100     		.2byte	0x1
 3285 00a2 53       		.byte	0x53
 3286 00a3 48000000 		.4byte	.LVL25
 3287 00a7 4A000000 		.4byte	.LVL26
 3288 00ab 0100     		.2byte	0x1
 3289 00ad 50       		.byte	0x50
 3290 00ae 4A000000 		.4byte	.LVL26
 3291 00b2 5C000000 		.4byte	.LFE261
 3292 00b6 0400     		.2byte	0x4
 3293 00b8 F3       		.byte	0xf3
 3294 00b9 01       		.uleb128 0x1
 3295 00ba 50       		.byte	0x50
 3296 00bb 9F       		.byte	0x9f
 3297 00bc 00000000 		.4byte	0
 3298 00c0 00000000 		.4byte	0
 3299              	.LLST4:
 3300 00c4 0C000000 		.4byte	.LVL17
 3301 00c8 32000000 		.4byte	.LVL20
 3302 00cc 0100     		.2byte	0x1
 3303 00ce 54       		.byte	0x54
 3304 00cf 32000000 		.4byte	.LVL20
 3305 00d3 34000000 		.4byte	.LVL21
 3306 00d7 0300     		.2byte	0x3
ARM GAS  C:\Users\IDONNO~1.SON\AppData\Local\Temp\ccmr4iGZ.s 			page 59


 3307 00d9 74       		.byte	0x74
 3308 00da 01       		.sleb128 1
 3309 00db 9F       		.byte	0x9f
 3310 00dc 34000000 		.4byte	.LVL21
 3311 00e0 44000000 		.4byte	.LVL24
 3312 00e4 0100     		.2byte	0x1
 3313 00e6 54       		.byte	0x54
 3314 00e7 00000000 		.4byte	0
 3315 00eb 00000000 		.4byte	0
 3316              	.LLST5:
 3317 00ef 00000000 		.4byte	.LVL28
 3318 00f3 0E000000 		.4byte	.LVL30
 3319 00f7 0100     		.2byte	0x1
 3320 00f9 50       		.byte	0x50
 3321 00fa 0E000000 		.4byte	.LVL30
 3322 00fe 22000000 		.4byte	.LVL33
 3323 0102 0300     		.2byte	0x3
 3324 0104 75       		.byte	0x75
 3325 0105 50       		.sleb128 -48
 3326 0106 9F       		.byte	0x9f
 3327 0107 22000000 		.4byte	.LVL33
 3328 010b 24000000 		.4byte	.LFE262
 3329 010f 0400     		.2byte	0x4
 3330 0111 F3       		.byte	0xf3
 3331 0112 01       		.uleb128 0x1
 3332 0113 50       		.byte	0x50
 3333 0114 9F       		.byte	0x9f
 3334 0115 00000000 		.4byte	0
 3335 0119 00000000 		.4byte	0
 3336              	.LLST6:
 3337 011d 00000000 		.4byte	.LVL28
 3338 0121 06000000 		.4byte	.LVL29
 3339 0125 0100     		.2byte	0x1
 3340 0127 51       		.byte	0x51
 3341 0128 06000000 		.4byte	.LVL29
 3342 012c 24000000 		.4byte	.LFE262
 3343 0130 0100     		.2byte	0x1
 3344 0132 56       		.byte	0x56
 3345 0133 00000000 		.4byte	0
 3346 0137 00000000 		.4byte	0
 3347              	.LLST7:
 3348 013b 00000000 		.4byte	.LVL28
 3349 013f 0E000000 		.4byte	.LVL30
 3350 0143 0200     		.2byte	0x2
 3351 0145 30       		.byte	0x30
 3352 0146 9F       		.byte	0x9f
 3353 0147 0E000000 		.4byte	.LVL30
 3354 014b 10000000 		.4byte	.LVL31
 3355 014f 0100     		.2byte	0x1
 3356 0151 54       		.byte	0x54
 3357 0152 1C000000 		.4byte	.LVL32
 3358 0156 22000000 		.4byte	.LVL33
 3359 015a 0100     		.2byte	0x1
 3360 015c 54       		.byte	0x54
 3361 015d 00000000 		.4byte	0
 3362 0161 00000000 		.4byte	0
 3363              	.LLST8:
ARM GAS  C:\Users\IDONNO~1.SON\AppData\Local\Temp\ccmr4iGZ.s 			page 60


 3364 0165 0E000000 		.4byte	.LVL30
 3365 0169 1B000000 		.4byte	.LVL32-1
 3366 016d 0100     		.2byte	0x1
 3367 016f 51       		.byte	0x51
 3368 0170 00000000 		.4byte	0
 3369 0174 00000000 		.4byte	0
 3370              	.LLST9:
 3371 0178 0E000000 		.4byte	.LVL30
 3372 017c 1C000000 		.4byte	.LVL32
 3373 0180 0100     		.2byte	0x1
 3374 0182 55       		.byte	0x55
 3375 0183 00000000 		.4byte	0
 3376 0187 00000000 		.4byte	0
 3377              	.LLST10:
 3378 018b 00000000 		.4byte	.LVL34
 3379 018f 09000000 		.4byte	.LVL35-1
 3380 0193 0100     		.2byte	0x1
 3381 0195 50       		.byte	0x50
 3382 0196 09000000 		.4byte	.LVL35-1
 3383 019a 12000000 		.4byte	.LFE263
 3384 019e 0400     		.2byte	0x4
 3385 01a0 F3       		.byte	0xf3
 3386 01a1 01       		.uleb128 0x1
 3387 01a2 50       		.byte	0x50
 3388 01a3 9F       		.byte	0x9f
 3389 01a4 00000000 		.4byte	0
 3390 01a8 00000000 		.4byte	0
 3391              		.section	.debug_aranges,"",%progbits
 3392 0000 4C000000 		.4byte	0x4c
 3393 0004 0200     		.2byte	0x2
 3394 0006 00000000 		.4byte	.Ldebug_info0
 3395 000a 04       		.byte	0x4
 3396 000b 00       		.byte	0
 3397 000c 0000     		.2byte	0
 3398 000e 0000     		.2byte	0
 3399 0010 00000000 		.4byte	.LFB257
 3400 0014 1C000000 		.4byte	.LFE257-.LFB257
 3401 0018 00000000 		.4byte	.LFB258
 3402 001c 38000000 		.4byte	.LFE258-.LFB258
 3403 0020 00000000 		.4byte	.LFB259
 3404 0024 24000000 		.4byte	.LFE259-.LFB259
 3405 0028 00000000 		.4byte	.LFB260
 3406 002c 38000000 		.4byte	.LFE260-.LFB260
 3407 0030 00000000 		.4byte	.LFB261
 3408 0034 5C000000 		.4byte	.LFE261-.LFB261
 3409 0038 00000000 		.4byte	.LFB262
 3410 003c 24000000 		.4byte	.LFE262-.LFB262
 3411 0040 00000000 		.4byte	.LFB263
 3412 0044 12000000 		.4byte	.LFE263-.LFB263
 3413 0048 00000000 		.4byte	0
 3414 004c 00000000 		.4byte	0
 3415              		.section	.debug_ranges,"",%progbits
 3416              	.Ldebug_ranges0:
 3417 0000 00000000 		.4byte	.LFB257
 3418 0004 1C000000 		.4byte	.LFE257
 3419 0008 00000000 		.4byte	.LFB258
 3420 000c 38000000 		.4byte	.LFE258
ARM GAS  C:\Users\IDONNO~1.SON\AppData\Local\Temp\ccmr4iGZ.s 			page 61


 3421 0010 00000000 		.4byte	.LFB259
 3422 0014 24000000 		.4byte	.LFE259
 3423 0018 00000000 		.4byte	.LFB260
 3424 001c 38000000 		.4byte	.LFE260
 3425 0020 00000000 		.4byte	.LFB261
 3426 0024 5C000000 		.4byte	.LFE261
 3427 0028 00000000 		.4byte	.LFB262
 3428 002c 24000000 		.4byte	.LFE262
 3429 0030 00000000 		.4byte	.LFB263
 3430 0034 12000000 		.4byte	.LFE263
 3431 0038 00000000 		.4byte	0
 3432 003c 00000000 		.4byte	0
 3433              		.section	.debug_line,"",%progbits
 3434              	.Ldebug_line0:
 3435 0000 9B040000 		.section	.debug_str,"MS",%progbits,1
 3435      0200C903 
 3435      00000201 
 3435      FB0E0D00 
 3435      01010101 
 3436              	.LASF186:
 3437 0000 63684F51 		.ascii	"chOQPutTimeout\000"
 3437      50757454 
 3437      696D656F 
 3437      757400
 3438              	.LASF57:
 3439 000f 72656164 		.ascii	"ready_list_t\000"
 3439      795F6C69 
 3439      73745F74 
 3439      00
 3440              	.LASF2:
 3441 001c 73697A65 		.ascii	"size_t\000"
 3441      5F7400
 3442              	.LASF94:
 3443 0023 7264796D 		.ascii	"rdymsg\000"
 3443      736700
 3444              	.LASF19:
 3445 002a 75696E74 		.ascii	"uint64_t\000"
 3445      36345F74 
 3445      00
 3446              	.LASF3:
 3447 0033 5F5F7569 		.ascii	"__uint8_t\000"
 3447      6E74385F 
 3447      7400
 3448              	.LASF91:
 3449 003d 706F7274 		.ascii	"port_intctx\000"
 3449      5F696E74 
 3449      63747800 
 3450              	.LASF172:
 3451 0049 76615F6C 		.ascii	"va_list\000"
 3451      69737400 
 3452              	.LASF76:
 3453 0051 73797374 		.ascii	"system_debug_t\000"
 3453      656D5F64 
 3453      65627567 
 3453      5F7400
 3454              	.LASF187:
 3455 0060 474E5520 		.ascii	"GNU C99 5.4.1 20160609 (release) [ARM/embedded-5-br"
ARM GAS  C:\Users\IDONNO~1.SON\AppData\Local\Temp\ccmr4iGZ.s 			page 62


 3455      43393920 
 3455      352E342E 
 3455      31203230 
 3455      31363036 
 3456 0093 616E6368 		.ascii	"anch revision 237715] -mcpu=cortex-m4 -mfloat-abi=h"
 3456      20726576 
 3456      6973696F 
 3456      6E203233 
 3456      37373135 
 3457 00c6 61726420 		.ascii	"ard -mfpu=fpv4-sp-d16 -mno-thumb-interwork -mthumb "
 3457      2D6D6670 
 3457      753D6670 
 3457      76342D73 
 3457      702D6431 
 3458 00f9 2D676764 		.ascii	"-ggdb -O2 -std=gnu99 -fomit-frame-pointer -falign-f"
 3458      62202D4F 
 3458      32202D73 
 3458      74643D67 
 3458      6E753939 
 3459 012c 756E6374 		.ascii	"unctions=16 -ffunction-sections -fdata-sections -fn"
 3459      696F6E73 
 3459      3D313620 
 3459      2D666675 
 3459      6E637469 
 3460 015f 6F2D636F 		.ascii	"o-common -fsingle-precision-constant\000"
 3460      6D6D6F6E 
 3460      202D6673 
 3460      696E676C 
 3460      652D7072 
 3461              	.LASF140:
 3462 0184 4F545950 		.ascii	"OTYPER\000"
 3462      455200
 3463              	.LASF139:
 3464 018b 4D4F4445 		.ascii	"MODER\000"
 3464      5200
 3465              	.LASF189:
 3466 0191 443A5C67 		.ascii	"D:\\git\\oroca_bldc_dev\\oroca_bldc_FW\000"
 3466      69745C6F 
 3466      726F6361 
 3466      5F626C64 
 3466      635F6465 
 3467              	.LASF14:
 3468 01b5 6C6F6E67 		.ascii	"long long unsigned int\000"
 3468      206C6F6E 
 3468      6720756E 
 3468      7369676E 
 3468      65642069 
 3469              	.LASF173:
 3470 01cc 666F726D 		.ascii	"formatted_bytes\000"
 3470      61747465 
 3470      645F6279 
 3470      74657300 
 3471              	.LASF142:
 3472 01dc 50555044 		.ascii	"PUPDR\000"
 3472      5200
 3473              	.LASF95:
 3474 01e2 65786974 		.ascii	"exitcode\000"
ARM GAS  C:\Users\IDONNO~1.SON\AppData\Local\Temp\ccmr4iGZ.s 			page 63


 3474      636F6465 
 3474      00
 3475              	.LASF83:
 3476 01eb 6D61696E 		.ascii	"mainthread\000"
 3476      74687265 
 3476      616400
 3477              	.LASF8:
 3478 01f6 5F5F696E 		.ascii	"__int32_t\000"
 3478      7433325F 
 3478      7400
 3479              	.LASF73:
 3480 0200 76697274 		.ascii	"virtual_timers_list_t\000"
 3480      75616C5F 
 3480      74696D65 
 3480      72735F6C 
 3480      6973745F 
 3481              	.LASF182:
 3482 0216 49544D5F 		.ascii	"ITM_RxBuffer\000"
 3482      52784275 
 3482      66666572 
 3482      00
 3483              	.LASF120:
 3484 0223 696F5F71 		.ascii	"io_queue_t\000"
 3484      75657565 
 3484      5F7400
 3485              	.LASF178:
 3486 022e 55617274 		.ascii	"Uart3_SendString\000"
 3486      335F5365 
 3486      6E645374 
 3486      72696E67 
 3486      00
 3487              	.LASF180:
 3488 023f 55617274 		.ascii	"Uart3_printf\000"
 3488      335F7072 
 3488      696E7466 
 3488      00
 3489              	.LASF190:
 3490 024c 63684F51 		.ascii	"chOQPut\000"
 3490      50757400 
 3491              	.LASF34:
 3492 0254 705F7072 		.ascii	"p_prio\000"
 3492      696F00
 3493              	.LASF165:
 3494 025b 72656164 		.ascii	"readt\000"
 3494      7400
 3495              	.LASF122:
 3496 0261 715F7761 		.ascii	"q_waiting\000"
 3496      6974696E 
 3496      6700
 3497              	.LASF177:
 3498 026b 55617274 		.ascii	"Uart3_printn\000"
 3498      335F7072 
 3498      696E746E 
 3498      00
 3499              	.LASF12:
 3500 0278 6C6F6E67 		.ascii	"long long int\000"
 3500      206C6F6E 
ARM GAS  C:\Users\IDONNO~1.SON\AppData\Local\Temp\ccmr4iGZ.s 			page 64


 3500      6720696E 
 3500      7400
 3501              	.LASF1:
 3502 0286 7369676E 		.ascii	"signed char\000"
 3502      65642063 
 3502      68617200 
 3503              	.LASF143:
 3504 0292 42535252 		.ascii	"BSRR\000"
 3504      00
 3505              	.LASF86:
 3506 0297 47545052 		.ascii	"GTPR\000"
 3506      00
 3507              	.LASF50:
 3508 029c 705F6D70 		.ascii	"p_mpool\000"
 3508      6F6F6C00 
 3509              	.LASF105:
 3510 02a4 6D5F7175 		.ascii	"m_queue\000"
 3510      65756500 
 3511              	.LASF24:
 3512 02ac 74736C69 		.ascii	"tslices_t\000"
 3512      6365735F 
 3512      7400
 3513              	.LASF155:
 3514 02b6 73746174 		.ascii	"state\000"
 3514      6500
 3515              	.LASF80:
 3516 02bc 63685F73 		.ascii	"ch_system\000"
 3516      79737465 
 3516      6D00
 3517              	.LASF22:
 3518 02c6 74737461 		.ascii	"tstate_t\000"
 3518      74655F74 
 3518      00
 3519              	.LASF170:
 3520 02cf 5F5F7661 		.ascii	"__va_list\000"
 3520      5F6C6973 
 3520      7400
 3521              	.LASF124:
 3522 02d9 715F6275 		.ascii	"q_buffer\000"
 3522      66666572 
 3522      00
 3523              	.LASF36:
 3524 02e2 705F6E65 		.ascii	"p_newer\000"
 3524      77657200 
 3525              	.LASF102:
 3526 02ea 735F7175 		.ascii	"s_queue\000"
 3526      65756500 
 3527              	.LASF7:
 3528 02f2 73686F72 		.ascii	"short unsigned int\000"
 3528      7420756E 
 3528      7369676E 
 3528      65642069 
 3528      6E7400
 3529              	.LASF168:
 3530 0305 6C6F6E67 		.ascii	"long double\000"
 3530      20646F75 
 3530      626C6500 
ARM GAS  C:\Users\IDONNO~1.SON\AppData\Local\Temp\ccmr4iGZ.s 			page 65


 3531              	.LASF141:
 3532 0311 4F535045 		.ascii	"OSPEEDR\000"
 3532      45445200 
 3533              	.LASF62:
 3534 0319 725F6E65 		.ascii	"r_newer\000"
 3534      77657200 
 3535              	.LASF88:
 3536 0321 72656761 		.ascii	"regarm_t\000"
 3536      726D5F74 
 3536      00
 3537              	.LASF69:
 3538 032a 76745F70 		.ascii	"vt_prev\000"
 3538      72657600 
 3539              	.LASF82:
 3540 0332 76746C69 		.ascii	"vtlist\000"
 3540      737400
 3541              	.LASF147:
 3542 0339 73746D33 		.ascii	"stm32_gpio_t\000"
 3542      325F6770 
 3542      696F5F74 
 3542      00
 3543              	.LASF109:
 3544 0346 6D757465 		.ascii	"mutex_t\000"
 3544      785F7400 
 3545              	.LASF136:
 3546 034e 42617365 		.ascii	"BaseSequentialStream\000"
 3546      53657175 
 3546      656E7469 
 3546      616C5374 
 3546      7265616D 
 3547              	.LASF119:
 3548 0363 6576656E 		.ascii	"event_source_t\000"
 3548      745F736F 
 3548      75726365 
 3548      5F7400
 3549              	.LASF84:
 3550 0372 69646C65 		.ascii	"idle_thread_wa\000"
 3550      5F746872 
 3550      6561645F 
 3550      776100
 3551              	.LASF29:
 3552 0381 636E745F 		.ascii	"cnt_t\000"
 3552      7400
 3553              	.LASF158:
 3554 0387 75736172 		.ascii	"usart\000"
 3554      7400
 3555              	.LASF0:
 3556 038d 756E7369 		.ascii	"unsigned int\000"
 3556      676E6564 
 3556      20696E74 
 3556      00
 3557              	.LASF68:
 3558 039a 76745F6E 		.ascii	"vt_next\000"
 3558      65787400 
 3559              	.LASF16:
 3560 03a2 75696E74 		.ascii	"uint16_t\000"
 3560      31365F74 
ARM GAS  C:\Users\IDONNO~1.SON\AppData\Local\Temp\ccmr4iGZ.s 			page 66


 3560      00
 3561              	.LASF161:
 3562 03ab 53657269 		.ascii	"SerialDriverVMT\000"
 3562      616C4472 
 3562      69766572 
 3562      564D5400 
 3563              	.LASF43:
 3564 03bb 705F7469 		.ascii	"p_time\000"
 3564      6D6500
 3565              	.LASF98:
 3566 03c2 77747365 		.ascii	"wtsemp\000"
 3566      6D7000
 3567              	.LASF70:
 3568 03c9 76745F64 		.ascii	"vt_delta\000"
 3568      656C7461 
 3568      00
 3569              	.LASF45:
 3570 03d2 705F6D73 		.ascii	"p_msgqueue\000"
 3570      67717565 
 3570      756500
 3571              	.LASF163:
 3572 03dd 67657474 		.ascii	"gett\000"
 3572      00
 3573              	.LASF103:
 3574 03e2 735F636E 		.ascii	"s_cnt\000"
 3574      7400
 3575              	.LASF154:
 3576 03e8 6576656E 		.ascii	"event\000"
 3576      7400
 3577              	.LASF126:
 3578 03ee 715F7772 		.ascii	"q_wrptr\000"
 3578      70747200 
 3579              	.LASF53:
 3580 03f6 63685F74 		.ascii	"ch_thread\000"
 3580      68726561 
 3580      6400
 3581              	.LASF116:
 3582 0400 656C5F77 		.ascii	"el_wflags\000"
 3582      666C6167 
 3582      7300
 3583              	.LASF26:
 3584 040a 6D73675F 		.ascii	"msg_t\000"
 3584      7400
 3585              	.LASF157:
 3586 0410 6F717565 		.ascii	"oqueue\000"
 3586      756500
 3587              	.LASF112:
 3588 0417 656C5F6E 		.ascii	"el_next\000"
 3588      65787400 
 3589              	.LASF79:
 3590 041f 63685F73 		.ascii	"ch_system_t\000"
 3590      79737465 
 3590      6D5F7400 
 3591              	.LASF87:
 3592 042b 55534152 		.ascii	"USART_TypeDef\000"
 3592      545F5479 
 3592      70654465 
ARM GAS  C:\Users\IDONNO~1.SON\AppData\Local\Temp\ccmr4iGZ.s 			page 67


 3592      6600
 3593              	.LASF164:
 3594 0439 77726974 		.ascii	"writet\000"
 3594      657400
 3595              	.LASF21:
 3596 0440 746D6F64 		.ascii	"tmode_t\000"
 3596      655F7400 
 3597              	.LASF58:
 3598 0448 63685F72 		.ascii	"ch_ready_list\000"
 3598      65616479 
 3598      5F6C6973 
 3598      7400
 3599              	.LASF27:
 3600 0456 6576656E 		.ascii	"eventmask_t\000"
 3600      746D6173 
 3600      6B5F7400 
 3601              	.LASF159:
 3602 0462 73706565 		.ascii	"speed\000"
 3602      6400
 3603              	.LASF130:
 3604 0468 716E6F74 		.ascii	"qnotify_t\000"
 3604      6966795F 
 3604      7400
 3605              	.LASF89:
 3606 0472 73746B61 		.ascii	"stkalign_t\000"
 3606      6C69676E 
 3606      5F7400
 3607              	.LASF52:
 3608 047d 74687265 		.ascii	"threads_list_t\000"
 3608      6164735F 
 3608      6C697374 
 3608      5F7400
 3609              	.LASF134:
 3610 048c 77726974 		.ascii	"write\000"
 3610      6500
 3611              	.LASF131:
 3612 0492 696E7075 		.ascii	"input_queue_t\000"
 3612      745F7175 
 3612      6575655F 
 3612      7400
 3613              	.LASF162:
 3614 04a0 70757474 		.ascii	"putt\000"
 3614      00
 3615              	.LASF181:
 3616 04a5 73643363 		.ascii	"sd3cfg\000"
 3616      666700
 3617              	.LASF121:
 3618 04ac 696F5F71 		.ascii	"io_queue\000"
 3618      75657565 
 3618      00
 3619              	.LASF85:
 3620 04b5 73697A65 		.ascii	"sizetype\000"
 3620      74797065 
 3620      00
 3621              	.LASF51:
 3622 04be 74687265 		.ascii	"thread_reference_t\000"
 3622      61645F72 
ARM GAS  C:\Users\IDONNO~1.SON\AppData\Local\Temp\ccmr4iGZ.s 			page 68


 3622      65666572 
 3622      656E6365 
 3622      5F7400
 3623              	.LASF74:
 3624 04d1 63685F76 		.ascii	"ch_virtual_timers_list\000"
 3624      69727475 
 3624      616C5F74 
 3624      696D6572 
 3624      735F6C69 
 3625              	.LASF138:
 3626 04e8 636C6561 		.ascii	"clear\000"
 3626      7200
 3627              	.LASF97:
 3628 04ee 77747472 		.ascii	"wttrp\000"
 3628      7000
 3629              	.LASF169:
 3630 04f4 5F5F676E 		.ascii	"__gnuc_va_list\000"
 3630      75635F76 
 3630      615F6C69 
 3630      737400
 3631              	.LASF174:
 3632 0503 55617274 		.ascii	"Uart3_print_init\000"
 3632      335F7072 
 3632      696E745F 
 3632      696E6974 
 3632      00
 3633              	.LASF148:
 3634 0514 696F706F 		.ascii	"ioportmask_t\000"
 3634      72746D61 
 3634      736B5F74 
 3634      00
 3635              	.LASF37:
 3636 0521 705F6F6C 		.ascii	"p_older\000"
 3636      64657200 
 3637              	.LASF61:
 3638 0529 725F6374 		.ascii	"r_ctx\000"
 3638      7800
 3639              	.LASF93:
 3640 052f 746D5F63 		.ascii	"tm_calibration_t\000"
 3640      616C6962 
 3640      72617469 
 3640      6F6E5F74 
 3640      00
 3641              	.LASF41:
 3642 0540 705F7265 		.ascii	"p_refs\000"
 3642      667300
 3643              	.LASF64:
 3644 0547 725F6375 		.ascii	"r_current\000"
 3644      7272656E 
 3644      7400
 3645              	.LASF63:
 3646 0551 725F6F6C 		.ascii	"r_older\000"
 3646      64657200 
 3647              	.LASF114:
 3648 0559 656C5F65 		.ascii	"el_events\000"
 3648      76656E74 
 3648      7300
ARM GAS  C:\Users\IDONNO~1.SON\AppData\Local\Temp\ccmr4iGZ.s 			page 69


 3649              	.LASF160:
 3650 0563 53657269 		.ascii	"SerialConfig\000"
 3650      616C436F 
 3650      6E666967 
 3650      00
 3651              	.LASF13:
 3652 0570 5F5F7569 		.ascii	"__uint64_t\000"
 3652      6E743634 
 3652      5F7400
 3653              	.LASF167:
 3654 057b 666C6F61 		.ascii	"float\000"
 3654      7400
 3655              	.LASF145:
 3656 0581 4146524C 		.ascii	"AFRL\000"
 3656      00
 3657              	.LASF23:
 3658 0586 74726566 		.ascii	"trefs_t\000"
 3658      735F7400 
 3659              	.LASF66:
 3660 058e 76697274 		.ascii	"virtual_timer_t\000"
 3660      75616C5F 
 3660      74696D65 
 3660      725F7400 
 3661              	.LASF33:
 3662 059e 705F7072 		.ascii	"p_prev\000"
 3662      657600
 3663              	.LASF25:
 3664 05a5 74707269 		.ascii	"tprio_t\000"
 3664      6F5F7400 
 3665              	.LASF127:
 3666 05ad 715F7264 		.ascii	"q_rdptr\000"
 3666      70747200 
 3667              	.LASF38:
 3668 05b5 705F6E61 		.ascii	"p_name\000"
 3668      6D6500
 3669              	.LASF77:
 3670 05bc 63685F73 		.ascii	"ch_system_debug\000"
 3670      79737465 
 3670      6D5F6465 
 3670      62756700 
 3671              	.LASF137:
 3672 05cc 5F426F6F 		.ascii	"_Bool\000"
 3672      6C00
 3673              	.LASF17:
 3674 05d2 696E7433 		.ascii	"int32_t\000"
 3674      325F7400 
 3675              	.LASF4:
 3676 05da 756E7369 		.ascii	"unsigned char\000"
 3676      676E6564 
 3676      20636861 
 3676      7200
 3677              	.LASF46:
 3678 05e8 705F6D73 		.ascii	"p_msg\000"
 3678      6700
 3679              	.LASF113:
 3680 05ee 656C5F6C 		.ascii	"el_listener\000"
 3680      69737465 
ARM GAS  C:\Users\IDONNO~1.SON\AppData\Local\Temp\ccmr4iGZ.s 			page 70


 3680      6E657200 
 3681              	.LASF115:
 3682 05fa 656C5F66 		.ascii	"el_flags\000"
 3682      6C616773 
 3682      00
 3683              	.LASF39:
 3684 0603 705F7374 		.ascii	"p_state\000"
 3684      61746500 
 3685              	.LASF48:
 3686 060b 705F6D74 		.ascii	"p_mtxlist\000"
 3686      786C6973 
 3686      7400
 3687              	.LASF5:
 3688 0615 73686F72 		.ascii	"short int\000"
 3688      7420696E 
 3688      7400
 3689              	.LASF42:
 3690 061f 705F7072 		.ascii	"p_preempt\000"
 3690      65656D70 
 3690      7400
 3691              	.LASF60:
 3692 0629 725F7072 		.ascii	"r_prio\000"
 3692      696F00
 3693              	.LASF100:
 3694 0630 65776D61 		.ascii	"ewmask\000"
 3694      736B00
 3695              	.LASF32:
 3696 0637 705F6E65 		.ascii	"p_next\000"
 3696      787400
 3697              	.LASF133:
 3698 063e 42617365 		.ascii	"BaseSequentialStreamVMT\000"
 3698      53657175 
 3698      656E7469 
 3698      616C5374 
 3698      7265616D 
 3699              	.LASF40:
 3700 0656 705F666C 		.ascii	"p_flags\000"
 3700      61677300 
 3701              	.LASF150:
 3702 065e 53445F53 		.ascii	"SD_STOP\000"
 3702      544F5000 
 3703              	.LASF175:
 3704 0666 55617274 		.ascii	"Uart3_print\000"
 3704      335F7072 
 3704      696E7400 
 3705              	.LASF55:
 3706 0672 74687265 		.ascii	"threads_queue_t\000"
 3706      6164735F 
 3706      71756575 
 3706      655F7400 
 3707              	.LASF144:
 3708 0682 4C434B52 		.ascii	"LCKR\000"
 3708      00
 3709              	.LASF101:
 3710 0687 63685F73 		.ascii	"ch_semaphore\000"
 3710      656D6170 
 3710      686F7265 
ARM GAS  C:\Users\IDONNO~1.SON\AppData\Local\Temp\ccmr4iGZ.s 			page 71


 3710      00
 3711              	.LASF47:
 3712 0694 705F6570 		.ascii	"p_epending\000"
 3712      656E6469 
 3712      6E6700
 3713              	.LASF149:
 3714 069f 53445F55 		.ascii	"SD_UNINIT\000"
 3714      4E494E49 
 3714      5400
 3715              	.LASF179:
 3716 06a9 73747269 		.ascii	"string\000"
 3716      6E6700
 3717              	.LASF123:
 3718 06b0 715F636F 		.ascii	"q_counter\000"
 3718      756E7465 
 3718      7200
 3719              	.LASF99:
 3720 06ba 77746D74 		.ascii	"wtmtxp\000"
 3720      787000
 3721              	.LASF59:
 3722 06c1 725F7175 		.ascii	"r_queue\000"
 3722      65756500 
 3723              	.LASF54:
 3724 06c9 63685F74 		.ascii	"ch_threads_list\000"
 3724      68726561 
 3724      64735F6C 
 3724      69737400 
 3725              	.LASF153:
 3726 06d9 53657269 		.ascii	"SerialDriver\000"
 3726      616C4472 
 3726      69766572 
 3726      00
 3727              	.LASF11:
 3728 06e6 6C6F6E67 		.ascii	"long unsigned int\000"
 3728      20756E73 
 3728      69676E65 
 3728      6420696E 
 3728      7400
 3729              	.LASF135:
 3730 06f8 72656164 		.ascii	"read\000"
 3730      00
 3731              	.LASF108:
 3732 06fd 63686172 		.ascii	"char\000"
 3732      00
 3733              	.LASF184:
 3734 0702 73645374 		.ascii	"sdStart\000"
 3734      61727400 
 3735              	.LASF6:
 3736 070a 5F5F7569 		.ascii	"__uint16_t\000"
 3736      6E743136 
 3736      5F7400
 3737              	.LASF31:
 3738 0715 74687265 		.ascii	"thread_t\000"
 3738      61645F74 
 3738      00
 3739              	.LASF107:
 3740 071e 6D5F6E65 		.ascii	"m_next\000"
ARM GAS  C:\Users\IDONNO~1.SON\AppData\Local\Temp\ccmr4iGZ.s 			page 72


 3740      787400
 3741              	.LASF30:
 3742 0725 73797374 		.ascii	"systime_t\000"
 3742      696D655F 
 3742      7400
 3743              	.LASF49:
 3744 072f 705F7265 		.ascii	"p_realprio\000"
 3744      616C7072 
 3744      696F00
 3745              	.LASF65:
 3746 073a 76746675 		.ascii	"vtfunc_t\000"
 3746      6E635F74 
 3746      00
 3747              	.LASF10:
 3748 0743 5F5F7569 		.ascii	"__uint32_t\000"
 3748      6E743332 
 3748      5F7400
 3749              	.LASF78:
 3750 074e 70616E69 		.ascii	"panic_msg\000"
 3750      635F6D73 
 3750      6700
 3751              	.LASF92:
 3752 0758 6F666673 		.ascii	"offset\000"
 3752      657400
 3753              	.LASF132:
 3754 075f 6F757470 		.ascii	"output_queue_t\000"
 3754      75745F71 
 3754      75657565 
 3754      5F7400
 3755              	.LASF110:
 3756 076e 6576656E 		.ascii	"event_listener_t\000"
 3756      745F6C69 
 3756      7374656E 
 3756      65725F74 
 3756      00
 3757              	.LASF171:
 3758 077f 5F5F6170 		.ascii	"__ap\000"
 3758      00
 3759              	.LASF90:
 3760 0784 636F6E74 		.ascii	"context\000"
 3760      65787400 
 3761              	.LASF185:
 3762 078c 5F70616C 		.ascii	"_pal_lld_setgroupmode\000"
 3762      5F6C6C64 
 3762      5F736574 
 3762      67726F75 
 3762      706D6F64 
 3763              	.LASF67:
 3764 07a2 63685F76 		.ascii	"ch_virtual_timer\000"
 3764      69727475 
 3764      616C5F74 
 3764      696D6572 
 3764      00
 3765              	.LASF20:
 3766 07b3 7274636E 		.ascii	"rtcnt_t\000"
 3766      745F7400 
 3767              	.LASF151:
ARM GAS  C:\Users\IDONNO~1.SON\AppData\Local\Temp\ccmr4iGZ.s 			page 73


 3768 07bb 53445F52 		.ascii	"SD_READY\000"
 3768      45414459 
 3768      00
 3769              	.LASF176:
 3770 07c4 55617274 		.ascii	"Uart3_println\000"
 3770      335F7072 
 3770      696E746C 
 3770      6E00
 3771              	.LASF72:
 3772 07d2 76745F70 		.ascii	"vt_par\000"
 3772      617200
 3773              	.LASF28:
 3774 07d9 6576656E 		.ascii	"eventflags_t\000"
 3774      74666C61 
 3774      67735F74 
 3774      00
 3775              	.LASF18:
 3776 07e6 75696E74 		.ascii	"uint32_t\000"
 3776      33325F74 
 3776      00
 3777              	.LASF152:
 3778 07ef 73647374 		.ascii	"sdstate_t\000"
 3778      6174655F 
 3778      7400
 3779              	.LASF56:
 3780 07f9 63685F74 		.ascii	"ch_threads_queue\000"
 3780      68726561 
 3780      64735F71 
 3780      75657565 
 3780      00
 3781              	.LASF125:
 3782 080a 715F746F 		.ascii	"q_top\000"
 3782      7000
 3783              	.LASF104:
 3784 0810 63685F6D 		.ascii	"ch_mutex\000"
 3784      75746578 
 3784      00
 3785              	.LASF118:
 3786 0819 65735F6E 		.ascii	"es_next\000"
 3786      65787400 
 3787              	.LASF128:
 3788 0821 715F6E6F 		.ascii	"q_notify\000"
 3788      74696679 
 3788      00
 3789              	.LASF81:
 3790 082a 726C6973 		.ascii	"rlist\000"
 3790      7400
 3791              	.LASF117:
 3792 0830 6576656E 		.ascii	"event_source\000"
 3792      745F736F 
 3792      75726365 
 3792      00
 3793              	.LASF15:
 3794 083d 75696E74 		.ascii	"uint8_t\000"
 3794      385F7400 
 3795              	.LASF183:
 3796 0845 63687670 		.ascii	"chvprintf\000"
ARM GAS  C:\Users\IDONNO~1.SON\AppData\Local\Temp\ccmr4iGZ.s 			page 74


 3796      72696E74 
 3796      6600
 3797              	.LASF96:
 3798 084f 77746F62 		.ascii	"wtobjp\000"
 3798      6A7000
 3799              	.LASF156:
 3800 0856 69717565 		.ascii	"iqueue\000"
 3800      756500
 3801              	.LASF75:
 3802 085d 76745F73 		.ascii	"vt_systime\000"
 3802      79737469 
 3802      6D6500
 3803              	.LASF9:
 3804 0868 6C6F6E67 		.ascii	"long int\000"
 3804      20696E74 
 3804      00
 3805              	.LASF188:
 3806 0871 7372632F 		.ascii	"src/core/uart3_print.c\000"
 3806      636F7265 
 3806      2F756172 
 3806      74335F70 
 3806      72696E74 
 3807              	.LASF129:
 3808 0888 715F6C69 		.ascii	"q_link\000"
 3808      6E6B00
 3809              	.LASF146:
 3810 088f 41465248 		.ascii	"AFRH\000"
 3810      00
 3811              	.LASF106:
 3812 0894 6D5F6F77 		.ascii	"m_owner\000"
 3812      6E657200 
 3813              	.LASF166:
 3814 089c 646F7562 		.ascii	"double\000"
 3814      6C6500
 3815              	.LASF35:
 3816 08a3 705F6374 		.ascii	"p_ctx\000"
 3816      7800
 3817              	.LASF71:
 3818 08a9 76745F66 		.ascii	"vt_func\000"
 3818      756E6300 
 3819              	.LASF111:
 3820 08b1 6576656E 		.ascii	"event_listener\000"
 3820      745F6C69 
 3820      7374656E 
 3820      657200
 3821              	.LASF44:
 3822 08c0 705F7761 		.ascii	"p_waiting\000"
 3822      6974696E 
 3822      6700
 3823              	.LASF191:
 3824 08ca 63687072 		.ascii	"chprintf\000"
 3824      696E7466 
 3824      00
 3825              		.ident	"GCC: (GNU Tools for ARM Embedded Processors) 5.4.1 20160609 (release) [ARM/embedded-5-bran
ARM GAS  C:\Users\IDONNO~1.SON\AppData\Local\Temp\ccmr4iGZ.s 			page 75


DEFINED SYMBOLS
                            *ABS*:00000000 uart3_print.c
C:\Users\IDONNO~1.SON\AppData\Local\Temp\ccmr4iGZ.s:22     .text.chprintf:00000000 $t
C:\Users\IDONNO~1.SON\AppData\Local\Temp\ccmr4iGZ.s:27     .text.chprintf:00000000 chprintf
C:\Users\IDONNO~1.SON\AppData\Local\Temp\ccmr4iGZ.s:70     .text.Uart3_print_init:00000000 $t
C:\Users\IDONNO~1.SON\AppData\Local\Temp\ccmr4iGZ.s:76     .text.Uart3_print_init:00000000 Uart3_print_init
C:\Users\IDONNO~1.SON\AppData\Local\Temp\ccmr4iGZ.s:115    .text.Uart3_print_init:0000002c $d
C:\Users\IDONNO~1.SON\AppData\Local\Temp\ccmr4iGZ.s:122    .text.Uart3_print:00000000 $t
C:\Users\IDONNO~1.SON\AppData\Local\Temp\ccmr4iGZ.s:128    .text.Uart3_print:00000000 Uart3_print
C:\Users\IDONNO~1.SON\AppData\Local\Temp\ccmr4iGZ.s:171    .text.Uart3_print:00000020 $d
C:\Users\IDONNO~1.SON\AppData\Local\Temp\ccmr4iGZ.s:176    .text.Uart3_println:00000000 $t
C:\Users\IDONNO~1.SON\AppData\Local\Temp\ccmr4iGZ.s:182    .text.Uart3_println:00000000 Uart3_println
C:\Users\IDONNO~1.SON\AppData\Local\Temp\ccmr4iGZ.s:238    .text.Uart3_println:00000030 $d
C:\Users\IDONNO~1.SON\AppData\Local\Temp\ccmr4iGZ.s:244    .text.Uart3_printn:00000000 $t
C:\Users\IDONNO~1.SON\AppData\Local\Temp\ccmr4iGZ.s:250    .text.Uart3_printn:00000000 Uart3_printn
C:\Users\IDONNO~1.SON\AppData\Local\Temp\ccmr4iGZ.s:335    .text.Uart3_printn:00000054 $d
C:\Users\IDONNO~1.SON\AppData\Local\Temp\ccmr4iGZ.s:341    .text.Uart3_SendString:00000000 $t
C:\Users\IDONNO~1.SON\AppData\Local\Temp\ccmr4iGZ.s:347    .text.Uart3_SendString:00000000 Uart3_SendString
C:\Users\IDONNO~1.SON\AppData\Local\Temp\ccmr4iGZ.s:395    .text.Uart3_printf:00000000 $t
C:\Users\IDONNO~1.SON\AppData\Local\Temp\ccmr4iGZ.s:401    .text.Uart3_printf:00000000 Uart3_printf
C:\Users\IDONNO~1.SON\AppData\Local\Temp\ccmr4iGZ.s:434    .rodata.str1.4:00000000 $d
C:\Users\IDONNO~1.SON\AppData\Local\Temp\ccmr4iGZ.s:438    .data.sd3cfg:00000000 $d
C:\Users\IDONNO~1.SON\AppData\Local\Temp\ccmr4iGZ.s:442    .data.sd3cfg:00000000 sd3cfg
                     .debug_frame:00000010 $d

UNDEFINED SYMBOLS
chvprintf
sdStart
_pal_lld_setgroupmode
SD3
chOQPutTimeout
