ARM GAS  C:\Users\IDONNO~1\AppData\Local\Temp\cc9Dh1hq.s 			page 1


   1              		.syntax unified
   2              		.cpu cortex-m4
   3              		.eabi_attribute 27, 1
   4              		.eabi_attribute 28, 1
   5              		.fpu fpv4-sp-d16
   6              		.eabi_attribute 20, 1
   7              		.eabi_attribute 21, 1
   8              		.eabi_attribute 23, 3
   9              		.eabi_attribute 24, 1
  10              		.eabi_attribute 25, 1
  11              		.eabi_attribute 26, 1
  12              		.eabi_attribute 30, 2
  13              		.eabi_attribute 34, 1
  14              		.eabi_attribute 18, 4
  15              		.thumb
  16              		.syntax unified
  17              		.file	"uart3_print.c"
  18              		.text
  19              	.Ltext0:
  20              		.cfi_sections	.debug_frame
  21              		.section	.text.chprintf,"ax",%progbits
  22              		.align	2
  23              		.p2align 4,,15
  24              		.thumb
  25              		.thumb_func
  26              		.type	chprintf, %function
  27              	chprintf:
  28              	.LFB257:
  29              		.file 1 "lib/ChibiOS_3.0.2/os/hal/lib/streams/chprintf.h"
  30              		.loc 1 69 0
  31              		.cfi_startproc
  32              		@ args = 4, pretend = 12, frame = 8
  33              		@ frame_needed = 0, uses_anonymous_args = 1
  34              	.LVL0:
  35 0000 0EB4     		push	{r1, r2, r3}
  36              		.cfi_def_cfa_offset 12
  37              		.cfi_offset 1, -12
  38              		.cfi_offset 2, -8
  39              		.cfi_offset 3, -4
  40 0002 00B5     		push	{lr}
  41              		.cfi_def_cfa_offset 16
  42              		.cfi_offset 14, -16
  43 0004 82B0     		sub	sp, sp, #8
  44              		.cfi_def_cfa_offset 24
  45              		.loc 1 69 0
  46 0006 03AA     		add	r2, sp, #12
  47 0008 52F8041B 		ldr	r1, [r2], #4
  48              		.loc 1 73 0
  49 000c 0192     		str	r2, [sp, #4]
  50              		.loc 1 74 0
  51 000e FFF7FEFF 		bl	chvprintf
  52              	.LVL1:
  53              		.loc 1 78 0
  54 0012 02B0     		add	sp, sp, #8
  55              		.cfi_def_cfa_offset 16
  56              		@ sp needed
  57 0014 5DF804EB 		ldr	lr, [sp], #4
ARM GAS  C:\Users\IDONNO~1\AppData\Local\Temp\cc9Dh1hq.s 			page 2


  58              		.cfi_restore 14
  59              		.cfi_def_cfa_offset 12
  60 0018 03B0     		add	sp, sp, #12
  61              		.cfi_restore 3
  62              		.cfi_restore 2
  63              		.cfi_restore 1
  64              		.cfi_def_cfa_offset 0
  65 001a 7047     		bx	lr
  66              		.cfi_endproc
  67              	.LFE257:
  68              		.size	chprintf, .-chprintf
  69              		.section	.text.Uart3_print_init,"ax",%progbits
  70              		.align	2
  71              		.p2align 4,,15
  72              		.global	Uart3_print_init
  73              		.thumb
  74              		.thumb_func
  75              		.type	Uart3_print_init, %function
  76              	Uart3_print_init:
  77              	.LFB258:
  78              		.file 2 "src/core/uart3_print.c"
  79              		.loc 2 31 0
  80              		.cfi_startproc
  81              		@ args = 0, pretend = 0, frame = 0
  82              		@ frame_needed = 0, uses_anonymous_args = 0
  83 0000 10B5     		push	{r4, lr}
  84              		.cfi_def_cfa_offset 8
  85              		.cfi_offset 4, -8
  86              		.cfi_offset 14, -4
  87              		.loc 2 40 0
  88 0002 0A4C     		ldr	r4, .L5
  89              		.loc 2 39 0
  90 0004 0A49     		ldr	r1, .L5+4
  91 0006 0B48     		ldr	r0, .L5+8
  92 0008 FFF7FEFF 		bl	sdStart
  93              	.LVL2:
  94              		.loc 2 40 0
  95 000c 2046     		mov	r0, r4
  96 000e 40F28232 		movw	r2, #898
  97 0012 4FF48061 		mov	r1, #1024
  98 0016 FFF7FEFF 		bl	_pal_lld_setgroupmode
  99              	.LVL3:
 100              		.loc 2 41 0
 101 001a 2046     		mov	r0, r4
 102 001c 40F28232 		movw	r2, #898
 103 0020 4FF40061 		mov	r1, #2048
 104              		.loc 2 43 0
 105 0024 BDE81040 		pop	{r4, lr}
 106              		.cfi_restore 14
 107              		.cfi_restore 4
 108              		.cfi_def_cfa_offset 0
 109              		.loc 2 41 0
 110 0028 FFF7FEBF 		b	_pal_lld_setgroupmode
 111              	.LVL4:
 112              	.L6:
 113              		.align	2
 114              	.L5:
ARM GAS  C:\Users\IDONNO~1\AppData\Local\Temp\cc9Dh1hq.s 			page 3


 115 002c 00080240 		.word	1073874944
 116 0030 00000000 		.word	.LANCHOR0
 117 0034 00000000 		.word	SD3
 118              		.cfi_endproc
 119              	.LFE258:
 120              		.size	Uart3_print_init, .-Uart3_print_init
 121              		.section	.text.Uart3_print,"ax",%progbits
 122              		.align	2
 123              		.p2align 4,,15
 124              		.global	Uart3_print
 125              		.thumb
 126              		.thumb_func
 127              		.type	Uart3_print, %function
 128              	Uart3_print:
 129              	.LFB259:
 130              		.loc 2 48 0
 131              		.cfi_startproc
 132              		@ args = 0, pretend = 0, frame = 0
 133              		@ frame_needed = 0, uses_anonymous_args = 0
 134              	.LVL5:
 135              		.loc 2 49 0
 136 0000 0178     		ldrb	r1, [r0]	@ zero_extendqisi2
 137 0002 59B1     		cbz	r1, .L13
 138              		.loc 2 48 0 discriminator 2
 139 0004 38B5     		push	{r3, r4, r5, lr}
 140              		.cfi_def_cfa_offset 16
 141              		.cfi_offset 3, -16
 142              		.cfi_offset 4, -12
 143              		.cfi_offset 5, -8
 144              		.cfi_offset 14, -4
 145 0006 064D     		ldr	r5, .L15
 146 0008 0446     		mov	r4, r0
 147              	.LVL6:
 148              	.L9:
 149              		.loc 2 49 0 discriminator 2
 150 000a 2B68     		ldr	r3, [r5]
 151 000c 0448     		ldr	r0, .L15
 152 000e 9B68     		ldr	r3, [r3, #8]
 153 0010 9847     		blx	r3
 154              	.LVL7:
 155 0012 14F8011F 		ldrb	r1, [r4, #1]!	@ zero_extendqisi2
 156              	.LVL8:
 157 0016 0029     		cmp	r1, #0
 158 0018 F7D1     		bne	.L9
 159 001a 38BD     		pop	{r3, r4, r5, pc}
 160              	.LVL9:
 161              	.L13:
 162              		.cfi_def_cfa_offset 0
 163              		.cfi_restore 3
 164              		.cfi_restore 4
 165              		.cfi_restore 5
 166              		.cfi_restore 14
 167 001c 7047     		bx	lr
 168              	.L16:
 169 001e 00BF     		.align	2
 170              	.L15:
 171 0020 00000000 		.word	SD3
ARM GAS  C:\Users\IDONNO~1\AppData\Local\Temp\cc9Dh1hq.s 			page 4


 172              		.cfi_endproc
 173              	.LFE259:
 174              		.size	Uart3_print, .-Uart3_print
 175              		.section	.text.Uart3_println,"ax",%progbits
 176              		.align	2
 177              		.p2align 4,,15
 178              		.global	Uart3_println
 179              		.thumb
 180              		.thumb_func
 181              		.type	Uart3_println, %function
 182              	Uart3_println:
 183              	.LFB260:
 184              		.loc 2 53 0
 185              		.cfi_startproc
 186              		@ args = 0, pretend = 0, frame = 0
 187              		@ frame_needed = 0, uses_anonymous_args = 0
 188              	.LVL10:
 189 0000 70B5     		push	{r4, r5, r6, lr}
 190              		.cfi_def_cfa_offset 16
 191              		.cfi_offset 4, -16
 192              		.cfi_offset 5, -12
 193              		.cfi_offset 6, -8
 194              		.cfi_offset 14, -4
 195              		.loc 2 54 0
 196 0002 0178     		ldrb	r1, [r0]	@ zero_extendqisi2
 197 0004 89B1     		cbz	r1, .L23
 198 0006 0A4D     		ldr	r5, .L24
 199 0008 0446     		mov	r4, r0
 200              	.LVL11:
 201              	.L19:
 202              		.loc 2 54 0 is_stmt 0 discriminator 2
 203 000a 2B68     		ldr	r3, [r5]
 204 000c 0848     		ldr	r0, .L24
 205 000e 9B68     		ldr	r3, [r3, #8]
 206 0010 9847     		blx	r3
 207              	.LVL12:
 208 0012 14F8011F 		ldrb	r1, [r4, #1]!	@ zero_extendqisi2
 209              	.LVL13:
 210 0016 0029     		cmp	r1, #0
 211 0018 F7D1     		bne	.L19
 212              	.LVL14:
 213              	.L20:
 214              		.loc 2 55 0 is_stmt 1
 215 001a 2B68     		ldr	r3, [r5]
 216 001c 0549     		ldr	r1, .L24+4
 217 001e 1B68     		ldr	r3, [r3]
 218 0020 0348     		ldr	r0, .L24
 219 0022 0222     		movs	r2, #2
 220              		.loc 2 56 0
 221 0024 BDE87040 		pop	{r4, r5, r6, lr}
 222              		.cfi_remember_state
 223              		.cfi_restore 14
 224              		.cfi_restore 6
 225              		.cfi_restore 5
 226              		.cfi_restore 4
 227              		.cfi_def_cfa_offset 0
 228              		.loc 2 55 0
ARM GAS  C:\Users\IDONNO~1\AppData\Local\Temp\cc9Dh1hq.s 			page 5


 229 0028 1847     		bx	r3
 230              	.LVL15:
 231              	.L23:
 232              		.cfi_restore_state
 233 002a 014D     		ldr	r5, .L24
 234 002c F5E7     		b	.L20
 235              	.L25:
 236 002e 00BF     		.align	2
 237              	.L24:
 238 0030 00000000 		.word	SD3
 239 0034 00000000 		.word	.LC0
 240              		.cfi_endproc
 241              	.LFE260:
 242              		.size	Uart3_println, .-Uart3_println
 243              		.section	.text.Uart3_printn,"ax",%progbits
 244              		.align	2
 245              		.p2align 4,,15
 246              		.global	Uart3_printn
 247              		.thumb
 248              		.thumb_func
 249              		.type	Uart3_printn, %function
 250              	Uart3_printn:
 251              	.LFB261:
 252              		.loc 2 59 0
 253              		.cfi_startproc
 254              		@ args = 0, pretend = 0, frame = 16
 255              		@ frame_needed = 0, uses_anonymous_args = 0
 256              	.LVL16:
 257              		.loc 2 62 0
 258 0000 10B3     		cbz	r0, .L34
 259              		.loc 2 59 0
 260 0002 70B5     		push	{r4, r5, r6, lr}
 261              		.cfi_def_cfa_offset 16
 262              		.cfi_offset 4, -16
 263              		.cfi_offset 5, -12
 264              		.cfi_offset 6, -8
 265              		.cfi_offset 14, -4
 266              		.loc 2 66 0
 267 0004 134A     		ldr	r2, .L36
 268              		.loc 2 59 0
 269 0006 84B0     		sub	sp, sp, #16
 270              		.cfi_def_cfa_offset 32
 271 0008 6D46     		mov	r5, sp
 272 000a 6C46     		mov	r4, sp
 273              	.L28:
 274              	.LVL17:
 275              		.loc 2 66 0
 276 000c A2FB0013 		umull	r1, r3, r2, r0
 277 0010 DB08     		lsrs	r3, r3, #3
 278 0012 03EB8301 		add	r1, r3, r3, lsl #2
 279 0016 A0EB4100 		sub	r0, r0, r1, lsl #1
 280              	.LVL18:
 281 001a 00F13001 		add	r1, r0, #48
 282 001e C9B2     		uxtb	r1, r1
 283 0020 04F8011B 		strb	r1, [r4], #1
 284              	.LVL19:
 285              		.loc 2 65 0
ARM GAS  C:\Users\IDONNO~1\AppData\Local\Temp\cc9Dh1hq.s 			page 6


 286 0024 1846     		mov	r0, r3
 287 0026 002B     		cmp	r3, #0
 288 0028 F0D1     		bne	.L28
 289              		.loc 2 67 0
 290 002a AC42     		cmp	r4, r5
 291 002c 0AD9     		bls	.L26
 292 002e 0A4E     		ldr	r6, .L36+4
 293 0030 013C     		subs	r4, r4, #1
 294              	.LVL20:
 295 0032 01E0     		b	.L30
 296              	.LVL21:
 297              	.L35:
 298 0034 14F8011D 		ldrb	r1, [r4, #-1]!	@ zero_extendqisi2
 299              	.LVL22:
 300              	.L30:
 301              		.loc 2 68 0
 302 0038 3368     		ldr	r3, [r6]
 303 003a 0748     		ldr	r0, .L36+4
 304 003c 9B68     		ldr	r3, [r3, #8]
 305 003e 9847     		blx	r3
 306              	.LVL23:
 307              		.loc 2 67 0
 308 0040 AC42     		cmp	r4, r5
 309 0042 F7D1     		bne	.L35
 310              	.LVL24:
 311              	.L26:
 312              		.loc 2 70 0
 313 0044 04B0     		add	sp, sp, #16
 314              		.cfi_def_cfa_offset 16
 315              		@ sp needed
 316 0046 70BD     		pop	{r4, r5, r6, pc}
 317              	.LVL25:
 318              	.L34:
 319              		.cfi_def_cfa_offset 0
 320              		.cfi_restore 4
 321              		.cfi_restore 5
 322              		.cfi_restore 6
 323              		.cfi_restore 14
 324              		.loc 2 62 0 discriminator 1
 325 0048 0348     		ldr	r0, .L36+4
 326              	.LVL26:
 327 004a 0368     		ldr	r3, [r0]
 328 004c 3021     		movs	r1, #48
 329 004e 9B68     		ldr	r3, [r3, #8]
 330 0050 1847     		bx	r3
 331              	.LVL27:
 332              	.L37:
 333 0052 00BF     		.align	2
 334              	.L36:
 335 0054 CDCCCCCC 		.word	-858993459
 336 0058 00000000 		.word	SD3
 337              		.cfi_endproc
 338              	.LFE261:
 339              		.size	Uart3_printn, .-Uart3_printn
 340              		.section	.text.Uart3_SendString,"ax",%progbits
 341              		.align	2
 342              		.p2align 4,,15
ARM GAS  C:\Users\IDONNO~1\AppData\Local\Temp\cc9Dh1hq.s 			page 7


 343              		.global	Uart3_SendString
 344              		.thumb
 345              		.thumb_func
 346              		.type	Uart3_SendString, %function
 347              	Uart3_SendString:
 348              	.LFB262:
 349              		.loc 2 73 0
 350              		.cfi_startproc
 351              		@ args = 0, pretend = 0, frame = 0
 352              		@ frame_needed = 0, uses_anonymous_args = 0
 353              	.LVL28:
 354 0000 70B5     		push	{r4, r5, r6, lr}
 355              		.cfi_def_cfa_offset 16
 356              		.cfi_offset 4, -16
 357              		.cfi_offset 5, -12
 358              		.cfi_offset 6, -8
 359              		.cfi_offset 14, -4
 360              		.loc 2 73 0
 361 0002 0E46     		mov	r6, r1
 362              		.loc 2 75 0
 363 0004 0978     		ldrb	r1, [r1]	@ zero_extendqisi2
 364              	.LVL29:
 365 0006 61B1     		cbz	r1, .L38
 366 0008 00F13005 		add	r5, r0, #48
 367 000c 0024     		movs	r4, #0
 368              	.LVL30:
 369              	.L40:
 370              		.loc 2 75 0 is_stmt 0 discriminator 3
 371 000e 0134     		adds	r4, r4, #1
 372              	.LVL31:
 373 0010 E4B2     		uxtb	r4, r4
 374              	.LBB4:
 375              	.LBB5:
 376              		.file 3 "lib/ChibiOS_3.0.2/os/rt/include/chqueues.h"
 377              		.loc 3 426 0 is_stmt 1 discriminator 3
 378 0012 4FF0FF32 		mov	r2, #-1
 379 0016 2846     		mov	r0, r5
 380 0018 FFF7FEFF 		bl	chOQPutTimeout
 381              	.LVL32:
 382              	.LBE5:
 383              	.LBE4:
 384              		.loc 2 75 0 discriminator 3
 385 001c 315D     		ldrb	r1, [r6, r4]	@ zero_extendqisi2
 386 001e 0029     		cmp	r1, #0
 387 0020 F5D1     		bne	.L40
 388              	.LVL33:
 389              	.L38:
 390 0022 70BD     		pop	{r4, r5, r6, pc}
 391              		.cfi_endproc
 392              	.LFE262:
 393              		.size	Uart3_SendString, .-Uart3_SendString
 394              		.section	.text.Uart3_printf,"ax",%progbits
 395              		.align	2
 396              		.p2align 4,,15
 397              		.global	Uart3_printf
 398              		.thumb
 399              		.thumb_func
ARM GAS  C:\Users\IDONNO~1\AppData\Local\Temp\cc9Dh1hq.s 			page 8


 400              		.type	Uart3_printf, %function
 401              	Uart3_printf:
 402              	.LFB263:
 403              		.loc 2 80 0
 404              		.cfi_startproc
 405              		@ args = 4, pretend = 12, frame = 0
 406              		@ frame_needed = 0, uses_anonymous_args = 1
 407              	.LVL34:
 408 0000 0EB4     		push	{r1, r2, r3}
 409              		.cfi_def_cfa_offset 12
 410              		.cfi_offset 1, -12
 411              		.cfi_offset 2, -8
 412              		.cfi_offset 3, -4
 413 0002 00B5     		push	{lr}
 414              		.cfi_def_cfa_offset 16
 415              		.cfi_offset 14, -16
 416              		.loc 2 82 0
 417 0004 0199     		ldr	r1, [sp, #4]
 418 0006 FFF7FEFF 		bl	chprintf
 419              	.LVL35:
 420              		.loc 2 83 0
 421 000a 5DF804EB 		ldr	lr, [sp], #4
 422              		.cfi_restore 14
 423              		.cfi_def_cfa_offset 12
 424 000e 03B0     		add	sp, sp, #12
 425              		.cfi_restore 3
 426              		.cfi_restore 2
 427              		.cfi_restore 1
 428              		.cfi_def_cfa_offset 0
 429 0010 7047     		bx	lr
 430              		.cfi_endproc
 431              	.LFE263:
 432              		.size	Uart3_printf, .-Uart3_printf
 433 0012 00BF     		.section	.text.Uart3_getch,"ax",%progbits
 434              		.align	2
 435              		.p2align 4,,15
 436              		.global	Uart3_getch
 437              		.thumb
 438              		.thumb_func
 439              		.type	Uart3_getch, %function
 440              	Uart3_getch:
 441              	.LFB264:
 442              		.loc 2 92 0
 443              		.cfi_startproc
 444              		@ args = 0, pretend = 0, frame = 128
 445              		@ frame_needed = 0, uses_anonymous_args = 0
 446 0000 00B5     		push	{lr}
 447              		.cfi_def_cfa_offset 4
 448              		.cfi_offset 14, -4
 449              		.loc 2 97 0
 450 0002 0648     		ldr	r0, .L48
 451 0004 0368     		ldr	r3, [r0]
 452              		.loc 2 92 0
 453 0006 A1B0     		sub	sp, sp, #132
 454              		.cfi_def_cfa_offset 136
 455              		.loc 2 97 0
 456 0008 5B68     		ldr	r3, [r3, #4]
ARM GAS  C:\Users\IDONNO~1\AppData\Local\Temp\cc9Dh1hq.s 			page 9


 457 000a 0122     		movs	r2, #1
 458 000c 6946     		mov	r1, sp
 459 000e 9847     		blx	r3
 460              	.LVL36:
 461              		.loc 2 100 0
 462 0010 9DF80000 		ldrb	r0, [sp]	@ zero_extendqisi2
 463 0014 21B0     		add	sp, sp, #132
 464              		.cfi_def_cfa_offset 4
 465              		@ sp needed
 466 0016 5DF804FB 		ldr	pc, [sp], #4
 467              	.L49:
 468 001a 00BF     		.align	2
 469              	.L48:
 470 001c 00000000 		.word	SD3
 471              		.cfi_endproc
 472              	.LFE264:
 473              		.size	Uart3_getch, .-Uart3_getch
 474              		.section	.rodata.str1.4,"aMS",%progbits,1
 475              		.align	2
 476              	.LC0:
 477 0000 0D0A00   		.ascii	"\015\012\000"
 478              		.section	.data.sd3cfg,"aw",%progbits
 479              		.align	2
 480              		.set	.LANCHOR0,. + 0
 481              		.type	sd3cfg, %object
 482              		.size	sd3cfg, 12
 483              	sd3cfg:
 484 0000 00C20100 		.word	115200
 485 0004 0014     		.short	5120
 486 0006 0040     		.short	16384
 487 0008 0000     		.short	0
 488 000a 0000     		.space	2
 489              		.text
 490              	.Letext0:
 491              		.file 4 "c:\\program files (x86)\\gnu tools arm embedded\\5.4 2016q3\\lib\\gcc\\arm-none-eabi\\5.4
 492              		.file 5 "c:\\program files (x86)\\gnu tools arm embedded\\5.4 2016q3\\arm-none-eabi\\include\\mach
 493              		.file 6 "c:\\program files (x86)\\gnu tools arm embedded\\5.4 2016q3\\arm-none-eabi\\include\\sys\
 494              		.file 7 "lib/ChibiOS_3.0.2/os/rt/ports/ARMCMx/compilers/GCC/chtypes.h"
 495              		.file 8 "lib/ChibiOS_3.0.2/os/rt/include/chsystypes.h"
 496              		.file 9 "lib/ChibiOS_3.0.2/os/rt/include/chschd.h"
 497              		.file 10 "lib/ChibiOS_3.0.2/os/ext/CMSIS/ST/stm32f407xx.h"
 498              		.file 11 "lib/ChibiOS_3.0.2/os/rt/ports/ARMCMx/chcore.h"
 499              		.file 12 "lib/ChibiOS_3.0.2/os/rt/ports/ARMCMx/chcore_v7m.h"
 500              		.file 13 "lib/ChibiOS_3.0.2/os/rt/include/chtm.h"
 501              		.file 14 "lib/ChibiOS_3.0.2/os/rt/include/chsem.h"
 502              		.file 15 "lib/ChibiOS_3.0.2/os/rt/include/chmtx.h"
 503              		.file 16 "lib/ChibiOS_3.0.2/os/rt/include/chevents.h"
 504              		.file 17 "lib/ChibiOS_3.0.2/os/rt/include/chstreams.h"
 505              		.file 18 "lib/ChibiOS_3.0.2/os/hal/ports/STM32/LLD/GPIOv2/pal_lld.h"
 506              		.file 19 "lib/ChibiOS_3.0.2/os/hal/include/serial.h"
 507              		.file 20 "lib/ChibiOS_3.0.2/os/hal/ports/STM32/LLD/USARTv1/serial_lld.h"
 508              		.file 21 "c:\\program files (x86)\\gnu tools arm embedded\\5.4 2016q3\\lib\\gcc\\arm-none-eabi\\5.
 509              		.file 22 "<built-in>"
 510              		.file 23 "lib/ChibiOS_3.0.2/os/ext/CMSIS/include/core_cm4.h"
 511              		.section	.debug_info,"",%progbits
 512              	.Ldebug_info0:
 513 0000 5F100000 		.4byte	0x105f
ARM GAS  C:\Users\IDONNO~1\AppData\Local\Temp\cc9Dh1hq.s 			page 10


 514 0004 0400     		.2byte	0x4
 515 0006 00000000 		.4byte	.Ldebug_abbrev0
 516 000a 04       		.byte	0x4
 517 000b 01       		.uleb128 0x1
 518 000c 23030000 		.4byte	.LASF188
 519 0010 0C       		.byte	0xc
 520 0011 04080000 		.4byte	.LASF189
 521 0015 53020000 		.4byte	.LASF190
 522 0019 00000000 		.4byte	.Ldebug_ranges0+0
 523 001d 00000000 		.4byte	0
 524 0021 00000000 		.4byte	.Ldebug_line0
 525 0025 02       		.uleb128 0x2
 526 0026 04       		.byte	0x4
 527 0027 05       		.byte	0x5
 528 0028 696E7400 		.ascii	"int\000"
 529 002c 03       		.uleb128 0x3
 530 002d 00030000 		.4byte	.LASF2
 531 0031 04       		.byte	0x4
 532 0032 D8       		.byte	0xd8
 533 0033 37000000 		.4byte	0x37
 534 0037 04       		.uleb128 0x4
 535 0038 04       		.byte	0x4
 536 0039 07       		.byte	0x7
 537 003a D9000000 		.4byte	.LASF0
 538 003e 04       		.uleb128 0x4
 539 003f 01       		.byte	0x1
 540 0040 06       		.byte	0x6
 541 0041 69080000 		.4byte	.LASF1
 542 0045 03       		.uleb128 0x3
 543 0046 04070000 		.4byte	.LASF3
 544 004a 05       		.byte	0x5
 545 004b 1D       		.byte	0x1d
 546 004c 50000000 		.4byte	0x50
 547 0050 04       		.uleb128 0x4
 548 0051 01       		.byte	0x1
 549 0052 08       		.byte	0x8
 550 0053 92070000 		.4byte	.LASF4
 551 0057 04       		.uleb128 0x4
 552 0058 02       		.byte	0x2
 553 0059 05       		.byte	0x5
 554 005a 8E060000 		.4byte	.LASF5
 555 005e 03       		.uleb128 0x3
 556 005f 86020000 		.4byte	.LASF6
 557 0063 05       		.byte	0x5
 558 0064 2B       		.byte	0x2b
 559 0065 69000000 		.4byte	0x69
 560 0069 04       		.uleb128 0x4
 561 006a 02       		.byte	0x2
 562 006b 07       		.byte	0x7
 563 006c 30060000 		.4byte	.LASF7
 564 0070 03       		.uleb128 0x3
 565 0071 07010000 		.4byte	.LASF8
 566 0075 05       		.byte	0x5
 567 0076 3F       		.byte	0x3f
 568 0077 7B000000 		.4byte	0x7b
 569 007b 04       		.uleb128 0x4
 570 007c 04       		.byte	0x4
ARM GAS  C:\Users\IDONNO~1\AppData\Local\Temp\cc9Dh1hq.s 			page 11


 571 007d 05       		.byte	0x5
 572 007e B5060000 		.4byte	.LASF9
 573 0082 03       		.uleb128 0x3
 574 0083 A0070000 		.4byte	.LASF10
 575 0087 05       		.byte	0x5
 576 0088 41       		.byte	0x41
 577 0089 8D000000 		.4byte	0x8d
 578 008d 04       		.uleb128 0x4
 579 008e 04       		.byte	0x4
 580 008f 07       		.byte	0x7
 581 0090 DC050000 		.4byte	.LASF11
 582 0094 04       		.uleb128 0x4
 583 0095 08       		.byte	0x8
 584 0096 05       		.byte	0x5
 585 0097 CE040000 		.4byte	.LASF12
 586 009b 03       		.uleb128 0x3
 587 009c 58040000 		.4byte	.LASF13
 588 00a0 05       		.byte	0x5
 589 00a1 5B       		.byte	0x5b
 590 00a2 A6000000 		.4byte	0xa6
 591 00a6 04       		.uleb128 0x4
 592 00a7 08       		.byte	0x8
 593 00a8 07       		.byte	0x7
 594 00a9 2B020000 		.4byte	.LASF14
 595 00ad 03       		.uleb128 0x3
 596 00ae F8040000 		.4byte	.LASF15
 597 00b2 06       		.byte	0x6
 598 00b3 18       		.byte	0x18
 599 00b4 45000000 		.4byte	0x45
 600 00b8 03       		.uleb128 0x3
 601 00b9 56060000 		.4byte	.LASF16
 602 00bd 06       		.byte	0x6
 603 00be 24       		.byte	0x24
 604 00bf 5E000000 		.4byte	0x5e
 605 00c3 03       		.uleb128 0x3
 606 00c4 7B070000 		.4byte	.LASF17
 607 00c8 06       		.byte	0x6
 608 00c9 2C       		.byte	0x2c
 609 00ca 70000000 		.4byte	0x70
 610 00ce 03       		.uleb128 0x3
 611 00cf B5010000 		.4byte	.LASF18
 612 00d3 06       		.byte	0x6
 613 00d4 30       		.byte	0x30
 614 00d5 82000000 		.4byte	0x82
 615 00d9 03       		.uleb128 0x3
 616 00da EF060000 		.4byte	.LASF19
 617 00de 06       		.byte	0x6
 618 00df 3C       		.byte	0x3c
 619 00e0 9B000000 		.4byte	0x9b
 620 00e4 05       		.uleb128 0x5
 621 00e5 C3000000 		.4byte	0xc3
 622 00e9 05       		.uleb128 0x5
 623 00ea CE000000 		.4byte	0xce
 624 00ee 03       		.uleb128 0x3
 625 00ef 72060000 		.4byte	.LASF20
 626 00f3 07       		.byte	0x7
 627 00f4 45       		.byte	0x45
ARM GAS  C:\Users\IDONNO~1\AppData\Local\Temp\cc9Dh1hq.s 			page 12


 628 00f5 CE000000 		.4byte	0xce
 629 00f9 03       		.uleb128 0x3
 630 00fa 09060000 		.4byte	.LASF21
 631 00fe 07       		.byte	0x7
 632 00ff 48       		.byte	0x48
 633 0100 AD000000 		.4byte	0xad
 634 0104 03       		.uleb128 0x3
 635 0105 C5040000 		.4byte	.LASF22
 636 0109 07       		.byte	0x7
 637 010a 49       		.byte	0x49
 638 010b AD000000 		.4byte	0xad
 639 010f 03       		.uleb128 0x3
 640 0110 55070000 		.4byte	.LASF23
 641 0114 07       		.byte	0x7
 642 0115 4A       		.byte	0x4a
 643 0116 AD000000 		.4byte	0xad
 644 011a 03       		.uleb128 0x3
 645 011b CA050000 		.4byte	.LASF24
 646 011f 07       		.byte	0x7
 647 0120 4B       		.byte	0x4b
 648 0121 AD000000 		.4byte	0xad
 649 0125 03       		.uleb128 0x3
 650 0126 12020000 		.4byte	.LASF25
 651 012a 07       		.byte	0x7
 652 012b 4C       		.byte	0x4c
 653 012c CE000000 		.4byte	0xce
 654 0130 03       		.uleb128 0x3
 655 0131 7E050000 		.4byte	.LASF26
 656 0135 07       		.byte	0x7
 657 0136 4D       		.byte	0x4d
 658 0137 C3000000 		.4byte	0xc3
 659 013b 03       		.uleb128 0x3
 660 013c C8010000 		.4byte	.LASF27
 661 0140 07       		.byte	0x7
 662 0141 4F       		.byte	0x4f
 663 0142 CE000000 		.4byte	0xce
 664 0146 03       		.uleb128 0x3
 665 0147 EE050000 		.4byte	.LASF28
 666 014b 07       		.byte	0x7
 667 014c 50       		.byte	0x50
 668 014d CE000000 		.4byte	0xce
 669 0151 03       		.uleb128 0x3
 670 0152 91020000 		.4byte	.LASF29
 671 0156 07       		.byte	0x7
 672 0157 51       		.byte	0x51
 673 0158 C3000000 		.4byte	0xc3
 674 015c 03       		.uleb128 0x3
 675 015d 85000000 		.4byte	.LASF30
 676 0161 08       		.byte	0x8
 677 0162 33       		.byte	0x33
 678 0163 CE000000 		.4byte	0xce
 679 0167 03       		.uleb128 0x3
 680 0168 D9020000 		.4byte	.LASF31
 681 016c 08       		.byte	0x8
 682 016d 3F       		.byte	0x3f
 683 016e 72010000 		.4byte	0x172
 684 0172 06       		.uleb128 0x6
ARM GAS  C:\Users\IDONNO~1\AppData\Local\Temp\cc9Dh1hq.s 			page 13


 685 0173 20050000 		.4byte	.LASF53
 686 0177 48       		.byte	0x48
 687 0178 09       		.byte	0x9
 688 0179 C2       		.byte	0xc2
 689 017a 77020000 		.4byte	0x277
 690 017e 07       		.uleb128 0x7
 691 017f E8060000 		.4byte	.LASF32
 692 0183 09       		.byte	0x9
 693 0184 C3       		.byte	0xc3
 694 0185 82020000 		.4byte	0x282
 695 0189 00       		.byte	0
 696 018a 07       		.uleb128 0x7
 697 018b 45070000 		.4byte	.LASF33
 698 018f 09       		.byte	0x9
 699 0190 C5       		.byte	0xc5
 700 0191 82020000 		.4byte	0x282
 701 0195 04       		.byte	0x4
 702 0196 07       		.uleb128 0x7
 703 0197 71000000 		.4byte	.LASF34
 704 019b 09       		.byte	0x9
 705 019c C7       		.byte	0xc7
 706 019d 25010000 		.4byte	0x125
 707 01a1 08       		.byte	0x8
 708 01a2 07       		.uleb128 0x7
 709 01a3 F8060000 		.4byte	.LASF35
 710 01a7 09       		.byte	0x9
 711 01a8 C8       		.byte	0xc8
 712 01a9 21050000 		.4byte	0x521
 713 01ad 0C       		.byte	0xc
 714 01ae 07       		.uleb128 0x7
 715 01af B4020000 		.4byte	.LASF36
 716 01b3 09       		.byte	0x9
 717 01b4 CA       		.byte	0xca
 718 01b5 82020000 		.4byte	0x282
 719 01b9 10       		.byte	0x10
 720 01ba 07       		.uleb128 0x7
 721 01bb DC040000 		.4byte	.LASF37
 722 01bf 09       		.byte	0x9
 723 01c0 CB       		.byte	0xcb
 724 01c1 82020000 		.4byte	0x282
 725 01c5 14       		.byte	0x14
 726 01c6 07       		.uleb128 0x7
 727 01c7 89040000 		.4byte	.LASF38
 728 01cb 09       		.byte	0x9
 729 01cc D2       		.byte	0xd2
 730 01cd 66070000 		.4byte	0x766
 731 01d1 18       		.byte	0x18
 732 01d2 07       		.uleb128 0x7
 733 01d3 E4040000 		.4byte	.LASF39
 734 01d7 09       		.byte	0x9
 735 01d8 DD       		.byte	0xdd
 736 01d9 04010000 		.4byte	0x104
 737 01dd 1C       		.byte	0x1c
 738 01de 07       		.uleb128 0x7
 739 01df 99050000 		.4byte	.LASF40
 740 01e3 09       		.byte	0x9
 741 01e4 E1       		.byte	0xe1
ARM GAS  C:\Users\IDONNO~1\AppData\Local\Temp\cc9Dh1hq.s 			page 14


 742 01e5 F9000000 		.4byte	0xf9
 743 01e9 1D       		.byte	0x1d
 744 01ea 07       		.uleb128 0x7
 745 01eb 1B080000 		.4byte	.LASF41
 746 01ef 09       		.byte	0x9
 747 01f0 E6       		.byte	0xe6
 748 01f1 0F010000 		.4byte	0x10f
 749 01f5 1E       		.byte	0x1e
 750 01f6 07       		.uleb128 0x7
 751 01f7 F2070000 		.4byte	.LASF42
 752 01fb 09       		.byte	0x9
 753 01fc EC       		.byte	0xec
 754 01fd 1A010000 		.4byte	0x11a
 755 0201 1F       		.byte	0x1f
 756 0202 07       		.uleb128 0x7
 757 0203 4D000000 		.4byte	.LASF43
 758 0207 09       		.byte	0x9
 759 0208 F3       		.byte	0xf3
 760 0209 78070000 		.4byte	0x778
 761 020d 20       		.byte	0x20
 762 020e 08       		.uleb128 0x8
 763 020f 705F7500 		.ascii	"p_u\000"
 764 0213 09       		.byte	0x9
 765 0214 3101     		.2byte	0x131
 766 0216 A1060000 		.4byte	0x6a1
 767 021a 24       		.byte	0x24
 768 021b 09       		.uleb128 0x9
 769 021c F5000000 		.4byte	.LASF44
 770 0220 09       		.byte	0x9
 771 0221 3601     		.2byte	0x136
 772 0223 88020000 		.4byte	0x288
 773 0227 28       		.byte	0x28
 774 0228 09       		.uleb128 0x9
 775 0229 C1000000 		.4byte	.LASF45
 776 022d 09       		.byte	0x9
 777 022e 3C01     		.2byte	0x13c
 778 0230 AC020000 		.4byte	0x2ac
 779 0234 2C       		.byte	0x2c
 780 0235 09       		.uleb128 0x9
 781 0236 03060000 		.4byte	.LASF46
 782 023a 09       		.byte	0x9
 783 023b 4001     		.2byte	0x140
 784 023d 30010000 		.4byte	0x130
 785 0241 34       		.byte	0x34
 786 0242 09       		.uleb128 0x9
 787 0243 A2060000 		.4byte	.LASF47
 788 0247 09       		.byte	0x9
 789 0248 4601     		.2byte	0x146
 790 024a 3B010000 		.4byte	0x13b
 791 024e 38       		.byte	0x38
 792 024f 09       		.uleb128 0x9
 793 0250 16050000 		.4byte	.LASF48
 794 0254 09       		.byte	0x9
 795 0255 4D01     		.2byte	0x14d
 796 0257 60070000 		.4byte	0x760
 797 025b 3C       		.byte	0x3c
 798 025c 09       		.uleb128 0x9
ARM GAS  C:\Users\IDONNO~1\AppData\Local\Temp\cc9Dh1hq.s 			page 15


 799 025d 83060000 		.4byte	.LASF49
 800 0261 09       		.byte	0x9
 801 0262 5101     		.2byte	0x151
 802 0264 25010000 		.4byte	0x125
 803 0268 40       		.byte	0x40
 804 0269 09       		.uleb128 0x9
 805 026a 0E050000 		.4byte	.LASF50
 806 026e 09       		.byte	0x9
 807 026f 5801     		.2byte	0x158
 808 0271 5F030000 		.4byte	0x35f
 809 0275 44       		.byte	0x44
 810 0276 00       		.byte	0
 811 0277 03       		.uleb128 0x3
 812 0278 5F060000 		.4byte	.LASF51
 813 027c 08       		.byte	0x8
 814 027d 44       		.byte	0x44
 815 027e 82020000 		.4byte	0x282
 816 0282 0A       		.uleb128 0xa
 817 0283 04       		.byte	0x4
 818 0284 67010000 		.4byte	0x167
 819 0288 03       		.uleb128 0x3
 820 0289 E6000000 		.4byte	.LASF52
 821 028d 08       		.byte	0x8
 822 028e 49       		.byte	0x49
 823 028f 93020000 		.4byte	0x293
 824 0293 06       		.uleb128 0x6
 825 0294 00000000 		.4byte	.LASF54
 826 0298 04       		.byte	0x4
 827 0299 09       		.byte	0x9
 828 029a B0       		.byte	0xb0
 829 029b AC020000 		.4byte	0x2ac
 830 029f 07       		.uleb128 0x7
 831 02a0 E8060000 		.4byte	.LASF32
 832 02a4 09       		.byte	0x9
 833 02a5 B1       		.byte	0xb1
 834 02a6 82020000 		.4byte	0x282
 835 02aa 00       		.byte	0
 836 02ab 00       		.byte	0
 837 02ac 03       		.uleb128 0x3
 838 02ad 10000000 		.4byte	.LASF55
 839 02b1 08       		.byte	0x8
 840 02b2 50       		.byte	0x50
 841 02b3 B7020000 		.4byte	0x2b7
 842 02b7 06       		.uleb128 0x6
 843 02b8 50050000 		.4byte	.LASF56
 844 02bc 08       		.byte	0x8
 845 02bd 09       		.byte	0x9
 846 02be B7       		.byte	0xb7
 847 02bf DC020000 		.4byte	0x2dc
 848 02c3 07       		.uleb128 0x7
 849 02c4 E8060000 		.4byte	.LASF32
 850 02c8 09       		.byte	0x9
 851 02c9 B8       		.byte	0xb8
 852 02ca 82020000 		.4byte	0x282
 853 02ce 00       		.byte	0
 854 02cf 07       		.uleb128 0x7
 855 02d0 45070000 		.4byte	.LASF33
ARM GAS  C:\Users\IDONNO~1\AppData\Local\Temp\cc9Dh1hq.s 			page 16


 856 02d4 09       		.byte	0x9
 857 02d5 B9       		.byte	0xb9
 858 02d6 82020000 		.4byte	0x282
 859 02da 04       		.byte	0x4
 860 02db 00       		.byte	0
 861 02dc 03       		.uleb128 0x3
 862 02dd 6E070000 		.4byte	.LASF57
 863 02e1 08       		.byte	0x8
 864 02e2 57       		.byte	0x57
 865 02e3 E7020000 		.4byte	0x2e7
 866 02e7 0B       		.uleb128 0xb
 867 02e8 48010000 		.4byte	.LASF58
 868 02ec 1C       		.byte	0x1c
 869 02ed 09       		.byte	0x9
 870 02ee 9001     		.2byte	0x190
 871 02f0 43030000 		.4byte	0x343
 872 02f4 09       		.uleb128 0x9
 873 02f5 76050000 		.4byte	.LASF59
 874 02f9 09       		.byte	0x9
 875 02fa 9101     		.2byte	0x191
 876 02fc AC020000 		.4byte	0x2ac
 877 0300 00       		.byte	0
 878 0301 09       		.uleb128 0x9
 879 0302 D4010000 		.4byte	.LASF60
 880 0306 09       		.byte	0x9
 881 0307 9201     		.2byte	0x192
 882 0309 25010000 		.4byte	0x125
 883 030d 08       		.byte	0x8
 884 030e 09       		.uleb128 0x9
 885 030f 94080000 		.4byte	.LASF61
 886 0313 09       		.byte	0x9
 887 0314 9401     		.2byte	0x194
 888 0316 21050000 		.4byte	0x521
 889 031a 0C       		.byte	0xc
 890 031b 09       		.uleb128 0x9
 891 031c AE040000 		.4byte	.LASF62
 892 0320 09       		.byte	0x9
 893 0321 9701     		.2byte	0x197
 894 0323 82020000 		.4byte	0x282
 895 0327 10       		.byte	0x10
 896 0328 09       		.uleb128 0x9
 897 0329 D4050000 		.4byte	.LASF63
 898 032d 09       		.byte	0x9
 899 032e 9801     		.2byte	0x198
 900 0330 82020000 		.4byte	0x282
 901 0334 14       		.byte	0x14
 902 0335 09       		.uleb128 0x9
 903 0336 98060000 		.4byte	.LASF64
 904 033a 09       		.byte	0x9
 905 033b 9B01     		.2byte	0x19b
 906 033d 82020000 		.4byte	0x282
 907 0341 18       		.byte	0x18
 908 0342 00       		.byte	0
 909 0343 03       		.uleb128 0x3
 910 0344 7D010000 		.4byte	.LASF65
 911 0348 08       		.byte	0x8
 912 0349 5C       		.byte	0x5c
ARM GAS  C:\Users\IDONNO~1\AppData\Local\Temp\cc9Dh1hq.s 			page 17


 913 034a 4E030000 		.4byte	0x34e
 914 034e 0A       		.uleb128 0xa
 915 034f 04       		.byte	0x4
 916 0350 54030000 		.4byte	0x354
 917 0354 0C       		.uleb128 0xc
 918 0355 5F030000 		.4byte	0x35f
 919 0359 0D       		.uleb128 0xd
 920 035a 5F030000 		.4byte	0x35f
 921 035e 00       		.byte	0
 922 035f 0E       		.uleb128 0xe
 923 0360 04       		.byte	0x4
 924 0361 03       		.uleb128 0x3
 925 0362 A6050000 		.4byte	.LASF66
 926 0366 08       		.byte	0x8
 927 0367 61       		.byte	0x61
 928 0368 6C030000 		.4byte	0x36c
 929 036c 0B       		.uleb128 0xb
 930 036d 1A020000 		.4byte	.LASF67
 931 0371 14       		.byte	0x14
 932 0372 09       		.byte	0x9
 933 0373 6B01     		.2byte	0x16b
 934 0375 BB030000 		.4byte	0x3bb
 935 0379 09       		.uleb128 0x9
 936 037a 28080000 		.4byte	.LASF68
 937 037e 09       		.byte	0x9
 938 037f 6C01     		.2byte	0x16c
 939 0381 7D070000 		.4byte	0x77d
 940 0385 00       		.byte	0
 941 0386 09       		.uleb128 0x9
 942 0387 B4080000 		.4byte	.LASF69
 943 038b 09       		.byte	0x9
 944 038c 6D01     		.2byte	0x16d
 945 038e 7D070000 		.4byte	0x77d
 946 0392 04       		.byte	0x4
 947 0393 09       		.uleb128 0x9
 948 0394 A5040000 		.4byte	.LASF70
 949 0398 09       		.byte	0x9
 950 0399 6E01     		.2byte	0x16e
 951 039b 5C010000 		.4byte	0x15c
 952 039f 08       		.byte	0x8
 953 03a0 09       		.uleb128 0x9
 954 03a1 A5080000 		.4byte	.LASF71
 955 03a5 09       		.byte	0x9
 956 03a6 6F01     		.2byte	0x16f
 957 03a8 43030000 		.4byte	0x343
 958 03ac 0C       		.byte	0xc
 959 03ad 09       		.uleb128 0x9
 960 03ae E8010000 		.4byte	.LASF72
 961 03b2 09       		.byte	0x9
 962 03b3 7101     		.2byte	0x171
 963 03b5 5F030000 		.4byte	0x35f
 964 03b9 10       		.byte	0x10
 965 03ba 00       		.byte	0
 966 03bb 03       		.uleb128 0x3
 967 03bc B9070000 		.4byte	.LASF73
 968 03c0 08       		.byte	0x8
 969 03c1 66       		.byte	0x66
ARM GAS  C:\Users\IDONNO~1\AppData\Local\Temp\cc9Dh1hq.s 			page 18


 970 03c2 C6030000 		.4byte	0x3c6
 971 03c6 0B       		.uleb128 0xb
 972 03c7 C2020000 		.4byte	.LASF74
 973 03cb 10       		.byte	0x10
 974 03cc 09       		.byte	0x9
 975 03cd 7B01     		.2byte	0x17b
 976 03cf 08040000 		.4byte	0x408
 977 03d3 09       		.uleb128 0x9
 978 03d4 28080000 		.4byte	.LASF68
 979 03d8 09       		.byte	0x9
 980 03d9 7C01     		.2byte	0x17c
 981 03db 7D070000 		.4byte	0x77d
 982 03df 00       		.byte	0
 983 03e0 09       		.uleb128 0x9
 984 03e1 B4080000 		.4byte	.LASF69
 985 03e5 09       		.byte	0x9
 986 03e6 7E01     		.2byte	0x17e
 987 03e8 7D070000 		.4byte	0x77d
 988 03ec 04       		.byte	0x4
 989 03ed 09       		.uleb128 0x9
 990 03ee A5040000 		.4byte	.LASF70
 991 03f2 09       		.byte	0x9
 992 03f3 8001     		.2byte	0x180
 993 03f5 5C010000 		.4byte	0x15c
 994 03f9 08       		.byte	0x8
 995 03fa 09       		.uleb128 0x9
 996 03fb AB000000 		.4byte	.LASF75
 997 03ff 09       		.byte	0x9
 998 0400 8201     		.2byte	0x182
 999 0402 78070000 		.4byte	0x778
 1000 0406 0C       		.byte	0xc
 1001 0407 00       		.byte	0
 1002 0408 03       		.uleb128 0x3
 1003 0409 41050000 		.4byte	.LASF76
 1004 040d 08       		.byte	0x8
 1005 040e 6B       		.byte	0x6b
 1006 040f 13040000 		.4byte	0x413
 1007 0413 0B       		.uleb128 0xb
 1008 0414 99010000 		.4byte	.LASF77
 1009 0418 04       		.byte	0x4
 1010 0419 09       		.byte	0x9
 1011 041a A201     		.2byte	0x1a2
 1012 041c 2E040000 		.4byte	0x42e
 1013 0420 09       		.uleb128 0x9
 1014 0421 D9070000 		.4byte	.LASF78
 1015 0425 09       		.byte	0x9
 1016 0426 AA01     		.2byte	0x1aa
 1017 0428 83070000 		.4byte	0x783
 1018 042c 00       		.byte	0
 1019 042d 00       		.byte	0
 1020 042e 03       		.uleb128 0x3
 1021 042f 46080000 		.4byte	.LASF79
 1022 0433 08       		.byte	0x8
 1023 0434 70       		.byte	0x70
 1024 0435 39040000 		.4byte	0x439
 1025 0439 0F       		.uleb128 0xf
 1026 043a D7060000 		.4byte	.LASF80
ARM GAS  C:\Users\IDONNO~1\AppData\Local\Temp\cc9Dh1hq.s 			page 19


 1027 043e 5802     		.2byte	0x258
 1028 0440 09       		.byte	0x9
 1029 0441 C201     		.2byte	0x1c2
 1030 0443 95040000 		.4byte	0x495
 1031 0447 09       		.uleb128 0x9
 1032 0448 FE060000 		.4byte	.LASF81
 1033 044c 09       		.byte	0x9
 1034 044d C601     		.2byte	0x1c6
 1035 044f DC020000 		.4byte	0x2dc
 1036 0453 00       		.byte	0
 1037 0454 09       		.uleb128 0x9
 1038 0455 3A010000 		.4byte	.LASF82
 1039 0459 09       		.byte	0x9
 1040 045a CA01     		.2byte	0x1ca
 1041 045c BB030000 		.4byte	0x3bb
 1042 0460 1C       		.byte	0x1c
 1043 0461 08       		.uleb128 0x8
 1044 0462 64626700 		.ascii	"dbg\000"
 1045 0466 09       		.byte	0x9
 1046 0467 CE01     		.2byte	0x1ce
 1047 0469 08040000 		.4byte	0x408
 1048 046d 2C       		.byte	0x2c
 1049 046e 09       		.uleb128 0x9
 1050 046f 1D060000 		.4byte	.LASF83
 1051 0473 09       		.byte	0x9
 1052 0474 D201     		.2byte	0x1d2
 1053 0476 67010000 		.4byte	0x167
 1054 047a 30       		.byte	0x30
 1055 047b 08       		.uleb128 0x8
 1056 047c 746D00   		.ascii	"tm\000"
 1057 047f 09       		.byte	0x9
 1058 0480 D701     		.2byte	0x1d7
 1059 0482 96060000 		.4byte	0x696
 1060 0486 78       		.byte	0x78
 1061 0487 09       		.uleb128 0x9
 1062 0488 56010000 		.4byte	.LASF84
 1063 048c 09       		.byte	0x9
 1064 048d E301     		.2byte	0x1e3
 1065 048f 88070000 		.4byte	0x788
 1066 0493 80       		.byte	0x80
 1067 0494 00       		.byte	0
 1068 0495 04       		.uleb128 0x4
 1069 0496 04       		.byte	0x4
 1070 0497 07       		.byte	0x7
 1071 0498 4C070000 		.4byte	.LASF85
 1072 049c 10       		.uleb128 0x10
 1073 049d 1C       		.byte	0x1c
 1074 049e 0A       		.byte	0xa
 1075 049f 0903     		.2byte	0x309
 1076 04a1 FF040000 		.4byte	0x4ff
 1077 04a5 08       		.uleb128 0x8
 1078 04a6 535200   		.ascii	"SR\000"
 1079 04a9 0A       		.byte	0xa
 1080 04aa 0B03     		.2byte	0x30b
 1081 04ac E9000000 		.4byte	0xe9
 1082 04b0 00       		.byte	0
 1083 04b1 08       		.uleb128 0x8
ARM GAS  C:\Users\IDONNO~1\AppData\Local\Temp\cc9Dh1hq.s 			page 20


 1084 04b2 445200   		.ascii	"DR\000"
 1085 04b5 0A       		.byte	0xa
 1086 04b6 0C03     		.2byte	0x30c
 1087 04b8 E9000000 		.4byte	0xe9
 1088 04bc 04       		.byte	0x4
 1089 04bd 08       		.uleb128 0x8
 1090 04be 42525200 		.ascii	"BRR\000"
 1091 04c2 0A       		.byte	0xa
 1092 04c3 0D03     		.2byte	0x30d
 1093 04c5 E9000000 		.4byte	0xe9
 1094 04c9 08       		.byte	0x8
 1095 04ca 08       		.uleb128 0x8
 1096 04cb 43523100 		.ascii	"CR1\000"
 1097 04cf 0A       		.byte	0xa
 1098 04d0 0E03     		.2byte	0x30e
 1099 04d2 E9000000 		.4byte	0xe9
 1100 04d6 0C       		.byte	0xc
 1101 04d7 08       		.uleb128 0x8
 1102 04d8 43523200 		.ascii	"CR2\000"
 1103 04dc 0A       		.byte	0xa
 1104 04dd 0F03     		.2byte	0x30f
 1105 04df E9000000 		.4byte	0xe9
 1106 04e3 10       		.byte	0x10
 1107 04e4 08       		.uleb128 0x8
 1108 04e5 43523300 		.ascii	"CR3\000"
 1109 04e9 0A       		.byte	0xa
 1110 04ea 1003     		.2byte	0x310
 1111 04ec E9000000 		.4byte	0xe9
 1112 04f0 14       		.byte	0x14
 1113 04f1 09       		.uleb128 0x9
 1114 04f2 A9010000 		.4byte	.LASF86
 1115 04f6 0A       		.byte	0xa
 1116 04f7 1103     		.2byte	0x311
 1117 04f9 E9000000 		.4byte	0xe9
 1118 04fd 18       		.byte	0x18
 1119 04fe 00       		.byte	0
 1120 04ff 11       		.uleb128 0x11
 1121 0500 63040000 		.4byte	.LASF87
 1122 0504 0A       		.byte	0xa
 1123 0505 1203     		.2byte	0x312
 1124 0507 9C040000 		.4byte	0x49c
 1125 050b 03       		.uleb128 0x3
 1126 050c 68000000 		.4byte	.LASF88
 1127 0510 0B       		.byte	0xb
 1128 0511 65       		.byte	0x65
 1129 0512 5F030000 		.4byte	0x35f
 1130 0516 03       		.uleb128 0x3
 1131 0517 9A080000 		.4byte	.LASF89
 1132 051b 0B       		.byte	0xb
 1133 051c 6D       		.byte	0x6d
 1134 051d D9000000 		.4byte	0xd9
 1135 0521 06       		.uleb128 0x6
 1136 0522 84050000 		.4byte	.LASF90
 1137 0526 04       		.byte	0x4
 1138 0527 0B       		.byte	0xb
 1139 0528 89       		.byte	0x89
 1140 0529 3A050000 		.4byte	0x53a
ARM GAS  C:\Users\IDONNO~1\AppData\Local\Temp\cc9Dh1hq.s 			page 21


 1141 052d 12       		.uleb128 0x12
 1142 052e 72313300 		.ascii	"r13\000"
 1143 0532 0B       		.byte	0xb
 1144 0533 8A       		.byte	0x8a
 1145 0534 7B060000 		.4byte	0x67b
 1146 0538 00       		.byte	0
 1147 0539 00       		.byte	0
 1148 053a 06       		.uleb128 0x6
 1149 053b BE060000 		.4byte	.LASF91
 1150 053f 64       		.byte	0x64
 1151 0540 0C       		.byte	0xc
 1152 0541 F4       		.byte	0xf4
 1153 0542 7B060000 		.4byte	0x67b
 1154 0546 12       		.uleb128 0x12
 1155 0547 73313600 		.ascii	"s16\000"
 1156 054b 0C       		.byte	0xc
 1157 054c F6       		.byte	0xf6
 1158 054d 0B050000 		.4byte	0x50b
 1159 0551 00       		.byte	0
 1160 0552 12       		.uleb128 0x12
 1161 0553 73313700 		.ascii	"s17\000"
 1162 0557 0C       		.byte	0xc
 1163 0558 F7       		.byte	0xf7
 1164 0559 0B050000 		.4byte	0x50b
 1165 055d 04       		.byte	0x4
 1166 055e 12       		.uleb128 0x12
 1167 055f 73313800 		.ascii	"s18\000"
 1168 0563 0C       		.byte	0xc
 1169 0564 F8       		.byte	0xf8
 1170 0565 0B050000 		.4byte	0x50b
 1171 0569 08       		.byte	0x8
 1172 056a 12       		.uleb128 0x12
 1173 056b 73313900 		.ascii	"s19\000"
 1174 056f 0C       		.byte	0xc
 1175 0570 F9       		.byte	0xf9
 1176 0571 0B050000 		.4byte	0x50b
 1177 0575 0C       		.byte	0xc
 1178 0576 12       		.uleb128 0x12
 1179 0577 73323000 		.ascii	"s20\000"
 1180 057b 0C       		.byte	0xc
 1181 057c FA       		.byte	0xfa
 1182 057d 0B050000 		.4byte	0x50b
 1183 0581 10       		.byte	0x10
 1184 0582 12       		.uleb128 0x12
 1185 0583 73323100 		.ascii	"s21\000"
 1186 0587 0C       		.byte	0xc
 1187 0588 FB       		.byte	0xfb
 1188 0589 0B050000 		.4byte	0x50b
 1189 058d 14       		.byte	0x14
 1190 058e 12       		.uleb128 0x12
 1191 058f 73323200 		.ascii	"s22\000"
 1192 0593 0C       		.byte	0xc
 1193 0594 FC       		.byte	0xfc
 1194 0595 0B050000 		.4byte	0x50b
 1195 0599 18       		.byte	0x18
 1196 059a 12       		.uleb128 0x12
 1197 059b 73323300 		.ascii	"s23\000"
ARM GAS  C:\Users\IDONNO~1\AppData\Local\Temp\cc9Dh1hq.s 			page 22


 1198 059f 0C       		.byte	0xc
 1199 05a0 FD       		.byte	0xfd
 1200 05a1 0B050000 		.4byte	0x50b
 1201 05a5 1C       		.byte	0x1c
 1202 05a6 12       		.uleb128 0x12
 1203 05a7 73323400 		.ascii	"s24\000"
 1204 05ab 0C       		.byte	0xc
 1205 05ac FE       		.byte	0xfe
 1206 05ad 0B050000 		.4byte	0x50b
 1207 05b1 20       		.byte	0x20
 1208 05b2 12       		.uleb128 0x12
 1209 05b3 73323500 		.ascii	"s25\000"
 1210 05b7 0C       		.byte	0xc
 1211 05b8 FF       		.byte	0xff
 1212 05b9 0B050000 		.4byte	0x50b
 1213 05bd 24       		.byte	0x24
 1214 05be 08       		.uleb128 0x8
 1215 05bf 73323600 		.ascii	"s26\000"
 1216 05c3 0C       		.byte	0xc
 1217 05c4 0001     		.2byte	0x100
 1218 05c6 0B050000 		.4byte	0x50b
 1219 05ca 28       		.byte	0x28
 1220 05cb 08       		.uleb128 0x8
 1221 05cc 73323700 		.ascii	"s27\000"
 1222 05d0 0C       		.byte	0xc
 1223 05d1 0101     		.2byte	0x101
 1224 05d3 0B050000 		.4byte	0x50b
 1225 05d7 2C       		.byte	0x2c
 1226 05d8 08       		.uleb128 0x8
 1227 05d9 73323800 		.ascii	"s28\000"
 1228 05dd 0C       		.byte	0xc
 1229 05de 0201     		.2byte	0x102
 1230 05e0 0B050000 		.4byte	0x50b
 1231 05e4 30       		.byte	0x30
 1232 05e5 08       		.uleb128 0x8
 1233 05e6 73323900 		.ascii	"s29\000"
 1234 05ea 0C       		.byte	0xc
 1235 05eb 0301     		.2byte	0x103
 1236 05ed 0B050000 		.4byte	0x50b
 1237 05f1 34       		.byte	0x34
 1238 05f2 08       		.uleb128 0x8
 1239 05f3 73333000 		.ascii	"s30\000"
 1240 05f7 0C       		.byte	0xc
 1241 05f8 0401     		.2byte	0x104
 1242 05fa 0B050000 		.4byte	0x50b
 1243 05fe 38       		.byte	0x38
 1244 05ff 08       		.uleb128 0x8
 1245 0600 73333100 		.ascii	"s31\000"
 1246 0604 0C       		.byte	0xc
 1247 0605 0501     		.2byte	0x105
 1248 0607 0B050000 		.4byte	0x50b
 1249 060b 3C       		.byte	0x3c
 1250 060c 08       		.uleb128 0x8
 1251 060d 723400   		.ascii	"r4\000"
 1252 0610 0C       		.byte	0xc
 1253 0611 0701     		.2byte	0x107
 1254 0613 0B050000 		.4byte	0x50b
ARM GAS  C:\Users\IDONNO~1\AppData\Local\Temp\cc9Dh1hq.s 			page 23


 1255 0617 40       		.byte	0x40
 1256 0618 08       		.uleb128 0x8
 1257 0619 723500   		.ascii	"r5\000"
 1258 061c 0C       		.byte	0xc
 1259 061d 0801     		.2byte	0x108
 1260 061f 0B050000 		.4byte	0x50b
 1261 0623 44       		.byte	0x44
 1262 0624 08       		.uleb128 0x8
 1263 0625 723600   		.ascii	"r6\000"
 1264 0628 0C       		.byte	0xc
 1265 0629 0901     		.2byte	0x109
 1266 062b 0B050000 		.4byte	0x50b
 1267 062f 48       		.byte	0x48
 1268 0630 08       		.uleb128 0x8
 1269 0631 723700   		.ascii	"r7\000"
 1270 0634 0C       		.byte	0xc
 1271 0635 0A01     		.2byte	0x10a
 1272 0637 0B050000 		.4byte	0x50b
 1273 063b 4C       		.byte	0x4c
 1274 063c 08       		.uleb128 0x8
 1275 063d 723800   		.ascii	"r8\000"
 1276 0640 0C       		.byte	0xc
 1277 0641 0B01     		.2byte	0x10b
 1278 0643 0B050000 		.4byte	0x50b
 1279 0647 50       		.byte	0x50
 1280 0648 08       		.uleb128 0x8
 1281 0649 723900   		.ascii	"r9\000"
 1282 064c 0C       		.byte	0xc
 1283 064d 0C01     		.2byte	0x10c
 1284 064f 0B050000 		.4byte	0x50b
 1285 0653 54       		.byte	0x54
 1286 0654 08       		.uleb128 0x8
 1287 0655 72313000 		.ascii	"r10\000"
 1288 0659 0C       		.byte	0xc
 1289 065a 0D01     		.2byte	0x10d
 1290 065c 0B050000 		.4byte	0x50b
 1291 0660 58       		.byte	0x58
 1292 0661 08       		.uleb128 0x8
 1293 0662 72313100 		.ascii	"r11\000"
 1294 0666 0C       		.byte	0xc
 1295 0667 0E01     		.2byte	0x10e
 1296 0669 0B050000 		.4byte	0x50b
 1297 066d 5C       		.byte	0x5c
 1298 066e 08       		.uleb128 0x8
 1299 066f 6C7200   		.ascii	"lr\000"
 1300 0672 0C       		.byte	0xc
 1301 0673 0F01     		.2byte	0x10f
 1302 0675 0B050000 		.4byte	0x50b
 1303 0679 60       		.byte	0x60
 1304 067a 00       		.byte	0
 1305 067b 0A       		.uleb128 0xa
 1306 067c 04       		.byte	0x4
 1307 067d 3A050000 		.4byte	0x53a
 1308 0681 13       		.uleb128 0x13
 1309 0682 04       		.byte	0x4
 1310 0683 0D       		.byte	0xd
 1311 0684 38       		.byte	0x38
ARM GAS  C:\Users\IDONNO~1\AppData\Local\Temp\cc9Dh1hq.s 			page 24


 1312 0685 96060000 		.4byte	0x696
 1313 0689 07       		.uleb128 0x7
 1314 068a 0E030000 		.4byte	.LASF92
 1315 068e 0D       		.byte	0xd
 1316 068f 3C       		.byte	0x3c
 1317 0690 EE000000 		.4byte	0xee
 1318 0694 00       		.byte	0
 1319 0695 00       		.byte	0
 1320 0696 03       		.uleb128 0x3
 1321 0697 3C000000 		.4byte	.LASF93
 1322 069b 0D       		.byte	0xd
 1323 069c 3D       		.byte	0x3d
 1324 069d 81060000 		.4byte	0x681
 1325 06a1 14       		.uleb128 0x14
 1326 06a2 04       		.byte	0x4
 1327 06a3 09       		.byte	0x9
 1328 06a4 FA       		.byte	0xfa
 1329 06a5 FE060000 		.4byte	0x6fe
 1330 06a9 15       		.uleb128 0x15
 1331 06aa 07030000 		.4byte	.LASF94
 1332 06ae 09       		.byte	0x9
 1333 06af 0101     		.2byte	0x101
 1334 06b1 30010000 		.4byte	0x130
 1335 06b5 15       		.uleb128 0x15
 1336 06b6 D5080000 		.4byte	.LASF95
 1337 06ba 09       		.byte	0x9
 1338 06bb 0801     		.2byte	0x108
 1339 06bd 30010000 		.4byte	0x130
 1340 06c1 15       		.uleb128 0x15
 1341 06c2 33010000 		.4byte	.LASF96
 1342 06c6 09       		.byte	0x9
 1343 06c7 0F01     		.2byte	0x10f
 1344 06c9 5F030000 		.4byte	0x35f
 1345 06cd 15       		.uleb128 0x15
 1346 06ce 52080000 		.4byte	.LASF97
 1347 06d2 09       		.byte	0x9
 1348 06d3 1601     		.2byte	0x116
 1349 06d5 FE060000 		.4byte	0x6fe
 1350 06d9 15       		.uleb128 0x15
 1351 06da 83070000 		.4byte	.LASF98
 1352 06de 09       		.byte	0x9
 1353 06df 1E01     		.2byte	0x11e
 1354 06e1 29070000 		.4byte	0x729
 1355 06e5 15       		.uleb128 0x15
 1356 06e6 35000000 		.4byte	.LASF99
 1357 06ea 09       		.byte	0x9
 1358 06eb 2701     		.2byte	0x127
 1359 06ed 60070000 		.4byte	0x760
 1360 06f1 15       		.uleb128 0x15
 1361 06f2 76010000 		.4byte	.LASF100
 1362 06f6 09       		.byte	0x9
 1363 06f7 2F01     		.2byte	0x12f
 1364 06f9 3B010000 		.4byte	0x13b
 1365 06fd 00       		.byte	0
 1366 06fe 0A       		.uleb128 0xa
 1367 06ff 04       		.byte	0x4
 1368 0700 77020000 		.4byte	0x277
ARM GAS  C:\Users\IDONNO~1\AppData\Local\Temp\cc9Dh1hq.s 			page 25


 1369 0704 06       		.uleb128 0x6
 1370 0705 05020000 		.4byte	.LASF101
 1371 0709 0C       		.byte	0xc
 1372 070a 0E       		.byte	0xe
 1373 070b 34       		.byte	0x34
 1374 070c 29070000 		.4byte	0x729
 1375 0710 07       		.uleb128 0x7
 1376 0711 A3000000 		.4byte	.LASF102
 1377 0715 0E       		.byte	0xe
 1378 0716 35       		.byte	0x35
 1379 0717 AC020000 		.4byte	0x2ac
 1380 071b 00       		.byte	0
 1381 071c 07       		.uleb128 0x7
 1382 071d 93010000 		.4byte	.LASF103
 1383 0721 0E       		.byte	0xe
 1384 0722 37       		.byte	0x37
 1385 0723 51010000 		.4byte	0x151
 1386 0727 08       		.byte	0x8
 1387 0728 00       		.byte	0
 1388 0729 0A       		.uleb128 0xa
 1389 072a 04       		.byte	0x4
 1390 072b 04070000 		.4byte	0x704
 1391 072f 06       		.uleb128 0x6
 1392 0730 4F040000 		.4byte	.LASF104
 1393 0734 10       		.byte	0x10
 1394 0735 0F       		.byte	0xf
 1395 0736 39       		.byte	0x39
 1396 0737 60070000 		.4byte	0x760
 1397 073b 07       		.uleb128 0x7
 1398 073c AD060000 		.4byte	.LASF105
 1399 0740 0F       		.byte	0xf
 1400 0741 3A       		.byte	0x3a
 1401 0742 AC020000 		.4byte	0x2ac
 1402 0746 00       		.byte	0
 1403 0747 07       		.uleb128 0x7
 1404 0748 DE080000 		.4byte	.LASF106
 1405 074c 0F       		.byte	0xf
 1406 074d 3C       		.byte	0x3c
 1407 074e 82020000 		.4byte	0x282
 1408 0752 08       		.byte	0x8
 1409 0753 07       		.uleb128 0x7
 1410 0754 62080000 		.4byte	.LASF107
 1411 0758 0F       		.byte	0xf
 1412 0759 3E       		.byte	0x3e
 1413 075a A3070000 		.4byte	0x7a3
 1414 075e 0C       		.byte	0xc
 1415 075f 00       		.byte	0
 1416 0760 0A       		.uleb128 0xa
 1417 0761 04       		.byte	0x4
 1418 0762 2F070000 		.4byte	0x72f
 1419 0766 0A       		.uleb128 0xa
 1420 0767 04       		.byte	0x4
 1421 0768 73070000 		.4byte	0x773
 1422 076c 04       		.uleb128 0x4
 1423 076d 01       		.byte	0x1
 1424 076e 08       		.byte	0x8
 1425 076f 59000000 		.4byte	.LASF108
ARM GAS  C:\Users\IDONNO~1\AppData\Local\Temp\cc9Dh1hq.s 			page 26


 1426 0773 16       		.uleb128 0x16
 1427 0774 6C070000 		.4byte	0x76c
 1428 0778 05       		.uleb128 0x5
 1429 0779 5C010000 		.4byte	0x15c
 1430 077d 0A       		.uleb128 0xa
 1431 077e 04       		.byte	0x4
 1432 077f 61030000 		.4byte	0x361
 1433 0783 05       		.uleb128 0x5
 1434 0784 66070000 		.4byte	0x766
 1435 0788 17       		.uleb128 0x17
 1436 0789 16050000 		.4byte	0x516
 1437 078d 98070000 		.4byte	0x798
 1438 0791 18       		.uleb128 0x18
 1439 0792 95040000 		.4byte	0x495
 1440 0796 3A       		.byte	0x3a
 1441 0797 00       		.byte	0
 1442 0798 03       		.uleb128 0x3
 1443 0799 8A070000 		.4byte	.LASF109
 1444 079d 0F       		.byte	0xf
 1445 079e 34       		.byte	0x34
 1446 079f 2F070000 		.4byte	0x72f
 1447 07a3 0A       		.uleb128 0xa
 1448 07a4 04       		.byte	0x4
 1449 07a5 98070000 		.4byte	0x798
 1450 07a9 03       		.uleb128 0x3
 1451 07aa 5D070000 		.4byte	.LASF110
 1452 07ae 10       		.byte	0x10
 1453 07af 34       		.byte	0x34
 1454 07b0 B4070000 		.4byte	0x7b4
 1455 07b4 06       		.uleb128 0x6
 1456 07b5 67050000 		.4byte	.LASF111
 1457 07b9 14       		.byte	0x14
 1458 07ba 10       		.byte	0x10
 1459 07bb 39       		.byte	0x39
 1460 07bc FD070000 		.4byte	0x7fd
 1461 07c0 07       		.uleb128 0x7
 1462 07c1 FB050000 		.4byte	.LASF112
 1463 07c5 10       		.byte	0x10
 1464 07c6 3A       		.byte	0x3a
 1465 07c7 FD070000 		.4byte	0x7fd
 1466 07cb 00       		.byte	0
 1467 07cc 07       		.uleb128 0x7
 1468 07cd 13070000 		.4byte	.LASF113
 1469 07d1 10       		.byte	0x10
 1470 07d2 3D       		.byte	0x3d
 1471 07d3 82020000 		.4byte	0x282
 1472 07d7 04       		.byte	0x4
 1473 07d8 07       		.uleb128 0x7
 1474 07d9 CF070000 		.4byte	.LASF114
 1475 07dd 10       		.byte	0x10
 1476 07de 3F       		.byte	0x3f
 1477 07df 3B010000 		.4byte	0x13b
 1478 07e3 08       		.byte	0x8
 1479 07e4 07       		.uleb128 0x7
 1480 07e5 CC080000 		.4byte	.LASF115
 1481 07e9 10       		.byte	0x10
 1482 07ea 41       		.byte	0x41
ARM GAS  C:\Users\IDONNO~1\AppData\Local\Temp\cc9Dh1hq.s 			page 27


 1483 07eb 46010000 		.4byte	0x146
 1484 07ef 0C       		.byte	0xc
 1485 07f0 07       		.uleb128 0x7
 1486 07f1 E2020000 		.4byte	.LASF116
 1487 07f5 10       		.byte	0x10
 1488 07f6 43       		.byte	0x43
 1489 07f7 46010000 		.4byte	0x146
 1490 07fb 10       		.byte	0x10
 1491 07fc 00       		.byte	0
 1492 07fd 0A       		.uleb128 0xa
 1493 07fe 04       		.byte	0x4
 1494 07ff A9070000 		.4byte	0x7a9
 1495 0803 06       		.uleb128 0x6
 1496 0804 78000000 		.4byte	.LASF117
 1497 0808 04       		.byte	0x4
 1498 0809 10       		.byte	0x10
 1499 080a 4A       		.byte	0x4a
 1500 080b 1C080000 		.4byte	0x81c
 1501 080f 07       		.uleb128 0x7
 1502 0810 FC070000 		.4byte	.LASF118
 1503 0814 10       		.byte	0x10
 1504 0815 4B       		.byte	0x4b
 1505 0816 FD070000 		.4byte	0x7fd
 1506 081a 00       		.byte	0
 1507 081b 00       		.byte	0
 1508 081c 03       		.uleb128 0x3
 1509 081d 77020000 		.4byte	.LASF119
 1510 0821 10       		.byte	0x10
 1511 0822 4E       		.byte	0x4e
 1512 0823 03080000 		.4byte	0x803
 1513 0827 03       		.uleb128 0x3
 1514 0828 B6000000 		.4byte	.LASF120
 1515 082c 03       		.byte	0x3
 1516 082d 3F       		.byte	0x3f
 1517 082e 32080000 		.4byte	0x832
 1518 0832 06       		.uleb128 0x6
 1519 0833 75080000 		.4byte	.LASF121
 1520 0837 24       		.byte	0x24
 1521 0838 03       		.byte	0x3
 1522 0839 4D       		.byte	0x4d
 1523 083a 9F080000 		.4byte	0x89f
 1524 083e 07       		.uleb128 0x7
 1525 083f BE010000 		.4byte	.LASF122
 1526 0843 03       		.byte	0x3
 1527 0844 4E       		.byte	0x4e
 1528 0845 AC020000 		.4byte	0x2ac
 1529 0849 00       		.byte	0
 1530 084a 07       		.uleb128 0x7
 1531 084b 30070000 		.4byte	.LASF123
 1532 084f 03       		.byte	0x3
 1533 0850 4F       		.byte	0x4f
 1534 0851 C1080000 		.4byte	0x8c1
 1535 0855 08       		.byte	0x8
 1536 0856 07       		.uleb128 0x7
 1537 0857 2A050000 		.4byte	.LASF124
 1538 085b 03       		.byte	0x3
 1539 085c 50       		.byte	0x50
ARM GAS  C:\Users\IDONNO~1\AppData\Local\Temp\cc9Dh1hq.s 			page 28


 1540 085d C6080000 		.4byte	0x8c6
 1541 0861 0C       		.byte	0xc
 1542 0862 07       		.uleb128 0x7
 1543 0863 3F070000 		.4byte	.LASF125
 1544 0867 03       		.byte	0x3
 1545 0868 51       		.byte	0x51
 1546 0869 C6080000 		.4byte	0x8c6
 1547 086d 10       		.byte	0x10
 1548 086e 07       		.uleb128 0x7
 1549 086f B6040000 		.4byte	.LASF126
 1550 0873 03       		.byte	0x3
 1551 0874 53       		.byte	0x53
 1552 0875 C6080000 		.4byte	0x8c6
 1553 0879 14       		.byte	0x14
 1554 087a 07       		.uleb128 0x7
 1555 087b FF000000 		.4byte	.LASF127
 1556 087f 03       		.byte	0x3
 1557 0880 54       		.byte	0x54
 1558 0881 C6080000 		.4byte	0x8c6
 1559 0885 18       		.byte	0x18
 1560 0886 07       		.uleb128 0x7
 1561 0887 71040000 		.4byte	.LASF128
 1562 088b 03       		.byte	0x3
 1563 088c 55       		.byte	0x55
 1564 088d 9F080000 		.4byte	0x89f
 1565 0891 1C       		.byte	0x1c
 1566 0892 07       		.uleb128 0x7
 1567 0893 41010000 		.4byte	.LASF129
 1568 0897 03       		.byte	0x3
 1569 0898 56       		.byte	0x56
 1570 0899 5F030000 		.4byte	0x35f
 1571 089d 20       		.byte	0x20
 1572 089e 00       		.byte	0
 1573 089f 03       		.uleb128 0x3
 1574 08a0 29010000 		.4byte	.LASF130
 1575 08a4 03       		.byte	0x3
 1576 08a5 42       		.byte	0x42
 1577 08a6 AA080000 		.4byte	0x8aa
 1578 08aa 0A       		.uleb128 0xa
 1579 08ab 04       		.byte	0x4
 1580 08ac B0080000 		.4byte	0x8b0
 1581 08b0 0C       		.uleb128 0xc
 1582 08b1 BB080000 		.4byte	0x8bb
 1583 08b5 0D       		.uleb128 0xd
 1584 08b6 BB080000 		.4byte	0x8bb
 1585 08ba 00       		.byte	0
 1586 08bb 0A       		.uleb128 0xa
 1587 08bc 04       		.byte	0x4
 1588 08bd 27080000 		.4byte	0x827
 1589 08c1 05       		.uleb128 0x5
 1590 08c2 2C000000 		.4byte	0x2c
 1591 08c6 0A       		.uleb128 0xa
 1592 08c7 04       		.byte	0x4
 1593 08c8 AD000000 		.4byte	0xad
 1594 08cc 03       		.uleb128 0x3
 1595 08cd 00050000 		.4byte	.LASF131
 1596 08d1 03       		.byte	0x3
ARM GAS  C:\Users\IDONNO~1\AppData\Local\Temp\cc9Dh1hq.s 			page 29


 1597 08d2 64       		.byte	0x64
 1598 08d3 27080000 		.4byte	0x827
 1599 08d7 03       		.uleb128 0x3
 1600 08d8 B6050000 		.4byte	.LASF132
 1601 08dc 03       		.byte	0x3
 1602 08dd 71       		.byte	0x71
 1603 08de 27080000 		.4byte	0x827
 1604 08e2 06       		.uleb128 0x6
 1605 08e3 11010000 		.4byte	.LASF133
 1606 08e7 10       		.byte	0x10
 1607 08e8 11       		.byte	0x11
 1608 08e9 40       		.byte	0x40
 1609 08ea 1F090000 		.4byte	0x91f
 1610 08ee 07       		.uleb128 0x7
 1611 08ef 61050000 		.4byte	.LASF134
 1612 08f3 11       		.byte	0x11
 1613 08f4 41       		.byte	0x41
 1614 08f5 43090000 		.4byte	0x943
 1615 08f9 00       		.byte	0
 1616 08fa 07       		.uleb128 0x7
 1617 08fb 0E070000 		.4byte	.LASF135
 1618 08ff 11       		.byte	0x11
 1619 0900 41       		.byte	0x41
 1620 0901 62090000 		.4byte	0x962
 1621 0905 04       		.byte	0x4
 1622 0906 12       		.uleb128 0x12
 1623 0907 70757400 		.ascii	"put\000"
 1624 090b 11       		.byte	0x11
 1625 090c 41       		.byte	0x41
 1626 090d 7C090000 		.4byte	0x97c
 1627 0911 08       		.byte	0x8
 1628 0912 12       		.uleb128 0x12
 1629 0913 67657400 		.ascii	"get\000"
 1630 0917 11       		.byte	0x11
 1631 0918 41       		.byte	0x41
 1632 0919 91090000 		.4byte	0x991
 1633 091d 0C       		.byte	0xc
 1634 091e 00       		.byte	0
 1635 091f 19       		.uleb128 0x19
 1636 0920 2C000000 		.4byte	0x2c
 1637 0924 38090000 		.4byte	0x938
 1638 0928 0D       		.uleb128 0xd
 1639 0929 5F030000 		.4byte	0x35f
 1640 092d 0D       		.uleb128 0xd
 1641 092e 38090000 		.4byte	0x938
 1642 0932 0D       		.uleb128 0xd
 1643 0933 2C000000 		.4byte	0x2c
 1644 0937 00       		.byte	0
 1645 0938 0A       		.uleb128 0xa
 1646 0939 04       		.byte	0x4
 1647 093a 3E090000 		.4byte	0x93e
 1648 093e 16       		.uleb128 0x16
 1649 093f AD000000 		.4byte	0xad
 1650 0943 0A       		.uleb128 0xa
 1651 0944 04       		.byte	0x4
 1652 0945 1F090000 		.4byte	0x91f
 1653 0949 19       		.uleb128 0x19
ARM GAS  C:\Users\IDONNO~1\AppData\Local\Temp\cc9Dh1hq.s 			page 30


 1654 094a 2C000000 		.4byte	0x2c
 1655 094e 62090000 		.4byte	0x962
 1656 0952 0D       		.uleb128 0xd
 1657 0953 5F030000 		.4byte	0x35f
 1658 0957 0D       		.uleb128 0xd
 1659 0958 C6080000 		.4byte	0x8c6
 1660 095c 0D       		.uleb128 0xd
 1661 095d 2C000000 		.4byte	0x2c
 1662 0961 00       		.byte	0
 1663 0962 0A       		.uleb128 0xa
 1664 0963 04       		.byte	0x4
 1665 0964 49090000 		.4byte	0x949
 1666 0968 19       		.uleb128 0x19
 1667 0969 30010000 		.4byte	0x130
 1668 096d 7C090000 		.4byte	0x97c
 1669 0971 0D       		.uleb128 0xd
 1670 0972 5F030000 		.4byte	0x35f
 1671 0976 0D       		.uleb128 0xd
 1672 0977 AD000000 		.4byte	0xad
 1673 097b 00       		.byte	0
 1674 097c 0A       		.uleb128 0xa
 1675 097d 04       		.byte	0x4
 1676 097e 68090000 		.4byte	0x968
 1677 0982 19       		.uleb128 0x19
 1678 0983 30010000 		.4byte	0x130
 1679 0987 91090000 		.4byte	0x991
 1680 098b 0D       		.uleb128 0xd
 1681 098c 5F030000 		.4byte	0x35f
 1682 0990 00       		.byte	0
 1683 0991 0A       		.uleb128 0xa
 1684 0992 04       		.byte	0x4
 1685 0993 82090000 		.4byte	0x982
 1686 0997 13       		.uleb128 0x13
 1687 0998 04       		.byte	0x4
 1688 0999 11       		.byte	0x11
 1689 099a 49       		.byte	0x49
 1690 099b AC090000 		.4byte	0x9ac
 1691 099f 12       		.uleb128 0x12
 1692 09a0 766D7400 		.ascii	"vmt\000"
 1693 09a4 11       		.byte	0x11
 1694 09a5 4B       		.byte	0x4b
 1695 09a6 AC090000 		.4byte	0x9ac
 1696 09aa 00       		.byte	0
 1697 09ab 00       		.byte	0
 1698 09ac 0A       		.uleb128 0xa
 1699 09ad 04       		.byte	0x4
 1700 09ae B2090000 		.4byte	0x9b2
 1701 09b2 16       		.uleb128 0x16
 1702 09b3 E2080000 		.4byte	0x8e2
 1703 09b7 03       		.uleb128 0x3
 1704 09b8 90040000 		.4byte	.LASF136
 1705 09bc 11       		.byte	0x11
 1706 09bd 4D       		.byte	0x4d
 1707 09be 97090000 		.4byte	0x997
 1708 09c2 19       		.uleb128 0x19
 1709 09c3 30010000 		.4byte	0x130
 1710 09c7 DB090000 		.4byte	0x9db
ARM GAS  C:\Users\IDONNO~1\AppData\Local\Temp\cc9Dh1hq.s 			page 31


 1711 09cb 0D       		.uleb128 0xd
 1712 09cc 5F030000 		.4byte	0x35f
 1713 09d0 0D       		.uleb128 0xd
 1714 09d1 AD000000 		.4byte	0xad
 1715 09d5 0D       		.uleb128 0xd
 1716 09d6 5C010000 		.4byte	0x15c
 1717 09da 00       		.byte	0
 1718 09db 0A       		.uleb128 0xa
 1719 09dc 04       		.byte	0x4
 1720 09dd C2090000 		.4byte	0x9c2
 1721 09e1 19       		.uleb128 0x19
 1722 09e2 30010000 		.4byte	0x130
 1723 09e6 F5090000 		.4byte	0x9f5
 1724 09ea 0D       		.uleb128 0xd
 1725 09eb 5F030000 		.4byte	0x35f
 1726 09ef 0D       		.uleb128 0xd
 1727 09f0 5C010000 		.4byte	0x15c
 1728 09f4 00       		.byte	0
 1729 09f5 0A       		.uleb128 0xa
 1730 09f6 04       		.byte	0x4
 1731 09f7 E1090000 		.4byte	0x9e1
 1732 09fb 19       		.uleb128 0x19
 1733 09fc 2C000000 		.4byte	0x2c
 1734 0a00 190A0000 		.4byte	0xa19
 1735 0a04 0D       		.uleb128 0xd
 1736 0a05 5F030000 		.4byte	0x35f
 1737 0a09 0D       		.uleb128 0xd
 1738 0a0a 38090000 		.4byte	0x938
 1739 0a0e 0D       		.uleb128 0xd
 1740 0a0f 2C000000 		.4byte	0x2c
 1741 0a13 0D       		.uleb128 0xd
 1742 0a14 5C010000 		.4byte	0x15c
 1743 0a18 00       		.byte	0
 1744 0a19 0A       		.uleb128 0xa
 1745 0a1a 04       		.byte	0x4
 1746 0a1b FB090000 		.4byte	0x9fb
 1747 0a1f 19       		.uleb128 0x19
 1748 0a20 2C000000 		.4byte	0x2c
 1749 0a24 3D0A0000 		.4byte	0xa3d
 1750 0a28 0D       		.uleb128 0xd
 1751 0a29 5F030000 		.4byte	0x35f
 1752 0a2d 0D       		.uleb128 0xd
 1753 0a2e C6080000 		.4byte	0x8c6
 1754 0a32 0D       		.uleb128 0xd
 1755 0a33 2C000000 		.4byte	0x2c
 1756 0a37 0D       		.uleb128 0xd
 1757 0a38 5C010000 		.4byte	0x15c
 1758 0a3c 00       		.byte	0
 1759 0a3d 0A       		.uleb128 0xa
 1760 0a3e 04       		.byte	0x4
 1761 0a3f 1F0A0000 		.4byte	0xa1f
 1762 0a43 04       		.uleb128 0x4
 1763 0a44 01       		.byte	0x1
 1764 0a45 02       		.byte	0x2
 1765 0a46 15030000 		.4byte	.LASF137
 1766 0a4a 13       		.uleb128 0x13
 1767 0a4b 04       		.byte	0x4
ARM GAS  C:\Users\IDONNO~1\AppData\Local\Temp\cc9Dh1hq.s 			page 32


 1768 0a4c 12       		.byte	0x12
 1769 0a4d B3       		.byte	0xb3
 1770 0a4e 6B0A0000 		.4byte	0xa6b
 1771 0a52 12       		.uleb128 0x12
 1772 0a53 73657400 		.ascii	"set\000"
 1773 0a57 12       		.byte	0x12
 1774 0a58 B4       		.byte	0xb4
 1775 0a59 B8000000 		.4byte	0xb8
 1776 0a5d 00       		.byte	0
 1777 0a5e 07       		.uleb128 0x7
 1778 0a5f BC020000 		.4byte	.LASF138
 1779 0a63 12       		.byte	0x12
 1780 0a64 B5       		.byte	0xb5
 1781 0a65 B8000000 		.4byte	0xb8
 1782 0a69 02       		.byte	0x2
 1783 0a6a 00       		.byte	0
 1784 0a6b 14       		.uleb128 0x14
 1785 0a6c 04       		.byte	0x4
 1786 0a6d 12       		.byte	0x12
 1787 0a6e B1       		.byte	0xb1
 1788 0a6f 860A0000 		.4byte	0xa86
 1789 0a73 1A       		.uleb128 0x1a
 1790 0a74 5700     		.ascii	"W\000"
 1791 0a76 12       		.byte	0x12
 1792 0a77 B2       		.byte	0xb2
 1793 0a78 CE000000 		.4byte	0xce
 1794 0a7c 1A       		.uleb128 0x1a
 1795 0a7d 4800     		.ascii	"H\000"
 1796 0a7f 12       		.byte	0x12
 1797 0a80 B6       		.byte	0xb6
 1798 0a81 4A0A0000 		.4byte	0xa4a
 1799 0a85 00       		.byte	0
 1800 0a86 13       		.uleb128 0x13
 1801 0a87 2C       		.byte	0x2c
 1802 0a88 12       		.byte	0x12
 1803 0a89 A9       		.byte	0xa9
 1804 0a8a 130B0000 		.4byte	0xb13
 1805 0a8e 07       		.uleb128 0x7
 1806 0a8f 97020000 		.4byte	.LASF139
 1807 0a93 12       		.byte	0x12
 1808 0a94 AB       		.byte	0xab
 1809 0a95 E9000000 		.4byte	0xe9
 1810 0a99 00       		.byte	0
 1811 0a9a 07       		.uleb128 0x7
 1812 0a9b E1060000 		.4byte	.LASF140
 1813 0a9f 12       		.byte	0x12
 1814 0aa0 AC       		.byte	0xac
 1815 0aa1 E9000000 		.4byte	0xe9
 1816 0aa5 04       		.byte	0x4
 1817 0aa6 07       		.uleb128 0x7
 1818 0aa7 28060000 		.4byte	.LASF141
 1819 0aab 12       		.byte	0x12
 1820 0aac AD       		.byte	0xad
 1821 0aad E9000000 		.4byte	0xe9
 1822 0ab1 08       		.byte	0x8
 1823 0ab2 07       		.uleb128 0x7
 1824 0ab3 83040000 		.4byte	.LASF142
ARM GAS  C:\Users\IDONNO~1\AppData\Local\Temp\cc9Dh1hq.s 			page 33


 1825 0ab7 12       		.byte	0x12
 1826 0ab8 AE       		.byte	0xae
 1827 0ab9 E9000000 		.4byte	0xe9
 1828 0abd 0C       		.byte	0xc
 1829 0abe 12       		.uleb128 0x12
 1830 0abf 49445200 		.ascii	"IDR\000"
 1831 0ac3 12       		.byte	0x12
 1832 0ac4 AF       		.byte	0xaf
 1833 0ac5 E9000000 		.4byte	0xe9
 1834 0ac9 10       		.byte	0x10
 1835 0aca 12       		.uleb128 0x12
 1836 0acb 4F445200 		.ascii	"ODR\000"
 1837 0acf 12       		.byte	0x12
 1838 0ad0 B0       		.byte	0xb0
 1839 0ad1 E9000000 		.4byte	0xe9
 1840 0ad5 14       		.byte	0x14
 1841 0ad6 07       		.uleb128 0x7
 1842 0ad7 54000000 		.4byte	.LASF143
 1843 0adb 12       		.byte	0x12
 1844 0adc B7       		.byte	0xb7
 1845 0add 130B0000 		.4byte	0xb13
 1846 0ae1 18       		.byte	0x18
 1847 0ae2 07       		.uleb128 0x7
 1848 0ae3 C5050000 		.4byte	.LASF144
 1849 0ae7 12       		.byte	0x12
 1850 0ae8 B8       		.byte	0xb8
 1851 0ae9 E9000000 		.4byte	0xe9
 1852 0aed 1C       		.byte	0x1c
 1853 0aee 07       		.uleb128 0x7
 1854 0aef AF020000 		.4byte	.LASF145
 1855 0af3 12       		.byte	0x12
 1856 0af4 B9       		.byte	0xb9
 1857 0af5 E9000000 		.4byte	0xe9
 1858 0af9 20       		.byte	0x20
 1859 0afa 07       		.uleb128 0x7
 1860 0afb 9D020000 		.4byte	.LASF146
 1861 0aff 12       		.byte	0x12
 1862 0b00 BA       		.byte	0xba
 1863 0b01 E9000000 		.4byte	0xe9
 1864 0b05 24       		.byte	0x24
 1865 0b06 12       		.uleb128 0x12
 1866 0b07 42525200 		.ascii	"BRR\000"
 1867 0b0b 12       		.byte	0x12
 1868 0b0c BB       		.byte	0xbb
 1869 0b0d E9000000 		.4byte	0xe9
 1870 0b11 28       		.byte	0x28
 1871 0b12 00       		.byte	0
 1872 0b13 05       		.uleb128 0x5
 1873 0b14 6B0A0000 		.4byte	0xa6b
 1874 0b18 03       		.uleb128 0x3
 1875 0b19 A2020000 		.4byte	.LASF147
 1876 0b1d 12       		.byte	0x12
 1877 0b1e BC       		.byte	0xbc
 1878 0b1f 860A0000 		.4byte	0xa86
 1879 0b23 11       		.uleb128 0x11
 1880 0b24 8C050000 		.4byte	.LASF148
 1881 0b28 12       		.byte	0x12
ARM GAS  C:\Users\IDONNO~1\AppData\Local\Temp\cc9Dh1hq.s 			page 34


 1882 0b29 0E01     		.2byte	0x10e
 1883 0b2b CE000000 		.4byte	0xce
 1884 0b2f 1B       		.uleb128 0x1b
 1885 0b30 01       		.byte	0x1
 1886 0b31 50000000 		.4byte	0x50
 1887 0b35 13       		.byte	0x13
 1888 0b36 55       		.byte	0x55
 1889 0b37 4E0B0000 		.4byte	0xb4e
 1890 0b3b 1C       		.uleb128 0x1c
 1891 0b3c 26070000 		.4byte	.LASF149
 1892 0b40 00       		.byte	0
 1893 0b41 1C       		.uleb128 0x1c
 1894 0b42 1B030000 		.4byte	.LASF150
 1895 0b46 01       		.byte	0x1
 1896 0b47 1C       		.uleb128 0x1c
 1897 0b48 7A060000 		.4byte	.LASF151
 1898 0b4c 02       		.byte	0x2
 1899 0b4d 00       		.byte	0
 1900 0b4e 03       		.uleb128 0x3
 1901 0b4f F5010000 		.4byte	.LASF152
 1902 0b53 13       		.byte	0x13
 1903 0b54 59       		.byte	0x59
 1904 0b55 2F0B0000 		.4byte	0xb2f
 1905 0b59 03       		.uleb128 0x3
 1906 0b5a 20000000 		.4byte	.LASF153
 1907 0b5e 13       		.byte	0x13
 1908 0b5f 5E       		.byte	0x5e
 1909 0b60 640B0000 		.4byte	0xb64
 1910 0b64 1D       		.uleb128 0x1d
 1911 0b65 20000000 		.4byte	.LASF153
 1912 0b69 5802     		.2byte	0x258
 1913 0b6b 13       		.byte	0x13
 1914 0b6c 78       		.byte	0x78
 1915 0b6d D20B0000 		.4byte	0xbd2
 1916 0b71 12       		.uleb128 0x12
 1917 0b72 766D7400 		.ascii	"vmt\000"
 1918 0b76 13       		.byte	0x13
 1919 0b77 7A       		.byte	0x7a
 1920 0b78 830C0000 		.4byte	0xc83
 1921 0b7c 00       		.byte	0
 1922 0b7d 07       		.uleb128 0x7
 1923 0b7e FF010000 		.4byte	.LASF154
 1924 0b82 13       		.byte	0x13
 1925 0b83 7B       		.byte	0x7b
 1926 0b84 1C080000 		.4byte	0x81c
 1927 0b88 04       		.byte	0x4
 1928 0b89 07       		.uleb128 0x7
 1929 0b8a 22080000 		.4byte	.LASF155
 1930 0b8e 13       		.byte	0x13
 1931 0b8f 7B       		.byte	0x7b
 1932 0b90 4E0B0000 		.4byte	0xb4e
 1933 0b94 08       		.byte	0x8
 1934 0b95 07       		.uleb128 0x7
 1935 0b96 AE010000 		.4byte	.LASF156
 1936 0b9a 13       		.byte	0x13
 1937 0b9b 7B       		.byte	0x7b
 1938 0b9c CC080000 		.4byte	0x8cc
ARM GAS  C:\Users\IDONNO~1\AppData\Local\Temp\cc9Dh1hq.s 			page 35


 1939 0ba0 0C       		.byte	0xc
 1940 0ba1 07       		.uleb128 0x7
 1941 0ba2 4F060000 		.4byte	.LASF157
 1942 0ba6 13       		.byte	0x13
 1943 0ba7 7B       		.byte	0x7b
 1944 0ba8 D7080000 		.4byte	0x8d7
 1945 0bac 30       		.byte	0x30
 1946 0bad 12       		.uleb128 0x12
 1947 0bae 696200   		.ascii	"ib\000"
 1948 0bb1 13       		.byte	0x13
 1949 0bb2 7B       		.byte	0x7b
 1950 0bb3 8E0C0000 		.4byte	0xc8e
 1951 0bb7 54       		.byte	0x54
 1952 0bb8 1E       		.uleb128 0x1e
 1953 0bb9 6F6200   		.ascii	"ob\000"
 1954 0bbc 13       		.byte	0x13
 1955 0bbd 7B       		.byte	0x7b
 1956 0bbe 8E0C0000 		.4byte	0xc8e
 1957 0bc2 5401     		.2byte	0x154
 1958 0bc4 1F       		.uleb128 0x1f
 1959 0bc5 33050000 		.4byte	.LASF158
 1960 0bc9 13       		.byte	0x13
 1961 0bca 7B       		.byte	0x7b
 1962 0bcb 9E0C0000 		.4byte	0xc9e
 1963 0bcf 5402     		.2byte	0x254
 1964 0bd1 00       		.byte	0
 1965 0bd2 13       		.uleb128 0x13
 1966 0bd3 0C       		.byte	0xc
 1967 0bd4 14       		.byte	0x14
 1968 0bd5 D7       		.byte	0xd7
 1969 0bd6 0B0C0000 		.4byte	0xc0b
 1970 0bda 07       		.uleb128 0x7
 1971 0bdb 86010000 		.4byte	.LASF159
 1972 0bdf 14       		.byte	0x14
 1973 0be0 DB       		.byte	0xdb
 1974 0be1 CE000000 		.4byte	0xce
 1975 0be5 00       		.byte	0
 1976 0be6 12       		.uleb128 0x12
 1977 0be7 63723100 		.ascii	"cr1\000"
 1978 0beb 14       		.byte	0x14
 1979 0bec E0       		.byte	0xe0
 1980 0bed B8000000 		.4byte	0xb8
 1981 0bf1 04       		.byte	0x4
 1982 0bf2 12       		.uleb128 0x12
 1983 0bf3 63723200 		.ascii	"cr2\000"
 1984 0bf7 14       		.byte	0x14
 1985 0bf8 E4       		.byte	0xe4
 1986 0bf9 B8000000 		.4byte	0xb8
 1987 0bfd 06       		.byte	0x6
 1988 0bfe 12       		.uleb128 0x12
 1989 0bff 63723300 		.ascii	"cr3\000"
 1990 0c03 14       		.byte	0x14
 1991 0c04 E8       		.byte	0xe8
 1992 0c05 B8000000 		.4byte	0xb8
 1993 0c09 08       		.byte	0x8
 1994 0c0a 00       		.byte	0
 1995 0c0b 03       		.uleb128 0x3
ARM GAS  C:\Users\IDONNO~1\AppData\Local\Temp\cc9Dh1hq.s 			page 36


 1996 0c0c DB010000 		.4byte	.LASF160
 1997 0c10 14       		.byte	0x14
 1998 0c11 E9       		.byte	0xe9
 1999 0c12 D20B0000 		.4byte	0xbd2
 2000 0c16 06       		.uleb128 0x6
 2001 0c17 84080000 		.4byte	.LASF161
 2002 0c1b 20       		.byte	0x20
 2003 0c1c 13       		.byte	0x13
 2004 0c1d 6D       		.byte	0x6d
 2005 0c1e 830C0000 		.4byte	0xc83
 2006 0c22 07       		.uleb128 0x7
 2007 0c23 61050000 		.4byte	.LASF134
 2008 0c27 13       		.byte	0x13
 2009 0c28 6E       		.byte	0x6e
 2010 0c29 43090000 		.4byte	0x943
 2011 0c2d 00       		.byte	0
 2012 0c2e 07       		.uleb128 0x7
 2013 0c2f 0E070000 		.4byte	.LASF135
 2014 0c33 13       		.byte	0x13
 2015 0c34 6E       		.byte	0x6e
 2016 0c35 62090000 		.4byte	0x962
 2017 0c39 04       		.byte	0x4
 2018 0c3a 12       		.uleb128 0x12
 2019 0c3b 70757400 		.ascii	"put\000"
 2020 0c3f 13       		.byte	0x13
 2021 0c40 6E       		.byte	0x6e
 2022 0c41 7C090000 		.4byte	0x97c
 2023 0c45 08       		.byte	0x8
 2024 0c46 12       		.uleb128 0x12
 2025 0c47 67657400 		.ascii	"get\000"
 2026 0c4b 13       		.byte	0x13
 2027 0c4c 6E       		.byte	0x6e
 2028 0c4d 91090000 		.4byte	0x991
 2029 0c51 0C       		.byte	0xc
 2030 0c52 07       		.uleb128 0x7
 2031 0c53 FB020000 		.4byte	.LASF162
 2032 0c57 13       		.byte	0x13
 2033 0c58 6E       		.byte	0x6e
 2034 0c59 DB090000 		.4byte	0x9db
 2035 0c5d 10       		.byte	0x10
 2036 0c5e 07       		.uleb128 0x7
 2037 0c5f 3A070000 		.4byte	.LASF163
 2038 0c63 13       		.byte	0x13
 2039 0c64 6E       		.byte	0x6e
 2040 0c65 F5090000 		.4byte	0x9f5
 2041 0c69 14       		.byte	0x14
 2042 0c6a 07       		.uleb128 0x7
 2043 0c6b 8C010000 		.4byte	.LASF164
 2044 0c6f 13       		.byte	0x13
 2045 0c70 6E       		.byte	0x6e
 2046 0c71 190A0000 		.4byte	0xa19
 2047 0c75 18       		.byte	0x18
 2048 0c76 07       		.uleb128 0x7
 2049 0c77 7E080000 		.4byte	.LASF165
 2050 0c7b 13       		.byte	0x13
 2051 0c7c 6E       		.byte	0x6e
 2052 0c7d 3D0A0000 		.4byte	0xa3d
ARM GAS  C:\Users\IDONNO~1\AppData\Local\Temp\cc9Dh1hq.s 			page 37


 2053 0c81 1C       		.byte	0x1c
 2054 0c82 00       		.byte	0
 2055 0c83 0A       		.uleb128 0xa
 2056 0c84 04       		.byte	0x4
 2057 0c85 890C0000 		.4byte	0xc89
 2058 0c89 16       		.uleb128 0x16
 2059 0c8a 160C0000 		.4byte	0xc16
 2060 0c8e 17       		.uleb128 0x17
 2061 0c8f AD000000 		.4byte	0xad
 2062 0c93 9E0C0000 		.4byte	0xc9e
 2063 0c97 18       		.uleb128 0x18
 2064 0c98 95040000 		.4byte	0x495
 2065 0c9c FF       		.byte	0xff
 2066 0c9d 00       		.byte	0
 2067 0c9e 0A       		.uleb128 0xa
 2068 0c9f 04       		.byte	0x4
 2069 0ca0 FF040000 		.4byte	0x4ff
 2070 0ca4 0A       		.uleb128 0xa
 2071 0ca5 04       		.byte	0x4
 2072 0ca6 D7080000 		.4byte	0x8d7
 2073 0caa 0A       		.uleb128 0xa
 2074 0cab 04       		.byte	0x4
 2075 0cac 6C070000 		.4byte	0x76c
 2076 0cb0 04       		.uleb128 0x4
 2077 0cb1 08       		.byte	0x8
 2078 0cb2 04       		.byte	0x4
 2079 0cb3 AD080000 		.4byte	.LASF166
 2080 0cb7 04       		.uleb128 0x4
 2081 0cb8 04       		.byte	0x4
 2082 0cb9 04       		.byte	0x4
 2083 0cba EF010000 		.4byte	.LASF167
 2084 0cbe 04       		.uleb128 0x4
 2085 0cbf 08       		.byte	0x8
 2086 0cc0 04       		.byte	0x4
 2087 0cc1 43060000 		.4byte	.LASF168
 2088 0cc5 03       		.uleb128 0x3
 2089 0cc6 EC020000 		.4byte	.LASF169
 2090 0cca 15       		.byte	0x15
 2091 0ccb 28       		.byte	0x28
 2092 0ccc D00C0000 		.4byte	0xcd0
 2093 0cd0 06       		.uleb128 0x6
 2094 0cd1 58080000 		.4byte	.LASF170
 2095 0cd5 04       		.byte	0x4
 2096 0cd6 16       		.byte	0x16
 2097 0cd7 00       		.byte	0
 2098 0cd8 E70C0000 		.4byte	0xce7
 2099 0cdc 20       		.uleb128 0x20
 2100 0cdd A1050000 		.4byte	.LASF171
 2101 0ce1 5F030000 		.4byte	0x35f
 2102 0ce5 00       		.byte	0
 2103 0ce6 00       		.byte	0
 2104 0ce7 03       		.uleb128 0x3
 2105 0ce8 39050000 		.4byte	.LASF172
 2106 0cec 15       		.byte	0x15
 2107 0ced 62       		.byte	0x62
 2108 0cee C50C0000 		.4byte	0xcc5
 2109 0cf2 21       		.uleb128 0x21
ARM GAS  C:\Users\IDONNO~1\AppData\Local\Temp\cc9Dh1hq.s 			page 38


 2110 0cf3 47040000 		.4byte	.LASF191
 2111 0cf7 03       		.byte	0x3
 2112 0cf8 A801     		.2byte	0x1a8
 2113 0cfa 30010000 		.4byte	0x130
 2114 0cfe 03       		.byte	0x3
 2115 0cff 1A0D0000 		.4byte	0xd1a
 2116 0d03 22       		.uleb128 0x22
 2117 0d04 6F717000 		.ascii	"oqp\000"
 2118 0d08 03       		.byte	0x3
 2119 0d09 A801     		.2byte	0x1a8
 2120 0d0b A40C0000 		.4byte	0xca4
 2121 0d0f 22       		.uleb128 0x22
 2122 0d10 6200     		.ascii	"b\000"
 2123 0d12 03       		.byte	0x3
 2124 0d13 A801     		.2byte	0x1a8
 2125 0d15 AD000000 		.4byte	0xad
 2126 0d19 00       		.byte	0
 2127 0d1a 23       		.uleb128 0x23
 2128 0d1b 7A040000 		.4byte	.LASF192
 2129 0d1f 01       		.byte	0x1
 2130 0d20 45       		.byte	0x45
 2131 0d21 25000000 		.4byte	0x25
 2132 0d25 00000000 		.4byte	.LFB257
 2133 0d29 1C000000 		.4byte	.LFE257-.LFB257
 2134 0d2d 01       		.uleb128 0x1
 2135 0d2e 9C       		.byte	0x9c
 2136 0d2f 8A0D0000 		.4byte	0xd8a
 2137 0d33 24       		.uleb128 0x24
 2138 0d34 63687000 		.ascii	"chp\000"
 2139 0d38 01       		.byte	0x1
 2140 0d39 45       		.byte	0x45
 2141 0d3a 8A0D0000 		.4byte	0xd8a
 2142 0d3e 00000000 		.4byte	.LLST0
 2143 0d42 25       		.uleb128 0x25
 2144 0d43 666D7400 		.ascii	"fmt\000"
 2145 0d47 01       		.byte	0x1
 2146 0d48 45       		.byte	0x45
 2147 0d49 66070000 		.4byte	0x766
 2148 0d4d 02       		.uleb128 0x2
 2149 0d4e 91       		.byte	0x91
 2150 0d4f 74       		.sleb128 -12
 2151 0d50 26       		.uleb128 0x26
 2152 0d51 27       		.uleb128 0x27
 2153 0d52 617000   		.ascii	"ap\000"
 2154 0d55 01       		.byte	0x1
 2155 0d56 46       		.byte	0x46
 2156 0d57 E70C0000 		.4byte	0xce7
 2157 0d5b 02       		.uleb128 0x2
 2158 0d5c 91       		.byte	0x91
 2159 0d5d 6C       		.sleb128 -20
 2160 0d5e 28       		.uleb128 0x28
 2161 0d5f BC080000 		.4byte	.LASF173
 2162 0d63 01       		.byte	0x1
 2163 0d64 47       		.byte	0x47
 2164 0d65 25000000 		.4byte	0x25
 2165 0d69 01       		.uleb128 0x1
 2166 0d6a 50       		.byte	0x50
ARM GAS  C:\Users\IDONNO~1\AppData\Local\Temp\cc9Dh1hq.s 			page 39


 2167 0d6b 29       		.uleb128 0x29
 2168 0d6c 12000000 		.4byte	.LVL1
 2169 0d70 34100000 		.4byte	0x1034
 2170 0d74 2A       		.uleb128 0x2a
 2171 0d75 01       		.uleb128 0x1
 2172 0d76 50       		.byte	0x50
 2173 0d77 03       		.uleb128 0x3
 2174 0d78 F3       		.byte	0xf3
 2175 0d79 01       		.uleb128 0x1
 2176 0d7a 50       		.byte	0x50
 2177 0d7b 2A       		.uleb128 0x2a
 2178 0d7c 01       		.uleb128 0x1
 2179 0d7d 51       		.byte	0x51
 2180 0d7e 03       		.uleb128 0x3
 2181 0d7f 91       		.byte	0x91
 2182 0d80 5C       		.sleb128 -36
 2183 0d81 06       		.byte	0x6
 2184 0d82 2A       		.uleb128 0x2a
 2185 0d83 01       		.uleb128 0x1
 2186 0d84 52       		.byte	0x52
 2187 0d85 02       		.uleb128 0x2
 2188 0d86 91       		.byte	0x91
 2189 0d87 60       		.sleb128 -32
 2190 0d88 00       		.byte	0
 2191 0d89 00       		.byte	0
 2192 0d8a 0A       		.uleb128 0xa
 2193 0d8b 04       		.byte	0x4
 2194 0d8c B7090000 		.4byte	0x9b7
 2195 0d90 2B       		.uleb128 0x2b
 2196 0d91 42020000 		.4byte	.LASF174
 2197 0d95 02       		.byte	0x2
 2198 0d96 1E       		.byte	0x1e
 2199 0d97 00000000 		.4byte	.LFB258
 2200 0d9b 38000000 		.4byte	.LFE258-.LFB258
 2201 0d9f 01       		.uleb128 0x1
 2202 0da0 9C       		.byte	0x9c
 2203 0da1 000E0000 		.4byte	0xe00
 2204 0da5 2C       		.uleb128 0x2c
 2205 0da6 0C000000 		.4byte	.LVL2
 2206 0daa 3F100000 		.4byte	0x103f
 2207 0dae BC0D0000 		.4byte	0xdbc
 2208 0db2 2A       		.uleb128 0x2a
 2209 0db3 01       		.uleb128 0x1
 2210 0db4 51       		.byte	0x51
 2211 0db5 05       		.uleb128 0x5
 2212 0db6 03       		.byte	0x3
 2213 0db7 00000000 		.4byte	.LANCHOR0
 2214 0dbb 00       		.byte	0
 2215 0dbc 2C       		.uleb128 0x2c
 2216 0dbd 1A000000 		.4byte	.LVL3
 2217 0dc1 4B100000 		.4byte	0x104b
 2218 0dc5 DE0D0000 		.4byte	0xdde
 2219 0dc9 2A       		.uleb128 0x2a
 2220 0dca 01       		.uleb128 0x1
 2221 0dcb 50       		.byte	0x50
 2222 0dcc 02       		.uleb128 0x2
 2223 0dcd 74       		.byte	0x74
ARM GAS  C:\Users\IDONNO~1\AppData\Local\Temp\cc9Dh1hq.s 			page 40


 2224 0dce 00       		.sleb128 0
 2225 0dcf 2A       		.uleb128 0x2a
 2226 0dd0 01       		.uleb128 0x1
 2227 0dd1 51       		.byte	0x51
 2228 0dd2 03       		.uleb128 0x3
 2229 0dd3 0A       		.byte	0xa
 2230 0dd4 0004     		.2byte	0x400
 2231 0dd6 2A       		.uleb128 0x2a
 2232 0dd7 01       		.uleb128 0x1
 2233 0dd8 52       		.byte	0x52
 2234 0dd9 03       		.uleb128 0x3
 2235 0dda 0A       		.byte	0xa
 2236 0ddb 8203     		.2byte	0x382
 2237 0ddd 00       		.byte	0
 2238 0dde 2D       		.uleb128 0x2d
 2239 0ddf 2C000000 		.4byte	.LVL4
 2240 0de3 4B100000 		.4byte	0x104b
 2241 0de7 2A       		.uleb128 0x2a
 2242 0de8 01       		.uleb128 0x1
 2243 0de9 50       		.byte	0x50
 2244 0dea 05       		.uleb128 0x5
 2245 0deb 0C       		.byte	0xc
 2246 0dec 00080240 		.4byte	0x40020800
 2247 0df0 2A       		.uleb128 0x2a
 2248 0df1 01       		.uleb128 0x1
 2249 0df2 51       		.byte	0x51
 2250 0df3 03       		.uleb128 0x3
 2251 0df4 0A       		.byte	0xa
 2252 0df5 0008     		.2byte	0x800
 2253 0df7 2A       		.uleb128 0x2a
 2254 0df8 01       		.uleb128 0x1
 2255 0df9 52       		.byte	0x52
 2256 0dfa 03       		.uleb128 0x3
 2257 0dfb 0A       		.byte	0xa
 2258 0dfc 8203     		.2byte	0x382
 2259 0dfe 00       		.byte	0
 2260 0dff 00       		.byte	0
 2261 0e00 2B       		.uleb128 0x2b
 2262 0e01 11060000 		.4byte	.LASF175
 2263 0e05 02       		.byte	0x2
 2264 0e06 2F       		.byte	0x2f
 2265 0e07 00000000 		.4byte	.LFB259
 2266 0e0b 24000000 		.4byte	.LFE259-.LFB259
 2267 0e0f 01       		.uleb128 0x1
 2268 0e10 9C       		.byte	0x9c
 2269 0e11 2F0E0000 		.4byte	0xe2f
 2270 0e15 24       		.uleb128 0x24
 2271 0e16 7000     		.ascii	"p\000"
 2272 0e18 02       		.byte	0x2
 2273 0e19 2F       		.byte	0x2f
 2274 0e1a AA0C0000 		.4byte	0xcaa
 2275 0e1e 21000000 		.4byte	.LLST1
 2276 0e22 2E       		.uleb128 0x2e
 2277 0e23 12000000 		.4byte	.LVL7
 2278 0e27 2A       		.uleb128 0x2a
 2279 0e28 01       		.uleb128 0x1
 2280 0e29 50       		.byte	0x50
ARM GAS  C:\Users\IDONNO~1\AppData\Local\Temp\cc9Dh1hq.s 			page 41


 2281 0e2a 02       		.uleb128 0x2
 2282 0e2b 75       		.byte	0x75
 2283 0e2c 00       		.sleb128 0
 2284 0e2d 00       		.byte	0
 2285 0e2e 00       		.byte	0
 2286 0e2f 2B       		.uleb128 0x2b
 2287 0e30 AB070000 		.4byte	.LASF176
 2288 0e34 02       		.byte	0x2
 2289 0e35 34       		.byte	0x34
 2290 0e36 00000000 		.4byte	.LFB260
 2291 0e3a 38000000 		.4byte	.LFE260-.LFB260
 2292 0e3e 01       		.uleb128 0x1
 2293 0e3f 9C       		.byte	0x9c
 2294 0e40 760E0000 		.4byte	0xe76
 2295 0e44 24       		.uleb128 0x24
 2296 0e45 7000     		.ascii	"p\000"
 2297 0e47 02       		.byte	0x2
 2298 0e48 34       		.byte	0x34
 2299 0e49 AA0C0000 		.4byte	0xcaa
 2300 0e4d 57000000 		.4byte	.LLST2
 2301 0e51 2F       		.uleb128 0x2f
 2302 0e52 12000000 		.4byte	.LVL12
 2303 0e56 610E0000 		.4byte	0xe61
 2304 0e5a 2A       		.uleb128 0x2a
 2305 0e5b 01       		.uleb128 0x1
 2306 0e5c 50       		.byte	0x50
 2307 0e5d 02       		.uleb128 0x2
 2308 0e5e 75       		.byte	0x75
 2309 0e5f 00       		.sleb128 0
 2310 0e60 00       		.byte	0
 2311 0e61 30       		.uleb128 0x30
 2312 0e62 2A000000 		.4byte	.LVL15
 2313 0e66 2A       		.uleb128 0x2a
 2314 0e67 01       		.uleb128 0x1
 2315 0e68 51       		.byte	0x51
 2316 0e69 05       		.uleb128 0x5
 2317 0e6a 03       		.byte	0x3
 2318 0e6b 00000000 		.4byte	.LC0
 2319 0e6f 2A       		.uleb128 0x2a
 2320 0e70 01       		.uleb128 0x1
 2321 0e71 52       		.byte	0x52
 2322 0e72 01       		.uleb128 0x1
 2323 0e73 32       		.byte	0x32
 2324 0e74 00       		.byte	0
 2325 0e75 00       		.byte	0
 2326 0e76 2B       		.uleb128 0x2b
 2327 0e77 CC000000 		.4byte	.LASF177
 2328 0e7b 02       		.byte	0x2
 2329 0e7c 3A       		.byte	0x3a
 2330 0e7d 00000000 		.4byte	.LFB261
 2331 0e81 5C000000 		.4byte	.LFE261-.LFB261
 2332 0e85 01       		.uleb128 0x1
 2333 0e86 9C       		.byte	0x9c
 2334 0e87 D00E0000 		.4byte	0xed0
 2335 0e8b 24       		.uleb128 0x24
 2336 0e8c 6E00     		.ascii	"n\000"
 2337 0e8e 02       		.byte	0x2
ARM GAS  C:\Users\IDONNO~1\AppData\Local\Temp\cc9Dh1hq.s 			page 42


 2338 0e8f 3A       		.byte	0x3a
 2339 0e90 CE000000 		.4byte	0xce
 2340 0e94 8D000000 		.4byte	.LLST3
 2341 0e98 27       		.uleb128 0x27
 2342 0e99 62756600 		.ascii	"buf\000"
 2343 0e9d 02       		.byte	0x2
 2344 0e9e 3C       		.byte	0x3c
 2345 0e9f D00E0000 		.4byte	0xed0
 2346 0ea3 02       		.uleb128 0x2
 2347 0ea4 91       		.byte	0x91
 2348 0ea5 60       		.sleb128 -32
 2349 0ea6 31       		.uleb128 0x31
 2350 0ea7 7000     		.ascii	"p\000"
 2351 0ea9 02       		.byte	0x2
 2352 0eaa 3C       		.byte	0x3c
 2353 0eab AA0C0000 		.4byte	0xcaa
 2354 0eaf C4000000 		.4byte	.LLST4
 2355 0eb3 2F       		.uleb128 0x2f
 2356 0eb4 40000000 		.4byte	.LVL23
 2357 0eb8 C30E0000 		.4byte	0xec3
 2358 0ebc 2A       		.uleb128 0x2a
 2359 0ebd 01       		.uleb128 0x1
 2360 0ebe 50       		.byte	0x50
 2361 0ebf 02       		.uleb128 0x2
 2362 0ec0 76       		.byte	0x76
 2363 0ec1 00       		.sleb128 0
 2364 0ec2 00       		.byte	0
 2365 0ec3 30       		.uleb128 0x30
 2366 0ec4 52000000 		.4byte	.LVL27
 2367 0ec8 2A       		.uleb128 0x2a
 2368 0ec9 01       		.uleb128 0x1
 2369 0eca 51       		.byte	0x51
 2370 0ecb 02       		.uleb128 0x2
 2371 0ecc 08       		.byte	0x8
 2372 0ecd 30       		.byte	0x30
 2373 0ece 00       		.byte	0
 2374 0ecf 00       		.byte	0
 2375 0ed0 17       		.uleb128 0x17
 2376 0ed1 6C070000 		.4byte	0x76c
 2377 0ed5 E00E0000 		.4byte	0xee0
 2378 0ed9 18       		.uleb128 0x18
 2379 0eda 95040000 		.4byte	0x495
 2380 0ede 0F       		.byte	0xf
 2381 0edf 00       		.byte	0
 2382 0ee0 2B       		.uleb128 0x2b
 2383 0ee1 65010000 		.4byte	.LASF178
 2384 0ee5 02       		.byte	0x2
 2385 0ee6 48       		.byte	0x48
 2386 0ee7 00000000 		.4byte	.LFB262
 2387 0eeb 24000000 		.4byte	.LFE262-.LFB262
 2388 0eef 01       		.uleb128 0x1
 2389 0ef0 9C       		.byte	0x9c
 2390 0ef1 590F0000 		.4byte	0xf59
 2391 0ef5 24       		.uleb128 0x24
 2392 0ef6 73647000 		.ascii	"sdp\000"
 2393 0efa 02       		.byte	0x2
 2394 0efb 48       		.byte	0x48
ARM GAS  C:\Users\IDONNO~1\AppData\Local\Temp\cc9Dh1hq.s 			page 43


 2395 0efc 590F0000 		.4byte	0xf59
 2396 0f00 EF000000 		.4byte	.LLST5
 2397 0f04 32       		.uleb128 0x32
 2398 0f05 BE040000 		.4byte	.LASF179
 2399 0f09 02       		.byte	0x2
 2400 0f0a 48       		.byte	0x48
 2401 0f0b 66070000 		.4byte	0x766
 2402 0f0f 1D010000 		.4byte	.LLST6
 2403 0f13 31       		.uleb128 0x31
 2404 0f14 6900     		.ascii	"i\000"
 2405 0f16 02       		.byte	0x2
 2406 0f17 4A       		.byte	0x4a
 2407 0f18 AD000000 		.4byte	0xad
 2408 0f1c 3B010000 		.4byte	.LLST7
 2409 0f20 33       		.uleb128 0x33
 2410 0f21 F20C0000 		.4byte	0xcf2
 2411 0f25 12000000 		.4byte	.LBB4
 2412 0f29 0A000000 		.4byte	.LBE4-.LBB4
 2413 0f2d 02       		.byte	0x2
 2414 0f2e 4C       		.byte	0x4c
 2415 0f2f 34       		.uleb128 0x34
 2416 0f30 0F0D0000 		.4byte	0xd0f
 2417 0f34 65010000 		.4byte	.LLST8
 2418 0f38 34       		.uleb128 0x34
 2419 0f39 030D0000 		.4byte	0xd03
 2420 0f3d 78010000 		.4byte	.LLST9
 2421 0f41 29       		.uleb128 0x29
 2422 0f42 1C000000 		.4byte	.LVL32
 2423 0f46 57100000 		.4byte	0x1057
 2424 0f4a 2A       		.uleb128 0x2a
 2425 0f4b 01       		.uleb128 0x1
 2426 0f4c 50       		.byte	0x50
 2427 0f4d 02       		.uleb128 0x2
 2428 0f4e 75       		.byte	0x75
 2429 0f4f 00       		.sleb128 0
 2430 0f50 2A       		.uleb128 0x2a
 2431 0f51 01       		.uleb128 0x1
 2432 0f52 52       		.byte	0x52
 2433 0f53 02       		.uleb128 0x2
 2434 0f54 09       		.byte	0x9
 2435 0f55 FF       		.byte	0xff
 2436 0f56 00       		.byte	0
 2437 0f57 00       		.byte	0
 2438 0f58 00       		.byte	0
 2439 0f59 0A       		.uleb128 0xa
 2440 0f5a 04       		.byte	0x4
 2441 0f5b 590B0000 		.4byte	0xb59
 2442 0f5f 2B       		.uleb128 0x2b
 2443 0f60 96000000 		.4byte	.LASF180
 2444 0f64 02       		.byte	0x2
 2445 0f65 4F       		.byte	0x4f
 2446 0f66 00000000 		.4byte	.LFB263
 2447 0f6a 12000000 		.4byte	.LFE263-.LFB263
 2448 0f6e 01       		.uleb128 0x1
 2449 0f6f 9C       		.byte	0x9c
 2450 0f70 AB0F0000 		.4byte	0xfab
 2451 0f74 24       		.uleb128 0x24
ARM GAS  C:\Users\IDONNO~1\AppData\Local\Temp\cc9Dh1hq.s 			page 44


 2452 0f75 63687000 		.ascii	"chp\000"
 2453 0f79 02       		.byte	0x2
 2454 0f7a 4F       		.byte	0x4f
 2455 0f7b 8A0D0000 		.4byte	0xd8a
 2456 0f7f 8B010000 		.4byte	.LLST10
 2457 0f83 25       		.uleb128 0x25
 2458 0f84 666D7400 		.ascii	"fmt\000"
 2459 0f88 02       		.byte	0x2
 2460 0f89 4F       		.byte	0x4f
 2461 0f8a 66070000 		.4byte	0x766
 2462 0f8e 02       		.uleb128 0x2
 2463 0f8f 91       		.byte	0x91
 2464 0f90 74       		.sleb128 -12
 2465 0f91 26       		.uleb128 0x26
 2466 0f92 29       		.uleb128 0x29
 2467 0f93 0A000000 		.4byte	.LVL35
 2468 0f97 1A0D0000 		.4byte	0xd1a
 2469 0f9b 2A       		.uleb128 0x2a
 2470 0f9c 01       		.uleb128 0x1
 2471 0f9d 50       		.byte	0x50
 2472 0f9e 03       		.uleb128 0x3
 2473 0f9f F3       		.byte	0xf3
 2474 0fa0 01       		.uleb128 0x1
 2475 0fa1 50       		.byte	0x50
 2476 0fa2 2A       		.uleb128 0x2a
 2477 0fa3 01       		.uleb128 0x1
 2478 0fa4 51       		.byte	0x51
 2479 0fa5 03       		.uleb128 0x3
 2480 0fa6 91       		.byte	0x91
 2481 0fa7 5C       		.sleb128 -36
 2482 0fa8 06       		.byte	0x6
 2483 0fa9 00       		.byte	0
 2484 0faa 00       		.byte	0
 2485 0fab 35       		.uleb128 0x35
 2486 0fac EC040000 		.4byte	.LASF193
 2487 0fb0 02       		.byte	0x2
 2488 0fb1 5B       		.byte	0x5b
 2489 0fb2 AD000000 		.4byte	0xad
 2490 0fb6 00000000 		.4byte	.LFB264
 2491 0fba 20000000 		.4byte	.LFE264-.LFB264
 2492 0fbe 01       		.uleb128 0x1
 2493 0fbf 9C       		.byte	0x9c
 2494 0fc0 F00F0000 		.4byte	0xff0
 2495 0fc4 28       		.uleb128 0x28
 2496 0fc5 8F000000 		.4byte	.LASF181
 2497 0fc9 02       		.byte	0x2
 2498 0fca 5D       		.byte	0x5d
 2499 0fcb F00F0000 		.4byte	0xff0
 2500 0fcf 03       		.uleb128 0x3
 2501 0fd0 91       		.byte	0x91
 2502 0fd1 F87E     		.sleb128 -136
 2503 0fd3 36       		.uleb128 0x36
 2504 0fd4 6C656E00 		.ascii	"len\000"
 2505 0fd8 02       		.byte	0x2
 2506 0fd9 5E       		.byte	0x5e
 2507 0fda 25000000 		.4byte	0x25
 2508 0fde 2E       		.uleb128 0x2e
ARM GAS  C:\Users\IDONNO~1\AppData\Local\Temp\cc9Dh1hq.s 			page 45


 2509 0fdf 10000000 		.4byte	.LVL36
 2510 0fe3 2A       		.uleb128 0x2a
 2511 0fe4 01       		.uleb128 0x1
 2512 0fe5 51       		.byte	0x51
 2513 0fe6 02       		.uleb128 0x2
 2514 0fe7 7D       		.byte	0x7d
 2515 0fe8 00       		.sleb128 0
 2516 0fe9 2A       		.uleb128 0x2a
 2517 0fea 01       		.uleb128 0x1
 2518 0feb 52       		.byte	0x52
 2519 0fec 01       		.uleb128 0x1
 2520 0fed 31       		.byte	0x31
 2521 0fee 00       		.byte	0
 2522 0fef 00       		.byte	0
 2523 0ff0 17       		.uleb128 0x17
 2524 0ff1 AD000000 		.4byte	0xad
 2525 0ff5 00100000 		.4byte	0x1000
 2526 0ff9 18       		.uleb128 0x18
 2527 0ffa 95040000 		.4byte	0x495
 2528 0ffe 7F       		.byte	0x7f
 2529 0fff 00       		.byte	0
 2530 1000 28       		.uleb128 0x28
 2531 1001 1F070000 		.4byte	.LASF182
 2532 1005 02       		.byte	0x2
 2533 1006 17       		.byte	0x17
 2534 1007 0B0C0000 		.4byte	0xc0b
 2535 100b 05       		.uleb128 0x5
 2536 100c 03       		.byte	0x3
 2537 100d 00000000 		.4byte	sd3cfg
 2538 1011 37       		.uleb128 0x37
 2539 1012 CA060000 		.4byte	.LASF183
 2540 1016 17       		.byte	0x17
 2541 1017 A706     		.2byte	0x6a7
 2542 1019 E4000000 		.4byte	0xe4
 2543 101d 38       		.uleb128 0x38
 2544 101e 636800   		.ascii	"ch\000"
 2545 1021 09       		.byte	0x9
 2546 1022 0902     		.2byte	0x209
 2547 1024 2E040000 		.4byte	0x42e
 2548 1028 38       		.uleb128 0x38
 2549 1029 53443300 		.ascii	"SD3\000"
 2550 102d 14       		.byte	0x14
 2551 102e 1501     		.2byte	0x115
 2552 1030 590B0000 		.4byte	0xb59
 2553 1034 39       		.uleb128 0x39
 2554 1035 5E000000 		.4byte	.LASF184
 2555 1039 5E000000 		.4byte	.LASF184
 2556 103d 01       		.byte	0x1
 2557 103e 28       		.byte	0x28
 2558 103f 3A       		.uleb128 0x3a
 2559 1040 2D000000 		.4byte	.LASF185
 2560 1044 2D000000 		.4byte	.LASF185
 2561 1048 13       		.byte	0x13
 2562 1049 2801     		.2byte	0x128
 2563 104b 3A       		.uleb128 0x3a
 2564 104c 30080000 		.4byte	.LASF186
 2565 1050 30080000 		.4byte	.LASF186
ARM GAS  C:\Users\IDONNO~1\AppData\Local\Temp\cc9Dh1hq.s 			page 46


 2566 1054 12       		.byte	0x12
 2567 1055 E001     		.2byte	0x1e0
 2568 1057 39       		.uleb128 0x39
 2569 1058 E3070000 		.4byte	.LASF187
 2570 105c E3070000 		.4byte	.LASF187
 2571 1060 03       		.byte	0x3
 2572 1061 F9       		.byte	0xf9
 2573 1062 00       		.byte	0
 2574              		.section	.debug_abbrev,"",%progbits
 2575              	.Ldebug_abbrev0:
 2576 0000 01       		.uleb128 0x1
 2577 0001 11       		.uleb128 0x11
 2578 0002 01       		.byte	0x1
 2579 0003 25       		.uleb128 0x25
 2580 0004 0E       		.uleb128 0xe
 2581 0005 13       		.uleb128 0x13
 2582 0006 0B       		.uleb128 0xb
 2583 0007 03       		.uleb128 0x3
 2584 0008 0E       		.uleb128 0xe
 2585 0009 1B       		.uleb128 0x1b
 2586 000a 0E       		.uleb128 0xe
 2587 000b 55       		.uleb128 0x55
 2588 000c 17       		.uleb128 0x17
 2589 000d 11       		.uleb128 0x11
 2590 000e 01       		.uleb128 0x1
 2591 000f 10       		.uleb128 0x10
 2592 0010 17       		.uleb128 0x17
 2593 0011 00       		.byte	0
 2594 0012 00       		.byte	0
 2595 0013 02       		.uleb128 0x2
 2596 0014 24       		.uleb128 0x24
 2597 0015 00       		.byte	0
 2598 0016 0B       		.uleb128 0xb
 2599 0017 0B       		.uleb128 0xb
 2600 0018 3E       		.uleb128 0x3e
 2601 0019 0B       		.uleb128 0xb
 2602 001a 03       		.uleb128 0x3
 2603 001b 08       		.uleb128 0x8
 2604 001c 00       		.byte	0
 2605 001d 00       		.byte	0
 2606 001e 03       		.uleb128 0x3
 2607 001f 16       		.uleb128 0x16
 2608 0020 00       		.byte	0
 2609 0021 03       		.uleb128 0x3
 2610 0022 0E       		.uleb128 0xe
 2611 0023 3A       		.uleb128 0x3a
 2612 0024 0B       		.uleb128 0xb
 2613 0025 3B       		.uleb128 0x3b
 2614 0026 0B       		.uleb128 0xb
 2615 0027 49       		.uleb128 0x49
 2616 0028 13       		.uleb128 0x13
 2617 0029 00       		.byte	0
 2618 002a 00       		.byte	0
 2619 002b 04       		.uleb128 0x4
 2620 002c 24       		.uleb128 0x24
 2621 002d 00       		.byte	0
 2622 002e 0B       		.uleb128 0xb
ARM GAS  C:\Users\IDONNO~1\AppData\Local\Temp\cc9Dh1hq.s 			page 47


 2623 002f 0B       		.uleb128 0xb
 2624 0030 3E       		.uleb128 0x3e
 2625 0031 0B       		.uleb128 0xb
 2626 0032 03       		.uleb128 0x3
 2627 0033 0E       		.uleb128 0xe
 2628 0034 00       		.byte	0
 2629 0035 00       		.byte	0
 2630 0036 05       		.uleb128 0x5
 2631 0037 35       		.uleb128 0x35
 2632 0038 00       		.byte	0
 2633 0039 49       		.uleb128 0x49
 2634 003a 13       		.uleb128 0x13
 2635 003b 00       		.byte	0
 2636 003c 00       		.byte	0
 2637 003d 06       		.uleb128 0x6
 2638 003e 13       		.uleb128 0x13
 2639 003f 01       		.byte	0x1
 2640 0040 03       		.uleb128 0x3
 2641 0041 0E       		.uleb128 0xe
 2642 0042 0B       		.uleb128 0xb
 2643 0043 0B       		.uleb128 0xb
 2644 0044 3A       		.uleb128 0x3a
 2645 0045 0B       		.uleb128 0xb
 2646 0046 3B       		.uleb128 0x3b
 2647 0047 0B       		.uleb128 0xb
 2648 0048 01       		.uleb128 0x1
 2649 0049 13       		.uleb128 0x13
 2650 004a 00       		.byte	0
 2651 004b 00       		.byte	0
 2652 004c 07       		.uleb128 0x7
 2653 004d 0D       		.uleb128 0xd
 2654 004e 00       		.byte	0
 2655 004f 03       		.uleb128 0x3
 2656 0050 0E       		.uleb128 0xe
 2657 0051 3A       		.uleb128 0x3a
 2658 0052 0B       		.uleb128 0xb
 2659 0053 3B       		.uleb128 0x3b
 2660 0054 0B       		.uleb128 0xb
 2661 0055 49       		.uleb128 0x49
 2662 0056 13       		.uleb128 0x13
 2663 0057 38       		.uleb128 0x38
 2664 0058 0B       		.uleb128 0xb
 2665 0059 00       		.byte	0
 2666 005a 00       		.byte	0
 2667 005b 08       		.uleb128 0x8
 2668 005c 0D       		.uleb128 0xd
 2669 005d 00       		.byte	0
 2670 005e 03       		.uleb128 0x3
 2671 005f 08       		.uleb128 0x8
 2672 0060 3A       		.uleb128 0x3a
 2673 0061 0B       		.uleb128 0xb
 2674 0062 3B       		.uleb128 0x3b
 2675 0063 05       		.uleb128 0x5
 2676 0064 49       		.uleb128 0x49
 2677 0065 13       		.uleb128 0x13
 2678 0066 38       		.uleb128 0x38
 2679 0067 0B       		.uleb128 0xb
ARM GAS  C:\Users\IDONNO~1\AppData\Local\Temp\cc9Dh1hq.s 			page 48


 2680 0068 00       		.byte	0
 2681 0069 00       		.byte	0
 2682 006a 09       		.uleb128 0x9
 2683 006b 0D       		.uleb128 0xd
 2684 006c 00       		.byte	0
 2685 006d 03       		.uleb128 0x3
 2686 006e 0E       		.uleb128 0xe
 2687 006f 3A       		.uleb128 0x3a
 2688 0070 0B       		.uleb128 0xb
 2689 0071 3B       		.uleb128 0x3b
 2690 0072 05       		.uleb128 0x5
 2691 0073 49       		.uleb128 0x49
 2692 0074 13       		.uleb128 0x13
 2693 0075 38       		.uleb128 0x38
 2694 0076 0B       		.uleb128 0xb
 2695 0077 00       		.byte	0
 2696 0078 00       		.byte	0
 2697 0079 0A       		.uleb128 0xa
 2698 007a 0F       		.uleb128 0xf
 2699 007b 00       		.byte	0
 2700 007c 0B       		.uleb128 0xb
 2701 007d 0B       		.uleb128 0xb
 2702 007e 49       		.uleb128 0x49
 2703 007f 13       		.uleb128 0x13
 2704 0080 00       		.byte	0
 2705 0081 00       		.byte	0
 2706 0082 0B       		.uleb128 0xb
 2707 0083 13       		.uleb128 0x13
 2708 0084 01       		.byte	0x1
 2709 0085 03       		.uleb128 0x3
 2710 0086 0E       		.uleb128 0xe
 2711 0087 0B       		.uleb128 0xb
 2712 0088 0B       		.uleb128 0xb
 2713 0089 3A       		.uleb128 0x3a
 2714 008a 0B       		.uleb128 0xb
 2715 008b 3B       		.uleb128 0x3b
 2716 008c 05       		.uleb128 0x5
 2717 008d 01       		.uleb128 0x1
 2718 008e 13       		.uleb128 0x13
 2719 008f 00       		.byte	0
 2720 0090 00       		.byte	0
 2721 0091 0C       		.uleb128 0xc
 2722 0092 15       		.uleb128 0x15
 2723 0093 01       		.byte	0x1
 2724 0094 27       		.uleb128 0x27
 2725 0095 19       		.uleb128 0x19
 2726 0096 01       		.uleb128 0x1
 2727 0097 13       		.uleb128 0x13
 2728 0098 00       		.byte	0
 2729 0099 00       		.byte	0
 2730 009a 0D       		.uleb128 0xd
 2731 009b 05       		.uleb128 0x5
 2732 009c 00       		.byte	0
 2733 009d 49       		.uleb128 0x49
 2734 009e 13       		.uleb128 0x13
 2735 009f 00       		.byte	0
 2736 00a0 00       		.byte	0
ARM GAS  C:\Users\IDONNO~1\AppData\Local\Temp\cc9Dh1hq.s 			page 49


 2737 00a1 0E       		.uleb128 0xe
 2738 00a2 0F       		.uleb128 0xf
 2739 00a3 00       		.byte	0
 2740 00a4 0B       		.uleb128 0xb
 2741 00a5 0B       		.uleb128 0xb
 2742 00a6 00       		.byte	0
 2743 00a7 00       		.byte	0
 2744 00a8 0F       		.uleb128 0xf
 2745 00a9 13       		.uleb128 0x13
 2746 00aa 01       		.byte	0x1
 2747 00ab 03       		.uleb128 0x3
 2748 00ac 0E       		.uleb128 0xe
 2749 00ad 0B       		.uleb128 0xb
 2750 00ae 05       		.uleb128 0x5
 2751 00af 3A       		.uleb128 0x3a
 2752 00b0 0B       		.uleb128 0xb
 2753 00b1 3B       		.uleb128 0x3b
 2754 00b2 05       		.uleb128 0x5
 2755 00b3 01       		.uleb128 0x1
 2756 00b4 13       		.uleb128 0x13
 2757 00b5 00       		.byte	0
 2758 00b6 00       		.byte	0
 2759 00b7 10       		.uleb128 0x10
 2760 00b8 13       		.uleb128 0x13
 2761 00b9 01       		.byte	0x1
 2762 00ba 0B       		.uleb128 0xb
 2763 00bb 0B       		.uleb128 0xb
 2764 00bc 3A       		.uleb128 0x3a
 2765 00bd 0B       		.uleb128 0xb
 2766 00be 3B       		.uleb128 0x3b
 2767 00bf 05       		.uleb128 0x5
 2768 00c0 01       		.uleb128 0x1
 2769 00c1 13       		.uleb128 0x13
 2770 00c2 00       		.byte	0
 2771 00c3 00       		.byte	0
 2772 00c4 11       		.uleb128 0x11
 2773 00c5 16       		.uleb128 0x16
 2774 00c6 00       		.byte	0
 2775 00c7 03       		.uleb128 0x3
 2776 00c8 0E       		.uleb128 0xe
 2777 00c9 3A       		.uleb128 0x3a
 2778 00ca 0B       		.uleb128 0xb
 2779 00cb 3B       		.uleb128 0x3b
 2780 00cc 05       		.uleb128 0x5
 2781 00cd 49       		.uleb128 0x49
 2782 00ce 13       		.uleb128 0x13
 2783 00cf 00       		.byte	0
 2784 00d0 00       		.byte	0
 2785 00d1 12       		.uleb128 0x12
 2786 00d2 0D       		.uleb128 0xd
 2787 00d3 00       		.byte	0
 2788 00d4 03       		.uleb128 0x3
 2789 00d5 08       		.uleb128 0x8
 2790 00d6 3A       		.uleb128 0x3a
 2791 00d7 0B       		.uleb128 0xb
 2792 00d8 3B       		.uleb128 0x3b
 2793 00d9 0B       		.uleb128 0xb
ARM GAS  C:\Users\IDONNO~1\AppData\Local\Temp\cc9Dh1hq.s 			page 50


 2794 00da 49       		.uleb128 0x49
 2795 00db 13       		.uleb128 0x13
 2796 00dc 38       		.uleb128 0x38
 2797 00dd 0B       		.uleb128 0xb
 2798 00de 00       		.byte	0
 2799 00df 00       		.byte	0
 2800 00e0 13       		.uleb128 0x13
 2801 00e1 13       		.uleb128 0x13
 2802 00e2 01       		.byte	0x1
 2803 00e3 0B       		.uleb128 0xb
 2804 00e4 0B       		.uleb128 0xb
 2805 00e5 3A       		.uleb128 0x3a
 2806 00e6 0B       		.uleb128 0xb
 2807 00e7 3B       		.uleb128 0x3b
 2808 00e8 0B       		.uleb128 0xb
 2809 00e9 01       		.uleb128 0x1
 2810 00ea 13       		.uleb128 0x13
 2811 00eb 00       		.byte	0
 2812 00ec 00       		.byte	0
 2813 00ed 14       		.uleb128 0x14
 2814 00ee 17       		.uleb128 0x17
 2815 00ef 01       		.byte	0x1
 2816 00f0 0B       		.uleb128 0xb
 2817 00f1 0B       		.uleb128 0xb
 2818 00f2 3A       		.uleb128 0x3a
 2819 00f3 0B       		.uleb128 0xb
 2820 00f4 3B       		.uleb128 0x3b
 2821 00f5 0B       		.uleb128 0xb
 2822 00f6 01       		.uleb128 0x1
 2823 00f7 13       		.uleb128 0x13
 2824 00f8 00       		.byte	0
 2825 00f9 00       		.byte	0
 2826 00fa 15       		.uleb128 0x15
 2827 00fb 0D       		.uleb128 0xd
 2828 00fc 00       		.byte	0
 2829 00fd 03       		.uleb128 0x3
 2830 00fe 0E       		.uleb128 0xe
 2831 00ff 3A       		.uleb128 0x3a
 2832 0100 0B       		.uleb128 0xb
 2833 0101 3B       		.uleb128 0x3b
 2834 0102 05       		.uleb128 0x5
 2835 0103 49       		.uleb128 0x49
 2836 0104 13       		.uleb128 0x13
 2837 0105 00       		.byte	0
 2838 0106 00       		.byte	0
 2839 0107 16       		.uleb128 0x16
 2840 0108 26       		.uleb128 0x26
 2841 0109 00       		.byte	0
 2842 010a 49       		.uleb128 0x49
 2843 010b 13       		.uleb128 0x13
 2844 010c 00       		.byte	0
 2845 010d 00       		.byte	0
 2846 010e 17       		.uleb128 0x17
 2847 010f 01       		.uleb128 0x1
 2848 0110 01       		.byte	0x1
 2849 0111 49       		.uleb128 0x49
 2850 0112 13       		.uleb128 0x13
ARM GAS  C:\Users\IDONNO~1\AppData\Local\Temp\cc9Dh1hq.s 			page 51


 2851 0113 01       		.uleb128 0x1
 2852 0114 13       		.uleb128 0x13
 2853 0115 00       		.byte	0
 2854 0116 00       		.byte	0
 2855 0117 18       		.uleb128 0x18
 2856 0118 21       		.uleb128 0x21
 2857 0119 00       		.byte	0
 2858 011a 49       		.uleb128 0x49
 2859 011b 13       		.uleb128 0x13
 2860 011c 2F       		.uleb128 0x2f
 2861 011d 0B       		.uleb128 0xb
 2862 011e 00       		.byte	0
 2863 011f 00       		.byte	0
 2864 0120 19       		.uleb128 0x19
 2865 0121 15       		.uleb128 0x15
 2866 0122 01       		.byte	0x1
 2867 0123 27       		.uleb128 0x27
 2868 0124 19       		.uleb128 0x19
 2869 0125 49       		.uleb128 0x49
 2870 0126 13       		.uleb128 0x13
 2871 0127 01       		.uleb128 0x1
 2872 0128 13       		.uleb128 0x13
 2873 0129 00       		.byte	0
 2874 012a 00       		.byte	0
 2875 012b 1A       		.uleb128 0x1a
 2876 012c 0D       		.uleb128 0xd
 2877 012d 00       		.byte	0
 2878 012e 03       		.uleb128 0x3
 2879 012f 08       		.uleb128 0x8
 2880 0130 3A       		.uleb128 0x3a
 2881 0131 0B       		.uleb128 0xb
 2882 0132 3B       		.uleb128 0x3b
 2883 0133 0B       		.uleb128 0xb
 2884 0134 49       		.uleb128 0x49
 2885 0135 13       		.uleb128 0x13
 2886 0136 00       		.byte	0
 2887 0137 00       		.byte	0
 2888 0138 1B       		.uleb128 0x1b
 2889 0139 04       		.uleb128 0x4
 2890 013a 01       		.byte	0x1
 2891 013b 0B       		.uleb128 0xb
 2892 013c 0B       		.uleb128 0xb
 2893 013d 49       		.uleb128 0x49
 2894 013e 13       		.uleb128 0x13
 2895 013f 3A       		.uleb128 0x3a
 2896 0140 0B       		.uleb128 0xb
 2897 0141 3B       		.uleb128 0x3b
 2898 0142 0B       		.uleb128 0xb
 2899 0143 01       		.uleb128 0x1
 2900 0144 13       		.uleb128 0x13
 2901 0145 00       		.byte	0
 2902 0146 00       		.byte	0
 2903 0147 1C       		.uleb128 0x1c
 2904 0148 28       		.uleb128 0x28
 2905 0149 00       		.byte	0
 2906 014a 03       		.uleb128 0x3
 2907 014b 0E       		.uleb128 0xe
ARM GAS  C:\Users\IDONNO~1\AppData\Local\Temp\cc9Dh1hq.s 			page 52


 2908 014c 1C       		.uleb128 0x1c
 2909 014d 0B       		.uleb128 0xb
 2910 014e 00       		.byte	0
 2911 014f 00       		.byte	0
 2912 0150 1D       		.uleb128 0x1d
 2913 0151 13       		.uleb128 0x13
 2914 0152 01       		.byte	0x1
 2915 0153 03       		.uleb128 0x3
 2916 0154 0E       		.uleb128 0xe
 2917 0155 0B       		.uleb128 0xb
 2918 0156 05       		.uleb128 0x5
 2919 0157 3A       		.uleb128 0x3a
 2920 0158 0B       		.uleb128 0xb
 2921 0159 3B       		.uleb128 0x3b
 2922 015a 0B       		.uleb128 0xb
 2923 015b 01       		.uleb128 0x1
 2924 015c 13       		.uleb128 0x13
 2925 015d 00       		.byte	0
 2926 015e 00       		.byte	0
 2927 015f 1E       		.uleb128 0x1e
 2928 0160 0D       		.uleb128 0xd
 2929 0161 00       		.byte	0
 2930 0162 03       		.uleb128 0x3
 2931 0163 08       		.uleb128 0x8
 2932 0164 3A       		.uleb128 0x3a
 2933 0165 0B       		.uleb128 0xb
 2934 0166 3B       		.uleb128 0x3b
 2935 0167 0B       		.uleb128 0xb
 2936 0168 49       		.uleb128 0x49
 2937 0169 13       		.uleb128 0x13
 2938 016a 38       		.uleb128 0x38
 2939 016b 05       		.uleb128 0x5
 2940 016c 00       		.byte	0
 2941 016d 00       		.byte	0
 2942 016e 1F       		.uleb128 0x1f
 2943 016f 0D       		.uleb128 0xd
 2944 0170 00       		.byte	0
 2945 0171 03       		.uleb128 0x3
 2946 0172 0E       		.uleb128 0xe
 2947 0173 3A       		.uleb128 0x3a
 2948 0174 0B       		.uleb128 0xb
 2949 0175 3B       		.uleb128 0x3b
 2950 0176 0B       		.uleb128 0xb
 2951 0177 49       		.uleb128 0x49
 2952 0178 13       		.uleb128 0x13
 2953 0179 38       		.uleb128 0x38
 2954 017a 05       		.uleb128 0x5
 2955 017b 00       		.byte	0
 2956 017c 00       		.byte	0
 2957 017d 20       		.uleb128 0x20
 2958 017e 0D       		.uleb128 0xd
 2959 017f 00       		.byte	0
 2960 0180 03       		.uleb128 0x3
 2961 0181 0E       		.uleb128 0xe
 2962 0182 49       		.uleb128 0x49
 2963 0183 13       		.uleb128 0x13
 2964 0184 38       		.uleb128 0x38
ARM GAS  C:\Users\IDONNO~1\AppData\Local\Temp\cc9Dh1hq.s 			page 53


 2965 0185 0B       		.uleb128 0xb
 2966 0186 34       		.uleb128 0x34
 2967 0187 19       		.uleb128 0x19
 2968 0188 00       		.byte	0
 2969 0189 00       		.byte	0
 2970 018a 21       		.uleb128 0x21
 2971 018b 2E       		.uleb128 0x2e
 2972 018c 01       		.byte	0x1
 2973 018d 03       		.uleb128 0x3
 2974 018e 0E       		.uleb128 0xe
 2975 018f 3A       		.uleb128 0x3a
 2976 0190 0B       		.uleb128 0xb
 2977 0191 3B       		.uleb128 0x3b
 2978 0192 05       		.uleb128 0x5
 2979 0193 27       		.uleb128 0x27
 2980 0194 19       		.uleb128 0x19
 2981 0195 49       		.uleb128 0x49
 2982 0196 13       		.uleb128 0x13
 2983 0197 20       		.uleb128 0x20
 2984 0198 0B       		.uleb128 0xb
 2985 0199 01       		.uleb128 0x1
 2986 019a 13       		.uleb128 0x13
 2987 019b 00       		.byte	0
 2988 019c 00       		.byte	0
 2989 019d 22       		.uleb128 0x22
 2990 019e 05       		.uleb128 0x5
 2991 019f 00       		.byte	0
 2992 01a0 03       		.uleb128 0x3
 2993 01a1 08       		.uleb128 0x8
 2994 01a2 3A       		.uleb128 0x3a
 2995 01a3 0B       		.uleb128 0xb
 2996 01a4 3B       		.uleb128 0x3b
 2997 01a5 05       		.uleb128 0x5
 2998 01a6 49       		.uleb128 0x49
 2999 01a7 13       		.uleb128 0x13
 3000 01a8 00       		.byte	0
 3001 01a9 00       		.byte	0
 3002 01aa 23       		.uleb128 0x23
 3003 01ab 2E       		.uleb128 0x2e
 3004 01ac 01       		.byte	0x1
 3005 01ad 03       		.uleb128 0x3
 3006 01ae 0E       		.uleb128 0xe
 3007 01af 3A       		.uleb128 0x3a
 3008 01b0 0B       		.uleb128 0xb
 3009 01b1 3B       		.uleb128 0x3b
 3010 01b2 0B       		.uleb128 0xb
 3011 01b3 27       		.uleb128 0x27
 3012 01b4 19       		.uleb128 0x19
 3013 01b5 49       		.uleb128 0x49
 3014 01b6 13       		.uleb128 0x13
 3015 01b7 11       		.uleb128 0x11
 3016 01b8 01       		.uleb128 0x1
 3017 01b9 12       		.uleb128 0x12
 3018 01ba 06       		.uleb128 0x6
 3019 01bb 40       		.uleb128 0x40
 3020 01bc 18       		.uleb128 0x18
 3021 01bd 9742     		.uleb128 0x2117
ARM GAS  C:\Users\IDONNO~1\AppData\Local\Temp\cc9Dh1hq.s 			page 54


 3022 01bf 19       		.uleb128 0x19
 3023 01c0 01       		.uleb128 0x1
 3024 01c1 13       		.uleb128 0x13
 3025 01c2 00       		.byte	0
 3026 01c3 00       		.byte	0
 3027 01c4 24       		.uleb128 0x24
 3028 01c5 05       		.uleb128 0x5
 3029 01c6 00       		.byte	0
 3030 01c7 03       		.uleb128 0x3
 3031 01c8 08       		.uleb128 0x8
 3032 01c9 3A       		.uleb128 0x3a
 3033 01ca 0B       		.uleb128 0xb
 3034 01cb 3B       		.uleb128 0x3b
 3035 01cc 0B       		.uleb128 0xb
 3036 01cd 49       		.uleb128 0x49
 3037 01ce 13       		.uleb128 0x13
 3038 01cf 02       		.uleb128 0x2
 3039 01d0 17       		.uleb128 0x17
 3040 01d1 00       		.byte	0
 3041 01d2 00       		.byte	0
 3042 01d3 25       		.uleb128 0x25
 3043 01d4 05       		.uleb128 0x5
 3044 01d5 00       		.byte	0
 3045 01d6 03       		.uleb128 0x3
 3046 01d7 08       		.uleb128 0x8
 3047 01d8 3A       		.uleb128 0x3a
 3048 01d9 0B       		.uleb128 0xb
 3049 01da 3B       		.uleb128 0x3b
 3050 01db 0B       		.uleb128 0xb
 3051 01dc 49       		.uleb128 0x49
 3052 01dd 13       		.uleb128 0x13
 3053 01de 02       		.uleb128 0x2
 3054 01df 18       		.uleb128 0x18
 3055 01e0 00       		.byte	0
 3056 01e1 00       		.byte	0
 3057 01e2 26       		.uleb128 0x26
 3058 01e3 18       		.uleb128 0x18
 3059 01e4 00       		.byte	0
 3060 01e5 00       		.byte	0
 3061 01e6 00       		.byte	0
 3062 01e7 27       		.uleb128 0x27
 3063 01e8 34       		.uleb128 0x34
 3064 01e9 00       		.byte	0
 3065 01ea 03       		.uleb128 0x3
 3066 01eb 08       		.uleb128 0x8
 3067 01ec 3A       		.uleb128 0x3a
 3068 01ed 0B       		.uleb128 0xb
 3069 01ee 3B       		.uleb128 0x3b
 3070 01ef 0B       		.uleb128 0xb
 3071 01f0 49       		.uleb128 0x49
 3072 01f1 13       		.uleb128 0x13
 3073 01f2 02       		.uleb128 0x2
 3074 01f3 18       		.uleb128 0x18
 3075 01f4 00       		.byte	0
 3076 01f5 00       		.byte	0
 3077 01f6 28       		.uleb128 0x28
 3078 01f7 34       		.uleb128 0x34
ARM GAS  C:\Users\IDONNO~1\AppData\Local\Temp\cc9Dh1hq.s 			page 55


 3079 01f8 00       		.byte	0
 3080 01f9 03       		.uleb128 0x3
 3081 01fa 0E       		.uleb128 0xe
 3082 01fb 3A       		.uleb128 0x3a
 3083 01fc 0B       		.uleb128 0xb
 3084 01fd 3B       		.uleb128 0x3b
 3085 01fe 0B       		.uleb128 0xb
 3086 01ff 49       		.uleb128 0x49
 3087 0200 13       		.uleb128 0x13
 3088 0201 02       		.uleb128 0x2
 3089 0202 18       		.uleb128 0x18
 3090 0203 00       		.byte	0
 3091 0204 00       		.byte	0
 3092 0205 29       		.uleb128 0x29
 3093 0206 898201   		.uleb128 0x4109
 3094 0209 01       		.byte	0x1
 3095 020a 11       		.uleb128 0x11
 3096 020b 01       		.uleb128 0x1
 3097 020c 31       		.uleb128 0x31
 3098 020d 13       		.uleb128 0x13
 3099 020e 00       		.byte	0
 3100 020f 00       		.byte	0
 3101 0210 2A       		.uleb128 0x2a
 3102 0211 8A8201   		.uleb128 0x410a
 3103 0214 00       		.byte	0
 3104 0215 02       		.uleb128 0x2
 3105 0216 18       		.uleb128 0x18
 3106 0217 9142     		.uleb128 0x2111
 3107 0219 18       		.uleb128 0x18
 3108 021a 00       		.byte	0
 3109 021b 00       		.byte	0
 3110 021c 2B       		.uleb128 0x2b
 3111 021d 2E       		.uleb128 0x2e
 3112 021e 01       		.byte	0x1
 3113 021f 3F       		.uleb128 0x3f
 3114 0220 19       		.uleb128 0x19
 3115 0221 03       		.uleb128 0x3
 3116 0222 0E       		.uleb128 0xe
 3117 0223 3A       		.uleb128 0x3a
 3118 0224 0B       		.uleb128 0xb
 3119 0225 3B       		.uleb128 0x3b
 3120 0226 0B       		.uleb128 0xb
 3121 0227 27       		.uleb128 0x27
 3122 0228 19       		.uleb128 0x19
 3123 0229 11       		.uleb128 0x11
 3124 022a 01       		.uleb128 0x1
 3125 022b 12       		.uleb128 0x12
 3126 022c 06       		.uleb128 0x6
 3127 022d 40       		.uleb128 0x40
 3128 022e 18       		.uleb128 0x18
 3129 022f 9742     		.uleb128 0x2117
 3130 0231 19       		.uleb128 0x19
 3131 0232 01       		.uleb128 0x1
 3132 0233 13       		.uleb128 0x13
 3133 0234 00       		.byte	0
 3134 0235 00       		.byte	0
 3135 0236 2C       		.uleb128 0x2c
ARM GAS  C:\Users\IDONNO~1\AppData\Local\Temp\cc9Dh1hq.s 			page 56


 3136 0237 898201   		.uleb128 0x4109
 3137 023a 01       		.byte	0x1
 3138 023b 11       		.uleb128 0x11
 3139 023c 01       		.uleb128 0x1
 3140 023d 31       		.uleb128 0x31
 3141 023e 13       		.uleb128 0x13
 3142 023f 01       		.uleb128 0x1
 3143 0240 13       		.uleb128 0x13
 3144 0241 00       		.byte	0
 3145 0242 00       		.byte	0
 3146 0243 2D       		.uleb128 0x2d
 3147 0244 898201   		.uleb128 0x4109
 3148 0247 01       		.byte	0x1
 3149 0248 11       		.uleb128 0x11
 3150 0249 01       		.uleb128 0x1
 3151 024a 9542     		.uleb128 0x2115
 3152 024c 19       		.uleb128 0x19
 3153 024d 31       		.uleb128 0x31
 3154 024e 13       		.uleb128 0x13
 3155 024f 00       		.byte	0
 3156 0250 00       		.byte	0
 3157 0251 2E       		.uleb128 0x2e
 3158 0252 898201   		.uleb128 0x4109
 3159 0255 01       		.byte	0x1
 3160 0256 11       		.uleb128 0x11
 3161 0257 01       		.uleb128 0x1
 3162 0258 00       		.byte	0
 3163 0259 00       		.byte	0
 3164 025a 2F       		.uleb128 0x2f
 3165 025b 898201   		.uleb128 0x4109
 3166 025e 01       		.byte	0x1
 3167 025f 11       		.uleb128 0x11
 3168 0260 01       		.uleb128 0x1
 3169 0261 01       		.uleb128 0x1
 3170 0262 13       		.uleb128 0x13
 3171 0263 00       		.byte	0
 3172 0264 00       		.byte	0
 3173 0265 30       		.uleb128 0x30
 3174 0266 898201   		.uleb128 0x4109
 3175 0269 01       		.byte	0x1
 3176 026a 11       		.uleb128 0x11
 3177 026b 01       		.uleb128 0x1
 3178 026c 9542     		.uleb128 0x2115
 3179 026e 19       		.uleb128 0x19
 3180 026f 00       		.byte	0
 3181 0270 00       		.byte	0
 3182 0271 31       		.uleb128 0x31
 3183 0272 34       		.uleb128 0x34
 3184 0273 00       		.byte	0
 3185 0274 03       		.uleb128 0x3
 3186 0275 08       		.uleb128 0x8
 3187 0276 3A       		.uleb128 0x3a
 3188 0277 0B       		.uleb128 0xb
 3189 0278 3B       		.uleb128 0x3b
 3190 0279 0B       		.uleb128 0xb
 3191 027a 49       		.uleb128 0x49
 3192 027b 13       		.uleb128 0x13
ARM GAS  C:\Users\IDONNO~1\AppData\Local\Temp\cc9Dh1hq.s 			page 57


 3193 027c 02       		.uleb128 0x2
 3194 027d 17       		.uleb128 0x17
 3195 027e 00       		.byte	0
 3196 027f 00       		.byte	0
 3197 0280 32       		.uleb128 0x32
 3198 0281 05       		.uleb128 0x5
 3199 0282 00       		.byte	0
 3200 0283 03       		.uleb128 0x3
 3201 0284 0E       		.uleb128 0xe
 3202 0285 3A       		.uleb128 0x3a
 3203 0286 0B       		.uleb128 0xb
 3204 0287 3B       		.uleb128 0x3b
 3205 0288 0B       		.uleb128 0xb
 3206 0289 49       		.uleb128 0x49
 3207 028a 13       		.uleb128 0x13
 3208 028b 02       		.uleb128 0x2
 3209 028c 17       		.uleb128 0x17
 3210 028d 00       		.byte	0
 3211 028e 00       		.byte	0
 3212 028f 33       		.uleb128 0x33
 3213 0290 1D       		.uleb128 0x1d
 3214 0291 01       		.byte	0x1
 3215 0292 31       		.uleb128 0x31
 3216 0293 13       		.uleb128 0x13
 3217 0294 11       		.uleb128 0x11
 3218 0295 01       		.uleb128 0x1
 3219 0296 12       		.uleb128 0x12
 3220 0297 06       		.uleb128 0x6
 3221 0298 58       		.uleb128 0x58
 3222 0299 0B       		.uleb128 0xb
 3223 029a 59       		.uleb128 0x59
 3224 029b 0B       		.uleb128 0xb
 3225 029c 00       		.byte	0
 3226 029d 00       		.byte	0
 3227 029e 34       		.uleb128 0x34
 3228 029f 05       		.uleb128 0x5
 3229 02a0 00       		.byte	0
 3230 02a1 31       		.uleb128 0x31
 3231 02a2 13       		.uleb128 0x13
 3232 02a3 02       		.uleb128 0x2
 3233 02a4 17       		.uleb128 0x17
 3234 02a5 00       		.byte	0
 3235 02a6 00       		.byte	0
 3236 02a7 35       		.uleb128 0x35
 3237 02a8 2E       		.uleb128 0x2e
 3238 02a9 01       		.byte	0x1
 3239 02aa 3F       		.uleb128 0x3f
 3240 02ab 19       		.uleb128 0x19
 3241 02ac 03       		.uleb128 0x3
 3242 02ad 0E       		.uleb128 0xe
 3243 02ae 3A       		.uleb128 0x3a
 3244 02af 0B       		.uleb128 0xb
 3245 02b0 3B       		.uleb128 0x3b
 3246 02b1 0B       		.uleb128 0xb
 3247 02b2 27       		.uleb128 0x27
 3248 02b3 19       		.uleb128 0x19
 3249 02b4 49       		.uleb128 0x49
ARM GAS  C:\Users\IDONNO~1\AppData\Local\Temp\cc9Dh1hq.s 			page 58


 3250 02b5 13       		.uleb128 0x13
 3251 02b6 11       		.uleb128 0x11
 3252 02b7 01       		.uleb128 0x1
 3253 02b8 12       		.uleb128 0x12
 3254 02b9 06       		.uleb128 0x6
 3255 02ba 40       		.uleb128 0x40
 3256 02bb 18       		.uleb128 0x18
 3257 02bc 9742     		.uleb128 0x2117
 3258 02be 19       		.uleb128 0x19
 3259 02bf 01       		.uleb128 0x1
 3260 02c0 13       		.uleb128 0x13
 3261 02c1 00       		.byte	0
 3262 02c2 00       		.byte	0
 3263 02c3 36       		.uleb128 0x36
 3264 02c4 34       		.uleb128 0x34
 3265 02c5 00       		.byte	0
 3266 02c6 03       		.uleb128 0x3
 3267 02c7 08       		.uleb128 0x8
 3268 02c8 3A       		.uleb128 0x3a
 3269 02c9 0B       		.uleb128 0xb
 3270 02ca 3B       		.uleb128 0x3b
 3271 02cb 0B       		.uleb128 0xb
 3272 02cc 49       		.uleb128 0x49
 3273 02cd 13       		.uleb128 0x13
 3274 02ce 00       		.byte	0
 3275 02cf 00       		.byte	0
 3276 02d0 37       		.uleb128 0x37
 3277 02d1 34       		.uleb128 0x34
 3278 02d2 00       		.byte	0
 3279 02d3 03       		.uleb128 0x3
 3280 02d4 0E       		.uleb128 0xe
 3281 02d5 3A       		.uleb128 0x3a
 3282 02d6 0B       		.uleb128 0xb
 3283 02d7 3B       		.uleb128 0x3b
 3284 02d8 05       		.uleb128 0x5
 3285 02d9 49       		.uleb128 0x49
 3286 02da 13       		.uleb128 0x13
 3287 02db 3F       		.uleb128 0x3f
 3288 02dc 19       		.uleb128 0x19
 3289 02dd 3C       		.uleb128 0x3c
 3290 02de 19       		.uleb128 0x19
 3291 02df 00       		.byte	0
 3292 02e0 00       		.byte	0
 3293 02e1 38       		.uleb128 0x38
 3294 02e2 34       		.uleb128 0x34
 3295 02e3 00       		.byte	0
 3296 02e4 03       		.uleb128 0x3
 3297 02e5 08       		.uleb128 0x8
 3298 02e6 3A       		.uleb128 0x3a
 3299 02e7 0B       		.uleb128 0xb
 3300 02e8 3B       		.uleb128 0x3b
 3301 02e9 05       		.uleb128 0x5
 3302 02ea 49       		.uleb128 0x49
 3303 02eb 13       		.uleb128 0x13
 3304 02ec 3F       		.uleb128 0x3f
 3305 02ed 19       		.uleb128 0x19
 3306 02ee 3C       		.uleb128 0x3c
ARM GAS  C:\Users\IDONNO~1\AppData\Local\Temp\cc9Dh1hq.s 			page 59


 3307 02ef 19       		.uleb128 0x19
 3308 02f0 00       		.byte	0
 3309 02f1 00       		.byte	0
 3310 02f2 39       		.uleb128 0x39
 3311 02f3 2E       		.uleb128 0x2e
 3312 02f4 00       		.byte	0
 3313 02f5 3F       		.uleb128 0x3f
 3314 02f6 19       		.uleb128 0x19
 3315 02f7 3C       		.uleb128 0x3c
 3316 02f8 19       		.uleb128 0x19
 3317 02f9 6E       		.uleb128 0x6e
 3318 02fa 0E       		.uleb128 0xe
 3319 02fb 03       		.uleb128 0x3
 3320 02fc 0E       		.uleb128 0xe
 3321 02fd 3A       		.uleb128 0x3a
 3322 02fe 0B       		.uleb128 0xb
 3323 02ff 3B       		.uleb128 0x3b
 3324 0300 0B       		.uleb128 0xb
 3325 0301 00       		.byte	0
 3326 0302 00       		.byte	0
 3327 0303 3A       		.uleb128 0x3a
 3328 0304 2E       		.uleb128 0x2e
 3329 0305 00       		.byte	0
 3330 0306 3F       		.uleb128 0x3f
 3331 0307 19       		.uleb128 0x19
 3332 0308 3C       		.uleb128 0x3c
 3333 0309 19       		.uleb128 0x19
 3334 030a 6E       		.uleb128 0x6e
 3335 030b 0E       		.uleb128 0xe
 3336 030c 03       		.uleb128 0x3
 3337 030d 0E       		.uleb128 0xe
 3338 030e 3A       		.uleb128 0x3a
 3339 030f 0B       		.uleb128 0xb
 3340 0310 3B       		.uleb128 0x3b
 3341 0311 05       		.uleb128 0x5
 3342 0312 00       		.byte	0
 3343 0313 00       		.byte	0
 3344 0314 00       		.byte	0
 3345              		.section	.debug_loc,"",%progbits
 3346              	.Ldebug_loc0:
 3347              	.LLST0:
 3348 0000 00000000 		.4byte	.LVL0
 3349 0004 11000000 		.4byte	.LVL1-1
 3350 0008 0100     		.2byte	0x1
 3351 000a 50       		.byte	0x50
 3352 000b 11000000 		.4byte	.LVL1-1
 3353 000f 1C000000 		.4byte	.LFE257
 3354 0013 0400     		.2byte	0x4
 3355 0015 F3       		.byte	0xf3
 3356 0016 01       		.uleb128 0x1
 3357 0017 50       		.byte	0x50
 3358 0018 9F       		.byte	0x9f
 3359 0019 00000000 		.4byte	0
 3360 001d 00000000 		.4byte	0
 3361              	.LLST1:
 3362 0021 00000000 		.4byte	.LVL5
 3363 0025 0A000000 		.4byte	.LVL6
ARM GAS  C:\Users\IDONNO~1\AppData\Local\Temp\cc9Dh1hq.s 			page 60


 3364 0029 0100     		.2byte	0x1
 3365 002b 50       		.byte	0x50
 3366 002c 0A000000 		.4byte	.LVL6
 3367 0030 16000000 		.4byte	.LVL8
 3368 0034 0100     		.2byte	0x1
 3369 0036 54       		.byte	0x54
 3370 0037 16000000 		.4byte	.LVL8
 3371 003b 1C000000 		.4byte	.LVL9
 3372 003f 0300     		.2byte	0x3
 3373 0041 74       		.byte	0x74
 3374 0042 7F       		.sleb128 -1
 3375 0043 9F       		.byte	0x9f
 3376 0044 1C000000 		.4byte	.LVL9
 3377 0048 24000000 		.4byte	.LFE259
 3378 004c 0100     		.2byte	0x1
 3379 004e 50       		.byte	0x50
 3380 004f 00000000 		.4byte	0
 3381 0053 00000000 		.4byte	0
 3382              	.LLST2:
 3383 0057 00000000 		.4byte	.LVL10
 3384 005b 0A000000 		.4byte	.LVL11
 3385 005f 0100     		.2byte	0x1
 3386 0061 50       		.byte	0x50
 3387 0062 0A000000 		.4byte	.LVL11
 3388 0066 16000000 		.4byte	.LVL13
 3389 006a 0100     		.2byte	0x1
 3390 006c 54       		.byte	0x54
 3391 006d 16000000 		.4byte	.LVL13
 3392 0071 1A000000 		.4byte	.LVL14
 3393 0075 0300     		.2byte	0x3
 3394 0077 74       		.byte	0x74
 3395 0078 7F       		.sleb128 -1
 3396 0079 9F       		.byte	0x9f
 3397 007a 2A000000 		.4byte	.LVL15
 3398 007e 38000000 		.4byte	.LFE260
 3399 0082 0100     		.2byte	0x1
 3400 0084 50       		.byte	0x50
 3401 0085 00000000 		.4byte	0
 3402 0089 00000000 		.4byte	0
 3403              	.LLST3:
 3404 008d 00000000 		.4byte	.LVL16
 3405 0091 1A000000 		.4byte	.LVL18
 3406 0095 0100     		.2byte	0x1
 3407 0097 50       		.byte	0x50
 3408 0098 24000000 		.4byte	.LVL19
 3409 009c 34000000 		.4byte	.LVL21
 3410 00a0 0100     		.2byte	0x1
 3411 00a2 53       		.byte	0x53
 3412 00a3 48000000 		.4byte	.LVL25
 3413 00a7 4A000000 		.4byte	.LVL26
 3414 00ab 0100     		.2byte	0x1
 3415 00ad 50       		.byte	0x50
 3416 00ae 4A000000 		.4byte	.LVL26
 3417 00b2 5C000000 		.4byte	.LFE261
 3418 00b6 0400     		.2byte	0x4
 3419 00b8 F3       		.byte	0xf3
 3420 00b9 01       		.uleb128 0x1
ARM GAS  C:\Users\IDONNO~1\AppData\Local\Temp\cc9Dh1hq.s 			page 61


 3421 00ba 50       		.byte	0x50
 3422 00bb 9F       		.byte	0x9f
 3423 00bc 00000000 		.4byte	0
 3424 00c0 00000000 		.4byte	0
 3425              	.LLST4:
 3426 00c4 0C000000 		.4byte	.LVL17
 3427 00c8 32000000 		.4byte	.LVL20
 3428 00cc 0100     		.2byte	0x1
 3429 00ce 54       		.byte	0x54
 3430 00cf 32000000 		.4byte	.LVL20
 3431 00d3 34000000 		.4byte	.LVL21
 3432 00d7 0300     		.2byte	0x3
 3433 00d9 74       		.byte	0x74
 3434 00da 01       		.sleb128 1
 3435 00db 9F       		.byte	0x9f
 3436 00dc 34000000 		.4byte	.LVL21
 3437 00e0 44000000 		.4byte	.LVL24
 3438 00e4 0100     		.2byte	0x1
 3439 00e6 54       		.byte	0x54
 3440 00e7 00000000 		.4byte	0
 3441 00eb 00000000 		.4byte	0
 3442              	.LLST5:
 3443 00ef 00000000 		.4byte	.LVL28
 3444 00f3 0E000000 		.4byte	.LVL30
 3445 00f7 0100     		.2byte	0x1
 3446 00f9 50       		.byte	0x50
 3447 00fa 0E000000 		.4byte	.LVL30
 3448 00fe 22000000 		.4byte	.LVL33
 3449 0102 0300     		.2byte	0x3
 3450 0104 75       		.byte	0x75
 3451 0105 50       		.sleb128 -48
 3452 0106 9F       		.byte	0x9f
 3453 0107 22000000 		.4byte	.LVL33
 3454 010b 24000000 		.4byte	.LFE262
 3455 010f 0400     		.2byte	0x4
 3456 0111 F3       		.byte	0xf3
 3457 0112 01       		.uleb128 0x1
 3458 0113 50       		.byte	0x50
 3459 0114 9F       		.byte	0x9f
 3460 0115 00000000 		.4byte	0
 3461 0119 00000000 		.4byte	0
 3462              	.LLST6:
 3463 011d 00000000 		.4byte	.LVL28
 3464 0121 06000000 		.4byte	.LVL29
 3465 0125 0100     		.2byte	0x1
 3466 0127 51       		.byte	0x51
 3467 0128 06000000 		.4byte	.LVL29
 3468 012c 24000000 		.4byte	.LFE262
 3469 0130 0100     		.2byte	0x1
 3470 0132 56       		.byte	0x56
 3471 0133 00000000 		.4byte	0
 3472 0137 00000000 		.4byte	0
 3473              	.LLST7:
 3474 013b 00000000 		.4byte	.LVL28
 3475 013f 0E000000 		.4byte	.LVL30
 3476 0143 0200     		.2byte	0x2
 3477 0145 30       		.byte	0x30
ARM GAS  C:\Users\IDONNO~1\AppData\Local\Temp\cc9Dh1hq.s 			page 62


 3478 0146 9F       		.byte	0x9f
 3479 0147 0E000000 		.4byte	.LVL30
 3480 014b 10000000 		.4byte	.LVL31
 3481 014f 0100     		.2byte	0x1
 3482 0151 54       		.byte	0x54
 3483 0152 1C000000 		.4byte	.LVL32
 3484 0156 22000000 		.4byte	.LVL33
 3485 015a 0100     		.2byte	0x1
 3486 015c 54       		.byte	0x54
 3487 015d 00000000 		.4byte	0
 3488 0161 00000000 		.4byte	0
 3489              	.LLST8:
 3490 0165 0E000000 		.4byte	.LVL30
 3491 0169 1B000000 		.4byte	.LVL32-1
 3492 016d 0100     		.2byte	0x1
 3493 016f 51       		.byte	0x51
 3494 0170 00000000 		.4byte	0
 3495 0174 00000000 		.4byte	0
 3496              	.LLST9:
 3497 0178 0E000000 		.4byte	.LVL30
 3498 017c 1C000000 		.4byte	.LVL32
 3499 0180 0100     		.2byte	0x1
 3500 0182 55       		.byte	0x55
 3501 0183 00000000 		.4byte	0
 3502 0187 00000000 		.4byte	0
 3503              	.LLST10:
 3504 018b 00000000 		.4byte	.LVL34
 3505 018f 09000000 		.4byte	.LVL35-1
 3506 0193 0100     		.2byte	0x1
 3507 0195 50       		.byte	0x50
 3508 0196 09000000 		.4byte	.LVL35-1
 3509 019a 12000000 		.4byte	.LFE263
 3510 019e 0400     		.2byte	0x4
 3511 01a0 F3       		.byte	0xf3
 3512 01a1 01       		.uleb128 0x1
 3513 01a2 50       		.byte	0x50
 3514 01a3 9F       		.byte	0x9f
 3515 01a4 00000000 		.4byte	0
 3516 01a8 00000000 		.4byte	0
 3517              		.section	.debug_aranges,"",%progbits
 3518 0000 54000000 		.4byte	0x54
 3519 0004 0200     		.2byte	0x2
 3520 0006 00000000 		.4byte	.Ldebug_info0
 3521 000a 04       		.byte	0x4
 3522 000b 00       		.byte	0
 3523 000c 0000     		.2byte	0
 3524 000e 0000     		.2byte	0
 3525 0010 00000000 		.4byte	.LFB257
 3526 0014 1C000000 		.4byte	.LFE257-.LFB257
 3527 0018 00000000 		.4byte	.LFB258
 3528 001c 38000000 		.4byte	.LFE258-.LFB258
 3529 0020 00000000 		.4byte	.LFB259
 3530 0024 24000000 		.4byte	.LFE259-.LFB259
 3531 0028 00000000 		.4byte	.LFB260
 3532 002c 38000000 		.4byte	.LFE260-.LFB260
 3533 0030 00000000 		.4byte	.LFB261
 3534 0034 5C000000 		.4byte	.LFE261-.LFB261
ARM GAS  C:\Users\IDONNO~1\AppData\Local\Temp\cc9Dh1hq.s 			page 63


 3535 0038 00000000 		.4byte	.LFB262
 3536 003c 24000000 		.4byte	.LFE262-.LFB262
 3537 0040 00000000 		.4byte	.LFB263
 3538 0044 12000000 		.4byte	.LFE263-.LFB263
 3539 0048 00000000 		.4byte	.LFB264
 3540 004c 20000000 		.4byte	.LFE264-.LFB264
 3541 0050 00000000 		.4byte	0
 3542 0054 00000000 		.4byte	0
 3543              		.section	.debug_ranges,"",%progbits
 3544              	.Ldebug_ranges0:
 3545 0000 00000000 		.4byte	.LFB257
 3546 0004 1C000000 		.4byte	.LFE257
 3547 0008 00000000 		.4byte	.LFB258
 3548 000c 38000000 		.4byte	.LFE258
 3549 0010 00000000 		.4byte	.LFB259
 3550 0014 24000000 		.4byte	.LFE259
 3551 0018 00000000 		.4byte	.LFB260
 3552 001c 38000000 		.4byte	.LFE260
 3553 0020 00000000 		.4byte	.LFB261
 3554 0024 5C000000 		.4byte	.LFE261
 3555 0028 00000000 		.4byte	.LFB262
 3556 002c 24000000 		.4byte	.LFE262
 3557 0030 00000000 		.4byte	.LFB263
 3558 0034 12000000 		.4byte	.LFE263
 3559 0038 00000000 		.4byte	.LFB264
 3560 003c 20000000 		.4byte	.LFE264
 3561 0040 00000000 		.4byte	0
 3562 0044 00000000 		.4byte	0
 3563              		.section	.debug_line,"",%progbits
 3564              	.Ldebug_line0:
 3565 0000 B1040000 		.section	.debug_str,"MS",%progbits,1
 3565      0200C903 
 3565      00000201 
 3565      FB0E0D00 
 3565      01010101 
 3566              	.LASF54:
 3567 0000 63685F74 		.ascii	"ch_threads_list\000"
 3567      68726561 
 3567      64735F6C 
 3567      69737400 
 3568              	.LASF55:
 3569 0010 74687265 		.ascii	"threads_queue_t\000"
 3569      6164735F 
 3569      71756575 
 3569      655F7400 
 3570              	.LASF153:
 3571 0020 53657269 		.ascii	"SerialDriver\000"
 3571      616C4472 
 3571      69766572 
 3571      00
 3572              	.LASF185:
 3573 002d 73645374 		.ascii	"sdStart\000"
 3573      61727400 
 3574              	.LASF99:
 3575 0035 77746D74 		.ascii	"wtmtxp\000"
 3575      787000
 3576              	.LASF93:
ARM GAS  C:\Users\IDONNO~1\AppData\Local\Temp\cc9Dh1hq.s 			page 64


 3577 003c 746D5F63 		.ascii	"tm_calibration_t\000"
 3577      616C6962 
 3577      72617469 
 3577      6F6E5F74 
 3577      00
 3578              	.LASF43:
 3579 004d 705F7469 		.ascii	"p_time\000"
 3579      6D6500
 3580              	.LASF143:
 3581 0054 42535252 		.ascii	"BSRR\000"
 3581      00
 3582              	.LASF108:
 3583 0059 63686172 		.ascii	"char\000"
 3583      00
 3584              	.LASF184:
 3585 005e 63687670 		.ascii	"chvprintf\000"
 3585      72696E74 
 3585      6600
 3586              	.LASF88:
 3587 0068 72656761 		.ascii	"regarm_t\000"
 3587      726D5F74 
 3587      00
 3588              	.LASF34:
 3589 0071 705F7072 		.ascii	"p_prio\000"
 3589      696F00
 3590              	.LASF117:
 3591 0078 6576656E 		.ascii	"event_source\000"
 3591      745F736F 
 3591      75726365 
 3591      00
 3592              	.LASF30:
 3593 0085 73797374 		.ascii	"systime_t\000"
 3593      696D655F 
 3593      7400
 3594              	.LASF181:
 3595 008f 62756666 		.ascii	"buffer\000"
 3595      657200
 3596              	.LASF180:
 3597 0096 55617274 		.ascii	"Uart3_printf\000"
 3597      335F7072 
 3597      696E7466 
 3597      00
 3598              	.LASF102:
 3599 00a3 735F7175 		.ascii	"s_queue\000"
 3599      65756500 
 3600              	.LASF75:
 3601 00ab 76745F73 		.ascii	"vt_systime\000"
 3601      79737469 
 3601      6D6500
 3602              	.LASF120:
 3603 00b6 696F5F71 		.ascii	"io_queue_t\000"
 3603      75657565 
 3603      5F7400
 3604              	.LASF45:
 3605 00c1 705F6D73 		.ascii	"p_msgqueue\000"
 3605      67717565 
 3605      756500
ARM GAS  C:\Users\IDONNO~1\AppData\Local\Temp\cc9Dh1hq.s 			page 65


 3606              	.LASF177:
 3607 00cc 55617274 		.ascii	"Uart3_printn\000"
 3607      335F7072 
 3607      696E746E 
 3607      00
 3608              	.LASF0:
 3609 00d9 756E7369 		.ascii	"unsigned int\000"
 3609      676E6564 
 3609      20696E74 
 3609      00
 3610              	.LASF52:
 3611 00e6 74687265 		.ascii	"threads_list_t\000"
 3611      6164735F 
 3611      6C697374 
 3611      5F7400
 3612              	.LASF44:
 3613 00f5 705F7761 		.ascii	"p_waiting\000"
 3613      6974696E 
 3613      6700
 3614              	.LASF127:
 3615 00ff 715F7264 		.ascii	"q_rdptr\000"
 3615      70747200 
 3616              	.LASF8:
 3617 0107 5F5F696E 		.ascii	"__int32_t\000"
 3617      7433325F 
 3617      7400
 3618              	.LASF133:
 3619 0111 42617365 		.ascii	"BaseSequentialStreamVMT\000"
 3619      53657175 
 3619      656E7469 
 3619      616C5374 
 3619      7265616D 
 3620              	.LASF130:
 3621 0129 716E6F74 		.ascii	"qnotify_t\000"
 3621      6966795F 
 3621      7400
 3622              	.LASF96:
 3623 0133 77746F62 		.ascii	"wtobjp\000"
 3623      6A7000
 3624              	.LASF82:
 3625 013a 76746C69 		.ascii	"vtlist\000"
 3625      737400
 3626              	.LASF129:
 3627 0141 715F6C69 		.ascii	"q_link\000"
 3627      6E6B00
 3628              	.LASF58:
 3629 0148 63685F72 		.ascii	"ch_ready_list\000"
 3629      65616479 
 3629      5F6C6973 
 3629      7400
 3630              	.LASF84:
 3631 0156 69646C65 		.ascii	"idle_thread_wa\000"
 3631      5F746872 
 3631      6561645F 
 3631      776100
 3632              	.LASF178:
 3633 0165 55617274 		.ascii	"Uart3_SendString\000"
ARM GAS  C:\Users\IDONNO~1\AppData\Local\Temp\cc9Dh1hq.s 			page 66


 3633      335F5365 
 3633      6E645374 
 3633      72696E67 
 3633      00
 3634              	.LASF100:
 3635 0176 65776D61 		.ascii	"ewmask\000"
 3635      736B00
 3636              	.LASF65:
 3637 017d 76746675 		.ascii	"vtfunc_t\000"
 3637      6E635F74 
 3637      00
 3638              	.LASF159:
 3639 0186 73706565 		.ascii	"speed\000"
 3639      6400
 3640              	.LASF164:
 3641 018c 77726974 		.ascii	"writet\000"
 3641      657400
 3642              	.LASF103:
 3643 0193 735F636E 		.ascii	"s_cnt\000"
 3643      7400
 3644              	.LASF77:
 3645 0199 63685F73 		.ascii	"ch_system_debug\000"
 3645      79737465 
 3645      6D5F6465 
 3645      62756700 
 3646              	.LASF86:
 3647 01a9 47545052 		.ascii	"GTPR\000"
 3647      00
 3648              	.LASF156:
 3649 01ae 69717565 		.ascii	"iqueue\000"
 3649      756500
 3650              	.LASF18:
 3651 01b5 75696E74 		.ascii	"uint32_t\000"
 3651      33325F74 
 3651      00
 3652              	.LASF122:
 3653 01be 715F7761 		.ascii	"q_waiting\000"
 3653      6974696E 
 3653      6700
 3654              	.LASF27:
 3655 01c8 6576656E 		.ascii	"eventmask_t\000"
 3655      746D6173 
 3655      6B5F7400 
 3656              	.LASF60:
 3657 01d4 725F7072 		.ascii	"r_prio\000"
 3657      696F00
 3658              	.LASF160:
 3659 01db 53657269 		.ascii	"SerialConfig\000"
 3659      616C436F 
 3659      6E666967 
 3659      00
 3660              	.LASF72:
 3661 01e8 76745F70 		.ascii	"vt_par\000"
 3661      617200
 3662              	.LASF167:
 3663 01ef 666C6F61 		.ascii	"float\000"
 3663      7400
ARM GAS  C:\Users\IDONNO~1\AppData\Local\Temp\cc9Dh1hq.s 			page 67


 3664              	.LASF152:
 3665 01f5 73647374 		.ascii	"sdstate_t\000"
 3665      6174655F 
 3665      7400
 3666              	.LASF154:
 3667 01ff 6576656E 		.ascii	"event\000"
 3667      7400
 3668              	.LASF101:
 3669 0205 63685F73 		.ascii	"ch_semaphore\000"
 3669      656D6170 
 3669      686F7265 
 3669      00
 3670              	.LASF25:
 3671 0212 74707269 		.ascii	"tprio_t\000"
 3671      6F5F7400 
 3672              	.LASF67:
 3673 021a 63685F76 		.ascii	"ch_virtual_timer\000"
 3673      69727475 
 3673      616C5F74 
 3673      696D6572 
 3673      00
 3674              	.LASF14:
 3675 022b 6C6F6E67 		.ascii	"long long unsigned int\000"
 3675      206C6F6E 
 3675      6720756E 
 3675      7369676E 
 3675      65642069 
 3676              	.LASF174:
 3677 0242 55617274 		.ascii	"Uart3_print_init\000"
 3677      335F7072 
 3677      696E745F 
 3677      696E6974 
 3677      00
 3678              	.LASF190:
 3679 0253 443A5C67 		.ascii	"D:\\git\\oroca_bldc_dev\\oroca_bldc_FW\000"
 3679      69745C6F 
 3679      726F6361 
 3679      5F626C64 
 3679      635F6465 
 3680              	.LASF119:
 3681 0277 6576656E 		.ascii	"event_source_t\000"
 3681      745F736F 
 3681      75726365 
 3681      5F7400
 3682              	.LASF6:
 3683 0286 5F5F7569 		.ascii	"__uint16_t\000"
 3683      6E743136 
 3683      5F7400
 3684              	.LASF29:
 3685 0291 636E745F 		.ascii	"cnt_t\000"
 3685      7400
 3686              	.LASF139:
 3687 0297 4D4F4445 		.ascii	"MODER\000"
 3687      5200
 3688              	.LASF146:
 3689 029d 41465248 		.ascii	"AFRH\000"
 3689      00
ARM GAS  C:\Users\IDONNO~1\AppData\Local\Temp\cc9Dh1hq.s 			page 68


 3690              	.LASF147:
 3691 02a2 73746D33 		.ascii	"stm32_gpio_t\000"
 3691      325F6770 
 3691      696F5F74 
 3691      00
 3692              	.LASF145:
 3693 02af 4146524C 		.ascii	"AFRL\000"
 3693      00
 3694              	.LASF36:
 3695 02b4 705F6E65 		.ascii	"p_newer\000"
 3695      77657200 
 3696              	.LASF138:
 3697 02bc 636C6561 		.ascii	"clear\000"
 3697      7200
 3698              	.LASF74:
 3699 02c2 63685F76 		.ascii	"ch_virtual_timers_list\000"
 3699      69727475 
 3699      616C5F74 
 3699      696D6572 
 3699      735F6C69 
 3700              	.LASF31:
 3701 02d9 74687265 		.ascii	"thread_t\000"
 3701      61645F74 
 3701      00
 3702              	.LASF116:
 3703 02e2 656C5F77 		.ascii	"el_wflags\000"
 3703      666C6167 
 3703      7300
 3704              	.LASF169:
 3705 02ec 5F5F676E 		.ascii	"__gnuc_va_list\000"
 3705      75635F76 
 3705      615F6C69 
 3705      737400
 3706              	.LASF162:
 3707 02fb 70757474 		.ascii	"putt\000"
 3707      00
 3708              	.LASF2:
 3709 0300 73697A65 		.ascii	"size_t\000"
 3709      5F7400
 3710              	.LASF94:
 3711 0307 7264796D 		.ascii	"rdymsg\000"
 3711      736700
 3712              	.LASF92:
 3713 030e 6F666673 		.ascii	"offset\000"
 3713      657400
 3714              	.LASF137:
 3715 0315 5F426F6F 		.ascii	"_Bool\000"
 3715      6C00
 3716              	.LASF150:
 3717 031b 53445F53 		.ascii	"SD_STOP\000"
 3717      544F5000 
 3718              	.LASF188:
 3719 0323 474E5520 		.ascii	"GNU C99 5.4.1 20160919 (release) [ARM/embedded-5-br"
 3719      43393920 
 3719      352E342E 
 3719      31203230 
 3719      31363039 
ARM GAS  C:\Users\IDONNO~1\AppData\Local\Temp\cc9Dh1hq.s 			page 69


 3720 0356 616E6368 		.ascii	"anch revision 240496] -mcpu=cortex-m4 -mfloat-abi=h"
 3720      20726576 
 3720      6973696F 
 3720      6E203234 
 3720      30343936 
 3721 0389 61726420 		.ascii	"ard -mfpu=fpv4-sp-d16 -mno-thumb-interwork -mthumb "
 3721      2D6D6670 
 3721      753D6670 
 3721      76342D73 
 3721      702D6431 
 3722 03bc 2D676764 		.ascii	"-ggdb -O2 -std=gnu99 -fomit-frame-pointer -falign-f"
 3722      62202D4F 
 3722      32202D73 
 3722      74643D67 
 3722      6E753939 
 3723 03ef 756E6374 		.ascii	"unctions=16 -ffunction-sections -fdata-sections -fn"
 3723      696F6E73 
 3723      3D313620 
 3723      2D666675 
 3723      6E637469 
 3724 0422 6F2D636F 		.ascii	"o-common -fsingle-precision-constant\000"
 3724      6D6D6F6E 
 3724      202D6673 
 3724      696E676C 
 3724      652D7072 
 3725              	.LASF191:
 3726 0447 63684F51 		.ascii	"chOQPut\000"
 3726      50757400 
 3727              	.LASF104:
 3728 044f 63685F6D 		.ascii	"ch_mutex\000"
 3728      75746578 
 3728      00
 3729              	.LASF13:
 3730 0458 5F5F7569 		.ascii	"__uint64_t\000"
 3730      6E743634 
 3730      5F7400
 3731              	.LASF87:
 3732 0463 55534152 		.ascii	"USART_TypeDef\000"
 3732      545F5479 
 3732      70654465 
 3732      6600
 3733              	.LASF128:
 3734 0471 715F6E6F 		.ascii	"q_notify\000"
 3734      74696679 
 3734      00
 3735              	.LASF192:
 3736 047a 63687072 		.ascii	"chprintf\000"
 3736      696E7466 
 3736      00
 3737              	.LASF142:
 3738 0483 50555044 		.ascii	"PUPDR\000"
 3738      5200
 3739              	.LASF38:
 3740 0489 705F6E61 		.ascii	"p_name\000"
 3740      6D6500
 3741              	.LASF136:
 3742 0490 42617365 		.ascii	"BaseSequentialStream\000"
ARM GAS  C:\Users\IDONNO~1\AppData\Local\Temp\cc9Dh1hq.s 			page 70


 3742      53657175 
 3742      656E7469 
 3742      616C5374 
 3742      7265616D 
 3743              	.LASF70:
 3744 04a5 76745F64 		.ascii	"vt_delta\000"
 3744      656C7461 
 3744      00
 3745              	.LASF62:
 3746 04ae 725F6E65 		.ascii	"r_newer\000"
 3746      77657200 
 3747              	.LASF126:
 3748 04b6 715F7772 		.ascii	"q_wrptr\000"
 3748      70747200 
 3749              	.LASF179:
 3750 04be 73747269 		.ascii	"string\000"
 3750      6E6700
 3751              	.LASF22:
 3752 04c5 74737461 		.ascii	"tstate_t\000"
 3752      74655F74 
 3752      00
 3753              	.LASF12:
 3754 04ce 6C6F6E67 		.ascii	"long long int\000"
 3754      206C6F6E 
 3754      6720696E 
 3754      7400
 3755              	.LASF37:
 3756 04dc 705F6F6C 		.ascii	"p_older\000"
 3756      64657200 
 3757              	.LASF39:
 3758 04e4 705F7374 		.ascii	"p_state\000"
 3758      61746500 
 3759              	.LASF193:
 3760 04ec 55617274 		.ascii	"Uart3_getch\000"
 3760      335F6765 
 3760      74636800 
 3761              	.LASF15:
 3762 04f8 75696E74 		.ascii	"uint8_t\000"
 3762      385F7400 
 3763              	.LASF131:
 3764 0500 696E7075 		.ascii	"input_queue_t\000"
 3764      745F7175 
 3764      6575655F 
 3764      7400
 3765              	.LASF50:
 3766 050e 705F6D70 		.ascii	"p_mpool\000"
 3766      6F6F6C00 
 3767              	.LASF48:
 3768 0516 705F6D74 		.ascii	"p_mtxlist\000"
 3768      786C6973 
 3768      7400
 3769              	.LASF53:
 3770 0520 63685F74 		.ascii	"ch_thread\000"
 3770      68726561 
 3770      6400
 3771              	.LASF124:
 3772 052a 715F6275 		.ascii	"q_buffer\000"
ARM GAS  C:\Users\IDONNO~1\AppData\Local\Temp\cc9Dh1hq.s 			page 71


 3772      66666572 
 3772      00
 3773              	.LASF158:
 3774 0533 75736172 		.ascii	"usart\000"
 3774      7400
 3775              	.LASF172:
 3776 0539 76615F6C 		.ascii	"va_list\000"
 3776      69737400 
 3777              	.LASF76:
 3778 0541 73797374 		.ascii	"system_debug_t\000"
 3778      656D5F64 
 3778      65627567 
 3778      5F7400
 3779              	.LASF56:
 3780 0550 63685F74 		.ascii	"ch_threads_queue\000"
 3780      68726561 
 3780      64735F71 
 3780      75657565 
 3780      00
 3781              	.LASF134:
 3782 0561 77726974 		.ascii	"write\000"
 3782      6500
 3783              	.LASF111:
 3784 0567 6576656E 		.ascii	"event_listener\000"
 3784      745F6C69 
 3784      7374656E 
 3784      657200
 3785              	.LASF59:
 3786 0576 725F7175 		.ascii	"r_queue\000"
 3786      65756500 
 3787              	.LASF26:
 3788 057e 6D73675F 		.ascii	"msg_t\000"
 3788      7400
 3789              	.LASF90:
 3790 0584 636F6E74 		.ascii	"context\000"
 3790      65787400 
 3791              	.LASF148:
 3792 058c 696F706F 		.ascii	"ioportmask_t\000"
 3792      72746D61 
 3792      736B5F74 
 3792      00
 3793              	.LASF40:
 3794 0599 705F666C 		.ascii	"p_flags\000"
 3794      61677300 
 3795              	.LASF171:
 3796 05a1 5F5F6170 		.ascii	"__ap\000"
 3796      00
 3797              	.LASF66:
 3798 05a6 76697274 		.ascii	"virtual_timer_t\000"
 3798      75616C5F 
 3798      74696D65 
 3798      725F7400 
 3799              	.LASF132:
 3800 05b6 6F757470 		.ascii	"output_queue_t\000"
 3800      75745F71 
 3800      75657565 
 3800      5F7400
ARM GAS  C:\Users\IDONNO~1\AppData\Local\Temp\cc9Dh1hq.s 			page 72


 3801              	.LASF144:
 3802 05c5 4C434B52 		.ascii	"LCKR\000"
 3802      00
 3803              	.LASF24:
 3804 05ca 74736C69 		.ascii	"tslices_t\000"
 3804      6365735F 
 3804      7400
 3805              	.LASF63:
 3806 05d4 725F6F6C 		.ascii	"r_older\000"
 3806      64657200 
 3807              	.LASF11:
 3808 05dc 6C6F6E67 		.ascii	"long unsigned int\000"
 3808      20756E73 
 3808      69676E65 
 3808      6420696E 
 3808      7400
 3809              	.LASF28:
 3810 05ee 6576656E 		.ascii	"eventflags_t\000"
 3810      74666C61 
 3810      67735F74 
 3810      00
 3811              	.LASF112:
 3812 05fb 656C5F6E 		.ascii	"el_next\000"
 3812      65787400 
 3813              	.LASF46:
 3814 0603 705F6D73 		.ascii	"p_msg\000"
 3814      6700
 3815              	.LASF21:
 3816 0609 746D6F64 		.ascii	"tmode_t\000"
 3816      655F7400 
 3817              	.LASF175:
 3818 0611 55617274 		.ascii	"Uart3_print\000"
 3818      335F7072 
 3818      696E7400 
 3819              	.LASF83:
 3820 061d 6D61696E 		.ascii	"mainthread\000"
 3820      74687265 
 3820      616400
 3821              	.LASF141:
 3822 0628 4F535045 		.ascii	"OSPEEDR\000"
 3822      45445200 
 3823              	.LASF7:
 3824 0630 73686F72 		.ascii	"short unsigned int\000"
 3824      7420756E 
 3824      7369676E 
 3824      65642069 
 3824      6E7400
 3825              	.LASF168:
 3826 0643 6C6F6E67 		.ascii	"long double\000"
 3826      20646F75 
 3826      626C6500 
 3827              	.LASF157:
 3828 064f 6F717565 		.ascii	"oqueue\000"
 3828      756500
 3829              	.LASF16:
 3830 0656 75696E74 		.ascii	"uint16_t\000"
 3830      31365F74 
ARM GAS  C:\Users\IDONNO~1\AppData\Local\Temp\cc9Dh1hq.s 			page 73


 3830      00
 3831              	.LASF51:
 3832 065f 74687265 		.ascii	"thread_reference_t\000"
 3832      61645F72 
 3832      65666572 
 3832      656E6365 
 3832      5F7400
 3833              	.LASF20:
 3834 0672 7274636E 		.ascii	"rtcnt_t\000"
 3834      745F7400 
 3835              	.LASF151:
 3836 067a 53445F52 		.ascii	"SD_READY\000"
 3836      45414459 
 3836      00
 3837              	.LASF49:
 3838 0683 705F7265 		.ascii	"p_realprio\000"
 3838      616C7072 
 3838      696F00
 3839              	.LASF5:
 3840 068e 73686F72 		.ascii	"short int\000"
 3840      7420696E 
 3840      7400
 3841              	.LASF64:
 3842 0698 725F6375 		.ascii	"r_current\000"
 3842      7272656E 
 3842      7400
 3843              	.LASF47:
 3844 06a2 705F6570 		.ascii	"p_epending\000"
 3844      656E6469 
 3844      6E6700
 3845              	.LASF105:
 3846 06ad 6D5F7175 		.ascii	"m_queue\000"
 3846      65756500 
 3847              	.LASF9:
 3848 06b5 6C6F6E67 		.ascii	"long int\000"
 3848      20696E74 
 3848      00
 3849              	.LASF91:
 3850 06be 706F7274 		.ascii	"port_intctx\000"
 3850      5F696E74 
 3850      63747800 
 3851              	.LASF183:
 3852 06ca 49544D5F 		.ascii	"ITM_RxBuffer\000"
 3852      52784275 
 3852      66666572 
 3852      00
 3853              	.LASF80:
 3854 06d7 63685F73 		.ascii	"ch_system\000"
 3854      79737465 
 3854      6D00
 3855              	.LASF140:
 3856 06e1 4F545950 		.ascii	"OTYPER\000"
 3856      455200
 3857              	.LASF32:
 3858 06e8 705F6E65 		.ascii	"p_next\000"
 3858      787400
 3859              	.LASF19:
ARM GAS  C:\Users\IDONNO~1\AppData\Local\Temp\cc9Dh1hq.s 			page 74


 3860 06ef 75696E74 		.ascii	"uint64_t\000"
 3860      36345F74 
 3860      00
 3861              	.LASF35:
 3862 06f8 705F6374 		.ascii	"p_ctx\000"
 3862      7800
 3863              	.LASF81:
 3864 06fe 726C6973 		.ascii	"rlist\000"
 3864      7400
 3865              	.LASF3:
 3866 0704 5F5F7569 		.ascii	"__uint8_t\000"
 3866      6E74385F 
 3866      7400
 3867              	.LASF135:
 3868 070e 72656164 		.ascii	"read\000"
 3868      00
 3869              	.LASF113:
 3870 0713 656C5F6C 		.ascii	"el_listener\000"
 3870      69737465 
 3870      6E657200 
 3871              	.LASF182:
 3872 071f 73643363 		.ascii	"sd3cfg\000"
 3872      666700
 3873              	.LASF149:
 3874 0726 53445F55 		.ascii	"SD_UNINIT\000"
 3874      4E494E49 
 3874      5400
 3875              	.LASF123:
 3876 0730 715F636F 		.ascii	"q_counter\000"
 3876      756E7465 
 3876      7200
 3877              	.LASF163:
 3878 073a 67657474 		.ascii	"gett\000"
 3878      00
 3879              	.LASF125:
 3880 073f 715F746F 		.ascii	"q_top\000"
 3880      7000
 3881              	.LASF33:
 3882 0745 705F7072 		.ascii	"p_prev\000"
 3882      657600
 3883              	.LASF85:
 3884 074c 73697A65 		.ascii	"sizetype\000"
 3884      74797065 
 3884      00
 3885              	.LASF23:
 3886 0755 74726566 		.ascii	"trefs_t\000"
 3886      735F7400 
 3887              	.LASF110:
 3888 075d 6576656E 		.ascii	"event_listener_t\000"
 3888      745F6C69 
 3888      7374656E 
 3888      65725F74 
 3888      00
 3889              	.LASF57:
 3890 076e 72656164 		.ascii	"ready_list_t\000"
 3890      795F6C69 
 3890      73745F74 
ARM GAS  C:\Users\IDONNO~1\AppData\Local\Temp\cc9Dh1hq.s 			page 75


 3890      00
 3891              	.LASF17:
 3892 077b 696E7433 		.ascii	"int32_t\000"
 3892      325F7400 
 3893              	.LASF98:
 3894 0783 77747365 		.ascii	"wtsemp\000"
 3894      6D7000
 3895              	.LASF109:
 3896 078a 6D757465 		.ascii	"mutex_t\000"
 3896      785F7400 
 3897              	.LASF4:
 3898 0792 756E7369 		.ascii	"unsigned char\000"
 3898      676E6564 
 3898      20636861 
 3898      7200
 3899              	.LASF10:
 3900 07a0 5F5F7569 		.ascii	"__uint32_t\000"
 3900      6E743332 
 3900      5F7400
 3901              	.LASF176:
 3902 07ab 55617274 		.ascii	"Uart3_println\000"
 3902      335F7072 
 3902      696E746C 
 3902      6E00
 3903              	.LASF73:
 3904 07b9 76697274 		.ascii	"virtual_timers_list_t\000"
 3904      75616C5F 
 3904      74696D65 
 3904      72735F6C 
 3904      6973745F 
 3905              	.LASF114:
 3906 07cf 656C5F65 		.ascii	"el_events\000"
 3906      76656E74 
 3906      7300
 3907              	.LASF78:
 3908 07d9 70616E69 		.ascii	"panic_msg\000"
 3908      635F6D73 
 3908      6700
 3909              	.LASF187:
 3910 07e3 63684F51 		.ascii	"chOQPutTimeout\000"
 3910      50757454 
 3910      696D656F 
 3910      757400
 3911              	.LASF42:
 3912 07f2 705F7072 		.ascii	"p_preempt\000"
 3912      65656D70 
 3912      7400
 3913              	.LASF118:
 3914 07fc 65735F6E 		.ascii	"es_next\000"
 3914      65787400 
 3915              	.LASF189:
 3916 0804 7372632F 		.ascii	"src/core/uart3_print.c\000"
 3916      636F7265 
 3916      2F756172 
 3916      74335F70 
 3916      72696E74 
 3917              	.LASF41:
ARM GAS  C:\Users\IDONNO~1\AppData\Local\Temp\cc9Dh1hq.s 			page 76


 3918 081b 705F7265 		.ascii	"p_refs\000"
 3918      667300
 3919              	.LASF155:
 3920 0822 73746174 		.ascii	"state\000"
 3920      6500
 3921              	.LASF68:
 3922 0828 76745F6E 		.ascii	"vt_next\000"
 3922      65787400 
 3923              	.LASF186:
 3924 0830 5F70616C 		.ascii	"_pal_lld_setgroupmode\000"
 3924      5F6C6C64 
 3924      5F736574 
 3924      67726F75 
 3924      706D6F64 
 3925              	.LASF79:
 3926 0846 63685F73 		.ascii	"ch_system_t\000"
 3926      79737465 
 3926      6D5F7400 
 3927              	.LASF97:
 3928 0852 77747472 		.ascii	"wttrp\000"
 3928      7000
 3929              	.LASF170:
 3930 0858 5F5F7661 		.ascii	"__va_list\000"
 3930      5F6C6973 
 3930      7400
 3931              	.LASF107:
 3932 0862 6D5F6E65 		.ascii	"m_next\000"
 3932      787400
 3933              	.LASF1:
 3934 0869 7369676E 		.ascii	"signed char\000"
 3934      65642063 
 3934      68617200 
 3935              	.LASF121:
 3936 0875 696F5F71 		.ascii	"io_queue\000"
 3936      75657565 
 3936      00
 3937              	.LASF165:
 3938 087e 72656164 		.ascii	"readt\000"
 3938      7400
 3939              	.LASF161:
 3940 0884 53657269 		.ascii	"SerialDriverVMT\000"
 3940      616C4472 
 3940      69766572 
 3940      564D5400 
 3941              	.LASF61:
 3942 0894 725F6374 		.ascii	"r_ctx\000"
 3942      7800
 3943              	.LASF89:
 3944 089a 73746B61 		.ascii	"stkalign_t\000"
 3944      6C69676E 
 3944      5F7400
 3945              	.LASF71:
 3946 08a5 76745F66 		.ascii	"vt_func\000"
 3946      756E6300 
 3947              	.LASF166:
 3948 08ad 646F7562 		.ascii	"double\000"
 3948      6C6500
ARM GAS  C:\Users\IDONNO~1\AppData\Local\Temp\cc9Dh1hq.s 			page 77


 3949              	.LASF69:
 3950 08b4 76745F70 		.ascii	"vt_prev\000"
 3950      72657600 
 3951              	.LASF173:
 3952 08bc 666F726D 		.ascii	"formatted_bytes\000"
 3952      61747465 
 3952      645F6279 
 3952      74657300 
 3953              	.LASF115:
 3954 08cc 656C5F66 		.ascii	"el_flags\000"
 3954      6C616773 
 3954      00
 3955              	.LASF95:
 3956 08d5 65786974 		.ascii	"exitcode\000"
 3956      636F6465 
 3956      00
 3957              	.LASF106:
 3958 08de 6D5F6F77 		.ascii	"m_owner\000"
 3958      6E657200 
 3959              		.ident	"GCC: (GNU Tools for ARM Embedded Processors) 5.4.1 20160919 (release) [ARM/embedded-5-bran
ARM GAS  C:\Users\IDONNO~1\AppData\Local\Temp\cc9Dh1hq.s 			page 78


DEFINED SYMBOLS
                            *ABS*:00000000 uart3_print.c
C:\Users\IDONNO~1\AppData\Local\Temp\cc9Dh1hq.s:22     .text.chprintf:00000000 $t
C:\Users\IDONNO~1\AppData\Local\Temp\cc9Dh1hq.s:27     .text.chprintf:00000000 chprintf
C:\Users\IDONNO~1\AppData\Local\Temp\cc9Dh1hq.s:70     .text.Uart3_print_init:00000000 $t
C:\Users\IDONNO~1\AppData\Local\Temp\cc9Dh1hq.s:76     .text.Uart3_print_init:00000000 Uart3_print_init
C:\Users\IDONNO~1\AppData\Local\Temp\cc9Dh1hq.s:115    .text.Uart3_print_init:0000002c $d
C:\Users\IDONNO~1\AppData\Local\Temp\cc9Dh1hq.s:122    .text.Uart3_print:00000000 $t
C:\Users\IDONNO~1\AppData\Local\Temp\cc9Dh1hq.s:128    .text.Uart3_print:00000000 Uart3_print
C:\Users\IDONNO~1\AppData\Local\Temp\cc9Dh1hq.s:171    .text.Uart3_print:00000020 $d
C:\Users\IDONNO~1\AppData\Local\Temp\cc9Dh1hq.s:176    .text.Uart3_println:00000000 $t
C:\Users\IDONNO~1\AppData\Local\Temp\cc9Dh1hq.s:182    .text.Uart3_println:00000000 Uart3_println
C:\Users\IDONNO~1\AppData\Local\Temp\cc9Dh1hq.s:238    .text.Uart3_println:00000030 $d
C:\Users\IDONNO~1\AppData\Local\Temp\cc9Dh1hq.s:244    .text.Uart3_printn:00000000 $t
C:\Users\IDONNO~1\AppData\Local\Temp\cc9Dh1hq.s:250    .text.Uart3_printn:00000000 Uart3_printn
C:\Users\IDONNO~1\AppData\Local\Temp\cc9Dh1hq.s:335    .text.Uart3_printn:00000054 $d
C:\Users\IDONNO~1\AppData\Local\Temp\cc9Dh1hq.s:341    .text.Uart3_SendString:00000000 $t
C:\Users\IDONNO~1\AppData\Local\Temp\cc9Dh1hq.s:347    .text.Uart3_SendString:00000000 Uart3_SendString
C:\Users\IDONNO~1\AppData\Local\Temp\cc9Dh1hq.s:395    .text.Uart3_printf:00000000 $t
C:\Users\IDONNO~1\AppData\Local\Temp\cc9Dh1hq.s:401    .text.Uart3_printf:00000000 Uart3_printf
C:\Users\IDONNO~1\AppData\Local\Temp\cc9Dh1hq.s:434    .text.Uart3_getch:00000000 $t
C:\Users\IDONNO~1\AppData\Local\Temp\cc9Dh1hq.s:440    .text.Uart3_getch:00000000 Uart3_getch
C:\Users\IDONNO~1\AppData\Local\Temp\cc9Dh1hq.s:470    .text.Uart3_getch:0000001c $d
C:\Users\IDONNO~1\AppData\Local\Temp\cc9Dh1hq.s:475    .rodata.str1.4:00000000 $d
C:\Users\IDONNO~1\AppData\Local\Temp\cc9Dh1hq.s:479    .data.sd3cfg:00000000 $d
C:\Users\IDONNO~1\AppData\Local\Temp\cc9Dh1hq.s:483    .data.sd3cfg:00000000 sd3cfg
                     .debug_frame:00000010 $d

UNDEFINED SYMBOLS
chvprintf
sdStart
_pal_lld_setgroupmode
SD3
chOQPutTimeout
