ARM GAS  C:\Users\IDONNO~1\AppData\Local\Temp\ccLWam2h.s 			page 1


   1              		.syntax unified
   2              		.cpu cortex-m4
   3              		.eabi_attribute 27, 1
   4              		.eabi_attribute 28, 1
   5              		.fpu fpv4-sp-d16
   6              		.eabi_attribute 20, 1
   7              		.eabi_attribute 21, 1
   8              		.eabi_attribute 23, 3
   9              		.eabi_attribute 24, 1
  10              		.eabi_attribute 25, 1
  11              		.eabi_attribute 26, 1
  12              		.eabi_attribute 30, 2
  13              		.eabi_attribute 34, 1
  14              		.eabi_attribute 18, 4
  15              		.thumb
  16              		.syntax unified
  17              		.file	"utils.c"
  18              		.text
  19              	.Ltext0:
  20              		.cfi_sections	.debug_frame
  21              		.section	.text.utils_step_towards,"ax",%progbits
  22              		.align	2
  23              		.p2align 4,,15
  24              		.global	utils_step_towards
  25              		.thumb
  26              		.thumb_func
  27              		.type	utils_step_towards, %function
  28              	utils_step_towards:
  29              	.LFB256:
  30              		.file 1 "src/core/utils.c"
  31              		.loc 1 33 0
  32              		.cfi_startproc
  33              		@ args = 0, pretend = 0, frame = 0
  34              		@ frame_needed = 0, uses_anonymous_args = 0
  35              		@ link register save eliminated.
  36              	.LVL0:
  37              		.loc 1 34 0
  38 0000 D0ED007A 		vldr.32	s15, [r0]
  39 0004 F4EEC07A 		vcmpe.f32	s15, s0
  40 0008 F1EE10FA 		vmrs	APSR_nzcv, FPSCR
  41 000c 09D5     		bpl	.L13
  42              		.loc 1 35 0
  43 000e 77EEA07A 		vadd.f32	s15, s15, s1
  44 0012 B4EEE70A 		vcmpe.f32	s0, s15
  45 0016 F1EE10FA 		vmrs	APSR_nzcv, FPSCR
  46 001a 0ADD     		ble	.L4
  47              	.L14:
  48              		.loc 1 42 0
  49 001c C0ED007A 		vstr.32	s15, [r0]
  50              	.L1:
  51 0020 7047     		bx	lr
  52              	.L13:
  53              		.loc 1 40 0
  54 0022 FDDD     		ble	.L1
  55              		.loc 1 41 0
  56 0024 77EEE07A 		vsub.f32	s15, s15, s1
  57 0028 B4EEE70A 		vcmpe.f32	s0, s15
ARM GAS  C:\Users\IDONNO~1\AppData\Local\Temp\ccLWam2h.s 			page 2


  58 002c F1EE10FA 		vmrs	APSR_nzcv, FPSCR
  59 0030 F4D4     		bmi	.L14
  60              	.L4:
  61              		.loc 1 38 0
  62 0032 80ED000A 		vstr.32	s0, [r0]
  63 0036 7047     		bx	lr
  64              		.cfi_endproc
  65              	.LFE256:
  66              		.size	utils_step_towards, .-utils_step_towards
  67              		.section	.text.utils_calc_ratio,"ax",%progbits
  68              		.align	2
  69              		.p2align 4,,15
  70              		.global	utils_calc_ratio
  71              		.thumb
  72              		.thumb_func
  73              		.type	utils_calc_ratio, %function
  74              	utils_calc_ratio:
  75              	.LFB257:
  76              		.loc 1 49 0
  77              		.cfi_startproc
  78              		@ args = 0, pretend = 0, frame = 0
  79              		@ frame_needed = 0, uses_anonymous_args = 0
  80              		@ link register save eliminated.
  81              	.LVL1:
  82              		.loc 1 50 0
  83 0000 31EE401A 		vsub.f32	s2, s2, s0
  84              	.LVL2:
  85 0004 30EEC00A 		vsub.f32	s0, s1, s0
  86              	.LVL3:
  87              		.loc 1 51 0
  88 0008 81EE000A 		vdiv.f32	s0, s2, s0
  89 000c 7047     		bx	lr
  90              		.cfi_endproc
  91              	.LFE257:
  92              		.size	utils_calc_ratio, .-utils_calc_ratio
  93 000e 00BF     		.section	.text.utils_norm_angle,"ax",%progbits
  94              		.align	2
  95              		.p2align 4,,15
  96              		.global	utils_norm_angle
  97              		.thumb
  98              		.thumb_func
  99              		.type	utils_norm_angle, %function
 100              	utils_norm_angle:
 101              	.LFB258:
 102              		.loc 1 59 0
 103              		.cfi_startproc
 104              		@ args = 0, pretend = 0, frame = 0
 105              		@ frame_needed = 0, uses_anonymous_args = 0
 106              	.LVL4:
 107 0000 10B5     		push	{r4, lr}
 108              		.cfi_def_cfa_offset 8
 109              		.cfi_offset 4, -8
 110              		.cfi_offset 14, -4
 111 0002 2DED028B 		vpush.64	{d8}
 112              		.cfi_def_cfa_offset 16
 113              		.cfi_offset 80, -16
 114              		.cfi_offset 81, -12
ARM GAS  C:\Users\IDONNO~1\AppData\Local\Temp\ccLWam2h.s 			page 3


 115              		.loc 1 60 0
 116 0006 9FED0A8A 		vldr.32	s16, .L22
 117 000a 90ED000A 		vldr.32	s0, [r0]
 118 000e F0EE480A 		vmov.f32	s1, s16
 119              		.loc 1 59 0
 120 0012 0446     		mov	r4, r0
 121              		.loc 1 60 0
 122 0014 FFF7FEFF 		bl	fmodf
 123              	.LVL5:
 124              		.loc 1 62 0
 125 0018 B5EEC00A 		vcmpe.f32	s0, #0
 126 001c F1EE10FA 		vmrs	APSR_nzcv, FPSCR
 127              		.loc 1 63 0
 128 0020 48BF     		it	mi
 129 0022 30EE080A 		vaddmi.f32	s0, s0, s16
 130              		.loc 1 65 0
 131 0026 BDEC028B 		vldm	sp!, {d8}
 132              		.cfi_restore 80
 133              		.cfi_restore 81
 134              		.cfi_def_cfa_offset 8
 135              		.loc 1 63 0
 136 002a 84ED000A 		vstr.32	s0, [r4]
 137              		.loc 1 65 0
 138 002e 10BD     		pop	{r4, pc}
 139              	.LVL6:
 140              	.L23:
 141              		.align	2
 142              	.L22:
 143 0030 0000B443 		.word	1135869952
 144              		.cfi_endproc
 145              	.LFE258:
 146              		.size	utils_norm_angle, .-utils_norm_angle
 147              		.section	.text.utils_norm_angle_rad,"ax",%progbits
 148              		.align	2
 149              		.p2align 4,,15
 150              		.global	utils_norm_angle_rad
 151              		.thumb
 152              		.thumb_func
 153              		.type	utils_norm_angle_rad, %function
 154              	utils_norm_angle_rad:
 155              	.LFB259:
 156              		.loc 1 76 0
 157              		.cfi_startproc
 158              		@ args = 0, pretend = 0, frame = 0
 159              		@ frame_needed = 0, uses_anonymous_args = 0
 160              		@ link register save eliminated.
 161              	.LVL7:
 162              		.loc 1 77 0
 163 0000 D0ED007A 		vldr.32	s15, [r0]
 164 0004 9FED127A 		vldr.32	s14, .L34
 165 0008 F4EEC77A 		vcmpe.f32	s15, s14
 166 000c F1EE10FA 		vmrs	APSR_nzcv, FPSCR
 167 0010 0AD5     		bpl	.L25
 168              		.loc 1 78 0
 169 0012 DFED106A 		vldr.32	s13, .L34+4
 170              	.L27:
 171 0016 77EEA67A 		vadd.f32	s15, s15, s13
ARM GAS  C:\Users\IDONNO~1\AppData\Local\Temp\ccLWam2h.s 			page 4


 172              		.loc 1 77 0
 173 001a F4EEC77A 		vcmpe.f32	s15, s14
 174 001e F1EE10FA 		vmrs	APSR_nzcv, FPSCR
 175 0022 F8D4     		bmi	.L27
 176 0024 C0ED007A 		vstr.32	s15, [r0]
 177              	.L25:
 178              		.loc 1 81 0
 179 0028 9FED0B7A 		vldr.32	s14, .L34+8
 180 002c F4EEC77A 		vcmpe.f32	s15, s14
 181 0030 F1EE10FA 		vmrs	APSR_nzcv, FPSCR
 182 0034 0ADD     		ble	.L24
 183              		.loc 1 82 0
 184 0036 DFED076A 		vldr.32	s13, .L34+4
 185              	.L29:
 186 003a 77EEE67A 		vsub.f32	s15, s15, s13
 187              		.loc 1 81 0
 188 003e F4EEC77A 		vcmpe.f32	s15, s14
 189 0042 F1EE10FA 		vmrs	APSR_nzcv, FPSCR
 190 0046 F8DC     		bgt	.L29
 191 0048 C0ED007A 		vstr.32	s15, [r0]
 192              	.L24:
 193 004c 7047     		bx	lr
 194              	.L35:
 195 004e 00BF     		.align	2
 196              	.L34:
 197 0050 DB0F49C0 		.word	-1068953637
 198 0054 DB0FC940 		.word	1086918619
 199 0058 DB0F4940 		.word	1078530011
 200              		.cfi_endproc
 201              	.LFE259:
 202              		.size	utils_norm_angle_rad, .-utils_norm_angle_rad
 203              		.section	.text.utils_truncate_number,"ax",%progbits
 204              		.align	2
 205              		.p2align 4,,15
 206              		.global	utils_truncate_number
 207              		.thumb
 208              		.thumb_func
 209              		.type	utils_truncate_number, %function
 210              	utils_truncate_number:
 211              	.LFB260:
 212              		.loc 1 86 0
 213              		.cfi_startproc
 214              		@ args = 0, pretend = 0, frame = 0
 215              		@ frame_needed = 0, uses_anonymous_args = 0
 216              		@ link register save eliminated.
 217              	.LVL8:
 218              		.loc 1 89 0
 219 0000 D0ED007A 		vldr.32	s15, [r0]
 220 0004 F4EEE07A 		vcmpe.f32	s15, s1
 221 0008 F1EE10FA 		vmrs	APSR_nzcv, FPSCR
 222 000c 09DC     		bgt	.L46
 223              		.loc 1 92 0
 224 000e F4EEC07A 		vcmpe.f32	s15, s0
 225 0012 F1EE10FA 		vmrs	APSR_nzcv, FPSCR
 226              		.loc 1 93 0
 227 0016 46BF     		itte	mi
 228 0018 80ED000A 		vstrmi.32	s0, [r0]
ARM GAS  C:\Users\IDONNO~1\AppData\Local\Temp\ccLWam2h.s 			page 5


 229              	.LVL9:
 230              		.loc 1 94 0
 231 001c 0120     		movmi	r0, #1
 232              	.LVL10:
 233              		.loc 1 87 0
 234 001e 0020     		movpl	r0, #0
 235              	.LVL11:
 236              		.loc 1 98 0
 237 0020 7047     		bx	lr
 238              	.LVL12:
 239              	.L46:
 240              		.loc 1 90 0
 241 0022 C0ED000A 		vstr.32	s1, [r0]
 242              	.LVL13:
 243              		.loc 1 91 0
 244 0026 0120     		movs	r0, #1
 245              	.LVL14:
 246 0028 7047     		bx	lr
 247              		.cfi_endproc
 248              	.LFE260:
 249              		.size	utils_truncate_number, .-utils_truncate_number
 250 002a 00BF     		.section	.text.utils_map,"ax",%progbits
 251              		.align	2
 252              		.p2align 4,,15
 253              		.global	utils_map
 254              		.thumb
 255              		.thumb_func
 256              		.type	utils_map, %function
 257              	utils_map:
 258              	.LFB261:
 259              		.loc 1 100 0
 260              		.cfi_startproc
 261              		@ args = 0, pretend = 0, frame = 0
 262              		@ frame_needed = 0, uses_anonymous_args = 0
 263              		@ link register save eliminated.
 264              	.LVL15:
 265              		.loc 1 101 0
 266 0000 30EE600A 		vsub.f32	s0, s0, s1
 267              	.LVL16:
 268 0004 32EE612A 		vsub.f32	s4, s4, s3
 269              	.LVL17:
 270 0008 31EE601A 		vsub.f32	s2, s2, s1
 271              	.LVL18:
 272 000c 20EE022A 		vmul.f32	s4, s0, s4
 273 0010 82EE010A 		vdiv.f32	s0, s4, s2
 274              		.loc 1 102 0
 275 0014 30EE210A 		vadd.f32	s0, s0, s3
 276 0018 7047     		bx	lr
 277              		.cfi_endproc
 278              	.LFE261:
 279              		.size	utils_map, .-utils_map
 280 001a 00BF     		.section	.text.utils_map_int,"ax",%progbits
 281              		.align	2
 282              		.p2align 4,,15
 283              		.global	utils_map_int
 284              		.thumb
 285              		.thumb_func
ARM GAS  C:\Users\IDONNO~1\AppData\Local\Temp\ccLWam2h.s 			page 6


 286              		.type	utils_map_int, %function
 287              	utils_map_int:
 288              	.LFB262:
 289              		.loc 1 104 0
 290              		.cfi_startproc
 291              		@ args = 4, pretend = 0, frame = 0
 292              		@ frame_needed = 0, uses_anonymous_args = 0
 293              		@ link register save eliminated.
 294              	.LVL19:
 295 0000 10B4     		push	{r4}
 296              		.cfi_def_cfa_offset 4
 297              		.cfi_offset 4, -4
 298              		.loc 1 104 0
 299 0002 019C     		ldr	r4, [sp, #4]
 300              		.loc 1 105 0
 301 0004 401A     		subs	r0, r0, r1
 302              	.LVL20:
 303 0006 E41A     		subs	r4, r4, r3
 304 0008 04FB00F4 		mul	r4, r4, r0
 305 000c 521A     		subs	r2, r2, r1
 306              	.LVL21:
 307 000e 94FBF2F0 		sdiv	r0, r4, r2
 308              		.loc 1 106 0
 309 0012 5DF8044B 		ldr	r4, [sp], #4
 310              		.cfi_restore 4
 311              		.cfi_def_cfa_offset 0
 312              	.LVL22:
 313 0016 1844     		add	r0, r0, r3
 314 0018 7047     		bx	lr
 315              		.cfi_endproc
 316              	.LFE262:
 317              		.size	utils_map_int, .-utils_map_int
 318 001a 00BF     		.section	.text.utils_deadband,"ax",%progbits
 319              		.align	2
 320              		.p2align 4,,15
 321              		.global	utils_deadband
 322              		.thumb
 323              		.thumb_func
 324              		.type	utils_deadband, %function
 325              	utils_deadband:
 326              	.LFB263:
 327              		.loc 1 112 0
 328              		.cfi_startproc
 329              		@ args = 0, pretend = 0, frame = 0
 330              		@ frame_needed = 0, uses_anonymous_args = 0
 331              		@ link register save eliminated.
 332              	.LVL23:
 333              		.loc 1 113 0
 334 0000 D0ED007A 		vldr.32	s15, [r0]
 335 0004 B0EEE77A 		vabs.f32	s14, s15
 336 0008 B4EEC07A 		vcmpe.f32	s14, s0
 337 000c F1EE10FA 		vmrs	APSR_nzcv, FPSCR
 338 0010 17D4     		bmi	.L60
 339              	.LBB24:
 340              		.loc 1 116 0
 341 0012 30EEC00A 		vsub.f32	s0, s1, s0
 342              	.LVL24:
ARM GAS  C:\Users\IDONNO~1\AppData\Local\Temp\ccLWam2h.s 			page 7


 343              		.loc 1 118 0
 344 0016 B7EE007A 		vmov.f32	s14, #1.0e+0
 345              		.loc 1 116 0
 346 001a C0EE806A 		vdiv.f32	s13, s1, s0
 347              	.LVL25:
 348              		.loc 1 117 0
 349 001e F5EEC07A 		vcmpe.f32	s15, #0
 350              		.loc 1 118 0
 351 0022 37EE667A 		vsub.f32	s14, s14, s13
 352              		.loc 1 117 0
 353 0026 F1EE10FA 		vmrs	APSR_nzcv, FPSCR
 354              		.loc 1 118 0
 355 002a 67EE200A 		vmul.f32	s1, s14, s1
 356              	.LVL26:
 357              		.loc 1 120 0
 358 002e D6BF     		itet	le
 359 0030 E7EEE60A 		vfmsle.f32	s1, s15, s13
 360              		.loc 1 118 0
 361 0034 E7EEA60A 		vfmagt.f32	s1, s15, s13
 362              		.loc 1 120 0
 363 0038 F1EE600A 		vnegle.f32	s1, s1
 364 003c C0ED000A 		vstr.32	s1, [r0]
 365 0040 7047     		bx	lr
 366              	.LVL27:
 367              	.L60:
 368              	.LBE24:
 369              		.loc 1 114 0
 370 0042 0023     		movs	r3, #0
 371 0044 0360     		str	r3, [r0]	@ float
 372 0046 7047     		bx	lr
 373              		.cfi_endproc
 374              	.LFE263:
 375              		.size	utils_deadband, .-utils_deadband
 376              		.section	.text.utils_angle_difference,"ax",%progbits
 377              		.align	2
 378              		.p2align 4,,15
 379              		.global	utils_angle_difference
 380              		.thumb
 381              		.thumb_func
 382              		.type	utils_angle_difference, %function
 383              	utils_angle_difference:
 384              	.LFB264:
 385              		.loc 1 135 0
 386              		.cfi_startproc
 387              		@ args = 0, pretend = 0, frame = 0
 388              		@ frame_needed = 0, uses_anonymous_args = 0
 389              		@ link register save eliminated.
 390              	.LVL28:
 391              		.loc 1 150 0
 392 0000 30EE600A 		vsub.f32	s0, s0, s1
 393              	.LVL29:
 394              		.loc 1 151 0
 395 0004 DFED107A 		vldr.32	s15, .L72
 396 0008 B4EEE70A 		vcmpe.f32	s0, s15
 397 000c F1EE10FA 		vmrs	APSR_nzcv, FPSCR
 398 0010 08D5     		bpl	.L62
 399              		.loc 1 151 0 is_stmt 0 discriminator 2
ARM GAS  C:\Users\IDONNO~1\AppData\Local\Temp\ccLWam2h.s 			page 8


 400 0012 9FED0E7A 		vldr.32	s14, .L72+4
 401              	.L64:
 402 0016 30EE070A 		vadd.f32	s0, s0, s14
 403              	.LVL30:
 404 001a B4EEE70A 		vcmpe.f32	s0, s15
 405 001e F1EE10FA 		vmrs	APSR_nzcv, FPSCR
 406 0022 F8D4     		bmi	.L64
 407              	.L62:
 408              		.loc 1 152 0 is_stmt 1 discriminator 1
 409 0024 DFED0A7A 		vldr.32	s15, .L72+8
 410 0028 B4EEE70A 		vcmpe.f32	s0, s15
 411 002c F1EE10FA 		vmrs	APSR_nzcv, FPSCR
 412 0030 08DD     		ble	.L65
 413              		.loc 1 152 0 is_stmt 0 discriminator 2
 414 0032 9FED067A 		vldr.32	s14, .L72+4
 415              	.L67:
 416 0036 30EE470A 		vsub.f32	s0, s0, s14
 417              	.LVL31:
 418 003a B4EEE70A 		vcmpe.f32	s0, s15
 419 003e F1EE10FA 		vmrs	APSR_nzcv, FPSCR
 420 0042 F8DC     		bgt	.L67
 421              	.L65:
 422              		.loc 1 154 0 is_stmt 1
 423 0044 7047     		bx	lr
 424              	.L73:
 425 0046 00BF     		.align	2
 426              	.L72:
 427 0048 000034C3 		.word	-1020002304
 428 004c 0000B443 		.word	1135869952
 429 0050 00003443 		.word	1127481344
 430              		.cfi_endproc
 431              	.LFE264:
 432              		.size	utils_angle_difference, .-utils_angle_difference
 433              		.section	.text.utils_angle_difference_rad,"ax",%progbits
 434              		.align	2
 435              		.p2align 4,,15
 436              		.global	utils_angle_difference_rad
 437              		.thumb
 438              		.thumb_func
 439              		.type	utils_angle_difference_rad, %function
 440              	utils_angle_difference_rad:
 441              	.LFB265:
 442              		.loc 1 165 0
 443              		.cfi_startproc
 444              		@ args = 0, pretend = 0, frame = 0
 445              		@ frame_needed = 0, uses_anonymous_args = 0
 446              		@ link register save eliminated.
 447              	.LVL32:
 448              		.loc 1 166 0
 449 0000 30EE600A 		vsub.f32	s0, s0, s1
 450              	.LVL33:
 451              		.loc 1 167 0
 452 0004 DFED107A 		vldr.32	s15, .L85
 453 0008 B4EEE70A 		vcmpe.f32	s0, s15
 454 000c F1EE10FA 		vmrs	APSR_nzcv, FPSCR
 455 0010 08D5     		bpl	.L75
 456              		.loc 1 167 0 is_stmt 0 discriminator 2
ARM GAS  C:\Users\IDONNO~1\AppData\Local\Temp\ccLWam2h.s 			page 9


 457 0012 9FED0E7A 		vldr.32	s14, .L85+4
 458              	.L77:
 459 0016 30EE070A 		vadd.f32	s0, s0, s14
 460              	.LVL34:
 461 001a B4EEE70A 		vcmpe.f32	s0, s15
 462 001e F1EE10FA 		vmrs	APSR_nzcv, FPSCR
 463 0022 F8D4     		bmi	.L77
 464              	.L75:
 465              		.loc 1 168 0 is_stmt 1 discriminator 1
 466 0024 DFED0A7A 		vldr.32	s15, .L85+8
 467 0028 B4EEE70A 		vcmpe.f32	s0, s15
 468 002c F1EE10FA 		vmrs	APSR_nzcv, FPSCR
 469 0030 08DD     		ble	.L78
 470              		.loc 1 168 0 is_stmt 0 discriminator 2
 471 0032 9FED067A 		vldr.32	s14, .L85+4
 472              	.L80:
 473 0036 30EE470A 		vsub.f32	s0, s0, s14
 474              	.LVL35:
 475 003a B4EEE70A 		vcmpe.f32	s0, s15
 476 003e F1EE10FA 		vmrs	APSR_nzcv, FPSCR
 477 0042 F8DC     		bgt	.L80
 478              	.L78:
 479              		.loc 1 170 0 is_stmt 1
 480 0044 7047     		bx	lr
 481              	.L86:
 482 0046 00BF     		.align	2
 483              	.L85:
 484 0048 DB0F49C0 		.word	-1068953637
 485 004c DB0FC940 		.word	1086918619
 486 0050 DB0F4940 		.word	1078530011
 487              		.cfi_endproc
 488              	.LFE265:
 489              		.size	utils_angle_difference_rad, .-utils_angle_difference_rad
 490              		.section	.text.utils_middle_of_3,"ax",%progbits
 491              		.align	2
 492              		.p2align 4,,15
 493              		.global	utils_middle_of_3
 494              		.thumb
 495              		.thumb_func
 496              		.type	utils_middle_of_3, %function
 497              	utils_middle_of_3:
 498              	.LFB267:
 499              		.loc 1 216 0
 500              		.cfi_startproc
 501              		@ args = 0, pretend = 0, frame = 0
 502              		@ frame_needed = 0, uses_anonymous_args = 0
 503              		@ link register save eliminated.
 504              	.LVL36:
 505              		.loc 1 219 0
 506 0000 B4EEE00A 		vcmpe.f32	s0, s1
 507 0004 F1EE10FA 		vmrs	APSR_nzcv, FPSCR
 508 0008 0ED8     		bhi	.L110
 509              		.loc 1 219 0 is_stmt 0 discriminator 1
 510 000a B4EEC10A 		vcmpe.f32	s0, s2
 511 000e F1EE10FA 		vmrs	APSR_nzcv, FPSCR
 512 0012 25D8     		bhi	.L111
 513              		.loc 1 224 0 is_stmt 1
ARM GAS  C:\Users\IDONNO~1\AppData\Local\Temp\ccLWam2h.s 			page 10


 514 0014 F4EE410A 		vcmp.f32	s1, s2
 515 0018 F1EE10FA 		vmrs	APSR_nzcv, FPSCR
 516 001c 98BF     		it	ls
 517 001e B0EE601A 		vmovls.f32	s2, s1
 518              	.LVL37:
 519              		.loc 1 227 0
 520 0022 B0EE410A 		vmov.f32	s0, s2
 521              	.LVL38:
 522 0026 7047     		bx	lr
 523              	.LVL39:
 524              	.L110:
 525              		.loc 1 221 0
 526 0028 0BDA     		bge	.L115
 527              	.L94:
 528              		.loc 1 224 0
 529 002a B4EEE00A 		vcmpe.f32	s0, s1
 530 002e F1EE10FA 		vmrs	APSR_nzcv, FPSCR
 531 0032 8CBF     		ite	hi
 532 0034 B0EE601A 		vmovhi.f32	s2, s1
 533 0038 B0EE401A 		vmovls.f32	s2, s0
 534              	.LVL40:
 535              		.loc 1 227 0
 536 003c B0EE410A 		vmov.f32	s0, s2
 537              	.LVL41:
 538 0040 7047     		bx	lr
 539              	.LVL42:
 540              	.L115:
 541              		.loc 1 221 0 discriminator 1
 542 0042 F4EEC10A 		vcmpe.f32	s1, s2
 543 0046 F1EE10FA 		vmrs	APSR_nzcv, FPSCR
 544 004a EED8     		bhi	.L94
 545              	.L100:
 546              		.loc 1 222 0
 547 004c B4EE410A 		vcmp.f32	s0, s2
 548 0050 F1EE10FA 		vmrs	APSR_nzcv, FPSCR
 549 0054 98BF     		it	ls
 550 0056 B0EE401A 		vmovls.f32	s2, s0
 551              	.LVL43:
 552              		.loc 1 227 0
 553 005a B0EE410A 		vmov.f32	s0, s2
 554              	.LVL44:
 555 005e 7047     		bx	lr
 556              	.LVL45:
 557              	.L111:
 558              		.loc 1 221 0
 559 0060 B4EEE00A 		vcmpe.f32	s0, s1
 560 0064 F1EE10FA 		vmrs	APSR_nzcv, FPSCR
 561 0068 04DB     		blt	.L114
 562 006a F4EEC10A 		vcmpe.f32	s1, s2
 563 006e F1EE10FA 		vmrs	APSR_nzcv, FPSCR
 564 0072 EBD9     		bls	.L100
 565              	.L114:
 566              		.loc 1 222 0
 567 0074 B0EE401A 		vmov.f32	s2, s0
 568              	.LVL46:
 569              		.loc 1 227 0
 570 0078 B0EE410A 		vmov.f32	s0, s2
ARM GAS  C:\Users\IDONNO~1\AppData\Local\Temp\ccLWam2h.s 			page 11


 571              	.LVL47:
 572 007c 7047     		bx	lr
 573              		.cfi_endproc
 574              	.LFE267:
 575              		.size	utils_middle_of_3, .-utils_middle_of_3
 576 007e 00BF     		.section	.text.utils_middle_of_3_int,"ax",%progbits
 577              		.align	2
 578              		.p2align 4,,15
 579              		.global	utils_middle_of_3_int
 580              		.thumb
 581              		.thumb_func
 582              		.type	utils_middle_of_3_int, %function
 583              	utils_middle_of_3_int:
 584              	.LFB268:
 585              		.loc 1 244 0
 586              		.cfi_startproc
 587              		@ args = 0, pretend = 0, frame = 0
 588              		@ frame_needed = 0, uses_anonymous_args = 0
 589              		@ link register save eliminated.
 590              	.LVL48:
 591              		.loc 1 247 0
 592 0000 8842     		cmp	r0, r1
 593 0002 05DD     		ble	.L122
 594              	.L117:
 595              		.loc 1 249 0 discriminator 1
 596 0004 9142     		cmp	r1, r2
 597 0006 0BDD     		ble	.L123
 598              		.loc 1 252 0
 599 0008 8842     		cmp	r0, r1
 600 000a A8BF     		it	ge
 601 000c 0846     		movge	r0, r1
 602              	.LVL49:
 603              		.loc 1 255 0
 604 000e 7047     		bx	lr
 605              	.LVL50:
 606              	.L122:
 607              		.loc 1 247 0 discriminator 1
 608 0010 9042     		cmp	r0, r2
 609 0012 09DD     		ble	.L124
 610              		.loc 1 249 0
 611 0014 8842     		cmp	r0, r1
 612 0016 F5DA     		bge	.L117
 613              		.loc 1 252 0
 614 0018 8842     		cmp	r0, r1
 615 001a A8BF     		it	ge
 616 001c 0846     		movge	r0, r1
 617              	.LVL51:
 618              		.loc 1 255 0
 619 001e 7047     		bx	lr
 620              	.LVL52:
 621              	.L123:
 622              		.loc 1 250 0
 623 0020 9042     		cmp	r0, r2
 624 0022 A8BF     		it	ge
 625 0024 1046     		movge	r0, r2
 626              	.LVL53:
 627 0026 7047     		bx	lr
ARM GAS  C:\Users\IDONNO~1\AppData\Local\Temp\ccLWam2h.s 			page 12


 628              	.LVL54:
 629              	.L124:
 630              		.loc 1 248 0
 631 0028 9142     		cmp	r1, r2
 632 002a A8BF     		it	ge
 633 002c 1146     		movge	r1, r2
 634              	.LVL55:
 635 002e 0846     		mov	r0, r1
 636              	.LVL56:
 637 0030 7047     		bx	lr
 638              		.cfi_endproc
 639              	.LFE268:
 640              		.size	utils_middle_of_3_int, .-utils_middle_of_3_int
 641 0032 00BF     		.section	.text.utils_fast_inv_sqrt,"ax",%progbits
 642              		.align	2
 643              		.p2align 4,,15
 644              		.global	utils_fast_inv_sqrt
 645              		.thumb
 646              		.thumb_func
 647              		.type	utils_fast_inv_sqrt, %function
 648              	utils_fast_inv_sqrt:
 649              	.LFB269:
 650              		.loc 1 259 0
 651              		.cfi_startproc
 652              		@ args = 0, pretend = 0, frame = 0
 653              		@ frame_needed = 0, uses_anonymous_args = 0
 654              		@ link register save eliminated.
 655              	.LVL57:
 656              		.loc 1 268 0
 657 0000 10EE102A 		vmov	r2, s0	@ int
 658 0004 084B     		ldr	r3, .L126
 659              		.loc 1 269 0
 660 0006 B6EE007A 		vmov.f32	s14, #5.0e-1
 661              		.loc 1 268 0
 662 000a A3EB6203 		sub	r3, r3, r2, asr #1
 663              	.LVL58:
 664 000e 07EE903A 		vmov	s15, r3	@ int
 665              		.loc 1 269 0
 666 0012 20EE077A 		vmul.f32	s14, s0, s14
 667              	.LVL59:
 668 0016 B7EE080A 		vmov.f32	s0, #1.5e+0
 669              	.LVL60:
 670 001a 27EE277A 		vmul.f32	s14, s14, s15
 671              	.LVL61:
 672 001e A7EEC70A 		vfms.f32	s0, s15, s14
 673              		.loc 1 270 0
 674 0022 20EE270A 		vmul.f32	s0, s0, s15
 675 0026 7047     		bx	lr
 676              	.L127:
 677              		.align	2
 678              	.L126:
 679 0028 DF59375F 		.word	1597463007
 680              		.cfi_endproc
 681              	.LFE269:
 682              		.size	utils_fast_inv_sqrt, .-utils_fast_inv_sqrt
 683              		.section	.text.utils_fast_atan2,"ax",%progbits
 684              		.align	2
ARM GAS  C:\Users\IDONNO~1\AppData\Local\Temp\ccLWam2h.s 			page 13


 685              		.p2align 4,,15
 686              		.global	utils_fast_atan2
 687              		.thumb
 688              		.thumb_func
 689              		.type	utils_fast_atan2, %function
 690              	utils_fast_atan2:
 691              	.LFB270:
 692              		.loc 1 286 0
 693              		.cfi_startproc
 694              		@ args = 0, pretend = 0, frame = 0
 695              		@ frame_needed = 0, uses_anonymous_args = 0
 696              		@ link register save eliminated.
 697              	.LVL62:
 698              		.loc 1 287 0
 699 0000 DFED1F7A 		vldr.32	s15, .L139
 700              		.loc 1 290 0
 701 0004 F5EEC00A 		vcmpe.f32	s1, #0
 702              		.loc 1 287 0
 703 0008 B0EEC07A 		vabs.f32	s14, s0
 704              		.loc 1 290 0
 705 000c F1EE10FA 		vmrs	APSR_nzcv, FPSCR
 706              		.loc 1 286 0
 707 0010 F0EE406A 		vmov.f32	s13, s0
 708              		.loc 1 287 0
 709 0014 77EE277A 		vadd.f32	s15, s14, s15
 710              	.LVL63:
 711              		.loc 1 290 0
 712 0018 1DDB     		blt	.L137
 713              	.LBB25:
 714              		.loc 1 291 0
 715 001a 30EEE75A 		vsub.f32	s10, s1, s15
 716 001e 77EEA07A 		vadd.f32	s15, s15, s1
 717              	.LVL64:
 718              		.loc 1 293 0
 719 0022 DFED185A 		vldr.32	s11, .L139+4
 720 0026 9FED187A 		vldr.32	s14, .L139+8
 721              	.LVL65:
 722 002a 9FED180A 		vldr.32	s0, .L139+12
 723              	.LVL66:
 724              		.loc 1 291 0
 725 002e 85EE276A 		vdiv.f32	s12, s10, s15
 726              	.LVL67:
 727              		.loc 1 293 0
 728 0032 66EE067A 		vmul.f32	s15, s12, s12
 729              	.LVL68:
 730 0036 A7EEA57A 		vfma.f32	s14, s15, s11
 731 003a A6EE070A 		vfma.f32	s0, s12, s14
 732 003e F0EE407A 		vmov.f32	s15, s0
 733              	.LVL69:
 734              	.L131:
 735              	.LBE25:
 736              		.loc 1 300 0
 737 0042 F5EEC06A 		vcmpe.f32	s13, #0
 738 0046 F1EE10FA 		vmrs	APSR_nzcv, FPSCR
 739              		.loc 1 301 0
 740 004a 4CBF     		ite	mi
 741 004c B1EE670A 		vnegmi.f32	s0, s15
ARM GAS  C:\Users\IDONNO~1\AppData\Local\Temp\ccLWam2h.s 			page 14


 742              		.loc 1 303 0
 743 0050 B0EE670A 		vmovpl.f32	s0, s15
 744              		.loc 1 305 0
 745 0054 7047     		bx	lr
 746              	.LVL70:
 747              	.L137:
 748              	.LBB26:
 749              		.loc 1 295 0
 750 0056 77EEA04A 		vadd.f32	s9, s15, s1
 751 005a 77EEE07A 		vsub.f32	s15, s15, s1
 752              	.LVL71:
 753              		.loc 1 297 0
 754 005e 9FED095A 		vldr.32	s10, .L139+4
 755 0062 9FED096A 		vldr.32	s12, .L139+8
 756 0066 9FED0A7A 		vldr.32	s14, .L139+16
 757              	.LVL72:
 758              		.loc 1 295 0
 759 006a C4EEA75A 		vdiv.f32	s11, s9, s15
 760              	.LVL73:
 761              		.loc 1 297 0
 762 006e 65EEA57A 		vmul.f32	s15, s11, s11
 763              	.LVL74:
 764 0072 A7EE856A 		vfma.f32	s12, s15, s10
 765 0076 A5EE867A 		vfma.f32	s14, s11, s12
 766 007a F0EE477A 		vmov.f32	s15, s14
 767              	.LVL75:
 768 007e E0E7     		b	.L131
 769              	.L140:
 770              		.align	2
 771              	.L139:
 772 0080 FFE6DB2E 		.word	786163455
 773 0084 DE02493E 		.word	1044972254
 774 0088 B1507BBF 		.word	-1082437455
 775 008c DB0F493F 		.word	1061752795
 776 0090 E4CB1640 		.word	1075235812
 777              	.LBE26:
 778              		.cfi_endproc
 779              	.LFE270:
 780              		.size	utils_fast_atan2, .-utils_fast_atan2
 781              		.section	.text.utils_saturate_vector_2d,"ax",%progbits
 782              		.align	2
 783              		.p2align 4,,15
 784              		.global	utils_saturate_vector_2d
 785              		.thumb
 786              		.thumb_func
 787              		.type	utils_saturate_vector_2d, %function
 788              	utils_saturate_vector_2d:
 789              	.LFB271:
 790              		.loc 1 322 0
 791              		.cfi_startproc
 792              		@ args = 0, pretend = 0, frame = 8
 793              		@ frame_needed = 0, uses_anonymous_args = 0
 794              	.LVL76:
 795              		.loc 1 324 0
 796 0000 D1ED007A 		vldr.32	s15, [r1]
 797 0004 27EEA77A 		vmul.f32	s14, s15, s15
 798 0008 D0ED007A 		vldr.32	s15, [r0]
ARM GAS  C:\Users\IDONNO~1\AppData\Local\Temp\ccLWam2h.s 			page 15


 799 000c A7EEA77A 		vfma.f32	s14, s15, s15
 800              		.loc 1 322 0
 801 0010 10B5     		push	{r4, lr}
 802              		.cfi_def_cfa_offset 8
 803              		.cfi_offset 4, -8
 804              		.cfi_offset 14, -4
 805              		.loc 1 324 0
 806 0012 F1EEC77A 		vsqrt.f32	s15, s14
 807              		.loc 1 322 0
 808 0016 0446     		mov	r4, r0
 809 0018 2DED028B 		vpush.64	{d8}
 810              		.cfi_def_cfa_offset 16
 811              		.cfi_offset 80, -16
 812              		.cfi_offset 81, -12
 813              		.loc 1 324 0
 814 001c F4EE677A 		vcmp.f32	s15, s15
 815 0020 F1EE10FA 		vmrs	APSR_nzcv, FPSCR
 816              		.loc 1 322 0
 817 0024 82B0     		sub	sp, sp, #8
 818              		.cfi_def_cfa_offset 24
 819              		.loc 1 322 0
 820 0026 B0EE408A 		vmov.f32	s16, s0
 821              		.loc 1 324 0
 822 002a 27D1     		bne	.L152
 823              	.LVL77:
 824              	.L142:
 825              		.loc 1 327 0
 826 002c 9FED180A 		vldr.32	s0, .L153
 827              		.loc 1 328 0
 828 0030 F4EE407A 		vcmp.f32	s15, s0
 829 0034 F1EE10FA 		vmrs	APSR_nzcv, FPSCR
 830 0038 48BF     		it	mi
 831 003a F0EE407A 		vmovmi.f32	s15, s0
 832              	.LVL78:
 833              		.loc 1 325 0
 834 003e B0EEC87A 		vabs.f32	s14, s16
 835              	.LVL79:
 836              		.loc 1 331 0
 837 0042 F4EEC77A 		vcmpe.f32	s15, s14
 838 0046 F1EE10FA 		vmrs	APSR_nzcv, FPSCR
 839 004a 12DD     		ble	.L150
 840              	.LBB27:
 841              		.loc 1 332 0
 842 004c C7EE276A 		vdiv.f32	s13, s14, s15
 843              	.LVL80:
 844              		.loc 1 335 0
 845 0050 0120     		movs	r0, #1
 846              		.loc 1 333 0
 847 0052 94ED007A 		vldr.32	s14, [r4]
 848              	.LVL81:
 849 0056 27EE267A 		vmul.f32	s14, s14, s13
 850 005a 84ED007A 		vstr.32	s14, [r4]
 851              		.loc 1 334 0
 852 005e D1ED007A 		vldr.32	s15, [r1]
 853              	.LVL82:
 854 0062 67EEA67A 		vmul.f32	s15, s15, s13
 855 0066 C1ED007A 		vstr.32	s15, [r1]
ARM GAS  C:\Users\IDONNO~1\AppData\Local\Temp\ccLWam2h.s 			page 16


 856              	.LVL83:
 857              	.LBE27:
 858              		.loc 1 339 0
 859 006a 02B0     		add	sp, sp, #8
 860              		.cfi_remember_state
 861              		.cfi_def_cfa_offset 16
 862              		@ sp needed
 863 006c BDEC028B 		vldm	sp!, {d8}
 864              		.cfi_restore 80
 865              		.cfi_restore 81
 866              		.cfi_def_cfa_offset 8
 867              	.LVL84:
 868 0070 10BD     		pop	{r4, pc}
 869              	.LVL85:
 870              	.L150:
 871              		.cfi_restore_state
 872              		.loc 1 323 0
 873 0072 0020     		movs	r0, #0
 874              	.LVL86:
 875              		.loc 1 339 0
 876 0074 02B0     		add	sp, sp, #8
 877              		.cfi_remember_state
 878              		.cfi_def_cfa_offset 16
 879              		@ sp needed
 880 0076 BDEC028B 		vldm	sp!, {d8}
 881              		.cfi_restore 80
 882              		.cfi_restore 81
 883              		.cfi_def_cfa_offset 8
 884 007a 10BD     		pop	{r4, pc}
 885              	.LVL87:
 886              	.L152:
 887              		.cfi_restore_state
 888              		.loc 1 324 0
 889 007c B0EE470A 		vmov.f32	s0, s14
 890              	.LVL88:
 891 0080 0191     		str	r1, [sp, #4]
 892 0082 FFF7FEFF 		bl	sqrtf
 893              	.LVL89:
 894 0086 0199     		ldr	r1, [sp, #4]
 895 0088 F0EE407A 		vmov.f32	s15, s0
 896 008c CEE7     		b	.L142
 897              	.L154:
 898 008e 00BF     		.align	2
 899              	.L153:
 900 0090 FFE6DB2E 		.word	786163455
 901              		.cfi_endproc
 902              	.LFE271:
 903              		.size	utils_saturate_vector_2d, .-utils_saturate_vector_2d
 904              		.section	.text.utils_fast_sincos,"ax",%progbits
 905              		.align	2
 906              		.p2align 4,,15
 907              		.global	utils_fast_sincos
 908              		.thumb
 909              		.thumb_func
 910              		.type	utils_fast_sincos, %function
 911              	utils_fast_sincos:
 912              	.LFB272:
ARM GAS  C:\Users\IDONNO~1\AppData\Local\Temp\ccLWam2h.s 			page 17


 913              		.loc 1 356 0
 914              		.cfi_startproc
 915              		@ args = 0, pretend = 0, frame = 0
 916              		@ frame_needed = 0, uses_anonymous_args = 0
 917              		@ link register save eliminated.
 918              	.LVL90:
 919              		.loc 1 358 0
 920 0000 DFED2A7A 		vldr.32	s15, .L179
 921 0004 B4EEE70A 		vcmpe.f32	s0, s15
 922 0008 F1EE10FA 		vmrs	APSR_nzcv, FPSCR
 923 000c 08D5     		bpl	.L156
 924              		.loc 1 359 0
 925 000e 9FED287A 		vldr.32	s14, .L179+4
 926              	.L158:
 927 0012 30EE070A 		vadd.f32	s0, s0, s14
 928              	.LVL91:
 929              		.loc 1 358 0
 930 0016 B4EEE70A 		vcmpe.f32	s0, s15
 931 001a F1EE10FA 		vmrs	APSR_nzcv, FPSCR
 932 001e F8D4     		bmi	.L158
 933              	.L156:
 934              		.loc 1 362 0
 935 0020 DFED247A 		vldr.32	s15, .L179+8
 936 0024 B4EEE70A 		vcmpe.f32	s0, s15
 937 0028 F1EE10FA 		vmrs	APSR_nzcv, FPSCR
 938 002c 08DD     		ble	.L159
 939              		.loc 1 363 0
 940 002e 9FED207A 		vldr.32	s14, .L179+4
 941              	.L161:
 942 0032 30EE470A 		vsub.f32	s0, s0, s14
 943              	.LVL92:
 944              		.loc 1 362 0
 945 0036 B4EEE70A 		vcmpe.f32	s0, s15
 946 003a F1EE10FA 		vmrs	APSR_nzcv, FPSCR
 947 003e F8DC     		bgt	.L161
 948              	.L159:
 949              		.loc 1 368 0
 950 0040 DFED1D7A 		vldr.32	s15, .L179+12
 951 0044 9FED1D7A 		vldr.32	s14, .L179+16
 952 0048 60EE277A 		vmul.f32	s15, s0, s15
 953              		.loc 1 367 0
 954 004c B5EEC00A 		vcmpe.f32	s0, #0
 955 0050 F1EE10FA 		vmrs	APSR_nzcv, FPSCR
 956              		.loc 1 368 0
 957 0054 4CBF     		ite	mi
 958 0056 67EE807A 		vmulmi.f32	s15, s15, s0
 959              		.loc 1 370 0
 960 005a 60EE677A 		vnmulpl.f32	s15, s0, s15
 961 005e E0EE077A 		vfma.f32	s15, s0, s14
 962              		.loc 1 374 0
 963 0062 9FED177A 		vldr.32	s14, .L179+20
 964              		.loc 1 370 0
 965 0066 C0ED007A 		vstr.32	s15, [r0]
 966              		.loc 1 374 0
 967 006a 30EE070A 		vadd.f32	s0, s0, s14
 968              	.LVL93:
 969              		.loc 1 376 0
ARM GAS  C:\Users\IDONNO~1\AppData\Local\Temp\ccLWam2h.s 			page 18


 970 006e DFED117A 		vldr.32	s15, .L179+8
 971              		.loc 1 381 0
 972 0072 9FED127A 		vldr.32	s14, .L179+16
 973              		.loc 1 376 0
 974 0076 B4EEE70A 		vcmpe.f32	s0, s15
 975 007a F1EE10FA 		vmrs	APSR_nzcv, FPSCR
 976              		.loc 1 377 0
 977 007e C4BF     		itt	gt
 978 0080 DFED0B7A 		vldrgt.32	s15, .L179+4
 979 0084 30EE670A 		vsubgt.f32	s0, s0, s15
 980              	.LVL94:
 981              		.loc 1 381 0
 982 0088 DFED0B7A 		vldr.32	s15, .L179+12
 983              		.loc 1 380 0
 984 008c B5EEC00A 		vcmpe.f32	s0, #0
 985              		.loc 1 381 0
 986 0090 60EE277A 		vmul.f32	s15, s0, s15
 987              		.loc 1 380 0
 988 0094 F1EE10FA 		vmrs	APSR_nzcv, FPSCR
 989              		.loc 1 381 0
 990 0098 4CBF     		ite	mi
 991 009a 67EE807A 		vmulmi.f32	s15, s15, s0
 992              		.loc 1 383 0
 993 009e 60EE677A 		vnmulpl.f32	s15, s0, s15
 994 00a2 E0EE077A 		vfma.f32	s15, s0, s14
 995 00a6 C1ED007A 		vstr.32	s15, [r1]
 996 00aa 7047     		bx	lr
 997              	.L180:
 998              		.align	2
 999              	.L179:
 1000 00ac DB0F49C0 		.word	-1068953637
 1001 00b0 DB0FC940 		.word	1086918619
 1002 00b4 DB0F4940 		.word	1078530011
 1003 00b8 7B81CF3E 		.word	1053786491
 1004 00bc 83F9A23F 		.word	1067645315
 1005 00c0 DB0FC93F 		.word	1070141403
 1006              		.cfi_endproc
 1007              	.LFE272:
 1008              		.size	utils_fast_sincos, .-utils_fast_sincos
 1009              		.section	.text.utils_fast_sincos_better,"ax",%progbits
 1010              		.align	2
 1011              		.p2align 4,,15
 1012              		.global	utils_fast_sincos_better
 1013              		.thumb
 1014              		.thumb_func
 1015              		.type	utils_fast_sincos_better, %function
 1016              	utils_fast_sincos_better:
 1017              	.LFB273:
 1018              		.loc 1 402 0
 1019              		.cfi_startproc
 1020              		@ args = 0, pretend = 0, frame = 0
 1021              		@ frame_needed = 0, uses_anonymous_args = 0
 1022              		@ link register save eliminated.
 1023              	.LVL95:
 1024              		.loc 1 404 0
 1025 0000 DFED3B7A 		vldr.32	s15, .L227
 1026 0004 B4EEE70A 		vcmpe.f32	s0, s15
ARM GAS  C:\Users\IDONNO~1\AppData\Local\Temp\ccLWam2h.s 			page 19


 1027 0008 F1EE10FA 		vmrs	APSR_nzcv, FPSCR
 1028 000c 08D5     		bpl	.L182
 1029              		.loc 1 405 0
 1030 000e 9FED397A 		vldr.32	s14, .L227+4
 1031              	.L184:
 1032 0012 30EE070A 		vadd.f32	s0, s0, s14
 1033              	.LVL96:
 1034              		.loc 1 404 0
 1035 0016 B4EEE70A 		vcmpe.f32	s0, s15
 1036 001a F1EE10FA 		vmrs	APSR_nzcv, FPSCR
 1037 001e F8D4     		bmi	.L184
 1038              	.L182:
 1039              		.loc 1 408 0
 1040 0020 DFED357A 		vldr.32	s15, .L227+8
 1041 0024 B4EEE70A 		vcmpe.f32	s0, s15
 1042 0028 F1EE10FA 		vmrs	APSR_nzcv, FPSCR
 1043 002c 08DD     		ble	.L185
 1044              		.loc 1 409 0
 1045 002e 9FED317A 		vldr.32	s14, .L227+4
 1046              	.L187:
 1047 0032 30EE470A 		vsub.f32	s0, s0, s14
 1048              	.LVL97:
 1049              		.loc 1 408 0
 1050 0036 B4EEE70A 		vcmpe.f32	s0, s15
 1051 003a F1EE10FA 		vmrs	APSR_nzcv, FPSCR
 1052 003e F8DC     		bgt	.L187
 1053              	.L185:
 1054              		.loc 1 414 0
 1055 0040 DFED2E7A 		vldr.32	s15, .L227+12
 1056 0044 9FED2E7A 		vldr.32	s14, .L227+16
 1057 0048 60EE277A 		vmul.f32	s15, s0, s15
 1058              		.loc 1 413 0
 1059 004c B5EEC00A 		vcmpe.f32	s0, #0
 1060 0050 F1EE10FA 		vmrs	APSR_nzcv, FPSCR
 1061              		.loc 1 414 0
 1062 0054 4CBF     		ite	mi
 1063 0056 67EE807A 		vmulmi.f32	s15, s15, s0
 1064              		.loc 1 422 0
 1065 005a 60EE677A 		vnmulpl.f32	s15, s0, s15
 1066 005e E0EE077A 		vfma.f32	s15, s0, s14
 1067              		.loc 1 427 0
 1068 0062 9FED287A 		vldr.32	s14, .L227+20
 1069              		.loc 1 422 0
 1070 0066 C0ED007A 		vstr.32	s15, [r0]
 1071              		.loc 1 424 0
 1072 006a F5EEC07A 		vcmpe.f32	s15, #0
 1073 006e F1EE10FA 		vmrs	APSR_nzcv, FPSCR
 1074              		.loc 1 425 0
 1075 0072 F0EE676A 		vmov.f32	s13, s15
 1076 0076 4CBF     		ite	mi
 1077 0078 D7EEE76A 		vfnmami.f32	s13, s15, s15
 1078              		.loc 1 427 0
 1079 007c D7EEA76A 		vfnmspl.f32	s13, s15, s15
 1080 0080 E6EE877A 		vfma.f32	s15, s13, s14
 1081              		.loc 1 432 0
 1082 0084 9FED207A 		vldr.32	s14, .L227+24
 1083              		.loc 1 427 0
ARM GAS  C:\Users\IDONNO~1\AppData\Local\Temp\ccLWam2h.s 			page 20


 1084 0088 C0ED007A 		vstr.32	s15, [r0]
 1085              		.loc 1 432 0
 1086 008c 30EE070A 		vadd.f32	s0, s0, s14
 1087              	.LVL98:
 1088              		.loc 1 433 0
 1089 0090 DFED197A 		vldr.32	s15, .L227+8
 1090              		.loc 1 438 0
 1091 0094 9FED1A7A 		vldr.32	s14, .L227+16
 1092              		.loc 1 433 0
 1093 0098 B4EEE70A 		vcmpe.f32	s0, s15
 1094 009c F1EE10FA 		vmrs	APSR_nzcv, FPSCR
 1095              		.loc 1 434 0
 1096 00a0 C4BF     		itt	gt
 1097 00a2 DFED147A 		vldrgt.32	s15, .L227+4
 1098 00a6 30EE670A 		vsubgt.f32	s0, s0, s15
 1099              	.LVL99:
 1100              		.loc 1 438 0
 1101 00aa DFED147A 		vldr.32	s15, .L227+12
 1102              		.loc 1 437 0
 1103 00ae B5EEC00A 		vcmpe.f32	s0, #0
 1104              		.loc 1 438 0
 1105 00b2 60EE277A 		vmul.f32	s15, s0, s15
 1106              		.loc 1 437 0
 1107 00b6 F1EE10FA 		vmrs	APSR_nzcv, FPSCR
 1108              		.loc 1 438 0
 1109 00ba 4CBF     		ite	mi
 1110 00bc 67EE807A 		vmulmi.f32	s15, s15, s0
 1111              		.loc 1 446 0
 1112 00c0 60EE677A 		vnmulpl.f32	s15, s0, s15
 1113 00c4 E0EE077A 		vfma.f32	s15, s0, s14
 1114              		.loc 1 451 0
 1115 00c8 9FED0E7A 		vldr.32	s14, .L227+20
 1116              		.loc 1 446 0
 1117 00cc C1ED007A 		vstr.32	s15, [r1]
 1118              		.loc 1 448 0
 1119 00d0 F5EEC07A 		vcmpe.f32	s15, #0
 1120              		.loc 1 449 0
 1121 00d4 F0EE676A 		vmov.f32	s13, s15
 1122              		.loc 1 448 0
 1123 00d8 F1EE10FA 		vmrs	APSR_nzcv, FPSCR
 1124              		.loc 1 449 0
 1125 00dc 4CBF     		ite	mi
 1126 00de D7EEE76A 		vfnmami.f32	s13, s15, s15
 1127              		.loc 1 451 0
 1128 00e2 D7EEA76A 		vfnmspl.f32	s13, s15, s15
 1129 00e6 E6EE877A 		vfma.f32	s15, s13, s14
 1130 00ea C1ED007A 		vstr.32	s15, [r1]
 1131 00ee 7047     		bx	lr
 1132              	.L228:
 1133              		.align	2
 1134              	.L227:
 1135 00f0 DB0F49C0 		.word	-1068953637
 1136 00f4 DB0FC940 		.word	1086918619
 1137 00f8 DB0F4940 		.word	1078530011
 1138 00fc 7B81CF3E 		.word	1053786491
 1139 0100 83F9A23F 		.word	1067645315
 1140 0104 6666663E 		.word	1046898278
ARM GAS  C:\Users\IDONNO~1\AppData\Local\Temp\ccLWam2h.s 			page 21


 1141 0108 DB0FC93F 		.word	1070141403
 1142              		.cfi_endproc
 1143              	.LFE273:
 1144              		.size	utils_fast_sincos_better, .-utils_fast_sincos_better
 1145              		.section	.text.utils_avg_angles_rad_fast,"ax",%progbits
 1146              		.align	2
 1147              		.p2align 4,,15
 1148              		.global	utils_avg_angles_rad_fast
 1149              		.thumb
 1150              		.thumb_func
 1151              		.type	utils_avg_angles_rad_fast, %function
 1152              	utils_avg_angles_rad_fast:
 1153              	.LFB266:
 1154              		.loc 1 187 0
 1155              		.cfi_startproc
 1156              		@ args = 0, pretend = 0, frame = 8
 1157              		@ frame_needed = 0, uses_anonymous_args = 0
 1158              	.LVL100:
 1159              	.LBB28:
 1160              		.loc 1 191 0
 1161 0000 002A     		cmp	r2, #0
 1162 0002 22DD     		ble	.L232
 1163              	.LBE28:
 1164              		.loc 1 187 0
 1165 0004 30B5     		push	{r4, r5, lr}
 1166              		.cfi_def_cfa_offset 12
 1167              		.cfi_offset 4, -12
 1168              		.cfi_offset 5, -8
 1169              		.cfi_offset 14, -4
 1170              	.LBB31:
 1171              		.loc 1 191 0
 1172 0006 DFED140A 		vldr.32	s1, .L237
 1173              	.LBE31:
 1174              		.loc 1 187 0
 1175 000a 83B0     		sub	sp, sp, #12
 1176              		.cfi_def_cfa_offset 24
 1177              	.LBB32:
 1178              		.loc 1 191 0
 1179 000c B0EE606A 		vmov.f32	s12, s1
 1180 0010 0546     		mov	r5, r0
 1181 0012 0C46     		mov	r4, r1
 1182 0014 0023     		movs	r3, #0
 1183              	.LVL101:
 1184              	.L231:
 1185              	.LBB29:
 1186              		.loc 1 193 0 discriminator 3
 1187 0016 01A9     		add	r1, sp, #4
 1188 0018 6846     		mov	r0, sp
 1189 001a B5EC010A 		vldmia.32	r5!, {s0}
 1190 001e FFF7FEFF 		bl	utils_fast_sincos_better
 1191              	.LVL102:
 1192              		.loc 1 194 0 discriminator 3
 1193 0022 F4EC017A 		vldmia.32	r4!, {s15}
 1194 0026 DDED006A 		vldr.32	s13, [sp]
 1195              		.loc 1 195 0 discriminator 3
 1196 002a 9DED017A 		vldr.32	s14, [sp, #4]
 1197              	.LBE29:
ARM GAS  C:\Users\IDONNO~1\AppData\Local\Temp\ccLWam2h.s 			page 22


 1198              		.loc 1 191 0 discriminator 3
 1199 002e 0133     		adds	r3, r3, #1
 1200 0030 9A42     		cmp	r2, r3
 1201              	.LBB30:
 1202              		.loc 1 194 0 discriminator 3
 1203 0032 A7EEA66A 		vfma.f32	s12, s15, s13
 1204              	.LVL103:
 1205              		.loc 1 195 0 discriminator 3
 1206 0036 E7EE870A 		vfma.f32	s1, s15, s14
 1207              	.LVL104:
 1208              	.LBE30:
 1209              		.loc 1 191 0 discriminator 3
 1210 003a ECD1     		bne	.L231
 1211              	.LBE32:
 1212              		.loc 1 198 0
 1213 003c B0EE460A 		vmov.f32	s0, s12
 1214              		.loc 1 199 0
 1215 0040 03B0     		add	sp, sp, #12
 1216              		.cfi_def_cfa_offset 12
 1217              		@ sp needed
 1218 0042 BDE83040 		pop	{r4, r5, lr}
 1219              		.cfi_restore 14
 1220              		.cfi_restore 5
 1221              		.cfi_restore 4
 1222              		.cfi_def_cfa_offset 0
 1223              		.loc 1 198 0
 1224 0046 FFF7FEBF 		b	utils_fast_atan2
 1225              	.LVL105:
 1226              	.L232:
 1227              		.loc 1 189 0
 1228 004a DFED030A 		vldr.32	s1, .L237
 1229              		.loc 1 198 0
 1230 004e B0EE600A 		vmov.f32	s0, s1
 1231 0052 FFF7FEBF 		b	utils_fast_atan2
 1232              	.LVL106:
 1233              	.L238:
 1234 0056 00BF     		.align	2
 1235              	.L237:
 1236 0058 00000000 		.word	0
 1237              		.cfi_endproc
 1238              	.LFE266:
 1239              		.size	utils_avg_angles_rad_fast, .-utils_avg_angles_rad_fast
 1240              		.section	.text.utils_sys_lock_cnt,"ax",%progbits
 1241              		.align	2
 1242              		.p2align 4,,15
 1243              		.global	utils_sys_lock_cnt
 1244              		.thumb
 1245              		.thumb_func
 1246              		.type	utils_sys_lock_cnt, %function
 1247              	utils_sys_lock_cnt:
 1248              	.LFB274:
 1249              		.loc 1 462 0
 1250              		.cfi_startproc
 1251              		@ args = 0, pretend = 0, frame = 0
 1252              		@ frame_needed = 0, uses_anonymous_args = 0
 1253              		@ link register save eliminated.
 1254              		.loc 1 463 0
ARM GAS  C:\Users\IDONNO~1\AppData\Local\Temp\ccLWam2h.s 			page 23


 1255 0000 044B     		ldr	r3, .L241
 1256 0002 1A68     		ldr	r2, [r3]
 1257 0004 12B9     		cbnz	r2, .L240
 1258              	.LVL107:
 1259              	.LBB33:
 1260              	.LBB34:
 1261              	.LBB35:
 1262              	.LBB36:
 1263              		.file 2 "lib/ChibiOS_3.0.2/os/ext/CMSIS/include/core_cmFunc.h"
 1264              		.loc 2 546 0
 1265 0006 2022     		movs	r2, #32
 1266              		.syntax unified
 1267              	@ 546 "lib/ChibiOS_3.0.2/os/ext/CMSIS/include/core_cmFunc.h" 1
 1268 0008 82F31188 		MSR basepri, r2
 1269              	@ 0 "" 2
 1270              	.LVL108:
 1271              		.thumb
 1272              		.syntax unified
 1273              	.L240:
 1274              	.LBE36:
 1275              	.LBE35:
 1276              	.LBE34:
 1277              	.LBE33:
 1278              		.loc 1 466 0
 1279 000c 1A68     		ldr	r2, [r3]
 1280 000e 0132     		adds	r2, r2, #1
 1281 0010 1A60     		str	r2, [r3]
 1282 0012 7047     		bx	lr
 1283              	.L242:
 1284              		.align	2
 1285              	.L241:
 1286 0014 00000000 		.word	.LANCHOR0
 1287              		.cfi_endproc
 1288              	.LFE274:
 1289              		.size	utils_sys_lock_cnt, .-utils_sys_lock_cnt
 1290              		.section	.text.utils_sys_unlock_cnt,"ax",%progbits
 1291              		.align	2
 1292              		.p2align 4,,15
 1293              		.global	utils_sys_unlock_cnt
 1294              		.thumb
 1295              		.thumb_func
 1296              		.type	utils_sys_unlock_cnt, %function
 1297              	utils_sys_unlock_cnt:
 1298              	.LFB275:
 1299              		.loc 1 475 0
 1300              		.cfi_startproc
 1301              		@ args = 0, pretend = 0, frame = 0
 1302              		@ frame_needed = 0, uses_anonymous_args = 0
 1303              		@ link register save eliminated.
 1304              		.loc 1 476 0
 1305 0000 054B     		ldr	r3, .L247
 1306 0002 1A68     		ldr	r2, [r3]
 1307 0004 32B1     		cbz	r2, .L243
 1308              		.loc 1 477 0
 1309 0006 1A68     		ldr	r2, [r3]
 1310 0008 013A     		subs	r2, r2, #1
 1311 000a 1A60     		str	r2, [r3]
ARM GAS  C:\Users\IDONNO~1\AppData\Local\Temp\ccLWam2h.s 			page 24


 1312              		.loc 1 478 0
 1313 000c 1B68     		ldr	r3, [r3]
 1314 000e 0BB9     		cbnz	r3, .L243
 1315              	.LVL109:
 1316              	.LBB37:
 1317              	.LBB38:
 1318              	.LBB39:
 1319              	.LBB40:
 1320              	.LBB41:
 1321              		.loc 2 546 0
 1322              		.syntax unified
 1323              	@ 546 "lib/ChibiOS_3.0.2/os/ext/CMSIS/include/core_cmFunc.h" 1
 1324 0010 83F31188 		MSR basepri, r3
 1325              	@ 0 "" 2
 1326              	.LVL110:
 1327              		.thumb
 1328              		.syntax unified
 1329              	.L243:
 1330 0014 7047     		bx	lr
 1331              	.L248:
 1332 0016 00BF     		.align	2
 1333              	.L247:
 1334 0018 00000000 		.word	.LANCHOR0
 1335              	.LBE41:
 1336              	.LBE40:
 1337              	.LBE39:
 1338              	.LBE38:
 1339              	.LBE37:
 1340              		.cfi_endproc
 1341              	.LFE275:
 1342              		.size	utils_sys_unlock_cnt, .-utils_sys_unlock_cnt
 1343              		.section	.bss.sys_lock_cnt,"aw",%nobits
 1344              		.align	2
 1345              		.set	.LANCHOR0,. + 0
 1346              		.type	sys_lock_cnt, %object
 1347              		.size	sys_lock_cnt, 4
 1348              	sys_lock_cnt:
 1349 0000 00000000 		.space	4
 1350              		.text
 1351              	.Letext0:
 1352              		.file 3 "c:\\program files (x86)\\gnu tools arm embedded\\5.4 2016q3\\lib\\gcc\\arm-none-eabi\\5.4
 1353              		.file 4 "c:\\program files (x86)\\gnu tools arm embedded\\5.4 2016q3\\arm-none-eabi\\include\\mach
 1354              		.file 5 "c:\\program files (x86)\\gnu tools arm embedded\\5.4 2016q3\\arm-none-eabi\\include\\sys\
 1355              		.file 6 "lib/ChibiOS_3.0.2/os/rt/ports/ARMCMx/compilers/GCC/chtypes.h"
 1356              		.file 7 "lib/ChibiOS_3.0.2/os/rt/include/chsystypes.h"
 1357              		.file 8 "lib/ChibiOS_3.0.2/os/rt/include/chschd.h"
 1358              		.file 9 "lib/ChibiOS_3.0.2/os/rt/ports/ARMCMx/chcore.h"
 1359              		.file 10 "lib/ChibiOS_3.0.2/os/rt/ports/ARMCMx/chcore_v7m.h"
 1360              		.file 11 "lib/ChibiOS_3.0.2/os/rt/include/chtm.h"
 1361              		.file 12 "lib/ChibiOS_3.0.2/os/rt/include/chsem.h"
 1362              		.file 13 "lib/ChibiOS_3.0.2/os/rt/include/chmtx.h"
 1363              		.file 14 "lib/ChibiOS_3.0.2/os/rt/include/chsys.h"
 1364              		.file 15 "c:\\program files (x86)\\gnu tools arm embedded\\5.4 2016q3\\arm-none-eabi\\include\\mat
 1365              		.file 16 "lib/ChibiOS_3.0.2/os/ext/CMSIS/include/core_cm4.h"