ARM GAS  C:\Users\jsyoon\AppData\Local\Temp\ccwQnUU8.s 			page 1


   1              		.syntax unified
   2              		.cpu cortex-m4
   3              		.eabi_attribute 27, 3
   4              		.eabi_attribute 28, 1
   5              		.fpu fpv4-sp-d16
   6              		.eabi_attribute 20, 1
   7              		.eabi_attribute 21, 1
   8              		.eabi_attribute 23, 3
   9              		.eabi_attribute 24, 1
  10              		.eabi_attribute 25, 1
  11              		.eabi_attribute 26, 1
  12              		.eabi_attribute 30, 2
  13              		.eabi_attribute 34, 1
  14              		.eabi_attribute 18, 4
  15              		.thumb
  16              		.file	"app.c"
  17              		.text
  18              	.Ltext0:
  19              		.cfi_sections	.debug_frame
  20              		.section	.text.app_get_configuration,"ax",%progbits
  21              		.align	2
  22              		.p2align 4,,15
  23              		.global	app_get_configuration
  24              		.thumb
  25              		.thumb_func
  26              		.type	app_get_configuration, %function
  27              	app_get_configuration:
  28              	.LFB119:
  29              		.file 1 "applications/app.c"
  30              		.loc 1 86 0
  31              		.cfi_startproc
  32              		@ args = 0, pretend = 0, frame = 0
  33              		@ frame_needed = 0, uses_anonymous_args = 0
  34              		@ link register save eliminated.
  35              		.loc 1 88 0
  36 0000 0048     		ldr	r0, .L2
  37 0002 7047     		bx	lr
  38              	.L3:
  39              		.align	2
  40              	.L2:
  41 0004 00000000 		.word	.LANCHOR0
  42              		.cfi_endproc
  43              	.LFE119:
  44              		.size	app_get_configuration, .-app_get_configuration
  45 0008 AFF30080 		.section	.text.app_set_configuration,"ax",%progbits
  45      AFF30080 
  46              		.align	2
  47              		.p2align 4,,15
  48              		.global	app_set_configuration
  49              		.thumb
  50              		.thumb_func
  51              		.type	app_set_configuration, %function
  52              	app_set_configuration:
  53              	.LFB120:
  54              		.loc 1 97 0
  55              		.cfi_startproc
  56              		@ args = 0, pretend = 0, frame = 0
ARM GAS  C:\Users\jsyoon\AppData\Local\Temp\ccwQnUU8.s 			page 2


  57              		@ frame_needed = 0, uses_anonymous_args = 0
  58              	.LVL0:
  59 0000 10B5     		push	{r4, lr}
  60              		.cfi_def_cfa_offset 8
  61              		.cfi_offset 4, -8
  62              		.cfi_offset 14, -4
  63              		.loc 1 98 0
  64 0002 0B4C     		ldr	r4, .L5
  65              		.loc 1 97 0
  66 0004 0146     		mov	r1, r0
  67              		.loc 1 98 0
  68 0006 8C22     		movs	r2, #140
  69 0008 2046     		mov	r0, r4
  70              	.LVL1:
  71 000a FFF7FEFF 		bl	memcpy
  72              	.LVL2:
  73              		.loc 1 99 0
  74 000e 04F11800 		add	r0, r4, #24
  75 0012 FFF7FEFF 		bl	app_ppm_configure
  76              	.LVL3:
  77              		.loc 1 100 0
  78 0016 04F14000 		add	r0, r4, #64
  79 001a FFF7FEFF 		bl	app_adc_configure
  80              	.LVL4:
  81              		.loc 1 101 0
  82 001e A06E     		ldr	r0, [r4, #104]
  83 0020 FFF7FEFF 		bl	app_uartcomm_configure
  84              	.LVL5:
  85              		.loc 1 102 0
  86 0024 04F16C00 		add	r0, r4, #108
  87              		.loc 1 103 0
  88 0028 BDE81040 		pop	{r4, lr}
  89              		.loc 1 102 0
  90 002c FFF7FEBF 		b	app_nunchuk_configure
  91              	.LVL6:
  92              	.L6:
  93              		.align	2
  94              	.L5:
  95 0030 00000000 		.word	.LANCHOR0
  96              		.cfi_endproc
  97              	.LFE120:
  98              		.size	app_set_configuration, .-app_set_configuration
  99 0034 AFF30080 		.section	.text.app_init,"ax",%progbits
  99      AFF30080 
  99      AFF30080 
 100              		.align	2
 101              		.p2align 4,,15
 102              		.global	app_init
 103              		.thumb
 104              		.thumb_func
 105              		.type	app_init, %function
 106              	app_init:
 107              	.LFB118:
 108              		.loc 1 34 0
 109              		.cfi_startproc
 110              		@ args = 0, pretend = 0, frame = 0
 111              		@ frame_needed = 0, uses_anonymous_args = 0
ARM GAS  C:\Users\jsyoon\AppData\Local\Temp\ccwQnUU8.s 			page 3


 112              	.LVL7:
 113 0000 08B5     		push	{r3, lr}
 114              		.cfi_def_cfa_offset 8
 115              		.cfi_offset 3, -8
 116              		.cfi_offset 14, -4
 117              		.loc 1 35 0
 118 0002 FFF7FEFF 		bl	app_set_configuration
 119              	.LVL8:
 120              		.loc 1 37 0
 121 0006 194B     		ldr	r3, .L18
 122 0008 1B7D     		ldrb	r3, [r3, #20]	@ zero_extendqisi2
 123 000a 013B     		subs	r3, r3, #1
 124 000c 062B     		cmp	r3, #6
 125 000e 2BD8     		bhi	.L7
 126 0010 DFE803F0 		tbb	[pc, r3]
 127              	.L10:
 128 0014 08       		.byte	(.L9-.L10)/2
 129 0015 0C       		.byte	(.L11-.L10)/2
 130 0016 10       		.byte	(.L12-.L10)/2
 131 0017 16       		.byte	(.L13-.L10)/2
 132 0018 1E       		.byte	(.L14-.L10)/2
 133 0019 26       		.byte	(.L15-.L10)/2
 134 001a 04       		.byte	(.L16-.L10)/2
 135 001b 00       		.p2align 1
 136              	.L16:
 137              		.loc 1 84 0
 138 001c BDE80840 		pop	{r3, lr}
 139              		.loc 1 68 0
 140 0020 FFF7FEBF 		b	nrf_driver_init
 141              	.LVL9:
 142              	.L9:
 143              		.loc 1 84 0
 144 0024 BDE80840 		pop	{r3, lr}
 145              		.loc 1 39 0
 146 0028 FFF7FEBF 		b	app_ppm_start
 147              	.LVL10:
 148              	.L11:
 149              		.loc 1 84 0
 150 002c BDE80840 		pop	{r3, lr}
 151              		.loc 1 43 0
 152 0030 FFF7FEBF 		b	app_adc_start
 153              	.LVL11:
 154              	.L12:
 155              		.loc 1 47 0
 156 0034 FFF7FEFF 		bl	hw_stop_i2c
 157              	.LVL12:
 158              		.loc 1 84 0
 159 0038 BDE80840 		pop	{r3, lr}
 160              		.loc 1 48 0
 161 003c FFF7FEBF 		b	app_uartcomm_start
 162              	.LVL13:
 163              	.L13:
 164              		.loc 1 52 0
 165 0040 FFF7FEFF 		bl	hw_stop_i2c
 166              	.LVL14:
 167              		.loc 1 53 0
 168 0044 FFF7FEFF 		bl	app_ppm_start
ARM GAS  C:\Users\jsyoon\AppData\Local\Temp\ccwQnUU8.s 			page 4


 169              	.LVL15:
 170              		.loc 1 84 0
 171 0048 BDE80840 		pop	{r3, lr}
 172              		.loc 1 54 0
 173 004c FFF7FEBF 		b	app_uartcomm_start
 174              	.LVL16:
 175              	.L14:
 176              		.loc 1 58 0
 177 0050 FFF7FEFF 		bl	hw_stop_i2c
 178              	.LVL17:
 179              		.loc 1 59 0
 180 0054 FFF7FEFF 		bl	app_adc_start
 181              	.LVL18:
 182              		.loc 1 84 0
 183 0058 BDE80840 		pop	{r3, lr}
 184              		.loc 1 60 0
 185 005c FFF7FEBF 		b	app_uartcomm_start
 186              	.LVL19:
 187              	.L15:
 188              		.loc 1 84 0
 189 0060 BDE80840 		pop	{r3, lr}
 190              		.loc 1 64 0
 191 0064 FFF7FEBF 		b	app_nunchuk_start
 192              	.LVL20:
 193              	.L7:
 194 0068 08BD     		pop	{r3, pc}
 195              	.L19:
 196 006a 00BF     		.align	2
 197              	.L18:
 198 006c 00000000 		.word	.LANCHOR0
 199              		.cfi_endproc
 200              	.LFE118:
 201              		.size	app_init, .-app_init
 202              		.section	.bss.appconf,"aw",%nobits
 203              		.align	2
 204              		.set	.LANCHOR0,. + 0
 205              		.type	appconf, %object
 206              		.size	appconf, 140
 207              	appconf:
 208 0000 00000000 		.space	140
 208      00000000 
 208      00000000 
 208      00000000 
 208      00000000 
 209              		.text
 210              	.Letext0:
 211              		.file 2 "c:\\crosstools\\gcc-arm-embedded\\4.8_2014q2\\arm-none-eabi\\include\\machine\\_default_t
 212              		.file 3 "c:\\crosstools\\gcc-arm-embedded\\4.8_2014q2\\arm-none-eabi\\include\\stdint.h"
 213              		.file 4 "./datatypes.h"
 214              		.file 5 "applications/app.h"
 215              		.file 6 "nrf/nrf_driver.h"
 216              		.file 7 "hwconf/hw.h"
 217              		.file 8 "ChibiOS_2.6.6/os/ports/common/ARMCMx/CMSIS/include/core_cm4.h"
 218              		.section	.debug_info,"",%progbits
 219              	.Ldebug_info0:
 220 0000 4E060000 		.4byte	0x64e
 221 0004 0400     		.2byte	0x4
ARM GAS  C:\Users\jsyoon\AppData\Local\Temp\ccwQnUU8.s 			page 5


 222 0006 00000000 		.4byte	.Ldebug_abbrev0
 223 000a 04       		.byte	0x4
 224 000b 01       		.uleb128 0x1
 225 000c 90010000 		.4byte	.LASF99
 226 0010 01       		.byte	0x1
 227 0011 1A040000 		.4byte	.LASF100
 228 0015 FE000000 		.4byte	.LASF101
 229 0019 00000000 		.4byte	.Ldebug_ranges0+0
 230 001d 00000000 		.4byte	0
 231 0021 00000000 		.4byte	.Ldebug_line0
 232 0025 02       		.uleb128 0x2
 233 0026 01       		.byte	0x1
 234 0027 06       		.byte	0x6
 235 0028 F9020000 		.4byte	.LASF0
 236 002c 03       		.uleb128 0x3
 237 002d 43030000 		.4byte	.LASF4
 238 0031 02       		.byte	0x2
 239 0032 1C       		.byte	0x1c
 240 0033 37000000 		.4byte	0x37
 241 0037 02       		.uleb128 0x2
 242 0038 01       		.byte	0x1
 243 0039 08       		.byte	0x8
 244 003a D1030000 		.4byte	.LASF1
 245 003e 02       		.uleb128 0x2
 246 003f 02       		.byte	0x2
 247 0040 05       		.byte	0x5
 248 0041 6E000000 		.4byte	.LASF2
 249 0045 02       		.uleb128 0x2
 250 0046 02       		.byte	0x2
 251 0047 07       		.byte	0x7
 252 0048 EB040000 		.4byte	.LASF3
 253 004c 03       		.uleb128 0x3
 254 004d 7F050000 		.4byte	.LASF5
 255 0051 02       		.byte	0x2
 256 0052 37       		.byte	0x37
 257 0053 57000000 		.4byte	0x57
 258 0057 02       		.uleb128 0x2
 259 0058 04       		.byte	0x4
 260 0059 05       		.byte	0x5
 261 005a 19030000 		.4byte	.LASF6
 262 005e 03       		.uleb128 0x3
 263 005f 50060000 		.4byte	.LASF7
 264 0063 02       		.byte	0x2
 265 0064 38       		.byte	0x38
 266 0065 69000000 		.4byte	0x69
 267 0069 02       		.uleb128 0x2
 268 006a 04       		.byte	0x4
 269 006b 07       		.byte	0x7
 270 006c CE050000 		.4byte	.LASF8
 271 0070 02       		.uleb128 0x2
 272 0071 08       		.byte	0x8
 273 0072 05       		.byte	0x5
 274 0073 0B030000 		.4byte	.LASF9
 275 0077 02       		.uleb128 0x2
 276 0078 08       		.byte	0x8
 277 0079 07       		.byte	0x7
 278 007a 44040000 		.4byte	.LASF10
ARM GAS  C:\Users\jsyoon\AppData\Local\Temp\ccwQnUU8.s 			page 6


 279 007e 04       		.uleb128 0x4
 280 007f 04       		.byte	0x4
 281 0080 05       		.byte	0x5
 282 0081 696E7400 		.ascii	"int\000"
 283 0085 02       		.uleb128 0x2
 284 0086 04       		.byte	0x4
 285 0087 07       		.byte	0x7
 286 0088 83040000 		.4byte	.LASF11
 287 008c 03       		.uleb128 0x3
 288 008d BC020000 		.4byte	.LASF12
 289 0091 03       		.byte	0x3
 290 0092 2A       		.byte	0x2a
 291 0093 2C000000 		.4byte	0x2c
 292 0097 03       		.uleb128 0x3
 293 0098 77050000 		.4byte	.LASF13
 294 009c 03       		.byte	0x3
 295 009d 41       		.byte	0x41
 296 009e 4C000000 		.4byte	0x4c
 297 00a2 03       		.uleb128 0x3
 298 00a3 68040000 		.4byte	.LASF14
 299 00a7 03       		.byte	0x3
 300 00a8 42       		.byte	0x42
 301 00a9 5E000000 		.4byte	0x5e
 302 00ad 02       		.uleb128 0x2
 303 00ae 01       		.byte	0x1
 304 00af 02       		.byte	0x2
 305 00b0 96050000 		.4byte	.LASF15
 306 00b4 05       		.uleb128 0x5
 307 00b5 04       		.byte	0x4
 308 00b6 02       		.uleb128 0x2
 309 00b7 04       		.byte	0x4
 310 00b8 07       		.byte	0x7
 311 00b9 A9000000 		.4byte	.LASF16
 312 00bd 02       		.uleb128 0x2
 313 00be 01       		.byte	0x1
 314 00bf 08       		.byte	0x8
 315 00c0 2A050000 		.4byte	.LASF17
 316 00c4 02       		.uleb128 0x2
 317 00c5 04       		.byte	0x4
 318 00c6 04       		.byte	0x4
 319 00c7 05030000 		.4byte	.LASF18
 320 00cb 06       		.uleb128 0x6
 321 00cc 01       		.byte	0x1
 322 00cd 04       		.byte	0x4
 323 00ce 95       		.byte	0x95
 324 00cf 0A010000 		.4byte	0x10a
 325 00d3 07       		.uleb128 0x7
 326 00d4 C5050000 		.4byte	.LASF19
 327 00d8 00       		.sleb128 0
 328 00d9 07       		.uleb128 0x7
 329 00da 9A030000 		.4byte	.LASF20
 330 00de 01       		.sleb128 1
 331 00df 07       		.uleb128 0x7
 332 00e0 64060000 		.4byte	.LASF21
 333 00e4 02       		.sleb128 2
 334 00e5 07       		.uleb128 0x7
 335 00e6 4D030000 		.4byte	.LASF22
ARM GAS  C:\Users\jsyoon\AppData\Local\Temp\ccwQnUU8.s 			page 7


 336 00ea 03       		.sleb128 3
 337 00eb 07       		.uleb128 0x7
 338 00ec D2020000 		.4byte	.LASF23
 339 00f0 04       		.sleb128 4
 340 00f1 07       		.uleb128 0x7
 341 00f2 5B040000 		.4byte	.LASF24
 342 00f6 05       		.sleb128 5
 343 00f7 07       		.uleb128 0x7
 344 00f8 B0060000 		.4byte	.LASF25
 345 00fc 06       		.sleb128 6
 346 00fd 07       		.uleb128 0x7
 347 00fe 33000000 		.4byte	.LASF26
 348 0102 07       		.sleb128 7
 349 0103 07       		.uleb128 0x7
 350 0104 EE020000 		.4byte	.LASF27
 351 0108 08       		.sleb128 8
 352 0109 00       		.byte	0
 353 010a 03       		.uleb128 0x3
 354 010b 96060000 		.4byte	.LASF28
 355 010f 04       		.byte	0x4
 356 0110 9F       		.byte	0x9f
 357 0111 CB000000 		.4byte	0xcb
 358 0115 06       		.uleb128 0x6
 359 0116 01       		.byte	0x1
 360 0117 04       		.byte	0x4
 361 0118 A2       		.byte	0xa2
 362 0119 4E010000 		.4byte	0x14e
 363 011d 07       		.uleb128 0x7
 364 011e 02060000 		.4byte	.LASF29
 365 0122 00       		.sleb128 0
 366 0123 07       		.uleb128 0x7
 367 0124 2E010000 		.4byte	.LASF30
 368 0128 01       		.sleb128 1
 369 0129 07       		.uleb128 0x7
 370 012a 68030000 		.4byte	.LASF31
 371 012e 02       		.sleb128 2
 372 012f 07       		.uleb128 0x7
 373 0130 C9040000 		.4byte	.LASF32
 374 0134 03       		.sleb128 3
 375 0135 07       		.uleb128 0x7
 376 0136 67010000 		.4byte	.LASF33
 377 013a 04       		.sleb128 4
 378 013b 07       		.uleb128 0x7
 379 013c 75070000 		.4byte	.LASF34
 380 0140 05       		.sleb128 5
 381 0141 07       		.uleb128 0x7
 382 0142 9E060000 		.4byte	.LASF35
 383 0146 06       		.sleb128 6
 384 0147 07       		.uleb128 0x7
 385 0148 B1040000 		.4byte	.LASF36
 386 014c 07       		.sleb128 7
 387 014d 00       		.byte	0
 388 014e 03       		.uleb128 0x3
 389 014f A0040000 		.4byte	.LASF37
 390 0153 04       		.byte	0x4
 391 0154 AB       		.byte	0xab
 392 0155 15010000 		.4byte	0x115
ARM GAS  C:\Users\jsyoon\AppData\Local\Temp\ccwQnUU8.s 			page 8


 393 0159 08       		.uleb128 0x8
 394 015a 28       		.byte	0x28
 395 015b 04       		.byte	0x4
 396 015c AD       		.byte	0xad
 397 015d F1010000 		.4byte	0x1f1
 398 0161 09       		.uleb128 0x9
 399 0162 8C060000 		.4byte	.LASF38
 400 0166 04       		.byte	0x4
 401 0167 AE       		.byte	0xae
 402 0168 4E010000 		.4byte	0x14e
 403 016c 00       		.byte	0
 404 016d 09       		.uleb128 0x9
 405 016e F9060000 		.4byte	.LASF39
 406 0172 04       		.byte	0x4
 407 0173 AF       		.byte	0xaf
 408 0174 C4000000 		.4byte	0xc4
 409 0178 04       		.byte	0x4
 410 0179 09       		.uleb128 0x9
 411 017a 15060000 		.4byte	.LASF40
 412 017e 04       		.byte	0x4
 413 017f B0       		.byte	0xb0
 414 0180 C4000000 		.4byte	0xc4
 415 0184 08       		.byte	0x8
 416 0185 09       		.uleb128 0x9
 417 0186 E2060000 		.4byte	.LASF41
 418 018a 04       		.byte	0x4
 419 018b B1       		.byte	0xb1
 420 018c C4000000 		.4byte	0xc4
 421 0190 0C       		.byte	0xc
 422 0191 09       		.uleb128 0x9
 423 0192 E4020000 		.4byte	.LASF42
 424 0196 04       		.byte	0x4
 425 0197 B2       		.byte	0xb2
 426 0198 C4000000 		.4byte	0xc4
 427 019c 10       		.byte	0x10
 428 019d 09       		.uleb128 0x9
 429 019e D7000000 		.4byte	.LASF43
 430 01a2 04       		.byte	0x4
 431 01a3 B3       		.byte	0xb3
 432 01a4 AD000000 		.4byte	0xad
 433 01a8 14       		.byte	0x14
 434 01a9 09       		.uleb128 0x9
 435 01aa 7A010000 		.4byte	.LASF44
 436 01ae 04       		.byte	0x4
 437 01af B4       		.byte	0xb4
 438 01b0 AD000000 		.4byte	0xad
 439 01b4 15       		.byte	0x15
 440 01b5 09       		.uleb128 0x9
 441 01b6 25000000 		.4byte	.LASF45
 442 01ba 04       		.byte	0x4
 443 01bb B5       		.byte	0xb5
 444 01bc C4000000 		.4byte	0xc4
 445 01c0 18       		.byte	0x18
 446 01c1 09       		.uleb128 0x9
 447 01c2 C5030000 		.4byte	.LASF46
 448 01c6 04       		.byte	0x4
 449 01c7 B6       		.byte	0xb6
ARM GAS  C:\Users\jsyoon\AppData\Local\Temp\ccwQnUU8.s 			page 9


 450 01c8 C4000000 		.4byte	0xc4
 451 01cc 1C       		.byte	0x1c
 452 01cd 09       		.uleb128 0x9
 453 01ce D8060000 		.4byte	.LASF47
 454 01d2 04       		.byte	0x4
 455 01d3 B7       		.byte	0xb7
 456 01d4 AD000000 		.4byte	0xad
 457 01d8 20       		.byte	0x20
 458 01d9 0A       		.uleb128 0xa
 459 01da 746300   		.ascii	"tc\000"
 460 01dd 04       		.byte	0x4
 461 01de B8       		.byte	0xb8
 462 01df AD000000 		.4byte	0xad
 463 01e3 21       		.byte	0x21
 464 01e4 09       		.uleb128 0x9
 465 01e5 78000000 		.4byte	.LASF48
 466 01e9 04       		.byte	0x4
 467 01ea B9       		.byte	0xb9
 468 01eb C4000000 		.4byte	0xc4
 469 01ef 24       		.byte	0x24
 470 01f0 00       		.byte	0
 471 01f1 03       		.uleb128 0x3
 472 01f2 F3000000 		.4byte	.LASF49
 473 01f6 04       		.byte	0x4
 474 01f7 BA       		.byte	0xba
 475 01f8 59010000 		.4byte	0x159
 476 01fc 06       		.uleb128 0x6
 477 01fd 01       		.byte	0x1
 478 01fe 04       		.byte	0x4
 479 01ff BD       		.byte	0xbd
 480 0200 3B020000 		.4byte	0x23b
 481 0204 07       		.uleb128 0x7
 482 0205 84000000 		.4byte	.LASF50
 483 0209 00       		.sleb128 0
 484 020a 07       		.uleb128 0x7
 485 020b 46000000 		.4byte	.LASF51
 486 020f 01       		.sleb128 1
 487 0210 07       		.uleb128 0x7
 488 0211 22030000 		.4byte	.LASF52
 489 0215 02       		.sleb128 2
 490 0216 07       		.uleb128 0x7
 491 0217 56050000 		.4byte	.LASF53
 492 021b 03       		.sleb128 3
 493 021c 07       		.uleb128 0x7
 494 021d 27060000 		.4byte	.LASF54
 495 0221 04       		.sleb128 4
 496 0222 07       		.uleb128 0x7
 497 0223 9C050000 		.4byte	.LASF55
 498 0227 05       		.sleb128 5
 499 0228 07       		.uleb128 0x7
 500 0229 F1030000 		.4byte	.LASF56
 501 022d 06       		.sleb128 6
 502 022e 07       		.uleb128 0x7
 503 022f 0C050000 		.4byte	.LASF57
 504 0233 07       		.sleb128 7
 505 0234 07       		.uleb128 0x7
 506 0235 23070000 		.4byte	.LASF58
ARM GAS  C:\Users\jsyoon\AppData\Local\Temp\ccwQnUU8.s 			page 10


 507 0239 08       		.sleb128 8
 508 023a 00       		.byte	0
 509 023b 03       		.uleb128 0x3
 510 023c B2000000 		.4byte	.LASF59
 511 0240 04       		.byte	0x4
 512 0241 C7       		.byte	0xc7
 513 0242 FC010000 		.4byte	0x1fc
 514 0246 08       		.uleb128 0x8
 515 0247 28       		.byte	0x28
 516 0248 04       		.byte	0x4
 517 0249 C9       		.byte	0xc9
 518 024a F6020000 		.4byte	0x2f6
 519 024e 09       		.uleb128 0x9
 520 024f 8C060000 		.4byte	.LASF38
 521 0253 04       		.byte	0x4
 522 0254 CA       		.byte	0xca
 523 0255 3B020000 		.4byte	0x23b
 524 0259 00       		.byte	0
 525 025a 09       		.uleb128 0x9
 526 025b 15060000 		.4byte	.LASF40
 527 025f 04       		.byte	0x4
 528 0260 CB       		.byte	0xcb
 529 0261 C4000000 		.4byte	0xc4
 530 0265 04       		.byte	0x4
 531 0266 09       		.uleb128 0x9
 532 0267 44010000 		.4byte	.LASF60
 533 026b 04       		.byte	0x4
 534 026c CC       		.byte	0xcc
 535 026d C4000000 		.4byte	0xc4
 536 0271 08       		.byte	0x8
 537 0272 09       		.uleb128 0x9
 538 0273 BC060000 		.4byte	.LASF61
 539 0277 04       		.byte	0x4
 540 0278 CD       		.byte	0xcd
 541 0279 C4000000 		.4byte	0xc4
 542 027d 0C       		.byte	0xc
 543 027e 09       		.uleb128 0x9
 544 027f 85010000 		.4byte	.LASF62
 545 0283 04       		.byte	0x4
 546 0284 CE       		.byte	0xce
 547 0285 AD000000 		.4byte	0xad
 548 0289 10       		.byte	0x10
 549 028a 09       		.uleb128 0x9
 550 028b 7A010000 		.4byte	.LASF44
 551 028f 04       		.byte	0x4
 552 0290 CF       		.byte	0xcf
 553 0291 AD000000 		.4byte	0xad
 554 0295 11       		.byte	0x11
 555 0296 09       		.uleb128 0x9
 556 0297 90040000 		.4byte	.LASF63
 557 029b 04       		.byte	0x4
 558 029c D0       		.byte	0xd0
 559 029d AD000000 		.4byte	0xad
 560 02a1 12       		.byte	0x12
 561 02a2 09       		.uleb128 0x9
 562 02a3 4E070000 		.4byte	.LASF64
 563 02a7 04       		.byte	0x4
ARM GAS  C:\Users\jsyoon\AppData\Local\Temp\ccwQnUU8.s 			page 11


 564 02a8 D1       		.byte	0xd1
 565 02a9 AD000000 		.4byte	0xad
 566 02ad 13       		.byte	0x13
 567 02ae 09       		.uleb128 0x9
 568 02af 25000000 		.4byte	.LASF45
 569 02b3 04       		.byte	0x4
 570 02b4 D2       		.byte	0xd2
 571 02b5 C4000000 		.4byte	0xc4
 572 02b9 14       		.byte	0x14
 573 02ba 09       		.uleb128 0x9
 574 02bb C5030000 		.4byte	.LASF46
 575 02bf 04       		.byte	0x4
 576 02c0 D3       		.byte	0xd3
 577 02c1 C4000000 		.4byte	0xc4
 578 02c5 18       		.byte	0x18
 579 02c6 09       		.uleb128 0x9
 580 02c7 D8060000 		.4byte	.LASF47
 581 02cb 04       		.byte	0x4
 582 02cc D4       		.byte	0xd4
 583 02cd AD000000 		.4byte	0xad
 584 02d1 1C       		.byte	0x1c
 585 02d2 0A       		.uleb128 0xa
 586 02d3 746300   		.ascii	"tc\000"
 587 02d6 04       		.byte	0x4
 588 02d7 D5       		.byte	0xd5
 589 02d8 AD000000 		.4byte	0xad
 590 02dc 1D       		.byte	0x1d
 591 02dd 09       		.uleb128 0x9
 592 02de 78000000 		.4byte	.LASF48
 593 02e2 04       		.byte	0x4
 594 02e3 D6       		.byte	0xd6
 595 02e4 C4000000 		.4byte	0xc4
 596 02e8 20       		.byte	0x20
 597 02e9 09       		.uleb128 0x9
 598 02ea 47050000 		.4byte	.LASF65
 599 02ee 04       		.byte	0x4
 600 02ef D7       		.byte	0xd7
 601 02f0 A2000000 		.4byte	0xa2
 602 02f4 24       		.byte	0x24
 603 02f5 00       		.byte	0
 604 02f6 03       		.uleb128 0x3
 605 02f7 EE060000 		.4byte	.LASF66
 606 02fb 04       		.byte	0x4
 607 02fc D8       		.byte	0xd8
 608 02fd 46020000 		.4byte	0x246
 609 0301 06       		.uleb128 0x6
 610 0302 01       		.byte	0x1
 611 0303 04       		.byte	0x4
 612 0304 DB       		.byte	0xdb
 613 0305 1C030000 		.4byte	0x31c
 614 0309 07       		.uleb128 0x7
 615 030a C3000000 		.4byte	.LASF67
 616 030e 00       		.sleb128 0
 617 030f 07       		.uleb128 0x7
 618 0310 0E000000 		.4byte	.LASF68
 619 0314 01       		.sleb128 1
 620 0315 07       		.uleb128 0x7
ARM GAS  C:\Users\jsyoon\AppData\Local\Temp\ccwQnUU8.s 			page 12


 621 0316 06070000 		.4byte	.LASF69
 622 031a 02       		.sleb128 2
 623 031b 00       		.byte	0
 624 031c 03       		.uleb128 0x3
 625 031d 6C060000 		.4byte	.LASF70
 626 0321 04       		.byte	0x4
 627 0322 DF       		.byte	0xdf
 628 0323 01030000 		.4byte	0x301
 629 0327 08       		.uleb128 0x8
 630 0328 20       		.byte	0x20
 631 0329 04       		.byte	0x4
 632 032a E1       		.byte	0xe1
 633 032b 9B030000 		.4byte	0x39b
 634 032f 09       		.uleb128 0x9
 635 0330 8C060000 		.4byte	.LASF38
 636 0334 04       		.byte	0x4
 637 0335 E2       		.byte	0xe2
 638 0336 1C030000 		.4byte	0x31c
 639 033a 00       		.byte	0
 640 033b 09       		.uleb128 0x9
 641 033c 15060000 		.4byte	.LASF40
 642 0340 04       		.byte	0x4
 643 0341 E3       		.byte	0xe3
 644 0342 C4000000 		.4byte	0xc4
 645 0346 04       		.byte	0x4
 646 0347 09       		.uleb128 0x9
 647 0348 25000000 		.4byte	.LASF45
 648 034c 04       		.byte	0x4
 649 034d E4       		.byte	0xe4
 650 034e C4000000 		.4byte	0xc4
 651 0352 08       		.byte	0x8
 652 0353 09       		.uleb128 0x9
 653 0354 C5030000 		.4byte	.LASF46
 654 0358 04       		.byte	0x4
 655 0359 E5       		.byte	0xe5
 656 035a C4000000 		.4byte	0xc4
 657 035e 0C       		.byte	0xc
 658 035f 09       		.uleb128 0x9
 659 0360 00000000 		.4byte	.LASF71
 660 0364 04       		.byte	0x4
 661 0365 E6       		.byte	0xe6
 662 0366 C4000000 		.4byte	0xc4
 663 036a 10       		.byte	0x10
 664 036b 09       		.uleb128 0x9
 665 036c E5000000 		.4byte	.LASF72
 666 0370 04       		.byte	0x4
 667 0371 E7       		.byte	0xe7
 668 0372 C4000000 		.4byte	0xc4
 669 0376 14       		.byte	0x14
 670 0377 09       		.uleb128 0x9
 671 0378 D8060000 		.4byte	.LASF47
 672 037c 04       		.byte	0x4
 673 037d E8       		.byte	0xe8
 674 037e AD000000 		.4byte	0xad
 675 0382 18       		.byte	0x18
 676 0383 0A       		.uleb128 0xa
 677 0384 746300   		.ascii	"tc\000"
ARM GAS  C:\Users\jsyoon\AppData\Local\Temp\ccwQnUU8.s 			page 13


 678 0387 04       		.byte	0x4
 679 0388 E9       		.byte	0xe9
 680 0389 AD000000 		.4byte	0xad
 681 038d 19       		.byte	0x19
 682 038e 09       		.uleb128 0x9
 683 038f 78000000 		.4byte	.LASF48
 684 0393 04       		.byte	0x4
 685 0394 EA       		.byte	0xea
 686 0395 C4000000 		.4byte	0xc4
 687 0399 1C       		.byte	0x1c
 688 039a 00       		.byte	0
 689 039b 03       		.uleb128 0x3
 690 039c E0050000 		.4byte	.LASF73
 691 03a0 04       		.byte	0x4
 692 03a1 EB       		.byte	0xeb
 693 03a2 27030000 		.4byte	0x327
 694 03a6 08       		.uleb128 0x8
 695 03a7 8C       		.byte	0x8c
 696 03a8 04       		.byte	0x4
 697 03a9 ED       		.byte	0xed
 698 03aa 28040000 		.4byte	0x428
 699 03ae 09       		.uleb128 0x9
 700 03af 7E060000 		.4byte	.LASF74
 701 03b3 04       		.byte	0x4
 702 03b4 EF       		.byte	0xef
 703 03b5 8C000000 		.4byte	0x8c
 704 03b9 00       		.byte	0
 705 03ba 09       		.uleb128 0x9
 706 03bb 41070000 		.4byte	.LASF75
 707 03bf 04       		.byte	0x4
 708 03c0 F0       		.byte	0xf0
 709 03c1 A2000000 		.4byte	0xa2
 710 03c5 04       		.byte	0x4
 711 03c6 09       		.uleb128 0x9
 712 03c7 84030000 		.4byte	.LASF76
 713 03cb 04       		.byte	0x4
 714 03cc F1       		.byte	0xf1
 715 03cd C4000000 		.4byte	0xc4
 716 03d1 08       		.byte	0x8
 717 03d2 09       		.uleb128 0x9
 718 03d3 C8060000 		.4byte	.LASF77
 719 03d7 04       		.byte	0x4
 720 03d8 F2       		.byte	0xf2
 721 03d9 AD000000 		.4byte	0xad
 722 03dd 0C       		.byte	0xc
 723 03de 09       		.uleb128 0x9
 724 03df 2F050000 		.4byte	.LASF78
 725 03e3 04       		.byte	0x4
 726 03e4 F3       		.byte	0xf3
 727 03e5 A2000000 		.4byte	0xa2
 728 03e9 10       		.byte	0x10
 729 03ea 09       		.uleb128 0x9
 730 03eb 3B000000 		.4byte	.LASF79
 731 03ef 04       		.byte	0x4
 732 03f0 F6       		.byte	0xf6
 733 03f1 0A010000 		.4byte	0x10a
 734 03f5 14       		.byte	0x14
ARM GAS  C:\Users\jsyoon\AppData\Local\Temp\ccwQnUU8.s 			page 14


 735 03f6 09       		.uleb128 0x9
 736 03f7 89050000 		.4byte	.LASF80
 737 03fb 04       		.byte	0x4
 738 03fc F9       		.byte	0xf9
 739 03fd F1010000 		.4byte	0x1f1
 740 0401 18       		.byte	0x18
 741 0402 09       		.uleb128 0x9
 742 0403 8E070000 		.4byte	.LASF81
 743 0407 04       		.byte	0x4
 744 0408 FC       		.byte	0xfc
 745 0409 F6020000 		.4byte	0x2f6
 746 040d 40       		.byte	0x40
 747 040e 09       		.uleb128 0x9
 748 040f DF030000 		.4byte	.LASF82
 749 0413 04       		.byte	0x4
 750 0414 FF       		.byte	0xff
 751 0415 A2000000 		.4byte	0xa2
 752 0419 68       		.byte	0x68
 753 041a 0B       		.uleb128 0xb
 754 041b FE040000 		.4byte	.LASF83
 755 041f 04       		.byte	0x4
 756 0420 0201     		.2byte	0x102
 757 0422 9B030000 		.4byte	0x39b
 758 0426 6C       		.byte	0x6c
 759 0427 00       		.byte	0
 760 0428 0C       		.uleb128 0xc
 761 0429 56030000 		.4byte	.LASF84
 762 042d 04       		.byte	0x4
 763 042e 0301     		.2byte	0x103
 764 0430 A6030000 		.4byte	0x3a6
 765 0434 0D       		.uleb128 0xd
 766 0435 97000000 		.4byte	0x97
 767 0439 0E       		.uleb128 0xe
 768 043a 5F070000 		.4byte	.LASF102
 769 043e 01       		.byte	0x1
 770 043f 56       		.byte	0x56
 771 0440 4E040000 		.4byte	0x44e
 772 0444 00000000 		.4byte	.LFB119
 773 0448 08000000 		.4byte	.LFE119-.LFB119
 774 044c 01       		.uleb128 0x1
 775 044d 9C       		.byte	0x9c
 776 044e 0F       		.uleb128 0xf
 777 044f 04       		.byte	0x4
 778 0450 54040000 		.4byte	0x454
 779 0454 10       		.uleb128 0x10
 780 0455 28040000 		.4byte	0x428
 781 0459 11       		.uleb128 0x11
 782 045a 04040000 		.4byte	.LASF85
 783 045e 01       		.byte	0x1
 784 045f 61       		.byte	0x61
 785 0460 00000000 		.4byte	.LFB120
 786 0464 34000000 		.4byte	.LFE120-.LFB120
 787 0468 01       		.uleb128 0x1
 788 0469 9C       		.byte	0x9c
 789 046a E4040000 		.4byte	0x4e4
 790 046e 12       		.uleb128 0x12
 791 046f DF020000 		.4byte	.LASF87
ARM GAS  C:\Users\jsyoon\AppData\Local\Temp\ccwQnUU8.s 			page 15


 792 0473 01       		.byte	0x1
 793 0474 61       		.byte	0x61
 794 0475 E4040000 		.4byte	0x4e4
 795 0479 00000000 		.4byte	.LLST0
 796 047d 13       		.uleb128 0x13
 797 047e 0E000000 		.4byte	.LVL2
 798 0482 AD050000 		.4byte	0x5ad
 799 0486 9E040000 		.4byte	0x49e
 800 048a 14       		.uleb128 0x14
 801 048b 01       		.uleb128 0x1
 802 048c 52       		.byte	0x52
 803 048d 02       		.uleb128 0x2
 804 048e 08       		.byte	0x8
 805 048f 8C       		.byte	0x8c
 806 0490 14       		.uleb128 0x14
 807 0491 01       		.uleb128 0x1
 808 0492 51       		.byte	0x51
 809 0493 03       		.uleb128 0x3
 810 0494 F3       		.byte	0xf3
 811 0495 01       		.uleb128 0x1
 812 0496 50       		.byte	0x50
 813 0497 14       		.uleb128 0x14
 814 0498 01       		.uleb128 0x1
 815 0499 50       		.byte	0x50
 816 049a 02       		.uleb128 0x2
 817 049b 74       		.byte	0x74
 818 049c 00       		.sleb128 0
 819 049d 00       		.byte	0
 820 049e 13       		.uleb128 0x13
 821 049f 16000000 		.4byte	.LVL3
 822 04a3 D1050000 		.4byte	0x5d1
 823 04a7 B2040000 		.4byte	0x4b2
 824 04ab 14       		.uleb128 0x14
 825 04ac 01       		.uleb128 0x1
 826 04ad 50       		.byte	0x50
 827 04ae 02       		.uleb128 0x2
 828 04af 74       		.byte	0x74
 829 04b0 18       		.sleb128 24
 830 04b1 00       		.byte	0
 831 04b2 13       		.uleb128 0x13
 832 04b3 1E000000 		.4byte	.LVL4
 833 04b7 E8050000 		.4byte	0x5e8
 834 04bb C7040000 		.4byte	0x4c7
 835 04bf 14       		.uleb128 0x14
 836 04c0 01       		.uleb128 0x1
 837 04c1 50       		.byte	0x50
 838 04c2 03       		.uleb128 0x3
 839 04c3 74       		.byte	0x74
 840 04c4 C000     		.sleb128 64
 841 04c6 00       		.byte	0
 842 04c7 15       		.uleb128 0x15
 843 04c8 24000000 		.4byte	.LVL5
 844 04cc FF050000 		.4byte	0x5ff
 845 04d0 16       		.uleb128 0x16
 846 04d1 30000000 		.4byte	.LVL6
 847 04d5 10060000 		.4byte	0x610
 848 04d9 14       		.uleb128 0x14
ARM GAS  C:\Users\jsyoon\AppData\Local\Temp\ccwQnUU8.s 			page 16


 849 04da 01       		.uleb128 0x1
 850 04db 50       		.byte	0x50
 851 04dc 05       		.uleb128 0x5
 852 04dd 03       		.byte	0x3
 853 04de 6C000000 		.4byte	.LANCHOR0+108
 854 04e2 00       		.byte	0
 855 04e3 00       		.byte	0
 856 04e4 0F       		.uleb128 0xf
 857 04e5 04       		.byte	0x4
 858 04e6 28040000 		.4byte	0x428
 859 04ea 11       		.uleb128 0x11
 860 04eb 5B060000 		.4byte	.LASF86
 861 04ef 01       		.byte	0x1
 862 04f0 22       		.byte	0x22
 863 04f1 00000000 		.4byte	.LFB118
 864 04f5 70000000 		.4byte	.LFE118-.LFB118
 865 04f9 01       		.uleb128 0x1
 866 04fa 9C       		.byte	0x9c
 867 04fb 90050000 		.4byte	0x590
 868 04ff 12       		.uleb128 0x12
 869 0500 DF020000 		.4byte	.LASF87
 870 0504 01       		.byte	0x1
 871 0505 22       		.byte	0x22
 872 0506 E4040000 		.4byte	0x4e4
 873 050a 2C000000 		.4byte	.LLST1
 874 050e 13       		.uleb128 0x13
 875 050f 06000000 		.4byte	.LVL8
 876 0513 59040000 		.4byte	0x459
 877 0517 23050000 		.4byte	0x523
 878 051b 14       		.uleb128 0x14
 879 051c 01       		.uleb128 0x1
 880 051d 50       		.byte	0x50
 881 051e 03       		.uleb128 0x3
 882 051f F3       		.byte	0xf3
 883 0520 01       		.uleb128 0x1
 884 0521 50       		.byte	0x50
 885 0522 00       		.byte	0
 886 0523 17       		.uleb128 0x17
 887 0524 24000000 		.4byte	.LVL9
 888 0528 27060000 		.4byte	0x627
 889 052c 17       		.uleb128 0x17
 890 052d 2C000000 		.4byte	.LVL10
 891 0531 2E060000 		.4byte	0x62e
 892 0535 17       		.uleb128 0x17
 893 0536 34000000 		.4byte	.LVL11
 894 053a 35060000 		.4byte	0x635
 895 053e 15       		.uleb128 0x15
 896 053f 38000000 		.4byte	.LVL12
 897 0543 3C060000 		.4byte	0x63c
 898 0547 17       		.uleb128 0x17
 899 0548 40000000 		.4byte	.LVL13
 900 054c 43060000 		.4byte	0x643
 901 0550 15       		.uleb128 0x15
 902 0551 44000000 		.4byte	.LVL14
 903 0555 3C060000 		.4byte	0x63c
 904 0559 15       		.uleb128 0x15
 905 055a 48000000 		.4byte	.LVL15
ARM GAS  C:\Users\jsyoon\AppData\Local\Temp\ccwQnUU8.s 			page 17


 906 055e 2E060000 		.4byte	0x62e
 907 0562 17       		.uleb128 0x17
 908 0563 50000000 		.4byte	.LVL16
 909 0567 43060000 		.4byte	0x643
 910 056b 15       		.uleb128 0x15
 911 056c 54000000 		.4byte	.LVL17
 912 0570 3C060000 		.4byte	0x63c
 913 0574 15       		.uleb128 0x15
 914 0575 58000000 		.4byte	.LVL18
 915 0579 35060000 		.4byte	0x635
 916 057d 17       		.uleb128 0x17
 917 057e 60000000 		.4byte	.LVL19
 918 0582 43060000 		.4byte	0x643
 919 0586 17       		.uleb128 0x17
 920 0587 68000000 		.4byte	.LVL20
 921 058b 4A060000 		.4byte	0x64a
 922 058f 00       		.byte	0
 923 0590 18       		.uleb128 0x18
 924 0591 B4020000 		.4byte	.LASF103
 925 0595 01       		.byte	0x1
 926 0596 20       		.byte	0x20
 927 0597 28040000 		.4byte	0x428
 928 059b 05       		.uleb128 0x5
 929 059c 03       		.byte	0x3
 930 059d 00000000 		.4byte	appconf
 931 05a1 19       		.uleb128 0x19
 932 05a2 1A060000 		.4byte	.LASF104
 933 05a6 08       		.byte	0x8
 934 05a7 9806     		.2byte	0x698
 935 05a9 34040000 		.4byte	0x434
 936 05ad 1A       		.uleb128 0x1a
 937 05ae 60010000 		.4byte	.LASF88
 938 05b2 B4000000 		.4byte	0xb4
 939 05b6 CA050000 		.4byte	0x5ca
 940 05ba 1B       		.uleb128 0x1b
 941 05bb B4000000 		.4byte	0xb4
 942 05bf 1B       		.uleb128 0x1b
 943 05c0 CA050000 		.4byte	0x5ca
 944 05c4 1B       		.uleb128 0x1b
 945 05c5 B6000000 		.4byte	0xb6
 946 05c9 00       		.byte	0
 947 05ca 0F       		.uleb128 0xf
 948 05cb 04       		.byte	0x4
 949 05cc D0050000 		.4byte	0x5d0
 950 05d0 1C       		.uleb128 0x1c
 951 05d1 1D       		.uleb128 0x1d
 952 05d2 71040000 		.4byte	.LASF89
 953 05d6 05       		.byte	0x5
 954 05d7 25       		.byte	0x25
 955 05d8 E2050000 		.4byte	0x5e2
 956 05dc 1B       		.uleb128 0x1b
 957 05dd E2050000 		.4byte	0x5e2
 958 05e1 00       		.byte	0
 959 05e2 0F       		.uleb128 0xf
 960 05e3 04       		.byte	0x4
 961 05e4 F1010000 		.4byte	0x1f1
 962 05e8 1D       		.uleb128 0x1d
ARM GAS  C:\Users\jsyoon\AppData\Local\Temp\ccwQnUU8.s 			page 18


 963 05e9 97000000 		.4byte	.LASF90
 964 05ed 05       		.byte	0x5
 965 05ee 27       		.byte	0x27
 966 05ef F9050000 		.4byte	0x5f9
 967 05f3 1B       		.uleb128 0x1b
 968 05f4 F9050000 		.4byte	0x5f9
 969 05f8 00       		.byte	0
 970 05f9 0F       		.uleb128 0xf
 971 05fa 04       		.byte	0x4
 972 05fb F6020000 		.4byte	0x2f6
 973 05ff 1D       		.uleb128 0x1d
 974 0600 2D040000 		.4byte	.LASF91
 975 0604 05       		.byte	0x5
 976 0605 2B       		.byte	0x2b
 977 0606 10060000 		.4byte	0x610
 978 060a 1B       		.uleb128 0x1b
 979 060b A2000000 		.4byte	0xa2
 980 060f 00       		.byte	0
 981 0610 1D       		.uleb128 0x1d
 982 0611 EC050000 		.4byte	.LASF92
 983 0615 05       		.byte	0x5
 984 0616 2D       		.byte	0x2d
 985 0617 21060000 		.4byte	0x621
 986 061b 1B       		.uleb128 0x1b
 987 061c 21060000 		.4byte	0x621
 988 0620 00       		.byte	0
 989 0621 0F       		.uleb128 0xf
 990 0622 04       		.byte	0x4
 991 0623 9B030000 		.4byte	0x39b
 992 0627 1E       		.uleb128 0x1e
 993 0628 A2030000 		.4byte	.LASF93
 994 062c 06       		.byte	0x6
 995 062d 1D       		.byte	0x1d
 996 062e 1E       		.uleb128 0x1e
 997 062f C4020000 		.4byte	.LASF94
 998 0633 05       		.byte	0x5
 999 0634 24       		.byte	0x24
 1000 0635 1E       		.uleb128 0x1e
 1001 0636 52010000 		.4byte	.LASF95
 1002 063a 05       		.byte	0x5
 1003 063b 26       		.byte	0x26
 1004 063c 1E       		.uleb128 0x1e
 1005 063d 9B070000 		.4byte	.LASF96
 1006 0641 07       		.byte	0x7
 1007 0642 33       		.byte	0x33
 1008 0643 1E       		.uleb128 0x1e
 1009 0644 B2030000 		.4byte	.LASF97
 1010 0648 05       		.byte	0x5
 1011 0649 2A       		.byte	0x2a
 1012 064a 1E       		.uleb128 0x1e
 1013 064b 5C000000 		.4byte	.LASF98
 1014 064f 05       		.byte	0x5
 1015 0650 2C       		.byte	0x2c
 1016 0651 00       		.byte	0
 1017              		.section	.debug_abbrev,"",%progbits
 1018              	.Ldebug_abbrev0:
 1019 0000 01       		.uleb128 0x1
ARM GAS  C:\Users\jsyoon\AppData\Local\Temp\ccwQnUU8.s 			page 19


 1020 0001 11       		.uleb128 0x11
 1021 0002 01       		.byte	0x1
 1022 0003 25       		.uleb128 0x25
 1023 0004 0E       		.uleb128 0xe
 1024 0005 13       		.uleb128 0x13
 1025 0006 0B       		.uleb128 0xb
 1026 0007 03       		.uleb128 0x3
 1027 0008 0E       		.uleb128 0xe
 1028 0009 1B       		.uleb128 0x1b
 1029 000a 0E       		.uleb128 0xe
 1030 000b 55       		.uleb128 0x55
 1031 000c 17       		.uleb128 0x17
 1032 000d 11       		.uleb128 0x11
 1033 000e 01       		.uleb128 0x1
 1034 000f 10       		.uleb128 0x10
 1035 0010 17       		.uleb128 0x17
 1036 0011 00       		.byte	0
 1037 0012 00       		.byte	0
 1038 0013 02       		.uleb128 0x2
 1039 0014 24       		.uleb128 0x24
 1040 0015 00       		.byte	0
 1041 0016 0B       		.uleb128 0xb
 1042 0017 0B       		.uleb128 0xb
 1043 0018 3E       		.uleb128 0x3e
 1044 0019 0B       		.uleb128 0xb
 1045 001a 03       		.uleb128 0x3
 1046 001b 0E       		.uleb128 0xe
 1047 001c 00       		.byte	0
 1048 001d 00       		.byte	0
 1049 001e 03       		.uleb128 0x3
 1050 001f 16       		.uleb128 0x16
 1051 0020 00       		.byte	0
 1052 0021 03       		.uleb128 0x3
 1053 0022 0E       		.uleb128 0xe
 1054 0023 3A       		.uleb128 0x3a
 1055 0024 0B       		.uleb128 0xb
 1056 0025 3B       		.uleb128 0x3b
 1057 0026 0B       		.uleb128 0xb
 1058 0027 49       		.uleb128 0x49
 1059 0028 13       		.uleb128 0x13
 1060 0029 00       		.byte	0
 1061 002a 00       		.byte	0
 1062 002b 04       		.uleb128 0x4
 1063 002c 24       		.uleb128 0x24
 1064 002d 00       		.byte	0
 1065 002e 0B       		.uleb128 0xb
 1066 002f 0B       		.uleb128 0xb
 1067 0030 3E       		.uleb128 0x3e
 1068 0031 0B       		.uleb128 0xb
 1069 0032 03       		.uleb128 0x3
 1070 0033 08       		.uleb128 0x8
 1071 0034 00       		.byte	0
 1072 0035 00       		.byte	0
 1073 0036 05       		.uleb128 0x5
 1074 0037 0F       		.uleb128 0xf
 1075 0038 00       		.byte	0
 1076 0039 0B       		.uleb128 0xb
ARM GAS  C:\Users\jsyoon\AppData\Local\Temp\ccwQnUU8.s 			page 20


 1077 003a 0B       		.uleb128 0xb
 1078 003b 00       		.byte	0
 1079 003c 00       		.byte	0
 1080 003d 06       		.uleb128 0x6
 1081 003e 04       		.uleb128 0x4
 1082 003f 01       		.byte	0x1
 1083 0040 0B       		.uleb128 0xb
 1084 0041 0B       		.uleb128 0xb
 1085 0042 3A       		.uleb128 0x3a
 1086 0043 0B       		.uleb128 0xb
 1087 0044 3B       		.uleb128 0x3b
 1088 0045 0B       		.uleb128 0xb
 1089 0046 01       		.uleb128 0x1
 1090 0047 13       		.uleb128 0x13
 1091 0048 00       		.byte	0
 1092 0049 00       		.byte	0
 1093 004a 07       		.uleb128 0x7
 1094 004b 28       		.uleb128 0x28
 1095 004c 00       		.byte	0
 1096 004d 03       		.uleb128 0x3
 1097 004e 0E       		.uleb128 0xe
 1098 004f 1C       		.uleb128 0x1c
 1099 0050 0D       		.uleb128 0xd
 1100 0051 00       		.byte	0
 1101 0052 00       		.byte	0
 1102 0053 08       		.uleb128 0x8
 1103 0054 13       		.uleb128 0x13
 1104 0055 01       		.byte	0x1
 1105 0056 0B       		.uleb128 0xb
 1106 0057 0B       		.uleb128 0xb
 1107 0058 3A       		.uleb128 0x3a
 1108 0059 0B       		.uleb128 0xb
 1109 005a 3B       		.uleb128 0x3b
 1110 005b 0B       		.uleb128 0xb
 1111 005c 01       		.uleb128 0x1
 1112 005d 13       		.uleb128 0x13
 1113 005e 00       		.byte	0
 1114 005f 00       		.byte	0
 1115 0060 09       		.uleb128 0x9
 1116 0061 0D       		.uleb128 0xd
 1117 0062 00       		.byte	0
 1118 0063 03       		.uleb128 0x3
 1119 0064 0E       		.uleb128 0xe
 1120 0065 3A       		.uleb128 0x3a
 1121 0066 0B       		.uleb128 0xb
 1122 0067 3B       		.uleb128 0x3b
 1123 0068 0B       		.uleb128 0xb
 1124 0069 49       		.uleb128 0x49
 1125 006a 13       		.uleb128 0x13
 1126 006b 38       		.uleb128 0x38
 1127 006c 0B       		.uleb128 0xb
 1128 006d 00       		.byte	0
 1129 006e 00       		.byte	0
 1130 006f 0A       		.uleb128 0xa
 1131 0070 0D       		.uleb128 0xd
 1132 0071 00       		.byte	0
 1133 0072 03       		.uleb128 0x3
ARM GAS  C:\Users\jsyoon\AppData\Local\Temp\ccwQnUU8.s 			page 21


 1134 0073 08       		.uleb128 0x8
 1135 0074 3A       		.uleb128 0x3a
 1136 0075 0B       		.uleb128 0xb
 1137 0076 3B       		.uleb128 0x3b
 1138 0077 0B       		.uleb128 0xb
 1139 0078 49       		.uleb128 0x49
 1140 0079 13       		.uleb128 0x13
 1141 007a 38       		.uleb128 0x38
 1142 007b 0B       		.uleb128 0xb
 1143 007c 00       		.byte	0
 1144 007d 00       		.byte	0
 1145 007e 0B       		.uleb128 0xb
 1146 007f 0D       		.uleb128 0xd
 1147 0080 00       		.byte	0
 1148 0081 03       		.uleb128 0x3
 1149 0082 0E       		.uleb128 0xe
 1150 0083 3A       		.uleb128 0x3a
 1151 0084 0B       		.uleb128 0xb
 1152 0085 3B       		.uleb128 0x3b
 1153 0086 05       		.uleb128 0x5
 1154 0087 49       		.uleb128 0x49
 1155 0088 13       		.uleb128 0x13
 1156 0089 38       		.uleb128 0x38
 1157 008a 0B       		.uleb128 0xb
 1158 008b 00       		.byte	0
 1159 008c 00       		.byte	0
 1160 008d 0C       		.uleb128 0xc
 1161 008e 16       		.uleb128 0x16
 1162 008f 00       		.byte	0
 1163 0090 03       		.uleb128 0x3
 1164 0091 0E       		.uleb128 0xe
 1165 0092 3A       		.uleb128 0x3a
 1166 0093 0B       		.uleb128 0xb
 1167 0094 3B       		.uleb128 0x3b
 1168 0095 05       		.uleb128 0x5
 1169 0096 49       		.uleb128 0x49
 1170 0097 13       		.uleb128 0x13
 1171 0098 00       		.byte	0
 1172 0099 00       		.byte	0
 1173 009a 0D       		.uleb128 0xd
 1174 009b 35       		.uleb128 0x35
 1175 009c 00       		.byte	0
 1176 009d 49       		.uleb128 0x49
 1177 009e 13       		.uleb128 0x13
 1178 009f 00       		.byte	0
 1179 00a0 00       		.byte	0
 1180 00a1 0E       		.uleb128 0xe
 1181 00a2 2E       		.uleb128 0x2e
 1182 00a3 00       		.byte	0
 1183 00a4 3F       		.uleb128 0x3f
 1184 00a5 19       		.uleb128 0x19
 1185 00a6 03       		.uleb128 0x3
 1186 00a7 0E       		.uleb128 0xe
 1187 00a8 3A       		.uleb128 0x3a
 1188 00a9 0B       		.uleb128 0xb
 1189 00aa 3B       		.uleb128 0x3b
 1190 00ab 0B       		.uleb128 0xb
ARM GAS  C:\Users\jsyoon\AppData\Local\Temp\ccwQnUU8.s 			page 22


 1191 00ac 27       		.uleb128 0x27
 1192 00ad 19       		.uleb128 0x19
 1193 00ae 49       		.uleb128 0x49
 1194 00af 13       		.uleb128 0x13
 1195 00b0 11       		.uleb128 0x11
 1196 00b1 01       		.uleb128 0x1
 1197 00b2 12       		.uleb128 0x12
 1198 00b3 06       		.uleb128 0x6
 1199 00b4 40       		.uleb128 0x40
 1200 00b5 18       		.uleb128 0x18
 1201 00b6 9742     		.uleb128 0x2117
 1202 00b8 19       		.uleb128 0x19
 1203 00b9 00       		.byte	0
 1204 00ba 00       		.byte	0
 1205 00bb 0F       		.uleb128 0xf
 1206 00bc 0F       		.uleb128 0xf
 1207 00bd 00       		.byte	0
 1208 00be 0B       		.uleb128 0xb
 1209 00bf 0B       		.uleb128 0xb
 1210 00c0 49       		.uleb128 0x49
 1211 00c1 13       		.uleb128 0x13
 1212 00c2 00       		.byte	0
 1213 00c3 00       		.byte	0
 1214 00c4 10       		.uleb128 0x10
 1215 00c5 26       		.uleb128 0x26
 1216 00c6 00       		.byte	0
 1217 00c7 49       		.uleb128 0x49
 1218 00c8 13       		.uleb128 0x13
 1219 00c9 00       		.byte	0
 1220 00ca 00       		.byte	0
 1221 00cb 11       		.uleb128 0x11
 1222 00cc 2E       		.uleb128 0x2e
 1223 00cd 01       		.byte	0x1
 1224 00ce 3F       		.uleb128 0x3f
 1225 00cf 19       		.uleb128 0x19
 1226 00d0 03       		.uleb128 0x3
 1227 00d1 0E       		.uleb128 0xe
 1228 00d2 3A       		.uleb128 0x3a
 1229 00d3 0B       		.uleb128 0xb
 1230 00d4 3B       		.uleb128 0x3b
 1231 00d5 0B       		.uleb128 0xb
 1232 00d6 27       		.uleb128 0x27
 1233 00d7 19       		.uleb128 0x19
 1234 00d8 11       		.uleb128 0x11
 1235 00d9 01       		.uleb128 0x1
 1236 00da 12       		.uleb128 0x12
 1237 00db 06       		.uleb128 0x6
 1238 00dc 40       		.uleb128 0x40
 1239 00dd 18       		.uleb128 0x18
 1240 00de 9742     		.uleb128 0x2117
 1241 00e0 19       		.uleb128 0x19
 1242 00e1 01       		.uleb128 0x1
 1243 00e2 13       		.uleb128 0x13
 1244 00e3 00       		.byte	0
 1245 00e4 00       		.byte	0
 1246 00e5 12       		.uleb128 0x12
 1247 00e6 05       		.uleb128 0x5
ARM GAS  C:\Users\jsyoon\AppData\Local\Temp\ccwQnUU8.s 			page 23


 1248 00e7 00       		.byte	0
 1249 00e8 03       		.uleb128 0x3
 1250 00e9 0E       		.uleb128 0xe
 1251 00ea 3A       		.uleb128 0x3a
 1252 00eb 0B       		.uleb128 0xb
 1253 00ec 3B       		.uleb128 0x3b
 1254 00ed 0B       		.uleb128 0xb
 1255 00ee 49       		.uleb128 0x49
 1256 00ef 13       		.uleb128 0x13
 1257 00f0 02       		.uleb128 0x2
 1258 00f1 17       		.uleb128 0x17
 1259 00f2 00       		.byte	0
 1260 00f3 00       		.byte	0
 1261 00f4 13       		.uleb128 0x13
 1262 00f5 898201   		.uleb128 0x4109
 1263 00f8 01       		.byte	0x1
 1264 00f9 11       		.uleb128 0x11
 1265 00fa 01       		.uleb128 0x1
 1266 00fb 31       		.uleb128 0x31
 1267 00fc 13       		.uleb128 0x13
 1268 00fd 01       		.uleb128 0x1
 1269 00fe 13       		.uleb128 0x13
 1270 00ff 00       		.byte	0
 1271 0100 00       		.byte	0
 1272 0101 14       		.uleb128 0x14
 1273 0102 8A8201   		.uleb128 0x410a
 1274 0105 00       		.byte	0
 1275 0106 02       		.uleb128 0x2
 1276 0107 18       		.uleb128 0x18
 1277 0108 9142     		.uleb128 0x2111
 1278 010a 18       		.uleb128 0x18
 1279 010b 00       		.byte	0
 1280 010c 00       		.byte	0
 1281 010d 15       		.uleb128 0x15
 1282 010e 898201   		.uleb128 0x4109
 1283 0111 00       		.byte	0
 1284 0112 11       		.uleb128 0x11
 1285 0113 01       		.uleb128 0x1
 1286 0114 31       		.uleb128 0x31
 1287 0115 13       		.uleb128 0x13
 1288 0116 00       		.byte	0
 1289 0117 00       		.byte	0
 1290 0118 16       		.uleb128 0x16
 1291 0119 898201   		.uleb128 0x4109
 1292 011c 01       		.byte	0x1
 1293 011d 11       		.uleb128 0x11
 1294 011e 01       		.uleb128 0x1
 1295 011f 9542     		.uleb128 0x2115
 1296 0121 19       		.uleb128 0x19
 1297 0122 31       		.uleb128 0x31
 1298 0123 13       		.uleb128 0x13
 1299 0124 00       		.byte	0
 1300 0125 00       		.byte	0
 1301 0126 17       		.uleb128 0x17
 1302 0127 898201   		.uleb128 0x4109
 1303 012a 00       		.byte	0
 1304 012b 11       		.uleb128 0x11
ARM GAS  C:\Users\jsyoon\AppData\Local\Temp\ccwQnUU8.s 			page 24


 1305 012c 01       		.uleb128 0x1
 1306 012d 9542     		.uleb128 0x2115
 1307 012f 19       		.uleb128 0x19
 1308 0130 31       		.uleb128 0x31
 1309 0131 13       		.uleb128 0x13
 1310 0132 00       		.byte	0
 1311 0133 00       		.byte	0
 1312 0134 18       		.uleb128 0x18
 1313 0135 34       		.uleb128 0x34
 1314 0136 00       		.byte	0
 1315 0137 03       		.uleb128 0x3
 1316 0138 0E       		.uleb128 0xe
 1317 0139 3A       		.uleb128 0x3a
 1318 013a 0B       		.uleb128 0xb
 1319 013b 3B       		.uleb128 0x3b
 1320 013c 0B       		.uleb128 0xb
 1321 013d 49       		.uleb128 0x49
 1322 013e 13       		.uleb128 0x13
 1323 013f 02       		.uleb128 0x2
 1324 0140 18       		.uleb128 0x18
 1325 0141 00       		.byte	0
 1326 0142 00       		.byte	0
 1327 0143 19       		.uleb128 0x19
 1328 0144 34       		.uleb128 0x34
 1329 0145 00       		.byte	0
 1330 0146 03       		.uleb128 0x3
 1331 0147 0E       		.uleb128 0xe
 1332 0148 3A       		.uleb128 0x3a
 1333 0149 0B       		.uleb128 0xb
 1334 014a 3B       		.uleb128 0x3b
 1335 014b 05       		.uleb128 0x5
 1336 014c 49       		.uleb128 0x49
 1337 014d 13       		.uleb128 0x13
 1338 014e 3F       		.uleb128 0x3f
 1339 014f 19       		.uleb128 0x19
 1340 0150 3C       		.uleb128 0x3c
 1341 0151 19       		.uleb128 0x19
 1342 0152 00       		.byte	0
 1343 0153 00       		.byte	0
 1344 0154 1A       		.uleb128 0x1a
 1345 0155 2E       		.uleb128 0x2e
 1346 0156 01       		.byte	0x1
 1347 0157 3F       		.uleb128 0x3f
 1348 0158 19       		.uleb128 0x19
 1349 0159 03       		.uleb128 0x3
 1350 015a 0E       		.uleb128 0xe
 1351 015b 27       		.uleb128 0x27
 1352 015c 19       		.uleb128 0x19
 1353 015d 49       		.uleb128 0x49
 1354 015e 13       		.uleb128 0x13
 1355 015f 34       		.uleb128 0x34
 1356 0160 19       		.uleb128 0x19
 1357 0161 3C       		.uleb128 0x3c
 1358 0162 19       		.uleb128 0x19
 1359 0163 01       		.uleb128 0x1
 1360 0164 13       		.uleb128 0x13
 1361 0165 00       		.byte	0
ARM GAS  C:\Users\jsyoon\AppData\Local\Temp\ccwQnUU8.s 			page 25


 1362 0166 00       		.byte	0
 1363 0167 1B       		.uleb128 0x1b
 1364 0168 05       		.uleb128 0x5
 1365 0169 00       		.byte	0
 1366 016a 49       		.uleb128 0x49
 1367 016b 13       		.uleb128 0x13
 1368 016c 00       		.byte	0
 1369 016d 00       		.byte	0
 1370 016e 1C       		.uleb128 0x1c
 1371 016f 26       		.uleb128 0x26
 1372 0170 00       		.byte	0
 1373 0171 00       		.byte	0
 1374 0172 00       		.byte	0
 1375 0173 1D       		.uleb128 0x1d
 1376 0174 2E       		.uleb128 0x2e
 1377 0175 01       		.byte	0x1
 1378 0176 3F       		.uleb128 0x3f
 1379 0177 19       		.uleb128 0x19
 1380 0178 03       		.uleb128 0x3
 1381 0179 0E       		.uleb128 0xe
 1382 017a 3A       		.uleb128 0x3a
 1383 017b 0B       		.uleb128 0xb
 1384 017c 3B       		.uleb128 0x3b
 1385 017d 0B       		.uleb128 0xb
 1386 017e 27       		.uleb128 0x27
 1387 017f 19       		.uleb128 0x19
 1388 0180 3C       		.uleb128 0x3c
 1389 0181 19       		.uleb128 0x19
 1390 0182 01       		.uleb128 0x1
 1391 0183 13       		.uleb128 0x13
 1392 0184 00       		.byte	0
 1393 0185 00       		.byte	0
 1394 0186 1E       		.uleb128 0x1e
 1395 0187 2E       		.uleb128 0x2e
 1396 0188 00       		.byte	0
 1397 0189 3F       		.uleb128 0x3f
 1398 018a 19       		.uleb128 0x19
 1399 018b 03       		.uleb128 0x3
 1400 018c 0E       		.uleb128 0xe
 1401 018d 3A       		.uleb128 0x3a
 1402 018e 0B       		.uleb128 0xb
 1403 018f 3B       		.uleb128 0x3b
 1404 0190 0B       		.uleb128 0xb
 1405 0191 27       		.uleb128 0x27
 1406 0192 19       		.uleb128 0x19
 1407 0193 3C       		.uleb128 0x3c
 1408 0194 19       		.uleb128 0x19
 1409 0195 00       		.byte	0
 1410 0196 00       		.byte	0
 1411 0197 00       		.byte	0
 1412              		.section	.debug_loc,"",%progbits
 1413              	.Ldebug_loc0:
 1414              	.LLST0:
 1415 0000 00000000 		.4byte	.LVL0
 1416 0004 0A000000 		.4byte	.LVL1
 1417 0008 0100     		.2byte	0x1
 1418 000a 50       		.byte	0x50
ARM GAS  C:\Users\jsyoon\AppData\Local\Temp\ccwQnUU8.s 			page 26


 1419 000b 0A000000 		.4byte	.LVL1
 1420 000f 0D000000 		.4byte	.LVL2-1
 1421 0013 0100     		.2byte	0x1
 1422 0015 51       		.byte	0x51
 1423 0016 0D000000 		.4byte	.LVL2-1
 1424 001a 34000000 		.4byte	.LFE120
 1425 001e 0400     		.2byte	0x4
 1426 0020 F3       		.byte	0xf3
 1427 0021 01       		.uleb128 0x1
 1428 0022 50       		.byte	0x50
 1429 0023 9F       		.byte	0x9f
 1430 0024 00000000 		.4byte	0
 1431 0028 00000000 		.4byte	0
 1432              	.LLST1:
 1433 002c 00000000 		.4byte	.LVL7
 1434 0030 05000000 		.4byte	.LVL8-1
 1435 0034 0100     		.2byte	0x1
 1436 0036 50       		.byte	0x50
 1437 0037 05000000 		.4byte	.LVL8-1
 1438 003b 70000000 		.4byte	.LFE118
 1439 003f 0400     		.2byte	0x4
 1440 0041 F3       		.byte	0xf3
 1441 0042 01       		.uleb128 0x1
 1442 0043 50       		.byte	0x50
 1443 0044 9F       		.byte	0x9f
 1444 0045 00000000 		.4byte	0
 1445 0049 00000000 		.4byte	0
 1446              		.section	.debug_aranges,"",%progbits
 1447 0000 2C000000 		.4byte	0x2c
 1448 0004 0200     		.2byte	0x2
 1449 0006 00000000 		.4byte	.Ldebug_info0
 1450 000a 04       		.byte	0x4
 1451 000b 00       		.byte	0
 1452 000c 0000     		.2byte	0
 1453 000e 0000     		.2byte	0
 1454 0010 00000000 		.4byte	.LFB119
 1455 0014 08000000 		.4byte	.LFE119-.LFB119
 1456 0018 00000000 		.4byte	.LFB120
 1457 001c 34000000 		.4byte	.LFE120-.LFB120
 1458 0020 00000000 		.4byte	.LFB118
 1459 0024 70000000 		.4byte	.LFE118-.LFB118
 1460 0028 00000000 		.4byte	0
 1461 002c 00000000 		.4byte	0
 1462              		.section	.debug_ranges,"",%progbits
 1463              	.Ldebug_ranges0:
 1464 0000 00000000 		.4byte	.LFB119
 1465 0004 08000000 		.4byte	.LFE119
 1466 0008 00000000 		.4byte	.LFB120
 1467 000c 34000000 		.4byte	.LFE120
 1468 0010 00000000 		.4byte	.LFB118
 1469 0014 70000000 		.4byte	.LFE118
 1470 0018 00000000 		.4byte	0
 1471 001c 00000000 		.4byte	0
 1472              		.section	.debug_line,"",%progbits
 1473              	.Ldebug_line0:
 1474 0000 BF010000 		.section	.debug_str,"MS",%progbits,1
 1474      02004F01 
ARM GAS  C:\Users\jsyoon\AppData\Local\Temp\ccwQnUU8.s 			page 27


 1474      00000201 
 1474      FB0E0D00 
 1474      01010101 
 1475              	.LASF71:
 1476 0000 72616D70 		.ascii	"ramp_time_pos\000"
 1476      5F74696D 
 1476      655F706F 
 1476      7300
 1477              	.LASF68:
 1478 000e 4348554B 		.ascii	"CHUK_CTRL_TYPE_CURRENT\000"
 1478      5F435452 
 1478      4C5F5459 
 1478      50455F43 
 1478      55525245 
 1479              	.LASF45:
 1480 0025 72706D5F 		.ascii	"rpm_lim_start\000"
 1480      6C696D5F 
 1480      73746172 
 1480      7400
 1481              	.LASF26:
 1482 0033 4150505F 		.ascii	"APP_NRF\000"
 1482      4E524600 
 1483              	.LASF79:
 1484 003b 6170705F 		.ascii	"app_to_use\000"
 1484      746F5F75 
 1484      736500
 1485              	.LASF51:
 1486 0046 4144435F 		.ascii	"ADC_CTRL_TYPE_CURRENT\000"
 1486      4354524C 
 1486      5F545950 
 1486      455F4355 
 1486      5252454E 
 1487              	.LASF98:
 1488 005c 6170705F 		.ascii	"app_nunchuk_start\000"
 1488      6E756E63 
 1488      68756B5F 
 1488      73746172 
 1488      7400
 1489              	.LASF2:
 1490 006e 73686F72 		.ascii	"short int\000"
 1490      7420696E 
 1490      7400
 1491              	.LASF48:
 1492 0078 74635F6D 		.ascii	"tc_max_diff\000"
 1492      61785F64 
 1492      69666600 
 1493              	.LASF50:
 1494 0084 4144435F 		.ascii	"ADC_CTRL_TYPE_NONE\000"
 1494      4354524C 
 1494      5F545950 
 1494      455F4E4F 
 1494      4E4500
 1495              	.LASF90:
 1496 0097 6170705F 		.ascii	"app_adc_configure\000"
 1496      6164635F 
 1496      636F6E66 
 1496      69677572 
ARM GAS  C:\Users\jsyoon\AppData\Local\Temp\ccwQnUU8.s 			page 28


 1496      6500
 1497              	.LASF16:
 1498 00a9 73697A65 		.ascii	"sizetype\000"
 1498      74797065 
 1498      00
 1499              	.LASF59:
 1500 00b2 6164635F 		.ascii	"adc_control_type\000"
 1500      636F6E74 
 1500      726F6C5F 
 1500      74797065 
 1500      00
 1501              	.LASF67:
 1502 00c3 4348554B 		.ascii	"CHUK_CTRL_TYPE_NONE\000"
 1502      5F435452 
 1502      4C5F5459 
 1502      50455F4E 
 1502      4F4E4500 
 1503              	.LASF43:
 1504 00d7 6D656469 		.ascii	"median_filter\000"
 1504      616E5F66 
 1504      696C7465 
 1504      7200
 1505              	.LASF72:
 1506 00e5 72616D70 		.ascii	"ramp_time_neg\000"
 1506      5F74696D 
 1506      655F6E65 
 1506      6700
 1507              	.LASF49:
 1508 00f3 70706D5F 		.ascii	"ppm_config\000"
 1508      636F6E66 
 1508      696700
 1509              	.LASF101:
 1510 00fe 453A5C4D 		.ascii	"E:\\Maker\\BLDC\\test_eval\\try2\\OROCA-BLDC_R15080"
 1510      616B6572 
 1510      5C424C44 
 1510      435C7465 
 1510      73745F65 
 1511 012c 3700     		.ascii	"7\000"
 1512              	.LASF30:
 1513 012e 50504D5F 		.ascii	"PPM_CTRL_TYPE_CURRENT\000"
 1513      4354524C 
 1513      5F545950 
 1513      455F4355 
 1513      5252454E 
 1514              	.LASF60:
 1515 0144 766F6C74 		.ascii	"voltage_start\000"
 1515      6167655F 
 1515      73746172 
 1515      7400
 1516              	.LASF95:
 1517 0152 6170705F 		.ascii	"app_adc_start\000"
 1517      6164635F 
 1517      73746172 
 1517      7400
 1518              	.LASF88:
 1519 0160 6D656D63 		.ascii	"memcpy\000"
 1519      707900
ARM GAS  C:\Users\jsyoon\AppData\Local\Temp\ccwQnUU8.s 			page 29


 1520              	.LASF33:
 1521 0167 50504D5F 		.ascii	"PPM_CTRL_TYPE_DUTY\000"
 1521      4354524C 
 1521      5F545950 
 1521      455F4455 
 1521      545900
 1522              	.LASF44:
 1523 017a 73616665 		.ascii	"safe_start\000"
 1523      5F737461 
 1523      727400
 1524              	.LASF62:
 1525 0185 7573655F 		.ascii	"use_filter\000"
 1525      66696C74 
 1525      657200
 1526              	.LASF99:
 1527 0190 474E5520 		.ascii	"GNU C 4.8.4 20140526 (release) [ARM/embedded-4_8-br"
 1527      4320342E 
 1527      382E3420 
 1527      32303134 
 1527      30353236 
 1528 01c3 616E6368 		.ascii	"anch revision 211358] -mcpu=cortex-m4 -mfloat-abi=h"
 1528      20726576 
 1528      6973696F 
 1528      6E203231 
 1528      31333538 
 1529 01f6 61726420 		.ascii	"ard -mfpu=fpv4-sp-d16 -mno-thumb-interwork -mthumb "
 1529      2D6D6670 
 1529      753D6670 
 1529      76342D73 
 1529      702D6431 
 1530 0229 2D676764 		.ascii	"-ggdb -O2 -std=gnu99 -fomit-frame-pointer -falign-f"
 1530      62202D4F 
 1530      32202D73 
 1530      74643D67 
 1530      6E753939 
 1531 025c 756E6374 		.ascii	"unctions=16 -ffunction-sections -fdata-sections -fn"
 1531      696F6E73 
 1531      3D313620 
 1531      2D666675 
 1531      6E637469 
 1532 028f 6F2D636F 		.ascii	"o-common -fsingle-precision-constant\000"
 1532      6D6D6F6E 
 1532      202D6673 
 1532      696E676C 
 1532      652D7072 
 1533              	.LASF103:
 1534 02b4 61707063 		.ascii	"appconf\000"
 1534      6F6E6600 
 1535              	.LASF12:
 1536 02bc 75696E74 		.ascii	"uint8_t\000"
 1536      385F7400 
 1537              	.LASF94:
 1538 02c4 6170705F 		.ascii	"app_ppm_start\000"
 1538      70706D5F 
 1538      73746172 
 1538      7400
 1539              	.LASF23:
ARM GAS  C:\Users\jsyoon\AppData\Local\Temp\ccwQnUU8.s 			page 30


 1540 02d2 4150505F 		.ascii	"APP_PPM_UART\000"
 1540      50504D5F 
 1540      55415254 
 1540      00
 1541              	.LASF87:
 1542 02df 636F6E66 		.ascii	"conf\000"
 1542      00
 1543              	.LASF42:
 1544 02e4 70756C73 		.ascii	"pulse_end\000"
 1544      655F656E 
 1544      6400
 1545              	.LASF27:
 1546 02ee 4150505F 		.ascii	"APP_CUSTOM\000"
 1546      43555354 
 1546      4F4D00
 1547              	.LASF0:
 1548 02f9 7369676E 		.ascii	"signed char\000"
 1548      65642063 
 1548      68617200 
 1549              	.LASF18:
 1550 0305 666C6F61 		.ascii	"float\000"
 1550      7400
 1551              	.LASF9:
 1552 030b 6C6F6E67 		.ascii	"long long int\000"
 1552      206C6F6E 
 1552      6720696E 
 1552      7400
 1553              	.LASF6:
 1554 0319 6C6F6E67 		.ascii	"long int\000"
 1554      20696E74 
 1554      00
 1555              	.LASF52:
 1556 0322 4144435F 		.ascii	"ADC_CTRL_TYPE_CURRENT_REV_CENTER\000"
 1556      4354524C 
 1556      5F545950 
 1556      455F4355 
 1556      5252454E 
 1557              	.LASF4:
 1558 0343 5F5F7569 		.ascii	"__uint8_t\000"
 1558      6E74385F 
 1558      7400
 1559              	.LASF22:
 1560 034d 4150505F 		.ascii	"APP_UART\000"
 1560      55415254 
 1560      00
 1561              	.LASF84:
 1562 0356 6170705F 		.ascii	"app_configuration\000"
 1562      636F6E66 
 1562      69677572 
 1562      6174696F 
 1562      6E00
 1563              	.LASF31:
 1564 0368 50504D5F 		.ascii	"PPM_CTRL_TYPE_CURRENT_NOREV\000"
 1564      4354524C 
 1564      5F545950 
 1564      455F4355 
 1564      5252454E 
ARM GAS  C:\Users\jsyoon\AppData\Local\Temp\ccwQnUU8.s 			page 31


 1565              	.LASF76:
 1566 0384 74696D65 		.ascii	"timeout_brake_current\000"
 1566      6F75745F 
 1566      6272616B 
 1566      655F6375 
 1566      7272656E 
 1567              	.LASF20:
 1568 039a 4150505F 		.ascii	"APP_PPM\000"
 1568      50504D00 
 1569              	.LASF93:
 1570 03a2 6E72665F 		.ascii	"nrf_driver_init\000"
 1570      64726976 
 1570      65725F69 
 1570      6E697400 
 1571              	.LASF97:
 1572 03b2 6170705F 		.ascii	"app_uartcomm_start\000"
 1572      75617274 
 1572      636F6D6D 
 1572      5F737461 
 1572      727400
 1573              	.LASF46:
 1574 03c5 72706D5F 		.ascii	"rpm_lim_end\000"
 1574      6C696D5F 
 1574      656E6400 
 1575              	.LASF1:
 1576 03d1 756E7369 		.ascii	"unsigned char\000"
 1576      676E6564 
 1576      20636861 
 1576      7200
 1577              	.LASF82:
 1578 03df 6170705F 		.ascii	"app_uart_baudrate\000"
 1578      75617274 
 1578      5F626175 
 1578      64726174 
 1578      6500
 1579              	.LASF56:
 1580 03f1 4144435F 		.ascii	"ADC_CTRL_TYPE_DUTY\000"
 1580      4354524C 
 1580      5F545950 
 1580      455F4455 
 1580      545900
 1581              	.LASF85:
 1582 0404 6170705F 		.ascii	"app_set_configuration\000"
 1582      7365745F 
 1582      636F6E66 
 1582      69677572 
 1582      6174696F 
 1583              	.LASF100:
 1584 041a 6170706C 		.ascii	"applications/app.c\000"
 1584      69636174 
 1584      696F6E73 
 1584      2F617070 
 1584      2E6300
 1585              	.LASF91:
 1586 042d 6170705F 		.ascii	"app_uartcomm_configure\000"
 1586      75617274 
 1586      636F6D6D 
ARM GAS  C:\Users\jsyoon\AppData\Local\Temp\ccwQnUU8.s 			page 32


 1586      5F636F6E 
 1586      66696775 
 1587              	.LASF10:
 1588 0444 6C6F6E67 		.ascii	"long long unsigned int\000"
 1588      206C6F6E 
 1588      6720756E 
 1588      7369676E 
 1588      65642069 
 1589              	.LASF24:
 1590 045b 4150505F 		.ascii	"APP_ADC_UART\000"
 1590      4144435F 
 1590      55415254 
 1590      00
 1591              	.LASF14:
 1592 0468 75696E74 		.ascii	"uint32_t\000"
 1592      33325F74 
 1592      00
 1593              	.LASF89:
 1594 0471 6170705F 		.ascii	"app_ppm_configure\000"
 1594      70706D5F 
 1594      636F6E66 
 1594      69677572 
 1594      6500
 1595              	.LASF11:
 1596 0483 756E7369 		.ascii	"unsigned int\000"
 1596      676E6564 
 1596      20696E74 
 1596      00
 1597              	.LASF63:
 1598 0490 62757474 		.ascii	"button_inverted\000"
 1598      6F6E5F69 
 1598      6E766572 
 1598      74656400 
 1599              	.LASF37:
 1600 04a0 70706D5F 		.ascii	"ppm_control_type\000"
 1600      636F6E74 
 1600      726F6C5F 
 1600      74797065 
 1600      00
 1601              	.LASF36:
 1602 04b1 50504D5F 		.ascii	"PPM_CTRL_TYPE_PID_NOREV\000"
 1602      4354524C 
 1602      5F545950 
 1602      455F5049 
 1602      445F4E4F 
 1603              	.LASF32:
 1604 04c9 50504D5F 		.ascii	"PPM_CTRL_TYPE_CURRENT_NOREV_BRAKE\000"
 1604      4354524C 
 1604      5F545950 
 1604      455F4355 
 1604      5252454E 
 1605              	.LASF3:
 1606 04eb 73686F72 		.ascii	"short unsigned int\000"
 1606      7420756E 
 1606      7369676E 
 1606      65642069 
 1606      6E7400
ARM GAS  C:\Users\jsyoon\AppData\Local\Temp\ccwQnUU8.s 			page 33


 1607              	.LASF83:
 1608 04fe 6170705F 		.ascii	"app_chuk_conf\000"
 1608      6368756B 
 1608      5F636F6E 
 1608      6600
 1609              	.LASF57:
 1610 050c 4144435F 		.ascii	"ADC_CTRL_TYPE_DUTY_REV_CENTER\000"
 1610      4354524C 
 1610      5F545950 
 1610      455F4455 
 1610      54595F52 
 1611              	.LASF17:
 1612 052a 63686172 		.ascii	"char\000"
 1612      00
 1613              	.LASF78:
 1614 052f 73656E64 		.ascii	"send_can_status_rate_hz\000"
 1614      5F63616E 
 1614      5F737461 
 1614      7475735F 
 1614      72617465 
 1615              	.LASF65:
 1616 0547 75706461 		.ascii	"update_rate_hz\000"
 1616      74655F72 
 1616      6174655F 
 1616      687A00
 1617              	.LASF53:
 1618 0556 4144435F 		.ascii	"ADC_CTRL_TYPE_CURRENT_REV_BUTTON\000"
 1618      4354524C 
 1618      5F545950 
 1618      455F4355 
 1618      5252454E 
 1619              	.LASF13:
 1620 0577 696E7433 		.ascii	"int32_t\000"
 1620      325F7400 
 1621              	.LASF5:
 1622 057f 5F5F696E 		.ascii	"__int32_t\000"
 1622      7433325F 
 1622      7400
 1623              	.LASF80:
 1624 0589 6170705F 		.ascii	"app_ppm_conf\000"
 1624      70706D5F 
 1624      636F6E66 
 1624      00
 1625              	.LASF15:
 1626 0596 5F426F6F 		.ascii	"_Bool\000"
 1626      6C00
 1627              	.LASF55:
 1628 059c 4144435F 		.ascii	"ADC_CTRL_TYPE_CURRENT_NOREV_BRAKE_BUTTON\000"
 1628      4354524C 
 1628      5F545950 
 1628      455F4355 
 1628      5252454E 
 1629              	.LASF19:
 1630 05c5 4150505F 		.ascii	"APP_NONE\000"
 1630      4E4F4E45 
 1630      00
 1631              	.LASF8:
ARM GAS  C:\Users\jsyoon\AppData\Local\Temp\ccwQnUU8.s 			page 34


 1632 05ce 6C6F6E67 		.ascii	"long unsigned int\000"
 1632      20756E73 
 1632      69676E65 
 1632      6420696E 
 1632      7400
 1633              	.LASF73:
 1634 05e0 6368756B 		.ascii	"chuk_config\000"
 1634      5F636F6E 
 1634      66696700 
 1635              	.LASF92:
 1636 05ec 6170705F 		.ascii	"app_nunchuk_configure\000"
 1636      6E756E63 
 1636      68756B5F 
 1636      636F6E66 
 1636      69677572 
 1637              	.LASF29:
 1638 0602 50504D5F 		.ascii	"PPM_CTRL_TYPE_NONE\000"
 1638      4354524C 
 1638      5F545950 
 1638      455F4E4F 
 1638      4E4500
 1639              	.LASF40:
 1640 0615 68797374 		.ascii	"hyst\000"
 1640      00
 1641              	.LASF104:
 1642 061a 49544D5F 		.ascii	"ITM_RxBuffer\000"
 1642      52784275 
 1642      66666572 
 1642      00
 1643              	.LASF54:
 1644 0627 4144435F 		.ascii	"ADC_CTRL_TYPE_CURRENT_NOREV_BRAKE_CENTER\000"
 1644      4354524C 
 1644      5F545950 
 1644      455F4355 
 1644      5252454E 
 1645              	.LASF7:
 1646 0650 5F5F7569 		.ascii	"__uint32_t\000"
 1646      6E743332 
 1646      5F7400
 1647              	.LASF86:
 1648 065b 6170705F 		.ascii	"app_init\000"
 1648      696E6974 
 1648      00
 1649              	.LASF21:
 1650 0664 4150505F 		.ascii	"APP_ADC\000"
 1650      41444300 
 1651              	.LASF70:
 1652 066c 6368756B 		.ascii	"chuk_control_type\000"
 1652      5F636F6E 
 1652      74726F6C 
 1652      5F747970 
 1652      6500
 1653              	.LASF74:
 1654 067e 636F6E74 		.ascii	"controller_id\000"
 1654      726F6C6C 
 1654      65725F69 
 1654      6400
ARM GAS  C:\Users\jsyoon\AppData\Local\Temp\ccwQnUU8.s 			page 35


 1655              	.LASF38:
 1656 068c 6374726C 		.ascii	"ctrl_type\000"
 1656      5F747970 
 1656      6500
 1657              	.LASF28:
 1658 0696 6170705F 		.ascii	"app_use\000"
 1658      75736500 
 1659              	.LASF35:
 1660 069e 50504D5F 		.ascii	"PPM_CTRL_TYPE_PID\000"
 1660      4354524C 
 1660      5F545950 
 1660      455F5049 
 1660      4400
 1661              	.LASF25:
 1662 06b0 4150505F 		.ascii	"APP_NUNCHUK\000"
 1662      4E554E43 
 1662      48554B00 
 1663              	.LASF61:
 1664 06bc 766F6C74 		.ascii	"voltage_end\000"
 1664      6167655F 
 1664      656E6400 
 1665              	.LASF77:
 1666 06c8 73656E64 		.ascii	"send_can_status\000"
 1666      5F63616E 
 1666      5F737461 
 1666      74757300 
 1667              	.LASF47:
 1668 06d8 6D756C74 		.ascii	"multi_esc\000"
 1668      695F6573 
 1668      6300
 1669              	.LASF41:
 1670 06e2 70756C73 		.ascii	"pulse_start\000"
 1670      655F7374 
 1670      61727400 
 1671              	.LASF66:
 1672 06ee 6164635F 		.ascii	"adc_config\000"
 1672      636F6E66 
 1672      696700
 1673              	.LASF39:
 1674 06f9 7069645F 		.ascii	"pid_max_erpm\000"
 1674      6D61785F 
 1674      6572706D 
 1674      00
 1675              	.LASF69:
 1676 0706 4348554B 		.ascii	"CHUK_CTRL_TYPE_CURRENT_NOREV\000"
 1676      5F435452 
 1676      4C5F5459 
 1676      50455F43 
 1676      55525245 
 1677              	.LASF58:
 1678 0723 4144435F 		.ascii	"ADC_CTRL_TYPE_DUTY_REV_BUTTON\000"
 1678      4354524C 
 1678      5F545950 
 1678      455F4455 
 1678      54595F52 
 1679              	.LASF75:
 1680 0741 74696D65 		.ascii	"timeout_msec\000"
ARM GAS  C:\Users\jsyoon\AppData\Local\Temp\ccwQnUU8.s 			page 36


 1680      6F75745F 
 1680      6D736563 
 1680      00
 1681              	.LASF64:
 1682 074e 766F6C74 		.ascii	"voltage_inverted\000"
 1682      6167655F 
 1682      696E7665 
 1682      72746564 
 1682      00
 1683              	.LASF102:
 1684 075f 6170705F 		.ascii	"app_get_configuration\000"
 1684      6765745F 
 1684      636F6E66 
 1684      69677572 
 1684      6174696F 
 1685              	.LASF34:
 1686 0775 50504D5F 		.ascii	"PPM_CTRL_TYPE_DUTY_NOREV\000"
 1686      4354524C 
 1686      5F545950 
 1686      455F4455 
 1686      54595F4E 
 1687              	.LASF81:
 1688 078e 6170705F 		.ascii	"app_adc_conf\000"
 1688      6164635F 
 1688      636F6E66 
 1688      00
 1689              	.LASF96:
 1690 079b 68775F73 		.ascii	"hw_stop_i2c\000"
 1690      746F705F 
 1690      69326300 
 1691              		.ident	"GCC: (GNU Tools for ARM Embedded Processors) 4.8.4 20140526 (release) [ARM/embedded-4_8-br
ARM GAS  C:\Users\jsyoon\AppData\Local\Temp\ccwQnUU8.s 			page 37


DEFINED SYMBOLS
                            *ABS*:00000000 app.c
C:\Users\jsyoon\AppData\Local\Temp\ccwQnUU8.s:21     .text.app_get_configuration:00000000 $t
C:\Users\jsyoon\AppData\Local\Temp\ccwQnUU8.s:27     .text.app_get_configuration:00000000 app_get_configuration
C:\Users\jsyoon\AppData\Local\Temp\ccwQnUU8.s:41     .text.app_get_configuration:00000004 $d
C:\Users\jsyoon\AppData\Local\Temp\ccwQnUU8.s:46     .text.app_set_configuration:00000000 $t
C:\Users\jsyoon\AppData\Local\Temp\ccwQnUU8.s:52     .text.app_set_configuration:00000000 app_set_configuration
C:\Users\jsyoon\AppData\Local\Temp\ccwQnUU8.s:95     .text.app_set_configuration:00000030 $d
C:\Users\jsyoon\AppData\Local\Temp\ccwQnUU8.s:100    .text.app_init:00000000 $t
C:\Users\jsyoon\AppData\Local\Temp\ccwQnUU8.s:106    .text.app_init:00000000 app_init
C:\Users\jsyoon\AppData\Local\Temp\ccwQnUU8.s:128    .text.app_init:00000014 $d
C:\Users\jsyoon\AppData\Local\Temp\ccwQnUU8.s:198    .text.app_init:0000006c $d
C:\Users\jsyoon\AppData\Local\Temp\ccwQnUU8.s:203    .bss.appconf:00000000 $d
C:\Users\jsyoon\AppData\Local\Temp\ccwQnUU8.s:207    .bss.appconf:00000000 appconf
                     .debug_frame:00000010 $d
C:\Users\jsyoon\AppData\Local\Temp\ccwQnUU8.s:45     .text.app_get_configuration:00000008 $t
C:\Users\jsyoon\AppData\Local\Temp\ccwQnUU8.s:99     .text.app_set_configuration:00000034 $t
C:\Users\jsyoon\AppData\Local\Temp\ccwQnUU8.s:135    .text.app_init:0000001b $d
C:\Users\jsyoon\AppData\Local\Temp\ccwQnUU8.s:135    .text.app_init:0000001c $t

UNDEFINED SYMBOLS
memcpy
app_ppm_configure
app_adc_configure
app_uartcomm_configure
app_nunchuk_configure
nrf_driver_init
app_ppm_start
app_adc_start
hw_stop_i2c
app_uartcomm_start
app_nunchuk_start
