ARM GAS  C:\Users\jsyoon\AppData\Local\Temp\ccwQnUU8.s 			page 1


   1              		.syntax unified
   2              		.cpu cortex-m4
   3              		.eabi_attribute 27, 3
   4              		.eabi_attribute 28, 1
   5              		.fpu fpv4-sp-d16
   6              		.eabi_attribute 20, 1
   7              		.eabi_attribute 21, 1
   8              		.eabi_attribute 23, 3
   9              		.eabi_attribute 24, 1
  10              		.eabi_attribute 25, 1
  11              		.eabi_attribute 26, 1
  12              		.eabi_attribute 30, 2
  13              		.eabi_attribute 34, 1
  14              		.eabi_attribute 18, 4
  15              		.thumb
  16              		.file	"app.c"
  17              		.text
  18              	.Ltext0:
  19              		.cfi_sections	.debug_frame
  20              		.section	.text.app_get_configuration,"ax",%progbits
  21              		.align	2
  22              		.p2align 4,,15
  23              		.global	app_get_configuration
  24              		.thumb
  25              		.thumb_func
  26              		.type	app_get_configuration, %function
  27              	app_get_configuration:
  28              	.LFB119:
  29              		.file 1 "applications/app.c"
  30              		.loc 1 86 0
  31              		.cfi_startproc
  32              		@ args = 0, pretend = 0, frame = 0
  33              		@ frame_needed = 0, uses_anonymous_args = 0
  34              		@ link register save eliminated.
  35              		.loc 1 88 0
  36 0000 0048     		ldr	r0, .L2
  37 0002 7047     		bx	lr
  38              	.L3:
  39              		.align	2
  40              	.L2:
  41 0004 00000000 		.word	.LANCHOR0
  42              		.cfi_endproc
  43              	.LFE119:
  44              		.size	app_get_configuration, .-app_get_configuration
  45 0008 AFF30080 		.section	.text.app_set_configuration,"ax",%progbits
  45      AFF30080 
  46              		.align	2
  47              		.p2align 4,,15
  48              		.global	app_set_configuration
  49              		.thumb
  50              		.thumb_func
  51              		.type	app_set_configuration, %function
  52              	app_set_configuration:
  53              	.LFB120:
  54              		.loc 1 97 0
  55              		.cfi_startproc
  56              		@ args = 0, pretend = 0, frame = 0
ARM GAS  C:\Users\jsyoon\AppData\Local\Temp\ccwQnUU8.s 			page 2


  57              		@ frame_needed = 0, uses_anonymous_args = 0
  58              	.LVL0:
  59 0000 10B5     		push	{r4, lr}
  60              		.cfi_def_cfa_offset 8
  61              		.cfi_offset 4, -8
  62              		.cfi_offset 14, -4
  63              		.loc 1 98 0
  64 0002 0B4C     		ldr	r4, .L5
  65              		.loc 1 97 0
  66 0004 0146     		mov	r1, r0
  67              		.loc 1 98 0
  68 0006 8C22     		movs	r2, #140
  69 0008 2046     		mov	r0, r4
  70              	.LVL1:
  71 000a FFF7FEFF 		bl	memcpy
  72              	.LVL2:
  73              		.loc 1 99 0
  74 000e 04F11800 		add	r0, r4, #24
  75 0012 FFF7FEFF 		bl	app_ppm_configure
  76              	.LVL3:
  77              		.loc 1 100 0
  78 0016 04F14000 		add	r0, r4, #64
  79 001a FFF7FEFF 		bl	app_adc_configure
  80              	.LVL4:
  81              		.loc 1 101 0
  82 001e A06E     		ldr	r0, [r4, #104]
  83 0020 FFF7FEFF 		bl	app_uartcomm_configure
  84              	.LVL5:
  85              		.loc 1 102 0
  86 0024 04F16C00 		add	r0, r4, #108
  87              		.loc 1 103 0
  88 0028 BDE81040 		pop	{r4, lr}
  89              		.loc 1 102 0
  90 002c FFF7FEBF 		b	app_nunchuk_configure
  91              	.LVL6:
  92              	.L6:
  93              		.align	2
  94              	.L5:
  95 0030 00000000 		.word	.LANCHOR0
  96              		.cfi_endproc
  97              	.LFE120:
  98              		.size	app_set_configuration, .-app_set_configuration
  99 0034 AFF30080 		.section	.text.app_init,"ax",%progbits
  99      AFF30080 
  99      AFF30080 
 100              		.align	2
 101              		.p2align 4,,15
 102              		.global	app_init
 103              		.thumb
 104              		.thumb_func
 105              		.type	app_init, %function
 106              	app_init:
 107              	.LFB118:
 108              		.loc 1 34 0
 109              		.cfi_startproc
 110              		@ args = 0, pretend = 0, frame = 0
 111              		@ frame_needed = 0, uses_anonymous_args = 0
ARM GAS  C:\Users\jsyoon\AppData\Local\Temp\ccwQnUU8.s 			page 3


 112              	.LVL7:
 113 0000 08B5     		push	{r3, lr}
 114              		.cfi_def_cfa_offset 8
 115              		.cfi_offset 3, -8
 116              		.cfi_offset 14, -4
 117              		.loc 1 35 0
 118 0002 FFF7FEFF 		bl	app_set_configuration
 119              	.LVL8:
 120              		.loc 1 37 0
 121 0006 194B     		ldr	r3, .L18
 122 0008 1B7D     		ldrb	r3, [r3, #20]	@ zero_extendqisi2
 123 000a 013B     		subs	r3, r3, #1
 124 000c 062B     		cmp	r3, #6
 125 000e 2BD8     		bhi	.L7
 126 0010 DFE803F0 		tbb	[pc, r3]
 127              	.L10:
 128 0014 08       		.byte	(.L9-.L10)/2
 129 0015 0C       		.byte	(.L11-.L10)/2
 130 0016 10       		.byte	(.L12-.L10)/2
 131 0017 16       		.byte	(.L13-.L10)/2
 132 0018 1E       		.byte	(.L14-.L10)/2
 133 0019 26       		.byte	(.L15-.L10)/2
 134 001a 04       		.byte	(.L16-.L10)/2
 135 001b 00       		.p2align 1
 136              	.L16:
 137              		.loc 1 84 0
 138 001c BDE80840 		pop	{r3, lr}
 139              		.loc 1 68 0
 140 0020 FFF7FEBF 		b	nrf_driver_init
 141              	.LVL9:
 142              	.L9:
 143              		.loc 1 84 0
 144 0024 BDE80840 		pop	{r3, lr}
 145              		.loc 1 39 0
 146 0028 FFF7FEBF 		b	app_ppm_start
 147              	.LVL10:
 148              	.L11:
 149              		.loc 1 84 0
 150 002c BDE80840 		pop	{r3, lr}
 151              		.loc 1 43 0
 152 0030 FFF7FEBF 		b	app_adc_start
 153              	.LVL11:
 154              	.L12:
 155              		.loc 1 47 0
 156 0034 FFF7FEFF 		bl	hw_stop_i2c
 157              	.LVL12:
 158              		.loc 1 84 0
 159 0038 BDE80840 		pop	{r3, lr}
 160              		.loc 1 48 0
 161 003c FFF7FEBF 		b	app_uartcomm_start
 162              	.LVL13:
 163              	.L13:
 164              		.loc 1 52 0
 165 0040 FFF7FEFF 		bl	hw_stop_i2c
 166              	.LVL14:
 167              		.loc 1 53 0
 168 0044 FFF7FEFF 		bl	app_ppm_start
ARM GAS  C:\Users\jsyoon\AppData\Local\Temp\ccwQnUU8.s 			page 4


 169              	.LVL15:
 170              		.loc 1 84 0
 171 0048 BDE80840 		pop	{r3, lr}
 172              		.loc 1 54 0
 173 004c FFF7FEBF 		b	app_uartcomm_start
 174              	.LVL16:
 175              	.L14:
 176              		.loc 1 58 0
 177 0050 FFF7FEFF 		bl	hw_stop_i2c
 178              	.LVL17:
 179              		.loc 1 59 0
 180 0054 FFF7FEFF 		bl	app_adc_start
 181              	.LVL18:
 182              		.loc 1 84 0
 183 0058 BDE80840 		pop	{r3, lr}
 184              		.loc 1 60 0
 185 005c FFF7FEBF 		b	app_uartcomm_start
 186              	.LVL19:
 187              	.L15:
 188              		.loc 1 84 0
 189 0060 BDE80840 		pop	{r3, lr}
 190              		.loc 1 64 0
 191 0064 FFF7FEBF 		b	app_nunchuk_start
 192              	.LVL20:
 193              	.L7:
 194 0068 08BD     		pop	{r3, pc}
 195              	.L19:
 196 006a 00BF     		.align	2
 197              	.L18:
 198 006c 00000000 		.word	.LANCHOR0
 199              		.cfi_endproc
 200              	.LFE118:
 201              		.size	app_init, .-app_init
 202              		.section	.bss.appconf,"aw",%nobits
 203              		.align	2
 204              		.set	.LANCHOR0,. + 0
 205              		.type	appconf, %object
 206              		.size	appconf, 140
 207              	appconf:
 208 0000 00000000 		.space	140
 208      00000000 
 208      00000000 
 208      00000000 
 208      00000000 
 209              		.text
 210              	.Letext0:
 211              		.file 2 "c:\\crosstools\\gcc-arm-embedded\\4.8_2014q2\\arm-none-eabi\\include\\machine\\_default_t
 212              		.file 3 "c:\\crosstools\\gcc-arm-embedded\\4.8_2014q2\\arm-none-eabi\\include\\stdint.h"
 213              		.file 4 "./datatypes.h"
 214              		.file 5 "applications/app.h"
 215              		.file 6 "nrf/nrf_driver.h"
 216              		.file 7 "hwconf/hw.h"
 217              		.file 8 "ChibiOS_2.6.6/os/ports/common/ARMCMx/CMSIS/include/core_cm4.h"