ARM GAS  C:\Users\jsyoon\AppData\Local\Temp\cc95Q1rp.s 			page 1


   1              		.syntax unified
   2              		.cpu cortex-m4
   3              		.eabi_attribute 27, 3
   4              		.eabi_attribute 28, 1
   5              		.fpu fpv4-sp-d16
   6              		.eabi_attribute 20, 1
   7              		.eabi_attribute 21, 1
   8              		.eabi_attribute 23, 3
   9              		.eabi_attribute 24, 1
  10              		.eabi_attribute 25, 1
  11              		.eabi_attribute 26, 1
  12              		.eabi_attribute 30, 2
  13              		.eabi_attribute 34, 1
  14              		.eabi_attribute 18, 4
  15              		.thumb
  16              		.file	"app_ppm.c"
  17              		.text
  18              	.Ltext0:
  19              		.cfi_sections	.debug_frame
  20              		.section	.text.update,"ax",%progbits
  21              		.align	2
  22              		.p2align 4,,15
  23              		.thumb
  24              		.thumb_func
  25              		.type	update, %function
  26              	update:
  27              	.LFB121:
  28              		.file 1 "applications/app_ppm.c"
  29              		.loc 1 82 0
  30              		.cfi_startproc
  31              		@ args = 0, pretend = 0, frame = 0
  32              		@ frame_needed = 0, uses_anonymous_args = 0
  33              	.LVL0:
  34 0000 08B5     		push	{r3, lr}
  35              		.cfi_def_cfa_offset 8
  36              		.cfi_offset 3, -8
  37              		.cfi_offset 14, -4
  38              		.loc 1 82 0
  39 0002 0346     		mov	r3, r0
  40              		.loc 1 83 0
  41              	@ 83 "applications/app_ppm.c" 1
  42 0004 72B6     		cpsid   i
  43              	@ 0 "" 2
  44              		.loc 1 84 0
  45              		.thumb
  46 0006 064A     		ldr	r2, .L2
  47 0008 0648     		ldr	r0, .L2+4
  48              	.LVL1:
  49 000a 1421     		movs	r1, #20
  50 000c FFF7FEFF 		bl	chVTSetI
  51              	.LVL2:
  52              		.loc 1 85 0
  53 0010 054B     		ldr	r3, .L2+8
  54 0012 0121     		movs	r1, #1
  55 0014 1868     		ldr	r0, [r3]
  56 0016 FFF7FEFF 		bl	chEvtSignalI
  57              	.LVL3:
ARM GAS  C:\Users\jsyoon\AppData\Local\Temp\cc95Q1rp.s 			page 2


  58              		.loc 1 86 0
  59              	@ 86 "applications/app_ppm.c" 1
  60 001a 62B6     		cpsie   i
  61              	@ 0 "" 2
  62              		.thumb
  63 001c 08BD     		pop	{r3, pc}
  64              	.L3:
  65 001e 00BF     		.align	2
  66              	.L2:
  67 0020 00000000 		.word	update
  68 0024 00000000 		.word	.LANCHOR0
  69 0028 00000000 		.word	.LANCHOR1
  70              		.cfi_endproc
  71              	.LFE121:
  72              		.size	update, .-update
  73 002c AFF30080 		.section	.text.ppm_thread,"ax",%progbits
  74              		.align	2
  75              		.p2align 4,,15
  76              		.thumb
  77              		.thumb_func
  78              		.type	ppm_thread, %function
  79              	ppm_thread:
  80              	.LFB122:
  81              		.loc 1 89 0
  82              		.cfi_startproc
  83              		@ args = 0, pretend = 0, frame = 0
  84              		@ frame_needed = 0, uses_anonymous_args = 0
  85              	.LVL4:
  86              		.loc 1 92 0
  87 0000 0A4A     		ldr	r2, .L7
  88 0002 0B49     		ldr	r1, .L7+4
  89 0004 9269     		ldr	r2, [r2, #24]
  90              		.loc 1 89 0
  91 0006 08B5     		push	{r3, lr}
  92              		.cfi_def_cfa_offset 8
  93              		.cfi_offset 3, -8
  94              		.cfi_offset 14, -4
  95              		.loc 1 95 0
  96 0008 0A4B     		ldr	r3, .L7+8
  97              		.loc 1 92 0
  98 000a 9161     		str	r1, [r2, #24]
  99              		.loc 1 95 0
 100 000c 93ED030A 		flds	s0, [r3, #12]
 101 0010 D3ED040A 		flds	s1, [r3, #16]
 102 0014 187D     		ldrb	r0, [r3, #20]	@ zero_extendqisi2
 103              	.LVL5:
 104              		.loc 1 93 0
 105 0016 084B     		ldr	r3, .L7+12
 106 0018 1A60     		str	r2, [r3]
 107              		.loc 1 95 0
 108 001a FFF7FEFF 		bl	servodec_set_pulse_options
 109              	.LVL6:
 110              		.loc 1 96 0
 111 001e 0748     		ldr	r0, .L7+16
 112 0020 FFF7FEFF 		bl	servodec_init
 113              	.LVL7:
 114              		.loc 1 97 0
ARM GAS  C:\Users\jsyoon\AppData\Local\Temp\cc95Q1rp.s 			page 3


 115 0024 064B     		ldr	r3, .L7+20
 116 0026 0122     		movs	r2, #1
 117 0028 1A70     		strb	r2, [r3]
 118              	.L5:
 119 002a FEE7     		b	.L5
 120              	.L8:
 121              		.align	2
 122              	.L7:
 123 002c 00000000 		.word	rlist
 124 0030 00000000 		.word	.LC0
 125 0034 00000000 		.word	.LANCHOR2
 126 0038 00000000 		.word	.LANCHOR1
 127 003c 00000000 		.word	servodec_func
 128 0040 00000000 		.word	.LANCHOR3
 129              		.cfi_endproc
 130              	.LFE122:
 131              		.size	ppm_thread, .-ppm_thread
 132 0044 AFF30080 		.section	.text.servodec_func,"ax",%progbits
 132      AFF30080 
 132      AFF30080 
 133              		.align	2
 134              		.p2align 4,,15
 135              		.thumb
 136              		.thumb_func
 137              		.type	servodec_func, %function
 138              	servodec_func:
 139              	.LFB120:
 140              		.loc 1 75 0
 141              		.cfi_startproc
 142              		@ args = 0, pretend = 0, frame = 0
 143              		@ frame_needed = 0, uses_anonymous_args = 0
 144 0000 08B5     		push	{r3, lr}
 145              		.cfi_def_cfa_offset 8
 146              		.cfi_offset 3, -8
 147              		.cfi_offset 14, -4
 148              		.loc 1 76 0
 149              	@ 76 "applications/app_ppm.c" 1
 150 0002 72B6     		cpsid   i
 151              	@ 0 "" 2
 152              		.loc 1 77 0
 153              		.thumb
 154 0004 FFF7FEFF 		bl	timeout_reset
 155              	.LVL8:
 156              		.loc 1 78 0
 157 0008 034B     		ldr	r3, .L10
 158 000a 0121     		movs	r1, #1
 159 000c 1868     		ldr	r0, [r3]
 160 000e FFF7FEFF 		bl	chEvtSignalI
 161              	.LVL9:
 162              		.loc 1 79 0
 163              	@ 79 "applications/app_ppm.c" 1
 164 0012 62B6     		cpsie   i
 165              	@ 0 "" 2
 166              		.thumb
 167 0014 08BD     		pop	{r3, pc}
 168              	.L11:
 169 0016 00BF     		.align	2
ARM GAS  C:\Users\jsyoon\AppData\Local\Temp\cc95Q1rp.s 			page 4


 170              	.L10:
 171 0018 00000000 		.word	.LANCHOR1
 172              		.cfi_endproc
 173              	.LFE120:
 174              		.size	servodec_func, .-servodec_func
 175 001c AFF30080 		.section	.text.app_ppm_configure,"ax",%progbits
 176              		.align	2
 177              		.p2align 4,,15
 178              		.global	app_ppm_configure
 179              		.thumb
 180              		.thumb_func
 181              		.type	app_ppm_configure, %function
 182              	app_ppm_configure:
 183              	.LFB118:
 184              		.loc 1 58 0
 185              		.cfi_startproc
 186              		@ args = 0, pretend = 0, frame = 0
 187              		@ frame_needed = 0, uses_anonymous_args = 0
 188              		@ link register save eliminated.
 189              	.LVL10:
 190 0000 F0B4     		push	{r4, r5, r6, r7}
 191              		.cfi_def_cfa_offset 16
 192              		.cfi_offset 4, -16
 193              		.cfi_offset 5, -12
 194              		.cfi_offset 6, -8
 195              		.cfi_offset 7, -4
 196              		.loc 1 59 0
 197 0002 0546     		mov	r5, r0
 198 0004 0FCD     		ldmia	r5!, {r0, r1, r2, r3}
 199              	.LVL11:
 200 0006 0D4E     		ldr	r6, .L15
 201              		.loc 1 60 0
 202 0008 DFF838C0 		ldr	ip, .L15+8
 203              		.loc 1 62 0
 204 000c 0C4F     		ldr	r7, .L15+4
 205              		.loc 1 59 0
 206 000e 3446     		mov	r4, r6
 207 0010 0FC4     		stmia	r4!, {r0, r1, r2, r3}
 208 0012 0FCD     		ldmia	r5!, {r0, r1, r2, r3}
 209              	.LVL12:
 210 0014 0FC4     		stmia	r4!, {r0, r1, r2, r3}
 211 0016 95E80300 		ldmia	r5, {r0, r1}
 212 001a 84E80300 		stmia	r4, {r0, r1}
 213              		.loc 1 60 0
 214 001e 0023     		movs	r3, #0
 215 0020 CCF80030 		str	r3, [ip]
 216              		.loc 1 62 0
 217 0024 3B78     		ldrb	r3, [r7]	@ zero_extendqisi2
 218 0026 0BB9     		cbnz	r3, .L14
 219              		.loc 1 65 0
 220 0028 F0BC     		pop	{r4, r5, r6, r7}
 221              	.LVL13:
 222 002a 7047     		bx	lr
 223              	.L14:
 224              		.loc 1 63 0
 225 002c 96ED030A 		flds	s0, [r6, #12]
 226 0030 D6ED040A 		flds	s1, [r6, #16]
ARM GAS  C:\Users\jsyoon\AppData\Local\Temp\cc95Q1rp.s 			page 5


 227 0034 307D     		ldrb	r0, [r6, #20]	@ zero_extendqisi2
 228              		.loc 1 65 0
 229 0036 F0BC     		pop	{r4, r5, r6, r7}
 230              		.loc 1 63 0
 231 0038 FFF7FEBF 		b	servodec_set_pulse_options
 232              	.LVL14:
 233              	.L16:
 234              		.align	2
 235              	.L15:
 236 003c 00000000 		.word	.LANCHOR2
 237 0040 00000000 		.word	.LANCHOR3
 238 0044 00000000 		.word	.LANCHOR4
 239              		.cfi_endproc
 240              	.LFE118:
 241              		.size	app_ppm_configure, .-app_ppm_configure
 242 0048 AFF30080 		.section	.text.app_ppm_start,"ax",%progbits
 242      AFF30080 
 243              		.align	2
 244              		.p2align 4,,15
 245              		.global	app_ppm_start
 246              		.thumb
 247              		.thumb_func
 248              		.type	app_ppm_start, %function
 249              	app_ppm_start:
 250              	.LFB119:
 251              		.loc 1 67 0
 252              		.cfi_startproc
 253              		@ args = 0, pretend = 0, frame = 0
 254              		@ frame_needed = 0, uses_anonymous_args = 0
 255 0000 10B5     		push	{r4, lr}
 256              		.cfi_def_cfa_offset 8
 257              		.cfi_offset 4, -8
 258              		.cfi_offset 14, -4
 259 0002 82B0     		sub	sp, sp, #8
 260              		.cfi_def_cfa_offset 16
 261              		.loc 1 68 0
 262 0004 0024     		movs	r4, #0
 263 0006 0094     		str	r4, [sp]
 264 0008 084B     		ldr	r3, .L18
 265 000a 0948     		ldr	r0, .L18+4
 266 000c 4FF4B361 		mov	r1, #1432
 267 0010 4022     		movs	r2, #64
 268 0012 FFF7FEFF 		bl	chThdCreateStatic
 269              	.LVL15:
 270              		.loc 1 70 0
 271              	@ 70 "applications/app_ppm.c" 1
 272 0016 72B6     		cpsid   i
 273              	@ 0 "" 2
 274              		.loc 1 71 0
 275              		.thumb
 276 0018 0648     		ldr	r0, .L18+8
 277 001a 074A     		ldr	r2, .L18+12
 278 001c 2346     		mov	r3, r4
 279 001e 0A21     		movs	r1, #10
 280 0020 FFF7FEFF 		bl	chVTSetI
 281              	.LVL16:
 282              		.loc 1 72 0
ARM GAS  C:\Users\jsyoon\AppData\Local\Temp\cc95Q1rp.s 			page 6


 283              	@ 72 "applications/app_ppm.c" 1
 284 0024 62B6     		cpsie   i
 285              	@ 0 "" 2
 286              		.loc 1 73 0
 287              		.thumb
 288 0026 02B0     		add	sp, sp, #8
 289              		@ sp needed
 290 0028 10BD     		pop	{r4, pc}
 291              	.L19:
 292 002a 00BF     		.align	2
 293              	.L18:
 294 002c 00000000 		.word	ppm_thread
 295 0030 00000000 		.word	.LANCHOR5
 296 0034 00000000 		.word	.LANCHOR0
 297 0038 00000000 		.word	update
 298              		.cfi_endproc
 299              	.LFE119:
 300              		.size	app_ppm_start, .-app_ppm_start
 301              		.global	vt
 302 003c AFF30080 		.section	.bss.is_running,"aw",%nobits
 303              		.set	.LANCHOR3,. + 0
 304              		.type	is_running, %object
 305              		.size	is_running, 1
 306              	is_running:
 307 0000 00       		.space	1
 308              		.section	.bss.ppm_tp,"aw",%nobits
 309              		.align	2
 310              		.set	.LANCHOR1,. + 0
 311              		.type	ppm_tp, %object
 312              		.size	ppm_tp, 4
 313              	ppm_tp:
 314 0000 00000000 		.space	4
 315              		.section	.bss.ppm_thread_wa,"aw",%nobits
 316              		.align	3
 317              		.set	.LANCHOR5,. + 0
 318              		.type	ppm_thread_wa, %object
 319              		.size	ppm_thread_wa, 1432
 320              	ppm_thread_wa:
 321 0000 00000000 		.space	1432
 321      00000000 
 321      00000000 
 321      00000000 
 321      00000000 
 322              		.section	.bss.pulses_without_power,"aw",%nobits
 323              		.align	2
 324              		.set	.LANCHOR4,. + 0
 325              		.type	pulses_without_power, %object
 326              		.size	pulses_without_power, 4
 327              	pulses_without_power:
 328 0000 00000000 		.space	4
 329              		.section	.rodata.str1.4,"aMS",%progbits,1
 330              		.align	2
 331              	.LC0:
 332 0000 4150505F 		.ascii	"APP_PPM\000"
 332      50504D00 
 333              		.section	.bss.vt,"aw",%nobits
 334              		.align	2
ARM GAS  C:\Users\jsyoon\AppData\Local\Temp\cc95Q1rp.s 			page 7


 335              		.set	.LANCHOR0,. + 0
 336              		.type	vt, %object
 337              		.size	vt, 20
 338              	vt:
 339 0000 00000000 		.space	20
 339      00000000 
 339      00000000 
 339      00000000 
 339      00000000 
 340              		.section	.bss.config,"aw",%nobits
 341              		.align	2
 342              		.set	.LANCHOR2,. + 0
 343              		.type	config, %object
 344              		.size	config, 40
 345              	config:
 346 0000 00000000 		.space	40
 346      00000000 
 346      00000000 
 346      00000000 
 346      00000000 
 347              		.text
 348              	.Letext0:
 349              		.file 2 "c:\\crosstools\\gcc-arm-embedded\\4.8_2014q2\\arm-none-eabi\\include\\machine\\_default_t
 350              		.file 3 "c:\\crosstools\\gcc-arm-embedded\\4.8_2014q2\\arm-none-eabi\\include\\stdint.h"
 351              		.file 4 "c:\\crosstools\\gcc-arm-embedded\\4.8_2014q2\\lib\\gcc\\arm-none-eabi\\4.8.4\\include\\st
 352              		.file 5 "ChibiOS_2.6.6/os/ports/GCC/ARMCMx/chtypes.h"
 353              		.file 6 "ChibiOS_2.6.6/os/kernel/include/chlists.h"
 354              		.file 7 "ChibiOS_2.6.6/os/kernel/include/chthreads.h"
 355              		.file 8 "ChibiOS_2.6.6/os/ports/GCC/ARMCMx/chcore_v7m.h"
 356              		.file 9 "ChibiOS_2.6.6/os/kernel/include/chvt.h"
 357              		.file 10 "ChibiOS_2.6.6/os/kernel/include/chschd.h"
 358              		.file 11 "ChibiOS_2.6.6/os/kernel/include/chmtx.h"
 359              		.file 12 "./datatypes.h"
 360              		.file 13 "ChibiOS_2.6.6/os/ports/common/ARMCMx/CMSIS/include/core_cm4.h"
 361              		.file 14 "ChibiOS_2.6.6/os/kernel/include/chevents.h"
 362              		.file 15 "./servo_dec.h"
 363              		.file 16 "./timeout.h"