ARM GAS  C:\Users\jsyoon\AppData\Local\Temp\ccsxAC7R.s 			page 1


   1              		.syntax unified
   2              		.cpu cortex-m4
   3              		.eabi_attribute 27, 3
   4              		.eabi_attribute 28, 1
   5              		.fpu fpv4-sp-d16
   6              		.eabi_attribute 20, 1
   7              		.eabi_attribute 21, 1
   8              		.eabi_attribute 23, 3
   9              		.eabi_attribute 24, 1
  10              		.eabi_attribute 25, 1
  11              		.eabi_attribute 26, 1
  12              		.eabi_attribute 30, 2
  13              		.eabi_attribute 34, 1
  14              		.eabi_attribute 18, 4
  15              		.thumb
  16              		.file	"app_uartcomm.c"
  17              		.text
  18              	.Ltext0:
  19              		.cfi_sections	.debug_frame
  20              		.section	.text.txend1,"ax",%progbits
  21              		.align	2
  22              		.p2align 4,,15
  23              		.thumb
  24              		.thumb_func
  25              		.type	txend1, %function
  26              	txend1:
  27              	.LFB118:
  28              		.file 1 "applications/app_uartcomm.c"
  29              		.loc 1 60 0
  30              		.cfi_startproc
  31              		@ args = 0, pretend = 0, frame = 0
  32              		@ frame_needed = 0, uses_anonymous_args = 0
  33              		@ link register save eliminated.
  34              	.LVL0:
  35 0000 7047     		bx	lr
  36              		.cfi_endproc
  37              	.LFE118:
  38              		.size	txend1, .-txend1
  39 0002 00BFAFF3 		.section	.text.txend2,"ax",%progbits
  39      0080AFF3 
  39      0080AFF3 
  39      0080
  40              		.align	2
  41              		.p2align 4,,15
  42              		.thumb
  43              		.thumb_func
  44              		.type	txend2, %function
  45              	txend2:
  46              	.LFB119:
  47              		.loc 1 67 0
  48              		.cfi_startproc
  49              		@ args = 0, pretend = 0, frame = 0
  50              		@ frame_needed = 0, uses_anonymous_args = 0
  51              		@ link register save eliminated.
  52              	.LVL1:
  53 0000 7047     		bx	lr
  54              		.cfi_endproc
ARM GAS  C:\Users\jsyoon\AppData\Local\Temp\ccsxAC7R.s 			page 2


  55              	.LFE119:
  56              		.size	txend2, .-txend2
  57 0002 00BFAFF3 		.section	.text.rxerr,"ax",%progbits
  57      0080AFF3 
  57      0080AFF3 
  57      0080
  58              		.align	2
  59              		.p2align 4,,15
  60              		.thumb
  61              		.thumb_func
  62              		.type	rxerr, %function
  63              	rxerr:
  64              	.LFB120:
  65              		.loc 1 75 0
  66              		.cfi_startproc
  67              		@ args = 0, pretend = 0, frame = 0
  68              		@ frame_needed = 0, uses_anonymous_args = 0
  69              		@ link register save eliminated.
  70              	.LVL2:
  71 0000 7047     		bx	lr
  72              		.cfi_endproc
  73              	.LFE120:
  74              		.size	rxerr, .-rxerr
  75 0002 00BFAFF3 		.section	.text.rxend,"ax",%progbits
  75      0080AFF3 
  75      0080AFF3 
  75      0080
  76              		.align	2
  77              		.p2align 4,,15
  78              		.thumb
  79              		.thumb_func
  80              		.type	rxend, %function
  81              	rxend:
  82              	.LFB122:
  83              		.loc 1 98 0
  84              		.cfi_startproc
  85              		@ args = 0, pretend = 0, frame = 0
  86              		@ frame_needed = 0, uses_anonymous_args = 0
  87              		@ link register save eliminated.
  88              	.LVL3:
  89 0000 7047     		bx	lr
  90              		.cfi_endproc
  91              	.LFE122:
  92              		.size	rxend, .-rxend
  93 0002 00BFAFF3 		.section	.text.packet_process_thread,"ax",%progbits
  93      0080AFF3 
  93      0080AFF3 
  93      0080
  94              		.align	2
  95              		.p2align 4,,15
  96              		.thumb
  97              		.thumb_func
  98              		.type	packet_process_thread, %function
  99              	packet_process_thread:
 100              	.LFB128:
 101              		.loc 1 164 0
 102              		.cfi_startproc
ARM GAS  C:\Users\jsyoon\AppData\Local\Temp\ccsxAC7R.s 			page 3


 103              		@ args = 0, pretend = 0, frame = 0
 104              		@ frame_needed = 0, uses_anonymous_args = 0
 105              	.LVL4:
 106              		.loc 1 164 0
 107 0000 2DE9F843 		push	{r3, r4, r5, r6, r7, r8, r9, lr}
 108              		.cfi_def_cfa_offset 32
 109              		.cfi_offset 3, -32
 110              		.cfi_offset 4, -28
 111              		.cfi_offset 5, -24
 112              		.cfi_offset 6, -20
 113              		.cfi_offset 7, -16
 114              		.cfi_offset 8, -12
 115              		.cfi_offset 9, -8
 116              		.cfi_offset 14, -4
 117              		.loc 1 167 0
 118 0004 114B     		ldr	r3, .L12
 119              		.loc 1 169 0
 120 0006 124A     		ldr	r2, .L12+4
 121              		.loc 1 167 0
 122 0008 9B69     		ldr	r3, [r3, #24]
 123 000a 124C     		ldr	r4, .L12+8
 124 000c 1249     		ldr	r1, .L12+12
 125 000e 134E     		ldr	r6, .L12+16
 126 0010 DFF84C90 		ldr	r9, .L12+20
 127 0014 9961     		str	r1, [r3, #24]
 128              		.loc 1 169 0
 129 0016 1360     		str	r3, [r2]
 130              		.loc 1 175 0
 131 0018 A046     		mov	r8, r4
 132              	.LVL5:
 133              	.L10:
 134              		.loc 1 172 0
 135 001a 0120     		movs	r0, #1
 136 001c FFF7FEFF 		bl	chEvtWaitAny
 137              	.LVL6:
 138              		.loc 1 178 0
 139 0020 0027     		movs	r7, #0
 140              	.L6:
 141 0022 2368     		ldr	r3, [r4]
 142              	.L8:
 143              		.loc 1 174 0 discriminator 1
 144 0024 D9F80020 		ldr	r2, [r9]
 145 0028 9A42     		cmp	r2, r3
 146              		.loc 1 175 0 discriminator 1
 147 002a 03F10105 		add	r5, r3, #1
 148 002e 4FF00101 		mov	r1, #1
 149              		.loc 1 174 0 discriminator 1
 150 0032 F2D0     		beq	.L10
 151              		.loc 1 175 0
 152 0034 F05C     		ldrb	r0, [r6, r3]	@ zero_extendqisi2
 153 0036 2560     		str	r5, [r4]
 154 0038 FFF7FEFF 		bl	packet_process_byte
 155              	.LVL7:
 156              		.loc 1 177 0
 157 003c 2368     		ldr	r3, [r4]
 158 003e B3F5806F 		cmp	r3, #1024
 159 0042 EFD1     		bne	.L8
ARM GAS  C:\Users\jsyoon\AppData\Local\Temp\ccsxAC7R.s 			page 4


 160              		.loc 1 178 0
 161 0044 C8F80070 		str	r7, [r8]
 162 0048 EBE7     		b	.L6
 163              	.L13:
 164 004a 00BF     		.align	2
 165              	.L12:
 166 004c 00000000 		.word	rlist
 167 0050 00000000 		.word	.LANCHOR0
 168 0054 00000000 		.word	.LANCHOR1
 169 0058 00000000 		.word	.LC0
 170 005c 00000000 		.word	.LANCHOR2
 171 0060 00000000 		.word	.LANCHOR3
 172              		.cfi_endproc
 173              	.LFE128:
 174              		.size	packet_process_thread, .-packet_process_thread
 175 0064 AFF30080 		.section	.text.rxchar,"ax",%progbits
 175      AFF30080 
 175      AFF30080 
 176              		.align	2
 177              		.p2align 4,,15
 178              		.thumb
 179              		.thumb_func
 180              		.type	rxchar, %function
 181              	rxchar:
 182              	.LFB121:
 183              		.loc 1 84 0
 184              		.cfi_startproc
 185              		@ args = 0, pretend = 0, frame = 0
 186              		@ frame_needed = 0, uses_anonymous_args = 0
 187              		@ link register save eliminated.
 188              	.LVL8:
 189              		.loc 1 86 0
 190 0000 094B     		ldr	r3, .L16
 191 0002 1868     		ldr	r0, [r3]
 192              	.LVL9:
 193 0004 421C     		adds	r2, r0, #1
 194              		.loc 1 88 0
 195 0006 B2F5806F 		cmp	r2, #1024
 196              		.loc 1 84 0
 197 000a 10B4     		push	{r4}
 198              		.cfi_def_cfa_offset 4
 199              		.cfi_offset 4, -4
 200              		.loc 1 86 0
 201 000c 1A60     		str	r2, [r3]
 202              		.loc 1 89 0
 203 000e 08BF     		it	eq
 204 0010 0022     		moveq	r2, #0
 205              		.loc 1 86 0
 206 0012 064C     		ldr	r4, .L16+4
 207              		.loc 1 89 0
 208 0014 08BF     		it	eq
 209 0016 1A60     		streq	r2, [r3]
 210              		.loc 1 92 0
 211 0018 054B     		ldr	r3, .L16+8
 212              		.loc 1 86 0
 213 001a 2154     		strb	r1, [r4, r0]
 214              		.loc 1 92 0
ARM GAS  C:\Users\jsyoon\AppData\Local\Temp\ccsxAC7R.s 			page 5


 215 001c 0121     		movs	r1, #1
 216              	.LVL10:
 217 001e 1868     		ldr	r0, [r3]
 218              		.loc 1 93 0
 219 0020 5DF8044B 		ldr	r4, [sp], #4
 220              		.loc 1 92 0
 221 0024 FFF7FEBF 		b	chEvtSignal
 222              	.LVL11:
 223              	.L17:
 224              		.align	2
 225              	.L16:
 226 0028 00000000 		.word	.LANCHOR3
 227 002c 00000000 		.word	.LANCHOR2
 228 0030 00000000 		.word	.LANCHOR0
 229              		.cfi_endproc
 230              	.LFE121:
 231              		.size	rxchar, .-rxchar
 232 0034 AFF30080 		.section	.text.process_packet,"ax",%progbits
 232      AFF30080 
 232      AFF30080 
 233              		.align	2
 234              		.p2align 4,,15
 235              		.thumb
 236              		.thumb_func
 237              		.type	process_packet, %function
 238              	process_packet:
 239              	.LFB123:
 240              		.loc 1 117 0
 241              		.cfi_startproc
 242              		@ args = 0, pretend = 0, frame = 0
 243              		@ frame_needed = 0, uses_anonymous_args = 0
 244              	.LVL12:
 245 0000 38B5     		push	{r3, r4, r5, lr}
 246              		.cfi_def_cfa_offset 16
 247              		.cfi_offset 3, -16
 248              		.cfi_offset 4, -12
 249              		.cfi_offset 5, -8
 250              		.cfi_offset 14, -4
 251              		.loc 1 117 0
 252 0002 0446     		mov	r4, r0
 253 0004 0D46     		mov	r5, r1
 254              		.loc 1 118 0
 255 0006 0448     		ldr	r0, .L19
 256              	.LVL13:
 257 0008 FFF7FEFF 		bl	commands_set_send_func
 258              	.LVL14:
 259              		.loc 1 119 0
 260 000c 2046     		mov	r0, r4
 261 000e 2946     		mov	r1, r5
 262              		.loc 1 120 0
 263 0010 BDE83840 		pop	{r3, r4, r5, lr}
 264              	.LVL15:
 265              		.loc 1 119 0
 266 0014 FFF7FEBF 		b	commands_process_packet
 267              	.LVL16:
 268              	.L20:
 269              		.align	2
ARM GAS  C:\Users\jsyoon\AppData\Local\Temp\ccsxAC7R.s 			page 6


 270              	.L19:
 271 0018 00000000 		.word	send_packet_wrapper
 272              		.cfi_endproc
 273              	.LFE123:
 274              		.size	process_packet, .-process_packet
 275 001c AFF30080 		.section	.text.send_packet_wrapper,"ax",%progbits
 276              		.align	2
 277              		.p2align 4,,15
 278              		.thumb
 279              		.thumb_func
 280              		.type	send_packet_wrapper, %function
 281              	send_packet_wrapper:
 282              	.LFB124:
 283              		.loc 1 122 0
 284              		.cfi_startproc
 285              		@ args = 0, pretend = 0, frame = 0
 286              		@ frame_needed = 0, uses_anonymous_args = 0
 287              		@ link register save eliminated.
 288              	.LVL17:
 289              		.loc 1 123 0
 290 0000 0122     		movs	r2, #1
 291 0002 FFF7FEBF 		b	packet_send_packet
 292              	.LVL18:
 293              		.cfi_endproc
 294              	.LFE124:
 295              		.size	send_packet_wrapper, .-send_packet_wrapper
 296 0006 00BFAFF3 		.section	.text.send_packet,"ax",%progbits
 296      0080AFF3 
 296      0080
 297              		.align	2
 298              		.p2align 4,,15
 299              		.thumb
 300              		.thumb_func
 301              		.type	send_packet, %function
 302              	send_packet:
 303              	.LFB125:
 304              		.loc 1 126 0
 305              		.cfi_startproc
 306              		@ args = 0, pretend = 0, frame = 0
 307              		@ frame_needed = 0, uses_anonymous_args = 0
 308              	.LVL19:
 309 0000 70B5     		push	{r4, r5, r6, lr}
 310              		.cfi_def_cfa_offset 16
 311              		.cfi_offset 4, -16
 312              		.cfi_offset 5, -12
 313              		.cfi_offset 6, -8
 314              		.cfi_offset 14, -4
 315              		.loc 1 128 0
 316 0002 0C4C     		ldr	r4, .L26
 317 0004 6378     		ldrb	r3, [r4, #1]	@ zero_extendqisi2
 318 0006 012B     		cmp	r3, #1
 319              		.loc 1 126 0
 320 0008 0646     		mov	r6, r0
 321 000a 0D46     		mov	r5, r1
 322              		.loc 1 128 0
 323 000c 05D1     		bne	.L24
 324              	.LVL20:
ARM GAS  C:\Users\jsyoon\AppData\Local\Temp\ccsxAC7R.s 			page 7


 325              	.L25:
 326              		.loc 1 129 0
 327 000e 0120     		movs	r0, #1
 328 0010 FFF7FEFF 		bl	chThdSleep
 329              	.LVL21:
 330              		.loc 1 128 0
 331 0014 6378     		ldrb	r3, [r4, #1]	@ zero_extendqisi2
 332 0016 012B     		cmp	r3, #1
 333 0018 F9D0     		beq	.L25
 334              	.L24:
 335              		.loc 1 135 0
 336 001a 3146     		mov	r1, r6
 337 001c 2A46     		mov	r2, r5
 338 001e 0648     		ldr	r0, .L26+4
 339 0020 FFF7FEFF 		bl	memcpy
 340              	.LVL22:
 341              		.loc 1 137 0
 342 0024 2946     		mov	r1, r5
 343 0026 0348     		ldr	r0, .L26
 344 0028 034A     		ldr	r2, .L26+4
 345              		.loc 1 138 0
 346 002a BDE87040 		pop	{r4, r5, r6, lr}
 347              	.LVL23:
 348              		.loc 1 137 0
 349 002e FFF7FEBF 		b	uartStartSend
 350              	.LVL24:
 351              	.L27:
 352 0032 00BF     		.align	2
 353              	.L26:
 354 0034 00000000 		.word	UARTD6
 355 0038 00000000 		.word	.LANCHOR4
 356              		.cfi_endproc
 357              	.LFE125:
 358              		.size	send_packet, .-send_packet
 359 003c AFF30080 		.section	.text.app_uartcomm_start,"ax",%progbits
 360              		.align	2
 361              		.p2align 4,,15
 362              		.global	app_uartcomm_start
 363              		.thumb
 364              		.thumb_func
 365              		.type	app_uartcomm_start, %function
 366              	app_uartcomm_start:
 367              	.LFB126:
 368              		.loc 1 140 0
 369              		.cfi_startproc
 370              		@ args = 0, pretend = 0, frame = 0
 371              		@ frame_needed = 0, uses_anonymous_args = 0
 372 0000 30B5     		push	{r4, r5, lr}
 373              		.cfi_def_cfa_offset 12
 374              		.cfi_offset 4, -12
 375              		.cfi_offset 5, -8
 376              		.cfi_offset 14, -4
 377              		.loc 1 141 0
 378 0002 0122     		movs	r2, #1
 379              		.loc 1 140 0
 380 0004 83B0     		sub	sp, sp, #12
 381              		.cfi_def_cfa_offset 24
ARM GAS  C:\Users\jsyoon\AppData\Local\Temp\ccsxAC7R.s 			page 8


 382              		.loc 1 144 0
 383 0006 114C     		ldr	r4, .L29
 384              		.loc 1 141 0
 385 0008 1148     		ldr	r0, .L29+4
 386 000a 1249     		ldr	r1, .L29+8
 387 000c FFF7FEFF 		bl	packet_init
 388              	.LVL25:
 389              		.loc 1 143 0
 390 0010 1148     		ldr	r0, .L29+12
 391 0012 1249     		ldr	r1, .L29+16
 392 0014 FFF7FEFF 		bl	uartStart
 393              	.LVL26:
 394              		.loc 1 144 0
 395 0018 2046     		mov	r0, r4
 396 001a 4021     		movs	r1, #64
 397 001c 40F23A42 		movw	r2, #1082
 398 0020 FFF7FEFF 		bl	_pal_lld_setgroupmode
 399              	.LVL27:
 400              		.loc 1 147 0
 401 0024 2046     		mov	r0, r4
 402 0026 8021     		movs	r1, #128
 403 0028 40F23A42 		movw	r2, #1082
 404              		.loc 1 151 0
 405 002c 0C4C     		ldr	r4, .L29+20
 406              		.loc 1 147 0
 407 002e FFF7FEFF 		bl	_pal_lld_setgroupmode
 408              	.LVL28:
 409              		.loc 1 151 0
 410 0032 0125     		movs	r5, #1
 411              		.loc 1 153 0
 412 0034 0022     		movs	r2, #0
 413 0036 0092     		str	r2, [sp]
 414 0038 0A4B     		ldr	r3, .L29+24
 415              		.loc 1 151 0
 416 003a 2560     		str	r5, [r4]
 417              		.loc 1 153 0
 418 003c 41F29811 		movw	r1, #4504
 419 0040 4022     		movs	r2, #64
 420 0042 0948     		ldr	r0, .L29+28
 421 0044 FFF7FEFF 		bl	chThdCreateStatic
 422              	.LVL29:
 423              		.loc 1 154 0
 424 0048 03B0     		add	sp, sp, #12
 425              		@ sp needed
 426 004a 30BD     		pop	{r4, r5, pc}
 427              	.L30:
 428              		.align	2
 429              	.L29:
 430 004c 00080240 		.word	1073874944
 431 0050 00000000 		.word	send_packet
 432 0054 00000000 		.word	process_packet
 433 0058 00000000 		.word	UARTD6
 434 005c 00000000 		.word	.LANCHOR5
 435 0060 00000000 		.word	.LANCHOR6
 436 0064 00000000 		.word	packet_process_thread
 437 0068 00000000 		.word	.LANCHOR7
 438              		.cfi_endproc
ARM GAS  C:\Users\jsyoon\AppData\Local\Temp\ccsxAC7R.s 			page 9


 439              	.LFE126:
 440              		.size	app_uartcomm_start, .-app_uartcomm_start
 441 006c AFF30080 		.section	.text.app_uartcomm_configure,"ax",%progbits
 442              		.align	2
 443              		.p2align 4,,15
 444              		.global	app_uartcomm_configure
 445              		.thumb
 446              		.thumb_func
 447              		.type	app_uartcomm_configure, %function
 448              	app_uartcomm_configure:
 449              	.LFB127:
 450              		.loc 1 156 0
 451              		.cfi_startproc
 452              		@ args = 0, pretend = 0, frame = 0
 453              		@ frame_needed = 0, uses_anonymous_args = 0
 454              		@ link register save eliminated.
 455              	.LVL30:
 456              		.loc 1 159 0
 457 0000 044B     		ldr	r3, .L34
 458              		.loc 1 157 0
 459 0002 0549     		ldr	r1, .L34+4
 460              		.loc 1 159 0
 461 0004 1B68     		ldr	r3, [r3]
 462              		.loc 1 157 0
 463 0006 4861     		str	r0, [r1, #20]
 464              		.loc 1 159 0
 465 0008 03B9     		cbnz	r3, .L33
 466 000a 7047     		bx	lr
 467              	.L33:
 468              		.loc 1 160 0
 469 000c 0348     		ldr	r0, .L34+8
 470              	.LVL31:
 471 000e FFF7FEBF 		b	uartStart
 472              	.LVL32:
 473              	.L35:
 474 0012 00BF     		.align	2
 475              	.L34:
 476 0014 00000000 		.word	.LANCHOR6
 477 0018 00000000 		.word	.LANCHOR5
 478 001c 00000000 		.word	UARTD6
 479              		.cfi_endproc
 480              	.LFE127:
 481              		.size	app_uartcomm_configure, .-app_uartcomm_configure
 482              		.section	.bss.serial_rx_write_pos,"aw",%nobits
 483              		.align	2
 484              		.set	.LANCHOR3,. + 0
 485              		.type	serial_rx_write_pos, %object
 486              		.size	serial_rx_write_pos, 4
 487              	serial_rx_write_pos:
 488 0000 00000000 		.space	4
 489              		.section	.bss.is_running,"aw",%nobits
 490              		.align	2
 491              		.set	.LANCHOR6,. + 0
 492              		.type	is_running, %object
 493              		.size	is_running, 4
 494              	is_running:
 495 0000 00000000 		.space	4
ARM GAS  C:\Users\jsyoon\AppData\Local\Temp\ccsxAC7R.s 			page 10


 496              		.section	.data.uart_cfg,"aw",%progbits
 497              		.align	2
 498              		.set	.LANCHOR5,. + 0
 499              		.type	uart_cfg, %object
 500              		.size	uart_cfg, 32
 501              	uart_cfg:
 502 0000 00000000 		.word	txend1
 503 0004 00000000 		.word	txend2
 504 0008 00000000 		.word	rxend
 505 000c 00000000 		.word	rxchar
 506 0010 00000000 		.word	rxerr
 507 0014 00C20100 		.word	115200
 508 0018 0000     		.short	0
 509 001a 0040     		.short	16384
 510 001c 0000     		.short	0
 511 001e 0000     		.space	2
 512              		.section	.bss.buffer.9850,"aw",%nobits
 513              		.align	2
 514              		.set	.LANCHOR4,. + 0
 515              		.type	buffer.9850, %object
 516              		.size	buffer.9850, 1029
 517              	buffer.9850:
 518 0000 00000000 		.space	1029
 518      00000000 
 518      00000000 
 518      00000000 
 518      00000000 
 519 0405 000000   		.section	.bss.packet_process_thread_wa,"aw",%nobits
 520              		.align	3
 521              		.set	.LANCHOR7,. + 0
 522              		.type	packet_process_thread_wa, %object
 523              		.size	packet_process_thread_wa, 4504
 524              	packet_process_thread_wa:
 525 0000 00000000 		.space	4504
 525      00000000 
 525      00000000 
 525      00000000 
 525      00000000 
 526              		.section	.bss.serial_rx_buffer,"aw",%nobits
 527              		.align	2
 528              		.set	.LANCHOR2,. + 0
 529              		.type	serial_rx_buffer, %object
 530              		.size	serial_rx_buffer, 1024
 531              	serial_rx_buffer:
 532 0000 00000000 		.space	1024
 532      00000000 
 532      00000000 
 532      00000000 
 532      00000000 
 533              		.section	.rodata.str1.4,"aMS",%progbits,1
 534              		.align	2
 535              	.LC0:
 536 0000 75617274 		.ascii	"uartcomm process\000"
 536      636F6D6D 
 536      2070726F 
 536      63657373 
 536      00
ARM GAS  C:\Users\jsyoon\AppData\Local\Temp\ccsxAC7R.s 			page 11


 537 0011 000000   		.section	.bss.serial_rx_read_pos,"aw",%nobits
 538              		.align	2
 539              		.set	.LANCHOR1,. + 0
 540              		.type	serial_rx_read_pos, %object
 541              		.size	serial_rx_read_pos, 4
 542              	serial_rx_read_pos:
 543 0000 00000000 		.space	4
 544              		.section	.bss.process_tp,"aw",%nobits
 545              		.align	2
 546              		.set	.LANCHOR0,. + 0
 547              		.type	process_tp, %object
 548              		.size	process_tp, 4
 549              	process_tp:
 550 0000 00000000 		.space	4
 551              		.text
 552              	.Letext0:
 553              		.file 2 "c:\\crosstools\\gcc-arm-embedded\\4.8_2014q2\\arm-none-eabi\\include\\machine\\_default_t
 554              		.file 3 "c:\\crosstools\\gcc-arm-embedded\\4.8_2014q2\\arm-none-eabi\\include\\stdint.h"
 555              		.file 4 "c:\\crosstools\\gcc-arm-embedded\\4.8_2014q2\\lib\\gcc\\arm-none-eabi\\4.8.4\\include\\st
 556              		.file 5 "ChibiOS_2.6.6/os/ports/GCC/ARMCMx/chtypes.h"
 557              		.file 6 "ChibiOS_2.6.6/os/kernel/include/chlists.h"
 558              		.file 7 "ChibiOS_2.6.6/os/kernel/include/chthreads.h"
 559              		.file 8 "ChibiOS_2.6.6/os/ports/GCC/ARMCMx/chcore_v7m.h"
 560              		.file 9 "ChibiOS_2.6.6/os/kernel/include/chschd.h"
 561              		.file 10 "ChibiOS_2.6.6/os/kernel/include/chmtx.h"
 562              		.file 11 "ChibiOS_2.6.6/os/hal/platforms/STM32F4xx/stm32f4xx.h"
 563              		.file 12 "ChibiOS_2.6.6/os/hal/platforms/STM32F4xx/stm32_dma.h"
 564              		.file 13 "ChibiOS_2.6.6/os/hal/platforms/STM32/GPIOv2/pal_lld.h"
 565              		.file 14 "ChibiOS_2.6.6/os/hal/include/uart.h"
 566              		.file 15 "ChibiOS_2.6.6/os/hal/platforms/STM32/USARTv1/uart_lld.h"
 567              		.file 16 "ChibiOS_2.6.6/os/ports/common/ARMCMx/CMSIS/include/core_cm4.h"
 568              		.file 17 "./packet.h"
 569              		.file 18 "ChibiOS_2.6.6/os/kernel/include/chevents.h"
 570              		.file 19 "./commands.h"
 571              		.section	.debug_info,"",%progbits
 572              	.Ldebug_info0:
 573 0000 6E0F0000 		.4byte	0xf6e
 574 0004 0400     		.2byte	0x4
 575 0006 00000000 		.4byte	.Ldebug_abbrev0
 576 000a 04       		.byte	0x4
 577 000b 01       		.uleb128 0x1
 578 000c 84010000 		.4byte	.LASF175
 579 0010 01       		.byte	0x1
 580 0011 7C030000 		.4byte	.LASF176
 581 0015 1D010000 		.4byte	.LASF177
 582 0019 00000000 		.4byte	.Ldebug_ranges0+0
 583 001d 00000000 		.4byte	0
 584 0021 00000000 		.4byte	.Ldebug_line0
 585 0025 02       		.uleb128 0x2
 586 0026 01       		.byte	0x1
 587 0027 06       		.byte	0x6
 588 0028 D4000000 		.4byte	.LASF0
 589 002c 03       		.uleb128 0x3
 590 002d 69000000 		.4byte	.LASF3
 591 0031 02       		.byte	0x2
 592 0032 1C       		.byte	0x1c
 593 0033 37000000 		.4byte	0x37
ARM GAS  C:\Users\jsyoon\AppData\Local\Temp\ccsxAC7R.s 			page 12


 594 0037 02       		.uleb128 0x2
 595 0038 01       		.byte	0x1
 596 0039 08       		.byte	0x8
 597 003a 49060000 		.4byte	.LASF1
 598 003e 02       		.uleb128 0x2
 599 003f 02       		.byte	0x2
 600 0040 05       		.byte	0x5
 601 0041 6D060000 		.4byte	.LASF2
 602 0045 03       		.uleb128 0x3
 603 0046 2B070000 		.4byte	.LASF4
 604 004a 02       		.byte	0x2
 605 004b 26       		.byte	0x26
 606 004c 50000000 		.4byte	0x50
 607 0050 02       		.uleb128 0x2
 608 0051 02       		.byte	0x2
 609 0052 07       		.byte	0x7
 610 0053 00040000 		.4byte	.LASF5
 611 0057 03       		.uleb128 0x3
 612 0058 81040000 		.4byte	.LASF6
 613 005c 02       		.byte	0x2
 614 005d 37       		.byte	0x37
 615 005e 62000000 		.4byte	0x62
 616 0062 02       		.uleb128 0x2
 617 0063 04       		.byte	0x4
 618 0064 05       		.byte	0x5
 619 0065 5B010000 		.4byte	.LASF7
 620 0069 03       		.uleb128 0x3
 621 006a 22030000 		.4byte	.LASF8
 622 006e 02       		.byte	0x2
 623 006f 38       		.byte	0x38
 624 0070 74000000 		.4byte	0x74
 625 0074 02       		.uleb128 0x2
 626 0075 04       		.byte	0x4
 627 0076 07       		.byte	0x7
 628 0077 00070000 		.4byte	.LASF9
 629 007b 02       		.uleb128 0x2
 630 007c 08       		.byte	0x8
 631 007d 05       		.byte	0x5
 632 007e C6000000 		.4byte	.LASF10
 633 0082 03       		.uleb128 0x3
 634 0083 A7050000 		.4byte	.LASF11
 635 0087 02       		.byte	0x2
 636 0088 4E       		.byte	0x4e
 637 0089 8D000000 		.4byte	0x8d
 638 008d 02       		.uleb128 0x2
 639 008e 08       		.byte	0x8
 640 008f 07       		.byte	0x7
 641 0090 4B030000 		.4byte	.LASF12
 642 0094 04       		.uleb128 0x4
 643 0095 04       		.byte	0x4
 644 0096 05       		.byte	0x5
 645 0097 696E7400 		.ascii	"int\000"
 646 009b 02       		.uleb128 0x2
 647 009c 04       		.byte	0x4
 648 009d 07       		.byte	0x7
 649 009e 9E030000 		.4byte	.LASF13
 650 00a2 03       		.uleb128 0x3
ARM GAS  C:\Users\jsyoon\AppData\Local\Temp\ccsxAC7R.s 			page 13


 651 00a3 12080000 		.4byte	.LASF14
 652 00a7 03       		.byte	0x3
 653 00a8 2A       		.byte	0x2a
 654 00a9 2C000000 		.4byte	0x2c
 655 00ad 03       		.uleb128 0x3
 656 00ae AF020000 		.4byte	.LASF15
 657 00b2 03       		.byte	0x3
 658 00b3 36       		.byte	0x36
 659 00b4 45000000 		.4byte	0x45
 660 00b8 03       		.uleb128 0x3
 661 00b9 41060000 		.4byte	.LASF16
 662 00bd 03       		.byte	0x3
 663 00be 41       		.byte	0x41
 664 00bf 57000000 		.4byte	0x57
 665 00c3 03       		.uleb128 0x3
 666 00c4 E0070000 		.4byte	.LASF17
 667 00c8 03       		.byte	0x3
 668 00c9 42       		.byte	0x42
 669 00ca 69000000 		.4byte	0x69
 670 00ce 03       		.uleb128 0x3
 671 00cf 59000000 		.4byte	.LASF18
 672 00d3 03       		.byte	0x3
 673 00d4 4E       		.byte	0x4e
 674 00d5 82000000 		.4byte	0x82
 675 00d9 03       		.uleb128 0x3
 676 00da 27000000 		.4byte	.LASF19
 677 00de 04       		.byte	0x4
 678 00df D4       		.byte	0xd4
 679 00e0 9B000000 		.4byte	0x9b
 680 00e4 02       		.uleb128 0x2
 681 00e5 01       		.byte	0x1
 682 00e6 02       		.byte	0x2
 683 00e7 3B060000 		.4byte	.LASF20
 684 00eb 03       		.uleb128 0x3
 685 00ec 4A040000 		.4byte	.LASF21
 686 00f0 05       		.byte	0x5
 687 00f1 2C       		.byte	0x2c
 688 00f2 A2000000 		.4byte	0xa2
 689 00f6 03       		.uleb128 0x3
 690 00f7 64010000 		.4byte	.LASF22
 691 00fb 05       		.byte	0x5
 692 00fc 2D       		.byte	0x2d
 693 00fd A2000000 		.4byte	0xa2
 694 0101 03       		.uleb128 0x3
 695 0102 EE060000 		.4byte	.LASF23
 696 0106 05       		.byte	0x5
 697 0107 2E       		.byte	0x2e
 698 0108 A2000000 		.4byte	0xa2
 699 010c 03       		.uleb128 0x3
 700 010d 13010000 		.4byte	.LASF24
 701 0111 05       		.byte	0x5
 702 0112 2F       		.byte	0x2f
 703 0113 A2000000 		.4byte	0xa2
 704 0117 03       		.uleb128 0x3
 705 0118 2C060000 		.4byte	.LASF25
 706 011c 05       		.byte	0x5
 707 011d 30       		.byte	0x30
ARM GAS  C:\Users\jsyoon\AppData\Local\Temp\ccsxAC7R.s 			page 14


 708 011e C3000000 		.4byte	0xc3
 709 0122 03       		.uleb128 0x3
 710 0123 25040000 		.4byte	.LASF26
 711 0127 05       		.byte	0x5
 712 0128 31       		.byte	0x31
 713 0129 B8000000 		.4byte	0xb8
 714 012d 03       		.uleb128 0x3
 715 012e 57060000 		.4byte	.LASF27
 716 0132 05       		.byte	0x5
 717 0133 33       		.byte	0x33
 718 0134 C3000000 		.4byte	0xc3
 719 0138 03       		.uleb128 0x3
 720 0139 3D070000 		.4byte	.LASF28
 721 013d 05       		.byte	0x5
 722 013e 35       		.byte	0x35
 723 013f C3000000 		.4byte	0xc3
 724 0143 03       		.uleb128 0x3
 725 0144 B2060000 		.4byte	.LASF29
 726 0148 06       		.byte	0x6
 727 0149 2A       		.byte	0x2a
 728 014a 4E010000 		.4byte	0x14e
 729 014e 05       		.uleb128 0x5
 730 014f B2060000 		.4byte	.LASF29
 731 0153 48       		.byte	0x48
 732 0154 07       		.byte	0x7
 733 0155 5E       		.byte	0x5e
 734 0156 4B020000 		.4byte	0x24b
 735 015a 06       		.uleb128 0x6
 736 015b 97060000 		.4byte	.LASF30
 737 015f 07       		.byte	0x7
 738 0160 5F       		.byte	0x5f
 739 0161 6C020000 		.4byte	0x26c
 740 0165 00       		.byte	0
 741 0166 06       		.uleb128 0x6
 742 0167 FE050000 		.4byte	.LASF31
 743 016b 07       		.byte	0x7
 744 016c 61       		.byte	0x61
 745 016d 6C020000 		.4byte	0x26c
 746 0171 04       		.byte	0x4
 747 0172 06       		.uleb128 0x6
 748 0173 BF000000 		.4byte	.LASF32
 749 0177 07       		.byte	0x7
 750 0178 63       		.byte	0x63
 751 0179 17010000 		.4byte	0x117
 752 017d 08       		.byte	0x8
 753 017e 06       		.uleb128 0x6
 754 017f 63080000 		.4byte	.LASF33
 755 0183 07       		.byte	0x7
 756 0184 64       		.byte	0x64
 757 0185 01040000 		.4byte	0x401
 758 0189 0C       		.byte	0xc
 759 018a 06       		.uleb128 0x6
 760 018b DD020000 		.4byte	.LASF34
 761 018f 07       		.byte	0x7
 762 0190 66       		.byte	0x66
 763 0191 6C020000 		.4byte	0x26c
 764 0195 10       		.byte	0x10
ARM GAS  C:\Users\jsyoon\AppData\Local\Temp\ccsxAC7R.s 			page 15


 765 0196 06       		.uleb128 0x6
 766 0197 41050000 		.4byte	.LASF35
 767 019b 07       		.byte	0x7
 768 019c 67       		.byte	0x67
 769 019d 6C020000 		.4byte	0x26c
 770 01a1 14       		.byte	0x14
 771 01a2 06       		.uleb128 0x6
 772 01a3 F4070000 		.4byte	.LASF36
 773 01a7 07       		.byte	0x7
 774 01a8 6E       		.byte	0x6e
 775 01a9 06050000 		.4byte	0x506
 776 01ad 18       		.byte	0x18
 777 01ae 06       		.uleb128 0x6
 778 01af 77060000 		.4byte	.LASF37
 779 01b3 07       		.byte	0x7
 780 01b4 79       		.byte	0x79
 781 01b5 F6000000 		.4byte	0xf6
 782 01b9 1C       		.byte	0x1c
 783 01ba 06       		.uleb128 0x6
 784 01bb AA060000 		.4byte	.LASF38
 785 01bf 07       		.byte	0x7
 786 01c0 7D       		.byte	0x7d
 787 01c1 EB000000 		.4byte	0xeb
 788 01c5 1D       		.byte	0x1d
 789 01c6 06       		.uleb128 0x6
 790 01c7 FB070000 		.4byte	.LASF39
 791 01cb 07       		.byte	0x7
 792 01cc 82       		.byte	0x82
 793 01cd 01010000 		.4byte	0x101
 794 01d1 1E       		.byte	0x1e
 795 01d2 06       		.uleb128 0x6
 796 01d3 7F060000 		.4byte	.LASF40
 797 01d7 07       		.byte	0x7
 798 01d8 88       		.byte	0x88
 799 01d9 0C010000 		.4byte	0x10c
 800 01dd 1F       		.byte	0x1f
 801 01de 06       		.uleb128 0x6
 802 01df 2B080000 		.4byte	.LASF41
 803 01e3 07       		.byte	0x7
 804 01e4 8F       		.byte	0x8f
 805 01e5 2E040000 		.4byte	0x42e
 806 01e9 20       		.byte	0x20
 807 01ea 07       		.uleb128 0x7
 808 01eb 705F7500 		.ascii	"p_u\000"
 809 01ef 07       		.byte	0x7
 810 01f0 B4       		.byte	0xb4
 811 01f1 D1040000 		.4byte	0x4d1
 812 01f5 24       		.byte	0x24
 813 01f6 06       		.uleb128 0x6
 814 01f7 69080000 		.4byte	.LASF42
 815 01fb 07       		.byte	0x7
 816 01fc B9       		.byte	0xb9
 817 01fd 92020000 		.4byte	0x292
 818 0201 28       		.byte	0x28
 819 0202 06       		.uleb128 0x6
 820 0203 B0070000 		.4byte	.LASF43
 821 0207 07       		.byte	0x7
ARM GAS  C:\Users\jsyoon\AppData\Local\Temp\ccsxAC7R.s 			page 16


 822 0208 BF       		.byte	0xbf
 823 0209 72020000 		.4byte	0x272
 824 020d 2C       		.byte	0x2c
 825 020e 06       		.uleb128 0x6
 826 020f 38080000 		.4byte	.LASF44
 827 0213 07       		.byte	0x7
 828 0214 C3       		.byte	0xc3
 829 0215 22010000 		.4byte	0x122
 830 0219 34       		.byte	0x34
 831 021a 06       		.uleb128 0x6
 832 021b B9060000 		.4byte	.LASF45
 833 021f 07       		.byte	0x7
 834 0220 C9       		.byte	0xc9
 835 0221 2D010000 		.4byte	0x12d
 836 0225 38       		.byte	0x38
 837 0226 06       		.uleb128 0x6
 838 0227 63060000 		.4byte	.LASF46
 839 022b 07       		.byte	0x7
 840 022c D0       		.byte	0xd0
 841 022d 18050000 		.4byte	0x518
 842 0231 3C       		.byte	0x3c
 843 0232 06       		.uleb128 0x6
 844 0233 47070000 		.4byte	.LASF47
 845 0237 07       		.byte	0x7
 846 0238 D4       		.byte	0xd4
 847 0239 17010000 		.4byte	0x117
 848 023d 40       		.byte	0x40
 849 023e 06       		.uleb128 0x6
 850 023f F3000000 		.4byte	.LASF48
 851 0243 07       		.byte	0x7
 852 0244 DA       		.byte	0xda
 853 0245 A8020000 		.4byte	0x2a8
 854 0249 44       		.byte	0x44
 855 024a 00       		.byte	0
 856 024b 08       		.uleb128 0x8
 857 024c 08       		.byte	0x8
 858 024d 06       		.byte	0x6
 859 024e 61       		.byte	0x61
 860 024f 6C020000 		.4byte	0x26c
 861 0253 06       		.uleb128 0x6
 862 0254 97060000 		.4byte	.LASF30
 863 0258 06       		.byte	0x6
 864 0259 62       		.byte	0x62
 865 025a 6C020000 		.4byte	0x26c
 866 025e 00       		.byte	0
 867 025f 06       		.uleb128 0x6
 868 0260 FE050000 		.4byte	.LASF31
 869 0264 06       		.byte	0x6
 870 0265 64       		.byte	0x64
 871 0266 6C020000 		.4byte	0x26c
 872 026a 04       		.byte	0x4
 873 026b 00       		.byte	0
 874 026c 09       		.uleb128 0x9
 875 026d 04       		.byte	0x4
 876 026e 43010000 		.4byte	0x143
 877 0272 03       		.uleb128 0x3
 878 0273 8B000000 		.4byte	.LASF49
ARM GAS  C:\Users\jsyoon\AppData\Local\Temp\ccsxAC7R.s 			page 17


 879 0277 06       		.byte	0x6
 880 0278 66       		.byte	0x66
 881 0279 4B020000 		.4byte	0x24b
 882 027d 08       		.uleb128 0x8
 883 027e 04       		.byte	0x4
 884 027f 06       		.byte	0x6
 885 0280 6B       		.byte	0x6b
 886 0281 92020000 		.4byte	0x292
 887 0285 06       		.uleb128 0x6
 888 0286 97060000 		.4byte	.LASF30
 889 028a 06       		.byte	0x6
 890 028b 6D       		.byte	0x6d
 891 028c 6C020000 		.4byte	0x26c
 892 0290 00       		.byte	0
 893 0291 00       		.byte	0
 894 0292 03       		.uleb128 0x3
 895 0293 52040000 		.4byte	.LASF50
 896 0297 06       		.byte	0x6
 897 0298 70       		.byte	0x70
 898 0299 7D020000 		.4byte	0x27d
 899 029d 03       		.uleb128 0x3
 900 029e DD060000 		.4byte	.LASF51
 901 02a2 08       		.byte	0x8
 902 02a3 E5       		.byte	0xe5
 903 02a4 A8020000 		.4byte	0x2a8
 904 02a8 0A       		.uleb128 0xa
 905 02a9 04       		.byte	0x4
 906 02aa 03       		.uleb128 0x3
 907 02ab C8040000 		.4byte	.LASF52
 908 02af 08       		.byte	0x8
 909 02b0 EB       		.byte	0xeb
 910 02b1 CE000000 		.4byte	0xce
 911 02b5 0B       		.uleb128 0xb
 912 02b6 A9070000 		.4byte	.LASF53
 913 02ba 64       		.byte	0x64
 914 02bb 08       		.byte	0x8
 915 02bc 0C01     		.2byte	0x10c
 916 02be 01040000 		.4byte	0x401
 917 02c2 0C       		.uleb128 0xc
 918 02c3 73313600 		.ascii	"s16\000"
 919 02c7 08       		.byte	0x8
 920 02c8 0E01     		.2byte	0x10e
 921 02ca 9D020000 		.4byte	0x29d
 922 02ce 00       		.byte	0
 923 02cf 0C       		.uleb128 0xc
 924 02d0 73313700 		.ascii	"s17\000"
 925 02d4 08       		.byte	0x8
 926 02d5 0F01     		.2byte	0x10f
 927 02d7 9D020000 		.4byte	0x29d
 928 02db 04       		.byte	0x4
 929 02dc 0C       		.uleb128 0xc
 930 02dd 73313800 		.ascii	"s18\000"
 931 02e1 08       		.byte	0x8
 932 02e2 1001     		.2byte	0x110
 933 02e4 9D020000 		.4byte	0x29d
 934 02e8 08       		.byte	0x8
 935 02e9 0C       		.uleb128 0xc
ARM GAS  C:\Users\jsyoon\AppData\Local\Temp\ccsxAC7R.s 			page 18


 936 02ea 73313900 		.ascii	"s19\000"
 937 02ee 08       		.byte	0x8
 938 02ef 1101     		.2byte	0x111
 939 02f1 9D020000 		.4byte	0x29d
 940 02f5 0C       		.byte	0xc
 941 02f6 0C       		.uleb128 0xc
 942 02f7 73323000 		.ascii	"s20\000"
 943 02fb 08       		.byte	0x8
 944 02fc 1201     		.2byte	0x112
 945 02fe 9D020000 		.4byte	0x29d
 946 0302 10       		.byte	0x10
 947 0303 0C       		.uleb128 0xc
 948 0304 73323100 		.ascii	"s21\000"
 949 0308 08       		.byte	0x8
 950 0309 1301     		.2byte	0x113
 951 030b 9D020000 		.4byte	0x29d
 952 030f 14       		.byte	0x14
 953 0310 0C       		.uleb128 0xc
 954 0311 73323200 		.ascii	"s22\000"
 955 0315 08       		.byte	0x8
 956 0316 1401     		.2byte	0x114
 957 0318 9D020000 		.4byte	0x29d
 958 031c 18       		.byte	0x18
 959 031d 0C       		.uleb128 0xc
 960 031e 73323300 		.ascii	"s23\000"
 961 0322 08       		.byte	0x8
 962 0323 1501     		.2byte	0x115
 963 0325 9D020000 		.4byte	0x29d
 964 0329 1C       		.byte	0x1c
 965 032a 0C       		.uleb128 0xc
 966 032b 73323400 		.ascii	"s24\000"
 967 032f 08       		.byte	0x8
 968 0330 1601     		.2byte	0x116
 969 0332 9D020000 		.4byte	0x29d
 970 0336 20       		.byte	0x20
 971 0337 0C       		.uleb128 0xc
 972 0338 73323500 		.ascii	"s25\000"
 973 033c 08       		.byte	0x8
 974 033d 1701     		.2byte	0x117
 975 033f 9D020000 		.4byte	0x29d
 976 0343 24       		.byte	0x24
 977 0344 0C       		.uleb128 0xc
 978 0345 73323600 		.ascii	"s26\000"
 979 0349 08       		.byte	0x8
 980 034a 1801     		.2byte	0x118
 981 034c 9D020000 		.4byte	0x29d
 982 0350 28       		.byte	0x28
 983 0351 0C       		.uleb128 0xc
 984 0352 73323700 		.ascii	"s27\000"
 985 0356 08       		.byte	0x8
 986 0357 1901     		.2byte	0x119
 987 0359 9D020000 		.4byte	0x29d
 988 035d 2C       		.byte	0x2c
 989 035e 0C       		.uleb128 0xc
 990 035f 73323800 		.ascii	"s28\000"
 991 0363 08       		.byte	0x8
 992 0364 1A01     		.2byte	0x11a
ARM GAS  C:\Users\jsyoon\AppData\Local\Temp\ccsxAC7R.s 			page 19


 993 0366 9D020000 		.4byte	0x29d
 994 036a 30       		.byte	0x30
 995 036b 0C       		.uleb128 0xc
 996 036c 73323900 		.ascii	"s29\000"
 997 0370 08       		.byte	0x8
 998 0371 1B01     		.2byte	0x11b
 999 0373 9D020000 		.4byte	0x29d
 1000 0377 34       		.byte	0x34
 1001 0378 0C       		.uleb128 0xc
 1002 0379 73333000 		.ascii	"s30\000"
 1003 037d 08       		.byte	0x8
 1004 037e 1C01     		.2byte	0x11c
 1005 0380 9D020000 		.4byte	0x29d
 1006 0384 38       		.byte	0x38
 1007 0385 0C       		.uleb128 0xc
 1008 0386 73333100 		.ascii	"s31\000"
 1009 038a 08       		.byte	0x8
 1010 038b 1D01     		.2byte	0x11d
 1011 038d 9D020000 		.4byte	0x29d
 1012 0391 3C       		.byte	0x3c
 1013 0392 0C       		.uleb128 0xc
 1014 0393 723400   		.ascii	"r4\000"
 1015 0396 08       		.byte	0x8
 1016 0397 1F01     		.2byte	0x11f
 1017 0399 9D020000 		.4byte	0x29d
 1018 039d 40       		.byte	0x40
 1019 039e 0C       		.uleb128 0xc
 1020 039f 723500   		.ascii	"r5\000"
 1021 03a2 08       		.byte	0x8
 1022 03a3 2001     		.2byte	0x120
 1023 03a5 9D020000 		.4byte	0x29d
 1024 03a9 44       		.byte	0x44
 1025 03aa 0C       		.uleb128 0xc
 1026 03ab 723600   		.ascii	"r6\000"
 1027 03ae 08       		.byte	0x8
 1028 03af 2101     		.2byte	0x121
 1029 03b1 9D020000 		.4byte	0x29d
 1030 03b5 48       		.byte	0x48
 1031 03b6 0C       		.uleb128 0xc
 1032 03b7 723700   		.ascii	"r7\000"
 1033 03ba 08       		.byte	0x8
 1034 03bb 2201     		.2byte	0x122
 1035 03bd 9D020000 		.4byte	0x29d
 1036 03c1 4C       		.byte	0x4c
 1037 03c2 0C       		.uleb128 0xc
 1038 03c3 723800   		.ascii	"r8\000"
 1039 03c6 08       		.byte	0x8
 1040 03c7 2301     		.2byte	0x123
 1041 03c9 9D020000 		.4byte	0x29d
 1042 03cd 50       		.byte	0x50
 1043 03ce 0C       		.uleb128 0xc
 1044 03cf 723900   		.ascii	"r9\000"
 1045 03d2 08       		.byte	0x8
 1046 03d3 2401     		.2byte	0x124
 1047 03d5 9D020000 		.4byte	0x29d
 1048 03d9 54       		.byte	0x54
 1049 03da 0C       		.uleb128 0xc
ARM GAS  C:\Users\jsyoon\AppData\Local\Temp\ccsxAC7R.s 			page 20


 1050 03db 72313000 		.ascii	"r10\000"
 1051 03df 08       		.byte	0x8
 1052 03e0 2501     		.2byte	0x125
 1053 03e2 9D020000 		.4byte	0x29d
 1054 03e6 58       		.byte	0x58
 1055 03e7 0C       		.uleb128 0xc
 1056 03e8 72313100 		.ascii	"r11\000"
 1057 03ec 08       		.byte	0x8
 1058 03ed 2601     		.2byte	0x126
 1059 03ef 9D020000 		.4byte	0x29d
 1060 03f3 5C       		.byte	0x5c
 1061 03f4 0C       		.uleb128 0xc
 1062 03f5 6C7200   		.ascii	"lr\000"
 1063 03f8 08       		.byte	0x8
 1064 03f9 2701     		.2byte	0x127
 1065 03fb 9D020000 		.4byte	0x29d
 1066 03ff 60       		.byte	0x60
 1067 0400 00       		.byte	0
 1068 0401 0B       		.uleb128 0xb
 1069 0402 F8030000 		.4byte	.LASF54
 1070 0406 04       		.byte	0x4
 1071 0407 08       		.byte	0x8
 1072 0408 3101     		.2byte	0x131
 1073 040a 1C040000 		.4byte	0x41c
 1074 040e 0C       		.uleb128 0xc
 1075 040f 72313300 		.ascii	"r13\000"
 1076 0413 08       		.byte	0x8
 1077 0414 3201     		.2byte	0x132
 1078 0416 1C040000 		.4byte	0x41c
 1079 041a 00       		.byte	0
 1080 041b 00       		.byte	0
 1081 041c 09       		.uleb128 0x9
 1082 041d 04       		.byte	0x4
 1083 041e B5020000 		.4byte	0x2b5
 1084 0422 0D       		.uleb128 0xd
 1085 0423 C3000000 		.4byte	0xc3
 1086 0427 02       		.uleb128 0x2
 1087 0428 04       		.byte	0x4
 1088 0429 07       		.byte	0x7
 1089 042a 1A080000 		.4byte	.LASF55
 1090 042e 0D       		.uleb128 0xd
 1091 042f 38010000 		.4byte	0x138
 1092 0433 08       		.uleb128 0x8
 1093 0434 1C       		.byte	0x1c
 1094 0435 09       		.byte	0x9
 1095 0436 5E       		.byte	0x5e
 1096 0437 84040000 		.4byte	0x484
 1097 043b 06       		.uleb128 0x6
 1098 043c E6060000 		.4byte	.LASF56
 1099 0440 09       		.byte	0x9
 1100 0441 5F       		.byte	0x5f
 1101 0442 72020000 		.4byte	0x272
 1102 0446 00       		.byte	0
 1103 0447 06       		.uleb128 0x6
 1104 0448 89060000 		.4byte	.LASF57
 1105 044c 09       		.byte	0x9
 1106 044d 60       		.byte	0x60
ARM GAS  C:\Users\jsyoon\AppData\Local\Temp\ccsxAC7R.s 			page 21


 1107 044e 17010000 		.4byte	0x117
 1108 0452 08       		.byte	0x8
 1109 0453 06       		.uleb128 0x6
 1110 0454 49050000 		.4byte	.LASF58
 1111 0458 09       		.byte	0x9
 1112 0459 62       		.byte	0x62
 1113 045a 01040000 		.4byte	0x401
 1114 045e 0C       		.byte	0xc
 1115 045f 06       		.uleb128 0x6
 1116 0460 2B040000 		.4byte	.LASF59
 1117 0464 09       		.byte	0x9
 1118 0465 65       		.byte	0x65
 1119 0466 6C020000 		.4byte	0x26c
 1120 046a 10       		.byte	0x10
 1121 046b 06       		.uleb128 0x6
 1122 046c 8E050000 		.4byte	.LASF60
 1123 0470 09       		.byte	0x9
 1124 0471 66       		.byte	0x66
 1125 0472 6C020000 		.4byte	0x26c
 1126 0476 14       		.byte	0x14
 1127 0477 06       		.uleb128 0x6
 1128 0478 84050000 		.4byte	.LASF61
 1129 047c 09       		.byte	0x9
 1130 047d 69       		.byte	0x69
 1131 047e 6C020000 		.4byte	0x26c
 1132 0482 18       		.byte	0x18
 1133 0483 00       		.byte	0
 1134 0484 03       		.uleb128 0x3
 1135 0485 02080000 		.4byte	.LASF62
 1136 0489 09       		.byte	0x9
 1137 048a 6B       		.byte	0x6b
 1138 048b 33040000 		.4byte	0x433
 1139 048f 05       		.uleb128 0x5
 1140 0490 7B040000 		.4byte	.LASF63
 1141 0494 10       		.byte	0x10
 1142 0495 0A       		.byte	0xa
 1143 0496 2C       		.byte	0x2c
 1144 0497 C0040000 		.4byte	0x4c0
 1145 049b 06       		.uleb128 0x6
 1146 049c B7000000 		.4byte	.LASF64
 1147 04a0 0A       		.byte	0xa
 1148 04a1 2D       		.byte	0x2d
 1149 04a2 72020000 		.4byte	0x272
 1150 04a6 00       		.byte	0
 1151 04a7 06       		.uleb128 0x6
 1152 04a8 5B080000 		.4byte	.LASF65
 1153 04ac 0A       		.byte	0xa
 1154 04ad 2F       		.byte	0x2f
 1155 04ae 6C020000 		.4byte	0x26c
 1156 04b2 08       		.byte	0x8
 1157 04b3 06       		.uleb128 0x6
 1158 04b4 36070000 		.4byte	.LASF66
 1159 04b8 0A       		.byte	0xa
 1160 04b9 31       		.byte	0x31
 1161 04ba C0040000 		.4byte	0x4c0
 1162 04be 0C       		.byte	0xc
 1163 04bf 00       		.byte	0
ARM GAS  C:\Users\jsyoon\AppData\Local\Temp\ccsxAC7R.s 			page 22


 1164 04c0 09       		.uleb128 0x9
 1165 04c1 04       		.byte	0x4
 1166 04c2 8F040000 		.4byte	0x48f
 1167 04c6 03       		.uleb128 0x3
 1168 04c7 7B040000 		.4byte	.LASF63
 1169 04cb 0A       		.byte	0xa
 1170 04cc 33       		.byte	0x33
 1171 04cd 8F040000 		.4byte	0x48f
 1172 04d1 0E       		.uleb128 0xe
 1173 04d2 04       		.byte	0x4
 1174 04d3 07       		.byte	0x7
 1175 04d4 96       		.byte	0x96
 1176 04d5 06050000 		.4byte	0x506
 1177 04d9 0F       		.uleb128 0xf
 1178 04da 41000000 		.4byte	.LASF67
 1179 04de 07       		.byte	0x7
 1180 04df 9D       		.byte	0x9d
 1181 04e0 22010000 		.4byte	0x122
 1182 04e4 0F       		.uleb128 0xf
 1183 04e5 41040000 		.4byte	.LASF68
 1184 04e9 07       		.byte	0x7
 1185 04ea A4       		.byte	0xa4
 1186 04eb 22010000 		.4byte	0x122
 1187 04ef 0F       		.uleb128 0xf
 1188 04f0 0C010000 		.4byte	.LASF69
 1189 04f4 07       		.byte	0x7
 1190 04f5 AB       		.byte	0xab
 1191 04f6 A8020000 		.4byte	0x2a8
 1192 04fa 0F       		.uleb128 0xf
 1193 04fb 90060000 		.4byte	.LASF70
 1194 04ff 07       		.byte	0x7
 1195 0500 B2       		.byte	0xb2
 1196 0501 2D010000 		.4byte	0x12d
 1197 0505 00       		.byte	0
 1198 0506 09       		.uleb128 0x9
 1199 0507 04       		.byte	0x4
 1200 0508 0C050000 		.4byte	0x50c
 1201 050c 10       		.uleb128 0x10
 1202 050d 11050000 		.4byte	0x511
 1203 0511 02       		.uleb128 0x2
 1204 0512 01       		.byte	0x1
 1205 0513 08       		.byte	0x8
 1206 0514 12070000 		.4byte	.LASF71
 1207 0518 09       		.uleb128 0x9
 1208 0519 04       		.byte	0x4
 1209 051a C6040000 		.4byte	0x4c6
 1210 051e 03       		.uleb128 0x3
 1211 051f 1A000000 		.4byte	.LASF72
 1212 0523 07       		.byte	0x7
 1213 0524 E5       		.byte	0xe5
 1214 0525 29050000 		.4byte	0x529
 1215 0529 09       		.uleb128 0x9
 1216 052a 04       		.byte	0x4
 1217 052b 2F050000 		.4byte	0x52f
 1218 052f 11       		.uleb128 0x11
 1219 0530 22010000 		.4byte	0x122
 1220 0534 3E050000 		.4byte	0x53e
ARM GAS  C:\Users\jsyoon\AppData\Local\Temp\ccsxAC7R.s 			page 23


 1221 0538 12       		.uleb128 0x12
 1222 0539 A8020000 		.4byte	0x2a8
 1223 053d 00       		.byte	0
 1224 053e 02       		.uleb128 0x2
 1225 053f 04       		.byte	0x4
 1226 0540 04       		.byte	0x4
 1227 0541 B7050000 		.4byte	.LASF73
 1228 0545 0D       		.uleb128 0xd
 1229 0546 AD000000 		.4byte	0xad
 1230 054a 0D       		.uleb128 0xd
 1231 054b B8000000 		.4byte	0xb8
 1232 054f 13       		.uleb128 0x13
 1233 0550 18       		.byte	0x18
 1234 0551 0B       		.byte	0xb
 1235 0552 B102     		.2byte	0x2b1
 1236 0554 A6050000 		.4byte	0x5a6
 1237 0558 0C       		.uleb128 0xc
 1238 0559 435200   		.ascii	"CR\000"
 1239 055c 0B       		.byte	0xb
 1240 055d B302     		.2byte	0x2b3
 1241 055f 22040000 		.4byte	0x422
 1242 0563 00       		.byte	0
 1243 0564 14       		.uleb128 0x14
 1244 0565 66070000 		.4byte	.LASF74
 1245 0569 0B       		.byte	0xb
 1246 056a B402     		.2byte	0x2b4
 1247 056c 22040000 		.4byte	0x422
 1248 0570 04       		.byte	0x4
 1249 0571 0C       		.uleb128 0xc
 1250 0572 50415200 		.ascii	"PAR\000"
 1251 0576 0B       		.byte	0xb
 1252 0577 B502     		.2byte	0x2b5
 1253 0579 22040000 		.4byte	0x422
 1254 057d 08       		.byte	0x8
 1255 057e 14       		.uleb128 0x14
 1256 057f 22000000 		.4byte	.LASF75
 1257 0583 0B       		.byte	0xb
 1258 0584 B602     		.2byte	0x2b6
 1259 0586 22040000 		.4byte	0x422
 1260 058a 0C       		.byte	0xc
 1261 058b 14       		.uleb128 0x14
 1262 058c BB070000 		.4byte	.LASF76
 1263 0590 0B       		.byte	0xb
 1264 0591 B702     		.2byte	0x2b7
 1265 0593 22040000 		.4byte	0x422
 1266 0597 10       		.byte	0x10
 1267 0598 0C       		.uleb128 0xc
 1268 0599 46435200 		.ascii	"FCR\000"
 1269 059d 0B       		.byte	0xb
 1270 059e B802     		.2byte	0x2b8
 1271 05a0 22040000 		.4byte	0x422
 1272 05a4 14       		.byte	0x14
 1273 05a5 00       		.byte	0
 1274 05a6 15       		.uleb128 0x15
 1275 05a7 6B070000 		.4byte	.LASF77
 1276 05ab 0B       		.byte	0xb
 1277 05ac B902     		.2byte	0x2b9
ARM GAS  C:\Users\jsyoon\AppData\Local\Temp\ccsxAC7R.s 			page 24


 1278 05ae 4F050000 		.4byte	0x54f
 1279 05b2 13       		.uleb128 0x13
 1280 05b3 1C       		.byte	0x1c
 1281 05b4 0B       		.byte	0xb
 1282 05b5 2905     		.2byte	0x529
 1283 05b7 70060000 		.4byte	0x670
 1284 05bb 0C       		.uleb128 0xc
 1285 05bc 535200   		.ascii	"SR\000"
 1286 05bf 0B       		.byte	0xb
 1287 05c0 2B05     		.2byte	0x52b
 1288 05c2 45050000 		.4byte	0x545
 1289 05c6 00       		.byte	0
 1290 05c7 14       		.uleb128 0x14
 1291 05c8 D6050000 		.4byte	.LASF78
 1292 05cc 0B       		.byte	0xb
 1293 05cd 2C05     		.2byte	0x52c
 1294 05cf AD000000 		.4byte	0xad
 1295 05d3 02       		.byte	0x2
 1296 05d4 0C       		.uleb128 0xc
 1297 05d5 445200   		.ascii	"DR\000"
 1298 05d8 0B       		.byte	0xb
 1299 05d9 2D05     		.2byte	0x52d
 1300 05db 45050000 		.4byte	0x545
 1301 05df 04       		.byte	0x4
 1302 05e0 14       		.uleb128 0x14
 1303 05e1 E0050000 		.4byte	.LASF79
 1304 05e5 0B       		.byte	0xb
 1305 05e6 2E05     		.2byte	0x52e
 1306 05e8 AD000000 		.4byte	0xad
 1307 05ec 06       		.byte	0x6
 1308 05ed 0C       		.uleb128 0xc
 1309 05ee 42525200 		.ascii	"BRR\000"
 1310 05f2 0B       		.byte	0xb
 1311 05f3 2F05     		.2byte	0x52f
 1312 05f5 45050000 		.4byte	0x545
 1313 05f9 08       		.byte	0x8
 1314 05fa 14       		.uleb128 0x14
 1315 05fb EA050000 		.4byte	.LASF80
 1316 05ff 0B       		.byte	0xb
 1317 0600 3005     		.2byte	0x530
 1318 0602 AD000000 		.4byte	0xad
 1319 0606 0A       		.byte	0xa
 1320 0607 0C       		.uleb128 0xc
 1321 0608 43523100 		.ascii	"CR1\000"
 1322 060c 0B       		.byte	0xb
 1323 060d 3105     		.2byte	0x531
 1324 060f 45050000 		.4byte	0x545
 1325 0613 0C       		.byte	0xc
 1326 0614 14       		.uleb128 0x14
 1327 0615 F4050000 		.4byte	.LASF81
 1328 0619 0B       		.byte	0xb
 1329 061a 3205     		.2byte	0x532
 1330 061c AD000000 		.4byte	0xad
 1331 0620 0E       		.byte	0xe
 1332 0621 0C       		.uleb128 0xc
 1333 0622 43523200 		.ascii	"CR2\000"
 1334 0626 0B       		.byte	0xb
ARM GAS  C:\Users\jsyoon\AppData\Local\Temp\ccsxAC7R.s 			page 25


 1335 0627 3305     		.2byte	0x533
 1336 0629 45050000 		.4byte	0x545
 1337 062d 10       		.byte	0x10
 1338 062e 14       		.uleb128 0x14
 1339 062f 9F070000 		.4byte	.LASF82
 1340 0633 0B       		.byte	0xb
 1341 0634 3405     		.2byte	0x534
 1342 0636 AD000000 		.4byte	0xad
 1343 063a 12       		.byte	0x12
 1344 063b 0C       		.uleb128 0xc
 1345 063c 43523300 		.ascii	"CR3\000"
 1346 0640 0B       		.byte	0xb
 1347 0641 3505     		.2byte	0x535
 1348 0643 45050000 		.4byte	0x545
 1349 0647 14       		.byte	0x14
 1350 0648 14       		.uleb128 0x14
 1351 0649 C9060000 		.4byte	.LASF83
 1352 064d 0B       		.byte	0xb
 1353 064e 3605     		.2byte	0x536
 1354 0650 AD000000 		.4byte	0xad
 1355 0654 16       		.byte	0x16
 1356 0655 14       		.uleb128 0x14
 1357 0656 EE000000 		.4byte	.LASF84
 1358 065a 0B       		.byte	0xb
 1359 065b 3705     		.2byte	0x537
 1360 065d 45050000 		.4byte	0x545
 1361 0661 18       		.byte	0x18
 1362 0662 14       		.uleb128 0x14
 1363 0663 05060000 		.4byte	.LASF85
 1364 0667 0B       		.byte	0xb
 1365 0668 3805     		.2byte	0x538
 1366 066a AD000000 		.4byte	0xad
 1367 066e 1A       		.byte	0x1a
 1368 066f 00       		.byte	0
 1369 0670 15       		.uleb128 0x15
 1370 0671 33040000 		.4byte	.LASF86
 1371 0675 0B       		.byte	0xb
 1372 0676 3905     		.2byte	0x539
 1373 0678 B2050000 		.4byte	0x5b2
 1374 067c 08       		.uleb128 0x8
 1375 067d 0C       		.byte	0xc
 1376 067e 0C       		.byte	0xc
 1377 067f DA       		.byte	0xda
 1378 0680 C1060000 		.4byte	0x6c1
 1379 0684 06       		.uleb128 0x6
 1380 0685 34060000 		.4byte	.LASF87
 1381 0689 0C       		.byte	0xc
 1382 068a DB       		.byte	0xdb
 1383 068b C1060000 		.4byte	0x6c1
 1384 068f 00       		.byte	0
 1385 0690 06       		.uleb128 0x6
 1386 0691 C4060000 		.4byte	.LASF88
 1387 0695 0C       		.byte	0xc
 1388 0696 DC       		.byte	0xdc
 1389 0697 C7060000 		.4byte	0x6c7
 1390 069b 04       		.byte	0x4
 1391 069c 06       		.uleb128 0x6
ARM GAS  C:\Users\jsyoon\AppData\Local\Temp\ccsxAC7R.s 			page 26


 1392 069d EC030000 		.4byte	.LASF89
 1393 06a1 0C       		.byte	0xc
 1394 06a2 DD       		.byte	0xdd
 1395 06a3 A2000000 		.4byte	0xa2
 1396 06a7 08       		.byte	0x8
 1397 06a8 06       		.uleb128 0x6
 1398 06a9 33030000 		.4byte	.LASF90
 1399 06ad 0C       		.byte	0xc
 1400 06ae DF       		.byte	0xdf
 1401 06af A2000000 		.4byte	0xa2
 1402 06b3 09       		.byte	0x9
 1403 06b4 06       		.uleb128 0x6
 1404 06b5 98000000 		.4byte	.LASF91
 1405 06b9 0C       		.byte	0xc
 1406 06ba E0       		.byte	0xe0
 1407 06bb A2000000 		.4byte	0xa2
 1408 06bf 0A       		.byte	0xa
 1409 06c0 00       		.byte	0
 1410 06c1 09       		.uleb128 0x9
 1411 06c2 04       		.byte	0x4
 1412 06c3 A6050000 		.4byte	0x5a6
 1413 06c7 09       		.uleb128 0x9
 1414 06c8 04       		.byte	0x4
 1415 06c9 22040000 		.4byte	0x422
 1416 06cd 03       		.uleb128 0x3
 1417 06ce 0F060000 		.4byte	.LASF92
 1418 06d2 0C       		.byte	0xc
 1419 06d3 E1       		.byte	0xe1
 1420 06d4 7C060000 		.4byte	0x67c
 1421 06d8 08       		.uleb128 0x8
 1422 06d9 04       		.byte	0x4
 1423 06da 0D       		.byte	0xd
 1424 06db 96       		.byte	0x96
 1425 06dc F9060000 		.4byte	0x6f9
 1426 06e0 07       		.uleb128 0x7
 1427 06e1 73657400 		.ascii	"set\000"
 1428 06e5 0D       		.byte	0xd
 1429 06e6 97       		.byte	0x97
 1430 06e7 AD000000 		.4byte	0xad
 1431 06eb 00       		.byte	0
 1432 06ec 06       		.uleb128 0x6
 1433 06ed 05050000 		.4byte	.LASF93
 1434 06f1 0D       		.byte	0xd
 1435 06f2 98       		.byte	0x98
 1436 06f3 AD000000 		.4byte	0xad
 1437 06f7 02       		.byte	0x2
 1438 06f8 00       		.byte	0
 1439 06f9 0E       		.uleb128 0xe
 1440 06fa 04       		.byte	0x4
 1441 06fb 0D       		.byte	0xd
 1442 06fc 94       		.byte	0x94
 1443 06fd 14070000 		.4byte	0x714
 1444 0701 16       		.uleb128 0x16
 1445 0702 5700     		.ascii	"W\000"
 1446 0704 0D       		.byte	0xd
 1447 0705 95       		.byte	0x95
 1448 0706 C3000000 		.4byte	0xc3
ARM GAS  C:\Users\jsyoon\AppData\Local\Temp\ccsxAC7R.s 			page 27


 1449 070a 16       		.uleb128 0x16
 1450 070b 4800     		.ascii	"H\000"
 1451 070d 0D       		.byte	0xd
 1452 070e 99       		.byte	0x99
 1453 070f D8060000 		.4byte	0x6d8
 1454 0713 00       		.byte	0
 1455 0714 08       		.uleb128 0x8
 1456 0715 28       		.byte	0x28
 1457 0716 0D       		.byte	0xd
 1458 0717 8C       		.byte	0x8c
 1459 0718 95070000 		.4byte	0x795
 1460 071c 06       		.uleb128 0x6
 1461 071d 85000000 		.4byte	.LASF94
 1462 0721 0D       		.byte	0xd
 1463 0722 8E       		.byte	0x8e
 1464 0723 22040000 		.4byte	0x422
 1465 0727 00       		.byte	0
 1466 0728 06       		.uleb128 0x6
 1467 0729 62000000 		.4byte	.LASF95
 1468 072d 0D       		.byte	0xd
 1469 072e 8F       		.byte	0x8f
 1470 072f 22040000 		.4byte	0x422
 1471 0733 04       		.byte	0x4
 1472 0734 06       		.uleb128 0x6
 1473 0735 6E050000 		.4byte	.LASF96
 1474 0739 0D       		.byte	0xd
 1475 073a 90       		.byte	0x90
 1476 073b 22040000 		.4byte	0x422
 1477 073f 08       		.byte	0x8
 1478 0740 06       		.uleb128 0x6
 1479 0741 E1030000 		.4byte	.LASF97
 1480 0745 0D       		.byte	0xd
 1481 0746 91       		.byte	0x91
 1482 0747 22040000 		.4byte	0x422
 1483 074b 0C       		.byte	0xc
 1484 074c 07       		.uleb128 0x7
 1485 074d 49445200 		.ascii	"IDR\000"
 1486 0751 0D       		.byte	0xd
 1487 0752 92       		.byte	0x92
 1488 0753 22040000 		.4byte	0x422
 1489 0757 10       		.byte	0x10
 1490 0758 07       		.uleb128 0x7
 1491 0759 4F445200 		.ascii	"ODR\000"
 1492 075d 0D       		.byte	0xd
 1493 075e 93       		.byte	0x93
 1494 075f 22040000 		.4byte	0x422
 1495 0763 14       		.byte	0x14
 1496 0764 06       		.uleb128 0x6
 1497 0765 E9000000 		.4byte	.LASF98
 1498 0769 0D       		.byte	0xd
 1499 076a 9A       		.byte	0x9a
 1500 076b 95070000 		.4byte	0x795
 1501 076f 18       		.byte	0x18
 1502 0770 06       		.uleb128 0x6
 1503 0771 E7030000 		.4byte	.LASF99
 1504 0775 0D       		.byte	0xd
 1505 0776 9B       		.byte	0x9b
ARM GAS  C:\Users\jsyoon\AppData\Local\Temp\ccsxAC7R.s 			page 28


 1506 0777 22040000 		.4byte	0x422
 1507 077b 1C       		.byte	0x1c
 1508 077c 06       		.uleb128 0x6
 1509 077d BD050000 		.4byte	.LASF100
 1510 0781 0D       		.byte	0xd
 1511 0782 9C       		.byte	0x9c
 1512 0783 22040000 		.4byte	0x422
 1513 0787 20       		.byte	0x20
 1514 0788 06       		.uleb128 0x6
 1515 0789 B2050000 		.4byte	.LASF101
 1516 078d 0D       		.byte	0xd
 1517 078e 9D       		.byte	0x9d
 1518 078f 22040000 		.4byte	0x422
 1519 0793 24       		.byte	0x24
 1520 0794 00       		.byte	0
 1521 0795 0D       		.uleb128 0xd
 1522 0796 F9060000 		.4byte	0x6f9
 1523 079a 03       		.uleb128 0x3
 1524 079b CA030000 		.4byte	.LASF102
 1525 079f 0D       		.byte	0xd
 1526 07a0 9E       		.byte	0x9e
 1527 07a1 14070000 		.4byte	0x714
 1528 07a5 03       		.uleb128 0x3
 1529 07a6 34050000 		.4byte	.LASF103
 1530 07aa 0D       		.byte	0xd
 1531 07ab F0       		.byte	0xf0
 1532 07ac C3000000 		.4byte	0xc3
 1533 07b0 03       		.uleb128 0x3
 1534 07b1 3E080000 		.4byte	.LASF104
 1535 07b5 0D       		.byte	0xd
 1536 07b6 F5       		.byte	0xf5
 1537 07b7 C3000000 		.4byte	0xc3
 1538 07bb 03       		.uleb128 0x3
 1539 07bc 7E070000 		.4byte	.LASF105
 1540 07c0 0D       		.byte	0xd
 1541 07c1 FD       		.byte	0xfd
 1542 07c2 C6070000 		.4byte	0x7c6
 1543 07c6 09       		.uleb128 0x9
 1544 07c7 04       		.byte	0x4
 1545 07c8 9A070000 		.4byte	0x79a
 1546 07cc 09       		.uleb128 0x9
 1547 07cd 04       		.byte	0x4
 1548 07ce D2070000 		.4byte	0x7d2
 1549 07d2 10       		.uleb128 0x10
 1550 07d3 CD060000 		.4byte	0x6cd
 1551 07d7 17       		.uleb128 0x17
 1552 07d8 01       		.byte	0x1
 1553 07d9 0E       		.byte	0xe
 1554 07da 48       		.byte	0x48
 1555 07db F2070000 		.4byte	0x7f2
 1556 07df 18       		.uleb128 0x18
 1557 07e0 13040000 		.4byte	.LASF106
 1558 07e4 00       		.sleb128 0
 1559 07e5 18       		.uleb128 0x18
 1560 07e6 96050000 		.4byte	.LASF107
 1561 07ea 01       		.sleb128 1
 1562 07eb 18       		.uleb128 0x18
ARM GAS  C:\Users\jsyoon\AppData\Local\Temp\ccsxAC7R.s 			page 29


 1563 07ec 62030000 		.4byte	.LASF108
 1564 07f0 02       		.sleb128 2
 1565 07f1 00       		.byte	0
 1566 07f2 03       		.uleb128 0x3
 1567 07f3 9E060000 		.4byte	.LASF109
 1568 07f7 0E       		.byte	0xe
 1569 07f8 4C       		.byte	0x4c
 1570 07f9 D7070000 		.4byte	0x7d7
 1571 07fd 17       		.uleb128 0x17
 1572 07fe 01       		.byte	0x1
 1573 07ff 0E       		.byte	0xe
 1574 0800 51       		.byte	0x51
 1575 0801 18080000 		.4byte	0x818
 1576 0805 18       		.uleb128 0x18
 1577 0806 59070000 		.4byte	.LASF110
 1578 080a 00       		.sleb128 0
 1579 080b 18       		.uleb128 0x18
 1580 080c 6D030000 		.4byte	.LASF111
 1581 0810 01       		.sleb128 1
 1582 0811 18       		.uleb128 0x18
 1583 0812 73080000 		.4byte	.LASF112
 1584 0816 02       		.sleb128 2
 1585 0817 00       		.byte	0
 1586 0818 03       		.uleb128 0x3
 1587 0819 76050000 		.4byte	.LASF113
 1588 081d 0E       		.byte	0xe
 1589 081e 55       		.byte	0x55
 1590 081f FD070000 		.4byte	0x7fd
 1591 0823 17       		.uleb128 0x17
 1592 0824 01       		.byte	0x1
 1593 0825 0E       		.byte	0xe
 1594 0826 5A       		.byte	0x5a
 1595 0827 3E080000 		.4byte	0x83e
 1596 082b 18       		.uleb128 0x18
 1597 082c 1E070000 		.4byte	.LASF114
 1598 0830 00       		.sleb128 0
 1599 0831 18       		.uleb128 0x18
 1600 0832 EB040000 		.4byte	.LASF115
 1601 0836 01       		.sleb128 1
 1602 0837 18       		.uleb128 0x18
 1603 0838 0B050000 		.4byte	.LASF116
 1604 083c 02       		.sleb128 2
 1605 083d 00       		.byte	0
 1606 083e 03       		.uleb128 0x3
 1607 083f F0020000 		.4byte	.LASF117
 1608 0843 0E       		.byte	0xe
 1609 0844 5E       		.byte	0x5e
 1610 0845 23080000 		.4byte	0x823
 1611 0849 15       		.uleb128 0x15
 1612 084a 4F050000 		.4byte	.LASF118
 1613 084e 0F       		.byte	0xf
 1614 084f FE01     		.2byte	0x1fe
 1615 0851 C3000000 		.4byte	0xc3
 1616 0855 15       		.uleb128 0x15
 1617 0856 04030000 		.4byte	.LASF119
 1618 085a 0F       		.byte	0xf
 1619 085b 0302     		.2byte	0x203
ARM GAS  C:\Users\jsyoon\AppData\Local\Temp\ccsxAC7R.s 			page 30


 1620 085d 61080000 		.4byte	0x861
 1621 0861 0B       		.uleb128 0xb
 1622 0862 04030000 		.4byte	.LASF119
 1623 0866 1C       		.byte	0x1c
 1624 0867 0F       		.byte	0xf
 1625 0868 4B02     		.2byte	0x24b
 1626 086a E4080000 		.4byte	0x8e4
 1627 086e 14       		.uleb128 0x14
 1628 086f 4D010000 		.4byte	.LASF120
 1629 0873 0F       		.byte	0xf
 1630 0874 4F02     		.2byte	0x24f
 1631 0876 F2070000 		.4byte	0x7f2
 1632 087a 00       		.byte	0
 1633 087b 14       		.uleb128 0x14
 1634 087c 53010000 		.4byte	.LASF121
 1635 0880 0F       		.byte	0xf
 1636 0881 5302     		.2byte	0x253
 1637 0883 18080000 		.4byte	0x818
 1638 0887 01       		.byte	0x1
 1639 0888 14       		.uleb128 0x14
 1640 0889 FB000000 		.4byte	.LASF122
 1641 088d 0F       		.byte	0xf
 1642 088e 5702     		.2byte	0x257
 1643 0890 3E080000 		.4byte	0x83e
 1644 0894 02       		.byte	0x2
 1645 0895 14       		.uleb128 0x14
 1646 0896 17070000 		.4byte	.LASF123
 1647 089a 0F       		.byte	0xf
 1648 089b 5B02     		.2byte	0x25b
 1649 089d D6090000 		.4byte	0x9d6
 1650 08a1 04       		.byte	0x4
 1651 08a2 14       		.uleb128 0x14
 1652 08a3 98030000 		.4byte	.LASF124
 1653 08a7 0F       		.byte	0xf
 1654 08a8 6302     		.2byte	0x263
 1655 08aa E1090000 		.4byte	0x9e1
 1656 08ae 08       		.byte	0x8
 1657 08af 14       		.uleb128 0x14
 1658 08b0 23080000 		.4byte	.LASF125
 1659 08b4 0F       		.byte	0xf
 1660 08b5 6702     		.2byte	0x267
 1661 08b7 C3000000 		.4byte	0xc3
 1662 08bb 0C       		.byte	0xc
 1663 08bc 14       		.uleb128 0x14
 1664 08bd 07000000 		.4byte	.LASF126
 1665 08c1 0F       		.byte	0xf
 1666 08c2 6B02     		.2byte	0x26b
 1667 08c4 CC070000 		.4byte	0x7cc
 1668 08c8 10       		.byte	0x10
 1669 08c9 14       		.uleb128 0x14
 1670 08ca FE020000 		.4byte	.LASF127
 1671 08ce 0F       		.byte	0xf
 1672 08cf 6F02     		.2byte	0x26f
 1673 08d1 CC070000 		.4byte	0x7cc
 1674 08d5 14       		.byte	0x14
 1675 08d6 14       		.uleb128 0x14
 1676 08d7 7F000000 		.4byte	.LASF128
ARM GAS  C:\Users\jsyoon\AppData\Local\Temp\ccsxAC7R.s 			page 31


 1677 08db 0F       		.byte	0xf
 1678 08dc 7302     		.2byte	0x273
 1679 08de 45050000 		.4byte	0x545
 1680 08e2 18       		.byte	0x18
 1681 08e3 00       		.byte	0
 1682 08e4 15       		.uleb128 0x15
 1683 08e5 E0000000 		.4byte	.LASF129
 1684 08e9 0F       		.byte	0xf
 1685 08ea 0A02     		.2byte	0x20a
 1686 08ec F0080000 		.4byte	0x8f0
 1687 08f0 09       		.uleb128 0x9
 1688 08f1 04       		.byte	0x4
 1689 08f2 F6080000 		.4byte	0x8f6
 1690 08f6 19       		.uleb128 0x19
 1691 08f7 01090000 		.4byte	0x901
 1692 08fb 12       		.uleb128 0x12
 1693 08fc 01090000 		.4byte	0x901
 1694 0900 00       		.byte	0
 1695 0901 09       		.uleb128 0x9
 1696 0902 04       		.byte	0x4
 1697 0903 55080000 		.4byte	0x855
 1698 0907 15       		.uleb128 0x15
 1699 0908 F6060000 		.4byte	.LASF130
 1700 090c 0F       		.byte	0xf
 1701 090d 1202     		.2byte	0x212
 1702 090f 13090000 		.4byte	0x913
 1703 0913 09       		.uleb128 0x9
 1704 0914 04       		.byte	0x4
 1705 0915 19090000 		.4byte	0x919
 1706 0919 19       		.uleb128 0x19
 1707 091a 29090000 		.4byte	0x929
 1708 091e 12       		.uleb128 0x12
 1709 091f 01090000 		.4byte	0x901
 1710 0923 12       		.uleb128 0x12
 1711 0924 AD000000 		.4byte	0xad
 1712 0928 00       		.byte	0
 1713 0929 15       		.uleb128 0x15
 1714 092a D7030000 		.4byte	.LASF131
 1715 092e 0F       		.byte	0xf
 1716 092f 1A02     		.2byte	0x21a
 1717 0931 35090000 		.4byte	0x935
 1718 0935 09       		.uleb128 0x9
 1719 0936 04       		.byte	0x4
 1720 0937 3B090000 		.4byte	0x93b
 1721 093b 19       		.uleb128 0x19
 1722 093c 4B090000 		.4byte	0x94b
 1723 0940 12       		.uleb128 0x12
 1724 0941 01090000 		.4byte	0x901
 1725 0945 12       		.uleb128 0x12
 1726 0946 49080000 		.4byte	0x849
 1727 094a 00       		.byte	0
 1728 094b 13       		.uleb128 0x13
 1729 094c 20       		.byte	0x20
 1730 094d 0F       		.byte	0xf
 1731 094e 2002     		.2byte	0x220
 1732 0950 CA090000 		.4byte	0x9ca
 1733 0954 14       		.uleb128 0x14
ARM GAS  C:\Users\jsyoon\AppData\Local\Temp\ccsxAC7R.s 			page 32


 1734 0955 D3060000 		.4byte	.LASF132
 1735 0959 0F       		.byte	0xf
 1736 095a 2402     		.2byte	0x224
 1737 095c E4080000 		.4byte	0x8e4
 1738 0960 00       		.byte	0
 1739 0961 14       		.uleb128 0x14
 1740 0962 22060000 		.4byte	.LASF133
 1741 0966 0F       		.byte	0xf
 1742 0967 2802     		.2byte	0x228
 1743 0969 E4080000 		.4byte	0x8e4
 1744 096d 04       		.byte	0x4
 1745 096e 14       		.uleb128 0x14
 1746 096f 65050000 		.4byte	.LASF134
 1747 0973 0F       		.byte	0xf
 1748 0974 2C02     		.2byte	0x22c
 1749 0976 E4080000 		.4byte	0x8e4
 1750 097a 08       		.byte	0x8
 1751 097b 14       		.uleb128 0x14
 1752 097c D6070000 		.4byte	.LASF135
 1753 0980 0F       		.byte	0xf
 1754 0981 3002     		.2byte	0x230
 1755 0983 07090000 		.4byte	0x907
 1756 0987 0C       		.byte	0xc
 1757 0988 14       		.uleb128 0x14
 1758 0989 1C050000 		.4byte	.LASF136
 1759 098d 0F       		.byte	0xf
 1760 098e 3402     		.2byte	0x234
 1761 0990 29090000 		.4byte	0x929
 1762 0994 10       		.byte	0x10
 1763 0995 14       		.uleb128 0x14
 1764 0996 32080000 		.4byte	.LASF137
 1765 099a 0F       		.byte	0xf
 1766 099b 3902     		.2byte	0x239
 1767 099d C3000000 		.4byte	0xc3
 1768 09a1 14       		.byte	0x14
 1769 09a2 0C       		.uleb128 0xc
 1770 09a3 63723100 		.ascii	"cr1\000"
 1771 09a7 0F       		.byte	0xf
 1772 09a8 3D02     		.2byte	0x23d
 1773 09aa AD000000 		.4byte	0xad
 1774 09ae 18       		.byte	0x18
 1775 09af 0C       		.uleb128 0xc
 1776 09b0 63723200 		.ascii	"cr2\000"
 1777 09b4 0F       		.byte	0xf
 1778 09b5 4102     		.2byte	0x241
 1779 09b7 AD000000 		.4byte	0xad
 1780 09bb 1A       		.byte	0x1a
 1781 09bc 0C       		.uleb128 0xc
 1782 09bd 63723300 		.ascii	"cr3\000"
 1783 09c1 0F       		.byte	0xf
 1784 09c2 4502     		.2byte	0x245
 1785 09c4 AD000000 		.4byte	0xad
 1786 09c8 1C       		.byte	0x1c
 1787 09c9 00       		.byte	0
 1788 09ca 15       		.uleb128 0x15
 1789 09cb 9F000000 		.4byte	.LASF138
 1790 09cf 0F       		.byte	0xf
ARM GAS  C:\Users\jsyoon\AppData\Local\Temp\ccsxAC7R.s 			page 33


 1791 09d0 4602     		.2byte	0x246
 1792 09d2 4B090000 		.4byte	0x94b
 1793 09d6 09       		.uleb128 0x9
 1794 09d7 04       		.byte	0x4
 1795 09d8 DC090000 		.4byte	0x9dc
 1796 09dc 10       		.uleb128 0x10
 1797 09dd CA090000 		.4byte	0x9ca
 1798 09e1 09       		.uleb128 0x9
 1799 09e2 04       		.byte	0x4
 1800 09e3 70060000 		.4byte	0x670
 1801 09e7 09       		.uleb128 0x9
 1802 09e8 04       		.byte	0x4
 1803 09e9 37000000 		.4byte	0x37
 1804 09ed 1A       		.uleb128 0x1a
 1805 09ee 3D030000 		.4byte	.LASF139
 1806 09f2 01       		.byte	0x1
 1807 09f3 3C       		.byte	0x3c
 1808 09f4 00000000 		.4byte	.LFB118
 1809 09f8 02000000 		.4byte	.LFE118-.LFB118
 1810 09fc 01       		.uleb128 0x1
 1811 09fd 9C       		.byte	0x9c
 1812 09fe 100A0000 		.4byte	0xa10
 1813 0a02 1B       		.uleb128 0x1b
 1814 0a03 E5040000 		.4byte	.LASF141
 1815 0a07 01       		.byte	0x1
 1816 0a08 3C       		.byte	0x3c
 1817 0a09 01090000 		.4byte	0x901
 1818 0a0d 01       		.uleb128 0x1
 1819 0a0e 50       		.byte	0x50
 1820 0a0f 00       		.byte	0
 1821 0a10 1A       		.uleb128 0x1a
 1822 0a11 44030000 		.4byte	.LASF140
 1823 0a15 01       		.byte	0x1
 1824 0a16 43       		.byte	0x43
 1825 0a17 00000000 		.4byte	.LFB119
 1826 0a1b 02000000 		.4byte	.LFE119-.LFB119
 1827 0a1f 01       		.uleb128 0x1
 1828 0a20 9C       		.byte	0x9c
 1829 0a21 330A0000 		.4byte	0xa33
 1830 0a25 1B       		.uleb128 0x1b
 1831 0a26 E5040000 		.4byte	.LASF141
 1832 0a2a 01       		.byte	0x1
 1833 0a2b 43       		.byte	0x43
 1834 0a2c 01090000 		.4byte	0x901
 1835 0a30 01       		.uleb128 0x1
 1836 0a31 50       		.byte	0x50
 1837 0a32 00       		.byte	0
 1838 0a33 1A       		.uleb128 0x1a
 1839 0a34 1F040000 		.4byte	.LASF142
 1840 0a38 01       		.byte	0x1
 1841 0a39 4B       		.byte	0x4b
 1842 0a3a 00000000 		.4byte	.LFB120
 1843 0a3e 02000000 		.4byte	.LFE120-.LFB120
 1844 0a42 01       		.uleb128 0x1
 1845 0a43 9C       		.byte	0x9c
 1846 0a44 610A0000 		.4byte	0xa61
 1847 0a48 1B       		.uleb128 0x1b
ARM GAS  C:\Users\jsyoon\AppData\Local\Temp\ccsxAC7R.s 			page 34


 1848 0a49 E5040000 		.4byte	.LASF141
 1849 0a4d 01       		.byte	0x1
 1850 0a4e 4B       		.byte	0x4b
 1851 0a4f 01090000 		.4byte	0x901
 1852 0a53 01       		.uleb128 0x1
 1853 0a54 50       		.byte	0x50
 1854 0a55 1C       		.uleb128 0x1c
 1855 0a56 6500     		.ascii	"e\000"
 1856 0a58 01       		.byte	0x1
 1857 0a59 4B       		.byte	0x4b
 1858 0a5a 49080000 		.4byte	0x849
 1859 0a5e 01       		.uleb128 0x1
 1860 0a5f 51       		.byte	0x51
 1861 0a60 00       		.byte	0
 1862 0a61 1A       		.uleb128 0x1a
 1863 0a62 2D030000 		.4byte	.LASF143
 1864 0a66 01       		.byte	0x1
 1865 0a67 62       		.byte	0x62
 1866 0a68 00000000 		.4byte	.LFB122
 1867 0a6c 02000000 		.4byte	.LFE122-.LFB122
 1868 0a70 01       		.uleb128 0x1
 1869 0a71 9C       		.byte	0x9c
 1870 0a72 840A0000 		.4byte	0xa84
 1871 0a76 1B       		.uleb128 0x1b
 1872 0a77 E5040000 		.4byte	.LASF141
 1873 0a7b 01       		.byte	0x1
 1874 0a7c 62       		.byte	0x62
 1875 0a7d 01090000 		.4byte	0x901
 1876 0a81 01       		.uleb128 0x1
 1877 0a82 50       		.byte	0x50
 1878 0a83 00       		.byte	0
 1879 0a84 1D       		.uleb128 0x1d
 1880 0a85 C0070000 		.4byte	.LASF178
 1881 0a89 01       		.byte	0x1
 1882 0a8a A4       		.byte	0xa4
 1883 0a8b 22010000 		.4byte	0x122
 1884 0a8f 00000000 		.4byte	.LFB128
 1885 0a93 64000000 		.4byte	.LFE128-.LFB128
 1886 0a97 01       		.uleb128 0x1
 1887 0a98 9C       		.byte	0x9c
 1888 0a99 CF0A0000 		.4byte	0xacf
 1889 0a9d 1E       		.uleb128 0x1e
 1890 0a9e 61726700 		.ascii	"arg\000"
 1891 0aa2 01       		.byte	0x1
 1892 0aa3 A4       		.byte	0xa4
 1893 0aa4 A8020000 		.4byte	0x2a8
 1894 0aa8 00000000 		.4byte	.LLST0
 1895 0aac 1F       		.uleb128 0x1f
 1896 0aad 20000000 		.4byte	.LVL6
 1897 0ab1 140E0000 		.4byte	0xe14
 1898 0ab5 BF0A0000 		.4byte	0xabf
 1899 0ab9 20       		.uleb128 0x20
 1900 0aba 01       		.uleb128 0x1
 1901 0abb 50       		.byte	0x50
 1902 0abc 01       		.uleb128 0x1
 1903 0abd 31       		.byte	0x31
 1904 0abe 00       		.byte	0
ARM GAS  C:\Users\jsyoon\AppData\Local\Temp\ccsxAC7R.s 			page 35


 1905 0abf 21       		.uleb128 0x21
 1906 0ac0 3C000000 		.4byte	.LVL7
 1907 0ac4 290E0000 		.4byte	0xe29
 1908 0ac8 20       		.uleb128 0x20
 1909 0ac9 01       		.uleb128 0x1
 1910 0aca 51       		.byte	0x51
 1911 0acb 01       		.uleb128 0x1
 1912 0acc 31       		.byte	0x31
 1913 0acd 00       		.byte	0
 1914 0ace 00       		.byte	0
 1915 0acf 1A       		.uleb128 0x1a
 1916 0ad0 A0050000 		.4byte	.LASF144
 1917 0ad4 01       		.byte	0x1
 1918 0ad5 54       		.byte	0x54
 1919 0ad6 00000000 		.4byte	.LFB121
 1920 0ada 34000000 		.4byte	.LFE121-.LFB121
 1921 0ade 01       		.uleb128 0x1
 1922 0adf 9C       		.byte	0x9c
 1923 0ae0 100B0000 		.4byte	0xb10
 1924 0ae4 22       		.uleb128 0x22
 1925 0ae5 E5040000 		.4byte	.LASF141
 1926 0ae9 01       		.byte	0x1
 1927 0aea 54       		.byte	0x54
 1928 0aeb 01090000 		.4byte	0x901
 1929 0aef 21000000 		.4byte	.LLST1
 1930 0af3 1E       		.uleb128 0x1e
 1931 0af4 6300     		.ascii	"c\000"
 1932 0af6 01       		.byte	0x1
 1933 0af7 54       		.byte	0x54
 1934 0af8 AD000000 		.4byte	0xad
 1935 0afc 42000000 		.4byte	.LLST2
 1936 0b00 23       		.uleb128 0x23
 1937 0b01 28000000 		.4byte	.LVL11
 1938 0b05 3F0E0000 		.4byte	0xe3f
 1939 0b09 20       		.uleb128 0x20
 1940 0b0a 01       		.uleb128 0x1
 1941 0b0b 51       		.byte	0x51
 1942 0b0c 01       		.uleb128 0x1
 1943 0b0d 31       		.byte	0x31
 1944 0b0e 00       		.byte	0
 1945 0b0f 00       		.byte	0
 1946 0b10 1A       		.uleb128 0x1a
 1947 0b11 25050000 		.4byte	.LASF145
 1948 0b15 01       		.byte	0x1
 1949 0b16 75       		.byte	0x75
 1950 0b17 00000000 		.4byte	.LFB123
 1951 0b1b 1C000000 		.4byte	.LFE123-.LFB123
 1952 0b1f 01       		.uleb128 0x1
 1953 0b20 9C       		.byte	0x9c
 1954 0b21 730B0000 		.4byte	0xb73
 1955 0b25 22       		.uleb128 0x22
 1956 0b26 F3030000 		.4byte	.LASF146
 1957 0b2a 01       		.byte	0x1
 1958 0b2b 75       		.byte	0x75
 1959 0b2c E7090000 		.4byte	0x9e7
 1960 0b30 63000000 		.4byte	.LLST3
 1961 0b34 1E       		.uleb128 0x1e
ARM GAS  C:\Users\jsyoon\AppData\Local\Temp\ccsxAC7R.s 			page 36


 1962 0b35 6C656E00 		.ascii	"len\000"
 1963 0b39 01       		.byte	0x1
 1964 0b3a 75       		.byte	0x75
 1965 0b3b 9B000000 		.4byte	0x9b
 1966 0b3f 9A000000 		.4byte	.LLST4
 1967 0b43 1F       		.uleb128 0x1f
 1968 0b44 0C000000 		.4byte	.LVL14
 1969 0b48 550E0000 		.4byte	0xe55
 1970 0b4c 5A0B0000 		.4byte	0xb5a
 1971 0b50 20       		.uleb128 0x20
 1972 0b51 01       		.uleb128 0x1
 1973 0b52 50       		.byte	0x50
 1974 0b53 05       		.uleb128 0x5
 1975 0b54 03       		.byte	0x3
 1976 0b55 00000000 		.4byte	send_packet_wrapper
 1977 0b59 00       		.byte	0
 1978 0b5a 23       		.uleb128 0x23
 1979 0b5b 18000000 		.4byte	.LVL16
 1980 0b5f 7C0E0000 		.4byte	0xe7c
 1981 0b63 20       		.uleb128 0x20
 1982 0b64 01       		.uleb128 0x1
 1983 0b65 51       		.byte	0x51
 1984 0b66 03       		.uleb128 0x3
 1985 0b67 F3       		.byte	0xf3
 1986 0b68 01       		.uleb128 0x1
 1987 0b69 51       		.byte	0x51
 1988 0b6a 20       		.uleb128 0x20
 1989 0b6b 01       		.uleb128 0x1
 1990 0b6c 50       		.byte	0x50
 1991 0b6d 03       		.uleb128 0x3
 1992 0b6e F3       		.byte	0xf3
 1993 0b6f 01       		.uleb128 0x1
 1994 0b70 50       		.byte	0x50
 1995 0b71 00       		.byte	0
 1996 0b72 00       		.byte	0
 1997 0b73 1A       		.uleb128 0x1a
 1998 0b74 67040000 		.4byte	.LASF147
 1999 0b78 01       		.byte	0x1
 2000 0b79 7A       		.byte	0x7a
 2001 0b7a 00000000 		.4byte	.LFB124
 2002 0b7e 06000000 		.4byte	.LFE124-.LFB124
 2003 0b82 01       		.uleb128 0x1
 2004 0b83 9C       		.byte	0x9c
 2005 0b84 C40B0000 		.4byte	0xbc4
 2006 0b88 22       		.uleb128 0x22
 2007 0b89 F3030000 		.4byte	.LASF146
 2008 0b8d 01       		.byte	0x1
 2009 0b8e 7A       		.byte	0x7a
 2010 0b8f E7090000 		.4byte	0x9e7
 2011 0b93 D1000000 		.4byte	.LLST5
 2012 0b97 1E       		.uleb128 0x1e
 2013 0b98 6C656E00 		.ascii	"len\000"
 2014 0b9c 01       		.byte	0x1
 2015 0b9d 7A       		.byte	0x7a
 2016 0b9e 9B000000 		.4byte	0x9b
 2017 0ba2 F2000000 		.4byte	.LLST6
 2018 0ba6 23       		.uleb128 0x23
ARM GAS  C:\Users\jsyoon\AppData\Local\Temp\ccsxAC7R.s 			page 37


 2019 0ba7 06000000 		.4byte	.LVL18
 2020 0bab 920E0000 		.4byte	0xe92
 2021 0baf 20       		.uleb128 0x20
 2022 0bb0 01       		.uleb128 0x1
 2023 0bb1 52       		.byte	0x52
 2024 0bb2 01       		.uleb128 0x1
 2025 0bb3 31       		.byte	0x31
 2026 0bb4 20       		.uleb128 0x20
 2027 0bb5 01       		.uleb128 0x1
 2028 0bb6 51       		.byte	0x51
 2029 0bb7 03       		.uleb128 0x3
 2030 0bb8 F3       		.byte	0xf3
 2031 0bb9 01       		.uleb128 0x1
 2032 0bba 51       		.byte	0x51
 2033 0bbb 20       		.uleb128 0x20
 2034 0bbc 01       		.uleb128 0x1
 2035 0bbd 50       		.byte	0x50
 2036 0bbe 03       		.uleb128 0x3
 2037 0bbf F3       		.byte	0xf3
 2038 0bc0 01       		.uleb128 0x1
 2039 0bc1 50       		.byte	0x50
 2040 0bc2 00       		.byte	0
 2041 0bc3 00       		.byte	0
 2042 0bc4 1A       		.uleb128 0x1a
 2043 0bc5 AB030000 		.4byte	.LASF148
 2044 0bc9 01       		.byte	0x1
 2045 0bca 7E       		.byte	0x7e
 2046 0bcb 00000000 		.4byte	.LFB125
 2047 0bcf 3C000000 		.4byte	.LFE125-.LFB125
 2048 0bd3 01       		.uleb128 0x1
 2049 0bd4 9C       		.byte	0x9c
 2050 0bd5 590C0000 		.4byte	0xc59
 2051 0bd9 22       		.uleb128 0x22
 2052 0bda F3030000 		.4byte	.LASF146
 2053 0bde 01       		.byte	0x1
 2054 0bdf 7E       		.byte	0x7e
 2055 0be0 E7090000 		.4byte	0x9e7
 2056 0be4 13010000 		.4byte	.LLST7
 2057 0be8 1E       		.uleb128 0x1e
 2058 0be9 6C656E00 		.ascii	"len\000"
 2059 0bed 01       		.byte	0x1
 2060 0bee 7E       		.byte	0x7e
 2061 0bef 9B000000 		.4byte	0x9b
 2062 0bf3 3F010000 		.4byte	.LLST8
 2063 0bf7 24       		.uleb128 0x24
 2064 0bf8 52070000 		.4byte	.LASF152
 2065 0bfc 01       		.byte	0x1
 2066 0bfd 86       		.byte	0x86
 2067 0bfe 590C0000 		.4byte	0xc59
 2068 0c02 05       		.uleb128 0x5
 2069 0c03 03       		.byte	0x3
 2070 0c04 00000000 		.4byte	buffer.9850
 2071 0c08 1F       		.uleb128 0x1f
 2072 0c09 14000000 		.4byte	.LVL21
 2073 0c0d AD0E0000 		.4byte	0xead
 2074 0c11 1B0C0000 		.4byte	0xc1b
 2075 0c15 20       		.uleb128 0x20
ARM GAS  C:\Users\jsyoon\AppData\Local\Temp\ccsxAC7R.s 			page 38


 2076 0c16 01       		.uleb128 0x1
 2077 0c17 50       		.byte	0x50
 2078 0c18 01       		.uleb128 0x1
 2079 0c19 31       		.byte	0x31
 2080 0c1a 00       		.byte	0
 2081 0c1b 1F       		.uleb128 0x1f
 2082 0c1c 24000000 		.4byte	.LVL22
 2083 0c20 BF0E0000 		.4byte	0xebf
 2084 0c24 3E0C0000 		.4byte	0xc3e
 2085 0c28 20       		.uleb128 0x20
 2086 0c29 01       		.uleb128 0x1
 2087 0c2a 52       		.byte	0x52
 2088 0c2b 02       		.uleb128 0x2
 2089 0c2c 75       		.byte	0x75
 2090 0c2d 00       		.sleb128 0
 2091 0c2e 20       		.uleb128 0x20
 2092 0c2f 01       		.uleb128 0x1
 2093 0c30 51       		.byte	0x51
 2094 0c31 02       		.uleb128 0x2
 2095 0c32 76       		.byte	0x76
 2096 0c33 00       		.sleb128 0
 2097 0c34 20       		.uleb128 0x20
 2098 0c35 01       		.uleb128 0x1
 2099 0c36 50       		.byte	0x50
 2100 0c37 05       		.uleb128 0x5
 2101 0c38 03       		.byte	0x3
 2102 0c39 00000000 		.4byte	.LANCHOR4
 2103 0c3d 00       		.byte	0
 2104 0c3e 23       		.uleb128 0x23
 2105 0c3f 32000000 		.4byte	.LVL24
 2106 0c43 E30E0000 		.4byte	0xee3
 2107 0c47 20       		.uleb128 0x20
 2108 0c48 01       		.uleb128 0x1
 2109 0c49 52       		.byte	0x52
 2110 0c4a 05       		.uleb128 0x5
 2111 0c4b 03       		.byte	0x3
 2112 0c4c 00000000 		.4byte	.LANCHOR4
 2113 0c50 20       		.uleb128 0x20
 2114 0c51 01       		.uleb128 0x1
 2115 0c52 51       		.byte	0x51
 2116 0c53 03       		.uleb128 0x3
 2117 0c54 F3       		.byte	0xf3
 2118 0c55 01       		.uleb128 0x1
 2119 0c56 51       		.byte	0x51
 2120 0c57 00       		.byte	0
 2121 0c58 00       		.byte	0
 2122 0c59 25       		.uleb128 0x25
 2123 0c5a A2000000 		.4byte	0xa2
 2124 0c5e 6A0C0000 		.4byte	0xc6a
 2125 0c62 26       		.uleb128 0x26
 2126 0c63 27040000 		.4byte	0x427
 2127 0c67 0404     		.2byte	0x404
 2128 0c69 00       		.byte	0
 2129 0c6a 27       		.uleb128 0x27
 2130 0c6b 2E000000 		.4byte	.LASF149
 2131 0c6f 01       		.byte	0x1
 2132 0c70 8C       		.byte	0x8c
ARM GAS  C:\Users\jsyoon\AppData\Local\Temp\ccsxAC7R.s 			page 39


 2133 0c71 00000000 		.4byte	.LFB126
 2134 0c75 6C000000 		.4byte	.LFE126-.LFB126
 2135 0c79 01       		.uleb128 0x1
 2136 0c7a 9C       		.byte	0x9c
 2137 0c7b 2A0D0000 		.4byte	0xd2a
 2138 0c7f 1F       		.uleb128 0x1f
 2139 0c80 10000000 		.4byte	.LVL25
 2140 0c84 FE0E0000 		.4byte	0xefe
 2141 0c88 A40C0000 		.4byte	0xca4
 2142 0c8c 20       		.uleb128 0x20
 2143 0c8d 01       		.uleb128 0x1
 2144 0c8e 52       		.byte	0x52
 2145 0c8f 01       		.uleb128 0x1
 2146 0c90 31       		.byte	0x31
 2147 0c91 20       		.uleb128 0x20
 2148 0c92 01       		.uleb128 0x1
 2149 0c93 51       		.byte	0x51
 2150 0c94 05       		.uleb128 0x5
 2151 0c95 03       		.byte	0x3
 2152 0c96 00000000 		.4byte	process_packet
 2153 0c9a 20       		.uleb128 0x20
 2154 0c9b 01       		.uleb128 0x1
 2155 0c9c 50       		.byte	0x50
 2156 0c9d 05       		.uleb128 0x5
 2157 0c9e 03       		.byte	0x3
 2158 0c9f 00000000 		.4byte	send_packet
 2159 0ca3 00       		.byte	0
 2160 0ca4 1F       		.uleb128 0x1f
 2161 0ca5 18000000 		.4byte	.LVL26
 2162 0ca9 190F0000 		.4byte	0xf19
 2163 0cad BB0C0000 		.4byte	0xcbb
 2164 0cb1 20       		.uleb128 0x20
 2165 0cb2 01       		.uleb128 0x1
 2166 0cb3 51       		.byte	0x51
 2167 0cb4 05       		.uleb128 0x5
 2168 0cb5 03       		.byte	0x3
 2169 0cb6 00000000 		.4byte	.LANCHOR5
 2170 0cba 00       		.byte	0
 2171 0cbb 1F       		.uleb128 0x1f
 2172 0cbc 24000000 		.4byte	.LVL27
 2173 0cc0 2F0F0000 		.4byte	0xf2f
 2174 0cc4 DC0C0000 		.4byte	0xcdc
 2175 0cc8 20       		.uleb128 0x20
 2176 0cc9 01       		.uleb128 0x1
 2177 0cca 52       		.byte	0x52
 2178 0ccb 03       		.uleb128 0x3
 2179 0ccc 0A       		.byte	0xa
 2180 0ccd 3A04     		.2byte	0x43a
 2181 0ccf 20       		.uleb128 0x20
 2182 0cd0 01       		.uleb128 0x1
 2183 0cd1 51       		.byte	0x51
 2184 0cd2 02       		.uleb128 0x2
 2185 0cd3 08       		.byte	0x8
 2186 0cd4 40       		.byte	0x40
 2187 0cd5 20       		.uleb128 0x20
 2188 0cd6 01       		.uleb128 0x1
 2189 0cd7 50       		.byte	0x50
ARM GAS  C:\Users\jsyoon\AppData\Local\Temp\ccsxAC7R.s 			page 40


 2190 0cd8 02       		.uleb128 0x2
 2191 0cd9 74       		.byte	0x74
 2192 0cda 00       		.sleb128 0
 2193 0cdb 00       		.byte	0
 2194 0cdc 1F       		.uleb128 0x1f
 2195 0cdd 32000000 		.4byte	.LVL28
 2196 0ce1 2F0F0000 		.4byte	0xf2f
 2197 0ce5 000D0000 		.4byte	0xd00
 2198 0ce9 20       		.uleb128 0x20
 2199 0cea 01       		.uleb128 0x1
 2200 0ceb 52       		.byte	0x52
 2201 0cec 03       		.uleb128 0x3
 2202 0ced 0A       		.byte	0xa
 2203 0cee 3A04     		.2byte	0x43a
 2204 0cf0 20       		.uleb128 0x20
 2205 0cf1 01       		.uleb128 0x1
 2206 0cf2 51       		.byte	0x51
 2207 0cf3 02       		.uleb128 0x2
 2208 0cf4 08       		.byte	0x8
 2209 0cf5 80       		.byte	0x80
 2210 0cf6 20       		.uleb128 0x20
 2211 0cf7 01       		.uleb128 0x1
 2212 0cf8 50       		.byte	0x50
 2213 0cf9 05       		.uleb128 0x5
 2214 0cfa 0C       		.byte	0xc
 2215 0cfb 00080240 		.4byte	0x40020800
 2216 0cff 00       		.byte	0
 2217 0d00 21       		.uleb128 0x21
 2218 0d01 48000000 		.4byte	.LVL29
 2219 0d05 4B0F0000 		.4byte	0xf4b
 2220 0d09 20       		.uleb128 0x20
 2221 0d0a 01       		.uleb128 0x1
 2222 0d0b 53       		.byte	0x53
 2223 0d0c 05       		.uleb128 0x5
 2224 0d0d 03       		.byte	0x3
 2225 0d0e 00000000 		.4byte	packet_process_thread
 2226 0d12 20       		.uleb128 0x20
 2227 0d13 01       		.uleb128 0x1
 2228 0d14 52       		.byte	0x52
 2229 0d15 02       		.uleb128 0x2
 2230 0d16 08       		.byte	0x8
 2231 0d17 40       		.byte	0x40
 2232 0d18 20       		.uleb128 0x20
 2233 0d19 01       		.uleb128 0x1
 2234 0d1a 51       		.byte	0x51
 2235 0d1b 03       		.uleb128 0x3
 2236 0d1c 0A       		.byte	0xa
 2237 0d1d 9811     		.2byte	0x1198
 2238 0d1f 20       		.uleb128 0x20
 2239 0d20 01       		.uleb128 0x1
 2240 0d21 50       		.byte	0x50
 2241 0d22 05       		.uleb128 0x5
 2242 0d23 03       		.byte	0x3
 2243 0d24 00000000 		.4byte	.LANCHOR7
 2244 0d28 00       		.byte	0
 2245 0d29 00       		.byte	0
 2246 0d2a 27       		.uleb128 0x27
ARM GAS  C:\Users\jsyoon\AppData\Local\Temp\ccsxAC7R.s 			page 41


 2247 0d2b 6D010000 		.4byte	.LASF150
 2248 0d2f 01       		.byte	0x1
 2249 0d30 9C       		.byte	0x9c
 2250 0d31 00000000 		.4byte	.LFB127
 2251 0d35 20000000 		.4byte	.LFE127-.LFB127
 2252 0d39 01       		.uleb128 0x1
 2253 0d3a 9C       		.byte	0x9c
 2254 0d3b 580D0000 		.4byte	0xd58
 2255 0d3f 22       		.uleb128 0x22
 2256 0d40 03010000 		.4byte	.LASF151
 2257 0d44 01       		.byte	0x1
 2258 0d45 9C       		.byte	0x9c
 2259 0d46 C3000000 		.4byte	0xc3
 2260 0d4a 76010000 		.4byte	.LLST9
 2261 0d4e 28       		.uleb128 0x28
 2262 0d4f 12000000 		.4byte	.LVL32
 2263 0d53 190F0000 		.4byte	0xf19
 2264 0d57 00       		.byte	0
 2265 0d58 25       		.uleb128 0x25
 2266 0d59 AA020000 		.4byte	0x2aa
 2267 0d5d 690D0000 		.4byte	0xd69
 2268 0d61 26       		.uleb128 0x26
 2269 0d62 27040000 		.4byte	0x427
 2270 0d66 3202     		.2byte	0x232
 2271 0d68 00       		.byte	0
 2272 0d69 24       		.uleb128 0x24
 2273 0d6a 8B040000 		.4byte	.LASF153
 2274 0d6e 01       		.byte	0x1
 2275 0d6f 2A       		.byte	0x2a
 2276 0d70 580D0000 		.4byte	0xd58
 2277 0d74 05       		.uleb128 0x5
 2278 0d75 03       		.byte	0x3
 2279 0d76 00000000 		.4byte	packet_process_thread_wa
 2280 0d7a 24       		.uleb128 0x24
 2281 0d7b E5020000 		.4byte	.LASF154
 2282 0d7f 01       		.byte	0x1
 2283 0d80 2B       		.byte	0x2b
 2284 0d81 6C020000 		.4byte	0x26c
 2285 0d85 05       		.uleb128 0x5
 2286 0d86 03       		.byte	0x3
 2287 0d87 00000000 		.4byte	process_tp
 2288 0d8b 25       		.uleb128 0x25
 2289 0d8c A2000000 		.4byte	0xa2
 2290 0d90 9C0D0000 		.4byte	0xd9c
 2291 0d94 26       		.uleb128 0x26
 2292 0d95 27040000 		.4byte	0x427
 2293 0d99 FF03     		.2byte	0x3ff
 2294 0d9b 00       		.byte	0
 2295 0d9c 24       		.uleb128 0x24
 2296 0d9d 48000000 		.4byte	.LASF155
 2297 0da1 01       		.byte	0x1
 2298 0da2 2E       		.byte	0x2e
 2299 0da3 8B0D0000 		.4byte	0xd8b
 2300 0da7 05       		.uleb128 0x5
 2301 0da8 03       		.byte	0x3
 2302 0da9 00000000 		.4byte	serial_rx_buffer
 2303 0dad 24       		.uleb128 0x24
ARM GAS  C:\Users\jsyoon\AppData\Local\Temp\ccsxAC7R.s 			page 42


 2304 0dae B7030000 		.4byte	.LASF156
 2305 0db2 01       		.byte	0x1
 2306 0db3 2F       		.byte	0x2f
 2307 0db4 94000000 		.4byte	0x94
 2308 0db8 05       		.uleb128 0x5
 2309 0db9 03       		.byte	0x3
 2310 0dba 00000000 		.4byte	serial_rx_read_pos
 2311 0dbe 24       		.uleb128 0x24
 2312 0dbf 47080000 		.4byte	.LASF157
 2313 0dc3 01       		.byte	0x1
 2314 0dc4 30       		.byte	0x30
 2315 0dc5 94000000 		.4byte	0x94
 2316 0dc9 05       		.uleb128 0x5
 2317 0dca 03       		.byte	0x3
 2318 0dcb 00000000 		.4byte	serial_rx_write_pos
 2319 0dcf 24       		.uleb128 0x24
 2320 0dd0 FA040000 		.4byte	.LASF158
 2321 0dd4 01       		.byte	0x1
 2322 0dd5 31       		.byte	0x31
 2323 0dd6 94000000 		.4byte	0x94
 2324 0dda 05       		.uleb128 0x5
 2325 0ddb 03       		.byte	0x3
 2326 0ddc 00000000 		.4byte	is_running
 2327 0de0 24       		.uleb128 0x24
 2328 0de1 5E040000 		.4byte	.LASF159
 2329 0de5 01       		.byte	0x1
 2330 0de6 69       		.byte	0x69
 2331 0de7 CA090000 		.4byte	0x9ca
 2332 0deb 05       		.uleb128 0x5
 2333 0dec 03       		.byte	0x3
 2334 0ded 00000000 		.4byte	uart_cfg
 2335 0df1 29       		.uleb128 0x29
 2336 0df2 0C080000 		.4byte	.LASF160
 2337 0df6 09       		.byte	0x9
 2338 0df7 6F       		.byte	0x6f
 2339 0df8 84040000 		.4byte	0x484
 2340 0dfc 2A       		.uleb128 0x2a
 2341 0dfd AA000000 		.4byte	.LASF161
 2342 0e01 10       		.byte	0x10
 2343 0e02 9806     		.2byte	0x698
 2344 0e04 4A050000 		.4byte	0x54a
 2345 0e08 2A       		.uleb128 0x2a
 2346 0e09 00000000 		.4byte	.LASF162
 2347 0e0d 0F       		.byte	0xf
 2348 0e0e 9302     		.2byte	0x293
 2349 0e10 55080000 		.4byte	0x855
 2350 0e14 2B       		.uleb128 0x2b
 2351 0e15 0D000000 		.4byte	.LASF179
 2352 0e19 12       		.byte	0x12
 2353 0e1a BE       		.byte	0xbe
 2354 0e1b 2D010000 		.4byte	0x12d
 2355 0e1f 290E0000 		.4byte	0xe29
 2356 0e23 12       		.uleb128 0x12
 2357 0e24 2D010000 		.4byte	0x12d
 2358 0e28 00       		.byte	0
 2359 0e29 2C       		.uleb128 0x2c
 2360 0e2a C2050000 		.4byte	.LASF163
ARM GAS  C:\Users\jsyoon\AppData\Local\Temp\ccsxAC7R.s 			page 43


 2361 0e2e 11       		.byte	0x11
 2362 0e2f 26       		.byte	0x26
 2363 0e30 3F0E0000 		.4byte	0xe3f
 2364 0e34 12       		.uleb128 0x12
 2365 0e35 A2000000 		.4byte	0xa2
 2366 0e39 12       		.uleb128 0x12
 2367 0e3a 94000000 		.4byte	0x94
 2368 0e3e 00       		.byte	0
 2369 0e3f 2C       		.uleb128 0x2c
 2370 0e40 73000000 		.4byte	.LASF164
 2371 0e44 12       		.byte	0x12
 2372 0e45 B7       		.byte	0xb7
 2373 0e46 550E0000 		.4byte	0xe55
 2374 0e4a 12       		.uleb128 0x12
 2375 0e4b 6C020000 		.4byte	0x26c
 2376 0e4f 12       		.uleb128 0x12
 2377 0e50 2D010000 		.4byte	0x12d
 2378 0e54 00       		.byte	0
 2379 0e55 2C       		.uleb128 0x2c
 2380 0e56 B8020000 		.4byte	.LASF165
 2381 0e5a 13       		.byte	0x13
 2382 0e5b 20       		.byte	0x20
 2383 0e5c 660E0000 		.4byte	0xe66
 2384 0e60 12       		.uleb128 0x12
 2385 0e61 660E0000 		.4byte	0xe66
 2386 0e65 00       		.byte	0
 2387 0e66 09       		.uleb128 0x9
 2388 0e67 04       		.byte	0x4
 2389 0e68 6C0E0000 		.4byte	0xe6c
 2390 0e6c 19       		.uleb128 0x19
 2391 0e6d 7C0E0000 		.4byte	0xe7c
 2392 0e71 12       		.uleb128 0x12
 2393 0e72 E7090000 		.4byte	0x9e7
 2394 0e76 12       		.uleb128 0x12
 2395 0e77 9B000000 		.4byte	0x9b
 2396 0e7b 00       		.byte	0
 2397 0e7c 2C       		.uleb128 0x2c
 2398 0e7d A4040000 		.4byte	.LASF166
 2399 0e81 13       		.byte	0x13
 2400 0e82 22       		.byte	0x22
 2401 0e83 920E0000 		.4byte	0xe92
 2402 0e87 12       		.uleb128 0x12
 2403 0e88 E7090000 		.4byte	0x9e7
 2404 0e8c 12       		.uleb128 0x12
 2405 0e8d 9B000000 		.4byte	0x9b
 2406 0e91 00       		.byte	0
 2407 0e92 2C       		.uleb128 0x2c
 2408 0e93 0F030000 		.4byte	.LASF167
 2409 0e97 11       		.byte	0x11
 2410 0e98 28       		.byte	0x28
 2411 0e99 AD0E0000 		.4byte	0xead
 2412 0e9d 12       		.uleb128 0x12
 2413 0e9e E7090000 		.4byte	0x9e7
 2414 0ea2 12       		.uleb128 0x12
 2415 0ea3 9B000000 		.4byte	0x9b
 2416 0ea7 12       		.uleb128 0x12
 2417 0ea8 94000000 		.4byte	0x94
ARM GAS  C:\Users\jsyoon\AppData\Local\Temp\ccsxAC7R.s 			page 44


 2418 0eac 00       		.byte	0
 2419 0ead 2D       		.uleb128 0x2d
 2420 0eae E9070000 		.4byte	.LASF168
 2421 0eb2 07       		.byte	0x7
 2422 0eb3 7501     		.2byte	0x175
 2423 0eb5 BF0E0000 		.4byte	0xebf
 2424 0eb9 12       		.uleb128 0x12
 2425 0eba 38010000 		.4byte	0x138
 2426 0ebe 00       		.byte	0
 2427 0ebf 2E       		.uleb128 0x2e
 2428 0ec0 A8020000 		.4byte	.LASF169
 2429 0ec4 A8020000 		.4byte	0x2a8
 2430 0ec8 DC0E0000 		.4byte	0xedc
 2431 0ecc 12       		.uleb128 0x12
 2432 0ecd A8020000 		.4byte	0x2a8
 2433 0ed1 12       		.uleb128 0x12
 2434 0ed2 DC0E0000 		.4byte	0xedc
 2435 0ed6 12       		.uleb128 0x12
 2436 0ed7 27040000 		.4byte	0x427
 2437 0edb 00       		.byte	0
 2438 0edc 09       		.uleb128 0x9
 2439 0edd 04       		.byte	0x4
 2440 0ede E20E0000 		.4byte	0xee2
 2441 0ee2 2F       		.uleb128 0x2f
 2442 0ee3 2C       		.uleb128 0x2c
 2443 0ee4 CF020000 		.4byte	.LASF170
 2444 0ee8 0E       		.byte	0xe
 2445 0ee9 71       		.byte	0x71
 2446 0eea FE0E0000 		.4byte	0xefe
 2447 0eee 12       		.uleb128 0x12
 2448 0eef 01090000 		.4byte	0x901
 2449 0ef3 12       		.uleb128 0x12
 2450 0ef4 D9000000 		.4byte	0xd9
 2451 0ef8 12       		.uleb128 0x12
 2452 0ef9 DC0E0000 		.4byte	0xedc
 2453 0efd 00       		.byte	0
 2454 0efe 2C       		.uleb128 0x2c
 2455 0eff BC040000 		.4byte	.LASF171
 2456 0f03 11       		.byte	0x11
 2457 0f04 24       		.byte	0x24
 2458 0f05 190F0000 		.4byte	0xf19
 2459 0f09 12       		.uleb128 0x12
 2460 0f0a 660E0000 		.4byte	0xe66
 2461 0f0e 12       		.uleb128 0x12
 2462 0f0f 660E0000 		.4byte	0xe66
 2463 0f13 12       		.uleb128 0x12
 2464 0f14 94000000 		.4byte	0x94
 2465 0f18 00       		.byte	0
 2466 0f19 2C       		.uleb128 0x2c
 2467 0f1a 5B050000 		.4byte	.LASF172
 2468 0f1e 0E       		.byte	0xe
 2469 0f1f 6F       		.byte	0x6f
 2470 0f20 2F0F0000 		.4byte	0xf2f
 2471 0f24 12       		.uleb128 0x12
 2472 0f25 01090000 		.4byte	0x901
 2473 0f29 12       		.uleb128 0x12
 2474 0f2a D6090000 		.4byte	0x9d6
ARM GAS  C:\Users\jsyoon\AppData\Local\Temp\ccsxAC7R.s 			page 45


 2475 0f2e 00       		.byte	0
 2476 0f2f 2D       		.uleb128 0x2d
 2477 0f30 89070000 		.4byte	.LASF173
 2478 0f34 0D       		.byte	0xd
 2479 0f35 C201     		.2byte	0x1c2
 2480 0f37 4B0F0000 		.4byte	0xf4b
 2481 0f3b 12       		.uleb128 0x12
 2482 0f3c BB070000 		.4byte	0x7bb
 2483 0f40 12       		.uleb128 0x12
 2484 0f41 A5070000 		.4byte	0x7a5
 2485 0f45 12       		.uleb128 0x12
 2486 0f46 B0070000 		.4byte	0x7b0
 2487 0f4a 00       		.byte	0
 2488 0f4b 30       		.uleb128 0x30
 2489 0f4c D3040000 		.4byte	.LASF174
 2490 0f50 07       		.byte	0x7
 2491 0f51 7001     		.2byte	0x170
 2492 0f53 6C020000 		.4byte	0x26c
 2493 0f57 12       		.uleb128 0x12
 2494 0f58 A8020000 		.4byte	0x2a8
 2495 0f5c 12       		.uleb128 0x12
 2496 0f5d D9000000 		.4byte	0xd9
 2497 0f61 12       		.uleb128 0x12
 2498 0f62 17010000 		.4byte	0x117
 2499 0f66 12       		.uleb128 0x12
 2500 0f67 1E050000 		.4byte	0x51e
 2501 0f6b 12       		.uleb128 0x12
 2502 0f6c A8020000 		.4byte	0x2a8
 2503 0f70 00       		.byte	0
 2504 0f71 00       		.byte	0
 2505              		.section	.debug_abbrev,"",%progbits
 2506              	.Ldebug_abbrev0:
 2507 0000 01       		.uleb128 0x1
 2508 0001 11       		.uleb128 0x11
 2509 0002 01       		.byte	0x1
 2510 0003 25       		.uleb128 0x25
 2511 0004 0E       		.uleb128 0xe
 2512 0005 13       		.uleb128 0x13
 2513 0006 0B       		.uleb128 0xb
 2514 0007 03       		.uleb128 0x3
 2515 0008 0E       		.uleb128 0xe
 2516 0009 1B       		.uleb128 0x1b
 2517 000a 0E       		.uleb128 0xe
 2518 000b 55       		.uleb128 0x55
 2519 000c 17       		.uleb128 0x17
 2520 000d 11       		.uleb128 0x11
 2521 000e 01       		.uleb128 0x1
 2522 000f 10       		.uleb128 0x10
 2523 0010 17       		.uleb128 0x17
 2524 0011 00       		.byte	0
 2525 0012 00       		.byte	0
 2526 0013 02       		.uleb128 0x2
 2527 0014 24       		.uleb128 0x24
 2528 0015 00       		.byte	0
 2529 0016 0B       		.uleb128 0xb
 2530 0017 0B       		.uleb128 0xb
 2531 0018 3E       		.uleb128 0x3e
ARM GAS  C:\Users\jsyoon\AppData\Local\Temp\ccsxAC7R.s 			page 46


 2532 0019 0B       		.uleb128 0xb
 2533 001a 03       		.uleb128 0x3
 2534 001b 0E       		.uleb128 0xe
 2535 001c 00       		.byte	0
 2536 001d 00       		.byte	0
 2537 001e 03       		.uleb128 0x3
 2538 001f 16       		.uleb128 0x16
 2539 0020 00       		.byte	0
 2540 0021 03       		.uleb128 0x3
 2541 0022 0E       		.uleb128 0xe
 2542 0023 3A       		.uleb128 0x3a
 2543 0024 0B       		.uleb128 0xb
 2544 0025 3B       		.uleb128 0x3b
 2545 0026 0B       		.uleb128 0xb
 2546 0027 49       		.uleb128 0x49
 2547 0028 13       		.uleb128 0x13
 2548 0029 00       		.byte	0
 2549 002a 00       		.byte	0
 2550 002b 04       		.uleb128 0x4
 2551 002c 24       		.uleb128 0x24
 2552 002d 00       		.byte	0
 2553 002e 0B       		.uleb128 0xb
 2554 002f 0B       		.uleb128 0xb
 2555 0030 3E       		.uleb128 0x3e
 2556 0031 0B       		.uleb128 0xb
 2557 0032 03       		.uleb128 0x3
 2558 0033 08       		.uleb128 0x8
 2559 0034 00       		.byte	0
 2560 0035 00       		.byte	0
 2561 0036 05       		.uleb128 0x5
 2562 0037 13       		.uleb128 0x13
 2563 0038 01       		.byte	0x1
 2564 0039 03       		.uleb128 0x3
 2565 003a 0E       		.uleb128 0xe
 2566 003b 0B       		.uleb128 0xb
 2567 003c 0B       		.uleb128 0xb
 2568 003d 3A       		.uleb128 0x3a
 2569 003e 0B       		.uleb128 0xb
 2570 003f 3B       		.uleb128 0x3b
 2571 0040 0B       		.uleb128 0xb
 2572 0041 01       		.uleb128 0x1
 2573 0042 13       		.uleb128 0x13
 2574 0043 00       		.byte	0
 2575 0044 00       		.byte	0
 2576 0045 06       		.uleb128 0x6
 2577 0046 0D       		.uleb128 0xd
 2578 0047 00       		.byte	0
 2579 0048 03       		.uleb128 0x3
 2580 0049 0E       		.uleb128 0xe
 2581 004a 3A       		.uleb128 0x3a
 2582 004b 0B       		.uleb128 0xb
 2583 004c 3B       		.uleb128 0x3b
 2584 004d 0B       		.uleb128 0xb
 2585 004e 49       		.uleb128 0x49
 2586 004f 13       		.uleb128 0x13
 2587 0050 38       		.uleb128 0x38
 2588 0051 0B       		.uleb128 0xb
ARM GAS  C:\Users\jsyoon\AppData\Local\Temp\ccsxAC7R.s 			page 47


 2589 0052 00       		.byte	0
 2590 0053 00       		.byte	0
 2591 0054 07       		.uleb128 0x7
 2592 0055 0D       		.uleb128 0xd
 2593 0056 00       		.byte	0
 2594 0057 03       		.uleb128 0x3
 2595 0058 08       		.uleb128 0x8
 2596 0059 3A       		.uleb128 0x3a
 2597 005a 0B       		.uleb128 0xb
 2598 005b 3B       		.uleb128 0x3b
 2599 005c 0B       		.uleb128 0xb
 2600 005d 49       		.uleb128 0x49
 2601 005e 13       		.uleb128 0x13
 2602 005f 38       		.uleb128 0x38
 2603 0060 0B       		.uleb128 0xb
 2604 0061 00       		.byte	0
 2605 0062 00       		.byte	0
 2606 0063 08       		.uleb128 0x8
 2607 0064 13       		.uleb128 0x13
 2608 0065 01       		.byte	0x1
 2609 0066 0B       		.uleb128 0xb
 2610 0067 0B       		.uleb128 0xb
 2611 0068 3A       		.uleb128 0x3a
 2612 0069 0B       		.uleb128 0xb
 2613 006a 3B       		.uleb128 0x3b
 2614 006b 0B       		.uleb128 0xb
 2615 006c 01       		.uleb128 0x1
 2616 006d 13       		.uleb128 0x13
 2617 006e 00       		.byte	0
 2618 006f 00       		.byte	0
 2619 0070 09       		.uleb128 0x9
 2620 0071 0F       		.uleb128 0xf
 2621 0072 00       		.byte	0
 2622 0073 0B       		.uleb128 0xb
 2623 0074 0B       		.uleb128 0xb
 2624 0075 49       		.uleb128 0x49
 2625 0076 13       		.uleb128 0x13
 2626 0077 00       		.byte	0
 2627 0078 00       		.byte	0
 2628 0079 0A       		.uleb128 0xa
 2629 007a 0F       		.uleb128 0xf
 2630 007b 00       		.byte	0
 2631 007c 0B       		.uleb128 0xb
 2632 007d 0B       		.uleb128 0xb
 2633 007e 00       		.byte	0
 2634 007f 00       		.byte	0
 2635 0080 0B       		.uleb128 0xb
 2636 0081 13       		.uleb128 0x13
 2637 0082 01       		.byte	0x1
 2638 0083 03       		.uleb128 0x3
 2639 0084 0E       		.uleb128 0xe
 2640 0085 0B       		.uleb128 0xb
 2641 0086 0B       		.uleb128 0xb
 2642 0087 3A       		.uleb128 0x3a
 2643 0088 0B       		.uleb128 0xb
 2644 0089 3B       		.uleb128 0x3b
 2645 008a 05       		.uleb128 0x5
ARM GAS  C:\Users\jsyoon\AppData\Local\Temp\ccsxAC7R.s 			page 48


 2646 008b 01       		.uleb128 0x1
 2647 008c 13       		.uleb128 0x13
 2648 008d 00       		.byte	0
 2649 008e 00       		.byte	0
 2650 008f 0C       		.uleb128 0xc
 2651 0090 0D       		.uleb128 0xd
 2652 0091 00       		.byte	0
 2653 0092 03       		.uleb128 0x3
 2654 0093 08       		.uleb128 0x8
 2655 0094 3A       		.uleb128 0x3a
 2656 0095 0B       		.uleb128 0xb
 2657 0096 3B       		.uleb128 0x3b
 2658 0097 05       		.uleb128 0x5
 2659 0098 49       		.uleb128 0x49
 2660 0099 13       		.uleb128 0x13
 2661 009a 38       		.uleb128 0x38
 2662 009b 0B       		.uleb128 0xb
 2663 009c 00       		.byte	0
 2664 009d 00       		.byte	0
 2665 009e 0D       		.uleb128 0xd
 2666 009f 35       		.uleb128 0x35
 2667 00a0 00       		.byte	0
 2668 00a1 49       		.uleb128 0x49
 2669 00a2 13       		.uleb128 0x13
 2670 00a3 00       		.byte	0
 2671 00a4 00       		.byte	0
 2672 00a5 0E       		.uleb128 0xe
 2673 00a6 17       		.uleb128 0x17
 2674 00a7 01       		.byte	0x1
 2675 00a8 0B       		.uleb128 0xb
 2676 00a9 0B       		.uleb128 0xb
 2677 00aa 3A       		.uleb128 0x3a
 2678 00ab 0B       		.uleb128 0xb
 2679 00ac 3B       		.uleb128 0x3b
 2680 00ad 0B       		.uleb128 0xb
 2681 00ae 01       		.uleb128 0x1
 2682 00af 13       		.uleb128 0x13
 2683 00b0 00       		.byte	0
 2684 00b1 00       		.byte	0
 2685 00b2 0F       		.uleb128 0xf
 2686 00b3 0D       		.uleb128 0xd
 2687 00b4 00       		.byte	0
 2688 00b5 03       		.uleb128 0x3
 2689 00b6 0E       		.uleb128 0xe
 2690 00b7 3A       		.uleb128 0x3a
 2691 00b8 0B       		.uleb128 0xb
 2692 00b9 3B       		.uleb128 0x3b
 2693 00ba 0B       		.uleb128 0xb
 2694 00bb 49       		.uleb128 0x49
 2695 00bc 13       		.uleb128 0x13
 2696 00bd 00       		.byte	0
 2697 00be 00       		.byte	0
 2698 00bf 10       		.uleb128 0x10
 2699 00c0 26       		.uleb128 0x26
 2700 00c1 00       		.byte	0
 2701 00c2 49       		.uleb128 0x49
 2702 00c3 13       		.uleb128 0x13
ARM GAS  C:\Users\jsyoon\AppData\Local\Temp\ccsxAC7R.s 			page 49


 2703 00c4 00       		.byte	0
 2704 00c5 00       		.byte	0
 2705 00c6 11       		.uleb128 0x11
 2706 00c7 15       		.uleb128 0x15
 2707 00c8 01       		.byte	0x1
 2708 00c9 27       		.uleb128 0x27
 2709 00ca 19       		.uleb128 0x19
 2710 00cb 49       		.uleb128 0x49
 2711 00cc 13       		.uleb128 0x13
 2712 00cd 01       		.uleb128 0x1
 2713 00ce 13       		.uleb128 0x13
 2714 00cf 00       		.byte	0
 2715 00d0 00       		.byte	0
 2716 00d1 12       		.uleb128 0x12
 2717 00d2 05       		.uleb128 0x5
 2718 00d3 00       		.byte	0
 2719 00d4 49       		.uleb128 0x49
 2720 00d5 13       		.uleb128 0x13
 2721 00d6 00       		.byte	0
 2722 00d7 00       		.byte	0
 2723 00d8 13       		.uleb128 0x13
 2724 00d9 13       		.uleb128 0x13
 2725 00da 01       		.byte	0x1
 2726 00db 0B       		.uleb128 0xb
 2727 00dc 0B       		.uleb128 0xb
 2728 00dd 3A       		.uleb128 0x3a
 2729 00de 0B       		.uleb128 0xb
 2730 00df 3B       		.uleb128 0x3b
 2731 00e0 05       		.uleb128 0x5
 2732 00e1 01       		.uleb128 0x1
 2733 00e2 13       		.uleb128 0x13
 2734 00e3 00       		.byte	0
 2735 00e4 00       		.byte	0
 2736 00e5 14       		.uleb128 0x14
 2737 00e6 0D       		.uleb128 0xd
 2738 00e7 00       		.byte	0
 2739 00e8 03       		.uleb128 0x3
 2740 00e9 0E       		.uleb128 0xe
 2741 00ea 3A       		.uleb128 0x3a
 2742 00eb 0B       		.uleb128 0xb
 2743 00ec 3B       		.uleb128 0x3b
 2744 00ed 05       		.uleb128 0x5
 2745 00ee 49       		.uleb128 0x49
 2746 00ef 13       		.uleb128 0x13
 2747 00f0 38       		.uleb128 0x38
 2748 00f1 0B       		.uleb128 0xb
 2749 00f2 00       		.byte	0
 2750 00f3 00       		.byte	0
 2751 00f4 15       		.uleb128 0x15
 2752 00f5 16       		.uleb128 0x16
 2753 00f6 00       		.byte	0
 2754 00f7 03       		.uleb128 0x3
 2755 00f8 0E       		.uleb128 0xe
 2756 00f9 3A       		.uleb128 0x3a
 2757 00fa 0B       		.uleb128 0xb
 2758 00fb 3B       		.uleb128 0x3b
 2759 00fc 05       		.uleb128 0x5
ARM GAS  C:\Users\jsyoon\AppData\Local\Temp\ccsxAC7R.s 			page 50


 2760 00fd 49       		.uleb128 0x49
 2761 00fe 13       		.uleb128 0x13
 2762 00ff 00       		.byte	0
 2763 0100 00       		.byte	0
 2764 0101 16       		.uleb128 0x16
 2765 0102 0D       		.uleb128 0xd
 2766 0103 00       		.byte	0
 2767 0104 03       		.uleb128 0x3
 2768 0105 08       		.uleb128 0x8
 2769 0106 3A       		.uleb128 0x3a
 2770 0107 0B       		.uleb128 0xb
 2771 0108 3B       		.uleb128 0x3b
 2772 0109 0B       		.uleb128 0xb
 2773 010a 49       		.uleb128 0x49
 2774 010b 13       		.uleb128 0x13
 2775 010c 00       		.byte	0
 2776 010d 00       		.byte	0
 2777 010e 17       		.uleb128 0x17
 2778 010f 04       		.uleb128 0x4
 2779 0110 01       		.byte	0x1
 2780 0111 0B       		.uleb128 0xb
 2781 0112 0B       		.uleb128 0xb
 2782 0113 3A       		.uleb128 0x3a
 2783 0114 0B       		.uleb128 0xb
 2784 0115 3B       		.uleb128 0x3b
 2785 0116 0B       		.uleb128 0xb
 2786 0117 01       		.uleb128 0x1
 2787 0118 13       		.uleb128 0x13
 2788 0119 00       		.byte	0
 2789 011a 00       		.byte	0
 2790 011b 18       		.uleb128 0x18
 2791 011c 28       		.uleb128 0x28
 2792 011d 00       		.byte	0
 2793 011e 03       		.uleb128 0x3
 2794 011f 0E       		.uleb128 0xe
 2795 0120 1C       		.uleb128 0x1c
 2796 0121 0D       		.uleb128 0xd
 2797 0122 00       		.byte	0
 2798 0123 00       		.byte	0
 2799 0124 19       		.uleb128 0x19
 2800 0125 15       		.uleb128 0x15
 2801 0126 01       		.byte	0x1
 2802 0127 27       		.uleb128 0x27
 2803 0128 19       		.uleb128 0x19
 2804 0129 01       		.uleb128 0x1
 2805 012a 13       		.uleb128 0x13
 2806 012b 00       		.byte	0
 2807 012c 00       		.byte	0
 2808 012d 1A       		.uleb128 0x1a
 2809 012e 2E       		.uleb128 0x2e
 2810 012f 01       		.byte	0x1
 2811 0130 03       		.uleb128 0x3
 2812 0131 0E       		.uleb128 0xe
 2813 0132 3A       		.uleb128 0x3a
 2814 0133 0B       		.uleb128 0xb
 2815 0134 3B       		.uleb128 0x3b
 2816 0135 0B       		.uleb128 0xb
ARM GAS  C:\Users\jsyoon\AppData\Local\Temp\ccsxAC7R.s 			page 51


 2817 0136 27       		.uleb128 0x27
 2818 0137 19       		.uleb128 0x19
 2819 0138 11       		.uleb128 0x11
 2820 0139 01       		.uleb128 0x1
 2821 013a 12       		.uleb128 0x12
 2822 013b 06       		.uleb128 0x6
 2823 013c 40       		.uleb128 0x40
 2824 013d 18       		.uleb128 0x18
 2825 013e 9742     		.uleb128 0x2117
 2826 0140 19       		.uleb128 0x19
 2827 0141 01       		.uleb128 0x1
 2828 0142 13       		.uleb128 0x13
 2829 0143 00       		.byte	0
 2830 0144 00       		.byte	0
 2831 0145 1B       		.uleb128 0x1b
 2832 0146 05       		.uleb128 0x5
 2833 0147 00       		.byte	0
 2834 0148 03       		.uleb128 0x3
 2835 0149 0E       		.uleb128 0xe
 2836 014a 3A       		.uleb128 0x3a
 2837 014b 0B       		.uleb128 0xb
 2838 014c 3B       		.uleb128 0x3b
 2839 014d 0B       		.uleb128 0xb
 2840 014e 49       		.uleb128 0x49
 2841 014f 13       		.uleb128 0x13
 2842 0150 02       		.uleb128 0x2
 2843 0151 18       		.uleb128 0x18
 2844 0152 00       		.byte	0
 2845 0153 00       		.byte	0
 2846 0154 1C       		.uleb128 0x1c
 2847 0155 05       		.uleb128 0x5
 2848 0156 00       		.byte	0
 2849 0157 03       		.uleb128 0x3
 2850 0158 08       		.uleb128 0x8
 2851 0159 3A       		.uleb128 0x3a
 2852 015a 0B       		.uleb128 0xb
 2853 015b 3B       		.uleb128 0x3b
 2854 015c 0B       		.uleb128 0xb
 2855 015d 49       		.uleb128 0x49
 2856 015e 13       		.uleb128 0x13
 2857 015f 02       		.uleb128 0x2
 2858 0160 18       		.uleb128 0x18
 2859 0161 00       		.byte	0
 2860 0162 00       		.byte	0
 2861 0163 1D       		.uleb128 0x1d
 2862 0164 2E       		.uleb128 0x2e
 2863 0165 01       		.byte	0x1
 2864 0166 03       		.uleb128 0x3
 2865 0167 0E       		.uleb128 0xe
 2866 0168 3A       		.uleb128 0x3a
 2867 0169 0B       		.uleb128 0xb
 2868 016a 3B       		.uleb128 0x3b
 2869 016b 0B       		.uleb128 0xb
 2870 016c 27       		.uleb128 0x27
 2871 016d 19       		.uleb128 0x19
 2872 016e 49       		.uleb128 0x49
 2873 016f 13       		.uleb128 0x13
ARM GAS  C:\Users\jsyoon\AppData\Local\Temp\ccsxAC7R.s 			page 52


 2874 0170 11       		.uleb128 0x11
 2875 0171 01       		.uleb128 0x1
 2876 0172 12       		.uleb128 0x12
 2877 0173 06       		.uleb128 0x6
 2878 0174 40       		.uleb128 0x40
 2879 0175 18       		.uleb128 0x18
 2880 0176 9742     		.uleb128 0x2117
 2881 0178 19       		.uleb128 0x19
 2882 0179 01       		.uleb128 0x1
 2883 017a 13       		.uleb128 0x13
 2884 017b 00       		.byte	0
 2885 017c 00       		.byte	0
 2886 017d 1E       		.uleb128 0x1e
 2887 017e 05       		.uleb128 0x5
 2888 017f 00       		.byte	0
 2889 0180 03       		.uleb128 0x3
 2890 0181 08       		.uleb128 0x8
 2891 0182 3A       		.uleb128 0x3a
 2892 0183 0B       		.uleb128 0xb
 2893 0184 3B       		.uleb128 0x3b
 2894 0185 0B       		.uleb128 0xb
 2895 0186 49       		.uleb128 0x49
 2896 0187 13       		.uleb128 0x13
 2897 0188 02       		.uleb128 0x2
 2898 0189 17       		.uleb128 0x17
 2899 018a 00       		.byte	0
 2900 018b 00       		.byte	0
 2901 018c 1F       		.uleb128 0x1f
 2902 018d 898201   		.uleb128 0x4109
 2903 0190 01       		.byte	0x1
 2904 0191 11       		.uleb128 0x11
 2905 0192 01       		.uleb128 0x1
 2906 0193 31       		.uleb128 0x31
 2907 0194 13       		.uleb128 0x13
 2908 0195 01       		.uleb128 0x1
 2909 0196 13       		.uleb128 0x13
 2910 0197 00       		.byte	0
 2911 0198 00       		.byte	0
 2912 0199 20       		.uleb128 0x20
 2913 019a 8A8201   		.uleb128 0x410a
 2914 019d 00       		.byte	0
 2915 019e 02       		.uleb128 0x2
 2916 019f 18       		.uleb128 0x18
 2917 01a0 9142     		.uleb128 0x2111
 2918 01a2 18       		.uleb128 0x18
 2919 01a3 00       		.byte	0
 2920 01a4 00       		.byte	0
 2921 01a5 21       		.uleb128 0x21
 2922 01a6 898201   		.uleb128 0x4109
 2923 01a9 01       		.byte	0x1
 2924 01aa 11       		.uleb128 0x11
 2925 01ab 01       		.uleb128 0x1
 2926 01ac 31       		.uleb128 0x31
 2927 01ad 13       		.uleb128 0x13
 2928 01ae 00       		.byte	0
 2929 01af 00       		.byte	0
 2930 01b0 22       		.uleb128 0x22
ARM GAS  C:\Users\jsyoon\AppData\Local\Temp\ccsxAC7R.s 			page 53


 2931 01b1 05       		.uleb128 0x5
 2932 01b2 00       		.byte	0
 2933 01b3 03       		.uleb128 0x3
 2934 01b4 0E       		.uleb128 0xe
 2935 01b5 3A       		.uleb128 0x3a
 2936 01b6 0B       		.uleb128 0xb
 2937 01b7 3B       		.uleb128 0x3b
 2938 01b8 0B       		.uleb128 0xb
 2939 01b9 49       		.uleb128 0x49
 2940 01ba 13       		.uleb128 0x13
 2941 01bb 02       		.uleb128 0x2
 2942 01bc 17       		.uleb128 0x17
 2943 01bd 00       		.byte	0
 2944 01be 00       		.byte	0
 2945 01bf 23       		.uleb128 0x23
 2946 01c0 898201   		.uleb128 0x4109
 2947 01c3 01       		.byte	0x1
 2948 01c4 11       		.uleb128 0x11
 2949 01c5 01       		.uleb128 0x1
 2950 01c6 9542     		.uleb128 0x2115
 2951 01c8 19       		.uleb128 0x19
 2952 01c9 31       		.uleb128 0x31
 2953 01ca 13       		.uleb128 0x13
 2954 01cb 00       		.byte	0
 2955 01cc 00       		.byte	0
 2956 01cd 24       		.uleb128 0x24
 2957 01ce 34       		.uleb128 0x34
 2958 01cf 00       		.byte	0
 2959 01d0 03       		.uleb128 0x3
 2960 01d1 0E       		.uleb128 0xe
 2961 01d2 3A       		.uleb128 0x3a
 2962 01d3 0B       		.uleb128 0xb
 2963 01d4 3B       		.uleb128 0x3b
 2964 01d5 0B       		.uleb128 0xb
 2965 01d6 49       		.uleb128 0x49
 2966 01d7 13       		.uleb128 0x13
 2967 01d8 02       		.uleb128 0x2
 2968 01d9 18       		.uleb128 0x18
 2969 01da 00       		.byte	0
 2970 01db 00       		.byte	0
 2971 01dc 25       		.uleb128 0x25
 2972 01dd 01       		.uleb128 0x1
 2973 01de 01       		.byte	0x1
 2974 01df 49       		.uleb128 0x49
 2975 01e0 13       		.uleb128 0x13
 2976 01e1 01       		.uleb128 0x1
 2977 01e2 13       		.uleb128 0x13
 2978 01e3 00       		.byte	0
 2979 01e4 00       		.byte	0
 2980 01e5 26       		.uleb128 0x26
 2981 01e6 21       		.uleb128 0x21
 2982 01e7 00       		.byte	0
 2983 01e8 49       		.uleb128 0x49
 2984 01e9 13       		.uleb128 0x13
 2985 01ea 2F       		.uleb128 0x2f
 2986 01eb 05       		.uleb128 0x5
 2987 01ec 00       		.byte	0
ARM GAS  C:\Users\jsyoon\AppData\Local\Temp\ccsxAC7R.s 			page 54


 2988 01ed 00       		.byte	0
 2989 01ee 27       		.uleb128 0x27
 2990 01ef 2E       		.uleb128 0x2e
 2991 01f0 01       		.byte	0x1
 2992 01f1 3F       		.uleb128 0x3f
 2993 01f2 19       		.uleb128 0x19
 2994 01f3 03       		.uleb128 0x3
 2995 01f4 0E       		.uleb128 0xe
 2996 01f5 3A       		.uleb128 0x3a
 2997 01f6 0B       		.uleb128 0xb
 2998 01f7 3B       		.uleb128 0x3b
 2999 01f8 0B       		.uleb128 0xb
 3000 01f9 27       		.uleb128 0x27
 3001 01fa 19       		.uleb128 0x19
 3002 01fb 11       		.uleb128 0x11
 3003 01fc 01       		.uleb128 0x1
 3004 01fd 12       		.uleb128 0x12
 3005 01fe 06       		.uleb128 0x6
 3006 01ff 40       		.uleb128 0x40
 3007 0200 18       		.uleb128 0x18
 3008 0201 9742     		.uleb128 0x2117
 3009 0203 19       		.uleb128 0x19
 3010 0204 01       		.uleb128 0x1
 3011 0205 13       		.uleb128 0x13
 3012 0206 00       		.byte	0
 3013 0207 00       		.byte	0
 3014 0208 28       		.uleb128 0x28
 3015 0209 898201   		.uleb128 0x4109
 3016 020c 00       		.byte	0
 3017 020d 11       		.uleb128 0x11
 3018 020e 01       		.uleb128 0x1
 3019 020f 9542     		.uleb128 0x2115
 3020 0211 19       		.uleb128 0x19
 3021 0212 31       		.uleb128 0x31
 3022 0213 13       		.uleb128 0x13
 3023 0214 00       		.byte	0
 3024 0215 00       		.byte	0
 3025 0216 29       		.uleb128 0x29
 3026 0217 34       		.uleb128 0x34
 3027 0218 00       		.byte	0
 3028 0219 03       		.uleb128 0x3
 3029 021a 0E       		.uleb128 0xe
 3030 021b 3A       		.uleb128 0x3a
 3031 021c 0B       		.uleb128 0xb
 3032 021d 3B       		.uleb128 0x3b
 3033 021e 0B       		.uleb128 0xb
 3034 021f 49       		.uleb128 0x49
 3035 0220 13       		.uleb128 0x13
 3036 0221 3F       		.uleb128 0x3f
 3037 0222 19       		.uleb128 0x19
 3038 0223 3C       		.uleb128 0x3c
 3039 0224 19       		.uleb128 0x19
 3040 0225 00       		.byte	0
 3041 0226 00       		.byte	0
 3042 0227 2A       		.uleb128 0x2a
 3043 0228 34       		.uleb128 0x34
 3044 0229 00       		.byte	0
ARM GAS  C:\Users\jsyoon\AppData\Local\Temp\ccsxAC7R.s 			page 55


 3045 022a 03       		.uleb128 0x3
 3046 022b 0E       		.uleb128 0xe
 3047 022c 3A       		.uleb128 0x3a
 3048 022d 0B       		.uleb128 0xb
 3049 022e 3B       		.uleb128 0x3b
 3050 022f 05       		.uleb128 0x5
 3051 0230 49       		.uleb128 0x49
 3052 0231 13       		.uleb128 0x13
 3053 0232 3F       		.uleb128 0x3f
 3054 0233 19       		.uleb128 0x19
 3055 0234 3C       		.uleb128 0x3c
 3056 0235 19       		.uleb128 0x19
 3057 0236 00       		.byte	0
 3058 0237 00       		.byte	0
 3059 0238 2B       		.uleb128 0x2b
 3060 0239 2E       		.uleb128 0x2e
 3061 023a 01       		.byte	0x1
 3062 023b 3F       		.uleb128 0x3f
 3063 023c 19       		.uleb128 0x19
 3064 023d 03       		.uleb128 0x3
 3065 023e 0E       		.uleb128 0xe
 3066 023f 3A       		.uleb128 0x3a
 3067 0240 0B       		.uleb128 0xb
 3068 0241 3B       		.uleb128 0x3b
 3069 0242 0B       		.uleb128 0xb
 3070 0243 27       		.uleb128 0x27
 3071 0244 19       		.uleb128 0x19
 3072 0245 49       		.uleb128 0x49
 3073 0246 13       		.uleb128 0x13
 3074 0247 3C       		.uleb128 0x3c
 3075 0248 19       		.uleb128 0x19
 3076 0249 01       		.uleb128 0x1
 3077 024a 13       		.uleb128 0x13
 3078 024b 00       		.byte	0
 3079 024c 00       		.byte	0
 3080 024d 2C       		.uleb128 0x2c
 3081 024e 2E       		.uleb128 0x2e
 3082 024f 01       		.byte	0x1
 3083 0250 3F       		.uleb128 0x3f
 3084 0251 19       		.uleb128 0x19
 3085 0252 03       		.uleb128 0x3
 3086 0253 0E       		.uleb128 0xe
 3087 0254 3A       		.uleb128 0x3a
 3088 0255 0B       		.uleb128 0xb
 3089 0256 3B       		.uleb128 0x3b
 3090 0257 0B       		.uleb128 0xb
 3091 0258 27       		.uleb128 0x27
 3092 0259 19       		.uleb128 0x19
 3093 025a 3C       		.uleb128 0x3c
 3094 025b 19       		.uleb128 0x19
 3095 025c 01       		.uleb128 0x1
 3096 025d 13       		.uleb128 0x13
 3097 025e 00       		.byte	0
 3098 025f 00       		.byte	0
 3099 0260 2D       		.uleb128 0x2d
 3100 0261 2E       		.uleb128 0x2e
 3101 0262 01       		.byte	0x1
ARM GAS  C:\Users\jsyoon\AppData\Local\Temp\ccsxAC7R.s 			page 56


 3102 0263 3F       		.uleb128 0x3f
 3103 0264 19       		.uleb128 0x19
 3104 0265 03       		.uleb128 0x3
 3105 0266 0E       		.uleb128 0xe
 3106 0267 3A       		.uleb128 0x3a
 3107 0268 0B       		.uleb128 0xb
 3108 0269 3B       		.uleb128 0x3b
 3109 026a 05       		.uleb128 0x5
 3110 026b 27       		.uleb128 0x27
 3111 026c 19       		.uleb128 0x19
 3112 026d 3C       		.uleb128 0x3c
 3113 026e 19       		.uleb128 0x19
 3114 026f 01       		.uleb128 0x1
 3115 0270 13       		.uleb128 0x13
 3116 0271 00       		.byte	0
 3117 0272 00       		.byte	0
 3118 0273 2E       		.uleb128 0x2e
 3119 0274 2E       		.uleb128 0x2e
 3120 0275 01       		.byte	0x1
 3121 0276 3F       		.uleb128 0x3f
 3122 0277 19       		.uleb128 0x19
 3123 0278 03       		.uleb128 0x3
 3124 0279 0E       		.uleb128 0xe
 3125 027a 27       		.uleb128 0x27
 3126 027b 19       		.uleb128 0x19
 3127 027c 49       		.uleb128 0x49
 3128 027d 13       		.uleb128 0x13
 3129 027e 34       		.uleb128 0x34
 3130 027f 19       		.uleb128 0x19
 3131 0280 3C       		.uleb128 0x3c
 3132 0281 19       		.uleb128 0x19
 3133 0282 01       		.uleb128 0x1
 3134 0283 13       		.uleb128 0x13
 3135 0284 00       		.byte	0
 3136 0285 00       		.byte	0
 3137 0286 2F       		.uleb128 0x2f
 3138 0287 26       		.uleb128 0x26
 3139 0288 00       		.byte	0
 3140 0289 00       		.byte	0
 3141 028a 00       		.byte	0
 3142 028b 30       		.uleb128 0x30
 3143 028c 2E       		.uleb128 0x2e
 3144 028d 01       		.byte	0x1
 3145 028e 3F       		.uleb128 0x3f
 3146 028f 19       		.uleb128 0x19
 3147 0290 03       		.uleb128 0x3
 3148 0291 0E       		.uleb128 0xe
 3149 0292 3A       		.uleb128 0x3a
 3150 0293 0B       		.uleb128 0xb
 3151 0294 3B       		.uleb128 0x3b
 3152 0295 05       		.uleb128 0x5
 3153 0296 27       		.uleb128 0x27
 3154 0297 19       		.uleb128 0x19
 3155 0298 49       		.uleb128 0x49
 3156 0299 13       		.uleb128 0x13
 3157 029a 3C       		.uleb128 0x3c
 3158 029b 19       		.uleb128 0x19
ARM GAS  C:\Users\jsyoon\AppData\Local\Temp\ccsxAC7R.s 			page 57


 3159 029c 00       		.byte	0
 3160 029d 00       		.byte	0
 3161 029e 00       		.byte	0
 3162              		.section	.debug_loc,"",%progbits
 3163              	.Ldebug_loc0:
 3164              	.LLST0:
 3165 0000 00000000 		.4byte	.LVL4
 3166 0004 1A000000 		.4byte	.LVL5
 3167 0008 0100     		.2byte	0x1
 3168 000a 50       		.byte	0x50
 3169 000b 1A000000 		.4byte	.LVL5
 3170 000f 64000000 		.4byte	.LFE128
 3171 0013 0400     		.2byte	0x4
 3172 0015 F3       		.byte	0xf3
 3173 0016 01       		.uleb128 0x1
 3174 0017 50       		.byte	0x50
 3175 0018 9F       		.byte	0x9f
 3176 0019 00000000 		.4byte	0
 3177 001d 00000000 		.4byte	0
 3178              	.LLST1:
 3179 0021 00000000 		.4byte	.LVL8
 3180 0025 04000000 		.4byte	.LVL9
 3181 0029 0100     		.2byte	0x1
 3182 002b 50       		.byte	0x50
 3183 002c 04000000 		.4byte	.LVL9
 3184 0030 34000000 		.4byte	.LFE121
 3185 0034 0400     		.2byte	0x4
 3186 0036 F3       		.byte	0xf3
 3187 0037 01       		.uleb128 0x1
 3188 0038 50       		.byte	0x50
 3189 0039 9F       		.byte	0x9f
 3190 003a 00000000 		.4byte	0
 3191 003e 00000000 		.4byte	0
 3192              	.LLST2:
 3193 0042 00000000 		.4byte	.LVL8
 3194 0046 1E000000 		.4byte	.LVL10
 3195 004a 0100     		.2byte	0x1
 3196 004c 51       		.byte	0x51
 3197 004d 1E000000 		.4byte	.LVL10
 3198 0051 34000000 		.4byte	.LFE121
 3199 0055 0400     		.2byte	0x4
 3200 0057 F3       		.byte	0xf3
 3201 0058 01       		.uleb128 0x1
 3202 0059 51       		.byte	0x51
 3203 005a 9F       		.byte	0x9f
 3204 005b 00000000 		.4byte	0
 3205 005f 00000000 		.4byte	0
 3206              	.LLST3:
 3207 0063 00000000 		.4byte	.LVL12
 3208 0067 08000000 		.4byte	.LVL13
 3209 006b 0100     		.2byte	0x1
 3210 006d 50       		.byte	0x50
 3211 006e 08000000 		.4byte	.LVL13
 3212 0072 14000000 		.4byte	.LVL15
 3213 0076 0100     		.2byte	0x1
 3214 0078 54       		.byte	0x54
 3215 0079 14000000 		.4byte	.LVL15
ARM GAS  C:\Users\jsyoon\AppData\Local\Temp\ccsxAC7R.s 			page 58


 3216 007d 17000000 		.4byte	.LVL16-1
 3217 0081 0100     		.2byte	0x1
 3218 0083 50       		.byte	0x50
 3219 0084 17000000 		.4byte	.LVL16-1
 3220 0088 1C000000 		.4byte	.LFE123
 3221 008c 0400     		.2byte	0x4
 3222 008e F3       		.byte	0xf3
 3223 008f 01       		.uleb128 0x1
 3224 0090 50       		.byte	0x50
 3225 0091 9F       		.byte	0x9f
 3226 0092 00000000 		.4byte	0
 3227 0096 00000000 		.4byte	0
 3228              	.LLST4:
 3229 009a 00000000 		.4byte	.LVL12
 3230 009e 0B000000 		.4byte	.LVL14-1
 3231 00a2 0100     		.2byte	0x1
 3232 00a4 51       		.byte	0x51
 3233 00a5 0B000000 		.4byte	.LVL14-1
 3234 00a9 14000000 		.4byte	.LVL15
 3235 00ad 0100     		.2byte	0x1
 3236 00af 55       		.byte	0x55
 3237 00b0 14000000 		.4byte	.LVL15
 3238 00b4 17000000 		.4byte	.LVL16-1
 3239 00b8 0100     		.2byte	0x1
 3240 00ba 51       		.byte	0x51
 3241 00bb 17000000 		.4byte	.LVL16-1
 3242 00bf 1C000000 		.4byte	.LFE123
 3243 00c3 0400     		.2byte	0x4
 3244 00c5 F3       		.byte	0xf3
 3245 00c6 01       		.uleb128 0x1
 3246 00c7 51       		.byte	0x51
 3247 00c8 9F       		.byte	0x9f
 3248 00c9 00000000 		.4byte	0
 3249 00cd 00000000 		.4byte	0
 3250              	.LLST5:
 3251 00d1 00000000 		.4byte	.LVL17
 3252 00d5 05000000 		.4byte	.LVL18-1
 3253 00d9 0100     		.2byte	0x1
 3254 00db 50       		.byte	0x50
 3255 00dc 05000000 		.4byte	.LVL18-1
 3256 00e0 06000000 		.4byte	.LFE124
 3257 00e4 0400     		.2byte	0x4
 3258 00e6 F3       		.byte	0xf3
 3259 00e7 01       		.uleb128 0x1
 3260 00e8 50       		.byte	0x50
 3261 00e9 9F       		.byte	0x9f
 3262 00ea 00000000 		.4byte	0
 3263 00ee 00000000 		.4byte	0
 3264              	.LLST6:
 3265 00f2 00000000 		.4byte	.LVL17
 3266 00f6 05000000 		.4byte	.LVL18-1
 3267 00fa 0100     		.2byte	0x1
 3268 00fc 51       		.byte	0x51
 3269 00fd 05000000 		.4byte	.LVL18-1
 3270 0101 06000000 		.4byte	.LFE124
 3271 0105 0400     		.2byte	0x4
 3272 0107 F3       		.byte	0xf3
ARM GAS  C:\Users\jsyoon\AppData\Local\Temp\ccsxAC7R.s 			page 59


 3273 0108 01       		.uleb128 0x1
 3274 0109 51       		.byte	0x51
 3275 010a 9F       		.byte	0x9f
 3276 010b 00000000 		.4byte	0
 3277 010f 00000000 		.4byte	0
 3278              	.LLST7:
 3279 0113 00000000 		.4byte	.LVL19
 3280 0117 0E000000 		.4byte	.LVL20
 3281 011b 0100     		.2byte	0x1
 3282 011d 50       		.byte	0x50
 3283 011e 0E000000 		.4byte	.LVL20
 3284 0122 2E000000 		.4byte	.LVL23
 3285 0126 0100     		.2byte	0x1
 3286 0128 56       		.byte	0x56
 3287 0129 2E000000 		.4byte	.LVL23
 3288 012d 3C000000 		.4byte	.LFE125
 3289 0131 0400     		.2byte	0x4
 3290 0133 F3       		.byte	0xf3
 3291 0134 01       		.uleb128 0x1
 3292 0135 50       		.byte	0x50
 3293 0136 9F       		.byte	0x9f
 3294 0137 00000000 		.4byte	0
 3295 013b 00000000 		.4byte	0
 3296              	.LLST8:
 3297 013f 00000000 		.4byte	.LVL19
 3298 0143 0E000000 		.4byte	.LVL20
 3299 0147 0100     		.2byte	0x1
 3300 0149 51       		.byte	0x51
 3301 014a 0E000000 		.4byte	.LVL20
 3302 014e 2E000000 		.4byte	.LVL23
 3303 0152 0100     		.2byte	0x1
 3304 0154 55       		.byte	0x55
 3305 0155 2E000000 		.4byte	.LVL23
 3306 0159 31000000 		.4byte	.LVL24-1
 3307 015d 0100     		.2byte	0x1
 3308 015f 51       		.byte	0x51
 3309 0160 31000000 		.4byte	.LVL24-1
 3310 0164 3C000000 		.4byte	.LFE125
 3311 0168 0400     		.2byte	0x4
 3312 016a F3       		.byte	0xf3
 3313 016b 01       		.uleb128 0x1
 3314 016c 51       		.byte	0x51
 3315 016d 9F       		.byte	0x9f
 3316 016e 00000000 		.4byte	0
 3317 0172 00000000 		.4byte	0
 3318              	.LLST9:
 3319 0176 00000000 		.4byte	.LVL30
 3320 017a 0E000000 		.4byte	.LVL31
 3321 017e 0100     		.2byte	0x1
 3322 0180 50       		.byte	0x50
 3323 0181 0E000000 		.4byte	.LVL31
 3324 0185 11000000 		.4byte	.LVL32-1
 3325 0189 0500     		.2byte	0x5
 3326 018b 03       		.byte	0x3
 3327 018c 14000000 		.4byte	uart_cfg+20
 3328 0190 11000000 		.4byte	.LVL32-1
 3329 0194 20000000 		.4byte	.LFE127
ARM GAS  C:\Users\jsyoon\AppData\Local\Temp\ccsxAC7R.s 			page 60


 3330 0198 0400     		.2byte	0x4
 3331 019a F3       		.byte	0xf3
 3332 019b 01       		.uleb128 0x1
 3333 019c 50       		.byte	0x50
 3334 019d 9F       		.byte	0x9f
 3335 019e 00000000 		.4byte	0
 3336 01a2 00000000 		.4byte	0
 3337              		.section	.debug_aranges,"",%progbits
 3338 0000 6C000000 		.4byte	0x6c
 3339 0004 0200     		.2byte	0x2
 3340 0006 00000000 		.4byte	.Ldebug_info0
 3341 000a 04       		.byte	0x4
 3342 000b 00       		.byte	0
 3343 000c 0000     		.2byte	0
 3344 000e 0000     		.2byte	0
 3345 0010 00000000 		.4byte	.LFB118
 3346 0014 02000000 		.4byte	.LFE118-.LFB118
 3347 0018 00000000 		.4byte	.LFB119
 3348 001c 02000000 		.4byte	.LFE119-.LFB119
 3349 0020 00000000 		.4byte	.LFB120
 3350 0024 02000000 		.4byte	.LFE120-.LFB120
 3351 0028 00000000 		.4byte	.LFB122
 3352 002c 02000000 		.4byte	.LFE122-.LFB122
 3353 0030 00000000 		.4byte	.LFB128
 3354 0034 64000000 		.4byte	.LFE128-.LFB128
 3355 0038 00000000 		.4byte	.LFB121
 3356 003c 34000000 		.4byte	.LFE121-.LFB121
 3357 0040 00000000 		.4byte	.LFB123
 3358 0044 1C000000 		.4byte	.LFE123-.LFB123
 3359 0048 00000000 		.4byte	.LFB124
 3360 004c 06000000 		.4byte	.LFE124-.LFB124
 3361 0050 00000000 		.4byte	.LFB125
 3362 0054 3C000000 		.4byte	.LFE125-.LFB125
 3363 0058 00000000 		.4byte	.LFB126
 3364 005c 6C000000 		.4byte	.LFE126-.LFB126
 3365 0060 00000000 		.4byte	.LFB127
 3366 0064 20000000 		.4byte	.LFE127-.LFB127
 3367 0068 00000000 		.4byte	0
 3368 006c 00000000 		.4byte	0
 3369              		.section	.debug_ranges,"",%progbits
 3370              	.Ldebug_ranges0:
 3371 0000 00000000 		.4byte	.LFB118
 3372 0004 02000000 		.4byte	.LFE118
 3373 0008 00000000 		.4byte	.LFB119
 3374 000c 02000000 		.4byte	.LFE119
 3375 0010 00000000 		.4byte	.LFB120
 3376 0014 02000000 		.4byte	.LFE120
 3377 0018 00000000 		.4byte	.LFB122
 3378 001c 02000000 		.4byte	.LFE122
 3379 0020 00000000 		.4byte	.LFB128
 3380 0024 64000000 		.4byte	.LFE128
 3381 0028 00000000 		.4byte	.LFB121
 3382 002c 34000000 		.4byte	.LFE121
 3383 0030 00000000 		.4byte	.LFB123
 3384 0034 1C000000 		.4byte	.LFE123
 3385 0038 00000000 		.4byte	.LFB124
 3386 003c 06000000 		.4byte	.LFE124
ARM GAS  C:\Users\jsyoon\AppData\Local\Temp\ccsxAC7R.s 			page 61


 3387 0040 00000000 		.4byte	.LFB125
 3388 0044 3C000000 		.4byte	.LFE125
 3389 0048 00000000 		.4byte	.LFB126
 3390 004c 6C000000 		.4byte	.LFE126
 3391 0050 00000000 		.4byte	.LFB127
 3392 0054 20000000 		.4byte	.LFE127
 3393 0058 00000000 		.4byte	0
 3394 005c 00000000 		.4byte	0
 3395              		.section	.debug_line,"",%progbits
 3396              	.Ldebug_line0:
 3397 0000 15040000 		.section	.debug_str,"MS",%progbits,1
 3397      02001503 
 3397      00000201 
 3397      FB0E0D00 
 3397      01010101 
 3398              	.LASF162:
 3399 0000 55415254 		.ascii	"UARTD6\000"
 3399      443600
 3400              	.LASF126:
 3401 0007 646D6172 		.ascii	"dmarx\000"
 3401      7800
 3402              	.LASF179:
 3403 000d 63684576 		.ascii	"chEvtWaitAny\000"
 3403      74576169 
 3403      74416E79 
 3403      00
 3404              	.LASF72:
 3405 001a 7466756E 		.ascii	"tfunc_t\000"
 3405      635F7400 
 3406              	.LASF75:
 3407 0022 4D304152 		.ascii	"M0AR\000"
 3407      00
 3408              	.LASF19:
 3409 0027 73697A65 		.ascii	"size_t\000"
 3409      5F7400
 3410              	.LASF149:
 3411 002e 6170705F 		.ascii	"app_uartcomm_start\000"
 3411      75617274 
 3411      636F6D6D 
 3411      5F737461 
 3411      727400
 3412              	.LASF67:
 3413 0041 7264796D 		.ascii	"rdymsg\000"
 3413      736700
 3414              	.LASF155:
 3415 0048 73657269 		.ascii	"serial_rx_buffer\000"
 3415      616C5F72 
 3415      785F6275 
 3415      66666572 
 3415      00
 3416              	.LASF18:
 3417 0059 75696E74 		.ascii	"uint64_t\000"
 3417      36345F74 
 3417      00
 3418              	.LASF95:
 3419 0062 4F545950 		.ascii	"OTYPER\000"
 3419      455200
ARM GAS  C:\Users\jsyoon\AppData\Local\Temp\ccsxAC7R.s 			page 62


 3420              	.LASF3:
 3421 0069 5F5F7569 		.ascii	"__uint8_t\000"
 3421      6E74385F 
 3421      7400
 3422              	.LASF164:
 3423 0073 63684576 		.ascii	"chEvtSignal\000"
 3423      74536967 
 3423      6E616C00 
 3424              	.LASF128:
 3425 007f 72786275 		.ascii	"rxbuf\000"
 3425      6600
 3426              	.LASF94:
 3427 0085 4D4F4445 		.ascii	"MODER\000"
 3427      5200
 3428              	.LASF49:
 3429 008b 54687265 		.ascii	"ThreadsQueue\000"
 3429      61647351 
 3429      75657565 
 3429      00
 3430              	.LASF91:
 3431 0098 76656374 		.ascii	"vector\000"
 3431      6F7200
 3432              	.LASF138:
 3433 009f 55415254 		.ascii	"UARTConfig\000"
 3433      436F6E66 
 3433      696700
 3434              	.LASF161:
 3435 00aa 49544D5F 		.ascii	"ITM_RxBuffer\000"
 3435      52784275 
 3435      66666572 
 3435      00
 3436              	.LASF64:
 3437 00b7 6D5F7175 		.ascii	"m_queue\000"
 3437      65756500 
 3438              	.LASF32:
 3439 00bf 705F7072 		.ascii	"p_prio\000"
 3439      696F00
 3440              	.LASF10:
 3441 00c6 6C6F6E67 		.ascii	"long long int\000"
 3441      206C6F6E 
 3441      6720696E 
 3441      7400
 3442              	.LASF0:
 3443 00d4 7369676E 		.ascii	"signed char\000"
 3443      65642063 
 3443      68617200 
 3444              	.LASF129:
 3445 00e0 75617274 		.ascii	"uartcb_t\000"
 3445      63625F74 
 3445      00
 3446              	.LASF98:
 3447 00e9 42535252 		.ascii	"BSRR\000"
 3447      00
 3448              	.LASF84:
 3449 00ee 47545052 		.ascii	"GTPR\000"
 3449      00
 3450              	.LASF48:
ARM GAS  C:\Users\jsyoon\AppData\Local\Temp\ccsxAC7R.s 			page 63


 3451 00f3 705F6D70 		.ascii	"p_mpool\000"
 3451      6F6F6C00 
 3452              	.LASF122:
 3453 00fb 72787374 		.ascii	"rxstate\000"
 3453      61746500 
 3454              	.LASF151:
 3455 0103 62617564 		.ascii	"baudrate\000"
 3455      72617465 
 3455      00
 3456              	.LASF69:
 3457 010c 77746F62 		.ascii	"wtobjp\000"
 3457      6A7000
 3458              	.LASF24:
 3459 0113 74736C69 		.ascii	"tslices_t\000"
 3459      6365735F 
 3459      7400
 3460              	.LASF177:
 3461 011d 453A5C4D 		.ascii	"E:\\Maker\\BLDC\\test_eval\\try2\\OROCA-BLDC_R15080"
 3461      616B6572 
 3461      5C424C44 
 3461      435C7465 
 3461      73745F65 
 3462 014b 3700     		.ascii	"7\000"
 3463              	.LASF120:
 3464 014d 73746174 		.ascii	"state\000"
 3464      6500
 3465              	.LASF121:
 3466 0153 74787374 		.ascii	"txstate\000"
 3466      61746500 
 3467              	.LASF7:
 3468 015b 6C6F6E67 		.ascii	"long int\000"
 3468      20696E74 
 3468      00
 3469              	.LASF22:
 3470 0164 74737461 		.ascii	"tstate_t\000"
 3470      74655F74 
 3470      00
 3471              	.LASF150:
 3472 016d 6170705F 		.ascii	"app_uartcomm_configure\000"
 3472      75617274 
 3472      636F6D6D 
 3472      5F636F6E 
 3472      66696775 
 3473              	.LASF175:
 3474 0184 474E5520 		.ascii	"GNU C 4.8.4 20140526 (release) [ARM/embedded-4_8-br"
 3474      4320342E 
 3474      382E3420 
 3474      32303134 
 3474      30353236 
 3475 01b7 616E6368 		.ascii	"anch revision 211358] -mcpu=cortex-m4 -mfloat-abi=h"
 3475      20726576 
 3475      6973696F 
 3475      6E203231 
 3475      31333538 
 3476 01ea 61726420 		.ascii	"ard -mfpu=fpv4-sp-d16 -mno-thumb-interwork -mthumb "
 3476      2D6D6670 
 3476      753D6670 
ARM GAS  C:\Users\jsyoon\AppData\Local\Temp\ccsxAC7R.s 			page 64


 3476      76342D73 
 3476      702D6431 
 3477 021d 2D676764 		.ascii	"-ggdb -O2 -std=gnu99 -fomit-frame-pointer -falign-f"
 3477      62202D4F 
 3477      32202D73 
 3477      74643D67 
 3477      6E753939 
 3478 0250 756E6374 		.ascii	"unctions=16 -ffunction-sections -fdata-sections -fn"
 3478      696F6E73 
 3478      3D313620 
 3478      2D666675 
 3478      6E637469 
 3479 0283 6F2D636F 		.ascii	"o-common -fsingle-precision-constant\000"
 3479      6D6D6F6E 
 3479      202D6673 
 3479      696E676C 
 3479      652D7072 
 3480              	.LASF169:
 3481 02a8 6D656D63 		.ascii	"memcpy\000"
 3481      707900
 3482              	.LASF15:
 3483 02af 75696E74 		.ascii	"uint16_t\000"
 3483      31365F74 
 3483      00
 3484              	.LASF165:
 3485 02b8 636F6D6D 		.ascii	"commands_set_send_func\000"
 3485      616E6473 
 3485      5F736574 
 3485      5F73656E 
 3485      645F6675 
 3486              	.LASF170:
 3487 02cf 75617274 		.ascii	"uartStartSend\000"
 3487      53746172 
 3487      7453656E 
 3487      6400
 3488              	.LASF34:
 3489 02dd 705F6E65 		.ascii	"p_newer\000"
 3489      77657200 
 3490              	.LASF154:
 3491 02e5 70726F63 		.ascii	"process_tp\000"
 3491      6573735F 
 3491      747000
 3492              	.LASF117:
 3493 02f0 75617274 		.ascii	"uartrxstate_t\000"
 3493      72787374 
 3493      6174655F 
 3493      7400
 3494              	.LASF127:
 3495 02fe 646D6174 		.ascii	"dmatx\000"
 3495      7800
 3496              	.LASF119:
 3497 0304 55415254 		.ascii	"UARTDriver\000"
 3497      44726976 
 3497      657200
 3498              	.LASF167:
 3499 030f 7061636B 		.ascii	"packet_send_packet\000"
 3499      65745F73 
ARM GAS  C:\Users\jsyoon\AppData\Local\Temp\ccsxAC7R.s 			page 65


 3499      656E645F 
 3499      7061636B 
 3499      657400
 3500              	.LASF8:
 3501 0322 5F5F7569 		.ascii	"__uint32_t\000"
 3501      6E743332 
 3501      5F7400
 3502              	.LASF143:
 3503 032d 7278656E 		.ascii	"rxend\000"
 3503      6400
 3504              	.LASF90:
 3505 0333 73656C66 		.ascii	"selfindex\000"
 3505      696E6465 
 3505      7800
 3506              	.LASF139:
 3507 033d 7478656E 		.ascii	"txend1\000"
 3507      643100
 3508              	.LASF140:
 3509 0344 7478656E 		.ascii	"txend2\000"
 3509      643200
 3510              	.LASF12:
 3511 034b 6C6F6E67 		.ascii	"long long unsigned int\000"
 3511      206C6F6E 
 3511      6720756E 
 3511      7369676E 
 3511      65642069 
 3512              	.LASF108:
 3513 0362 55415254 		.ascii	"UART_READY\000"
 3513      5F524541 
 3513      445900
 3514              	.LASF111:
 3515 036d 55415254 		.ascii	"UART_TX_ACTIVE\000"
 3515      5F54585F 
 3515      41435449 
 3515      564500
 3516              	.LASF176:
 3517 037c 6170706C 		.ascii	"applications/app_uartcomm.c\000"
 3517      69636174 
 3517      696F6E73 
 3517      2F617070 
 3517      5F756172 
 3518              	.LASF124:
 3519 0398 75736172 		.ascii	"usart\000"
 3519      7400
 3520              	.LASF13:
 3521 039e 756E7369 		.ascii	"unsigned int\000"
 3521      676E6564 
 3521      20696E74 
 3521      00
 3522              	.LASF148:
 3523 03ab 73656E64 		.ascii	"send_packet\000"
 3523      5F706163 
 3523      6B657400 
 3524              	.LASF156:
 3525 03b7 73657269 		.ascii	"serial_rx_read_pos\000"
 3525      616C5F72 
 3525      785F7265 
ARM GAS  C:\Users\jsyoon\AppData\Local\Temp\ccsxAC7R.s 			page 66


 3525      61645F70 
 3525      6F7300
 3526              	.LASF102:
 3527 03ca 4750494F 		.ascii	"GPIO_TypeDef\000"
 3527      5F547970 
 3527      65446566 
 3527      00
 3528              	.LASF131:
 3529 03d7 75617274 		.ascii	"uartecb_t\000"
 3529      6563625F 
 3529      7400
 3530              	.LASF97:
 3531 03e1 50555044 		.ascii	"PUPDR\000"
 3531      5200
 3532              	.LASF99:
 3533 03e7 4C434B52 		.ascii	"LCKR\000"
 3533      00
 3534              	.LASF89:
 3535 03ec 69736869 		.ascii	"ishift\000"
 3535      667400
 3536              	.LASF146:
 3537 03f3 64617461 		.ascii	"data\000"
 3537      00
 3538              	.LASF54:
 3539 03f8 636F6E74 		.ascii	"context\000"
 3539      65787400 
 3540              	.LASF5:
 3541 0400 73686F72 		.ascii	"short unsigned int\000"
 3541      7420756E 
 3541      7369676E 
 3541      65642069 
 3541      6E7400
 3542              	.LASF106:
 3543 0413 55415254 		.ascii	"UART_UNINIT\000"
 3543      5F554E49 
 3543      4E495400 
 3544              	.LASF142:
 3545 041f 72786572 		.ascii	"rxerr\000"
 3545      7200
 3546              	.LASF26:
 3547 0425 6D73675F 		.ascii	"msg_t\000"
 3547      7400
 3548              	.LASF59:
 3549 042b 725F6E65 		.ascii	"r_newer\000"
 3549      77657200 
 3550              	.LASF86:
 3551 0433 55534152 		.ascii	"USART_TypeDef\000"
 3551      545F5479 
 3551      70654465 
 3551      6600
 3552              	.LASF68:
 3553 0441 65786974 		.ascii	"exitcode\000"
 3553      636F6465 
 3553      00
 3554              	.LASF21:
 3555 044a 746D6F64 		.ascii	"tmode_t\000"
 3555      655F7400 
ARM GAS  C:\Users\jsyoon\AppData\Local\Temp\ccsxAC7R.s 			page 67


 3556              	.LASF50:
 3557 0452 54687265 		.ascii	"ThreadsList\000"
 3557      6164734C 
 3557      69737400 
 3558              	.LASF159:
 3559 045e 75617274 		.ascii	"uart_cfg\000"
 3559      5F636667 
 3559      00
 3560              	.LASF147:
 3561 0467 73656E64 		.ascii	"send_packet_wrapper\000"
 3561      5F706163 
 3561      6B65745F 
 3561      77726170 
 3561      70657200 
 3562              	.LASF63:
 3563 047b 4D757465 		.ascii	"Mutex\000"
 3563      7800
 3564              	.LASF6:
 3565 0481 5F5F696E 		.ascii	"__int32_t\000"
 3565      7433325F 
 3565      7400
 3566              	.LASF153:
 3567 048b 7061636B 		.ascii	"packet_process_thread_wa\000"
 3567      65745F70 
 3567      726F6365 
 3567      73735F74 
 3567      68726561 
 3568              	.LASF166:
 3569 04a4 636F6D6D 		.ascii	"commands_process_packet\000"
 3569      616E6473 
 3569      5F70726F 
 3569      63657373 
 3569      5F706163 
 3570              	.LASF171:
 3571 04bc 7061636B 		.ascii	"packet_init\000"
 3571      65745F69 
 3571      6E697400 
 3572              	.LASF52:
 3573 04c8 73746B61 		.ascii	"stkalign_t\000"
 3573      6C69676E 
 3573      5F7400
 3574              	.LASF174:
 3575 04d3 63685468 		.ascii	"chThdCreateStatic\000"
 3575      64437265 
 3575      61746553 
 3575      74617469 
 3575      6300
 3576              	.LASF141:
 3577 04e5 75617274 		.ascii	"uartp\000"
 3577      7000
 3578              	.LASF115:
 3579 04eb 55415254 		.ascii	"UART_RX_ACTIVE\000"
 3579      5F52585F 
 3579      41435449 
 3579      564500
 3580              	.LASF158:
 3581 04fa 69735F72 		.ascii	"is_running\000"
ARM GAS  C:\Users\jsyoon\AppData\Local\Temp\ccsxAC7R.s 			page 68


 3581      756E6E69 
 3581      6E6700
 3582              	.LASF93:
 3583 0505 636C6561 		.ascii	"clear\000"
 3583      7200
 3584              	.LASF116:
 3585 050b 55415254 		.ascii	"UART_RX_COMPLETE\000"
 3585      5F52585F 
 3585      434F4D50 
 3585      4C455445 
 3585      00
 3586              	.LASF136:
 3587 051c 72786572 		.ascii	"rxerr_cb\000"
 3587      725F6362 
 3587      00
 3588              	.LASF145:
 3589 0525 70726F63 		.ascii	"process_packet\000"
 3589      6573735F 
 3589      7061636B 
 3589      657400
 3590              	.LASF103:
 3591 0534 696F706F 		.ascii	"ioportmask_t\000"
 3591      72746D61 
 3591      736B5F74 
 3591      00
 3592              	.LASF35:
 3593 0541 705F6F6C 		.ascii	"p_older\000"
 3593      64657200 
 3594              	.LASF58:
 3595 0549 725F6374 		.ascii	"r_ctx\000"
 3595      7800
 3596              	.LASF118:
 3597 054f 75617274 		.ascii	"uartflags_t\000"
 3597      666C6167 
 3597      735F7400 
 3598              	.LASF172:
 3599 055b 75617274 		.ascii	"uartStart\000"
 3599      53746172 
 3599      7400
 3600              	.LASF134:
 3601 0565 7278656E 		.ascii	"rxend_cb\000"
 3601      645F6362 
 3601      00
 3602              	.LASF96:
 3603 056e 4F535045 		.ascii	"OSPEEDR\000"
 3603      45445200 
 3604              	.LASF113:
 3605 0576 75617274 		.ascii	"uarttxstate_t\000"
 3605      74787374 
 3605      6174655F 
 3605      7400
 3606              	.LASF61:
 3607 0584 725F6375 		.ascii	"r_current\000"
 3607      7272656E 
 3607      7400
 3608              	.LASF60:
 3609 058e 725F6F6C 		.ascii	"r_older\000"
ARM GAS  C:\Users\jsyoon\AppData\Local\Temp\ccsxAC7R.s 			page 69


 3609      64657200 
 3610              	.LASF107:
 3611 0596 55415254 		.ascii	"UART_STOP\000"
 3611      5F53544F 
 3611      5000
 3612              	.LASF144:
 3613 05a0 72786368 		.ascii	"rxchar\000"
 3613      617200
 3614              	.LASF11:
 3615 05a7 5F5F7569 		.ascii	"__uint64_t\000"
 3615      6E743634 
 3615      5F7400
 3616              	.LASF101:
 3617 05b2 41465248 		.ascii	"AFRH\000"
 3617      00
 3618              	.LASF73:
 3619 05b7 666C6F61 		.ascii	"float\000"
 3619      7400
 3620              	.LASF100:
 3621 05bd 4146524C 		.ascii	"AFRL\000"
 3621      00
 3622              	.LASF163:
 3623 05c2 7061636B 		.ascii	"packet_process_byte\000"
 3623      65745F70 
 3623      726F6365 
 3623      73735F62 
 3623      79746500 
 3624              	.LASF78:
 3625 05d6 52455345 		.ascii	"RESERVED0\000"
 3625      52564544 
 3625      3000
 3626              	.LASF79:
 3627 05e0 52455345 		.ascii	"RESERVED1\000"
 3627      52564544 
 3627      3100
 3628              	.LASF80:
 3629 05ea 52455345 		.ascii	"RESERVED2\000"
 3629      52564544 
 3629      3200
 3630              	.LASF81:
 3631 05f4 52455345 		.ascii	"RESERVED3\000"
 3631      52564544 
 3631      3300
 3632              	.LASF31:
 3633 05fe 705F7072 		.ascii	"p_prev\000"
 3633      657600
 3634              	.LASF85:
 3635 0605 52455345 		.ascii	"RESERVED6\000"
 3635      52564544 
 3635      3600
 3636              	.LASF92:
 3637 060f 73746D33 		.ascii	"stm32_dma_stream_t\000"
 3637      325F646D 
 3637      615F7374 
 3637      7265616D 
 3637      5F7400
 3638              	.LASF133:
ARM GAS  C:\Users\jsyoon\AppData\Local\Temp\ccsxAC7R.s 			page 70


 3639 0622 7478656E 		.ascii	"txend2_cb\000"
 3639      64325F63 
 3639      6200
 3640              	.LASF25:
 3641 062c 74707269 		.ascii	"tprio_t\000"
 3641      6F5F7400 
 3642              	.LASF87:
 3643 0634 73747265 		.ascii	"stream\000"
 3643      616D00
 3644              	.LASF20:
 3645 063b 5F426F6F 		.ascii	"_Bool\000"
 3645      6C00
 3646              	.LASF16:
 3647 0641 696E7433 		.ascii	"int32_t\000"
 3647      325F7400 
 3648              	.LASF1:
 3649 0649 756E7369 		.ascii	"unsigned char\000"
 3649      676E6564 
 3649      20636861 
 3649      7200
 3650              	.LASF27:
 3651 0657 6576656E 		.ascii	"eventmask_t\000"
 3651      746D6173 
 3651      6B5F7400 
 3652              	.LASF46:
 3653 0663 705F6D74 		.ascii	"p_mtxlist\000"
 3653      786C6973 
 3653      7400
 3654              	.LASF2:
 3655 066d 73686F72 		.ascii	"short int\000"
 3655      7420696E 
 3655      7400
 3656              	.LASF37:
 3657 0677 705F7374 		.ascii	"p_state\000"
 3657      61746500 
 3658              	.LASF40:
 3659 067f 705F7072 		.ascii	"p_preempt\000"
 3659      65656D70 
 3659      7400
 3660              	.LASF57:
 3661 0689 725F7072 		.ascii	"r_prio\000"
 3661      696F00
 3662              	.LASF70:
 3663 0690 65776D61 		.ascii	"ewmask\000"
 3663      736B00
 3664              	.LASF30:
 3665 0697 705F6E65 		.ascii	"p_next\000"
 3665      787400
 3666              	.LASF109:
 3667 069e 75617274 		.ascii	"uartstate_t\000"
 3667      73746174 
 3667      655F7400 
 3668              	.LASF38:
 3669 06aa 705F666C 		.ascii	"p_flags\000"
 3669      61677300 
 3670              	.LASF29:
 3671 06b2 54687265 		.ascii	"Thread\000"
ARM GAS  C:\Users\jsyoon\AppData\Local\Temp\ccsxAC7R.s 			page 71


 3671      616400
 3672              	.LASF45:
 3673 06b9 705F6570 		.ascii	"p_epending\000"
 3673      656E6469 
 3673      6E6700
 3674              	.LASF88:
 3675 06c4 69666372 		.ascii	"ifcr\000"
 3675      00
 3676              	.LASF83:
 3677 06c9 52455345 		.ascii	"RESERVED5\000"
 3677      52564544 
 3677      3500
 3678              	.LASF132:
 3679 06d3 7478656E 		.ascii	"txend1_cb\000"
 3679      64315F63 
 3679      6200
 3680              	.LASF51:
 3681 06dd 72656761 		.ascii	"regarm_t\000"
 3681      726D5F74 
 3681      00
 3682              	.LASF56:
 3683 06e6 725F7175 		.ascii	"r_queue\000"
 3683      65756500 
 3684              	.LASF23:
 3685 06ee 74726566 		.ascii	"trefs_t\000"
 3685      735F7400 
 3686              	.LASF130:
 3687 06f6 75617274 		.ascii	"uartccb_t\000"
 3687      6363625F 
 3687      7400
 3688              	.LASF9:
 3689 0700 6C6F6E67 		.ascii	"long unsigned int\000"
 3689      20756E73 
 3689      69676E65 
 3689      6420696E 
 3689      7400
 3690              	.LASF71:
 3691 0712 63686172 		.ascii	"char\000"
 3691      00
 3692              	.LASF123:
 3693 0717 636F6E66 		.ascii	"config\000"
 3693      696700
 3694              	.LASF114:
 3695 071e 55415254 		.ascii	"UART_RX_IDLE\000"
 3695      5F52585F 
 3695      49444C45 
 3695      00
 3696              	.LASF4:
 3697 072b 5F5F7569 		.ascii	"__uint16_t\000"
 3697      6E743136 
 3697      5F7400
 3698              	.LASF66:
 3699 0736 6D5F6E65 		.ascii	"m_next\000"
 3699      787400
 3700              	.LASF28:
 3701 073d 73797374 		.ascii	"systime_t\000"
 3701      696D655F 
ARM GAS  C:\Users\jsyoon\AppData\Local\Temp\ccsxAC7R.s 			page 72


 3701      7400
 3702              	.LASF47:
 3703 0747 705F7265 		.ascii	"p_realprio\000"
 3703      616C7072 
 3703      696F00
 3704              	.LASF152:
 3705 0752 62756666 		.ascii	"buffer\000"
 3705      657200
 3706              	.LASF110:
 3707 0759 55415254 		.ascii	"UART_TX_IDLE\000"
 3707      5F54585F 
 3707      49444C45 
 3707      00
 3708              	.LASF74:
 3709 0766 4E445452 		.ascii	"NDTR\000"
 3709      00
 3710              	.LASF77:
 3711 076b 444D415F 		.ascii	"DMA_Stream_TypeDef\000"
 3711      53747265 
 3711      616D5F54 
 3711      79706544 
 3711      656600
 3712              	.LASF105:
 3713 077e 696F706F 		.ascii	"ioportid_t\000"
 3713      72746964 
 3713      5F7400
 3714              	.LASF173:
 3715 0789 5F70616C 		.ascii	"_pal_lld_setgroupmode\000"
 3715      5F6C6C64 
 3715      5F736574 
 3715      67726F75 
 3715      706D6F64 
 3716              	.LASF82:
 3717 079f 52455345 		.ascii	"RESERVED4\000"
 3717      52564544 
 3717      3400
 3718              	.LASF53:
 3719 07a9 696E7463 		.ascii	"intctx\000"
 3719      747800
 3720              	.LASF43:
 3721 07b0 705F6D73 		.ascii	"p_msgqueue\000"
 3721      67717565 
 3721      756500
 3722              	.LASF76:
 3723 07bb 4D314152 		.ascii	"M1AR\000"
 3723      00
 3724              	.LASF178:
 3725 07c0 7061636B 		.ascii	"packet_process_thread\000"
 3725      65745F70 
 3725      726F6365 
 3725      73735F74 
 3725      68726561 
 3726              	.LASF135:
 3727 07d6 72786368 		.ascii	"rxchar_cb\000"
 3727      61725F63 
 3727      6200
 3728              	.LASF17:
ARM GAS  C:\Users\jsyoon\AppData\Local\Temp\ccsxAC7R.s 			page 73


 3729 07e0 75696E74 		.ascii	"uint32_t\000"
 3729      33325F74 
 3729      00
 3730              	.LASF168:
 3731 07e9 63685468 		.ascii	"chThdSleep\000"
 3731      64536C65 
 3731      657000
 3732              	.LASF36:
 3733 07f4 705F6E61 		.ascii	"p_name\000"
 3733      6D6500
 3734              	.LASF39:
 3735 07fb 705F7265 		.ascii	"p_refs\000"
 3735      667300
 3736              	.LASF62:
 3737 0802 52656164 		.ascii	"ReadyList\000"
 3737      794C6973 
 3737      7400
 3738              	.LASF160:
 3739 080c 726C6973 		.ascii	"rlist\000"
 3739      7400
 3740              	.LASF14:
 3741 0812 75696E74 		.ascii	"uint8_t\000"
 3741      385F7400 
 3742              	.LASF55:
 3743 081a 73697A65 		.ascii	"sizetype\000"
 3743      74797065 
 3743      00
 3744              	.LASF125:
 3745 0823 646D616D 		.ascii	"dmamode\000"
 3745      6F646500 
 3746              	.LASF41:
 3747 082b 705F7469 		.ascii	"p_time\000"
 3747      6D6500
 3748              	.LASF137:
 3749 0832 73706565 		.ascii	"speed\000"
 3749      6400
 3750              	.LASF44:
 3751 0838 705F6D73 		.ascii	"p_msg\000"
 3751      6700
 3752              	.LASF104:
 3753 083e 696F6D6F 		.ascii	"iomode_t\000"
 3753      64655F74 
 3753      00
 3754              	.LASF157:
 3755 0847 73657269 		.ascii	"serial_rx_write_pos\000"
 3755      616C5F72 
 3755      785F7772 
 3755      6974655F 
 3755      706F7300 
 3756              	.LASF65:
 3757 085b 6D5F6F77 		.ascii	"m_owner\000"
 3757      6E657200 
 3758              	.LASF33:
 3759 0863 705F6374 		.ascii	"p_ctx\000"
 3759      7800
 3760              	.LASF42:
 3761 0869 705F7761 		.ascii	"p_waiting\000"
ARM GAS  C:\Users\jsyoon\AppData\Local\Temp\ccsxAC7R.s 			page 74


 3761      6974696E 
 3761      6700
 3762              	.LASF112:
 3763 0873 55415254 		.ascii	"UART_TX_COMPLETE\000"
 3763      5F54585F 
 3763      434F4D50 
 3763      4C455445 
 3763      00
 3764              		.ident	"GCC: (GNU Tools for ARM Embedded Processors) 4.8.4 20140526 (release) [ARM/embedded-4_8-br
ARM GAS  C:\Users\jsyoon\AppData\Local\Temp\ccsxAC7R.s 			page 75


DEFINED SYMBOLS
                            *ABS*:00000000 app_uartcomm.c
C:\Users\jsyoon\AppData\Local\Temp\ccsxAC7R.s:21     .text.txend1:00000000 $t
C:\Users\jsyoon\AppData\Local\Temp\ccsxAC7R.s:26     .text.txend1:00000000 txend1
C:\Users\jsyoon\AppData\Local\Temp\ccsxAC7R.s:40     .text.txend2:00000000 $t
C:\Users\jsyoon\AppData\Local\Temp\ccsxAC7R.s:45     .text.txend2:00000000 txend2
C:\Users\jsyoon\AppData\Local\Temp\ccsxAC7R.s:58     .text.rxerr:00000000 $t
C:\Users\jsyoon\AppData\Local\Temp\ccsxAC7R.s:63     .text.rxerr:00000000 rxerr
C:\Users\jsyoon\AppData\Local\Temp\ccsxAC7R.s:76     .text.rxend:00000000 $t
C:\Users\jsyoon\AppData\Local\Temp\ccsxAC7R.s:81     .text.rxend:00000000 rxend
C:\Users\jsyoon\AppData\Local\Temp\ccsxAC7R.s:94     .text.packet_process_thread:00000000 $t
C:\Users\jsyoon\AppData\Local\Temp\ccsxAC7R.s:99     .text.packet_process_thread:00000000 packet_process_thread
C:\Users\jsyoon\AppData\Local\Temp\ccsxAC7R.s:166    .text.packet_process_thread:0000004c $d
C:\Users\jsyoon\AppData\Local\Temp\ccsxAC7R.s:176    .text.rxchar:00000000 $t
C:\Users\jsyoon\AppData\Local\Temp\ccsxAC7R.s:181    .text.rxchar:00000000 rxchar
C:\Users\jsyoon\AppData\Local\Temp\ccsxAC7R.s:226    .text.rxchar:00000028 $d
C:\Users\jsyoon\AppData\Local\Temp\ccsxAC7R.s:233    .text.process_packet:00000000 $t
C:\Users\jsyoon\AppData\Local\Temp\ccsxAC7R.s:238    .text.process_packet:00000000 process_packet
C:\Users\jsyoon\AppData\Local\Temp\ccsxAC7R.s:271    .text.process_packet:00000018 $d
C:\Users\jsyoon\AppData\Local\Temp\ccsxAC7R.s:281    .text.send_packet_wrapper:00000000 send_packet_wrapper
C:\Users\jsyoon\AppData\Local\Temp\ccsxAC7R.s:276    .text.send_packet_wrapper:00000000 $t
C:\Users\jsyoon\AppData\Local\Temp\ccsxAC7R.s:297    .text.send_packet:00000000 $t
C:\Users\jsyoon\AppData\Local\Temp\ccsxAC7R.s:302    .text.send_packet:00000000 send_packet
C:\Users\jsyoon\AppData\Local\Temp\ccsxAC7R.s:354    .text.send_packet:00000034 $d
C:\Users\jsyoon\AppData\Local\Temp\ccsxAC7R.s:360    .text.app_uartcomm_start:00000000 $t
C:\Users\jsyoon\AppData\Local\Temp\ccsxAC7R.s:366    .text.app_uartcomm_start:00000000 app_uartcomm_start
C:\Users\jsyoon\AppData\Local\Temp\ccsxAC7R.s:430    .text.app_uartcomm_start:0000004c $d
C:\Users\jsyoon\AppData\Local\Temp\ccsxAC7R.s:442    .text.app_uartcomm_configure:00000000 $t
C:\Users\jsyoon\AppData\Local\Temp\ccsxAC7R.s:448    .text.app_uartcomm_configure:00000000 app_uartcomm_configure
C:\Users\jsyoon\AppData\Local\Temp\ccsxAC7R.s:476    .text.app_uartcomm_configure:00000014 $d
C:\Users\jsyoon\AppData\Local\Temp\ccsxAC7R.s:483    .bss.serial_rx_write_pos:00000000 $d
C:\Users\jsyoon\AppData\Local\Temp\ccsxAC7R.s:487    .bss.serial_rx_write_pos:00000000 serial_rx_write_pos
C:\Users\jsyoon\AppData\Local\Temp\ccsxAC7R.s:490    .bss.is_running:00000000 $d
C:\Users\jsyoon\AppData\Local\Temp\ccsxAC7R.s:494    .bss.is_running:00000000 is_running
C:\Users\jsyoon\AppData\Local\Temp\ccsxAC7R.s:497    .data.uart_cfg:00000000 $d
C:\Users\jsyoon\AppData\Local\Temp\ccsxAC7R.s:501    .data.uart_cfg:00000000 uart_cfg
C:\Users\jsyoon\AppData\Local\Temp\ccsxAC7R.s:513    .bss.buffer.9850:00000000 $d
C:\Users\jsyoon\AppData\Local\Temp\ccsxAC7R.s:517    .bss.buffer.9850:00000000 buffer.9850
C:\Users\jsyoon\AppData\Local\Temp\ccsxAC7R.s:520    .bss.packet_process_thread_wa:00000000 $d
C:\Users\jsyoon\AppData\Local\Temp\ccsxAC7R.s:524    .bss.packet_process_thread_wa:00000000 packet_process_thread_wa
C:\Users\jsyoon\AppData\Local\Temp\ccsxAC7R.s:527    .bss.serial_rx_buffer:00000000 $d
C:\Users\jsyoon\AppData\Local\Temp\ccsxAC7R.s:531    .bss.serial_rx_buffer:00000000 serial_rx_buffer
C:\Users\jsyoon\AppData\Local\Temp\ccsxAC7R.s:534    .rodata.str1.4:00000000 $d
C:\Users\jsyoon\AppData\Local\Temp\ccsxAC7R.s:538    .bss.serial_rx_read_pos:00000000 $d
C:\Users\jsyoon\AppData\Local\Temp\ccsxAC7R.s:542    .bss.serial_rx_read_pos:00000000 serial_rx_read_pos
C:\Users\jsyoon\AppData\Local\Temp\ccsxAC7R.s:545    .bss.process_tp:00000000 $d
C:\Users\jsyoon\AppData\Local\Temp\ccsxAC7R.s:549    .bss.process_tp:00000000 process_tp
                     .debug_frame:00000010 $d
C:\Users\jsyoon\AppData\Local\Temp\ccsxAC7R.s:175    .text.packet_process_thread:00000064 $t
C:\Users\jsyoon\AppData\Local\Temp\ccsxAC7R.s:232    .text.rxchar:00000034 $t
C:\Users\jsyoon\AppData\Local\Temp\ccsxAC7R.s:275    .text.process_packet:0000001c $t
C:\Users\jsyoon\AppData\Local\Temp\ccsxAC7R.s:359    .text.send_packet:0000003c $t
C:\Users\jsyoon\AppData\Local\Temp\ccsxAC7R.s:441    .text.app_uartcomm_start:0000006c $t

UNDEFINED SYMBOLS
chEvtWaitAny
packet_process_byte
ARM GAS  C:\Users\jsyoon\AppData\Local\Temp\ccsxAC7R.s 			page 76


rlist
chEvtSignal
commands_set_send_func
commands_process_packet
packet_send_packet
chThdSleep
memcpy
uartStartSend
UARTD6
packet_init
uartStart
_pal_lld_setgroupmode
chThdCreateStatic
