ARM GAS  C:\Users\jsyoon\AppData\Local\Temp\ccnrVRrQ.s 			page 1


   1              		.syntax unified
   2              		.cpu cortex-m4
   3              		.eabi_attribute 27, 3
   4              		.eabi_attribute 28, 1
   5              		.fpu fpv4-sp-d16
   6              		.eabi_attribute 20, 1
   7              		.eabi_attribute 21, 1
   8              		.eabi_attribute 23, 3
   9              		.eabi_attribute 24, 1
  10              		.eabi_attribute 25, 1
  11              		.eabi_attribute 26, 1
  12              		.eabi_attribute 30, 2
  13              		.eabi_attribute 34, 1
  14              		.eabi_attribute 18, 4
  15              		.thumb
  16              		.file	"app_adc.c"
  17              		.text
  18              	.Ltext0:
  19              		.cfi_sections	.debug_frame
  20              		.section	.text.adc_thread,"ax",%progbits
  21              		.align	2
  22              		.p2align 4,,15
  23              		.thumb
  24              		.thumb_func
  25              		.type	adc_thread, %function
  26              	adc_thread:
  27              	.LFB122:
  28              		.file 1 "applications/app_adc.c"
  29              		.loc 1 69 0
  30              		.cfi_startproc
  31              		@ Volatile: function does not return.
  32              		@ args = 0, pretend = 0, frame = 0
  33              		@ frame_needed = 0, uses_anonymous_args = 0
  34              	.LVL0:
  35 0000 08B5     		push	{r3, lr}
  36              		.cfi_def_cfa_offset 8
  37              		.cfi_offset 3, -8
  38              		.cfi_offset 14, -4
  39              		.loc 1 72 0
  40 0002 054B     		ldr	r3, .L4
  41 0004 054A     		ldr	r2, .L4+4
  42 0006 9B69     		ldr	r3, [r3, #24]
  43              		.loc 1 75 0
  44 0008 0548     		ldr	r0, .L4+8
  45              	.LVL1:
  46              		.loc 1 72 0
  47 000a 9A61     		str	r2, [r3, #24]
  48              		.loc 1 75 0
  49 000c 2021     		movs	r1, #32
  50 000e 0A46     		mov	r2, r1
  51 0010 FFF7FEFF 		bl	_pal_lld_setgroupmode
  52              	.LVL2:
  53              	.L2:
  54 0014 FEE7     		b	.L2
  55              	.L5:
  56 0016 00BF     		.align	2
  57              	.L4:
ARM GAS  C:\Users\jsyoon\AppData\Local\Temp\ccnrVRrQ.s 			page 2


  58 0018 00000000 		.word	rlist
  59 001c 00000000 		.word	.LC0
  60 0020 00040240 		.word	1073873920
  61              		.cfi_endproc
  62              	.LFE122:
  63              		.size	adc_thread, .-adc_thread
  64 0024 AFF30080 		.section	.text.app_adc_configure,"ax",%progbits
  64      AFF30080 
  64      AFF30080 
  65              		.align	2
  66              		.p2align 4,,15
  67              		.global	app_adc_configure
  68              		.thumb
  69              		.thumb_func
  70              		.type	app_adc_configure, %function
  71              	app_adc_configure:
  72              	.LFB118:
  73              		.loc 1 52 0
  74              		.cfi_startproc
  75              		@ args = 0, pretend = 0, frame = 0
  76              		@ frame_needed = 0, uses_anonymous_args = 0
  77              		@ link register save eliminated.
  78              	.LVL3:
  79 0000 F0B4     		push	{r4, r5, r6, r7}
  80              		.cfi_def_cfa_offset 16
  81              		.cfi_offset 4, -16
  82              		.cfi_offset 5, -12
  83              		.cfi_offset 6, -8
  84              		.cfi_offset 7, -4
  85              		.loc 1 53 0
  86 0002 0546     		mov	r5, r0
  87 0004 0FCD     		ldmia	r5!, {r0, r1, r2, r3}
  88              	.LVL4:
  89 0006 064C     		ldr	r4, .L7
  90              		.loc 1 54 0
  91 0008 064E     		ldr	r6, .L7+4
  92              		.loc 1 53 0
  93 000a 0FC4     		stmia	r4!, {r0, r1, r2, r3}
  94 000c 0FCD     		ldmia	r5!, {r0, r1, r2, r3}
  95              	.LVL5:
  96 000e 0FC4     		stmia	r4!, {r0, r1, r2, r3}
  97 0010 95E80300 		ldmia	r5, {r0, r1}
  98              		.loc 1 54 0
  99 0014 0027     		movs	r7, #0
 100              		.loc 1 53 0
 101 0016 84E80300 		stmia	r4, {r0, r1}
 102              		.loc 1 54 0
 103 001a 3760     		str	r7, [r6]	@ float
 104              		.loc 1 55 0
 105 001c F0BC     		pop	{r4, r5, r6, r7}
 106              	.LVL6:
 107 001e 7047     		bx	lr
 108              	.L8:
 109              		.align	2
 110              	.L7:
 111 0020 00000000 		.word	.LANCHOR0
 112 0024 00000000 		.word	.LANCHOR1
ARM GAS  C:\Users\jsyoon\AppData\Local\Temp\ccnrVRrQ.s 			page 3


 113              		.cfi_endproc
 114              	.LFE118:
 115              		.size	app_adc_configure, .-app_adc_configure
 116 0028 AFF30080 		.section	.text.app_adc_start,"ax",%progbits
 116      AFF30080 
 117              		.align	2
 118              		.p2align 4,,15
 119              		.global	app_adc_start
 120              		.thumb
 121              		.thumb_func
 122              		.type	app_adc_start, %function
 123              	app_adc_start:
 124              	.LFB119:
 125              		.loc 1 57 0
 126              		.cfi_startproc
 127              		@ args = 0, pretend = 0, frame = 0
 128              		@ frame_needed = 0, uses_anonymous_args = 0
 129 0000 00B5     		push	{lr}
 130              		.cfi_def_cfa_offset 4
 131              		.cfi_offset 14, -4
 132 0002 83B0     		sub	sp, sp, #12
 133              		.cfi_def_cfa_offset 16
 134              		.loc 1 58 0
 135 0004 0023     		movs	r3, #0
 136 0006 0093     		str	r3, [sp]
 137 0008 4FF4B361 		mov	r1, #1432
 138 000c 034B     		ldr	r3, .L10
 139 000e 0448     		ldr	r0, .L10+4
 140 0010 4022     		movs	r2, #64
 141 0012 FFF7FEFF 		bl	chThdCreateStatic
 142              	.LVL7:
 143              		.loc 1 59 0
 144 0016 03B0     		add	sp, sp, #12
 145              		@ sp needed
 146 0018 5DF804FB 		ldr	pc, [sp], #4
 147              	.L11:
 148              		.align	2
 149              	.L10:
 150 001c 00000000 		.word	adc_thread
 151 0020 00000000 		.word	.LANCHOR2
 152              		.cfi_endproc
 153              	.LFE119:
 154              		.size	app_adc_start, .-app_adc_start
 155 0024 AFF30080 		.section	.text.app_adc_get_decoded_level,"ax",%progbits
 155      AFF30080 
 155      AFF30080 
 156              		.align	2
 157              		.p2align 4,,15
 158              		.global	app_adc_get_decoded_level
 159              		.thumb
 160              		.thumb_func
 161              		.type	app_adc_get_decoded_level, %function
 162              	app_adc_get_decoded_level:
 163              	.LFB120:
 164              		.loc 1 61 0
 165              		.cfi_startproc
 166              		@ args = 0, pretend = 0, frame = 0
ARM GAS  C:\Users\jsyoon\AppData\Local\Temp\ccnrVRrQ.s 			page 4


 167              		@ frame_needed = 0, uses_anonymous_args = 0
 168              		@ link register save eliminated.
 169              		.loc 1 62 0
 170 0000 014B     		ldr	r3, .L13
 171 0002 93ED000A 		flds	s0, [r3]
 172              		.loc 1 63 0
 173 0006 7047     		bx	lr
 174              	.L14:
 175              		.align	2
 176              	.L13:
 177 0008 00000000 		.word	.LANCHOR3
 178              		.cfi_endproc
 179              	.LFE120:
 180              		.size	app_adc_get_decoded_level, .-app_adc_get_decoded_level
 181 000c AFF30080 		.section	.text.app_adc_get_voltage,"ax",%progbits
 182              		.align	2
 183              		.p2align 4,,15
 184              		.global	app_adc_get_voltage
 185              		.thumb
 186              		.thumb_func
 187              		.type	app_adc_get_voltage, %function
 188              	app_adc_get_voltage:
 189              	.LFB121:
 190              		.loc 1 65 0
 191              		.cfi_startproc
 192              		@ args = 0, pretend = 0, frame = 0
 193              		@ frame_needed = 0, uses_anonymous_args = 0
 194              		@ link register save eliminated.
 195              		.loc 1 66 0
 196 0000 014B     		ldr	r3, .L16
 197 0002 93ED000A 		flds	s0, [r3]
 198              		.loc 1 67 0
 199 0006 7047     		bx	lr
 200              	.L17:
 201              		.align	2
 202              	.L16:
 203 0008 00000000 		.word	.LANCHOR4
 204              		.cfi_endproc
 205              	.LFE121:
 206              		.size	app_adc_get_voltage, .-app_adc_get_voltage
 207 000c AFF30080 		.section	.bss.read_voltage,"aw",%nobits
 208              		.align	2
 209              		.set	.LANCHOR4,. + 0
 210              		.type	read_voltage, %object
 211              		.size	read_voltage, 4
 212              	read_voltage:
 213 0000 00000000 		.space	4
 214              		.section	.bss.ms_without_power,"aw",%nobits
 215              		.align	2
 216              		.set	.LANCHOR1,. + 0
 217              		.type	ms_without_power, %object
 218              		.size	ms_without_power, 4
 219              	ms_without_power:
 220 0000 00000000 		.space	4
 221              		.section	.rodata.str1.4,"aMS",%progbits,1
 222              		.align	2
 223              	.LC0:
ARM GAS  C:\Users\jsyoon\AppData\Local\Temp\ccnrVRrQ.s 			page 5


 224 0000 4150505F 		.ascii	"APP_ADC\000"
 224      41444300 
 225              		.section	.bss.config,"aw",%nobits
 226              		.align	2
 227              		.set	.LANCHOR0,. + 0
 228              		.type	config, %object
 229              		.size	config, 40
 230              	config:
 231 0000 00000000 		.space	40
 231      00000000 
 231      00000000 
 231      00000000 
 231      00000000 
 232              		.section	.bss.decoded_level,"aw",%nobits
 233              		.align	2
 234              		.set	.LANCHOR3,. + 0
 235              		.type	decoded_level, %object
 236              		.size	decoded_level, 4
 237              	decoded_level:
 238 0000 00000000 		.space	4
 239              		.section	.bss.adc_thread_wa,"aw",%nobits
 240              		.align	3
 241              		.set	.LANCHOR2,. + 0
 242              		.type	adc_thread_wa, %object
 243              		.size	adc_thread_wa, 1432
 244              	adc_thread_wa:
 245 0000 00000000 		.space	1432
 245      00000000 
 245      00000000 
 245      00000000 
 245      00000000 
 246              		.text
 247              	.Letext0:
 248              		.file 2 "c:\\crosstools\\gcc-arm-embedded\\4.8_2014q2\\arm-none-eabi\\include\\machine\\_default_t
 249              		.file 3 "c:\\crosstools\\gcc-arm-embedded\\4.8_2014q2\\arm-none-eabi\\include\\stdint.h"
 250              		.file 4 "c:\\crosstools\\gcc-arm-embedded\\4.8_2014q2\\lib\\gcc\\arm-none-eabi\\4.8.4\\include\\st
 251              		.file 5 "ChibiOS_2.6.6/os/ports/GCC/ARMCMx/chtypes.h"
 252              		.file 6 "ChibiOS_2.6.6/os/kernel/include/chlists.h"
 253              		.file 7 "ChibiOS_2.6.6/os/kernel/include/chthreads.h"
 254              		.file 8 "ChibiOS_2.6.6/os/ports/GCC/ARMCMx/chcore_v7m.h"
 255              		.file 9 "ChibiOS_2.6.6/os/kernel/include/chschd.h"
 256              		.file 10 "ChibiOS_2.6.6/os/kernel/include/chmtx.h"
 257              		.file 11 "./datatypes.h"
 258              		.file 12 "ChibiOS_2.6.6/os/hal/platforms/STM32/GPIOv2/pal_lld.h"
 259              		.file 13 "ChibiOS_2.6.6/os/ports/common/ARMCMx/CMSIS/include/core_cm4.h"
 260              		.section	.debug_info,"",%progbits
 261              	.Ldebug_info0:
 262 0000 F8080000 		.4byte	0x8f8
 263 0004 0400     		.2byte	0x4
 264 0006 00000000 		.4byte	.Ldebug_abbrev0
 265 000a 04       		.byte	0x4
 266 000b 01       		.uleb128 0x1
 267 000c 8C010000 		.4byte	.LASF127
 268 0010 01       		.byte	0x1
 269 0011 52030000 		.4byte	.LASF128
 270 0015 37010000 		.4byte	.LASF129
 271 0019 00000000 		.4byte	.Ldebug_ranges0+0
ARM GAS  C:\Users\jsyoon\AppData\Local\Temp\ccnrVRrQ.s 			page 6


 272 001d 00000000 		.4byte	0
 273 0021 00000000 		.4byte	.Ldebug_line0
 274 0025 02       		.uleb128 0x2
 275 0026 01       		.byte	0x1
 276 0027 06       		.byte	0x6
 277 0028 DE000000 		.4byte	.LASF0
 278 002c 03       		.uleb128 0x3
 279 002d 44000000 		.4byte	.LASF3
 280 0031 02       		.byte	0x2
 281 0032 1C       		.byte	0x1c
 282 0033 37000000 		.4byte	0x37
 283 0037 02       		.uleb128 0x2
 284 0038 01       		.byte	0x1
 285 0039 08       		.byte	0x8
 286 003a DE040000 		.4byte	.LASF1
 287 003e 02       		.uleb128 0x2
 288 003f 02       		.byte	0x2
 289 0040 05       		.byte	0x5
 290 0041 F6040000 		.4byte	.LASF2
 291 0045 03       		.uleb128 0x3
 292 0046 B9050000 		.4byte	.LASF4
 293 004a 02       		.byte	0x2
 294 004b 26       		.byte	0x26
 295 004c 50000000 		.4byte	0x50
 296 0050 02       		.uleb128 0x2
 297 0051 02       		.byte	0x2
 298 0052 07       		.byte	0x7
 299 0053 71030000 		.4byte	.LASF5
 300 0057 03       		.uleb128 0x3
 301 0058 E0050000 		.4byte	.LASF6
 302 005c 02       		.byte	0x2
 303 005d 37       		.byte	0x37
 304 005e 62000000 		.4byte	0x62
 305 0062 02       		.uleb128 0x2
 306 0063 04       		.byte	0x4
 307 0064 05       		.byte	0x5
 308 0065 67010000 		.4byte	.LASF7
 309 0069 03       		.uleb128 0x3
 310 006a FE020000 		.4byte	.LASF8
 311 006e 02       		.byte	0x2
 312 006f 38       		.byte	0x38
 313 0070 74000000 		.4byte	0x74
 314 0074 02       		.uleb128 0x2
 315 0075 04       		.byte	0x4
 316 0076 07       		.byte	0x7
 317 0077 EF000000 		.4byte	.LASF9
 318 007b 02       		.uleb128 0x2
 319 007c 08       		.byte	0x8
 320 007d 05       		.byte	0x5
 321 007e D0000000 		.4byte	.LASF10
 322 0082 03       		.uleb128 0x3
 323 0083 70040000 		.4byte	.LASF11
 324 0087 02       		.byte	0x2
 325 0088 4E       		.byte	0x4e
 326 0089 8D000000 		.4byte	0x8d
 327 008d 02       		.uleb128 0x2
 328 008e 08       		.byte	0x8
ARM GAS  C:\Users\jsyoon\AppData\Local\Temp\ccnrVRrQ.s 			page 7


 329 008f 07       		.byte	0x7
 330 0090 09010000 		.4byte	.LASF12
 331 0094 04       		.uleb128 0x4
 332 0095 04       		.byte	0x4
 333 0096 05       		.byte	0x5
 334 0097 696E7400 		.ascii	"int\000"
 335 009b 02       		.uleb128 0x2
 336 009c 04       		.byte	0x4
 337 009d 07       		.byte	0x7
 338 009e 2B030000 		.4byte	.LASF13
 339 00a2 03       		.uleb128 0x3
 340 00a3 98060000 		.4byte	.LASF14
 341 00a7 03       		.byte	0x3
 342 00a8 2A       		.byte	0x2a
 343 00a9 2C000000 		.4byte	0x2c
 344 00ad 03       		.uleb128 0x3
 345 00ae B0020000 		.4byte	.LASF15
 346 00b2 03       		.byte	0x3
 347 00b3 36       		.byte	0x36
 348 00b4 45000000 		.4byte	0x45
 349 00b8 03       		.uleb128 0x3
 350 00b9 2C040000 		.4byte	.LASF16
 351 00bd 03       		.byte	0x3
 352 00be 41       		.byte	0x41
 353 00bf 57000000 		.4byte	0x57
 354 00c3 03       		.uleb128 0x3
 355 00c4 6D050000 		.4byte	.LASF17
 356 00c8 03       		.byte	0x3
 357 00c9 42       		.byte	0x42
 358 00ca 69000000 		.4byte	0x69
 359 00ce 03       		.uleb128 0x3
 360 00cf 34000000 		.4byte	.LASF18
 361 00d3 03       		.byte	0x3
 362 00d4 4E       		.byte	0x4e
 363 00d5 82000000 		.4byte	0x82
 364 00d9 03       		.uleb128 0x3
 365 00da 26000000 		.4byte	.LASF19
 366 00de 04       		.byte	0x4
 367 00df D4       		.byte	0xd4
 368 00e0 9B000000 		.4byte	0x9b
 369 00e4 02       		.uleb128 0x2
 370 00e5 01       		.byte	0x1
 371 00e6 02       		.byte	0x2
 372 00e7 CE040000 		.4byte	.LASF20
 373 00eb 03       		.uleb128 0x3
 374 00ec BE030000 		.4byte	.LASF21
 375 00f0 05       		.byte	0x5
 376 00f1 2C       		.byte	0x2c
 377 00f2 A2000000 		.4byte	0xa2
 378 00f6 03       		.uleb128 0x3
 379 00f7 70010000 		.4byte	.LASF22
 380 00fb 05       		.byte	0x5
 381 00fc 2D       		.byte	0x2d
 382 00fd A2000000 		.4byte	0xa2
 383 0101 03       		.uleb128 0x3
 384 0102 8B040000 		.4byte	.LASF23
 385 0106 05       		.byte	0x5
ARM GAS  C:\Users\jsyoon\AppData\Local\Temp\ccnrVRrQ.s 			page 8


 386 0107 2E       		.byte	0x2e
 387 0108 A2000000 		.4byte	0xa2
 388 010c 03       		.uleb128 0x3
 389 010d 28010000 		.4byte	.LASF24
 390 0111 05       		.byte	0x5
 391 0112 2F       		.byte	0x2f
 392 0113 A2000000 		.4byte	0xa2
 393 0117 03       		.uleb128 0x3
 394 0118 A5040000 		.4byte	.LASF25
 395 011c 05       		.byte	0x5
 396 011d 30       		.byte	0x30
 397 011e C3000000 		.4byte	0xc3
 398 0122 03       		.uleb128 0x3
 399 0123 90030000 		.4byte	.LASF26
 400 0127 05       		.byte	0x5
 401 0128 31       		.byte	0x31
 402 0129 B8000000 		.4byte	0xb8
 403 012d 03       		.uleb128 0x3
 404 012e DD030000 		.4byte	.LASF27
 405 0132 05       		.byte	0x5
 406 0133 33       		.byte	0x33
 407 0134 C3000000 		.4byte	0xc3
 408 0138 03       		.uleb128 0x3
 409 0139 CB050000 		.4byte	.LASF28
 410 013d 05       		.byte	0x5
 411 013e 35       		.byte	0x35
 412 013f C3000000 		.4byte	0xc3
 413 0143 03       		.uleb128 0x3
 414 0144 50050000 		.4byte	.LASF29
 415 0148 06       		.byte	0x6
 416 0149 2A       		.byte	0x2a
 417 014a 4E010000 		.4byte	0x14e
 418 014e 05       		.uleb128 0x5
 419 014f 50050000 		.4byte	.LASF29
 420 0153 48       		.byte	0x48
 421 0154 07       		.byte	0x7
 422 0155 5E       		.byte	0x5e
 423 0156 4B020000 		.4byte	0x24b
 424 015a 06       		.uleb128 0x6
 425 015b 41050000 		.4byte	.LASF30
 426 015f 07       		.byte	0x7
 427 0160 5F       		.byte	0x5f
 428 0161 6C020000 		.4byte	0x26c
 429 0165 00       		.byte	0
 430 0166 06       		.uleb128 0x6
 431 0167 93040000 		.4byte	.LASF31
 432 016b 07       		.byte	0x7
 433 016c 61       		.byte	0x61
 434 016d 6C020000 		.4byte	0x26c
 435 0171 04       		.byte	0x4
 436 0172 06       		.uleb128 0x6
 437 0173 C9000000 		.4byte	.LASF32
 438 0177 07       		.byte	0x7
 439 0178 63       		.byte	0x63
 440 0179 17010000 		.4byte	0x117
 441 017d 08       		.byte	0x8
 442 017e 06       		.uleb128 0x6
ARM GAS  C:\Users\jsyoon\AppData\Local\Temp\ccnrVRrQ.s 			page 9


 443 017f 08070000 		.4byte	.LASF33
 444 0183 07       		.byte	0x7
 445 0184 64       		.byte	0x64
 446 0185 01040000 		.4byte	0x401
 447 0189 0C       		.byte	0xc
 448 018a 06       		.uleb128 0x6
 449 018b B9020000 		.4byte	.LASF34
 450 018f 07       		.byte	0x7
 451 0190 66       		.byte	0x66
 452 0191 6C020000 		.4byte	0x26c
 453 0195 10       		.byte	0x10
 454 0196 06       		.uleb128 0x6
 455 0197 42040000 		.4byte	.LASF35
 456 019b 07       		.byte	0x7
 457 019c 67       		.byte	0x67
 458 019d 6C020000 		.4byte	0x26c
 459 01a1 14       		.byte	0x14
 460 01a2 06       		.uleb128 0x6
 461 01a3 A7060000 		.4byte	.LASF36
 462 01a7 07       		.byte	0x7
 463 01a8 6E       		.byte	0x6e
 464 01a9 06050000 		.4byte	0x506
 465 01ad 18       		.byte	0x18
 466 01ae 06       		.uleb128 0x6
 467 01af 00050000 		.4byte	.LASF37
 468 01b3 07       		.byte	0x7
 469 01b4 79       		.byte	0x79
 470 01b5 F6000000 		.4byte	0xf6
 471 01b9 1C       		.byte	0x1c
 472 01ba 06       		.uleb128 0x6
 473 01bb 48050000 		.4byte	.LASF38
 474 01bf 07       		.byte	0x7
 475 01c0 7D       		.byte	0x7d
 476 01c1 EB000000 		.4byte	0xeb
 477 01c5 1D       		.byte	0x1d
 478 01c6 06       		.uleb128 0x6
 479 01c7 58060000 		.4byte	.LASF39
 480 01cb 07       		.byte	0x7
 481 01cc 82       		.byte	0x82
 482 01cd 01010000 		.4byte	0x101
 483 01d1 1E       		.byte	0x1e
 484 01d2 06       		.uleb128 0x6
 485 01d3 29050000 		.4byte	.LASF40
 486 01d7 07       		.byte	0x7
 487 01d8 88       		.byte	0x88
 488 01d9 0C010000 		.4byte	0x10c
 489 01dd 1F       		.byte	0x1f
 490 01de 06       		.uleb128 0x6
 491 01df 0B060000 		.4byte	.LASF41
 492 01e3 07       		.byte	0x7
 493 01e4 8F       		.byte	0x8f
 494 01e5 2E040000 		.4byte	0x42e
 495 01e9 20       		.byte	0x20
 496 01ea 07       		.uleb128 0x7
 497 01eb 705F7500 		.ascii	"p_u\000"
 498 01ef 07       		.byte	0x7
 499 01f0 B4       		.byte	0xb4
ARM GAS  C:\Users\jsyoon\AppData\Local\Temp\ccnrVRrQ.s 			page 10


 500 01f1 D1040000 		.4byte	0x4d1
 501 01f5 24       		.byte	0x24
 502 01f6 06       		.uleb128 0x6
 503 01f7 0E070000 		.4byte	.LASF42
 504 01fb 07       		.byte	0x7
 505 01fc B9       		.byte	0xb9
 506 01fd 92020000 		.4byte	0x292
 507 0201 28       		.byte	0x28
 508 0202 06       		.uleb128 0x6
 509 0203 2F060000 		.4byte	.LASF43
 510 0207 07       		.byte	0x7
 511 0208 BF       		.byte	0xbf
 512 0209 72020000 		.4byte	0x272
 513 020d 2C       		.byte	0x2c
 514 020e 06       		.uleb128 0x6
 515 020f C1060000 		.4byte	.LASF44
 516 0213 07       		.byte	0x7
 517 0214 C3       		.byte	0xc3
 518 0215 22010000 		.4byte	0x122
 519 0219 34       		.byte	0x34
 520 021a 06       		.uleb128 0x6
 521 021b 5C050000 		.4byte	.LASF45
 522 021f 07       		.byte	0x7
 523 0220 C9       		.byte	0xc9
 524 0221 2D010000 		.4byte	0x12d
 525 0225 38       		.byte	0x38
 526 0226 06       		.uleb128 0x6
 527 0227 EC040000 		.4byte	.LASF46
 528 022b 07       		.byte	0x7
 529 022c D0       		.byte	0xd0
 530 022d 18050000 		.4byte	0x518
 531 0231 3C       		.byte	0x3c
 532 0232 06       		.uleb128 0x6
 533 0233 D5050000 		.4byte	.LASF47
 534 0237 07       		.byte	0x7
 535 0238 D4       		.byte	0xd4
 536 0239 17010000 		.4byte	0x117
 537 023d 40       		.byte	0x40
 538 023e 06       		.uleb128 0x6
 539 023f 01010000 		.4byte	.LASF48
 540 0243 07       		.byte	0x7
 541 0244 DA       		.byte	0xda
 542 0245 A8020000 		.4byte	0x2a8
 543 0249 44       		.byte	0x44
 544 024a 00       		.byte	0
 545 024b 08       		.uleb128 0x8
 546 024c 08       		.byte	0x8
 547 024d 06       		.byte	0x6
 548 024e 61       		.byte	0x61
 549 024f 6C020000 		.4byte	0x26c
 550 0253 06       		.uleb128 0x6
 551 0254 41050000 		.4byte	.LASF30
 552 0258 06       		.byte	0x6
 553 0259 62       		.byte	0x62
 554 025a 6C020000 		.4byte	0x26c
 555 025e 00       		.byte	0
 556 025f 06       		.uleb128 0x6
ARM GAS  C:\Users\jsyoon\AppData\Local\Temp\ccnrVRrQ.s 			page 11


 557 0260 93040000 		.4byte	.LASF31
 558 0264 06       		.byte	0x6
 559 0265 64       		.byte	0x64
 560 0266 6C020000 		.4byte	0x26c
 561 026a 04       		.byte	0x4
 562 026b 00       		.byte	0
 563 026c 09       		.uleb128 0x9
 564 026d 04       		.byte	0x4
 565 026e 43010000 		.4byte	0x143
 566 0272 03       		.uleb128 0x3
 567 0273 98000000 		.4byte	.LASF49
 568 0277 06       		.byte	0x6
 569 0278 66       		.byte	0x66
 570 0279 4B020000 		.4byte	0x24b
 571 027d 08       		.uleb128 0x8
 572 027e 04       		.byte	0x4
 573 027f 06       		.byte	0x6
 574 0280 6B       		.byte	0x6b
 575 0281 92020000 		.4byte	0x292
 576 0285 06       		.uleb128 0x6
 577 0286 41050000 		.4byte	.LASF30
 578 028a 06       		.byte	0x6
 579 028b 6D       		.byte	0x6d
 580 028c 6C020000 		.4byte	0x26c
 581 0290 00       		.byte	0
 582 0291 00       		.byte	0
 583 0292 03       		.uleb128 0x3
 584 0293 D1030000 		.4byte	.LASF50
 585 0297 06       		.byte	0x6
 586 0298 70       		.byte	0x70
 587 0299 7D020000 		.4byte	0x27d
 588 029d 03       		.uleb128 0x3
 589 029e 09030000 		.4byte	.LASF51
 590 02a2 08       		.byte	0x8
 591 02a3 E5       		.byte	0xe5
 592 02a4 A8020000 		.4byte	0x2a8
 593 02a8 0A       		.uleb128 0xa
 594 02a9 04       		.byte	0x4
 595 02aa 03       		.uleb128 0x3
 596 02ab 0F040000 		.4byte	.LASF52
 597 02af 08       		.byte	0x8
 598 02b0 EB       		.byte	0xeb
 599 02b1 CE000000 		.4byte	0xce
 600 02b5 0B       		.uleb128 0xb
 601 02b6 28060000 		.4byte	.LASF53
 602 02ba 64       		.byte	0x64
 603 02bb 08       		.byte	0x8
 604 02bc 0C01     		.2byte	0x10c
 605 02be 01040000 		.4byte	0x401
 606 02c2 0C       		.uleb128 0xc
 607 02c3 73313600 		.ascii	"s16\000"
 608 02c7 08       		.byte	0x8
 609 02c8 0E01     		.2byte	0x10e
 610 02ca 9D020000 		.4byte	0x29d
 611 02ce 00       		.byte	0
 612 02cf 0C       		.uleb128 0xc
 613 02d0 73313700 		.ascii	"s17\000"
ARM GAS  C:\Users\jsyoon\AppData\Local\Temp\ccnrVRrQ.s 			page 12


 614 02d4 08       		.byte	0x8
 615 02d5 0F01     		.2byte	0x10f
 616 02d7 9D020000 		.4byte	0x29d
 617 02db 04       		.byte	0x4
 618 02dc 0C       		.uleb128 0xc
 619 02dd 73313800 		.ascii	"s18\000"
 620 02e1 08       		.byte	0x8
 621 02e2 1001     		.2byte	0x110
 622 02e4 9D020000 		.4byte	0x29d
 623 02e8 08       		.byte	0x8
 624 02e9 0C       		.uleb128 0xc
 625 02ea 73313900 		.ascii	"s19\000"
 626 02ee 08       		.byte	0x8
 627 02ef 1101     		.2byte	0x111
 628 02f1 9D020000 		.4byte	0x29d
 629 02f5 0C       		.byte	0xc
 630 02f6 0C       		.uleb128 0xc
 631 02f7 73323000 		.ascii	"s20\000"
 632 02fb 08       		.byte	0x8
 633 02fc 1201     		.2byte	0x112
 634 02fe 9D020000 		.4byte	0x29d
 635 0302 10       		.byte	0x10
 636 0303 0C       		.uleb128 0xc
 637 0304 73323100 		.ascii	"s21\000"
 638 0308 08       		.byte	0x8
 639 0309 1301     		.2byte	0x113
 640 030b 9D020000 		.4byte	0x29d
 641 030f 14       		.byte	0x14
 642 0310 0C       		.uleb128 0xc
 643 0311 73323200 		.ascii	"s22\000"
 644 0315 08       		.byte	0x8
 645 0316 1401     		.2byte	0x114
 646 0318 9D020000 		.4byte	0x29d
 647 031c 18       		.byte	0x18
 648 031d 0C       		.uleb128 0xc
 649 031e 73323300 		.ascii	"s23\000"
 650 0322 08       		.byte	0x8
 651 0323 1501     		.2byte	0x115
 652 0325 9D020000 		.4byte	0x29d
 653 0329 1C       		.byte	0x1c
 654 032a 0C       		.uleb128 0xc
 655 032b 73323400 		.ascii	"s24\000"
 656 032f 08       		.byte	0x8
 657 0330 1601     		.2byte	0x116
 658 0332 9D020000 		.4byte	0x29d
 659 0336 20       		.byte	0x20
 660 0337 0C       		.uleb128 0xc
 661 0338 73323500 		.ascii	"s25\000"
 662 033c 08       		.byte	0x8
 663 033d 1701     		.2byte	0x117
 664 033f 9D020000 		.4byte	0x29d
 665 0343 24       		.byte	0x24
 666 0344 0C       		.uleb128 0xc
 667 0345 73323600 		.ascii	"s26\000"
 668 0349 08       		.byte	0x8
 669 034a 1801     		.2byte	0x118
 670 034c 9D020000 		.4byte	0x29d
ARM GAS  C:\Users\jsyoon\AppData\Local\Temp\ccnrVRrQ.s 			page 13


 671 0350 28       		.byte	0x28
 672 0351 0C       		.uleb128 0xc
 673 0352 73323700 		.ascii	"s27\000"
 674 0356 08       		.byte	0x8
 675 0357 1901     		.2byte	0x119
 676 0359 9D020000 		.4byte	0x29d
 677 035d 2C       		.byte	0x2c
 678 035e 0C       		.uleb128 0xc
 679 035f 73323800 		.ascii	"s28\000"
 680 0363 08       		.byte	0x8
 681 0364 1A01     		.2byte	0x11a
 682 0366 9D020000 		.4byte	0x29d
 683 036a 30       		.byte	0x30
 684 036b 0C       		.uleb128 0xc
 685 036c 73323900 		.ascii	"s29\000"
 686 0370 08       		.byte	0x8
 687 0371 1B01     		.2byte	0x11b
 688 0373 9D020000 		.4byte	0x29d
 689 0377 34       		.byte	0x34
 690 0378 0C       		.uleb128 0xc
 691 0379 73333000 		.ascii	"s30\000"
 692 037d 08       		.byte	0x8
 693 037e 1C01     		.2byte	0x11c
 694 0380 9D020000 		.4byte	0x29d
 695 0384 38       		.byte	0x38
 696 0385 0C       		.uleb128 0xc
 697 0386 73333100 		.ascii	"s31\000"
 698 038a 08       		.byte	0x8
 699 038b 1D01     		.2byte	0x11d
 700 038d 9D020000 		.4byte	0x29d
 701 0391 3C       		.byte	0x3c
 702 0392 0C       		.uleb128 0xc
 703 0393 723400   		.ascii	"r4\000"
 704 0396 08       		.byte	0x8
 705 0397 1F01     		.2byte	0x11f
 706 0399 9D020000 		.4byte	0x29d
 707 039d 40       		.byte	0x40
 708 039e 0C       		.uleb128 0xc
 709 039f 723500   		.ascii	"r5\000"
 710 03a2 08       		.byte	0x8
 711 03a3 2001     		.2byte	0x120
 712 03a5 9D020000 		.4byte	0x29d
 713 03a9 44       		.byte	0x44
 714 03aa 0C       		.uleb128 0xc
 715 03ab 723600   		.ascii	"r6\000"
 716 03ae 08       		.byte	0x8
 717 03af 2101     		.2byte	0x121
 718 03b1 9D020000 		.4byte	0x29d
 719 03b5 48       		.byte	0x48
 720 03b6 0C       		.uleb128 0xc
 721 03b7 723700   		.ascii	"r7\000"
 722 03ba 08       		.byte	0x8
 723 03bb 2201     		.2byte	0x122
 724 03bd 9D020000 		.4byte	0x29d
 725 03c1 4C       		.byte	0x4c
 726 03c2 0C       		.uleb128 0xc
 727 03c3 723800   		.ascii	"r8\000"
ARM GAS  C:\Users\jsyoon\AppData\Local\Temp\ccnrVRrQ.s 			page 14


 728 03c6 08       		.byte	0x8
 729 03c7 2301     		.2byte	0x123
 730 03c9 9D020000 		.4byte	0x29d
 731 03cd 50       		.byte	0x50
 732 03ce 0C       		.uleb128 0xc
 733 03cf 723900   		.ascii	"r9\000"
 734 03d2 08       		.byte	0x8
 735 03d3 2401     		.2byte	0x124
 736 03d5 9D020000 		.4byte	0x29d
 737 03d9 54       		.byte	0x54
 738 03da 0C       		.uleb128 0xc
 739 03db 72313000 		.ascii	"r10\000"
 740 03df 08       		.byte	0x8
 741 03e0 2501     		.2byte	0x125
 742 03e2 9D020000 		.4byte	0x29d
 743 03e6 58       		.byte	0x58
 744 03e7 0C       		.uleb128 0xc
 745 03e8 72313100 		.ascii	"r11\000"
 746 03ec 08       		.byte	0x8
 747 03ed 2601     		.2byte	0x126
 748 03ef 9D020000 		.4byte	0x29d
 749 03f3 5C       		.byte	0x5c
 750 03f4 0C       		.uleb128 0xc
 751 03f5 6C7200   		.ascii	"lr\000"
 752 03f8 08       		.byte	0x8
 753 03f9 2701     		.2byte	0x127
 754 03fb 9D020000 		.4byte	0x29d
 755 03ff 60       		.byte	0x60
 756 0400 00       		.byte	0
 757 0401 0B       		.uleb128 0xb
 758 0402 69030000 		.4byte	.LASF54
 759 0406 04       		.byte	0x4
 760 0407 08       		.byte	0x8
 761 0408 3101     		.2byte	0x131
 762 040a 1C040000 		.4byte	0x41c
 763 040e 0C       		.uleb128 0xc
 764 040f 72313300 		.ascii	"r13\000"
 765 0413 08       		.byte	0x8
 766 0414 3201     		.2byte	0x132
 767 0416 1C040000 		.4byte	0x41c
 768 041a 00       		.byte	0
 769 041b 00       		.byte	0
 770 041c 09       		.uleb128 0x9
 771 041d 04       		.byte	0x4
 772 041e B5020000 		.4byte	0x2b5
 773 0422 0D       		.uleb128 0xd
 774 0423 C3000000 		.4byte	0xc3
 775 0427 02       		.uleb128 0x2
 776 0428 04       		.byte	0x4
 777 0429 07       		.byte	0x7
 778 042a 34040000 		.4byte	.LASF55
 779 042e 0D       		.uleb128 0xd
 780 042f 38010000 		.4byte	0x138
 781 0433 08       		.uleb128 0x8
 782 0434 1C       		.byte	0x1c
 783 0435 09       		.byte	0x9
 784 0436 5E       		.byte	0x5e
ARM GAS  C:\Users\jsyoon\AppData\Local\Temp\ccnrVRrQ.s 			page 15


 785 0437 84040000 		.4byte	0x484
 786 043b 06       		.uleb128 0x6
 787 043c 76050000 		.4byte	.LASF56
 788 0440 09       		.byte	0x9
 789 0441 5F       		.byte	0x5f
 790 0442 72020000 		.4byte	0x272
 791 0446 00       		.byte	0
 792 0447 06       		.uleb128 0x6
 793 0448 33050000 		.4byte	.LASF57
 794 044c 09       		.byte	0x9
 795 044d 60       		.byte	0x60
 796 044e 17010000 		.4byte	0x117
 797 0452 08       		.byte	0x8
 798 0453 06       		.uleb128 0x6
 799 0454 4A040000 		.4byte	.LASF58
 800 0458 09       		.byte	0x9
 801 0459 62       		.byte	0x62
 802 045a 01040000 		.4byte	0x401
 803 045e 0C       		.byte	0xc
 804 045f 06       		.uleb128 0x6
 805 0460 96030000 		.4byte	.LASF59
 806 0464 09       		.byte	0x9
 807 0465 65       		.byte	0x65
 808 0466 6C020000 		.4byte	0x26c
 809 046a 10       		.byte	0x10
 810 046b 06       		.uleb128 0x6
 811 046c 5A040000 		.4byte	.LASF60
 812 0470 09       		.byte	0x9
 813 0471 66       		.byte	0x66
 814 0472 6C020000 		.4byte	0x26c
 815 0476 14       		.byte	0x14
 816 0477 06       		.uleb128 0x6
 817 0478 50040000 		.4byte	.LASF61
 818 047c 09       		.byte	0x9
 819 047d 69       		.byte	0x69
 820 047e 6C020000 		.4byte	0x26c
 821 0482 18       		.byte	0x18
 822 0483 00       		.byte	0
 823 0484 03       		.uleb128 0x3
 824 0485 88060000 		.4byte	.LASF62
 825 0489 09       		.byte	0x9
 826 048a 6B       		.byte	0x6b
 827 048b 33040000 		.4byte	0x433
 828 048f 05       		.uleb128 0x5
 829 0490 09040000 		.4byte	.LASF63
 830 0494 10       		.byte	0x10
 831 0495 0A       		.byte	0xa
 832 0496 2C       		.byte	0x2c
 833 0497 C0040000 		.4byte	0x4c0
 834 049b 06       		.uleb128 0x6
 835 049c 20010000 		.4byte	.LASF64
 836 04a0 0A       		.byte	0xa
 837 04a1 2D       		.byte	0x2d
 838 04a2 72020000 		.4byte	0x272
 839 04a6 00       		.byte	0
 840 04a7 06       		.uleb128 0x6
 841 04a8 D0060000 		.4byte	.LASF65
ARM GAS  C:\Users\jsyoon\AppData\Local\Temp\ccnrVRrQ.s 			page 16


 842 04ac 0A       		.byte	0xa
 843 04ad 2F       		.byte	0x2f
 844 04ae 6C020000 		.4byte	0x26c
 845 04b2 08       		.byte	0x8
 846 04b3 06       		.uleb128 0x6
 847 04b4 C4050000 		.4byte	.LASF66
 848 04b8 0A       		.byte	0xa
 849 04b9 31       		.byte	0x31
 850 04ba C0040000 		.4byte	0x4c0
 851 04be 0C       		.byte	0xc
 852 04bf 00       		.byte	0
 853 04c0 09       		.uleb128 0x9
 854 04c1 04       		.byte	0x4
 855 04c2 8F040000 		.4byte	0x48f
 856 04c6 03       		.uleb128 0x3
 857 04c7 09040000 		.4byte	.LASF63
 858 04cb 0A       		.byte	0xa
 859 04cc 33       		.byte	0x33
 860 04cd 8F040000 		.4byte	0x48f
 861 04d1 0E       		.uleb128 0xe
 862 04d2 04       		.byte	0x4
 863 04d3 07       		.byte	0x7
 864 04d4 96       		.byte	0x96
 865 04d5 06050000 		.4byte	0x506
 866 04d9 0F       		.uleb128 0xf
 867 04da 2D000000 		.4byte	.LASF67
 868 04de 07       		.byte	0x7
 869 04df 9D       		.byte	0x9d
 870 04e0 22010000 		.4byte	0x122
 871 04e4 0F       		.uleb128 0xf
 872 04e5 DF020000 		.4byte	.LASF68
 873 04e9 07       		.byte	0x7
 874 04ea A4       		.byte	0xa4
 875 04eb 22010000 		.4byte	0x122
 876 04ef 0F       		.uleb128 0xf
 877 04f0 A0060000 		.4byte	.LASF69
 878 04f4 07       		.byte	0x7
 879 04f5 AB       		.byte	0xab
 880 04f6 A8020000 		.4byte	0x2a8
 881 04fa 0F       		.uleb128 0xf
 882 04fb 3A050000 		.4byte	.LASF70
 883 04ff 07       		.byte	0x7
 884 0500 B2       		.byte	0xb2
 885 0501 2D010000 		.4byte	0x12d
 886 0505 00       		.byte	0
 887 0506 09       		.uleb128 0x9
 888 0507 04       		.byte	0x4
 889 0508 0C050000 		.4byte	0x50c
 890 050c 10       		.uleb128 0x10
 891 050d 11050000 		.4byte	0x511
 892 0511 02       		.uleb128 0x2
 893 0512 01       		.byte	0x1
 894 0513 08       		.byte	0x8
 895 0514 B4050000 		.4byte	.LASF71
 896 0518 09       		.uleb128 0x9
 897 0519 04       		.byte	0x4
 898 051a C6040000 		.4byte	0x4c6
ARM GAS  C:\Users\jsyoon\AppData\Local\Temp\ccnrVRrQ.s 			page 17


 899 051e 03       		.uleb128 0x3
 900 051f 00000000 		.4byte	.LASF72
 901 0523 07       		.byte	0x7
 902 0524 E5       		.byte	0xe5
 903 0525 29050000 		.4byte	0x529
 904 0529 09       		.uleb128 0x9
 905 052a 04       		.byte	0x4
 906 052b 2F050000 		.4byte	0x52f
 907 052f 11       		.uleb128 0x11
 908 0530 22010000 		.4byte	0x122
 909 0534 3E050000 		.4byte	0x53e
 910 0538 12       		.uleb128 0x12
 911 0539 A8020000 		.4byte	0x2a8
 912 053d 00       		.byte	0
 913 053e 02       		.uleb128 0x2
 914 053f 04       		.byte	0x4
 915 0540 04       		.byte	0x4
 916 0541 80040000 		.4byte	.LASF73
 917 0545 13       		.uleb128 0x13
 918 0546 01       		.byte	0x1
 919 0547 0B       		.byte	0xb
 920 0548 BD       		.byte	0xbd
 921 0549 84050000 		.4byte	0x584
 922 054d 14       		.uleb128 0x14
 923 054e AE060000 		.4byte	.LASF74
 924 0552 00       		.sleb128 0
 925 0553 14       		.uleb128 0x14
 926 0554 EA050000 		.4byte	.LASF75
 927 0558 01       		.sleb128 1
 928 0559 14       		.uleb128 0x14
 929 055a 08050000 		.4byte	.LASF76
 930 055e 02       		.sleb128 2
 931 055f 14       		.uleb128 0x14
 932 0560 AD040000 		.4byte	.LASF77
 933 0564 03       		.sleb128 3
 934 0565 14       		.uleb128 0x14
 935 0566 DF060000 		.4byte	.LASF78
 936 056a 04       		.sleb128 4
 937 056b 14       		.uleb128 0x14
 938 056c 5F060000 		.4byte	.LASF79
 939 0570 05       		.sleb128 5
 940 0571 14       		.uleb128 0x14
 941 0572 79010000 		.4byte	.LASF80
 942 0576 06       		.sleb128 6
 943 0577 14       		.uleb128 0x14
 944 0578 C1020000 		.4byte	.LASF81
 945 057c 07       		.sleb128 7
 946 057d 14       		.uleb128 0x14
 947 057e 3A060000 		.4byte	.LASF82
 948 0582 08       		.sleb128 8
 949 0583 00       		.byte	0
 950 0584 03       		.uleb128 0x3
 951 0585 73000000 		.4byte	.LASF83
 952 0589 0B       		.byte	0xb
 953 058a C7       		.byte	0xc7
 954 058b 45050000 		.4byte	0x545
 955 058f 08       		.uleb128 0x8
ARM GAS  C:\Users\jsyoon\AppData\Local\Temp\ccnrVRrQ.s 			page 18


 956 0590 28       		.byte	0x28
 957 0591 0B       		.byte	0xb
 958 0592 C9       		.byte	0xc9
 959 0593 3F060000 		.4byte	0x63f
 960 0597 06       		.uleb128 0x6
 961 0598 4E000000 		.4byte	.LASF84
 962 059c 0B       		.byte	0xb
 963 059d CA       		.byte	0xca
 964 059e 84050000 		.4byte	0x584
 965 05a2 00       		.byte	0
 966 05a3 06       		.uleb128 0x6
 967 05a4 3D040000 		.4byte	.LASF85
 968 05a8 0B       		.byte	0xb
 969 05a9 CB       		.byte	0xcb
 970 05aa 3E050000 		.4byte	0x53e
 971 05ae 04       		.byte	0x4
 972 05af 06       		.uleb128 0x6
 973 05b0 84000000 		.4byte	.LASF86
 974 05b4 0B       		.byte	0xb
 975 05b5 CC       		.byte	0xcc
 976 05b6 3E050000 		.4byte	0x53e
 977 05ba 08       		.byte	0x8
 978 05bb 06       		.uleb128 0x6
 979 05bc 84030000 		.4byte	.LASF87
 980 05c0 0B       		.byte	0xb
 981 05c1 CD       		.byte	0xcd
 982 05c2 3E050000 		.4byte	0x53e
 983 05c6 0C       		.byte	0xc
 984 05c7 06       		.uleb128 0x6
 985 05c8 9A040000 		.4byte	.LASF88
 986 05cc 0B       		.byte	0xb
 987 05cd CE       		.byte	0xce
 988 05ce E4000000 		.4byte	0xe4
 989 05d2 10       		.byte	0x10
 990 05d3 06       		.uleb128 0x6
 991 05d4 A5000000 		.4byte	.LASF89
 992 05d8 0B       		.byte	0xb
 993 05d9 CF       		.byte	0xcf
 994 05da E4000000 		.4byte	0xe4
 995 05de 11       		.byte	0x11
 996 05df 06       		.uleb128 0x6
 997 05e0 7E050000 		.4byte	.LASF90
 998 05e4 0B       		.byte	0xb
 999 05e5 D0       		.byte	0xd0
 1000 05e6 E4000000 		.4byte	0xe4
 1001 05ea 12       		.byte	0x12
 1002 05eb 06       		.uleb128 0x6
 1003 05ec 08000000 		.4byte	.LASF91
 1004 05f0 0B       		.byte	0xb
 1005 05f1 D1       		.byte	0xd1
 1006 05f2 E4000000 		.4byte	0xe4
 1007 05f6 13       		.byte	0x13
 1008 05f7 06       		.uleb128 0x6
 1009 05f8 62040000 		.4byte	.LASF92
 1010 05fc 0B       		.byte	0xb
 1011 05fd D2       		.byte	0xd2
 1012 05fe 3E050000 		.4byte	0x53e
ARM GAS  C:\Users\jsyoon\AppData\Local\Temp\ccnrVRrQ.s 			page 19


 1013 0602 14       		.byte	0x14
 1014 0603 06       		.uleb128 0x6
 1015 0604 E9030000 		.4byte	.LASF93
 1016 0608 0B       		.byte	0xb
 1017 0609 D3       		.byte	0xd3
 1018 060a 3E050000 		.4byte	0x53e
 1019 060e 18       		.byte	0x18
 1020 060f 06       		.uleb128 0x6
 1021 0610 D4040000 		.4byte	.LASF94
 1022 0614 0B       		.byte	0xb
 1023 0615 D4       		.byte	0xd4
 1024 0616 E4000000 		.4byte	0xe4
 1025 061a 1C       		.byte	0x1c
 1026 061b 07       		.uleb128 0x7
 1027 061c 746300   		.ascii	"tc\000"
 1028 061f 0B       		.byte	0xb
 1029 0620 D5       		.byte	0xd5
 1030 0621 E4000000 		.4byte	0xe4
 1031 0625 1D       		.byte	0x1d
 1032 0626 06       		.uleb128 0x6
 1033 0627 BD000000 		.4byte	.LASF95
 1034 062b 0B       		.byte	0xb
 1035 062c D6       		.byte	0xd6
 1036 062d 3E050000 		.4byte	0x53e
 1037 0631 20       		.byte	0x20
 1038 0632 06       		.uleb128 0x6
 1039 0633 AF030000 		.4byte	.LASF96
 1040 0637 0B       		.byte	0xb
 1041 0638 D7       		.byte	0xd7
 1042 0639 C3000000 		.4byte	0xc3
 1043 063d 24       		.byte	0x24
 1044 063e 00       		.byte	0
 1045 063f 03       		.uleb128 0x3
 1046 0640 C6030000 		.4byte	.LASF97
 1047 0644 0B       		.byte	0xb
 1048 0645 D8       		.byte	0xd8
 1049 0646 8F050000 		.4byte	0x58f
 1050 064a 0D       		.uleb128 0xd
 1051 064b B8000000 		.4byte	0xb8
 1052 064f 08       		.uleb128 0x8
 1053 0650 04       		.byte	0x4
 1054 0651 0C       		.byte	0xc
 1055 0652 96       		.byte	0x96
 1056 0653 70060000 		.4byte	0x670
 1057 0657 07       		.uleb128 0x7
 1058 0658 73657400 		.ascii	"set\000"
 1059 065c 0C       		.byte	0xc
 1060 065d 97       		.byte	0x97
 1061 065e AD000000 		.4byte	0xad
 1062 0662 00       		.byte	0
 1063 0663 06       		.uleb128 0x6
 1064 0664 67050000 		.4byte	.LASF98
 1065 0668 0C       		.byte	0xc
 1066 0669 98       		.byte	0x98
 1067 066a AD000000 		.4byte	0xad
 1068 066e 02       		.byte	0x2
 1069 066f 00       		.byte	0
ARM GAS  C:\Users\jsyoon\AppData\Local\Temp\ccnrVRrQ.s 			page 20


 1070 0670 0E       		.uleb128 0xe
 1071 0671 04       		.byte	0x4
 1072 0672 0C       		.byte	0xc
 1073 0673 94       		.byte	0x94
 1074 0674 8B060000 		.4byte	0x68b
 1075 0678 15       		.uleb128 0x15
 1076 0679 5700     		.ascii	"W\000"
 1077 067b 0C       		.byte	0xc
 1078 067c 95       		.byte	0x95
 1079 067d C3000000 		.4byte	0xc3
 1080 0681 15       		.uleb128 0x15
 1081 0682 4800     		.ascii	"H\000"
 1082 0684 0C       		.byte	0xc
 1083 0685 99       		.byte	0x99
 1084 0686 4F060000 		.4byte	0x64f
 1085 068a 00       		.byte	0
 1086 068b 08       		.uleb128 0x8
 1087 068c 28       		.byte	0x28
 1088 068d 0C       		.byte	0xc
 1089 068e 8C       		.byte	0x8c
 1090 068f 0C070000 		.4byte	0x70c
 1091 0693 06       		.uleb128 0x6
 1092 0694 92000000 		.4byte	.LASF99
 1093 0698 0C       		.byte	0xc
 1094 0699 8E       		.byte	0x8e
 1095 069a 22040000 		.4byte	0x422
 1096 069e 00       		.byte	0
 1097 069f 06       		.uleb128 0x6
 1098 06a0 3D000000 		.4byte	.LASF100
 1099 06a4 0C       		.byte	0xc
 1100 06a5 8F       		.byte	0x8f
 1101 06a6 22040000 		.4byte	0x422
 1102 06aa 04       		.byte	0x4
 1103 06ab 06       		.uleb128 0x6
 1104 06ac F6020000 		.4byte	.LASF101
 1105 06b0 0C       		.byte	0xc
 1106 06b1 90       		.byte	0x90
 1107 06b2 22040000 		.4byte	0x422
 1108 06b6 08       		.byte	0x8
 1109 06b7 06       		.uleb128 0x6
 1110 06b8 4C030000 		.4byte	.LASF102
 1111 06bc 0C       		.byte	0xc
 1112 06bd 91       		.byte	0x91
 1113 06be 22040000 		.4byte	0x422
 1114 06c2 0C       		.byte	0xc
 1115 06c3 07       		.uleb128 0x7
 1116 06c4 49445200 		.ascii	"IDR\000"
 1117 06c8 0C       		.byte	0xc
 1118 06c9 92       		.byte	0x92
 1119 06ca 22040000 		.4byte	0x422
 1120 06ce 10       		.byte	0x10
 1121 06cf 07       		.uleb128 0x7
 1122 06d0 4F445200 		.ascii	"ODR\000"
 1123 06d4 0C       		.byte	0xc
 1124 06d5 93       		.byte	0x93
 1125 06d6 22040000 		.4byte	0x422
 1126 06da 14       		.byte	0x14
ARM GAS  C:\Users\jsyoon\AppData\Local\Temp\ccnrVRrQ.s 			page 21


 1127 06db 06       		.uleb128 0x6
 1128 06dc EA000000 		.4byte	.LASF103
 1129 06e0 0C       		.byte	0xc
 1130 06e1 9A       		.byte	0x9a
 1131 06e2 0C070000 		.4byte	0x70c
 1132 06e6 18       		.byte	0x18
 1133 06e7 06       		.uleb128 0x6
 1134 06e8 57050000 		.4byte	.LASF104
 1135 06ec 0C       		.byte	0xc
 1136 06ed 9B       		.byte	0x9b
 1137 06ee 22040000 		.4byte	0x422
 1138 06f2 1C       		.byte	0x1c
 1139 06f3 06       		.uleb128 0x6
 1140 06f4 86040000 		.4byte	.LASF105
 1141 06f8 0C       		.byte	0xc
 1142 06f9 9C       		.byte	0x9c
 1143 06fa 22040000 		.4byte	0x422
 1144 06fe 20       		.byte	0x20
 1145 06ff 06       		.uleb128 0x6
 1146 0700 7B040000 		.4byte	.LASF106
 1147 0704 0C       		.byte	0xc
 1148 0705 9D       		.byte	0x9d
 1149 0706 22040000 		.4byte	0x422
 1150 070a 24       		.byte	0x24
 1151 070b 00       		.byte	0
 1152 070c 0D       		.uleb128 0xd
 1153 070d 70060000 		.4byte	0x670
 1154 0711 03       		.uleb128 0x3
 1155 0712 3F030000 		.4byte	.LASF107
 1156 0716 0C       		.byte	0xc
 1157 0717 9E       		.byte	0x9e
 1158 0718 8B060000 		.4byte	0x68b
 1159 071c 03       		.uleb128 0x3
 1160 071d 66000000 		.4byte	.LASF108
 1161 0721 0C       		.byte	0xc
 1162 0722 F0       		.byte	0xf0
 1163 0723 C3000000 		.4byte	0xc3
 1164 0727 03       		.uleb128 0x3
 1165 0728 C7060000 		.4byte	.LASF109
 1166 072c 0C       		.byte	0xc
 1167 072d F5       		.byte	0xf5
 1168 072e C3000000 		.4byte	0xc3
 1169 0732 03       		.uleb128 0x3
 1170 0733 00060000 		.4byte	.LASF110
 1171 0737 0C       		.byte	0xc
 1172 0738 FD       		.byte	0xfd
 1173 0739 3D070000 		.4byte	0x73d
 1174 073d 09       		.uleb128 0x9
 1175 073e 04       		.byte	0x4
 1176 073f 11070000 		.4byte	0x711
 1177 0743 02       		.uleb128 0x2
 1178 0744 08       		.byte	0x8
 1179 0745 04       		.byte	0x4
 1180 0746 D8060000 		.4byte	.LASF111
 1181 074a 02       		.uleb128 0x2
 1182 074b 08       		.byte	0x8
 1183 074c 04       		.byte	0x4
ARM GAS  C:\Users\jsyoon\AppData\Local\Temp\ccnrVRrQ.s 			page 22


 1184 074d A8050000 		.4byte	.LASF112
 1185 0751 16       		.uleb128 0x16
 1186 0752 12030000 		.4byte	.LASF130
 1187 0756 01       		.byte	0x1
 1188 0757 45       		.byte	0x45
 1189 0758 22010000 		.4byte	0x122
 1190 075c 00000000 		.4byte	.LFB122
 1191 0760 24000000 		.4byte	.LFE122-.LFB122
 1192 0764 01       		.uleb128 0x1
 1193 0765 9C       		.byte	0x9c
 1194 0766 99070000 		.4byte	0x799
 1195 076a 17       		.uleb128 0x17
 1196 076b 61726700 		.ascii	"arg\000"
 1197 076f 01       		.byte	0x1
 1198 0770 45       		.byte	0x45
 1199 0771 A8020000 		.4byte	0x2a8
 1200 0775 00000000 		.4byte	.LLST0
 1201 0779 18       		.uleb128 0x18
 1202 077a 14000000 		.4byte	.LVL2
 1203 077e B9080000 		.4byte	0x8b9
 1204 0782 19       		.uleb128 0x19
 1205 0783 01       		.uleb128 0x1
 1206 0784 52       		.byte	0x52
 1207 0785 02       		.uleb128 0x2
 1208 0786 08       		.byte	0x8
 1209 0787 20       		.byte	0x20
 1210 0788 19       		.uleb128 0x19
 1211 0789 01       		.uleb128 0x1
 1212 078a 51       		.byte	0x51
 1213 078b 02       		.uleb128 0x2
 1214 078c 08       		.byte	0x8
 1215 078d 20       		.byte	0x20
 1216 078e 19       		.uleb128 0x19
 1217 078f 01       		.uleb128 0x1
 1218 0790 50       		.byte	0x50
 1219 0791 05       		.uleb128 0x5
 1220 0792 0C       		.byte	0xc
 1221 0793 00040240 		.4byte	0x40020400
 1222 0797 00       		.byte	0
 1223 0798 00       		.byte	0
 1224 0799 1A       		.uleb128 0x1a
 1225 079a 18070000 		.4byte	.LASF114
 1226 079e 01       		.byte	0x1
 1227 079f 34       		.byte	0x34
 1228 07a0 00000000 		.4byte	.LFB118
 1229 07a4 28000000 		.4byte	.LFE118-.LFB118
 1230 07a8 01       		.uleb128 0x1
 1231 07a9 9C       		.byte	0x9c
 1232 07aa BE070000 		.4byte	0x7be
 1233 07ae 1B       		.uleb128 0x1b
 1234 07af 32010000 		.4byte	.LASF113
 1235 07b3 01       		.byte	0x1
 1236 07b4 34       		.byte	0x34
 1237 07b5 BE070000 		.4byte	0x7be
 1238 07b9 21000000 		.4byte	.LLST1
 1239 07bd 00       		.byte	0
 1240 07be 09       		.uleb128 0x9
ARM GAS  C:\Users\jsyoon\AppData\Local\Temp\ccnrVRrQ.s 			page 23


 1241 07bf 04       		.byte	0x4
 1242 07c0 3F060000 		.4byte	0x63f
 1243 07c4 1A       		.uleb128 0x1a
 1244 07c5 1D030000 		.4byte	.LASF115
 1245 07c9 01       		.byte	0x1
 1246 07ca 39       		.byte	0x39
 1247 07cb 00000000 		.4byte	.LFB119
 1248 07cf 24000000 		.4byte	.LFE119-.LFB119
 1249 07d3 01       		.uleb128 0x1
 1250 07d4 9C       		.byte	0x9c
 1251 07d5 09080000 		.4byte	0x809
 1252 07d9 18       		.uleb128 0x18
 1253 07da 16000000 		.4byte	.LVL7
 1254 07de D5080000 		.4byte	0x8d5
 1255 07e2 19       		.uleb128 0x19
 1256 07e3 01       		.uleb128 0x1
 1257 07e4 53       		.byte	0x53
 1258 07e5 05       		.uleb128 0x5
 1259 07e6 03       		.byte	0x3
 1260 07e7 00000000 		.4byte	adc_thread
 1261 07eb 19       		.uleb128 0x19
 1262 07ec 01       		.uleb128 0x1
 1263 07ed 52       		.byte	0x52
 1264 07ee 02       		.uleb128 0x2
 1265 07ef 08       		.byte	0x8
 1266 07f0 40       		.byte	0x40
 1267 07f1 19       		.uleb128 0x19
 1268 07f2 01       		.uleb128 0x1
 1269 07f3 51       		.byte	0x51
 1270 07f4 03       		.uleb128 0x3
 1271 07f5 0A       		.byte	0xa
 1272 07f6 9805     		.2byte	0x598
 1273 07f8 19       		.uleb128 0x19
 1274 07f9 01       		.uleb128 0x1
 1275 07fa 50       		.byte	0x50
 1276 07fb 05       		.uleb128 0x5
 1277 07fc 03       		.byte	0x3
 1278 07fd 00000000 		.4byte	.LANCHOR2
 1279 0801 19       		.uleb128 0x19
 1280 0802 02       		.uleb128 0x2
 1281 0803 7D       		.byte	0x7d
 1282 0804 00       		.sleb128 0
 1283 0805 01       		.uleb128 0x1
 1284 0806 30       		.byte	0x30
 1285 0807 00       		.byte	0
 1286 0808 00       		.byte	0
 1287 0809 1C       		.uleb128 0x1c
 1288 080a 8E050000 		.4byte	.LASF116
 1289 080e 01       		.byte	0x1
 1290 080f 3D       		.byte	0x3d
 1291 0810 3E050000 		.4byte	0x53e
 1292 0814 00000000 		.4byte	.LFB120
 1293 0818 0C000000 		.4byte	.LFE120-.LFB120
 1294 081c 01       		.uleb128 0x1
 1295 081d 9C       		.byte	0x9c
 1296 081e 1C       		.uleb128 0x1c
 1297 081f F5030000 		.4byte	.LASF117
ARM GAS  C:\Users\jsyoon\AppData\Local\Temp\ccnrVRrQ.s 			page 24


 1298 0823 01       		.byte	0x1
 1299 0824 41       		.byte	0x41
 1300 0825 3E050000 		.4byte	0x53e
 1301 0829 00000000 		.4byte	.LFB121
 1302 082d 0C000000 		.4byte	.LFE121-.LFB121
 1303 0831 01       		.uleb128 0x1
 1304 0832 9C       		.byte	0x9c
 1305 0833 1D       		.uleb128 0x1d
 1306 0834 AA020000 		.4byte	0x2aa
 1307 0838 43080000 		.4byte	0x843
 1308 083c 1E       		.uleb128 0x1e
 1309 083d 27040000 		.4byte	0x427
 1310 0841 B2       		.byte	0xb2
 1311 0842 00       		.byte	0
 1312 0843 1F       		.uleb128 0x1f
 1313 0844 E8020000 		.4byte	.LASF118
 1314 0848 01       		.byte	0x1
 1315 0849 2C       		.byte	0x2c
 1316 084a 33080000 		.4byte	0x833
 1317 084e 05       		.uleb128 0x5
 1318 084f 03       		.byte	0x3
 1319 0850 00000000 		.4byte	adc_thread_wa
 1320 0854 1F       		.uleb128 0x1f
 1321 0855 38030000 		.4byte	.LASF119
 1322 0859 01       		.byte	0x1
 1323 085a 2F       		.byte	0x2f
 1324 085b 65080000 		.4byte	0x865
 1325 085f 05       		.uleb128 0x5
 1326 0860 03       		.byte	0x3
 1327 0861 00000000 		.4byte	config
 1328 0865 0D       		.uleb128 0xd
 1329 0866 3F060000 		.4byte	0x63f
 1330 086a 1F       		.uleb128 0x1f
 1331 086b 9E030000 		.4byte	.LASF120
 1332 086f 01       		.byte	0x1
 1333 0870 30       		.byte	0x30
 1334 0871 7B080000 		.4byte	0x87b
 1335 0875 05       		.uleb128 0x5
 1336 0876 03       		.byte	0x3
 1337 0877 00000000 		.4byte	ms_without_power
 1338 087b 0D       		.uleb128 0xd
 1339 087c 3E050000 		.4byte	0x53e
 1340 0880 1F       		.uleb128 0x1f
 1341 0881 58000000 		.4byte	.LASF121
 1342 0885 01       		.byte	0x1
 1343 0886 31       		.byte	0x31
 1344 0887 7B080000 		.4byte	0x87b
 1345 088b 05       		.uleb128 0x5
 1346 088c 03       		.byte	0x3
 1347 088d 00000000 		.4byte	decoded_level
 1348 0891 1F       		.uleb128 0x1f
 1349 0892 19000000 		.4byte	.LASF122
 1350 0896 01       		.byte	0x1
 1351 0897 32       		.byte	0x32
 1352 0898 7B080000 		.4byte	0x87b
 1353 089c 05       		.uleb128 0x5
 1354 089d 03       		.byte	0x3
ARM GAS  C:\Users\jsyoon\AppData\Local\Temp\ccnrVRrQ.s 			page 25


 1355 089e 00000000 		.4byte	read_voltage
 1356 08a2 20       		.uleb128 0x20
 1357 08a3 92060000 		.4byte	.LASF123
 1358 08a7 09       		.byte	0x9
 1359 08a8 6F       		.byte	0x6f
 1360 08a9 84040000 		.4byte	0x484
 1361 08ad 21       		.uleb128 0x21
 1362 08ae B0000000 		.4byte	.LASF124
 1363 08b2 0D       		.byte	0xd
 1364 08b3 9806     		.2byte	0x698
 1365 08b5 4A060000 		.4byte	0x64a
 1366 08b9 22       		.uleb128 0x22
 1367 08ba 12060000 		.4byte	.LASF125
 1368 08be 0C       		.byte	0xc
 1369 08bf C201     		.2byte	0x1c2
 1370 08c1 D5080000 		.4byte	0x8d5
 1371 08c5 12       		.uleb128 0x12
 1372 08c6 32070000 		.4byte	0x732
 1373 08ca 12       		.uleb128 0x12
 1374 08cb 1C070000 		.4byte	0x71c
 1375 08cf 12       		.uleb128 0x12
 1376 08d0 27070000 		.4byte	0x727
 1377 08d4 00       		.byte	0
 1378 08d5 23       		.uleb128 0x23
 1379 08d6 1A040000 		.4byte	.LASF126
 1380 08da 07       		.byte	0x7
 1381 08db 7001     		.2byte	0x170
 1382 08dd 6C020000 		.4byte	0x26c
 1383 08e1 12       		.uleb128 0x12
 1384 08e2 A8020000 		.4byte	0x2a8
 1385 08e6 12       		.uleb128 0x12
 1386 08e7 D9000000 		.4byte	0xd9
 1387 08eb 12       		.uleb128 0x12
 1388 08ec 17010000 		.4byte	0x117
 1389 08f0 12       		.uleb128 0x12
 1390 08f1 1E050000 		.4byte	0x51e
 1391 08f5 12       		.uleb128 0x12
 1392 08f6 A8020000 		.4byte	0x2a8
 1393 08fa 00       		.byte	0
 1394 08fb 00       		.byte	0
 1395              		.section	.debug_abbrev,"",%progbits
 1396              	.Ldebug_abbrev0:
 1397 0000 01       		.uleb128 0x1
 1398 0001 11       		.uleb128 0x11
 1399 0002 01       		.byte	0x1
 1400 0003 25       		.uleb128 0x25
 1401 0004 0E       		.uleb128 0xe
 1402 0005 13       		.uleb128 0x13
 1403 0006 0B       		.uleb128 0xb
 1404 0007 03       		.uleb128 0x3
 1405 0008 0E       		.uleb128 0xe
 1406 0009 1B       		.uleb128 0x1b
 1407 000a 0E       		.uleb128 0xe
 1408 000b 55       		.uleb128 0x55
 1409 000c 17       		.uleb128 0x17
 1410 000d 11       		.uleb128 0x11
 1411 000e 01       		.uleb128 0x1
ARM GAS  C:\Users\jsyoon\AppData\Local\Temp\ccnrVRrQ.s 			page 26


 1412 000f 10       		.uleb128 0x10
 1413 0010 17       		.uleb128 0x17
 1414 0011 00       		.byte	0
 1415 0012 00       		.byte	0
 1416 0013 02       		.uleb128 0x2
 1417 0014 24       		.uleb128 0x24
 1418 0015 00       		.byte	0
 1419 0016 0B       		.uleb128 0xb
 1420 0017 0B       		.uleb128 0xb
 1421 0018 3E       		.uleb128 0x3e
 1422 0019 0B       		.uleb128 0xb
 1423 001a 03       		.uleb128 0x3
 1424 001b 0E       		.uleb128 0xe
 1425 001c 00       		.byte	0
 1426 001d 00       		.byte	0
 1427 001e 03       		.uleb128 0x3
 1428 001f 16       		.uleb128 0x16
 1429 0020 00       		.byte	0
 1430 0021 03       		.uleb128 0x3
 1431 0022 0E       		.uleb128 0xe
 1432 0023 3A       		.uleb128 0x3a
 1433 0024 0B       		.uleb128 0xb
 1434 0025 3B       		.uleb128 0x3b
 1435 0026 0B       		.uleb128 0xb
 1436 0027 49       		.uleb128 0x49
 1437 0028 13       		.uleb128 0x13
 1438 0029 00       		.byte	0
 1439 002a 00       		.byte	0
 1440 002b 04       		.uleb128 0x4
 1441 002c 24       		.uleb128 0x24
 1442 002d 00       		.byte	0
 1443 002e 0B       		.uleb128 0xb
 1444 002f 0B       		.uleb128 0xb
 1445 0030 3E       		.uleb128 0x3e
 1446 0031 0B       		.uleb128 0xb
 1447 0032 03       		.uleb128 0x3
 1448 0033 08       		.uleb128 0x8
 1449 0034 00       		.byte	0
 1450 0035 00       		.byte	0
 1451 0036 05       		.uleb128 0x5
 1452 0037 13       		.uleb128 0x13
 1453 0038 01       		.byte	0x1
 1454 0039 03       		.uleb128 0x3
 1455 003a 0E       		.uleb128 0xe
 1456 003b 0B       		.uleb128 0xb
 1457 003c 0B       		.uleb128 0xb
 1458 003d 3A       		.uleb128 0x3a
 1459 003e 0B       		.uleb128 0xb
 1460 003f 3B       		.uleb128 0x3b
 1461 0040 0B       		.uleb128 0xb
 1462 0041 01       		.uleb128 0x1
 1463 0042 13       		.uleb128 0x13
 1464 0043 00       		.byte	0
 1465 0044 00       		.byte	0
 1466 0045 06       		.uleb128 0x6
 1467 0046 0D       		.uleb128 0xd
 1468 0047 00       		.byte	0
ARM GAS  C:\Users\jsyoon\AppData\Local\Temp\ccnrVRrQ.s 			page 27


 1469 0048 03       		.uleb128 0x3
 1470 0049 0E       		.uleb128 0xe
 1471 004a 3A       		.uleb128 0x3a
 1472 004b 0B       		.uleb128 0xb
 1473 004c 3B       		.uleb128 0x3b
 1474 004d 0B       		.uleb128 0xb
 1475 004e 49       		.uleb128 0x49
 1476 004f 13       		.uleb128 0x13
 1477 0050 38       		.uleb128 0x38
 1478 0051 0B       		.uleb128 0xb
 1479 0052 00       		.byte	0
 1480 0053 00       		.byte	0
 1481 0054 07       		.uleb128 0x7
 1482 0055 0D       		.uleb128 0xd
 1483 0056 00       		.byte	0
 1484 0057 03       		.uleb128 0x3
 1485 0058 08       		.uleb128 0x8
 1486 0059 3A       		.uleb128 0x3a
 1487 005a 0B       		.uleb128 0xb
 1488 005b 3B       		.uleb128 0x3b
 1489 005c 0B       		.uleb128 0xb
 1490 005d 49       		.uleb128 0x49
 1491 005e 13       		.uleb128 0x13
 1492 005f 38       		.uleb128 0x38
 1493 0060 0B       		.uleb128 0xb
 1494 0061 00       		.byte	0
 1495 0062 00       		.byte	0
 1496 0063 08       		.uleb128 0x8
 1497 0064 13       		.uleb128 0x13
 1498 0065 01       		.byte	0x1
 1499 0066 0B       		.uleb128 0xb
 1500 0067 0B       		.uleb128 0xb
 1501 0068 3A       		.uleb128 0x3a
 1502 0069 0B       		.uleb128 0xb
 1503 006a 3B       		.uleb128 0x3b
 1504 006b 0B       		.uleb128 0xb
 1505 006c 01       		.uleb128 0x1
 1506 006d 13       		.uleb128 0x13
 1507 006e 00       		.byte	0
 1508 006f 00       		.byte	0
 1509 0070 09       		.uleb128 0x9
 1510 0071 0F       		.uleb128 0xf
 1511 0072 00       		.byte	0
 1512 0073 0B       		.uleb128 0xb
 1513 0074 0B       		.uleb128 0xb
 1514 0075 49       		.uleb128 0x49
 1515 0076 13       		.uleb128 0x13
 1516 0077 00       		.byte	0
 1517 0078 00       		.byte	0
 1518 0079 0A       		.uleb128 0xa
 1519 007a 0F       		.uleb128 0xf
 1520 007b 00       		.byte	0
 1521 007c 0B       		.uleb128 0xb
 1522 007d 0B       		.uleb128 0xb
 1523 007e 00       		.byte	0
 1524 007f 00       		.byte	0
 1525 0080 0B       		.uleb128 0xb
ARM GAS  C:\Users\jsyoon\AppData\Local\Temp\ccnrVRrQ.s 			page 28


 1526 0081 13       		.uleb128 0x13
 1527 0082 01       		.byte	0x1
 1528 0083 03       		.uleb128 0x3
 1529 0084 0E       		.uleb128 0xe
 1530 0085 0B       		.uleb128 0xb
 1531 0086 0B       		.uleb128 0xb
 1532 0087 3A       		.uleb128 0x3a
 1533 0088 0B       		.uleb128 0xb
 1534 0089 3B       		.uleb128 0x3b
 1535 008a 05       		.uleb128 0x5
 1536 008b 01       		.uleb128 0x1
 1537 008c 13       		.uleb128 0x13
 1538 008d 00       		.byte	0
 1539 008e 00       		.byte	0
 1540 008f 0C       		.uleb128 0xc
 1541 0090 0D       		.uleb128 0xd
 1542 0091 00       		.byte	0
 1543 0092 03       		.uleb128 0x3
 1544 0093 08       		.uleb128 0x8
 1545 0094 3A       		.uleb128 0x3a
 1546 0095 0B       		.uleb128 0xb
 1547 0096 3B       		.uleb128 0x3b
 1548 0097 05       		.uleb128 0x5
 1549 0098 49       		.uleb128 0x49
 1550 0099 13       		.uleb128 0x13
 1551 009a 38       		.uleb128 0x38
 1552 009b 0B       		.uleb128 0xb
 1553 009c 00       		.byte	0
 1554 009d 00       		.byte	0
 1555 009e 0D       		.uleb128 0xd
 1556 009f 35       		.uleb128 0x35
 1557 00a0 00       		.byte	0
 1558 00a1 49       		.uleb128 0x49
 1559 00a2 13       		.uleb128 0x13
 1560 00a3 00       		.byte	0
 1561 00a4 00       		.byte	0
 1562 00a5 0E       		.uleb128 0xe
 1563 00a6 17       		.uleb128 0x17
 1564 00a7 01       		.byte	0x1
 1565 00a8 0B       		.uleb128 0xb
 1566 00a9 0B       		.uleb128 0xb
 1567 00aa 3A       		.uleb128 0x3a
 1568 00ab 0B       		.uleb128 0xb
 1569 00ac 3B       		.uleb128 0x3b
 1570 00ad 0B       		.uleb128 0xb
 1571 00ae 01       		.uleb128 0x1
 1572 00af 13       		.uleb128 0x13
 1573 00b0 00       		.byte	0
 1574 00b1 00       		.byte	0
 1575 00b2 0F       		.uleb128 0xf
 1576 00b3 0D       		.uleb128 0xd
 1577 00b4 00       		.byte	0
 1578 00b5 03       		.uleb128 0x3
 1579 00b6 0E       		.uleb128 0xe
 1580 00b7 3A       		.uleb128 0x3a
 1581 00b8 0B       		.uleb128 0xb
 1582 00b9 3B       		.uleb128 0x3b
ARM GAS  C:\Users\jsyoon\AppData\Local\Temp\ccnrVRrQ.s 			page 29


 1583 00ba 0B       		.uleb128 0xb
 1584 00bb 49       		.uleb128 0x49
 1585 00bc 13       		.uleb128 0x13
 1586 00bd 00       		.byte	0
 1587 00be 00       		.byte	0
 1588 00bf 10       		.uleb128 0x10
 1589 00c0 26       		.uleb128 0x26
 1590 00c1 00       		.byte	0
 1591 00c2 49       		.uleb128 0x49
 1592 00c3 13       		.uleb128 0x13
 1593 00c4 00       		.byte	0
 1594 00c5 00       		.byte	0
 1595 00c6 11       		.uleb128 0x11
 1596 00c7 15       		.uleb128 0x15
 1597 00c8 01       		.byte	0x1
 1598 00c9 27       		.uleb128 0x27
 1599 00ca 19       		.uleb128 0x19
 1600 00cb 49       		.uleb128 0x49
 1601 00cc 13       		.uleb128 0x13
 1602 00cd 01       		.uleb128 0x1
 1603 00ce 13       		.uleb128 0x13
 1604 00cf 00       		.byte	0
 1605 00d0 00       		.byte	0
 1606 00d1 12       		.uleb128 0x12
 1607 00d2 05       		.uleb128 0x5
 1608 00d3 00       		.byte	0
 1609 00d4 49       		.uleb128 0x49
 1610 00d5 13       		.uleb128 0x13
 1611 00d6 00       		.byte	0
 1612 00d7 00       		.byte	0
 1613 00d8 13       		.uleb128 0x13
 1614 00d9 04       		.uleb128 0x4
 1615 00da 01       		.byte	0x1
 1616 00db 0B       		.uleb128 0xb
 1617 00dc 0B       		.uleb128 0xb
 1618 00dd 3A       		.uleb128 0x3a
 1619 00de 0B       		.uleb128 0xb
 1620 00df 3B       		.uleb128 0x3b
 1621 00e0 0B       		.uleb128 0xb
 1622 00e1 01       		.uleb128 0x1
 1623 00e2 13       		.uleb128 0x13
 1624 00e3 00       		.byte	0
 1625 00e4 00       		.byte	0
 1626 00e5 14       		.uleb128 0x14
 1627 00e6 28       		.uleb128 0x28
 1628 00e7 00       		.byte	0
 1629 00e8 03       		.uleb128 0x3
 1630 00e9 0E       		.uleb128 0xe
 1631 00ea 1C       		.uleb128 0x1c
 1632 00eb 0D       		.uleb128 0xd
 1633 00ec 00       		.byte	0
 1634 00ed 00       		.byte	0
 1635 00ee 15       		.uleb128 0x15
 1636 00ef 0D       		.uleb128 0xd
 1637 00f0 00       		.byte	0
 1638 00f1 03       		.uleb128 0x3
 1639 00f2 08       		.uleb128 0x8
ARM GAS  C:\Users\jsyoon\AppData\Local\Temp\ccnrVRrQ.s 			page 30


 1640 00f3 3A       		.uleb128 0x3a
 1641 00f4 0B       		.uleb128 0xb
 1642 00f5 3B       		.uleb128 0x3b
 1643 00f6 0B       		.uleb128 0xb
 1644 00f7 49       		.uleb128 0x49
 1645 00f8 13       		.uleb128 0x13
 1646 00f9 00       		.byte	0
 1647 00fa 00       		.byte	0
 1648 00fb 16       		.uleb128 0x16
 1649 00fc 2E       		.uleb128 0x2e
 1650 00fd 01       		.byte	0x1
 1651 00fe 03       		.uleb128 0x3
 1652 00ff 0E       		.uleb128 0xe
 1653 0100 3A       		.uleb128 0x3a
 1654 0101 0B       		.uleb128 0xb
 1655 0102 3B       		.uleb128 0x3b
 1656 0103 0B       		.uleb128 0xb
 1657 0104 27       		.uleb128 0x27
 1658 0105 19       		.uleb128 0x19
 1659 0106 49       		.uleb128 0x49
 1660 0107 13       		.uleb128 0x13
 1661 0108 11       		.uleb128 0x11
 1662 0109 01       		.uleb128 0x1
 1663 010a 12       		.uleb128 0x12
 1664 010b 06       		.uleb128 0x6
 1665 010c 40       		.uleb128 0x40
 1666 010d 18       		.uleb128 0x18
 1667 010e 9742     		.uleb128 0x2117
 1668 0110 19       		.uleb128 0x19
 1669 0111 01       		.uleb128 0x1
 1670 0112 13       		.uleb128 0x13
 1671 0113 00       		.byte	0
 1672 0114 00       		.byte	0
 1673 0115 17       		.uleb128 0x17
 1674 0116 05       		.uleb128 0x5
 1675 0117 00       		.byte	0
 1676 0118 03       		.uleb128 0x3
 1677 0119 08       		.uleb128 0x8
 1678 011a 3A       		.uleb128 0x3a
 1679 011b 0B       		.uleb128 0xb
 1680 011c 3B       		.uleb128 0x3b
 1681 011d 0B       		.uleb128 0xb
 1682 011e 49       		.uleb128 0x49
 1683 011f 13       		.uleb128 0x13
 1684 0120 02       		.uleb128 0x2
 1685 0121 17       		.uleb128 0x17
 1686 0122 00       		.byte	0
 1687 0123 00       		.byte	0
 1688 0124 18       		.uleb128 0x18
 1689 0125 898201   		.uleb128 0x4109
 1690 0128 01       		.byte	0x1
 1691 0129 11       		.uleb128 0x11
 1692 012a 01       		.uleb128 0x1
 1693 012b 31       		.uleb128 0x31
 1694 012c 13       		.uleb128 0x13
 1695 012d 00       		.byte	0
 1696 012e 00       		.byte	0
ARM GAS  C:\Users\jsyoon\AppData\Local\Temp\ccnrVRrQ.s 			page 31


 1697 012f 19       		.uleb128 0x19
 1698 0130 8A8201   		.uleb128 0x410a
 1699 0133 00       		.byte	0
 1700 0134 02       		.uleb128 0x2
 1701 0135 18       		.uleb128 0x18
 1702 0136 9142     		.uleb128 0x2111
 1703 0138 18       		.uleb128 0x18
 1704 0139 00       		.byte	0
 1705 013a 00       		.byte	0
 1706 013b 1A       		.uleb128 0x1a
 1707 013c 2E       		.uleb128 0x2e
 1708 013d 01       		.byte	0x1
 1709 013e 3F       		.uleb128 0x3f
 1710 013f 19       		.uleb128 0x19
 1711 0140 03       		.uleb128 0x3
 1712 0141 0E       		.uleb128 0xe
 1713 0142 3A       		.uleb128 0x3a
 1714 0143 0B       		.uleb128 0xb
 1715 0144 3B       		.uleb128 0x3b
 1716 0145 0B       		.uleb128 0xb
 1717 0146 27       		.uleb128 0x27
 1718 0147 19       		.uleb128 0x19
 1719 0148 11       		.uleb128 0x11
 1720 0149 01       		.uleb128 0x1
 1721 014a 12       		.uleb128 0x12
 1722 014b 06       		.uleb128 0x6
 1723 014c 40       		.uleb128 0x40
 1724 014d 18       		.uleb128 0x18
 1725 014e 9742     		.uleb128 0x2117
 1726 0150 19       		.uleb128 0x19
 1727 0151 01       		.uleb128 0x1
 1728 0152 13       		.uleb128 0x13
 1729 0153 00       		.byte	0
 1730 0154 00       		.byte	0
 1731 0155 1B       		.uleb128 0x1b
 1732 0156 05       		.uleb128 0x5
 1733 0157 00       		.byte	0
 1734 0158 03       		.uleb128 0x3
 1735 0159 0E       		.uleb128 0xe
 1736 015a 3A       		.uleb128 0x3a
 1737 015b 0B       		.uleb128 0xb
 1738 015c 3B       		.uleb128 0x3b
 1739 015d 0B       		.uleb128 0xb
 1740 015e 49       		.uleb128 0x49
 1741 015f 13       		.uleb128 0x13
 1742 0160 02       		.uleb128 0x2
 1743 0161 17       		.uleb128 0x17
 1744 0162 00       		.byte	0
 1745 0163 00       		.byte	0
 1746 0164 1C       		.uleb128 0x1c
 1747 0165 2E       		.uleb128 0x2e
 1748 0166 00       		.byte	0
 1749 0167 3F       		.uleb128 0x3f
 1750 0168 19       		.uleb128 0x19
 1751 0169 03       		.uleb128 0x3
 1752 016a 0E       		.uleb128 0xe
 1753 016b 3A       		.uleb128 0x3a
ARM GAS  C:\Users\jsyoon\AppData\Local\Temp\ccnrVRrQ.s 			page 32


 1754 016c 0B       		.uleb128 0xb
 1755 016d 3B       		.uleb128 0x3b
 1756 016e 0B       		.uleb128 0xb
 1757 016f 27       		.uleb128 0x27
 1758 0170 19       		.uleb128 0x19
 1759 0171 49       		.uleb128 0x49
 1760 0172 13       		.uleb128 0x13
 1761 0173 11       		.uleb128 0x11
 1762 0174 01       		.uleb128 0x1
 1763 0175 12       		.uleb128 0x12
 1764 0176 06       		.uleb128 0x6
 1765 0177 40       		.uleb128 0x40
 1766 0178 18       		.uleb128 0x18
 1767 0179 9742     		.uleb128 0x2117
 1768 017b 19       		.uleb128 0x19
 1769 017c 00       		.byte	0
 1770 017d 00       		.byte	0
 1771 017e 1D       		.uleb128 0x1d
 1772 017f 01       		.uleb128 0x1
 1773 0180 01       		.byte	0x1
 1774 0181 49       		.uleb128 0x49
 1775 0182 13       		.uleb128 0x13
 1776 0183 01       		.uleb128 0x1
 1777 0184 13       		.uleb128 0x13
 1778 0185 00       		.byte	0
 1779 0186 00       		.byte	0
 1780 0187 1E       		.uleb128 0x1e
 1781 0188 21       		.uleb128 0x21
 1782 0189 00       		.byte	0
 1783 018a 49       		.uleb128 0x49
 1784 018b 13       		.uleb128 0x13
 1785 018c 2F       		.uleb128 0x2f
 1786 018d 0B       		.uleb128 0xb
 1787 018e 00       		.byte	0
 1788 018f 00       		.byte	0
 1789 0190 1F       		.uleb128 0x1f
 1790 0191 34       		.uleb128 0x34
 1791 0192 00       		.byte	0
 1792 0193 03       		.uleb128 0x3
 1793 0194 0E       		.uleb128 0xe
 1794 0195 3A       		.uleb128 0x3a
 1795 0196 0B       		.uleb128 0xb
 1796 0197 3B       		.uleb128 0x3b
 1797 0198 0B       		.uleb128 0xb
 1798 0199 49       		.uleb128 0x49
 1799 019a 13       		.uleb128 0x13
 1800 019b 02       		.uleb128 0x2
 1801 019c 18       		.uleb128 0x18
 1802 019d 00       		.byte	0
 1803 019e 00       		.byte	0
 1804 019f 20       		.uleb128 0x20
 1805 01a0 34       		.uleb128 0x34
 1806 01a1 00       		.byte	0
 1807 01a2 03       		.uleb128 0x3
 1808 01a3 0E       		.uleb128 0xe
 1809 01a4 3A       		.uleb128 0x3a
 1810 01a5 0B       		.uleb128 0xb
ARM GAS  C:\Users\jsyoon\AppData\Local\Temp\ccnrVRrQ.s 			page 33


 1811 01a6 3B       		.uleb128 0x3b
 1812 01a7 0B       		.uleb128 0xb
 1813 01a8 49       		.uleb128 0x49
 1814 01a9 13       		.uleb128 0x13
 1815 01aa 3F       		.uleb128 0x3f
 1816 01ab 19       		.uleb128 0x19
 1817 01ac 3C       		.uleb128 0x3c
 1818 01ad 19       		.uleb128 0x19
 1819 01ae 00       		.byte	0
 1820 01af 00       		.byte	0
 1821 01b0 21       		.uleb128 0x21
 1822 01b1 34       		.uleb128 0x34
 1823 01b2 00       		.byte	0
 1824 01b3 03       		.uleb128 0x3
 1825 01b4 0E       		.uleb128 0xe
 1826 01b5 3A       		.uleb128 0x3a
 1827 01b6 0B       		.uleb128 0xb
 1828 01b7 3B       		.uleb128 0x3b
 1829 01b8 05       		.uleb128 0x5
 1830 01b9 49       		.uleb128 0x49
 1831 01ba 13       		.uleb128 0x13
 1832 01bb 3F       		.uleb128 0x3f
 1833 01bc 19       		.uleb128 0x19
 1834 01bd 3C       		.uleb128 0x3c
 1835 01be 19       		.uleb128 0x19
 1836 01bf 00       		.byte	0
 1837 01c0 00       		.byte	0
 1838 01c1 22       		.uleb128 0x22
 1839 01c2 2E       		.uleb128 0x2e
 1840 01c3 01       		.byte	0x1
 1841 01c4 3F       		.uleb128 0x3f
 1842 01c5 19       		.uleb128 0x19
 1843 01c6 03       		.uleb128 0x3
 1844 01c7 0E       		.uleb128 0xe
 1845 01c8 3A       		.uleb128 0x3a
 1846 01c9 0B       		.uleb128 0xb
 1847 01ca 3B       		.uleb128 0x3b
 1848 01cb 05       		.uleb128 0x5
 1849 01cc 27       		.uleb128 0x27
 1850 01cd 19       		.uleb128 0x19
 1851 01ce 3C       		.uleb128 0x3c
 1852 01cf 19       		.uleb128 0x19
 1853 01d0 01       		.uleb128 0x1
 1854 01d1 13       		.uleb128 0x13
 1855 01d2 00       		.byte	0
 1856 01d3 00       		.byte	0
 1857 01d4 23       		.uleb128 0x23
 1858 01d5 2E       		.uleb128 0x2e
 1859 01d6 01       		.byte	0x1
 1860 01d7 3F       		.uleb128 0x3f
 1861 01d8 19       		.uleb128 0x19
 1862 01d9 03       		.uleb128 0x3
 1863 01da 0E       		.uleb128 0xe
 1864 01db 3A       		.uleb128 0x3a
 1865 01dc 0B       		.uleb128 0xb
 1866 01dd 3B       		.uleb128 0x3b
 1867 01de 05       		.uleb128 0x5
ARM GAS  C:\Users\jsyoon\AppData\Local\Temp\ccnrVRrQ.s 			page 34


 1868 01df 27       		.uleb128 0x27
 1869 01e0 19       		.uleb128 0x19
 1870 01e1 49       		.uleb128 0x49
 1871 01e2 13       		.uleb128 0x13
 1872 01e3 3C       		.uleb128 0x3c
 1873 01e4 19       		.uleb128 0x19
 1874 01e5 00       		.byte	0
 1875 01e6 00       		.byte	0
 1876 01e7 00       		.byte	0
 1877              		.section	.debug_loc,"",%progbits
 1878              	.Ldebug_loc0:
 1879              	.LLST0:
 1880 0000 00000000 		.4byte	.LVL0
 1881 0004 0A000000 		.4byte	.LVL1
 1882 0008 0100     		.2byte	0x1
 1883 000a 50       		.byte	0x50
 1884 000b 0A000000 		.4byte	.LVL1
 1885 000f 24000000 		.4byte	.LFE122
 1886 0013 0400     		.2byte	0x4
 1887 0015 F3       		.byte	0xf3
 1888 0016 01       		.uleb128 0x1
 1889 0017 50       		.byte	0x50
 1890 0018 9F       		.byte	0x9f
 1891 0019 00000000 		.4byte	0
 1892 001d 00000000 		.4byte	0
 1893              	.LLST1:
 1894 0021 00000000 		.4byte	.LVL3
 1895 0025 06000000 		.4byte	.LVL4
 1896 0029 0100     		.2byte	0x1
 1897 002b 50       		.byte	0x50
 1898 002c 06000000 		.4byte	.LVL4
 1899 0030 0E000000 		.4byte	.LVL5
 1900 0034 0300     		.2byte	0x3
 1901 0036 75       		.byte	0x75
 1902 0037 70       		.sleb128 -16
 1903 0038 9F       		.byte	0x9f
 1904 0039 0E000000 		.4byte	.LVL5
 1905 003d 1E000000 		.4byte	.LVL6
 1906 0041 0300     		.2byte	0x3
 1907 0043 75       		.byte	0x75
 1908 0044 60       		.sleb128 -32
 1909 0045 9F       		.byte	0x9f
 1910 0046 1E000000 		.4byte	.LVL6
 1911 004a 28000000 		.4byte	.LFE118
 1912 004e 0400     		.2byte	0x4
 1913 0050 F3       		.byte	0xf3
 1914 0051 01       		.uleb128 0x1
 1915 0052 50       		.byte	0x50
 1916 0053 9F       		.byte	0x9f
 1917 0054 00000000 		.4byte	0
 1918 0058 00000000 		.4byte	0
 1919              		.section	.debug_aranges,"",%progbits
 1920 0000 3C000000 		.4byte	0x3c
 1921 0004 0200     		.2byte	0x2
 1922 0006 00000000 		.4byte	.Ldebug_info0
 1923 000a 04       		.byte	0x4
 1924 000b 00       		.byte	0
ARM GAS  C:\Users\jsyoon\AppData\Local\Temp\ccnrVRrQ.s 			page 35


 1925 000c 0000     		.2byte	0
 1926 000e 0000     		.2byte	0
 1927 0010 00000000 		.4byte	.LFB122
 1928 0014 24000000 		.4byte	.LFE122-.LFB122
 1929 0018 00000000 		.4byte	.LFB118
 1930 001c 28000000 		.4byte	.LFE118-.LFB118
 1931 0020 00000000 		.4byte	.LFB119
 1932 0024 24000000 		.4byte	.LFE119-.LFB119
 1933 0028 00000000 		.4byte	.LFB120
 1934 002c 0C000000 		.4byte	.LFE120-.LFB120
 1935 0030 00000000 		.4byte	.LFB121
 1936 0034 0C000000 		.4byte	.LFE121-.LFB121
 1937 0038 00000000 		.4byte	0
 1938 003c 00000000 		.4byte	0
 1939              		.section	.debug_ranges,"",%progbits
 1940              	.Ldebug_ranges0:
 1941 0000 00000000 		.4byte	.LFB122
 1942 0004 24000000 		.4byte	.LFE122
 1943 0008 00000000 		.4byte	.LFB118
 1944 000c 28000000 		.4byte	.LFE118
 1945 0010 00000000 		.4byte	.LFB119
 1946 0014 24000000 		.4byte	.LFE119
 1947 0018 00000000 		.4byte	.LFB120
 1948 001c 0C000000 		.4byte	.LFE120
 1949 0020 00000000 		.4byte	.LFB121
 1950 0024 0C000000 		.4byte	.LFE121
 1951 0028 00000000 		.4byte	0
 1952 002c 00000000 		.4byte	0
 1953              		.section	.debug_line,"",%progbits
 1954              	.Ldebug_line0:
 1955 0000 B0020000 		.section	.debug_str,"MS",%progbits,1
 1955      02004C02 
 1955      00000201 
 1955      FB0E0D00 
 1955      01010101 
 1956              	.LASF72:
 1957 0000 7466756E 		.ascii	"tfunc_t\000"
 1957      635F7400 
 1958              	.LASF91:
 1959 0008 766F6C74 		.ascii	"voltage_inverted\000"
 1959      6167655F 
 1959      696E7665 
 1959      72746564 
 1959      00
 1960              	.LASF122:
 1961 0019 72656164 		.ascii	"read_voltage\000"
 1961      5F766F6C 
 1961      74616765 
 1961      00
 1962              	.LASF19:
 1963 0026 73697A65 		.ascii	"size_t\000"
 1963      5F7400
 1964              	.LASF67:
 1965 002d 7264796D 		.ascii	"rdymsg\000"
 1965      736700
 1966              	.LASF18:
 1967 0034 75696E74 		.ascii	"uint64_t\000"
ARM GAS  C:\Users\jsyoon\AppData\Local\Temp\ccnrVRrQ.s 			page 36


 1967      36345F74 
 1967      00
 1968              	.LASF100:
 1969 003d 4F545950 		.ascii	"OTYPER\000"
 1969      455200
 1970              	.LASF3:
 1971 0044 5F5F7569 		.ascii	"__uint8_t\000"
 1971      6E74385F 
 1971      7400
 1972              	.LASF84:
 1973 004e 6374726C 		.ascii	"ctrl_type\000"
 1973      5F747970 
 1973      6500
 1974              	.LASF121:
 1975 0058 6465636F 		.ascii	"decoded_level\000"
 1975      6465645F 
 1975      6C657665 
 1975      6C00
 1976              	.LASF108:
 1977 0066 696F706F 		.ascii	"ioportmask_t\000"
 1977      72746D61 
 1977      736B5F74 
 1977      00
 1978              	.LASF83:
 1979 0073 6164635F 		.ascii	"adc_control_type\000"
 1979      636F6E74 
 1979      726F6C5F 
 1979      74797065 
 1979      00
 1980              	.LASF86:
 1981 0084 766F6C74 		.ascii	"voltage_start\000"
 1981      6167655F 
 1981      73746172 
 1981      7400
 1982              	.LASF99:
 1983 0092 4D4F4445 		.ascii	"MODER\000"
 1983      5200
 1984              	.LASF49:
 1985 0098 54687265 		.ascii	"ThreadsQueue\000"
 1985      61647351 
 1985      75657565 
 1985      00
 1986              	.LASF89:
 1987 00a5 73616665 		.ascii	"safe_start\000"
 1987      5F737461 
 1987      727400
 1988              	.LASF124:
 1989 00b0 49544D5F 		.ascii	"ITM_RxBuffer\000"
 1989      52784275 
 1989      66666572 
 1989      00
 1990              	.LASF95:
 1991 00bd 74635F6D 		.ascii	"tc_max_diff\000"
 1991      61785F64 
 1991      69666600 
 1992              	.LASF32:
 1993 00c9 705F7072 		.ascii	"p_prio\000"
ARM GAS  C:\Users\jsyoon\AppData\Local\Temp\ccnrVRrQ.s 			page 37


 1993      696F00
 1994              	.LASF10:
 1995 00d0 6C6F6E67 		.ascii	"long long int\000"
 1995      206C6F6E 
 1995      6720696E 
 1995      7400
 1996              	.LASF0:
 1997 00de 7369676E 		.ascii	"signed char\000"
 1997      65642063 
 1997      68617200 
 1998              	.LASF103:
 1999 00ea 42535252 		.ascii	"BSRR\000"
 1999      00
 2000              	.LASF9:
 2001 00ef 6C6F6E67 		.ascii	"long unsigned int\000"
 2001      20756E73 
 2001      69676E65 
 2001      6420696E 
 2001      7400
 2002              	.LASF48:
 2003 0101 705F6D70 		.ascii	"p_mpool\000"
 2003      6F6F6C00 
 2004              	.LASF12:
 2005 0109 6C6F6E67 		.ascii	"long long unsigned int\000"
 2005      206C6F6E 
 2005      6720756E 
 2005      7369676E 
 2005      65642069 
 2006              	.LASF64:
 2007 0120 6D5F7175 		.ascii	"m_queue\000"
 2007      65756500 
 2008              	.LASF24:
 2009 0128 74736C69 		.ascii	"tslices_t\000"
 2009      6365735F 
 2009      7400
 2010              	.LASF113:
 2011 0132 636F6E66 		.ascii	"conf\000"
 2011      00
 2012              	.LASF129:
 2013 0137 453A5C4D 		.ascii	"E:\\Maker\\BLDC\\test_eval\\try2\\OROCA-BLDC_R15080"
 2013      616B6572 
 2013      5C424C44 
 2013      435C7465 
 2013      73745F65 
 2014 0165 3700     		.ascii	"7\000"
 2015              	.LASF7:
 2016 0167 6C6F6E67 		.ascii	"long int\000"
 2016      20696E74 
 2016      00
 2017              	.LASF22:
 2018 0170 74737461 		.ascii	"tstate_t\000"
 2018      74655F74 
 2018      00
 2019              	.LASF80:
 2020 0179 4144435F 		.ascii	"ADC_CTRL_TYPE_DUTY\000"
 2020      4354524C 
 2020      5F545950 
ARM GAS  C:\Users\jsyoon\AppData\Local\Temp\ccnrVRrQ.s 			page 38


 2020      455F4455 
 2020      545900
 2021              	.LASF127:
 2022 018c 474E5520 		.ascii	"GNU C 4.8.4 20140526 (release) [ARM/embedded-4_8-br"
 2022      4320342E 
 2022      382E3420 
 2022      32303134 
 2022      30353236 
 2023 01bf 616E6368 		.ascii	"anch revision 211358] -mcpu=cortex-m4 -mfloat-abi=h"
 2023      20726576 
 2023      6973696F 
 2023      6E203231 
 2023      31333538 
 2024 01f2 61726420 		.ascii	"ard -mfpu=fpv4-sp-d16 -mno-thumb-interwork -mthumb "
 2024      2D6D6670 
 2024      753D6670 
 2024      76342D73 
 2024      702D6431 
 2025 0225 2D676764 		.ascii	"-ggdb -O2 -std=gnu99 -fomit-frame-pointer -falign-f"
 2025      62202D4F 
 2025      32202D73 
 2025      74643D67 
 2025      6E753939 
 2026 0258 756E6374 		.ascii	"unctions=16 -ffunction-sections -fdata-sections -fn"
 2026      696F6E73 
 2026      3D313620 
 2026      2D666675 
 2026      6E637469 
 2027 028b 6F2D636F 		.ascii	"o-common -fsingle-precision-constant\000"
 2027      6D6D6F6E 
 2027      202D6673 
 2027      696E676C 
 2027      652D7072 
 2028              	.LASF15:
 2029 02b0 75696E74 		.ascii	"uint16_t\000"
 2029      31365F74 
 2029      00
 2030              	.LASF34:
 2031 02b9 705F6E65 		.ascii	"p_newer\000"
 2031      77657200 
 2032              	.LASF81:
 2033 02c1 4144435F 		.ascii	"ADC_CTRL_TYPE_DUTY_REV_CENTER\000"
 2033      4354524C 
 2033      5F545950 
 2033      455F4455 
 2033      54595F52 
 2034              	.LASF68:
 2035 02df 65786974 		.ascii	"exitcode\000"
 2035      636F6465 
 2035      00
 2036              	.LASF118:
 2037 02e8 6164635F 		.ascii	"adc_thread_wa\000"
 2037      74687265 
 2037      61645F77 
 2037      6100
 2038              	.LASF101:
 2039 02f6 4F535045 		.ascii	"OSPEEDR\000"
ARM GAS  C:\Users\jsyoon\AppData\Local\Temp\ccnrVRrQ.s 			page 39


 2039      45445200 
 2040              	.LASF8:
 2041 02fe 5F5F7569 		.ascii	"__uint32_t\000"
 2041      6E743332 
 2041      5F7400
 2042              	.LASF51:
 2043 0309 72656761 		.ascii	"regarm_t\000"
 2043      726D5F74 
 2043      00
 2044              	.LASF130:
 2045 0312 6164635F 		.ascii	"adc_thread\000"
 2045      74687265 
 2045      616400
 2046              	.LASF115:
 2047 031d 6170705F 		.ascii	"app_adc_start\000"
 2047      6164635F 
 2047      73746172 
 2047      7400
 2048              	.LASF13:
 2049 032b 756E7369 		.ascii	"unsigned int\000"
 2049      676E6564 
 2049      20696E74 
 2049      00
 2050              	.LASF119:
 2051 0338 636F6E66 		.ascii	"config\000"
 2051      696700
 2052              	.LASF107:
 2053 033f 4750494F 		.ascii	"GPIO_TypeDef\000"
 2053      5F547970 
 2053      65446566 
 2053      00
 2054              	.LASF102:
 2055 034c 50555044 		.ascii	"PUPDR\000"
 2055      5200
 2056              	.LASF128:
 2057 0352 6170706C 		.ascii	"applications/app_adc.c\000"
 2057      69636174 
 2057      696F6E73 
 2057      2F617070 
 2057      5F616463 
 2058              	.LASF54:
 2059 0369 636F6E74 		.ascii	"context\000"
 2059      65787400 
 2060              	.LASF5:
 2061 0371 73686F72 		.ascii	"short unsigned int\000"
 2061      7420756E 
 2061      7369676E 
 2061      65642069 
 2061      6E7400
 2062              	.LASF87:
 2063 0384 766F6C74 		.ascii	"voltage_end\000"
 2063      6167655F 
 2063      656E6400 
 2064              	.LASF26:
 2065 0390 6D73675F 		.ascii	"msg_t\000"
 2065      7400
 2066              	.LASF59:
ARM GAS  C:\Users\jsyoon\AppData\Local\Temp\ccnrVRrQ.s 			page 40


 2067 0396 725F6E65 		.ascii	"r_newer\000"
 2067      77657200 
 2068              	.LASF120:
 2069 039e 6D735F77 		.ascii	"ms_without_power\000"
 2069      6974686F 
 2069      75745F70 
 2069      6F776572 
 2069      00
 2070              	.LASF96:
 2071 03af 75706461 		.ascii	"update_rate_hz\000"
 2071      74655F72 
 2071      6174655F 
 2071      687A00
 2072              	.LASF21:
 2073 03be 746D6F64 		.ascii	"tmode_t\000"
 2073      655F7400 
 2074              	.LASF97:
 2075 03c6 6164635F 		.ascii	"adc_config\000"
 2075      636F6E66 
 2075      696700
 2076              	.LASF50:
 2077 03d1 54687265 		.ascii	"ThreadsList\000"
 2077      6164734C 
 2077      69737400 
 2078              	.LASF27:
 2079 03dd 6576656E 		.ascii	"eventmask_t\000"
 2079      746D6173 
 2079      6B5F7400 
 2080              	.LASF93:
 2081 03e9 72706D5F 		.ascii	"rpm_lim_end\000"
 2081      6C696D5F 
 2081      656E6400 
 2082              	.LASF117:
 2083 03f5 6170705F 		.ascii	"app_adc_get_voltage\000"
 2083      6164635F 
 2083      6765745F 
 2083      766F6C74 
 2083      61676500 
 2084              	.LASF63:
 2085 0409 4D757465 		.ascii	"Mutex\000"
 2085      7800
 2086              	.LASF52:
 2087 040f 73746B61 		.ascii	"stkalign_t\000"
 2087      6C69676E 
 2087      5F7400
 2088              	.LASF126:
 2089 041a 63685468 		.ascii	"chThdCreateStatic\000"
 2089      64437265 
 2089      61746553 
 2089      74617469 
 2089      6300
 2090              	.LASF16:
 2091 042c 696E7433 		.ascii	"int32_t\000"
 2091      325F7400 
 2092              	.LASF55:
 2093 0434 73697A65 		.ascii	"sizetype\000"
 2093      74797065 
ARM GAS  C:\Users\jsyoon\AppData\Local\Temp\ccnrVRrQ.s 			page 41


 2093      00
 2094              	.LASF85:
 2095 043d 68797374 		.ascii	"hyst\000"
 2095      00
 2096              	.LASF35:
 2097 0442 705F6F6C 		.ascii	"p_older\000"
 2097      64657200 
 2098              	.LASF58:
 2099 044a 725F6374 		.ascii	"r_ctx\000"
 2099      7800
 2100              	.LASF61:
 2101 0450 725F6375 		.ascii	"r_current\000"
 2101      7272656E 
 2101      7400
 2102              	.LASF60:
 2103 045a 725F6F6C 		.ascii	"r_older\000"
 2103      64657200 
 2104              	.LASF92:
 2105 0462 72706D5F 		.ascii	"rpm_lim_start\000"
 2105      6C696D5F 
 2105      73746172 
 2105      7400
 2106              	.LASF11:
 2107 0470 5F5F7569 		.ascii	"__uint64_t\000"
 2107      6E743634 
 2107      5F7400
 2108              	.LASF106:
 2109 047b 41465248 		.ascii	"AFRH\000"
 2109      00
 2110              	.LASF73:
 2111 0480 666C6F61 		.ascii	"float\000"
 2111      7400
 2112              	.LASF105:
 2113 0486 4146524C 		.ascii	"AFRL\000"
 2113      00
 2114              	.LASF23:
 2115 048b 74726566 		.ascii	"trefs_t\000"
 2115      735F7400 
 2116              	.LASF31:
 2117 0493 705F7072 		.ascii	"p_prev\000"
 2117      657600
 2118              	.LASF88:
 2119 049a 7573655F 		.ascii	"use_filter\000"
 2119      66696C74 
 2119      657200
 2120              	.LASF25:
 2121 04a5 74707269 		.ascii	"tprio_t\000"
 2121      6F5F7400 
 2122              	.LASF77:
 2123 04ad 4144435F 		.ascii	"ADC_CTRL_TYPE_CURRENT_REV_BUTTON\000"
 2123      4354524C 
 2123      5F545950 
 2123      455F4355 
 2123      5252454E 
 2124              	.LASF20:
 2125 04ce 5F426F6F 		.ascii	"_Bool\000"
 2125      6C00
ARM GAS  C:\Users\jsyoon\AppData\Local\Temp\ccnrVRrQ.s 			page 42


 2126              	.LASF94:
 2127 04d4 6D756C74 		.ascii	"multi_esc\000"
 2127      695F6573 
 2127      6300
 2128              	.LASF1:
 2129 04de 756E7369 		.ascii	"unsigned char\000"
 2129      676E6564 
 2129      20636861 
 2129      7200
 2130              	.LASF46:
 2131 04ec 705F6D74 		.ascii	"p_mtxlist\000"
 2131      786C6973 
 2131      7400
 2132              	.LASF2:
 2133 04f6 73686F72 		.ascii	"short int\000"
 2133      7420696E 
 2133      7400
 2134              	.LASF37:
 2135 0500 705F7374 		.ascii	"p_state\000"
 2135      61746500 
 2136              	.LASF76:
 2137 0508 4144435F 		.ascii	"ADC_CTRL_TYPE_CURRENT_REV_CENTER\000"
 2137      4354524C 
 2137      5F545950 
 2137      455F4355 
 2137      5252454E 
 2138              	.LASF40:
 2139 0529 705F7072 		.ascii	"p_preempt\000"
 2139      65656D70 
 2139      7400
 2140              	.LASF57:
 2141 0533 725F7072 		.ascii	"r_prio\000"
 2141      696F00
 2142              	.LASF70:
 2143 053a 65776D61 		.ascii	"ewmask\000"
 2143      736B00
 2144              	.LASF30:
 2145 0541 705F6E65 		.ascii	"p_next\000"
 2145      787400
 2146              	.LASF38:
 2147 0548 705F666C 		.ascii	"p_flags\000"
 2147      61677300 
 2148              	.LASF29:
 2149 0550 54687265 		.ascii	"Thread\000"
 2149      616400
 2150              	.LASF104:
 2151 0557 4C434B52 		.ascii	"LCKR\000"
 2151      00
 2152              	.LASF45:
 2153 055c 705F6570 		.ascii	"p_epending\000"
 2153      656E6469 
 2153      6E6700
 2154              	.LASF98:
 2155 0567 636C6561 		.ascii	"clear\000"
 2155      7200
 2156              	.LASF17:
 2157 056d 75696E74 		.ascii	"uint32_t\000"
ARM GAS  C:\Users\jsyoon\AppData\Local\Temp\ccnrVRrQ.s 			page 43


 2157      33325F74 
 2157      00
 2158              	.LASF56:
 2159 0576 725F7175 		.ascii	"r_queue\000"
 2159      65756500 
 2160              	.LASF90:
 2161 057e 62757474 		.ascii	"button_inverted\000"
 2161      6F6E5F69 
 2161      6E766572 
 2161      74656400 
 2162              	.LASF116:
 2163 058e 6170705F 		.ascii	"app_adc_get_decoded_level\000"
 2163      6164635F 
 2163      6765745F 
 2163      6465636F 
 2163      6465645F 
 2164              	.LASF112:
 2165 05a8 6C6F6E67 		.ascii	"long double\000"
 2165      20646F75 
 2165      626C6500 
 2166              	.LASF71:
 2167 05b4 63686172 		.ascii	"char\000"
 2167      00
 2168              	.LASF4:
 2169 05b9 5F5F7569 		.ascii	"__uint16_t\000"
 2169      6E743136 
 2169      5F7400
 2170              	.LASF66:
 2171 05c4 6D5F6E65 		.ascii	"m_next\000"
 2171      787400
 2172              	.LASF28:
 2173 05cb 73797374 		.ascii	"systime_t\000"
 2173      696D655F 
 2173      7400
 2174              	.LASF47:
 2175 05d5 705F7265 		.ascii	"p_realprio\000"
 2175      616C7072 
 2175      696F00
 2176              	.LASF6:
 2177 05e0 5F5F696E 		.ascii	"__int32_t\000"
 2177      7433325F 
 2177      7400
 2178              	.LASF75:
 2179 05ea 4144435F 		.ascii	"ADC_CTRL_TYPE_CURRENT\000"
 2179      4354524C 
 2179      5F545950 
 2179      455F4355 
 2179      5252454E 
 2180              	.LASF110:
 2181 0600 696F706F 		.ascii	"ioportid_t\000"
 2181      72746964 
 2181      5F7400
 2182              	.LASF41:
 2183 060b 705F7469 		.ascii	"p_time\000"
 2183      6D6500
 2184              	.LASF125:
 2185 0612 5F70616C 		.ascii	"_pal_lld_setgroupmode\000"
ARM GAS  C:\Users\jsyoon\AppData\Local\Temp\ccnrVRrQ.s 			page 44


 2185      5F6C6C64 
 2185      5F736574 
 2185      67726F75 
 2185      706D6F64 
 2186              	.LASF53:
 2187 0628 696E7463 		.ascii	"intctx\000"
 2187      747800
 2188              	.LASF43:
 2189 062f 705F6D73 		.ascii	"p_msgqueue\000"
 2189      67717565 
 2189      756500
 2190              	.LASF82:
 2191 063a 4144435F 		.ascii	"ADC_CTRL_TYPE_DUTY_REV_BUTTON\000"
 2191      4354524C 
 2191      5F545950 
 2191      455F4455 
 2191      54595F52 
 2192              	.LASF39:
 2193 0658 705F7265 		.ascii	"p_refs\000"
 2193      667300
 2194              	.LASF79:
 2195 065f 4144435F 		.ascii	"ADC_CTRL_TYPE_CURRENT_NOREV_BRAKE_BUTTON\000"
 2195      4354524C 
 2195      5F545950 
 2195      455F4355 
 2195      5252454E 
 2196              	.LASF62:
 2197 0688 52656164 		.ascii	"ReadyList\000"
 2197      794C6973 
 2197      7400
 2198              	.LASF123:
 2199 0692 726C6973 		.ascii	"rlist\000"
 2199      7400
 2200              	.LASF14:
 2201 0698 75696E74 		.ascii	"uint8_t\000"
 2201      385F7400 
 2202              	.LASF69:
 2203 06a0 77746F62 		.ascii	"wtobjp\000"
 2203      6A7000
 2204              	.LASF36:
 2205 06a7 705F6E61 		.ascii	"p_name\000"
 2205      6D6500
 2206              	.LASF74:
 2207 06ae 4144435F 		.ascii	"ADC_CTRL_TYPE_NONE\000"
 2207      4354524C 
 2207      5F545950 
 2207      455F4E4F 
 2207      4E4500
 2208              	.LASF44:
 2209 06c1 705F6D73 		.ascii	"p_msg\000"
 2209      6700
 2210              	.LASF109:
 2211 06c7 696F6D6F 		.ascii	"iomode_t\000"
 2211      64655F74 
 2211      00
 2212              	.LASF65:
 2213 06d0 6D5F6F77 		.ascii	"m_owner\000"
ARM GAS  C:\Users\jsyoon\AppData\Local\Temp\ccnrVRrQ.s 			page 45


 2213      6E657200 
 2214              	.LASF111:
 2215 06d8 646F7562 		.ascii	"double\000"
 2215      6C6500
 2216              	.LASF78:
 2217 06df 4144435F 		.ascii	"ADC_CTRL_TYPE_CURRENT_NOREV_BRAKE_CENTER\000"
 2217      4354524C 
 2217      5F545950 
 2217      455F4355 
 2217      5252454E 
 2218              	.LASF33:
 2219 0708 705F6374 		.ascii	"p_ctx\000"
 2219      7800
 2220              	.LASF42:
 2221 070e 705F7761 		.ascii	"p_waiting\000"
 2221      6974696E 
 2221      6700
 2222              	.LASF114:
 2223 0718 6170705F 		.ascii	"app_adc_configure\000"
 2223      6164635F 
 2223      636F6E66 
 2223      69677572 
 2223      6500
 2224              		.ident	"GCC: (GNU Tools for ARM Embedded Processors) 4.8.4 20140526 (release) [ARM/embedded-4_8-br
ARM GAS  C:\Users\jsyoon\AppData\Local\Temp\ccnrVRrQ.s 			page 46


DEFINED SYMBOLS
                            *ABS*:00000000 app_adc.c
C:\Users\jsyoon\AppData\Local\Temp\ccnrVRrQ.s:21     .text.adc_thread:00000000 $t
C:\Users\jsyoon\AppData\Local\Temp\ccnrVRrQ.s:26     .text.adc_thread:00000000 adc_thread
C:\Users\jsyoon\AppData\Local\Temp\ccnrVRrQ.s:58     .text.adc_thread:00000018 $d
C:\Users\jsyoon\AppData\Local\Temp\ccnrVRrQ.s:65     .text.app_adc_configure:00000000 $t
C:\Users\jsyoon\AppData\Local\Temp\ccnrVRrQ.s:71     .text.app_adc_configure:00000000 app_adc_configure
C:\Users\jsyoon\AppData\Local\Temp\ccnrVRrQ.s:111    .text.app_adc_configure:00000020 $d
C:\Users\jsyoon\AppData\Local\Temp\ccnrVRrQ.s:117    .text.app_adc_start:00000000 $t
C:\Users\jsyoon\AppData\Local\Temp\ccnrVRrQ.s:123    .text.app_adc_start:00000000 app_adc_start
C:\Users\jsyoon\AppData\Local\Temp\ccnrVRrQ.s:150    .text.app_adc_start:0000001c $d
C:\Users\jsyoon\AppData\Local\Temp\ccnrVRrQ.s:156    .text.app_adc_get_decoded_level:00000000 $t
C:\Users\jsyoon\AppData\Local\Temp\ccnrVRrQ.s:162    .text.app_adc_get_decoded_level:00000000 app_adc_get_decoded_level
C:\Users\jsyoon\AppData\Local\Temp\ccnrVRrQ.s:177    .text.app_adc_get_decoded_level:00000008 $d
C:\Users\jsyoon\AppData\Local\Temp\ccnrVRrQ.s:182    .text.app_adc_get_voltage:00000000 $t
C:\Users\jsyoon\AppData\Local\Temp\ccnrVRrQ.s:188    .text.app_adc_get_voltage:00000000 app_adc_get_voltage
C:\Users\jsyoon\AppData\Local\Temp\ccnrVRrQ.s:203    .text.app_adc_get_voltage:00000008 $d
C:\Users\jsyoon\AppData\Local\Temp\ccnrVRrQ.s:208    .bss.read_voltage:00000000 $d
C:\Users\jsyoon\AppData\Local\Temp\ccnrVRrQ.s:212    .bss.read_voltage:00000000 read_voltage
C:\Users\jsyoon\AppData\Local\Temp\ccnrVRrQ.s:215    .bss.ms_without_power:00000000 $d
C:\Users\jsyoon\AppData\Local\Temp\ccnrVRrQ.s:219    .bss.ms_without_power:00000000 ms_without_power
C:\Users\jsyoon\AppData\Local\Temp\ccnrVRrQ.s:222    .rodata.str1.4:00000000 $d
C:\Users\jsyoon\AppData\Local\Temp\ccnrVRrQ.s:226    .bss.config:00000000 $d
C:\Users\jsyoon\AppData\Local\Temp\ccnrVRrQ.s:230    .bss.config:00000000 config
C:\Users\jsyoon\AppData\Local\Temp\ccnrVRrQ.s:233    .bss.decoded_level:00000000 $d
C:\Users\jsyoon\AppData\Local\Temp\ccnrVRrQ.s:237    .bss.decoded_level:00000000 decoded_level
C:\Users\jsyoon\AppData\Local\Temp\ccnrVRrQ.s:240    .bss.adc_thread_wa:00000000 $d
C:\Users\jsyoon\AppData\Local\Temp\ccnrVRrQ.s:244    .bss.adc_thread_wa:00000000 adc_thread_wa
                     .debug_frame:00000010 $d
C:\Users\jsyoon\AppData\Local\Temp\ccnrVRrQ.s:64     .text.adc_thread:00000024 $t
C:\Users\jsyoon\AppData\Local\Temp\ccnrVRrQ.s:116    .text.app_adc_configure:00000028 $t
C:\Users\jsyoon\AppData\Local\Temp\ccnrVRrQ.s:155    .text.app_adc_start:00000024 $t
C:\Users\jsyoon\AppData\Local\Temp\ccnrVRrQ.s:181    .text.app_adc_get_decoded_level:0000000c $t
C:\Users\jsyoon\AppData\Local\Temp\ccnrVRrQ.s:207    .text.app_adc_get_voltage:0000000c $t

UNDEFINED SYMBOLS
_pal_lld_setgroupmode
rlist
chThdCreateStatic
