ARM GAS  C:\Users\jsyoon\AppData\Local\Temp\ccsxAC7R.s 			page 1


   1              		.syntax unified
   2              		.cpu cortex-m4
   3              		.eabi_attribute 27, 3
   4              		.eabi_attribute 28, 1
   5              		.fpu fpv4-sp-d16
   6              		.eabi_attribute 20, 1
   7              		.eabi_attribute 21, 1
   8              		.eabi_attribute 23, 3
   9              		.eabi_attribute 24, 1
  10              		.eabi_attribute 25, 1
  11              		.eabi_attribute 26, 1
  12              		.eabi_attribute 30, 2
  13              		.eabi_attribute 34, 1
  14              		.eabi_attribute 18, 4
  15              		.thumb
  16              		.file	"app_uartcomm.c"
  17              		.text
  18              	.Ltext0:
  19              		.cfi_sections	.debug_frame
  20              		.section	.text.txend1,"ax",%progbits
  21              		.align	2
  22              		.p2align 4,,15
  23              		.thumb
  24              		.thumb_func
  25              		.type	txend1, %function
  26              	txend1:
  27              	.LFB118:
  28              		.file 1 "applications/app_uartcomm.c"
  29              		.loc 1 60 0
  30              		.cfi_startproc
  31              		@ args = 0, pretend = 0, frame = 0
  32              		@ frame_needed = 0, uses_anonymous_args = 0
  33              		@ link register save eliminated.
  34              	.LVL0:
  35 0000 7047     		bx	lr
  36              		.cfi_endproc
  37              	.LFE118:
  38              		.size	txend1, .-txend1
  39 0002 00BFAFF3 		.section	.text.txend2,"ax",%progbits
  39      0080AFF3 
  39      0080AFF3 
  39      0080
  40              		.align	2
  41              		.p2align 4,,15
  42              		.thumb
  43              		.thumb_func
  44              		.type	txend2, %function
  45              	txend2:
  46              	.LFB119:
  47              		.loc 1 67 0
  48              		.cfi_startproc
  49              		@ args = 0, pretend = 0, frame = 0
  50              		@ frame_needed = 0, uses_anonymous_args = 0
  51              		@ link register save eliminated.
  52              	.LVL1:
  53 0000 7047     		bx	lr
  54              		.cfi_endproc
ARM GAS  C:\Users\jsyoon\AppData\Local\Temp\ccsxAC7R.s 			page 2


  55              	.LFE119:
  56              		.size	txend2, .-txend2
  57 0002 00BFAFF3 		.section	.text.rxerr,"ax",%progbits
  57      0080AFF3 
  57      0080AFF3 
  57      0080
  58              		.align	2
  59              		.p2align 4,,15
  60              		.thumb
  61              		.thumb_func
  62              		.type	rxerr, %function
  63              	rxerr:
  64              	.LFB120:
  65              		.loc 1 75 0
  66              		.cfi_startproc
  67              		@ args = 0, pretend = 0, frame = 0
  68              		@ frame_needed = 0, uses_anonymous_args = 0
  69              		@ link register save eliminated.
  70              	.LVL2:
  71 0000 7047     		bx	lr
  72              		.cfi_endproc
  73              	.LFE120:
  74              		.size	rxerr, .-rxerr
  75 0002 00BFAFF3 		.section	.text.rxend,"ax",%progbits
  75      0080AFF3 
  75      0080AFF3 
  75      0080
  76              		.align	2
  77              		.p2align 4,,15
  78              		.thumb
  79              		.thumb_func
  80              		.type	rxend, %function
  81              	rxend:
  82              	.LFB122:
  83              		.loc 1 98 0
  84              		.cfi_startproc
  85              		@ args = 0, pretend = 0, frame = 0
  86              		@ frame_needed = 0, uses_anonymous_args = 0
  87              		@ link register save eliminated.
  88              	.LVL3:
  89 0000 7047     		bx	lr
  90              		.cfi_endproc
  91              	.LFE122:
  92              		.size	rxend, .-rxend
  93 0002 00BFAFF3 		.section	.text.packet_process_thread,"ax",%progbits
  93      0080AFF3 
  93      0080AFF3 
  93      0080
  94              		.align	2
  95              		.p2align 4,,15
  96              		.thumb
  97              		.thumb_func
  98              		.type	packet_process_thread, %function
  99              	packet_process_thread:
 100              	.LFB128:
 101              		.loc 1 164 0
 102              		.cfi_startproc
ARM GAS  C:\Users\jsyoon\AppData\Local\Temp\ccsxAC7R.s 			page 3


 103              		@ args = 0, pretend = 0, frame = 0
 104              		@ frame_needed = 0, uses_anonymous_args = 0
 105              	.LVL4:
 106              		.loc 1 164 0
 107 0000 2DE9F843 		push	{r3, r4, r5, r6, r7, r8, r9, lr}
 108              		.cfi_def_cfa_offset 32
 109              		.cfi_offset 3, -32
 110              		.cfi_offset 4, -28
 111              		.cfi_offset 5, -24
 112              		.cfi_offset 6, -20
 113              		.cfi_offset 7, -16
 114              		.cfi_offset 8, -12
 115              		.cfi_offset 9, -8
 116              		.cfi_offset 14, -4
 117              		.loc 1 167 0
 118 0004 114B     		ldr	r3, .L12
 119              		.loc 1 169 0
 120 0006 124A     		ldr	r2, .L12+4
 121              		.loc 1 167 0
 122 0008 9B69     		ldr	r3, [r3, #24]
 123 000a 124C     		ldr	r4, .L12+8
 124 000c 1249     		ldr	r1, .L12+12
 125 000e 134E     		ldr	r6, .L12+16
 126 0010 DFF84C90 		ldr	r9, .L12+20
 127 0014 9961     		str	r1, [r3, #24]
 128              		.loc 1 169 0
 129 0016 1360     		str	r3, [r2]
 130              		.loc 1 175 0
 131 0018 A046     		mov	r8, r4
 132              	.LVL5:
 133              	.L10:
 134              		.loc 1 172 0
 135 001a 0120     		movs	r0, #1
 136 001c FFF7FEFF 		bl	chEvtWaitAny
 137              	.LVL6:
 138              		.loc 1 178 0
 139 0020 0027     		movs	r7, #0
 140              	.L6:
 141 0022 2368     		ldr	r3, [r4]
 142              	.L8:
 143              		.loc 1 174 0 discriminator 1
 144 0024 D9F80020 		ldr	r2, [r9]
 145 0028 9A42     		cmp	r2, r3
 146              		.loc 1 175 0 discriminator 1
 147 002a 03F10105 		add	r5, r3, #1
 148 002e 4FF00101 		mov	r1, #1
 149              		.loc 1 174 0 discriminator 1
 150 0032 F2D0     		beq	.L10
 151              		.loc 1 175 0
 152 0034 F05C     		ldrb	r0, [r6, r3]	@ zero_extendqisi2
 153 0036 2560     		str	r5, [r4]
 154 0038 FFF7FEFF 		bl	packet_process_byte
 155              	.LVL7:
 156              		.loc 1 177 0
 157 003c 2368     		ldr	r3, [r4]
 158 003e B3F5806F 		cmp	r3, #1024
 159 0042 EFD1     		bne	.L8
ARM GAS  C:\Users\jsyoon\AppData\Local\Temp\ccsxAC7R.s 			page 4


 160              		.loc 1 178 0
 161 0044 C8F80070 		str	r7, [r8]
 162 0048 EBE7     		b	.L6
 163              	.L13:
 164 004a 00BF     		.align	2
 165              	.L12:
 166 004c 00000000 		.word	rlist
 167 0050 00000000 		.word	.LANCHOR0
 168 0054 00000000 		.word	.LANCHOR1
 169 0058 00000000 		.word	.LC0
 170 005c 00000000 		.word	.LANCHOR2
 171 0060 00000000 		.word	.LANCHOR3
 172              		.cfi_endproc
 173              	.LFE128:
 174              		.size	packet_process_thread, .-packet_process_thread
 175 0064 AFF30080 		.section	.text.rxchar,"ax",%progbits
 175      AFF30080 
 175      AFF30080 
 176              		.align	2
 177              		.p2align 4,,15
 178              		.thumb
 179              		.thumb_func
 180              		.type	rxchar, %function
 181              	rxchar:
 182              	.LFB121:
 183              		.loc 1 84 0
 184              		.cfi_startproc
 185              		@ args = 0, pretend = 0, frame = 0
 186              		@ frame_needed = 0, uses_anonymous_args = 0
 187              		@ link register save eliminated.
 188              	.LVL8:
 189              		.loc 1 86 0
 190 0000 094B     		ldr	r3, .L16
 191 0002 1868     		ldr	r0, [r3]
 192              	.LVL9:
 193 0004 421C     		adds	r2, r0, #1
 194              		.loc 1 88 0
 195 0006 B2F5806F 		cmp	r2, #1024
 196              		.loc 1 84 0
 197 000a 10B4     		push	{r4}
 198              		.cfi_def_cfa_offset 4
 199              		.cfi_offset 4, -4
 200              		.loc 1 86 0
 201 000c 1A60     		str	r2, [r3]
 202              		.loc 1 89 0
 203 000e 08BF     		it	eq
 204 0010 0022     		moveq	r2, #0
 205              		.loc 1 86 0
 206 0012 064C     		ldr	r4, .L16+4
 207              		.loc 1 89 0
 208 0014 08BF     		it	eq
 209 0016 1A60     		streq	r2, [r3]
 210              		.loc 1 92 0
 211 0018 054B     		ldr	r3, .L16+8
 212              		.loc 1 86 0
 213 001a 2154     		strb	r1, [r4, r0]
 214              		.loc 1 92 0
ARM GAS  C:\Users\jsyoon\AppData\Local\Temp\ccsxAC7R.s 			page 5


 215 001c 0121     		movs	r1, #1
 216              	.LVL10:
 217 001e 1868     		ldr	r0, [r3]
 218              		.loc 1 93 0
 219 0020 5DF8044B 		ldr	r4, [sp], #4
 220              		.loc 1 92 0
 221 0024 FFF7FEBF 		b	chEvtSignal
 222              	.LVL11:
 223              	.L17:
 224              		.align	2
 225              	.L16:
 226 0028 00000000 		.word	.LANCHOR3
 227 002c 00000000 		.word	.LANCHOR2
 228 0030 00000000 		.word	.LANCHOR0
 229              		.cfi_endproc
 230              	.LFE121:
 231              		.size	rxchar, .-rxchar
 232 0034 AFF30080 		.section	.text.process_packet,"ax",%progbits
 232      AFF30080 
 232      AFF30080 
 233              		.align	2
 234              		.p2align 4,,15
 235              		.thumb
 236              		.thumb_func
 237              		.type	process_packet, %function
 238              	process_packet:
 239              	.LFB123:
 240              		.loc 1 117 0
 241              		.cfi_startproc
 242              		@ args = 0, pretend = 0, frame = 0
 243              		@ frame_needed = 0, uses_anonymous_args = 0
 244              	.LVL12:
 245 0000 38B5     		push	{r3, r4, r5, lr}
 246              		.cfi_def_cfa_offset 16
 247              		.cfi_offset 3, -16
 248              		.cfi_offset 4, -12
 249              		.cfi_offset 5, -8
 250              		.cfi_offset 14, -4
 251              		.loc 1 117 0
 252 0002 0446     		mov	r4, r0
 253 0004 0D46     		mov	r5, r1
 254              		.loc 1 118 0
 255 0006 0448     		ldr	r0, .L19
 256              	.LVL13:
 257 0008 FFF7FEFF 		bl	commands_set_send_func
 258              	.LVL14:
 259              		.loc 1 119 0
 260 000c 2046     		mov	r0, r4
 261 000e 2946     		mov	r1, r5
 262              		.loc 1 120 0
 263 0010 BDE83840 		pop	{r3, r4, r5, lr}
 264              	.LVL15:
 265              		.loc 1 119 0
 266 0014 FFF7FEBF 		b	commands_process_packet
 267              	.LVL16:
 268              	.L20:
 269              		.align	2
ARM GAS  C:\Users\jsyoon\AppData\Local\Temp\ccsxAC7R.s 			page 6


 270              	.L19:
 271 0018 00000000 		.word	send_packet_wrapper
 272              		.cfi_endproc
 273              	.LFE123:
 274              		.size	process_packet, .-process_packet
 275 001c AFF30080 		.section	.text.send_packet_wrapper,"ax",%progbits
 276              		.align	2
 277              		.p2align 4,,15
 278              		.thumb
 279              		.thumb_func
 280              		.type	send_packet_wrapper, %function
 281              	send_packet_wrapper:
 282              	.LFB124:
 283              		.loc 1 122 0
 284              		.cfi_startproc
 285              		@ args = 0, pretend = 0, frame = 0
 286              		@ frame_needed = 0, uses_anonymous_args = 0
 287              		@ link register save eliminated.
 288              	.LVL17:
 289              		.loc 1 123 0
 290 0000 0122     		movs	r2, #1
 291 0002 FFF7FEBF 		b	packet_send_packet
 292              	.LVL18:
 293              		.cfi_endproc
 294              	.LFE124:
 295              		.size	send_packet_wrapper, .-send_packet_wrapper
 296 0006 00BFAFF3 		.section	.text.send_packet,"ax",%progbits
 296      0080AFF3 
 296      0080
 297              		.align	2
 298              		.p2align 4,,15
 299              		.thumb
 300              		.thumb_func
 301              		.type	send_packet, %function
 302              	send_packet:
 303              	.LFB125:
 304              		.loc 1 126 0
 305              		.cfi_startproc
 306              		@ args = 0, pretend = 0, frame = 0
 307              		@ frame_needed = 0, uses_anonymous_args = 0
 308              	.LVL19:
 309 0000 70B5     		push	{r4, r5, r6, lr}
 310              		.cfi_def_cfa_offset 16
 311              		.cfi_offset 4, -16
 312              		.cfi_offset 5, -12
 313              		.cfi_offset 6, -8
 314              		.cfi_offset 14, -4
 315              		.loc 1 128 0
 316 0002 0C4C     		ldr	r4, .L26
 317 0004 6378     		ldrb	r3, [r4, #1]	@ zero_extendqisi2
 318 0006 012B     		cmp	r3, #1
 319              		.loc 1 126 0
 320 0008 0646     		mov	r6, r0
 321 000a 0D46     		mov	r5, r1
 322              		.loc 1 128 0
 323 000c 05D1     		bne	.L24
 324              	.LVL20:
ARM GAS  C:\Users\jsyoon\AppData\Local\Temp\ccsxAC7R.s 			page 7


 325              	.L25:
 326              		.loc 1 129 0
 327 000e 0120     		movs	r0, #1
 328 0010 FFF7FEFF 		bl	chThdSleep
 329              	.LVL21:
 330              		.loc 1 128 0
 331 0014 6378     		ldrb	r3, [r4, #1]	@ zero_extendqisi2
 332 0016 012B     		cmp	r3, #1
 333 0018 F9D0     		beq	.L25
 334              	.L24:
 335              		.loc 1 135 0
 336 001a 3146     		mov	r1, r6
 337 001c 2A46     		mov	r2, r5
 338 001e 0648     		ldr	r0, .L26+4
 339 0020 FFF7FEFF 		bl	memcpy
 340              	.LVL22:
 341              		.loc 1 137 0
 342 0024 2946     		mov	r1, r5
 343 0026 0348     		ldr	r0, .L26
 344 0028 034A     		ldr	r2, .L26+4
 345              		.loc 1 138 0
 346 002a BDE87040 		pop	{r4, r5, r6, lr}
 347              	.LVL23:
 348              		.loc 1 137 0
 349 002e FFF7FEBF 		b	uartStartSend
 350              	.LVL24:
 351              	.L27:
 352 0032 00BF     		.align	2
 353              	.L26:
 354 0034 00000000 		.word	UARTD6
 355 0038 00000000 		.word	.LANCHOR4
 356              		.cfi_endproc
 357              	.LFE125:
 358              		.size	send_packet, .-send_packet
 359 003c AFF30080 		.section	.text.app_uartcomm_start,"ax",%progbits
 360              		.align	2
 361              		.p2align 4,,15
 362              		.global	app_uartcomm_start
 363              		.thumb
 364              		.thumb_func
 365              		.type	app_uartcomm_start, %function
 366              	app_uartcomm_start:
 367              	.LFB126:
 368              		.loc 1 140 0
 369              		.cfi_startproc
 370              		@ args = 0, pretend = 0, frame = 0
 371              		@ frame_needed = 0, uses_anonymous_args = 0
 372 0000 30B5     		push	{r4, r5, lr}
 373              		.cfi_def_cfa_offset 12
 374              		.cfi_offset 4, -12
 375              		.cfi_offset 5, -8
 376              		.cfi_offset 14, -4
 377              		.loc 1 141 0
 378 0002 0122     		movs	r2, #1
 379              		.loc 1 140 0
 380 0004 83B0     		sub	sp, sp, #12
 381              		.cfi_def_cfa_offset 24
ARM GAS  C:\Users\jsyoon\AppData\Local\Temp\ccsxAC7R.s 			page 8


 382              		.loc 1 144 0
 383 0006 114C     		ldr	r4, .L29
 384              		.loc 1 141 0
 385 0008 1148     		ldr	r0, .L29+4
 386 000a 1249     		ldr	r1, .L29+8
 387 000c FFF7FEFF 		bl	packet_init
 388              	.LVL25:
 389              		.loc 1 143 0
 390 0010 1148     		ldr	r0, .L29+12
 391 0012 1249     		ldr	r1, .L29+16
 392 0014 FFF7FEFF 		bl	uartStart
 393              	.LVL26:
 394              		.loc 1 144 0
 395 0018 2046     		mov	r0, r4
 396 001a 4021     		movs	r1, #64
 397 001c 40F23A42 		movw	r2, #1082
 398 0020 FFF7FEFF 		bl	_pal_lld_setgroupmode
 399              	.LVL27:
 400              		.loc 1 147 0
 401 0024 2046     		mov	r0, r4
 402 0026 8021     		movs	r1, #128
 403 0028 40F23A42 		movw	r2, #1082
 404              		.loc 1 151 0
 405 002c 0C4C     		ldr	r4, .L29+20
 406              		.loc 1 147 0
 407 002e FFF7FEFF 		bl	_pal_lld_setgroupmode
 408              	.LVL28:
 409              		.loc 1 151 0
 410 0032 0125     		movs	r5, #1
 411              		.loc 1 153 0
 412 0034 0022     		movs	r2, #0
 413 0036 0092     		str	r2, [sp]
 414 0038 0A4B     		ldr	r3, .L29+24
 415              		.loc 1 151 0
 416 003a 2560     		str	r5, [r4]
 417              		.loc 1 153 0
 418 003c 41F29811 		movw	r1, #4504
 419 0040 4022     		movs	r2, #64
 420 0042 0948     		ldr	r0, .L29+28
 421 0044 FFF7FEFF 		bl	chThdCreateStatic
 422              	.LVL29:
 423              		.loc 1 154 0
 424 0048 03B0     		add	sp, sp, #12
 425              		@ sp needed
 426 004a 30BD     		pop	{r4, r5, pc}
 427              	.L30:
 428              		.align	2
 429              	.L29:
 430 004c 00080240 		.word	1073874944
 431 0050 00000000 		.word	send_packet
 432 0054 00000000 		.word	process_packet
 433 0058 00000000 		.word	UARTD6
 434 005c 00000000 		.word	.LANCHOR5
 435 0060 00000000 		.word	.LANCHOR6
 436 0064 00000000 		.word	packet_process_thread
 437 0068 00000000 		.word	.LANCHOR7
 438              		.cfi_endproc
ARM GAS  C:\Users\jsyoon\AppData\Local\Temp\ccsxAC7R.s 			page 9


 439              	.LFE126:
 440              		.size	app_uartcomm_start, .-app_uartcomm_start
 441 006c AFF30080 		.section	.text.app_uartcomm_configure,"ax",%progbits
 442              		.align	2
 443              		.p2align 4,,15
 444              		.global	app_uartcomm_configure
 445              		.thumb
 446              		.thumb_func
 447              		.type	app_uartcomm_configure, %function
 448              	app_uartcomm_configure:
 449              	.LFB127:
 450              		.loc 1 156 0
 451              		.cfi_startproc
 452              		@ args = 0, pretend = 0, frame = 0
 453              		@ frame_needed = 0, uses_anonymous_args = 0
 454              		@ link register save eliminated.
 455              	.LVL30:
 456              		.loc 1 159 0
 457 0000 044B     		ldr	r3, .L34
 458              		.loc 1 157 0
 459 0002 0549     		ldr	r1, .L34+4
 460              		.loc 1 159 0
 461 0004 1B68     		ldr	r3, [r3]
 462              		.loc 1 157 0
 463 0006 4861     		str	r0, [r1, #20]
 464              		.loc 1 159 0
 465 0008 03B9     		cbnz	r3, .L33
 466 000a 7047     		bx	lr
 467              	.L33:
 468              		.loc 1 160 0
 469 000c 0348     		ldr	r0, .L34+8
 470              	.LVL31:
 471 000e FFF7FEBF 		b	uartStart
 472              	.LVL32:
 473              	.L35:
 474 0012 00BF     		.align	2
 475              	.L34:
 476 0014 00000000 		.word	.LANCHOR6
 477 0018 00000000 		.word	.LANCHOR5
 478 001c 00000000 		.word	UARTD6
 479              		.cfi_endproc
 480              	.LFE127:
 481              		.size	app_uartcomm_configure, .-app_uartcomm_configure
 482              		.section	.bss.serial_rx_write_pos,"aw",%nobits
 483              		.align	2
 484              		.set	.LANCHOR3,. + 0
 485              		.type	serial_rx_write_pos, %object
 486              		.size	serial_rx_write_pos, 4
 487              	serial_rx_write_pos:
 488 0000 00000000 		.space	4
 489              		.section	.bss.is_running,"aw",%nobits
 490              		.align	2
 491              		.set	.LANCHOR6,. + 0
 492              		.type	is_running, %object
 493              		.size	is_running, 4
 494              	is_running:
 495 0000 00000000 		.space	4
ARM GAS  C:\Users\jsyoon\AppData\Local\Temp\ccsxAC7R.s 			page 10


 496              		.section	.data.uart_cfg,"aw",%progbits
 497              		.align	2
 498              		.set	.LANCHOR5,. + 0
 499              		.type	uart_cfg, %object
 500              		.size	uart_cfg, 32
 501              	uart_cfg:
 502 0000 00000000 		.word	txend1
 503 0004 00000000 		.word	txend2
 504 0008 00000000 		.word	rxend
 505 000c 00000000 		.word	rxchar
 506 0010 00000000 		.word	rxerr
 507 0014 00C20100 		.word	115200
 508 0018 0000     		.short	0
 509 001a 0040     		.short	16384
 510 001c 0000     		.short	0
 511 001e 0000     		.space	2
 512              		.section	.bss.buffer.9850,"aw",%nobits
 513              		.align	2
 514              		.set	.LANCHOR4,. + 0
 515              		.type	buffer.9850, %object
 516              		.size	buffer.9850, 1029
 517              	buffer.9850:
 518 0000 00000000 		.space	1029
 518      00000000 
 518      00000000 
 518      00000000 
 518      00000000 
 519 0405 000000   		.section	.bss.packet_process_thread_wa,"aw",%nobits
 520              		.align	3
 521              		.set	.LANCHOR7,. + 0
 522              		.type	packet_process_thread_wa, %object
 523              		.size	packet_process_thread_wa, 4504
 524              	packet_process_thread_wa:
 525 0000 00000000 		.space	4504
 525      00000000 
 525      00000000 
 525      00000000 
 525      00000000 
 526              		.section	.bss.serial_rx_buffer,"aw",%nobits
 527              		.align	2
 528              		.set	.LANCHOR2,. + 0
 529              		.type	serial_rx_buffer, %object
 530              		.size	serial_rx_buffer, 1024
 531              	serial_rx_buffer:
 532 0000 00000000 		.space	1024
 532      00000000 
 532      00000000 
 532      00000000 
 532      00000000 
 533              		.section	.rodata.str1.4,"aMS",%progbits,1
 534              		.align	2
 535              	.LC0:
 536 0000 75617274 		.ascii	"uartcomm process\000"
 536      636F6D6D 
 536      2070726F 
 536      63657373 
 536      00
ARM GAS  C:\Users\jsyoon\AppData\Local\Temp\ccsxAC7R.s 			page 11


 537 0011 000000   		.section	.bss.serial_rx_read_pos,"aw",%nobits
 538              		.align	2
 539              		.set	.LANCHOR1,. + 0
 540              		.type	serial_rx_read_pos, %object
 541              		.size	serial_rx_read_pos, 4
 542              	serial_rx_read_pos:
 543 0000 00000000 		.space	4
 544              		.section	.bss.process_tp,"aw",%nobits
 545              		.align	2
 546              		.set	.LANCHOR0,. + 0
 547              		.type	process_tp, %object
 548              		.size	process_tp, 4
 549              	process_tp:
 550 0000 00000000 		.space	4
 551              		.text
 552              	.Letext0:
 553              		.file 2 "c:\\crosstools\\gcc-arm-embedded\\4.8_2014q2\\arm-none-eabi\\include\\machine\\_default_t
 554              		.file 3 "c:\\crosstools\\gcc-arm-embedded\\4.8_2014q2\\arm-none-eabi\\include\\stdint.h"
 555              		.file 4 "c:\\crosstools\\gcc-arm-embedded\\4.8_2014q2\\lib\\gcc\\arm-none-eabi\\4.8.4\\include\\st
 556              		.file 5 "ChibiOS_2.6.6/os/ports/GCC/ARMCMx/chtypes.h"
 557              		.file 6 "ChibiOS_2.6.6/os/kernel/include/chlists.h"
 558              		.file 7 "ChibiOS_2.6.6/os/kernel/include/chthreads.h"
 559              		.file 8 "ChibiOS_2.6.6/os/ports/GCC/ARMCMx/chcore_v7m.h"
 560              		.file 9 "ChibiOS_2.6.6/os/kernel/include/chschd.h"
 561              		.file 10 "ChibiOS_2.6.6/os/kernel/include/chmtx.h"
 562              		.file 11 "ChibiOS_2.6.6/os/hal/platforms/STM32F4xx/stm32f4xx.h"
 563              		.file 12 "ChibiOS_2.6.6/os/hal/platforms/STM32F4xx/stm32_dma.h"
 564              		.file 13 "ChibiOS_2.6.6/os/hal/platforms/STM32/GPIOv2/pal_lld.h"
 565              		.file 14 "ChibiOS_2.6.6/os/hal/include/uart.h"
 566              		.file 15 "ChibiOS_2.6.6/os/hal/platforms/STM32/USARTv1/uart_lld.h"
 567              		.file 16 "ChibiOS_2.6.6/os/ports/common/ARMCMx/CMSIS/include/core_cm4.h"
 568              		.file 17 "./packet.h"
 569              		.file 18 "ChibiOS_2.6.6/os/kernel/include/chevents.h"
 570              		.file 19 "./commands.h"