ARM GAS  C:\Users\jsyoon\AppData\Local\Temp\cc5ypfvg.s 			page 1


   1              		.syntax unified
   2              		.cpu cortex-m4
   3              		.eabi_attribute 27, 3
   4              		.eabi_attribute 28, 1
   5              		.fpu fpv4-sp-d16
   6              		.eabi_attribute 20, 1
   7              		.eabi_attribute 21, 1
   8              		.eabi_attribute 23, 3
   9              		.eabi_attribute 24, 1
  10              		.eabi_attribute 25, 1
  11              		.eabi_attribute 26, 1
  12              		.eabi_attribute 30, 2
  13              		.eabi_attribute 34, 1
  14              		.eabi_attribute 18, 4
  15              		.thumb
  16              		.file	"app_nunchuk.c"
  17              		.text
  18              	.Ltext0:
  19              		.cfi_sections	.debug_frame
  20              		.section	.text.output_thread,"ax",%progbits
  21              		.align	2
  22              		.p2align 4,,15
  23              		.thumb
  24              		.thumb_func
  25              		.type	output_thread, %function
  26              	output_thread:
  27              	.LFB123:
  28              		.file 1 "applications/app_nunchuk.c"
  29              		.loc 1 174 0
  30              		.cfi_startproc
  31              		@ Volatile: function does not return.
  32              		@ args = 0, pretend = 0, frame = 0
  33              		@ frame_needed = 0, uses_anonymous_args = 0
  34              	.LVL0:
  35 0000 08B5     		push	{r3, lr}
  36              		.cfi_def_cfa_offset 8
  37              		.cfi_offset 3, -8
  38              		.cfi_offset 14, -4
  39              		.loc 1 177 0
  40 0002 044B     		ldr	r3, .L4
  41 0004 044A     		ldr	r2, .L4+4
  42 0006 9B69     		ldr	r3, [r3, #24]
  43 0008 9A61     		str	r2, [r3, #24]
  44              	.LVL1:
  45              	.L2:
  46              		.loc 1 180 0 discriminator 1
  47 000a 0A20     		movs	r0, #10
  48 000c FFF7FEFF 		bl	chThdSleep
  49              	.LVL2:
  50 0010 FBE7     		b	.L2
  51              	.L5:
  52 0012 00BF     		.align	2
  53              	.L4:
  54 0014 00000000 		.word	rlist
  55 0018 00000000 		.word	.LC0
  56              		.cfi_endproc
  57              	.LFE123:
ARM GAS  C:\Users\jsyoon\AppData\Local\Temp\cc5ypfvg.s 			page 2


  58              		.size	output_thread, .-output_thread
  59 001c AFF30080 		.section	.text.app_nunchuk_configure,"ax",%progbits
  60              		.align	2
  61              		.p2align 4,,15
  62              		.global	app_nunchuk_configure
  63              		.thumb
  64              		.thumb_func
  65              		.type	app_nunchuk_configure, %function
  66              	app_nunchuk_configure:
  67              	.LFB118:
  68              		.loc 1 58 0
  69              		.cfi_startproc
  70              		@ args = 0, pretend = 0, frame = 0
  71              		@ frame_needed = 0, uses_anonymous_args = 0
  72              		@ link register save eliminated.
  73              	.LVL3:
  74 0000 30B4     		push	{r4, r5}
  75              		.cfi_def_cfa_offset 8
  76              		.cfi_offset 4, -8
  77              		.cfi_offset 5, -4
  78              		.loc 1 59 0
  79 0002 0546     		mov	r5, r0
  80 0004 0FCD     		ldmia	r5!, {r0, r1, r2, r3}
  81              	.LVL4:
  82 0006 044C     		ldr	r4, .L7
  83 0008 0FC4     		stmia	r4!, {r0, r1, r2, r3}
  84 000a 95E80F00 		ldmia	r5, {r0, r1, r2, r3}
  85 000e 84E80F00 		stmia	r4, {r0, r1, r2, r3}
  86              		.loc 1 60 0
  87 0012 30BC     		pop	{r4, r5}
  88              	.LVL5:
  89 0014 7047     		bx	lr
  90              	.L8:
  91 0016 00BF     		.align	2
  92              	.L7:
  93 0018 00000000 		.word	.LANCHOR0
  94              		.cfi_endproc
  95              	.LFE118:
  96              		.size	app_nunchuk_configure, .-app_nunchuk_configure
  97 001c AFF30080 		.section	.text.app_nunchuk_start,"ax",%progbits
  98              		.align	2
  99              		.p2align 4,,15
 100              		.global	app_nunchuk_start
 101              		.thumb
 102              		.thumb_func
 103              		.type	app_nunchuk_start, %function
 104              	app_nunchuk_start:
 105              	.LFB119:
 106              		.loc 1 62 0
 107              		.cfi_startproc
 108              		@ args = 0, pretend = 0, frame = 0
 109              		@ frame_needed = 0, uses_anonymous_args = 0
 110 0000 30B5     		push	{r4, r5, lr}
 111              		.cfi_def_cfa_offset 12
 112              		.cfi_offset 4, -12
 113              		.cfi_offset 5, -8
 114              		.cfi_offset 14, -4
ARM GAS  C:\Users\jsyoon\AppData\Local\Temp\cc5ypfvg.s 			page 3


 115 0002 83B0     		sub	sp, sp, #12
 116              		.cfi_def_cfa_offset 24
 117              		.loc 1 63 0
 118 0004 064C     		ldr	r4, .L10
 119              		.loc 1 64 0
 120 0006 074B     		ldr	r3, .L10+4
 121 0008 0748     		ldr	r0, .L10+8
 122 000a 0022     		movs	r2, #0
 123 000c 0092     		str	r2, [sp]
 124              		.loc 1 63 0
 125 000e 8025     		movs	r5, #128
 126              		.loc 1 64 0
 127 0010 4FF4B361 		mov	r1, #1432
 128 0014 4022     		movs	r2, #64
 129              		.loc 1 63 0
 130 0016 6560     		str	r5, [r4, #4]
 131              		.loc 1 64 0
 132 0018 FFF7FEFF 		bl	chThdCreateStatic
 133              	.LVL6:
 134              		.loc 1 65 0
 135 001c 03B0     		add	sp, sp, #12
 136              		@ sp needed
 137 001e 30BD     		pop	{r4, r5, pc}
 138              	.L11:
 139              		.align	2
 140              	.L10:
 141 0020 00000000 		.word	.LANCHOR1
 142 0024 00000000 		.word	chuk_thread
 143 0028 00000000 		.word	.LANCHOR2
 144              		.cfi_endproc
 145              	.LFE119:
 146              		.size	app_nunchuk_start, .-app_nunchuk_start
 147 002c AFF30080 		.section	.text.app_nunchuk_get_decoded_chuk,"ax",%progbits
 148              		.align	2
 149              		.p2align 4,,15
 150              		.global	app_nunchuk_get_decoded_chuk
 151              		.thumb
 152              		.thumb_func
 153              		.type	app_nunchuk_get_decoded_chuk, %function
 154              	app_nunchuk_get_decoded_chuk:
 155              	.LFB120:
 156              		.loc 1 67 0
 157              		.cfi_startproc
 158              		@ args = 0, pretend = 0, frame = 0
 159              		@ frame_needed = 0, uses_anonymous_args = 0
 160              		@ link register save eliminated.
 161              		.loc 1 68 0
 162 0000 064B     		ldr	r3, .L13
 163 0002 9FED077A 		flds	s14, .L13+4
 164 0006 93ED010A 		flds	s0, [r3, #4]	@ int
 165 000a DFED067A 		flds	s15, .L13+8
 166 000e B8EEC00A 		fsitos	s0, s0
 167 0012 30EE470A 		fsubs	s0, s0, s14
 168              		.loc 1 69 0
 169 0016 20EE270A 		fmuls	s0, s0, s15
 170 001a 7047     		bx	lr
 171              	.L14:
ARM GAS  C:\Users\jsyoon\AppData\Local\Temp\cc5ypfvg.s 			page 4


 172              		.align	2
 173              	.L13:
 174 001c 00000000 		.word	.LANCHOR1
 175 0020 00000043 		.word	1124073472
 176 0024 0000003C 		.word	1006632960
 177              		.cfi_endproc
 178              	.LFE120:
 179              		.size	app_nunchuk_get_decoded_chuk, .-app_nunchuk_get_decoded_chuk
 180 0028 AFF30080 		.section	.text.app_nunchuk_update_output,"ax",%progbits
 180      AFF30080 
 181              		.align	2
 182              		.p2align 4,,15
 183              		.global	app_nunchuk_update_output
 184              		.thumb
 185              		.thumb_func
 186              		.type	app_nunchuk_update_output, %function
 187              	app_nunchuk_update_output:
 188              	.LFB121:
 189              		.loc 1 71 0
 190              		.cfi_startproc
 191              		@ args = 0, pretend = 0, frame = 0
 192              		@ frame_needed = 0, uses_anonymous_args = 0
 193              	.LVL7:
 194 0000 70B5     		push	{r4, r5, r6, lr}
 195              		.cfi_def_cfa_offset 16
 196              		.cfi_offset 4, -16
 197              		.cfi_offset 5, -12
 198              		.cfi_offset 6, -8
 199              		.cfi_offset 14, -4
 200              		.loc 1 72 0
 201 0002 104A     		ldr	r2, .L18
 202 0004 1378     		ldrb	r3, [r2]	@ zero_extendqisi2
 203              		.loc 1 71 0
 204 0006 82B0     		sub	sp, sp, #8
 205              		.cfi_def_cfa_offset 24
 206              		.loc 1 71 0
 207 0008 0546     		mov	r5, r0
 208              		.loc 1 72 0
 209 000a 03F0FF01 		and	r1, r3, #255
 210 000e 63B9     		cbnz	r3, .L16
 211              		.loc 1 75 0
 212 0010 0091     		str	r1, [sp]
 213              		.loc 1 74 0
 214 0012 0D4C     		ldr	r4, .L18+4
 215              		.loc 1 75 0
 216 0014 0D48     		ldr	r0, .L18+8
 217              	.LVL8:
 218 0016 0E4B     		ldr	r3, .L18+12
 219              		.loc 1 73 0
 220 0018 0121     		movs	r1, #1
 221 001a 1170     		strb	r1, [r2]
 222              		.loc 1 74 0
 223 001c 8026     		movs	r6, #128
 224              		.loc 1 75 0
 225 001e 4FF4B361 		mov	r1, #1432
 226 0022 4022     		movs	r2, #64
 227              		.loc 1 74 0
ARM GAS  C:\Users\jsyoon\AppData\Local\Temp\cc5ypfvg.s 			page 5


 228 0024 6660     		str	r6, [r4, #4]
 229              		.loc 1 75 0
 230 0026 FFF7FEFF 		bl	chThdCreateStatic
 231              	.LVL9:
 232              	.L16:
 233              		.loc 1 78 0
 234 002a 0FCD     		ldmia	r5!, {r0, r1, r2, r3}
 235              	.LVL10:
 236 002c 064C     		ldr	r4, .L18+4
 237 002e 0FC4     		stmia	r4!, {r0, r1, r2, r3}
 238 0030 95E80300 		ldmia	r5, {r0, r1}
 239 0034 84E80300 		stmia	r4, {r0, r1}
 240              		.loc 1 80 0
 241 0038 02B0     		add	sp, sp, #8
 242              		@ sp needed
 243 003a BDE87040 		pop	{r4, r5, r6, lr}
 244              	.LVL11:
 245              		.loc 1 79 0
 246 003e FFF7FEBF 		b	timeout_reset
 247              	.LVL12:
 248              	.L19:
 249 0042 00BF     		.align	2
 250              	.L18:
 251 0044 00000000 		.word	.LANCHOR3
 252 0048 00000000 		.word	.LANCHOR1
 253 004c 00000000 		.word	.LANCHOR4
 254 0050 00000000 		.word	output_thread
 255              		.cfi_endproc
 256              	.LFE121:
 257              		.size	app_nunchuk_update_output, .-app_nunchuk_update_output
 258 0054 AFF30080 		.section	.text.chuk_thread,"ax",%progbits
 258      AFF30080 
 258      AFF30080 
 259              		.align	2
 260              		.p2align 4,,15
 261              		.thumb
 262              		.thumb_func
 263              		.type	chuk_thread, %function
 264              	chuk_thread:
 265              	.LFB122:
 266              		.loc 1 82 0
 267              		.cfi_startproc
 268              		@ args = 0, pretend = 0, frame = 48
 269              		@ frame_needed = 0, uses_anonymous_args = 0
 270              	.LVL13:
 271 0000 2DE9F04F 		push	{r4, r5, r6, r7, r8, r9, r10, fp, lr}
 272              		.cfi_def_cfa_offset 36
 273              		.cfi_offset 4, -36
 274              		.cfi_offset 5, -32
 275              		.cfi_offset 6, -28
 276              		.cfi_offset 7, -24
 277              		.cfi_offset 8, -20
 278              		.cfi_offset 9, -16
 279              		.cfi_offset 10, -12
 280              		.cfi_offset 11, -8
 281              		.cfi_offset 14, -4
 282              		.loc 1 85 0
ARM GAS  C:\Users\jsyoon\AppData\Local\Temp\cc5ypfvg.s 			page 6


 283 0004 634B     		ldr	r3, .L36
 284 0006 6449     		ldr	r1, .L36+4
 285 0008 9A69     		ldr	r2, [r3, #24]
 286              		.loc 1 86 0
 287 000a 644B     		ldr	r3, .L36+8
 288              		.loc 1 85 0
 289 000c 9161     		str	r1, [r2, #24]
 290              		.loc 1 82 0
 291 000e 91B0     		sub	sp, sp, #68
 292              		.cfi_def_cfa_offset 104
 293              		.loc 1 86 0
 294 0010 0122     		movs	r2, #1
 295 0012 634D     		ldr	r5, .L36+12
 296 0014 1A70     		strb	r2, [r3]
 297              	.LVL14:
 298              		.loc 1 95 0
 299 0016 FFF7FEFF 		bl	hw_start_i2c
 300              	.LVL15:
 301              		.loc 1 96 0
 302 001a 6420     		movs	r0, #100
 303 001c FFF7FEFF 		bl	chThdSleep
 304              	.LVL16:
 305 0020 DFF88481 		ldr	r8, .L36+20
 306 0024 05F10409 		add	r9, r5, #4
 307 0028 04AC     		add	r4, sp, #16
 308              	.LBB2:
 309              		.loc 1 101 0
 310 002a F027     		movs	r7, #240
 311              		.loc 1 102 0
 312 002c 5526     		movs	r6, #85
 313 002e 0BE0     		b	.L29
 314              	.LVL17:
 315              	.L23:
 316              		.loc 1 163 0
 317 0030 0223     		movs	r3, #2
 318 0032 C8F80030 		str	r3, [r8]
 319              		.loc 1 164 0
 320 0036 FFF7FEFF 		bl	hw_try_restore_i2c
 321              	.LVL18:
 322              		.loc 1 165 0
 323 003a 4FF47A70 		mov	r0, #1000
 324 003e FFF7FEFF 		bl	chThdSleep
 325              	.LVL19:
 326              	.L28:
 327              		.loc 1 168 0
 328 0042 6420     		movs	r0, #100
 329 0044 FFF7FEFF 		bl	chThdSleep
 330              	.LVL20:
 331              	.L29:
 332              		.loc 1 103 0
 333 0048 5648     		ldr	r0, .L36+16
 334              		.loc 1 101 0
 335 004a 8DF81C70 		strb	r7, [sp, #28]
 336              		.loc 1 102 0
 337 004e 8DF81D60 		strb	r6, [sp, #29]
 338              		.loc 1 104 0
 339 0052 4FF0320A 		mov	r10, #50
ARM GAS  C:\Users\jsyoon\AppData\Local\Temp\cc5ypfvg.s 			page 7


 340              		.loc 1 103 0
 341 0056 FFF7FEFF 		bl	i2cAcquireBus
 342              	.LVL21:
 343              		.loc 1 104 0
 344 005a 0023     		movs	r3, #0
 345 005c 0193     		str	r3, [sp, #4]
 346 005e 0094     		str	r4, [sp]
 347 0060 CDF808A0 		str	r10, [sp, #8]
 348 0064 4F48     		ldr	r0, .L36+16
 349 0066 5221     		movs	r1, #82
 350 0068 07AA     		add	r2, sp, #28
 351 006a 0223     		movs	r3, #2
 352 006c FFF7FEFF 		bl	i2cMasterTransmitTimeout
 353              	.LVL22:
 354 0070 8346     		mov	fp, r0
 355              	.LVL23:
 356              		.loc 1 105 0
 357 0072 4C48     		ldr	r0, .L36+16
 358              	.LVL24:
 359 0074 FFF7FEFF 		bl	i2cReleaseBus
 360              	.LVL25:
 361              		.loc 1 108 0
 362 0078 BBF1000F 		cmp	fp, #0
 363 007c D8D1     		bne	.L23
 364              		.loc 1 109 0
 365 007e FB23     		movs	r3, #251
 366              		.loc 1 111 0
 367 0080 4848     		ldr	r0, .L36+16
 368              		.loc 1 110 0
 369 0082 8DF81DB0 		strb	fp, [sp, #29]
 370              		.loc 1 109 0
 371 0086 8DF81C30 		strb	r3, [sp, #28]
 372              		.loc 1 111 0
 373 008a FFF7FEFF 		bl	i2cAcquireBus
 374              	.LVL26:
 375              		.loc 1 112 0
 376 008e 8DE81008 		stmia	sp, {r4, fp}
 377 0092 CDF808A0 		str	r10, [sp, #8]
 378 0096 4348     		ldr	r0, .L36+16
 379 0098 5221     		movs	r1, #82
 380 009a 07AA     		add	r2, sp, #28
 381 009c 0223     		movs	r3, #2
 382 009e FFF7FEFF 		bl	i2cMasterTransmitTimeout
 383              	.LVL27:
 384 00a2 8346     		mov	fp, r0
 385              	.LVL28:
 386              		.loc 1 113 0
 387 00a4 3F48     		ldr	r0, .L36+16
 388              	.LVL29:
 389 00a6 FFF7FEFF 		bl	i2cReleaseBus
 390              	.LVL30:
 391              		.loc 1 117 0
 392 00aa BBF1000F 		cmp	fp, #0
 393 00ae BFD1     		bne	.L23
 394              		.loc 1 119 0
 395 00b0 3C48     		ldr	r0, .L36+16
 396              		.loc 1 118 0
ARM GAS  C:\Users\jsyoon\AppData\Local\Temp\cc5ypfvg.s 			page 8


 397 00b2 8DF81CB0 		strb	fp, [sp, #28]
 398              		.loc 1 119 0
 399 00b6 FFF7FEFF 		bl	i2cAcquireBus
 400              	.LVL31:
 401              		.loc 1 120 0
 402 00ba 8DE81008 		stmia	sp, {r4, fp}
 403 00be CDF808A0 		str	r10, [sp, #8]
 404 00c2 3848     		ldr	r0, .L36+16
 405 00c4 5221     		movs	r1, #82
 406 00c6 07AA     		add	r2, sp, #28
 407 00c8 0123     		movs	r3, #1
 408 00ca FFF7FEFF 		bl	i2cMasterTransmitTimeout
 409              	.LVL32:
 410 00ce 8346     		mov	fp, r0
 411              	.LVL33:
 412              		.loc 1 121 0
 413 00d0 3448     		ldr	r0, .L36+16
 414              	.LVL34:
 415 00d2 FFF7FEFF 		bl	i2cReleaseBus
 416              	.LVL35:
 417              		.loc 1 125 0
 418 00d6 BBF1000F 		cmp	fp, #0
 419 00da A9D1     		bne	.L23
 420              		.loc 1 126 0
 421 00dc 1E20     		movs	r0, #30
 422 00de FFF7FEFF 		bl	chThdSleep
 423              	.LVL36:
 424              		.loc 1 128 0
 425 00e2 3048     		ldr	r0, .L36+16
 426 00e4 FFF7FEFF 		bl	i2cAcquireBus
 427              	.LVL37:
 428              		.loc 1 129 0
 429 00e8 CDF800A0 		str	r10, [sp]
 430 00ec 2D48     		ldr	r0, .L36+16
 431 00ee 5221     		movs	r1, #82
 432 00f0 2246     		mov	r2, r4
 433 00f2 0623     		movs	r3, #6
 434 00f4 FFF7FEFF 		bl	i2cMasterReceiveTimeout
 435              	.LVL38:
 436 00f8 8246     		mov	r10, r0
 437              	.LVL39:
 438              		.loc 1 130 0
 439 00fa 2A48     		ldr	r0, .L36+16
 440              	.LVL40:
 441 00fc FFF7FEFF 		bl	i2cReleaseBus
 442              	.LVL41:
 443              		.loc 1 134 0
 444 0100 BAF1000F 		cmp	r10, #0
 445 0104 94D1     		bne	.L23
 446 0106 5046     		mov	r0, r10
 447 0108 0123     		movs	r3, #1
 448              	.L26:
 449              	.LVL42:
 450              	.LBB3:
 451              	.LBB4:
 452              		.loc 1 139 0
 453 010a 295C     		ldrb	r1, [r5, r0]	@ zero_extendqisi2
ARM GAS  C:\Users\jsyoon\AppData\Local\Temp\cc5ypfvg.s 			page 9


 454 010c 225C     		ldrb	r2, [r4, r0]	@ zero_extendqisi2
 455              		.loc 1 138 0
 456 010e 0130     		adds	r0, r0, #1
 457              	.LVL43:
 458              		.loc 1 140 0
 459 0110 9142     		cmp	r1, r2
 460 0112 18BF     		it	ne
 461 0114 0023     		movne	r3, #0
 462              	.LVL44:
 463              		.loc 1 138 0
 464 0116 0628     		cmp	r0, #6
 465 0118 F7D1     		bne	.L26
 466              	.LBE4:
 467              		.loc 1 144 0
 468 011a 94E80300 		ldmia	r4, {r0, r1}
 469              	.LVL45:
 470 011e 2860     		str	r0, [r5]
 471 0120 A9F80010 		strh	r1, [r9]	@ movhi
 472              		.loc 1 146 0
 473 0124 3BB1     		cbz	r3, .L35
 474              	.LVL46:
 475              	.L27:
 476              		.loc 1 159 0
 477 0126 FFF7FEFF 		bl	timeout_has_timeout
 478              	.LVL47:
 479 012a 0028     		cmp	r0, #0
 480 012c 89D0     		beq	.L28
 481              		.loc 1 160 0
 482 012e 0123     		movs	r3, #1
 483 0130 C8F80030 		str	r3, [r8]
 484 0134 85E7     		b	.L28
 485              	.LVL48:
 486              	.L35:
 487              		.loc 1 150 0
 488 0136 9DF81520 		ldrb	r2, [sp, #21]	@ zero_extendqisi2
 489 013a 9DF812C0 		ldrb	ip, [sp, #18]	@ zero_extendqisi2
 490              		.loc 1 151 0
 491 013e 9DF813E0 		ldrb	lr, [sp, #19]	@ zero_extendqisi2
 492              		.loc 1 152 0
 493 0142 9DF81410 		ldrb	r1, [sp, #20]	@ zero_extendqisi2
 494              		.loc 1 147 0
 495 0146 C8F80030 		str	r3, [r8]
 496              		.loc 1 151 0
 497 014a C2F30110 		ubfx	r0, r2, #4, #2
 498              		.loc 1 150 0
 499 014e C2F38103 		ubfx	r3, r2, #2, #2
 500              	.LVL49:
 501 0152 43EA8C03 		orr	r3, r3, ip, lsl #2
 502              		.loc 1 151 0
 503 0156 40EA8E00 		orr	r0, r0, lr, lsl #2
 504              		.loc 1 152 0
 505 015a 8900     		lsls	r1, r1, #2
 506              		.loc 1 153 0
 507 015c 02F0010C 		and	ip, r2, #1
 508              		.loc 1 154 0
 509 0160 C2F3400E 		ubfx	lr, r2, #1, #1
 510              		.loc 1 153 0
ARM GAS  C:\Users\jsyoon\AppData\Local\Temp\cc5ypfvg.s 			page 10


 511 0164 8CF0010C 		eor	ip, ip, #1
 512              		.loc 1 152 0
 513 0168 41EA9212 		orr	r2, r1, r2, lsr #6
 514              		.loc 1 154 0
 515 016c 8EF0010E 		eor	lr, lr, #1
 516              		.loc 1 148 0
 517 0170 9DF81010 		ldrb	r1, [sp, #16]	@ zero_extendqisi2
 518              		.loc 1 150 0
 519 0174 0C93     		str	r3, [sp, #48]
 520              		.loc 1 151 0
 521 0176 0D90     		str	r0, [sp, #52]
 522              		.loc 1 149 0
 523 0178 9DF81130 		ldrb	r3, [sp, #17]	@ zero_extendqisi2
 524              		.loc 1 153 0
 525 017c 8DF83DC0 		strb	ip, [sp, #61]
 526              		.loc 1 156 0
 527 0180 0AA8     		add	r0, sp, #40
 528              		.loc 1 154 0
 529 0182 8DF83CE0 		strb	lr, [sp, #60]
 530              		.loc 1 152 0
 531 0186 0E92     		str	r2, [sp, #56]
 532              		.loc 1 148 0
 533 0188 0A91     		str	r1, [sp, #40]
 534              		.loc 1 149 0
 535 018a 0B93     		str	r3, [sp, #44]
 536              		.loc 1 156 0
 537 018c FFF7FEFF 		bl	app_nunchuk_update_output
 538              	.LVL50:
 539 0190 C9E7     		b	.L27
 540              	.L37:
 541 0192 00BF     		.align	2
 542              	.L36:
 543 0194 00000000 		.word	rlist
 544 0198 10000000 		.word	.LC1
 545 019c 00000000 		.word	.LANCHOR5
 546 01a0 00000000 		.word	.LANCHOR6
 547 01a4 00000000 		.word	I2CD2
 548 01a8 00000000 		.word	.LANCHOR7
 549              	.LBE3:
 550              	.LBE2:
 551              		.cfi_endproc
 552              	.LFE122:
 553              		.size	chuk_thread, .-chuk_thread
 554 01ac AFF30080 		.section	.bss.output_running,"aw",%nobits
 555              		.set	.LANCHOR3,. + 0
 556              		.type	output_running, %object
 557              		.size	output_running, 1
 558              	output_running:
 559 0000 00       		.space	1
 560              		.section	.bss.chuk_thread_wa,"aw",%nobits
 561              		.align	3
 562              		.set	.LANCHOR2,. + 0
 563              		.type	chuk_thread_wa, %object
 564              		.size	chuk_thread_wa, 1432
 565              	chuk_thread_wa:
 566 0000 00000000 		.space	1432
 566      00000000 
ARM GAS  C:\Users\jsyoon\AppData\Local\Temp\cc5ypfvg.s 			page 11


 566      00000000 
 566      00000000 
 566      00000000 
 567              		.section	.bss.output_thread_wa,"aw",%nobits
 568              		.align	3
 569              		.set	.LANCHOR4,. + 0
 570              		.type	output_thread_wa, %object
 571              		.size	output_thread_wa, 1432
 572              	output_thread_wa:
 573 0000 00000000 		.space	1432
 573      00000000 
 573      00000000 
 573      00000000 
 573      00000000 
 574              		.section	.bss.is_running,"aw",%nobits
 575              		.set	.LANCHOR5,. + 0
 576              		.type	is_running, %object
 577              		.size	is_running, 1
 578              	is_running:
 579 0000 00       		.space	1
 580              		.section	.bss.chuck_d,"aw",%nobits
 581              		.align	2
 582              		.set	.LANCHOR1,. + 0
 583              		.type	chuck_d, %object
 584              		.size	chuck_d, 24
 585              	chuck_d:
 586 0000 00000000 		.space	24
 586      00000000 
 586      00000000 
 586      00000000 
 586      00000000 
 587              		.section	.bss.last_buffer.10401,"aw",%nobits
 588              		.align	2
 589              		.set	.LANCHOR6,. + 0
 590              		.type	last_buffer.10401, %object
 591              		.size	last_buffer.10401, 10
 592              	last_buffer.10401:
 593 0000 00000000 		.space	10
 593      00000000 
 593      0000
 594 000a 0000     		.section	.rodata.str1.4,"aMS",%progbits,1
 595              		.align	2
 596              	.LC0:
 597 0000 4E756E63 		.ascii	"Nunchuk output\000"
 597      68756B20 
 597      6F757470 
 597      757400
 598 000f 00       		.space	1
 599              	.LC1:
 600 0010 4E756E63 		.ascii	"Nunchuk i2c\000"
 600      68756B20 
 600      69326300 
 601              		.section	.bss.chuck_error,"aw",%nobits
 602              		.align	2
 603              		.set	.LANCHOR7,. + 0
 604              		.type	chuck_error, %object
 605              		.size	chuck_error, 4
ARM GAS  C:\Users\jsyoon\AppData\Local\Temp\cc5ypfvg.s 			page 12


 606              	chuck_error:
 607 0000 00000000 		.space	4
 608              		.section	.bss.config,"aw",%nobits
 609              		.align	2
 610              		.set	.LANCHOR0,. + 0
 611              		.type	config, %object
 612              		.size	config, 32
 613              	config:
 614 0000 00000000 		.space	32
 614      00000000 
 614      00000000 
 614      00000000 
 614      00000000 
 615              		.text
 616              	.Letext0:
 617              		.file 2 "c:\\crosstools\\gcc-arm-embedded\\4.8_2014q2\\arm-none-eabi\\include\\machine\\_default_t
 618              		.file 3 "c:\\crosstools\\gcc-arm-embedded\\4.8_2014q2\\arm-none-eabi\\include\\stdint.h"
 619              		.file 4 "c:\\crosstools\\gcc-arm-embedded\\4.8_2014q2\\lib\\gcc\\arm-none-eabi\\4.8.4\\include\\st
 620              		.file 5 "ChibiOS_2.6.6/os/ports/GCC/ARMCMx/chtypes.h"
 621              		.file 6 "ChibiOS_2.6.6/os/kernel/include/chlists.h"
 622              		.file 7 "ChibiOS_2.6.6/os/kernel/include/chthreads.h"
 623              		.file 8 "ChibiOS_2.6.6/os/ports/GCC/ARMCMx/chcore_v7m.h"
 624              		.file 9 "ChibiOS_2.6.6/os/kernel/include/chschd.h"
 625              		.file 10 "ChibiOS_2.6.6/os/kernel/include/chmtx.h"
 626              		.file 11 "./datatypes.h"
 627              		.file 12 "ChibiOS_2.6.6/os/hal/platforms/STM32F4xx/stm32f4xx.h"
 628              		.file 13 "ChibiOS_2.6.6/os/hal/platforms/STM32F4xx/stm32_dma.h"
 629              		.file 14 "ChibiOS_2.6.6/os/hal/include/i2c.h"
 630              		.file 15 "ChibiOS_2.6.6/os/hal/platforms/STM32/I2Cv1/i2c_lld.h"
 631              		.file 16 "ChibiOS_2.6.6/os/ports/common/ARMCMx/CMSIS/include/core_cm4.h"
 632              		.file 17 "./timeout.h"
 633              		.file 18 "hwconf/hw.h"
 634              		.section	.debug_info,"",%progbits
 635              	.Ldebug_info0:
 636 0000 2C0F0000 		.4byte	0xf2c
 637 0004 0400     		.2byte	0x4
 638 0006 00000000 		.4byte	.Ldebug_abbrev0
 639 000a 04       		.byte	0x4
 640 000b 01       		.uleb128 0x1
 641 000c 06020000 		.4byte	.LASF187
 642 0010 01       		.byte	0x1
 643 0011 A7030000 		.4byte	.LASF188
 644 0015 C1010000 		.4byte	.LASF189
 645 0019 00000000 		.4byte	.Ldebug_ranges0+0
 646 001d 00000000 		.4byte	0
 647 0021 00000000 		.4byte	.Ldebug_line0
 648 0025 02       		.uleb128 0x2
 649 0026 01       		.byte	0x1
 650 0027 06       		.byte	0x6
 651 0028 48000000 		.4byte	.LASF0
 652 002c 03       		.uleb128 0x3
 653 002d 54000000 		.4byte	.LASF3
 654 0031 02       		.byte	0x2
 655 0032 1C       		.byte	0x1c
 656 0033 37000000 		.4byte	0x37
 657 0037 02       		.uleb128 0x2
 658 0038 01       		.byte	0x1
ARM GAS  C:\Users\jsyoon\AppData\Local\Temp\cc5ypfvg.s 			page 13


 659 0039 08       		.byte	0x8
 660 003a 83060000 		.4byte	.LASF1
 661 003e 02       		.uleb128 0x2
 662 003f 02       		.byte	0x2
 663 0040 05       		.byte	0x5
 664 0041 93070000 		.4byte	.LASF2
 665 0045 03       		.uleb128 0x3
 666 0046 80070000 		.4byte	.LASF4
 667 004a 02       		.byte	0x2
 668 004b 26       		.byte	0x26
 669 004c 50000000 		.4byte	0x50
 670 0050 02       		.uleb128 0x2
 671 0051 02       		.byte	0x2
 672 0052 07       		.byte	0x7
 673 0053 69040000 		.4byte	.LASF5
 674 0057 03       		.uleb128 0x3
 675 0058 CD070000 		.4byte	.LASF6
 676 005c 02       		.byte	0x2
 677 005d 37       		.byte	0x37
 678 005e 62000000 		.4byte	0x62
 679 0062 02       		.uleb128 0x2
 680 0063 04       		.byte	0x4
 681 0064 05       		.byte	0x5
 682 0065 F6070000 		.4byte	.LASF7
 683 0069 03       		.uleb128 0x3
 684 006a 92030000 		.4byte	.LASF8
 685 006e 02       		.byte	0x2
 686 006f 38       		.byte	0x38
 687 0070 74000000 		.4byte	0x74
 688 0074 02       		.uleb128 0x2
 689 0075 04       		.byte	0x4
 690 0076 07       		.byte	0x7
 691 0077 6D010000 		.4byte	.LASF9
 692 007b 02       		.uleb128 0x2
 693 007c 08       		.byte	0x8
 694 007d 05       		.byte	0x5
 695 007e 2F010000 		.4byte	.LASF10
 696 0082 03       		.uleb128 0x3
 697 0083 C2050000 		.4byte	.LASF11
 698 0087 02       		.byte	0x2
 699 0088 4E       		.byte	0x4e
 700 0089 8D000000 		.4byte	0x8d
 701 008d 02       		.uleb128 0x2
 702 008e 08       		.byte	0x8
 703 008f 07       		.byte	0x7
 704 0090 87010000 		.4byte	.LASF12
 705 0094 04       		.uleb128 0x4
 706 0095 04       		.byte	0x4
 707 0096 05       		.byte	0x5
 708 0097 696E7400 		.ascii	"int\000"
 709 009b 02       		.uleb128 0x2
 710 009c 04       		.byte	0x4
 711 009d 07       		.byte	0x7
 712 009e EA030000 		.4byte	.LASF13
 713 00a2 03       		.uleb128 0x3
 714 00a3 7C080000 		.4byte	.LASF14
 715 00a7 03       		.byte	0x3
ARM GAS  C:\Users\jsyoon\AppData\Local\Temp\cc5ypfvg.s 			page 14


 716 00a8 2A       		.byte	0x2a
 717 00a9 2C000000 		.4byte	0x2c
 718 00ad 03       		.uleb128 0x3
 719 00ae F7030000 		.4byte	.LASF15
 720 00b2 03       		.byte	0x3
 721 00b3 36       		.byte	0x36
 722 00b4 45000000 		.4byte	0x45
 723 00b8 03       		.uleb128 0x3
 724 00b9 2E050000 		.4byte	.LASF16
 725 00bd 03       		.byte	0x3
 726 00be 41       		.byte	0x41
 727 00bf 57000000 		.4byte	0x57
 728 00c3 03       		.uleb128 0x3
 729 00c4 25070000 		.4byte	.LASF17
 730 00c8 03       		.byte	0x3
 731 00c9 42       		.byte	0x42
 732 00ca 69000000 		.4byte	0x69
 733 00ce 03       		.uleb128 0x3
 734 00cf 3F000000 		.4byte	.LASF18
 735 00d3 03       		.byte	0x3
 736 00d4 4E       		.byte	0x4e
 737 00d5 82000000 		.4byte	0x82
 738 00d9 03       		.uleb128 0x3
 739 00da 90050000 		.4byte	.LASF19
 740 00de 04       		.byte	0x4
 741 00df D4       		.byte	0xd4
 742 00e0 9B000000 		.4byte	0x9b
 743 00e4 02       		.uleb128 0x2
 744 00e5 01       		.byte	0x1
 745 00e6 02       		.byte	0x2
 746 00e7 73060000 		.4byte	.LASF20
 747 00eb 03       		.uleb128 0x3
 748 00ec CE040000 		.4byte	.LASF21
 749 00f0 05       		.byte	0x5
 750 00f1 2C       		.byte	0x2c
 751 00f2 A2000000 		.4byte	0xa2
 752 00f6 03       		.uleb128 0x3
 753 00f7 FD010000 		.4byte	.LASF22
 754 00fb 05       		.byte	0x5
 755 00fc 2D       		.byte	0x2d
 756 00fd A2000000 		.4byte	0xa2
 757 0101 03       		.uleb128 0x3
 758 0102 D3050000 		.4byte	.LASF23
 759 0106 05       		.byte	0x5
 760 0107 2E       		.byte	0x2e
 761 0108 A2000000 		.4byte	0xa2
 762 010c 03       		.uleb128 0x3
 763 010d B2010000 		.4byte	.LASF24
 764 0111 05       		.byte	0x5
 765 0112 2F       		.byte	0x2f
 766 0113 A2000000 		.4byte	0xa2
 767 0117 03       		.uleb128 0x3
 768 0118 4B060000 		.4byte	.LASF25
 769 011c 05       		.byte	0x5
 770 011d 30       		.byte	0x30
 771 011e C3000000 		.4byte	0xc3
 772 0122 03       		.uleb128 0x3
ARM GAS  C:\Users\jsyoon\AppData\Local\Temp\cc5ypfvg.s 			page 15


 773 0123 9A040000 		.4byte	.LASF26
 774 0127 05       		.byte	0x5
 775 0128 31       		.byte	0x31
 776 0129 B8000000 		.4byte	0xb8
 777 012d 03       		.uleb128 0x3
 778 012e E5040000 		.4byte	.LASF27
 779 0132 05       		.byte	0x5
 780 0133 33       		.byte	0x33
 781 0134 C3000000 		.4byte	0xc3
 782 0138 03       		.uleb128 0x3
 783 0139 B8070000 		.4byte	.LASF28
 784 013d 05       		.byte	0x5
 785 013e 35       		.byte	0x35
 786 013f C3000000 		.4byte	0xc3
 787 0143 03       		.uleb128 0x3
 788 0144 EF060000 		.4byte	.LASF29
 789 0148 06       		.byte	0x6
 790 0149 2A       		.byte	0x2a
 791 014a 4E010000 		.4byte	0x14e
 792 014e 05       		.uleb128 0x5
 793 014f EF060000 		.4byte	.LASF29
 794 0153 48       		.byte	0x48
 795 0154 07       		.byte	0x7
 796 0155 5E       		.byte	0x5e
 797 0156 4B020000 		.4byte	0x24b
 798 015a 06       		.uleb128 0x6
 799 015b D6060000 		.4byte	.LASF30
 800 015f 07       		.byte	0x7
 801 0160 5F       		.byte	0x5f
 802 0161 6C020000 		.4byte	0x26c
 803 0165 00       		.byte	0
 804 0166 06       		.uleb128 0x6
 805 0167 19060000 		.4byte	.LASF31
 806 016b 07       		.byte	0x7
 807 016c 61       		.byte	0x61
 808 016d 6C020000 		.4byte	0x26c
 809 0171 04       		.byte	0x4
 810 0172 06       		.uleb128 0x6
 811 0173 5B050000 		.4byte	.LASF32
 812 0177 07       		.byte	0x7
 813 0178 63       		.byte	0x63
 814 0179 17010000 		.4byte	0x117
 815 017d 08       		.byte	0x8
 816 017e 06       		.uleb128 0x6
 817 017f 21090000 		.4byte	.LASF33
 818 0183 07       		.byte	0x7
 819 0184 64       		.byte	0x64
 820 0185 01040000 		.4byte	0x401
 821 0189 0C       		.byte	0xc
 822 018a 06       		.uleb128 0x6
 823 018b 43030000 		.4byte	.LASF34
 824 018f 07       		.byte	0x7
 825 0190 66       		.byte	0x66
 826 0191 6C020000 		.4byte	0x26c
 827 0195 10       		.byte	0x10
 828 0196 06       		.uleb128 0x6
 829 0197 62050000 		.4byte	.LASF35
ARM GAS  C:\Users\jsyoon\AppData\Local\Temp\cc5ypfvg.s 			page 16


 830 019b 07       		.byte	0x7
 831 019c 67       		.byte	0x67
 832 019d 6C020000 		.4byte	0x26c
 833 01a1 14       		.byte	0x14
 834 01a2 06       		.uleb128 0x6
 835 01a3 4C080000 		.4byte	.LASF36
 836 01a7 07       		.byte	0x7
 837 01a8 6E       		.byte	0x6e
 838 01a9 06050000 		.4byte	0x506
 839 01ad 18       		.byte	0x18
 840 01ae 06       		.uleb128 0x6
 841 01af B6060000 		.4byte	.LASF37
 842 01b3 07       		.byte	0x7
 843 01b4 79       		.byte	0x79
 844 01b5 F6000000 		.4byte	0xf6
 845 01b9 1C       		.byte	0x1c
 846 01ba 06       		.uleb128 0x6
 847 01bb DD060000 		.4byte	.LASF38
 848 01bf 07       		.byte	0x7
 849 01c0 7D       		.byte	0x7d
 850 01c1 EB000000 		.4byte	0xeb
 851 01c5 1D       		.byte	0x1d
 852 01c6 06       		.uleb128 0x6
 853 01c7 53080000 		.4byte	.LASF39
 854 01cb 07       		.byte	0x7
 855 01cc 82       		.byte	0x82
 856 01cd 01010000 		.4byte	0x101
 857 01d1 1E       		.byte	0x1e
 858 01d2 06       		.uleb128 0x6
 859 01d3 BE060000 		.4byte	.LASF40
 860 01d7 07       		.byte	0x7
 861 01d8 88       		.byte	0x88
 862 01d9 0C010000 		.4byte	0x10c
 863 01dd 1F       		.byte	0x1f
 864 01de 06       		.uleb128 0x6
 865 01df EF070000 		.4byte	.LASF41
 866 01e3 07       		.byte	0x7
 867 01e4 8F       		.byte	0x8f
 868 01e5 2E040000 		.4byte	0x42e
 869 01e9 20       		.byte	0x20
 870 01ea 07       		.uleb128 0x7
 871 01eb 705F7500 		.ascii	"p_u\000"
 872 01ef 07       		.byte	0x7
 873 01f0 B4       		.byte	0xb4
 874 01f1 D1040000 		.4byte	0x4d1
 875 01f5 24       		.byte	0x24
 876 01f6 06       		.uleb128 0x6
 877 01f7 27090000 		.4byte	.LASF42
 878 01fb 07       		.byte	0x7
 879 01fc B9       		.byte	0xb9
 880 01fd 92020000 		.4byte	0x292
 881 0201 28       		.byte	0x28
 882 0202 06       		.uleb128 0x6
 883 0203 06080000 		.4byte	.LASF43
 884 0207 07       		.byte	0x7
 885 0208 BF       		.byte	0xbf
 886 0209 72020000 		.4byte	0x272
ARM GAS  C:\Users\jsyoon\AppData\Local\Temp\cc5ypfvg.s 			page 17


 887 020d 2C       		.byte	0x2c
 888 020e 06       		.uleb128 0x6
 889 020f EE080000 		.4byte	.LASF44
 890 0213 07       		.byte	0x7
 891 0214 C3       		.byte	0xc3
 892 0215 22010000 		.4byte	0x122
 893 0219 34       		.byte	0x34
 894 021a 06       		.uleb128 0x6
 895 021b 0B070000 		.4byte	.LASF45
 896 021f 07       		.byte	0x7
 897 0220 C9       		.byte	0xc9
 898 0221 2D010000 		.4byte	0x12d
 899 0225 38       		.byte	0x38
 900 0226 06       		.uleb128 0x6
 901 0227 A0060000 		.4byte	.LASF46
 902 022b 07       		.byte	0x7
 903 022c D0       		.byte	0xd0
 904 022d 18050000 		.4byte	0x518
 905 0231 3C       		.byte	0x3c
 906 0232 06       		.uleb128 0x6
 907 0233 C2070000 		.4byte	.LASF47
 908 0237 07       		.byte	0x7
 909 0238 D4       		.byte	0xd4
 910 0239 17010000 		.4byte	0x117
 911 023d 40       		.byte	0x40
 912 023e 06       		.uleb128 0x6
 913 023f 7F010000 		.4byte	.LASF48
 914 0243 07       		.byte	0x7
 915 0244 DA       		.byte	0xda
 916 0245 A8020000 		.4byte	0x2a8
 917 0249 44       		.byte	0x44
 918 024a 00       		.byte	0
 919 024b 08       		.uleb128 0x8
 920 024c 08       		.byte	0x8
 921 024d 06       		.byte	0x6
 922 024e 61       		.byte	0x61
 923 024f 6C020000 		.4byte	0x26c
 924 0253 06       		.uleb128 0x6
 925 0254 D6060000 		.4byte	.LASF30
 926 0258 06       		.byte	0x6
 927 0259 62       		.byte	0x62
 928 025a 6C020000 		.4byte	0x26c
 929 025e 00       		.byte	0
 930 025f 06       		.uleb128 0x6
 931 0260 19060000 		.4byte	.LASF31
 932 0264 06       		.byte	0x6
 933 0265 64       		.byte	0x64
 934 0266 6C020000 		.4byte	0x26c
 935 026a 04       		.byte	0x4
 936 026b 00       		.byte	0
 937 026c 09       		.uleb128 0x9
 938 026d 04       		.byte	0x4
 939 026e 43010000 		.4byte	0x143
 940 0272 03       		.uleb128 0x3
 941 0273 9E000000 		.4byte	.LASF49
 942 0277 06       		.byte	0x6
 943 0278 66       		.byte	0x66
ARM GAS  C:\Users\jsyoon\AppData\Local\Temp\cc5ypfvg.s 			page 18


 944 0279 4B020000 		.4byte	0x24b
 945 027d 08       		.uleb128 0x8
 946 027e 04       		.byte	0x4
 947 027f 06       		.byte	0x6
 948 0280 6B       		.byte	0x6b
 949 0281 92020000 		.4byte	0x292
 950 0285 06       		.uleb128 0x6
 951 0286 D6060000 		.4byte	.LASF30
 952 028a 06       		.byte	0x6
 953 028b 6D       		.byte	0x6d
 954 028c 6C020000 		.4byte	0x26c
 955 0290 00       		.byte	0
 956 0291 00       		.byte	0
 957 0292 03       		.uleb128 0x3
 958 0293 2C000000 		.4byte	.LASF50
 959 0297 06       		.byte	0x6
 960 0298 70       		.byte	0x70
 961 0299 7D020000 		.4byte	0x27d
 962 029d 03       		.uleb128 0x3
 963 029e 2E070000 		.4byte	.LASF51
 964 02a2 08       		.byte	0x8
 965 02a3 E5       		.byte	0xe5
 966 02a4 A8020000 		.4byte	0x2a8
 967 02a8 0A       		.uleb128 0xa
 968 02a9 04       		.byte	0x4
 969 02aa 03       		.uleb128 0x3
 970 02ab 08050000 		.4byte	.LASF52
 971 02af 08       		.byte	0x8
 972 02b0 EB       		.byte	0xeb
 973 02b1 CE000000 		.4byte	0xce
 974 02b5 0B       		.uleb128 0xb
 975 02b6 FF070000 		.4byte	.LASF53
 976 02ba 64       		.byte	0x64
 977 02bb 08       		.byte	0x8
 978 02bc 0C01     		.2byte	0x10c
 979 02be 01040000 		.4byte	0x401
 980 02c2 0C       		.uleb128 0xc
 981 02c3 73313600 		.ascii	"s16\000"
 982 02c7 08       		.byte	0x8
 983 02c8 0E01     		.2byte	0x10e
 984 02ca 9D020000 		.4byte	0x29d
 985 02ce 00       		.byte	0
 986 02cf 0C       		.uleb128 0xc
 987 02d0 73313700 		.ascii	"s17\000"
 988 02d4 08       		.byte	0x8
 989 02d5 0F01     		.2byte	0x10f
 990 02d7 9D020000 		.4byte	0x29d
 991 02db 04       		.byte	0x4
 992 02dc 0C       		.uleb128 0xc
 993 02dd 73313800 		.ascii	"s18\000"
 994 02e1 08       		.byte	0x8
 995 02e2 1001     		.2byte	0x110
 996 02e4 9D020000 		.4byte	0x29d
 997 02e8 08       		.byte	0x8
 998 02e9 0C       		.uleb128 0xc
 999 02ea 73313900 		.ascii	"s19\000"
 1000 02ee 08       		.byte	0x8
ARM GAS  C:\Users\jsyoon\AppData\Local\Temp\cc5ypfvg.s 			page 19


 1001 02ef 1101     		.2byte	0x111
 1002 02f1 9D020000 		.4byte	0x29d
 1003 02f5 0C       		.byte	0xc
 1004 02f6 0C       		.uleb128 0xc
 1005 02f7 73323000 		.ascii	"s20\000"
 1006 02fb 08       		.byte	0x8
 1007 02fc 1201     		.2byte	0x112
 1008 02fe 9D020000 		.4byte	0x29d
 1009 0302 10       		.byte	0x10
 1010 0303 0C       		.uleb128 0xc
 1011 0304 73323100 		.ascii	"s21\000"
 1012 0308 08       		.byte	0x8
 1013 0309 1301     		.2byte	0x113
 1014 030b 9D020000 		.4byte	0x29d
 1015 030f 14       		.byte	0x14
 1016 0310 0C       		.uleb128 0xc
 1017 0311 73323200 		.ascii	"s22\000"
 1018 0315 08       		.byte	0x8
 1019 0316 1401     		.2byte	0x114
 1020 0318 9D020000 		.4byte	0x29d
 1021 031c 18       		.byte	0x18
 1022 031d 0C       		.uleb128 0xc
 1023 031e 73323300 		.ascii	"s23\000"
 1024 0322 08       		.byte	0x8
 1025 0323 1501     		.2byte	0x115
 1026 0325 9D020000 		.4byte	0x29d
 1027 0329 1C       		.byte	0x1c
 1028 032a 0C       		.uleb128 0xc
 1029 032b 73323400 		.ascii	"s24\000"
 1030 032f 08       		.byte	0x8
 1031 0330 1601     		.2byte	0x116
 1032 0332 9D020000 		.4byte	0x29d
 1033 0336 20       		.byte	0x20
 1034 0337 0C       		.uleb128 0xc
 1035 0338 73323500 		.ascii	"s25\000"
 1036 033c 08       		.byte	0x8
 1037 033d 1701     		.2byte	0x117
 1038 033f 9D020000 		.4byte	0x29d
 1039 0343 24       		.byte	0x24
 1040 0344 0C       		.uleb128 0xc
 1041 0345 73323600 		.ascii	"s26\000"
 1042 0349 08       		.byte	0x8
 1043 034a 1801     		.2byte	0x118
 1044 034c 9D020000 		.4byte	0x29d
 1045 0350 28       		.byte	0x28
 1046 0351 0C       		.uleb128 0xc
 1047 0352 73323700 		.ascii	"s27\000"
 1048 0356 08       		.byte	0x8
 1049 0357 1901     		.2byte	0x119
 1050 0359 9D020000 		.4byte	0x29d
 1051 035d 2C       		.byte	0x2c
 1052 035e 0C       		.uleb128 0xc
 1053 035f 73323800 		.ascii	"s28\000"
 1054 0363 08       		.byte	0x8
 1055 0364 1A01     		.2byte	0x11a
 1056 0366 9D020000 		.4byte	0x29d
 1057 036a 30       		.byte	0x30
ARM GAS  C:\Users\jsyoon\AppData\Local\Temp\cc5ypfvg.s 			page 20


 1058 036b 0C       		.uleb128 0xc
 1059 036c 73323900 		.ascii	"s29\000"
 1060 0370 08       		.byte	0x8
 1061 0371 1B01     		.2byte	0x11b
 1062 0373 9D020000 		.4byte	0x29d
 1063 0377 34       		.byte	0x34
 1064 0378 0C       		.uleb128 0xc
 1065 0379 73333000 		.ascii	"s30\000"
 1066 037d 08       		.byte	0x8
 1067 037e 1C01     		.2byte	0x11c
 1068 0380 9D020000 		.4byte	0x29d
 1069 0384 38       		.byte	0x38
 1070 0385 0C       		.uleb128 0xc
 1071 0386 73333100 		.ascii	"s31\000"
 1072 038a 08       		.byte	0x8
 1073 038b 1D01     		.2byte	0x11d
 1074 038d 9D020000 		.4byte	0x29d
 1075 0391 3C       		.byte	0x3c
 1076 0392 0C       		.uleb128 0xc
 1077 0393 723400   		.ascii	"r4\000"
 1078 0396 08       		.byte	0x8
 1079 0397 1F01     		.2byte	0x11f
 1080 0399 9D020000 		.4byte	0x29d
 1081 039d 40       		.byte	0x40
 1082 039e 0C       		.uleb128 0xc
 1083 039f 723500   		.ascii	"r5\000"
 1084 03a2 08       		.byte	0x8
 1085 03a3 2001     		.2byte	0x120
 1086 03a5 9D020000 		.4byte	0x29d
 1087 03a9 44       		.byte	0x44
 1088 03aa 0C       		.uleb128 0xc
 1089 03ab 723600   		.ascii	"r6\000"
 1090 03ae 08       		.byte	0x8
 1091 03af 2101     		.2byte	0x121
 1092 03b1 9D020000 		.4byte	0x29d
 1093 03b5 48       		.byte	0x48
 1094 03b6 0C       		.uleb128 0xc
 1095 03b7 723700   		.ascii	"r7\000"
 1096 03ba 08       		.byte	0x8
 1097 03bb 2201     		.2byte	0x122
 1098 03bd 9D020000 		.4byte	0x29d
 1099 03c1 4C       		.byte	0x4c
 1100 03c2 0C       		.uleb128 0xc
 1101 03c3 723800   		.ascii	"r8\000"
 1102 03c6 08       		.byte	0x8
 1103 03c7 2301     		.2byte	0x123
 1104 03c9 9D020000 		.4byte	0x29d
 1105 03cd 50       		.byte	0x50
 1106 03ce 0C       		.uleb128 0xc
 1107 03cf 723900   		.ascii	"r9\000"
 1108 03d2 08       		.byte	0x8
 1109 03d3 2401     		.2byte	0x124
 1110 03d5 9D020000 		.4byte	0x29d
 1111 03d9 54       		.byte	0x54
 1112 03da 0C       		.uleb128 0xc
 1113 03db 72313000 		.ascii	"r10\000"
 1114 03df 08       		.byte	0x8
ARM GAS  C:\Users\jsyoon\AppData\Local\Temp\cc5ypfvg.s 			page 21


 1115 03e0 2501     		.2byte	0x125
 1116 03e2 9D020000 		.4byte	0x29d
 1117 03e6 58       		.byte	0x58
 1118 03e7 0C       		.uleb128 0xc
 1119 03e8 72313100 		.ascii	"r11\000"
 1120 03ec 08       		.byte	0x8
 1121 03ed 2601     		.2byte	0x126
 1122 03ef 9D020000 		.4byte	0x29d
 1123 03f3 5C       		.byte	0x5c
 1124 03f4 0C       		.uleb128 0xc
 1125 03f5 6C7200   		.ascii	"lr\000"
 1126 03f8 08       		.byte	0x8
 1127 03f9 2701     		.2byte	0x127
 1128 03fb 9D020000 		.4byte	0x29d
 1129 03ff 60       		.byte	0x60
 1130 0400 00       		.byte	0
 1131 0401 0B       		.uleb128 0xb
 1132 0402 C9080000 		.4byte	.LASF54
 1133 0406 04       		.byte	0x4
 1134 0407 08       		.byte	0x8
 1135 0408 3101     		.2byte	0x131
 1136 040a 1C040000 		.4byte	0x41c
 1137 040e 0C       		.uleb128 0xc
 1138 040f 72313300 		.ascii	"r13\000"
 1139 0413 08       		.byte	0x8
 1140 0414 3201     		.2byte	0x132
 1141 0416 1C040000 		.4byte	0x41c
 1142 041a 00       		.byte	0
 1143 041b 00       		.byte	0
 1144 041c 09       		.uleb128 0x9
 1145 041d 04       		.byte	0x4
 1146 041e B5020000 		.4byte	0x2b5
 1147 0422 0D       		.uleb128 0xd
 1148 0423 C3000000 		.4byte	0xc3
 1149 0427 02       		.uleb128 0x2
 1150 0428 04       		.byte	0x4
 1151 0429 07       		.byte	0x7
 1152 042a 36050000 		.4byte	.LASF55
 1153 042e 0D       		.uleb128 0xd
 1154 042f 38010000 		.4byte	0x138
 1155 0433 08       		.uleb128 0x8
 1156 0434 1C       		.byte	0x1c
 1157 0435 09       		.byte	0x9
 1158 0436 5E       		.byte	0x5e
 1159 0437 84040000 		.4byte	0x484
 1160 043b 06       		.uleb128 0x6
 1161 043c 37070000 		.4byte	.LASF56
 1162 0440 09       		.byte	0x9
 1163 0441 5F       		.byte	0x5f
 1164 0442 72020000 		.4byte	0x272
 1165 0446 00       		.byte	0
 1166 0447 06       		.uleb128 0x6
 1167 0448 C8060000 		.4byte	.LASF57
 1168 044c 09       		.byte	0x9
 1169 044d 60       		.byte	0x60
 1170 044e 17010000 		.4byte	0x117
 1171 0452 08       		.byte	0x8
ARM GAS  C:\Users\jsyoon\AppData\Local\Temp\cc5ypfvg.s 			page 22


 1172 0453 06       		.uleb128 0x6
 1173 0454 74050000 		.4byte	.LASF58
 1174 0458 09       		.byte	0x9
 1175 0459 62       		.byte	0x62
 1176 045a 01040000 		.4byte	0x401
 1177 045e 0C       		.byte	0xc
 1178 045f 06       		.uleb128 0x6
 1179 0460 A5040000 		.4byte	.LASF59
 1180 0464 09       		.byte	0x9
 1181 0465 65       		.byte	0x65
 1182 0466 6C020000 		.4byte	0x26c
 1183 046a 10       		.byte	0x10
 1184 046b 06       		.uleb128 0x6
 1185 046c AC050000 		.4byte	.LASF60
 1186 0470 09       		.byte	0x9
 1187 0471 66       		.byte	0x66
 1188 0472 6C020000 		.4byte	0x26c
 1189 0476 14       		.byte	0x14
 1190 0477 06       		.uleb128 0x6
 1191 0478 A2050000 		.4byte	.LASF61
 1192 047c 09       		.byte	0x9
 1193 047d 69       		.byte	0x69
 1194 047e 6C020000 		.4byte	0x26c
 1195 0482 18       		.byte	0x18
 1196 0483 00       		.byte	0
 1197 0484 03       		.uleb128 0x3
 1198 0485 61080000 		.4byte	.LASF62
 1199 0489 09       		.byte	0x9
 1200 048a 6B       		.byte	0x6b
 1201 048b 33040000 		.4byte	0x433
 1202 048f 05       		.uleb128 0x5
 1203 0490 FD040000 		.4byte	.LASF63
 1204 0494 10       		.byte	0x10
 1205 0495 0A       		.byte	0xa
 1206 0496 2C       		.byte	0x2c
 1207 0497 C0040000 		.4byte	0x4c0
 1208 049b 06       		.uleb128 0x6
 1209 049c 9E010000 		.4byte	.LASF64
 1210 04a0 0A       		.byte	0xa
 1211 04a1 2D       		.byte	0x2d
 1212 04a2 72020000 		.4byte	0x272
 1213 04a6 00       		.byte	0
 1214 04a7 06       		.uleb128 0x6
 1215 04a8 12090000 		.4byte	.LASF65
 1216 04ac 0A       		.byte	0xa
 1217 04ad 2F       		.byte	0x2f
 1218 04ae 6C020000 		.4byte	0x26c
 1219 04b2 08       		.byte	0x8
 1220 04b3 06       		.uleb128 0x6
 1221 04b4 B1070000 		.4byte	.LASF66
 1222 04b8 0A       		.byte	0xa
 1223 04b9 31       		.byte	0x31
 1224 04ba C0040000 		.4byte	0x4c0
 1225 04be 0C       		.byte	0xc
 1226 04bf 00       		.byte	0
 1227 04c0 09       		.uleb128 0x9
 1228 04c1 04       		.byte	0x4
ARM GAS  C:\Users\jsyoon\AppData\Local\Temp\cc5ypfvg.s 			page 23


 1229 04c2 8F040000 		.4byte	0x48f
 1230 04c6 03       		.uleb128 0x3
 1231 04c7 FD040000 		.4byte	.LASF63
 1232 04cb 0A       		.byte	0xa
 1233 04cc 33       		.byte	0x33
 1234 04cd 8F040000 		.4byte	0x48f
 1235 04d1 0E       		.uleb128 0xe
 1236 04d2 04       		.byte	0x4
 1237 04d3 07       		.byte	0x7
 1238 04d4 96       		.byte	0x96
 1239 04d5 06050000 		.4byte	0x506
 1240 04d9 0F       		.uleb128 0xf
 1241 04da 38000000 		.4byte	.LASF67
 1242 04de 07       		.byte	0x7
 1243 04df 9D       		.byte	0x9d
 1244 04e0 22010000 		.4byte	0x122
 1245 04e4 0F       		.uleb128 0xf
 1246 04e5 C5040000 		.4byte	.LASF68
 1247 04e9 07       		.byte	0x7
 1248 04ea A4       		.byte	0xa4
 1249 04eb 22010000 		.4byte	0x122
 1250 04ef 0F       		.uleb128 0xf
 1251 04f0 AB010000 		.4byte	.LASF69
 1252 04f4 07       		.byte	0x7
 1253 04f5 AB       		.byte	0xab
 1254 04f6 A8020000 		.4byte	0x2a8
 1255 04fa 0F       		.uleb128 0xf
 1256 04fb CF060000 		.4byte	.LASF70
 1257 04ff 07       		.byte	0x7
 1258 0500 B2       		.byte	0xb2
 1259 0501 2D010000 		.4byte	0x12d
 1260 0505 00       		.byte	0
 1261 0506 09       		.uleb128 0x9
 1262 0507 04       		.byte	0x4
 1263 0508 0C050000 		.4byte	0x50c
 1264 050c 10       		.uleb128 0x10
 1265 050d 11050000 		.4byte	0x511
 1266 0511 02       		.uleb128 0x2
 1267 0512 01       		.byte	0x1
 1268 0513 08       		.byte	0x8
 1269 0514 7B070000 		.4byte	.LASF71
 1270 0518 09       		.uleb128 0x9
 1271 0519 04       		.byte	0x4
 1272 051a C6040000 		.4byte	0x4c6
 1273 051e 03       		.uleb128 0x3
 1274 051f 8B070000 		.4byte	.LASF72
 1275 0523 07       		.byte	0x7
 1276 0524 E5       		.byte	0xe5
 1277 0525 29050000 		.4byte	0x529
 1278 0529 09       		.uleb128 0x9
 1279 052a 04       		.byte	0x4
 1280 052b 2F050000 		.4byte	0x52f
 1281 052f 11       		.uleb128 0x11
 1282 0530 22010000 		.4byte	0x122
 1283 0534 3E050000 		.4byte	0x53e
 1284 0538 12       		.uleb128 0x12
 1285 0539 A8020000 		.4byte	0x2a8
ARM GAS  C:\Users\jsyoon\AppData\Local\Temp\cc5ypfvg.s 			page 24


 1286 053d 00       		.byte	0
 1287 053e 09       		.uleb128 0x9
 1288 053f 04       		.byte	0x4
 1289 0540 A2000000 		.4byte	0xa2
 1290 0544 09       		.uleb128 0x9
 1291 0545 04       		.byte	0x4
 1292 0546 4A050000 		.4byte	0x54a
 1293 054a 10       		.uleb128 0x10
 1294 054b A2000000 		.4byte	0xa2
 1295 054f 02       		.uleb128 0x2
 1296 0550 04       		.byte	0x4
 1297 0551 04       		.byte	0x4
 1298 0552 CD050000 		.4byte	.LASF73
 1299 0556 13       		.uleb128 0x13
 1300 0557 01       		.byte	0x1
 1301 0558 0B       		.byte	0xb
 1302 0559 DB       		.byte	0xdb
 1303 055a 71050000 		.4byte	0x571
 1304 055e 14       		.uleb128 0x14
 1305 055f 86040000 		.4byte	.LASF74
 1306 0563 00       		.sleb128 0
 1307 0564 14       		.uleb128 0x14
 1308 0565 2A080000 		.4byte	.LASF75
 1309 0569 01       		.sleb128 1
 1310 056a 14       		.uleb128 0x14
 1311 056b D1080000 		.4byte	.LASF76
 1312 056f 02       		.sleb128 2
 1313 0570 00       		.byte	0
 1314 0571 03       		.uleb128 0x3
 1315 0572 4B030000 		.4byte	.LASF77
 1316 0576 0B       		.byte	0xb
 1317 0577 DF       		.byte	0xdf
 1318 0578 56050000 		.4byte	0x556
 1319 057c 08       		.uleb128 0x8
 1320 057d 20       		.byte	0x20
 1321 057e 0B       		.byte	0xb
 1322 057f E1       		.byte	0xe1
 1323 0580 F0050000 		.4byte	0x5f0
 1324 0584 06       		.uleb128 0x6
 1325 0585 5E000000 		.4byte	.LASF78
 1326 0589 0B       		.byte	0xb
 1327 058a E2       		.byte	0xe2
 1328 058b 71050000 		.4byte	0x571
 1329 058f 00       		.byte	0
 1330 0590 06       		.uleb128 0x6
 1331 0591 3F050000 		.4byte	.LASF79
 1332 0595 0B       		.byte	0xb
 1333 0596 E3       		.byte	0xe3
 1334 0597 4F050000 		.4byte	0x54f
 1335 059b 04       		.byte	0x4
 1336 059c 06       		.uleb128 0x6
 1337 059d B4050000 		.4byte	.LASF80
 1338 05a1 0B       		.byte	0xb
 1339 05a2 E4       		.byte	0xe4
 1340 05a3 4F050000 		.4byte	0x54f
 1341 05a7 08       		.byte	0x8
 1342 05a8 06       		.uleb128 0x6
ARM GAS  C:\Users\jsyoon\AppData\Local\Temp\cc5ypfvg.s 			page 25


 1343 05a9 F1040000 		.4byte	.LASF81
 1344 05ad 0B       		.byte	0xb
 1345 05ae E5       		.byte	0xe5
 1346 05af 4F050000 		.4byte	0x54f
 1347 05b3 0C       		.byte	0xc
 1348 05b4 06       		.uleb128 0x6
 1349 05b5 76000000 		.4byte	.LASF82
 1350 05b9 0B       		.byte	0xb
 1351 05ba E6       		.byte	0xe6
 1352 05bb 4F050000 		.4byte	0x54f
 1353 05bf 10       		.byte	0x10
 1354 05c0 06       		.uleb128 0x6
 1355 05c1 90000000 		.4byte	.LASF83
 1356 05c5 0B       		.byte	0xb
 1357 05c6 E7       		.byte	0xe7
 1358 05c7 4F050000 		.4byte	0x54f
 1359 05cb 14       		.byte	0x14
 1360 05cc 06       		.uleb128 0x6
 1361 05cd 79060000 		.4byte	.LASF84
 1362 05d1 0B       		.byte	0xb
 1363 05d2 E8       		.byte	0xe8
 1364 05d3 E4000000 		.4byte	0xe4
 1365 05d7 18       		.byte	0x18
 1366 05d8 07       		.uleb128 0x7
 1367 05d9 746300   		.ascii	"tc\000"
 1368 05dc 0B       		.byte	0xb
 1369 05dd E9       		.byte	0xe9
 1370 05de E4000000 		.4byte	0xe4
 1371 05e2 19       		.byte	0x19
 1372 05e3 06       		.uleb128 0x6
 1373 05e4 00010000 		.4byte	.LASF85
 1374 05e8 0B       		.byte	0xb
 1375 05e9 EA       		.byte	0xea
 1376 05ea 4F050000 		.4byte	0x54f
 1377 05ee 1C       		.byte	0x1c
 1378 05ef 00       		.byte	0
 1379 05f0 03       		.uleb128 0x3
 1380 05f1 7A050000 		.4byte	.LASF86
 1381 05f5 0B       		.byte	0xb
 1382 05f6 EB       		.byte	0xeb
 1383 05f7 7C050000 		.4byte	0x57c
 1384 05fb 15       		.uleb128 0x15
 1385 05fc 18       		.byte	0x18
 1386 05fd 0B       		.byte	0xb
 1387 05fe 4E01     		.2byte	0x14e
 1388 0600 60060000 		.4byte	0x660
 1389 0604 16       		.uleb128 0x16
 1390 0605 65070000 		.4byte	.LASF87
 1391 0609 0B       		.byte	0xb
 1392 060a 4F01     		.2byte	0x14f
 1393 060c 94000000 		.4byte	0x94
 1394 0610 00       		.byte	0
 1395 0611 16       		.uleb128 0x16
 1396 0612 6A070000 		.4byte	.LASF88
 1397 0616 0B       		.byte	0xb
 1398 0617 5001     		.2byte	0x150
 1399 0619 94000000 		.4byte	0x94
ARM GAS  C:\Users\jsyoon\AppData\Local\Temp\cc5ypfvg.s 			page 26


 1400 061d 04       		.byte	0x4
 1401 061e 16       		.uleb128 0x16
 1402 061f 1A040000 		.4byte	.LASF89
 1403 0623 0B       		.byte	0xb
 1404 0624 5101     		.2byte	0x151
 1405 0626 94000000 		.4byte	0x94
 1406 062a 08       		.byte	0x8
 1407 062b 16       		.uleb128 0x16
 1408 062c 20040000 		.4byte	.LASF90
 1409 0630 0B       		.byte	0xb
 1410 0631 5201     		.2byte	0x152
 1411 0633 94000000 		.4byte	0x94
 1412 0637 0C       		.byte	0xc
 1413 0638 16       		.uleb128 0x16
 1414 0639 26040000 		.4byte	.LASF91
 1415 063d 0B       		.byte	0xb
 1416 063e 5301     		.2byte	0x153
 1417 0640 94000000 		.4byte	0x94
 1418 0644 10       		.byte	0x10
 1419 0645 16       		.uleb128 0x16
 1420 0646 A0040000 		.4byte	.LASF92
 1421 064a 0B       		.byte	0xb
 1422 064b 5401     		.2byte	0x154
 1423 064d E4000000 		.4byte	0xe4
 1424 0651 14       		.byte	0x14
 1425 0652 16       		.uleb128 0x16
 1426 0653 03050000 		.4byte	.LASF93
 1427 0657 0B       		.byte	0xb
 1428 0658 5501     		.2byte	0x155
 1429 065a E4000000 		.4byte	0xe4
 1430 065e 15       		.byte	0x15
 1431 065f 00       		.byte	0
 1432 0660 17       		.uleb128 0x17
 1433 0661 48010000 		.4byte	.LASF94
 1434 0665 0B       		.byte	0xb
 1435 0666 5601     		.2byte	0x156
 1436 0668 FB050000 		.4byte	0x5fb
 1437 066c 0D       		.uleb128 0xd
 1438 066d AD000000 		.4byte	0xad
 1439 0671 0D       		.uleb128 0xd
 1440 0672 B8000000 		.4byte	0xb8
 1441 0676 15       		.uleb128 0x15
 1442 0677 18       		.byte	0x18
 1443 0678 0C       		.byte	0xc
 1444 0679 B102     		.2byte	0x2b1
 1445 067b CD060000 		.4byte	0x6cd
 1446 067f 0C       		.uleb128 0xc
 1447 0680 435200   		.ascii	"CR\000"
 1448 0683 0C       		.byte	0xc
 1449 0684 B302     		.2byte	0x2b3
 1450 0686 22040000 		.4byte	0x422
 1451 068a 00       		.byte	0
 1452 068b 16       		.uleb128 0x16
 1453 068c D7070000 		.4byte	.LASF95
 1454 0690 0C       		.byte	0xc
 1455 0691 B402     		.2byte	0x2b4
 1456 0693 22040000 		.4byte	0x422
ARM GAS  C:\Users\jsyoon\AppData\Local\Temp\cc5ypfvg.s 			page 27


 1457 0697 04       		.byte	0x4
 1458 0698 0C       		.uleb128 0xc
 1459 0699 50415200 		.ascii	"PAR\000"
 1460 069d 0C       		.byte	0xc
 1461 069e B502     		.2byte	0x2b5
 1462 06a0 22040000 		.4byte	0x422
 1463 06a4 08       		.byte	0x8
 1464 06a5 16       		.uleb128 0x16
 1465 06a6 18000000 		.4byte	.LASF96
 1466 06aa 0C       		.byte	0xc
 1467 06ab B602     		.2byte	0x2b6
 1468 06ad 22040000 		.4byte	0x422
 1469 06b1 0C       		.byte	0xc
 1470 06b2 16       		.uleb128 0x16
 1471 06b3 11080000 		.4byte	.LASF97
 1472 06b7 0C       		.byte	0xc
 1473 06b8 B702     		.2byte	0x2b7
 1474 06ba 22040000 		.4byte	0x422
 1475 06be 10       		.byte	0x10
 1476 06bf 0C       		.uleb128 0xc
 1477 06c0 46435200 		.ascii	"FCR\000"
 1478 06c4 0C       		.byte	0xc
 1479 06c5 B802     		.2byte	0x2b8
 1480 06c7 22040000 		.4byte	0x422
 1481 06cb 14       		.byte	0x14
 1482 06cc 00       		.byte	0
 1483 06cd 17       		.uleb128 0x17
 1484 06ce DC070000 		.4byte	.LASF98
 1485 06d2 0C       		.byte	0xc
 1486 06d3 B902     		.2byte	0x2b9
 1487 06d5 76060000 		.4byte	0x676
 1488 06d9 15       		.uleb128 0x15
 1489 06da 28       		.byte	0x28
 1490 06db 0C       		.byte	0xc
 1491 06dc F603     		.2byte	0x3f6
 1492 06de E6070000 		.4byte	0x7e6
 1493 06e2 0C       		.uleb128 0xc
 1494 06e3 43523100 		.ascii	"CR1\000"
 1495 06e7 0C       		.byte	0xc
 1496 06e8 F803     		.2byte	0x3f8
 1497 06ea 6C060000 		.4byte	0x66c
 1498 06ee 00       		.byte	0
 1499 06ef 16       		.uleb128 0x16
 1500 06f0 E5060000 		.4byte	.LASF99
 1501 06f4 0C       		.byte	0xc
 1502 06f5 F903     		.2byte	0x3f9
 1503 06f7 AD000000 		.4byte	0xad
 1504 06fb 02       		.byte	0x2
 1505 06fc 0C       		.uleb128 0xc
 1506 06fd 43523200 		.ascii	"CR2\000"
 1507 0701 0C       		.byte	0xc
 1508 0702 FA03     		.2byte	0x3fa
 1509 0704 6C060000 		.4byte	0x66c
 1510 0708 04       		.byte	0x4
 1511 0709 16       		.uleb128 0x16
 1512 070a F6060000 		.4byte	.LASF100
 1513 070e 0C       		.byte	0xc
ARM GAS  C:\Users\jsyoon\AppData\Local\Temp\cc5ypfvg.s 			page 28


 1514 070f FB03     		.2byte	0x3fb
 1515 0711 AD000000 		.4byte	0xad
 1516 0715 06       		.byte	0x6
 1517 0716 16       		.uleb128 0x16
 1518 0717 84080000 		.4byte	.LASF101
 1519 071b 0C       		.byte	0xc
 1520 071c FC03     		.2byte	0x3fc
 1521 071e 6C060000 		.4byte	0x66c
 1522 0722 08       		.byte	0x8
 1523 0723 16       		.uleb128 0x16
 1524 0724 FB050000 		.4byte	.LASF102
 1525 0728 0C       		.byte	0xc
 1526 0729 FD03     		.2byte	0x3fd
 1527 072b AD000000 		.4byte	0xad
 1528 072f 0A       		.byte	0xa
 1529 0730 16       		.uleb128 0x16
 1530 0731 89080000 		.4byte	.LASF103
 1531 0735 0C       		.byte	0xc
 1532 0736 FE03     		.2byte	0x3fe
 1533 0738 6C060000 		.4byte	0x66c
 1534 073c 0C       		.byte	0xc
 1535 073d 16       		.uleb128 0x16
 1536 073e 05060000 		.4byte	.LASF104
 1537 0742 0C       		.byte	0xc
 1538 0743 FF03     		.2byte	0x3ff
 1539 0745 AD000000 		.4byte	0xad
 1540 0749 0E       		.byte	0xe
 1541 074a 0C       		.uleb128 0xc
 1542 074b 445200   		.ascii	"DR\000"
 1543 074e 0C       		.byte	0xc
 1544 074f 0004     		.2byte	0x400
 1545 0751 6C060000 		.4byte	0x66c
 1546 0755 10       		.byte	0x10
 1547 0756 16       		.uleb128 0x16
 1548 0757 0F060000 		.4byte	.LASF105
 1549 075b 0C       		.byte	0xc
 1550 075c 0104     		.2byte	0x401
 1551 075e AD000000 		.4byte	0xad
 1552 0762 12       		.byte	0x12
 1553 0763 0C       		.uleb128 0xc
 1554 0764 53523100 		.ascii	"SR1\000"
 1555 0768 0C       		.byte	0xc
 1556 0769 0204     		.2byte	0x402
 1557 076b 6C060000 		.4byte	0x66c
 1558 076f 14       		.byte	0x14
 1559 0770 16       		.uleb128 0x16
 1560 0771 1B070000 		.4byte	.LASF106
 1561 0775 0C       		.byte	0xc
 1562 0776 0304     		.2byte	0x403
 1563 0778 AD000000 		.4byte	0xad
 1564 077c 16       		.byte	0x16
 1565 077d 0C       		.uleb128 0xc
 1566 077e 53523200 		.ascii	"SR2\000"
 1567 0782 0C       		.byte	0xc
 1568 0783 0404     		.2byte	0x404
 1569 0785 6C060000 		.4byte	0x66c
 1570 0789 18       		.byte	0x18
ARM GAS  C:\Users\jsyoon\AppData\Local\Temp\cc5ypfvg.s 			page 29


 1571 078a 16       		.uleb128 0x16
 1572 078b 20060000 		.4byte	.LASF107
 1573 078f 0C       		.byte	0xc
 1574 0790 0504     		.2byte	0x405
 1575 0792 AD000000 		.4byte	0xad
 1576 0796 1A       		.byte	0x1a
 1577 0797 0C       		.uleb128 0xc
 1578 0798 43435200 		.ascii	"CCR\000"
 1579 079c 0C       		.byte	0xc
 1580 079d 0604     		.2byte	0x406
 1581 079f 6C060000 		.4byte	0x66c
 1582 07a3 1C       		.byte	0x1c
 1583 07a4 16       		.uleb128 0x16
 1584 07a5 16080000 		.4byte	.LASF108
 1585 07a9 0C       		.byte	0xc
 1586 07aa 0704     		.2byte	0x407
 1587 07ac AD000000 		.4byte	0xad
 1588 07b0 1E       		.byte	0x1e
 1589 07b1 16       		.uleb128 0x16
 1590 07b2 84000000 		.4byte	.LASF109
 1591 07b6 0C       		.byte	0xc
 1592 07b7 0804     		.2byte	0x408
 1593 07b9 6C060000 		.4byte	0x66c
 1594 07bd 20       		.byte	0x20
 1595 07be 16       		.uleb128 0x16
 1596 07bf 20080000 		.4byte	.LASF110
 1597 07c3 0C       		.byte	0xc
 1598 07c4 0904     		.2byte	0x409
 1599 07c6 AD000000 		.4byte	0xad
 1600 07ca 22       		.byte	0x22
 1601 07cb 16       		.uleb128 0x16
 1602 07cc 32030000 		.4byte	.LASF111
 1603 07d0 0C       		.byte	0xc
 1604 07d1 0A04     		.2byte	0x40a
 1605 07d3 6C060000 		.4byte	0x66c
 1606 07d7 24       		.byte	0x24
 1607 07d8 16       		.uleb128 0x16
 1608 07d9 3F070000 		.4byte	.LASF112
 1609 07dd 0C       		.byte	0xc
 1610 07de 0B04     		.2byte	0x40b
 1611 07e0 AD000000 		.4byte	0xad
 1612 07e4 26       		.byte	0x26
 1613 07e5 00       		.byte	0
 1614 07e6 17       		.uleb128 0x17
 1615 07e7 F4080000 		.4byte	.LASF113
 1616 07eb 0C       		.byte	0xc
 1617 07ec 0C04     		.2byte	0x40c
 1618 07ee D9060000 		.4byte	0x6d9
 1619 07f2 08       		.uleb128 0x8
 1620 07f3 0C       		.byte	0xc
 1621 07f4 0D       		.byte	0xd
 1622 07f5 DA       		.byte	0xda
 1623 07f6 37080000 		.4byte	0x837
 1624 07fa 06       		.uleb128 0x6
 1625 07fb CA030000 		.4byte	.LASF114
 1626 07ff 0D       		.byte	0xd
 1627 0800 DB       		.byte	0xdb
ARM GAS  C:\Users\jsyoon\AppData\Local\Temp\cc5ypfvg.s 			page 30


 1628 0801 37080000 		.4byte	0x837
 1629 0805 00       		.byte	0
 1630 0806 06       		.uleb128 0x6
 1631 0807 16070000 		.4byte	.LASF115
 1632 080b 0D       		.byte	0xd
 1633 080c DC       		.byte	0xdc
 1634 080d 3D080000 		.4byte	0x83d
 1635 0811 04       		.byte	0x4
 1636 0812 06       		.uleb128 0x6
 1637 0813 2C040000 		.4byte	.LASF116
 1638 0817 0D       		.byte	0xd
 1639 0818 DD       		.byte	0xdd
 1640 0819 A2000000 		.4byte	0xa2
 1641 081d 08       		.byte	0x8
 1642 081e 06       		.uleb128 0x6
 1643 081f 9D030000 		.4byte	.LASF117
 1644 0823 0D       		.byte	0xd
 1645 0824 DF       		.byte	0xdf
 1646 0825 A2000000 		.4byte	0xa2
 1647 0829 09       		.byte	0x9
 1648 082a 06       		.uleb128 0x6
 1649 082b CA000000 		.4byte	.LASF118
 1650 082f 0D       		.byte	0xd
 1651 0830 E0       		.byte	0xe0
 1652 0831 A2000000 		.4byte	0xa2
 1653 0835 0A       		.byte	0xa
 1654 0836 00       		.byte	0
 1655 0837 09       		.uleb128 0x9
 1656 0838 04       		.byte	0x4
 1657 0839 CD060000 		.4byte	0x6cd
 1658 083d 09       		.uleb128 0x9
 1659 083e 04       		.byte	0x4
 1660 083f 22040000 		.4byte	0x422
 1661 0843 03       		.uleb128 0x3
 1662 0844 2A060000 		.4byte	.LASF119
 1663 0848 0D       		.byte	0xd
 1664 0849 E1       		.byte	0xe1
 1665 084a F2070000 		.4byte	0x7f2
 1666 084e 13       		.uleb128 0x13
 1667 084f 01       		.byte	0x1
 1668 0850 0E       		.byte	0xe
 1669 0851 5A       		.byte	0x5a
 1670 0852 7B080000 		.4byte	0x87b
 1671 0856 14       		.uleb128 0x14
 1672 0857 3D010000 		.4byte	.LASF120
 1673 085b 00       		.sleb128 0
 1674 085c 14       		.uleb128 0x14
 1675 085d 25050000 		.4byte	.LASF121
 1676 0861 01       		.sleb128 1
 1677 0862 14       		.uleb128 0x14
 1678 0863 0C010000 		.4byte	.LASF122
 1679 0867 02       		.sleb128 2
 1680 0868 14       		.uleb128 0x14
 1681 0869 53060000 		.4byte	.LASF123
 1682 086d 03       		.sleb128 3
 1683 086e 14       		.uleb128 0x14
 1684 086f BC000000 		.4byte	.LASF124
ARM GAS  C:\Users\jsyoon\AppData\Local\Temp\cc5ypfvg.s 			page 31


 1685 0873 04       		.sleb128 4
 1686 0874 14       		.uleb128 0x14
 1687 0875 00070000 		.4byte	.LASF125
 1688 0879 05       		.sleb128 5
 1689 087a 00       		.byte	0
 1690 087b 03       		.uleb128 0x3
 1691 087c DB050000 		.4byte	.LASF126
 1692 0880 0E       		.byte	0xe
 1693 0881 61       		.byte	0x61
 1694 0882 4E080000 		.4byte	0x84e
 1695 0886 17       		.uleb128 0x17
 1696 0887 B4080000 		.4byte	.LASF127
 1697 088b 0F       		.byte	0xf
 1698 088c 3501     		.2byte	0x135
 1699 088e AD000000 		.4byte	0xad
 1700 0892 17       		.uleb128 0x17
 1701 0893 61060000 		.4byte	.LASF128
 1702 0897 0F       		.byte	0xf
 1703 0898 3A01     		.2byte	0x13a
 1704 089a C3000000 		.4byte	0xc3
 1705 089e 18       		.uleb128 0x18
 1706 089f 01       		.byte	0x1
 1707 08a0 0F       		.byte	0xf
 1708 08a1 3F01     		.2byte	0x13f
 1709 08a3 BA080000 		.4byte	0x8ba
 1710 08a7 14       		.uleb128 0x14
 1711 08a8 97050000 		.4byte	.LASF129
 1712 08ac 01       		.sleb128 1
 1713 08ad 14       		.uleb128 0x14
 1714 08ae 55040000 		.4byte	.LASF130
 1715 08b2 02       		.sleb128 2
 1716 08b3 14       		.uleb128 0x14
 1717 08b4 80030000 		.4byte	.LASF131
 1718 08b8 03       		.sleb128 3
 1719 08b9 00       		.byte	0
 1720 08ba 17       		.uleb128 0x17
 1721 08bb 37030000 		.4byte	.LASF132
 1722 08bf 0F       		.byte	0xf
 1723 08c0 4301     		.2byte	0x143
 1724 08c2 9E080000 		.4byte	0x89e
 1725 08c6 18       		.uleb128 0x18
 1726 08c7 01       		.byte	0x1
 1727 08c8 0F       		.byte	0xf
 1728 08c9 4801     		.2byte	0x148
 1729 08cb E2080000 		.4byte	0x8e2
 1730 08cf 14       		.uleb128 0x14
 1731 08d0 D6040000 		.4byte	.LASF133
 1732 08d4 01       		.sleb128 1
 1733 08d5 14       		.uleb128 0x14
 1734 08d6 AD040000 		.4byte	.LASF134
 1735 08da 02       		.sleb128 2
 1736 08db 14       		.uleb128 0x14
 1737 08dc E6050000 		.4byte	.LASF135
 1738 08e0 03       		.sleb128 3
 1739 08e1 00       		.byte	0
 1740 08e2 17       		.uleb128 0x17
 1741 08e3 91060000 		.4byte	.LASF136
ARM GAS  C:\Users\jsyoon\AppData\Local\Temp\cc5ypfvg.s 			page 32


 1742 08e7 0F       		.byte	0xf
 1743 08e8 4C01     		.2byte	0x14c
 1744 08ea C6080000 		.4byte	0x8c6
 1745 08ee 15       		.uleb128 0x15
 1746 08ef 0C       		.byte	0xc
 1747 08f0 0F       		.byte	0xf
 1748 08f1 5101     		.2byte	0x151
 1749 08f3 1F090000 		.4byte	0x91f
 1750 08f7 16       		.uleb128 0x16
 1751 08f8 C2030000 		.4byte	.LASF137
 1752 08fc 0F       		.byte	0xf
 1753 08fd 5201     		.2byte	0x152
 1754 08ff BA080000 		.4byte	0x8ba
 1755 0903 00       		.byte	0
 1756 0904 16       		.uleb128 0x16
 1757 0905 AA060000 		.4byte	.LASF138
 1758 0909 0F       		.byte	0xf
 1759 090a 5301     		.2byte	0x153
 1760 090c C3000000 		.4byte	0xc3
 1761 0910 04       		.byte	0x4
 1762 0911 16       		.uleb128 0x16
 1763 0912 50050000 		.4byte	.LASF139
 1764 0916 0F       		.byte	0xf
 1765 0917 5601     		.2byte	0x156
 1766 0919 E2080000 		.4byte	0x8e2
 1767 091d 08       		.byte	0x8
 1768 091e 00       		.byte	0
 1769 091f 17       		.uleb128 0x17
 1770 0920 6A050000 		.4byte	.LASF140
 1771 0924 0F       		.byte	0xf
 1772 0925 5801     		.2byte	0x158
 1773 0927 EE080000 		.4byte	0x8ee
 1774 092b 17       		.uleb128 0x17
 1775 092c 7C040000 		.4byte	.LASF141
 1776 0930 0F       		.byte	0xf
 1777 0931 5D01     		.2byte	0x15d
 1778 0933 37090000 		.4byte	0x937
 1779 0937 0B       		.uleb128 0xb
 1780 0938 7C040000 		.4byte	.LASF141
 1781 093c 38       		.byte	0x38
 1782 093d 0F       		.byte	0xf
 1783 093e 6201     		.2byte	0x162
 1784 0940 D4090000 		.4byte	0x9d4
 1785 0944 16       		.uleb128 0x16
 1786 0945 F1010000 		.4byte	.LASF142
 1787 0949 0F       		.byte	0xf
 1788 094a 6601     		.2byte	0x166
 1789 094c 7B080000 		.4byte	0x87b
 1790 0950 00       		.byte	0
 1791 0951 16       		.uleb128 0x16
 1792 0952 00040000 		.4byte	.LASF143
 1793 0956 0F       		.byte	0xf
 1794 0957 6A01     		.2byte	0x16a
 1795 0959 D4090000 		.4byte	0x9d4
 1796 095d 04       		.byte	0x4
 1797 095e 16       		.uleb128 0x16
 1798 095f 07040000 		.4byte	.LASF144
ARM GAS  C:\Users\jsyoon\AppData\Local\Temp\cc5ypfvg.s 			page 33


 1799 0963 0F       		.byte	0xf
 1800 0964 6E01     		.2byte	0x16e
 1801 0966 92080000 		.4byte	0x892
 1802 096a 08       		.byte	0x8
 1803 096b 16       		.uleb128 0x16
 1804 096c F7010000 		.4byte	.LASF145
 1805 0970 0F       		.byte	0xf
 1806 0971 7401     		.2byte	0x174
 1807 0973 C6040000 		.4byte	0x4c6
 1808 0977 0C       		.byte	0xc
 1809 0978 16       		.uleb128 0x16
 1810 0979 6C060000 		.4byte	.LASF146
 1811 097d 0F       		.byte	0xf
 1812 097e 8001     		.2byte	0x180
 1813 0980 6C020000 		.4byte	0x26c
 1814 0984 1C       		.byte	0x1c
 1815 0985 16       		.uleb128 0x16
 1816 0986 A6010000 		.4byte	.LASF147
 1817 098a 0F       		.byte	0xf
 1818 098b 8401     		.2byte	0x184
 1819 098d 86080000 		.4byte	0x886
 1820 0991 20       		.byte	0x20
 1821 0992 16       		.uleb128 0x16
 1822 0993 5D030000 		.4byte	.LASF148
 1823 0997 0F       		.byte	0xf
 1824 0998 8801     		.2byte	0x188
 1825 099a C3000000 		.4byte	0xc3
 1826 099e 24       		.byte	0x24
 1827 099f 16       		.uleb128 0x16
 1828 09a0 86050000 		.4byte	.LASF149
 1829 09a4 0F       		.byte	0xf
 1830 09a5 8C01     		.2byte	0x18c
 1831 09a7 C3000000 		.4byte	0xc3
 1832 09ab 28       		.byte	0x28
 1833 09ac 16       		.uleb128 0x16
 1834 09ad 00000000 		.4byte	.LASF150
 1835 09b1 0F       		.byte	0xf
 1836 09b2 9001     		.2byte	0x190
 1837 09b4 DF090000 		.4byte	0x9df
 1838 09b8 2C       		.byte	0x2c
 1839 09b9 16       		.uleb128 0x16
 1840 09ba 67030000 		.4byte	.LASF151
 1841 09be 0F       		.byte	0xf
 1842 09bf 9401     		.2byte	0x194
 1843 09c1 DF090000 		.4byte	0x9df
 1844 09c5 30       		.byte	0x30
 1845 09c6 0C       		.uleb128 0xc
 1846 09c7 69326300 		.ascii	"i2c\000"
 1847 09cb 0F       		.byte	0xf
 1848 09cc 9801     		.2byte	0x198
 1849 09ce EA090000 		.4byte	0x9ea
 1850 09d2 34       		.byte	0x34
 1851 09d3 00       		.byte	0
 1852 09d4 09       		.uleb128 0x9
 1853 09d5 04       		.byte	0x4
 1854 09d6 DA090000 		.4byte	0x9da
 1855 09da 10       		.uleb128 0x10
ARM GAS  C:\Users\jsyoon\AppData\Local\Temp\cc5ypfvg.s 			page 34


 1856 09db 1F090000 		.4byte	0x91f
 1857 09df 09       		.uleb128 0x9
 1858 09e0 04       		.byte	0x4
 1859 09e1 E5090000 		.4byte	0x9e5
 1860 09e5 10       		.uleb128 0x10
 1861 09e6 43080000 		.4byte	0x843
 1862 09ea 09       		.uleb128 0x9
 1863 09eb 04       		.byte	0x4
 1864 09ec E6070000 		.4byte	0x7e6
 1865 09f0 02       		.uleb128 0x2
 1866 09f1 08       		.byte	0x8
 1867 09f2 04       		.byte	0x4
 1868 09f3 1A090000 		.4byte	.LASF152
 1869 09f7 02       		.uleb128 0x2
 1870 09f8 08       		.byte	0x8
 1871 09f9 04       		.byte	0x4
 1872 09fa 6F070000 		.4byte	.LASF153
 1873 09fe 19       		.uleb128 0x19
 1874 09ff 68000000 		.4byte	.LASF159
 1875 0a03 01       		.byte	0x1
 1876 0a04 AE       		.byte	0xae
 1877 0a05 22010000 		.4byte	0x122
 1878 0a09 00000000 		.4byte	.LFB123
 1879 0a0d 1C000000 		.4byte	.LFE123-.LFB123
 1880 0a11 01       		.uleb128 0x1
 1881 0a12 9C       		.byte	0x9c
 1882 0a13 360A0000 		.4byte	0xa36
 1883 0a17 1A       		.uleb128 0x1a
 1884 0a18 61726700 		.ascii	"arg\000"
 1885 0a1c 01       		.byte	0x1
 1886 0a1d AE       		.byte	0xae
 1887 0a1e A8020000 		.4byte	0x2a8
 1888 0a22 00000000 		.4byte	.LLST0
 1889 0a26 1B       		.uleb128 0x1b
 1890 0a27 10000000 		.4byte	.LVL2
 1891 0a2b 4F0E0000 		.4byte	0xe4f
 1892 0a2f 1C       		.uleb128 0x1c
 1893 0a30 01       		.uleb128 0x1
 1894 0a31 50       		.byte	0x50
 1895 0a32 01       		.uleb128 0x1
 1896 0a33 3A       		.byte	0x3a
 1897 0a34 00       		.byte	0
 1898 0a35 00       		.byte	0
 1899 0a36 1D       		.uleb128 0x1d
 1900 0a37 49070000 		.4byte	.LASF155
 1901 0a3b 01       		.byte	0x1
 1902 0a3c 3A       		.byte	0x3a
 1903 0a3d 00000000 		.4byte	.LFB118
 1904 0a41 1C000000 		.4byte	.LFE118-.LFB118
 1905 0a45 01       		.uleb128 0x1
 1906 0a46 9C       		.byte	0x9c
 1907 0a47 5B0A0000 		.4byte	0xa5b
 1908 0a4b 1E       		.uleb128 0x1e
 1909 0a4c BC010000 		.4byte	.LASF154
 1910 0a50 01       		.byte	0x1
 1911 0a51 3A       		.byte	0x3a
 1912 0a52 5B0A0000 		.4byte	0xa5b
ARM GAS  C:\Users\jsyoon\AppData\Local\Temp\cc5ypfvg.s 			page 35


 1913 0a56 21000000 		.4byte	.LLST1
 1914 0a5a 00       		.byte	0
 1915 0a5b 09       		.uleb128 0x9
 1916 0a5c 04       		.byte	0x4
 1917 0a5d F0050000 		.4byte	0x5f0
 1918 0a61 1D       		.uleb128 0x1d
 1919 0a62 06000000 		.4byte	.LASF156
 1920 0a66 01       		.byte	0x1
 1921 0a67 3E       		.byte	0x3e
 1922 0a68 00000000 		.4byte	.LFB119
 1923 0a6c 2C000000 		.4byte	.LFE119-.LFB119
 1924 0a70 01       		.uleb128 0x1
 1925 0a71 9C       		.byte	0x9c
 1926 0a72 A60A0000 		.4byte	0xaa6
 1927 0a76 1B       		.uleb128 0x1b
 1928 0a77 1C000000 		.4byte	.LVL6
 1929 0a7b 610E0000 		.4byte	0xe61
 1930 0a7f 1C       		.uleb128 0x1c
 1931 0a80 01       		.uleb128 0x1
 1932 0a81 53       		.byte	0x53
 1933 0a82 05       		.uleb128 0x5
 1934 0a83 03       		.byte	0x3
 1935 0a84 00000000 		.4byte	chuk_thread
 1936 0a88 1C       		.uleb128 0x1c
 1937 0a89 01       		.uleb128 0x1
 1938 0a8a 52       		.byte	0x52
 1939 0a8b 02       		.uleb128 0x2
 1940 0a8c 08       		.byte	0x8
 1941 0a8d 40       		.byte	0x40
 1942 0a8e 1C       		.uleb128 0x1c
 1943 0a8f 01       		.uleb128 0x1
 1944 0a90 51       		.byte	0x51
 1945 0a91 03       		.uleb128 0x3
 1946 0a92 0A       		.byte	0xa
 1947 0a93 9805     		.2byte	0x598
 1948 0a95 1C       		.uleb128 0x1c
 1949 0a96 01       		.uleb128 0x1
 1950 0a97 50       		.byte	0x50
 1951 0a98 05       		.uleb128 0x5
 1952 0a99 03       		.byte	0x3
 1953 0a9a 00000000 		.4byte	.LANCHOR2
 1954 0a9e 1C       		.uleb128 0x1c
 1955 0a9f 02       		.uleb128 0x2
 1956 0aa0 7D       		.byte	0x7d
 1957 0aa1 00       		.sleb128 0
 1958 0aa2 01       		.uleb128 0x1
 1959 0aa3 30       		.byte	0x30
 1960 0aa4 00       		.byte	0
 1961 0aa5 00       		.byte	0
 1962 0aa6 1F       		.uleb128 0x1f
 1963 0aa7 33040000 		.4byte	.LASF190
 1964 0aab 01       		.byte	0x1
 1965 0aac 43       		.byte	0x43
 1966 0aad 4F050000 		.4byte	0x54f
 1967 0ab1 00000000 		.4byte	.LFB120
 1968 0ab5 28000000 		.4byte	.LFE120-.LFB120
 1969 0ab9 01       		.uleb128 0x1
ARM GAS  C:\Users\jsyoon\AppData\Local\Temp\cc5ypfvg.s 			page 36


 1970 0aba 9C       		.byte	0x9c
 1971 0abb 1D       		.uleb128 0x1d
 1972 0abc 53010000 		.4byte	.LASF157
 1973 0ac0 01       		.byte	0x1
 1974 0ac1 47       		.byte	0x47
 1975 0ac2 00000000 		.4byte	.LFB121
 1976 0ac6 54000000 		.4byte	.LFE121-.LFB121
 1977 0aca 01       		.uleb128 0x1
 1978 0acb 9C       		.byte	0x9c
 1979 0acc 160B0000 		.4byte	0xb16
 1980 0ad0 1E       		.uleb128 0x1e
 1981 0ad1 50040000 		.4byte	.LASF158
 1982 0ad5 01       		.byte	0x1
 1983 0ad6 47       		.byte	0x47
 1984 0ad7 160B0000 		.4byte	0xb16
 1985 0adb 4F000000 		.4byte	.LLST2
 1986 0adf 20       		.uleb128 0x20
 1987 0ae0 2A000000 		.4byte	.LVL9
 1988 0ae4 610E0000 		.4byte	0xe61
 1989 0ae8 0C0B0000 		.4byte	0xb0c
 1990 0aec 1C       		.uleb128 0x1c
 1991 0aed 01       		.uleb128 0x1
 1992 0aee 53       		.byte	0x53
 1993 0aef 05       		.uleb128 0x5
 1994 0af0 03       		.byte	0x3
 1995 0af1 00000000 		.4byte	output_thread
 1996 0af5 1C       		.uleb128 0x1c
 1997 0af6 01       		.uleb128 0x1
 1998 0af7 52       		.byte	0x52
 1999 0af8 02       		.uleb128 0x2
 2000 0af9 08       		.byte	0x8
 2001 0afa 40       		.byte	0x40
 2002 0afb 1C       		.uleb128 0x1c
 2003 0afc 01       		.uleb128 0x1
 2004 0afd 51       		.byte	0x51
 2005 0afe 03       		.uleb128 0x3
 2006 0aff 0A       		.byte	0xa
 2007 0b00 9805     		.2byte	0x598
 2008 0b02 1C       		.uleb128 0x1c
 2009 0b03 01       		.uleb128 0x1
 2010 0b04 50       		.byte	0x50
 2011 0b05 05       		.uleb128 0x5
 2012 0b06 03       		.byte	0x3
 2013 0b07 00000000 		.4byte	.LANCHOR4
 2014 0b0b 00       		.byte	0
 2015 0b0c 21       		.uleb128 0x21
 2016 0b0d 42000000 		.4byte	.LVL12
 2017 0b11 8B0E0000 		.4byte	0xe8b
 2018 0b15 00       		.byte	0
 2019 0b16 09       		.uleb128 0x9
 2020 0b17 04       		.byte	0x4
 2021 0b18 60060000 		.4byte	0x660
 2022 0b1c 19       		.uleb128 0x19
 2023 0b1d 00090000 		.4byte	.LASF160
 2024 0b21 01       		.byte	0x1
 2025 0b22 52       		.byte	0x52
 2026 0b23 22010000 		.4byte	0x122
ARM GAS  C:\Users\jsyoon\AppData\Local\Temp\cc5ypfvg.s 			page 37


 2027 0b27 00000000 		.4byte	.LFB122
 2028 0b2b AC010000 		.4byte	.LFE122-.LFB122
 2029 0b2f 01       		.uleb128 0x1
 2030 0b30 9C       		.byte	0x9c
 2031 0b31 810D0000 		.4byte	0xd81
 2032 0b35 1A       		.uleb128 0x1a
 2033 0b36 61726700 		.ascii	"arg\000"
 2034 0b3a 01       		.byte	0x1
 2035 0b3b 52       		.byte	0x52
 2036 0b3c A8020000 		.4byte	0x2a8
 2037 0b40 88000000 		.4byte	.LLST3
 2038 0b44 22       		.uleb128 0x22
 2039 0b45 8A000000 		.4byte	.LASF161
 2040 0b49 01       		.byte	0x1
 2041 0b4a 58       		.byte	0x58
 2042 0b4b 810D0000 		.4byte	0xd81
 2043 0b4f 03       		.uleb128 0x3
 2044 0b50 91       		.byte	0x91
 2045 0b51 A87F     		.sleb128 -88
 2046 0b53 22       		.uleb128 0x22
 2047 0b54 0C090000 		.4byte	.LASF162
 2048 0b58 01       		.byte	0x1
 2049 0b59 59       		.byte	0x59
 2050 0b5a 810D0000 		.4byte	0xd81
 2051 0b5e 03       		.uleb128 0x3
 2052 0b5f 91       		.byte	0x91
 2053 0b60 B47F     		.sleb128 -76
 2054 0b62 23       		.uleb128 0x23
 2055 0b63 5A080000 		.4byte	.LASF163
 2056 0b67 01       		.byte	0x1
 2057 0b68 5A       		.byte	0x5a
 2058 0b69 22010000 		.4byte	0x122
 2059 0b6d A9000000 		.4byte	.LLST4
 2060 0b71 24       		.uleb128 0x24
 2061 0b72 746D6F00 		.ascii	"tmo\000"
 2062 0b76 01       		.byte	0x1
 2063 0b77 5B       		.byte	0x5b
 2064 0b78 38010000 		.4byte	0x138
 2065 0b7c 32       		.byte	0x32
 2066 0b7d 25       		.uleb128 0x25
 2067 0b7e BE080000 		.4byte	.LASF164
 2068 0b82 01       		.byte	0x1
 2069 0b83 5C       		.byte	0x5c
 2070 0b84 86080000 		.4byte	0x886
 2071 0b88 52       		.byte	0x52
 2072 0b89 22       		.uleb128 0x22
 2073 0b8a 0E040000 		.4byte	.LASF165
 2074 0b8e 01       		.byte	0x1
 2075 0b8f 5D       		.byte	0x5d
 2076 0b90 60060000 		.4byte	0x660
 2077 0b94 02       		.uleb128 0x2
 2078 0b95 91       		.byte	0x91
 2079 0b96 40       		.sleb128 -64
 2080 0b97 26       		.uleb128 0x26
 2081 0b98 2A000000 		.4byte	.LBB2
 2082 0b9c 82010000 		.4byte	.LBE2-.LBB2
 2083 0ba0 670D0000 		.4byte	0xd67
ARM GAS  C:\Users\jsyoon\AppData\Local\Temp\cc5ypfvg.s 			page 38


 2084 0ba4 23       		.uleb128 0x23
 2085 0ba5 BF040000 		.4byte	.LASF166
 2086 0ba9 01       		.byte	0x1
 2087 0baa 63       		.byte	0x63
 2088 0bab E4000000 		.4byte	0xe4
 2089 0baf 15010000 		.4byte	.LLST5
 2090 0bb3 26       		.uleb128 0x26
 2091 0bb4 0A010000 		.4byte	.LBB3
 2092 0bb8 A2000000 		.4byte	.LBE3-.LBB3
 2093 0bbc 150C0000 		.4byte	0xc15
 2094 0bc0 22       		.uleb128 0x22
 2095 0bc1 D1030000 		.4byte	.LASF167
 2096 0bc5 01       		.byte	0x1
 2097 0bc6 87       		.byte	0x87
 2098 0bc7 810D0000 		.4byte	0xd81
 2099 0bcb 05       		.uleb128 0x5
 2100 0bcc 03       		.byte	0x3
 2101 0bcd 00000000 		.4byte	last_buffer.10401
 2102 0bd1 23       		.uleb128 0x23
 2103 0bd2 FB000000 		.4byte	.LASF168
 2104 0bd6 01       		.byte	0x1
 2105 0bd7 88       		.byte	0x88
 2106 0bd8 94000000 		.4byte	0x94
 2107 0bdc 65010000 		.4byte	.LLST6
 2108 0be0 26       		.uleb128 0x26
 2109 0be1 0A010000 		.4byte	.LBB4
 2110 0be5 10000000 		.4byte	.LBE4-.LBB4
 2111 0be9 FB0B0000 		.4byte	0xbfb
 2112 0bed 27       		.uleb128 0x27
 2113 0bee 6900     		.ascii	"i\000"
 2114 0bf0 01       		.byte	0x1
 2115 0bf1 8A       		.byte	0x8a
 2116 0bf2 94000000 		.4byte	0x94
 2117 0bf6 92010000 		.4byte	.LLST7
 2118 0bfa 00       		.byte	0
 2119 0bfb 28       		.uleb128 0x28
 2120 0bfc 2A010000 		.4byte	.LVL47
 2121 0c00 920E0000 		.4byte	0xe92
 2122 0c04 1B       		.uleb128 0x1b
 2123 0c05 90010000 		.4byte	.LVL50
 2124 0c09 BB0A0000 		.4byte	0xabb
 2125 0c0d 1C       		.uleb128 0x1c
 2126 0c0e 01       		.uleb128 0x1
 2127 0c0f 50       		.byte	0x50
 2128 0c10 02       		.uleb128 0x2
 2129 0c11 91       		.byte	0x91
 2130 0c12 40       		.sleb128 -64
 2131 0c13 00       		.byte	0
 2132 0c14 00       		.byte	0
 2133 0c15 28       		.uleb128 0x28
 2134 0c16 3A000000 		.4byte	.LVL18
 2135 0c1a 9D0E0000 		.4byte	0xe9d
 2136 0c1e 20       		.uleb128 0x20
 2137 0c1f 42000000 		.4byte	.LVL19
 2138 0c23 4F0E0000 		.4byte	0xe4f
 2139 0c27 330C0000 		.4byte	0xc33
 2140 0c2b 1C       		.uleb128 0x1c
ARM GAS  C:\Users\jsyoon\AppData\Local\Temp\cc5ypfvg.s 			page 39


 2141 0c2c 01       		.uleb128 0x1
 2142 0c2d 50       		.byte	0x50
 2143 0c2e 03       		.uleb128 0x3
 2144 0c2f 0A       		.byte	0xa
 2145 0c30 E803     		.2byte	0x3e8
 2146 0c32 00       		.byte	0
 2147 0c33 20       		.uleb128 0x20
 2148 0c34 48000000 		.4byte	.LVL20
 2149 0c38 4F0E0000 		.4byte	0xe4f
 2150 0c3c 470C0000 		.4byte	0xc47
 2151 0c40 1C       		.uleb128 0x1c
 2152 0c41 01       		.uleb128 0x1
 2153 0c42 50       		.byte	0x50
 2154 0c43 02       		.uleb128 0x2
 2155 0c44 08       		.byte	0x8
 2156 0c45 64       		.byte	0x64
 2157 0c46 00       		.byte	0
 2158 0c47 28       		.uleb128 0x28
 2159 0c48 5A000000 		.4byte	.LVL21
 2160 0c4c A40E0000 		.4byte	0xea4
 2161 0c50 20       		.uleb128 0x20
 2162 0c51 70000000 		.4byte	.LVL22
 2163 0c55 BB0E0000 		.4byte	0xebb
 2164 0c59 840C0000 		.4byte	0xc84
 2165 0c5d 1C       		.uleb128 0x1c
 2166 0c5e 01       		.uleb128 0x1
 2167 0c5f 53       		.byte	0x53
 2168 0c60 01       		.uleb128 0x1
 2169 0c61 32       		.byte	0x32
 2170 0c62 1C       		.uleb128 0x1c
 2171 0c63 01       		.uleb128 0x1
 2172 0c64 52       		.byte	0x52
 2173 0c65 03       		.uleb128 0x3
 2174 0c66 91       		.byte	0x91
 2175 0c67 B47F     		.sleb128 -76
 2176 0c69 1C       		.uleb128 0x1c
 2177 0c6a 01       		.uleb128 0x1
 2178 0c6b 51       		.byte	0x51
 2179 0c6c 02       		.uleb128 0x2
 2180 0c6d 08       		.byte	0x8
 2181 0c6e 52       		.byte	0x52
 2182 0c6f 1C       		.uleb128 0x1c
 2183 0c70 02       		.uleb128 0x2
 2184 0c71 7D       		.byte	0x7d
 2185 0c72 08       		.sleb128 8
 2186 0c73 02       		.uleb128 0x2
 2187 0c74 7A       		.byte	0x7a
 2188 0c75 00       		.sleb128 0
 2189 0c76 1C       		.uleb128 0x1c
 2190 0c77 02       		.uleb128 0x2
 2191 0c78 7D       		.byte	0x7d
 2192 0c79 04       		.sleb128 4
 2193 0c7a 01       		.uleb128 0x1
 2194 0c7b 30       		.byte	0x30
 2195 0c7c 1C       		.uleb128 0x1c
 2196 0c7d 02       		.uleb128 0x2
 2197 0c7e 7D       		.byte	0x7d
ARM GAS  C:\Users\jsyoon\AppData\Local\Temp\cc5ypfvg.s 			page 40


 2198 0c7f 00       		.sleb128 0
 2199 0c80 02       		.uleb128 0x2
 2200 0c81 74       		.byte	0x74
 2201 0c82 00       		.sleb128 0
 2202 0c83 00       		.byte	0
 2203 0c84 28       		.uleb128 0x28
 2204 0c85 78000000 		.4byte	.LVL25
 2205 0c89 EE0E0000 		.4byte	0xeee
 2206 0c8d 28       		.uleb128 0x28
 2207 0c8e 8E000000 		.4byte	.LVL26
 2208 0c92 A40E0000 		.4byte	0xea4
 2209 0c96 20       		.uleb128 0x20
 2210 0c97 A2000000 		.4byte	.LVL27
 2211 0c9b BB0E0000 		.4byte	0xebb
 2212 0c9f CB0C0000 		.4byte	0xccb
 2213 0ca3 1C       		.uleb128 0x1c
 2214 0ca4 01       		.uleb128 0x1
 2215 0ca5 53       		.byte	0x53
 2216 0ca6 01       		.uleb128 0x1
 2217 0ca7 32       		.byte	0x32
 2218 0ca8 1C       		.uleb128 0x1c
 2219 0ca9 01       		.uleb128 0x1
 2220 0caa 52       		.byte	0x52
 2221 0cab 03       		.uleb128 0x3
 2222 0cac 91       		.byte	0x91
 2223 0cad B47F     		.sleb128 -76
 2224 0caf 1C       		.uleb128 0x1c
 2225 0cb0 01       		.uleb128 0x1
 2226 0cb1 51       		.byte	0x51
 2227 0cb2 02       		.uleb128 0x2
 2228 0cb3 08       		.byte	0x8
 2229 0cb4 52       		.byte	0x52
 2230 0cb5 1C       		.uleb128 0x1c
 2231 0cb6 02       		.uleb128 0x2
 2232 0cb7 7D       		.byte	0x7d
 2233 0cb8 08       		.sleb128 8
 2234 0cb9 02       		.uleb128 0x2
 2235 0cba 7A       		.byte	0x7a
 2236 0cbb 00       		.sleb128 0
 2237 0cbc 1C       		.uleb128 0x1c
 2238 0cbd 02       		.uleb128 0x2
 2239 0cbe 7D       		.byte	0x7d
 2240 0cbf 04       		.sleb128 4
 2241 0cc0 02       		.uleb128 0x2
 2242 0cc1 7B       		.byte	0x7b
 2243 0cc2 00       		.sleb128 0
 2244 0cc3 1C       		.uleb128 0x1c
 2245 0cc4 02       		.uleb128 0x2
 2246 0cc5 7D       		.byte	0x7d
 2247 0cc6 00       		.sleb128 0
 2248 0cc7 02       		.uleb128 0x2
 2249 0cc8 74       		.byte	0x74
 2250 0cc9 00       		.sleb128 0
 2251 0cca 00       		.byte	0
 2252 0ccb 28       		.uleb128 0x28
 2253 0ccc AA000000 		.4byte	.LVL30
 2254 0cd0 EE0E0000 		.4byte	0xeee
ARM GAS  C:\Users\jsyoon\AppData\Local\Temp\cc5ypfvg.s 			page 41


 2255 0cd4 28       		.uleb128 0x28
 2256 0cd5 BA000000 		.4byte	.LVL31
 2257 0cd9 A40E0000 		.4byte	0xea4
 2258 0cdd 20       		.uleb128 0x20
 2259 0cde CE000000 		.4byte	.LVL32
 2260 0ce2 BB0E0000 		.4byte	0xebb
 2261 0ce6 120D0000 		.4byte	0xd12
 2262 0cea 1C       		.uleb128 0x1c
 2263 0ceb 01       		.uleb128 0x1
 2264 0cec 53       		.byte	0x53
 2265 0ced 01       		.uleb128 0x1
 2266 0cee 31       		.byte	0x31
 2267 0cef 1C       		.uleb128 0x1c
 2268 0cf0 01       		.uleb128 0x1
 2269 0cf1 52       		.byte	0x52
 2270 0cf2 03       		.uleb128 0x3
 2271 0cf3 91       		.byte	0x91
 2272 0cf4 B47F     		.sleb128 -76
 2273 0cf6 1C       		.uleb128 0x1c
 2274 0cf7 01       		.uleb128 0x1
 2275 0cf8 51       		.byte	0x51
 2276 0cf9 02       		.uleb128 0x2
 2277 0cfa 08       		.byte	0x8
 2278 0cfb 52       		.byte	0x52
 2279 0cfc 1C       		.uleb128 0x1c
 2280 0cfd 02       		.uleb128 0x2
 2281 0cfe 7D       		.byte	0x7d
 2282 0cff 08       		.sleb128 8
 2283 0d00 02       		.uleb128 0x2
 2284 0d01 7A       		.byte	0x7a
 2285 0d02 00       		.sleb128 0
 2286 0d03 1C       		.uleb128 0x1c
 2287 0d04 02       		.uleb128 0x2
 2288 0d05 7D       		.byte	0x7d
 2289 0d06 04       		.sleb128 4
 2290 0d07 02       		.uleb128 0x2
 2291 0d08 7B       		.byte	0x7b
 2292 0d09 00       		.sleb128 0
 2293 0d0a 1C       		.uleb128 0x1c
 2294 0d0b 02       		.uleb128 0x2
 2295 0d0c 7D       		.byte	0x7d
 2296 0d0d 00       		.sleb128 0
 2297 0d0e 02       		.uleb128 0x2
 2298 0d0f 74       		.byte	0x74
 2299 0d10 00       		.sleb128 0
 2300 0d11 00       		.byte	0
 2301 0d12 28       		.uleb128 0x28
 2302 0d13 D6000000 		.4byte	.LVL35
 2303 0d17 EE0E0000 		.4byte	0xeee
 2304 0d1b 20       		.uleb128 0x20
 2305 0d1c E2000000 		.4byte	.LVL36
 2306 0d20 4F0E0000 		.4byte	0xe4f
 2307 0d24 2E0D0000 		.4byte	0xd2e
 2308 0d28 1C       		.uleb128 0x1c
 2309 0d29 01       		.uleb128 0x1
 2310 0d2a 50       		.byte	0x50
 2311 0d2b 01       		.uleb128 0x1
ARM GAS  C:\Users\jsyoon\AppData\Local\Temp\cc5ypfvg.s 			page 42


 2312 0d2c 4E       		.byte	0x4e
 2313 0d2d 00       		.byte	0
 2314 0d2e 28       		.uleb128 0x28
 2315 0d2f E8000000 		.4byte	.LVL37
 2316 0d33 A40E0000 		.4byte	0xea4
 2317 0d37 20       		.uleb128 0x20
 2318 0d38 F8000000 		.4byte	.LVL38
 2319 0d3c FF0E0000 		.4byte	0xeff
 2320 0d40 5D0D0000 		.4byte	0xd5d
 2321 0d44 1C       		.uleb128 0x1c
 2322 0d45 01       		.uleb128 0x1
 2323 0d46 53       		.byte	0x53
 2324 0d47 01       		.uleb128 0x1
 2325 0d48 36       		.byte	0x36
 2326 0d49 1C       		.uleb128 0x1c
 2327 0d4a 01       		.uleb128 0x1
 2328 0d4b 52       		.byte	0x52
 2329 0d4c 02       		.uleb128 0x2
 2330 0d4d 74       		.byte	0x74
 2331 0d4e 00       		.sleb128 0
 2332 0d4f 1C       		.uleb128 0x1c
 2333 0d50 01       		.uleb128 0x1
 2334 0d51 51       		.byte	0x51
 2335 0d52 02       		.uleb128 0x2
 2336 0d53 08       		.byte	0x8
 2337 0d54 52       		.byte	0x52
 2338 0d55 1C       		.uleb128 0x1c
 2339 0d56 02       		.uleb128 0x2
 2340 0d57 7D       		.byte	0x7d
 2341 0d58 00       		.sleb128 0
 2342 0d59 02       		.uleb128 0x2
 2343 0d5a 7A       		.byte	0x7a
 2344 0d5b 00       		.sleb128 0
 2345 0d5c 00       		.byte	0
 2346 0d5d 28       		.uleb128 0x28
 2347 0d5e 00010000 		.4byte	.LVL41
 2348 0d62 EE0E0000 		.4byte	0xeee
 2349 0d66 00       		.byte	0
 2350 0d67 28       		.uleb128 0x28
 2351 0d68 1A000000 		.4byte	.LVL15
 2352 0d6c 280F0000 		.4byte	0xf28
 2353 0d70 1B       		.uleb128 0x1b
 2354 0d71 20000000 		.4byte	.LVL16
 2355 0d75 4F0E0000 		.4byte	0xe4f
 2356 0d79 1C       		.uleb128 0x1c
 2357 0d7a 01       		.uleb128 0x1
 2358 0d7b 50       		.byte	0x50
 2359 0d7c 02       		.uleb128 0x2
 2360 0d7d 08       		.byte	0x8
 2361 0d7e 64       		.byte	0x64
 2362 0d7f 00       		.byte	0
 2363 0d80 00       		.byte	0
 2364 0d81 29       		.uleb128 0x29
 2365 0d82 A2000000 		.4byte	0xa2
 2366 0d86 910D0000 		.4byte	0xd91
 2367 0d8a 2A       		.uleb128 0x2a
 2368 0d8b 27040000 		.4byte	0x427
ARM GAS  C:\Users\jsyoon\AppData\Local\Temp\cc5ypfvg.s 			page 43


 2369 0d8f 09       		.byte	0x9
 2370 0d90 00       		.byte	0
 2371 0d91 29       		.uleb128 0x29
 2372 0d92 AA020000 		.4byte	0x2aa
 2373 0d96 A10D0000 		.4byte	0xda1
 2374 0d9a 2A       		.uleb128 0x2a
 2375 0d9b 27040000 		.4byte	0x427
 2376 0d9f B2       		.byte	0xb2
 2377 0da0 00       		.byte	0
 2378 0da1 22       		.uleb128 0x22
 2379 0da2 DF000000 		.4byte	.LASF169
 2380 0da6 01       		.byte	0x1
 2381 0da7 2F       		.byte	0x2f
 2382 0da8 910D0000 		.4byte	0xd91
 2383 0dac 05       		.uleb128 0x5
 2384 0dad 03       		.byte	0x3
 2385 0dae 00000000 		.4byte	chuk_thread_wa
 2386 0db2 22       		.uleb128 0x22
 2387 0db3 AB000000 		.4byte	.LASF170
 2388 0db7 01       		.byte	0x1
 2389 0db8 31       		.byte	0x31
 2390 0db9 910D0000 		.4byte	0xd91
 2391 0dbd 05       		.uleb128 0x5
 2392 0dbe 03       		.byte	0x3
 2393 0dbf 00000000 		.4byte	output_thread_wa
 2394 0dc3 22       		.uleb128 0x22
 2395 0dc4 6B080000 		.4byte	.LASF171
 2396 0dc8 01       		.byte	0x1
 2397 0dc9 34       		.byte	0x34
 2398 0dca D40D0000 		.4byte	0xdd4
 2399 0dce 05       		.uleb128 0x5
 2400 0dcf 03       		.byte	0x3
 2401 0dd0 00000000 		.4byte	is_running
 2402 0dd4 0D       		.uleb128 0xd
 2403 0dd5 E4000000 		.4byte	0xe4
 2404 0dd9 22       		.uleb128 0x22
 2405 0dda 2A030000 		.4byte	.LASF172
 2406 0dde 01       		.byte	0x1
 2407 0ddf 35       		.byte	0x35
 2408 0de0 EA0D0000 		.4byte	0xdea
 2409 0de4 05       		.uleb128 0x5
 2410 0de5 03       		.byte	0x3
 2411 0de6 00000000 		.4byte	chuck_d
 2412 0dea 0D       		.uleb128 0xd
 2413 0deb 60060000 		.4byte	0x660
 2414 0def 22       		.uleb128 0x22
 2415 0df0 44050000 		.4byte	.LASF173
 2416 0df4 01       		.byte	0x1
 2417 0df5 36       		.byte	0x36
 2418 0df6 000E0000 		.4byte	0xe00
 2419 0dfa 05       		.uleb128 0x5
 2420 0dfb 03       		.byte	0x3
 2421 0dfc 00000000 		.4byte	chuck_error
 2422 0e00 0D       		.uleb128 0xd
 2423 0e01 94000000 		.4byte	0x94
 2424 0e05 22       		.uleb128 0x22
 2425 0e06 00040000 		.4byte	.LASF143
ARM GAS  C:\Users\jsyoon\AppData\Local\Temp\cc5ypfvg.s 			page 44


 2426 0e0a 01       		.byte	0x1
 2427 0e0b 37       		.byte	0x37
 2428 0e0c 160E0000 		.4byte	0xe16
 2429 0e10 05       		.uleb128 0x5
 2430 0e11 03       		.byte	0x3
 2431 0e12 00000000 		.4byte	config
 2432 0e16 0D       		.uleb128 0xd
 2433 0e17 F0050000 		.4byte	0x5f0
 2434 0e1b 22       		.uleb128 0x22
 2435 0e1c 1D000000 		.4byte	.LASF174
 2436 0e20 01       		.byte	0x1
 2437 0e21 38       		.byte	0x38
 2438 0e22 D40D0000 		.4byte	0xdd4
 2439 0e26 05       		.uleb128 0x5
 2440 0e27 03       		.byte	0x3
 2441 0e28 00000000 		.4byte	output_running
 2442 0e2c 2B       		.uleb128 0x2b
 2443 0e2d 76080000 		.4byte	.LASF175
 2444 0e31 09       		.byte	0x9
 2445 0e32 6F       		.byte	0x6f
 2446 0e33 84040000 		.4byte	0x484
 2447 0e37 2C       		.uleb128 0x2c
 2448 0e38 EE000000 		.4byte	.LASF176
 2449 0e3c 10       		.byte	0x10
 2450 0e3d 9806     		.2byte	0x698
 2451 0e3f 71060000 		.4byte	0x671
 2452 0e43 2C       		.uleb128 0x2c
 2453 0e44 5F070000 		.4byte	.LASF177
 2454 0e48 0F       		.byte	0xf
 2455 0e49 B201     		.2byte	0x1b2
 2456 0e4b 2B090000 		.4byte	0x92b
 2457 0e4f 2D       		.uleb128 0x2d
 2458 0e50 41080000 		.4byte	.LASF180
 2459 0e54 07       		.byte	0x7
 2460 0e55 7501     		.2byte	0x175
 2461 0e57 610E0000 		.4byte	0xe61
 2462 0e5b 12       		.uleb128 0x12
 2463 0e5c 38010000 		.4byte	0x138
 2464 0e60 00       		.byte	0
 2465 0e61 2E       		.uleb128 0x2e
 2466 0e62 13050000 		.4byte	.LASF182
 2467 0e66 07       		.byte	0x7
 2468 0e67 7001     		.2byte	0x170
 2469 0e69 6C020000 		.4byte	0x26c
 2470 0e6d 8B0E0000 		.4byte	0xe8b
 2471 0e71 12       		.uleb128 0x12
 2472 0e72 A8020000 		.4byte	0x2a8
 2473 0e76 12       		.uleb128 0x12
 2474 0e77 D9000000 		.4byte	0xd9
 2475 0e7b 12       		.uleb128 0x12
 2476 0e7c 17010000 		.4byte	0x117
 2477 0e80 12       		.uleb128 0x12
 2478 0e81 1E050000 		.4byte	0x51e
 2479 0e85 12       		.uleb128 0x12
 2480 0e86 A8020000 		.4byte	0x2a8
 2481 0e8a 00       		.byte	0
 2482 0e8b 2F       		.uleb128 0x2f
ARM GAS  C:\Users\jsyoon\AppData\Local\Temp\cc5ypfvg.s 			page 45


 2483 0e8c A6080000 		.4byte	.LASF178
 2484 0e90 11       		.byte	0x11
 2485 0e91 21       		.byte	0x21
 2486 0e92 30       		.uleb128 0x30
 2487 0e93 9D070000 		.4byte	.LASF191
 2488 0e97 11       		.byte	0x11
 2489 0e98 22       		.byte	0x22
 2490 0e99 E4000000 		.4byte	0xe4
 2491 0e9d 2F       		.uleb128 0x2f
 2492 0e9e 6D030000 		.4byte	.LASF179
 2493 0ea2 12       		.byte	0x12
 2494 0ea3 34       		.byte	0x34
 2495 0ea4 31       		.uleb128 0x31
 2496 0ea5 3D060000 		.4byte	.LASF181
 2497 0ea9 0E       		.byte	0xe
 2498 0eaa 8E       		.byte	0x8e
 2499 0eab B50E0000 		.4byte	0xeb5
 2500 0eaf 12       		.uleb128 0x12
 2501 0eb0 B50E0000 		.4byte	0xeb5
 2502 0eb4 00       		.byte	0
 2503 0eb5 09       		.uleb128 0x9
 2504 0eb6 04       		.byte	0x4
 2505 0eb7 2B090000 		.4byte	0x92b
 2506 0ebb 32       		.uleb128 0x32
 2507 0ebc 16010000 		.4byte	.LASF183
 2508 0ec0 0E       		.byte	0xe
 2509 0ec1 84       		.byte	0x84
 2510 0ec2 22010000 		.4byte	0x122
 2511 0ec6 EE0E0000 		.4byte	0xeee
 2512 0eca 12       		.uleb128 0x12
 2513 0ecb B50E0000 		.4byte	0xeb5
 2514 0ecf 12       		.uleb128 0x12
 2515 0ed0 86080000 		.4byte	0x886
 2516 0ed4 12       		.uleb128 0x12
 2517 0ed5 44050000 		.4byte	0x544
 2518 0ed9 12       		.uleb128 0x12
 2519 0eda D9000000 		.4byte	0xd9
 2520 0ede 12       		.uleb128 0x12
 2521 0edf 3E050000 		.4byte	0x53e
 2522 0ee3 12       		.uleb128 0x12
 2523 0ee4 D9000000 		.4byte	0xd9
 2524 0ee8 12       		.uleb128 0x12
 2525 0ee9 38010000 		.4byte	0x138
 2526 0eed 00       		.byte	0
 2527 0eee 31       		.uleb128 0x31
 2528 0eef D1000000 		.4byte	.LASF184
 2529 0ef3 0E       		.byte	0xe
 2530 0ef4 8F       		.byte	0x8f
 2531 0ef5 FF0E0000 		.4byte	0xeff
 2532 0ef9 12       		.uleb128 0x12
 2533 0efa B50E0000 		.4byte	0xeb5
 2534 0efe 00       		.byte	0
 2535 0eff 32       		.uleb128 0x32
 2536 0f00 8E080000 		.4byte	.LASF185
 2537 0f04 0E       		.byte	0xe
 2538 0f05 89       		.byte	0x89
 2539 0f06 22010000 		.4byte	0x122
ARM GAS  C:\Users\jsyoon\AppData\Local\Temp\cc5ypfvg.s 			page 46


 2540 0f0a 280F0000 		.4byte	0xf28
 2541 0f0e 12       		.uleb128 0x12
 2542 0f0f B50E0000 		.4byte	0xeb5
 2543 0f13 12       		.uleb128 0x12
 2544 0f14 86080000 		.4byte	0x886
 2545 0f18 12       		.uleb128 0x12
 2546 0f19 3E050000 		.4byte	0x53e
 2547 0f1d 12       		.uleb128 0x12
 2548 0f1e D9000000 		.4byte	0xd9
 2549 0f22 12       		.uleb128 0x12
 2550 0f23 38010000 		.4byte	0x138
 2551 0f27 00       		.byte	0
 2552 0f28 2F       		.uleb128 0x2f
 2553 0f29 DD030000 		.4byte	.LASF186
 2554 0f2d 12       		.byte	0x12
 2555 0f2e 32       		.byte	0x32
 2556 0f2f 00       		.byte	0
 2557              		.section	.debug_abbrev,"",%progbits
 2558              	.Ldebug_abbrev0:
 2559 0000 01       		.uleb128 0x1
 2560 0001 11       		.uleb128 0x11
 2561 0002 01       		.byte	0x1
 2562 0003 25       		.uleb128 0x25
 2563 0004 0E       		.uleb128 0xe
 2564 0005 13       		.uleb128 0x13
 2565 0006 0B       		.uleb128 0xb
 2566 0007 03       		.uleb128 0x3
 2567 0008 0E       		.uleb128 0xe
 2568 0009 1B       		.uleb128 0x1b
 2569 000a 0E       		.uleb128 0xe
 2570 000b 55       		.uleb128 0x55
 2571 000c 17       		.uleb128 0x17
 2572 000d 11       		.uleb128 0x11
 2573 000e 01       		.uleb128 0x1
 2574 000f 10       		.uleb128 0x10
 2575 0010 17       		.uleb128 0x17
 2576 0011 00       		.byte	0
 2577 0012 00       		.byte	0
 2578 0013 02       		.uleb128 0x2
 2579 0014 24       		.uleb128 0x24
 2580 0015 00       		.byte	0
 2581 0016 0B       		.uleb128 0xb
 2582 0017 0B       		.uleb128 0xb
 2583 0018 3E       		.uleb128 0x3e
 2584 0019 0B       		.uleb128 0xb
 2585 001a 03       		.uleb128 0x3
 2586 001b 0E       		.uleb128 0xe
 2587 001c 00       		.byte	0
 2588 001d 00       		.byte	0
 2589 001e 03       		.uleb128 0x3
 2590 001f 16       		.uleb128 0x16
 2591 0020 00       		.byte	0
 2592 0021 03       		.uleb128 0x3
 2593 0022 0E       		.uleb128 0xe
 2594 0023 3A       		.uleb128 0x3a
 2595 0024 0B       		.uleb128 0xb
 2596 0025 3B       		.uleb128 0x3b
ARM GAS  C:\Users\jsyoon\AppData\Local\Temp\cc5ypfvg.s 			page 47


 2597 0026 0B       		.uleb128 0xb
 2598 0027 49       		.uleb128 0x49
 2599 0028 13       		.uleb128 0x13
 2600 0029 00       		.byte	0
 2601 002a 00       		.byte	0
 2602 002b 04       		.uleb128 0x4
 2603 002c 24       		.uleb128 0x24
 2604 002d 00       		.byte	0
 2605 002e 0B       		.uleb128 0xb
 2606 002f 0B       		.uleb128 0xb
 2607 0030 3E       		.uleb128 0x3e
 2608 0031 0B       		.uleb128 0xb
 2609 0032 03       		.uleb128 0x3
 2610 0033 08       		.uleb128 0x8
 2611 0034 00       		.byte	0
 2612 0035 00       		.byte	0
 2613 0036 05       		.uleb128 0x5
 2614 0037 13       		.uleb128 0x13
 2615 0038 01       		.byte	0x1
 2616 0039 03       		.uleb128 0x3
 2617 003a 0E       		.uleb128 0xe
 2618 003b 0B       		.uleb128 0xb
 2619 003c 0B       		.uleb128 0xb
 2620 003d 3A       		.uleb128 0x3a
 2621 003e 0B       		.uleb128 0xb
 2622 003f 3B       		.uleb128 0x3b
 2623 0040 0B       		.uleb128 0xb
 2624 0041 01       		.uleb128 0x1
 2625 0042 13       		.uleb128 0x13
 2626 0043 00       		.byte	0
 2627 0044 00       		.byte	0
 2628 0045 06       		.uleb128 0x6
 2629 0046 0D       		.uleb128 0xd
 2630 0047 00       		.byte	0
 2631 0048 03       		.uleb128 0x3
 2632 0049 0E       		.uleb128 0xe
 2633 004a 3A       		.uleb128 0x3a
 2634 004b 0B       		.uleb128 0xb
 2635 004c 3B       		.uleb128 0x3b
 2636 004d 0B       		.uleb128 0xb
 2637 004e 49       		.uleb128 0x49
 2638 004f 13       		.uleb128 0x13
 2639 0050 38       		.uleb128 0x38
 2640 0051 0B       		.uleb128 0xb
 2641 0052 00       		.byte	0
 2642 0053 00       		.byte	0
 2643 0054 07       		.uleb128 0x7
 2644 0055 0D       		.uleb128 0xd
 2645 0056 00       		.byte	0
 2646 0057 03       		.uleb128 0x3
 2647 0058 08       		.uleb128 0x8
 2648 0059 3A       		.uleb128 0x3a
 2649 005a 0B       		.uleb128 0xb
 2650 005b 3B       		.uleb128 0x3b
 2651 005c 0B       		.uleb128 0xb
 2652 005d 49       		.uleb128 0x49
 2653 005e 13       		.uleb128 0x13
ARM GAS  C:\Users\jsyoon\AppData\Local\Temp\cc5ypfvg.s 			page 48


 2654 005f 38       		.uleb128 0x38
 2655 0060 0B       		.uleb128 0xb
 2656 0061 00       		.byte	0
 2657 0062 00       		.byte	0
 2658 0063 08       		.uleb128 0x8
 2659 0064 13       		.uleb128 0x13
 2660 0065 01       		.byte	0x1
 2661 0066 0B       		.uleb128 0xb
 2662 0067 0B       		.uleb128 0xb
 2663 0068 3A       		.uleb128 0x3a
 2664 0069 0B       		.uleb128 0xb
 2665 006a 3B       		.uleb128 0x3b
 2666 006b 0B       		.uleb128 0xb
 2667 006c 01       		.uleb128 0x1
 2668 006d 13       		.uleb128 0x13
 2669 006e 00       		.byte	0
 2670 006f 00       		.byte	0
 2671 0070 09       		.uleb128 0x9
 2672 0071 0F       		.uleb128 0xf
 2673 0072 00       		.byte	0
 2674 0073 0B       		.uleb128 0xb
 2675 0074 0B       		.uleb128 0xb
 2676 0075 49       		.uleb128 0x49
 2677 0076 13       		.uleb128 0x13
 2678 0077 00       		.byte	0
 2679 0078 00       		.byte	0
 2680 0079 0A       		.uleb128 0xa
 2681 007a 0F       		.uleb128 0xf
 2682 007b 00       		.byte	0
 2683 007c 0B       		.uleb128 0xb
 2684 007d 0B       		.uleb128 0xb
 2685 007e 00       		.byte	0
 2686 007f 00       		.byte	0
 2687 0080 0B       		.uleb128 0xb
 2688 0081 13       		.uleb128 0x13
 2689 0082 01       		.byte	0x1
 2690 0083 03       		.uleb128 0x3
 2691 0084 0E       		.uleb128 0xe
 2692 0085 0B       		.uleb128 0xb
 2693 0086 0B       		.uleb128 0xb
 2694 0087 3A       		.uleb128 0x3a
 2695 0088 0B       		.uleb128 0xb
 2696 0089 3B       		.uleb128 0x3b
 2697 008a 05       		.uleb128 0x5
 2698 008b 01       		.uleb128 0x1
 2699 008c 13       		.uleb128 0x13
 2700 008d 00       		.byte	0
 2701 008e 00       		.byte	0
 2702 008f 0C       		.uleb128 0xc
 2703 0090 0D       		.uleb128 0xd
 2704 0091 00       		.byte	0
 2705 0092 03       		.uleb128 0x3
 2706 0093 08       		.uleb128 0x8
 2707 0094 3A       		.uleb128 0x3a
 2708 0095 0B       		.uleb128 0xb
 2709 0096 3B       		.uleb128 0x3b
 2710 0097 05       		.uleb128 0x5
ARM GAS  C:\Users\jsyoon\AppData\Local\Temp\cc5ypfvg.s 			page 49


 2711 0098 49       		.uleb128 0x49
 2712 0099 13       		.uleb128 0x13
 2713 009a 38       		.uleb128 0x38
 2714 009b 0B       		.uleb128 0xb
 2715 009c 00       		.byte	0
 2716 009d 00       		.byte	0
 2717 009e 0D       		.uleb128 0xd
 2718 009f 35       		.uleb128 0x35
 2719 00a0 00       		.byte	0
 2720 00a1 49       		.uleb128 0x49
 2721 00a2 13       		.uleb128 0x13
 2722 00a3 00       		.byte	0
 2723 00a4 00       		.byte	0
 2724 00a5 0E       		.uleb128 0xe
 2725 00a6 17       		.uleb128 0x17
 2726 00a7 01       		.byte	0x1
 2727 00a8 0B       		.uleb128 0xb
 2728 00a9 0B       		.uleb128 0xb
 2729 00aa 3A       		.uleb128 0x3a
 2730 00ab 0B       		.uleb128 0xb
 2731 00ac 3B       		.uleb128 0x3b
 2732 00ad 0B       		.uleb128 0xb
 2733 00ae 01       		.uleb128 0x1
 2734 00af 13       		.uleb128 0x13
 2735 00b0 00       		.byte	0
 2736 00b1 00       		.byte	0
 2737 00b2 0F       		.uleb128 0xf
 2738 00b3 0D       		.uleb128 0xd
 2739 00b4 00       		.byte	0
 2740 00b5 03       		.uleb128 0x3
 2741 00b6 0E       		.uleb128 0xe
 2742 00b7 3A       		.uleb128 0x3a
 2743 00b8 0B       		.uleb128 0xb
 2744 00b9 3B       		.uleb128 0x3b
 2745 00ba 0B       		.uleb128 0xb
 2746 00bb 49       		.uleb128 0x49
 2747 00bc 13       		.uleb128 0x13
 2748 00bd 00       		.byte	0
 2749 00be 00       		.byte	0
 2750 00bf 10       		.uleb128 0x10
 2751 00c0 26       		.uleb128 0x26
 2752 00c1 00       		.byte	0
 2753 00c2 49       		.uleb128 0x49
 2754 00c3 13       		.uleb128 0x13
 2755 00c4 00       		.byte	0
 2756 00c5 00       		.byte	0
 2757 00c6 11       		.uleb128 0x11
 2758 00c7 15       		.uleb128 0x15
 2759 00c8 01       		.byte	0x1
 2760 00c9 27       		.uleb128 0x27
 2761 00ca 19       		.uleb128 0x19
 2762 00cb 49       		.uleb128 0x49
 2763 00cc 13       		.uleb128 0x13
 2764 00cd 01       		.uleb128 0x1
 2765 00ce 13       		.uleb128 0x13
 2766 00cf 00       		.byte	0
 2767 00d0 00       		.byte	0
ARM GAS  C:\Users\jsyoon\AppData\Local\Temp\cc5ypfvg.s 			page 50


 2768 00d1 12       		.uleb128 0x12
 2769 00d2 05       		.uleb128 0x5
 2770 00d3 00       		.byte	0
 2771 00d4 49       		.uleb128 0x49
 2772 00d5 13       		.uleb128 0x13
 2773 00d6 00       		.byte	0
 2774 00d7 00       		.byte	0
 2775 00d8 13       		.uleb128 0x13
 2776 00d9 04       		.uleb128 0x4
 2777 00da 01       		.byte	0x1
 2778 00db 0B       		.uleb128 0xb
 2779 00dc 0B       		.uleb128 0xb
 2780 00dd 3A       		.uleb128 0x3a
 2781 00de 0B       		.uleb128 0xb
 2782 00df 3B       		.uleb128 0x3b
 2783 00e0 0B       		.uleb128 0xb
 2784 00e1 01       		.uleb128 0x1
 2785 00e2 13       		.uleb128 0x13
 2786 00e3 00       		.byte	0
 2787 00e4 00       		.byte	0
 2788 00e5 14       		.uleb128 0x14
 2789 00e6 28       		.uleb128 0x28
 2790 00e7 00       		.byte	0
 2791 00e8 03       		.uleb128 0x3
 2792 00e9 0E       		.uleb128 0xe
 2793 00ea 1C       		.uleb128 0x1c
 2794 00eb 0D       		.uleb128 0xd
 2795 00ec 00       		.byte	0
 2796 00ed 00       		.byte	0
 2797 00ee 15       		.uleb128 0x15
 2798 00ef 13       		.uleb128 0x13
 2799 00f0 01       		.byte	0x1
 2800 00f1 0B       		.uleb128 0xb
 2801 00f2 0B       		.uleb128 0xb
 2802 00f3 3A       		.uleb128 0x3a
 2803 00f4 0B       		.uleb128 0xb
 2804 00f5 3B       		.uleb128 0x3b
 2805 00f6 05       		.uleb128 0x5
 2806 00f7 01       		.uleb128 0x1
 2807 00f8 13       		.uleb128 0x13
 2808 00f9 00       		.byte	0
 2809 00fa 00       		.byte	0
 2810 00fb 16       		.uleb128 0x16
 2811 00fc 0D       		.uleb128 0xd
 2812 00fd 00       		.byte	0
 2813 00fe 03       		.uleb128 0x3
 2814 00ff 0E       		.uleb128 0xe
 2815 0100 3A       		.uleb128 0x3a
 2816 0101 0B       		.uleb128 0xb
 2817 0102 3B       		.uleb128 0x3b
 2818 0103 05       		.uleb128 0x5
 2819 0104 49       		.uleb128 0x49
 2820 0105 13       		.uleb128 0x13
 2821 0106 38       		.uleb128 0x38
 2822 0107 0B       		.uleb128 0xb
 2823 0108 00       		.byte	0
 2824 0109 00       		.byte	0
ARM GAS  C:\Users\jsyoon\AppData\Local\Temp\cc5ypfvg.s 			page 51


 2825 010a 17       		.uleb128 0x17
 2826 010b 16       		.uleb128 0x16
 2827 010c 00       		.byte	0
 2828 010d 03       		.uleb128 0x3
 2829 010e 0E       		.uleb128 0xe
 2830 010f 3A       		.uleb128 0x3a
 2831 0110 0B       		.uleb128 0xb
 2832 0111 3B       		.uleb128 0x3b
 2833 0112 05       		.uleb128 0x5
 2834 0113 49       		.uleb128 0x49
 2835 0114 13       		.uleb128 0x13
 2836 0115 00       		.byte	0
 2837 0116 00       		.byte	0
 2838 0117 18       		.uleb128 0x18
 2839 0118 04       		.uleb128 0x4
 2840 0119 01       		.byte	0x1
 2841 011a 0B       		.uleb128 0xb
 2842 011b 0B       		.uleb128 0xb
 2843 011c 3A       		.uleb128 0x3a
 2844 011d 0B       		.uleb128 0xb
 2845 011e 3B       		.uleb128 0x3b
 2846 011f 05       		.uleb128 0x5
 2847 0120 01       		.uleb128 0x1
 2848 0121 13       		.uleb128 0x13
 2849 0122 00       		.byte	0
 2850 0123 00       		.byte	0
 2851 0124 19       		.uleb128 0x19
 2852 0125 2E       		.uleb128 0x2e
 2853 0126 01       		.byte	0x1
 2854 0127 03       		.uleb128 0x3
 2855 0128 0E       		.uleb128 0xe
 2856 0129 3A       		.uleb128 0x3a
 2857 012a 0B       		.uleb128 0xb
 2858 012b 3B       		.uleb128 0x3b
 2859 012c 0B       		.uleb128 0xb
 2860 012d 27       		.uleb128 0x27
 2861 012e 19       		.uleb128 0x19
 2862 012f 49       		.uleb128 0x49
 2863 0130 13       		.uleb128 0x13
 2864 0131 11       		.uleb128 0x11
 2865 0132 01       		.uleb128 0x1
 2866 0133 12       		.uleb128 0x12
 2867 0134 06       		.uleb128 0x6
 2868 0135 40       		.uleb128 0x40
 2869 0136 18       		.uleb128 0x18
 2870 0137 9742     		.uleb128 0x2117
 2871 0139 19       		.uleb128 0x19
 2872 013a 01       		.uleb128 0x1
 2873 013b 13       		.uleb128 0x13
 2874 013c 00       		.byte	0
 2875 013d 00       		.byte	0
 2876 013e 1A       		.uleb128 0x1a
 2877 013f 05       		.uleb128 0x5
 2878 0140 00       		.byte	0
 2879 0141 03       		.uleb128 0x3
 2880 0142 08       		.uleb128 0x8
 2881 0143 3A       		.uleb128 0x3a
ARM GAS  C:\Users\jsyoon\AppData\Local\Temp\cc5ypfvg.s 			page 52


 2882 0144 0B       		.uleb128 0xb
 2883 0145 3B       		.uleb128 0x3b
 2884 0146 0B       		.uleb128 0xb
 2885 0147 49       		.uleb128 0x49
 2886 0148 13       		.uleb128 0x13
 2887 0149 02       		.uleb128 0x2
 2888 014a 17       		.uleb128 0x17
 2889 014b 00       		.byte	0
 2890 014c 00       		.byte	0
 2891 014d 1B       		.uleb128 0x1b
 2892 014e 898201   		.uleb128 0x4109
 2893 0151 01       		.byte	0x1
 2894 0152 11       		.uleb128 0x11
 2895 0153 01       		.uleb128 0x1
 2896 0154 31       		.uleb128 0x31
 2897 0155 13       		.uleb128 0x13
 2898 0156 00       		.byte	0
 2899 0157 00       		.byte	0
 2900 0158 1C       		.uleb128 0x1c
 2901 0159 8A8201   		.uleb128 0x410a
 2902 015c 00       		.byte	0
 2903 015d 02       		.uleb128 0x2
 2904 015e 18       		.uleb128 0x18
 2905 015f 9142     		.uleb128 0x2111
 2906 0161 18       		.uleb128 0x18
 2907 0162 00       		.byte	0
 2908 0163 00       		.byte	0
 2909 0164 1D       		.uleb128 0x1d
 2910 0165 2E       		.uleb128 0x2e
 2911 0166 01       		.byte	0x1
 2912 0167 3F       		.uleb128 0x3f
 2913 0168 19       		.uleb128 0x19
 2914 0169 03       		.uleb128 0x3
 2915 016a 0E       		.uleb128 0xe
 2916 016b 3A       		.uleb128 0x3a
 2917 016c 0B       		.uleb128 0xb
 2918 016d 3B       		.uleb128 0x3b
 2919 016e 0B       		.uleb128 0xb
 2920 016f 27       		.uleb128 0x27
 2921 0170 19       		.uleb128 0x19
 2922 0171 11       		.uleb128 0x11
 2923 0172 01       		.uleb128 0x1
 2924 0173 12       		.uleb128 0x12
 2925 0174 06       		.uleb128 0x6
 2926 0175 40       		.uleb128 0x40
 2927 0176 18       		.uleb128 0x18
 2928 0177 9742     		.uleb128 0x2117
 2929 0179 19       		.uleb128 0x19
 2930 017a 01       		.uleb128 0x1
 2931 017b 13       		.uleb128 0x13
 2932 017c 00       		.byte	0
 2933 017d 00       		.byte	0
 2934 017e 1E       		.uleb128 0x1e
 2935 017f 05       		.uleb128 0x5
 2936 0180 00       		.byte	0
 2937 0181 03       		.uleb128 0x3
 2938 0182 0E       		.uleb128 0xe
ARM GAS  C:\Users\jsyoon\AppData\Local\Temp\cc5ypfvg.s 			page 53


 2939 0183 3A       		.uleb128 0x3a
 2940 0184 0B       		.uleb128 0xb
 2941 0185 3B       		.uleb128 0x3b
 2942 0186 0B       		.uleb128 0xb
 2943 0187 49       		.uleb128 0x49
 2944 0188 13       		.uleb128 0x13
 2945 0189 02       		.uleb128 0x2
 2946 018a 17       		.uleb128 0x17
 2947 018b 00       		.byte	0
 2948 018c 00       		.byte	0
 2949 018d 1F       		.uleb128 0x1f
 2950 018e 2E       		.uleb128 0x2e
 2951 018f 00       		.byte	0
 2952 0190 3F       		.uleb128 0x3f
 2953 0191 19       		.uleb128 0x19
 2954 0192 03       		.uleb128 0x3
 2955 0193 0E       		.uleb128 0xe
 2956 0194 3A       		.uleb128 0x3a
 2957 0195 0B       		.uleb128 0xb
 2958 0196 3B       		.uleb128 0x3b
 2959 0197 0B       		.uleb128 0xb
 2960 0198 27       		.uleb128 0x27
 2961 0199 19       		.uleb128 0x19
 2962 019a 49       		.uleb128 0x49
 2963 019b 13       		.uleb128 0x13
 2964 019c 11       		.uleb128 0x11
 2965 019d 01       		.uleb128 0x1
 2966 019e 12       		.uleb128 0x12
 2967 019f 06       		.uleb128 0x6
 2968 01a0 40       		.uleb128 0x40
 2969 01a1 18       		.uleb128 0x18
 2970 01a2 9742     		.uleb128 0x2117
 2971 01a4 19       		.uleb128 0x19
 2972 01a5 00       		.byte	0
 2973 01a6 00       		.byte	0
 2974 01a7 20       		.uleb128 0x20
 2975 01a8 898201   		.uleb128 0x4109
 2976 01ab 01       		.byte	0x1
 2977 01ac 11       		.uleb128 0x11
 2978 01ad 01       		.uleb128 0x1
 2979 01ae 31       		.uleb128 0x31
 2980 01af 13       		.uleb128 0x13
 2981 01b0 01       		.uleb128 0x1
 2982 01b1 13       		.uleb128 0x13
 2983 01b2 00       		.byte	0
 2984 01b3 00       		.byte	0
 2985 01b4 21       		.uleb128 0x21
 2986 01b5 898201   		.uleb128 0x4109
 2987 01b8 00       		.byte	0
 2988 01b9 11       		.uleb128 0x11
 2989 01ba 01       		.uleb128 0x1
 2990 01bb 9542     		.uleb128 0x2115
 2991 01bd 19       		.uleb128 0x19
 2992 01be 31       		.uleb128 0x31
 2993 01bf 13       		.uleb128 0x13
 2994 01c0 00       		.byte	0
 2995 01c1 00       		.byte	0
ARM GAS  C:\Users\jsyoon\AppData\Local\Temp\cc5ypfvg.s 			page 54


 2996 01c2 22       		.uleb128 0x22
 2997 01c3 34       		.uleb128 0x34
 2998 01c4 00       		.byte	0
 2999 01c5 03       		.uleb128 0x3
 3000 01c6 0E       		.uleb128 0xe
 3001 01c7 3A       		.uleb128 0x3a
 3002 01c8 0B       		.uleb128 0xb
 3003 01c9 3B       		.uleb128 0x3b
 3004 01ca 0B       		.uleb128 0xb
 3005 01cb 49       		.uleb128 0x49
 3006 01cc 13       		.uleb128 0x13
 3007 01cd 02       		.uleb128 0x2
 3008 01ce 18       		.uleb128 0x18
 3009 01cf 00       		.byte	0
 3010 01d0 00       		.byte	0
 3011 01d1 23       		.uleb128 0x23
 3012 01d2 34       		.uleb128 0x34
 3013 01d3 00       		.byte	0
 3014 01d4 03       		.uleb128 0x3
 3015 01d5 0E       		.uleb128 0xe
 3016 01d6 3A       		.uleb128 0x3a
 3017 01d7 0B       		.uleb128 0xb
 3018 01d8 3B       		.uleb128 0x3b
 3019 01d9 0B       		.uleb128 0xb
 3020 01da 49       		.uleb128 0x49
 3021 01db 13       		.uleb128 0x13
 3022 01dc 02       		.uleb128 0x2
 3023 01dd 17       		.uleb128 0x17
 3024 01de 00       		.byte	0
 3025 01df 00       		.byte	0
 3026 01e0 24       		.uleb128 0x24
 3027 01e1 34       		.uleb128 0x34
 3028 01e2 00       		.byte	0
 3029 01e3 03       		.uleb128 0x3
 3030 01e4 08       		.uleb128 0x8
 3031 01e5 3A       		.uleb128 0x3a
 3032 01e6 0B       		.uleb128 0xb
 3033 01e7 3B       		.uleb128 0x3b
 3034 01e8 0B       		.uleb128 0xb
 3035 01e9 49       		.uleb128 0x49
 3036 01ea 13       		.uleb128 0x13
 3037 01eb 1C       		.uleb128 0x1c
 3038 01ec 0B       		.uleb128 0xb
 3039 01ed 00       		.byte	0
 3040 01ee 00       		.byte	0
 3041 01ef 25       		.uleb128 0x25
 3042 01f0 34       		.uleb128 0x34
 3043 01f1 00       		.byte	0
 3044 01f2 03       		.uleb128 0x3
 3045 01f3 0E       		.uleb128 0xe
 3046 01f4 3A       		.uleb128 0x3a
 3047 01f5 0B       		.uleb128 0xb
 3048 01f6 3B       		.uleb128 0x3b
 3049 01f7 0B       		.uleb128 0xb
 3050 01f8 49       		.uleb128 0x49
 3051 01f9 13       		.uleb128 0x13
 3052 01fa 1C       		.uleb128 0x1c
ARM GAS  C:\Users\jsyoon\AppData\Local\Temp\cc5ypfvg.s 			page 55


 3053 01fb 0B       		.uleb128 0xb
 3054 01fc 00       		.byte	0
 3055 01fd 00       		.byte	0
 3056 01fe 26       		.uleb128 0x26
 3057 01ff 0B       		.uleb128 0xb
 3058 0200 01       		.byte	0x1
 3059 0201 11       		.uleb128 0x11
 3060 0202 01       		.uleb128 0x1
 3061 0203 12       		.uleb128 0x12
 3062 0204 06       		.uleb128 0x6
 3063 0205 01       		.uleb128 0x1
 3064 0206 13       		.uleb128 0x13
 3065 0207 00       		.byte	0
 3066 0208 00       		.byte	0
 3067 0209 27       		.uleb128 0x27
 3068 020a 34       		.uleb128 0x34
 3069 020b 00       		.byte	0
 3070 020c 03       		.uleb128 0x3
 3071 020d 08       		.uleb128 0x8
 3072 020e 3A       		.uleb128 0x3a
 3073 020f 0B       		.uleb128 0xb
 3074 0210 3B       		.uleb128 0x3b
 3075 0211 0B       		.uleb128 0xb
 3076 0212 49       		.uleb128 0x49
 3077 0213 13       		.uleb128 0x13
 3078 0214 02       		.uleb128 0x2
 3079 0215 17       		.uleb128 0x17
 3080 0216 00       		.byte	0
 3081 0217 00       		.byte	0
 3082 0218 28       		.uleb128 0x28
 3083 0219 898201   		.uleb128 0x4109
 3084 021c 00       		.byte	0
 3085 021d 11       		.uleb128 0x11
 3086 021e 01       		.uleb128 0x1
 3087 021f 31       		.uleb128 0x31
 3088 0220 13       		.uleb128 0x13
 3089 0221 00       		.byte	0
 3090 0222 00       		.byte	0
 3091 0223 29       		.uleb128 0x29
 3092 0224 01       		.uleb128 0x1
 3093 0225 01       		.byte	0x1
 3094 0226 49       		.uleb128 0x49
 3095 0227 13       		.uleb128 0x13
 3096 0228 01       		.uleb128 0x1
 3097 0229 13       		.uleb128 0x13
 3098 022a 00       		.byte	0
 3099 022b 00       		.byte	0
 3100 022c 2A       		.uleb128 0x2a
 3101 022d 21       		.uleb128 0x21
 3102 022e 00       		.byte	0
 3103 022f 49       		.uleb128 0x49
 3104 0230 13       		.uleb128 0x13
 3105 0231 2F       		.uleb128 0x2f
 3106 0232 0B       		.uleb128 0xb
 3107 0233 00       		.byte	0
 3108 0234 00       		.byte	0
 3109 0235 2B       		.uleb128 0x2b
ARM GAS  C:\Users\jsyoon\AppData\Local\Temp\cc5ypfvg.s 			page 56


 3110 0236 34       		.uleb128 0x34
 3111 0237 00       		.byte	0
 3112 0238 03       		.uleb128 0x3
 3113 0239 0E       		.uleb128 0xe
 3114 023a 3A       		.uleb128 0x3a
 3115 023b 0B       		.uleb128 0xb
 3116 023c 3B       		.uleb128 0x3b
 3117 023d 0B       		.uleb128 0xb
 3118 023e 49       		.uleb128 0x49
 3119 023f 13       		.uleb128 0x13
 3120 0240 3F       		.uleb128 0x3f
 3121 0241 19       		.uleb128 0x19
 3122 0242 3C       		.uleb128 0x3c
 3123 0243 19       		.uleb128 0x19
 3124 0244 00       		.byte	0
 3125 0245 00       		.byte	0
 3126 0246 2C       		.uleb128 0x2c
 3127 0247 34       		.uleb128 0x34
 3128 0248 00       		.byte	0
 3129 0249 03       		.uleb128 0x3
 3130 024a 0E       		.uleb128 0xe
 3131 024b 3A       		.uleb128 0x3a
 3132 024c 0B       		.uleb128 0xb
 3133 024d 3B       		.uleb128 0x3b
 3134 024e 05       		.uleb128 0x5
 3135 024f 49       		.uleb128 0x49
 3136 0250 13       		.uleb128 0x13
 3137 0251 3F       		.uleb128 0x3f
 3138 0252 19       		.uleb128 0x19
 3139 0253 3C       		.uleb128 0x3c
 3140 0254 19       		.uleb128 0x19
 3141 0255 00       		.byte	0
 3142 0256 00       		.byte	0
 3143 0257 2D       		.uleb128 0x2d
 3144 0258 2E       		.uleb128 0x2e
 3145 0259 01       		.byte	0x1
 3146 025a 3F       		.uleb128 0x3f
 3147 025b 19       		.uleb128 0x19
 3148 025c 03       		.uleb128 0x3
 3149 025d 0E       		.uleb128 0xe
 3150 025e 3A       		.uleb128 0x3a
 3151 025f 0B       		.uleb128 0xb
 3152 0260 3B       		.uleb128 0x3b
 3153 0261 05       		.uleb128 0x5
 3154 0262 27       		.uleb128 0x27
 3155 0263 19       		.uleb128 0x19
 3156 0264 3C       		.uleb128 0x3c
 3157 0265 19       		.uleb128 0x19
 3158 0266 01       		.uleb128 0x1
 3159 0267 13       		.uleb128 0x13
 3160 0268 00       		.byte	0
 3161 0269 00       		.byte	0
 3162 026a 2E       		.uleb128 0x2e
 3163 026b 2E       		.uleb128 0x2e
 3164 026c 01       		.byte	0x1
 3165 026d 3F       		.uleb128 0x3f
 3166 026e 19       		.uleb128 0x19
ARM GAS  C:\Users\jsyoon\AppData\Local\Temp\cc5ypfvg.s 			page 57


 3167 026f 03       		.uleb128 0x3
 3168 0270 0E       		.uleb128 0xe
 3169 0271 3A       		.uleb128 0x3a
 3170 0272 0B       		.uleb128 0xb
 3171 0273 3B       		.uleb128 0x3b
 3172 0274 05       		.uleb128 0x5
 3173 0275 27       		.uleb128 0x27
 3174 0276 19       		.uleb128 0x19
 3175 0277 49       		.uleb128 0x49
 3176 0278 13       		.uleb128 0x13
 3177 0279 3C       		.uleb128 0x3c
 3178 027a 19       		.uleb128 0x19
 3179 027b 01       		.uleb128 0x1
 3180 027c 13       		.uleb128 0x13
 3181 027d 00       		.byte	0
 3182 027e 00       		.byte	0
 3183 027f 2F       		.uleb128 0x2f
 3184 0280 2E       		.uleb128 0x2e
 3185 0281 00       		.byte	0
 3186 0282 3F       		.uleb128 0x3f
 3187 0283 19       		.uleb128 0x19
 3188 0284 03       		.uleb128 0x3
 3189 0285 0E       		.uleb128 0xe
 3190 0286 3A       		.uleb128 0x3a
 3191 0287 0B       		.uleb128 0xb
 3192 0288 3B       		.uleb128 0x3b
 3193 0289 0B       		.uleb128 0xb
 3194 028a 27       		.uleb128 0x27
 3195 028b 19       		.uleb128 0x19
 3196 028c 3C       		.uleb128 0x3c
 3197 028d 19       		.uleb128 0x19
 3198 028e 00       		.byte	0
 3199 028f 00       		.byte	0
 3200 0290 30       		.uleb128 0x30
 3201 0291 2E       		.uleb128 0x2e
 3202 0292 00       		.byte	0
 3203 0293 3F       		.uleb128 0x3f
 3204 0294 19       		.uleb128 0x19
 3205 0295 03       		.uleb128 0x3
 3206 0296 0E       		.uleb128 0xe
 3207 0297 3A       		.uleb128 0x3a
 3208 0298 0B       		.uleb128 0xb
 3209 0299 3B       		.uleb128 0x3b
 3210 029a 0B       		.uleb128 0xb
 3211 029b 27       		.uleb128 0x27
 3212 029c 19       		.uleb128 0x19
 3213 029d 49       		.uleb128 0x49
 3214 029e 13       		.uleb128 0x13
 3215 029f 3C       		.uleb128 0x3c
 3216 02a0 19       		.uleb128 0x19
 3217 02a1 00       		.byte	0
 3218 02a2 00       		.byte	0
 3219 02a3 31       		.uleb128 0x31
 3220 02a4 2E       		.uleb128 0x2e
 3221 02a5 01       		.byte	0x1
 3222 02a6 3F       		.uleb128 0x3f
 3223 02a7 19       		.uleb128 0x19
ARM GAS  C:\Users\jsyoon\AppData\Local\Temp\cc5ypfvg.s 			page 58


 3224 02a8 03       		.uleb128 0x3
 3225 02a9 0E       		.uleb128 0xe
 3226 02aa 3A       		.uleb128 0x3a
 3227 02ab 0B       		.uleb128 0xb
 3228 02ac 3B       		.uleb128 0x3b
 3229 02ad 0B       		.uleb128 0xb
 3230 02ae 27       		.uleb128 0x27
 3231 02af 19       		.uleb128 0x19
 3232 02b0 3C       		.uleb128 0x3c
 3233 02b1 19       		.uleb128 0x19
 3234 02b2 01       		.uleb128 0x1
 3235 02b3 13       		.uleb128 0x13
 3236 02b4 00       		.byte	0
 3237 02b5 00       		.byte	0
 3238 02b6 32       		.uleb128 0x32
 3239 02b7 2E       		.uleb128 0x2e
 3240 02b8 01       		.byte	0x1
 3241 02b9 3F       		.uleb128 0x3f
 3242 02ba 19       		.uleb128 0x19
 3243 02bb 03       		.uleb128 0x3
 3244 02bc 0E       		.uleb128 0xe
 3245 02bd 3A       		.uleb128 0x3a
 3246 02be 0B       		.uleb128 0xb
 3247 02bf 3B       		.uleb128 0x3b
 3248 02c0 0B       		.uleb128 0xb
 3249 02c1 27       		.uleb128 0x27
 3250 02c2 19       		.uleb128 0x19
 3251 02c3 49       		.uleb128 0x49
 3252 02c4 13       		.uleb128 0x13
 3253 02c5 3C       		.uleb128 0x3c
 3254 02c6 19       		.uleb128 0x19
 3255 02c7 01       		.uleb128 0x1
 3256 02c8 13       		.uleb128 0x13
 3257 02c9 00       		.byte	0
 3258 02ca 00       		.byte	0
 3259 02cb 00       		.byte	0
 3260              		.section	.debug_loc,"",%progbits
 3261              	.Ldebug_loc0:
 3262              	.LLST0:
 3263 0000 00000000 		.4byte	.LVL0
 3264 0004 0A000000 		.4byte	.LVL1
 3265 0008 0100     		.2byte	0x1
 3266 000a 50       		.byte	0x50
 3267 000b 0A000000 		.4byte	.LVL1
 3268 000f 1C000000 		.4byte	.LFE123
 3269 0013 0400     		.2byte	0x4
 3270 0015 F3       		.byte	0xf3
 3271 0016 01       		.uleb128 0x1
 3272 0017 50       		.byte	0x50
 3273 0018 9F       		.byte	0x9f
 3274 0019 00000000 		.4byte	0
 3275 001d 00000000 		.4byte	0
 3276              	.LLST1:
 3277 0021 00000000 		.4byte	.LVL3
 3278 0025 06000000 		.4byte	.LVL4
 3279 0029 0100     		.2byte	0x1
 3280 002b 50       		.byte	0x50
ARM GAS  C:\Users\jsyoon\AppData\Local\Temp\cc5ypfvg.s 			page 59


 3281 002c 06000000 		.4byte	.LVL4
 3282 0030 14000000 		.4byte	.LVL5
 3283 0034 0300     		.2byte	0x3
 3284 0036 75       		.byte	0x75
 3285 0037 70       		.sleb128 -16
 3286 0038 9F       		.byte	0x9f
 3287 0039 14000000 		.4byte	.LVL5
 3288 003d 1C000000 		.4byte	.LFE118
 3289 0041 0400     		.2byte	0x4
 3290 0043 F3       		.byte	0xf3
 3291 0044 01       		.uleb128 0x1
 3292 0045 50       		.byte	0x50
 3293 0046 9F       		.byte	0x9f
 3294 0047 00000000 		.4byte	0
 3295 004b 00000000 		.4byte	0
 3296              	.LLST2:
 3297 004f 00000000 		.4byte	.LVL7
 3298 0053 16000000 		.4byte	.LVL8
 3299 0057 0100     		.2byte	0x1
 3300 0059 50       		.byte	0x50
 3301 005a 16000000 		.4byte	.LVL8
 3302 005e 2C000000 		.4byte	.LVL10
 3303 0062 0100     		.2byte	0x1
 3304 0064 55       		.byte	0x55
 3305 0065 2C000000 		.4byte	.LVL10
 3306 0069 3E000000 		.4byte	.LVL11
 3307 006d 0300     		.2byte	0x3
 3308 006f 75       		.byte	0x75
 3309 0070 70       		.sleb128 -16
 3310 0071 9F       		.byte	0x9f
 3311 0072 3E000000 		.4byte	.LVL11
 3312 0076 54000000 		.4byte	.LFE121
 3313 007a 0400     		.2byte	0x4
 3314 007c F3       		.byte	0xf3
 3315 007d 01       		.uleb128 0x1
 3316 007e 50       		.byte	0x50
 3317 007f 9F       		.byte	0x9f
 3318 0080 00000000 		.4byte	0
 3319 0084 00000000 		.4byte	0
 3320              	.LLST3:
 3321 0088 00000000 		.4byte	.LVL13
 3322 008c 19000000 		.4byte	.LVL15-1
 3323 0090 0100     		.2byte	0x1
 3324 0092 50       		.byte	0x50
 3325 0093 19000000 		.4byte	.LVL15-1
 3326 0097 AC010000 		.4byte	.LFE122
 3327 009b 0400     		.2byte	0x4
 3328 009d F3       		.byte	0xf3
 3329 009e 01       		.uleb128 0x1
 3330 009f 50       		.byte	0x50
 3331 00a0 9F       		.byte	0x9f
 3332 00a1 00000000 		.4byte	0
 3333 00a5 00000000 		.4byte	0
 3334              	.LLST4:
 3335 00a9 16000000 		.4byte	.LVL14
 3336 00ad 30000000 		.4byte	.LVL17
 3337 00b1 0200     		.2byte	0x2
ARM GAS  C:\Users\jsyoon\AppData\Local\Temp\cc5ypfvg.s 			page 60


 3338 00b3 30       		.byte	0x30
 3339 00b4 9F       		.byte	0x9f
 3340 00b5 72000000 		.4byte	.LVL23
 3341 00b9 74000000 		.4byte	.LVL24
 3342 00bd 0100     		.2byte	0x1
 3343 00bf 50       		.byte	0x50
 3344 00c0 74000000 		.4byte	.LVL24
 3345 00c4 A4000000 		.4byte	.LVL28
 3346 00c8 0100     		.2byte	0x1
 3347 00ca 5B       		.byte	0x5b
 3348 00cb A4000000 		.4byte	.LVL28
 3349 00cf A6000000 		.4byte	.LVL29
 3350 00d3 0100     		.2byte	0x1
 3351 00d5 50       		.byte	0x50
 3352 00d6 A6000000 		.4byte	.LVL29
 3353 00da D0000000 		.4byte	.LVL33
 3354 00de 0100     		.2byte	0x1
 3355 00e0 5B       		.byte	0x5b
 3356 00e1 D0000000 		.4byte	.LVL33
 3357 00e5 D2000000 		.4byte	.LVL34
 3358 00e9 0100     		.2byte	0x1
 3359 00eb 50       		.byte	0x50
 3360 00ec D2000000 		.4byte	.LVL34
 3361 00f0 FA000000 		.4byte	.LVL39
 3362 00f4 0100     		.2byte	0x1
 3363 00f6 5B       		.byte	0x5b
 3364 00f7 FA000000 		.4byte	.LVL39
 3365 00fb FC000000 		.4byte	.LVL40
 3366 00ff 0100     		.2byte	0x1
 3367 0101 50       		.byte	0x50
 3368 0102 FC000000 		.4byte	.LVL40
 3369 0106 AC010000 		.4byte	.LFE122
 3370 010a 0100     		.2byte	0x1
 3371 010c 5A       		.byte	0x5a
 3372 010d 00000000 		.4byte	0
 3373 0111 00000000 		.4byte	0
 3374              	.LLST5:
 3375 0115 48000000 		.4byte	.LVL20
 3376 0119 78000000 		.4byte	.LVL25
 3377 011d 0200     		.2byte	0x2
 3378 011f 31       		.byte	0x31
 3379 0120 9F       		.byte	0x9f
 3380 0121 78000000 		.4byte	.LVL25
 3381 0125 A4000000 		.4byte	.LVL28
 3382 0129 0500     		.2byte	0x5
 3383 012b 7B       		.byte	0x7b
 3384 012c 00       		.sleb128 0
 3385 012d 30       		.byte	0x30
 3386 012e 29       		.byte	0x29
 3387 012f 9F       		.byte	0x9f
 3388 0130 AA000000 		.4byte	.LVL30
 3389 0134 D0000000 		.4byte	.LVL33
 3390 0138 0500     		.2byte	0x5
 3391 013a 7B       		.byte	0x7b
 3392 013b 00       		.sleb128 0
 3393 013c 30       		.byte	0x30
 3394 013d 29       		.byte	0x29
ARM GAS  C:\Users\jsyoon\AppData\Local\Temp\cc5ypfvg.s 			page 61


 3395 013e 9F       		.byte	0x9f
 3396 013f D6000000 		.4byte	.LVL35
 3397 0143 00010000 		.4byte	.LVL41
 3398 0147 0500     		.2byte	0x5
 3399 0149 7B       		.byte	0x7b
 3400 014a 00       		.sleb128 0
 3401 014b 30       		.byte	0x30
 3402 014c 29       		.byte	0x29
 3403 014d 9F       		.byte	0x9f
 3404 014e 00010000 		.4byte	.LVL41
 3405 0152 AC010000 		.4byte	.LFE122
 3406 0156 0500     		.2byte	0x5
 3407 0158 7A       		.byte	0x7a
 3408 0159 00       		.sleb128 0
 3409 015a 30       		.byte	0x30
 3410 015b 29       		.byte	0x29
 3411 015c 9F       		.byte	0x9f
 3412 015d 00000000 		.4byte	0
 3413 0161 00000000 		.4byte	0
 3414              	.LLST6:
 3415 0165 0A010000 		.4byte	.LVL42
 3416 0169 26010000 		.4byte	.LVL46
 3417 016d 0100     		.2byte	0x1
 3418 016f 53       		.byte	0x53
 3419 0170 36010000 		.4byte	.LVL48
 3420 0174 52010000 		.4byte	.LVL49
 3421 0178 0100     		.2byte	0x1
 3422 017a 53       		.byte	0x53
 3423 017b 52010000 		.4byte	.LVL49
 3424 017f 8F010000 		.4byte	.LVL50-1
 3425 0183 0500     		.2byte	0x5
 3426 0185 03       		.byte	0x3
 3427 0186 00000000 		.4byte	chuck_error
 3428 018a 00000000 		.4byte	0
 3429 018e 00000000 		.4byte	0
 3430              	.LLST7:
 3431 0192 0A010000 		.4byte	.LVL42
 3432 0196 10010000 		.4byte	.LVL43
 3433 019a 0100     		.2byte	0x1
 3434 019c 50       		.byte	0x50
 3435 019d 10010000 		.4byte	.LVL43
 3436 01a1 16010000 		.4byte	.LVL44
 3437 01a5 0300     		.2byte	0x3
 3438 01a7 70       		.byte	0x70
 3439 01a8 7F       		.sleb128 -1
 3440 01a9 9F       		.byte	0x9f
 3441 01aa 16010000 		.4byte	.LVL44
 3442 01ae 1E010000 		.4byte	.LVL45
 3443 01b2 0100     		.2byte	0x1
 3444 01b4 50       		.byte	0x50
 3445 01b5 00000000 		.4byte	0
 3446 01b9 00000000 		.4byte	0
 3447              		.section	.debug_aranges,"",%progbits
 3448 0000 44000000 		.4byte	0x44
 3449 0004 0200     		.2byte	0x2
 3450 0006 00000000 		.4byte	.Ldebug_info0
 3451 000a 04       		.byte	0x4
ARM GAS  C:\Users\jsyoon\AppData\Local\Temp\cc5ypfvg.s 			page 62


 3452 000b 00       		.byte	0
 3453 000c 0000     		.2byte	0
 3454 000e 0000     		.2byte	0
 3455 0010 00000000 		.4byte	.LFB123
 3456 0014 1C000000 		.4byte	.LFE123-.LFB123
 3457 0018 00000000 		.4byte	.LFB118
 3458 001c 1C000000 		.4byte	.LFE118-.LFB118
 3459 0020 00000000 		.4byte	.LFB119
 3460 0024 2C000000 		.4byte	.LFE119-.LFB119
 3461 0028 00000000 		.4byte	.LFB120
 3462 002c 28000000 		.4byte	.LFE120-.LFB120
 3463 0030 00000000 		.4byte	.LFB121
 3464 0034 54000000 		.4byte	.LFE121-.LFB121
 3465 0038 00000000 		.4byte	.LFB122
 3466 003c AC010000 		.4byte	.LFE122-.LFB122
 3467 0040 00000000 		.4byte	0
 3468 0044 00000000 		.4byte	0
 3469              		.section	.debug_ranges,"",%progbits
 3470              	.Ldebug_ranges0:
 3471 0000 00000000 		.4byte	.LFB123
 3472 0004 1C000000 		.4byte	.LFE123
 3473 0008 00000000 		.4byte	.LFB118
 3474 000c 1C000000 		.4byte	.LFE118
 3475 0010 00000000 		.4byte	.LFB119
 3476 0014 2C000000 		.4byte	.LFE119
 3477 0018 00000000 		.4byte	.LFB120
 3478 001c 28000000 		.4byte	.LFE120
 3479 0020 00000000 		.4byte	.LFB121
 3480 0024 54000000 		.4byte	.LFE121
 3481 0028 00000000 		.4byte	.LFB122
 3482 002c AC010000 		.4byte	.LFE122
 3483 0030 00000000 		.4byte	0
 3484 0034 00000000 		.4byte	0
 3485              		.section	.debug_line,"",%progbits
 3486              	.Ldebug_line0:
 3487 0000 B3030000 		.section	.debug_str,"MS",%progbits,1
 3487      0200DA02 
 3487      00000201 
 3487      FB0E0D00 
 3487      01010101 
 3488              	.LASF150:
 3489 0000 646D6172 		.ascii	"dmarx\000"
 3489      7800
 3490              	.LASF156:
 3491 0006 6170705F 		.ascii	"app_nunchuk_start\000"
 3491      6E756E63 
 3491      68756B5F 
 3491      73746172 
 3491      7400
 3492              	.LASF96:
 3493 0018 4D304152 		.ascii	"M0AR\000"
 3493      00
 3494              	.LASF174:
 3495 001d 6F757470 		.ascii	"output_running\000"
 3495      75745F72 
 3495      756E6E69 
 3495      6E6700
ARM GAS  C:\Users\jsyoon\AppData\Local\Temp\cc5ypfvg.s 			page 63


 3496              	.LASF50:
 3497 002c 54687265 		.ascii	"ThreadsList\000"
 3497      6164734C 
 3497      69737400 
 3498              	.LASF67:
 3499 0038 7264796D 		.ascii	"rdymsg\000"
 3499      736700
 3500              	.LASF18:
 3501 003f 75696E74 		.ascii	"uint64_t\000"
 3501      36345F74 
 3501      00
 3502              	.LASF0:
 3503 0048 7369676E 		.ascii	"signed char\000"
 3503      65642063 
 3503      68617200 
 3504              	.LASF3:
 3505 0054 5F5F7569 		.ascii	"__uint8_t\000"
 3505      6E74385F 
 3505      7400
 3506              	.LASF78:
 3507 005e 6374726C 		.ascii	"ctrl_type\000"
 3507      5F747970 
 3507      6500
 3508              	.LASF159:
 3509 0068 6F757470 		.ascii	"output_thread\000"
 3509      75745F74 
 3509      68726561 
 3509      6400
 3510              	.LASF82:
 3511 0076 72616D70 		.ascii	"ramp_time_pos\000"
 3511      5F74696D 
 3511      655F706F 
 3511      7300
 3512              	.LASF109:
 3513 0084 54524953 		.ascii	"TRISE\000"
 3513      4500
 3514              	.LASF161:
 3515 008a 72786275 		.ascii	"rxbuf\000"
 3515      6600
 3516              	.LASF83:
 3517 0090 72616D70 		.ascii	"ramp_time_neg\000"
 3517      5F74696D 
 3517      655F6E65 
 3517      6700
 3518              	.LASF49:
 3519 009e 54687265 		.ascii	"ThreadsQueue\000"
 3519      61647351 
 3519      75657565 
 3519      00
 3520              	.LASF170:
 3521 00ab 6F757470 		.ascii	"output_thread_wa\000"
 3521      75745F74 
 3521      68726561 
 3521      645F7761 
 3521      00
 3522              	.LASF124:
 3523 00bc 4932435F 		.ascii	"I2C_ACTIVE_RX\000"
ARM GAS  C:\Users\jsyoon\AppData\Local\Temp\cc5ypfvg.s 			page 64


 3523      41435449 
 3523      56455F52 
 3523      5800
 3524              	.LASF118:
 3525 00ca 76656374 		.ascii	"vector\000"
 3525      6F7200
 3526              	.LASF184:
 3527 00d1 69326352 		.ascii	"i2cReleaseBus\000"
 3527      656C6561 
 3527      73654275 
 3527      7300
 3528              	.LASF169:
 3529 00df 6368756B 		.ascii	"chuk_thread_wa\000"
 3529      5F746872 
 3529      6561645F 
 3529      776100
 3530              	.LASF176:
 3531 00ee 49544D5F 		.ascii	"ITM_RxBuffer\000"
 3531      52784275 
 3531      66666572 
 3531      00
 3532              	.LASF168:
 3533 00fb 73616D65 		.ascii	"same\000"
 3533      00
 3534              	.LASF85:
 3535 0100 74635F6D 		.ascii	"tc_max_diff\000"
 3535      61785F64 
 3535      69666600 
 3536              	.LASF122:
 3537 010c 4932435F 		.ascii	"I2C_READY\000"
 3537      52454144 
 3537      5900
 3538              	.LASF183:
 3539 0116 6932634D 		.ascii	"i2cMasterTransmitTimeout\000"
 3539      61737465 
 3539      72547261 
 3539      6E736D69 
 3539      7454696D 
 3540              	.LASF10:
 3541 012f 6C6F6E67 		.ascii	"long long int\000"
 3541      206C6F6E 
 3541      6720696E 
 3541      7400
 3542              	.LASF120:
 3543 013d 4932435F 		.ascii	"I2C_UNINIT\000"
 3543      554E494E 
 3543      495400
 3544              	.LASF94:
 3545 0148 63687563 		.ascii	"chuck_data\000"
 3545      6B5F6461 
 3545      746100
 3546              	.LASF157:
 3547 0153 6170705F 		.ascii	"app_nunchuk_update_output\000"
 3547      6E756E63 
 3547      68756B5F 
 3547      75706461 
 3547      74655F6F 
ARM GAS  C:\Users\jsyoon\AppData\Local\Temp\cc5ypfvg.s 			page 65


 3548              	.LASF9:
 3549 016d 6C6F6E67 		.ascii	"long unsigned int\000"
 3549      20756E73 
 3549      69676E65 
 3549      6420696E 
 3549      7400
 3550              	.LASF48:
 3551 017f 705F6D70 		.ascii	"p_mpool\000"
 3551      6F6F6C00 
 3552              	.LASF12:
 3553 0187 6C6F6E67 		.ascii	"long long unsigned int\000"
 3553      206C6F6E 
 3553      6720756E 
 3553      7369676E 
 3553      65642069 
 3554              	.LASF64:
 3555 019e 6D5F7175 		.ascii	"m_queue\000"
 3555      65756500 
 3556              	.LASF147:
 3557 01a6 61646472 		.ascii	"addr\000"
 3557      00
 3558              	.LASF69:
 3559 01ab 77746F62 		.ascii	"wtobjp\000"
 3559      6A7000
 3560              	.LASF24:
 3561 01b2 74736C69 		.ascii	"tslices_t\000"
 3561      6365735F 
 3561      7400
 3562              	.LASF154:
 3563 01bc 636F6E66 		.ascii	"conf\000"
 3563      00
 3564              	.LASF189:
 3565 01c1 453A5C4D 		.ascii	"E:\\Maker\\BLDC\\test_eval\\try2\\OROCA-BLDC_R15080"
 3565      616B6572 
 3565      5C424C44 
 3565      435C7465 
 3565      73745F65 
 3566 01ef 3700     		.ascii	"7\000"
 3567              	.LASF142:
 3568 01f1 73746174 		.ascii	"state\000"
 3568      6500
 3569              	.LASF145:
 3570 01f7 6D757465 		.ascii	"mutex\000"
 3570      7800
 3571              	.LASF22:
 3572 01fd 74737461 		.ascii	"tstate_t\000"
 3572      74655F74 
 3572      00
 3573              	.LASF187:
 3574 0206 474E5520 		.ascii	"GNU C 4.8.4 20140526 (release) [ARM/embedded-4_8-br"
 3574      4320342E 
 3574      382E3420 
 3574      32303134 
 3574      30353236 
 3575 0239 616E6368 		.ascii	"anch revision 211358] -mcpu=cortex-m4 -mfloat-abi=h"
 3575      20726576 
 3575      6973696F 
ARM GAS  C:\Users\jsyoon\AppData\Local\Temp\cc5ypfvg.s 			page 66


 3575      6E203231 
 3575      31333538 
 3576 026c 61726420 		.ascii	"ard -mfpu=fpv4-sp-d16 -mno-thumb-interwork -mthumb "
 3576      2D6D6670 
 3576      753D6670 
 3576      76342D73 
 3576      702D6431 
 3577 029f 2D676764 		.ascii	"-ggdb -O2 -std=gnu99 -fomit-frame-pointer -falign-f"
 3577      62202D4F 
 3577      32202D73 
 3577      74643D67 
 3577      6E753939 
 3578 02d2 756E6374 		.ascii	"unctions=16 -ffunction-sections -fdata-sections -fn"
 3578      696F6E73 
 3578      3D313620 
 3578      2D666675 
 3578      6E637469 
 3579 0305 6F2D636F 		.ascii	"o-common -fsingle-precision-constant\000"
 3579      6D6D6F6E 
 3579      202D6673 
 3579      696E676C 
 3579      652D7072 
 3580              	.LASF172:
 3581 032a 63687563 		.ascii	"chuck_d\000"
 3581      6B5F6400 
 3582              	.LASF111:
 3583 0332 464C5452 		.ascii	"FLTR\000"
 3583      00
 3584              	.LASF132:
 3585 0337 6932636F 		.ascii	"i2copmode_t\000"
 3585      706D6F64 
 3585      655F7400 
 3586              	.LASF34:
 3587 0343 705F6E65 		.ascii	"p_newer\000"
 3587      77657200 
 3588              	.LASF77:
 3589 034b 6368756B 		.ascii	"chuk_control_type\000"
 3589      5F636F6E 
 3589      74726F6C 
 3589      5F747970 
 3589      6500
 3590              	.LASF148:
 3591 035d 7278646D 		.ascii	"rxdmamode\000"
 3591      616D6F64 
 3591      6500
 3592              	.LASF151:
 3593 0367 646D6174 		.ascii	"dmatx\000"
 3593      7800
 3594              	.LASF179:
 3595 036d 68775F74 		.ascii	"hw_try_restore_i2c\000"
 3595      72795F72 
 3595      6573746F 
 3595      72655F69 
 3595      326300
 3596              	.LASF131:
 3597 0380 4F504D4F 		.ascii	"OPMODE_SMBUS_HOST\000"
 3597      44455F53 
ARM GAS  C:\Users\jsyoon\AppData\Local\Temp\cc5ypfvg.s 			page 67


 3597      4D425553 
 3597      5F484F53 
 3597      5400
 3598              	.LASF8:
 3599 0392 5F5F7569 		.ascii	"__uint32_t\000"
 3599      6E743332 
 3599      5F7400
 3600              	.LASF117:
 3601 039d 73656C66 		.ascii	"selfindex\000"
 3601      696E6465 
 3601      7800
 3602              	.LASF188:
 3603 03a7 6170706C 		.ascii	"applications/app_nunchuk.c\000"
 3603      69636174 
 3603      696F6E73 
 3603      2F617070 
 3603      5F6E756E 
 3604              	.LASF137:
 3605 03c2 6F705F6D 		.ascii	"op_mode\000"
 3605      6F646500 
 3606              	.LASF114:
 3607 03ca 73747265 		.ascii	"stream\000"
 3607      616D00
 3608              	.LASF167:
 3609 03d1 6C617374 		.ascii	"last_buffer\000"
 3609      5F627566 
 3609      66657200 
 3610              	.LASF186:
 3611 03dd 68775F73 		.ascii	"hw_start_i2c\000"
 3611      74617274 
 3611      5F693263 
 3611      00
 3612              	.LASF13:
 3613 03ea 756E7369 		.ascii	"unsigned int\000"
 3613      676E6564 
 3613      20696E74 
 3613      00
 3614              	.LASF15:
 3615 03f7 75696E74 		.ascii	"uint16_t\000"
 3615      31365F74 
 3615      00
 3616              	.LASF143:
 3617 0400 636F6E66 		.ascii	"config\000"
 3617      696700
 3618              	.LASF144:
 3619 0407 6572726F 		.ascii	"errors\000"
 3619      727300
 3620              	.LASF165:
 3621 040e 63687563 		.ascii	"chuck_d_tmp\000"
 3621      6B5F645F 
 3621      746D7000 
 3622              	.LASF89:
 3623 041a 6163635F 		.ascii	"acc_x\000"
 3623      7800
 3624              	.LASF90:
 3625 0420 6163635F 		.ascii	"acc_y\000"
 3625      7900
ARM GAS  C:\Users\jsyoon\AppData\Local\Temp\cc5ypfvg.s 			page 68


 3626              	.LASF91:
 3627 0426 6163635F 		.ascii	"acc_z\000"
 3627      7A00
 3628              	.LASF116:
 3629 042c 69736869 		.ascii	"ishift\000"
 3629      667400
 3630              	.LASF190:
 3631 0433 6170705F 		.ascii	"app_nunchuk_get_decoded_chuk\000"
 3631      6E756E63 
 3631      68756B5F 
 3631      6765745F 
 3631      6465636F 
 3632              	.LASF158:
 3633 0450 64617461 		.ascii	"data\000"
 3633      00
 3634              	.LASF130:
 3635 0455 4F504D4F 		.ascii	"OPMODE_SMBUS_DEVICE\000"
 3635      44455F53 
 3635      4D425553 
 3635      5F444556 
 3635      49434500 
 3636              	.LASF5:
 3637 0469 73686F72 		.ascii	"short unsigned int\000"
 3637      7420756E 
 3637      7369676E 
 3637      65642069 
 3637      6E7400
 3638              	.LASF141:
 3639 047c 49324344 		.ascii	"I2CDriver\000"
 3639      72697665 
 3639      7200
 3640              	.LASF74:
 3641 0486 4348554B 		.ascii	"CHUK_CTRL_TYPE_NONE\000"
 3641      5F435452 
 3641      4C5F5459 
 3641      50455F4E 
 3641      4F4E4500 
 3642              	.LASF26:
 3643 049a 6D73675F 		.ascii	"msg_t\000"
 3643      7400
 3644              	.LASF92:
 3645 04a0 62745F63 		.ascii	"bt_c\000"
 3645      00
 3646              	.LASF59:
 3647 04a5 725F6E65 		.ascii	"r_newer\000"
 3647      77657200 
 3648              	.LASF134:
 3649 04ad 46415354 		.ascii	"FAST_DUTY_CYCLE_2\000"
 3649      5F445554 
 3649      595F4359 
 3649      434C455F 
 3649      3200
 3650              	.LASF166:
 3651 04bf 69735F6F 		.ascii	"is_ok\000"
 3651      6B00
 3652              	.LASF68:
 3653 04c5 65786974 		.ascii	"exitcode\000"
ARM GAS  C:\Users\jsyoon\AppData\Local\Temp\cc5ypfvg.s 			page 69


 3653      636F6465 
 3653      00
 3654              	.LASF21:
 3655 04ce 746D6F64 		.ascii	"tmode_t\000"
 3655      655F7400 
 3656              	.LASF133:
 3657 04d6 5354445F 		.ascii	"STD_DUTY_CYCLE\000"
 3657      44555459 
 3657      5F435943 
 3657      4C4500
 3658              	.LASF27:
 3659 04e5 6576656E 		.ascii	"eventmask_t\000"
 3659      746D6173 
 3659      6B5F7400 
 3660              	.LASF81:
 3661 04f1 72706D5F 		.ascii	"rpm_lim_end\000"
 3661      6C696D5F 
 3661      656E6400 
 3662              	.LASF63:
 3663 04fd 4D757465 		.ascii	"Mutex\000"
 3663      7800
 3664              	.LASF93:
 3665 0503 62745F7A 		.ascii	"bt_z\000"
 3665      00
 3666              	.LASF52:
 3667 0508 73746B61 		.ascii	"stkalign_t\000"
 3667      6C69676E 
 3667      5F7400
 3668              	.LASF182:
 3669 0513 63685468 		.ascii	"chThdCreateStatic\000"
 3669      64437265 
 3669      61746553 
 3669      74617469 
 3669      6300
 3670              	.LASF121:
 3671 0525 4932435F 		.ascii	"I2C_STOP\000"
 3671      53544F50 
 3671      00
 3672              	.LASF16:
 3673 052e 696E7433 		.ascii	"int32_t\000"
 3673      325F7400 
 3674              	.LASF55:
 3675 0536 73697A65 		.ascii	"sizetype\000"
 3675      74797065 
 3675      00
 3676              	.LASF79:
 3677 053f 68797374 		.ascii	"hyst\000"
 3677      00
 3678              	.LASF173:
 3679 0544 63687563 		.ascii	"chuck_error\000"
 3679      6B5F6572 
 3679      726F7200 
 3680              	.LASF139:
 3681 0550 64757479 		.ascii	"duty_cycle\000"
 3681      5F637963 
 3681      6C6500
 3682              	.LASF32:
ARM GAS  C:\Users\jsyoon\AppData\Local\Temp\cc5ypfvg.s 			page 70


 3683 055b 705F7072 		.ascii	"p_prio\000"
 3683      696F00
 3684              	.LASF35:
 3685 0562 705F6F6C 		.ascii	"p_older\000"
 3685      64657200 
 3686              	.LASF140:
 3687 056a 49324343 		.ascii	"I2CConfig\000"
 3687      6F6E6669 
 3687      6700
 3688              	.LASF58:
 3689 0574 725F6374 		.ascii	"r_ctx\000"
 3689      7800
 3690              	.LASF86:
 3691 057a 6368756B 		.ascii	"chuk_config\000"
 3691      5F636F6E 
 3691      66696700 
 3692              	.LASF149:
 3693 0586 7478646D 		.ascii	"txdmamode\000"
 3693      616D6F64 
 3693      6500
 3694              	.LASF19:
 3695 0590 73697A65 		.ascii	"size_t\000"
 3695      5F7400
 3696              	.LASF129:
 3697 0597 4F504D4F 		.ascii	"OPMODE_I2C\000"
 3697      44455F49 
 3697      324300
 3698              	.LASF61:
 3699 05a2 725F6375 		.ascii	"r_current\000"
 3699      7272656E 
 3699      7400
 3700              	.LASF60:
 3701 05ac 725F6F6C 		.ascii	"r_older\000"
 3701      64657200 
 3702              	.LASF80:
 3703 05b4 72706D5F 		.ascii	"rpm_lim_start\000"
 3703      6C696D5F 
 3703      73746172 
 3703      7400
 3704              	.LASF11:
 3705 05c2 5F5F7569 		.ascii	"__uint64_t\000"
 3705      6E743634 
 3705      5F7400
 3706              	.LASF73:
 3707 05cd 666C6F61 		.ascii	"float\000"
 3707      7400
 3708              	.LASF23:
 3709 05d3 74726566 		.ascii	"trefs_t\000"
 3709      735F7400 
 3710              	.LASF126:
 3711 05db 69326373 		.ascii	"i2cstate_t\000"
 3711      74617465 
 3711      5F7400
 3712              	.LASF135:
 3713 05e6 46415354 		.ascii	"FAST_DUTY_CYCLE_16_9\000"
 3713      5F445554 
 3713      595F4359 
ARM GAS  C:\Users\jsyoon\AppData\Local\Temp\cc5ypfvg.s 			page 71


 3713      434C455F 
 3713      31365F39 
 3714              	.LASF102:
 3715 05fb 52455345 		.ascii	"RESERVED2\000"
 3715      52564544 
 3715      3200
 3716              	.LASF104:
 3717 0605 52455345 		.ascii	"RESERVED3\000"
 3717      52564544 
 3717      3300
 3718              	.LASF105:
 3719 060f 52455345 		.ascii	"RESERVED4\000"
 3719      52564544 
 3719      3400
 3720              	.LASF31:
 3721 0619 705F7072 		.ascii	"p_prev\000"
 3721      657600
 3722              	.LASF107:
 3723 0620 52455345 		.ascii	"RESERVED6\000"
 3723      52564544 
 3723      3600
 3724              	.LASF119:
 3725 062a 73746D33 		.ascii	"stm32_dma_stream_t\000"
 3725      325F646D 
 3725      615F7374 
 3725      7265616D 
 3725      5F7400
 3726              	.LASF181:
 3727 063d 69326341 		.ascii	"i2cAcquireBus\000"
 3727      63717569 
 3727      72654275 
 3727      7300
 3728              	.LASF25:
 3729 064b 74707269 		.ascii	"tprio_t\000"
 3729      6F5F7400 
 3730              	.LASF123:
 3731 0653 4932435F 		.ascii	"I2C_ACTIVE_TX\000"
 3731      41435449 
 3731      56455F54 
 3731      5800
 3732              	.LASF128:
 3733 0661 69326366 		.ascii	"i2cflags_t\000"
 3733      6C616773 
 3733      5F7400
 3734              	.LASF146:
 3735 066c 74687265 		.ascii	"thread\000"
 3735      616400
 3736              	.LASF20:
 3737 0673 5F426F6F 		.ascii	"_Bool\000"
 3737      6C00
 3738              	.LASF84:
 3739 0679 6D756C74 		.ascii	"multi_esc\000"
 3739      695F6573 
 3739      6300
 3740              	.LASF1:
 3741 0683 756E7369 		.ascii	"unsigned char\000"
 3741      676E6564 
ARM GAS  C:\Users\jsyoon\AppData\Local\Temp\cc5ypfvg.s 			page 72


 3741      20636861 
 3741      7200
 3742              	.LASF136:
 3743 0691 69326364 		.ascii	"i2cdutycycle_t\000"
 3743      75747963 
 3743      79636C65 
 3743      5F7400
 3744              	.LASF46:
 3745 06a0 705F6D74 		.ascii	"p_mtxlist\000"
 3745      786C6973 
 3745      7400
 3746              	.LASF138:
 3747 06aa 636C6F63 		.ascii	"clock_speed\000"
 3747      6B5F7370 
 3747      65656400 
 3748              	.LASF37:
 3749 06b6 705F7374 		.ascii	"p_state\000"
 3749      61746500 
 3750              	.LASF40:
 3751 06be 705F7072 		.ascii	"p_preempt\000"
 3751      65656D70 
 3751      7400
 3752              	.LASF57:
 3753 06c8 725F7072 		.ascii	"r_prio\000"
 3753      696F00
 3754              	.LASF70:
 3755 06cf 65776D61 		.ascii	"ewmask\000"
 3755      736B00
 3756              	.LASF30:
 3757 06d6 705F6E65 		.ascii	"p_next\000"
 3757      787400
 3758              	.LASF38:
 3759 06dd 705F666C 		.ascii	"p_flags\000"
 3759      61677300 
 3760              	.LASF99:
 3761 06e5 52455345 		.ascii	"RESERVED0\000"
 3761      52564544 
 3761      3000
 3762              	.LASF29:
 3763 06ef 54687265 		.ascii	"Thread\000"
 3763      616400
 3764              	.LASF100:
 3765 06f6 52455345 		.ascii	"RESERVED1\000"
 3765      52564544 
 3765      3100
 3766              	.LASF125:
 3767 0700 4932435F 		.ascii	"I2C_LOCKED\000"
 3767      4C4F434B 
 3767      454400
 3768              	.LASF45:
 3769 070b 705F6570 		.ascii	"p_epending\000"
 3769      656E6469 
 3769      6E6700
 3770              	.LASF115:
 3771 0716 69666372 		.ascii	"ifcr\000"
 3771      00
 3772              	.LASF106:
ARM GAS  C:\Users\jsyoon\AppData\Local\Temp\cc5ypfvg.s 			page 73


 3773 071b 52455345 		.ascii	"RESERVED5\000"
 3773      52564544 
 3773      3500
 3774              	.LASF17:
 3775 0725 75696E74 		.ascii	"uint32_t\000"
 3775      33325F74 
 3775      00
 3776              	.LASF51:
 3777 072e 72656761 		.ascii	"regarm_t\000"
 3777      726D5F74 
 3777      00
 3778              	.LASF56:
 3779 0737 725F7175 		.ascii	"r_queue\000"
 3779      65756500 
 3780              	.LASF112:
 3781 073f 52455345 		.ascii	"RESERVED9\000"
 3781      52564544 
 3781      3900
 3782              	.LASF155:
 3783 0749 6170705F 		.ascii	"app_nunchuk_configure\000"
 3783      6E756E63 
 3783      68756B5F 
 3783      636F6E66 
 3783      69677572 
 3784              	.LASF177:
 3785 075f 49324344 		.ascii	"I2CD2\000"
 3785      3200
 3786              	.LASF87:
 3787 0765 6A735F78 		.ascii	"js_x\000"
 3787      00
 3788              	.LASF88:
 3789 076a 6A735F79 		.ascii	"js_y\000"
 3789      00
 3790              	.LASF153:
 3791 076f 6C6F6E67 		.ascii	"long double\000"
 3791      20646F75 
 3791      626C6500 
 3792              	.LASF71:
 3793 077b 63686172 		.ascii	"char\000"
 3793      00
 3794              	.LASF4:
 3795 0780 5F5F7569 		.ascii	"__uint16_t\000"
 3795      6E743136 
 3795      5F7400
 3796              	.LASF72:
 3797 078b 7466756E 		.ascii	"tfunc_t\000"
 3797      635F7400 
 3798              	.LASF2:
 3799 0793 73686F72 		.ascii	"short int\000"
 3799      7420696E 
 3799      7400
 3800              	.LASF191:
 3801 079d 74696D65 		.ascii	"timeout_has_timeout\000"
 3801      6F75745F 
 3801      6861735F 
 3801      74696D65 
 3801      6F757400 
ARM GAS  C:\Users\jsyoon\AppData\Local\Temp\cc5ypfvg.s 			page 74


 3802              	.LASF66:
 3803 07b1 6D5F6E65 		.ascii	"m_next\000"
 3803      787400
 3804              	.LASF28:
 3805 07b8 73797374 		.ascii	"systime_t\000"
 3805      696D655F 
 3805      7400
 3806              	.LASF47:
 3807 07c2 705F7265 		.ascii	"p_realprio\000"
 3807      616C7072 
 3807      696F00
 3808              	.LASF6:
 3809 07cd 5F5F696E 		.ascii	"__int32_t\000"
 3809      7433325F 
 3809      7400
 3810              	.LASF95:
 3811 07d7 4E445452 		.ascii	"NDTR\000"
 3811      00
 3812              	.LASF98:
 3813 07dc 444D415F 		.ascii	"DMA_Stream_TypeDef\000"
 3813      53747265 
 3813      616D5F54 
 3813      79706544 
 3813      656600
 3814              	.LASF41:
 3815 07ef 705F7469 		.ascii	"p_time\000"
 3815      6D6500
 3816              	.LASF7:
 3817 07f6 6C6F6E67 		.ascii	"long int\000"
 3817      20696E74 
 3817      00
 3818              	.LASF53:
 3819 07ff 696E7463 		.ascii	"intctx\000"
 3819      747800
 3820              	.LASF43:
 3821 0806 705F6D73 		.ascii	"p_msgqueue\000"
 3821      67717565 
 3821      756500
 3822              	.LASF97:
 3823 0811 4D314152 		.ascii	"M1AR\000"
 3823      00
 3824              	.LASF108:
 3825 0816 52455345 		.ascii	"RESERVED7\000"
 3825      52564544 
 3825      3700
 3826              	.LASF110:
 3827 0820 52455345 		.ascii	"RESERVED8\000"
 3827      52564544 
 3827      3800
 3828              	.LASF75:
 3829 082a 4348554B 		.ascii	"CHUK_CTRL_TYPE_CURRENT\000"
 3829      5F435452 
 3829      4C5F5459 
 3829      50455F43 
 3829      55525245 
 3830              	.LASF180:
 3831 0841 63685468 		.ascii	"chThdSleep\000"
ARM GAS  C:\Users\jsyoon\AppData\Local\Temp\cc5ypfvg.s 			page 75


 3831      64536C65 
 3831      657000
 3832              	.LASF36:
 3833 084c 705F6E61 		.ascii	"p_name\000"
 3833      6D6500
 3834              	.LASF39:
 3835 0853 705F7265 		.ascii	"p_refs\000"
 3835      667300
 3836              	.LASF163:
 3837 085a 73746174 		.ascii	"status\000"
 3837      757300
 3838              	.LASF62:
 3839 0861 52656164 		.ascii	"ReadyList\000"
 3839      794C6973 
 3839      7400
 3840              	.LASF171:
 3841 086b 69735F72 		.ascii	"is_running\000"
 3841      756E6E69 
 3841      6E6700
 3842              	.LASF175:
 3843 0876 726C6973 		.ascii	"rlist\000"
 3843      7400
 3844              	.LASF14:
 3845 087c 75696E74 		.ascii	"uint8_t\000"
 3845      385F7400 
 3846              	.LASF101:
 3847 0884 4F415231 		.ascii	"OAR1\000"
 3847      00
 3848              	.LASF103:
 3849 0889 4F415232 		.ascii	"OAR2\000"
 3849      00
 3850              	.LASF185:
 3851 088e 6932634D 		.ascii	"i2cMasterReceiveTimeout\000"
 3851      61737465 
 3851      72526563 
 3851      65697665 
 3851      54696D65 
 3852              	.LASF178:
 3853 08a6 74696D65 		.ascii	"timeout_reset\000"
 3853      6F75745F 
 3853      72657365 
 3853      7400
 3854              	.LASF127:
 3855 08b4 69326361 		.ascii	"i2caddr_t\000"
 3855      6464725F 
 3855      7400
 3856              	.LASF164:
 3857 08be 63687563 		.ascii	"chuck_addr\000"
 3857      6B5F6164 
 3857      647200
 3858              	.LASF54:
 3859 08c9 636F6E74 		.ascii	"context\000"
 3859      65787400 
 3860              	.LASF76:
 3861 08d1 4348554B 		.ascii	"CHUK_CTRL_TYPE_CURRENT_NOREV\000"
 3861      5F435452 
 3861      4C5F5459 
ARM GAS  C:\Users\jsyoon\AppData\Local\Temp\cc5ypfvg.s 			page 76


 3861      50455F43 
 3861      55525245 
 3862              	.LASF44:
 3863 08ee 705F6D73 		.ascii	"p_msg\000"
 3863      6700
 3864              	.LASF113:
 3865 08f4 4932435F 		.ascii	"I2C_TypeDef\000"
 3865      54797065 
 3865      44656600 
 3866              	.LASF160:
 3867 0900 6368756B 		.ascii	"chuk_thread\000"
 3867      5F746872 
 3867      65616400 
 3868              	.LASF162:
 3869 090c 74786275 		.ascii	"txbuf\000"
 3869      6600
 3870              	.LASF65:
 3871 0912 6D5F6F77 		.ascii	"m_owner\000"
 3871      6E657200 
 3872              	.LASF152:
 3873 091a 646F7562 		.ascii	"double\000"
 3873      6C6500
 3874              	.LASF33:
 3875 0921 705F6374 		.ascii	"p_ctx\000"
 3875      7800
 3876              	.LASF42:
 3877 0927 705F7761 		.ascii	"p_waiting\000"
 3877      6974696E 
 3877      6700
 3878              		.ident	"GCC: (GNU Tools for ARM Embedded Processors) 4.8.4 20140526 (release) [ARM/embedded-4_8-br
ARM GAS  C:\Users\jsyoon\AppData\Local\Temp\cc5ypfvg.s 			page 77


DEFINED SYMBOLS
                            *ABS*:00000000 app_nunchuk.c
C:\Users\jsyoon\AppData\Local\Temp\cc5ypfvg.s:21     .text.output_thread:00000000 $t
C:\Users\jsyoon\AppData\Local\Temp\cc5ypfvg.s:26     .text.output_thread:00000000 output_thread
C:\Users\jsyoon\AppData\Local\Temp\cc5ypfvg.s:54     .text.output_thread:00000014 $d
C:\Users\jsyoon\AppData\Local\Temp\cc5ypfvg.s:60     .text.app_nunchuk_configure:00000000 $t
C:\Users\jsyoon\AppData\Local\Temp\cc5ypfvg.s:66     .text.app_nunchuk_configure:00000000 app_nunchuk_configure
C:\Users\jsyoon\AppData\Local\Temp\cc5ypfvg.s:93     .text.app_nunchuk_configure:00000018 $d
C:\Users\jsyoon\AppData\Local\Temp\cc5ypfvg.s:98     .text.app_nunchuk_start:00000000 $t
C:\Users\jsyoon\AppData\Local\Temp\cc5ypfvg.s:104    .text.app_nunchuk_start:00000000 app_nunchuk_start
C:\Users\jsyoon\AppData\Local\Temp\cc5ypfvg.s:141    .text.app_nunchuk_start:00000020 $d
C:\Users\jsyoon\AppData\Local\Temp\cc5ypfvg.s:264    .text.chuk_thread:00000000 chuk_thread
C:\Users\jsyoon\AppData\Local\Temp\cc5ypfvg.s:148    .text.app_nunchuk_get_decoded_chuk:00000000 $t
C:\Users\jsyoon\AppData\Local\Temp\cc5ypfvg.s:154    .text.app_nunchuk_get_decoded_chuk:00000000 app_nunchuk_get_decoded_chuk
C:\Users\jsyoon\AppData\Local\Temp\cc5ypfvg.s:174    .text.app_nunchuk_get_decoded_chuk:0000001c $d
C:\Users\jsyoon\AppData\Local\Temp\cc5ypfvg.s:181    .text.app_nunchuk_update_output:00000000 $t
C:\Users\jsyoon\AppData\Local\Temp\cc5ypfvg.s:187    .text.app_nunchuk_update_output:00000000 app_nunchuk_update_output
C:\Users\jsyoon\AppData\Local\Temp\cc5ypfvg.s:251    .text.app_nunchuk_update_output:00000044 $d
C:\Users\jsyoon\AppData\Local\Temp\cc5ypfvg.s:259    .text.chuk_thread:00000000 $t
C:\Users\jsyoon\AppData\Local\Temp\cc5ypfvg.s:543    .text.chuk_thread:00000194 $d
C:\Users\jsyoon\AppData\Local\Temp\cc5ypfvg.s:558    .bss.output_running:00000000 output_running
C:\Users\jsyoon\AppData\Local\Temp\cc5ypfvg.s:559    .bss.output_running:00000000 $d
C:\Users\jsyoon\AppData\Local\Temp\cc5ypfvg.s:561    .bss.chuk_thread_wa:00000000 $d
C:\Users\jsyoon\AppData\Local\Temp\cc5ypfvg.s:565    .bss.chuk_thread_wa:00000000 chuk_thread_wa
C:\Users\jsyoon\AppData\Local\Temp\cc5ypfvg.s:568    .bss.output_thread_wa:00000000 $d
C:\Users\jsyoon\AppData\Local\Temp\cc5ypfvg.s:572    .bss.output_thread_wa:00000000 output_thread_wa
C:\Users\jsyoon\AppData\Local\Temp\cc5ypfvg.s:578    .bss.is_running:00000000 is_running
C:\Users\jsyoon\AppData\Local\Temp\cc5ypfvg.s:579    .bss.is_running:00000000 $d
C:\Users\jsyoon\AppData\Local\Temp\cc5ypfvg.s:581    .bss.chuck_d:00000000 $d
C:\Users\jsyoon\AppData\Local\Temp\cc5ypfvg.s:585    .bss.chuck_d:00000000 chuck_d
C:\Users\jsyoon\AppData\Local\Temp\cc5ypfvg.s:588    .bss.last_buffer.10401:00000000 $d
C:\Users\jsyoon\AppData\Local\Temp\cc5ypfvg.s:592    .bss.last_buffer.10401:00000000 last_buffer.10401
C:\Users\jsyoon\AppData\Local\Temp\cc5ypfvg.s:595    .rodata.str1.4:00000000 $d
C:\Users\jsyoon\AppData\Local\Temp\cc5ypfvg.s:602    .bss.chuck_error:00000000 $d
C:\Users\jsyoon\AppData\Local\Temp\cc5ypfvg.s:606    .bss.chuck_error:00000000 chuck_error
C:\Users\jsyoon\AppData\Local\Temp\cc5ypfvg.s:609    .bss.config:00000000 $d
C:\Users\jsyoon\AppData\Local\Temp\cc5ypfvg.s:613    .bss.config:00000000 config
                     .debug_frame:00000010 $d
C:\Users\jsyoon\AppData\Local\Temp\cc5ypfvg.s:59     .text.output_thread:0000001c $t
C:\Users\jsyoon\AppData\Local\Temp\cc5ypfvg.s:97     .text.app_nunchuk_configure:0000001c $t
C:\Users\jsyoon\AppData\Local\Temp\cc5ypfvg.s:147    .text.app_nunchuk_start:0000002c $t
C:\Users\jsyoon\AppData\Local\Temp\cc5ypfvg.s:180    .text.app_nunchuk_get_decoded_chuk:00000028 $t
C:\Users\jsyoon\AppData\Local\Temp\cc5ypfvg.s:258    .text.app_nunchuk_update_output:00000054 $t
C:\Users\jsyoon\AppData\Local\Temp\cc5ypfvg.s:554    .text.chuk_thread:000001ac $t

UNDEFINED SYMBOLS
chThdSleep
rlist
chThdCreateStatic
timeout_reset
hw_start_i2c
hw_try_restore_i2c
i2cAcquireBus
i2cMasterTransmitTimeout
i2cReleaseBus
i2cMasterReceiveTimeout
timeout_has_timeout
ARM GAS  C:\Users\jsyoon\AppData\Local\Temp\cc5ypfvg.s 			page 78


I2CD2
