ARM GAS  C:\Users\jsyoon\AppData\Local\Temp\cc5ypfvg.s 			page 1


   1              		.syntax unified
   2              		.cpu cortex-m4
   3              		.eabi_attribute 27, 3
   4              		.eabi_attribute 28, 1
   5              		.fpu fpv4-sp-d16
   6              		.eabi_attribute 20, 1
   7              		.eabi_attribute 21, 1
   8              		.eabi_attribute 23, 3
   9              		.eabi_attribute 24, 1
  10              		.eabi_attribute 25, 1
  11              		.eabi_attribute 26, 1
  12              		.eabi_attribute 30, 2
  13              		.eabi_attribute 34, 1
  14              		.eabi_attribute 18, 4
  15              		.thumb
  16              		.file	"app_nunchuk.c"
  17              		.text
  18              	.Ltext0:
  19              		.cfi_sections	.debug_frame
  20              		.section	.text.output_thread,"ax",%progbits
  21              		.align	2
  22              		.p2align 4,,15
  23              		.thumb
  24              		.thumb_func
  25              		.type	output_thread, %function
  26              	output_thread:
  27              	.LFB123:
  28              		.file 1 "applications/app_nunchuk.c"
  29              		.loc 1 174 0
  30              		.cfi_startproc
  31              		@ Volatile: function does not return.
  32              		@ args = 0, pretend = 0, frame = 0
  33              		@ frame_needed = 0, uses_anonymous_args = 0
  34              	.LVL0:
  35 0000 08B5     		push	{r3, lr}
  36              		.cfi_def_cfa_offset 8
  37              		.cfi_offset 3, -8
  38              		.cfi_offset 14, -4
  39              		.loc 1 177 0
  40 0002 044B     		ldr	r3, .L4
  41 0004 044A     		ldr	r2, .L4+4
  42 0006 9B69     		ldr	r3, [r3, #24]
  43 0008 9A61     		str	r2, [r3, #24]
  44              	.LVL1:
  45              	.L2:
  46              		.loc 1 180 0 discriminator 1
  47 000a 0A20     		movs	r0, #10
  48 000c FFF7FEFF 		bl	chThdSleep
  49              	.LVL2:
  50 0010 FBE7     		b	.L2
  51              	.L5:
  52 0012 00BF     		.align	2
  53              	.L4:
  54 0014 00000000 		.word	rlist
  55 0018 00000000 		.word	.LC0
  56              		.cfi_endproc
  57              	.LFE123:
ARM GAS  C:\Users\jsyoon\AppData\Local\Temp\cc5ypfvg.s 			page 2


  58              		.size	output_thread, .-output_thread
  59 001c AFF30080 		.section	.text.app_nunchuk_configure,"ax",%progbits
  60              		.align	2
  61              		.p2align 4,,15
  62              		.global	app_nunchuk_configure
  63              		.thumb
  64              		.thumb_func
  65              		.type	app_nunchuk_configure, %function
  66              	app_nunchuk_configure:
  67              	.LFB118:
  68              		.loc 1 58 0
  69              		.cfi_startproc
  70              		@ args = 0, pretend = 0, frame = 0
  71              		@ frame_needed = 0, uses_anonymous_args = 0
  72              		@ link register save eliminated.
  73              	.LVL3:
  74 0000 30B4     		push	{r4, r5}
  75              		.cfi_def_cfa_offset 8
  76              		.cfi_offset 4, -8
  77              		.cfi_offset 5, -4
  78              		.loc 1 59 0
  79 0002 0546     		mov	r5, r0
  80 0004 0FCD     		ldmia	r5!, {r0, r1, r2, r3}
  81              	.LVL4:
  82 0006 044C     		ldr	r4, .L7
  83 0008 0FC4     		stmia	r4!, {r0, r1, r2, r3}
  84 000a 95E80F00 		ldmia	r5, {r0, r1, r2, r3}
  85 000e 84E80F00 		stmia	r4, {r0, r1, r2, r3}
  86              		.loc 1 60 0
  87 0012 30BC     		pop	{r4, r5}
  88              	.LVL5:
  89 0014 7047     		bx	lr
  90              	.L8:
  91 0016 00BF     		.align	2
  92              	.L7:
  93 0018 00000000 		.word	.LANCHOR0
  94              		.cfi_endproc
  95              	.LFE118:
  96              		.size	app_nunchuk_configure, .-app_nunchuk_configure
  97 001c AFF30080 		.section	.text.app_nunchuk_start,"ax",%progbits
  98              		.align	2
  99              		.p2align 4,,15
 100              		.global	app_nunchuk_start
 101              		.thumb
 102              		.thumb_func
 103              		.type	app_nunchuk_start, %function
 104              	app_nunchuk_start:
 105              	.LFB119:
 106              		.loc 1 62 0
 107              		.cfi_startproc
 108              		@ args = 0, pretend = 0, frame = 0
 109              		@ frame_needed = 0, uses_anonymous_args = 0
 110 0000 30B5     		push	{r4, r5, lr}
 111              		.cfi_def_cfa_offset 12
 112              		.cfi_offset 4, -12
 113              		.cfi_offset 5, -8
 114              		.cfi_offset 14, -4
ARM GAS  C:\Users\jsyoon\AppData\Local\Temp\cc5ypfvg.s 			page 3


 115 0002 83B0     		sub	sp, sp, #12
 116              		.cfi_def_cfa_offset 24
 117              		.loc 1 63 0
 118 0004 064C     		ldr	r4, .L10
 119              		.loc 1 64 0
 120 0006 074B     		ldr	r3, .L10+4
 121 0008 0748     		ldr	r0, .L10+8
 122 000a 0022     		movs	r2, #0
 123 000c 0092     		str	r2, [sp]
 124              		.loc 1 63 0
 125 000e 8025     		movs	r5, #128
 126              		.loc 1 64 0
 127 0010 4FF4B361 		mov	r1, #1432
 128 0014 4022     		movs	r2, #64
 129              		.loc 1 63 0
 130 0016 6560     		str	r5, [r4, #4]
 131              		.loc 1 64 0
 132 0018 FFF7FEFF 		bl	chThdCreateStatic
 133              	.LVL6:
 134              		.loc 1 65 0
 135 001c 03B0     		add	sp, sp, #12
 136              		@ sp needed
 137 001e 30BD     		pop	{r4, r5, pc}
 138              	.L11:
 139              		.align	2
 140              	.L10:
 141 0020 00000000 		.word	.LANCHOR1
 142 0024 00000000 		.word	chuk_thread
 143 0028 00000000 		.word	.LANCHOR2
 144              		.cfi_endproc
 145              	.LFE119:
 146              		.size	app_nunchuk_start, .-app_nunchuk_start
 147 002c AFF30080 		.section	.text.app_nunchuk_get_decoded_chuk,"ax",%progbits
 148              		.align	2
 149              		.p2align 4,,15
 150              		.global	app_nunchuk_get_decoded_chuk
 151              		.thumb
 152              		.thumb_func
 153              		.type	app_nunchuk_get_decoded_chuk, %function
 154              	app_nunchuk_get_decoded_chuk:
 155              	.LFB120:
 156              		.loc 1 67 0
 157              		.cfi_startproc
 158              		@ args = 0, pretend = 0, frame = 0
 159              		@ frame_needed = 0, uses_anonymous_args = 0
 160              		@ link register save eliminated.
 161              		.loc 1 68 0
 162 0000 064B     		ldr	r3, .L13
 163 0002 9FED077A 		flds	s14, .L13+4
 164 0006 93ED010A 		flds	s0, [r3, #4]	@ int
 165 000a DFED067A 		flds	s15, .L13+8
 166 000e B8EEC00A 		fsitos	s0, s0
 167 0012 30EE470A 		fsubs	s0, s0, s14
 168              		.loc 1 69 0
 169 0016 20EE270A 		fmuls	s0, s0, s15
 170 001a 7047     		bx	lr
 171              	.L14:
ARM GAS  C:\Users\jsyoon\AppData\Local\Temp\cc5ypfvg.s 			page 4


 172              		.align	2
 173              	.L13:
 174 001c 00000000 		.word	.LANCHOR1
 175 0020 00000043 		.word	1124073472
 176 0024 0000003C 		.word	1006632960
 177              		.cfi_endproc
 178              	.LFE120:
 179              		.size	app_nunchuk_get_decoded_chuk, .-app_nunchuk_get_decoded_chuk
 180 0028 AFF30080 		.section	.text.app_nunchuk_update_output,"ax",%progbits
 180      AFF30080 
 181              		.align	2
 182              		.p2align 4,,15
 183              		.global	app_nunchuk_update_output
 184              		.thumb
 185              		.thumb_func
 186              		.type	app_nunchuk_update_output, %function
 187              	app_nunchuk_update_output:
 188              	.LFB121:
 189              		.loc 1 71 0
 190              		.cfi_startproc
 191              		@ args = 0, pretend = 0, frame = 0
 192              		@ frame_needed = 0, uses_anonymous_args = 0
 193              	.LVL7:
 194 0000 70B5     		push	{r4, r5, r6, lr}
 195              		.cfi_def_cfa_offset 16
 196              		.cfi_offset 4, -16
 197              		.cfi_offset 5, -12
 198              		.cfi_offset 6, -8
 199              		.cfi_offset 14, -4
 200              		.loc 1 72 0
 201 0002 104A     		ldr	r2, .L18
 202 0004 1378     		ldrb	r3, [r2]	@ zero_extendqisi2
 203              		.loc 1 71 0
 204 0006 82B0     		sub	sp, sp, #8
 205              		.cfi_def_cfa_offset 24
 206              		.loc 1 71 0
 207 0008 0546     		mov	r5, r0
 208              		.loc 1 72 0
 209 000a 03F0FF01 		and	r1, r3, #255
 210 000e 63B9     		cbnz	r3, .L16
 211              		.loc 1 75 0
 212 0010 0091     		str	r1, [sp]
 213              		.loc 1 74 0
 214 0012 0D4C     		ldr	r4, .L18+4
 215              		.loc 1 75 0
 216 0014 0D48     		ldr	r0, .L18+8
 217              	.LVL8:
 218 0016 0E4B     		ldr	r3, .L18+12
 219              		.loc 1 73 0
 220 0018 0121     		movs	r1, #1
 221 001a 1170     		strb	r1, [r2]
 222              		.loc 1 74 0
 223 001c 8026     		movs	r6, #128
 224              		.loc 1 75 0
 225 001e 4FF4B361 		mov	r1, #1432
 226 0022 4022     		movs	r2, #64
 227              		.loc 1 74 0
ARM GAS  C:\Users\jsyoon\AppData\Local\Temp\cc5ypfvg.s 			page 5


 228 0024 6660     		str	r6, [r4, #4]
 229              		.loc 1 75 0
 230 0026 FFF7FEFF 		bl	chThdCreateStatic
 231              	.LVL9:
 232              	.L16:
 233              		.loc 1 78 0
 234 002a 0FCD     		ldmia	r5!, {r0, r1, r2, r3}
 235              	.LVL10:
 236 002c 064C     		ldr	r4, .L18+4
 237 002e 0FC4     		stmia	r4!, {r0, r1, r2, r3}
 238 0030 95E80300 		ldmia	r5, {r0, r1}
 239 0034 84E80300 		stmia	r4, {r0, r1}
 240              		.loc 1 80 0
 241 0038 02B0     		add	sp, sp, #8
 242              		@ sp needed
 243 003a BDE87040 		pop	{r4, r5, r6, lr}
 244              	.LVL11:
 245              		.loc 1 79 0
 246 003e FFF7FEBF 		b	timeout_reset
 247              	.LVL12:
 248              	.L19:
 249 0042 00BF     		.align	2
 250              	.L18:
 251 0044 00000000 		.word	.LANCHOR3
 252 0048 00000000 		.word	.LANCHOR1
 253 004c 00000000 		.word	.LANCHOR4
 254 0050 00000000 		.word	output_thread
 255              		.cfi_endproc
 256              	.LFE121:
 257              		.size	app_nunchuk_update_output, .-app_nunchuk_update_output
 258 0054 AFF30080 		.section	.text.chuk_thread,"ax",%progbits
 258      AFF30080 
 258      AFF30080 
 259              		.align	2
 260              		.p2align 4,,15
 261              		.thumb
 262              		.thumb_func
 263              		.type	chuk_thread, %function
 264              	chuk_thread:
 265              	.LFB122:
 266              		.loc 1 82 0
 267              		.cfi_startproc
 268              		@ args = 0, pretend = 0, frame = 48
 269              		@ frame_needed = 0, uses_anonymous_args = 0
 270              	.LVL13:
 271 0000 2DE9F04F 		push	{r4, r5, r6, r7, r8, r9, r10, fp, lr}
 272              		.cfi_def_cfa_offset 36
 273              		.cfi_offset 4, -36
 274              		.cfi_offset 5, -32
 275              		.cfi_offset 6, -28
 276              		.cfi_offset 7, -24
 277              		.cfi_offset 8, -20
 278              		.cfi_offset 9, -16
 279              		.cfi_offset 10, -12
 280              		.cfi_offset 11, -8
 281              		.cfi_offset 14, -4
 282              		.loc 1 85 0
ARM GAS  C:\Users\jsyoon\AppData\Local\Temp\cc5ypfvg.s 			page 6


 283 0004 634B     		ldr	r3, .L36
 284 0006 6449     		ldr	r1, .L36+4
 285 0008 9A69     		ldr	r2, [r3, #24]
 286              		.loc 1 86 0
 287 000a 644B     		ldr	r3, .L36+8
 288              		.loc 1 85 0
 289 000c 9161     		str	r1, [r2, #24]
 290              		.loc 1 82 0
 291 000e 91B0     		sub	sp, sp, #68
 292              		.cfi_def_cfa_offset 104
 293              		.loc 1 86 0
 294 0010 0122     		movs	r2, #1
 295 0012 634D     		ldr	r5, .L36+12
 296 0014 1A70     		strb	r2, [r3]
 297              	.LVL14:
 298              		.loc 1 95 0
 299 0016 FFF7FEFF 		bl	hw_start_i2c
 300              	.LVL15:
 301              		.loc 1 96 0
 302 001a 6420     		movs	r0, #100
 303 001c FFF7FEFF 		bl	chThdSleep
 304              	.LVL16:
 305 0020 DFF88481 		ldr	r8, .L36+20
 306 0024 05F10409 		add	r9, r5, #4
 307 0028 04AC     		add	r4, sp, #16
 308              	.LBB2:
 309              		.loc 1 101 0
 310 002a F027     		movs	r7, #240
 311              		.loc 1 102 0
 312 002c 5526     		movs	r6, #85
 313 002e 0BE0     		b	.L29
 314              	.LVL17:
 315              	.L23:
 316              		.loc 1 163 0
 317 0030 0223     		movs	r3, #2
 318 0032 C8F80030 		str	r3, [r8]
 319              		.loc 1 164 0
 320 0036 FFF7FEFF 		bl	hw_try_restore_i2c
 321              	.LVL18:
 322              		.loc 1 165 0
 323 003a 4FF47A70 		mov	r0, #1000
 324 003e FFF7FEFF 		bl	chThdSleep
 325              	.LVL19:
 326              	.L28:
 327              		.loc 1 168 0
 328 0042 6420     		movs	r0, #100
 329 0044 FFF7FEFF 		bl	chThdSleep
 330              	.LVL20:
 331              	.L29:
 332              		.loc 1 103 0
 333 0048 5648     		ldr	r0, .L36+16
 334              		.loc 1 101 0
 335 004a 8DF81C70 		strb	r7, [sp, #28]
 336              		.loc 1 102 0
 337 004e 8DF81D60 		strb	r6, [sp, #29]
 338              		.loc 1 104 0
 339 0052 4FF0320A 		mov	r10, #50
ARM GAS  C:\Users\jsyoon\AppData\Local\Temp\cc5ypfvg.s 			page 7


 340              		.loc 1 103 0
 341 0056 FFF7FEFF 		bl	i2cAcquireBus
 342              	.LVL21:
 343              		.loc 1 104 0
 344 005a 0023     		movs	r3, #0
 345 005c 0193     		str	r3, [sp, #4]
 346 005e 0094     		str	r4, [sp]
 347 0060 CDF808A0 		str	r10, [sp, #8]
 348 0064 4F48     		ldr	r0, .L36+16
 349 0066 5221     		movs	r1, #82
 350 0068 07AA     		add	r2, sp, #28
 351 006a 0223     		movs	r3, #2
 352 006c FFF7FEFF 		bl	i2cMasterTransmitTimeout
 353              	.LVL22:
 354 0070 8346     		mov	fp, r0
 355              	.LVL23:
 356              		.loc 1 105 0
 357 0072 4C48     		ldr	r0, .L36+16
 358              	.LVL24:
 359 0074 FFF7FEFF 		bl	i2cReleaseBus
 360              	.LVL25:
 361              		.loc 1 108 0
 362 0078 BBF1000F 		cmp	fp, #0
 363 007c D8D1     		bne	.L23
 364              		.loc 1 109 0
 365 007e FB23     		movs	r3, #251
 366              		.loc 1 111 0
 367 0080 4848     		ldr	r0, .L36+16
 368              		.loc 1 110 0
 369 0082 8DF81DB0 		strb	fp, [sp, #29]
 370              		.loc 1 109 0
 371 0086 8DF81C30 		strb	r3, [sp, #28]
 372              		.loc 1 111 0
 373 008a FFF7FEFF 		bl	i2cAcquireBus
 374              	.LVL26:
 375              		.loc 1 112 0
 376 008e 8DE81008 		stmia	sp, {r4, fp}
 377 0092 CDF808A0 		str	r10, [sp, #8]
 378 0096 4348     		ldr	r0, .L36+16
 379 0098 5221     		movs	r1, #82
 380 009a 07AA     		add	r2, sp, #28
 381 009c 0223     		movs	r3, #2
 382 009e FFF7FEFF 		bl	i2cMasterTransmitTimeout
 383              	.LVL27:
 384 00a2 8346     		mov	fp, r0
 385              	.LVL28:
 386              		.loc 1 113 0
 387 00a4 3F48     		ldr	r0, .L36+16
 388              	.LVL29:
 389 00a6 FFF7FEFF 		bl	i2cReleaseBus
 390              	.LVL30:
 391              		.loc 1 117 0
 392 00aa BBF1000F 		cmp	fp, #0
 393 00ae BFD1     		bne	.L23
 394              		.loc 1 119 0
 395 00b0 3C48     		ldr	r0, .L36+16
 396              		.loc 1 118 0
ARM GAS  C:\Users\jsyoon\AppData\Local\Temp\cc5ypfvg.s 			page 8


 397 00b2 8DF81CB0 		strb	fp, [sp, #28]
 398              		.loc 1 119 0
 399 00b6 FFF7FEFF 		bl	i2cAcquireBus
 400              	.LVL31:
 401              		.loc 1 120 0
 402 00ba 8DE81008 		stmia	sp, {r4, fp}
 403 00be CDF808A0 		str	r10, [sp, #8]
 404 00c2 3848     		ldr	r0, .L36+16
 405 00c4 5221     		movs	r1, #82
 406 00c6 07AA     		add	r2, sp, #28
 407 00c8 0123     		movs	r3, #1
 408 00ca FFF7FEFF 		bl	i2cMasterTransmitTimeout
 409              	.LVL32:
 410 00ce 8346     		mov	fp, r0
 411              	.LVL33:
 412              		.loc 1 121 0
 413 00d0 3448     		ldr	r0, .L36+16
 414              	.LVL34:
 415 00d2 FFF7FEFF 		bl	i2cReleaseBus
 416              	.LVL35:
 417              		.loc 1 125 0
 418 00d6 BBF1000F 		cmp	fp, #0
 419 00da A9D1     		bne	.L23
 420              		.loc 1 126 0
 421 00dc 1E20     		movs	r0, #30
 422 00de FFF7FEFF 		bl	chThdSleep
 423              	.LVL36:
 424              		.loc 1 128 0
 425 00e2 3048     		ldr	r0, .L36+16
 426 00e4 FFF7FEFF 		bl	i2cAcquireBus
 427              	.LVL37:
 428              		.loc 1 129 0
 429 00e8 CDF800A0 		str	r10, [sp]
 430 00ec 2D48     		ldr	r0, .L36+16
 431 00ee 5221     		movs	r1, #82
 432 00f0 2246     		mov	r2, r4
 433 00f2 0623     		movs	r3, #6
 434 00f4 FFF7FEFF 		bl	i2cMasterReceiveTimeout
 435              	.LVL38:
 436 00f8 8246     		mov	r10, r0
 437              	.LVL39:
 438              		.loc 1 130 0
 439 00fa 2A48     		ldr	r0, .L36+16
 440              	.LVL40:
 441 00fc FFF7FEFF 		bl	i2cReleaseBus
 442              	.LVL41:
 443              		.loc 1 134 0
 444 0100 BAF1000F 		cmp	r10, #0
 445 0104 94D1     		bne	.L23
 446 0106 5046     		mov	r0, r10
 447 0108 0123     		movs	r3, #1
 448              	.L26:
 449              	.LVL42:
 450              	.LBB3:
 451              	.LBB4:
 452              		.loc 1 139 0
 453 010a 295C     		ldrb	r1, [r5, r0]	@ zero_extendqisi2
ARM GAS  C:\Users\jsyoon\AppData\Local\Temp\cc5ypfvg.s 			page 9


 454 010c 225C     		ldrb	r2, [r4, r0]	@ zero_extendqisi2
 455              		.loc 1 138 0
 456 010e 0130     		adds	r0, r0, #1
 457              	.LVL43:
 458              		.loc 1 140 0
 459 0110 9142     		cmp	r1, r2
 460 0112 18BF     		it	ne
 461 0114 0023     		movne	r3, #0
 462              	.LVL44:
 463              		.loc 1 138 0
 464 0116 0628     		cmp	r0, #6
 465 0118 F7D1     		bne	.L26
 466              	.LBE4:
 467              		.loc 1 144 0
 468 011a 94E80300 		ldmia	r4, {r0, r1}
 469              	.LVL45:
 470 011e 2860     		str	r0, [r5]
 471 0120 A9F80010 		strh	r1, [r9]	@ movhi
 472              		.loc 1 146 0
 473 0124 3BB1     		cbz	r3, .L35
 474              	.LVL46:
 475              	.L27:
 476              		.loc 1 159 0
 477 0126 FFF7FEFF 		bl	timeout_has_timeout
 478              	.LVL47:
 479 012a 0028     		cmp	r0, #0
 480 012c 89D0     		beq	.L28
 481              		.loc 1 160 0
 482 012e 0123     		movs	r3, #1
 483 0130 C8F80030 		str	r3, [r8]
 484 0134 85E7     		b	.L28
 485              	.LVL48:
 486              	.L35:
 487              		.loc 1 150 0
 488 0136 9DF81520 		ldrb	r2, [sp, #21]	@ zero_extendqisi2
 489 013a 9DF812C0 		ldrb	ip, [sp, #18]	@ zero_extendqisi2
 490              		.loc 1 151 0
 491 013e 9DF813E0 		ldrb	lr, [sp, #19]	@ zero_extendqisi2
 492              		.loc 1 152 0
 493 0142 9DF81410 		ldrb	r1, [sp, #20]	@ zero_extendqisi2
 494              		.loc 1 147 0
 495 0146 C8F80030 		str	r3, [r8]
 496              		.loc 1 151 0
 497 014a C2F30110 		ubfx	r0, r2, #4, #2
 498              		.loc 1 150 0
 499 014e C2F38103 		ubfx	r3, r2, #2, #2
 500              	.LVL49:
 501 0152 43EA8C03 		orr	r3, r3, ip, lsl #2
 502              		.loc 1 151 0
 503 0156 40EA8E00 		orr	r0, r0, lr, lsl #2
 504              		.loc 1 152 0
 505 015a 8900     		lsls	r1, r1, #2
 506              		.loc 1 153 0
 507 015c 02F0010C 		and	ip, r2, #1
 508              		.loc 1 154 0
 509 0160 C2F3400E 		ubfx	lr, r2, #1, #1
 510              		.loc 1 153 0
ARM GAS  C:\Users\jsyoon\AppData\Local\Temp\cc5ypfvg.s 			page 10


 511 0164 8CF0010C 		eor	ip, ip, #1
 512              		.loc 1 152 0
 513 0168 41EA9212 		orr	r2, r1, r2, lsr #6
 514              		.loc 1 154 0
 515 016c 8EF0010E 		eor	lr, lr, #1
 516              		.loc 1 148 0
 517 0170 9DF81010 		ldrb	r1, [sp, #16]	@ zero_extendqisi2
 518              		.loc 1 150 0
 519 0174 0C93     		str	r3, [sp, #48]
 520              		.loc 1 151 0
 521 0176 0D90     		str	r0, [sp, #52]
 522              		.loc 1 149 0
 523 0178 9DF81130 		ldrb	r3, [sp, #17]	@ zero_extendqisi2
 524              		.loc 1 153 0
 525 017c 8DF83DC0 		strb	ip, [sp, #61]
 526              		.loc 1 156 0
 527 0180 0AA8     		add	r0, sp, #40
 528              		.loc 1 154 0
 529 0182 8DF83CE0 		strb	lr, [sp, #60]
 530              		.loc 1 152 0
 531 0186 0E92     		str	r2, [sp, #56]
 532              		.loc 1 148 0
 533 0188 0A91     		str	r1, [sp, #40]
 534              		.loc 1 149 0
 535 018a 0B93     		str	r3, [sp, #44]
 536              		.loc 1 156 0
 537 018c FFF7FEFF 		bl	app_nunchuk_update_output
 538              	.LVL50:
 539 0190 C9E7     		b	.L27
 540              	.L37:
 541 0192 00BF     		.align	2
 542              	.L36:
 543 0194 00000000 		.word	rlist
 544 0198 10000000 		.word	.LC1
 545 019c 00000000 		.word	.LANCHOR5
 546 01a0 00000000 		.word	.LANCHOR6
 547 01a4 00000000 		.word	I2CD2
 548 01a8 00000000 		.word	.LANCHOR7
 549              	.LBE3:
 550              	.LBE2:
 551              		.cfi_endproc
 552              	.LFE122:
 553              		.size	chuk_thread, .-chuk_thread
 554 01ac AFF30080 		.section	.bss.output_running,"aw",%nobits
 555              		.set	.LANCHOR3,. + 0
 556              		.type	output_running, %object
 557              		.size	output_running, 1
 558              	output_running:
 559 0000 00       		.space	1
 560              		.section	.bss.chuk_thread_wa,"aw",%nobits
 561              		.align	3
 562              		.set	.LANCHOR2,. + 0
 563              		.type	chuk_thread_wa, %object
 564              		.size	chuk_thread_wa, 1432
 565              	chuk_thread_wa:
 566 0000 00000000 		.space	1432
 566      00000000 
ARM GAS  C:\Users\jsyoon\AppData\Local\Temp\cc5ypfvg.s 			page 11


 566      00000000 
 566      00000000 
 566      00000000 
 567              		.section	.bss.output_thread_wa,"aw",%nobits
 568              		.align	3
 569              		.set	.LANCHOR4,. + 0
 570              		.type	output_thread_wa, %object
 571              		.size	output_thread_wa, 1432
 572              	output_thread_wa:
 573 0000 00000000 		.space	1432
 573      00000000 
 573      00000000 
 573      00000000 
 573      00000000 
 574              		.section	.bss.is_running,"aw",%nobits
 575              		.set	.LANCHOR5,. + 0
 576              		.type	is_running, %object
 577              		.size	is_running, 1
 578              	is_running:
 579 0000 00       		.space	1
 580              		.section	.bss.chuck_d,"aw",%nobits
 581              		.align	2
 582              		.set	.LANCHOR1,. + 0
 583              		.type	chuck_d, %object
 584              		.size	chuck_d, 24
 585              	chuck_d:
 586 0000 00000000 		.space	24
 586      00000000 
 586      00000000 
 586      00000000 
 586      00000000 
 587              		.section	.bss.last_buffer.10401,"aw",%nobits
 588              		.align	2
 589              		.set	.LANCHOR6,. + 0
 590              		.type	last_buffer.10401, %object
 591              		.size	last_buffer.10401, 10
 592              	last_buffer.10401:
 593 0000 00000000 		.space	10
 593      00000000 
 593      0000
 594 000a 0000     		.section	.rodata.str1.4,"aMS",%progbits,1
 595              		.align	2
 596              	.LC0:
 597 0000 4E756E63 		.ascii	"Nunchuk output\000"
 597      68756B20 
 597      6F757470 
 597      757400
 598 000f 00       		.space	1
 599              	.LC1:
 600 0010 4E756E63 		.ascii	"Nunchuk i2c\000"
 600      68756B20 
 600      69326300 
 601              		.section	.bss.chuck_error,"aw",%nobits
 602              		.align	2
 603              		.set	.LANCHOR7,. + 0
 604              		.type	chuck_error, %object
 605              		.size	chuck_error, 4
ARM GAS  C:\Users\jsyoon\AppData\Local\Temp\cc5ypfvg.s 			page 12


 606              	chuck_error:
 607 0000 00000000 		.space	4
 608              		.section	.bss.config,"aw",%nobits
 609              		.align	2
 610              		.set	.LANCHOR0,. + 0
 611              		.type	config, %object
 612              		.size	config, 32
 613              	config:
 614 0000 00000000 		.space	32
 614      00000000 
 614      00000000 
 614      00000000 
 614      00000000 
 615              		.text
 616              	.Letext0:
 617              		.file 2 "c:\\crosstools\\gcc-arm-embedded\\4.8_2014q2\\arm-none-eabi\\include\\machine\\_default_t
 618              		.file 3 "c:\\crosstools\\gcc-arm-embedded\\4.8_2014q2\\arm-none-eabi\\include\\stdint.h"
 619              		.file 4 "c:\\crosstools\\gcc-arm-embedded\\4.8_2014q2\\lib\\gcc\\arm-none-eabi\\4.8.4\\include\\st
 620              		.file 5 "ChibiOS_2.6.6/os/ports/GCC/ARMCMx/chtypes.h"
 621              		.file 6 "ChibiOS_2.6.6/os/kernel/include/chlists.h"
 622              		.file 7 "ChibiOS_2.6.6/os/kernel/include/chthreads.h"
 623              		.file 8 "ChibiOS_2.6.6/os/ports/GCC/ARMCMx/chcore_v7m.h"
 624              		.file 9 "ChibiOS_2.6.6/os/kernel/include/chschd.h"
 625              		.file 10 "ChibiOS_2.6.6/os/kernel/include/chmtx.h"
 626              		.file 11 "./datatypes.h"
 627              		.file 12 "ChibiOS_2.6.6/os/hal/platforms/STM32F4xx/stm32f4xx.h"
 628              		.file 13 "ChibiOS_2.6.6/os/hal/platforms/STM32F4xx/stm32_dma.h"
 629              		.file 14 "ChibiOS_2.6.6/os/hal/include/i2c.h"
 630              		.file 15 "ChibiOS_2.6.6/os/hal/platforms/STM32/I2Cv1/i2c_lld.h"
 631              		.file 16 "ChibiOS_2.6.6/os/ports/common/ARMCMx/CMSIS/include/core_cm4.h"
 632              		.file 17 "./timeout.h"
 633              		.file 18 "hwconf/hw.h"