ARM GAS  C:\Users\jsyoon\AppData\Local\Temp\ccr5RSvc.s 			page 1


   1              		.syntax unified
   2              		.cpu cortex-m4
   3              		.eabi_attribute 27, 3
   4              		.eabi_attribute 28, 1
   5              		.fpu fpv4-sp-d16
   6              		.eabi_attribute 20, 1
   7              		.eabi_attribute 21, 1
   8              		.eabi_attribute 23, 3
   9              		.eabi_attribute 24, 1
  10              		.eabi_attribute 25, 1
  11              		.eabi_attribute 26, 1
  12              		.eabi_attribute 30, 2
  13              		.eabi_attribute 34, 1
  14              		.eabi_attribute 18, 4
  15              		.thumb
  16              		.file	"can_lld.c"
  17              		.text
  18              	.Ltext0:
  19              		.cfi_sections	.debug_frame
  20              		.section	.text.can_lld_set_filters,"ax",%progbits
  21              		.align	2
  22              		.p2align 4,,15
  23              		.thumb
  24              		.thumb_func
  25              		.type	can_lld_set_filters, %function
  26              	can_lld_set_filters:
  27              	.LFB118:
  28              		.file 1 "ChibiOS_2.6.6/os/hal/platforms/STM32/can_lld.c"
  29              		.loc 1 69 0
  30              		.cfi_startproc
  31              		@ args = 0, pretend = 0, frame = 0
  32              		@ frame_needed = 0, uses_anonymous_args = 0
  33              		@ link register save eliminated.
  34              	.LVL0:
  35 0000 F0B4     		push	{r4, r5, r6, r7}
  36              		.cfi_def_cfa_offset 16
  37              		.cfi_offset 4, -16
  38              		.cfi_offset 5, -12
  39              		.cfi_offset 6, -8
  40              		.cfi_offset 7, -4
  41              		.loc 1 72 0
  42 0002 444C     		ldr	r4, .L22
  43              		.loc 1 75 0
  44 0004 444B     		ldr	r3, .L22+4
  45              		.loc 1 72 0
  46 0006 256C     		ldr	r5, [r4, #64]
  47 0008 45F00075 		orr	r5, r5, #33554432
  48 000c 2564     		str	r5, [r4, #64]
  49              		.loc 1 75 0
  50 000e D3F80042 		ldr	r4, [r3, #512]
  51 0012 240C     		lsrs	r4, r4, #16
  52 0014 2404     		lsls	r4, r4, #16
  53 0016 44F00104 		orr	r4, r4, #1
  54 001a 44EA0024 		orr	r4, r4, r0, lsl #8
  55 001e C3F80042 		str	r4, [r3, #512]
  56              		.loc 1 76 0
  57 0022 0029     		cmp	r1, #0
ARM GAS  C:\Users\jsyoon\AppData\Local\Temp\ccr5RSvc.s 			page 2


  58 0024 5BD0     		beq	.L2
  59              	.LBB3:
  60              		.loc 1 80 0
  61 0026 0025     		movs	r5, #0
  62 0028 C3F81C52 		str	r5, [r3, #540]
  63              		.loc 1 84 0
  64 002c 2846     		mov	r0, r5
  65              	.LVL1:
  66              		.loc 1 81 0
  67 002e C3F80452 		str	r5, [r3, #516]
  68              		.loc 1 85 0
  69 0032 2C46     		mov	r4, r5
  70              		.loc 1 82 0
  71 0034 C3F80C52 		str	r5, [r3, #524]
  72              		.loc 1 83 0
  73 0038 C3F81452 		str	r5, [r3, #532]
  74              	.LVL2:
  75              	.L4:
  76 003c C300     		lsls	r3, r0, #3
  77 003e 03F18043 		add	r3, r3, #1073741824
  78 0042 03F5C843 		add	r3, r3, #25600
  79              		.loc 1 84 0 discriminator 2
  80 0046 0130     		adds	r0, r0, #1
  81              	.LVL3:
  82 0048 1C28     		cmp	r0, #28
  83              		.loc 1 85 0 discriminator 2
  84 004a C3F84042 		str	r4, [r3, #576]
  85              		.loc 1 86 0 discriminator 2
  86 004e C3F84442 		str	r4, [r3, #580]
  87              		.loc 1 84 0 discriminator 2
  88 0052 F3D1     		bne	.L4
  89              		.loc 1 93 0
  90 0054 304B     		ldr	r3, .L22+4
  91              		.loc 1 84 0
  92 0056 0026     		movs	r6, #0
  93              		.loc 1 91 0
  94 0058 0127     		movs	r7, #1
  95              	.LVL4:
  96              	.L9:
  97 005a 1568     		ldr	r5, [r2]
  98              		.loc 1 92 0
  99 005c 1479     		ldrb	r4, [r2, #4]	@ zero_extendqisi2
 100 005e E800     		lsls	r0, r5, #3
 101 0060 00F18040 		add	r0, r0, #1073741824
 102 0064 14F0010F 		tst	r4, #1
 103 0068 00F5C840 		add	r0, r0, #25600
 104              		.loc 1 90 0
 105 006c 06F10106 		add	r6, r6, #1
 106              	.LVL5:
 107              		.loc 1 91 0
 108 0070 07FA05F5 		lsl	r5, r7, r5
 109              	.LVL6:
 110              		.loc 1 92 0
 111 0074 05D0     		beq	.L5
 112              		.loc 1 93 0
 113 0076 D3F80442 		ldr	r4, [r3, #516]
 114 007a 2C43     		orrs	r4, r4, r5
ARM GAS  C:\Users\jsyoon\AppData\Local\Temp\ccr5RSvc.s 			page 3


 115 007c C3F80442 		str	r4, [r3, #516]
 116 0080 1479     		ldrb	r4, [r2, #4]	@ zero_extendqisi2
 117              	.L5:
 118              		.loc 1 94 0
 119 0082 14F0020F 		tst	r4, #2
 120 0086 05D0     		beq	.L6
 121              		.loc 1 95 0
 122 0088 D3F80C42 		ldr	r4, [r3, #524]
 123 008c 2C43     		orrs	r4, r4, r5
 124 008e C3F80C42 		str	r4, [r3, #524]
 125 0092 1479     		ldrb	r4, [r2, #4]	@ zero_extendqisi2
 126              	.L6:
 127              		.loc 1 96 0
 128 0094 6407     		lsls	r4, r4, #29
 129 0096 04D5     		bpl	.L7
 130              		.loc 1 97 0
 131 0098 D3F81442 		ldr	r4, [r3, #532]
 132 009c 2C43     		orrs	r4, r4, r5
 133 009e C3F81442 		str	r4, [r3, #532]
 134              	.L7:
 135              		.loc 1 98 0
 136 00a2 9468     		ldr	r4, [r2, #8]
 137 00a4 C0F84042 		str	r4, [r0, #576]
 138              		.loc 1 99 0
 139 00a8 D468     		ldr	r4, [r2, #12]
 140 00aa C0F84442 		str	r4, [r0, #580]
 141              		.loc 1 100 0
 142 00ae D3F81C02 		ldr	r0, [r3, #540]
 143              		.loc 1 90 0
 144 00b2 8E42     		cmp	r6, r1
 145              		.loc 1 100 0
 146 00b4 45EA0005 		orr	r5, r5, r0
 147              	.LVL7:
 148              		.loc 1 101 0
 149 00b8 02F11002 		add	r2, r2, #16
 150              	.LVL8:
 151              		.loc 1 100 0
 152 00bc C3F81C52 		str	r5, [r3, #540]
 153              		.loc 1 90 0
 154 00c0 CBD1     		bne	.L9
 155              	.LVL9:
 156              	.L8:
 157              	.LBE3:
 158              		.loc 1 123 0
 159 00c2 154A     		ldr	r2, .L22+4
 160              		.loc 1 126 0
 161 00c4 134B     		ldr	r3, .L22
 162              		.loc 1 123 0
 163 00c6 D2F80012 		ldr	r1, [r2, #512]
 164              	.LVL10:
 165 00ca 21F00101 		bic	r1, r1, #1
 166 00ce C2F80012 		str	r1, [r2, #512]
 167              		.loc 1 126 0
 168 00d2 1A6C     		ldr	r2, [r3, #64]
 169 00d4 22F00072 		bic	r2, r2, #33554432
 170 00d8 1A64     		str	r2, [r3, #64]
 171              		.loc 1 127 0
ARM GAS  C:\Users\jsyoon\AppData\Local\Temp\ccr5RSvc.s 			page 4


 172 00da F0BC     		pop	{r4, r5, r6, r7}
 173 00dc 7047     		bx	lr
 174              	.LVL11:
 175              	.L2:
 176 00de C200     		lsls	r2, r0, #3
 177              	.LVL12:
 178              		.loc 1 116 0
 179 00e0 0124     		movs	r4, #1
 180 00e2 02F18042 		add	r2, r2, #1073741824
 181 00e6 02F5C842 		add	r2, r2, #25600
 182 00ea 04FA00F0 		lsl	r0, r4, r0
 183              	.LVL13:
 184 00ee 2043     		orrs	r0, r0, r4
 185              		.loc 1 107 0
 186 00f0 C3F84012 		str	r1, [r3, #576]
 187              		.loc 1 108 0
 188 00f4 C3F84412 		str	r1, [r3, #580]
 189              		.loc 1 110 0
 190 00f8 C2F84012 		str	r1, [r2, #576]
 191              		.loc 1 111 0
 192 00fc C2F84412 		str	r1, [r2, #580]
 193              		.loc 1 113 0
 194 0100 C3F80412 		str	r1, [r3, #516]
 195              		.loc 1 114 0
 196 0104 C3F81412 		str	r1, [r3, #532]
 197              		.loc 1 116 0
 198 0108 C3F80C02 		str	r0, [r3, #524]
 199              		.loc 1 117 0
 200 010c C3F81C02 		str	r0, [r3, #540]
 201 0110 D7E7     		b	.L8
 202              	.L23:
 203 0112 00BF     		.align	2
 204              	.L22:
 205 0114 00380240 		.word	1073887232
 206 0118 00640040 		.word	1073767424
 207              		.cfi_endproc
 208              	.LFE118:
 209              		.size	can_lld_set_filters, .-can_lld_set_filters
 210 011c AFF30080 		.section	.text.Vector8C,"ax",%progbits
 211              		.align	2
 212              		.p2align 4,,15
 213              		.global	Vector8C
 214              		.thumb
 215              		.thumb_func
 216              		.type	Vector8C, %function
 217              	Vector8C:
 218              	.LFB123:
 219              		.loc 1 255 0
 220              		.cfi_startproc
 221              		@ args = 0, pretend = 0, frame = 0
 222              		@ frame_needed = 0, uses_anonymous_args = 0
 223              	.LVL14:
 224 0000 10B5     		push	{r4, lr}
 225              		.cfi_def_cfa_offset 8
 226              		.cfi_offset 4, -8
 227              		.cfi_offset 14, -4
 228              	.LBB6:
ARM GAS  C:\Users\jsyoon\AppData\Local\Temp\ccr5RSvc.s 			page 5


 229              	.LBB7:
 230              		.loc 1 139 0
 231 0002 0B4C     		ldr	r4, .L28
 232 0004 0B4A     		ldr	r2, .L28+4
 233 0006 636B     		ldr	r3, [r4, #52]
 234 0008 9A60     		str	r2, [r3, #8]
 235              		.loc 1 140 0
 236              	@ 140 "ChibiOS_2.6.6/os/hal/platforms/STM32/can_lld.c" 1
 237 000a 72B6     		cpsid   i
 238              	@ 0 "" 2
 239              		.loc 1 141 0
 240              		.thumb
 241 000c 2369     		ldr	r3, [r4, #16]
 242 000e 002B     		cmp	r3, #0
 243 0010 05DA     		bge	.L26
 244              	.L27:
 245              		.loc 1 142 0
 246 0012 0948     		ldr	r0, .L28+8
 247 0014 FFF7FEFF 		bl	chSemSignalI
 248              	.LVL15:
 249              		.loc 1 141 0
 250 0018 2369     		ldr	r3, [r4, #16]
 251 001a 002B     		cmp	r3, #0
 252 001c F9DB     		blt	.L27
 253              	.L26:
 254              		.loc 1 143 0
 255 001e 0748     		ldr	r0, .L28+12
 256 0020 0121     		movs	r1, #1
 257 0022 FFF7FEFF 		bl	chEvtBroadcastFlagsI
 258              	.LVL16:
 259              		.loc 1 144 0
 260              	@ 144 "ChibiOS_2.6.6/os/hal/platforms/STM32/can_lld.c" 1
 261 0026 62B6     		cpsie   i
 262              	@ 0 "" 2
 263              		.thumb
 264              	.LBE7:
 265              	.LBE6:
 266              		.loc 1 262 0
 267 0028 BDE81040 		pop	{r4, lr}
 268              		.loc 1 261 0
 269 002c FFF7FEBF 		b	_port_irq_epilogue
 270              	.LVL17:
 271              	.L29:
 272              		.align	2
 273              	.L28:
 274 0030 00000000 		.word	.LANCHOR0
 275 0034 01010100 		.word	65793
 276 0038 08000000 		.word	.LANCHOR0+8
 277 003c 24000000 		.word	.LANCHOR0+36
 278              		.cfi_endproc
 279              	.LFE123:
 280              		.size	Vector8C, .-Vector8C
 281              		.section	.text.Vector90,"ax",%progbits
 282              		.align	2
 283              		.p2align 4,,15
 284              		.global	Vector90
 285              		.thumb
ARM GAS  C:\Users\jsyoon\AppData\Local\Temp\ccr5RSvc.s 			page 6


 286              		.thumb_func
 287              		.type	Vector90, %function
 288              	Vector90:
 289              	.LFB124:
 290              		.loc 1 269 0
 291              		.cfi_startproc
 292              		@ args = 0, pretend = 0, frame = 0
 293              		@ frame_needed = 0, uses_anonymous_args = 0
 294              	.LVL18:
 295 0000 38B5     		push	{r3, r4, r5, lr}
 296              		.cfi_def_cfa_offset 16
 297              		.cfi_offset 3, -16
 298              		.cfi_offset 4, -12
 299              		.cfi_offset 5, -8
 300              		.cfi_offset 14, -4
 301              	.LBB10:
 302              	.LBB11:
 303              		.loc 1 157 0
 304 0002 134C     		ldr	r4, .L42
 305 0004 636B     		ldr	r3, [r4, #52]
 306 0006 DD68     		ldr	r5, [r3, #12]
 307              	.LVL19:
 308              		.loc 1 158 0
 309 0008 AA07     		lsls	r2, r5, #30
 310 000a 12D0     		beq	.L31
 311              		.loc 1 160 0
 312 000c 5A69     		ldr	r2, [r3, #20]
 313 000e 22F00202 		bic	r2, r2, #2
 314 0012 5A61     		str	r2, [r3, #20]
 315              		.loc 1 161 0
 316              	@ 161 "ChibiOS_2.6.6/os/hal/platforms/STM32/can_lld.c" 1
 317 0014 72B6     		cpsid   i
 318              	@ 0 "" 2
 319              		.loc 1 162 0
 320              		.thumb
 321 0016 E369     		ldr	r3, [r4, #28]
 322 0018 002B     		cmp	r3, #0
 323 001a 05DA     		bge	.L33
 324              	.L34:
 325              		.loc 1 163 0
 326 001c 0D48     		ldr	r0, .L42+4
 327 001e FFF7FEFF 		bl	chSemSignalI
 328              	.LVL20:
 329              		.loc 1 162 0
 330 0022 E369     		ldr	r3, [r4, #28]
 331 0024 002B     		cmp	r3, #0
 332 0026 F9DB     		blt	.L34
 333              	.L33:
 334              		.loc 1 164 0
 335 0028 0B48     		ldr	r0, .L42+8
 336 002a 0121     		movs	r1, #1
 337 002c FFF7FEFF 		bl	chEvtBroadcastFlagsI
 338              	.LVL21:
 339              		.loc 1 165 0
 340              	@ 165 "ChibiOS_2.6.6/os/hal/platforms/STM32/can_lld.c" 1
 341 0030 62B6     		cpsie   i
 342              	@ 0 "" 2
ARM GAS  C:\Users\jsyoon\AppData\Local\Temp\ccr5RSvc.s 			page 7


 343              		.thumb
 344              	.L31:
 345              		.loc 1 167 0
 346 0032 EB06     		lsls	r3, r5, #27
 347 0034 07D5     		bpl	.L35
 348              		.loc 1 169 0
 349 0036 636B     		ldr	r3, [r4, #52]
 350 0038 1021     		movs	r1, #16
 351 003a D960     		str	r1, [r3, #12]
 352              		.loc 1 170 0
 353              	@ 170 "ChibiOS_2.6.6/os/hal/platforms/STM32/can_lld.c" 1
 354 003c 72B6     		cpsid   i
 355              	@ 0 "" 2
 356              		.loc 1 171 0
 357              		.thumb
 358 003e 0748     		ldr	r0, .L42+12
 359 0040 FFF7FEFF 		bl	chEvtBroadcastFlagsI
 360              	.LVL22:
 361              		.loc 1 172 0
 362              	@ 172 "ChibiOS_2.6.6/os/hal/platforms/STM32/can_lld.c" 1
 363 0044 62B6     		cpsie   i
 364              	@ 0 "" 2
 365              		.thumb
 366              	.L35:
 367              	.LBE11:
 368              	.LBE10:
 369              		.loc 1 276 0
 370 0046 BDE83840 		pop	{r3, r4, r5, lr}
 371              	.LVL23:
 372              		.loc 1 275 0
 373 004a FFF7FEBF 		b	_port_irq_epilogue
 374              	.LVL24:
 375              	.L43:
 376 004e 00BF     		.align	2
 377              	.L42:
 378 0050 00000000 		.word	.LANCHOR0
 379 0054 14000000 		.word	.LANCHOR0+20
 380 0058 20000000 		.word	.LANCHOR0+32
 381 005c 28000000 		.word	.LANCHOR0+40
 382              		.cfi_endproc
 383              	.LFE124:
 384              		.size	Vector90, .-Vector90
 385              		.section	.text.Vector94,"ax",%progbits
 386              		.align	2
 387              		.p2align 4,,15
 388              		.global	Vector94
 389              		.thumb
 390              		.thumb_func
 391              		.type	Vector94, %function
 392              	Vector94:
 393              	.LFB125:
 394              		.loc 1 283 0
 395              		.cfi_startproc
 396              		@ args = 0, pretend = 0, frame = 0
 397              		@ frame_needed = 0, uses_anonymous_args = 0
 398              	.LVL25:
 399 0000 38B5     		push	{r3, r4, r5, lr}
ARM GAS  C:\Users\jsyoon\AppData\Local\Temp\ccr5RSvc.s 			page 8


 400              		.cfi_def_cfa_offset 16
 401              		.cfi_offset 3, -16
 402              		.cfi_offset 4, -12
 403              		.cfi_offset 5, -8
 404              		.cfi_offset 14, -4
 405              	.LBB14:
 406              	.LBB15:
 407              		.loc 1 186 0
 408 0002 134C     		ldr	r4, .L56
 409 0004 636B     		ldr	r3, [r4, #52]
 410 0006 1D69     		ldr	r5, [r3, #16]
 411              	.LVL26:
 412              		.loc 1 187 0
 413 0008 AA07     		lsls	r2, r5, #30
 414 000a 12D0     		beq	.L45
 415              		.loc 1 189 0
 416 000c 5A69     		ldr	r2, [r3, #20]
 417 000e 22F01002 		bic	r2, r2, #16
 418 0012 5A61     		str	r2, [r3, #20]
 419              		.loc 1 190 0
 420              	@ 190 "ChibiOS_2.6.6/os/hal/platforms/STM32/can_lld.c" 1
 421 0014 72B6     		cpsid   i
 422              	@ 0 "" 2
 423              		.loc 1 191 0
 424              		.thumb
 425 0016 E369     		ldr	r3, [r4, #28]
 426 0018 002B     		cmp	r3, #0
 427 001a 05DA     		bge	.L47
 428              	.L48:
 429              		.loc 1 192 0
 430 001c 0D48     		ldr	r0, .L56+4
 431 001e FFF7FEFF 		bl	chSemSignalI
 432              	.LVL27:
 433              		.loc 1 191 0
 434 0022 E369     		ldr	r3, [r4, #28]
 435 0024 002B     		cmp	r3, #0
 436 0026 F9DB     		blt	.L48
 437              	.L47:
 438              		.loc 1 193 0
 439 0028 0B48     		ldr	r0, .L56+8
 440 002a 0221     		movs	r1, #2
 441 002c FFF7FEFF 		bl	chEvtBroadcastFlagsI
 442              	.LVL28:
 443              		.loc 1 194 0
 444              	@ 194 "ChibiOS_2.6.6/os/hal/platforms/STM32/can_lld.c" 1
 445 0030 62B6     		cpsie   i
 446              	@ 0 "" 2
 447              		.thumb
 448              	.L45:
 449              		.loc 1 196 0
 450 0032 EB06     		lsls	r3, r5, #27
 451 0034 07D5     		bpl	.L49
 452              		.loc 1 198 0
 453 0036 636B     		ldr	r3, [r4, #52]
 454 0038 1021     		movs	r1, #16
 455 003a 1961     		str	r1, [r3, #16]
 456              		.loc 1 199 0
ARM GAS  C:\Users\jsyoon\AppData\Local\Temp\ccr5RSvc.s 			page 9


 457              	@ 199 "ChibiOS_2.6.6/os/hal/platforms/STM32/can_lld.c" 1
 458 003c 72B6     		cpsid   i
 459              	@ 0 "" 2
 460              		.loc 1 200 0
 461              		.thumb
 462 003e 0748     		ldr	r0, .L56+12
 463 0040 FFF7FEFF 		bl	chEvtBroadcastFlagsI
 464              	.LVL29:
 465              		.loc 1 201 0
 466              	@ 201 "ChibiOS_2.6.6/os/hal/platforms/STM32/can_lld.c" 1
 467 0044 62B6     		cpsie   i
 468              	@ 0 "" 2
 469              		.thumb
 470              	.L49:
 471              	.LBE15:
 472              	.LBE14:
 473              		.loc 1 290 0
 474 0046 BDE83840 		pop	{r3, r4, r5, lr}
 475              	.LVL30:
 476              		.loc 1 289 0
 477 004a FFF7FEBF 		b	_port_irq_epilogue
 478              	.LVL31:
 479              	.L57:
 480 004e 00BF     		.align	2
 481              	.L56:
 482 0050 00000000 		.word	.LANCHOR0
 483 0054 14000000 		.word	.LANCHOR0+20
 484 0058 20000000 		.word	.LANCHOR0+32
 485 005c 28000000 		.word	.LANCHOR0+40
 486              		.cfi_endproc
 487              	.LFE125:
 488              		.size	Vector94, .-Vector94
 489              		.section	.text.Vector98,"ax",%progbits
 490              		.align	2
 491              		.p2align 4,,15
 492              		.global	Vector98
 493              		.thumb
 494              		.thumb_func
 495              		.type	Vector98, %function
 496              	Vector98:
 497              	.LFB126:
 498              		.loc 1 297 0
 499              		.cfi_startproc
 500              		@ args = 0, pretend = 0, frame = 0
 501              		@ frame_needed = 0, uses_anonymous_args = 0
 502              	.LVL32:
 503 0000 38B5     		push	{r3, r4, r5, lr}
 504              		.cfi_def_cfa_offset 16
 505              		.cfi_offset 3, -16
 506              		.cfi_offset 4, -12
 507              		.cfi_offset 5, -8
 508              		.cfi_offset 14, -4
 509              	.LBB19:
 510              	.LBB20:
 511              		.loc 1 215 0
 512 0002 174D     		ldr	r5, .L72
 513 0004 6B6B     		ldr	r3, [r5, #52]
ARM GAS  C:\Users\jsyoon\AppData\Local\Temp\ccr5RSvc.s 			page 10


 514 0006 5C68     		ldr	r4, [r3, #4]
 515              	.LVL33:
 516              		.loc 1 216 0
 517 0008 1C22     		movs	r2, #28
 518 000a 5A60     		str	r2, [r3, #4]
 519              		.loc 1 219 0
 520 000c 2207     		lsls	r2, r4, #28
 521 000e 19D4     		bmi	.L71
 522              	.L59:
 523              		.loc 1 228 0
 524 0010 6307     		lsls	r3, r4, #29
 525 0012 13D5     		bpl	.L60
 526              	.LBB21:
 527              		.loc 1 230 0
 528 0014 6A6B     		ldr	r2, [r5, #52]
 529 0016 9369     		ldr	r3, [r2, #24]
 530              	.LVL34:
 531              		.loc 1 232 0
 532 0018 9169     		ldr	r1, [r2, #24]
 533 001a 21F07001 		bic	r1, r1, #112
 534 001e 9161     		str	r1, [r2, #24]
 535              		.loc 1 234 0
 536 0020 13F0700F 		tst	r3, #112
 537              		.loc 1 233 0
 538 0024 03F00701 		and	r1, r3, #7
 539              	.LVL35:
 540              		.loc 1 235 0
 541 0028 18BF     		it	ne
 542 002a 41F00801 		orrne	r1, r1, #8
 543              	.LVL36:
 544              		.loc 1 237 0
 545              	@ 237 "ChibiOS_2.6.6/os/hal/platforms/STM32/can_lld.c" 1
 546 002e 72B6     		cpsid   i
 547              	@ 0 "" 2
 548              		.loc 1 240 0
 549              		.thumb
 550 0030 0C48     		ldr	r0, .L72+4
 551 0032 41EA0341 		orr	r1, r1, r3, lsl #16
 552              	.LVL37:
 553 0036 FFF7FEFF 		bl	chEvtBroadcastFlagsI
 554              	.LVL38:
 555              		.loc 1 241 0
 556              	@ 241 "ChibiOS_2.6.6/os/hal/platforms/STM32/can_lld.c" 1
 557 003a 62B6     		cpsie   i
 558              	@ 0 "" 2
 559              		.thumb
 560              	.L60:
 561              	.LBE21:
 562              	.LBE20:
 563              	.LBE19:
 564              		.loc 1 304 0
 565 003c BDE83840 		pop	{r3, r4, r5, lr}
 566              	.LVL39:
 567              		.loc 1 303 0
 568 0040 FFF7FEBF 		b	_port_irq_epilogue
 569              	.LVL40:
 570              	.L71:
ARM GAS  C:\Users\jsyoon\AppData\Local\Temp\ccr5RSvc.s 			page 11


 571              	.LBB23:
 572              	.LBB22:
 573              		.loc 1 221 0
 574 0044 1A68     		ldr	r2, [r3]
 575              		.loc 1 220 0
 576 0046 2846     		mov	r0, r5
 577              		.loc 1 221 0
 578 0048 22F00202 		bic	r2, r2, #2
 579              		.loc 1 220 0
 580 004c 0321     		movs	r1, #3
 581 004e 00F8301B 		strb	r1, [r0], #48
 582              		.loc 1 221 0
 583 0052 1A60     		str	r2, [r3]
 584              		.loc 1 222 0
 585              	@ 222 "ChibiOS_2.6.6/os/hal/platforms/STM32/can_lld.c" 1
 586 0054 72B6     		cpsid   i
 587              	@ 0 "" 2
 588              		.loc 1 223 0
 589              		.thumb
 590 0056 0021     		movs	r1, #0
 591 0058 FFF7FEFF 		bl	chEvtBroadcastFlagsI
 592              	.LVL41:
 593              		.loc 1 224 0
 594              	@ 224 "ChibiOS_2.6.6/os/hal/platforms/STM32/can_lld.c" 1
 595 005c 62B6     		cpsie   i
 596              	@ 0 "" 2
 597              		.thumb
 598 005e D7E7     		b	.L59
 599              	.L73:
 600              		.align	2
 601              	.L72:
 602 0060 00000000 		.word	.LANCHOR0
 603 0064 28000000 		.word	.LANCHOR0+40
 604              	.LBE22:
 605              	.LBE23:
 606              		.cfi_endproc
 607              	.LFE126:
 608              		.size	Vector98, .-Vector98
 609 0068 AFF30080 		.section	.text.can_lld_init,"ax",%progbits
 609      AFF30080 
 610              		.align	2
 611              		.p2align 4,,15
 612              		.global	can_lld_init
 613              		.thumb
 614              		.thumb_func
 615              		.type	can_lld_init, %function
 616              	can_lld_init:
 617              	.LFB127:
 618              		.loc 1 374 0
 619              		.cfi_startproc
 620              		@ args = 0, pretend = 0, frame = 0
 621              		@ frame_needed = 0, uses_anonymous_args = 0
 622 0000 10B5     		push	{r4, lr}
 623              		.cfi_def_cfa_offset 8
 624              		.cfi_offset 4, -8
 625              		.cfi_offset 14, -4
 626              		.loc 1 378 0
ARM GAS  C:\Users\jsyoon\AppData\Local\Temp\ccr5RSvc.s 			page 12


 627 0002 064C     		ldr	r4, .L75
 628 0004 2046     		mov	r0, r4
 629 0006 FFF7FEFF 		bl	canObjectInit
 630              	.LVL42:
 631              		.loc 1 389 0
 632 000a 0021     		movs	r1, #0
 633              		.loc 1 379 0
 634 000c 044B     		ldr	r3, .L75+4
 635 000e 6363     		str	r3, [r4, #52]
 636              		.loc 1 389 0
 637 0010 0A46     		mov	r2, r1
 638 0012 0E20     		movs	r0, #14
 639              		.loc 1 393 0
 640 0014 BDE81040 		pop	{r4, lr}
 641              		.loc 1 389 0
 642 0018 FFF7FEBF 		b	can_lld_set_filters
 643              	.LVL43:
 644              	.L76:
 645              		.align	2
 646              	.L75:
 647 001c 00000000 		.word	.LANCHOR0
 648 0020 00640040 		.word	1073767424
 649              		.cfi_endproc
 650              	.LFE127:
 651              		.size	can_lld_init, .-can_lld_init
 652 0024 AFF30080 		.section	.text.can_lld_start,"ax",%progbits
 652      AFF30080 
 652      AFF30080 
 653              		.align	2
 654              		.p2align 4,,15
 655              		.global	can_lld_start
 656              		.thumb
 657              		.thumb_func
 658              		.type	can_lld_start, %function
 659              	can_lld_start:
 660              	.LFB128:
 661              		.loc 1 402 0
 662              		.cfi_startproc
 663              		@ args = 0, pretend = 0, frame = 0
 664              		@ frame_needed = 0, uses_anonymous_args = 0
 665              	.LVL44:
 666              		.loc 1 406 0
 667 0000 194B     		ldr	r3, .L82
 668 0002 9842     		cmp	r0, r3
 669              		.loc 1 402 0
 670 0004 10B5     		push	{r4, lr}
 671              		.cfi_def_cfa_offset 8
 672              		.cfi_offset 4, -8
 673              		.cfi_offset 14, -4
 674              		.loc 1 402 0
 675 0006 0446     		mov	r4, r0
 676              		.loc 1 406 0
 677 0008 17D0     		beq	.L81
 678              	.LVL45:
 679              	.L78:
 680              		.loc 1 438 0
 681 000a 636B     		ldr	r3, [r4, #52]
ARM GAS  C:\Users\jsyoon\AppData\Local\Temp\ccr5RSvc.s 			page 13


 682              		.loc 1 437 0
 683 000c 0221     		movs	r1, #2
 684              		.loc 1 438 0
 685 000e 0122     		movs	r2, #1
 686              		.loc 1 437 0
 687 0010 2170     		strb	r1, [r4]
 688              		.loc 1 438 0
 689 0012 1A60     		str	r2, [r3]
 690              		.loc 1 439 0
 691 0014 5A68     		ldr	r2, [r3, #4]
 692 0016 D107     		lsls	r1, r2, #31
 693 0018 07D4     		bmi	.L79
 694              	.L80:
 695              		.loc 1 440 0
 696 001a 0620     		movs	r0, #6
 697 001c 0121     		movs	r1, #1
 698 001e FFF7FEFF 		bl	chSchGoSleepTimeoutS
 699              	.LVL46:
 700              		.loc 1 439 0
 701 0022 636B     		ldr	r3, [r4, #52]
 702 0024 5A68     		ldr	r2, [r3, #4]
 703 0026 D207     		lsls	r2, r2, #31
 704 0028 F7D5     		bpl	.L80
 705              	.L79:
 706              		.loc 1 442 0
 707 002a 6268     		ldr	r2, [r4, #4]
 708              		.loc 1 447 0
 709 002c 0F49     		ldr	r1, .L82+4
 710              		.loc 1 442 0
 711 002e 5068     		ldr	r0, [r2, #4]
 712              		.loc 1 444 0
 713 0030 1268     		ldr	r2, [r2]
 714              		.loc 1 442 0
 715 0032 D861     		str	r0, [r3, #28]
 716              		.loc 1 444 0
 717 0034 1A60     		str	r2, [r3]
 718              		.loc 1 447 0
 719 0036 5961     		str	r1, [r3, #20]
 720 0038 10BD     		pop	{r4, pc}
 721              	.LVL47:
 722              	.L81:
 723              		.loc 1 407 0
 724 003a 1320     		movs	r0, #19
 725              	.LVL48:
 726 003c B021     		movs	r1, #176
 727 003e FFF7FEFF 		bl	nvicEnableVector
 728              	.LVL49:
 729              		.loc 1 409 0
 730 0042 1420     		movs	r0, #20
 731 0044 B021     		movs	r1, #176
 732 0046 FFF7FEFF 		bl	nvicEnableVector
 733              	.LVL50:
 734              		.loc 1 411 0
 735 004a 1520     		movs	r0, #21
 736 004c B021     		movs	r1, #176
 737 004e FFF7FEFF 		bl	nvicEnableVector
 738              	.LVL51:
ARM GAS  C:\Users\jsyoon\AppData\Local\Temp\ccr5RSvc.s 			page 14


 739              		.loc 1 413 0
 740 0052 1620     		movs	r0, #22
 741 0054 B021     		movs	r1, #176
 742 0056 FFF7FEFF 		bl	nvicEnableVector
 743              	.LVL52:
 744              		.loc 1 415 0
 745 005a 054B     		ldr	r3, .L82+8
 746 005c 1A6C     		ldr	r2, [r3, #64]
 747 005e 42F00072 		orr	r2, r2, #33554432
 748 0062 1A64     		str	r2, [r3, #64]
 749 0064 D1E7     		b	.L78
 750              	.L83:
 751 0066 00BF     		.align	2
 752              	.L82:
 753 0068 00000000 		.word	.LANCHOR0
 754 006c 5B8F0100 		.word	102235
 755 0070 00380240 		.word	1073887232
 756              		.cfi_endproc
 757              	.LFE128:
 758              		.size	can_lld_start, .-can_lld_start
 759 0074 AFF30080 		.section	.text.can_lld_stop,"ax",%progbits
 759      AFF30080 
 759      AFF30080 
 760              		.align	2
 761              		.p2align 4,,15
 762              		.global	can_lld_stop
 763              		.thumb
 764              		.thumb_func
 765              		.type	can_lld_stop, %function
 766              	can_lld_stop:
 767              	.LFB129:
 768              		.loc 1 460 0
 769              		.cfi_startproc
 770              		@ args = 0, pretend = 0, frame = 0
 771              		@ frame_needed = 0, uses_anonymous_args = 0
 772              	.LVL53:
 773 0000 08B5     		push	{r3, lr}
 774              		.cfi_def_cfa_offset 8
 775              		.cfi_offset 3, -8
 776              		.cfi_offset 14, -4
 777              		.loc 1 463 0
 778 0002 0378     		ldrb	r3, [r0]	@ zero_extendqisi2
 779 0004 032B     		cmp	r3, #3
 780 0006 00D0     		beq	.L86
 781              	.LVL54:
 782              	.L84:
 783 0008 08BD     		pop	{r3, pc}
 784              	.LVL55:
 785              	.L86:
 786              		.loc 1 465 0
 787 000a 0D4B     		ldr	r3, .L87
 788 000c 9842     		cmp	r0, r3
 789 000e FBD1     		bne	.L84
 790              		.loc 1 472 0
 791 0010 0C4B     		ldr	r3, .L87+4
 792 0012 0D4A     		ldr	r2, .L87+8
 793 0014 1A60     		str	r2, [r3]
ARM GAS  C:\Users\jsyoon\AppData\Local\Temp\ccr5RSvc.s 			page 15


 794              		.loc 1 473 0
 795 0016 0022     		movs	r2, #0
 796 0018 5A61     		str	r2, [r3, #20]
 797              		.loc 1 474 0
 798 001a 1320     		movs	r0, #19
 799              	.LVL56:
 800 001c FFF7FEFF 		bl	nvicDisableVector
 801              	.LVL57:
 802              		.loc 1 475 0
 803 0020 1420     		movs	r0, #20
 804 0022 FFF7FEFF 		bl	nvicDisableVector
 805              	.LVL58:
 806              		.loc 1 476 0
 807 0026 1520     		movs	r0, #21
 808 0028 FFF7FEFF 		bl	nvicDisableVector
 809              	.LVL59:
 810              		.loc 1 477 0
 811 002c 1620     		movs	r0, #22
 812 002e FFF7FEFF 		bl	nvicDisableVector
 813              	.LVL60:
 814              		.loc 1 478 0
 815 0032 064B     		ldr	r3, .L87+12
 816 0034 1A6C     		ldr	r2, [r3, #64]
 817 0036 22F00072 		bic	r2, r2, #33554432
 818 003a 1A64     		str	r2, [r3, #64]
 819 003c E4E7     		b	.L84
 820              	.L88:
 821 003e 00BF     		.align	2
 822              	.L87:
 823 0040 00000000 		.word	.LANCHOR0
 824 0044 00640040 		.word	1073767424
 825 0048 02000100 		.word	65538
 826 004c 00380240 		.word	1073887232
 827              		.cfi_endproc
 828              	.LFE129:
 829              		.size	can_lld_stop, .-can_lld_stop
 830              		.section	.text.can_lld_is_tx_empty,"ax",%progbits
 831              		.align	2
 832              		.p2align 4,,15
 833              		.global	can_lld_is_tx_empty
 834              		.thumb
 835              		.thumb_func
 836              		.type	can_lld_is_tx_empty, %function
 837              	can_lld_is_tx_empty:
 838              	.LFB130:
 839              		.loc 1 507 0
 840              		.cfi_startproc
 841              		@ args = 0, pretend = 0, frame = 0
 842              		@ frame_needed = 0, uses_anonymous_args = 0
 843              		@ link register save eliminated.
 844              	.LVL61:
 845              		.loc 1 509 0
 846 0000 0329     		cmp	r1, #3
 847 0002 1AD8     		bhi	.L96
 848 0004 DFE801F0 		tbb	[pc, r1]
 849              	.L92:
 850 0008 11       		.byte	(.L91-.L92)/2
ARM GAS  C:\Users\jsyoon\AppData\Local\Temp\ccr5RSvc.s 			page 16


 851 0009 0C       		.byte	(.L93-.L92)/2
 852 000a 07       		.byte	(.L94-.L92)/2
 853 000b 02       		.byte	(.L95-.L92)/2
 854              		.p2align 1
 855              	.L95:
 856              		.loc 1 517 0
 857 000c 436B     		ldr	r3, [r0, #52]
 858 000e 9868     		ldr	r0, [r3, #8]
 859              	.LVL62:
 860 0010 C0F30070 		ubfx	r0, r0, #28, #1
 861 0014 7047     		bx	lr
 862              	.LVL63:
 863              	.L94:
 864              		.loc 1 515 0
 865 0016 436B     		ldr	r3, [r0, #52]
 866 0018 9868     		ldr	r0, [r3, #8]
 867              	.LVL64:
 868 001a C0F3C060 		ubfx	r0, r0, #27, #1
 869 001e 7047     		bx	lr
 870              	.LVL65:
 871              	.L93:
 872              		.loc 1 513 0
 873 0020 436B     		ldr	r3, [r0, #52]
 874 0022 9868     		ldr	r0, [r3, #8]
 875              	.LVL66:
 876 0024 C0F38060 		ubfx	r0, r0, #26, #1
 877 0028 7047     		bx	lr
 878              	.LVL67:
 879              	.L91:
 880              		.loc 1 511 0
 881 002a 436B     		ldr	r3, [r0, #52]
 882 002c 9B68     		ldr	r3, [r3, #8]
 883 002e 13F0E05F 		tst	r3, #469762048
 884 0032 0CBF     		ite	eq
 885 0034 0020     		moveq	r0, #0
 886 0036 0120     		movne	r0, #1
 887              	.LVL68:
 888 0038 7047     		bx	lr
 889              	.LVL69:
 890              	.L96:
 891              		.loc 1 519 0
 892 003a 0020     		movs	r0, #0
 893              	.LVL70:
 894              		.loc 1 521 0
 895 003c 7047     		bx	lr
 896              		.cfi_endproc
 897              	.LFE130:
 898              		.size	can_lld_is_tx_empty, .-can_lld_is_tx_empty
 899 003e 00BF     		.section	.text.can_lld_transmit,"ax",%progbits
 900              		.align	2
 901              		.p2align 4,,15
 902              		.global	can_lld_transmit
 903              		.thumb
 904              		.thumb_func
 905              		.type	can_lld_transmit, %function
 906              	can_lld_transmit:
 907              	.LFB131:
ARM GAS  C:\Users\jsyoon\AppData\Local\Temp\ccr5RSvc.s 			page 17


 908              		.loc 1 534 0
 909              		.cfi_startproc
 910              		@ args = 0, pretend = 0, frame = 0
 911              		@ frame_needed = 0, uses_anonymous_args = 0
 912              		@ link register save eliminated.
 913              	.LVL71:
 914 0000 10B4     		push	{r4}
 915              		.cfi_def_cfa_offset 4
 916              		.cfi_offset 4, -4
 917              		.loc 1 539 0
 918 0002 0329     		cmp	r1, #3
 919 0004 1BD8     		bhi	.L97
 920 0006 DFE801F0 		tbb	[pc, r1]
 921              	.L100:
 922 000a 2E       		.byte	(.L99-.L100)/2
 923 000b 2A       		.byte	(.L101-.L100)/2
 924 000c 1D       		.byte	(.L102-.L100)/2
 925 000d 02       		.byte	(.L103-.L100)/2
 926              		.p2align 1
 927              	.L103:
 928              		.loc 1 550 0
 929 000e 436B     		ldr	r3, [r0, #52]
 930 0010 03F5D073 		add	r3, r3, #416
 931              	.LVL72:
 932              	.L104:
 933              		.loc 1 557 0
 934 0014 1178     		ldrb	r1, [r2]	@ zero_extendqisi2
 935 0016 8806     		lsls	r0, r1, #26
 936              	.LVL73:
 937 0018 1AD5     		bpl	.L105
 938              	.L107:
 939              		.loc 1 558 0
 940 001a C1F30010 		ubfx	r0, r1, #4, #1
 941 001e 5468     		ldr	r4, [r2, #4]
 942 0020 4000     		lsls	r0, r0, #1
 943 0022 40EAC400 		orr	r0, r0, r4, lsl #3
 944 0026 40F00400 		orr	r0, r0, #4
 945              	.LVL74:
 946              	.L106:
 947              		.loc 1 562 0
 948 002a 01F00F01 		and	r1, r1, #15
 949 002e 5960     		str	r1, [r3, #4]
 950              		.loc 1 563 0
 951 0030 9168     		ldr	r1, [r2, #8]
 952 0032 9960     		str	r1, [r3, #8]
 953              		.loc 1 564 0
 954 0034 D268     		ldr	r2, [r2, #12]
 955              	.LVL75:
 956 0036 DA60     		str	r2, [r3, #12]
 957              		.loc 1 565 0
 958 0038 40F00101 		orr	r1, r0, #1
 959 003c 1960     		str	r1, [r3]
 960              	.LVL76:
 961              	.L97:
 962              		.loc 1 566 0
 963 003e 5DF8044B 		ldr	r4, [sp], #4
 964 0042 7047     		bx	lr
ARM GAS  C:\Users\jsyoon\AppData\Local\Temp\ccr5RSvc.s 			page 18


 965              	.LVL77:
 966              	.L102:
 967              		.loc 1 557 0
 968 0044 1178     		ldrb	r1, [r2]	@ zero_extendqisi2
 969              	.LVL78:
 970              		.loc 1 547 0
 971 0046 436B     		ldr	r3, [r0, #52]
 972              		.loc 1 557 0
 973 0048 8806     		lsls	r0, r1, #26
 974              	.LVL79:
 975              		.loc 1 547 0
 976 004a 03F5C873 		add	r3, r3, #400
 977              	.LVL80:
 978              		.loc 1 557 0
 979 004e E4D4     		bmi	.L107
 980              	.L105:
 981              		.loc 1 561 0
 982 0050 9488     		ldrh	r4, [r2, #4]
 983 0052 C1F30010 		ubfx	r0, r1, #4, #1
 984 0056 6405     		lsls	r4, r4, #21
 985 0058 44EA4000 		orr	r0, r4, r0, lsl #1
 986              	.LVL81:
 987 005c E5E7     		b	.L106
 988              	.LVL82:
 989              	.L101:
 990              		.loc 1 544 0
 991 005e 436B     		ldr	r3, [r0, #52]
 992 0060 03F5C073 		add	r3, r3, #384
 993              	.LVL83:
 994              		.loc 1 545 0
 995 0064 D6E7     		b	.L104
 996              	.LVL84:
 997              	.L99:
 998              		.loc 1 541 0
 999 0066 416B     		ldr	r1, [r0, #52]
 1000              	.LVL85:
 1001 0068 8B68     		ldr	r3, [r1, #8]
 1002 006a C3F30163 		ubfx	r3, r3, #24, #2
 1003 006e 1833     		adds	r3, r3, #24
 1004 0070 01EB0313 		add	r3, r1, r3, lsl #4
 1005              	.LVL86:
 1006              		.loc 1 542 0
 1007 0074 CEE7     		b	.L104
 1008              		.cfi_endproc
 1009              	.LFE131:
 1010              		.size	can_lld_transmit, .-can_lld_transmit
 1011 0076 00BFAFF3 		.section	.text.can_lld_is_rx_nonempty,"ax",%progbits
 1011      0080AFF3 
 1011      0080
 1012              		.align	2
 1013              		.p2align 4,,15
 1014              		.global	can_lld_is_rx_nonempty
 1015              		.thumb
 1016              		.thumb_func
 1017              		.type	can_lld_is_rx_nonempty, %function
 1018              	can_lld_is_rx_nonempty:
 1019              	.LFB132:
ARM GAS  C:\Users\jsyoon\AppData\Local\Temp\ccr5RSvc.s 			page 19


 1020              		.loc 1 580 0
 1021              		.cfi_startproc
 1022              		@ args = 0, pretend = 0, frame = 0
 1023              		@ frame_needed = 0, uses_anonymous_args = 0
 1024              		@ link register save eliminated.
 1025              	.LVL87:
 1026              		.loc 1 582 0
 1027 0000 0129     		cmp	r1, #1
 1028 0002 11D0     		beq	.L110
 1029 0004 0AD3     		bcc	.L111
 1030 0006 0229     		cmp	r1, #2
 1031 0008 06D1     		bne	.L118
 1032              		.loc 1 589 0
 1033 000a 436B     		ldr	r3, [r0, #52]
 1034              	.L117:
 1035 000c 1869     		ldr	r0, [r3, #16]
 1036              	.LVL88:
 1037 000e 10F00300 		ands	r0, r0, #3
 1038 0012 18BF     		it	ne
 1039 0014 0120     		movne	r0, #1
 1040 0016 7047     		bx	lr
 1041              	.LVL89:
 1042              	.L118:
 1043              		.loc 1 591 0
 1044 0018 0020     		movs	r0, #0
 1045              	.LVL90:
 1046              		.loc 1 593 0
 1047 001a 7047     		bx	lr
 1048              	.LVL91:
 1049              	.L111:
 1050              		.loc 1 584 0
 1051 001c 436B     		ldr	r3, [r0, #52]
 1052 001e DA68     		ldr	r2, [r3, #12]
 1053 0020 9207     		lsls	r2, r2, #30
 1054 0022 F3D0     		beq	.L117
 1055 0024 0120     		movs	r0, #1
 1056              	.LVL92:
 1057 0026 7047     		bx	lr
 1058              	.LVL93:
 1059              	.L110:
 1060              		.loc 1 587 0
 1061 0028 436B     		ldr	r3, [r0, #52]
 1062 002a D868     		ldr	r0, [r3, #12]
 1063              	.LVL94:
 1064 002c 10F00300 		ands	r0, r0, #3
 1065 0030 18BF     		it	ne
 1066 0032 0120     		movne	r0, #1
 1067 0034 7047     		bx	lr
 1068              		.cfi_endproc
 1069              	.LFE132:
 1070              		.size	can_lld_is_rx_nonempty, .-can_lld_is_rx_nonempty
 1071 0036 00BFAFF3 		.section	.text.can_lld_receive,"ax",%progbits
 1071      0080AFF3 
 1071      0080
 1072              		.align	2
 1073              		.p2align 4,,15
 1074              		.global	can_lld_receive
ARM GAS  C:\Users\jsyoon\AppData\Local\Temp\ccr5RSvc.s 			page 20


 1075              		.thumb
 1076              		.thumb_func
 1077              		.type	can_lld_receive, %function
 1078              	can_lld_receive:
 1079              	.LFB133:
 1080              		.loc 1 606 0
 1081              		.cfi_startproc
 1082              		@ args = 0, pretend = 0, frame = 0
 1083              		@ frame_needed = 0, uses_anonymous_args = 0
 1084              		@ link register save eliminated.
 1085              	.LVL95:
 1086 0000 10B4     		push	{r4}
 1087              		.cfi_def_cfa_offset 4
 1088              		.cfi_offset 4, -4
 1089              		.loc 1 609 0
 1090 0002 0029     		cmp	r1, #0
 1091 0004 30D1     		bne	.L120
 1092              		.loc 1 610 0
 1093 0006 436B     		ldr	r3, [r0, #52]
 1094 0008 D968     		ldr	r1, [r3, #12]
 1095              	.LVL96:
 1096 000a 8907     		lsls	r1, r1, #30
 1097 000c 33D0     		beq	.L129
 1098              	.L121:
 1099              	.LVL97:
 1100              		.loc 1 622 0
 1101 000e D3F8B041 		ldr	r4, [r3, #432]
 1102              	.LVL98:
 1103              		.loc 1 623 0
 1104 0012 D3F8B411 		ldr	r1, [r3, #436]
 1105              	.LVL99:
 1106              		.loc 1 624 0
 1107 0016 D3F8B831 		ldr	r3, [r3, #440]
 1108 001a D360     		str	r3, [r2, #12]
 1109              		.loc 1 625 0
 1110 001c 436B     		ldr	r3, [r0, #52]
 1111 001e D3F8BC31 		ldr	r3, [r3, #444]
 1112 0022 1361     		str	r3, [r2, #16]
 1113              		.loc 1 628 0
 1114 0024 436B     		ldr	r3, [r0, #52]
 1115 0026 2020     		movs	r0, #32
 1116              	.LVL100:
 1117 0028 D860     		str	r0, [r3, #12]
 1118              		.loc 1 632 0
 1119 002a D868     		ldr	r0, [r3, #12]
 1120 002c 8007     		lsls	r0, r0, #30
 1121 002e 41D0     		beq	.L130
 1122              	.L126:
 1123              		.loc 1 656 0
 1124 0030 1079     		ldrb	r0, [r2, #4]	@ zero_extendqisi2
 1125 0032 C4F34003 		ubfx	r3, r4, #1, #1
 1126 0036 63F30410 		bfi	r0, r3, #4, #1
 1127              		.loc 1 657 0
 1128 003a C4F38003 		ubfx	r3, r4, #2, #1
 1129 003e 63F34510 		bfi	r0, r3, #5, #1
 1130 0042 1071     		strb	r0, [r2, #4]
 1131              		.loc 1 658 0
ARM GAS  C:\Users\jsyoon\AppData\Local\Temp\ccr5RSvc.s 			page 21


 1132 0044 002B     		cmp	r3, #0
 1133 0046 2FD0     		beq	.L127
 1134              		.loc 1 659 0
 1135 0048 9368     		ldr	r3, [r2, #8]
 1136 004a E408     		lsrs	r4, r4, #3
 1137              	.LVL101:
 1138 004c 64F31C03 		bfi	r3, r4, #0, #29
 1139 0050 9360     		str	r3, [r2, #8]
 1140              	.L128:
 1141              		.loc 1 662 0
 1142 0052 1379     		ldrb	r3, [r2, #4]	@ zero_extendqisi2
 1143              		.loc 1 665 0
 1144 0054 5DF8044B 		ldr	r4, [sp], #4
 1145              		.loc 1 663 0
 1146 0058 080A     		lsrs	r0, r1, #8
 1147              		.loc 1 662 0
 1148 005a 61F30303 		bfi	r3, r1, #0, #4
 1149              		.loc 1 664 0
 1150 005e 090C     		lsrs	r1, r1, #16
 1151              	.LVL102:
 1152              		.loc 1 662 0
 1153 0060 1371     		strb	r3, [r2, #4]
 1154              		.loc 1 663 0
 1155 0062 1070     		strb	r0, [r2]
 1156              		.loc 1 664 0
 1157 0064 5180     		strh	r1, [r2, #2]	@ movhi
 1158              		.loc 1 665 0
 1159 0066 7047     		bx	lr
 1160              	.LVL103:
 1161              	.L120:
 1162              		.loc 1 619 0
 1163 0068 0129     		cmp	r1, #1
 1164 006a 28D0     		beq	.L124
 1165 006c 0229     		cmp	r1, #2
 1166 006e 28D0     		beq	.L131
 1167              	.LVL104:
 1168              	.L119:
 1169              		.loc 1 665 0
 1170 0070 5DF8044B 		ldr	r4, [sp], #4
 1171 0074 7047     		bx	lr
 1172              	.L129:
 1173              		.loc 1 612 0
 1174 0076 1969     		ldr	r1, [r3, #16]
 1175 0078 8C07     		lsls	r4, r1, #30
 1176 007a F9D0     		beq	.L119
 1177              	.L122:
 1178              	.LVL105:
 1179              		.loc 1 637 0
 1180 007c D3F8C041 		ldr	r4, [r3, #448]
 1181              	.LVL106:
 1182              		.loc 1 638 0
 1183 0080 D3F8C411 		ldr	r1, [r3, #452]
 1184              	.LVL107:
 1185              		.loc 1 639 0
 1186 0084 D3F8C831 		ldr	r3, [r3, #456]
 1187 0088 D360     		str	r3, [r2, #12]
 1188              		.loc 1 640 0
ARM GAS  C:\Users\jsyoon\AppData\Local\Temp\ccr5RSvc.s 			page 22


 1189 008a 436B     		ldr	r3, [r0, #52]
 1190 008c D3F8CC31 		ldr	r3, [r3, #460]
 1191 0090 1361     		str	r3, [r2, #16]
 1192              		.loc 1 643 0
 1193 0092 436B     		ldr	r3, [r0, #52]
 1194 0094 2020     		movs	r0, #32
 1195              	.LVL108:
 1196 0096 1861     		str	r0, [r3, #16]
 1197              		.loc 1 647 0
 1198 0098 1869     		ldr	r0, [r3, #16]
 1199 009a 8007     		lsls	r0, r0, #30
 1200 009c C8D1     		bne	.L126
 1201              		.loc 1 648 0
 1202 009e 5869     		ldr	r0, [r3, #20]
 1203 00a0 40F01000 		orr	r0, r0, #16
 1204 00a4 5861     		str	r0, [r3, #20]
 1205 00a6 C3E7     		b	.L126
 1206              	.L127:
 1207              		.loc 1 661 0
 1208 00a8 1389     		ldrh	r3, [r2, #8]
 1209 00aa 640D     		lsrs	r4, r4, #21
 1210              	.LVL109:
 1211 00ac 64F30A03 		bfi	r3, r4, #0, #11
 1212 00b0 1381     		strh	r3, [r2, #8]	@ movhi
 1213 00b2 CEE7     		b	.L128
 1214              	.LVL110:
 1215              	.L130:
 1216              		.loc 1 633 0
 1217 00b4 5869     		ldr	r0, [r3, #20]
 1218 00b6 40F00200 		orr	r0, r0, #2
 1219 00ba 5861     		str	r0, [r3, #20]
 1220 00bc B8E7     		b	.L126
 1221              	.LVL111:
 1222              	.L124:
 1223 00be 436B     		ldr	r3, [r0, #52]
 1224 00c0 A5E7     		b	.L121
 1225              	.L131:
 1226 00c2 436B     		ldr	r3, [r0, #52]
 1227 00c4 DAE7     		b	.L122
 1228              		.cfi_endproc
 1229              	.LFE133:
 1230              		.size	can_lld_receive, .-can_lld_receive
 1231 00c6 00BFAFF3 		.section	.text.can_lld_sleep,"ax",%progbits
 1231      0080AFF3 
 1231      0080
 1232              		.align	2
 1233              		.p2align 4,,15
 1234              		.global	can_lld_sleep
 1235              		.thumb
 1236              		.thumb_func
 1237              		.type	can_lld_sleep, %function
 1238              	can_lld_sleep:
 1239              	.LFB134:
 1240              		.loc 1 675 0
 1241              		.cfi_startproc
 1242              		@ args = 0, pretend = 0, frame = 0
 1243              		@ frame_needed = 0, uses_anonymous_args = 0
ARM GAS  C:\Users\jsyoon\AppData\Local\Temp\ccr5RSvc.s 			page 23


 1244              		@ link register save eliminated.
 1245              	.LVL112:
 1246              		.loc 1 677 0
 1247 0000 436B     		ldr	r3, [r0, #52]
 1248 0002 1A68     		ldr	r2, [r3]
 1249 0004 42F00202 		orr	r2, r2, #2
 1250 0008 1A60     		str	r2, [r3]
 1251 000a 7047     		bx	lr
 1252              		.cfi_endproc
 1253              	.LFE134:
 1254              		.size	can_lld_sleep, .-can_lld_sleep
 1255 000c AFF30080 		.section	.text.can_lld_wakeup,"ax",%progbits
 1256              		.align	2
 1257              		.p2align 4,,15
 1258              		.global	can_lld_wakeup
 1259              		.thumb
 1260              		.thumb_func
 1261              		.type	can_lld_wakeup, %function
 1262              	can_lld_wakeup:
 1263              	.LFB135:
 1264              		.loc 1 687 0
 1265              		.cfi_startproc
 1266              		@ args = 0, pretend = 0, frame = 0
 1267              		@ frame_needed = 0, uses_anonymous_args = 0
 1268              		@ link register save eliminated.
 1269              	.LVL113:
 1270              		.loc 1 689 0
 1271 0000 436B     		ldr	r3, [r0, #52]
 1272 0002 1A68     		ldr	r2, [r3]
 1273 0004 22F00202 		bic	r2, r2, #2
 1274 0008 1A60     		str	r2, [r3]
 1275 000a 7047     		bx	lr
 1276              		.cfi_endproc
 1277              	.LFE135:
 1278              		.size	can_lld_wakeup, .-can_lld_wakeup
 1279 000c AFF30080 		.section	.text.canSTM32SetFilters,"ax",%progbits
 1280              		.align	2
 1281              		.p2align 4,,15
 1282              		.global	canSTM32SetFilters
 1283              		.thumb
 1284              		.thumb_func
 1285              		.type	canSTM32SetFilters, %function
 1286              	canSTM32SetFilters:
 1287              	.LFB136:
 1288              		.loc 1 705 0
 1289              		.cfi_startproc
 1290              		@ args = 0, pretend = 0, frame = 0
 1291              		@ frame_needed = 0, uses_anonymous_args = 0
 1292              		@ link register save eliminated.
 1293              	.LVL114:
 1294              		.loc 1 720 0
 1295 0000 FFF7FEBF 		b	can_lld_set_filters
 1296              	.LVL115:
 1297              		.cfi_endproc
 1298              	.LFE136:
 1299              		.size	canSTM32SetFilters, .-canSTM32SetFilters
 1300              		.global	CAND1
ARM GAS  C:\Users\jsyoon\AppData\Local\Temp\ccr5RSvc.s 			page 24


 1301 0004 AFF30080 		.section	.bss.CAND1,"aw",%nobits
 1301      AFF30080 
 1301      AFF30080 
 1302              		.align	2
 1303              		.set	.LANCHOR0,. + 0
 1304              		.type	CAND1, %object
 1305              		.size	CAND1, 56
 1306              	CAND1:
 1307 0000 00000000 		.space	56
 1307      00000000 
 1307      00000000 
 1307      00000000 
 1307      00000000 
 1308              		.text
 1309              	.Letext0:
 1310              		.file 2 "c:\\crosstools\\gcc-arm-embedded\\4.8_2014q2\\arm-none-eabi\\include\\machine\\_default_t
 1311              		.file 3 "c:\\crosstools\\gcc-arm-embedded\\4.8_2014q2\\arm-none-eabi\\include\\stdint.h"
 1312              		.file 4 "ChibiOS_2.6.6/os/ports/GCC/ARMCMx/chtypes.h"
 1313              		.file 5 "ChibiOS_2.6.6/os/kernel/include/chlists.h"
 1314              		.file 6 "ChibiOS_2.6.6/os/kernel/include/chthreads.h"
 1315              		.file 7 "ChibiOS_2.6.6/os/ports/GCC/ARMCMx/chcore_v7m.h"
 1316              		.file 8 "ChibiOS_2.6.6/os/kernel/include/chsem.h"
 1317              		.file 9 "ChibiOS_2.6.6/os/kernel/include/chmtx.h"
 1318              		.file 10 "ChibiOS_2.6.6/os/kernel/include/chevents.h"
 1319              		.file 11 "ChibiOS_2.6.6/os/hal/platforms/STM32F4xx/stm32f4xx.h"
 1320              		.file 12 "ChibiOS_2.6.6/os/hal/include/can.h"
 1321              		.file 13 "ChibiOS_2.6.6/os/hal/platforms/STM32/can_lld.h"
 1322              		.file 14 "ChibiOS_2.6.6/os/ports/common/ARMCMx/CMSIS/include/core_cm4.h"
 1323              		.file 15 "ChibiOS_2.6.6/os/ports/common/ARMCMx/nvic.h"
 1324              		.file 16 "ChibiOS_2.6.6/os/kernel/include/chschd.h"