ARM GAS  C:\Users\jsyoon\AppData\Local\Temp\ccycfEHF.s 			page 1


   1              		.syntax unified
   2              		.cpu cortex-m4
   3              		.eabi_attribute 27, 3
   4              		.eabi_attribute 28, 1
   5              		.fpu fpv4-sp-d16
   6              		.eabi_attribute 20, 1
   7              		.eabi_attribute 21, 1
   8              		.eabi_attribute 23, 3
   9              		.eabi_attribute 24, 1
  10              		.eabi_attribute 25, 1
  11              		.eabi_attribute 26, 1
  12              		.eabi_attribute 30, 2
  13              		.eabi_attribute 34, 1
  14              		.eabi_attribute 18, 4
  15              		.thumb
  16              		.file	"chcore_v7m.c"
  17              		.text
  18              	.Ltext0:
  19              		.cfi_sections	.debug_frame
  20              		.section	.text._port_switch_from_isr,"ax",%progbits
  21              		.align	2
  22              		.p2align 4,,15
  23              		.global	_port_switch_from_isr
  24              		.thumb
  25              		.thumb_func
  26              		.type	_port_switch_from_isr, %function
  27              	_port_switch_from_isr:
  28              	.LFB11:
  29              		.file 1 "ChibiOS_2.6.6/os/ports/GCC/ARMCMx/chcore_v7m.c"
  30              		.loc 1 200 0
  31              		.cfi_startproc
  32              		@ Naked Function: prologue and epilogue provided by programmer.
  33              		@ Volatile: function does not return.
  34              		@ args = 0, pretend = 0, frame = 0
  35              		@ frame_needed = 0, uses_anonymous_args = 0
  36              		.loc 1 203 0
  37 0000 FFF7FEFF 		bl	chSchDoReschedule
  38              	.LVL0:
  39              		.loc 1 205 0
  40              	@ 205 "ChibiOS_2.6.6/os/ports/GCC/ARMCMx/chcore_v7m.c" 1
  41              		_port_exit_from_isr:
  42              	@ 0 "" 2
  43              		.loc 1 209 0
  44              		.thumb
  45 0004 024B     		ldr	r3, .L4
  46 0006 4FF08052 		mov	r2, #268435456
  47 000a 5A60     		str	r2, [r3, #4]
  48              		.loc 1 210 0
  49              	@ 210 "ChibiOS_2.6.6/os/ports/GCC/ARMCMx/chcore_v7m.c" 1
  50 000c 62B6     		cpsie   i
  51              	@ 0 "" 2
  52              		.thumb
  53              	.L2:
  54 000e FEE7     		b	.L2
  55              	.L5:
  56              		.align	2
  57              	.L4:
ARM GAS  C:\Users\jsyoon\AppData\Local\Temp\ccycfEHF.s 			page 2


  58 0010 00ED00E0 		.word	-536810240
  59              		.cfi_endproc
  60              	.LFE11:
  61              		.size	_port_switch_from_isr, .-_port_switch_from_isr
  62 0014 AFF30080 		.section	.text.PendSVVector,"ax",%progbits
  62      AFF30080 
  62      AFF30080 
  63              		.align	2
  64              		.p2align 4,,15
  65              		.global	PendSVVector
  66              		.thumb
  67              		.thumb_func
  68              		.type	PendSVVector, %function
  69              	PendSVVector:
  70              	.LFB8:
  71              		.loc 1 93 0
  72              		.cfi_startproc
  73              		@ args = 0, pretend = 0, frame = 0
  74              		@ frame_needed = 0, uses_anonymous_args = 0
  75              		@ link register save eliminated.
  76              		.loc 1 98 0
  77 0000 054B     		ldr	r3, .L7
  78 0002 5A68     		ldr	r2, [r3, #4]
  79 0004 22F00102 		bic	r2, r2, #1
  80 0008 5A60     		str	r2, [r3, #4]
  81              		.loc 1 102 0
  82              	@ 102 "ChibiOS_2.6.6/os/ports/GCC/ARMCMx/chcore_v7m.c" 1
  83 000a EFF30983 		mrs     r3, PSP
  84              	@ 0 "" 2
  85              	.LVL1:
  86              		.loc 1 106 0
  87              		.thumb
  88 000e 6833     		adds	r3, r3, #104
  89              	.LVL2:
  90              		.loc 1 109 0
  91              	@ 109 "ChibiOS_2.6.6/os/ports/GCC/ARMCMx/chcore_v7m.c" 1
  92 0010 83F30988 		msr     PSP, r3
  93              	@ 0 "" 2
  94              		.thumb
  95 0014 7047     		bx	lr
  96              	.L8:
  97 0016 00BF     		.align	2
  98              	.L7:
  99 0018 30EF00E0 		.word	-536809680
 100              		.cfi_endproc
 101              	.LFE8:
 102              		.size	PendSVVector, .-PendSVVector
 103 001c AFF30080 		.section	.text._port_init,"ax",%progbits
 104              		.align	2
 105              		.p2align 4,,15
 106              		.global	_port_init
 107              		.thumb
 108              		.thumb_func
 109              		.type	_port_init, %function
 110              	_port_init:
 111              	.LFB9:
 112              		.loc 1 120 0
ARM GAS  C:\Users\jsyoon\AppData\Local\Temp\ccycfEHF.s 			page 3


 113              		.cfi_startproc
 114              		@ args = 0, pretend = 0, frame = 0
 115              		@ frame_needed = 0, uses_anonymous_args = 0
 116 0000 08B5     		push	{r3, lr}
 117              		.cfi_def_cfa_offset 8
 118              		.cfi_offset 3, -8
 119              		.cfi_offset 14, -4
 120              		.loc 1 123 0
 121 0002 094B     		ldr	r3, .L10
 122              		.loc 1 124 0
 123 0004 094A     		ldr	r2, .L10+4
 124              		.loc 1 123 0
 125 0006 0021     		movs	r1, #0
 126 0008 9960     		str	r1, [r3, #8]
 127              		.loc 1 127 0
 128 000a 0720     		movs	r0, #7
 129              		.loc 1 124 0
 130 000c DA60     		str	r2, [r3, #12]
 131              		.loc 1 127 0
 132 000e 1021     		movs	r1, #16
 133 0010 FFF7FEFF 		bl	nvicSetSystemHandlerPriority
 134              	.LVL3:
 135              		.loc 1 129 0
 136 0014 0A20     		movs	r0, #10
 137 0016 1021     		movs	r1, #16
 138 0018 FFF7FEFF 		bl	nvicSetSystemHandlerPriority
 139              	.LVL4:
 140              		.loc 1 131 0
 141 001c 0B20     		movs	r0, #11
 142 001e 8021     		movs	r1, #128
 143              		.loc 1 133 0
 144 0020 BDE80840 		pop	{r3, lr}
 145              		.loc 1 131 0
 146 0024 FFF7FEBF 		b	nvicSetSystemHandlerPriority
 147              	.LVL5:
 148              	.L11:
 149              		.align	2
 150              	.L10:
 151 0028 00ED00E0 		.word	-536810240
 152 002c 0003FA05 		.word	100270848
 153              		.cfi_endproc
 154              	.LFE9:
 155              		.size	_port_init, .-_port_init
 156              		.section	.text._port_irq_epilogue,"ax",%progbits
 157              		.align	2
 158              		.p2align 4,,15
 159              		.global	_port_irq_epilogue
 160              		.thumb
 161              		.thumb_func
 162              		.type	_port_irq_epilogue, %function
 163              	_port_irq_epilogue:
 164              	.LFB10:
 165              		.loc 1 150 0
 166              		.cfi_startproc
 167              		@ args = 0, pretend = 0, frame = 0
 168              		@ frame_needed = 0, uses_anonymous_args = 0
 169              		@ link register save eliminated.
ARM GAS  C:\Users\jsyoon\AppData\Local\Temp\ccycfEHF.s 			page 4


 170              		.loc 1 152 0
 171              	@ 152 "ChibiOS_2.6.6/os/ports/GCC/ARMCMx/chcore_v7m.c" 1
 172 0000 72B6     		cpsid   i
 173              	@ 0 "" 2
 174              		.loc 1 153 0
 175              		.thumb
 176 0002 184B     		ldr	r3, .L19
 177 0004 5B68     		ldr	r3, [r3, #4]
 178 0006 1B05     		lsls	r3, r3, #20
 179 0008 1FD5     		bpl	.L13
 180              	.LBB2:
 181              		.loc 1 159 0
 182              	@ 159 "ChibiOS_2.6.6/os/ports/GCC/ARMCMx/chcore_v7m.c" 1
 183 000a F1EE10FA 		vmrs    APSR_nzcv, FPSCR
 184              	@ 0 "" 2
 185              		.loc 1 163 0
 186              	@ 163 "ChibiOS_2.6.6/os/ports/GCC/ARMCMx/chcore_v7m.c" 1
 187 000e EFF30983 		mrs     r3, PSP
 188              	@ 0 "" 2
 189              	.LVL6:
 190              		.loc 1 170 0
 191              		.thumb
 192 0012 154A     		ldr	r2, .L19+4
 193              		.loc 1 168 0
 194 0014 4FF08071 		mov	r1, #16777216
 195              		.loc 1 170 0
 196 0018 D268     		ldr	r2, [r2, #12]
 197 001a 43F8082C 		str	r2, [r3, #-8]
 198              		.loc 1 168 0
 199 001e 43F84C1C 		str	r1, [r3, #-76]
 200              		.loc 1 167 0
 201 0022 A3F16802 		sub	r2, r3, #104
 202              	.LVL7:
 203              		.loc 1 172 0
 204              	@ 172 "ChibiOS_2.6.6/os/ports/GCC/ARMCMx/chcore_v7m.c" 1
 205 0026 82F30988 		msr     PSP, r2
 206              	@ 0 "" 2
 207              		.loc 1 176 0
 208              		.thumb
 209 002a 1049     		ldr	r1, .L19+8
 210 002c 8A69     		ldr	r2, [r1, #24]
 211              	.LVL8:
 212 002e 0968     		ldr	r1, [r1]
 213 0030 D07F     		ldrb	r0, [r2, #31]	@ zero_extendqisi2
 214 0032 8968     		ldr	r1, [r1, #8]
 215 0034 9268     		ldr	r2, [r2, #8]
 216 0036 50B1     		cbz	r0, .L14
 217              		.loc 1 176 0 is_stmt 0 discriminator 1
 218 0038 9142     		cmp	r1, r2
 219 003a 94BF     		ite	ls
 220 003c 0022     		movls	r2, #0
 221 003e 0122     		movhi	r2, #1
 222 0040 5AB1     		cbz	r2, .L16
 223              	.L18:
 224              		.loc 1 178 0 is_stmt 1
 225 0042 0B4A     		ldr	r2, .L19+12
 226 0044 43F8502C 		str	r2, [r3, #-80]
ARM GAS  C:\Users\jsyoon\AppData\Local\Temp\ccycfEHF.s 			page 5


 227 0048 7047     		bx	lr
 228              	.LVL9:
 229              	.L13:
 230              	.LBE2:
 231              		.loc 1 190 0
 232              	@ 190 "ChibiOS_2.6.6/os/ports/GCC/ARMCMx/chcore_v7m.c" 1
 233 004a 62B6     		cpsie   i
 234              	@ 0 "" 2
 235              		.thumb
 236 004c 7047     		bx	lr
 237              	.LVL10:
 238              	.L14:
 239              	.LBB3:
 240              		.loc 1 176 0 discriminator 2
 241 004e 9142     		cmp	r1, r2
 242 0050 34BF     		ite	cc
 243 0052 0022     		movcc	r2, #0
 244 0054 0122     		movcs	r2, #1
 245 0056 002A     		cmp	r2, #0
 246 0058 F3D1     		bne	.L18
 247              	.L16:
 248              		.loc 1 183 0
 249 005a 064A     		ldr	r2, .L19+16
 250 005c 43F8502C 		str	r2, [r3, #-80]
 251 0060 7047     		bx	lr
 252              	.L20:
 253 0062 00BF     		.align	2
 254              	.L19:
 255 0064 00ED00E0 		.word	-536810240
 256 0068 30EF00E0 		.word	-536809680
 257 006c 00000000 		.word	rlist
 258 0070 00000000 		.word	_port_switch_from_isr
 259 0074 04000000 		.word	_port_exit_from_isr
 260              	.LBE3:
 261              		.cfi_endproc
 262              	.LFE10:
 263              		.size	_port_irq_epilogue, .-_port_irq_epilogue
 264 0078 AFF30080 		.section	.text.SysTickVector,"ax",%progbits
 264      AFF30080 
 265              		.align	2
 266              		.p2align 4,,15
 267              		.global	SysTickVector
 268              		.thumb
 269              		.thumb_func
 270              		.type	SysTickVector, %function
 271              	SysTickVector:
 272              	.LFB7:
 273              		.loc 1 47 0
 274              		.cfi_startproc
 275              		@ args = 0, pretend = 0, frame = 0
 276              		@ frame_needed = 0, uses_anonymous_args = 0
 277 0000 08B5     		push	{r3, lr}
 278              		.cfi_def_cfa_offset 8
 279              		.cfi_offset 3, -8
 280              		.cfi_offset 14, -4
 281              		.loc 1 51 0
 282              	@ 51 "ChibiOS_2.6.6/os/ports/GCC/ARMCMx/chcore_v7m.c" 1
ARM GAS  C:\Users\jsyoon\AppData\Local\Temp\ccycfEHF.s 			page 6


 283 0002 72B6     		cpsid   i
 284              	@ 0 "" 2
 285              		.loc 1 52 0
 286              		.thumb
 287 0004 FFF7FEFF 		bl	chSysTimerHandlerI
 288              	.LVL11:
 289              		.loc 1 53 0
 290              	@ 53 "ChibiOS_2.6.6/os/ports/GCC/ARMCMx/chcore_v7m.c" 1
 291 0008 62B6     		cpsie   i
 292              	@ 0 "" 2
 293              		.loc 1 56 0
 294              		.thumb
 295 000a BDE80840 		pop	{r3, lr}
 296              		.loc 1 55 0
 297 000e FFF7FEBF 		b	_port_irq_epilogue
 298              	.LVL12:
 299              		.cfi_endproc
 300              	.LFE7:
 301              		.size	SysTickVector, .-SysTickVector
 302 0012 00BFAFF3 		.section	.text._port_switch,"ax",%progbits
 302      0080AFF3 
 302      0080AFF3 
 302      0080
 303              		.align	2
 304              		.p2align 4,,15
 305              		.global	_port_switch
 306              		.thumb
 307              		.thumb_func
 308              		.type	_port_switch, %function
 309              	_port_switch:
 310              	.LFB12:
 311              		.loc 1 229 0
 312              		.cfi_startproc
 313              		@ Naked Function: prologue and epilogue provided by programmer.
 314              		@ args = 0, pretend = 0, frame = 0
 315              		@ frame_needed = 0, uses_anonymous_args = 0
 316              	.LVL13:
 317              		.loc 1 231 0
 318              	@ 231 "ChibiOS_2.6.6/os/ports/GCC/ARMCMx/chcore_v7m.c" 1
 319 0000 2DE9F04F 		push    {r4, r5, r6, r7, r8, r9, r10, r11, lr}
 320              	@ 0 "" 2
 321              		.loc 1 234 0
 322              	@ 234 "ChibiOS_2.6.6/os/ports/GCC/ARMCMx/chcore_v7m.c" 1
 323 0004 2DED108A 		vpush   {s16-s31}
 324              	@ 0 "" 2
 325              		.loc 1 237 0
 326              	@ 237 "ChibiOS_2.6.6/os/ports/GCC/ARMCMx/chcore_v7m.c" 1
 327 0008 C1F80CD0 		str     sp, [r1, #12]                          
 328 000c D0F80CD0 		ldr     sp, [r0, #12]
 329              	@ 0 "" 2
 330              		.loc 1 241 0
 331              	@ 241 "ChibiOS_2.6.6/os/ports/GCC/ARMCMx/chcore_v7m.c" 1
 332 0010 BDEC108A 		vpop    {s16-s31}
 333              	@ 0 "" 2
 334              		.loc 1 243 0
 335              	@ 243 "ChibiOS_2.6.6/os/ports/GCC/ARMCMx/chcore_v7m.c" 1
 336 0014 BDE8F08F 		pop     {r4, r5, r6, r7, r8, r9, r10, r11, pc}
ARM GAS  C:\Users\jsyoon\AppData\Local\Temp\ccycfEHF.s 			page 7


 337              	@ 0 "" 2
 338              		.loc 1 245 0
 339              		.thumb
 340              		.cfi_endproc
 341              	.LFE12:
 342              		.size	_port_switch, .-_port_switch
 343 0018 AFF30080 		.section	.text._port_thread_start,"ax",%progbits
 343      AFF30080 
 344              		.align	2
 345              		.p2align 4,,15
 346              		.global	_port_thread_start
 347              		.thumb
 348              		.thumb_func
 349              		.type	_port_thread_start, %function
 350              	_port_thread_start:
 351              	.LFB13:
 352              		.loc 1 252 0
 353              		.cfi_startproc
 354              		@ args = 0, pretend = 0, frame = 0
 355              		@ frame_needed = 0, uses_anonymous_args = 0
 356              		@ link register save eliminated.
 357              		.loc 1 254 0
 358              	@ 254 "ChibiOS_2.6.6/os/ports/GCC/ARMCMx/chcore_v7m.c" 1
 359 0000 62B6     		cpsie   i
 360              	@ 0 "" 2
 361              		.loc 1 255 0
 362              	@ 255 "ChibiOS_2.6.6/os/ports/GCC/ARMCMx/chcore_v7m.c" 1
 363 0002 2846     		mov     r0, r5                                 
 364 0004 A047     		blx     r4                                     
 365 0006 FFF7FEFF 		bl      chThdExit
 366              	@ 0 "" 2
 367              		.thumb
 368 000a 7047     		bx	lr
 369              		.cfi_endproc
 370              	.LFE13:
 371              		.size	_port_thread_start, .-_port_thread_start
 372 000c AFF30080 		.text
 373              	.Letext0:
 374              		.file 2 "c:\\crosstools\\gcc-arm-embedded\\4.8_2014q2\\arm-none-eabi\\include\\machine\\_default_t
 375              		.file 3 "c:\\crosstools\\gcc-arm-embedded\\4.8_2014q2\\arm-none-eabi\\include\\stdint.h"
 376              		.file 4 "ChibiOS_2.6.6/os/ports/GCC/ARMCMx/chtypes.h"
 377              		.file 5 "ChibiOS_2.6.6/os/kernel/include/chlists.h"
 378              		.file 6 "ChibiOS_2.6.6/os/kernel/include/chthreads.h"
 379              		.file 7 "ChibiOS_2.6.6/os/ports/GCC/ARMCMx/chcore_v7m.h"
 380              		.file 8 "ChibiOS_2.6.6/os/ports/common/ARMCMx/nvic.h"
 381              		.file 9 "ChibiOS_2.6.6/os/kernel/include/chschd.h"
 382              		.file 10 "ChibiOS_2.6.6/os/kernel/include/chmtx.h"
 383              		.file 11 "ChibiOS_2.6.6/os/kernel/include/chsys.h"
 384              		.section	.debug_info,"",%progbits
 385              	.Ldebug_info0:
 386 0000 66090000 		.4byte	0x966
 387 0004 0400     		.2byte	0x4
 388 0006 00000000 		.4byte	.Ldebug_abbrev0
 389 000a 04       		.byte	0x4
 390 000b 01       		.uleb128 0x1
 391 000c 10010000 		.4byte	.LASF103
 392 0010 01       		.byte	0x1
ARM GAS  C:\Users\jsyoon\AppData\Local\Temp\ccycfEHF.s 			page 8


 393 0011 39000000 		.4byte	.LASF104
 394 0015 CE000000 		.4byte	.LASF105
 395 0019 18000000 		.4byte	.Ldebug_ranges0+0x18
 396 001d 00000000 		.4byte	0
 397 0021 00000000 		.4byte	.Ldebug_line0
 398 0025 02       		.uleb128 0x2
 399 0026 04       		.byte	0x4
 400 0027 05       		.byte	0x5
 401 0028 696E7400 		.ascii	"int\000"
 402 002c 03       		.uleb128 0x3
 403 002d 04       		.byte	0x4
 404 002e 07       		.byte	0x7
 405 002f 9B020000 		.4byte	.LASF0
 406 0033 03       		.uleb128 0x3
 407 0034 01       		.byte	0x1
 408 0035 06       		.byte	0x6
 409 0036 A8000000 		.4byte	.LASF1
 410 003a 04       		.uleb128 0x4
 411 003b 14000000 		.4byte	.LASF5
 412 003f 02       		.byte	0x2
 413 0040 1C       		.byte	0x1c
 414 0041 45000000 		.4byte	0x45
 415 0045 03       		.uleb128 0x3
 416 0046 01       		.byte	0x1
 417 0047 08       		.byte	0x8
 418 0048 FF030000 		.4byte	.LASF2
 419 004c 03       		.uleb128 0x3
 420 004d 02       		.byte	0x2
 421 004e 05       		.byte	0x5
 422 004f 1D040000 		.4byte	.LASF3
 423 0053 03       		.uleb128 0x3
 424 0054 02       		.byte	0x2
 425 0055 07       		.byte	0x7
 426 0056 05030000 		.4byte	.LASF4
 427 005a 04       		.uleb128 0x4
 428 005b C3040000 		.4byte	.LASF6
 429 005f 02       		.byte	0x2
 430 0060 37       		.byte	0x37
 431 0061 65000000 		.4byte	0x65
 432 0065 03       		.uleb128 0x3
 433 0066 04       		.byte	0x4
 434 0067 05       		.byte	0x5
 435 0068 FE000000 		.4byte	.LASF7
 436 006c 04       		.uleb128 0x4
 437 006d 4F020000 		.4byte	.LASF8
 438 0071 02       		.byte	0x2
 439 0072 38       		.byte	0x38
 440 0073 77000000 		.4byte	0x77
 441 0077 03       		.uleb128 0x3
 442 0078 04       		.byte	0x4
 443 0079 07       		.byte	0x7
 444 007a C3020000 		.4byte	.LASF9
 445 007e 03       		.uleb128 0x3
 446 007f 08       		.byte	0x8
 447 0080 05       		.byte	0x5
 448 0081 9A000000 		.4byte	.LASF10
 449 0085 03       		.uleb128 0x3
ARM GAS  C:\Users\jsyoon\AppData\Local\Temp\ccycfEHF.s 			page 9


 450 0086 08       		.byte	0x8
 451 0087 07       		.byte	0x7
 452 0088 76000000 		.4byte	.LASF11
 453 008c 04       		.uleb128 0x4
 454 008d 07050000 		.4byte	.LASF12
 455 0091 03       		.byte	0x3
 456 0092 2A       		.byte	0x2a
 457 0093 3A000000 		.4byte	0x3a
 458 0097 04       		.uleb128 0x4
 459 0098 F7030000 		.4byte	.LASF13
 460 009c 03       		.byte	0x3
 461 009d 41       		.byte	0x41
 462 009e 5A000000 		.4byte	0x5a
 463 00a2 04       		.uleb128 0x4
 464 00a3 81040000 		.4byte	.LASF14
 465 00a7 03       		.byte	0x3
 466 00a8 42       		.byte	0x42
 467 00a9 6C000000 		.4byte	0x6c
 468 00ad 03       		.uleb128 0x3
 469 00ae 01       		.byte	0x1
 470 00af 02       		.byte	0x2
 471 00b0 F1030000 		.4byte	.LASF15
 472 00b4 04       		.uleb128 0x4
 473 00b5 4F030000 		.4byte	.LASF16
 474 00b9 04       		.byte	0x4
 475 00ba 2C       		.byte	0x2c
 476 00bb 8C000000 		.4byte	0x8c
 477 00bf 04       		.uleb128 0x4
 478 00c0 07010000 		.4byte	.LASF17
 479 00c4 04       		.byte	0x4
 480 00c5 2D       		.byte	0x2d
 481 00c6 8C000000 		.4byte	0x8c
 482 00ca 04       		.uleb128 0x4
 483 00cb D5030000 		.4byte	.LASF18
 484 00cf 04       		.byte	0x4
 485 00d0 2E       		.byte	0x2e
 486 00d1 8C000000 		.4byte	0x8c
 487 00d5 04       		.uleb128 0x4
 488 00d6 C4000000 		.4byte	.LASF19
 489 00da 04       		.byte	0x4
 490 00db 2F       		.byte	0x2f
 491 00dc 8C000000 		.4byte	0x8c
 492 00e0 04       		.uleb128 0x4
 493 00e1 E9030000 		.4byte	.LASF20
 494 00e5 04       		.byte	0x4
 495 00e6 30       		.byte	0x30
 496 00e7 A2000000 		.4byte	0xa2
 497 00eb 04       		.uleb128 0x4
 498 00ec 1D030000 		.4byte	.LASF21
 499 00f0 04       		.byte	0x4
 500 00f1 31       		.byte	0x31
 501 00f2 97000000 		.4byte	0x97
 502 00f6 04       		.uleb128 0x4
 503 00f7 76030000 		.4byte	.LASF22
 504 00fb 04       		.byte	0x4
 505 00fc 33       		.byte	0x33
 506 00fd A2000000 		.4byte	0xa2
ARM GAS  C:\Users\jsyoon\AppData\Local\Temp\ccycfEHF.s 			page 10


 507 0101 04       		.uleb128 0x4
 508 0102 AE040000 		.4byte	.LASF23
 509 0106 04       		.byte	0x4
 510 0107 35       		.byte	0x35
 511 0108 A2000000 		.4byte	0xa2
 512 010c 04       		.uleb128 0x4
 513 010d 6F040000 		.4byte	.LASF24
 514 0111 05       		.byte	0x5
 515 0112 2A       		.byte	0x2a
 516 0113 17010000 		.4byte	0x117
 517 0117 05       		.uleb128 0x5
 518 0118 6F040000 		.4byte	.LASF24
 519 011c 48       		.byte	0x48
 520 011d 06       		.byte	0x6
 521 011e 5E       		.byte	0x5e
 522 011f 14020000 		.4byte	0x214
 523 0123 06       		.uleb128 0x6
 524 0124 54040000 		.4byte	.LASF25
 525 0128 06       		.byte	0x6
 526 0129 5F       		.byte	0x5f
 527 012a 35020000 		.4byte	0x235
 528 012e 00       		.byte	0
 529 012f 06       		.uleb128 0x6
 530 0130 E2030000 		.4byte	.LASF26
 531 0134 06       		.byte	0x6
 532 0135 61       		.byte	0x61
 533 0136 35020000 		.4byte	0x235
 534 013a 04       		.byte	0x4
 535 013b 06       		.uleb128 0x6
 536 013c 93000000 		.4byte	.LASF27
 537 0140 06       		.byte	0x6
 538 0141 63       		.byte	0x63
 539 0142 E0000000 		.4byte	0xe0
 540 0146 08       		.byte	0x8
 541 0147 06       		.uleb128 0x6
 542 0148 3B050000 		.4byte	.LASF28
 543 014c 06       		.byte	0x6
 544 014d 64       		.byte	0x64
 545 014e FE040000 		.4byte	0x4fe
 546 0152 0C       		.byte	0xc
 547 0153 06       		.uleb128 0x6
 548 0154 34020000 		.4byte	.LASF29
 549 0158 06       		.byte	0x6
 550 0159 66       		.byte	0x66
 551 015a 35020000 		.4byte	0x235
 552 015e 10       		.byte	0x10
 553 015f 06       		.uleb128 0x6
 554 0160 9C030000 		.4byte	.LASF30
 555 0164 06       		.byte	0x6
 556 0165 67       		.byte	0x67
 557 0166 35020000 		.4byte	0x235
 558 016a 14       		.byte	0x14
 559 016b 06       		.uleb128 0x6
 560 016c 21050000 		.4byte	.LASF31
 561 0170 06       		.byte	0x6
 562 0171 6E       		.byte	0x6e
 563 0172 E8070000 		.4byte	0x7e8
ARM GAS  C:\Users\jsyoon\AppData\Local\Temp\ccycfEHF.s 			page 11


 564 0176 18       		.byte	0x18
 565 0177 06       		.uleb128 0x6
 566 0178 27040000 		.4byte	.LASF32
 567 017c 06       		.byte	0x6
 568 017d 79       		.byte	0x79
 569 017e BF000000 		.4byte	0xbf
 570 0182 1C       		.byte	0x1c
 571 0183 06       		.uleb128 0x6
 572 0184 61040000 		.4byte	.LASF33
 573 0188 06       		.byte	0x6
 574 0189 7D       		.byte	0x7d
 575 018a B4000000 		.4byte	0xb4
 576 018e 1D       		.byte	0x1d
 577 018f 06       		.uleb128 0x6
 578 0190 EB040000 		.4byte	.LASF34
 579 0194 06       		.byte	0x6
 580 0195 82       		.byte	0x82
 581 0196 CA000000 		.4byte	0xca
 582 019a 1E       		.byte	0x1e
 583 019b 06       		.uleb128 0x6
 584 019c 37040000 		.4byte	.LASF35
 585 01a0 06       		.byte	0x6
 586 01a1 88       		.byte	0x88
 587 01a2 D5000000 		.4byte	0xd5
 588 01a6 1F       		.byte	0x1f
 589 01a7 06       		.uleb128 0x6
 590 01a8 CD040000 		.4byte	.LASF36
 591 01ac 06       		.byte	0x6
 592 01ad 8F       		.byte	0x8f
 593 01ae 10070000 		.4byte	0x710
 594 01b2 20       		.byte	0x20
 595 01b3 07       		.uleb128 0x7
 596 01b4 705F7500 		.ascii	"p_u\000"
 597 01b8 06       		.byte	0x6
 598 01b9 B4       		.byte	0xb4
 599 01ba B3070000 		.4byte	0x7b3
 600 01be 24       		.byte	0x24
 601 01bf 06       		.uleb128 0x6
 602 01c0 41050000 		.4byte	.LASF37
 603 01c4 06       		.byte	0x6
 604 01c5 B9       		.byte	0xb9
 605 01c6 5B020000 		.4byte	0x25b
 606 01ca 28       		.byte	0x28
 607 01cb 06       		.uleb128 0x6
 608 01cc E0040000 		.4byte	.LASF38
 609 01d0 06       		.byte	0x6
 610 01d1 BF       		.byte	0xbf
 611 01d2 3B020000 		.4byte	0x23b
 612 01d6 2C       		.byte	0x2c
 613 01d7 06       		.uleb128 0x6
 614 01d8 00000000 		.4byte	.LASF39
 615 01dc 06       		.byte	0x6
 616 01dd C3       		.byte	0xc3
 617 01de EB000000 		.4byte	0xeb
 618 01e2 34       		.byte	0x34
 619 01e3 06       		.uleb128 0x6
 620 01e4 76040000 		.4byte	.LASF40
ARM GAS  C:\Users\jsyoon\AppData\Local\Temp\ccycfEHF.s 			page 12


 621 01e8 06       		.byte	0x6
 622 01e9 C9       		.byte	0xc9
 623 01ea F6000000 		.4byte	0xf6
 624 01ee 38       		.byte	0x38
 625 01ef 06       		.uleb128 0x6
 626 01f0 13040000 		.4byte	.LASF41
 627 01f4 06       		.byte	0x6
 628 01f5 D0       		.byte	0xd0
 629 01f6 FA070000 		.4byte	0x7fa
 630 01fa 3C       		.byte	0x3c
 631 01fb 06       		.uleb128 0x6
 632 01fc B8040000 		.4byte	.LASF42
 633 0200 06       		.byte	0x6
 634 0201 D4       		.byte	0xd4
 635 0202 E0000000 		.4byte	0xe0
 636 0206 40       		.byte	0x40
 637 0207 06       		.uleb128 0x6
 638 0208 B4000000 		.4byte	.LASF43
 639 020c 06       		.byte	0x6
 640 020d DA       		.byte	0xda
 641 020e 71020000 		.4byte	0x271
 642 0212 44       		.byte	0x44
 643 0213 00       		.byte	0
 644 0214 08       		.uleb128 0x8
 645 0215 08       		.byte	0x8
 646 0216 05       		.byte	0x5
 647 0217 61       		.byte	0x61
 648 0218 35020000 		.4byte	0x235
 649 021c 06       		.uleb128 0x6
 650 021d 54040000 		.4byte	.LASF25
 651 0221 05       		.byte	0x5
 652 0222 62       		.byte	0x62
 653 0223 35020000 		.4byte	0x235
 654 0227 00       		.byte	0
 655 0228 06       		.uleb128 0x6
 656 0229 E2030000 		.4byte	.LASF26
 657 022d 05       		.byte	0x5
 658 022e 64       		.byte	0x64
 659 022f 35020000 		.4byte	0x235
 660 0233 04       		.byte	0x4
 661 0234 00       		.byte	0
 662 0235 09       		.uleb128 0x9
 663 0236 04       		.byte	0x4
 664 0237 0C010000 		.4byte	0x10c
 665 023b 04       		.uleb128 0x4
 666 023c AA030000 		.4byte	.LASF44
 667 0240 05       		.byte	0x5
 668 0241 66       		.byte	0x66
 669 0242 14020000 		.4byte	0x214
 670 0246 08       		.uleb128 0x8
 671 0247 04       		.byte	0x4
 672 0248 05       		.byte	0x5
 673 0249 6B       		.byte	0x6b
 674 024a 5B020000 		.4byte	0x25b
 675 024e 06       		.uleb128 0x6
 676 024f 54040000 		.4byte	.LASF25
 677 0253 05       		.byte	0x5
ARM GAS  C:\Users\jsyoon\AppData\Local\Temp\ccycfEHF.s 			page 13


 678 0254 6D       		.byte	0x6d
 679 0255 35020000 		.4byte	0x235
 680 0259 00       		.byte	0
 681 025a 00       		.byte	0
 682 025b 04       		.uleb128 0x4
 683 025c 6A030000 		.4byte	.LASF45
 684 0260 05       		.byte	0x5
 685 0261 70       		.byte	0x70
 686 0262 46020000 		.4byte	0x246
 687 0266 04       		.uleb128 0x4
 688 0267 77020000 		.4byte	.LASF46
 689 026b 07       		.byte	0x7
 690 026c E5       		.byte	0xe5
 691 026d 71020000 		.4byte	0x271
 692 0271 0A       		.uleb128 0xa
 693 0272 04       		.byte	0x4
 694 0273 05       		.uleb128 0x5
 695 0274 AF020000 		.4byte	.LASF47
 696 0278 68       		.byte	0x68
 697 0279 07       		.byte	0x7
 698 027a ED       		.byte	0xed
 699 027b B2030000 		.4byte	0x3b2
 700 027f 07       		.uleb128 0x7
 701 0280 723000   		.ascii	"r0\000"
 702 0283 07       		.byte	0x7
 703 0284 EE       		.byte	0xee
 704 0285 66020000 		.4byte	0x266
 705 0289 00       		.byte	0
 706 028a 07       		.uleb128 0x7
 707 028b 723100   		.ascii	"r1\000"
 708 028e 07       		.byte	0x7
 709 028f EF       		.byte	0xef
 710 0290 66020000 		.4byte	0x266
 711 0294 04       		.byte	0x4
 712 0295 07       		.uleb128 0x7
 713 0296 723200   		.ascii	"r2\000"
 714 0299 07       		.byte	0x7
 715 029a F0       		.byte	0xf0
 716 029b 66020000 		.4byte	0x266
 717 029f 08       		.byte	0x8
 718 02a0 07       		.uleb128 0x7
 719 02a1 723300   		.ascii	"r3\000"
 720 02a4 07       		.byte	0x7
 721 02a5 F1       		.byte	0xf1
 722 02a6 66020000 		.4byte	0x266
 723 02aa 0C       		.byte	0xc
 724 02ab 07       		.uleb128 0x7
 725 02ac 72313200 		.ascii	"r12\000"
 726 02b0 07       		.byte	0x7
 727 02b1 F2       		.byte	0xf2
 728 02b2 66020000 		.4byte	0x266
 729 02b6 10       		.byte	0x10
 730 02b7 06       		.uleb128 0x6
 731 02b8 A8020000 		.4byte	.LASF48
 732 02bc 07       		.byte	0x7
 733 02bd F3       		.byte	0xf3
 734 02be 66020000 		.4byte	0x266
ARM GAS  C:\Users\jsyoon\AppData\Local\Temp\ccycfEHF.s 			page 14


 735 02c2 14       		.byte	0x14
 736 02c3 07       		.uleb128 0x7
 737 02c4 706300   		.ascii	"pc\000"
 738 02c7 07       		.byte	0x7
 739 02c8 F4       		.byte	0xf4
 740 02c9 66020000 		.4byte	0x266
 741 02cd 18       		.byte	0x18
 742 02ce 06       		.uleb128 0x6
 743 02cf 41040000 		.4byte	.LASF49
 744 02d3 07       		.byte	0x7
 745 02d4 F5       		.byte	0xf5
 746 02d5 66020000 		.4byte	0x266
 747 02d9 1C       		.byte	0x1c
 748 02da 07       		.uleb128 0x7
 749 02db 733000   		.ascii	"s0\000"
 750 02de 07       		.byte	0x7
 751 02df F7       		.byte	0xf7
 752 02e0 66020000 		.4byte	0x266
 753 02e4 20       		.byte	0x20
 754 02e5 07       		.uleb128 0x7
 755 02e6 733100   		.ascii	"s1\000"
 756 02e9 07       		.byte	0x7
 757 02ea F8       		.byte	0xf8
 758 02eb 66020000 		.4byte	0x266
 759 02ef 24       		.byte	0x24
 760 02f0 07       		.uleb128 0x7
 761 02f1 733200   		.ascii	"s2\000"
 762 02f4 07       		.byte	0x7
 763 02f5 F9       		.byte	0xf9
 764 02f6 66020000 		.4byte	0x266
 765 02fa 28       		.byte	0x28
 766 02fb 07       		.uleb128 0x7
 767 02fc 733300   		.ascii	"s3\000"
 768 02ff 07       		.byte	0x7
 769 0300 FA       		.byte	0xfa
 770 0301 66020000 		.4byte	0x266
 771 0305 2C       		.byte	0x2c
 772 0306 07       		.uleb128 0x7
 773 0307 733400   		.ascii	"s4\000"
 774 030a 07       		.byte	0x7
 775 030b FB       		.byte	0xfb
 776 030c 66020000 		.4byte	0x266
 777 0310 30       		.byte	0x30
 778 0311 07       		.uleb128 0x7
 779 0312 733500   		.ascii	"s5\000"
 780 0315 07       		.byte	0x7
 781 0316 FC       		.byte	0xfc
 782 0317 66020000 		.4byte	0x266
 783 031b 34       		.byte	0x34
 784 031c 07       		.uleb128 0x7
 785 031d 733600   		.ascii	"s6\000"
 786 0320 07       		.byte	0x7
 787 0321 FD       		.byte	0xfd
 788 0322 66020000 		.4byte	0x266
 789 0326 38       		.byte	0x38
 790 0327 07       		.uleb128 0x7
 791 0328 733700   		.ascii	"s7\000"
ARM GAS  C:\Users\jsyoon\AppData\Local\Temp\ccycfEHF.s 			page 15


 792 032b 07       		.byte	0x7
 793 032c FE       		.byte	0xfe
 794 032d 66020000 		.4byte	0x266
 795 0331 3C       		.byte	0x3c
 796 0332 07       		.uleb128 0x7
 797 0333 733800   		.ascii	"s8\000"
 798 0336 07       		.byte	0x7
 799 0337 FF       		.byte	0xff
 800 0338 66020000 		.4byte	0x266
 801 033c 40       		.byte	0x40
 802 033d 0B       		.uleb128 0xb
 803 033e 733900   		.ascii	"s9\000"
 804 0341 07       		.byte	0x7
 805 0342 0001     		.2byte	0x100
 806 0344 66020000 		.4byte	0x266
 807 0348 44       		.byte	0x44
 808 0349 0B       		.uleb128 0xb
 809 034a 73313000 		.ascii	"s10\000"
 810 034e 07       		.byte	0x7
 811 034f 0101     		.2byte	0x101
 812 0351 66020000 		.4byte	0x266
 813 0355 48       		.byte	0x48
 814 0356 0B       		.uleb128 0xb
 815 0357 73313100 		.ascii	"s11\000"
 816 035b 07       		.byte	0x7
 817 035c 0201     		.2byte	0x102
 818 035e 66020000 		.4byte	0x266
 819 0362 4C       		.byte	0x4c
 820 0363 0B       		.uleb128 0xb
 821 0364 73313200 		.ascii	"s12\000"
 822 0368 07       		.byte	0x7
 823 0369 0301     		.2byte	0x103
 824 036b 66020000 		.4byte	0x266
 825 036f 50       		.byte	0x50
 826 0370 0B       		.uleb128 0xb
 827 0371 73313300 		.ascii	"s13\000"
 828 0375 07       		.byte	0x7
 829 0376 0401     		.2byte	0x104
 830 0378 66020000 		.4byte	0x266
 831 037c 54       		.byte	0x54
 832 037d 0B       		.uleb128 0xb
 833 037e 73313400 		.ascii	"s14\000"
 834 0382 07       		.byte	0x7
 835 0383 0501     		.2byte	0x105
 836 0385 66020000 		.4byte	0x266
 837 0389 58       		.byte	0x58
 838 038a 0B       		.uleb128 0xb
 839 038b 73313500 		.ascii	"s15\000"
 840 038f 07       		.byte	0x7
 841 0390 0601     		.2byte	0x106
 842 0392 66020000 		.4byte	0x266
 843 0396 5C       		.byte	0x5c
 844 0397 0C       		.uleb128 0xc
 845 0398 5B040000 		.4byte	.LASF50
 846 039c 07       		.byte	0x7
 847 039d 0701     		.2byte	0x107
 848 039f 66020000 		.4byte	0x266
ARM GAS  C:\Users\jsyoon\AppData\Local\Temp\ccycfEHF.s 			page 16


 849 03a3 60       		.byte	0x60
 850 03a4 0C       		.uleb128 0xc
 851 03a5 92020000 		.4byte	.LASF51
 852 03a9 07       		.byte	0x7
 853 03aa 0801     		.2byte	0x108
 854 03ac 66020000 		.4byte	0x266
 855 03b0 64       		.byte	0x64
 856 03b1 00       		.byte	0
 857 03b2 0D       		.uleb128 0xd
 858 03b3 D9040000 		.4byte	.LASF52
 859 03b7 64       		.byte	0x64
 860 03b8 07       		.byte	0x7
 861 03b9 0C01     		.2byte	0x10c
 862 03bb FE040000 		.4byte	0x4fe
 863 03bf 0B       		.uleb128 0xb
 864 03c0 73313600 		.ascii	"s16\000"
 865 03c4 07       		.byte	0x7
 866 03c5 0E01     		.2byte	0x10e
 867 03c7 66020000 		.4byte	0x266
 868 03cb 00       		.byte	0
 869 03cc 0B       		.uleb128 0xb
 870 03cd 73313700 		.ascii	"s17\000"
 871 03d1 07       		.byte	0x7
 872 03d2 0F01     		.2byte	0x10f
 873 03d4 66020000 		.4byte	0x266
 874 03d8 04       		.byte	0x4
 875 03d9 0B       		.uleb128 0xb
 876 03da 73313800 		.ascii	"s18\000"
 877 03de 07       		.byte	0x7
 878 03df 1001     		.2byte	0x110
 879 03e1 66020000 		.4byte	0x266
 880 03e5 08       		.byte	0x8
 881 03e6 0B       		.uleb128 0xb
 882 03e7 73313900 		.ascii	"s19\000"
 883 03eb 07       		.byte	0x7
 884 03ec 1101     		.2byte	0x111
 885 03ee 66020000 		.4byte	0x266
 886 03f2 0C       		.byte	0xc
 887 03f3 0B       		.uleb128 0xb
 888 03f4 73323000 		.ascii	"s20\000"
 889 03f8 07       		.byte	0x7
 890 03f9 1201     		.2byte	0x112
 891 03fb 66020000 		.4byte	0x266
 892 03ff 10       		.byte	0x10
 893 0400 0B       		.uleb128 0xb
 894 0401 73323100 		.ascii	"s21\000"
 895 0405 07       		.byte	0x7
 896 0406 1301     		.2byte	0x113
 897 0408 66020000 		.4byte	0x266
 898 040c 14       		.byte	0x14
 899 040d 0B       		.uleb128 0xb
 900 040e 73323200 		.ascii	"s22\000"
 901 0412 07       		.byte	0x7
 902 0413 1401     		.2byte	0x114
 903 0415 66020000 		.4byte	0x266
 904 0419 18       		.byte	0x18
 905 041a 0B       		.uleb128 0xb
ARM GAS  C:\Users\jsyoon\AppData\Local\Temp\ccycfEHF.s 			page 17


 906 041b 73323300 		.ascii	"s23\000"
 907 041f 07       		.byte	0x7
 908 0420 1501     		.2byte	0x115
 909 0422 66020000 		.4byte	0x266
 910 0426 1C       		.byte	0x1c
 911 0427 0B       		.uleb128 0xb
 912 0428 73323400 		.ascii	"s24\000"
 913 042c 07       		.byte	0x7
 914 042d 1601     		.2byte	0x116
 915 042f 66020000 		.4byte	0x266
 916 0433 20       		.byte	0x20
 917 0434 0B       		.uleb128 0xb
 918 0435 73323500 		.ascii	"s25\000"
 919 0439 07       		.byte	0x7
 920 043a 1701     		.2byte	0x117
 921 043c 66020000 		.4byte	0x266
 922 0440 24       		.byte	0x24
 923 0441 0B       		.uleb128 0xb
 924 0442 73323600 		.ascii	"s26\000"
 925 0446 07       		.byte	0x7
 926 0447 1801     		.2byte	0x118
 927 0449 66020000 		.4byte	0x266
 928 044d 28       		.byte	0x28
 929 044e 0B       		.uleb128 0xb
 930 044f 73323700 		.ascii	"s27\000"
 931 0453 07       		.byte	0x7
 932 0454 1901     		.2byte	0x119
 933 0456 66020000 		.4byte	0x266
 934 045a 2C       		.byte	0x2c
 935 045b 0B       		.uleb128 0xb
 936 045c 73323800 		.ascii	"s28\000"
 937 0460 07       		.byte	0x7
 938 0461 1A01     		.2byte	0x11a
 939 0463 66020000 		.4byte	0x266
 940 0467 30       		.byte	0x30
 941 0468 0B       		.uleb128 0xb
 942 0469 73323900 		.ascii	"s29\000"
 943 046d 07       		.byte	0x7
 944 046e 1B01     		.2byte	0x11b
 945 0470 66020000 		.4byte	0x266
 946 0474 34       		.byte	0x34
 947 0475 0B       		.uleb128 0xb
 948 0476 73333000 		.ascii	"s30\000"
 949 047a 07       		.byte	0x7
 950 047b 1C01     		.2byte	0x11c
 951 047d 66020000 		.4byte	0x266
 952 0481 38       		.byte	0x38
 953 0482 0B       		.uleb128 0xb
 954 0483 73333100 		.ascii	"s31\000"
 955 0487 07       		.byte	0x7
 956 0488 1D01     		.2byte	0x11d
 957 048a 66020000 		.4byte	0x266
 958 048e 3C       		.byte	0x3c
 959 048f 0B       		.uleb128 0xb
 960 0490 723400   		.ascii	"r4\000"
 961 0493 07       		.byte	0x7
 962 0494 1F01     		.2byte	0x11f
ARM GAS  C:\Users\jsyoon\AppData\Local\Temp\ccycfEHF.s 			page 18


 963 0496 66020000 		.4byte	0x266
 964 049a 40       		.byte	0x40
 965 049b 0B       		.uleb128 0xb
 966 049c 723500   		.ascii	"r5\000"
 967 049f 07       		.byte	0x7
 968 04a0 2001     		.2byte	0x120
 969 04a2 66020000 		.4byte	0x266
 970 04a6 44       		.byte	0x44
 971 04a7 0B       		.uleb128 0xb
 972 04a8 723600   		.ascii	"r6\000"
 973 04ab 07       		.byte	0x7
 974 04ac 2101     		.2byte	0x121
 975 04ae 66020000 		.4byte	0x266
 976 04b2 48       		.byte	0x48
 977 04b3 0B       		.uleb128 0xb
 978 04b4 723700   		.ascii	"r7\000"
 979 04b7 07       		.byte	0x7
 980 04b8 2201     		.2byte	0x122
 981 04ba 66020000 		.4byte	0x266
 982 04be 4C       		.byte	0x4c
 983 04bf 0B       		.uleb128 0xb
 984 04c0 723800   		.ascii	"r8\000"
 985 04c3 07       		.byte	0x7
 986 04c4 2301     		.2byte	0x123
 987 04c6 66020000 		.4byte	0x266
 988 04ca 50       		.byte	0x50
 989 04cb 0B       		.uleb128 0xb
 990 04cc 723900   		.ascii	"r9\000"
 991 04cf 07       		.byte	0x7
 992 04d0 2401     		.2byte	0x124
 993 04d2 66020000 		.4byte	0x266
 994 04d6 54       		.byte	0x54
 995 04d7 0B       		.uleb128 0xb
 996 04d8 72313000 		.ascii	"r10\000"
 997 04dc 07       		.byte	0x7
 998 04dd 2501     		.2byte	0x125
 999 04df 66020000 		.4byte	0x266
 1000 04e3 58       		.byte	0x58
 1001 04e4 0B       		.uleb128 0xb
 1002 04e5 72313100 		.ascii	"r11\000"
 1003 04e9 07       		.byte	0x7
 1004 04ea 2601     		.2byte	0x126
 1005 04ec 66020000 		.4byte	0x266
 1006 04f0 5C       		.byte	0x5c
 1007 04f1 0B       		.uleb128 0xb
 1008 04f2 6C7200   		.ascii	"lr\000"
 1009 04f5 07       		.byte	0x7
 1010 04f6 2701     		.2byte	0x127
 1011 04f8 66020000 		.4byte	0x266
 1012 04fc 60       		.byte	0x60
 1013 04fd 00       		.byte	0
 1014 04fe 0D       		.uleb128 0xd
 1015 04ff FD020000 		.4byte	.LASF53
 1016 0503 04       		.byte	0x4
 1017 0504 07       		.byte	0x7
 1018 0505 3101     		.2byte	0x131
 1019 0507 19050000 		.4byte	0x519
ARM GAS  C:\Users\jsyoon\AppData\Local\Temp\ccycfEHF.s 			page 19


 1020 050b 0B       		.uleb128 0xb
 1021 050c 72313300 		.ascii	"r13\000"
 1022 0510 07       		.byte	0x7
 1023 0511 3201     		.2byte	0x132
 1024 0513 19050000 		.4byte	0x519
 1025 0517 00       		.byte	0
 1026 0518 00       		.byte	0
 1027 0519 09       		.uleb128 0x9
 1028 051a 04       		.byte	0x4
 1029 051b B2030000 		.4byte	0x3b2
 1030 051f 04       		.uleb128 0x4
 1031 0520 9F040000 		.4byte	.LASF54
 1032 0524 08       		.byte	0x8
 1033 0525 3A       		.byte	0x3a
 1034 0526 2A050000 		.4byte	0x52a
 1035 052a 0E       		.uleb128 0xe
 1036 052b A2000000 		.4byte	0xa2
 1037 052f 03       		.uleb128 0x3
 1038 0530 04       		.byte	0x4
 1039 0531 07       		.byte	0x7
 1040 0532 8E030000 		.4byte	.LASF55
 1041 0536 08       		.uleb128 0x8
 1042 0537 8C       		.byte	0x8c
 1043 0538 08       		.byte	0x8
 1044 0539 89       		.byte	0x89
 1045 053a 3B060000 		.4byte	0x63b
 1046 053e 06       		.uleb128 0x6
 1047 053f 8D000000 		.4byte	.LASF56
 1048 0543 08       		.byte	0x8
 1049 0544 8A       		.byte	0x8a
 1050 0545 1F050000 		.4byte	0x51f
 1051 0549 00       		.byte	0
 1052 054a 06       		.uleb128 0x6
 1053 054b 18030000 		.4byte	.LASF57
 1054 054f 08       		.byte	0x8
 1055 0550 8B       		.byte	0x8b
 1056 0551 1F050000 		.4byte	0x51f
 1057 0555 04       		.byte	0x4
 1058 0556 06       		.uleb128 0x6
 1059 0557 E2020000 		.4byte	.LASF58
 1060 055b 08       		.byte	0x8
 1061 055c 8C       		.byte	0x8c
 1062 055d 1F050000 		.4byte	0x51f
 1063 0561 08       		.byte	0x8
 1064 0562 06       		.uleb128 0x6
 1065 0563 23030000 		.4byte	.LASF59
 1066 0567 08       		.byte	0x8
 1067 0568 8D       		.byte	0x8d
 1068 0569 1F050000 		.4byte	0x51f
 1069 056d 0C       		.byte	0xc
 1070 056e 07       		.uleb128 0x7
 1071 056f 53435200 		.ascii	"SCR\000"
 1072 0573 08       		.byte	0x8
 1073 0574 8E       		.byte	0x8e
 1074 0575 1F050000 		.4byte	0x51f
 1075 0579 10       		.byte	0x10
 1076 057a 07       		.uleb128 0x7
ARM GAS  C:\Users\jsyoon\AppData\Local\Temp\ccycfEHF.s 			page 20


 1077 057b 43435200 		.ascii	"CCR\000"
 1078 057f 08       		.byte	0x8
 1079 0580 8F       		.byte	0x8f
 1080 0581 1F050000 		.4byte	0x51f
 1081 0585 14       		.byte	0x14
 1082 0586 06       		.uleb128 0x6
 1083 0587 D4040000 		.4byte	.LASF60
 1084 058b 08       		.byte	0x8
 1085 058c 90       		.byte	0x90
 1086 058d 4B060000 		.4byte	0x64b
 1087 0591 18       		.byte	0x18
 1088 0592 06       		.uleb128 0x6
 1089 0593 0D040000 		.4byte	.LASF61
 1090 0597 08       		.byte	0x8
 1091 0598 91       		.byte	0x91
 1092 0599 1F050000 		.4byte	0x51f
 1093 059d 24       		.byte	0x24
 1094 059e 06       		.uleb128 0x6
 1095 059f 97030000 		.4byte	.LASF62
 1096 05a3 08       		.byte	0x8
 1097 05a4 92       		.byte	0x92
 1098 05a5 1F050000 		.4byte	0x51f
 1099 05a9 28       		.byte	0x28
 1100 05aa 06       		.uleb128 0x6
 1101 05ab 2E050000 		.4byte	.LASF63
 1102 05af 08       		.byte	0x8
 1103 05b0 93       		.byte	0x93
 1104 05b1 1F050000 		.4byte	0x51f
 1105 05b5 2C       		.byte	0x2c
 1106 05b6 06       		.uleb128 0x6
 1107 05b7 29030000 		.4byte	.LASF64
 1108 05bb 08       		.byte	0x8
 1109 05bc 94       		.byte	0x94
 1110 05bd 1F050000 		.4byte	0x51f
 1111 05c1 30       		.byte	0x30
 1112 05c2 06       		.uleb128 0x6
 1113 05c3 36030000 		.4byte	.LASF65
 1114 05c7 08       		.byte	0x8
 1115 05c8 95       		.byte	0x95
 1116 05c9 1F050000 		.4byte	0x51f
 1117 05cd 34       		.byte	0x34
 1118 05ce 06       		.uleb128 0x6
 1119 05cf 3C020000 		.4byte	.LASF66
 1120 05d3 08       		.byte	0x8
 1121 05d4 96       		.byte	0x96
 1122 05d5 1F050000 		.4byte	0x51f
 1123 05d9 38       		.byte	0x38
 1124 05da 06       		.uleb128 0x6
 1125 05db 4A020000 		.4byte	.LASF67
 1126 05df 08       		.byte	0x8
 1127 05e0 97       		.byte	0x97
 1128 05e1 1F050000 		.4byte	0x51f
 1129 05e5 3C       		.byte	0x3c
 1130 05e6 07       		.uleb128 0x7
 1131 05e7 50465200 		.ascii	"PFR\000"
 1132 05eb 08       		.byte	0x8
 1133 05ec 98       		.byte	0x98
ARM GAS  C:\Users\jsyoon\AppData\Local\Temp\ccycfEHF.s 			page 21


 1134 05ed 60060000 		.4byte	0x660
 1135 05f1 40       		.byte	0x40
 1136 05f2 07       		.uleb128 0x7
 1137 05f3 44465200 		.ascii	"DFR\000"
 1138 05f7 08       		.byte	0x8
 1139 05f8 99       		.byte	0x99
 1140 05f9 1F050000 		.4byte	0x51f
 1141 05fd 48       		.byte	0x48
 1142 05fe 07       		.uleb128 0x7
 1143 05ff 41445200 		.ascii	"ADR\000"
 1144 0603 08       		.byte	0x8
 1145 0604 9A       		.byte	0x9a
 1146 0605 1F050000 		.4byte	0x51f
 1147 0609 4C       		.byte	0x4c
 1148 060a 06       		.uleb128 0x6
 1149 060b FC040000 		.4byte	.LASF68
 1150 060f 08       		.byte	0x8
 1151 0610 9B       		.byte	0x9b
 1152 0611 75060000 		.4byte	0x675
 1153 0615 50       		.byte	0x50
 1154 0616 07       		.uleb128 0x7
 1155 0617 53415200 		.ascii	"SAR\000"
 1156 061b 08       		.byte	0x8
 1157 061c 9C       		.byte	0x9c
 1158 061d 8A060000 		.4byte	0x68a
 1159 0621 60       		.byte	0x60
 1160 0622 06       		.uleb128 0x6
 1161 0623 92040000 		.4byte	.LASF69
 1162 0627 08       		.byte	0x8
 1163 0628 9D       		.byte	0x9d
 1164 0629 8F060000 		.4byte	0x68f
 1165 062d 74       		.byte	0x74
 1166 062e 06       		.uleb128 0x6
 1167 062f 28050000 		.4byte	.LASF70
 1168 0633 08       		.byte	0x8
 1169 0634 9E       		.byte	0x9e
 1170 0635 1F050000 		.4byte	0x51f
 1171 0639 88       		.byte	0x88
 1172 063a 00       		.byte	0
 1173 063b 0F       		.uleb128 0xf
 1174 063c 1F050000 		.4byte	0x51f
 1175 0640 4B060000 		.4byte	0x64b
 1176 0644 10       		.uleb128 0x10
 1177 0645 2F050000 		.4byte	0x52f
 1178 0649 02       		.byte	0x2
 1179 064a 00       		.byte	0
 1180 064b 0E       		.uleb128 0xe
 1181 064c 3B060000 		.4byte	0x63b
 1182 0650 0F       		.uleb128 0xf
 1183 0651 1F050000 		.4byte	0x51f
 1184 0655 60060000 		.4byte	0x660
 1185 0659 10       		.uleb128 0x10
 1186 065a 2F050000 		.4byte	0x52f
 1187 065e 01       		.byte	0x1
 1188 065f 00       		.byte	0
 1189 0660 0E       		.uleb128 0xe
 1190 0661 50060000 		.4byte	0x650
ARM GAS  C:\Users\jsyoon\AppData\Local\Temp\ccycfEHF.s 			page 22


 1191 0665 0F       		.uleb128 0xf
 1192 0666 1F050000 		.4byte	0x51f
 1193 066a 75060000 		.4byte	0x675
 1194 066e 10       		.uleb128 0x10
 1195 066f 2F050000 		.4byte	0x52f
 1196 0673 03       		.byte	0x3
 1197 0674 00       		.byte	0
 1198 0675 0E       		.uleb128 0xe
 1199 0676 65060000 		.4byte	0x665
 1200 067a 0F       		.uleb128 0xf
 1201 067b 1F050000 		.4byte	0x51f
 1202 067f 8A060000 		.4byte	0x68a
 1203 0683 10       		.uleb128 0x10
 1204 0684 2F050000 		.4byte	0x52f
 1205 0688 04       		.byte	0x4
 1206 0689 00       		.byte	0
 1207 068a 0E       		.uleb128 0xe
 1208 068b 7A060000 		.4byte	0x67a
 1209 068f 0E       		.uleb128 0xe
 1210 0690 7A060000 		.4byte	0x67a
 1211 0694 04       		.uleb128 0x4
 1212 0695 1E000000 		.4byte	.LASF71
 1213 0699 08       		.byte	0x8
 1214 069a 9F       		.byte	0x9f
 1215 069b 36050000 		.4byte	0x536
 1216 069f 08       		.uleb128 0x8
 1217 06a0 18       		.byte	0x18
 1218 06a1 08       		.byte	0x8
 1219 06a2 CC       		.byte	0xcc
 1220 06a3 F0060000 		.4byte	0x6f0
 1221 06a7 06       		.uleb128 0x6
 1222 06a8 92040000 		.4byte	.LASF69
 1223 06ac 08       		.byte	0x8
 1224 06ad CD       		.byte	0xcd
 1225 06ae 00070000 		.4byte	0x700
 1226 06b2 00       		.byte	0
 1227 06b3 06       		.uleb128 0x6
 1228 06b4 88030000 		.4byte	.LASF72
 1229 06b8 08       		.byte	0x8
 1230 06b9 CE       		.byte	0xce
 1231 06ba 1F050000 		.4byte	0x51f
 1232 06be 04       		.byte	0x4
 1233 06bf 06       		.uleb128 0x6
 1234 06c0 69040000 		.4byte	.LASF73
 1235 06c4 08       		.byte	0x8
 1236 06c5 CF       		.byte	0xcf
 1237 06c6 1F050000 		.4byte	0x51f
 1238 06ca 08       		.byte	0x8
 1239 06cb 06       		.uleb128 0x6
 1240 06cc 0D000000 		.4byte	.LASF74
 1241 06d0 08       		.byte	0x8
 1242 06d1 D0       		.byte	0xd0
 1243 06d2 1F050000 		.4byte	0x51f
 1244 06d6 0C       		.byte	0xc
 1245 06d7 06       		.uleb128 0x6
 1246 06d8 C9030000 		.4byte	.LASF75
 1247 06dc 08       		.byte	0x8
ARM GAS  C:\Users\jsyoon\AppData\Local\Temp\ccycfEHF.s 			page 23


 1248 06dd D1       		.byte	0xd1
 1249 06de 1F050000 		.4byte	0x51f
 1250 06e2 10       		.byte	0x10
 1251 06e3 06       		.uleb128 0x6
 1252 06e4 CF030000 		.4byte	.LASF76
 1253 06e8 08       		.byte	0x8
 1254 06e9 D2       		.byte	0xd2
 1255 06ea 1F050000 		.4byte	0x51f
 1256 06ee 14       		.byte	0x14
 1257 06ef 00       		.byte	0
 1258 06f0 0F       		.uleb128 0xf
 1259 06f1 1F050000 		.4byte	0x51f
 1260 06f5 00070000 		.4byte	0x700
 1261 06f9 10       		.uleb128 0x10
 1262 06fa 2F050000 		.4byte	0x52f
 1263 06fe 00       		.byte	0
 1264 06ff 00       		.byte	0
 1265 0700 0E       		.uleb128 0xe
 1266 0701 F0060000 		.4byte	0x6f0
 1267 0705 04       		.uleb128 0x4
 1268 0706 2F040000 		.4byte	.LASF77
 1269 070a 08       		.byte	0x8
 1270 070b D3       		.byte	0xd3
 1271 070c 9F060000 		.4byte	0x69f
 1272 0710 0E       		.uleb128 0xe
 1273 0711 01010000 		.4byte	0x101
 1274 0715 08       		.uleb128 0x8
 1275 0716 1C       		.byte	0x1c
 1276 0717 09       		.byte	0x9
 1277 0718 5E       		.byte	0x5e
 1278 0719 66070000 		.4byte	0x766
 1279 071d 06       		.uleb128 0x6
 1280 071e 8A040000 		.4byte	.LASF78
 1281 0722 09       		.byte	0x9
 1282 0723 5F       		.byte	0x5f
 1283 0724 3B020000 		.4byte	0x23b
 1284 0728 00       		.byte	0
 1285 0729 06       		.uleb128 0x6
 1286 072a 46040000 		.4byte	.LASF79
 1287 072e 09       		.byte	0x9
 1288 072f 60       		.byte	0x60
 1289 0730 E0000000 		.4byte	0xe0
 1290 0734 08       		.byte	0x8
 1291 0735 06       		.uleb128 0x6
 1292 0736 A4030000 		.4byte	.LASF80
 1293 073a 09       		.byte	0x9
 1294 073b 62       		.byte	0x62
 1295 073c FE040000 		.4byte	0x4fe
 1296 0740 0C       		.byte	0xc
 1297 0741 06       		.uleb128 0x6
 1298 0742 2E030000 		.4byte	.LASF81
 1299 0746 09       		.byte	0x9
 1300 0747 65       		.byte	0x65
 1301 0748 35020000 		.4byte	0x235
 1302 074c 10       		.byte	0x10
 1303 074d 06       		.uleb128 0x6
 1304 074e C1030000 		.4byte	.LASF82
ARM GAS  C:\Users\jsyoon\AppData\Local\Temp\ccycfEHF.s 			page 24


 1305 0752 09       		.byte	0x9
 1306 0753 66       		.byte	0x66
 1307 0754 35020000 		.4byte	0x235
 1308 0758 14       		.byte	0x14
 1309 0759 06       		.uleb128 0x6
 1310 075a B7030000 		.4byte	.LASF83
 1311 075e 09       		.byte	0x9
 1312 075f 69       		.byte	0x69
 1313 0760 35020000 		.4byte	0x235
 1314 0764 18       		.byte	0x18
 1315 0765 00       		.byte	0
 1316 0766 04       		.uleb128 0x4
 1317 0767 F2040000 		.4byte	.LASF84
 1318 076b 09       		.byte	0x9
 1319 076c 6B       		.byte	0x6b
 1320 076d 15070000 		.4byte	0x715
 1321 0771 05       		.uleb128 0x5
 1322 0772 82030000 		.4byte	.LASF85
 1323 0776 10       		.byte	0x10
 1324 0777 0A       		.byte	0xa
 1325 0778 2C       		.byte	0x2c
 1326 0779 A2070000 		.4byte	0x7a2
 1327 077d 06       		.uleb128 0x6
 1328 077e BC000000 		.4byte	.LASF86
 1329 0782 0A       		.byte	0xa
 1330 0783 2D       		.byte	0x2d
 1331 0784 3B020000 		.4byte	0x23b
 1332 0788 00       		.byte	0
 1333 0789 06       		.uleb128 0x6
 1334 078a 33050000 		.4byte	.LASF87
 1335 078e 0A       		.byte	0xa
 1336 078f 2F       		.byte	0x2f
 1337 0790 35020000 		.4byte	0x235
 1338 0794 08       		.byte	0x8
 1339 0795 06       		.uleb128 0x6
 1340 0796 A7040000 		.4byte	.LASF88
 1341 079a 0A       		.byte	0xa
 1342 079b 31       		.byte	0x31
 1343 079c A2070000 		.4byte	0x7a2
 1344 07a0 0C       		.byte	0xc
 1345 07a1 00       		.byte	0
 1346 07a2 09       		.uleb128 0x9
 1347 07a3 04       		.byte	0x4
 1348 07a4 71070000 		.4byte	0x771
 1349 07a8 04       		.uleb128 0x4
 1350 07a9 82030000 		.4byte	.LASF85
 1351 07ad 0A       		.byte	0xa
 1352 07ae 33       		.byte	0x33
 1353 07af 71070000 		.4byte	0x771
 1354 07b3 11       		.uleb128 0x11
 1355 07b4 04       		.byte	0x4
 1356 07b5 06       		.byte	0x6
 1357 07b6 96       		.byte	0x96
 1358 07b7 E8070000 		.4byte	0x7e8
 1359 07bb 12       		.uleb128 0x12
 1360 07bc 06000000 		.4byte	.LASF89
 1361 07c0 06       		.byte	0x6
ARM GAS  C:\Users\jsyoon\AppData\Local\Temp\ccycfEHF.s 			page 25


 1362 07c1 9D       		.byte	0x9d
 1363 07c2 EB000000 		.4byte	0xeb
 1364 07c6 12       		.uleb128 0x12
 1365 07c7 41020000 		.4byte	.LASF90
 1366 07cb 06       		.byte	0x6
 1367 07cc A4       		.byte	0xa4
 1368 07cd EB000000 		.4byte	0xeb
 1369 07d1 12       		.uleb128 0x12
 1370 07d2 0F050000 		.4byte	.LASF91
 1371 07d6 06       		.byte	0x6
 1372 07d7 AB       		.byte	0xab
 1373 07d8 71020000 		.4byte	0x271
 1374 07dc 12       		.uleb128 0x12
 1375 07dd 4D040000 		.4byte	.LASF92
 1376 07e1 06       		.byte	0x6
 1377 07e2 B2       		.byte	0xb2
 1378 07e3 F6000000 		.4byte	0xf6
 1379 07e7 00       		.byte	0
 1380 07e8 09       		.uleb128 0x9
 1381 07e9 04       		.byte	0x4
 1382 07ea EE070000 		.4byte	0x7ee
 1383 07ee 13       		.uleb128 0x13
 1384 07ef F3070000 		.4byte	0x7f3
 1385 07f3 03       		.uleb128 0x3
 1386 07f4 01       		.byte	0x1
 1387 07f5 08       		.byte	0x8
 1388 07f6 9A040000 		.4byte	.LASF93
 1389 07fa 09       		.uleb128 0x9
 1390 07fb 04       		.byte	0x4
 1391 07fc A8070000 		.4byte	0x7a8
 1392 0800 14       		.uleb128 0x14
 1393 0801 E7020000 		.4byte	.LASF94
 1394 0805 01       		.byte	0x1
 1395 0806 C8       		.byte	0xc8
 1396 0807 00000000 		.4byte	.LFB11
 1397 080b 14000000 		.4byte	.LFE11-.LFB11
 1398 080f 01       		.uleb128 0x1
 1399 0810 9C       		.byte	0x9c
 1400 0811 1F080000 		.4byte	0x81f
 1401 0815 15       		.uleb128 0x15
 1402 0816 04000000 		.4byte	.LVL0
 1403 081a 44090000 		.4byte	0x944
 1404 081e 00       		.byte	0
 1405 081f 14       		.uleb128 0x14
 1406 0820 D5020000 		.4byte	.LASF95
 1407 0824 01       		.byte	0x1
 1408 0825 5D       		.byte	0x5d
 1409 0826 00000000 		.4byte	.LFB8
 1410 082a 1C000000 		.4byte	.LFE8-.LFB8
 1411 082e 01       		.uleb128 0x1
 1412 082f 9C       		.byte	0x9c
 1413 0830 44080000 		.4byte	0x844
 1414 0834 16       		.uleb128 0x16
 1415 0835 DD030000 		.4byte	.LASF98
 1416 0839 01       		.byte	0x1
 1417 083a 5E       		.byte	0x5e
 1418 083b 44080000 		.4byte	0x844
ARM GAS  C:\Users\jsyoon\AppData\Local\Temp\ccycfEHF.s 			page 26


 1419 083f 00000000 		.4byte	.LLST0
 1420 0843 00       		.byte	0
 1421 0844 09       		.uleb128 0x9
 1422 0845 04       		.byte	0x4
 1423 0846 73020000 		.4byte	0x273
 1424 084a 14       		.uleb128 0x14
 1425 084b 16050000 		.4byte	.LASF96
 1426 084f 01       		.byte	0x1
 1427 0850 78       		.byte	0x78
 1428 0851 00000000 		.4byte	.LFB9
 1429 0855 30000000 		.4byte	.LFE9-.LFB9
 1430 0859 01       		.uleb128 0x1
 1431 085a 9C       		.byte	0x9c
 1432 085b A5080000 		.4byte	0x8a5
 1433 085f 17       		.uleb128 0x17
 1434 0860 14000000 		.4byte	.LVL3
 1435 0864 4B090000 		.4byte	0x94b
 1436 0868 77080000 		.4byte	0x877
 1437 086c 18       		.uleb128 0x18
 1438 086d 01       		.uleb128 0x1
 1439 086e 51       		.byte	0x51
 1440 086f 01       		.uleb128 0x1
 1441 0870 40       		.byte	0x40
 1442 0871 18       		.uleb128 0x18
 1443 0872 01       		.uleb128 0x1
 1444 0873 50       		.byte	0x50
 1445 0874 01       		.uleb128 0x1
 1446 0875 37       		.byte	0x37
 1447 0876 00       		.byte	0
 1448 0877 17       		.uleb128 0x17
 1449 0878 1C000000 		.4byte	.LVL4
 1450 087c 4B090000 		.4byte	0x94b
 1451 0880 8F080000 		.4byte	0x88f
 1452 0884 18       		.uleb128 0x18
 1453 0885 01       		.uleb128 0x1
 1454 0886 51       		.byte	0x51
 1455 0887 01       		.uleb128 0x1
 1456 0888 40       		.byte	0x40
 1457 0889 18       		.uleb128 0x18
 1458 088a 01       		.uleb128 0x1
 1459 088b 50       		.byte	0x50
 1460 088c 01       		.uleb128 0x1
 1461 088d 3A       		.byte	0x3a
 1462 088e 00       		.byte	0
 1463 088f 19       		.uleb128 0x19
 1464 0890 28000000 		.4byte	.LVL5
 1465 0894 4B090000 		.4byte	0x94b
 1466 0898 18       		.uleb128 0x18
 1467 0899 01       		.uleb128 0x1
 1468 089a 51       		.byte	0x51
 1469 089b 02       		.uleb128 0x2
 1470 089c 08       		.byte	0x8
 1471 089d 80       		.byte	0x80
 1472 089e 18       		.uleb128 0x18
 1473 089f 01       		.uleb128 0x1
 1474 08a0 50       		.byte	0x50
 1475 08a1 01       		.uleb128 0x1
ARM GAS  C:\Users\jsyoon\AppData\Local\Temp\ccycfEHF.s 			page 27


 1476 08a2 3B       		.byte	0x3b
 1477 08a3 00       		.byte	0
 1478 08a4 00       		.byte	0
 1479 08a5 14       		.uleb128 0x14
 1480 08a6 3C030000 		.4byte	.LASF97
 1481 08aa 01       		.byte	0x1
 1482 08ab 96       		.byte	0x96
 1483 08ac 00000000 		.4byte	.LFB10
 1484 08b0 78000000 		.4byte	.LFE10-.LFB10
 1485 08b4 01       		.uleb128 0x1
 1486 08b5 9C       		.byte	0x9c
 1487 08b6 D0080000 		.4byte	0x8d0
 1488 08ba 1A       		.uleb128 0x1a
 1489 08bb 00000000 		.4byte	.Ldebug_ranges0+0
 1490 08bf 16       		.uleb128 0x16
 1491 08c0 DD030000 		.4byte	.LASF98
 1492 08c4 01       		.byte	0x1
 1493 08c5 9A       		.byte	0x9a
 1494 08c6 44080000 		.4byte	0x844
 1495 08ca 21000000 		.4byte	.LLST1
 1496 08ce 00       		.byte	0
 1497 08cf 00       		.byte	0
 1498 08d0 14       		.uleb128 0x14
 1499 08d1 68000000 		.4byte	.LASF99
 1500 08d5 01       		.byte	0x1
 1501 08d6 2F       		.byte	0x2f
 1502 08d7 00000000 		.4byte	.LFB7
 1503 08db 12000000 		.4byte	.LFE7-.LFB7
 1504 08df 01       		.uleb128 0x1
 1505 08e0 9C       		.byte	0x9c
 1506 08e1 F8080000 		.4byte	0x8f8
 1507 08e5 15       		.uleb128 0x15
 1508 08e6 08000000 		.4byte	.LVL11
 1509 08ea 62090000 		.4byte	0x962
 1510 08ee 1B       		.uleb128 0x1b
 1511 08ef 12000000 		.4byte	.LVL12
 1512 08f3 A5080000 		.4byte	0x8a5
 1513 08f7 00       		.byte	0
 1514 08f8 14       		.uleb128 0x14
 1515 08f9 B6020000 		.4byte	.LASF100
 1516 08fd 01       		.byte	0x1
 1517 08fe E5       		.byte	0xe5
 1518 08ff 00000000 		.4byte	.LFB12
 1519 0903 18000000 		.4byte	.LFE12-.LFB12
 1520 0907 01       		.uleb128 0x1
 1521 0908 9C       		.byte	0x9c
 1522 0909 28090000 		.4byte	0x928
 1523 090d 1C       		.uleb128 0x1c
 1524 090e 6E747000 		.ascii	"ntp\000"
 1525 0912 01       		.byte	0x1
 1526 0913 E5       		.byte	0xe5
 1527 0914 35020000 		.4byte	0x235
 1528 0918 01       		.uleb128 0x1
 1529 0919 50       		.byte	0x50
 1530 091a 1C       		.uleb128 0x1c
 1531 091b 6F747000 		.ascii	"otp\000"
 1532 091f 01       		.byte	0x1
ARM GAS  C:\Users\jsyoon\AppData\Local\Temp\ccycfEHF.s 			page 28


 1533 0920 E5       		.byte	0xe5
 1534 0921 35020000 		.4byte	0x235
 1535 0925 01       		.uleb128 0x1
 1536 0926 51       		.byte	0x51
 1537 0927 00       		.byte	0
 1538 0928 1D       		.uleb128 0x1d
 1539 0929 57030000 		.4byte	.LASF106
 1540 092d 01       		.byte	0x1
 1541 092e FC       		.byte	0xfc
 1542 092f 00000000 		.4byte	.LFB13
 1543 0933 0C000000 		.4byte	.LFE13-.LFB13
 1544 0937 01       		.uleb128 0x1
 1545 0938 9C       		.byte	0x9c
 1546 0939 1E       		.uleb128 0x1e
 1547 093a 01050000 		.4byte	.LASF107
 1548 093e 09       		.byte	0x9
 1549 093f 6F       		.byte	0x6f
 1550 0940 66070000 		.4byte	0x766
 1551 0944 1F       		.uleb128 0x1f
 1552 0945 80020000 		.4byte	.LASF101
 1553 0949 09       		.byte	0x9
 1554 094a A8       		.byte	0xa8
 1555 094b 20       		.uleb128 0x20
 1556 094c 5A020000 		.4byte	.LASF108
 1557 0950 08       		.byte	0x8
 1558 0951 2501     		.2byte	0x125
 1559 0953 62090000 		.4byte	0x962
 1560 0957 21       		.uleb128 0x21
 1561 0958 A2000000 		.4byte	0xa2
 1562 095c 21       		.uleb128 0x21
 1563 095d A2000000 		.4byte	0xa2
 1564 0961 00       		.byte	0
 1565 0962 1F       		.uleb128 0x1f
 1566 0963 26000000 		.4byte	.LASF102
 1567 0967 0B       		.byte	0xb
 1568 0968 F7       		.byte	0xf7
 1569 0969 00       		.byte	0
 1570              		.section	.debug_abbrev,"",%progbits
 1571              	.Ldebug_abbrev0:
 1572 0000 01       		.uleb128 0x1
 1573 0001 11       		.uleb128 0x11
 1574 0002 01       		.byte	0x1
 1575 0003 25       		.uleb128 0x25
 1576 0004 0E       		.uleb128 0xe
 1577 0005 13       		.uleb128 0x13
 1578 0006 0B       		.uleb128 0xb
 1579 0007 03       		.uleb128 0x3
 1580 0008 0E       		.uleb128 0xe
 1581 0009 1B       		.uleb128 0x1b
 1582 000a 0E       		.uleb128 0xe
 1583 000b 55       		.uleb128 0x55
 1584 000c 17       		.uleb128 0x17
 1585 000d 11       		.uleb128 0x11
 1586 000e 01       		.uleb128 0x1
 1587 000f 10       		.uleb128 0x10
 1588 0010 17       		.uleb128 0x17
 1589 0011 00       		.byte	0
ARM GAS  C:\Users\jsyoon\AppData\Local\Temp\ccycfEHF.s 			page 29


 1590 0012 00       		.byte	0
 1591 0013 02       		.uleb128 0x2
 1592 0014 24       		.uleb128 0x24
 1593 0015 00       		.byte	0
 1594 0016 0B       		.uleb128 0xb
 1595 0017 0B       		.uleb128 0xb
 1596 0018 3E       		.uleb128 0x3e
 1597 0019 0B       		.uleb128 0xb
 1598 001a 03       		.uleb128 0x3
 1599 001b 08       		.uleb128 0x8
 1600 001c 00       		.byte	0
 1601 001d 00       		.byte	0
 1602 001e 03       		.uleb128 0x3
 1603 001f 24       		.uleb128 0x24
 1604 0020 00       		.byte	0
 1605 0021 0B       		.uleb128 0xb
 1606 0022 0B       		.uleb128 0xb
 1607 0023 3E       		.uleb128 0x3e
 1608 0024 0B       		.uleb128 0xb
 1609 0025 03       		.uleb128 0x3
 1610 0026 0E       		.uleb128 0xe
 1611 0027 00       		.byte	0
 1612 0028 00       		.byte	0
 1613 0029 04       		.uleb128 0x4
 1614 002a 16       		.uleb128 0x16
 1615 002b 00       		.byte	0
 1616 002c 03       		.uleb128 0x3
 1617 002d 0E       		.uleb128 0xe
 1618 002e 3A       		.uleb128 0x3a
 1619 002f 0B       		.uleb128 0xb
 1620 0030 3B       		.uleb128 0x3b
 1621 0031 0B       		.uleb128 0xb
 1622 0032 49       		.uleb128 0x49
 1623 0033 13       		.uleb128 0x13
 1624 0034 00       		.byte	0
 1625 0035 00       		.byte	0
 1626 0036 05       		.uleb128 0x5
 1627 0037 13       		.uleb128 0x13
 1628 0038 01       		.byte	0x1
 1629 0039 03       		.uleb128 0x3
 1630 003a 0E       		.uleb128 0xe
 1631 003b 0B       		.uleb128 0xb
 1632 003c 0B       		.uleb128 0xb
 1633 003d 3A       		.uleb128 0x3a
 1634 003e 0B       		.uleb128 0xb
 1635 003f 3B       		.uleb128 0x3b
 1636 0040 0B       		.uleb128 0xb
 1637 0041 01       		.uleb128 0x1
 1638 0042 13       		.uleb128 0x13
 1639 0043 00       		.byte	0
 1640 0044 00       		.byte	0
 1641 0045 06       		.uleb128 0x6
 1642 0046 0D       		.uleb128 0xd
 1643 0047 00       		.byte	0
 1644 0048 03       		.uleb128 0x3
 1645 0049 0E       		.uleb128 0xe
 1646 004a 3A       		.uleb128 0x3a
ARM GAS  C:\Users\jsyoon\AppData\Local\Temp\ccycfEHF.s 			page 30


 1647 004b 0B       		.uleb128 0xb
 1648 004c 3B       		.uleb128 0x3b
 1649 004d 0B       		.uleb128 0xb
 1650 004e 49       		.uleb128 0x49
 1651 004f 13       		.uleb128 0x13
 1652 0050 38       		.uleb128 0x38
 1653 0051 0B       		.uleb128 0xb
 1654 0052 00       		.byte	0
 1655 0053 00       		.byte	0
 1656 0054 07       		.uleb128 0x7
 1657 0055 0D       		.uleb128 0xd
 1658 0056 00       		.byte	0
 1659 0057 03       		.uleb128 0x3
 1660 0058 08       		.uleb128 0x8
 1661 0059 3A       		.uleb128 0x3a
 1662 005a 0B       		.uleb128 0xb
 1663 005b 3B       		.uleb128 0x3b
 1664 005c 0B       		.uleb128 0xb
 1665 005d 49       		.uleb128 0x49
 1666 005e 13       		.uleb128 0x13
 1667 005f 38       		.uleb128 0x38
 1668 0060 0B       		.uleb128 0xb
 1669 0061 00       		.byte	0
 1670 0062 00       		.byte	0
 1671 0063 08       		.uleb128 0x8
 1672 0064 13       		.uleb128 0x13
 1673 0065 01       		.byte	0x1
 1674 0066 0B       		.uleb128 0xb
 1675 0067 0B       		.uleb128 0xb
 1676 0068 3A       		.uleb128 0x3a
 1677 0069 0B       		.uleb128 0xb
 1678 006a 3B       		.uleb128 0x3b
 1679 006b 0B       		.uleb128 0xb
 1680 006c 01       		.uleb128 0x1
 1681 006d 13       		.uleb128 0x13
 1682 006e 00       		.byte	0
 1683 006f 00       		.byte	0
 1684 0070 09       		.uleb128 0x9
 1685 0071 0F       		.uleb128 0xf
 1686 0072 00       		.byte	0
 1687 0073 0B       		.uleb128 0xb
 1688 0074 0B       		.uleb128 0xb
 1689 0075 49       		.uleb128 0x49
 1690 0076 13       		.uleb128 0x13
 1691 0077 00       		.byte	0
 1692 0078 00       		.byte	0
 1693 0079 0A       		.uleb128 0xa
 1694 007a 0F       		.uleb128 0xf
 1695 007b 00       		.byte	0
 1696 007c 0B       		.uleb128 0xb
 1697 007d 0B       		.uleb128 0xb
 1698 007e 00       		.byte	0
 1699 007f 00       		.byte	0
 1700 0080 0B       		.uleb128 0xb
 1701 0081 0D       		.uleb128 0xd
 1702 0082 00       		.byte	0
 1703 0083 03       		.uleb128 0x3
ARM GAS  C:\Users\jsyoon\AppData\Local\Temp\ccycfEHF.s 			page 31


 1704 0084 08       		.uleb128 0x8
 1705 0085 3A       		.uleb128 0x3a
 1706 0086 0B       		.uleb128 0xb
 1707 0087 3B       		.uleb128 0x3b
 1708 0088 05       		.uleb128 0x5
 1709 0089 49       		.uleb128 0x49
 1710 008a 13       		.uleb128 0x13
 1711 008b 38       		.uleb128 0x38
 1712 008c 0B       		.uleb128 0xb
 1713 008d 00       		.byte	0
 1714 008e 00       		.byte	0
 1715 008f 0C       		.uleb128 0xc
 1716 0090 0D       		.uleb128 0xd
 1717 0091 00       		.byte	0
 1718 0092 03       		.uleb128 0x3
 1719 0093 0E       		.uleb128 0xe
 1720 0094 3A       		.uleb128 0x3a
 1721 0095 0B       		.uleb128 0xb
 1722 0096 3B       		.uleb128 0x3b
 1723 0097 05       		.uleb128 0x5
 1724 0098 49       		.uleb128 0x49
 1725 0099 13       		.uleb128 0x13
 1726 009a 38       		.uleb128 0x38
 1727 009b 0B       		.uleb128 0xb
 1728 009c 00       		.byte	0
 1729 009d 00       		.byte	0
 1730 009e 0D       		.uleb128 0xd
 1731 009f 13       		.uleb128 0x13
 1732 00a0 01       		.byte	0x1
 1733 00a1 03       		.uleb128 0x3
 1734 00a2 0E       		.uleb128 0xe
 1735 00a3 0B       		.uleb128 0xb
 1736 00a4 0B       		.uleb128 0xb
 1737 00a5 3A       		.uleb128 0x3a
 1738 00a6 0B       		.uleb128 0xb
 1739 00a7 3B       		.uleb128 0x3b
 1740 00a8 05       		.uleb128 0x5
 1741 00a9 01       		.uleb128 0x1
 1742 00aa 13       		.uleb128 0x13
 1743 00ab 00       		.byte	0
 1744 00ac 00       		.byte	0
 1745 00ad 0E       		.uleb128 0xe
 1746 00ae 35       		.uleb128 0x35
 1747 00af 00       		.byte	0
 1748 00b0 49       		.uleb128 0x49
 1749 00b1 13       		.uleb128 0x13
 1750 00b2 00       		.byte	0
 1751 00b3 00       		.byte	0
 1752 00b4 0F       		.uleb128 0xf
 1753 00b5 01       		.uleb128 0x1
 1754 00b6 01       		.byte	0x1
 1755 00b7 49       		.uleb128 0x49
 1756 00b8 13       		.uleb128 0x13
 1757 00b9 01       		.uleb128 0x1
 1758 00ba 13       		.uleb128 0x13
 1759 00bb 00       		.byte	0
 1760 00bc 00       		.byte	0
ARM GAS  C:\Users\jsyoon\AppData\Local\Temp\ccycfEHF.s 			page 32


 1761 00bd 10       		.uleb128 0x10
 1762 00be 21       		.uleb128 0x21
 1763 00bf 00       		.byte	0
 1764 00c0 49       		.uleb128 0x49
 1765 00c1 13       		.uleb128 0x13
 1766 00c2 2F       		.uleb128 0x2f
 1767 00c3 0B       		.uleb128 0xb
 1768 00c4 00       		.byte	0
 1769 00c5 00       		.byte	0
 1770 00c6 11       		.uleb128 0x11
 1771 00c7 17       		.uleb128 0x17
 1772 00c8 01       		.byte	0x1
 1773 00c9 0B       		.uleb128 0xb
 1774 00ca 0B       		.uleb128 0xb
 1775 00cb 3A       		.uleb128 0x3a
 1776 00cc 0B       		.uleb128 0xb
 1777 00cd 3B       		.uleb128 0x3b
 1778 00ce 0B       		.uleb128 0xb
 1779 00cf 01       		.uleb128 0x1
 1780 00d0 13       		.uleb128 0x13
 1781 00d1 00       		.byte	0
 1782 00d2 00       		.byte	0
 1783 00d3 12       		.uleb128 0x12
 1784 00d4 0D       		.uleb128 0xd
 1785 00d5 00       		.byte	0
 1786 00d6 03       		.uleb128 0x3
 1787 00d7 0E       		.uleb128 0xe
 1788 00d8 3A       		.uleb128 0x3a
 1789 00d9 0B       		.uleb128 0xb
 1790 00da 3B       		.uleb128 0x3b
 1791 00db 0B       		.uleb128 0xb
 1792 00dc 49       		.uleb128 0x49
 1793 00dd 13       		.uleb128 0x13
 1794 00de 00       		.byte	0
 1795 00df 00       		.byte	0
 1796 00e0 13       		.uleb128 0x13
 1797 00e1 26       		.uleb128 0x26
 1798 00e2 00       		.byte	0
 1799 00e3 49       		.uleb128 0x49
 1800 00e4 13       		.uleb128 0x13
 1801 00e5 00       		.byte	0
 1802 00e6 00       		.byte	0
 1803 00e7 14       		.uleb128 0x14
 1804 00e8 2E       		.uleb128 0x2e
 1805 00e9 01       		.byte	0x1
 1806 00ea 3F       		.uleb128 0x3f
 1807 00eb 19       		.uleb128 0x19
 1808 00ec 03       		.uleb128 0x3
 1809 00ed 0E       		.uleb128 0xe
 1810 00ee 3A       		.uleb128 0x3a
 1811 00ef 0B       		.uleb128 0xb
 1812 00f0 3B       		.uleb128 0x3b
 1813 00f1 0B       		.uleb128 0xb
 1814 00f2 27       		.uleb128 0x27
 1815 00f3 19       		.uleb128 0x19
 1816 00f4 11       		.uleb128 0x11
 1817 00f5 01       		.uleb128 0x1
ARM GAS  C:\Users\jsyoon\AppData\Local\Temp\ccycfEHF.s 			page 33


 1818 00f6 12       		.uleb128 0x12
 1819 00f7 06       		.uleb128 0x6
 1820 00f8 40       		.uleb128 0x40
 1821 00f9 18       		.uleb128 0x18
 1822 00fa 9742     		.uleb128 0x2117
 1823 00fc 19       		.uleb128 0x19
 1824 00fd 01       		.uleb128 0x1
 1825 00fe 13       		.uleb128 0x13
 1826 00ff 00       		.byte	0
 1827 0100 00       		.byte	0
 1828 0101 15       		.uleb128 0x15
 1829 0102 898201   		.uleb128 0x4109
 1830 0105 00       		.byte	0
 1831 0106 11       		.uleb128 0x11
 1832 0107 01       		.uleb128 0x1
 1833 0108 31       		.uleb128 0x31
 1834 0109 13       		.uleb128 0x13
 1835 010a 00       		.byte	0
 1836 010b 00       		.byte	0
 1837 010c 16       		.uleb128 0x16
 1838 010d 34       		.uleb128 0x34
 1839 010e 00       		.byte	0
 1840 010f 03       		.uleb128 0x3
 1841 0110 0E       		.uleb128 0xe
 1842 0111 3A       		.uleb128 0x3a
 1843 0112 0B       		.uleb128 0xb
 1844 0113 3B       		.uleb128 0x3b
 1845 0114 0B       		.uleb128 0xb
 1846 0115 49       		.uleb128 0x49
 1847 0116 13       		.uleb128 0x13
 1848 0117 02       		.uleb128 0x2
 1849 0118 17       		.uleb128 0x17
 1850 0119 00       		.byte	0
 1851 011a 00       		.byte	0
 1852 011b 17       		.uleb128 0x17
 1853 011c 898201   		.uleb128 0x4109
 1854 011f 01       		.byte	0x1
 1855 0120 11       		.uleb128 0x11
 1856 0121 01       		.uleb128 0x1
 1857 0122 31       		.uleb128 0x31
 1858 0123 13       		.uleb128 0x13
 1859 0124 01       		.uleb128 0x1
 1860 0125 13       		.uleb128 0x13
 1861 0126 00       		.byte	0
 1862 0127 00       		.byte	0
 1863 0128 18       		.uleb128 0x18
 1864 0129 8A8201   		.uleb128 0x410a
 1865 012c 00       		.byte	0
 1866 012d 02       		.uleb128 0x2
 1867 012e 18       		.uleb128 0x18
 1868 012f 9142     		.uleb128 0x2111
 1869 0131 18       		.uleb128 0x18
 1870 0132 00       		.byte	0
 1871 0133 00       		.byte	0
 1872 0134 19       		.uleb128 0x19
 1873 0135 898201   		.uleb128 0x4109
 1874 0138 01       		.byte	0x1
ARM GAS  C:\Users\jsyoon\AppData\Local\Temp\ccycfEHF.s 			page 34


 1875 0139 11       		.uleb128 0x11
 1876 013a 01       		.uleb128 0x1
 1877 013b 9542     		.uleb128 0x2115
 1878 013d 19       		.uleb128 0x19
 1879 013e 31       		.uleb128 0x31
 1880 013f 13       		.uleb128 0x13
 1881 0140 00       		.byte	0
 1882 0141 00       		.byte	0
 1883 0142 1A       		.uleb128 0x1a
 1884 0143 0B       		.uleb128 0xb
 1885 0144 01       		.byte	0x1
 1886 0145 55       		.uleb128 0x55
 1887 0146 17       		.uleb128 0x17
 1888 0147 00       		.byte	0
 1889 0148 00       		.byte	0
 1890 0149 1B       		.uleb128 0x1b
 1891 014a 898201   		.uleb128 0x4109
 1892 014d 00       		.byte	0
 1893 014e 11       		.uleb128 0x11
 1894 014f 01       		.uleb128 0x1
 1895 0150 9542     		.uleb128 0x2115
 1896 0152 19       		.uleb128 0x19
 1897 0153 31       		.uleb128 0x31
 1898 0154 13       		.uleb128 0x13
 1899 0155 00       		.byte	0
 1900 0156 00       		.byte	0
 1901 0157 1C       		.uleb128 0x1c
 1902 0158 05       		.uleb128 0x5
 1903 0159 00       		.byte	0
 1904 015a 03       		.uleb128 0x3
 1905 015b 08       		.uleb128 0x8
 1906 015c 3A       		.uleb128 0x3a
 1907 015d 0B       		.uleb128 0xb
 1908 015e 3B       		.uleb128 0x3b
 1909 015f 0B       		.uleb128 0xb
 1910 0160 49       		.uleb128 0x49
 1911 0161 13       		.uleb128 0x13
 1912 0162 02       		.uleb128 0x2
 1913 0163 18       		.uleb128 0x18
 1914 0164 00       		.byte	0
 1915 0165 00       		.byte	0
 1916 0166 1D       		.uleb128 0x1d
 1917 0167 2E       		.uleb128 0x2e
 1918 0168 00       		.byte	0
 1919 0169 3F       		.uleb128 0x3f
 1920 016a 19       		.uleb128 0x19
 1921 016b 03       		.uleb128 0x3
 1922 016c 0E       		.uleb128 0xe
 1923 016d 3A       		.uleb128 0x3a
 1924 016e 0B       		.uleb128 0xb
 1925 016f 3B       		.uleb128 0x3b
 1926 0170 0B       		.uleb128 0xb
 1927 0171 27       		.uleb128 0x27
 1928 0172 19       		.uleb128 0x19
 1929 0173 11       		.uleb128 0x11
 1930 0174 01       		.uleb128 0x1
 1931 0175 12       		.uleb128 0x12
ARM GAS  C:\Users\jsyoon\AppData\Local\Temp\ccycfEHF.s 			page 35


 1932 0176 06       		.uleb128 0x6
 1933 0177 40       		.uleb128 0x40
 1934 0178 18       		.uleb128 0x18
 1935 0179 9742     		.uleb128 0x2117
 1936 017b 19       		.uleb128 0x19
 1937 017c 00       		.byte	0
 1938 017d 00       		.byte	0
 1939 017e 1E       		.uleb128 0x1e
 1940 017f 34       		.uleb128 0x34
 1941 0180 00       		.byte	0
 1942 0181 03       		.uleb128 0x3
 1943 0182 0E       		.uleb128 0xe
 1944 0183 3A       		.uleb128 0x3a
 1945 0184 0B       		.uleb128 0xb
 1946 0185 3B       		.uleb128 0x3b
 1947 0186 0B       		.uleb128 0xb
 1948 0187 49       		.uleb128 0x49
 1949 0188 13       		.uleb128 0x13
 1950 0189 3F       		.uleb128 0x3f
 1951 018a 19       		.uleb128 0x19
 1952 018b 3C       		.uleb128 0x3c
 1953 018c 19       		.uleb128 0x19
 1954 018d 00       		.byte	0
 1955 018e 00       		.byte	0
 1956 018f 1F       		.uleb128 0x1f
 1957 0190 2E       		.uleb128 0x2e
 1958 0191 00       		.byte	0
 1959 0192 3F       		.uleb128 0x3f
 1960 0193 19       		.uleb128 0x19
 1961 0194 03       		.uleb128 0x3
 1962 0195 0E       		.uleb128 0xe
 1963 0196 3A       		.uleb128 0x3a
 1964 0197 0B       		.uleb128 0xb
 1965 0198 3B       		.uleb128 0x3b
 1966 0199 0B       		.uleb128 0xb
 1967 019a 27       		.uleb128 0x27
 1968 019b 19       		.uleb128 0x19
 1969 019c 3C       		.uleb128 0x3c
 1970 019d 19       		.uleb128 0x19
 1971 019e 00       		.byte	0
 1972 019f 00       		.byte	0
 1973 01a0 20       		.uleb128 0x20
 1974 01a1 2E       		.uleb128 0x2e
 1975 01a2 01       		.byte	0x1
 1976 01a3 3F       		.uleb128 0x3f
 1977 01a4 19       		.uleb128 0x19
 1978 01a5 03       		.uleb128 0x3
 1979 01a6 0E       		.uleb128 0xe
 1980 01a7 3A       		.uleb128 0x3a
 1981 01a8 0B       		.uleb128 0xb
 1982 01a9 3B       		.uleb128 0x3b
 1983 01aa 05       		.uleb128 0x5
 1984 01ab 27       		.uleb128 0x27
 1985 01ac 19       		.uleb128 0x19
 1986 01ad 3C       		.uleb128 0x3c
 1987 01ae 19       		.uleb128 0x19
 1988 01af 01       		.uleb128 0x1
ARM GAS  C:\Users\jsyoon\AppData\Local\Temp\ccycfEHF.s 			page 36


 1989 01b0 13       		.uleb128 0x13
 1990 01b1 00       		.byte	0
 1991 01b2 00       		.byte	0
 1992 01b3 21       		.uleb128 0x21
 1993 01b4 05       		.uleb128 0x5
 1994 01b5 00       		.byte	0
 1995 01b6 49       		.uleb128 0x49
 1996 01b7 13       		.uleb128 0x13
 1997 01b8 00       		.byte	0
 1998 01b9 00       		.byte	0
 1999 01ba 00       		.byte	0
 2000              		.section	.debug_loc,"",%progbits
 2001              	.Ldebug_loc0:
 2002              	.LLST0:
 2003 0000 0E000000 		.4byte	.LVL1
 2004 0004 10000000 		.4byte	.LVL2
 2005 0008 0400     		.2byte	0x4
 2006 000a 73       		.byte	0x73
 2007 000b E800     		.sleb128 104
 2008 000d 9F       		.byte	0x9f
 2009 000e 10000000 		.4byte	.LVL2
 2010 0012 1C000000 		.4byte	.LFE8
 2011 0016 0100     		.2byte	0x1
 2012 0018 53       		.byte	0x53
 2013 0019 00000000 		.4byte	0
 2014 001d 00000000 		.4byte	0
 2015              	.LLST1:
 2016 0021 12000000 		.4byte	.LVL6
 2017 0025 26000000 		.4byte	.LVL7
 2018 0029 0400     		.2byte	0x4
 2019 002b 73       		.byte	0x73
 2020 002c 987F     		.sleb128 -104
 2021 002e 9F       		.byte	0x9f
 2022 002f 26000000 		.4byte	.LVL7
 2023 0033 2E000000 		.4byte	.LVL8
 2024 0037 0100     		.2byte	0x1
 2025 0039 52       		.byte	0x52
 2026 003a 2E000000 		.4byte	.LVL8
 2027 003e 4A000000 		.4byte	.LVL9
 2028 0042 0400     		.2byte	0x4
 2029 0044 73       		.byte	0x73
 2030 0045 987F     		.sleb128 -104
 2031 0047 9F       		.byte	0x9f
 2032 0048 4E000000 		.4byte	.LVL10
 2033 004c 78000000 		.4byte	.LFE10
 2034 0050 0400     		.2byte	0x4
 2035 0052 73       		.byte	0x73
 2036 0053 987F     		.sleb128 -104
 2037 0055 9F       		.byte	0x9f
 2038 0056 00000000 		.4byte	0
 2039 005a 00000000 		.4byte	0
 2040              		.section	.debug_aranges,"",%progbits
 2041 0000 4C000000 		.4byte	0x4c
 2042 0004 0200     		.2byte	0x2
 2043 0006 00000000 		.4byte	.Ldebug_info0
 2044 000a 04       		.byte	0x4
 2045 000b 00       		.byte	0
ARM GAS  C:\Users\jsyoon\AppData\Local\Temp\ccycfEHF.s 			page 37


 2046 000c 0000     		.2byte	0
 2047 000e 0000     		.2byte	0
 2048 0010 00000000 		.4byte	.LFB11
 2049 0014 14000000 		.4byte	.LFE11-.LFB11
 2050 0018 00000000 		.4byte	.LFB8
 2051 001c 1C000000 		.4byte	.LFE8-.LFB8
 2052 0020 00000000 		.4byte	.LFB9
 2053 0024 30000000 		.4byte	.LFE9-.LFB9
 2054 0028 00000000 		.4byte	.LFB10
 2055 002c 78000000 		.4byte	.LFE10-.LFB10
 2056 0030 00000000 		.4byte	.LFB7
 2057 0034 12000000 		.4byte	.LFE7-.LFB7
 2058 0038 00000000 		.4byte	.LFB12
 2059 003c 18000000 		.4byte	.LFE12-.LFB12
 2060 0040 00000000 		.4byte	.LFB13
 2061 0044 0C000000 		.4byte	.LFE13-.LFB13
 2062 0048 00000000 		.4byte	0
 2063 004c 00000000 		.4byte	0
 2064              		.section	.debug_ranges,"",%progbits
 2065              	.Ldebug_ranges0:
 2066 0000 0A000000 		.4byte	.LBB2
 2067 0004 4A000000 		.4byte	.LBE2
 2068 0008 4E000000 		.4byte	.LBB3
 2069 000c 78000000 		.4byte	.LBE3
 2070 0010 00000000 		.4byte	0
 2071 0014 00000000 		.4byte	0
 2072 0018 00000000 		.4byte	.LFB11
 2073 001c 14000000 		.4byte	.LFE11
 2074 0020 00000000 		.4byte	.LFB8
 2075 0024 1C000000 		.4byte	.LFE8
 2076 0028 00000000 		.4byte	.LFB9
 2077 002c 30000000 		.4byte	.LFE9
 2078 0030 00000000 		.4byte	.LFB10
 2079 0034 78000000 		.4byte	.LFE10
 2080 0038 00000000 		.4byte	.LFB7
 2081 003c 12000000 		.4byte	.LFE7
 2082 0040 00000000 		.4byte	.LFB12
 2083 0044 18000000 		.4byte	.LFE12
 2084 0048 00000000 		.4byte	.LFB13
 2085 004c 0C000000 		.4byte	.LFE13
 2086 0050 00000000 		.4byte	0
 2087 0054 00000000 		.4byte	0
 2088              		.section	.debug_line,"",%progbits
 2089              	.Ldebug_line0:
 2090 0000 49020000 		.section	.debug_str,"MS",%progbits,1
 2090      02009701 
 2090      00000201 
 2090      FB0E0D00 
 2090      01010101 
 2091              	.LASF39:
 2092 0000 705F6D73 		.ascii	"p_msg\000"
 2092      6700
 2093              	.LASF89:
 2094 0006 7264796D 		.ascii	"rdymsg\000"
 2094      736700
 2095              	.LASF74:
 2096 000d 46504453 		.ascii	"FPDSCR\000"
ARM GAS  C:\Users\jsyoon\AppData\Local\Temp\ccycfEHF.s 			page 38


 2096      435200
 2097              	.LASF5:
 2098 0014 5F5F7569 		.ascii	"__uint8_t\000"
 2098      6E74385F 
 2098      7400
 2099              	.LASF71:
 2100 001e 434D785F 		.ascii	"CMx_SCB\000"
 2100      53434200 
 2101              	.LASF102:
 2102 0026 63685379 		.ascii	"chSysTimerHandlerI\000"
 2102      7354696D 
 2102      65724861 
 2102      6E646C65 
 2102      724900
 2103              	.LASF104:
 2104 0039 43686962 		.ascii	"ChibiOS_2.6.6/os/ports/GCC/ARMCMx/chcore_v7m.c\000"
 2104      694F535F 
 2104      322E362E 
 2104      362F6F73 
 2104      2F706F72 
 2105              	.LASF99:
 2106 0068 53797354 		.ascii	"SysTickVector\000"
 2106      69636B56 
 2106      6563746F 
 2106      7200
 2107              	.LASF11:
 2108 0076 6C6F6E67 		.ascii	"long long unsigned int\000"
 2108      206C6F6E 
 2108      6720756E 
 2108      7369676E 
 2108      65642069 
 2109              	.LASF56:
 2110 008d 43505549 		.ascii	"CPUID\000"
 2110      4400
 2111              	.LASF27:
 2112 0093 705F7072 		.ascii	"p_prio\000"
 2112      696F00
 2113              	.LASF10:
 2114 009a 6C6F6E67 		.ascii	"long long int\000"
 2114      206C6F6E 
 2114      6720696E 
 2114      7400
 2115              	.LASF1:
 2116 00a8 7369676E 		.ascii	"signed char\000"
 2116      65642063 
 2116      68617200 
 2117              	.LASF43:
 2118 00b4 705F6D70 		.ascii	"p_mpool\000"
 2118      6F6F6C00 
 2119              	.LASF86:
 2120 00bc 6D5F7175 		.ascii	"m_queue\000"
 2120      65756500 
 2121              	.LASF19:
 2122 00c4 74736C69 		.ascii	"tslices_t\000"
 2122      6365735F 
 2122      7400
 2123              	.LASF105:
ARM GAS  C:\Users\jsyoon\AppData\Local\Temp\ccycfEHF.s 			page 39


 2124 00ce 453A5C4D 		.ascii	"E:\\Maker\\BLDC\\test_eval\\try2\\OROCA-BLDC_R15080"
 2124      616B6572 
 2124      5C424C44 
 2124      435C7465 
 2124      73745F65 
 2125 00fc 3700     		.ascii	"7\000"
 2126              	.LASF7:
 2127 00fe 6C6F6E67 		.ascii	"long int\000"
 2127      20696E74 
 2127      00
 2128              	.LASF17:
 2129 0107 74737461 		.ascii	"tstate_t\000"
 2129      74655F74 
 2129      00
 2130              	.LASF103:
 2131 0110 474E5520 		.ascii	"GNU C 4.8.4 20140526 (release) [ARM/embedded-4_8-br"
 2131      4320342E 
 2131      382E3420 
 2131      32303134 
 2131      30353236 
 2132 0143 616E6368 		.ascii	"anch revision 211358] -mcpu=cortex-m4 -mfloat-abi=h"
 2132      20726576 
 2132      6973696F 
 2132      6E203231 
 2132      31333538 
 2133 0176 61726420 		.ascii	"ard -mfpu=fpv4-sp-d16 -mno-thumb-interwork -mthumb "
 2133      2D6D6670 
 2133      753D6670 
 2133      76342D73 
 2133      702D6431 
 2134 01a9 2D676764 		.ascii	"-ggdb -O2 -std=gnu99 -fomit-frame-pointer -falign-f"
 2134      62202D4F 
 2134      32202D73 
 2134      74643D67 
 2134      6E753939 
 2135 01dc 756E6374 		.ascii	"unctions=16 -ffunction-sections -fdata-sections -fn"
 2135      696F6E73 
 2135      3D313620 
 2135      2D666675 
 2135      6E637469 
 2136 020f 6F2D636F 		.ascii	"o-common -fsingle-precision-constant\000"
 2136      6D6D6F6E 
 2136      202D6673 
 2136      696E676C 
 2136      652D7072 
 2137              	.LASF29:
 2138 0234 705F6E65 		.ascii	"p_newer\000"
 2138      77657200 
 2139              	.LASF66:
 2140 023c 42464152 		.ascii	"BFAR\000"
 2140      00
 2141              	.LASF90:
 2142 0241 65786974 		.ascii	"exitcode\000"
 2142      636F6465 
 2142      00
 2143              	.LASF67:
 2144 024a 41465352 		.ascii	"AFSR\000"
ARM GAS  C:\Users\jsyoon\AppData\Local\Temp\ccycfEHF.s 			page 40


 2144      00
 2145              	.LASF8:
 2146 024f 5F5F7569 		.ascii	"__uint32_t\000"
 2146      6E743332 
 2146      5F7400
 2147              	.LASF108:
 2148 025a 6E766963 		.ascii	"nvicSetSystemHandlerPriority\000"
 2148      53657453 
 2148      79737465 
 2148      6D48616E 
 2148      646C6572 
 2149              	.LASF46:
 2150 0277 72656761 		.ascii	"regarm_t\000"
 2150      726D5F74 
 2150      00
 2151              	.LASF101:
 2152 0280 63685363 		.ascii	"chSchDoReschedule\000"
 2152      68446F52 
 2152      65736368 
 2152      6564756C 
 2152      6500
 2153              	.LASF51:
 2154 0292 72657365 		.ascii	"reserved\000"
 2154      72766564 
 2154      00
 2155              	.LASF0:
 2156 029b 756E7369 		.ascii	"unsigned int\000"
 2156      676E6564 
 2156      20696E74 
 2156      00
 2157              	.LASF48:
 2158 02a8 6C725F74 		.ascii	"lr_thd\000"
 2158      686400
 2159              	.LASF47:
 2160 02af 65787463 		.ascii	"extctx\000"
 2160      747800
 2161              	.LASF100:
 2162 02b6 5F706F72 		.ascii	"_port_switch\000"
 2162      745F7377 
 2162      69746368 
 2162      00
 2163              	.LASF9:
 2164 02c3 6C6F6E67 		.ascii	"long unsigned int\000"
 2164      20756E73 
 2164      69676E65 
 2164      6420696E 
 2164      7400
 2165              	.LASF95:
 2166 02d5 50656E64 		.ascii	"PendSVVector\000"
 2166      53565665 
 2166      63746F72 
 2166      00
 2167              	.LASF58:
 2168 02e2 56544F52 		.ascii	"VTOR\000"
 2168      00
 2169              	.LASF94:
 2170 02e7 5F706F72 		.ascii	"_port_switch_from_isr\000"
ARM GAS  C:\Users\jsyoon\AppData\Local\Temp\ccycfEHF.s 			page 41


 2170      745F7377 
 2170      69746368 
 2170      5F66726F 
 2170      6D5F6973 
 2171              	.LASF53:
 2172 02fd 636F6E74 		.ascii	"context\000"
 2172      65787400 
 2173              	.LASF4:
 2174 0305 73686F72 		.ascii	"short unsigned int\000"
 2174      7420756E 
 2174      7369676E 
 2174      65642069 
 2174      6E7400
 2175              	.LASF57:
 2176 0318 49435352 		.ascii	"ICSR\000"
 2176      00
 2177              	.LASF21:
 2178 031d 6D73675F 		.ascii	"msg_t\000"
 2178      7400
 2179              	.LASF59:
 2180 0323 41495243 		.ascii	"AIRCR\000"
 2180      5200
 2181              	.LASF64:
 2182 0329 44465352 		.ascii	"DFSR\000"
 2182      00
 2183              	.LASF81:
 2184 032e 725F6E65 		.ascii	"r_newer\000"
 2184      77657200 
 2185              	.LASF65:
 2186 0336 4D4D4641 		.ascii	"MMFAR\000"
 2186      5200
 2187              	.LASF97:
 2188 033c 5F706F72 		.ascii	"_port_irq_epilogue\000"
 2188      745F6972 
 2188      715F6570 
 2188      696C6F67 
 2188      756500
 2189              	.LASF16:
 2190 034f 746D6F64 		.ascii	"tmode_t\000"
 2190      655F7400 
 2191              	.LASF106:
 2192 0357 5F706F72 		.ascii	"_port_thread_start\000"
 2192      745F7468 
 2192      72656164 
 2192      5F737461 
 2192      727400
 2193              	.LASF45:
 2194 036a 54687265 		.ascii	"ThreadsList\000"
 2194      6164734C 
 2194      69737400 
 2195              	.LASF22:
 2196 0376 6576656E 		.ascii	"eventmask_t\000"
 2196      746D6173 
 2196      6B5F7400 
 2197              	.LASF85:
 2198 0382 4D757465 		.ascii	"Mutex\000"
 2198      7800
ARM GAS  C:\Users\jsyoon\AppData\Local\Temp\ccycfEHF.s 			page 42


 2199              	.LASF72:
 2200 0388 46504343 		.ascii	"FPCCR\000"
 2200      5200
 2201              	.LASF55:
 2202 038e 73697A65 		.ascii	"sizetype\000"
 2202      74797065 
 2202      00
 2203              	.LASF62:
 2204 0397 43465352 		.ascii	"CFSR\000"
 2204      00
 2205              	.LASF30:
 2206 039c 705F6F6C 		.ascii	"p_older\000"
 2206      64657200 
 2207              	.LASF80:
 2208 03a4 725F6374 		.ascii	"r_ctx\000"
 2208      7800
 2209              	.LASF44:
 2210 03aa 54687265 		.ascii	"ThreadsQueue\000"
 2210      61647351 
 2210      75657565 
 2210      00
 2211              	.LASF83:
 2212 03b7 725F6375 		.ascii	"r_current\000"
 2212      7272656E 
 2212      7400
 2213              	.LASF82:
 2214 03c1 725F6F6C 		.ascii	"r_older\000"
 2214      64657200 
 2215              	.LASF75:
 2216 03c9 4D564652 		.ascii	"MVFR0\000"
 2216      3000
 2217              	.LASF76:
 2218 03cf 4D564652 		.ascii	"MVFR1\000"
 2218      3100
 2219              	.LASF18:
 2220 03d5 74726566 		.ascii	"trefs_t\000"
 2220      735F7400 
 2221              	.LASF98:
 2222 03dd 63747870 		.ascii	"ctxp\000"
 2222      00
 2223              	.LASF26:
 2224 03e2 705F7072 		.ascii	"p_prev\000"
 2224      657600
 2225              	.LASF20:
 2226 03e9 74707269 		.ascii	"tprio_t\000"
 2226      6F5F7400 
 2227              	.LASF15:
 2228 03f1 5F426F6F 		.ascii	"_Bool\000"
 2228      6C00
 2229              	.LASF13:
 2230 03f7 696E7433 		.ascii	"int32_t\000"
 2230      325F7400 
 2231              	.LASF2:
 2232 03ff 756E7369 		.ascii	"unsigned char\000"
 2232      676E6564 
 2232      20636861 
 2232      7200
ARM GAS  C:\Users\jsyoon\AppData\Local\Temp\ccycfEHF.s 			page 43


 2233              	.LASF61:
 2234 040d 53484353 		.ascii	"SHCSR\000"
 2234      5200
 2235              	.LASF41:
 2236 0413 705F6D74 		.ascii	"p_mtxlist\000"
 2236      786C6973 
 2236      7400
 2237              	.LASF3:
 2238 041d 73686F72 		.ascii	"short int\000"
 2238      7420696E 
 2238      7400
 2239              	.LASF32:
 2240 0427 705F7374 		.ascii	"p_state\000"
 2240      61746500 
 2241              	.LASF77:
 2242 042f 434D785F 		.ascii	"CMx_FPU\000"
 2242      46505500 
 2243              	.LASF35:
 2244 0437 705F7072 		.ascii	"p_preempt\000"
 2244      65656D70 
 2244      7400
 2245              	.LASF49:
 2246 0441 78707372 		.ascii	"xpsr\000"
 2246      00
 2247              	.LASF79:
 2248 0446 725F7072 		.ascii	"r_prio\000"
 2248      696F00
 2249              	.LASF92:
 2250 044d 65776D61 		.ascii	"ewmask\000"
 2250      736B00
 2251              	.LASF25:
 2252 0454 705F6E65 		.ascii	"p_next\000"
 2252      787400
 2253              	.LASF50:
 2254 045b 66707363 		.ascii	"fpscr\000"
 2254      7200
 2255              	.LASF33:
 2256 0461 705F666C 		.ascii	"p_flags\000"
 2256      61677300 
 2257              	.LASF73:
 2258 0469 46504341 		.ascii	"FPCAR\000"
 2258      5200
 2259              	.LASF24:
 2260 046f 54687265 		.ascii	"Thread\000"
 2260      616400
 2261              	.LASF40:
 2262 0476 705F6570 		.ascii	"p_epending\000"
 2262      656E6469 
 2262      6E6700
 2263              	.LASF14:
 2264 0481 75696E74 		.ascii	"uint32_t\000"
 2264      33325F74 
 2264      00
 2265              	.LASF78:
 2266 048a 725F7175 		.ascii	"r_queue\000"
 2266      65756500 
 2267              	.LASF69:
ARM GAS  C:\Users\jsyoon\AppData\Local\Temp\ccycfEHF.s 			page 44


 2268 0492 756E7573 		.ascii	"unused1\000"
 2268      65643100 
 2269              	.LASF93:
 2270 049a 63686172 		.ascii	"char\000"
 2270      00
 2271              	.LASF54:
 2272 049f 494F5245 		.ascii	"IOREG32\000"
 2272      47333200 
 2273              	.LASF88:
 2274 04a7 6D5F6E65 		.ascii	"m_next\000"
 2274      787400
 2275              	.LASF23:
 2276 04ae 73797374 		.ascii	"systime_t\000"
 2276      696D655F 
 2276      7400
 2277              	.LASF42:
 2278 04b8 705F7265 		.ascii	"p_realprio\000"
 2278      616C7072 
 2278      696F00
 2279              	.LASF6:
 2280 04c3 5F5F696E 		.ascii	"__int32_t\000"
 2280      7433325F 
 2280      7400
 2281              	.LASF36:
 2282 04cd 705F7469 		.ascii	"p_time\000"
 2282      6D6500
 2283              	.LASF60:
 2284 04d4 53485052 		.ascii	"SHPR\000"
 2284      00
 2285              	.LASF52:
 2286 04d9 696E7463 		.ascii	"intctx\000"
 2286      747800
 2287              	.LASF38:
 2288 04e0 705F6D73 		.ascii	"p_msgqueue\000"
 2288      67717565 
 2288      756500
 2289              	.LASF34:
 2290 04eb 705F7265 		.ascii	"p_refs\000"
 2290      667300
 2291              	.LASF84:
 2292 04f2 52656164 		.ascii	"ReadyList\000"
 2292      794C6973 
 2292      7400
 2293              	.LASF68:
 2294 04fc 4D4D4652 		.ascii	"MMFR\000"
 2294      00
 2295              	.LASF107:
 2296 0501 726C6973 		.ascii	"rlist\000"
 2296      7400
 2297              	.LASF12:
 2298 0507 75696E74 		.ascii	"uint8_t\000"
 2298      385F7400 
 2299              	.LASF91:
 2300 050f 77746F62 		.ascii	"wtobjp\000"
 2300      6A7000
 2301              	.LASF96:
 2302 0516 5F706F72 		.ascii	"_port_init\000"
ARM GAS  C:\Users\jsyoon\AppData\Local\Temp\ccycfEHF.s 			page 45


 2302      745F696E 
 2302      697400
 2303              	.LASF31:
 2304 0521 705F6E61 		.ascii	"p_name\000"
 2304      6D6500
 2305              	.LASF70:
 2306 0528 43504143 		.ascii	"CPACR\000"
 2306      5200
 2307              	.LASF63:
 2308 052e 48465352 		.ascii	"HFSR\000"
 2308      00
 2309              	.LASF87:
 2310 0533 6D5F6F77 		.ascii	"m_owner\000"
 2310      6E657200 
 2311              	.LASF28:
 2312 053b 705F6374 		.ascii	"p_ctx\000"
 2312      7800
 2313              	.LASF37:
 2314 0541 705F7761 		.ascii	"p_waiting\000"
 2314      6974696E 
 2314      6700
 2315              		.ident	"GCC: (GNU Tools for ARM Embedded Processors) 4.8.4 20140526 (release) [ARM/embedded-4_8-br
ARM GAS  C:\Users\jsyoon\AppData\Local\Temp\ccycfEHF.s 			page 46


DEFINED SYMBOLS
                            *ABS*:00000000 chcore_v7m.c
C:\Users\jsyoon\AppData\Local\Temp\ccycfEHF.s:21     .text._port_switch_from_isr:00000000 $t
C:\Users\jsyoon\AppData\Local\Temp\ccycfEHF.s:27     .text._port_switch_from_isr:00000000 _port_switch_from_isr
C:\Users\jsyoon\AppData\Local\Temp\ccycfEHF.s:41     .text._port_switch_from_isr:00000004 _port_exit_from_isr
C:\Users\jsyoon\AppData\Local\Temp\ccycfEHF.s:58     .text._port_switch_from_isr:00000010 $d
C:\Users\jsyoon\AppData\Local\Temp\ccycfEHF.s:63     .text.PendSVVector:00000000 $t
C:\Users\jsyoon\AppData\Local\Temp\ccycfEHF.s:69     .text.PendSVVector:00000000 PendSVVector
C:\Users\jsyoon\AppData\Local\Temp\ccycfEHF.s:99     .text.PendSVVector:00000018 $d
C:\Users\jsyoon\AppData\Local\Temp\ccycfEHF.s:104    .text._port_init:00000000 $t
C:\Users\jsyoon\AppData\Local\Temp\ccycfEHF.s:110    .text._port_init:00000000 _port_init
C:\Users\jsyoon\AppData\Local\Temp\ccycfEHF.s:151    .text._port_init:00000028 $d
C:\Users\jsyoon\AppData\Local\Temp\ccycfEHF.s:157    .text._port_irq_epilogue:00000000 $t
C:\Users\jsyoon\AppData\Local\Temp\ccycfEHF.s:163    .text._port_irq_epilogue:00000000 _port_irq_epilogue
C:\Users\jsyoon\AppData\Local\Temp\ccycfEHF.s:255    .text._port_irq_epilogue:00000064 $d
C:\Users\jsyoon\AppData\Local\Temp\ccycfEHF.s:265    .text.SysTickVector:00000000 $t
C:\Users\jsyoon\AppData\Local\Temp\ccycfEHF.s:271    .text.SysTickVector:00000000 SysTickVector
C:\Users\jsyoon\AppData\Local\Temp\ccycfEHF.s:303    .text._port_switch:00000000 $t
C:\Users\jsyoon\AppData\Local\Temp\ccycfEHF.s:309    .text._port_switch:00000000 _port_switch
C:\Users\jsyoon\AppData\Local\Temp\ccycfEHF.s:344    .text._port_thread_start:00000000 $t
C:\Users\jsyoon\AppData\Local\Temp\ccycfEHF.s:350    .text._port_thread_start:00000000 _port_thread_start
                     .debug_frame:00000010 $d
C:\Users\jsyoon\AppData\Local\Temp\ccycfEHF.s:62     .text._port_switch_from_isr:00000014 $t
C:\Users\jsyoon\AppData\Local\Temp\ccycfEHF.s:103    .text.PendSVVector:0000001c $t
C:\Users\jsyoon\AppData\Local\Temp\ccycfEHF.s:264    .text._port_irq_epilogue:00000078 $t

UNDEFINED SYMBOLS
chSchDoReschedule
nvicSetSystemHandlerPriority
rlist
chSysTimerHandlerI
chThdExit
