ARM GAS  C:\Users\jsyoon\AppData\Local\Temp\cceGTQMC.s 			page 1


   1              		.syntax unified
   2              		.cpu cortex-m4
   3              		.eabi_attribute 27, 3
   4              		.eabi_attribute 28, 1
   5              		.fpu fpv4-sp-d16
   6              		.eabi_attribute 20, 1
   7              		.eabi_attribute 21, 1
   8              		.eabi_attribute 23, 3
   9              		.eabi_attribute 24, 1
  10              		.eabi_attribute 25, 1
  11              		.eabi_attribute 26, 1
  12              		.eabi_attribute 30, 2
  13              		.eabi_attribute 34, 1
  14              		.eabi_attribute 18, 4
  15              		.thumb
  16              		.file	"chcond.c"
  17              		.text
  18              	.Ltext0:
  19              		.cfi_sections	.debug_frame
  20              		.section	.text.chCondInit,"ax",%progbits
  21              		.align	2
  22              		.p2align 4,,15
  23              		.global	chCondInit
  24              		.thumb
  25              		.thumb_func
  26              		.type	chCondInit, %function
  27              	chCondInit:
  28              	.LFB7:
  29              		.file 1 "ChibiOS_2.6.6/os/kernel/src/chcond.c"
  30              		.loc 1 59 0
  31              		.cfi_startproc
  32              		@ args = 0, pretend = 0, frame = 0
  33              		@ frame_needed = 0, uses_anonymous_args = 0
  34              		@ link register save eliminated.
  35              	.LVL0:
  36              		.loc 1 63 0
  37 0000 4060     		str	r0, [r0, #4]
  38 0002 0060     		str	r0, [r0]
  39 0004 7047     		bx	lr
  40              		.cfi_endproc
  41              	.LFE7:
  42              		.size	chCondInit, .-chCondInit
  43 0006 00BFAFF3 		.section	.text.chCondSignal,"ax",%progbits
  43      0080AFF3 
  43      0080
  44              		.align	2
  45              		.p2align 4,,15
  46              		.global	chCondSignal
  47              		.thumb
  48              		.thumb_func
  49              		.type	chCondSignal, %function
  50              	chCondSignal:
  51              	.LFB8:
  52              		.loc 1 73 0
  53              		.cfi_startproc
  54              		@ args = 0, pretend = 0, frame = 0
  55              		@ frame_needed = 0, uses_anonymous_args = 0
ARM GAS  C:\Users\jsyoon\AppData\Local\Temp\cceGTQMC.s 			page 2


  56              	.LVL1:
  57 0000 08B5     		push	{r3, lr}
  58              		.cfi_def_cfa_offset 8
  59              		.cfi_offset 3, -8
  60              		.cfi_offset 14, -4
  61              		.loc 1 73 0
  62 0002 0346     		mov	r3, r0
  63              		.loc 1 77 0
  64              	@ 77 "ChibiOS_2.6.6/os/kernel/src/chcond.c" 1
  65 0004 72B6     		cpsid   i
  66              	@ 0 "" 2
  67              		.loc 1 78 0
  68              		.thumb
  69 0006 0068     		ldr	r0, [r0]
  70              	.LVL2:
  71 0008 9842     		cmp	r0, r3
  72 000a 05D0     		beq	.L3
  73              	.LVL3:
  74              	.LBB12:
  75              	.LBB13:
  76              		.file 2 "ChibiOS_2.6.6/os/kernel/include/chinline.h"
  77              		.loc 2 62 0
  78 000c 0268     		ldr	r2, [r0]
  79 000e 1A60     		str	r2, [r3]
  80              	.LBE13:
  81              	.LBE12:
  82              		.loc 1 79 0
  83 0010 0021     		movs	r1, #0
  84              	.LBB15:
  85              	.LBB14:
  86              		.loc 2 62 0
  87 0012 5360     		str	r3, [r2, #4]
  88              	.LBE14:
  89              	.LBE15:
  90              		.loc 1 79 0
  91 0014 FFF7FEFF 		bl	chSchWakeupS
  92              	.LVL4:
  93              	.L3:
  94              		.loc 1 80 0
  95              	@ 80 "ChibiOS_2.6.6/os/kernel/src/chcond.c" 1
  96 0018 62B6     		cpsie   i
  97              	@ 0 "" 2
  98              		.thumb
  99 001a 08BD     		pop	{r3, pc}
 100              		.cfi_endproc
 101              	.LFE8:
 102              		.size	chCondSignal, .-chCondSignal
 103 001c AFF30080 		.section	.text.chCondSignalI,"ax",%progbits
 104              		.align	2
 105              		.p2align 4,,15
 106              		.global	chCondSignalI
 107              		.thumb
 108              		.thumb_func
 109              		.type	chCondSignalI, %function
 110              	chCondSignalI:
 111              	.LFB9:
 112              		.loc 1 94 0
ARM GAS  C:\Users\jsyoon\AppData\Local\Temp\cceGTQMC.s 			page 3


 113              		.cfi_startproc
 114              		@ args = 0, pretend = 0, frame = 0
 115              		@ frame_needed = 0, uses_anonymous_args = 0
 116              	.LVL5:
 117 0000 08B5     		push	{r3, lr}
 118              		.cfi_def_cfa_offset 8
 119              		.cfi_offset 3, -8
 120              		.cfi_offset 14, -4
 121              		.loc 1 94 0
 122 0002 0346     		mov	r3, r0
 123              		.loc 1 99 0
 124 0004 0068     		ldr	r0, [r0]
 125              	.LVL6:
 126 0006 9842     		cmp	r0, r3
 127 0008 06D0     		beq	.L5
 128              	.LVL7:
 129              	.LBB16:
 130              	.LBB17:
 131              		.loc 2 62 0
 132 000a 0268     		ldr	r2, [r0]
 133 000c 1A60     		str	r2, [r3]
 134 000e 5360     		str	r3, [r2, #4]
 135              	.LBE17:
 136              	.LBE16:
 137              		.loc 1 100 0
 138 0010 FFF7FEFF 		bl	chSchReadyI
 139              	.LVL8:
 140 0014 0023     		movs	r3, #0
 141 0016 4362     		str	r3, [r0, #36]
 142              	.LVL9:
 143              	.L5:
 144 0018 08BD     		pop	{r3, pc}
 145              		.cfi_endproc
 146              	.LFE9:
 147              		.size	chCondSignalI, .-chCondSignalI
 148 001a 00BFAFF3 		.section	.text.chCondBroadcastI,"ax",%progbits
 148      0080
 149              		.align	2
 150              		.p2align 4,,15
 151              		.global	chCondBroadcastI
 152              		.thumb
 153              		.thumb_func
 154              		.type	chCondBroadcastI, %function
 155              	chCondBroadcastI:
 156              	.LFB11:
 157              		.loc 1 129 0
 158              		.cfi_startproc
 159              		@ args = 0, pretend = 0, frame = 0
 160              		@ frame_needed = 0, uses_anonymous_args = 0
 161              	.LVL10:
 162 0000 38B5     		push	{r3, r4, r5, lr}
 163              		.cfi_def_cfa_offset 16
 164              		.cfi_offset 3, -16
 165              		.cfi_offset 4, -12
 166              		.cfi_offset 5, -8
 167              		.cfi_offset 14, -4
 168              		.loc 1 129 0
ARM GAS  C:\Users\jsyoon\AppData\Local\Temp\cceGTQMC.s 			page 4


 169 0002 0446     		mov	r4, r0
 170              		.loc 1 137 0
 171 0004 0068     		ldr	r0, [r0]
 172              	.LVL11:
 173 0006 A042     		cmp	r0, r4
 174 0008 0AD0     		beq	.L7
 175              		.loc 1 138 0
 176 000a 6FF00105 		mvn	r5, #1
 177              	.L10:
 178              	.LVL12:
 179              	.LBB18:
 180              	.LBB19:
 181              		.loc 2 62 0
 182 000e 0368     		ldr	r3, [r0]
 183 0010 2360     		str	r3, [r4]
 184 0012 5C60     		str	r4, [r3, #4]
 185              	.LBE19:
 186              	.LBE18:
 187              		.loc 1 138 0
 188 0014 FFF7FEFF 		bl	chSchReadyI
 189              	.LVL13:
 190 0018 4562     		str	r5, [r0, #36]
 191              		.loc 1 137 0
 192 001a 2068     		ldr	r0, [r4]
 193 001c A042     		cmp	r0, r4
 194 001e F6D1     		bne	.L10
 195              	.LVL14:
 196              	.L7:
 197 0020 38BD     		pop	{r3, r4, r5, pc}
 198              		.cfi_endproc
 199              	.LFE11:
 200              		.size	chCondBroadcastI, .-chCondBroadcastI
 201 0022 00BFAFF3 		.section	.text.chCondBroadcast,"ax",%progbits
 201      0080AFF3 
 201      0080AFF3 
 201      0080
 202              		.align	2
 203              		.p2align 4,,15
 204              		.global	chCondBroadcast
 205              		.thumb
 206              		.thumb_func
 207              		.type	chCondBroadcast, %function
 208              	chCondBroadcast:
 209              	.LFB10:
 210              		.loc 1 110 0
 211              		.cfi_startproc
 212              		@ args = 0, pretend = 0, frame = 0
 213              		@ frame_needed = 0, uses_anonymous_args = 0
 214              	.LVL15:
 215 0000 08B5     		push	{r3, lr}
 216              		.cfi_def_cfa_offset 8
 217              		.cfi_offset 3, -8
 218              		.cfi_offset 14, -4
 219              		.loc 1 112 0
 220              	@ 112 "ChibiOS_2.6.6/os/kernel/src/chcond.c" 1
 221 0002 72B6     		cpsid   i
 222              	@ 0 "" 2
ARM GAS  C:\Users\jsyoon\AppData\Local\Temp\cceGTQMC.s 			page 5


 223              		.loc 1 113 0
 224              		.thumb
 225 0004 FFF7FEFF 		bl	chCondBroadcastI
 226              	.LVL16:
 227              		.loc 1 114 0
 228 0008 FFF7FEFF 		bl	chSchRescheduleS
 229              	.LVL17:
 230              		.loc 1 115 0
 231              	@ 115 "ChibiOS_2.6.6/os/kernel/src/chcond.c" 1
 232 000c 62B6     		cpsie   i
 233              	@ 0 "" 2
 234              		.thumb
 235 000e 08BD     		pop	{r3, pc}
 236              		.cfi_endproc
 237              	.LFE10:
 238              		.size	chCondBroadcast, .-chCondBroadcast
 239              		.section	.text.chCondWaitS,"ax",%progbits
 240              		.align	2
 241              		.p2align 4,,15
 242              		.global	chCondWaitS
 243              		.thumb
 244              		.thumb_func
 245              		.type	chCondWaitS, %function
 246              	chCondWaitS:
 247              	.LFB13:
 248              		.loc 1 184 0
 249              		.cfi_startproc
 250              		@ args = 0, pretend = 0, frame = 0
 251              		@ frame_needed = 0, uses_anonymous_args = 0
 252              	.LVL18:
 253              		.loc 1 185 0
 254 0000 0F4B     		ldr	r3, .L18
 255              		.loc 1 184 0
 256 0002 70B5     		push	{r4, r5, r6, lr}
 257              		.cfi_def_cfa_offset 16
 258              		.cfi_offset 4, -16
 259              		.cfi_offset 5, -12
 260              		.cfi_offset 6, -8
 261              		.cfi_offset 14, -4
 262              		.loc 1 185 0
 263 0004 9C69     		ldr	r4, [r3, #24]
 264              	.LVL19:
 265              		.loc 1 184 0
 266 0006 0546     		mov	r5, r0
 267              		.loc 1 195 0
 268 0008 FFF7FEFF 		bl	chMtxUnlockS
 269              	.LVL20:
 270              		.loc 1 196 0
 271 000c 6562     		str	r5, [r4, #36]
 272              		.loc 1 195 0
 273 000e 0646     		mov	r6, r0
 274              	.LVL21:
 275              	.LBB20:
 276              	.LBB21:
 277              		.loc 2 43 0
 278 0010 2B46     		mov	r3, r5
 279 0012 03E0     		b	.L15
ARM GAS  C:\Users\jsyoon\AppData\Local\Temp\cceGTQMC.s 			page 6


 280              	.LVL22:
 281              	.L17:
 282              		.loc 2 46 0
 283 0014 9968     		ldr	r1, [r3, #8]
 284 0016 A268     		ldr	r2, [r4, #8]
 285 0018 9142     		cmp	r1, r2
 286 001a 02D3     		bcc	.L14
 287              	.L15:
 288              		.loc 2 45 0
 289 001c 1B68     		ldr	r3, [r3]
 290              	.LVL23:
 291              		.loc 2 46 0
 292 001e 9D42     		cmp	r5, r3
 293 0020 F8D1     		bne	.L17
 294              	.L14:
 295              		.loc 2 48 0
 296 0022 5A68     		ldr	r2, [r3, #4]
 297 0024 6260     		str	r2, [r4, #4]
 298              		.loc 2 47 0
 299 0026 2360     		str	r3, [r4]
 300              	.LBE21:
 301              	.LBE20:
 302              		.loc 1 198 0
 303 0028 0520     		movs	r0, #5
 304              	.LVL24:
 305              	.LBB23:
 306              	.LBB22:
 307              		.loc 2 49 0
 308 002a 5C60     		str	r4, [r3, #4]
 309 002c 1460     		str	r4, [r2]
 310              	.LBE22:
 311              	.LBE23:
 312              		.loc 1 198 0
 313 002e FFF7FEFF 		bl	chSchGoSleepS
 314              	.LVL25:
 315              		.loc 1 199 0
 316 0032 646A     		ldr	r4, [r4, #36]
 317              	.LVL26:
 318              		.loc 1 200 0
 319 0034 3046     		mov	r0, r6
 320 0036 FFF7FEFF 		bl	chMtxLockS
 321              	.LVL27:
 322              		.loc 1 202 0
 323 003a 2046     		mov	r0, r4
 324 003c 70BD     		pop	{r4, r5, r6, pc}
 325              	.LVL28:
 326              	.L19:
 327 003e 00BF     		.align	2
 328              	.L18:
 329 0040 00000000 		.word	rlist
 330              		.cfi_endproc
 331              	.LFE13:
 332              		.size	chCondWaitS, .-chCondWaitS
 333 0044 AFF30080 		.section	.text.chCondWait,"ax",%progbits
 333      AFF30080 
 333      AFF30080 
 334              		.align	2
ARM GAS  C:\Users\jsyoon\AppData\Local\Temp\cceGTQMC.s 			page 7


 335              		.p2align 4,,15
 336              		.global	chCondWait
 337              		.thumb
 338              		.thumb_func
 339              		.type	chCondWait, %function
 340              	chCondWait:
 341              	.LFB12:
 342              		.loc 1 158 0
 343              		.cfi_startproc
 344              		@ args = 0, pretend = 0, frame = 0
 345              		@ frame_needed = 0, uses_anonymous_args = 0
 346              	.LVL29:
 347 0000 08B5     		push	{r3, lr}
 348              		.cfi_def_cfa_offset 8
 349              		.cfi_offset 3, -8
 350              		.cfi_offset 14, -4
 351              		.loc 1 161 0
 352              	@ 161 "ChibiOS_2.6.6/os/kernel/src/chcond.c" 1
 353 0002 72B6     		cpsid   i
 354              	@ 0 "" 2
 355              		.loc 1 162 0
 356              		.thumb
 357 0004 FFF7FEFF 		bl	chCondWaitS
 358              	.LVL30:
 359              		.loc 1 163 0
 360              	@ 163 "ChibiOS_2.6.6/os/kernel/src/chcond.c" 1
 361 0008 62B6     		cpsie   i
 362              	@ 0 "" 2
 363              		.loc 1 165 0
 364              		.thumb
 365 000a 08BD     		pop	{r3, pc}
 366              		.cfi_endproc
 367              	.LFE12:
 368              		.size	chCondWait, .-chCondWait
 369 000c AFF30080 		.section	.text.chCondWaitTimeoutS,"ax",%progbits
 370              		.align	2
 371              		.p2align 4,,15
 372              		.global	chCondWaitTimeoutS
 373              		.thumb
 374              		.thumb_func
 375              		.type	chCondWaitTimeoutS, %function
 376              	chCondWaitTimeoutS:
 377              	.LFB15:
 378              		.loc 1 270 0
 379              		.cfi_startproc
 380              		@ args = 0, pretend = 0, frame = 0
 381              		@ frame_needed = 0, uses_anonymous_args = 0
 382              	.LVL31:
 383 0000 2DE9F041 		push	{r4, r5, r6, r7, r8, lr}
 384              		.cfi_def_cfa_offset 24
 385              		.cfi_offset 4, -24
 386              		.cfi_offset 5, -20
 387              		.cfi_offset 6, -16
 388              		.cfi_offset 7, -12
 389              		.cfi_offset 8, -8
 390              		.cfi_offset 14, -4
 391              		.loc 1 270 0
ARM GAS  C:\Users\jsyoon\AppData\Local\Temp\cceGTQMC.s 			page 8


 392 0004 0646     		mov	r6, r0
 393 0006 8846     		mov	r8, r1
 394              		.loc 1 280 0
 395 0008 FFF7FEFF 		bl	chMtxUnlockS
 396              	.LVL32:
 397              		.loc 1 281 0
 398 000c 0F4B     		ldr	r3, .L27
 399 000e 9D69     		ldr	r5, [r3, #24]
 400              		.loc 1 280 0
 401 0010 0746     		mov	r7, r0
 402              	.LVL33:
 403              	.LBB24:
 404              	.LBB25:
 405              		.loc 2 43 0
 406 0012 3346     		mov	r3, r6
 407              	.LBE25:
 408              	.LBE24:
 409              		.loc 1 281 0
 410 0014 6E62     		str	r6, [r5, #36]
 411              	.LVL34:
 412 0016 03E0     		b	.L26
 413              	.LVL35:
 414              	.L22:
 415              	.LBB29:
 416              	.LBB26:
 417              		.loc 2 46 0
 418 0018 9C68     		ldr	r4, [r3, #8]
 419 001a AA68     		ldr	r2, [r5, #8]
 420 001c 9442     		cmp	r4, r2
 421 001e 02D3     		bcc	.L25
 422              	.L26:
 423              		.loc 2 45 0
 424 0020 1B68     		ldr	r3, [r3]
 425              	.LVL36:
 426              		.loc 2 46 0
 427 0022 9E42     		cmp	r6, r3
 428 0024 F8D1     		bne	.L22
 429              	.L25:
 430              		.loc 2 48 0
 431 0026 5A68     		ldr	r2, [r3, #4]
 432 0028 6A60     		str	r2, [r5, #4]
 433              		.loc 2 47 0
 434 002a 2B60     		str	r3, [r5]
 435              	.LBE26:
 436              	.LBE29:
 437              		.loc 1 283 0
 438 002c 4146     		mov	r1, r8
 439              	.LBB30:
 440              	.LBB27:
 441              		.loc 2 49 0
 442 002e 5D60     		str	r5, [r3, #4]
 443              	.LBE27:
 444              	.LBE30:
 445              		.loc 1 283 0
 446 0030 0520     		movs	r0, #5
 447              	.LVL37:
 448              	.LBB31:
ARM GAS  C:\Users\jsyoon\AppData\Local\Temp\cceGTQMC.s 			page 9


 449              	.LBB28:
 450              		.loc 2 49 0
 451 0032 1560     		str	r5, [r2]
 452              	.LBE28:
 453              	.LBE31:
 454              		.loc 1 283 0
 455 0034 FFF7FEFF 		bl	chSchGoSleepTimeoutS
 456              	.LVL38:
 457              		.loc 1 284 0
 458 0038 431C     		adds	r3, r0, #1
 459              		.loc 1 283 0
 460 003a 0446     		mov	r4, r0
 461              	.LVL39:
 462              		.loc 1 284 0
 463 003c 02D0     		beq	.L24
 464              		.loc 1 285 0
 465 003e 3846     		mov	r0, r7
 466              	.LVL40:
 467 0040 FFF7FEFF 		bl	chMtxLockS
 468              	.LVL41:
 469              	.L24:
 470              		.loc 1 287 0
 471 0044 2046     		mov	r0, r4
 472 0046 BDE8F081 		pop	{r4, r5, r6, r7, r8, pc}
 473              	.LVL42:
 474              	.L28:
 475 004a 00BF     		.align	2
 476              	.L27:
 477 004c 00000000 		.word	rlist
 478              		.cfi_endproc
 479              	.LFE15:
 480              		.size	chCondWaitTimeoutS, .-chCondWaitTimeoutS
 481              		.section	.text.chCondWaitTimeout,"ax",%progbits
 482              		.align	2
 483              		.p2align 4,,15
 484              		.global	chCondWaitTimeout
 485              		.thumb
 486              		.thumb_func
 487              		.type	chCondWaitTimeout, %function
 488              	chCondWaitTimeout:
 489              	.LFB14:
 490              		.loc 1 233 0
 491              		.cfi_startproc
 492              		@ args = 0, pretend = 0, frame = 0
 493              		@ frame_needed = 0, uses_anonymous_args = 0
 494              	.LVL43:
 495 0000 08B5     		push	{r3, lr}
 496              		.cfi_def_cfa_offset 8
 497              		.cfi_offset 3, -8
 498              		.cfi_offset 14, -4
 499              		.loc 1 236 0
 500              	@ 236 "ChibiOS_2.6.6/os/kernel/src/chcond.c" 1
 501 0002 72B6     		cpsid   i
 502              	@ 0 "" 2
 503              		.loc 1 237 0
 504              		.thumb
 505 0004 FFF7FEFF 		bl	chCondWaitTimeoutS
ARM GAS  C:\Users\jsyoon\AppData\Local\Temp\cceGTQMC.s 			page 10


 506              	.LVL44:
 507              		.loc 1 238 0
 508              	@ 238 "ChibiOS_2.6.6/os/kernel/src/chcond.c" 1
 509 0008 62B6     		cpsie   i
 510              	@ 0 "" 2
 511              		.loc 1 240 0
 512              		.thumb
 513 000a 08BD     		pop	{r3, pc}
 514              		.cfi_endproc
 515              	.LFE14:
 516              		.size	chCondWaitTimeout, .-chCondWaitTimeout
 517 000c AFF30080 		.text
 518              	.Letext0:
 519              		.file 3 "c:\\crosstools\\gcc-arm-embedded\\4.8_2014q2\\arm-none-eabi\\include\\machine\\_default_t
 520              		.file 4 "c:\\crosstools\\gcc-arm-embedded\\4.8_2014q2\\arm-none-eabi\\include\\stdint.h"
 521              		.file 5 "ChibiOS_2.6.6/os/ports/GCC/ARMCMx/chtypes.h"
 522              		.file 6 "ChibiOS_2.6.6/os/kernel/include/chlists.h"
 523              		.file 7 "ChibiOS_2.6.6/os/kernel/include/chthreads.h"
 524              		.file 8 "ChibiOS_2.6.6/os/ports/GCC/ARMCMx/chcore_v7m.h"
 525              		.file 9 "ChibiOS_2.6.6/os/kernel/include/chschd.h"
 526              		.file 10 "ChibiOS_2.6.6/os/kernel/include/chmtx.h"
 527              		.file 11 "ChibiOS_2.6.6/os/kernel/include/chcond.h"