ARM GAS  C:\Users\jsyoon\AppData\Local\Temp\ccycfEHF.s 			page 1


   1              		.syntax unified
   2              		.cpu cortex-m4
   3              		.eabi_attribute 27, 3
   4              		.eabi_attribute 28, 1
   5              		.fpu fpv4-sp-d16
   6              		.eabi_attribute 20, 1
   7              		.eabi_attribute 21, 1
   8              		.eabi_attribute 23, 3
   9              		.eabi_attribute 24, 1
  10              		.eabi_attribute 25, 1
  11              		.eabi_attribute 26, 1
  12              		.eabi_attribute 30, 2
  13              		.eabi_attribute 34, 1
  14              		.eabi_attribute 18, 4
  15              		.thumb
  16              		.file	"chcore_v7m.c"
  17              		.text
  18              	.Ltext0:
  19              		.cfi_sections	.debug_frame
  20              		.section	.text._port_switch_from_isr,"ax",%progbits
  21              		.align	2
  22              		.p2align 4,,15
  23              		.global	_port_switch_from_isr
  24              		.thumb
  25              		.thumb_func
  26              		.type	_port_switch_from_isr, %function
  27              	_port_switch_from_isr:
  28              	.LFB11:
  29              		.file 1 "ChibiOS_2.6.6/os/ports/GCC/ARMCMx/chcore_v7m.c"
  30              		.loc 1 200 0
  31              		.cfi_startproc
  32              		@ Naked Function: prologue and epilogue provided by programmer.
  33              		@ Volatile: function does not return.
  34              		@ args = 0, pretend = 0, frame = 0
  35              		@ frame_needed = 0, uses_anonymous_args = 0
  36              		.loc 1 203 0
  37 0000 FFF7FEFF 		bl	chSchDoReschedule
  38              	.LVL0:
  39              		.loc 1 205 0
  40              	@ 205 "ChibiOS_2.6.6/os/ports/GCC/ARMCMx/chcore_v7m.c" 1
  41              		_port_exit_from_isr:
  42              	@ 0 "" 2
  43              		.loc 1 209 0
  44              		.thumb
  45 0004 024B     		ldr	r3, .L4
  46 0006 4FF08052 		mov	r2, #268435456
  47 000a 5A60     		str	r2, [r3, #4]
  48              		.loc 1 210 0
  49              	@ 210 "ChibiOS_2.6.6/os/ports/GCC/ARMCMx/chcore_v7m.c" 1
  50 000c 62B6     		cpsie   i
  51              	@ 0 "" 2
  52              		.thumb
  53              	.L2:
  54 000e FEE7     		b	.L2
  55              	.L5:
  56              		.align	2
  57              	.L4:
ARM GAS  C:\Users\jsyoon\AppData\Local\Temp\ccycfEHF.s 			page 2


  58 0010 00ED00E0 		.word	-536810240
  59              		.cfi_endproc
  60              	.LFE11:
  61              		.size	_port_switch_from_isr, .-_port_switch_from_isr
  62 0014 AFF30080 		.section	.text.PendSVVector,"ax",%progbits
  62      AFF30080 
  62      AFF30080 
  63              		.align	2
  64              		.p2align 4,,15
  65              		.global	PendSVVector
  66              		.thumb
  67              		.thumb_func
  68              		.type	PendSVVector, %function
  69              	PendSVVector:
  70              	.LFB8:
  71              		.loc 1 93 0
  72              		.cfi_startproc
  73              		@ args = 0, pretend = 0, frame = 0
  74              		@ frame_needed = 0, uses_anonymous_args = 0
  75              		@ link register save eliminated.
  76              		.loc 1 98 0
  77 0000 054B     		ldr	r3, .L7
  78 0002 5A68     		ldr	r2, [r3, #4]
  79 0004 22F00102 		bic	r2, r2, #1
  80 0008 5A60     		str	r2, [r3, #4]
  81              		.loc 1 102 0
  82              	@ 102 "ChibiOS_2.6.6/os/ports/GCC/ARMCMx/chcore_v7m.c" 1
  83 000a EFF30983 		mrs     r3, PSP
  84              	@ 0 "" 2
  85              	.LVL1:
  86              		.loc 1 106 0
  87              		.thumb
  88 000e 6833     		adds	r3, r3, #104
  89              	.LVL2:
  90              		.loc 1 109 0
  91              	@ 109 "ChibiOS_2.6.6/os/ports/GCC/ARMCMx/chcore_v7m.c" 1
  92 0010 83F30988 		msr     PSP, r3
  93              	@ 0 "" 2
  94              		.thumb
  95 0014 7047     		bx	lr
  96              	.L8:
  97 0016 00BF     		.align	2
  98              	.L7:
  99 0018 30EF00E0 		.word	-536809680
 100              		.cfi_endproc
 101              	.LFE8:
 102              		.size	PendSVVector, .-PendSVVector
 103 001c AFF30080 		.section	.text._port_init,"ax",%progbits
 104              		.align	2
 105              		.p2align 4,,15
 106              		.global	_port_init
 107              		.thumb
 108              		.thumb_func
 109              		.type	_port_init, %function
 110              	_port_init:
 111              	.LFB9:
 112              		.loc 1 120 0
ARM GAS  C:\Users\jsyoon\AppData\Local\Temp\ccycfEHF.s 			page 3


 113              		.cfi_startproc
 114              		@ args = 0, pretend = 0, frame = 0
 115              		@ frame_needed = 0, uses_anonymous_args = 0
 116 0000 08B5     		push	{r3, lr}
 117              		.cfi_def_cfa_offset 8
 118              		.cfi_offset 3, -8
 119              		.cfi_offset 14, -4
 120              		.loc 1 123 0
 121 0002 094B     		ldr	r3, .L10
 122              		.loc 1 124 0
 123 0004 094A     		ldr	r2, .L10+4
 124              		.loc 1 123 0
 125 0006 0021     		movs	r1, #0
 126 0008 9960     		str	r1, [r3, #8]
 127              		.loc 1 127 0
 128 000a 0720     		movs	r0, #7
 129              		.loc 1 124 0
 130 000c DA60     		str	r2, [r3, #12]
 131              		.loc 1 127 0
 132 000e 1021     		movs	r1, #16
 133 0010 FFF7FEFF 		bl	nvicSetSystemHandlerPriority
 134              	.LVL3:
 135              		.loc 1 129 0
 136 0014 0A20     		movs	r0, #10
 137 0016 1021     		movs	r1, #16
 138 0018 FFF7FEFF 		bl	nvicSetSystemHandlerPriority
 139              	.LVL4:
 140              		.loc 1 131 0
 141 001c 0B20     		movs	r0, #11
 142 001e 8021     		movs	r1, #128
 143              		.loc 1 133 0
 144 0020 BDE80840 		pop	{r3, lr}
 145              		.loc 1 131 0
 146 0024 FFF7FEBF 		b	nvicSetSystemHandlerPriority
 147              	.LVL5:
 148              	.L11:
 149              		.align	2
 150              	.L10:
 151 0028 00ED00E0 		.word	-536810240
 152 002c 0003FA05 		.word	100270848
 153              		.cfi_endproc
 154              	.LFE9:
 155              		.size	_port_init, .-_port_init
 156              		.section	.text._port_irq_epilogue,"ax",%progbits
 157              		.align	2
 158              		.p2align 4,,15
 159              		.global	_port_irq_epilogue
 160              		.thumb
 161              		.thumb_func
 162              		.type	_port_irq_epilogue, %function
 163              	_port_irq_epilogue:
 164              	.LFB10:
 165              		.loc 1 150 0
 166              		.cfi_startproc
 167              		@ args = 0, pretend = 0, frame = 0
 168              		@ frame_needed = 0, uses_anonymous_args = 0
 169              		@ link register save eliminated.
ARM GAS  C:\Users\jsyoon\AppData\Local\Temp\ccycfEHF.s 			page 4


 170              		.loc 1 152 0
 171              	@ 152 "ChibiOS_2.6.6/os/ports/GCC/ARMCMx/chcore_v7m.c" 1
 172 0000 72B6     		cpsid   i
 173              	@ 0 "" 2
 174              		.loc 1 153 0
 175              		.thumb
 176 0002 184B     		ldr	r3, .L19
 177 0004 5B68     		ldr	r3, [r3, #4]
 178 0006 1B05     		lsls	r3, r3, #20
 179 0008 1FD5     		bpl	.L13
 180              	.LBB2:
 181              		.loc 1 159 0
 182              	@ 159 "ChibiOS_2.6.6/os/ports/GCC/ARMCMx/chcore_v7m.c" 1
 183 000a F1EE10FA 		vmrs    APSR_nzcv, FPSCR
 184              	@ 0 "" 2
 185              		.loc 1 163 0
 186              	@ 163 "ChibiOS_2.6.6/os/ports/GCC/ARMCMx/chcore_v7m.c" 1
 187 000e EFF30983 		mrs     r3, PSP
 188              	@ 0 "" 2
 189              	.LVL6:
 190              		.loc 1 170 0
 191              		.thumb
 192 0012 154A     		ldr	r2, .L19+4
 193              		.loc 1 168 0
 194 0014 4FF08071 		mov	r1, #16777216
 195              		.loc 1 170 0
 196 0018 D268     		ldr	r2, [r2, #12]
 197 001a 43F8082C 		str	r2, [r3, #-8]
 198              		.loc 1 168 0
 199 001e 43F84C1C 		str	r1, [r3, #-76]
 200              		.loc 1 167 0
 201 0022 A3F16802 		sub	r2, r3, #104
 202              	.LVL7:
 203              		.loc 1 172 0
 204              	@ 172 "ChibiOS_2.6.6/os/ports/GCC/ARMCMx/chcore_v7m.c" 1
 205 0026 82F30988 		msr     PSP, r2
 206              	@ 0 "" 2
 207              		.loc 1 176 0
 208              		.thumb
 209 002a 1049     		ldr	r1, .L19+8
 210 002c 8A69     		ldr	r2, [r1, #24]
 211              	.LVL8:
 212 002e 0968     		ldr	r1, [r1]
 213 0030 D07F     		ldrb	r0, [r2, #31]	@ zero_extendqisi2
 214 0032 8968     		ldr	r1, [r1, #8]
 215 0034 9268     		ldr	r2, [r2, #8]
 216 0036 50B1     		cbz	r0, .L14
 217              		.loc 1 176 0 is_stmt 0 discriminator 1
 218 0038 9142     		cmp	r1, r2
 219 003a 94BF     		ite	ls
 220 003c 0022     		movls	r2, #0
 221 003e 0122     		movhi	r2, #1
 222 0040 5AB1     		cbz	r2, .L16
 223              	.L18:
 224              		.loc 1 178 0 is_stmt 1
 225 0042 0B4A     		ldr	r2, .L19+12
 226 0044 43F8502C 		str	r2, [r3, #-80]
ARM GAS  C:\Users\jsyoon\AppData\Local\Temp\ccycfEHF.s 			page 5


 227 0048 7047     		bx	lr
 228              	.LVL9:
 229              	.L13:
 230              	.LBE2:
 231              		.loc 1 190 0
 232              	@ 190 "ChibiOS_2.6.6/os/ports/GCC/ARMCMx/chcore_v7m.c" 1
 233 004a 62B6     		cpsie   i
 234              	@ 0 "" 2
 235              		.thumb
 236 004c 7047     		bx	lr
 237              	.LVL10:
 238              	.L14:
 239              	.LBB3:
 240              		.loc 1 176 0 discriminator 2
 241 004e 9142     		cmp	r1, r2
 242 0050 34BF     		ite	cc
 243 0052 0022     		movcc	r2, #0
 244 0054 0122     		movcs	r2, #1
 245 0056 002A     		cmp	r2, #0
 246 0058 F3D1     		bne	.L18
 247              	.L16:
 248              		.loc 1 183 0
 249 005a 064A     		ldr	r2, .L19+16
 250 005c 43F8502C 		str	r2, [r3, #-80]
 251 0060 7047     		bx	lr
 252              	.L20:
 253 0062 00BF     		.align	2
 254              	.L19:
 255 0064 00ED00E0 		.word	-536810240
 256 0068 30EF00E0 		.word	-536809680
 257 006c 00000000 		.word	rlist
 258 0070 00000000 		.word	_port_switch_from_isr
 259 0074 04000000 		.word	_port_exit_from_isr
 260              	.LBE3:
 261              		.cfi_endproc
 262              	.LFE10:
 263              		.size	_port_irq_epilogue, .-_port_irq_epilogue
 264 0078 AFF30080 		.section	.text.SysTickVector,"ax",%progbits
 264      AFF30080 
 265              		.align	2
 266              		.p2align 4,,15
 267              		.global	SysTickVector
 268              		.thumb
 269              		.thumb_func
 270              		.type	SysTickVector, %function
 271              	SysTickVector:
 272              	.LFB7:
 273              		.loc 1 47 0
 274              		.cfi_startproc
 275              		@ args = 0, pretend = 0, frame = 0
 276              		@ frame_needed = 0, uses_anonymous_args = 0
 277 0000 08B5     		push	{r3, lr}
 278              		.cfi_def_cfa_offset 8
 279              		.cfi_offset 3, -8
 280              		.cfi_offset 14, -4
 281              		.loc 1 51 0
 282              	@ 51 "ChibiOS_2.6.6/os/ports/GCC/ARMCMx/chcore_v7m.c" 1
ARM GAS  C:\Users\jsyoon\AppData\Local\Temp\ccycfEHF.s 			page 6


 283 0002 72B6     		cpsid   i
 284              	@ 0 "" 2
 285              		.loc 1 52 0
 286              		.thumb
 287 0004 FFF7FEFF 		bl	chSysTimerHandlerI
 288              	.LVL11:
 289              		.loc 1 53 0
 290              	@ 53 "ChibiOS_2.6.6/os/ports/GCC/ARMCMx/chcore_v7m.c" 1
 291 0008 62B6     		cpsie   i
 292              	@ 0 "" 2
 293              		.loc 1 56 0
 294              		.thumb
 295 000a BDE80840 		pop	{r3, lr}
 296              		.loc 1 55 0
 297 000e FFF7FEBF 		b	_port_irq_epilogue
 298              	.LVL12:
 299              		.cfi_endproc
 300              	.LFE7:
 301              		.size	SysTickVector, .-SysTickVector
 302 0012 00BFAFF3 		.section	.text._port_switch,"ax",%progbits
 302      0080AFF3 
 302      0080AFF3 
 302      0080
 303              		.align	2
 304              		.p2align 4,,15
 305              		.global	_port_switch
 306              		.thumb
 307              		.thumb_func
 308              		.type	_port_switch, %function
 309              	_port_switch:
 310              	.LFB12:
 311              		.loc 1 229 0
 312              		.cfi_startproc
 313              		@ Naked Function: prologue and epilogue provided by programmer.
 314              		@ args = 0, pretend = 0, frame = 0
 315              		@ frame_needed = 0, uses_anonymous_args = 0
 316              	.LVL13:
 317              		.loc 1 231 0
 318              	@ 231 "ChibiOS_2.6.6/os/ports/GCC/ARMCMx/chcore_v7m.c" 1
 319 0000 2DE9F04F 		push    {r4, r5, r6, r7, r8, r9, r10, r11, lr}
 320              	@ 0 "" 2
 321              		.loc 1 234 0
 322              	@ 234 "ChibiOS_2.6.6/os/ports/GCC/ARMCMx/chcore_v7m.c" 1
 323 0004 2DED108A 		vpush   {s16-s31}
 324              	@ 0 "" 2
 325              		.loc 1 237 0
 326              	@ 237 "ChibiOS_2.6.6/os/ports/GCC/ARMCMx/chcore_v7m.c" 1
 327 0008 C1F80CD0 		str     sp, [r1, #12]                          
 328 000c D0F80CD0 		ldr     sp, [r0, #12]
 329              	@ 0 "" 2
 330              		.loc 1 241 0
 331              	@ 241 "ChibiOS_2.6.6/os/ports/GCC/ARMCMx/chcore_v7m.c" 1
 332 0010 BDEC108A 		vpop    {s16-s31}
 333              	@ 0 "" 2
 334              		.loc 1 243 0
 335              	@ 243 "ChibiOS_2.6.6/os/ports/GCC/ARMCMx/chcore_v7m.c" 1
 336 0014 BDE8F08F 		pop     {r4, r5, r6, r7, r8, r9, r10, r11, pc}
ARM GAS  C:\Users\jsyoon\AppData\Local\Temp\ccycfEHF.s 			page 7


 337              	@ 0 "" 2
 338              		.loc 1 245 0
 339              		.thumb
 340              		.cfi_endproc
 341              	.LFE12:
 342              		.size	_port_switch, .-_port_switch
 343 0018 AFF30080 		.section	.text._port_thread_start,"ax",%progbits
 343      AFF30080 
 344              		.align	2
 345              		.p2align 4,,15
 346              		.global	_port_thread_start
 347              		.thumb
 348              		.thumb_func
 349              		.type	_port_thread_start, %function
 350              	_port_thread_start:
 351              	.LFB13:
 352              		.loc 1 252 0
 353              		.cfi_startproc
 354              		@ args = 0, pretend = 0, frame = 0
 355              		@ frame_needed = 0, uses_anonymous_args = 0
 356              		@ link register save eliminated.
 357              		.loc 1 254 0
 358              	@ 254 "ChibiOS_2.6.6/os/ports/GCC/ARMCMx/chcore_v7m.c" 1
 359 0000 62B6     		cpsie   i
 360              	@ 0 "" 2
 361              		.loc 1 255 0
 362              	@ 255 "ChibiOS_2.6.6/os/ports/GCC/ARMCMx/chcore_v7m.c" 1
 363 0002 2846     		mov     r0, r5                                 
 364 0004 A047     		blx     r4                                     
 365 0006 FFF7FEFF 		bl      chThdExit
 366              	@ 0 "" 2
 367              		.thumb
 368 000a 7047     		bx	lr
 369              		.cfi_endproc
 370              	.LFE13:
 371              		.size	_port_thread_start, .-_port_thread_start
 372 000c AFF30080 		.text
 373              	.Letext0:
 374              		.file 2 "c:\\crosstools\\gcc-arm-embedded\\4.8_2014q2\\arm-none-eabi\\include\\machine\\_default_t
 375              		.file 3 "c:\\crosstools\\gcc-arm-embedded\\4.8_2014q2\\arm-none-eabi\\include\\stdint.h"
 376              		.file 4 "ChibiOS_2.6.6/os/ports/GCC/ARMCMx/chtypes.h"
 377              		.file 5 "ChibiOS_2.6.6/os/kernel/include/chlists.h"
 378              		.file 6 "ChibiOS_2.6.6/os/kernel/include/chthreads.h"
 379              		.file 7 "ChibiOS_2.6.6/os/ports/GCC/ARMCMx/chcore_v7m.h"
 380              		.file 8 "ChibiOS_2.6.6/os/ports/common/ARMCMx/nvic.h"
 381              		.file 9 "ChibiOS_2.6.6/os/kernel/include/chschd.h"
 382              		.file 10 "ChibiOS_2.6.6/os/kernel/include/chmtx.h"
 383              		.file 11 "ChibiOS_2.6.6/os/kernel/include/chsys.h"