ARM GAS  C:\Users\jsyoon\AppData\Local\Temp\ccUtuy9d.s 			page 1


   1              		.syntax unified
   2              		.cpu cortex-m4
   3              		.eabi_attribute 27, 3
   4              		.eabi_attribute 28, 1
   5              		.fpu fpv4-sp-d16
   6              		.eabi_attribute 20, 1
   7              		.eabi_attribute 21, 1
   8              		.eabi_attribute 23, 3
   9              		.eabi_attribute 24, 1
  10              		.eabi_attribute 25, 1
  11              		.eabi_attribute 26, 1
  12              		.eabi_attribute 30, 2
  13              		.eabi_attribute 34, 1
  14              		.eabi_attribute 18, 4
  15              		.thumb
  16              		.file	"chmtx.c"
  17              		.text
  18              	.Ltext0:
  19              		.cfi_sections	.debug_frame
  20              		.section	.text.chMtxInit,"ax",%progbits
  21              		.align	2
  22              		.p2align 4,,15
  23              		.global	chMtxInit
  24              		.thumb
  25              		.thumb_func
  26              		.type	chMtxInit, %function
  27              	chMtxInit:
  28              	.LFB7:
  29              		.file 1 "ChibiOS_2.6.6/os/kernel/src/chmtx.c"
  30              		.loc 1 86 0
  31              		.cfi_startproc
  32              		@ args = 0, pretend = 0, frame = 0
  33              		@ frame_needed = 0, uses_anonymous_args = 0
  34              		@ link register save eliminated.
  35              	.LVL0:
  36              		.loc 1 91 0
  37 0000 0023     		movs	r3, #0
  38              		.loc 1 90 0
  39 0002 4060     		str	r0, [r0, #4]
  40 0004 0060     		str	r0, [r0]
  41              		.loc 1 91 0
  42 0006 8360     		str	r3, [r0, #8]
  43 0008 7047     		bx	lr
  44              		.cfi_endproc
  45              	.LFE7:
  46              		.size	chMtxInit, .-chMtxInit
  47 000a 00BFAFF3 		.section	.text.chMtxLockS,"ax",%progbits
  47      0080
  48              		.align	2
  49              		.p2align 4,,15
  50              		.global	chMtxLockS
  51              		.thumb
  52              		.thumb_func
  53              		.type	chMtxLockS, %function
  54              	chMtxLockS:
  55              	.LFB9:
  56              		.loc 1 121 0
ARM GAS  C:\Users\jsyoon\AppData\Local\Temp\ccUtuy9d.s 			page 2


  57              		.cfi_startproc
  58              		@ args = 0, pretend = 0, frame = 0
  59              		@ frame_needed = 0, uses_anonymous_args = 0
  60              	.LVL1:
  61 0000 70B5     		push	{r4, r5, r6, lr}
  62              		.cfi_def_cfa_offset 16
  63              		.cfi_offset 4, -16
  64              		.cfi_offset 5, -12
  65              		.cfi_offset 6, -8
  66              		.cfi_offset 14, -4
  67              		.loc 1 122 0
  68 0002 2F4B     		ldr	r3, .L23
  69              		.loc 1 121 0
  70 0004 0546     		mov	r5, r0
  71              		.loc 1 128 0
  72 0006 8068     		ldr	r0, [r0, #8]
  73              	.LVL2:
  74              		.loc 1 122 0
  75 0008 9C69     		ldr	r4, [r3, #24]
  76              	.LVL3:
  77              		.loc 1 128 0
  78 000a 0028     		cmp	r0, #0
  79 000c 53D0     		beq	.L3
  80              	.LVL4:
  81              	.LBB27:
  82              		.loc 1 135 0 discriminator 1
  83 000e A268     		ldr	r2, [r4, #8]
  84 0010 8368     		ldr	r3, [r0, #8]
  85 0012 9A42     		cmp	r2, r3
  86 0014 06D9     		bls	.L5
  87              	.L14:
  88              		.loc 1 139 0
  89 0016 037F     		ldrb	r3, [r0, #28]	@ zero_extendqisi2
  90              		.loc 1 137 0
  91 0018 8260     		str	r2, [r0, #8]
  92              		.loc 1 139 0
  93 001a 042B     		cmp	r3, #4
  94 001c 32D0     		beq	.L6
  95 001e 052B     		cmp	r3, #5
  96 0020 1CD0     		beq	.L7
  97 0022 9BB1     		cbz	r3, .L22
  98              	.LVL5:
  99              	.L5:
 100              	.LBB28:
 101              	.LBB29:
 102              		.file 2 "ChibiOS_2.6.6/os/kernel/include/chinline.h"
 103              		.loc 2 43 0
 104 0024 2B46     		mov	r3, r5
 105 0026 03E0     		b	.L20
 106              	.LVL6:
 107              	.L18:
 108              		.loc 2 46 0
 109 0028 9968     		ldr	r1, [r3, #8]
 110 002a A268     		ldr	r2, [r4, #8]
 111 002c 9142     		cmp	r1, r2
 112 002e 02D3     		bcc	.L19
 113              	.L20:
ARM GAS  C:\Users\jsyoon\AppData\Local\Temp\ccUtuy9d.s 			page 3


 114              		.loc 2 45 0
 115 0030 1B68     		ldr	r3, [r3]
 116              	.LVL7:
 117              		.loc 2 46 0
 118 0032 9D42     		cmp	r5, r3
 119 0034 F8D1     		bne	.L18
 120              	.L19:
 121              		.loc 2 48 0
 122 0036 5A68     		ldr	r2, [r3, #4]
 123 0038 6260     		str	r2, [r4, #4]
 124              		.loc 2 47 0
 125 003a 2360     		str	r3, [r4]
 126              		.loc 2 49 0
 127 003c 5C60     		str	r4, [r3, #4]
 128 003e 1460     		str	r4, [r2]
 129              	.LBE29:
 130              	.LBE28:
 131              		.loc 1 174 0
 132 0040 6562     		str	r5, [r4, #36]
 133              		.loc 1 175 0
 134 0042 0420     		movs	r0, #4
 135              	.LBE27:
 136              		.loc 1 187 0
 137 0044 BDE87040 		pop	{r4, r5, r6, lr}
 138              	.LVL8:
 139              	.LBB44:
 140              		.loc 1 175 0
 141 0048 FFF7FEBF 		b	chSchGoSleepS
 142              	.LVL9:
 143              	.L22:
 144              	.LBB30:
 145              	.LBB31:
 146              		.loc 2 75 0
 147 004c 90E80C00 		ldmia	r0, {r2, r3}
 148 0050 1A60     		str	r2, [r3]
 149              		.loc 2 76 0
 150 0052 0268     		ldr	r2, [r0]
 151 0054 5360     		str	r3, [r2, #4]
 152              	.LBE31:
 153              	.LBE30:
 154              		.loc 1 167 0
 155 0056 FFF7FEFF 		bl	chSchReadyI
 156              	.LVL10:
 157              		.loc 1 168 0
 158 005a E3E7     		b	.L5
 159              	.LVL11:
 160              	.L7:
 161              	.LBB32:
 162              	.LBB33:
 163              		.loc 2 75 0
 164 005c 90E80A00 		ldmia	r0, {r1, r3}
 165 0060 1960     		str	r1, [r3]
 166              	.LBE33:
 167              	.LBE32:
 168              		.loc 1 158 0
 169 0062 466A     		ldr	r6, [r0, #36]
 170              	.LVL12:
ARM GAS  C:\Users\jsyoon\AppData\Local\Temp\ccUtuy9d.s 			page 4


 171              	.LBB35:
 172              	.LBB34:
 173              		.loc 2 76 0
 174 0064 0168     		ldr	r1, [r0]
 175 0066 4B60     		str	r3, [r1, #4]
 176              	.LBE34:
 177              	.LBE35:
 178              	.LBB36:
 179              	.LBB37:
 180              		.loc 2 43 0
 181 0068 3346     		mov	r3, r6
 182 006a 02E0     		b	.L17
 183              	.LVL13:
 184              	.L15:
 185              		.loc 2 46 0
 186 006c 9968     		ldr	r1, [r3, #8]
 187 006e 8A42     		cmp	r2, r1
 188 0070 02D8     		bhi	.L16
 189              	.L17:
 190              		.loc 2 45 0
 191 0072 1B68     		ldr	r3, [r3]
 192              	.LVL14:
 193              		.loc 2 46 0
 194 0074 9E42     		cmp	r6, r3
 195 0076 F9D1     		bne	.L15
 196              	.L16:
 197              		.loc 2 48 0
 198 0078 5A68     		ldr	r2, [r3, #4]
 199 007a 4260     		str	r2, [r0, #4]
 200              		.loc 2 47 0
 201 007c 0360     		str	r3, [r0]
 202              		.loc 2 49 0
 203 007e 5860     		str	r0, [r3, #4]
 204 0080 1060     		str	r0, [r2]
 205 0082 CFE7     		b	.L5
 206              	.LVL15:
 207              	.L6:
 208              	.LBE37:
 209              	.LBE36:
 210              	.LBB38:
 211              	.LBB39:
 212              		.loc 2 75 0
 213 0084 90E80A00 		ldmia	r0, {r1, r3}
 214 0088 1960     		str	r1, [r3]
 215              	.LBE39:
 216              	.LBE38:
 217              		.loc 1 142 0
 218 008a 466A     		ldr	r6, [r0, #36]
 219              	.LVL16:
 220              	.LBB41:
 221              	.LBB40:
 222              		.loc 2 76 0
 223 008c 0168     		ldr	r1, [r0]
 224 008e 4B60     		str	r3, [r1, #4]
 225              	.LBE40:
 226              	.LBE41:
 227              		.loc 1 142 0
ARM GAS  C:\Users\jsyoon\AppData\Local\Temp\ccUtuy9d.s 			page 5


 228 0090 3346     		mov	r3, r6
 229 0092 02E0     		b	.L13
 230              	.LVL17:
 231              	.L9:
 232              	.LBB42:
 233              	.LBB43:
 234              		.loc 2 46 0
 235 0094 9968     		ldr	r1, [r3, #8]
 236 0096 9142     		cmp	r1, r2
 237 0098 02D3     		bcc	.L12
 238              	.L13:
 239              		.loc 2 45 0
 240 009a 1B68     		ldr	r3, [r3]
 241              	.LVL18:
 242              		.loc 2 46 0
 243 009c 9E42     		cmp	r6, r3
 244 009e F9D1     		bne	.L9
 245              	.L12:
 246              		.loc 2 48 0
 247 00a0 5A68     		ldr	r2, [r3, #4]
 248 00a2 4260     		str	r2, [r0, #4]
 249              		.loc 2 47 0
 250 00a4 0360     		str	r3, [r0]
 251              		.loc 2 49 0
 252 00a6 5860     		str	r0, [r3, #4]
 253 00a8 1060     		str	r0, [r2]
 254              	.LBE43:
 255              	.LBE42:
 256              		.loc 1 143 0
 257 00aa B068     		ldr	r0, [r6, #8]
 258              	.LVL19:
 259              		.loc 1 135 0
 260 00ac A268     		ldr	r2, [r4, #8]
 261 00ae 8368     		ldr	r3, [r0, #8]
 262              	.LVL20:
 263 00b0 9342     		cmp	r3, r2
 264 00b2 B0D3     		bcc	.L14
 265 00b4 B6E7     		b	.L5
 266              	.LVL21:
 267              	.L3:
 268              	.LBE44:
 269              		.loc 1 184 0
 270 00b6 E36B     		ldr	r3, [r4, #60]
 271 00b8 EB60     		str	r3, [r5, #12]
 272              		.loc 1 183 0
 273 00ba AC60     		str	r4, [r5, #8]
 274              		.loc 1 185 0
 275 00bc E563     		str	r5, [r4, #60]
 276 00be 70BD     		pop	{r4, r5, r6, pc}
 277              	.LVL22:
 278              	.L24:
 279              		.align	2
 280              	.L23:
 281 00c0 00000000 		.word	rlist
 282              		.cfi_endproc
 283              	.LFE9:
 284              		.size	chMtxLockS, .-chMtxLockS
ARM GAS  C:\Users\jsyoon\AppData\Local\Temp\ccUtuy9d.s 			page 6


 285 00c4 AFF30080 		.section	.text.chMtxLock,"ax",%progbits
 285      AFF30080 
 285      AFF30080 
 286              		.align	2
 287              		.p2align 4,,15
 288              		.global	chMtxLock
 289              		.thumb
 290              		.thumb_func
 291              		.type	chMtxLock, %function
 292              	chMtxLock:
 293              	.LFB8:
 294              		.loc 1 103 0
 295              		.cfi_startproc
 296              		@ args = 0, pretend = 0, frame = 0
 297              		@ frame_needed = 0, uses_anonymous_args = 0
 298              	.LVL23:
 299 0000 08B5     		push	{r3, lr}
 300              		.cfi_def_cfa_offset 8
 301              		.cfi_offset 3, -8
 302              		.cfi_offset 14, -4
 303              		.loc 1 105 0
 304              	@ 105 "ChibiOS_2.6.6/os/kernel/src/chmtx.c" 1
 305 0002 72B6     		cpsid   i
 306              	@ 0 "" 2
 307              		.loc 1 107 0
 308              		.thumb
 309 0004 FFF7FEFF 		bl	chMtxLockS
 310              	.LVL24:
 311              		.loc 1 109 0
 312              	@ 109 "ChibiOS_2.6.6/os/kernel/src/chmtx.c" 1
 313 0008 62B6     		cpsie   i
 314              	@ 0 "" 2
 315              		.thumb
 316 000a 08BD     		pop	{r3, pc}
 317              		.cfi_endproc
 318              	.LFE8:
 319              		.size	chMtxLock, .-chMtxLock
 320 000c AFF30080 		.section	.text.chMtxTryLock,"ax",%progbits
 321              		.align	2
 322              		.p2align 4,,15
 323              		.global	chMtxTryLock
 324              		.thumb
 325              		.thumb_func
 326              		.type	chMtxTryLock, %function
 327              	chMtxTryLock:
 328              	.LFB10:
 329              		.loc 1 206 0
 330              		.cfi_startproc
 331              		@ args = 0, pretend = 0, frame = 0
 332              		@ frame_needed = 0, uses_anonymous_args = 0
 333              		@ link register save eliminated.
 334              	.LVL25:
 335              		.loc 1 206 0
 336 0000 0346     		mov	r3, r0
 337              		.loc 1 209 0
 338              	@ 209 "ChibiOS_2.6.6/os/kernel/src/chmtx.c" 1
 339 0002 72B6     		cpsid   i
ARM GAS  C:\Users\jsyoon\AppData\Local\Temp\ccUtuy9d.s 			page 7


 340              	@ 0 "" 2
 341              	.LVL26:
 342              		.thumb
 343              	.LBB45:
 344              	.LBB46:
 345              		.loc 1 239 0
 346 0004 8268     		ldr	r2, [r0, #8]
 347 0006 12B1     		cbz	r2, .L29
 348              		.loc 1 240 0
 349 0008 0020     		movs	r0, #0
 350              	.LVL27:
 351              	.LBE46:
 352              	.LBE45:
 353              		.loc 1 213 0
 354              	@ 213 "ChibiOS_2.6.6/os/kernel/src/chmtx.c" 1
 355 000a 62B6     		cpsie   i
 356              	@ 0 "" 2
 357              		.loc 1 215 0
 358              		.thumb
 359 000c 7047     		bx	lr
 360              	.LVL28:
 361              	.L29:
 362              	.LBB48:
 363              	.LBB47:
 364              		.loc 1 241 0
 365 000e 044A     		ldr	r2, .L30
 366 0010 9269     		ldr	r2, [r2, #24]
 367 0012 8260     		str	r2, [r0, #8]
 368              		.loc 1 242 0
 369 0014 D16B     		ldr	r1, [r2, #60]
 370 0016 C160     		str	r1, [r0, #12]
 371              		.loc 1 244 0
 372 0018 0120     		movs	r0, #1
 373              	.LVL29:
 374              		.loc 1 243 0
 375 001a D363     		str	r3, [r2, #60]
 376              	.LBE47:
 377              	.LBE48:
 378              		.loc 1 213 0
 379              	@ 213 "ChibiOS_2.6.6/os/kernel/src/chmtx.c" 1
 380 001c 62B6     		cpsie   i
 381              	@ 0 "" 2
 382              		.loc 1 215 0
 383              		.thumb
 384 001e 7047     		bx	lr
 385              	.L31:
 386              		.align	2
 387              	.L30:
 388 0020 00000000 		.word	rlist
 389              		.cfi_endproc
 390              	.LFE10:
 391              		.size	chMtxTryLock, .-chMtxTryLock
 392 0024 AFF30080 		.section	.text.chMtxTryLockS,"ax",%progbits
 392      AFF30080 
 392      AFF30080 
 393              		.align	2
 394              		.p2align 4,,15
ARM GAS  C:\Users\jsyoon\AppData\Local\Temp\ccUtuy9d.s 			page 8


 395              		.global	chMtxTryLockS
 396              		.thumb
 397              		.thumb_func
 398              		.type	chMtxTryLockS, %function
 399              	chMtxTryLockS:
 400              	.LFB11:
 401              		.loc 1 234 0
 402              		.cfi_startproc
 403              		@ args = 0, pretend = 0, frame = 0
 404              		@ frame_needed = 0, uses_anonymous_args = 0
 405              		@ link register save eliminated.
 406              	.LVL30:
 407              		.loc 1 239 0
 408 0000 8268     		ldr	r2, [r0, #8]
 409              		.loc 1 234 0
 410 0002 0346     		mov	r3, r0
 411              		.loc 1 239 0
 412 0004 0AB1     		cbz	r2, .L35
 413              		.loc 1 240 0
 414 0006 0020     		movs	r0, #0
 415              	.LVL31:
 416              		.loc 1 245 0
 417 0008 7047     		bx	lr
 418              	.LVL32:
 419              	.L35:
 420              		.loc 1 241 0
 421 000a 044A     		ldr	r2, .L36
 422 000c 9269     		ldr	r2, [r2, #24]
 423 000e 8260     		str	r2, [r0, #8]
 424              		.loc 1 242 0
 425 0010 D16B     		ldr	r1, [r2, #60]
 426 0012 C160     		str	r1, [r0, #12]
 427              		.loc 1 244 0
 428 0014 0120     		movs	r0, #1
 429              	.LVL33:
 430              		.loc 1 243 0
 431 0016 D363     		str	r3, [r2, #60]
 432              		.loc 1 244 0
 433 0018 7047     		bx	lr
 434              	.L37:
 435 001a 00BF     		.align	2
 436              	.L36:
 437 001c 00000000 		.word	rlist
 438              		.cfi_endproc
 439              	.LFE11:
 440              		.size	chMtxTryLockS, .-chMtxTryLockS
 441              		.section	.text.chMtxUnlock,"ax",%progbits
 442              		.align	2
 443              		.p2align 4,,15
 444              		.global	chMtxUnlock
 445              		.thumb
 446              		.thumb_func
 447              		.type	chMtxUnlock, %function
 448              	chMtxUnlock:
 449              	.LFB12:
 450              		.loc 1 257 0
 451              		.cfi_startproc
ARM GAS  C:\Users\jsyoon\AppData\Local\Temp\ccUtuy9d.s 			page 9


 452              		@ args = 0, pretend = 0, frame = 0
 453              		@ frame_needed = 0, uses_anonymous_args = 0
 454 0000 38B5     		push	{r3, r4, r5, lr}
 455              		.cfi_def_cfa_offset 16
 456              		.cfi_offset 3, -16
 457              		.cfi_offset 4, -12
 458              		.cfi_offset 5, -8
 459              		.cfi_offset 14, -4
 460              		.loc 1 258 0
 461 0002 144B     		ldr	r3, .L50
 462 0004 9869     		ldr	r0, [r3, #24]
 463              	.LVL34:
 464              		.loc 1 261 0
 465              	@ 261 "ChibiOS_2.6.6/os/kernel/src/chmtx.c" 1
 466 0006 72B6     		cpsid   i
 467              	@ 0 "" 2
 468              		.loc 1 270 0
 469              		.thumb
 470 0008 C46B     		ldr	r4, [r0, #60]
 471              	.LVL35:
 472              		.loc 1 273 0
 473 000a 2568     		ldr	r5, [r4]
 474              		.loc 1 271 0
 475 000c E368     		ldr	r3, [r4, #12]
 476 000e C363     		str	r3, [r0, #60]
 477              		.loc 1 273 0
 478 0010 A542     		cmp	r5, r4
 479 0012 1AD0     		beq	.L39
 480              	.LBB49:
 481              		.loc 1 278 0
 482 0014 016C     		ldr	r1, [r0, #64]
 483              	.LVL36:
 484              		.loc 1 280 0
 485 0016 4BB1     		cbz	r3, .L40
 486              	.L42:
 487              		.loc 1 284 0
 488 0018 1A68     		ldr	r2, [r3]
 489 001a 9A42     		cmp	r2, r3
 490 001c 03D0     		beq	.L41
 491              		.loc 1 284 0 is_stmt 0 discriminator 1
 492 001e 9268     		ldr	r2, [r2, #8]
 493 0020 9142     		cmp	r1, r2
 494 0022 38BF     		it	cc
 495 0024 1146     		movcc	r1, r2
 496              	.LVL37:
 497              	.L41:
 498              		.loc 1 286 0 is_stmt 1
 499 0026 DB68     		ldr	r3, [r3, #12]
 500              	.LVL38:
 501              		.loc 1 280 0
 502 0028 002B     		cmp	r3, #0
 503 002a F5D1     		bne	.L42
 504              	.L40:
 505              	.LBB50:
 506              	.LBB51:
 507              		.loc 2 62 0
 508 002c 2B68     		ldr	r3, [r5]
ARM GAS  C:\Users\jsyoon\AppData\Local\Temp\ccUtuy9d.s 			page 10


 509              	.LVL39:
 510              	.LBE51:
 511              	.LBE50:
 512              		.loc 1 295 0
 513 002e EA6B     		ldr	r2, [r5, #60]
 514              		.loc 1 290 0
 515 0030 8160     		str	r1, [r0, #8]
 516              	.LVL40:
 517              	.LBB54:
 518              	.LBB52:
 519              		.loc 2 62 0
 520 0032 2360     		str	r3, [r4]
 521              	.LBE52:
 522              	.LBE54:
 523              		.loc 1 297 0
 524 0034 2846     		mov	r0, r5
 525              	.LVL41:
 526              	.LBB55:
 527              	.LBB53:
 528              		.loc 2 62 0
 529 0036 5C60     		str	r4, [r3, #4]
 530              	.LBE53:
 531              	.LBE55:
 532              		.loc 1 297 0
 533 0038 0021     		movs	r1, #0
 534              	.LVL42:
 535              		.loc 1 294 0
 536 003a A560     		str	r5, [r4, #8]
 537              		.loc 1 295 0
 538 003c E260     		str	r2, [r4, #12]
 539              		.loc 1 296 0
 540 003e EC63     		str	r4, [r5, #60]
 541              		.loc 1 297 0
 542 0040 FFF7FEFF 		bl	chSchWakeupS
 543              	.LVL43:
 544              	.LBE49:
 545              		.loc 1 301 0
 546              	@ 301 "ChibiOS_2.6.6/os/kernel/src/chmtx.c" 1
 547 0044 62B6     		cpsie   i
 548              	@ 0 "" 2
 549              		.loc 1 303 0
 550              		.thumb
 551 0046 2046     		mov	r0, r4
 552 0048 38BD     		pop	{r3, r4, r5, pc}
 553              	.LVL44:
 554              	.L39:
 555              		.loc 1 300 0
 556 004a 0023     		movs	r3, #0
 557 004c A360     		str	r3, [r4, #8]
 558              		.loc 1 301 0
 559              	@ 301 "ChibiOS_2.6.6/os/kernel/src/chmtx.c" 1
 560 004e 62B6     		cpsie   i
 561              	@ 0 "" 2
 562              		.loc 1 303 0
 563              		.thumb
 564 0050 2046     		mov	r0, r4
 565              	.LVL45:
ARM GAS  C:\Users\jsyoon\AppData\Local\Temp\ccUtuy9d.s 			page 11


 566 0052 38BD     		pop	{r3, r4, r5, pc}
 567              	.LVL46:
 568              	.L51:
 569              		.align	2
 570              	.L50:
 571 0054 00000000 		.word	rlist
 572              		.cfi_endproc
 573              	.LFE12:
 574              		.size	chMtxUnlock, .-chMtxUnlock
 575 0058 AFF30080 		.section	.text.chMtxUnlockS,"ax",%progbits
 575      AFF30080 
 576              		.align	2
 577              		.p2align 4,,15
 578              		.global	chMtxUnlockS
 579              		.thumb
 580              		.thumb_func
 581              		.type	chMtxUnlockS, %function
 582              	chMtxUnlockS:
 583              	.LFB13:
 584              		.loc 1 317 0
 585              		.cfi_startproc
 586              		@ args = 0, pretend = 0, frame = 0
 587              		@ frame_needed = 0, uses_anonymous_args = 0
 588 0000 38B5     		push	{r3, r4, r5, lr}
 589              		.cfi_def_cfa_offset 16
 590              		.cfi_offset 3, -16
 591              		.cfi_offset 4, -12
 592              		.cfi_offset 5, -8
 593              		.cfi_offset 14, -4
 594              		.loc 1 318 0
 595 0002 124B     		ldr	r3, .L64
 596 0004 9869     		ldr	r0, [r3, #24]
 597              	.LVL47:
 598              		.loc 1 331 0
 599 0006 C46B     		ldr	r4, [r0, #60]
 600              	.LVL48:
 601              		.loc 1 334 0
 602 0008 2568     		ldr	r5, [r4]
 603              		.loc 1 332 0
 604 000a E368     		ldr	r3, [r4, #12]
 605 000c C363     		str	r3, [r0, #60]
 606              		.loc 1 334 0
 607 000e A542     		cmp	r5, r4
 608 0010 18D0     		beq	.L53
 609              	.LBB56:
 610              		.loc 1 339 0
 611 0012 016C     		ldr	r1, [r0, #64]
 612              	.LVL49:
 613              		.loc 1 341 0
 614 0014 4BB1     		cbz	r3, .L54
 615              	.L56:
 616              		.loc 1 345 0
 617 0016 1A68     		ldr	r2, [r3]
 618 0018 9A42     		cmp	r2, r3
 619 001a 03D0     		beq	.L55
 620              		.loc 1 345 0 is_stmt 0 discriminator 1
 621 001c 9268     		ldr	r2, [r2, #8]
ARM GAS  C:\Users\jsyoon\AppData\Local\Temp\ccUtuy9d.s 			page 12


 622 001e 9142     		cmp	r1, r2
 623 0020 38BF     		it	cc
 624 0022 1146     		movcc	r1, r2
 625              	.LVL50:
 626              	.L55:
 627              		.loc 1 347 0 is_stmt 1
 628 0024 DB68     		ldr	r3, [r3, #12]
 629              	.LVL51:
 630              		.loc 1 341 0
 631 0026 002B     		cmp	r3, #0
 632 0028 F5D1     		bne	.L56
 633              	.L54:
 634              	.LBB57:
 635              	.LBB58:
 636              		.loc 2 62 0
 637 002a 2B68     		ldr	r3, [r5]
 638              	.LVL52:
 639              	.LBE58:
 640              	.LBE57:
 641              		.loc 1 354 0
 642 002c EA6B     		ldr	r2, [r5, #60]
 643              		.loc 1 349 0
 644 002e 8160     		str	r1, [r0, #8]
 645              	.LVL53:
 646              	.LBB61:
 647              	.LBB59:
 648              		.loc 2 62 0
 649 0030 2360     		str	r3, [r4]
 650              	.LBE59:
 651              	.LBE61:
 652              		.loc 1 356 0
 653 0032 2846     		mov	r0, r5
 654              	.LVL54:
 655              	.LBB62:
 656              	.LBB60:
 657              		.loc 2 62 0
 658 0034 5C60     		str	r4, [r3, #4]
 659              	.LBE60:
 660              	.LBE62:
 661              		.loc 1 353 0
 662 0036 A560     		str	r5, [r4, #8]
 663              		.loc 1 354 0
 664 0038 E260     		str	r2, [r4, #12]
 665              		.loc 1 355 0
 666 003a EC63     		str	r4, [r5, #60]
 667              		.loc 1 356 0
 668 003c FFF7FEFF 		bl	chSchReadyI
 669              	.LVL55:
 670              	.LBE56:
 671              		.loc 1 361 0
 672 0040 2046     		mov	r0, r4
 673 0042 38BD     		pop	{r3, r4, r5, pc}
 674              	.LVL56:
 675              	.L53:
 676              		.loc 1 359 0
 677 0044 0023     		movs	r3, #0
 678 0046 A360     		str	r3, [r4, #8]
ARM GAS  C:\Users\jsyoon\AppData\Local\Temp\ccUtuy9d.s 			page 13


 679              		.loc 1 361 0
 680 0048 2046     		mov	r0, r4
 681              	.LVL57:
 682 004a 38BD     		pop	{r3, r4, r5, pc}
 683              	.LVL58:
 684              	.L65:
 685              		.align	2
 686              	.L64:
 687 004c 00000000 		.word	rlist
 688              		.cfi_endproc
 689              	.LFE13:
 690              		.size	chMtxUnlockS, .-chMtxUnlockS
 691              		.section	.text.chMtxUnlockAll,"ax",%progbits
 692              		.align	2
 693              		.p2align 4,,15
 694              		.global	chMtxUnlockAll
 695              		.thumb
 696              		.thumb_func
 697              		.type	chMtxUnlockAll, %function
 698              	chMtxUnlockAll:
 699              	.LFB14:
 700              		.loc 1 374 0
 701              		.cfi_startproc
 702              		@ args = 0, pretend = 0, frame = 0
 703              		@ frame_needed = 0, uses_anonymous_args = 0
 704              		.loc 1 375 0
 705 0000 114B     		ldr	r3, .L77
 706              		.loc 1 374 0
 707 0002 70B5     		push	{r4, r5, r6, lr}
 708              		.cfi_def_cfa_offset 16
 709              		.cfi_offset 4, -16
 710              		.cfi_offset 5, -12
 711              		.cfi_offset 6, -8
 712              		.cfi_offset 14, -4
 713              		.loc 1 375 0
 714 0004 9C69     		ldr	r4, [r3, #24]
 715              	.LVL59:
 716              		.loc 1 377 0
 717              	@ 377 "ChibiOS_2.6.6/os/kernel/src/chmtx.c" 1
 718 0006 72B6     		cpsid   i
 719              	@ 0 "" 2
 720              		.loc 1 378 0
 721              		.thumb
 722 0008 E36B     		ldr	r3, [r4, #60]
 723 000a D3B1     		cbz	r3, .L67
 724              	.LBB63:
 725              		.loc 1 390 0
 726 000c 0026     		movs	r6, #0
 727 000e 0BE0     		b	.L71
 728              	.LVL60:
 729              	.L76:
 730              	.LBB64:
 731              	.LBB65:
 732              	.LBB66:
 733              		.loc 2 62 0
 734 0010 1168     		ldr	r1, [r2]
 735              	.LBE66:
ARM GAS  C:\Users\jsyoon\AppData\Local\Temp\ccUtuy9d.s 			page 14


 736              	.LBE65:
 737              		.loc 1 385 0
 738 0012 D56B     		ldr	r5, [r2, #60]
 739              	.LBB69:
 740              	.LBB67:
 741              		.loc 2 62 0
 742 0014 1960     		str	r1, [r3]
 743              	.LBE67:
 744              	.LBE69:
 745              		.loc 1 387 0
 746 0016 1046     		mov	r0, r2
 747              	.LBB70:
 748              	.LBB68:
 749              		.loc 2 62 0
 750 0018 4B60     		str	r3, [r1, #4]
 751              	.LBE68:
 752              	.LBE70:
 753              		.loc 1 384 0
 754 001a 9A60     		str	r2, [r3, #8]
 755              		.loc 1 385 0
 756 001c DD60     		str	r5, [r3, #12]
 757              		.loc 1 386 0
 758 001e D363     		str	r3, [r2, #60]
 759              		.loc 1 387 0
 760 0020 FFF7FEFF 		bl	chSchReadyI
 761              	.LVL61:
 762              	.LBE64:
 763              	.LBE63:
 764              		.loc 1 391 0
 765 0024 E36B     		ldr	r3, [r4, #60]
 766 0026 43B1     		cbz	r3, .L75
 767              	.L71:
 768              	.LVL62:
 769              	.LBB71:
 770              		.loc 1 382 0
 771 0028 1A68     		ldr	r2, [r3]
 772              	.LVL63:
 773              		.loc 1 381 0
 774 002a D968     		ldr	r1, [r3, #12]
 775 002c E163     		str	r1, [r4, #60]
 776              		.loc 1 382 0
 777 002e 9A42     		cmp	r2, r3
 778 0030 EED1     		bne	.L76
 779              		.loc 1 390 0
 780 0032 9E60     		str	r6, [r3, #8]
 781              	.LBE71:
 782              		.loc 1 391 0
 783 0034 E36B     		ldr	r3, [r4, #60]
 784              	.LVL64:
 785 0036 002B     		cmp	r3, #0
 786 0038 F6D1     		bne	.L71
 787              	.LVL65:
 788              	.L75:
 789              		.loc 1 392 0
 790 003a 236C     		ldr	r3, [r4, #64]
 791 003c A360     		str	r3, [r4, #8]
 792              		.loc 1 393 0
ARM GAS  C:\Users\jsyoon\AppData\Local\Temp\ccUtuy9d.s 			page 15


 793 003e FFF7FEFF 		bl	chSchRescheduleS
 794              	.LVL66:
 795              	.L67:
 796              		.loc 1 395 0
 797              	@ 395 "ChibiOS_2.6.6/os/kernel/src/chmtx.c" 1
 798 0042 62B6     		cpsie   i
 799              	@ 0 "" 2
 800              		.thumb
 801 0044 70BD     		pop	{r4, r5, r6, pc}
 802              	.LVL67:
 803              	.L78:
 804 0046 00BF     		.align	2
 805              	.L77:
 806 0048 00000000 		.word	rlist
 807              		.cfi_endproc
 808              	.LFE14:
 809              		.size	chMtxUnlockAll, .-chMtxUnlockAll
 810 004c AFF30080 		.text
 811              	.Letext0:
 812              		.file 3 "c:\\crosstools\\gcc-arm-embedded\\4.8_2014q2\\arm-none-eabi\\include\\machine\\_default_t
 813              		.file 4 "c:\\crosstools\\gcc-arm-embedded\\4.8_2014q2\\arm-none-eabi\\include\\stdint.h"
 814              		.file 5 "ChibiOS_2.6.6/os/ports/GCC/ARMCMx/chtypes.h"
 815              		.file 6 "ChibiOS_2.6.6/os/kernel/include/chlists.h"
 816              		.file 7 "ChibiOS_2.6.6/os/kernel/include/chthreads.h"
 817              		.file 8 "ChibiOS_2.6.6/os/ports/GCC/ARMCMx/chcore_v7m.h"
 818              		.file 9 "ChibiOS_2.6.6/os/kernel/include/chschd.h"
 819              		.file 10 "ChibiOS_2.6.6/os/kernel/include/chmtx.h"
 820              		.section	.debug_info,"",%progbits
 821              	.Ldebug_info0:
 822 0000 D0090000 		.4byte	0x9d0
 823 0004 0400     		.2byte	0x4
 824 0006 00000000 		.4byte	.Ldebug_abbrev0
 825 000a 04       		.byte	0x4
 826 000b 01       		.uleb128 0x1
 827 000c BE000000 		.4byte	.LASF81
 828 0010 01       		.byte	0x1
 829 0011 40020000 		.4byte	.LASF82
 830 0015 7C000000 		.4byte	.LASF83
 831 0019 D8000000 		.4byte	.Ldebug_ranges0+0xd8
 832 001d 00000000 		.4byte	0
 833 0021 00000000 		.4byte	.Ldebug_line0
 834 0025 02       		.uleb128 0x2
 835 0026 04       		.byte	0x4
 836 0027 05       		.byte	0x5
 837 0028 696E7400 		.ascii	"int\000"
 838 002c 03       		.uleb128 0x3
 839 002d 04       		.byte	0x4
 840 002e 07       		.byte	0x7
 841 002f 33020000 		.4byte	.LASF0
 842 0033 03       		.uleb128 0x3
 843 0034 01       		.byte	0x1
 844 0035 06       		.byte	0x6
 845 0036 4F000000 		.4byte	.LASF1
 846 003a 04       		.uleb128 0x4
 847 003b 0D000000 		.4byte	.LASF5
 848 003f 03       		.byte	0x3
 849 0040 1C       		.byte	0x1c
ARM GAS  C:\Users\jsyoon\AppData\Local\Temp\ccUtuy9d.s 			page 16


 850 0041 45000000 		.4byte	0x45
 851 0045 03       		.uleb128 0x3
 852 0046 01       		.byte	0x1
 853 0047 08       		.byte	0x8
 854 0048 56030000 		.4byte	.LASF2
 855 004c 03       		.uleb128 0x3
 856 004d 02       		.byte	0x2
 857 004e 05       		.byte	0x5
 858 004f 6E030000 		.4byte	.LASF3
 859 0053 03       		.uleb128 0x3
 860 0054 02       		.byte	0x2
 861 0055 07       		.byte	0x7
 862 0056 7E020000 		.4byte	.LASF4
 863 005a 04       		.uleb128 0x4
 864 005b 11040000 		.4byte	.LASF6
 865 005f 03       		.byte	0x3
 866 0060 37       		.byte	0x37
 867 0061 65000000 		.4byte	0x65
 868 0065 03       		.uleb128 0x3
 869 0066 04       		.byte	0x4
 870 0067 05       		.byte	0x5
 871 0068 AC000000 		.4byte	.LASF7
 872 006c 04       		.uleb128 0x4
 873 006d 12020000 		.4byte	.LASF8
 874 0071 03       		.byte	0x3
 875 0072 38       		.byte	0x38
 876 0073 77000000 		.4byte	0x77
 877 0077 03       		.uleb128 0x3
 878 0078 04       		.byte	0x4
 879 0079 07       		.byte	0x7
 880 007a 64020000 		.4byte	.LASF9
 881 007e 03       		.uleb128 0x3
 882 007f 08       		.byte	0x8
 883 0080 05       		.byte	0x5
 884 0081 41000000 		.4byte	.LASF10
 885 0085 03       		.uleb128 0x3
 886 0086 08       		.byte	0x8
 887 0087 07       		.byte	0x7
 888 0088 17000000 		.4byte	.LASF11
 889 008c 04       		.uleb128 0x4
 890 008d 6E040000 		.4byte	.LASF12
 891 0091 04       		.byte	0x4
 892 0092 2A       		.byte	0x2a
 893 0093 3A000000 		.4byte	0x3a
 894 0097 04       		.uleb128 0x4
 895 0098 4E030000 		.4byte	.LASF13
 896 009c 04       		.byte	0x4
 897 009d 41       		.byte	0x41
 898 009e 5A000000 		.4byte	0x5a
 899 00a2 04       		.uleb128 0x4
 900 00a3 C7030000 		.4byte	.LASF14
 901 00a7 04       		.byte	0x4
 902 00a8 42       		.byte	0x42
 903 00a9 6C000000 		.4byte	0x6c
 904 00ad 04       		.uleb128 0x4
 905 00ae 63000000 		.4byte	.LASF15
 906 00b2 05       		.byte	0x5
ARM GAS  C:\Users\jsyoon\AppData\Local\Temp\ccUtuy9d.s 			page 17


 907 00b3 2B       		.byte	0x2b
 908 00b4 B8000000 		.4byte	0xb8
 909 00b8 03       		.uleb128 0x3
 910 00b9 01       		.byte	0x1
 911 00ba 02       		.byte	0x2
 912 00bb 48030000 		.4byte	.LASF16
 913 00bf 04       		.uleb128 0x4
 914 00c0 B6020000 		.4byte	.LASF17
 915 00c4 05       		.byte	0x5
 916 00c5 2C       		.byte	0x2c
 917 00c6 8C000000 		.4byte	0x8c
 918 00ca 04       		.uleb128 0x4
 919 00cb B5000000 		.4byte	.LASF18
 920 00cf 05       		.byte	0x5
 921 00d0 2D       		.byte	0x2d
 922 00d1 8C000000 		.4byte	0x8c
 923 00d5 04       		.uleb128 0x4
 924 00d6 31030000 		.4byte	.LASF19
 925 00da 05       		.byte	0x5
 926 00db 2E       		.byte	0x2e
 927 00dc 8C000000 		.4byte	0x8c
 928 00e0 04       		.uleb128 0x4
 929 00e1 72000000 		.4byte	.LASF20
 930 00e5 05       		.byte	0x5
 931 00e6 2F       		.byte	0x2f
 932 00e7 8C000000 		.4byte	0x8c
 933 00eb 04       		.uleb128 0x4
 934 00ec 40030000 		.4byte	.LASF21
 935 00f0 05       		.byte	0x5
 936 00f1 30       		.byte	0x30
 937 00f2 A2000000 		.4byte	0xa2
 938 00f6 04       		.uleb128 0x4
 939 00f7 91020000 		.4byte	.LASF22
 940 00fb 05       		.byte	0x5
 941 00fc 31       		.byte	0x31
 942 00fd 97000000 		.4byte	0x97
 943 0101 04       		.uleb128 0x4
 944 0102 CA020000 		.4byte	.LASF23
 945 0106 05       		.byte	0x5
 946 0107 33       		.byte	0x33
 947 0108 A2000000 		.4byte	0xa2
 948 010c 04       		.uleb128 0x4
 949 010d FC030000 		.4byte	.LASF24
 950 0111 05       		.byte	0x5
 951 0112 35       		.byte	0x35
 952 0113 A2000000 		.4byte	0xa2
 953 0117 04       		.uleb128 0x4
 954 0118 A7030000 		.4byte	.LASF25
 955 011c 06       		.byte	0x6
 956 011d 2A       		.byte	0x2a
 957 011e 22010000 		.4byte	0x122
 958 0122 05       		.uleb128 0x5
 959 0123 A7030000 		.4byte	.LASF25
 960 0127 48       		.byte	0x48
 961 0128 07       		.byte	0x7
 962 0129 5E       		.byte	0x5e
 963 012a 1F020000 		.4byte	0x21f
ARM GAS  C:\Users\jsyoon\AppData\Local\Temp\ccUtuy9d.s 			page 18


 964 012e 06       		.uleb128 0x6
 965 012f 98030000 		.4byte	.LASF26
 966 0133 07       		.byte	0x7
 967 0134 5F       		.byte	0x5f
 968 0135 40020000 		.4byte	0x240
 969 0139 00       		.byte	0
 970 013a 06       		.uleb128 0x6
 971 013b 39030000 		.4byte	.LASF27
 972 013f 07       		.byte	0x7
 973 0140 61       		.byte	0x61
 974 0141 40020000 		.4byte	0x240
 975 0145 04       		.byte	0x4
 976 0146 06       		.uleb128 0x6
 977 0147 3A000000 		.4byte	.LASF28
 978 014b 07       		.byte	0x7
 979 014c 63       		.byte	0x63
 980 014d EB000000 		.4byte	0xeb
 981 0151 08       		.byte	0x8
 982 0152 06       		.uleb128 0x6
 983 0153 97040000 		.4byte	.LASF29
 984 0157 07       		.byte	0x7
 985 0158 64       		.byte	0x64
 986 0159 CA030000 		.4byte	0x3ca
 987 015d 0C       		.byte	0xc
 988 015e 06       		.uleb128 0x6
 989 015f F0010000 		.4byte	.LASF30
 990 0163 07       		.byte	0x7
 991 0164 66       		.byte	0x66
 992 0165 40020000 		.4byte	0x240
 993 0169 10       		.byte	0x10
 994 016a 06       		.uleb128 0x6
 995 016b FC020000 		.4byte	.LASF31
 996 016f 07       		.byte	0x7
 997 0170 67       		.byte	0x67
 998 0171 40020000 		.4byte	0x240
 999 0175 14       		.byte	0x14
 1000 0176 06       		.uleb128 0x6
 1001 0177 7D040000 		.4byte	.LASF32
 1002 017b 07       		.byte	0x7
 1003 017c 6E       		.byte	0x6e
 1004 017d CA040000 		.4byte	0x4ca
 1005 0181 18       		.byte	0x18
 1006 0182 06       		.uleb128 0x6
 1007 0183 78030000 		.4byte	.LASF33
 1008 0187 07       		.byte	0x7
 1009 0188 79       		.byte	0x79
 1010 0189 CA000000 		.4byte	0xca
 1011 018d 1C       		.byte	0x1c
 1012 018e 06       		.uleb128 0x6
 1013 018f 9F030000 		.4byte	.LASF34
 1014 0193 07       		.byte	0x7
 1015 0194 7D       		.byte	0x7d
 1016 0195 BF000000 		.4byte	0xbf
 1017 0199 1D       		.byte	0x1d
 1018 019a 06       		.uleb128 0x6
 1019 019b 57040000 		.4byte	.LASF35
 1020 019f 07       		.byte	0x7
ARM GAS  C:\Users\jsyoon\AppData\Local\Temp\ccUtuy9d.s 			page 19


 1021 01a0 82       		.byte	0x82
 1022 01a1 D5000000 		.4byte	0xd5
 1023 01a5 1E       		.byte	0x1e
 1024 01a6 06       		.uleb128 0x6
 1025 01a7 80030000 		.4byte	.LASF36
 1026 01ab 07       		.byte	0x7
 1027 01ac 88       		.byte	0x88
 1028 01ad E0000000 		.4byte	0xe0
 1029 01b1 1F       		.byte	0x1f
 1030 01b2 06       		.uleb128 0x6
 1031 01b3 27040000 		.4byte	.LASF37
 1032 01b7 07       		.byte	0x7
 1033 01b8 8F       		.byte	0x8f
 1034 01b9 F2030000 		.4byte	0x3f2
 1035 01bd 20       		.byte	0x20
 1036 01be 07       		.uleb128 0x7
 1037 01bf 705F7500 		.ascii	"p_u\000"
 1038 01c3 07       		.byte	0x7
 1039 01c4 B4       		.byte	0xb4
 1040 01c5 95040000 		.4byte	0x495
 1041 01c9 24       		.byte	0x24
 1042 01ca 06       		.uleb128 0x6
 1043 01cb 9D040000 		.4byte	.LASF38
 1044 01cf 07       		.byte	0x7
 1045 01d0 B9       		.byte	0xb9
 1046 01d1 66020000 		.4byte	0x266
 1047 01d5 28       		.byte	0x28
 1048 01d6 06       		.uleb128 0x6
 1049 01d7 35040000 		.4byte	.LASF39
 1050 01db 07       		.byte	0x7
 1051 01dc BF       		.byte	0xbf
 1052 01dd 46020000 		.4byte	0x246
 1053 01e1 2C       		.byte	0x2c
 1054 01e2 06       		.uleb128 0x6
 1055 01e3 00000000 		.4byte	.LASF40
 1056 01e7 07       		.byte	0x7
 1057 01e8 C3       		.byte	0xc3
 1058 01e9 F6000000 		.4byte	0xf6
 1059 01ed 34       		.byte	0x34
 1060 01ee 06       		.uleb128 0x6
 1061 01ef BC030000 		.4byte	.LASF41
 1062 01f3 07       		.byte	0x7
 1063 01f4 C9       		.byte	0xc9
 1064 01f5 01010000 		.4byte	0x101
 1065 01f9 38       		.byte	0x38
 1066 01fa 06       		.uleb128 0x6
 1067 01fb 64030000 		.4byte	.LASF42
 1068 01ff 07       		.byte	0x7
 1069 0200 D0       		.byte	0xd0
 1070 0201 DC040000 		.4byte	0x4dc
 1071 0205 3C       		.byte	0x3c
 1072 0206 06       		.uleb128 0x6
 1073 0207 06040000 		.4byte	.LASF43
 1074 020b 07       		.byte	0x7
 1075 020c D4       		.byte	0xd4
 1076 020d EB000000 		.4byte	0xeb
 1077 0211 40       		.byte	0x40
ARM GAS  C:\Users\jsyoon\AppData\Local\Temp\ccUtuy9d.s 			page 20


 1078 0212 06       		.uleb128 0x6
 1079 0213 5B000000 		.4byte	.LASF44
 1080 0217 07       		.byte	0x7
 1081 0218 DA       		.byte	0xda
 1082 0219 7C020000 		.4byte	0x27c
 1083 021d 44       		.byte	0x44
 1084 021e 00       		.byte	0
 1085 021f 08       		.uleb128 0x8
 1086 0220 08       		.byte	0x8
 1087 0221 06       		.byte	0x6
 1088 0222 61       		.byte	0x61
 1089 0223 40020000 		.4byte	0x240
 1090 0227 06       		.uleb128 0x6
 1091 0228 98030000 		.4byte	.LASF26
 1092 022c 06       		.byte	0x6
 1093 022d 62       		.byte	0x62
 1094 022e 40020000 		.4byte	0x240
 1095 0232 00       		.byte	0
 1096 0233 06       		.uleb128 0x6
 1097 0234 39030000 		.4byte	.LASF27
 1098 0238 06       		.byte	0x6
 1099 0239 64       		.byte	0x64
 1100 023a 40020000 		.4byte	0x240
 1101 023e 04       		.byte	0x4
 1102 023f 00       		.byte	0
 1103 0240 09       		.uleb128 0x9
 1104 0241 04       		.byte	0x4
 1105 0242 17010000 		.4byte	0x117
 1106 0246 04       		.uleb128 0x4
 1107 0247 0A030000 		.4byte	.LASF45
 1108 024b 06       		.byte	0x6
 1109 024c 66       		.byte	0x66
 1110 024d 1F020000 		.4byte	0x21f
 1111 0251 08       		.uleb128 0x8
 1112 0252 04       		.byte	0x4
 1113 0253 06       		.byte	0x6
 1114 0254 6B       		.byte	0x6b
 1115 0255 66020000 		.4byte	0x266
 1116 0259 06       		.uleb128 0x6
 1117 025a 98030000 		.4byte	.LASF26
 1118 025e 06       		.byte	0x6
 1119 025f 6D       		.byte	0x6d
 1120 0260 40020000 		.4byte	0x240
 1121 0264 00       		.byte	0
 1122 0265 00       		.byte	0
 1123 0266 04       		.uleb128 0x4
 1124 0267 BE020000 		.4byte	.LASF46
 1125 026b 06       		.byte	0x6
 1126 026c 70       		.byte	0x70
 1127 026d 51020000 		.4byte	0x251
 1128 0271 04       		.uleb128 0x4
 1129 0272 1D020000 		.4byte	.LASF47
 1130 0276 08       		.byte	0x8
 1131 0277 E5       		.byte	0xe5
 1132 0278 7C020000 		.4byte	0x27c
 1133 027c 0A       		.uleb128 0xa
 1134 027d 04       		.byte	0x4
ARM GAS  C:\Users\jsyoon\AppData\Local\Temp\ccUtuy9d.s 			page 21


 1135 027e 0B       		.uleb128 0xb
 1136 027f 2E040000 		.4byte	.LASF48
 1137 0283 64       		.byte	0x64
 1138 0284 08       		.byte	0x8
 1139 0285 0C01     		.2byte	0x10c
 1140 0287 CA030000 		.4byte	0x3ca
 1141 028b 0C       		.uleb128 0xc
 1142 028c 73313600 		.ascii	"s16\000"
 1143 0290 08       		.byte	0x8
 1144 0291 0E01     		.2byte	0x10e
 1145 0293 71020000 		.4byte	0x271
 1146 0297 00       		.byte	0
 1147 0298 0C       		.uleb128 0xc
 1148 0299 73313700 		.ascii	"s17\000"
 1149 029d 08       		.byte	0x8
 1150 029e 0F01     		.2byte	0x10f
 1151 02a0 71020000 		.4byte	0x271
 1152 02a4 04       		.byte	0x4
 1153 02a5 0C       		.uleb128 0xc
 1154 02a6 73313800 		.ascii	"s18\000"
 1155 02aa 08       		.byte	0x8
 1156 02ab 1001     		.2byte	0x110
 1157 02ad 71020000 		.4byte	0x271
 1158 02b1 08       		.byte	0x8
 1159 02b2 0C       		.uleb128 0xc
 1160 02b3 73313900 		.ascii	"s19\000"
 1161 02b7 08       		.byte	0x8
 1162 02b8 1101     		.2byte	0x111
 1163 02ba 71020000 		.4byte	0x271
 1164 02be 0C       		.byte	0xc
 1165 02bf 0C       		.uleb128 0xc
 1166 02c0 73323000 		.ascii	"s20\000"
 1167 02c4 08       		.byte	0x8
 1168 02c5 1201     		.2byte	0x112
 1169 02c7 71020000 		.4byte	0x271
 1170 02cb 10       		.byte	0x10
 1171 02cc 0C       		.uleb128 0xc
 1172 02cd 73323100 		.ascii	"s21\000"
 1173 02d1 08       		.byte	0x8
 1174 02d2 1301     		.2byte	0x113
 1175 02d4 71020000 		.4byte	0x271
 1176 02d8 14       		.byte	0x14
 1177 02d9 0C       		.uleb128 0xc
 1178 02da 73323200 		.ascii	"s22\000"
 1179 02de 08       		.byte	0x8
 1180 02df 1401     		.2byte	0x114
 1181 02e1 71020000 		.4byte	0x271
 1182 02e5 18       		.byte	0x18
 1183 02e6 0C       		.uleb128 0xc
 1184 02e7 73323300 		.ascii	"s23\000"
 1185 02eb 08       		.byte	0x8
 1186 02ec 1501     		.2byte	0x115
 1187 02ee 71020000 		.4byte	0x271
 1188 02f2 1C       		.byte	0x1c
 1189 02f3 0C       		.uleb128 0xc
 1190 02f4 73323400 		.ascii	"s24\000"
 1191 02f8 08       		.byte	0x8
ARM GAS  C:\Users\jsyoon\AppData\Local\Temp\ccUtuy9d.s 			page 22


 1192 02f9 1601     		.2byte	0x116
 1193 02fb 71020000 		.4byte	0x271
 1194 02ff 20       		.byte	0x20
 1195 0300 0C       		.uleb128 0xc
 1196 0301 73323500 		.ascii	"s25\000"
 1197 0305 08       		.byte	0x8
 1198 0306 1701     		.2byte	0x117
 1199 0308 71020000 		.4byte	0x271
 1200 030c 24       		.byte	0x24
 1201 030d 0C       		.uleb128 0xc
 1202 030e 73323600 		.ascii	"s26\000"
 1203 0312 08       		.byte	0x8
 1204 0313 1801     		.2byte	0x118
 1205 0315 71020000 		.4byte	0x271
 1206 0319 28       		.byte	0x28
 1207 031a 0C       		.uleb128 0xc
 1208 031b 73323700 		.ascii	"s27\000"
 1209 031f 08       		.byte	0x8
 1210 0320 1901     		.2byte	0x119
 1211 0322 71020000 		.4byte	0x271
 1212 0326 2C       		.byte	0x2c
 1213 0327 0C       		.uleb128 0xc
 1214 0328 73323800 		.ascii	"s28\000"
 1215 032c 08       		.byte	0x8
 1216 032d 1A01     		.2byte	0x11a
 1217 032f 71020000 		.4byte	0x271
 1218 0333 30       		.byte	0x30
 1219 0334 0C       		.uleb128 0xc
 1220 0335 73323900 		.ascii	"s29\000"
 1221 0339 08       		.byte	0x8
 1222 033a 1B01     		.2byte	0x11b
 1223 033c 71020000 		.4byte	0x271
 1224 0340 34       		.byte	0x34
 1225 0341 0C       		.uleb128 0xc
 1226 0342 73333000 		.ascii	"s30\000"
 1227 0346 08       		.byte	0x8
 1228 0347 1C01     		.2byte	0x11c
 1229 0349 71020000 		.4byte	0x271
 1230 034d 38       		.byte	0x38
 1231 034e 0C       		.uleb128 0xc
 1232 034f 73333100 		.ascii	"s31\000"
 1233 0353 08       		.byte	0x8
 1234 0354 1D01     		.2byte	0x11d
 1235 0356 71020000 		.4byte	0x271
 1236 035a 3C       		.byte	0x3c
 1237 035b 0C       		.uleb128 0xc
 1238 035c 723400   		.ascii	"r4\000"
 1239 035f 08       		.byte	0x8
 1240 0360 1F01     		.2byte	0x11f
 1241 0362 71020000 		.4byte	0x271
 1242 0366 40       		.byte	0x40
 1243 0367 0C       		.uleb128 0xc
 1244 0368 723500   		.ascii	"r5\000"
 1245 036b 08       		.byte	0x8
 1246 036c 2001     		.2byte	0x120
 1247 036e 71020000 		.4byte	0x271
 1248 0372 44       		.byte	0x44
ARM GAS  C:\Users\jsyoon\AppData\Local\Temp\ccUtuy9d.s 			page 23


 1249 0373 0C       		.uleb128 0xc
 1250 0374 723600   		.ascii	"r6\000"
 1251 0377 08       		.byte	0x8
 1252 0378 2101     		.2byte	0x121
 1253 037a 71020000 		.4byte	0x271
 1254 037e 48       		.byte	0x48
 1255 037f 0C       		.uleb128 0xc
 1256 0380 723700   		.ascii	"r7\000"
 1257 0383 08       		.byte	0x8
 1258 0384 2201     		.2byte	0x122
 1259 0386 71020000 		.4byte	0x271
 1260 038a 4C       		.byte	0x4c
 1261 038b 0C       		.uleb128 0xc
 1262 038c 723800   		.ascii	"r8\000"
 1263 038f 08       		.byte	0x8
 1264 0390 2301     		.2byte	0x123
 1265 0392 71020000 		.4byte	0x271
 1266 0396 50       		.byte	0x50
 1267 0397 0C       		.uleb128 0xc
 1268 0398 723900   		.ascii	"r9\000"
 1269 039b 08       		.byte	0x8
 1270 039c 2401     		.2byte	0x124
 1271 039e 71020000 		.4byte	0x271
 1272 03a2 54       		.byte	0x54
 1273 03a3 0C       		.uleb128 0xc
 1274 03a4 72313000 		.ascii	"r10\000"
 1275 03a8 08       		.byte	0x8
 1276 03a9 2501     		.2byte	0x125
 1277 03ab 71020000 		.4byte	0x271
 1278 03af 58       		.byte	0x58
 1279 03b0 0C       		.uleb128 0xc
 1280 03b1 72313100 		.ascii	"r11\000"
 1281 03b5 08       		.byte	0x8
 1282 03b6 2601     		.2byte	0x126
 1283 03b8 71020000 		.4byte	0x271
 1284 03bc 5C       		.byte	0x5c
 1285 03bd 0C       		.uleb128 0xc
 1286 03be 6C7200   		.ascii	"lr\000"
 1287 03c1 08       		.byte	0x8
 1288 03c2 2701     		.2byte	0x127
 1289 03c4 71020000 		.4byte	0x271
 1290 03c8 60       		.byte	0x60
 1291 03c9 00       		.byte	0
 1292 03ca 0B       		.uleb128 0xb
 1293 03cb 76020000 		.4byte	.LASF49
 1294 03cf 04       		.byte	0x4
 1295 03d0 08       		.byte	0x8
 1296 03d1 3101     		.2byte	0x131
 1297 03d3 E5030000 		.4byte	0x3e5
 1298 03d7 0C       		.uleb128 0xc
 1299 03d8 72313300 		.ascii	"r13\000"
 1300 03dc 08       		.byte	0x8
 1301 03dd 3201     		.2byte	0x132
 1302 03df E5030000 		.4byte	0x3e5
 1303 03e3 00       		.byte	0
 1304 03e4 00       		.byte	0
 1305 03e5 09       		.uleb128 0x9
ARM GAS  C:\Users\jsyoon\AppData\Local\Temp\ccUtuy9d.s 			page 24


 1306 03e6 04       		.byte	0x4
 1307 03e7 7E020000 		.4byte	0x27e
 1308 03eb 03       		.uleb128 0x3
 1309 03ec 04       		.byte	0x4
 1310 03ed 07       		.byte	0x7
 1311 03ee E9020000 		.4byte	.LASF50
 1312 03f2 0D       		.uleb128 0xd
 1313 03f3 0C010000 		.4byte	0x10c
 1314 03f7 08       		.uleb128 0x8
 1315 03f8 1C       		.byte	0x1c
 1316 03f9 09       		.byte	0x9
 1317 03fa 5E       		.byte	0x5e
 1318 03fb 48040000 		.4byte	0x448
 1319 03ff 06       		.uleb128 0x6
 1320 0400 D0030000 		.4byte	.LASF51
 1321 0404 09       		.byte	0x9
 1322 0405 5F       		.byte	0x5f
 1323 0406 46020000 		.4byte	0x246
 1324 040a 00       		.byte	0
 1325 040b 06       		.uleb128 0x6
 1326 040c 8A030000 		.4byte	.LASF52
 1327 0410 09       		.byte	0x9
 1328 0411 60       		.byte	0x60
 1329 0412 EB000000 		.4byte	0xeb
 1330 0416 08       		.byte	0x8
 1331 0417 06       		.uleb128 0x6
 1332 0418 04030000 		.4byte	.LASF53
 1333 041c 09       		.byte	0x9
 1334 041d 62       		.byte	0x62
 1335 041e CA030000 		.4byte	0x3ca
 1336 0422 0C       		.byte	0xc
 1337 0423 06       		.uleb128 0x6
 1338 0424 97020000 		.4byte	.LASF54
 1339 0428 09       		.byte	0x9
 1340 0429 65       		.byte	0x65
 1341 042a 40020000 		.4byte	0x240
 1342 042e 10       		.byte	0x10
 1343 042f 06       		.uleb128 0x6
 1344 0430 29030000 		.4byte	.LASF55
 1345 0434 09       		.byte	0x9
 1346 0435 66       		.byte	0x66
 1347 0436 40020000 		.4byte	0x240
 1348 043a 14       		.byte	0x14
 1349 043b 06       		.uleb128 0x6
 1350 043c 1F030000 		.4byte	.LASF56
 1351 0440 09       		.byte	0x9
 1352 0441 69       		.byte	0x69
 1353 0442 40020000 		.4byte	0x240
 1354 0446 18       		.byte	0x18
 1355 0447 00       		.byte	0
 1356 0448 04       		.uleb128 0x4
 1357 0449 5E040000 		.4byte	.LASF57
 1358 044d 09       		.byte	0x9
 1359 044e 6B       		.byte	0x6b
 1360 044f F7030000 		.4byte	0x3f7
 1361 0453 05       		.uleb128 0x5
 1362 0454 E3020000 		.4byte	.LASF58
ARM GAS  C:\Users\jsyoon\AppData\Local\Temp\ccUtuy9d.s 			page 25


 1363 0458 10       		.byte	0x10
 1364 0459 0A       		.byte	0xa
 1365 045a 2C       		.byte	0x2c
 1366 045b 84040000 		.4byte	0x484
 1367 045f 06       		.uleb128 0x6
 1368 0460 6A000000 		.4byte	.LASF59
 1369 0464 0A       		.byte	0xa
 1370 0465 2D       		.byte	0x2d
 1371 0466 46020000 		.4byte	0x246
 1372 046a 00       		.byte	0
 1373 046b 06       		.uleb128 0x6
 1374 046c 8F040000 		.4byte	.LASF60
 1375 0470 0A       		.byte	0xa
 1376 0471 2F       		.byte	0x2f
 1377 0472 40020000 		.4byte	0x240
 1378 0476 08       		.byte	0x8
 1379 0477 06       		.uleb128 0x6
 1380 0478 F5030000 		.4byte	.LASF61
 1381 047c 0A       		.byte	0xa
 1382 047d 31       		.byte	0x31
 1383 047e 84040000 		.4byte	0x484
 1384 0482 0C       		.byte	0xc
 1385 0483 00       		.byte	0
 1386 0484 09       		.uleb128 0x9
 1387 0485 04       		.byte	0x4
 1388 0486 53040000 		.4byte	0x453
 1389 048a 04       		.uleb128 0x4
 1390 048b E3020000 		.4byte	.LASF58
 1391 048f 0A       		.byte	0xa
 1392 0490 33       		.byte	0x33
 1393 0491 53040000 		.4byte	0x453
 1394 0495 0E       		.uleb128 0xe
 1395 0496 04       		.byte	0x4
 1396 0497 07       		.byte	0x7
 1397 0498 96       		.byte	0x96
 1398 0499 CA040000 		.4byte	0x4ca
 1399 049d 0F       		.uleb128 0xf
 1400 049e 06000000 		.4byte	.LASF62
 1401 04a2 07       		.byte	0x7
 1402 04a3 9D       		.byte	0x9d
 1403 04a4 F6000000 		.4byte	0xf6
 1404 04a8 0F       		.uleb128 0xf
 1405 04a9 F8010000 		.4byte	.LASF63
 1406 04ad 07       		.byte	0x7
 1407 04ae A4       		.byte	0xa4
 1408 04af F6000000 		.4byte	0xf6
 1409 04b3 0F       		.uleb128 0xf
 1410 04b4 76040000 		.4byte	.LASF64
 1411 04b8 07       		.byte	0x7
 1412 04b9 AB       		.byte	0xab
 1413 04ba 7C020000 		.4byte	0x27c
 1414 04be 0F       		.uleb128 0xf
 1415 04bf 91030000 		.4byte	.LASF65
 1416 04c3 07       		.byte	0x7
 1417 04c4 B2       		.byte	0xb2
 1418 04c5 01010000 		.4byte	0x101
 1419 04c9 00       		.byte	0
ARM GAS  C:\Users\jsyoon\AppData\Local\Temp\ccUtuy9d.s 			page 26


 1420 04ca 09       		.uleb128 0x9
 1421 04cb 04       		.byte	0x4
 1422 04cc D0040000 		.4byte	0x4d0
 1423 04d0 10       		.uleb128 0x10
 1424 04d1 D5040000 		.4byte	0x4d5
 1425 04d5 03       		.uleb128 0x3
 1426 04d6 01       		.byte	0x1
 1427 04d7 08       		.byte	0x8
 1428 04d8 D8030000 		.4byte	.LASF66
 1429 04dc 09       		.uleb128 0x9
 1430 04dd 04       		.byte	0x4
 1431 04de 8A040000 		.4byte	0x48a
 1432 04e2 11       		.uleb128 0x11
 1433 04e3 17030000 		.4byte	.LASF67
 1434 04e7 02       		.byte	0x2
 1435 04e8 49       		.byte	0x49
 1436 04e9 40020000 		.4byte	0x240
 1437 04ed 03       		.byte	0x3
 1438 04ee FD040000 		.4byte	0x4fd
 1439 04f2 12       		.uleb128 0x12
 1440 04f3 747000   		.ascii	"tp\000"
 1441 04f6 02       		.byte	0x2
 1442 04f7 49       		.byte	0x49
 1443 04f8 40020000 		.4byte	0x240
 1444 04fc 00       		.byte	0
 1445 04fd 13       		.uleb128 0x13
 1446 04fe 1B040000 		.4byte	.LASF84
 1447 0502 02       		.byte	0x2
 1448 0503 29       		.byte	0x29
 1449 0504 03       		.byte	0x3
 1450 0505 29050000 		.4byte	0x529
 1451 0509 12       		.uleb128 0x12
 1452 050a 747000   		.ascii	"tp\000"
 1453 050d 02       		.byte	0x2
 1454 050e 29       		.byte	0x29
 1455 050f 40020000 		.4byte	0x240
 1456 0513 12       		.uleb128 0x12
 1457 0514 74717000 		.ascii	"tqp\000"
 1458 0518 02       		.byte	0x2
 1459 0519 29       		.byte	0x29
 1460 051a 29050000 		.4byte	0x529
 1461 051e 14       		.uleb128 0x14
 1462 051f 637000   		.ascii	"cp\000"
 1463 0522 02       		.byte	0x2
 1464 0523 2B       		.byte	0x2b
 1465 0524 40020000 		.4byte	0x240
 1466 0528 00       		.byte	0
 1467 0529 09       		.uleb128 0x9
 1468 052a 04       		.byte	0x4
 1469 052b 46020000 		.4byte	0x246
 1470 052f 15       		.uleb128 0x15
 1471 0530 E2010000 		.4byte	.LASF77
 1472 0534 01       		.byte	0x1
 1473 0535 EA       		.byte	0xea
 1474 0536 AD000000 		.4byte	0xad
 1475 053a 01       		.byte	0x1
 1476 053b 4A050000 		.4byte	0x54a
ARM GAS  C:\Users\jsyoon\AppData\Local\Temp\ccUtuy9d.s 			page 27


 1477 053f 12       		.uleb128 0x12
 1478 0540 6D7000   		.ascii	"mp\000"
 1479 0543 01       		.byte	0x1
 1480 0544 EA       		.byte	0xea
 1481 0545 DC040000 		.4byte	0x4dc
 1482 0549 00       		.byte	0
 1483 054a 11       		.uleb128 0x11
 1484 054b DD030000 		.4byte	.LASF68
 1485 054f 02       		.byte	0x2
 1486 0550 3B       		.byte	0x3b
 1487 0551 40020000 		.4byte	0x240
 1488 0555 03       		.byte	0x3
 1489 0556 70050000 		.4byte	0x570
 1490 055a 12       		.uleb128 0x12
 1491 055b 74717000 		.ascii	"tqp\000"
 1492 055f 02       		.byte	0x2
 1493 0560 3B       		.byte	0x3b
 1494 0561 29050000 		.4byte	0x529
 1495 0565 14       		.uleb128 0x14
 1496 0566 747000   		.ascii	"tp\000"
 1497 0569 02       		.byte	0x2
 1498 056a 3C       		.byte	0x3c
 1499 056b 40020000 		.4byte	0x240
 1500 056f 00       		.byte	0
 1501 0570 16       		.uleb128 0x16
 1502 0571 4D040000 		.4byte	.LASF69
 1503 0575 01       		.byte	0x1
 1504 0576 56       		.byte	0x56
 1505 0577 00000000 		.4byte	.LFB7
 1506 057b 0A000000 		.4byte	.LFE7-.LFB7
 1507 057f 01       		.uleb128 0x1
 1508 0580 9C       		.byte	0x9c
 1509 0581 92050000 		.4byte	0x592
 1510 0585 17       		.uleb128 0x17
 1511 0586 6D7000   		.ascii	"mp\000"
 1512 0589 01       		.byte	0x1
 1513 058a 56       		.byte	0x56
 1514 058b DC040000 		.4byte	0x4dc
 1515 058f 01       		.uleb128 0x1
 1516 0590 50       		.byte	0x50
 1517 0591 00       		.byte	0
 1518 0592 16       		.uleb128 0x16
 1519 0593 84040000 		.4byte	.LASF70
 1520 0597 01       		.byte	0x1
 1521 0598 79       		.byte	0x79
 1522 0599 00000000 		.4byte	.LFB9
 1523 059d C4000000 		.4byte	.LFE9-.LFB9
 1524 05a1 01       		.uleb128 0x1
 1525 05a2 9C       		.byte	0x9c
 1526 05a3 F7060000 		.4byte	0x6f7
 1527 05a7 18       		.uleb128 0x18
 1528 05a8 6D7000   		.ascii	"mp\000"
 1529 05ab 01       		.byte	0x1
 1530 05ac 79       		.byte	0x79
 1531 05ad DC040000 		.4byte	0x4dc
 1532 05b1 00000000 		.4byte	.LLST0
 1533 05b5 19       		.uleb128 0x19
ARM GAS  C:\Users\jsyoon\AppData\Local\Temp\ccUtuy9d.s 			page 28


 1534 05b6 63747000 		.ascii	"ctp\000"
 1535 05ba 01       		.byte	0x1
 1536 05bb 7A       		.byte	0x7a
 1537 05bc 40020000 		.4byte	0x240
 1538 05c0 46000000 		.4byte	.LLST1
 1539 05c4 1A       		.uleb128 0x1a
 1540 05c5 00000000 		.4byte	.Ldebug_ranges0+0
 1541 05c9 19       		.uleb128 0x19
 1542 05ca 747000   		.ascii	"tp\000"
 1543 05cd 01       		.byte	0x1
 1544 05ce 84       		.byte	0x84
 1545 05cf 40020000 		.4byte	0x240
 1546 05d3 70000000 		.4byte	.LLST2
 1547 05d7 1B       		.uleb128 0x1b
 1548 05d8 FD040000 		.4byte	0x4fd
 1549 05dc 24000000 		.4byte	.LBB28
 1550 05e0 1C000000 		.4byte	.LBE28-.LBB28
 1551 05e4 01       		.byte	0x1
 1552 05e5 AD       		.byte	0xad
 1553 05e6 10060000 		.4byte	0x610
 1554 05ea 1C       		.uleb128 0x1c
 1555 05eb 13050000 		.4byte	0x513
 1556 05ef 99000000 		.4byte	.LLST3
 1557 05f3 1C       		.uleb128 0x1c
 1558 05f4 09050000 		.4byte	0x509
 1559 05f8 C9000000 		.4byte	.LLST4
 1560 05fc 1D       		.uleb128 0x1d
 1561 05fd 24000000 		.4byte	.LBB29
 1562 0601 1C000000 		.4byte	.LBE29-.LBB29
 1563 0605 1E       		.uleb128 0x1e
 1564 0606 1E050000 		.4byte	0x51e
 1565 060a E8000000 		.4byte	.LLST5
 1566 060e 00       		.byte	0
 1567 060f 00       		.byte	0
 1568 0610 1B       		.uleb128 0x1b
 1569 0611 E2040000 		.4byte	0x4e2
 1570 0615 4C000000 		.4byte	.LBB30
 1571 0619 0A000000 		.4byte	.LBE30-.LBB30
 1572 061d 01       		.byte	0x1
 1573 061e A7       		.byte	0xa7
 1574 061f 2D060000 		.4byte	0x62d
 1575 0623 1C       		.uleb128 0x1c
 1576 0624 F2040000 		.4byte	0x4f2
 1577 0628 06010000 		.4byte	.LLST6
 1578 062c 00       		.byte	0
 1579 062d 1F       		.uleb128 0x1f
 1580 062e E2040000 		.4byte	0x4e2
 1581 0632 5C000000 		.4byte	.LBB32
 1582 0636 18000000 		.4byte	.Ldebug_ranges0+0x18
 1583 063a 01       		.byte	0x1
 1584 063b 9E       		.byte	0x9e
 1585 063c 4A060000 		.4byte	0x64a
 1586 0640 1C       		.uleb128 0x1c
 1587 0641 F2040000 		.4byte	0x4f2
 1588 0645 19010000 		.4byte	.LLST7
 1589 0649 00       		.byte	0
 1590 064a 1B       		.uleb128 0x1b
ARM GAS  C:\Users\jsyoon\AppData\Local\Temp\ccUtuy9d.s 			page 29


 1591 064b FD040000 		.4byte	0x4fd
 1592 064f 68000000 		.4byte	.LBB36
 1593 0653 1C000000 		.4byte	.LBE36-.LBB36
 1594 0657 01       		.byte	0x1
 1595 0658 9E       		.byte	0x9e
 1596 0659 83060000 		.4byte	0x683
 1597 065d 1C       		.uleb128 0x1c
 1598 065e 13050000 		.4byte	0x513
 1599 0662 2C010000 		.4byte	.LLST8
 1600 0666 1C       		.uleb128 0x1c
 1601 0667 09050000 		.4byte	0x509
 1602 066b 3F010000 		.4byte	.LLST9
 1603 066f 1D       		.uleb128 0x1d
 1604 0670 68000000 		.4byte	.LBB37
 1605 0674 1C000000 		.4byte	.LBE37-.LBB37
 1606 0678 1E       		.uleb128 0x1e
 1607 0679 1E050000 		.4byte	0x51e
 1608 067d 52010000 		.4byte	.LLST10
 1609 0681 00       		.byte	0
 1610 0682 00       		.byte	0
 1611 0683 1F       		.uleb128 0x1f
 1612 0684 E2040000 		.4byte	0x4e2
 1613 0688 84000000 		.4byte	.LBB38
 1614 068c 30000000 		.4byte	.Ldebug_ranges0+0x30
 1615 0690 01       		.byte	0x1
 1616 0691 8E       		.byte	0x8e
 1617 0692 A0060000 		.4byte	0x6a0
 1618 0696 1C       		.uleb128 0x1c
 1619 0697 F2040000 		.4byte	0x4f2
 1620 069b 70010000 		.4byte	.LLST11
 1621 069f 00       		.byte	0
 1622 06a0 1B       		.uleb128 0x1b
 1623 06a1 FD040000 		.4byte	0x4fd
 1624 06a5 94000000 		.4byte	.LBB42
 1625 06a9 16000000 		.4byte	.LBE42-.LBB42
 1626 06ad 01       		.byte	0x1
 1627 06ae 8E       		.byte	0x8e
 1628 06af D9060000 		.4byte	0x6d9
 1629 06b3 1C       		.uleb128 0x1c
 1630 06b4 13050000 		.4byte	0x513
 1631 06b8 8F010000 		.4byte	.LLST12
 1632 06bc 1C       		.uleb128 0x1c
 1633 06bd 09050000 		.4byte	0x509
 1634 06c1 A2010000 		.4byte	.LLST13
 1635 06c5 1D       		.uleb128 0x1d
 1636 06c6 94000000 		.4byte	.LBB43
 1637 06ca 16000000 		.4byte	.LBE43-.LBB43
 1638 06ce 1E       		.uleb128 0x1e
 1639 06cf 1E050000 		.4byte	0x51e
 1640 06d3 C1010000 		.4byte	.LLST14
 1641 06d7 00       		.byte	0
 1642 06d8 00       		.byte	0
 1643 06d9 20       		.uleb128 0x20
 1644 06da 4C000000 		.4byte	.LVL9
 1645 06de 90090000 		.4byte	0x990
 1646 06e2 EC060000 		.4byte	0x6ec
 1647 06e6 21       		.uleb128 0x21
ARM GAS  C:\Users\jsyoon\AppData\Local\Temp\ccUtuy9d.s 			page 30


 1648 06e7 01       		.uleb128 0x1
 1649 06e8 50       		.byte	0x50
 1650 06e9 01       		.uleb128 0x1
 1651 06ea 34       		.byte	0x34
 1652 06eb 00       		.byte	0
 1653 06ec 22       		.uleb128 0x22
 1654 06ed 5A000000 		.4byte	.LVL10
 1655 06f1 A1090000 		.4byte	0x9a1
 1656 06f5 00       		.byte	0
 1657 06f6 00       		.byte	0
 1658 06f7 16       		.uleb128 0x16
 1659 06f8 F2020000 		.4byte	.LASF71
 1660 06fc 01       		.byte	0x1
 1661 06fd 67       		.byte	0x67
 1662 06fe 00000000 		.4byte	.LFB8
 1663 0702 0C000000 		.4byte	.LFE8-.LFB8
 1664 0706 01       		.uleb128 0x1
 1665 0707 9C       		.byte	0x9c
 1666 0708 2C070000 		.4byte	0x72c
 1667 070c 18       		.uleb128 0x18
 1668 070d 6D7000   		.ascii	"mp\000"
 1669 0710 01       		.byte	0x1
 1670 0711 67       		.byte	0x67
 1671 0712 DC040000 		.4byte	0x4dc
 1672 0716 DF010000 		.4byte	.LLST15
 1673 071a 23       		.uleb128 0x23
 1674 071b 08000000 		.4byte	.LVL24
 1675 071f 92050000 		.4byte	0x592
 1676 0723 21       		.uleb128 0x21
 1677 0724 01       		.uleb128 0x1
 1678 0725 50       		.byte	0x50
 1679 0726 03       		.uleb128 0x3
 1680 0727 F3       		.byte	0xf3
 1681 0728 01       		.uleb128 0x1
 1682 0729 50       		.byte	0x50
 1683 072a 00       		.byte	0
 1684 072b 00       		.byte	0
 1685 072c 24       		.uleb128 0x24
 1686 072d D6020000 		.4byte	.LASF72
 1687 0731 01       		.byte	0x1
 1688 0732 CE       		.byte	0xce
 1689 0733 AD000000 		.4byte	0xad
 1690 0737 00000000 		.4byte	.LFB10
 1691 073b 24000000 		.4byte	.LFE10-.LFB10
 1692 073f 01       		.uleb128 0x1
 1693 0740 9C       		.byte	0x9c
 1694 0741 76070000 		.4byte	0x776
 1695 0745 18       		.uleb128 0x18
 1696 0746 6D7000   		.ascii	"mp\000"
 1697 0749 01       		.byte	0x1
 1698 074a CE       		.byte	0xce
 1699 074b DC040000 		.4byte	0x4dc
 1700 074f 00020000 		.4byte	.LLST16
 1701 0753 14       		.uleb128 0x14
 1702 0754 6200     		.ascii	"b\000"
 1703 0756 01       		.byte	0x1
 1704 0757 CF       		.byte	0xcf
ARM GAS  C:\Users\jsyoon\AppData\Local\Temp\ccUtuy9d.s 			page 31


 1705 0758 AD000000 		.4byte	0xad
 1706 075c 25       		.uleb128 0x25
 1707 075d 2F050000 		.4byte	0x52f
 1708 0761 04000000 		.4byte	.LBB45
 1709 0765 48000000 		.4byte	.Ldebug_ranges0+0x48
 1710 0769 01       		.byte	0x1
 1711 076a D3       		.byte	0xd3
 1712 076b 1C       		.uleb128 0x1c
 1713 076c 3F050000 		.4byte	0x53f
 1714 0770 34020000 		.4byte	.LLST17
 1715 0774 00       		.byte	0
 1716 0775 00       		.byte	0
 1717 0776 26       		.uleb128 0x26
 1718 0777 2F050000 		.4byte	0x52f
 1719 077b 00000000 		.4byte	.LFB11
 1720 077f 20000000 		.4byte	.LFE11-.LFB11
 1721 0783 01       		.uleb128 0x1
 1722 0784 9C       		.byte	0x9c
 1723 0785 93070000 		.4byte	0x793
 1724 0789 1C       		.uleb128 0x1c
 1725 078a 3F050000 		.4byte	0x53f
 1726 078e 68020000 		.4byte	.LLST18
 1727 0792 00       		.byte	0
 1728 0793 27       		.uleb128 0x27
 1729 0794 2E000000 		.4byte	.LASF73
 1730 0798 01       		.byte	0x1
 1731 0799 0101     		.2byte	0x101
 1732 079b DC040000 		.4byte	0x4dc
 1733 079f 00000000 		.4byte	.LFB12
 1734 07a3 58000000 		.4byte	.LFE12-.LFB12
 1735 07a7 01       		.uleb128 0x1
 1736 07a8 9C       		.byte	0x9c
 1737 07a9 44080000 		.4byte	0x844
 1738 07ad 28       		.uleb128 0x28
 1739 07ae 63747000 		.ascii	"ctp\000"
 1740 07b2 01       		.byte	0x1
 1741 07b3 0201     		.2byte	0x102
 1742 07b5 40020000 		.4byte	0x240
 1743 07b9 9C020000 		.4byte	.LLST19
 1744 07bd 28       		.uleb128 0x28
 1745 07be 756D7000 		.ascii	"ump\000"
 1746 07c2 01       		.byte	0x1
 1747 07c3 0301     		.2byte	0x103
 1748 07c5 DC040000 		.4byte	0x4dc
 1749 07c9 BA020000 		.4byte	.LLST20
 1750 07cd 28       		.uleb128 0x28
 1751 07ce 6D7000   		.ascii	"mp\000"
 1752 07d1 01       		.byte	0x1
 1753 07d2 0301     		.2byte	0x103
 1754 07d4 DC040000 		.4byte	0x4dc
 1755 07d8 D8020000 		.4byte	.LLST21
 1756 07dc 1D       		.uleb128 0x1d
 1757 07dd 14000000 		.4byte	.LBB49
 1758 07e1 30000000 		.4byte	.LBE49-.LBB49
 1759 07e5 29       		.uleb128 0x29
 1760 07e6 747000   		.ascii	"tp\000"
 1761 07e9 01       		.byte	0x1
ARM GAS  C:\Users\jsyoon\AppData\Local\Temp\ccUtuy9d.s 			page 32


 1762 07ea 1201     		.2byte	0x112
 1763 07ec 40020000 		.4byte	0x240
 1764 07f0 2A       		.uleb128 0x2a
 1765 07f1 AE020000 		.4byte	.LASF74
 1766 07f5 01       		.byte	0x1
 1767 07f6 1601     		.2byte	0x116
 1768 07f8 EB000000 		.4byte	0xeb
 1769 07fc EB020000 		.4byte	.LLST22
 1770 0800 2B       		.uleb128 0x2b
 1771 0801 4A050000 		.4byte	0x54a
 1772 0805 2C000000 		.4byte	.LBB50
 1773 0809 60000000 		.4byte	.Ldebug_ranges0+0x60
 1774 080d 01       		.byte	0x1
 1775 080e 2501     		.2byte	0x125
 1776 0810 2D080000 		.4byte	0x82d
 1777 0814 1C       		.uleb128 0x1c
 1778 0815 5A050000 		.4byte	0x55a
 1779 0819 FE020000 		.4byte	.LLST23
 1780 081d 1A       		.uleb128 0x1a
 1781 081e 60000000 		.4byte	.Ldebug_ranges0+0x60
 1782 0822 1E       		.uleb128 0x1e
 1783 0823 65050000 		.4byte	0x565
 1784 0827 11030000 		.4byte	.LLST24
 1785 082b 00       		.byte	0
 1786 082c 00       		.byte	0
 1787 082d 23       		.uleb128 0x23
 1788 082e 44000000 		.4byte	.LVL43
 1789 0832 B6090000 		.4byte	0x9b6
 1790 0836 21       		.uleb128 0x21
 1791 0837 01       		.uleb128 0x1
 1792 0838 51       		.byte	0x51
 1793 0839 01       		.uleb128 0x1
 1794 083a 30       		.byte	0x30
 1795 083b 21       		.uleb128 0x21
 1796 083c 01       		.uleb128 0x1
 1797 083d 50       		.byte	0x50
 1798 083e 02       		.uleb128 0x2
 1799 083f 75       		.byte	0x75
 1800 0840 00       		.sleb128 0
 1801 0841 00       		.byte	0
 1802 0842 00       		.byte	0
 1803 0843 00       		.byte	0
 1804 0844 27       		.uleb128 0x27
 1805 0845 26020000 		.4byte	.LASF75
 1806 0849 01       		.byte	0x1
 1807 084a 3D01     		.2byte	0x13d
 1808 084c DC040000 		.4byte	0x4dc
 1809 0850 00000000 		.4byte	.LFB13
 1810 0854 50000000 		.4byte	.LFE13-.LFB13
 1811 0858 01       		.uleb128 0x1
 1812 0859 9C       		.byte	0x9c
 1813 085a F0080000 		.4byte	0x8f0
 1814 085e 28       		.uleb128 0x28
 1815 085f 63747000 		.ascii	"ctp\000"
 1816 0863 01       		.byte	0x1
 1817 0864 3E01     		.2byte	0x13e
 1818 0866 40020000 		.4byte	0x240
ARM GAS  C:\Users\jsyoon\AppData\Local\Temp\ccUtuy9d.s 			page 33


 1819 086a 24030000 		.4byte	.LLST25
 1820 086e 28       		.uleb128 0x28
 1821 086f 756D7000 		.ascii	"ump\000"
 1822 0873 01       		.byte	0x1
 1823 0874 3F01     		.2byte	0x13f
 1824 0876 DC040000 		.4byte	0x4dc
 1825 087a 42030000 		.4byte	.LLST26
 1826 087e 28       		.uleb128 0x28
 1827 087f 6D7000   		.ascii	"mp\000"
 1828 0882 01       		.byte	0x1
 1829 0883 3F01     		.2byte	0x13f
 1830 0885 DC040000 		.4byte	0x4dc
 1831 0889 60030000 		.4byte	.LLST27
 1832 088d 1D       		.uleb128 0x1d
 1833 088e 12000000 		.4byte	.LBB56
 1834 0892 2E000000 		.4byte	.LBE56-.LBB56
 1835 0896 29       		.uleb128 0x29
 1836 0897 747000   		.ascii	"tp\000"
 1837 089a 01       		.byte	0x1
 1838 089b 4F01     		.2byte	0x14f
 1839 089d 40020000 		.4byte	0x240
 1840 08a1 2A       		.uleb128 0x2a
 1841 08a2 AE020000 		.4byte	.LASF74
 1842 08a6 01       		.byte	0x1
 1843 08a7 5301     		.2byte	0x153
 1844 08a9 EB000000 		.4byte	0xeb
 1845 08ad 73030000 		.4byte	.LLST28
 1846 08b1 2B       		.uleb128 0x2b
 1847 08b2 4A050000 		.4byte	0x54a
 1848 08b6 2A000000 		.4byte	.LBB57
 1849 08ba 80000000 		.4byte	.Ldebug_ranges0+0x80
 1850 08be 01       		.byte	0x1
 1851 08bf 6001     		.2byte	0x160
 1852 08c1 DE080000 		.4byte	0x8de
 1853 08c5 1C       		.uleb128 0x1c
 1854 08c6 5A050000 		.4byte	0x55a
 1855 08ca 86030000 		.4byte	.LLST29
 1856 08ce 1A       		.uleb128 0x1a
 1857 08cf 80000000 		.4byte	.Ldebug_ranges0+0x80
 1858 08d3 1E       		.uleb128 0x1e
 1859 08d4 65050000 		.4byte	0x565
 1860 08d8 99030000 		.4byte	.LLST30
 1861 08dc 00       		.byte	0
 1862 08dd 00       		.byte	0
 1863 08de 23       		.uleb128 0x23
 1864 08df 40000000 		.4byte	.LVL55
 1865 08e3 A1090000 		.4byte	0x9a1
 1866 08e7 21       		.uleb128 0x21
 1867 08e8 01       		.uleb128 0x1
 1868 08e9 50       		.byte	0x50
 1869 08ea 02       		.uleb128 0x2
 1870 08eb 75       		.byte	0x75
 1871 08ec 00       		.sleb128 0
 1872 08ed 00       		.byte	0
 1873 08ee 00       		.byte	0
 1874 08ef 00       		.byte	0
 1875 08f0 2C       		.uleb128 0x2c
ARM GAS  C:\Users\jsyoon\AppData\Local\Temp\ccUtuy9d.s 			page 34


 1876 08f1 9F020000 		.4byte	.LASF76
 1877 08f5 01       		.byte	0x1
 1878 08f6 7601     		.2byte	0x176
 1879 08f8 00000000 		.4byte	.LFB14
 1880 08fc 4C000000 		.4byte	.LFE14-.LFB14
 1881 0900 01       		.uleb128 0x1
 1882 0901 9C       		.byte	0x9c
 1883 0902 85090000 		.4byte	0x985
 1884 0906 28       		.uleb128 0x28
 1885 0907 63747000 		.ascii	"ctp\000"
 1886 090b 01       		.byte	0x1
 1887 090c 7701     		.2byte	0x177
 1888 090e 40020000 		.4byte	0x240
 1889 0912 AC030000 		.4byte	.LLST31
 1890 0916 2D       		.uleb128 0x2d
 1891 0917 A0000000 		.4byte	.Ldebug_ranges0+0xa0
 1892 091b 7B090000 		.4byte	0x97b
 1893 091f 28       		.uleb128 0x28
 1894 0920 756D7000 		.ascii	"ump\000"
 1895 0924 01       		.byte	0x1
 1896 0925 7C01     		.2byte	0x17c
 1897 0927 DC040000 		.4byte	0x4dc
 1898 092b BF030000 		.4byte	.LLST32
 1899 092f 1D       		.uleb128 0x1d
 1900 0930 10000000 		.4byte	.LBB64
 1901 0934 14000000 		.4byte	.LBE64-.LBB64
 1902 0938 29       		.uleb128 0x29
 1903 0939 747000   		.ascii	"tp\000"
 1904 093c 01       		.byte	0x1
 1905 093d 7F01     		.2byte	0x17f
 1906 093f 40020000 		.4byte	0x240
 1907 0943 2B       		.uleb128 0x2b
 1908 0944 4A050000 		.4byte	0x54a
 1909 0948 10000000 		.4byte	.LBB65
 1910 094c B8000000 		.4byte	.Ldebug_ranges0+0xb8
 1911 0950 01       		.byte	0x1
 1912 0951 7F01     		.2byte	0x17f
 1913 0953 70090000 		.4byte	0x970
 1914 0957 1C       		.uleb128 0x1c
 1915 0958 5A050000 		.4byte	0x55a
 1916 095c BF030000 		.4byte	.LLST32
 1917 0960 1A       		.uleb128 0x1a
 1918 0961 B8000000 		.4byte	.Ldebug_ranges0+0xb8
 1919 0965 1E       		.uleb128 0x1e
 1920 0966 65050000 		.4byte	0x565
 1921 096a DD030000 		.4byte	.LLST34
 1922 096e 00       		.byte	0
 1923 096f 00       		.byte	0
 1924 0970 22       		.uleb128 0x22
 1925 0971 24000000 		.4byte	.LVL61
 1926 0975 A1090000 		.4byte	0x9a1
 1927 0979 00       		.byte	0
 1928 097a 00       		.byte	0
 1929 097b 22       		.uleb128 0x22
 1930 097c 42000000 		.4byte	.LVL66
 1931 0980 CC090000 		.4byte	0x9cc
 1932 0984 00       		.byte	0
ARM GAS  C:\Users\jsyoon\AppData\Local\Temp\ccUtuy9d.s 			page 35


 1933 0985 2E       		.uleb128 0x2e
 1934 0986 68040000 		.4byte	.LASF85
 1935 098a 09       		.byte	0x9
 1936 098b 6F       		.byte	0x6f
 1937 098c 48040000 		.4byte	0x448
 1938 0990 2F       		.uleb128 0x2f
 1939 0991 AE030000 		.4byte	.LASF79
 1940 0995 09       		.byte	0x9
 1941 0996 93       		.byte	0x93
 1942 0997 A1090000 		.4byte	0x9a1
 1943 099b 30       		.uleb128 0x30
 1944 099c CA000000 		.4byte	0xca
 1945 09a0 00       		.byte	0
 1946 09a1 31       		.uleb128 0x31
 1947 09a2 E9030000 		.4byte	.LASF78
 1948 09a6 09       		.byte	0x9
 1949 09a7 90       		.byte	0x90
 1950 09a8 40020000 		.4byte	0x240
 1951 09ac B6090000 		.4byte	0x9b6
 1952 09b0 30       		.uleb128 0x30
 1953 09b1 40020000 		.4byte	0x240
 1954 09b5 00       		.byte	0
 1955 09b6 2F       		.uleb128 0x2f
 1956 09b7 40040000 		.4byte	.LASF80
 1957 09bb 09       		.byte	0x9
 1958 09bc 99       		.byte	0x99
 1959 09bd CC090000 		.4byte	0x9cc
 1960 09c1 30       		.uleb128 0x30
 1961 09c2 40020000 		.4byte	0x240
 1962 09c6 30       		.uleb128 0x30
 1963 09c7 F6000000 		.4byte	0xf6
 1964 09cb 00       		.byte	0
 1965 09cc 32       		.uleb128 0x32
 1966 09cd 01020000 		.4byte	.LASF86
 1967 09d1 09       		.byte	0x9
 1968 09d2 9C       		.byte	0x9c
 1969 09d3 00       		.byte	0
 1970              		.section	.debug_abbrev,"",%progbits
 1971              	.Ldebug_abbrev0:
 1972 0000 01       		.uleb128 0x1
 1973 0001 11       		.uleb128 0x11
 1974 0002 01       		.byte	0x1
 1975 0003 25       		.uleb128 0x25
 1976 0004 0E       		.uleb128 0xe
 1977 0005 13       		.uleb128 0x13
 1978 0006 0B       		.uleb128 0xb
 1979 0007 03       		.uleb128 0x3
 1980 0008 0E       		.uleb128 0xe
 1981 0009 1B       		.uleb128 0x1b
 1982 000a 0E       		.uleb128 0xe
 1983 000b 55       		.uleb128 0x55
 1984 000c 17       		.uleb128 0x17
 1985 000d 11       		.uleb128 0x11
 1986 000e 01       		.uleb128 0x1
 1987 000f 10       		.uleb128 0x10
 1988 0010 17       		.uleb128 0x17
 1989 0011 00       		.byte	0
ARM GAS  C:\Users\jsyoon\AppData\Local\Temp\ccUtuy9d.s 			page 36


 1990 0012 00       		.byte	0
 1991 0013 02       		.uleb128 0x2
 1992 0014 24       		.uleb128 0x24
 1993 0015 00       		.byte	0
 1994 0016 0B       		.uleb128 0xb
 1995 0017 0B       		.uleb128 0xb
 1996 0018 3E       		.uleb128 0x3e
 1997 0019 0B       		.uleb128 0xb
 1998 001a 03       		.uleb128 0x3
 1999 001b 08       		.uleb128 0x8
 2000 001c 00       		.byte	0
 2001 001d 00       		.byte	0
 2002 001e 03       		.uleb128 0x3
 2003 001f 24       		.uleb128 0x24
 2004 0020 00       		.byte	0
 2005 0021 0B       		.uleb128 0xb
 2006 0022 0B       		.uleb128 0xb
 2007 0023 3E       		.uleb128 0x3e
 2008 0024 0B       		.uleb128 0xb
 2009 0025 03       		.uleb128 0x3
 2010 0026 0E       		.uleb128 0xe
 2011 0027 00       		.byte	0
 2012 0028 00       		.byte	0
 2013 0029 04       		.uleb128 0x4
 2014 002a 16       		.uleb128 0x16
 2015 002b 00       		.byte	0
 2016 002c 03       		.uleb128 0x3
 2017 002d 0E       		.uleb128 0xe
 2018 002e 3A       		.uleb128 0x3a
 2019 002f 0B       		.uleb128 0xb
 2020 0030 3B       		.uleb128 0x3b
 2021 0031 0B       		.uleb128 0xb
 2022 0032 49       		.uleb128 0x49
 2023 0033 13       		.uleb128 0x13
 2024 0034 00       		.byte	0
 2025 0035 00       		.byte	0
 2026 0036 05       		.uleb128 0x5
 2027 0037 13       		.uleb128 0x13
 2028 0038 01       		.byte	0x1
 2029 0039 03       		.uleb128 0x3
 2030 003a 0E       		.uleb128 0xe
 2031 003b 0B       		.uleb128 0xb
 2032 003c 0B       		.uleb128 0xb
 2033 003d 3A       		.uleb128 0x3a
 2034 003e 0B       		.uleb128 0xb
 2035 003f 3B       		.uleb128 0x3b
 2036 0040 0B       		.uleb128 0xb
 2037 0041 01       		.uleb128 0x1
 2038 0042 13       		.uleb128 0x13
 2039 0043 00       		.byte	0
 2040 0044 00       		.byte	0
 2041 0045 06       		.uleb128 0x6
 2042 0046 0D       		.uleb128 0xd
 2043 0047 00       		.byte	0
 2044 0048 03       		.uleb128 0x3
 2045 0049 0E       		.uleb128 0xe
 2046 004a 3A       		.uleb128 0x3a
ARM GAS  C:\Users\jsyoon\AppData\Local\Temp\ccUtuy9d.s 			page 37


 2047 004b 0B       		.uleb128 0xb
 2048 004c 3B       		.uleb128 0x3b
 2049 004d 0B       		.uleb128 0xb
 2050 004e 49       		.uleb128 0x49
 2051 004f 13       		.uleb128 0x13
 2052 0050 38       		.uleb128 0x38
 2053 0051 0B       		.uleb128 0xb
 2054 0052 00       		.byte	0
 2055 0053 00       		.byte	0
 2056 0054 07       		.uleb128 0x7
 2057 0055 0D       		.uleb128 0xd
 2058 0056 00       		.byte	0
 2059 0057 03       		.uleb128 0x3
 2060 0058 08       		.uleb128 0x8
 2061 0059 3A       		.uleb128 0x3a
 2062 005a 0B       		.uleb128 0xb
 2063 005b 3B       		.uleb128 0x3b
 2064 005c 0B       		.uleb128 0xb
 2065 005d 49       		.uleb128 0x49
 2066 005e 13       		.uleb128 0x13
 2067 005f 38       		.uleb128 0x38
 2068 0060 0B       		.uleb128 0xb
 2069 0061 00       		.byte	0
 2070 0062 00       		.byte	0
 2071 0063 08       		.uleb128 0x8
 2072 0064 13       		.uleb128 0x13
 2073 0065 01       		.byte	0x1
 2074 0066 0B       		.uleb128 0xb
 2075 0067 0B       		.uleb128 0xb
 2076 0068 3A       		.uleb128 0x3a
 2077 0069 0B       		.uleb128 0xb
 2078 006a 3B       		.uleb128 0x3b
 2079 006b 0B       		.uleb128 0xb
 2080 006c 01       		.uleb128 0x1
 2081 006d 13       		.uleb128 0x13
 2082 006e 00       		.byte	0
 2083 006f 00       		.byte	0
 2084 0070 09       		.uleb128 0x9
 2085 0071 0F       		.uleb128 0xf
 2086 0072 00       		.byte	0
 2087 0073 0B       		.uleb128 0xb
 2088 0074 0B       		.uleb128 0xb
 2089 0075 49       		.uleb128 0x49
 2090 0076 13       		.uleb128 0x13
 2091 0077 00       		.byte	0
 2092 0078 00       		.byte	0
 2093 0079 0A       		.uleb128 0xa
 2094 007a 0F       		.uleb128 0xf
 2095 007b 00       		.byte	0
 2096 007c 0B       		.uleb128 0xb
 2097 007d 0B       		.uleb128 0xb
 2098 007e 00       		.byte	0
 2099 007f 00       		.byte	0
 2100 0080 0B       		.uleb128 0xb
 2101 0081 13       		.uleb128 0x13
 2102 0082 01       		.byte	0x1
 2103 0083 03       		.uleb128 0x3
ARM GAS  C:\Users\jsyoon\AppData\Local\Temp\ccUtuy9d.s 			page 38


 2104 0084 0E       		.uleb128 0xe
 2105 0085 0B       		.uleb128 0xb
 2106 0086 0B       		.uleb128 0xb
 2107 0087 3A       		.uleb128 0x3a
 2108 0088 0B       		.uleb128 0xb
 2109 0089 3B       		.uleb128 0x3b
 2110 008a 05       		.uleb128 0x5
 2111 008b 01       		.uleb128 0x1
 2112 008c 13       		.uleb128 0x13
 2113 008d 00       		.byte	0
 2114 008e 00       		.byte	0
 2115 008f 0C       		.uleb128 0xc
 2116 0090 0D       		.uleb128 0xd
 2117 0091 00       		.byte	0
 2118 0092 03       		.uleb128 0x3
 2119 0093 08       		.uleb128 0x8
 2120 0094 3A       		.uleb128 0x3a
 2121 0095 0B       		.uleb128 0xb
 2122 0096 3B       		.uleb128 0x3b
 2123 0097 05       		.uleb128 0x5
 2124 0098 49       		.uleb128 0x49
 2125 0099 13       		.uleb128 0x13
 2126 009a 38       		.uleb128 0x38
 2127 009b 0B       		.uleb128 0xb
 2128 009c 00       		.byte	0
 2129 009d 00       		.byte	0
 2130 009e 0D       		.uleb128 0xd
 2131 009f 35       		.uleb128 0x35
 2132 00a0 00       		.byte	0
 2133 00a1 49       		.uleb128 0x49
 2134 00a2 13       		.uleb128 0x13
 2135 00a3 00       		.byte	0
 2136 00a4 00       		.byte	0
 2137 00a5 0E       		.uleb128 0xe
 2138 00a6 17       		.uleb128 0x17
 2139 00a7 01       		.byte	0x1
 2140 00a8 0B       		.uleb128 0xb
 2141 00a9 0B       		.uleb128 0xb
 2142 00aa 3A       		.uleb128 0x3a
 2143 00ab 0B       		.uleb128 0xb
 2144 00ac 3B       		.uleb128 0x3b
 2145 00ad 0B       		.uleb128 0xb
 2146 00ae 01       		.uleb128 0x1
 2147 00af 13       		.uleb128 0x13
 2148 00b0 00       		.byte	0
 2149 00b1 00       		.byte	0
 2150 00b2 0F       		.uleb128 0xf
 2151 00b3 0D       		.uleb128 0xd
 2152 00b4 00       		.byte	0
 2153 00b5 03       		.uleb128 0x3
 2154 00b6 0E       		.uleb128 0xe
 2155 00b7 3A       		.uleb128 0x3a
 2156 00b8 0B       		.uleb128 0xb
 2157 00b9 3B       		.uleb128 0x3b
 2158 00ba 0B       		.uleb128 0xb
 2159 00bb 49       		.uleb128 0x49
 2160 00bc 13       		.uleb128 0x13
ARM GAS  C:\Users\jsyoon\AppData\Local\Temp\ccUtuy9d.s 			page 39


 2161 00bd 00       		.byte	0
 2162 00be 00       		.byte	0
 2163 00bf 10       		.uleb128 0x10
 2164 00c0 26       		.uleb128 0x26
 2165 00c1 00       		.byte	0
 2166 00c2 49       		.uleb128 0x49
 2167 00c3 13       		.uleb128 0x13
 2168 00c4 00       		.byte	0
 2169 00c5 00       		.byte	0
 2170 00c6 11       		.uleb128 0x11
 2171 00c7 2E       		.uleb128 0x2e
 2172 00c8 01       		.byte	0x1
 2173 00c9 03       		.uleb128 0x3
 2174 00ca 0E       		.uleb128 0xe
 2175 00cb 3A       		.uleb128 0x3a
 2176 00cc 0B       		.uleb128 0xb
 2177 00cd 3B       		.uleb128 0x3b
 2178 00ce 0B       		.uleb128 0xb
 2179 00cf 27       		.uleb128 0x27
 2180 00d0 19       		.uleb128 0x19
 2181 00d1 49       		.uleb128 0x49
 2182 00d2 13       		.uleb128 0x13
 2183 00d3 20       		.uleb128 0x20
 2184 00d4 0B       		.uleb128 0xb
 2185 00d5 01       		.uleb128 0x1
 2186 00d6 13       		.uleb128 0x13
 2187 00d7 00       		.byte	0
 2188 00d8 00       		.byte	0
 2189 00d9 12       		.uleb128 0x12
 2190 00da 05       		.uleb128 0x5
 2191 00db 00       		.byte	0
 2192 00dc 03       		.uleb128 0x3
 2193 00dd 08       		.uleb128 0x8
 2194 00de 3A       		.uleb128 0x3a
 2195 00df 0B       		.uleb128 0xb
 2196 00e0 3B       		.uleb128 0x3b
 2197 00e1 0B       		.uleb128 0xb
 2198 00e2 49       		.uleb128 0x49
 2199 00e3 13       		.uleb128 0x13
 2200 00e4 00       		.byte	0
 2201 00e5 00       		.byte	0
 2202 00e6 13       		.uleb128 0x13
 2203 00e7 2E       		.uleb128 0x2e
 2204 00e8 01       		.byte	0x1
 2205 00e9 03       		.uleb128 0x3
 2206 00ea 0E       		.uleb128 0xe
 2207 00eb 3A       		.uleb128 0x3a
 2208 00ec 0B       		.uleb128 0xb
 2209 00ed 3B       		.uleb128 0x3b
 2210 00ee 0B       		.uleb128 0xb
 2211 00ef 27       		.uleb128 0x27
 2212 00f0 19       		.uleb128 0x19
 2213 00f1 20       		.uleb128 0x20
 2214 00f2 0B       		.uleb128 0xb
 2215 00f3 01       		.uleb128 0x1
 2216 00f4 13       		.uleb128 0x13
 2217 00f5 00       		.byte	0
ARM GAS  C:\Users\jsyoon\AppData\Local\Temp\ccUtuy9d.s 			page 40


 2218 00f6 00       		.byte	0
 2219 00f7 14       		.uleb128 0x14
 2220 00f8 34       		.uleb128 0x34
 2221 00f9 00       		.byte	0
 2222 00fa 03       		.uleb128 0x3
 2223 00fb 08       		.uleb128 0x8
 2224 00fc 3A       		.uleb128 0x3a
 2225 00fd 0B       		.uleb128 0xb
 2226 00fe 3B       		.uleb128 0x3b
 2227 00ff 0B       		.uleb128 0xb
 2228 0100 49       		.uleb128 0x49
 2229 0101 13       		.uleb128 0x13
 2230 0102 00       		.byte	0
 2231 0103 00       		.byte	0
 2232 0104 15       		.uleb128 0x15
 2233 0105 2E       		.uleb128 0x2e
 2234 0106 01       		.byte	0x1
 2235 0107 3F       		.uleb128 0x3f
 2236 0108 19       		.uleb128 0x19
 2237 0109 03       		.uleb128 0x3
 2238 010a 0E       		.uleb128 0xe
 2239 010b 3A       		.uleb128 0x3a
 2240 010c 0B       		.uleb128 0xb
 2241 010d 3B       		.uleb128 0x3b
 2242 010e 0B       		.uleb128 0xb
 2243 010f 27       		.uleb128 0x27
 2244 0110 19       		.uleb128 0x19
 2245 0111 49       		.uleb128 0x49
 2246 0112 13       		.uleb128 0x13
 2247 0113 20       		.uleb128 0x20
 2248 0114 0B       		.uleb128 0xb
 2249 0115 01       		.uleb128 0x1
 2250 0116 13       		.uleb128 0x13
 2251 0117 00       		.byte	0
 2252 0118 00       		.byte	0
 2253 0119 16       		.uleb128 0x16
 2254 011a 2E       		.uleb128 0x2e
 2255 011b 01       		.byte	0x1
 2256 011c 3F       		.uleb128 0x3f
 2257 011d 19       		.uleb128 0x19
 2258 011e 03       		.uleb128 0x3
 2259 011f 0E       		.uleb128 0xe
 2260 0120 3A       		.uleb128 0x3a
 2261 0121 0B       		.uleb128 0xb
 2262 0122 3B       		.uleb128 0x3b
 2263 0123 0B       		.uleb128 0xb
 2264 0124 27       		.uleb128 0x27
 2265 0125 19       		.uleb128 0x19
 2266 0126 11       		.uleb128 0x11
 2267 0127 01       		.uleb128 0x1
 2268 0128 12       		.uleb128 0x12
 2269 0129 06       		.uleb128 0x6
 2270 012a 40       		.uleb128 0x40
 2271 012b 18       		.uleb128 0x18
 2272 012c 9742     		.uleb128 0x2117
 2273 012e 19       		.uleb128 0x19
 2274 012f 01       		.uleb128 0x1
ARM GAS  C:\Users\jsyoon\AppData\Local\Temp\ccUtuy9d.s 			page 41


 2275 0130 13       		.uleb128 0x13
 2276 0131 00       		.byte	0
 2277 0132 00       		.byte	0
 2278 0133 17       		.uleb128 0x17
 2279 0134 05       		.uleb128 0x5
 2280 0135 00       		.byte	0
 2281 0136 03       		.uleb128 0x3
 2282 0137 08       		.uleb128 0x8
 2283 0138 3A       		.uleb128 0x3a
 2284 0139 0B       		.uleb128 0xb
 2285 013a 3B       		.uleb128 0x3b
 2286 013b 0B       		.uleb128 0xb
 2287 013c 49       		.uleb128 0x49
 2288 013d 13       		.uleb128 0x13
 2289 013e 02       		.uleb128 0x2
 2290 013f 18       		.uleb128 0x18
 2291 0140 00       		.byte	0
 2292 0141 00       		.byte	0
 2293 0142 18       		.uleb128 0x18
 2294 0143 05       		.uleb128 0x5
 2295 0144 00       		.byte	0
 2296 0145 03       		.uleb128 0x3
 2297 0146 08       		.uleb128 0x8
 2298 0147 3A       		.uleb128 0x3a
 2299 0148 0B       		.uleb128 0xb
 2300 0149 3B       		.uleb128 0x3b
 2301 014a 0B       		.uleb128 0xb
 2302 014b 49       		.uleb128 0x49
 2303 014c 13       		.uleb128 0x13
 2304 014d 02       		.uleb128 0x2
 2305 014e 17       		.uleb128 0x17
 2306 014f 00       		.byte	0
 2307 0150 00       		.byte	0
 2308 0151 19       		.uleb128 0x19
 2309 0152 34       		.uleb128 0x34
 2310 0153 00       		.byte	0
 2311 0154 03       		.uleb128 0x3
 2312 0155 08       		.uleb128 0x8
 2313 0156 3A       		.uleb128 0x3a
 2314 0157 0B       		.uleb128 0xb
 2315 0158 3B       		.uleb128 0x3b
 2316 0159 0B       		.uleb128 0xb
 2317 015a 49       		.uleb128 0x49
 2318 015b 13       		.uleb128 0x13
 2319 015c 02       		.uleb128 0x2
 2320 015d 17       		.uleb128 0x17
 2321 015e 00       		.byte	0
 2322 015f 00       		.byte	0
 2323 0160 1A       		.uleb128 0x1a
 2324 0161 0B       		.uleb128 0xb
 2325 0162 01       		.byte	0x1
 2326 0163 55       		.uleb128 0x55
 2327 0164 17       		.uleb128 0x17
 2328 0165 00       		.byte	0
 2329 0166 00       		.byte	0
 2330 0167 1B       		.uleb128 0x1b
 2331 0168 1D       		.uleb128 0x1d
ARM GAS  C:\Users\jsyoon\AppData\Local\Temp\ccUtuy9d.s 			page 42


 2332 0169 01       		.byte	0x1
 2333 016a 31       		.uleb128 0x31
 2334 016b 13       		.uleb128 0x13
 2335 016c 11       		.uleb128 0x11
 2336 016d 01       		.uleb128 0x1
 2337 016e 12       		.uleb128 0x12
 2338 016f 06       		.uleb128 0x6
 2339 0170 58       		.uleb128 0x58
 2340 0171 0B       		.uleb128 0xb
 2341 0172 59       		.uleb128 0x59
 2342 0173 0B       		.uleb128 0xb
 2343 0174 01       		.uleb128 0x1
 2344 0175 13       		.uleb128 0x13
 2345 0176 00       		.byte	0
 2346 0177 00       		.byte	0
 2347 0178 1C       		.uleb128 0x1c
 2348 0179 05       		.uleb128 0x5
 2349 017a 00       		.byte	0
 2350 017b 31       		.uleb128 0x31
 2351 017c 13       		.uleb128 0x13
 2352 017d 02       		.uleb128 0x2
 2353 017e 17       		.uleb128 0x17
 2354 017f 00       		.byte	0
 2355 0180 00       		.byte	0
 2356 0181 1D       		.uleb128 0x1d
 2357 0182 0B       		.uleb128 0xb
 2358 0183 01       		.byte	0x1
 2359 0184 11       		.uleb128 0x11
 2360 0185 01       		.uleb128 0x1
 2361 0186 12       		.uleb128 0x12
 2362 0187 06       		.uleb128 0x6
 2363 0188 00       		.byte	0
 2364 0189 00       		.byte	0
 2365 018a 1E       		.uleb128 0x1e
 2366 018b 34       		.uleb128 0x34
 2367 018c 00       		.byte	0
 2368 018d 31       		.uleb128 0x31
 2369 018e 13       		.uleb128 0x13
 2370 018f 02       		.uleb128 0x2
 2371 0190 17       		.uleb128 0x17
 2372 0191 00       		.byte	0
 2373 0192 00       		.byte	0
 2374 0193 1F       		.uleb128 0x1f
 2375 0194 1D       		.uleb128 0x1d
 2376 0195 01       		.byte	0x1
 2377 0196 31       		.uleb128 0x31
 2378 0197 13       		.uleb128 0x13
 2379 0198 52       		.uleb128 0x52
 2380 0199 01       		.uleb128 0x1
 2381 019a 55       		.uleb128 0x55
 2382 019b 17       		.uleb128 0x17
 2383 019c 58       		.uleb128 0x58
 2384 019d 0B       		.uleb128 0xb
 2385 019e 59       		.uleb128 0x59
 2386 019f 0B       		.uleb128 0xb
 2387 01a0 01       		.uleb128 0x1
 2388 01a1 13       		.uleb128 0x13
ARM GAS  C:\Users\jsyoon\AppData\Local\Temp\ccUtuy9d.s 			page 43


 2389 01a2 00       		.byte	0
 2390 01a3 00       		.byte	0
 2391 01a4 20       		.uleb128 0x20
 2392 01a5 898201   		.uleb128 0x4109
 2393 01a8 01       		.byte	0x1
 2394 01a9 11       		.uleb128 0x11
 2395 01aa 01       		.uleb128 0x1
 2396 01ab 9542     		.uleb128 0x2115
 2397 01ad 19       		.uleb128 0x19
 2398 01ae 31       		.uleb128 0x31
 2399 01af 13       		.uleb128 0x13
 2400 01b0 01       		.uleb128 0x1
 2401 01b1 13       		.uleb128 0x13
 2402 01b2 00       		.byte	0
 2403 01b3 00       		.byte	0
 2404 01b4 21       		.uleb128 0x21
 2405 01b5 8A8201   		.uleb128 0x410a
 2406 01b8 00       		.byte	0
 2407 01b9 02       		.uleb128 0x2
 2408 01ba 18       		.uleb128 0x18
 2409 01bb 9142     		.uleb128 0x2111
 2410 01bd 18       		.uleb128 0x18
 2411 01be 00       		.byte	0
 2412 01bf 00       		.byte	0
 2413 01c0 22       		.uleb128 0x22
 2414 01c1 898201   		.uleb128 0x4109
 2415 01c4 00       		.byte	0
 2416 01c5 11       		.uleb128 0x11
 2417 01c6 01       		.uleb128 0x1
 2418 01c7 31       		.uleb128 0x31
 2419 01c8 13       		.uleb128 0x13
 2420 01c9 00       		.byte	0
 2421 01ca 00       		.byte	0
 2422 01cb 23       		.uleb128 0x23
 2423 01cc 898201   		.uleb128 0x4109
 2424 01cf 01       		.byte	0x1
 2425 01d0 11       		.uleb128 0x11
 2426 01d1 01       		.uleb128 0x1
 2427 01d2 31       		.uleb128 0x31
 2428 01d3 13       		.uleb128 0x13
 2429 01d4 00       		.byte	0
 2430 01d5 00       		.byte	0
 2431 01d6 24       		.uleb128 0x24
 2432 01d7 2E       		.uleb128 0x2e
 2433 01d8 01       		.byte	0x1
 2434 01d9 3F       		.uleb128 0x3f
 2435 01da 19       		.uleb128 0x19
 2436 01db 03       		.uleb128 0x3
 2437 01dc 0E       		.uleb128 0xe
 2438 01dd 3A       		.uleb128 0x3a
 2439 01de 0B       		.uleb128 0xb
 2440 01df 3B       		.uleb128 0x3b
 2441 01e0 0B       		.uleb128 0xb
 2442 01e1 27       		.uleb128 0x27
 2443 01e2 19       		.uleb128 0x19
 2444 01e3 49       		.uleb128 0x49
 2445 01e4 13       		.uleb128 0x13
ARM GAS  C:\Users\jsyoon\AppData\Local\Temp\ccUtuy9d.s 			page 44


 2446 01e5 11       		.uleb128 0x11
 2447 01e6 01       		.uleb128 0x1
 2448 01e7 12       		.uleb128 0x12
 2449 01e8 06       		.uleb128 0x6
 2450 01e9 40       		.uleb128 0x40
 2451 01ea 18       		.uleb128 0x18
 2452 01eb 9742     		.uleb128 0x2117
 2453 01ed 19       		.uleb128 0x19
 2454 01ee 01       		.uleb128 0x1
 2455 01ef 13       		.uleb128 0x13
 2456 01f0 00       		.byte	0
 2457 01f1 00       		.byte	0
 2458 01f2 25       		.uleb128 0x25
 2459 01f3 1D       		.uleb128 0x1d
 2460 01f4 01       		.byte	0x1
 2461 01f5 31       		.uleb128 0x31
 2462 01f6 13       		.uleb128 0x13
 2463 01f7 52       		.uleb128 0x52
 2464 01f8 01       		.uleb128 0x1
 2465 01f9 55       		.uleb128 0x55
 2466 01fa 17       		.uleb128 0x17
 2467 01fb 58       		.uleb128 0x58
 2468 01fc 0B       		.uleb128 0xb
 2469 01fd 59       		.uleb128 0x59
 2470 01fe 0B       		.uleb128 0xb
 2471 01ff 00       		.byte	0
 2472 0200 00       		.byte	0
 2473 0201 26       		.uleb128 0x26
 2474 0202 2E       		.uleb128 0x2e
 2475 0203 01       		.byte	0x1
 2476 0204 31       		.uleb128 0x31
 2477 0205 13       		.uleb128 0x13
 2478 0206 11       		.uleb128 0x11
 2479 0207 01       		.uleb128 0x1
 2480 0208 12       		.uleb128 0x12
 2481 0209 06       		.uleb128 0x6
 2482 020a 40       		.uleb128 0x40
 2483 020b 18       		.uleb128 0x18
 2484 020c 9742     		.uleb128 0x2117
 2485 020e 19       		.uleb128 0x19
 2486 020f 01       		.uleb128 0x1
 2487 0210 13       		.uleb128 0x13
 2488 0211 00       		.byte	0
 2489 0212 00       		.byte	0
 2490 0213 27       		.uleb128 0x27
 2491 0214 2E       		.uleb128 0x2e
 2492 0215 01       		.byte	0x1
 2493 0216 3F       		.uleb128 0x3f
 2494 0217 19       		.uleb128 0x19
 2495 0218 03       		.uleb128 0x3
 2496 0219 0E       		.uleb128 0xe
 2497 021a 3A       		.uleb128 0x3a
 2498 021b 0B       		.uleb128 0xb
 2499 021c 3B       		.uleb128 0x3b
 2500 021d 05       		.uleb128 0x5
 2501 021e 27       		.uleb128 0x27
 2502 021f 19       		.uleb128 0x19
ARM GAS  C:\Users\jsyoon\AppData\Local\Temp\ccUtuy9d.s 			page 45


 2503 0220 49       		.uleb128 0x49
 2504 0221 13       		.uleb128 0x13
 2505 0222 11       		.uleb128 0x11
 2506 0223 01       		.uleb128 0x1
 2507 0224 12       		.uleb128 0x12
 2508 0225 06       		.uleb128 0x6
 2509 0226 40       		.uleb128 0x40
 2510 0227 18       		.uleb128 0x18
 2511 0228 9742     		.uleb128 0x2117
 2512 022a 19       		.uleb128 0x19
 2513 022b 01       		.uleb128 0x1
 2514 022c 13       		.uleb128 0x13
 2515 022d 00       		.byte	0
 2516 022e 00       		.byte	0
 2517 022f 28       		.uleb128 0x28
 2518 0230 34       		.uleb128 0x34
 2519 0231 00       		.byte	0
 2520 0232 03       		.uleb128 0x3
 2521 0233 08       		.uleb128 0x8
 2522 0234 3A       		.uleb128 0x3a
 2523 0235 0B       		.uleb128 0xb
 2524 0236 3B       		.uleb128 0x3b
 2525 0237 05       		.uleb128 0x5
 2526 0238 49       		.uleb128 0x49
 2527 0239 13       		.uleb128 0x13
 2528 023a 02       		.uleb128 0x2
 2529 023b 17       		.uleb128 0x17
 2530 023c 00       		.byte	0
 2531 023d 00       		.byte	0
 2532 023e 29       		.uleb128 0x29
 2533 023f 34       		.uleb128 0x34
 2534 0240 00       		.byte	0
 2535 0241 03       		.uleb128 0x3
 2536 0242 08       		.uleb128 0x8
 2537 0243 3A       		.uleb128 0x3a
 2538 0244 0B       		.uleb128 0xb
 2539 0245 3B       		.uleb128 0x3b
 2540 0246 05       		.uleb128 0x5
 2541 0247 49       		.uleb128 0x49
 2542 0248 13       		.uleb128 0x13
 2543 0249 00       		.byte	0
 2544 024a 00       		.byte	0
 2545 024b 2A       		.uleb128 0x2a
 2546 024c 34       		.uleb128 0x34
 2547 024d 00       		.byte	0
 2548 024e 03       		.uleb128 0x3
 2549 024f 0E       		.uleb128 0xe
 2550 0250 3A       		.uleb128 0x3a
 2551 0251 0B       		.uleb128 0xb
 2552 0252 3B       		.uleb128 0x3b
 2553 0253 05       		.uleb128 0x5
 2554 0254 49       		.uleb128 0x49
 2555 0255 13       		.uleb128 0x13
 2556 0256 02       		.uleb128 0x2
 2557 0257 17       		.uleb128 0x17
 2558 0258 00       		.byte	0
 2559 0259 00       		.byte	0
ARM GAS  C:\Users\jsyoon\AppData\Local\Temp\ccUtuy9d.s 			page 46


 2560 025a 2B       		.uleb128 0x2b
 2561 025b 1D       		.uleb128 0x1d
 2562 025c 01       		.byte	0x1
 2563 025d 31       		.uleb128 0x31
 2564 025e 13       		.uleb128 0x13
 2565 025f 52       		.uleb128 0x52
 2566 0260 01       		.uleb128 0x1
 2567 0261 55       		.uleb128 0x55
 2568 0262 17       		.uleb128 0x17
 2569 0263 58       		.uleb128 0x58
 2570 0264 0B       		.uleb128 0xb
 2571 0265 59       		.uleb128 0x59
 2572 0266 05       		.uleb128 0x5
 2573 0267 01       		.uleb128 0x1
 2574 0268 13       		.uleb128 0x13
 2575 0269 00       		.byte	0
 2576 026a 00       		.byte	0
 2577 026b 2C       		.uleb128 0x2c
 2578 026c 2E       		.uleb128 0x2e
 2579 026d 01       		.byte	0x1
 2580 026e 3F       		.uleb128 0x3f
 2581 026f 19       		.uleb128 0x19
 2582 0270 03       		.uleb128 0x3
 2583 0271 0E       		.uleb128 0xe
 2584 0272 3A       		.uleb128 0x3a
 2585 0273 0B       		.uleb128 0xb
 2586 0274 3B       		.uleb128 0x3b
 2587 0275 05       		.uleb128 0x5
 2588 0276 27       		.uleb128 0x27
 2589 0277 19       		.uleb128 0x19
 2590 0278 11       		.uleb128 0x11
 2591 0279 01       		.uleb128 0x1
 2592 027a 12       		.uleb128 0x12
 2593 027b 06       		.uleb128 0x6
 2594 027c 40       		.uleb128 0x40
 2595 027d 18       		.uleb128 0x18
 2596 027e 9742     		.uleb128 0x2117
 2597 0280 19       		.uleb128 0x19
 2598 0281 01       		.uleb128 0x1
 2599 0282 13       		.uleb128 0x13
 2600 0283 00       		.byte	0
 2601 0284 00       		.byte	0
 2602 0285 2D       		.uleb128 0x2d
 2603 0286 0B       		.uleb128 0xb
 2604 0287 01       		.byte	0x1
 2605 0288 55       		.uleb128 0x55
 2606 0289 17       		.uleb128 0x17
 2607 028a 01       		.uleb128 0x1
 2608 028b 13       		.uleb128 0x13
 2609 028c 00       		.byte	0
 2610 028d 00       		.byte	0
 2611 028e 2E       		.uleb128 0x2e
 2612 028f 34       		.uleb128 0x34
 2613 0290 00       		.byte	0
 2614 0291 03       		.uleb128 0x3
 2615 0292 0E       		.uleb128 0xe
 2616 0293 3A       		.uleb128 0x3a
ARM GAS  C:\Users\jsyoon\AppData\Local\Temp\ccUtuy9d.s 			page 47


 2617 0294 0B       		.uleb128 0xb
 2618 0295 3B       		.uleb128 0x3b
 2619 0296 0B       		.uleb128 0xb
 2620 0297 49       		.uleb128 0x49
 2621 0298 13       		.uleb128 0x13
 2622 0299 3F       		.uleb128 0x3f
 2623 029a 19       		.uleb128 0x19
 2624 029b 3C       		.uleb128 0x3c
 2625 029c 19       		.uleb128 0x19
 2626 029d 00       		.byte	0
 2627 029e 00       		.byte	0
 2628 029f 2F       		.uleb128 0x2f
 2629 02a0 2E       		.uleb128 0x2e
 2630 02a1 01       		.byte	0x1
 2631 02a2 3F       		.uleb128 0x3f
 2632 02a3 19       		.uleb128 0x19
 2633 02a4 03       		.uleb128 0x3
 2634 02a5 0E       		.uleb128 0xe
 2635 02a6 3A       		.uleb128 0x3a
 2636 02a7 0B       		.uleb128 0xb
 2637 02a8 3B       		.uleb128 0x3b
 2638 02a9 0B       		.uleb128 0xb
 2639 02aa 27       		.uleb128 0x27
 2640 02ab 19       		.uleb128 0x19
 2641 02ac 3C       		.uleb128 0x3c
 2642 02ad 19       		.uleb128 0x19
 2643 02ae 01       		.uleb128 0x1
 2644 02af 13       		.uleb128 0x13
 2645 02b0 00       		.byte	0
 2646 02b1 00       		.byte	0
 2647 02b2 30       		.uleb128 0x30
 2648 02b3 05       		.uleb128 0x5
 2649 02b4 00       		.byte	0
 2650 02b5 49       		.uleb128 0x49
 2651 02b6 13       		.uleb128 0x13
 2652 02b7 00       		.byte	0
 2653 02b8 00       		.byte	0
 2654 02b9 31       		.uleb128 0x31
 2655 02ba 2E       		.uleb128 0x2e
 2656 02bb 01       		.byte	0x1
 2657 02bc 3F       		.uleb128 0x3f
 2658 02bd 19       		.uleb128 0x19
 2659 02be 03       		.uleb128 0x3
 2660 02bf 0E       		.uleb128 0xe
 2661 02c0 3A       		.uleb128 0x3a
 2662 02c1 0B       		.uleb128 0xb
 2663 02c2 3B       		.uleb128 0x3b
 2664 02c3 0B       		.uleb128 0xb
 2665 02c4 27       		.uleb128 0x27
 2666 02c5 19       		.uleb128 0x19
 2667 02c6 49       		.uleb128 0x49
 2668 02c7 13       		.uleb128 0x13
 2669 02c8 3C       		.uleb128 0x3c
 2670 02c9 19       		.uleb128 0x19
 2671 02ca 01       		.uleb128 0x1
 2672 02cb 13       		.uleb128 0x13
 2673 02cc 00       		.byte	0
ARM GAS  C:\Users\jsyoon\AppData\Local\Temp\ccUtuy9d.s 			page 48


 2674 02cd 00       		.byte	0
 2675 02ce 32       		.uleb128 0x32
 2676 02cf 2E       		.uleb128 0x2e
 2677 02d0 00       		.byte	0
 2678 02d1 3F       		.uleb128 0x3f
 2679 02d2 19       		.uleb128 0x19
 2680 02d3 03       		.uleb128 0x3
 2681 02d4 0E       		.uleb128 0xe
 2682 02d5 3A       		.uleb128 0x3a
 2683 02d6 0B       		.uleb128 0xb
 2684 02d7 3B       		.uleb128 0x3b
 2685 02d8 0B       		.uleb128 0xb
 2686 02d9 27       		.uleb128 0x27
 2687 02da 19       		.uleb128 0x19
 2688 02db 3C       		.uleb128 0x3c
 2689 02dc 19       		.uleb128 0x19
 2690 02dd 00       		.byte	0
 2691 02de 00       		.byte	0
 2692 02df 00       		.byte	0
 2693              		.section	.debug_loc,"",%progbits
 2694              	.Ldebug_loc0:
 2695              	.LLST0:
 2696 0000 00000000 		.4byte	.LVL1
 2697 0004 08000000 		.4byte	.LVL2
 2698 0008 0100     		.2byte	0x1
 2699 000a 50       		.byte	0x50
 2700 000b 08000000 		.4byte	.LVL2
 2701 000f 48000000 		.4byte	.LVL8
 2702 0013 0100     		.2byte	0x1
 2703 0015 55       		.byte	0x55
 2704 0016 48000000 		.4byte	.LVL8
 2705 001a 4B000000 		.4byte	.LVL9-1
 2706 001e 0500     		.2byte	0x5
 2707 0020 73       		.byte	0x73
 2708 0021 04       		.sleb128 4
 2709 0022 06       		.byte	0x6
 2710 0023 23       		.byte	0x23
 2711 0024 24       		.uleb128 0x24
 2712 0025 4B000000 		.4byte	.LVL9-1
 2713 0029 4C000000 		.4byte	.LVL9
 2714 002d 0400     		.2byte	0x4
 2715 002f F3       		.byte	0xf3
 2716 0030 01       		.uleb128 0x1
 2717 0031 50       		.byte	0x50
 2718 0032 9F       		.byte	0x9f
 2719 0033 4C000000 		.4byte	.LVL9
 2720 0037 C0000000 		.4byte	.LVL22
 2721 003b 0100     		.2byte	0x1
 2722 003d 55       		.byte	0x55
 2723 003e 00000000 		.4byte	0
 2724 0042 00000000 		.4byte	0
 2725              	.LLST1:
 2726 0046 0A000000 		.4byte	.LVL3
 2727 004a 48000000 		.4byte	.LVL8
 2728 004e 0100     		.2byte	0x1
 2729 0050 54       		.byte	0x54
 2730 0051 48000000 		.4byte	.LVL8
ARM GAS  C:\Users\jsyoon\AppData\Local\Temp\ccUtuy9d.s 			page 49


 2731 0055 4B000000 		.4byte	.LVL9-1
 2732 0059 0200     		.2byte	0x2
 2733 005b 73       		.byte	0x73
 2734 005c 04       		.sleb128 4
 2735 005d 4C000000 		.4byte	.LVL9
 2736 0061 C0000000 		.4byte	.LVL22
 2737 0065 0100     		.2byte	0x1
 2738 0067 54       		.byte	0x54
 2739 0068 00000000 		.4byte	0
 2740 006c 00000000 		.4byte	0
 2741              	.LLST2:
 2742 0070 0E000000 		.4byte	.LVL4
 2743 0074 24000000 		.4byte	.LVL5
 2744 0078 0100     		.2byte	0x1
 2745 007a 50       		.byte	0x50
 2746 007b 4C000000 		.4byte	.LVL9
 2747 007f 59000000 		.4byte	.LVL10-1
 2748 0083 0100     		.2byte	0x1
 2749 0085 50       		.byte	0x50
 2750 0086 5C000000 		.4byte	.LVL11
 2751 008a B6000000 		.4byte	.LVL21
 2752 008e 0100     		.2byte	0x1
 2753 0090 50       		.byte	0x50
 2754 0091 00000000 		.4byte	0
 2755 0095 00000000 		.4byte	0
 2756              	.LLST3:
 2757 0099 24000000 		.4byte	.LVL5
 2758 009d 48000000 		.4byte	.LVL8
 2759 00a1 0100     		.2byte	0x1
 2760 00a3 55       		.byte	0x55
 2761 00a4 48000000 		.4byte	.LVL8
 2762 00a8 4B000000 		.4byte	.LVL9-1
 2763 00ac 0500     		.2byte	0x5
 2764 00ae 73       		.byte	0x73
 2765 00af 04       		.sleb128 4
 2766 00b0 06       		.byte	0x6
 2767 00b1 23       		.byte	0x23
 2768 00b2 24       		.uleb128 0x24
 2769 00b3 4B000000 		.4byte	.LVL9-1
 2770 00b7 4C000000 		.4byte	.LVL9
 2771 00bb 0400     		.2byte	0x4
 2772 00bd F3       		.byte	0xf3
 2773 00be 01       		.uleb128 0x1
 2774 00bf 50       		.byte	0x50
 2775 00c0 9F       		.byte	0x9f
 2776 00c1 00000000 		.4byte	0
 2777 00c5 00000000 		.4byte	0
 2778              	.LLST4:
 2779 00c9 24000000 		.4byte	.LVL5
 2780 00cd 48000000 		.4byte	.LVL8
 2781 00d1 0100     		.2byte	0x1
 2782 00d3 54       		.byte	0x54
 2783 00d4 48000000 		.4byte	.LVL8
 2784 00d8 4B000000 		.4byte	.LVL9-1
 2785 00dc 0200     		.2byte	0x2
 2786 00de 73       		.byte	0x73
 2787 00df 04       		.sleb128 4
ARM GAS  C:\Users\jsyoon\AppData\Local\Temp\ccUtuy9d.s 			page 50


 2788 00e0 00000000 		.4byte	0
 2789 00e4 00000000 		.4byte	0
 2790              	.LLST5:
 2791 00e8 24000000 		.4byte	.LVL5
 2792 00ec 28000000 		.4byte	.LVL6
 2793 00f0 0100     		.2byte	0x1
 2794 00f2 55       		.byte	0x55
 2795 00f3 28000000 		.4byte	.LVL6
 2796 00f7 4B000000 		.4byte	.LVL9-1
 2797 00fb 0100     		.2byte	0x1
 2798 00fd 53       		.byte	0x53
 2799 00fe 00000000 		.4byte	0
 2800 0102 00000000 		.4byte	0
 2801              	.LLST6:
 2802 0106 4C000000 		.4byte	.LVL9
 2803 010a 59000000 		.4byte	.LVL10-1
 2804 010e 0100     		.2byte	0x1
 2805 0110 50       		.byte	0x50
 2806 0111 00000000 		.4byte	0
 2807 0115 00000000 		.4byte	0
 2808              	.LLST7:
 2809 0119 5C000000 		.4byte	.LVL11
 2810 011d 84000000 		.4byte	.LVL15
 2811 0121 0100     		.2byte	0x1
 2812 0123 50       		.byte	0x50
 2813 0124 00000000 		.4byte	0
 2814 0128 00000000 		.4byte	0
 2815              	.LLST8:
 2816 012c 64000000 		.4byte	.LVL12
 2817 0130 84000000 		.4byte	.LVL15
 2818 0134 0100     		.2byte	0x1
 2819 0136 56       		.byte	0x56
 2820 0137 00000000 		.4byte	0
 2821 013b 00000000 		.4byte	0
 2822              	.LLST9:
 2823 013f 64000000 		.4byte	.LVL12
 2824 0143 84000000 		.4byte	.LVL15
 2825 0147 0100     		.2byte	0x1
 2826 0149 50       		.byte	0x50
 2827 014a 00000000 		.4byte	0
 2828 014e 00000000 		.4byte	0
 2829              	.LLST10:
 2830 0152 64000000 		.4byte	.LVL12
 2831 0156 6C000000 		.4byte	.LVL13
 2832 015a 0100     		.2byte	0x1
 2833 015c 56       		.byte	0x56
 2834 015d 6C000000 		.4byte	.LVL13
 2835 0161 84000000 		.4byte	.LVL15
 2836 0165 0100     		.2byte	0x1
 2837 0167 53       		.byte	0x53
 2838 0168 00000000 		.4byte	0
 2839 016c 00000000 		.4byte	0
 2840              	.LLST11:
 2841 0170 84000000 		.4byte	.LVL15
 2842 0174 AC000000 		.4byte	.LVL19
 2843 0178 0100     		.2byte	0x1
 2844 017a 50       		.byte	0x50
ARM GAS  C:\Users\jsyoon\AppData\Local\Temp\ccUtuy9d.s 			page 51


 2845 017b AC000000 		.4byte	.LVL19
 2846 017f B0000000 		.4byte	.LVL20
 2847 0183 0200     		.2byte	0x2
 2848 0185 73       		.byte	0x73
 2849 0186 04       		.sleb128 4
 2850 0187 00000000 		.4byte	0
 2851 018b 00000000 		.4byte	0
 2852              	.LLST12:
 2853 018f 8C000000 		.4byte	.LVL16
 2854 0193 B6000000 		.4byte	.LVL21
 2855 0197 0100     		.2byte	0x1
 2856 0199 56       		.byte	0x56
 2857 019a 00000000 		.4byte	0
 2858 019e 00000000 		.4byte	0
 2859              	.LLST13:
 2860 01a2 8C000000 		.4byte	.LVL16
 2861 01a6 AC000000 		.4byte	.LVL19
 2862 01aa 0100     		.2byte	0x1
 2863 01ac 50       		.byte	0x50
 2864 01ad AC000000 		.4byte	.LVL19
 2865 01b1 B0000000 		.4byte	.LVL20
 2866 01b5 0200     		.2byte	0x2
 2867 01b7 73       		.byte	0x73
 2868 01b8 04       		.sleb128 4
 2869 01b9 00000000 		.4byte	0
 2870 01bd 00000000 		.4byte	0
 2871              	.LLST14:
 2872 01c1 8C000000 		.4byte	.LVL16
 2873 01c5 94000000 		.4byte	.LVL17
 2874 01c9 0100     		.2byte	0x1
 2875 01cb 56       		.byte	0x56
 2876 01cc 94000000 		.4byte	.LVL17
 2877 01d0 B0000000 		.4byte	.LVL20
 2878 01d4 0100     		.2byte	0x1
 2879 01d6 53       		.byte	0x53
 2880 01d7 00000000 		.4byte	0
 2881 01db 00000000 		.4byte	0
 2882              	.LLST15:
 2883 01df 00000000 		.4byte	.LVL23
 2884 01e3 07000000 		.4byte	.LVL24-1
 2885 01e7 0100     		.2byte	0x1
 2886 01e9 50       		.byte	0x50
 2887 01ea 07000000 		.4byte	.LVL24-1
 2888 01ee 0C000000 		.4byte	.LFE8
 2889 01f2 0400     		.2byte	0x4
 2890 01f4 F3       		.byte	0xf3
 2891 01f5 01       		.uleb128 0x1
 2892 01f6 50       		.byte	0x50
 2893 01f7 9F       		.byte	0x9f
 2894 01f8 00000000 		.4byte	0
 2895 01fc 00000000 		.4byte	0
 2896              	.LLST16:
 2897 0200 00000000 		.4byte	.LVL25
 2898 0204 0A000000 		.4byte	.LVL27
 2899 0208 0100     		.2byte	0x1
 2900 020a 50       		.byte	0x50
 2901 020b 0A000000 		.4byte	.LVL27
ARM GAS  C:\Users\jsyoon\AppData\Local\Temp\ccUtuy9d.s 			page 52


 2902 020f 0E000000 		.4byte	.LVL28
 2903 0213 0100     		.2byte	0x1
 2904 0215 53       		.byte	0x53
 2905 0216 0E000000 		.4byte	.LVL28
 2906 021a 1A000000 		.4byte	.LVL29
 2907 021e 0100     		.2byte	0x1
 2908 0220 50       		.byte	0x50
 2909 0221 1A000000 		.4byte	.LVL29
 2910 0225 24000000 		.4byte	.LFE10
 2911 0229 0100     		.2byte	0x1
 2912 022b 53       		.byte	0x53
 2913 022c 00000000 		.4byte	0
 2914 0230 00000000 		.4byte	0
 2915              	.LLST17:
 2916 0234 04000000 		.4byte	.LVL26
 2917 0238 0A000000 		.4byte	.LVL27
 2918 023c 0100     		.2byte	0x1
 2919 023e 50       		.byte	0x50
 2920 023f 0A000000 		.4byte	.LVL27
 2921 0243 0E000000 		.4byte	.LVL28
 2922 0247 0100     		.2byte	0x1
 2923 0249 53       		.byte	0x53
 2924 024a 0E000000 		.4byte	.LVL28
 2925 024e 1A000000 		.4byte	.LVL29
 2926 0252 0100     		.2byte	0x1
 2927 0254 50       		.byte	0x50
 2928 0255 1A000000 		.4byte	.LVL29
 2929 0259 24000000 		.4byte	.LFE10
 2930 025d 0100     		.2byte	0x1
 2931 025f 53       		.byte	0x53
 2932 0260 00000000 		.4byte	0
 2933 0264 00000000 		.4byte	0
 2934              	.LLST18:
 2935 0268 00000000 		.4byte	.LVL30
 2936 026c 08000000 		.4byte	.LVL31
 2937 0270 0100     		.2byte	0x1
 2938 0272 50       		.byte	0x50
 2939 0273 08000000 		.4byte	.LVL31
 2940 0277 0A000000 		.4byte	.LVL32
 2941 027b 0100     		.2byte	0x1
 2942 027d 53       		.byte	0x53
 2943 027e 0A000000 		.4byte	.LVL32
 2944 0282 16000000 		.4byte	.LVL33
 2945 0286 0100     		.2byte	0x1
 2946 0288 50       		.byte	0x50
 2947 0289 16000000 		.4byte	.LVL33
 2948 028d 20000000 		.4byte	.LFE11
 2949 0291 0100     		.2byte	0x1
 2950 0293 53       		.byte	0x53
 2951 0294 00000000 		.4byte	0
 2952 0298 00000000 		.4byte	0
 2953              	.LLST19:
 2954 029c 06000000 		.4byte	.LVL34
 2955 02a0 36000000 		.4byte	.LVL41
 2956 02a4 0100     		.2byte	0x1
 2957 02a6 50       		.byte	0x50
 2958 02a7 4A000000 		.4byte	.LVL44
ARM GAS  C:\Users\jsyoon\AppData\Local\Temp\ccUtuy9d.s 			page 53


 2959 02ab 52000000 		.4byte	.LVL45
 2960 02af 0100     		.2byte	0x1
 2961 02b1 50       		.byte	0x50
 2962 02b2 00000000 		.4byte	0
 2963 02b6 00000000 		.4byte	0
 2964              	.LLST20:
 2965 02ba 0A000000 		.4byte	.LVL35
 2966 02be 54000000 		.4byte	.LVL46
 2967 02c2 0100     		.2byte	0x1
 2968 02c4 54       		.byte	0x54
 2969 02c5 54000000 		.4byte	.LVL46
 2970 02c9 58000000 		.4byte	.LFE12
 2971 02cd 0100     		.2byte	0x1
 2972 02cf 50       		.byte	0x50
 2973 02d0 00000000 		.4byte	0
 2974 02d4 00000000 		.4byte	0
 2975              	.LLST21:
 2976 02d8 16000000 		.4byte	.LVL36
 2977 02dc 2E000000 		.4byte	.LVL39
 2978 02e0 0100     		.2byte	0x1
 2979 02e2 53       		.byte	0x53
 2980 02e3 00000000 		.4byte	0
 2981 02e7 00000000 		.4byte	0
 2982              	.LLST22:
 2983 02eb 16000000 		.4byte	.LVL36
 2984 02ef 3A000000 		.4byte	.LVL42
 2985 02f3 0100     		.2byte	0x1
 2986 02f5 51       		.byte	0x51
 2987 02f6 00000000 		.4byte	0
 2988 02fa 00000000 		.4byte	0
 2989              	.LLST23:
 2990 02fe 32000000 		.4byte	.LVL40
 2991 0302 4A000000 		.4byte	.LVL44
 2992 0306 0100     		.2byte	0x1
 2993 0308 54       		.byte	0x54
 2994 0309 00000000 		.4byte	0
 2995 030d 00000000 		.4byte	0
 2996              	.LLST24:
 2997 0311 32000000 		.4byte	.LVL40
 2998 0315 4A000000 		.4byte	.LVL44
 2999 0319 0100     		.2byte	0x1
 3000 031b 55       		.byte	0x55
 3001 031c 00000000 		.4byte	0
 3002 0320 00000000 		.4byte	0
 3003              	.LLST25:
 3004 0324 06000000 		.4byte	.LVL47
 3005 0328 34000000 		.4byte	.LVL54
 3006 032c 0100     		.2byte	0x1
 3007 032e 50       		.byte	0x50
 3008 032f 44000000 		.4byte	.LVL56
 3009 0333 4A000000 		.4byte	.LVL57
 3010 0337 0100     		.2byte	0x1
 3011 0339 50       		.byte	0x50
 3012 033a 00000000 		.4byte	0
 3013 033e 00000000 		.4byte	0
 3014              	.LLST26:
 3015 0342 08000000 		.4byte	.LVL48
ARM GAS  C:\Users\jsyoon\AppData\Local\Temp\ccUtuy9d.s 			page 54


 3016 0346 4C000000 		.4byte	.LVL58
 3017 034a 0100     		.2byte	0x1
 3018 034c 54       		.byte	0x54
 3019 034d 4C000000 		.4byte	.LVL58
 3020 0351 50000000 		.4byte	.LFE13
 3021 0355 0100     		.2byte	0x1
 3022 0357 50       		.byte	0x50
 3023 0358 00000000 		.4byte	0
 3024 035c 00000000 		.4byte	0
 3025              	.LLST27:
 3026 0360 14000000 		.4byte	.LVL49
 3027 0364 2C000000 		.4byte	.LVL52
 3028 0368 0100     		.2byte	0x1
 3029 036a 53       		.byte	0x53
 3030 036b 00000000 		.4byte	0
 3031 036f 00000000 		.4byte	0
 3032              	.LLST28:
 3033 0373 14000000 		.4byte	.LVL49
 3034 0377 3F000000 		.4byte	.LVL55-1
 3035 037b 0100     		.2byte	0x1
 3036 037d 51       		.byte	0x51
 3037 037e 00000000 		.4byte	0
 3038 0382 00000000 		.4byte	0
 3039              	.LLST29:
 3040 0386 30000000 		.4byte	.LVL53
 3041 038a 44000000 		.4byte	.LVL56
 3042 038e 0100     		.2byte	0x1
 3043 0390 54       		.byte	0x54
 3044 0391 00000000 		.4byte	0
 3045 0395 00000000 		.4byte	0
 3046              	.LLST30:
 3047 0399 30000000 		.4byte	.LVL53
 3048 039d 44000000 		.4byte	.LVL56
 3049 03a1 0100     		.2byte	0x1
 3050 03a3 55       		.byte	0x55
 3051 03a4 00000000 		.4byte	0
 3052 03a8 00000000 		.4byte	0
 3053              	.LLST31:
 3054 03ac 06000000 		.4byte	.LVL59
 3055 03b0 46000000 		.4byte	.LVL67
 3056 03b4 0100     		.2byte	0x1
 3057 03b6 54       		.byte	0x54
 3058 03b7 00000000 		.4byte	0
 3059 03bb 00000000 		.4byte	0
 3060              	.LLST32:
 3061 03bf 10000000 		.4byte	.LVL60
 3062 03c3 23000000 		.4byte	.LVL61-1
 3063 03c7 0100     		.2byte	0x1
 3064 03c9 53       		.byte	0x53
 3065 03ca 28000000 		.4byte	.LVL62
 3066 03ce 36000000 		.4byte	.LVL64
 3067 03d2 0100     		.2byte	0x1
 3068 03d4 53       		.byte	0x53
 3069 03d5 00000000 		.4byte	0
 3070 03d9 00000000 		.4byte	0
 3071              	.LLST34:
 3072 03dd 10000000 		.4byte	.LVL60
ARM GAS  C:\Users\jsyoon\AppData\Local\Temp\ccUtuy9d.s 			page 55


 3073 03e1 23000000 		.4byte	.LVL61-1
 3074 03e5 0100     		.2byte	0x1
 3075 03e7 52       		.byte	0x52
 3076 03e8 2A000000 		.4byte	.LVL63
 3077 03ec 3A000000 		.4byte	.LVL65
 3078 03f0 0100     		.2byte	0x1
 3079 03f2 52       		.byte	0x52
 3080 03f3 00000000 		.4byte	0
 3081 03f7 00000000 		.4byte	0
 3082              		.section	.debug_aranges,"",%progbits
 3083 0000 54000000 		.4byte	0x54
 3084 0004 0200     		.2byte	0x2
 3085 0006 00000000 		.4byte	.Ldebug_info0
 3086 000a 04       		.byte	0x4
 3087 000b 00       		.byte	0
 3088 000c 0000     		.2byte	0
 3089 000e 0000     		.2byte	0
 3090 0010 00000000 		.4byte	.LFB7
 3091 0014 0A000000 		.4byte	.LFE7-.LFB7
 3092 0018 00000000 		.4byte	.LFB9
 3093 001c C4000000 		.4byte	.LFE9-.LFB9
 3094 0020 00000000 		.4byte	.LFB8
 3095 0024 0C000000 		.4byte	.LFE8-.LFB8
 3096 0028 00000000 		.4byte	.LFB10
 3097 002c 24000000 		.4byte	.LFE10-.LFB10
 3098 0030 00000000 		.4byte	.LFB11
 3099 0034 20000000 		.4byte	.LFE11-.LFB11
 3100 0038 00000000 		.4byte	.LFB12
 3101 003c 58000000 		.4byte	.LFE12-.LFB12
 3102 0040 00000000 		.4byte	.LFB13
 3103 0044 50000000 		.4byte	.LFE13-.LFB13
 3104 0048 00000000 		.4byte	.LFB14
 3105 004c 4C000000 		.4byte	.LFE14-.LFB14
 3106 0050 00000000 		.4byte	0
 3107 0054 00000000 		.4byte	0
 3108              		.section	.debug_ranges,"",%progbits
 3109              	.Ldebug_ranges0:
 3110 0000 0E000000 		.4byte	.LBB27
 3111 0004 44000000 		.4byte	.LBE27
 3112 0008 48000000 		.4byte	.LBB44
 3113 000c B6000000 		.4byte	.LBE44
 3114 0010 00000000 		.4byte	0
 3115 0014 00000000 		.4byte	0
 3116 0018 5C000000 		.4byte	.LBB32
 3117 001c 62000000 		.4byte	.LBE32
 3118 0020 64000000 		.4byte	.LBB35
 3119 0024 68000000 		.4byte	.LBE35
 3120 0028 00000000 		.4byte	0
 3121 002c 00000000 		.4byte	0
 3122 0030 84000000 		.4byte	.LBB38
 3123 0034 8A000000 		.4byte	.LBE38
 3124 0038 8C000000 		.4byte	.LBB41
 3125 003c 90000000 		.4byte	.LBE41
 3126 0040 00000000 		.4byte	0
 3127 0044 00000000 		.4byte	0
 3128 0048 04000000 		.4byte	.LBB45
 3129 004c 0A000000 		.4byte	.LBE45
ARM GAS  C:\Users\jsyoon\AppData\Local\Temp\ccUtuy9d.s 			page 56


 3130 0050 0E000000 		.4byte	.LBB48
 3131 0054 1C000000 		.4byte	.LBE48
 3132 0058 00000000 		.4byte	0
 3133 005c 00000000 		.4byte	0
 3134 0060 2C000000 		.4byte	.LBB50
 3135 0064 2E000000 		.4byte	.LBE50
 3136 0068 32000000 		.4byte	.LBB54
 3137 006c 34000000 		.4byte	.LBE54
 3138 0070 36000000 		.4byte	.LBB55
 3139 0074 38000000 		.4byte	.LBE55
 3140 0078 00000000 		.4byte	0
 3141 007c 00000000 		.4byte	0
 3142 0080 2A000000 		.4byte	.LBB57
 3143 0084 2C000000 		.4byte	.LBE57
 3144 0088 30000000 		.4byte	.LBB61
 3145 008c 32000000 		.4byte	.LBE61
 3146 0090 34000000 		.4byte	.LBB62
 3147 0094 36000000 		.4byte	.LBE62
 3148 0098 00000000 		.4byte	0
 3149 009c 00000000 		.4byte	0
 3150 00a0 0C000000 		.4byte	.LBB63
 3151 00a4 24000000 		.4byte	.LBE63
 3152 00a8 28000000 		.4byte	.LBB71
 3153 00ac 34000000 		.4byte	.LBE71
 3154 00b0 00000000 		.4byte	0
 3155 00b4 00000000 		.4byte	0
 3156 00b8 10000000 		.4byte	.LBB65
 3157 00bc 12000000 		.4byte	.LBE65
 3158 00c0 14000000 		.4byte	.LBB69
 3159 00c4 16000000 		.4byte	.LBE69
 3160 00c8 18000000 		.4byte	.LBB70
 3161 00cc 1A000000 		.4byte	.LBE70
 3162 00d0 00000000 		.4byte	0
 3163 00d4 00000000 		.4byte	0
 3164 00d8 00000000 		.4byte	.LFB7
 3165 00dc 0A000000 		.4byte	.LFE7
 3166 00e0 00000000 		.4byte	.LFB9
 3167 00e4 C4000000 		.4byte	.LFE9
 3168 00e8 00000000 		.4byte	.LFB8
 3169 00ec 0C000000 		.4byte	.LFE8
 3170 00f0 00000000 		.4byte	.LFB10
 3171 00f4 24000000 		.4byte	.LFE10
 3172 00f8 00000000 		.4byte	.LFB11
 3173 00fc 20000000 		.4byte	.LFE11
 3174 0100 00000000 		.4byte	.LFB12
 3175 0104 58000000 		.4byte	.LFE12
 3176 0108 00000000 		.4byte	.LFB13
 3177 010c 50000000 		.4byte	.LFE13
 3178 0110 00000000 		.4byte	.LFB14
 3179 0114 4C000000 		.4byte	.LFE14
 3180 0118 00000000 		.4byte	0
 3181 011c 00000000 		.4byte	0
 3182              		.section	.debug_line,"",%progbits
 3183              	.Ldebug_line0:
 3184 0000 69030000 		.section	.debug_str,"MS",%progbits,1
 3184      02008201 
 3184      00000201 
ARM GAS  C:\Users\jsyoon\AppData\Local\Temp\ccUtuy9d.s 			page 57


 3184      FB0E0D00 
 3184      01010101 
 3185              	.LASF40:
 3186 0000 705F6D73 		.ascii	"p_msg\000"
 3186      6700
 3187              	.LASF62:
 3188 0006 7264796D 		.ascii	"rdymsg\000"
 3188      736700
 3189              	.LASF5:
 3190 000d 5F5F7569 		.ascii	"__uint8_t\000"
 3190      6E74385F 
 3190      7400
 3191              	.LASF11:
 3192 0017 6C6F6E67 		.ascii	"long long unsigned int\000"
 3192      206C6F6E 
 3192      6720756E 
 3192      7369676E 
 3192      65642069 
 3193              	.LASF73:
 3194 002e 63684D74 		.ascii	"chMtxUnlock\000"
 3194      78556E6C 
 3194      6F636B00 
 3195              	.LASF28:
 3196 003a 705F7072 		.ascii	"p_prio\000"
 3196      696F00
 3197              	.LASF10:
 3198 0041 6C6F6E67 		.ascii	"long long int\000"
 3198      206C6F6E 
 3198      6720696E 
 3198      7400
 3199              	.LASF1:
 3200 004f 7369676E 		.ascii	"signed char\000"
 3200      65642063 
 3200      68617200 
 3201              	.LASF44:
 3202 005b 705F6D70 		.ascii	"p_mpool\000"
 3202      6F6F6C00 
 3203              	.LASF15:
 3204 0063 626F6F6C 		.ascii	"bool_t\000"
 3204      5F7400
 3205              	.LASF59:
 3206 006a 6D5F7175 		.ascii	"m_queue\000"
 3206      65756500 
 3207              	.LASF20:
 3208 0072 74736C69 		.ascii	"tslices_t\000"
 3208      6365735F 
 3208      7400
 3209              	.LASF83:
 3210 007c 453A5C4D 		.ascii	"E:\\Maker\\BLDC\\test_eval\\try2\\OROCA-BLDC_R15080"
 3210      616B6572 
 3210      5C424C44 
 3210      435C7465 
 3210      73745F65 
 3211 00aa 3700     		.ascii	"7\000"
 3212              	.LASF7:
 3213 00ac 6C6F6E67 		.ascii	"long int\000"
 3213      20696E74 
ARM GAS  C:\Users\jsyoon\AppData\Local\Temp\ccUtuy9d.s 			page 58


 3213      00
 3214              	.LASF18:
 3215 00b5 74737461 		.ascii	"tstate_t\000"
 3215      74655F74 
 3215      00
 3216              	.LASF81:
 3217 00be 474E5520 		.ascii	"GNU C 4.8.4 20140526 (release) [ARM/embedded-4_8-br"
 3217      4320342E 
 3217      382E3420 
 3217      32303134 
 3217      30353236 
 3218 00f1 616E6368 		.ascii	"anch revision 211358] -mcpu=cortex-m4 -mfloat-abi=h"
 3218      20726576 
 3218      6973696F 
 3218      6E203231 
 3218      31333538 
 3219 0124 61726420 		.ascii	"ard -mfpu=fpv4-sp-d16 -mno-thumb-interwork -mthumb "
 3219      2D6D6670 
 3219      753D6670 
 3219      76342D73 
 3219      702D6431 
 3220 0157 2D676764 		.ascii	"-ggdb -O2 -std=gnu99 -fomit-frame-pointer -falign-f"
 3220      62202D4F 
 3220      32202D73 
 3220      74643D67 
 3220      6E753939 
 3221 018a 756E6374 		.ascii	"unctions=16 -ffunction-sections -fdata-sections -fn"
 3221      696F6E73 
 3221      3D313620 
 3221      2D666675 
 3221      6E637469 
 3222 01bd 6F2D636F 		.ascii	"o-common -fsingle-precision-constant\000"
 3222      6D6D6F6E 
 3222      202D6673 
 3222      696E676C 
 3222      652D7072 
 3223              	.LASF77:
 3224 01e2 63684D74 		.ascii	"chMtxTryLockS\000"
 3224      78547279 
 3224      4C6F636B 
 3224      5300
 3225              	.LASF30:
 3226 01f0 705F6E65 		.ascii	"p_newer\000"
 3226      77657200 
 3227              	.LASF63:
 3228 01f8 65786974 		.ascii	"exitcode\000"
 3228      636F6465 
 3228      00
 3229              	.LASF86:
 3230 0201 63685363 		.ascii	"chSchRescheduleS\000"
 3230      68526573 
 3230      63686564 
 3230      756C6553 
 3230      00
 3231              	.LASF8:
 3232 0212 5F5F7569 		.ascii	"__uint32_t\000"
 3232      6E743332 
ARM GAS  C:\Users\jsyoon\AppData\Local\Temp\ccUtuy9d.s 			page 59


 3232      5F7400
 3233              	.LASF47:
 3234 021d 72656761 		.ascii	"regarm_t\000"
 3234      726D5F74 
 3234      00
 3235              	.LASF75:
 3236 0226 63684D74 		.ascii	"chMtxUnlockS\000"
 3236      78556E6C 
 3236      6F636B53 
 3236      00
 3237              	.LASF0:
 3238 0233 756E7369 		.ascii	"unsigned int\000"
 3238      676E6564 
 3238      20696E74 
 3238      00
 3239              	.LASF82:
 3240 0240 43686962 		.ascii	"ChibiOS_2.6.6/os/kernel/src/chmtx.c\000"
 3240      694F535F 
 3240      322E362E 
 3240      362F6F73 
 3240      2F6B6572 
 3241              	.LASF9:
 3242 0264 6C6F6E67 		.ascii	"long unsigned int\000"
 3242      20756E73 
 3242      69676E65 
 3242      6420696E 
 3242      7400
 3243              	.LASF49:
 3244 0276 636F6E74 		.ascii	"context\000"
 3244      65787400 
 3245              	.LASF4:
 3246 027e 73686F72 		.ascii	"short unsigned int\000"
 3246      7420756E 
 3246      7369676E 
 3246      65642069 
 3246      6E7400
 3247              	.LASF22:
 3248 0291 6D73675F 		.ascii	"msg_t\000"
 3248      7400
 3249              	.LASF54:
 3250 0297 725F6E65 		.ascii	"r_newer\000"
 3250      77657200 
 3251              	.LASF76:
 3252 029f 63684D74 		.ascii	"chMtxUnlockAll\000"
 3252      78556E6C 
 3252      6F636B41 
 3252      6C6C00
 3253              	.LASF74:
 3254 02ae 6E657770 		.ascii	"newprio\000"
 3254      72696F00 
 3255              	.LASF17:
 3256 02b6 746D6F64 		.ascii	"tmode_t\000"
 3256      655F7400 
 3257              	.LASF46:
 3258 02be 54687265 		.ascii	"ThreadsList\000"
 3258      6164734C 
 3258      69737400 
ARM GAS  C:\Users\jsyoon\AppData\Local\Temp\ccUtuy9d.s 			page 60


 3259              	.LASF23:
 3260 02ca 6576656E 		.ascii	"eventmask_t\000"
 3260      746D6173 
 3260      6B5F7400 
 3261              	.LASF72:
 3262 02d6 63684D74 		.ascii	"chMtxTryLock\000"
 3262      78547279 
 3262      4C6F636B 
 3262      00
 3263              	.LASF58:
 3264 02e3 4D757465 		.ascii	"Mutex\000"
 3264      7800
 3265              	.LASF50:
 3266 02e9 73697A65 		.ascii	"sizetype\000"
 3266      74797065 
 3266      00
 3267              	.LASF71:
 3268 02f2 63684D74 		.ascii	"chMtxLock\000"
 3268      784C6F63 
 3268      6B00
 3269              	.LASF31:
 3270 02fc 705F6F6C 		.ascii	"p_older\000"
 3270      64657200 
 3271              	.LASF53:
 3272 0304 725F6374 		.ascii	"r_ctx\000"
 3272      7800
 3273              	.LASF45:
 3274 030a 54687265 		.ascii	"ThreadsQueue\000"
 3274      61647351 
 3274      75657565 
 3274      00
 3275              	.LASF67:
 3276 0317 64657175 		.ascii	"dequeue\000"
 3276      65756500 
 3277              	.LASF56:
 3278 031f 725F6375 		.ascii	"r_current\000"
 3278      7272656E 
 3278      7400
 3279              	.LASF55:
 3280 0329 725F6F6C 		.ascii	"r_older\000"
 3280      64657200 
 3281              	.LASF19:
 3282 0331 74726566 		.ascii	"trefs_t\000"
 3282      735F7400 
 3283              	.LASF27:
 3284 0339 705F7072 		.ascii	"p_prev\000"
 3284      657600
 3285              	.LASF21:
 3286 0340 74707269 		.ascii	"tprio_t\000"
 3286      6F5F7400 
 3287              	.LASF16:
 3288 0348 5F426F6F 		.ascii	"_Bool\000"
 3288      6C00
 3289              	.LASF13:
 3290 034e 696E7433 		.ascii	"int32_t\000"
 3290      325F7400 
 3291              	.LASF2:
ARM GAS  C:\Users\jsyoon\AppData\Local\Temp\ccUtuy9d.s 			page 61


 3292 0356 756E7369 		.ascii	"unsigned char\000"
 3292      676E6564 
 3292      20636861 
 3292      7200
 3293              	.LASF42:
 3294 0364 705F6D74 		.ascii	"p_mtxlist\000"
 3294      786C6973 
 3294      7400
 3295              	.LASF3:
 3296 036e 73686F72 		.ascii	"short int\000"
 3296      7420696E 
 3296      7400
 3297              	.LASF33:
 3298 0378 705F7374 		.ascii	"p_state\000"
 3298      61746500 
 3299              	.LASF36:
 3300 0380 705F7072 		.ascii	"p_preempt\000"
 3300      65656D70 
 3300      7400
 3301              	.LASF52:
 3302 038a 725F7072 		.ascii	"r_prio\000"
 3302      696F00
 3303              	.LASF65:
 3304 0391 65776D61 		.ascii	"ewmask\000"
 3304      736B00
 3305              	.LASF26:
 3306 0398 705F6E65 		.ascii	"p_next\000"
 3306      787400
 3307              	.LASF34:
 3308 039f 705F666C 		.ascii	"p_flags\000"
 3308      61677300 
 3309              	.LASF25:
 3310 03a7 54687265 		.ascii	"Thread\000"
 3310      616400
 3311              	.LASF79:
 3312 03ae 63685363 		.ascii	"chSchGoSleepS\000"
 3312      68476F53 
 3312      6C656570 
 3312      5300
 3313              	.LASF41:
 3314 03bc 705F6570 		.ascii	"p_epending\000"
 3314      656E6469 
 3314      6E6700
 3315              	.LASF14:
 3316 03c7 75696E74 		.ascii	"uint32_t\000"
 3316      33325F74 
 3316      00
 3317              	.LASF51:
 3318 03d0 725F7175 		.ascii	"r_queue\000"
 3318      65756500 
 3319              	.LASF66:
 3320 03d8 63686172 		.ascii	"char\000"
 3320      00
 3321              	.LASF68:
 3322 03dd 6669666F 		.ascii	"fifo_remove\000"
 3322      5F72656D 
 3322      6F766500 
ARM GAS  C:\Users\jsyoon\AppData\Local\Temp\ccUtuy9d.s 			page 62


 3323              	.LASF78:
 3324 03e9 63685363 		.ascii	"chSchReadyI\000"
 3324      68526561 
 3324      64794900 
 3325              	.LASF61:
 3326 03f5 6D5F6E65 		.ascii	"m_next\000"
 3326      787400
 3327              	.LASF24:
 3328 03fc 73797374 		.ascii	"systime_t\000"
 3328      696D655F 
 3328      7400
 3329              	.LASF43:
 3330 0406 705F7265 		.ascii	"p_realprio\000"
 3330      616C7072 
 3330      696F00
 3331              	.LASF6:
 3332 0411 5F5F696E 		.ascii	"__int32_t\000"
 3332      7433325F 
 3332      7400
 3333              	.LASF84:
 3334 041b 7072696F 		.ascii	"prio_insert\000"
 3334      5F696E73 
 3334      65727400 
 3335              	.LASF37:
 3336 0427 705F7469 		.ascii	"p_time\000"
 3336      6D6500
 3337              	.LASF48:
 3338 042e 696E7463 		.ascii	"intctx\000"
 3338      747800
 3339              	.LASF39:
 3340 0435 705F6D73 		.ascii	"p_msgqueue\000"
 3340      67717565 
 3340      756500
 3341              	.LASF80:
 3342 0440 63685363 		.ascii	"chSchWakeupS\000"
 3342      6857616B 
 3342      65757053 
 3342      00
 3343              	.LASF69:
 3344 044d 63684D74 		.ascii	"chMtxInit\000"
 3344      78496E69 
 3344      7400
 3345              	.LASF35:
 3346 0457 705F7265 		.ascii	"p_refs\000"
 3346      667300
 3347              	.LASF57:
 3348 045e 52656164 		.ascii	"ReadyList\000"
 3348      794C6973 
 3348      7400
 3349              	.LASF85:
 3350 0468 726C6973 		.ascii	"rlist\000"
 3350      7400
 3351              	.LASF12:
 3352 046e 75696E74 		.ascii	"uint8_t\000"
 3352      385F7400 
 3353              	.LASF64:
 3354 0476 77746F62 		.ascii	"wtobjp\000"
ARM GAS  C:\Users\jsyoon\AppData\Local\Temp\ccUtuy9d.s 			page 63


 3354      6A7000
 3355              	.LASF32:
 3356 047d 705F6E61 		.ascii	"p_name\000"
 3356      6D6500
 3357              	.LASF70:
 3358 0484 63684D74 		.ascii	"chMtxLockS\000"
 3358      784C6F63 
 3358      6B5300
 3359              	.LASF60:
 3360 048f 6D5F6F77 		.ascii	"m_owner\000"
 3360      6E657200 
 3361              	.LASF29:
 3362 0497 705F6374 		.ascii	"p_ctx\000"
 3362      7800
 3363              	.LASF38:
 3364 049d 705F7761 		.ascii	"p_waiting\000"
 3364      6974696E 
 3364      6700
 3365              		.ident	"GCC: (GNU Tools for ARM Embedded Processors) 4.8.4 20140526 (release) [ARM/embedded-4_8-br
ARM GAS  C:\Users\jsyoon\AppData\Local\Temp\ccUtuy9d.s 			page 64


DEFINED SYMBOLS
                            *ABS*:00000000 chmtx.c
C:\Users\jsyoon\AppData\Local\Temp\ccUtuy9d.s:21     .text.chMtxInit:00000000 $t
C:\Users\jsyoon\AppData\Local\Temp\ccUtuy9d.s:27     .text.chMtxInit:00000000 chMtxInit
C:\Users\jsyoon\AppData\Local\Temp\ccUtuy9d.s:48     .text.chMtxLockS:00000000 $t
C:\Users\jsyoon\AppData\Local\Temp\ccUtuy9d.s:54     .text.chMtxLockS:00000000 chMtxLockS
C:\Users\jsyoon\AppData\Local\Temp\ccUtuy9d.s:281    .text.chMtxLockS:000000c0 $d
C:\Users\jsyoon\AppData\Local\Temp\ccUtuy9d.s:286    .text.chMtxLock:00000000 $t
C:\Users\jsyoon\AppData\Local\Temp\ccUtuy9d.s:292    .text.chMtxLock:00000000 chMtxLock
C:\Users\jsyoon\AppData\Local\Temp\ccUtuy9d.s:321    .text.chMtxTryLock:00000000 $t
C:\Users\jsyoon\AppData\Local\Temp\ccUtuy9d.s:327    .text.chMtxTryLock:00000000 chMtxTryLock
C:\Users\jsyoon\AppData\Local\Temp\ccUtuy9d.s:388    .text.chMtxTryLock:00000020 $d
C:\Users\jsyoon\AppData\Local\Temp\ccUtuy9d.s:393    .text.chMtxTryLockS:00000000 $t
C:\Users\jsyoon\AppData\Local\Temp\ccUtuy9d.s:399    .text.chMtxTryLockS:00000000 chMtxTryLockS
C:\Users\jsyoon\AppData\Local\Temp\ccUtuy9d.s:437    .text.chMtxTryLockS:0000001c $d
C:\Users\jsyoon\AppData\Local\Temp\ccUtuy9d.s:442    .text.chMtxUnlock:00000000 $t
C:\Users\jsyoon\AppData\Local\Temp\ccUtuy9d.s:448    .text.chMtxUnlock:00000000 chMtxUnlock
C:\Users\jsyoon\AppData\Local\Temp\ccUtuy9d.s:571    .text.chMtxUnlock:00000054 $d
C:\Users\jsyoon\AppData\Local\Temp\ccUtuy9d.s:576    .text.chMtxUnlockS:00000000 $t
C:\Users\jsyoon\AppData\Local\Temp\ccUtuy9d.s:582    .text.chMtxUnlockS:00000000 chMtxUnlockS
C:\Users\jsyoon\AppData\Local\Temp\ccUtuy9d.s:687    .text.chMtxUnlockS:0000004c $d
C:\Users\jsyoon\AppData\Local\Temp\ccUtuy9d.s:692    .text.chMtxUnlockAll:00000000 $t
C:\Users\jsyoon\AppData\Local\Temp\ccUtuy9d.s:698    .text.chMtxUnlockAll:00000000 chMtxUnlockAll
C:\Users\jsyoon\AppData\Local\Temp\ccUtuy9d.s:806    .text.chMtxUnlockAll:00000048 $d
                     .debug_frame:00000010 $d
C:\Users\jsyoon\AppData\Local\Temp\ccUtuy9d.s:285    .text.chMtxLockS:000000c4 $t
C:\Users\jsyoon\AppData\Local\Temp\ccUtuy9d.s:392    .text.chMtxTryLock:00000024 $t
C:\Users\jsyoon\AppData\Local\Temp\ccUtuy9d.s:575    .text.chMtxUnlock:00000058 $t
C:\Users\jsyoon\AppData\Local\Temp\ccUtuy9d.s:810    .text.chMtxUnlockAll:0000004c $t

UNDEFINED SYMBOLS
chSchGoSleepS
chSchReadyI
rlist
chSchWakeupS
chSchRescheduleS
