ARM GAS  C:\Users\jsyoon\AppData\Local\Temp\ccUtuy9d.s 			page 1


   1              		.syntax unified
   2              		.cpu cortex-m4
   3              		.eabi_attribute 27, 3
   4              		.eabi_attribute 28, 1
   5              		.fpu fpv4-sp-d16
   6              		.eabi_attribute 20, 1
   7              		.eabi_attribute 21, 1
   8              		.eabi_attribute 23, 3
   9              		.eabi_attribute 24, 1
  10              		.eabi_attribute 25, 1
  11              		.eabi_attribute 26, 1
  12              		.eabi_attribute 30, 2
  13              		.eabi_attribute 34, 1
  14              		.eabi_attribute 18, 4
  15              		.thumb
  16              		.file	"chmtx.c"
  17              		.text
  18              	.Ltext0:
  19              		.cfi_sections	.debug_frame
  20              		.section	.text.chMtxInit,"ax",%progbits
  21              		.align	2
  22              		.p2align 4,,15
  23              		.global	chMtxInit
  24              		.thumb
  25              		.thumb_func
  26              		.type	chMtxInit, %function
  27              	chMtxInit:
  28              	.LFB7:
  29              		.file 1 "ChibiOS_2.6.6/os/kernel/src/chmtx.c"
  30              		.loc 1 86 0
  31              		.cfi_startproc
  32              		@ args = 0, pretend = 0, frame = 0
  33              		@ frame_needed = 0, uses_anonymous_args = 0
  34              		@ link register save eliminated.
  35              	.LVL0:
  36              		.loc 1 91 0
  37 0000 0023     		movs	r3, #0
  38              		.loc 1 90 0
  39 0002 4060     		str	r0, [r0, #4]
  40 0004 0060     		str	r0, [r0]
  41              		.loc 1 91 0
  42 0006 8360     		str	r3, [r0, #8]
  43 0008 7047     		bx	lr
  44              		.cfi_endproc
  45              	.LFE7:
  46              		.size	chMtxInit, .-chMtxInit
  47 000a 00BFAFF3 		.section	.text.chMtxLockS,"ax",%progbits
  47      0080
  48              		.align	2
  49              		.p2align 4,,15
  50              		.global	chMtxLockS
  51              		.thumb
  52              		.thumb_func
  53              		.type	chMtxLockS, %function
  54              	chMtxLockS:
  55              	.LFB9:
  56              		.loc 1 121 0
ARM GAS  C:\Users\jsyoon\AppData\Local\Temp\ccUtuy9d.s 			page 2


  57              		.cfi_startproc
  58              		@ args = 0, pretend = 0, frame = 0
  59              		@ frame_needed = 0, uses_anonymous_args = 0
  60              	.LVL1:
  61 0000 70B5     		push	{r4, r5, r6, lr}
  62              		.cfi_def_cfa_offset 16
  63              		.cfi_offset 4, -16
  64              		.cfi_offset 5, -12
  65              		.cfi_offset 6, -8
  66              		.cfi_offset 14, -4
  67              		.loc 1 122 0
  68 0002 2F4B     		ldr	r3, .L23
  69              		.loc 1 121 0
  70 0004 0546     		mov	r5, r0
  71              		.loc 1 128 0
  72 0006 8068     		ldr	r0, [r0, #8]
  73              	.LVL2:
  74              		.loc 1 122 0
  75 0008 9C69     		ldr	r4, [r3, #24]
  76              	.LVL3:
  77              		.loc 1 128 0
  78 000a 0028     		cmp	r0, #0
  79 000c 53D0     		beq	.L3
  80              	.LVL4:
  81              	.LBB27:
  82              		.loc 1 135 0 discriminator 1
  83 000e A268     		ldr	r2, [r4, #8]
  84 0010 8368     		ldr	r3, [r0, #8]
  85 0012 9A42     		cmp	r2, r3
  86 0014 06D9     		bls	.L5
  87              	.L14:
  88              		.loc 1 139 0
  89 0016 037F     		ldrb	r3, [r0, #28]	@ zero_extendqisi2
  90              		.loc 1 137 0
  91 0018 8260     		str	r2, [r0, #8]
  92              		.loc 1 139 0
  93 001a 042B     		cmp	r3, #4
  94 001c 32D0     		beq	.L6
  95 001e 052B     		cmp	r3, #5
  96 0020 1CD0     		beq	.L7
  97 0022 9BB1     		cbz	r3, .L22
  98              	.LVL5:
  99              	.L5:
 100              	.LBB28:
 101              	.LBB29:
 102              		.file 2 "ChibiOS_2.6.6/os/kernel/include/chinline.h"
 103              		.loc 2 43 0
 104 0024 2B46     		mov	r3, r5
 105 0026 03E0     		b	.L20
 106              	.LVL6:
 107              	.L18:
 108              		.loc 2 46 0
 109 0028 9968     		ldr	r1, [r3, #8]
 110 002a A268     		ldr	r2, [r4, #8]
 111 002c 9142     		cmp	r1, r2
 112 002e 02D3     		bcc	.L19
 113              	.L20:
ARM GAS  C:\Users\jsyoon\AppData\Local\Temp\ccUtuy9d.s 			page 3


 114              		.loc 2 45 0
 115 0030 1B68     		ldr	r3, [r3]
 116              	.LVL7:
 117              		.loc 2 46 0
 118 0032 9D42     		cmp	r5, r3
 119 0034 F8D1     		bne	.L18
 120              	.L19:
 121              		.loc 2 48 0
 122 0036 5A68     		ldr	r2, [r3, #4]
 123 0038 6260     		str	r2, [r4, #4]
 124              		.loc 2 47 0
 125 003a 2360     		str	r3, [r4]
 126              		.loc 2 49 0
 127 003c 5C60     		str	r4, [r3, #4]
 128 003e 1460     		str	r4, [r2]
 129              	.LBE29:
 130              	.LBE28:
 131              		.loc 1 174 0
 132 0040 6562     		str	r5, [r4, #36]
 133              		.loc 1 175 0
 134 0042 0420     		movs	r0, #4
 135              	.LBE27:
 136              		.loc 1 187 0
 137 0044 BDE87040 		pop	{r4, r5, r6, lr}
 138              	.LVL8:
 139              	.LBB44:
 140              		.loc 1 175 0
 141 0048 FFF7FEBF 		b	chSchGoSleepS
 142              	.LVL9:
 143              	.L22:
 144              	.LBB30:
 145              	.LBB31:
 146              		.loc 2 75 0
 147 004c 90E80C00 		ldmia	r0, {r2, r3}
 148 0050 1A60     		str	r2, [r3]
 149              		.loc 2 76 0
 150 0052 0268     		ldr	r2, [r0]
 151 0054 5360     		str	r3, [r2, #4]
 152              	.LBE31:
 153              	.LBE30:
 154              		.loc 1 167 0
 155 0056 FFF7FEFF 		bl	chSchReadyI
 156              	.LVL10:
 157              		.loc 1 168 0
 158 005a E3E7     		b	.L5
 159              	.LVL11:
 160              	.L7:
 161              	.LBB32:
 162              	.LBB33:
 163              		.loc 2 75 0
 164 005c 90E80A00 		ldmia	r0, {r1, r3}
 165 0060 1960     		str	r1, [r3]
 166              	.LBE33:
 167              	.LBE32:
 168              		.loc 1 158 0
 169 0062 466A     		ldr	r6, [r0, #36]
 170              	.LVL12:
ARM GAS  C:\Users\jsyoon\AppData\Local\Temp\ccUtuy9d.s 			page 4


 171              	.LBB35:
 172              	.LBB34:
 173              		.loc 2 76 0
 174 0064 0168     		ldr	r1, [r0]
 175 0066 4B60     		str	r3, [r1, #4]
 176              	.LBE34:
 177              	.LBE35:
 178              	.LBB36:
 179              	.LBB37:
 180              		.loc 2 43 0
 181 0068 3346     		mov	r3, r6
 182 006a 02E0     		b	.L17
 183              	.LVL13:
 184              	.L15:
 185              		.loc 2 46 0
 186 006c 9968     		ldr	r1, [r3, #8]
 187 006e 8A42     		cmp	r2, r1
 188 0070 02D8     		bhi	.L16
 189              	.L17:
 190              		.loc 2 45 0
 191 0072 1B68     		ldr	r3, [r3]
 192              	.LVL14:
 193              		.loc 2 46 0
 194 0074 9E42     		cmp	r6, r3
 195 0076 F9D1     		bne	.L15
 196              	.L16:
 197              		.loc 2 48 0
 198 0078 5A68     		ldr	r2, [r3, #4]
 199 007a 4260     		str	r2, [r0, #4]
 200              		.loc 2 47 0
 201 007c 0360     		str	r3, [r0]
 202              		.loc 2 49 0
 203 007e 5860     		str	r0, [r3, #4]
 204 0080 1060     		str	r0, [r2]
 205 0082 CFE7     		b	.L5
 206              	.LVL15:
 207              	.L6:
 208              	.LBE37:
 209              	.LBE36:
 210              	.LBB38:
 211              	.LBB39:
 212              		.loc 2 75 0
 213 0084 90E80A00 		ldmia	r0, {r1, r3}
 214 0088 1960     		str	r1, [r3]
 215              	.LBE39:
 216              	.LBE38:
 217              		.loc 1 142 0
 218 008a 466A     		ldr	r6, [r0, #36]
 219              	.LVL16:
 220              	.LBB41:
 221              	.LBB40:
 222              		.loc 2 76 0
 223 008c 0168     		ldr	r1, [r0]
 224 008e 4B60     		str	r3, [r1, #4]
 225              	.LBE40:
 226              	.LBE41:
 227              		.loc 1 142 0
ARM GAS  C:\Users\jsyoon\AppData\Local\Temp\ccUtuy9d.s 			page 5


 228 0090 3346     		mov	r3, r6
 229 0092 02E0     		b	.L13
 230              	.LVL17:
 231              	.L9:
 232              	.LBB42:
 233              	.LBB43:
 234              		.loc 2 46 0
 235 0094 9968     		ldr	r1, [r3, #8]
 236 0096 9142     		cmp	r1, r2
 237 0098 02D3     		bcc	.L12
 238              	.L13:
 239              		.loc 2 45 0
 240 009a 1B68     		ldr	r3, [r3]
 241              	.LVL18:
 242              		.loc 2 46 0
 243 009c 9E42     		cmp	r6, r3
 244 009e F9D1     		bne	.L9
 245              	.L12:
 246              		.loc 2 48 0
 247 00a0 5A68     		ldr	r2, [r3, #4]
 248 00a2 4260     		str	r2, [r0, #4]
 249              		.loc 2 47 0
 250 00a4 0360     		str	r3, [r0]
 251              		.loc 2 49 0
 252 00a6 5860     		str	r0, [r3, #4]
 253 00a8 1060     		str	r0, [r2]
 254              	.LBE43:
 255              	.LBE42:
 256              		.loc 1 143 0
 257 00aa B068     		ldr	r0, [r6, #8]
 258              	.LVL19:
 259              		.loc 1 135 0
 260 00ac A268     		ldr	r2, [r4, #8]
 261 00ae 8368     		ldr	r3, [r0, #8]
 262              	.LVL20:
 263 00b0 9342     		cmp	r3, r2
 264 00b2 B0D3     		bcc	.L14
 265 00b4 B6E7     		b	.L5
 266              	.LVL21:
 267              	.L3:
 268              	.LBE44:
 269              		.loc 1 184 0
 270 00b6 E36B     		ldr	r3, [r4, #60]
 271 00b8 EB60     		str	r3, [r5, #12]
 272              		.loc 1 183 0
 273 00ba AC60     		str	r4, [r5, #8]
 274              		.loc 1 185 0
 275 00bc E563     		str	r5, [r4, #60]
 276 00be 70BD     		pop	{r4, r5, r6, pc}
 277              	.LVL22:
 278              	.L24:
 279              		.align	2
 280              	.L23:
 281 00c0 00000000 		.word	rlist
 282              		.cfi_endproc
 283              	.LFE9:
 284              		.size	chMtxLockS, .-chMtxLockS
ARM GAS  C:\Users\jsyoon\AppData\Local\Temp\ccUtuy9d.s 			page 6


 285 00c4 AFF30080 		.section	.text.chMtxLock,"ax",%progbits
 285      AFF30080 
 285      AFF30080 
 286              		.align	2
 287              		.p2align 4,,15
 288              		.global	chMtxLock
 289              		.thumb
 290              		.thumb_func
 291              		.type	chMtxLock, %function
 292              	chMtxLock:
 293              	.LFB8:
 294              		.loc 1 103 0
 295              		.cfi_startproc
 296              		@ args = 0, pretend = 0, frame = 0
 297              		@ frame_needed = 0, uses_anonymous_args = 0
 298              	.LVL23:
 299 0000 08B5     		push	{r3, lr}
 300              		.cfi_def_cfa_offset 8
 301              		.cfi_offset 3, -8
 302              		.cfi_offset 14, -4
 303              		.loc 1 105 0
 304              	@ 105 "ChibiOS_2.6.6/os/kernel/src/chmtx.c" 1
 305 0002 72B6     		cpsid   i
 306              	@ 0 "" 2
 307              		.loc 1 107 0
 308              		.thumb
 309 0004 FFF7FEFF 		bl	chMtxLockS
 310              	.LVL24:
 311              		.loc 1 109 0
 312              	@ 109 "ChibiOS_2.6.6/os/kernel/src/chmtx.c" 1
 313 0008 62B6     		cpsie   i
 314              	@ 0 "" 2
 315              		.thumb
 316 000a 08BD     		pop	{r3, pc}
 317              		.cfi_endproc
 318              	.LFE8:
 319              		.size	chMtxLock, .-chMtxLock
 320 000c AFF30080 		.section	.text.chMtxTryLock,"ax",%progbits
 321              		.align	2
 322              		.p2align 4,,15
 323              		.global	chMtxTryLock
 324              		.thumb
 325              		.thumb_func
 326              		.type	chMtxTryLock, %function
 327              	chMtxTryLock:
 328              	.LFB10:
 329              		.loc 1 206 0
 330              		.cfi_startproc
 331              		@ args = 0, pretend = 0, frame = 0
 332              		@ frame_needed = 0, uses_anonymous_args = 0
 333              		@ link register save eliminated.
 334              	.LVL25:
 335              		.loc 1 206 0
 336 0000 0346     		mov	r3, r0
 337              		.loc 1 209 0
 338              	@ 209 "ChibiOS_2.6.6/os/kernel/src/chmtx.c" 1
 339 0002 72B6     		cpsid   i
ARM GAS  C:\Users\jsyoon\AppData\Local\Temp\ccUtuy9d.s 			page 7


 340              	@ 0 "" 2
 341              	.LVL26:
 342              		.thumb
 343              	.LBB45:
 344              	.LBB46:
 345              		.loc 1 239 0
 346 0004 8268     		ldr	r2, [r0, #8]
 347 0006 12B1     		cbz	r2, .L29
 348              		.loc 1 240 0
 349 0008 0020     		movs	r0, #0
 350              	.LVL27:
 351              	.LBE46:
 352              	.LBE45:
 353              		.loc 1 213 0
 354              	@ 213 "ChibiOS_2.6.6/os/kernel/src/chmtx.c" 1
 355 000a 62B6     		cpsie   i
 356              	@ 0 "" 2
 357              		.loc 1 215 0
 358              		.thumb
 359 000c 7047     		bx	lr
 360              	.LVL28:
 361              	.L29:
 362              	.LBB48:
 363              	.LBB47:
 364              		.loc 1 241 0
 365 000e 044A     		ldr	r2, .L30
 366 0010 9269     		ldr	r2, [r2, #24]
 367 0012 8260     		str	r2, [r0, #8]
 368              		.loc 1 242 0
 369 0014 D16B     		ldr	r1, [r2, #60]
 370 0016 C160     		str	r1, [r0, #12]
 371              		.loc 1 244 0
 372 0018 0120     		movs	r0, #1
 373              	.LVL29:
 374              		.loc 1 243 0
 375 001a D363     		str	r3, [r2, #60]
 376              	.LBE47:
 377              	.LBE48:
 378              		.loc 1 213 0
 379              	@ 213 "ChibiOS_2.6.6/os/kernel/src/chmtx.c" 1
 380 001c 62B6     		cpsie   i
 381              	@ 0 "" 2
 382              		.loc 1 215 0
 383              		.thumb
 384 001e 7047     		bx	lr
 385              	.L31:
 386              		.align	2
 387              	.L30:
 388 0020 00000000 		.word	rlist
 389              		.cfi_endproc
 390              	.LFE10:
 391              		.size	chMtxTryLock, .-chMtxTryLock
 392 0024 AFF30080 		.section	.text.chMtxTryLockS,"ax",%progbits
 392      AFF30080 
 392      AFF30080 
 393              		.align	2
 394              		.p2align 4,,15
ARM GAS  C:\Users\jsyoon\AppData\Local\Temp\ccUtuy9d.s 			page 8


 395              		.global	chMtxTryLockS
 396              		.thumb
 397              		.thumb_func
 398              		.type	chMtxTryLockS, %function
 399              	chMtxTryLockS:
 400              	.LFB11:
 401              		.loc 1 234 0
 402              		.cfi_startproc
 403              		@ args = 0, pretend = 0, frame = 0
 404              		@ frame_needed = 0, uses_anonymous_args = 0
 405              		@ link register save eliminated.
 406              	.LVL30:
 407              		.loc 1 239 0
 408 0000 8268     		ldr	r2, [r0, #8]
 409              		.loc 1 234 0
 410 0002 0346     		mov	r3, r0
 411              		.loc 1 239 0
 412 0004 0AB1     		cbz	r2, .L35
 413              		.loc 1 240 0
 414 0006 0020     		movs	r0, #0
 415              	.LVL31:
 416              		.loc 1 245 0
 417 0008 7047     		bx	lr
 418              	.LVL32:
 419              	.L35:
 420              		.loc 1 241 0
 421 000a 044A     		ldr	r2, .L36
 422 000c 9269     		ldr	r2, [r2, #24]
 423 000e 8260     		str	r2, [r0, #8]
 424              		.loc 1 242 0
 425 0010 D16B     		ldr	r1, [r2, #60]
 426 0012 C160     		str	r1, [r0, #12]
 427              		.loc 1 244 0
 428 0014 0120     		movs	r0, #1
 429              	.LVL33:
 430              		.loc 1 243 0
 431 0016 D363     		str	r3, [r2, #60]
 432              		.loc 1 244 0
 433 0018 7047     		bx	lr
 434              	.L37:
 435 001a 00BF     		.align	2
 436              	.L36:
 437 001c 00000000 		.word	rlist
 438              		.cfi_endproc
 439              	.LFE11:
 440              		.size	chMtxTryLockS, .-chMtxTryLockS
 441              		.section	.text.chMtxUnlock,"ax",%progbits
 442              		.align	2
 443              		.p2align 4,,15
 444              		.global	chMtxUnlock
 445              		.thumb
 446              		.thumb_func
 447              		.type	chMtxUnlock, %function
 448              	chMtxUnlock:
 449              	.LFB12:
 450              		.loc 1 257 0
 451              		.cfi_startproc
ARM GAS  C:\Users\jsyoon\AppData\Local\Temp\ccUtuy9d.s 			page 9


 452              		@ args = 0, pretend = 0, frame = 0
 453              		@ frame_needed = 0, uses_anonymous_args = 0
 454 0000 38B5     		push	{r3, r4, r5, lr}
 455              		.cfi_def_cfa_offset 16
 456              		.cfi_offset 3, -16
 457              		.cfi_offset 4, -12
 458              		.cfi_offset 5, -8
 459              		.cfi_offset 14, -4
 460              		.loc 1 258 0
 461 0002 144B     		ldr	r3, .L50
 462 0004 9869     		ldr	r0, [r3, #24]
 463              	.LVL34:
 464              		.loc 1 261 0
 465              	@ 261 "ChibiOS_2.6.6/os/kernel/src/chmtx.c" 1
 466 0006 72B6     		cpsid   i
 467              	@ 0 "" 2
 468              		.loc 1 270 0
 469              		.thumb
 470 0008 C46B     		ldr	r4, [r0, #60]
 471              	.LVL35:
 472              		.loc 1 273 0
 473 000a 2568     		ldr	r5, [r4]
 474              		.loc 1 271 0
 475 000c E368     		ldr	r3, [r4, #12]
 476 000e C363     		str	r3, [r0, #60]
 477              		.loc 1 273 0
 478 0010 A542     		cmp	r5, r4
 479 0012 1AD0     		beq	.L39
 480              	.LBB49:
 481              		.loc 1 278 0
 482 0014 016C     		ldr	r1, [r0, #64]
 483              	.LVL36:
 484              		.loc 1 280 0
 485 0016 4BB1     		cbz	r3, .L40
 486              	.L42:
 487              		.loc 1 284 0
 488 0018 1A68     		ldr	r2, [r3]
 489 001a 9A42     		cmp	r2, r3
 490 001c 03D0     		beq	.L41
 491              		.loc 1 284 0 is_stmt 0 discriminator 1
 492 001e 9268     		ldr	r2, [r2, #8]
 493 0020 9142     		cmp	r1, r2
 494 0022 38BF     		it	cc
 495 0024 1146     		movcc	r1, r2
 496              	.LVL37:
 497              	.L41:
 498              		.loc 1 286 0 is_stmt 1
 499 0026 DB68     		ldr	r3, [r3, #12]
 500              	.LVL38:
 501              		.loc 1 280 0
 502 0028 002B     		cmp	r3, #0
 503 002a F5D1     		bne	.L42
 504              	.L40:
 505              	.LBB50:
 506              	.LBB51:
 507              		.loc 2 62 0
 508 002c 2B68     		ldr	r3, [r5]
ARM GAS  C:\Users\jsyoon\AppData\Local\Temp\ccUtuy9d.s 			page 10


 509              	.LVL39:
 510              	.LBE51:
 511              	.LBE50:
 512              		.loc 1 295 0
 513 002e EA6B     		ldr	r2, [r5, #60]
 514              		.loc 1 290 0
 515 0030 8160     		str	r1, [r0, #8]
 516              	.LVL40:
 517              	.LBB54:
 518              	.LBB52:
 519              		.loc 2 62 0
 520 0032 2360     		str	r3, [r4]
 521              	.LBE52:
 522              	.LBE54:
 523              		.loc 1 297 0
 524 0034 2846     		mov	r0, r5
 525              	.LVL41:
 526              	.LBB55:
 527              	.LBB53:
 528              		.loc 2 62 0
 529 0036 5C60     		str	r4, [r3, #4]
 530              	.LBE53:
 531              	.LBE55:
 532              		.loc 1 297 0
 533 0038 0021     		movs	r1, #0
 534              	.LVL42:
 535              		.loc 1 294 0
 536 003a A560     		str	r5, [r4, #8]
 537              		.loc 1 295 0
 538 003c E260     		str	r2, [r4, #12]
 539              		.loc 1 296 0
 540 003e EC63     		str	r4, [r5, #60]
 541              		.loc 1 297 0
 542 0040 FFF7FEFF 		bl	chSchWakeupS
 543              	.LVL43:
 544              	.LBE49:
 545              		.loc 1 301 0
 546              	@ 301 "ChibiOS_2.6.6/os/kernel/src/chmtx.c" 1
 547 0044 62B6     		cpsie   i
 548              	@ 0 "" 2
 549              		.loc 1 303 0
 550              		.thumb
 551 0046 2046     		mov	r0, r4
 552 0048 38BD     		pop	{r3, r4, r5, pc}
 553              	.LVL44:
 554              	.L39:
 555              		.loc 1 300 0
 556 004a 0023     		movs	r3, #0
 557 004c A360     		str	r3, [r4, #8]
 558              		.loc 1 301 0
 559              	@ 301 "ChibiOS_2.6.6/os/kernel/src/chmtx.c" 1
 560 004e 62B6     		cpsie   i
 561              	@ 0 "" 2
 562              		.loc 1 303 0
 563              		.thumb
 564 0050 2046     		mov	r0, r4
 565              	.LVL45:
ARM GAS  C:\Users\jsyoon\AppData\Local\Temp\ccUtuy9d.s 			page 11


 566 0052 38BD     		pop	{r3, r4, r5, pc}
 567              	.LVL46:
 568              	.L51:
 569              		.align	2
 570              	.L50:
 571 0054 00000000 		.word	rlist
 572              		.cfi_endproc
 573              	.LFE12:
 574              		.size	chMtxUnlock, .-chMtxUnlock
 575 0058 AFF30080 		.section	.text.chMtxUnlockS,"ax",%progbits
 575      AFF30080 
 576              		.align	2
 577              		.p2align 4,,15
 578              		.global	chMtxUnlockS
 579              		.thumb
 580              		.thumb_func
 581              		.type	chMtxUnlockS, %function
 582              	chMtxUnlockS:
 583              	.LFB13:
 584              		.loc 1 317 0
 585              		.cfi_startproc
 586              		@ args = 0, pretend = 0, frame = 0
 587              		@ frame_needed = 0, uses_anonymous_args = 0
 588 0000 38B5     		push	{r3, r4, r5, lr}
 589              		.cfi_def_cfa_offset 16
 590              		.cfi_offset 3, -16
 591              		.cfi_offset 4, -12
 592              		.cfi_offset 5, -8
 593              		.cfi_offset 14, -4
 594              		.loc 1 318 0
 595 0002 124B     		ldr	r3, .L64
 596 0004 9869     		ldr	r0, [r3, #24]
 597              	.LVL47:
 598              		.loc 1 331 0
 599 0006 C46B     		ldr	r4, [r0, #60]
 600              	.LVL48:
 601              		.loc 1 334 0
 602 0008 2568     		ldr	r5, [r4]
 603              		.loc 1 332 0
 604 000a E368     		ldr	r3, [r4, #12]
 605 000c C363     		str	r3, [r0, #60]
 606              		.loc 1 334 0
 607 000e A542     		cmp	r5, r4
 608 0010 18D0     		beq	.L53
 609              	.LBB56:
 610              		.loc 1 339 0
 611 0012 016C     		ldr	r1, [r0, #64]
 612              	.LVL49:
 613              		.loc 1 341 0
 614 0014 4BB1     		cbz	r3, .L54
 615              	.L56:
 616              		.loc 1 345 0
 617 0016 1A68     		ldr	r2, [r3]
 618 0018 9A42     		cmp	r2, r3
 619 001a 03D0     		beq	.L55
 620              		.loc 1 345 0 is_stmt 0 discriminator 1
 621 001c 9268     		ldr	r2, [r2, #8]
ARM GAS  C:\Users\jsyoon\AppData\Local\Temp\ccUtuy9d.s 			page 12


 622 001e 9142     		cmp	r1, r2
 623 0020 38BF     		it	cc
 624 0022 1146     		movcc	r1, r2
 625              	.LVL50:
 626              	.L55:
 627              		.loc 1 347 0 is_stmt 1
 628 0024 DB68     		ldr	r3, [r3, #12]
 629              	.LVL51:
 630              		.loc 1 341 0
 631 0026 002B     		cmp	r3, #0
 632 0028 F5D1     		bne	.L56
 633              	.L54:
 634              	.LBB57:
 635              	.LBB58:
 636              		.loc 2 62 0
 637 002a 2B68     		ldr	r3, [r5]
 638              	.LVL52:
 639              	.LBE58:
 640              	.LBE57:
 641              		.loc 1 354 0
 642 002c EA6B     		ldr	r2, [r5, #60]
 643              		.loc 1 349 0
 644 002e 8160     		str	r1, [r0, #8]
 645              	.LVL53:
 646              	.LBB61:
 647              	.LBB59:
 648              		.loc 2 62 0
 649 0030 2360     		str	r3, [r4]
 650              	.LBE59:
 651              	.LBE61:
 652              		.loc 1 356 0
 653 0032 2846     		mov	r0, r5
 654              	.LVL54:
 655              	.LBB62:
 656              	.LBB60:
 657              		.loc 2 62 0
 658 0034 5C60     		str	r4, [r3, #4]
 659              	.LBE60:
 660              	.LBE62:
 661              		.loc 1 353 0
 662 0036 A560     		str	r5, [r4, #8]
 663              		.loc 1 354 0
 664 0038 E260     		str	r2, [r4, #12]
 665              		.loc 1 355 0
 666 003a EC63     		str	r4, [r5, #60]
 667              		.loc 1 356 0
 668 003c FFF7FEFF 		bl	chSchReadyI
 669              	.LVL55:
 670              	.LBE56:
 671              		.loc 1 361 0
 672 0040 2046     		mov	r0, r4
 673 0042 38BD     		pop	{r3, r4, r5, pc}
 674              	.LVL56:
 675              	.L53:
 676              		.loc 1 359 0
 677 0044 0023     		movs	r3, #0
 678 0046 A360     		str	r3, [r4, #8]
ARM GAS  C:\Users\jsyoon\AppData\Local\Temp\ccUtuy9d.s 			page 13


 679              		.loc 1 361 0
 680 0048 2046     		mov	r0, r4
 681              	.LVL57:
 682 004a 38BD     		pop	{r3, r4, r5, pc}
 683              	.LVL58:
 684              	.L65:
 685              		.align	2
 686              	.L64:
 687 004c 00000000 		.word	rlist
 688              		.cfi_endproc
 689              	.LFE13:
 690              		.size	chMtxUnlockS, .-chMtxUnlockS
 691              		.section	.text.chMtxUnlockAll,"ax",%progbits
 692              		.align	2
 693              		.p2align 4,,15
 694              		.global	chMtxUnlockAll
 695              		.thumb
 696              		.thumb_func
 697              		.type	chMtxUnlockAll, %function
 698              	chMtxUnlockAll:
 699              	.LFB14:
 700              		.loc 1 374 0
 701              		.cfi_startproc
 702              		@ args = 0, pretend = 0, frame = 0
 703              		@ frame_needed = 0, uses_anonymous_args = 0
 704              		.loc 1 375 0
 705 0000 114B     		ldr	r3, .L77
 706              		.loc 1 374 0
 707 0002 70B5     		push	{r4, r5, r6, lr}
 708              		.cfi_def_cfa_offset 16
 709              		.cfi_offset 4, -16
 710              		.cfi_offset 5, -12
 711              		.cfi_offset 6, -8
 712              		.cfi_offset 14, -4
 713              		.loc 1 375 0
 714 0004 9C69     		ldr	r4, [r3, #24]
 715              	.LVL59:
 716              		.loc 1 377 0
 717              	@ 377 "ChibiOS_2.6.6/os/kernel/src/chmtx.c" 1
 718 0006 72B6     		cpsid   i
 719              	@ 0 "" 2
 720              		.loc 1 378 0
 721              		.thumb
 722 0008 E36B     		ldr	r3, [r4, #60]
 723 000a D3B1     		cbz	r3, .L67
 724              	.LBB63:
 725              		.loc 1 390 0
 726 000c 0026     		movs	r6, #0
 727 000e 0BE0     		b	.L71
 728              	.LVL60:
 729              	.L76:
 730              	.LBB64:
 731              	.LBB65:
 732              	.LBB66:
 733              		.loc 2 62 0
 734 0010 1168     		ldr	r1, [r2]
 735              	.LBE66:
ARM GAS  C:\Users\jsyoon\AppData\Local\Temp\ccUtuy9d.s 			page 14


 736              	.LBE65:
 737              		.loc 1 385 0
 738 0012 D56B     		ldr	r5, [r2, #60]
 739              	.LBB69:
 740              	.LBB67:
 741              		.loc 2 62 0
 742 0014 1960     		str	r1, [r3]
 743              	.LBE67:
 744              	.LBE69:
 745              		.loc 1 387 0
 746 0016 1046     		mov	r0, r2
 747              	.LBB70:
 748              	.LBB68:
 749              		.loc 2 62 0
 750 0018 4B60     		str	r3, [r1, #4]
 751              	.LBE68:
 752              	.LBE70:
 753              		.loc 1 384 0
 754 001a 9A60     		str	r2, [r3, #8]
 755              		.loc 1 385 0
 756 001c DD60     		str	r5, [r3, #12]
 757              		.loc 1 386 0
 758 001e D363     		str	r3, [r2, #60]
 759              		.loc 1 387 0
 760 0020 FFF7FEFF 		bl	chSchReadyI
 761              	.LVL61:
 762              	.LBE64:
 763              	.LBE63:
 764              		.loc 1 391 0
 765 0024 E36B     		ldr	r3, [r4, #60]
 766 0026 43B1     		cbz	r3, .L75
 767              	.L71:
 768              	.LVL62:
 769              	.LBB71:
 770              		.loc 1 382 0
 771 0028 1A68     		ldr	r2, [r3]
 772              	.LVL63:
 773              		.loc 1 381 0
 774 002a D968     		ldr	r1, [r3, #12]
 775 002c E163     		str	r1, [r4, #60]
 776              		.loc 1 382 0
 777 002e 9A42     		cmp	r2, r3
 778 0030 EED1     		bne	.L76
 779              		.loc 1 390 0
 780 0032 9E60     		str	r6, [r3, #8]
 781              	.LBE71:
 782              		.loc 1 391 0
 783 0034 E36B     		ldr	r3, [r4, #60]
 784              	.LVL64:
 785 0036 002B     		cmp	r3, #0
 786 0038 F6D1     		bne	.L71
 787              	.LVL65:
 788              	.L75:
 789              		.loc 1 392 0
 790 003a 236C     		ldr	r3, [r4, #64]
 791 003c A360     		str	r3, [r4, #8]
 792              		.loc 1 393 0
ARM GAS  C:\Users\jsyoon\AppData\Local\Temp\ccUtuy9d.s 			page 15


 793 003e FFF7FEFF 		bl	chSchRescheduleS
 794              	.LVL66:
 795              	.L67:
 796              		.loc 1 395 0
 797              	@ 395 "ChibiOS_2.6.6/os/kernel/src/chmtx.c" 1
 798 0042 62B6     		cpsie   i
 799              	@ 0 "" 2
 800              		.thumb
 801 0044 70BD     		pop	{r4, r5, r6, pc}
 802              	.LVL67:
 803              	.L78:
 804 0046 00BF     		.align	2
 805              	.L77:
 806 0048 00000000 		.word	rlist
 807              		.cfi_endproc
 808              	.LFE14:
 809              		.size	chMtxUnlockAll, .-chMtxUnlockAll
 810 004c AFF30080 		.text
 811              	.Letext0:
 812              		.file 3 "c:\\crosstools\\gcc-arm-embedded\\4.8_2014q2\\arm-none-eabi\\include\\machine\\_default_t
 813              		.file 4 "c:\\crosstools\\gcc-arm-embedded\\4.8_2014q2\\arm-none-eabi\\include\\stdint.h"
 814              		.file 5 "ChibiOS_2.6.6/os/ports/GCC/ARMCMx/chtypes.h"
 815              		.file 6 "ChibiOS_2.6.6/os/kernel/include/chlists.h"
 816              		.file 7 "ChibiOS_2.6.6/os/kernel/include/chthreads.h"
 817              		.file 8 "ChibiOS_2.6.6/os/ports/GCC/ARMCMx/chcore_v7m.h"
 818              		.file 9 "ChibiOS_2.6.6/os/kernel/include/chschd.h"
 819              		.file 10 "ChibiOS_2.6.6/os/kernel/include/chmtx.h"