ARM GAS  C:\Users\jsyoon\AppData\Local\Temp\ccC774ap.s 			page 1


   1              		.syntax unified
   2              		.cpu cortex-m4
   3              		.eabi_attribute 27, 3
   4              		.eabi_attribute 28, 1
   5              		.fpu fpv4-sp-d16
   6              		.eabi_attribute 20, 1
   7              		.eabi_attribute 21, 1
   8              		.eabi_attribute 23, 3
   9              		.eabi_attribute 24, 1
  10              		.eabi_attribute 25, 1
  11              		.eabi_attribute 26, 1
  12              		.eabi_attribute 30, 2
  13              		.eabi_attribute 34, 1
  14              		.eabi_attribute 18, 4
  15              		.thumb
  16              		.file	"chprintf.c"
  17              		.text
  18              	.Ltext0:
  19              		.cfi_sections	.debug_frame
  20              		.section	.text.long_to_string_with_divisor,"ax",%progbits
  21              		.align	2
  22              		.p2align 4,,15
  23              		.thumb
  24              		.thumb_func
  25              		.type	long_to_string_with_divisor, %function
  26              	long_to_string_with_divisor:
  27              	.LFB8:
  28              		.file 1 "ChibiOS_2.6.6/os/various/chprintf.c"
  29              		.loc 1 40 0
  30              		.cfi_startproc
  31              		@ args = 0, pretend = 0, frame = 0
  32              		@ frame_needed = 0, uses_anonymous_args = 0
  33              		@ link register save eliminated.
  34              	.LVL0:
  35 0000 F0B4     		push	{r4, r5, r6, r7}
  36              		.cfi_def_cfa_offset 16
  37              		.cfi_offset 4, -16
  38              		.cfi_offset 5, -12
  39              		.cfi_offset 6, -8
  40              		.cfi_offset 7, -4
  41              		.loc 1 47 0
  42 0002 002B     		cmp	r3, #0
  43 0004 08BF     		it	eq
  44 0006 0B46     		moveq	r3, r1
  45              	.LVL1:
  46              		.loc 1 52 0
  47 0008 00F10B07 		add	r7, r0, #11
  48              	.LVL2:
  49 000c 00F10A05 		add	r5, r0, #10
  50              	.LVL3:
  51              	.L5:
  52              		.loc 1 54 0
  53 0010 B1FBF2F6 		udiv	r6, r1, r2
  54 0014 02FB1611 		mls	r1, r2, r6, r1
  55              	.LVL4:
  56              		.loc 1 55 0
  57 0018 01F13004 		add	r4, r1, #48
ARM GAS  C:\Users\jsyoon\AppData\Local\Temp\ccC774ap.s 			page 2


  58              	.LVL5:
  59              		.loc 1 56 0
  60 001c 392C     		cmp	r4, #57
  61              		.loc 1 57 0
  62 001e C8BF     		it	gt
  63 0020 01F13704 		addgt	r4, r1, #55
  64              	.LVL6:
  65              		.loc 1 58 0
  66 0024 E4B2     		uxtb	r4, r4
  67              	.LVL7:
  68              		.loc 1 60 0
  69 0026 B3FBF2F3 		udiv	r3, r3, r2
  70              	.LVL8:
  71              		.loc 1 59 0
  72 002a 3146     		mov	r1, r6
  73              	.LVL9:
  74              		.loc 1 58 0
  75 002c 2E46     		mov	r6, r5
  76              	.LVL10:
  77 002e 05F80149 		strb	r4, [r5], #-1
  78              	.LVL11:
  79              		.loc 1 60 0
  80 0032 002B     		cmp	r3, #0
  81 0034 ECD1     		bne	.L5
  82              	.LVL12:
  83              		.loc 1 62 0
  84 0036 BA1B     		subs	r2, r7, r6
  85              	.LVL13:
  86 0038 3346     		mov	r3, r6
  87              	.LVL14:
  88 003a 0244     		add	r2, r2, r0
  89 003c 01E0     		b	.L7
  90              	.LVL15:
  91              	.L11:
  92 003e 13F8014F 		ldrb	r4, [r3, #1]!	@ zero_extendqisi2
  93              	.LVL16:
  94              	.L7:
  95              		.loc 1 64 0 discriminator 1
  96 0042 00F8014B 		strb	r4, [r0], #1
  97              	.LVL17:
  98              		.loc 1 65 0 discriminator 1
  99 0046 9042     		cmp	r0, r2
 100 0048 F9D1     		bne	.L11
 101              		.loc 1 68 0
 102 004a F0BC     		pop	{r4, r5, r6, r7}
 103              	.LVL18:
 104 004c 7047     		bx	lr
 105              		.cfi_endproc
 106              	.LFE8:
 107              		.size	long_to_string_with_divisor, .-long_to_string_with_divisor
 108              		.global	__aeabi_d2f
 109              		.global	__aeabi_f2d
 110              		.global	__aeabi_i2d
 111              		.global	__aeabi_dsub
 112              		.global	__aeabi_dmul
 113              		.global	__aeabi_d2iz
 114 004e 00BF     		.section	.text.chvprintf,"ax",%progbits
ARM GAS  C:\Users\jsyoon\AppData\Local\Temp\ccC774ap.s 			page 3


 115              		.align	2
 116              		.p2align 4,,15
 117              		.global	chvprintf
 118              		.thumb
 119              		.thumb_func
 120              		.type	chvprintf, %function
 121              	chvprintf:
 122              	.LFB11:
 123              		.loc 1 112 0
 124              		.cfi_startproc
 125              		@ args = 0, pretend = 0, frame = 40
 126              		@ frame_needed = 0, uses_anonymous_args = 0
 127              	.LVL19:
 128 0000 2DE9F04F 		push	{r4, r5, r6, r7, r8, r9, r10, fp, lr}
 129              		.cfi_def_cfa_offset 36
 130              		.cfi_offset 4, -36
 131              		.cfi_offset 5, -32
 132              		.cfi_offset 6, -28
 133              		.cfi_offset 7, -24
 134              		.cfi_offset 8, -20
 135              		.cfi_offset 9, -16
 136              		.cfi_offset 10, -12
 137              		.cfi_offset 11, -8
 138              		.cfi_offset 14, -4
 139 0004 2DED028B 		fstmfdd	sp!, {d8}
 140              		.cfi_def_cfa_offset 44
 141              		.cfi_offset 80, -44
 142 0008 8BB0     		sub	sp, sp, #44
 143              		.cfi_def_cfa_offset 88
 144              		.loc 1 112 0
 145 000a 0546     		mov	r5, r0
 146 000c 0C46     		mov	r4, r1
 147 000e 1746     		mov	r7, r2
 148              	.LVL20:
 149 0010 0DF1100B 		add	fp, sp, #16
 150              	.LVL21:
 151              	.L13:
 152              		.loc 1 125 0
 153 0014 2178     		ldrb	r1, [r4]	@ zero_extendqisi2
 154 0016 631C     		adds	r3, r4, #1
 155              	.LVL22:
 156              		.loc 1 126 0
 157 0018 51B1     		cbz	r1, .L12
 158              	.LVL23:
 159              	.L85:
 160              		.loc 1 128 0
 161 001a 2529     		cmp	r1, #37
 162 001c 0DD0     		beq	.L15
 163              		.loc 1 129 0
 164 001e 2A68     		ldr	r2, [r5]
 165              	.LVL24:
 166              		.loc 1 125 0
 167 0020 1C46     		mov	r4, r3
 168              		.loc 1 129 0
 169 0022 9268     		ldr	r2, [r2, #8]
 170 0024 2846     		mov	r0, r5
 171 0026 9047     		blx	r2
ARM GAS  C:\Users\jsyoon\AppData\Local\Temp\ccC774ap.s 			page 4


 172              	.LVL25:
 173              		.loc 1 125 0
 174 0028 2178     		ldrb	r1, [r4]	@ zero_extendqisi2
 175 002a 631C     		adds	r3, r4, #1
 176              	.LVL26:
 177              		.loc 1 126 0
 178 002c 0029     		cmp	r1, #0
 179 002e F4D1     		bne	.L85
 180              	.LVL27:
 181              	.L12:
 182              		.loc 1 261 0
 183 0030 0BB0     		add	sp, sp, #44
 184              		@ sp needed
 185 0032 BDEC028B 		fldmfdd	sp!, {d8}
 186 0036 BDE8F08F 		pop	{r4, r5, r6, r7, r8, r9, r10, fp, pc}
 187              	.LVL28:
 188              	.L15:
 189              		.loc 1 135 0
 190 003a 6278     		ldrb	r2, [r4, #1]	@ zero_extendqisi2
 191              	.LVL29:
 192 003c 2D2A     		cmp	r2, #45
 193 003e 03BF     		ittte	eq
 194 0040 A278     		ldrbeq	r2, [r4, #2]	@ zero_extendqisi2
 195              		.loc 1 136 0
 196 0042 A31C     		addeq	r3, r4, #2
 197              	.LVL30:
 198              		.loc 1 137 0
 199 0044 4FF0010C 		moveq	ip, #1
 200              		.loc 1 134 0
 201 0048 4FF0000C 		movne	ip, #0
 202              	.LVL31:
 203              		.loc 1 140 0
 204 004c 2E2A     		cmp	r2, #46
 205 004e 00F03981 		beq	.L18
 206              		.loc 1 140 0 is_stmt 0 discriminator 1
 207 0052 302A     		cmp	r2, #48
 208 0054 00F03681 		beq	.L18
 209              		.loc 1 139 0 is_stmt 1
 210 0058 4FF02008 		mov	r8, #32
 211              	.LVL32:
 212              	.L19:
 213              		.loc 1 142 0
 214 005c 1C46     		mov	r4, r3
 215              		.loc 1 144 0
 216 005e 0026     		movs	r6, #0
 217 0060 06E0     		b	.L22
 218              	.LVL33:
 219              	.L86:
 220              		.loc 1 150 0
 221 0062 3B78     		ldrb	r3, [r7]	@ zero_extendqisi2
 222              	.LVL34:
 223 0064 0437     		adds	r7, r7, #4
 224              	.LVL35:
 225              	.L20:
 226              		.loc 1 153 0
 227 0066 06EB8606 		add	r6, r6, r6, lsl #2
 228              	.LVL36:
ARM GAS  C:\Users\jsyoon\AppData\Local\Temp\ccC774ap.s 			page 5


 229 006a 2278     		ldrb	r2, [r4]	@ zero_extendqisi2
 230 006c 03EB4606 		add	r6, r3, r6, lsl #1
 231              	.LVL37:
 232              	.L22:
 233              		.loc 1 147 0
 234 0070 A2F13003 		sub	r3, r2, #48
 235 0074 DBB2     		uxtb	r3, r3
 236 0076 092B     		cmp	r3, #9
 237              		.loc 1 146 0
 238 0078 04F10104 		add	r4, r4, #1
 239              	.LVL38:
 240              		.loc 1 147 0
 241 007c F3D9     		bls	.L20
 242              		.loc 1 149 0
 243 007e 2A2A     		cmp	r2, #42
 244 0080 EFD0     		beq	.L86
 245              	.LVL39:
 246              		.loc 1 156 0
 247 0082 2E2A     		cmp	r2, #46
 248 0084 4FF00001 		mov	r1, #0
 249 0088 45D0     		beq	.L25
 250              	.LVL40:
 251              		.loc 1 170 0
 252 008a 02F0DF03 		and	r3, r2, #223
 253 008e 4C2B     		cmp	r3, #76
 254 0090 4ED0     		beq	.L87
 255              	.LVL41:
 256              	.L27:
 257              		.loc 1 179 0
 258 0092 A2F14403 		sub	r3, r2, #68
 259 0096 342B     		cmp	r3, #52
 260 0098 00F20A81 		bhi	.L28
 261 009c DFE813F0 		tbh	[pc, r3, lsl #1]
 262              	.L30:
 263 00a0 0001     		.2byte	(.L29-.L30)/2
 264 00a2 0801     		.2byte	(.L28-.L30)/2
 265 00a4 0801     		.2byte	(.L28-.L30)/2
 266 00a6 0801     		.2byte	(.L28-.L30)/2
 267 00a8 0801     		.2byte	(.L28-.L30)/2
 268 00aa 0001     		.2byte	(.L29-.L30)/2
 269 00ac 0801     		.2byte	(.L28-.L30)/2
 270 00ae 0801     		.2byte	(.L28-.L30)/2
 271 00b0 0801     		.2byte	(.L28-.L30)/2
 272 00b2 0801     		.2byte	(.L28-.L30)/2
 273 00b4 0801     		.2byte	(.L28-.L30)/2
 274 00b6 FE00     		.2byte	(.L31-.L30)/2
 275 00b8 0801     		.2byte	(.L28-.L30)/2
 276 00ba 0801     		.2byte	(.L28-.L30)/2
 277 00bc 0801     		.2byte	(.L28-.L30)/2
 278 00be 0801     		.2byte	(.L28-.L30)/2
 279 00c0 0801     		.2byte	(.L28-.L30)/2
 280 00c2 4E00     		.2byte	(.L62-.L30)/2
 281 00c4 0801     		.2byte	(.L28-.L30)/2
 282 00c6 0801     		.2byte	(.L28-.L30)/2
 283 00c8 8B00     		.2byte	(.L33-.L30)/2
 284 00ca 0801     		.2byte	(.L28-.L30)/2
 285 00cc 0801     		.2byte	(.L28-.L30)/2
ARM GAS  C:\Users\jsyoon\AppData\Local\Temp\ccC774ap.s 			page 6


 286 00ce 0801     		.2byte	(.L28-.L30)/2
 287 00d0 0801     		.2byte	(.L28-.L30)/2
 288 00d2 0801     		.2byte	(.L28-.L30)/2
 289 00d4 0801     		.2byte	(.L28-.L30)/2
 290 00d6 0801     		.2byte	(.L28-.L30)/2
 291 00d8 0801     		.2byte	(.L28-.L30)/2
 292 00da 0801     		.2byte	(.L28-.L30)/2
 293 00dc 0801     		.2byte	(.L28-.L30)/2
 294 00de F000     		.2byte	(.L34-.L30)/2
 295 00e0 0001     		.2byte	(.L29-.L30)/2
 296 00e2 0801     		.2byte	(.L28-.L30)/2
 297 00e4 AF00     		.2byte	(.L35-.L30)/2
 298 00e6 0801     		.2byte	(.L28-.L30)/2
 299 00e8 0801     		.2byte	(.L28-.L30)/2
 300 00ea 0001     		.2byte	(.L29-.L30)/2
 301 00ec 0801     		.2byte	(.L28-.L30)/2
 302 00ee 0801     		.2byte	(.L28-.L30)/2
 303 00f0 0801     		.2byte	(.L28-.L30)/2
 304 00f2 0801     		.2byte	(.L28-.L30)/2
 305 00f4 0801     		.2byte	(.L28-.L30)/2
 306 00f6 FE00     		.2byte	(.L31-.L30)/2
 307 00f8 0801     		.2byte	(.L28-.L30)/2
 308 00fa 0801     		.2byte	(.L28-.L30)/2
 309 00fc 0801     		.2byte	(.L28-.L30)/2
 310 00fe 8D00     		.2byte	(.L36-.L30)/2
 311 0100 0801     		.2byte	(.L28-.L30)/2
 312 0102 4E00     		.2byte	(.L62-.L30)/2
 313 0104 0801     		.2byte	(.L28-.L30)/2
 314 0106 0801     		.2byte	(.L28-.L30)/2
 315 0108 8B00     		.2byte	(.L33-.L30)/2
 316              	.LVL42:
 317              		.p2align 1
 318              	.L88:
 319              		.loc 1 162 0
 320 010a 3B78     		ldrb	r3, [r7]	@ zero_extendqisi2
 321              	.LVL43:
 322 010c 0437     		adds	r7, r7, #4
 323              	.LVL44:
 324              	.L24:
 325              		.loc 1 165 0
 326 010e 01EB8101 		add	r1, r1, r1, lsl #2
 327              	.LVL45:
 328              		.loc 1 166 0
 329 0112 03EB4101 		add	r1, r3, r1, lsl #1
 330              	.LVL46:
 331              	.L25:
 332              		.loc 1 158 0
 333 0116 14F8012B 		ldrb	r2, [r4], #1	@ zero_extendqisi2
 334              	.LVL47:
 335              		.loc 1 159 0
 336 011a A2F13003 		sub	r3, r2, #48
 337 011e DBB2     		uxtb	r3, r3
 338 0120 092B     		cmp	r3, #9
 339 0122 F4D9     		bls	.L24
 340              		.loc 1 161 0
 341 0124 2A2A     		cmp	r2, #42
 342 0126 F0D0     		beq	.L88
ARM GAS  C:\Users\jsyoon\AppData\Local\Temp\ccC774ap.s 			page 7


 343              	.LVL48:
 344              		.loc 1 170 0
 345 0128 02F0DF03 		and	r3, r2, #223
 346 012c 4C2B     		cmp	r3, #76
 347 012e B0D1     		bne	.L27
 348              	.LVL49:
 349              	.L87:
 350              		.loc 1 172 0
 351 0130 2378     		ldrb	r3, [r4]	@ zero_extendqisi2
 352 0132 002B     		cmp	r3, #0
 353 0134 ADD0     		beq	.L27
 354              		.loc 1 173 0
 355 0136 0134     		adds	r4, r4, #1
 356              	.LVL50:
 357 0138 1A46     		mov	r2, r3
 358 013a AAE7     		b	.L27
 359              	.LVL51:
 360              	.L62:
 361              		.loc 1 179 0
 362 013c 0A22     		movs	r2, #10
 363              	.LVL52:
 364              	.L32:
 365              		.loc 1 230 0
 366 013e 3968     		ldr	r1, [r7]
 367              	.LVL53:
 368              	.LBB12:
 369              	.LBB13:
 370              		.loc 1 72 0
 371 0140 5846     		mov	r0, fp
 372              	.LBE13:
 373              	.LBE12:
 374              		.loc 1 230 0
 375 0142 0437     		adds	r7, r7, #4
 376              	.LVL54:
 377              	.L82:
 378              	.LBB15:
 379              	.LBB14:
 380              		.loc 1 72 0
 381 0144 0023     		movs	r3, #0
 382 0146 CDF804C0 		str	ip, [sp, #4]
 383              	.LVL55:
 384              	.L83:
 385 014a FFF7FEFF 		bl	long_to_string_with_divisor
 386              	.LVL56:
 387              	.LBE14:
 388              	.LBE15:
 389              		.loc 1 234 0
 390 014e DDF804C0 		ldr	ip, [sp, #4]
 391 0152 CBEB0000 		rsb	r0, fp, r0
 392 0156 00F1FF3A 		add	r10, r0, #-1
 393              		.loc 1 133 0
 394 015a D946     		mov	r9, fp
 395              	.LVL57:
 396              	.L37:
 397              		.loc 1 240 0
 398 015c 361A     		subs	r6, r6, r0
 399              	.LVL58:
ARM GAS  C:\Users\jsyoon\AppData\Local\Temp\ccC774ap.s 			page 8


 400 015e 26EAE676 		bic	r6, r6, r6, asr #31
 401              	.LVL59:
 402              		.loc 1 242 0
 403 0162 BCF1000F 		cmp	ip, #0
 404 0166 0DD1     		bne	.L50
 405              		.loc 1 243 0
 406 0168 7642     		negs	r6, r6
 407              	.LVL60:
 408              		.loc 1 244 0
 409 016a 5EB1     		cbz	r6, .L50
 410              		.loc 1 245 0
 411 016c 99F80010 		ldrb	r1, [r9]	@ zero_extendqisi2
 412 0170 2D29     		cmp	r1, #45
 413 0172 00F0AC80 		beq	.L89
 414              	.LVL61:
 415              	.L52:
 416              		.loc 1 250 0 discriminator 1
 417 0176 2B68     		ldr	r3, [r5]
 418 0178 2846     		mov	r0, r5
 419 017a 9B68     		ldr	r3, [r3, #8]
 420 017c 4146     		mov	r1, r8
 421 017e 9847     		blx	r3
 422              	.LVL62:
 423              		.loc 1 251 0 discriminator 1
 424 0180 0136     		adds	r6, r6, #1
 425              	.LVL63:
 426 0182 F8D1     		bne	.L52
 427              	.L50:
 428              		.loc 1 253 0 discriminator 1
 429 0184 BAF1000F 		cmp	r10, #0
 430 0188 0ADB     		blt	.L55
 431 018a CA44     		add	r10, r10, r9
 432 018c 09F1FF39 		add	r9, r9, #-1
 433              	.LVL64:
 434              	.L56:
 435              		.loc 1 254 0
 436 0190 2B68     		ldr	r3, [r5]
 437 0192 19F8011F 		ldrb	r1, [r9, #1]!	@ zero_extendqisi2
 438              	.LVL65:
 439 0196 9B68     		ldr	r3, [r3, #8]
 440 0198 2846     		mov	r0, r5
 441 019a 9847     		blx	r3
 442              	.LVL66:
 443              		.loc 1 253 0
 444 019c D145     		cmp	r9, r10
 445 019e F7D1     		bne	.L56
 446              	.LVL67:
 447              	.L55:
 448              		.loc 1 256 0
 449 01a0 002E     		cmp	r6, #0
 450 01a2 3FF437AF 		beq	.L13
 451              	.L57:
 452              		.loc 1 257 0
 453 01a6 2B68     		ldr	r3, [r5]
 454 01a8 2846     		mov	r0, r5
 455 01aa 9B68     		ldr	r3, [r3, #8]
 456 01ac 4146     		mov	r1, r8
ARM GAS  C:\Users\jsyoon\AppData\Local\Temp\ccC774ap.s 			page 9


 457 01ae 9847     		blx	r3
 458              	.LVL68:
 459              		.loc 1 256 0
 460 01b0 013E     		subs	r6, r6, #1
 461              	.LVL69:
 462 01b2 F8D1     		bne	.L57
 463 01b4 2EE7     		b	.L13
 464              	.LVL70:
 465              	.L33:
 466              		.loc 1 179 0
 467 01b6 1022     		movs	r2, #16
 468              	.LVL71:
 469 01b8 C1E7     		b	.L32
 470              	.LVL72:
 471              	.L36:
 472              		.loc 1 186 0
 473 01ba D7F80090 		ldr	r9, [r7]
 474              		.loc 1 187 0
 475 01be 5A4B     		ldr	r3, .L93+8
 476 01c0 B9F1000F 		cmp	r9, #0
 477 01c4 08BF     		it	eq
 478 01c6 9946     		moveq	r9, r3
 479              		.loc 1 189 0
 480 01c8 47F6FF73 		movw	r3, #32767
 481              		.loc 1 190 0
 482 01cc 99F80000 		ldrb	r0, [r9]	@ zero_extendqisi2
 483              		.loc 1 186 0
 484 01d0 0437     		adds	r7, r7, #4
 485              	.LVL73:
 486              		.loc 1 189 0
 487 01d2 0029     		cmp	r1, #0
 488 01d4 08BF     		it	eq
 489 01d6 1946     		moveq	r1, r3
 490              	.LVL74:
 491              		.loc 1 190 0
 492 01d8 0028     		cmp	r0, #0
 493 01da 00F09B80 		beq	.L65
 494 01de 4944     		add	r1, r1, r9
 495 01e0 4B46     		mov	r3, r9
 496 01e2 01E0     		b	.L42
 497              	.LVL75:
 498              	.L40:
 499              		.loc 1 190 0 is_stmt 0 discriminator 2
 500 01e4 8B42     		cmp	r3, r1
 501 01e6 7FD0     		beq	.L90
 502              	.LVL76:
 503              	.L42:
 504              		.loc 1 190 0 discriminator 1
 505 01e8 5A78     		ldrb	r2, [r3, #1]	@ zero_extendqisi2
 506 01ea 0133     		adds	r3, r3, #1
 507              	.LVL77:
 508 01ec 002A     		cmp	r2, #0
 509 01ee F9D1     		bne	.L40
 510 01f0 C9EB0300 		rsb	r0, r9, r3
 511 01f4 00F1FF3A 		add	r10, r0, #-1
 512              		.loc 1 185 0 is_stmt 1
 513 01f8 4FF02008 		mov	r8, #32
ARM GAS  C:\Users\jsyoon\AppData\Local\Temp\ccC774ap.s 			page 10


 514 01fc AEE7     		b	.L37
 515              	.LVL78:
 516              	.L35:
 517              		.loc 1 209 0
 518 01fe 0737     		adds	r7, r7, #7
 519              	.LVL79:
 520 0200 27F00707 		bic	r7, r7, #7
 521              	.LVL80:
 522 0204 D7E90001 		ldrd	r0, [r7]
 523 0208 CDF804C0 		str	ip, [sp, #4]
 524 020c FFF7FEFF 		bl	__aeabi_d2f
 525              	.LVL81:
 526 0210 08EE100A 		fmsr	s16, r0
 527              		.loc 1 210 0
 528 0214 B5EEC08A 		fcmpezs	s16
 529 0218 F1EE10FA 		fmstat
 530              		.loc 1 209 0
 531 021c 07F10807 		add	r7, r7, #8
 532              	.LVL82:
 533              		.loc 1 210 0
 534 0220 DDF804C0 		ldr	ip, [sp, #4]
 535              	.LVL83:
 536 0224 6ED4     		bmi	.L91
 537              		.loc 1 132 0
 538 0226 5846     		mov	r0, fp
 539              	.LVL84:
 540              	.L46:
 541              	.LBB16:
 542              	.LBB17:
 543              		.loc 1 80 0
 544 0228 FDEEC87A 		ftosizs	s15, s16
 545              		.loc 1 81 0
 546 022c 0A22     		movs	r2, #10
 547 022e 17EE901A 		fmrs	r1, s15	@ int
 548 0232 0023     		movs	r3, #0
 549              		.loc 1 80 0
 550 0234 17EE90AA 		fmrs	r10, s15	@ int
 551              	.LVL85:
 552              		.loc 1 81 0
 553 0238 CDF804C0 		str	ip, [sp, #4]
 554 023c FFF7FEFF 		bl	long_to_string_with_divisor
 555              	.LVL86:
 556              		.loc 1 82 0
 557 0240 8146     		mov	r9, r0
 558 0242 2E23     		movs	r3, #46
 559 0244 09F8013B 		strb	r3, [r9], #1
 560              	.LVL87:
 561              	.LBE17:
 562              	.LBE16:
 563              		.loc 1 214 0
 564 0248 18EE100A 		fmrs	r0, s16
 565 024c FFF7FEFF 		bl	__aeabi_f2d
 566              	.LVL88:
 567 0250 CDE90201 		strd	r0, [sp, #8]
 568              	.LBB19:
 569              	.LBB18:
 570              		.loc 1 83 0
ARM GAS  C:\Users\jsyoon\AppData\Local\Temp\ccC774ap.s 			page 11


 571 0254 5046     		mov	r0, r10
 572 0256 FFF7FEFF 		bl	__aeabi_i2d
 573              	.LVL89:
 574 025a 0246     		mov	r2, r0
 575 025c 0B46     		mov	r3, r1
 576 025e DDE90201 		ldrd	r0, [sp, #8]
 577 0262 FFF7FEFF 		bl	__aeabi_dsub
 578              	.LVL90:
 579 0266 2EA3     		adr	r3, .L93
 580 0268 D3E90023 		ldrd	r2, [r3]
 581 026c FFF7FEFF 		bl	__aeabi_dmul
 582              	.LVL91:
 583 0270 FFF7FEFF 		bl	__aeabi_d2iz
 584              	.LVL92:
 585              		.loc 1 84 0
 586 0274 0A22     		movs	r2, #10
 587              		.loc 1 83 0
 588 0276 0146     		mov	r1, r0
 589              		.loc 1 84 0
 590 0278 42F21073 		movw	r3, #10000
 591 027c 4846     		mov	r0, r9
 592 027e 64E7     		b	.L83
 593              	.LVL93:
 594              	.L34:
 595 0280 0DF11100 		add	r0, sp, #17
 596              	.LVL94:
 597              	.LBE18:
 598              	.LBE19:
 599              		.loc 1 182 0
 600 0284 3B68     		ldr	r3, [r7]
 601 0286 8DF81030 		strb	r3, [sp, #16]
 602 028a CBEB0000 		rsb	r0, fp, r0
 603              	.LVL95:
 604 028e 00F1FF3A 		add	r10, r0, #-1
 605 0292 0437     		adds	r7, r7, #4
 606              	.LVL96:
 607              		.loc 1 181 0
 608 0294 4FF02008 		mov	r8, #32
 609              		.loc 1 133 0
 610 0298 D946     		mov	r9, fp
 611              		.loc 1 183 0
 612 029a 5FE7     		b	.L37
 613              	.LVL97:
 614              	.L31:
 615 029c 0822     		movs	r2, #8
 616 029e 4EE7     		b	.L32
 617              	.LVL98:
 618              	.L29:
 619              		.loc 1 198 0
 620 02a0 3968     		ldr	r1, [r7]
 621              	.LVL99:
 622              		.loc 1 201 0
 623 02a2 0029     		cmp	r1, #0
 624              		.loc 1 198 0
 625 02a4 07F10407 		add	r7, r7, #4
 626              	.LVL100:
 627              		.loc 1 201 0
ARM GAS  C:\Users\jsyoon\AppData\Local\Temp\ccC774ap.s 			page 12


 628 02a8 25DB     		blt	.L92
 629              		.loc 1 132 0
 630 02aa 5846     		mov	r0, fp
 631              	.LVL101:
 632              	.L45:
 633              	.LBB20:
 634              	.LBB21:
 635              		.loc 1 72 0
 636 02ac 0A22     		movs	r2, #10
 637              	.LVL102:
 638 02ae 49E7     		b	.L82
 639              	.LVL103:
 640              	.L28:
 641 02b0 0DF11100 		add	r0, sp, #17
 642              	.LVL104:
 643 02b4 CBEB0000 		rsb	r0, fp, r0
 644              	.LVL105:
 645              	.LBE21:
 646              	.LBE20:
 647              		.loc 1 236 0
 648 02b8 8DF81020 		strb	r2, [sp, #16]
 649 02bc 00F1FF3A 		add	r10, r0, #-1
 650              		.loc 1 133 0
 651 02c0 D946     		mov	r9, fp
 652              		.loc 1 237 0
 653 02c2 4BE7     		b	.L37
 654              	.LVL106:
 655              	.L18:
 656 02c4 5A78     		ldrb	r2, [r3, #1]	@ zero_extendqisi2
 657              		.loc 1 142 0
 658 02c6 4FF03008 		mov	r8, #48
 659              		.loc 1 141 0
 660 02ca 0133     		adds	r3, r3, #1
 661              	.LVL107:
 662 02cc C6E6     		b	.L19
 663              	.LVL108:
 664              	.L89:
 665              		.loc 1 245 0 discriminator 1
 666 02ce B8F1300F 		cmp	r8, #48
 667 02d2 7FF450AF 		bne	.L52
 668              	.LVL109:
 669              		.loc 1 246 0
 670 02d6 2B68     		ldr	r3, [r5]
 671 02d8 2846     		mov	r0, r5
 672              	.LVL110:
 673 02da 9B68     		ldr	r3, [r3, #8]
 674 02dc 9847     		blx	r3
 675              	.LVL111:
 676 02de 09F10109 		add	r9, r9, #1
 677              	.LVL112:
 678 02e2 0AF1FF3A 		add	r10, r10, #-1
 679              	.LVL113:
 680 02e6 46E7     		b	.L52
 681              	.LVL114:
 682              	.L90:
 683 02e8 C9EB0100 		rsb	r0, r9, r1
 684 02ec 00F1FF3A 		add	r10, r0, #-1
ARM GAS  C:\Users\jsyoon\AppData\Local\Temp\ccC774ap.s 			page 13


 685              		.loc 1 185 0
 686 02f0 4FF02008 		mov	r8, #32
 687 02f4 32E7     		b	.L37
 688              	.LVL115:
 689              	.L92:
 690              		.loc 1 202 0
 691 02f6 2D23     		movs	r3, #45
 692              		.loc 1 203 0
 693 02f8 4942     		negs	r1, r1
 694              	.LVL116:
 695              		.loc 1 202 0
 696 02fa 8DF81030 		strb	r3, [sp, #16]
 697 02fe 0DF11100 		add	r0, sp, #17
 698              	.LVL117:
 699 0302 D3E7     		b	.L45
 700              	.LVL118:
 701              	.L91:
 702              		.loc 1 211 0
 703 0304 2D23     		movs	r3, #45
 704              		.loc 1 212 0
 705 0306 B1EE488A 		fnegs	s16, s16
 706              	.LVL119:
 707              		.loc 1 211 0
 708 030a 8DF81030 		strb	r3, [sp, #16]
 709 030e 0DF11100 		add	r0, sp, #17
 710              	.LVL120:
 711 0312 89E7     		b	.L46
 712              	.LVL121:
 713              	.L65:
 714              		.loc 1 190 0
 715 0314 4FF0FF3A 		mov	r10, #-1
 716              		.loc 1 185 0
 717 0318 4FF02008 		mov	r8, #32
 718 031c 1EE7     		b	.L37
 719              	.L94:
 720 031e 00BF     		.align	3
 721              	.L93:
 722 0320 00000000 		.word	0
 723 0324 006AF840 		.word	1090021888
 724 0328 00000000 		.word	.LC0
 725              		.cfi_endproc
 726              	.LFE11:
 727              		.size	chvprintf, .-chvprintf
 728 032c AFF30080 		.section	.text.chsnprintf,"ax",%progbits
 729              		.align	2
 730              		.p2align 4,,15
 731              		.global	chsnprintf
 732              		.thumb
 733              		.thumb_func
 734              		.type	chsnprintf, %function
 735              	chsnprintf:
 736              	.LFB12:
 737              		.loc 1 288 0
 738              		.cfi_startproc
 739              		@ args = 4, pretend = 8, frame = 24
 740              		@ frame_needed = 0, uses_anonymous_args = 1
 741              	.LVL122:
ARM GAS  C:\Users\jsyoon\AppData\Local\Temp\ccC774ap.s 			page 14


 742 0000 0CB4     		push	{r2, r3}
 743              		.cfi_def_cfa_offset 8
 744              		.cfi_offset 2, -8
 745              		.cfi_offset 3, -4
 746 0002 30B5     		push	{r4, r5, lr}
 747              		.cfi_def_cfa_offset 20
 748              		.cfi_offset 4, -20
 749              		.cfi_offset 5, -16
 750              		.cfi_offset 14, -12
 751 0004 87B0     		sub	sp, sp, #28
 752              		.cfi_def_cfa_offset 48
 753              		.loc 1 288 0
 754 0006 0AAC     		add	r4, sp, #40
 755 0008 0A46     		mov	r2, r1
 756 000a 54F8045B 		ldr	r5, [r4], #4
 757              		.loc 1 294 0
 758 000e 0146     		mov	r1, r0
 759              	.LVL123:
 760 0010 0023     		movs	r3, #0
 761 0012 01A8     		add	r0, sp, #4
 762              	.LVL124:
 763 0014 FFF7FEFF 		bl	msObjectInit
 764              	.LVL125:
 765              		.loc 1 299 0
 766 0018 2946     		mov	r1, r5
 767 001a 2246     		mov	r2, r4
 768 001c 01A8     		add	r0, sp, #4
 769              	.LVL126:
 770              		.loc 1 298 0
 771 001e 0094     		str	r4, [sp]
 772              		.loc 1 299 0
 773 0020 FFF7FEFF 		bl	chvprintf
 774              	.LVL127:
 775              		.loc 1 303 0
 776 0024 019B     		ldr	r3, [sp, #4]
 777 0026 01A8     		add	r0, sp, #4
 778              	.LVL128:
 779 0028 9B68     		ldr	r3, [r3, #8]
 780 002a 0021     		movs	r1, #0
 781 002c 9847     		blx	r3
 782              	.LVL129:
 783              		.loc 1 304 0
 784 002e 0498     		ldr	r0, [sp, #16]
 785              		.loc 1 305 0
 786 0030 0138     		subs	r0, r0, #1
 787 0032 07B0     		add	sp, sp, #28
 788              		@ sp needed
 789 0034 BDE83040 		pop	{r4, r5, lr}
 790 0038 02B0     		add	sp, sp, #8
 791 003a 7047     		bx	lr
 792              		.cfi_endproc
 793              	.LFE12:
 794              		.size	chsnprintf, .-chsnprintf
 795 003c AFF30080 		.section	.rodata.str1.4,"aMS",%progbits,1
 796              		.align	2
 797              	.LC0:
 798 0000 286E756C 		.ascii	"(null)\000"
ARM GAS  C:\Users\jsyoon\AppData\Local\Temp\ccC774ap.s 			page 15


 798      6C2900
 799 0007 00       		.text
 800              	.Letext0:
 801              		.file 2 "c:\\crosstools\\gcc-arm-embedded\\4.8_2014q2\\lib\\gcc\\arm-none-eabi\\4.8.4\\include\\st
 802              		.file 3 "c:\\crosstools\\gcc-arm-embedded\\4.8_2014q2\\arm-none-eabi\\include\\machine\\_default_t
 803              		.file 4 "c:\\crosstools\\gcc-arm-embedded\\4.8_2014q2\\arm-none-eabi\\include\\stdint.h"
 804              		.file 5 "ChibiOS_2.6.6/os/ports/GCC/ARMCMx/chtypes.h"
 805              		.file 6 "ChibiOS_2.6.6/os/kernel/include/chstreams.h"
 806              		.file 7 "c:\\crosstools\\gcc-arm-embedded\\4.8_2014q2\\lib\\gcc\\arm-none-eabi\\4.8.4\\include\\st
 807              		.file 8 "<built-in>"
 808              		.file 9 "ChibiOS_2.6.6/os/various/memstreams.h"
 809              		.section	.debug_info,"",%progbits
 810              	.Ldebug_info0:
 811 0000 93060000 		.4byte	0x693
 812 0004 0400     		.2byte	0x4
 813 0006 00000000 		.4byte	.Ldebug_abbrev0
 814 000a 04       		.byte	0x4
 815 000b 01       		.uleb128 0x1
 816 000c CF000000 		.4byte	.LASF43
 817 0010 01       		.byte	0x1
 818 0011 35000000 		.4byte	.LASF44
 819 0015 81000000 		.4byte	.LASF45
 820 0019 30000000 		.4byte	.Ldebug_ranges0+0x30
 821 001d 00000000 		.4byte	0
 822 0021 00000000 		.4byte	.Ldebug_line0
 823 0025 02       		.uleb128 0x2
 824 0026 08       		.byte	0x8
 825 0027 04       		.byte	0x4
 826 0028 F3010000 		.4byte	.LASF0
 827 002c 03       		.uleb128 0x3
 828 002d 04       		.byte	0x4
 829 002e 05       		.byte	0x5
 830 002f 696E7400 		.ascii	"int\000"
 831 0033 02       		.uleb128 0x2
 832 0034 04       		.byte	0x4
 833 0035 04       		.byte	0x4
 834 0036 C8020000 		.4byte	.LASF1
 835 003a 04       		.uleb128 0x4
 836 003b 00000000 		.4byte	.LASF4
 837 003f 02       		.byte	0x2
 838 0040 D4       		.byte	0xd4
 839 0041 45000000 		.4byte	0x45
 840 0045 02       		.uleb128 0x2
 841 0046 04       		.byte	0x4
 842 0047 07       		.byte	0x7
 843 0048 25020000 		.4byte	.LASF2
 844 004c 02       		.uleb128 0x2
 845 004d 01       		.byte	0x1
 846 004e 06       		.byte	0x6
 847 004f 67000000 		.4byte	.LASF3
 848 0053 04       		.uleb128 0x4
 849 0054 07000000 		.4byte	.LASF5
 850 0058 03       		.byte	0x3
 851 0059 1C       		.byte	0x1c
 852 005a 5E000000 		.4byte	0x5e
 853 005e 02       		.uleb128 0x2
 854 005f 01       		.byte	0x1
ARM GAS  C:\Users\jsyoon\AppData\Local\Temp\ccC774ap.s 			page 16


 855 0060 08       		.byte	0x8
 856 0061 E9020000 		.4byte	.LASF6
 857 0065 02       		.uleb128 0x2
 858 0066 02       		.byte	0x2
 859 0067 05       		.byte	0x5
 860 0068 F7020000 		.4byte	.LASF7
 861 006c 02       		.uleb128 0x2
 862 006d 02       		.byte	0x2
 863 006e 07       		.byte	0x7
 864 006f 5A020000 		.4byte	.LASF8
 865 0073 04       		.uleb128 0x4
 866 0074 2E030000 		.4byte	.LASF9
 867 0078 03       		.byte	0x3
 868 0079 37       		.byte	0x37
 869 007a 7E000000 		.4byte	0x7e
 870 007e 02       		.uleb128 0x2
 871 007f 04       		.byte	0x4
 872 0080 05       		.byte	0x5
 873 0081 B1000000 		.4byte	.LASF10
 874 0085 02       		.uleb128 0x2
 875 0086 04       		.byte	0x4
 876 0087 07       		.byte	0x7
 877 0088 32020000 		.4byte	.LASF11
 878 008c 02       		.uleb128 0x2
 879 008d 08       		.byte	0x8
 880 008e 05       		.byte	0x5
 881 008f 59000000 		.4byte	.LASF12
 882 0093 02       		.uleb128 0x2
 883 0094 08       		.byte	0x8
 884 0095 07       		.byte	0x7
 885 0096 1E000000 		.4byte	.LASF13
 886 009a 04       		.uleb128 0x4
 887 009b 44030000 		.4byte	.LASF14
 888 009f 04       		.byte	0x4
 889 00a0 2A       		.byte	0x2a
 890 00a1 53000000 		.4byte	0x53
 891 00a5 04       		.uleb128 0x4
 892 00a6 E1020000 		.4byte	.LASF15
 893 00aa 04       		.byte	0x4
 894 00ab 41       		.byte	0x41
 895 00ac 73000000 		.4byte	0x73
 896 00b0 04       		.uleb128 0x4
 897 00b1 73000000 		.4byte	.LASF16
 898 00b5 05       		.byte	0x5
 899 00b6 2B       		.byte	0x2b
 900 00b7 BB000000 		.4byte	0xbb
 901 00bb 02       		.uleb128 0x2
 902 00bc 01       		.byte	0x1
 903 00bd 02       		.byte	0x2
 904 00be DB020000 		.4byte	.LASF17
 905 00c2 04       		.uleb128 0x4
 906 00c3 6D020000 		.4byte	.LASF18
 907 00c7 05       		.byte	0x5
 908 00c8 31       		.byte	0x31
 909 00c9 A5000000 		.4byte	0xa5
 910 00cd 05       		.uleb128 0x5
 911 00ce 04       		.byte	0x4
ARM GAS  C:\Users\jsyoon\AppData\Local\Temp\ccC774ap.s 			page 17


 912 00cf 02       		.uleb128 0x2
 913 00d0 04       		.byte	0x4
 914 00d1 07       		.byte	0x7
 915 00d2 8B020000 		.4byte	.LASF19
 916 00d6 06       		.uleb128 0x6
 917 00d7 04       		.byte	0x4
 918 00d8 DC000000 		.4byte	0xdc
 919 00dc 07       		.uleb128 0x7
 920 00dd E1000000 		.4byte	0xe1
 921 00e1 02       		.uleb128 0x2
 922 00e2 01       		.byte	0x1
 923 00e3 08       		.byte	0x8
 924 00e4 1F030000 		.4byte	.LASF20
 925 00e8 06       		.uleb128 0x6
 926 00e9 04       		.byte	0x4
 927 00ea EE000000 		.4byte	0xee
 928 00ee 08       		.uleb128 0x8
 929 00ef C2000000 		.4byte	0xc2
 930 00f3 FD000000 		.4byte	0xfd
 931 00f7 09       		.uleb128 0x9
 932 00f8 CD000000 		.4byte	0xcd
 933 00fc 00       		.byte	0
 934 00fd 06       		.uleb128 0x6
 935 00fe 04       		.byte	0x4
 936 00ff 9A000000 		.4byte	0x9a
 937 0103 0A       		.uleb128 0xa
 938 0104 01030000 		.4byte	.LASF25
 939 0108 10       		.byte	0x10
 940 0109 06       		.byte	0x6
 941 010a 48       		.byte	0x48
 942 010b 40010000 		.4byte	0x140
 943 010f 0B       		.uleb128 0xb
 944 0110 85020000 		.4byte	.LASF21
 945 0114 06       		.byte	0x6
 946 0115 49       		.byte	0x49
 947 0116 64010000 		.4byte	0x164
 948 011a 00       		.byte	0
 949 011b 0B       		.uleb128 0xb
 950 011c 56030000 		.4byte	.LASF22
 951 0120 06       		.byte	0x6
 952 0121 49       		.byte	0x49
 953 0122 83010000 		.4byte	0x183
 954 0126 04       		.byte	0x4
 955 0127 0C       		.uleb128 0xc
 956 0128 70757400 		.ascii	"put\000"
 957 012c 06       		.byte	0x6
 958 012d 49       		.byte	0x49
 959 012e 9D010000 		.4byte	0x19d
 960 0132 08       		.byte	0x8
 961 0133 0C       		.uleb128 0xc
 962 0134 67657400 		.ascii	"get\000"
 963 0138 06       		.byte	0x6
 964 0139 49       		.byte	0x49
 965 013a E8000000 		.4byte	0xe8
 966 013e 0C       		.byte	0xc
 967 013f 00       		.byte	0
 968 0140 08       		.uleb128 0x8
ARM GAS  C:\Users\jsyoon\AppData\Local\Temp\ccC774ap.s 			page 18


 969 0141 3A000000 		.4byte	0x3a
 970 0145 59010000 		.4byte	0x159
 971 0149 09       		.uleb128 0x9
 972 014a CD000000 		.4byte	0xcd
 973 014e 09       		.uleb128 0x9
 974 014f 59010000 		.4byte	0x159
 975 0153 09       		.uleb128 0x9
 976 0154 3A000000 		.4byte	0x3a
 977 0158 00       		.byte	0
 978 0159 06       		.uleb128 0x6
 979 015a 04       		.byte	0x4
 980 015b 5F010000 		.4byte	0x15f
 981 015f 07       		.uleb128 0x7
 982 0160 9A000000 		.4byte	0x9a
 983 0164 06       		.uleb128 0x6
 984 0165 04       		.byte	0x4
 985 0166 40010000 		.4byte	0x140
 986 016a 08       		.uleb128 0x8
 987 016b 3A000000 		.4byte	0x3a
 988 016f 83010000 		.4byte	0x183
 989 0173 09       		.uleb128 0x9
 990 0174 CD000000 		.4byte	0xcd
 991 0178 09       		.uleb128 0x9
 992 0179 FD000000 		.4byte	0xfd
 993 017d 09       		.uleb128 0x9
 994 017e 3A000000 		.4byte	0x3a
 995 0182 00       		.byte	0
 996 0183 06       		.uleb128 0x6
 997 0184 04       		.byte	0x4
 998 0185 6A010000 		.4byte	0x16a
 999 0189 08       		.uleb128 0x8
 1000 018a C2000000 		.4byte	0xc2
 1001 018e 9D010000 		.4byte	0x19d
 1002 0192 09       		.uleb128 0x9
 1003 0193 CD000000 		.4byte	0xcd
 1004 0197 09       		.uleb128 0x9
 1005 0198 9A000000 		.4byte	0x9a
 1006 019c 00       		.byte	0
 1007 019d 06       		.uleb128 0x6
 1008 019e 04       		.byte	0x4
 1009 019f 89010000 		.4byte	0x189
 1010 01a3 0D       		.uleb128 0xd
 1011 01a4 04       		.byte	0x4
 1012 01a5 06       		.byte	0x6
 1013 01a6 51       		.byte	0x51
 1014 01a7 B8010000 		.4byte	0x1b8
 1015 01ab 0C       		.uleb128 0xc
 1016 01ac 766D7400 		.ascii	"vmt\000"
 1017 01b0 06       		.byte	0x6
 1018 01b1 53       		.byte	0x53
 1019 01b2 B8010000 		.4byte	0x1b8
 1020 01b6 00       		.byte	0
 1021 01b7 00       		.byte	0
 1022 01b8 06       		.uleb128 0x6
 1023 01b9 04       		.byte	0x4
 1024 01ba BE010000 		.4byte	0x1be
 1025 01be 07       		.uleb128 0x7
ARM GAS  C:\Users\jsyoon\AppData\Local\Temp\ccC774ap.s 			page 19


 1026 01bf 03010000 		.4byte	0x103
 1027 01c3 04       		.uleb128 0x4
 1028 01c4 10020000 		.4byte	.LASF23
 1029 01c8 06       		.byte	0x6
 1030 01c9 55       		.byte	0x55
 1031 01ca A3010000 		.4byte	0x1a3
 1032 01ce 04       		.uleb128 0x4
 1033 01cf AC020000 		.4byte	.LASF24
 1034 01d3 07       		.byte	0x7
 1035 01d4 28       		.byte	0x28
 1036 01d5 D9010000 		.4byte	0x1d9
 1037 01d9 0A       		.uleb128 0xa
 1038 01da C5000000 		.4byte	.LASF26
 1039 01de 04       		.byte	0x4
 1040 01df 08       		.byte	0x8
 1041 01e0 00       		.byte	0
 1042 01e1 F0010000 		.4byte	0x1f0
 1043 01e5 0E       		.uleb128 0xe
 1044 01e6 3F030000 		.4byte	.LASF46
 1045 01ea CD000000 		.4byte	0xcd
 1046 01ee 00       		.byte	0
 1047 01ef 00       		.byte	0
 1048 01f0 04       		.uleb128 0x4
 1049 01f1 11000000 		.4byte	.LASF27
 1050 01f5 07       		.byte	0x7
 1051 01f6 62       		.byte	0x62
 1052 01f7 CE010000 		.4byte	0x1ce
 1053 01fb 0A       		.uleb128 0xa
 1054 01fc BB020000 		.4byte	.LASF28
 1055 0200 10       		.byte	0x10
 1056 0201 09       		.byte	0x9
 1057 0202 3D       		.byte	0x3d
 1058 0203 38020000 		.4byte	0x238
 1059 0207 0B       		.uleb128 0xb
 1060 0208 85020000 		.4byte	.LASF21
 1061 020c 09       		.byte	0x9
 1062 020d 3E       		.byte	0x3e
 1063 020e 64010000 		.4byte	0x164
 1064 0212 00       		.byte	0
 1065 0213 0B       		.uleb128 0xb
 1066 0214 56030000 		.4byte	.LASF22
 1067 0218 09       		.byte	0x9
 1068 0219 3E       		.byte	0x3e
 1069 021a 83010000 		.4byte	0x183
 1070 021e 04       		.byte	0x4
 1071 021f 0C       		.uleb128 0xc
 1072 0220 70757400 		.ascii	"put\000"
 1073 0224 09       		.byte	0x9
 1074 0225 3E       		.byte	0x3e
 1075 0226 9D010000 		.4byte	0x19d
 1076 022a 08       		.byte	0x8
 1077 022b 0C       		.uleb128 0xc
 1078 022c 67657400 		.ascii	"get\000"
 1079 0230 09       		.byte	0x9
 1080 0231 3E       		.byte	0x3e
 1081 0232 E8000000 		.4byte	0xe8
 1082 0236 0C       		.byte	0xc
ARM GAS  C:\Users\jsyoon\AppData\Local\Temp\ccC774ap.s 			page 20


 1083 0237 00       		.byte	0
 1084 0238 0D       		.uleb128 0xd
 1085 0239 14       		.byte	0x14
 1086 023a 09       		.byte	0x9
 1087 023b 46       		.byte	0x46
 1088 023c 7D020000 		.4byte	0x27d
 1089 0240 0C       		.uleb128 0xc
 1090 0241 766D7400 		.ascii	"vmt\000"
 1091 0245 09       		.byte	0x9
 1092 0246 48       		.byte	0x48
 1093 0247 7D020000 		.4byte	0x27d
 1094 024b 00       		.byte	0
 1095 024c 0B       		.uleb128 0xb
 1096 024d FA010000 		.4byte	.LASF29
 1097 0251 09       		.byte	0x9
 1098 0252 49       		.byte	0x49
 1099 0253 FD000000 		.4byte	0xfd
 1100 0257 04       		.byte	0x4
 1101 0258 0B       		.uleb128 0xb
 1102 0259 55020000 		.4byte	.LASF30
 1103 025d 09       		.byte	0x9
 1104 025e 49       		.byte	0x49
 1105 025f 3A000000 		.4byte	0x3a
 1106 0263 08       		.byte	0x8
 1107 0264 0C       		.uleb128 0xc
 1108 0265 656F7300 		.ascii	"eos\000"
 1109 0269 09       		.byte	0x9
 1110 026a 49       		.byte	0x49
 1111 026b 3A000000 		.4byte	0x3a
 1112 026f 0C       		.byte	0xc
 1113 0270 0B       		.uleb128 0xb
 1114 0271 38030000 		.4byte	.LASF31
 1115 0275 09       		.byte	0x9
 1116 0276 49       		.byte	0x49
 1117 0277 3A000000 		.4byte	0x3a
 1118 027b 10       		.byte	0x10
 1119 027c 00       		.byte	0
 1120 027d 06       		.uleb128 0x6
 1121 027e 04       		.byte	0x4
 1122 027f 83020000 		.4byte	0x283
 1123 0283 07       		.uleb128 0x7
 1124 0284 FB010000 		.4byte	0x1fb
 1125 0288 04       		.uleb128 0x4
 1126 0289 CE020000 		.4byte	.LASF32
 1127 028d 09       		.byte	0x9
 1128 028e 4A       		.byte	0x4a
 1129 028f 38020000 		.4byte	0x238
 1130 0293 0F       		.uleb128 0xf
 1131 0294 73020000 		.4byte	.LASF35
 1132 0298 01       		.byte	0x1
 1133 0299 46       		.byte	0x46
 1134 029a C3020000 		.4byte	0x2c3
 1135 029e 01       		.byte	0x1
 1136 029f C3020000 		.4byte	0x2c3
 1137 02a3 10       		.uleb128 0x10
 1138 02a4 7000     		.ascii	"p\000"
 1139 02a6 01       		.byte	0x1
ARM GAS  C:\Users\jsyoon\AppData\Local\Temp\ccC774ap.s 			page 21


 1140 02a7 46       		.byte	0x46
 1141 02a8 C3020000 		.4byte	0x2c3
 1142 02ac 10       		.uleb128 0x10
 1143 02ad 6E756D00 		.ascii	"num\000"
 1144 02b1 01       		.byte	0x1
 1145 02b2 46       		.byte	0x46
 1146 02b3 7E000000 		.4byte	0x7e
 1147 02b7 11       		.uleb128 0x11
 1148 02b8 19030000 		.4byte	.LASF33
 1149 02bc 01       		.byte	0x1
 1150 02bd 46       		.byte	0x46
 1151 02be 45000000 		.4byte	0x45
 1152 02c2 00       		.byte	0
 1153 02c3 06       		.uleb128 0x6
 1154 02c4 04       		.byte	0x4
 1155 02c5 E1000000 		.4byte	0xe1
 1156 02c9 12       		.uleb128 0x12
 1157 02ca 5B030000 		.4byte	.LASF47
 1158 02ce 01       		.byte	0x1
 1159 02cf 25       		.byte	0x25
 1160 02d0 C3020000 		.4byte	0x2c3
 1161 02d4 00000000 		.4byte	.LFB8
 1162 02d8 4E000000 		.4byte	.LFE8-.LFB8
 1163 02dc 01       		.uleb128 0x1
 1164 02dd 9C       		.byte	0x9c
 1165 02de 52030000 		.4byte	0x352
 1166 02e2 13       		.uleb128 0x13
 1167 02e3 7000     		.ascii	"p\000"
 1168 02e5 01       		.byte	0x1
 1169 02e6 25       		.byte	0x25
 1170 02e7 C3020000 		.4byte	0x2c3
 1171 02eb 00000000 		.4byte	.LLST0
 1172 02ef 13       		.uleb128 0x13
 1173 02f0 6E756D00 		.ascii	"num\000"
 1174 02f4 01       		.byte	0x1
 1175 02f5 26       		.byte	0x26
 1176 02f6 7E000000 		.4byte	0x7e
 1177 02fa 38000000 		.4byte	.LLST1
 1178 02fe 14       		.uleb128 0x14
 1179 02ff 19030000 		.4byte	.LASF33
 1180 0303 01       		.byte	0x1
 1181 0304 27       		.byte	0x27
 1182 0305 45000000 		.4byte	0x45
 1183 0309 59000000 		.4byte	.LLST2
 1184 030d 14       		.uleb128 0x14
 1185 030e A4020000 		.4byte	.LASF34
 1186 0312 01       		.byte	0x1
 1187 0313 28       		.byte	0x28
 1188 0314 7E000000 		.4byte	0x7e
 1189 0318 7A000000 		.4byte	.LLST3
 1190 031c 15       		.uleb128 0x15
 1191 031d 6900     		.ascii	"i\000"
 1192 031f 01       		.byte	0x1
 1193 0320 29       		.byte	0x29
 1194 0321 2C000000 		.4byte	0x2c
 1195 0325 9B000000 		.4byte	.LLST4
 1196 0329 15       		.uleb128 0x15
ARM GAS  C:\Users\jsyoon\AppData\Local\Temp\ccC774ap.s 			page 22


 1197 032a 7100     		.ascii	"q\000"
 1198 032c 01       		.byte	0x1
 1199 032d 2A       		.byte	0x2a
 1200 032e C3020000 		.4byte	0x2c3
 1201 0332 C9000000 		.4byte	.LLST5
 1202 0336 15       		.uleb128 0x15
 1203 0337 6C00     		.ascii	"l\000"
 1204 0339 01       		.byte	0x1
 1205 033a 2B       		.byte	0x2b
 1206 033b 7E000000 		.4byte	0x7e
 1207 033f FF000000 		.4byte	.LLST6
 1208 0343 15       		.uleb128 0x15
 1209 0344 6C6C00   		.ascii	"ll\000"
 1210 0347 01       		.byte	0x1
 1211 0348 2B       		.byte	0x2b
 1212 0349 7E000000 		.4byte	0x7e
 1213 034d 1D010000 		.4byte	.LLST7
 1214 0351 00       		.byte	0
 1215 0352 0F       		.uleb128 0xf
 1216 0353 19000000 		.4byte	.LASF36
 1217 0357 01       		.byte	0x1
 1218 0358 4C       		.byte	0x4c
 1219 0359 C3020000 		.4byte	0x2c3
 1220 035d 01       		.byte	0x1
 1221 035e 8B030000 		.4byte	0x38b
 1222 0362 10       		.uleb128 0x10
 1223 0363 7000     		.ascii	"p\000"
 1224 0365 01       		.byte	0x1
 1225 0366 4C       		.byte	0x4c
 1226 0367 C3020000 		.4byte	0x2c3
 1227 036b 10       		.uleb128 0x10
 1228 036c 6E756D00 		.ascii	"num\000"
 1229 0370 01       		.byte	0x1
 1230 0371 4C       		.byte	0x4c
 1231 0372 25000000 		.4byte	0x25
 1232 0376 16       		.uleb128 0x16
 1233 0377 6C00     		.ascii	"l\000"
 1234 0379 01       		.byte	0x1
 1235 037a 4D       		.byte	0x4d
 1236 037b 7E000000 		.4byte	0x7e
 1237 037f 17       		.uleb128 0x17
 1238 0380 24030000 		.4byte	.LASF37
 1239 0384 01       		.byte	0x1
 1240 0385 4E       		.byte	0x4e
 1241 0386 85000000 		.4byte	0x85
 1242 038a 00       		.byte	0
 1243 038b 18       		.uleb128 0x18
 1244 038c 4C030000 		.4byte	.LASF48
 1245 0390 01       		.byte	0x1
 1246 0391 70       		.byte	0x70
 1247 0392 00000000 		.4byte	.LFB11
 1248 0396 2C030000 		.4byte	.LFE11-.LFB11
 1249 039a 01       		.uleb128 0x1
 1250 039b 9C       		.byte	0x9c
 1251 039c 8B050000 		.4byte	0x58b
 1252 03a0 13       		.uleb128 0x13
 1253 03a1 63687000 		.ascii	"chp\000"
ARM GAS  C:\Users\jsyoon\AppData\Local\Temp\ccC774ap.s 			page 23


 1254 03a5 01       		.byte	0x1
 1255 03a6 70       		.byte	0x70
 1256 03a7 8B050000 		.4byte	0x58b
 1257 03ab 3B010000 		.4byte	.LLST8
 1258 03af 13       		.uleb128 0x13
 1259 03b0 666D7400 		.ascii	"fmt\000"
 1260 03b4 01       		.byte	0x1
 1261 03b5 70       		.byte	0x70
 1262 03b6 D6000000 		.4byte	0xd6
 1263 03ba 59010000 		.4byte	.LLST9
 1264 03be 13       		.uleb128 0x13
 1265 03bf 617000   		.ascii	"ap\000"
 1266 03c2 01       		.byte	0x1
 1267 03c3 70       		.byte	0x70
 1268 03c4 F0010000 		.4byte	0x1f0
 1269 03c8 F6010000 		.4byte	.LLST10
 1270 03cc 15       		.uleb128 0x15
 1271 03cd 7000     		.ascii	"p\000"
 1272 03cf 01       		.byte	0x1
 1273 03d0 71       		.byte	0x71
 1274 03d1 C3020000 		.4byte	0x2c3
 1275 03d5 17030000 		.4byte	.LLST11
 1276 03d9 15       		.uleb128 0x15
 1277 03da 7300     		.ascii	"s\000"
 1278 03dc 01       		.byte	0x1
 1279 03dd 71       		.byte	0x71
 1280 03de C3020000 		.4byte	0x2c3
 1281 03e2 25040000 		.4byte	.LLST12
 1282 03e6 15       		.uleb128 0x15
 1283 03e7 6300     		.ascii	"c\000"
 1284 03e9 01       		.byte	0x1
 1285 03ea 71       		.byte	0x71
 1286 03eb E1000000 		.4byte	0xe1
 1287 03ef AF040000 		.4byte	.LLST13
 1288 03f3 19       		.uleb128 0x19
 1289 03f4 01020000 		.4byte	.LASF38
 1290 03f8 01       		.byte	0x1
 1291 03f9 71       		.byte	0x71
 1292 03fa E1000000 		.4byte	0xe1
 1293 03fe B4050000 		.4byte	.LLST14
 1294 0402 15       		.uleb128 0x15
 1295 0403 6900     		.ascii	"i\000"
 1296 0405 01       		.byte	0x1
 1297 0406 72       		.byte	0x72
 1298 0407 2C000000 		.4byte	0x2c
 1299 040b 41060000 		.4byte	.LLST15
 1300 040f 19       		.uleb128 0x19
 1301 0410 24030000 		.4byte	.LASF37
 1302 0414 01       		.byte	0x1
 1303 0415 72       		.byte	0x72
 1304 0416 2C000000 		.4byte	0x2c
 1305 041a 77060000 		.4byte	.LLST16
 1306 041e 19       		.uleb128 0x19
 1307 041f 4F020000 		.4byte	.LASF39
 1308 0423 01       		.byte	0x1
 1309 0424 72       		.byte	0x72
 1310 0425 2C000000 		.4byte	0x2c
ARM GAS  C:\Users\jsyoon\AppData\Local\Temp\ccC774ap.s 			page 24


 1311 0429 9A060000 		.4byte	.LLST17
 1312 042d 19       		.uleb128 0x19
 1313 042e 08020000 		.4byte	.LASF40
 1314 0432 01       		.byte	0x1
 1315 0433 73       		.byte	0x73
 1316 0434 B0000000 		.4byte	0xb0
 1317 0438 0A070000 		.4byte	.LLST18
 1318 043c 19       		.uleb128 0x19
 1319 043d 44020000 		.4byte	.LASF41
 1320 0441 01       		.byte	0x1
 1321 0442 73       		.byte	0x73
 1322 0443 B0000000 		.4byte	0xb0
 1323 0447 1E070000 		.4byte	.LLST19
 1324 044b 15       		.uleb128 0x15
 1325 044c 6C00     		.ascii	"l\000"
 1326 044e 01       		.byte	0x1
 1327 044f 74       		.byte	0x74
 1328 0450 7E000000 		.4byte	0x7e
 1329 0454 75070000 		.4byte	.LLST20
 1330 0458 15       		.uleb128 0x15
 1331 0459 6600     		.ascii	"f\000"
 1332 045b 01       		.byte	0x1
 1333 045c 76       		.byte	0x76
 1334 045d 33000000 		.4byte	0x33
 1335 0461 9E070000 		.4byte	.LLST21
 1336 0465 1A       		.uleb128 0x1a
 1337 0466 7A000000 		.4byte	.LASF42
 1338 046a 01       		.byte	0x1
 1339 046b 77       		.byte	0x77
 1340 046c 91050000 		.4byte	0x591
 1341 0470 03       		.uleb128 0x3
 1342 0471 91       		.byte	0x91
 1343 0472 B87F     		.sleb128 -72
 1344 0474 1B       		.uleb128 0x1b
 1345 0475 94020000 		.4byte	.LASF49
 1346 0479 01       		.byte	0x1
 1347 047a E4       		.byte	0xe4
 1348 047b 3E010000 		.4byte	.L32
 1349 047f 1C       		.uleb128 0x1c
 1350 0480 93020000 		.4byte	0x293
 1351 0484 40010000 		.4byte	.LBB12
 1352 0488 00000000 		.4byte	.Ldebug_ranges0+0
 1353 048c 01       		.byte	0x1
 1354 048d E9       		.byte	0xe9
 1355 048e AB040000 		.4byte	0x4ab
 1356 0492 1D       		.uleb128 0x1d
 1357 0493 B7020000 		.4byte	0x2b7
 1358 0497 1D       		.uleb128 0x1d
 1359 0498 AC020000 		.4byte	0x2ac
 1360 049c 1D       		.uleb128 0x1d
 1361 049d A3020000 		.4byte	0x2a3
 1362 04a1 1E       		.uleb128 0x1e
 1363 04a2 4E010000 		.4byte	.LVL56
 1364 04a6 C9020000 		.4byte	0x2c9
 1365 04aa 00       		.byte	0
 1366 04ab 1C       		.uleb128 0x1c
 1367 04ac 52030000 		.4byte	0x352
ARM GAS  C:\Users\jsyoon\AppData\Local\Temp\ccC774ap.s 			page 25


 1368 04b0 28020000 		.4byte	.LBB16
 1369 04b4 18000000 		.4byte	.Ldebug_ranges0+0x18
 1370 04b8 01       		.byte	0x1
 1371 04b9 D6       		.byte	0xd6
 1372 04ba 03050000 		.4byte	0x503
 1373 04be 1F       		.uleb128 0x1f
 1374 04bf 6B030000 		.4byte	0x36b
 1375 04c3 D4070000 		.4byte	.LLST22
 1376 04c7 1F       		.uleb128 0x1f
 1377 04c8 62030000 		.4byte	0x362
 1378 04cc EC070000 		.4byte	.LLST23
 1379 04d0 20       		.uleb128 0x20
 1380 04d1 18000000 		.4byte	.Ldebug_ranges0+0x18
 1381 04d5 21       		.uleb128 0x21
 1382 04d6 76030000 		.4byte	0x376
 1383 04da 17080000 		.4byte	.LLST24
 1384 04de 21       		.uleb128 0x21
 1385 04df 7F030000 		.4byte	0x37f
 1386 04e3 47080000 		.4byte	.LLST25
 1387 04e7 22       		.uleb128 0x22
 1388 04e8 40020000 		.4byte	.LVL86
 1389 04ec C9020000 		.4byte	0x2c9
 1390 04f0 23       		.uleb128 0x23
 1391 04f1 01       		.uleb128 0x1
 1392 04f2 53       		.byte	0x53
 1393 04f3 01       		.uleb128 0x1
 1394 04f4 30       		.byte	0x30
 1395 04f5 23       		.uleb128 0x23
 1396 04f6 01       		.uleb128 0x1
 1397 04f7 52       		.byte	0x52
 1398 04f8 01       		.uleb128 0x1
 1399 04f9 3A       		.byte	0x3a
 1400 04fa 23       		.uleb128 0x23
 1401 04fb 01       		.uleb128 0x1
 1402 04fc 51       		.byte	0x51
 1403 04fd 02       		.uleb128 0x2
 1404 04fe 7A       		.byte	0x7a
 1405 04ff 00       		.sleb128 0
 1406 0500 00       		.byte	0
 1407 0501 00       		.byte	0
 1408 0502 00       		.byte	0
 1409 0503 24       		.uleb128 0x24
 1410 0504 93020000 		.4byte	0x293
 1411 0508 AC020000 		.4byte	.LBB20
 1412 050c 0C000000 		.4byte	.LBE20-.LBB20
 1413 0510 01       		.byte	0x1
 1414 0511 CD       		.byte	0xcd
 1415 0512 32050000 		.4byte	0x532
 1416 0516 1F       		.uleb128 0x1f
 1417 0517 B7020000 		.4byte	0x2b7
 1418 051b 5F080000 		.4byte	.LLST26
 1419 051f 1F       		.uleb128 0x1f
 1420 0520 AC020000 		.4byte	0x2ac
 1421 0524 73080000 		.4byte	.LLST27
 1422 0528 1F       		.uleb128 0x1f
 1423 0529 A3020000 		.4byte	0x2a3
 1424 052d 86080000 		.4byte	.LLST28
ARM GAS  C:\Users\jsyoon\AppData\Local\Temp\ccC774ap.s 			page 26


 1425 0531 00       		.byte	0
 1426 0532 25       		.uleb128 0x25
 1427 0533 28000000 		.4byte	.LVL25
 1428 0537 42050000 		.4byte	0x542
 1429 053b 23       		.uleb128 0x23
 1430 053c 01       		.uleb128 0x1
 1431 053d 50       		.byte	0x50
 1432 053e 02       		.uleb128 0x2
 1433 053f 75       		.byte	0x75
 1434 0540 00       		.sleb128 0
 1435 0541 00       		.byte	0
 1436 0542 25       		.uleb128 0x25
 1437 0543 80010000 		.4byte	.LVL62
 1438 0547 58050000 		.4byte	0x558
 1439 054b 23       		.uleb128 0x23
 1440 054c 01       		.uleb128 0x1
 1441 054d 51       		.byte	0x51
 1442 054e 02       		.uleb128 0x2
 1443 054f 78       		.byte	0x78
 1444 0550 00       		.sleb128 0
 1445 0551 23       		.uleb128 0x23
 1446 0552 01       		.uleb128 0x1
 1447 0553 50       		.byte	0x50
 1448 0554 02       		.uleb128 0x2
 1449 0555 75       		.byte	0x75
 1450 0556 00       		.sleb128 0
 1451 0557 00       		.byte	0
 1452 0558 25       		.uleb128 0x25
 1453 0559 9C010000 		.4byte	.LVL66
 1454 055d 68050000 		.4byte	0x568
 1455 0561 23       		.uleb128 0x23
 1456 0562 01       		.uleb128 0x1
 1457 0563 50       		.byte	0x50
 1458 0564 02       		.uleb128 0x2
 1459 0565 75       		.byte	0x75
 1460 0566 00       		.sleb128 0
 1461 0567 00       		.byte	0
 1462 0568 25       		.uleb128 0x25
 1463 0569 B0010000 		.4byte	.LVL68
 1464 056d 7E050000 		.4byte	0x57e
 1465 0571 23       		.uleb128 0x23
 1466 0572 01       		.uleb128 0x1
 1467 0573 51       		.byte	0x51
 1468 0574 02       		.uleb128 0x2
 1469 0575 78       		.byte	0x78
 1470 0576 00       		.sleb128 0
 1471 0577 23       		.uleb128 0x23
 1472 0578 01       		.uleb128 0x1
 1473 0579 50       		.byte	0x50
 1474 057a 02       		.uleb128 0x2
 1475 057b 75       		.byte	0x75
 1476 057c 00       		.sleb128 0
 1477 057d 00       		.byte	0
 1478 057e 26       		.uleb128 0x26
 1479 057f DE020000 		.4byte	.LVL111
 1480 0583 23       		.uleb128 0x23
 1481 0584 01       		.uleb128 0x1
ARM GAS  C:\Users\jsyoon\AppData\Local\Temp\ccC774ap.s 			page 27


 1482 0585 50       		.byte	0x50
 1483 0586 02       		.uleb128 0x2
 1484 0587 75       		.byte	0x75
 1485 0588 00       		.sleb128 0
 1486 0589 00       		.byte	0
 1487 058a 00       		.byte	0
 1488 058b 06       		.uleb128 0x6
 1489 058c 04       		.byte	0x4
 1490 058d C3010000 		.4byte	0x1c3
 1491 0591 27       		.uleb128 0x27
 1492 0592 E1000000 		.4byte	0xe1
 1493 0596 A1050000 		.4byte	0x5a1
 1494 059a 28       		.uleb128 0x28
 1495 059b CF000000 		.4byte	0xcf
 1496 059f 16       		.byte	0x16
 1497 05a0 00       		.byte	0
 1498 05a1 29       		.uleb128 0x29
 1499 05a2 BA000000 		.4byte	.LASF50
 1500 05a6 01       		.byte	0x1
 1501 05a7 2001     		.2byte	0x120
 1502 05a9 2C000000 		.4byte	0x2c
 1503 05ad 00000000 		.4byte	.LFB12
 1504 05b1 3C000000 		.4byte	.LFE12-.LFB12
 1505 05b5 01       		.uleb128 0x1
 1506 05b6 9C       		.byte	0x9c
 1507 05b7 70060000 		.4byte	0x670
 1508 05bb 2A       		.uleb128 0x2a
 1509 05bc 73747200 		.ascii	"str\000"
 1510 05c0 01       		.byte	0x1
 1511 05c1 2001     		.2byte	0x120
 1512 05c3 C3020000 		.4byte	0x2c3
 1513 05c7 99080000 		.4byte	.LLST29
 1514 05cb 2B       		.uleb128 0x2b
 1515 05cc 55020000 		.4byte	.LASF30
 1516 05d0 01       		.byte	0x1
 1517 05d1 2001     		.2byte	0x120
 1518 05d3 3A000000 		.4byte	0x3a
 1519 05d7 C5080000 		.4byte	.LLST30
 1520 05db 2C       		.uleb128 0x2c
 1521 05dc 666D7400 		.ascii	"fmt\000"
 1522 05e0 01       		.byte	0x1
 1523 05e1 2001     		.2byte	0x120
 1524 05e3 D6000000 		.4byte	0xd6
 1525 05e7 02       		.uleb128 0x2
 1526 05e8 91       		.byte	0x91
 1527 05e9 78       		.sleb128 -8
 1528 05ea 2D       		.uleb128 0x2d
 1529 05eb 2E       		.uleb128 0x2e
 1530 05ec 617000   		.ascii	"ap\000"
 1531 05ef 01       		.byte	0x1
 1532 05f0 2101     		.2byte	0x121
 1533 05f2 F0010000 		.4byte	0x1f0
 1534 05f6 02       		.uleb128 0x2
 1535 05f7 91       		.byte	0x91
 1536 05f8 50       		.sleb128 -48
 1537 05f9 2E       		.uleb128 0x2e
 1538 05fa 6D7300   		.ascii	"ms\000"
ARM GAS  C:\Users\jsyoon\AppData\Local\Temp\ccC774ap.s 			page 28


 1539 05fd 01       		.byte	0x1
 1540 05fe 2201     		.2byte	0x122
 1541 0600 88020000 		.4byte	0x288
 1542 0604 02       		.uleb128 0x2
 1543 0605 91       		.byte	0x91
 1544 0606 54       		.sleb128 -44
 1545 0607 2F       		.uleb128 0x2f
 1546 0608 63687000 		.ascii	"chp\000"
 1547 060c 01       		.byte	0x1
 1548 060d 2301     		.2byte	0x123
 1549 060f 8B050000 		.4byte	0x58b
 1550 0613 F1080000 		.4byte	.LLST31
 1551 0617 30       		.uleb128 0x30
 1552 0618 18000000 		.4byte	.LVL125
 1553 061c 70060000 		.4byte	0x670
 1554 0620 3E060000 		.4byte	0x63e
 1555 0624 23       		.uleb128 0x23
 1556 0625 01       		.uleb128 0x1
 1557 0626 53       		.byte	0x53
 1558 0627 01       		.uleb128 0x1
 1559 0628 30       		.byte	0x30
 1560 0629 23       		.uleb128 0x23
 1561 062a 01       		.uleb128 0x1
 1562 062b 52       		.byte	0x52
 1563 062c 03       		.uleb128 0x3
 1564 062d F3       		.byte	0xf3
 1565 062e 01       		.uleb128 0x1
 1566 062f 51       		.byte	0x51
 1567 0630 23       		.uleb128 0x23
 1568 0631 01       		.uleb128 0x1
 1569 0632 51       		.byte	0x51
 1570 0633 03       		.uleb128 0x3
 1571 0634 F3       		.byte	0xf3
 1572 0635 01       		.uleb128 0x1
 1573 0636 50       		.byte	0x50
 1574 0637 23       		.uleb128 0x23
 1575 0638 01       		.uleb128 0x1
 1576 0639 50       		.byte	0x50
 1577 063a 02       		.uleb128 0x2
 1578 063b 91       		.byte	0x91
 1579 063c 44       		.sleb128 -60
 1580 063d 00       		.byte	0
 1581 063e 30       		.uleb128 0x30
 1582 063f 24000000 		.4byte	.LVL127
 1583 0643 8B030000 		.4byte	0x38b
 1584 0647 5E060000 		.4byte	0x65e
 1585 064b 23       		.uleb128 0x23
 1586 064c 01       		.uleb128 0x1
 1587 064d 52       		.byte	0x52
 1588 064e 02       		.uleb128 0x2
 1589 064f 74       		.byte	0x74
 1590 0650 00       		.sleb128 0
 1591 0651 23       		.uleb128 0x23
 1592 0652 01       		.uleb128 0x1
 1593 0653 51       		.byte	0x51
 1594 0654 02       		.uleb128 0x2
 1595 0655 75       		.byte	0x75
ARM GAS  C:\Users\jsyoon\AppData\Local\Temp\ccC774ap.s 			page 29


 1596 0656 00       		.sleb128 0
 1597 0657 23       		.uleb128 0x23
 1598 0658 01       		.uleb128 0x1
 1599 0659 50       		.byte	0x50
 1600 065a 02       		.uleb128 0x2
 1601 065b 91       		.byte	0x91
 1602 065c 44       		.sleb128 -60
 1603 065d 00       		.byte	0
 1604 065e 26       		.uleb128 0x26
 1605 065f 2E000000 		.4byte	.LVL129
 1606 0663 23       		.uleb128 0x23
 1607 0664 01       		.uleb128 0x1
 1608 0665 51       		.byte	0x51
 1609 0666 01       		.uleb128 0x1
 1610 0667 30       		.byte	0x30
 1611 0668 23       		.uleb128 0x23
 1612 0669 01       		.uleb128 0x1
 1613 066a 50       		.byte	0x50
 1614 066b 02       		.uleb128 0x2
 1615 066c 91       		.byte	0x91
 1616 066d 44       		.sleb128 -60
 1617 066e 00       		.byte	0
 1618 066f 00       		.byte	0
 1619 0670 31       		.uleb128 0x31
 1620 0671 78020000 		.4byte	.LASF51
 1621 0675 09       		.byte	0x9
 1622 0676 57       		.byte	0x57
 1623 0677 90060000 		.4byte	0x690
 1624 067b 09       		.uleb128 0x9
 1625 067c 90060000 		.4byte	0x690
 1626 0680 09       		.uleb128 0x9
 1627 0681 FD000000 		.4byte	0xfd
 1628 0685 09       		.uleb128 0x9
 1629 0686 3A000000 		.4byte	0x3a
 1630 068a 09       		.uleb128 0x9
 1631 068b 3A000000 		.4byte	0x3a
 1632 068f 00       		.byte	0
 1633 0690 06       		.uleb128 0x6
 1634 0691 04       		.byte	0x4
 1635 0692 88020000 		.4byte	0x288
 1636 0696 00       		.byte	0
 1637              		.section	.debug_abbrev,"",%progbits
 1638              	.Ldebug_abbrev0:
 1639 0000 01       		.uleb128 0x1
 1640 0001 11       		.uleb128 0x11
 1641 0002 01       		.byte	0x1
 1642 0003 25       		.uleb128 0x25
 1643 0004 0E       		.uleb128 0xe
 1644 0005 13       		.uleb128 0x13
 1645 0006 0B       		.uleb128 0xb
 1646 0007 03       		.uleb128 0x3
 1647 0008 0E       		.uleb128 0xe
 1648 0009 1B       		.uleb128 0x1b
 1649 000a 0E       		.uleb128 0xe
 1650 000b 55       		.uleb128 0x55
 1651 000c 17       		.uleb128 0x17
 1652 000d 11       		.uleb128 0x11
ARM GAS  C:\Users\jsyoon\AppData\Local\Temp\ccC774ap.s 			page 30


 1653 000e 01       		.uleb128 0x1
 1654 000f 10       		.uleb128 0x10
 1655 0010 17       		.uleb128 0x17
 1656 0011 00       		.byte	0
 1657 0012 00       		.byte	0
 1658 0013 02       		.uleb128 0x2
 1659 0014 24       		.uleb128 0x24
 1660 0015 00       		.byte	0
 1661 0016 0B       		.uleb128 0xb
 1662 0017 0B       		.uleb128 0xb
 1663 0018 3E       		.uleb128 0x3e
 1664 0019 0B       		.uleb128 0xb
 1665 001a 03       		.uleb128 0x3
 1666 001b 0E       		.uleb128 0xe
 1667 001c 00       		.byte	0
 1668 001d 00       		.byte	0
 1669 001e 03       		.uleb128 0x3
 1670 001f 24       		.uleb128 0x24
 1671 0020 00       		.byte	0
 1672 0021 0B       		.uleb128 0xb
 1673 0022 0B       		.uleb128 0xb
 1674 0023 3E       		.uleb128 0x3e
 1675 0024 0B       		.uleb128 0xb
 1676 0025 03       		.uleb128 0x3
 1677 0026 08       		.uleb128 0x8
 1678 0027 00       		.byte	0
 1679 0028 00       		.byte	0
 1680 0029 04       		.uleb128 0x4
 1681 002a 16       		.uleb128 0x16
 1682 002b 00       		.byte	0
 1683 002c 03       		.uleb128 0x3
 1684 002d 0E       		.uleb128 0xe
 1685 002e 3A       		.uleb128 0x3a
 1686 002f 0B       		.uleb128 0xb
 1687 0030 3B       		.uleb128 0x3b
 1688 0031 0B       		.uleb128 0xb
 1689 0032 49       		.uleb128 0x49
 1690 0033 13       		.uleb128 0x13
 1691 0034 00       		.byte	0
 1692 0035 00       		.byte	0
 1693 0036 05       		.uleb128 0x5
 1694 0037 0F       		.uleb128 0xf
 1695 0038 00       		.byte	0
 1696 0039 0B       		.uleb128 0xb
 1697 003a 0B       		.uleb128 0xb
 1698 003b 00       		.byte	0
 1699 003c 00       		.byte	0
 1700 003d 06       		.uleb128 0x6
 1701 003e 0F       		.uleb128 0xf
 1702 003f 00       		.byte	0
 1703 0040 0B       		.uleb128 0xb
 1704 0041 0B       		.uleb128 0xb
 1705 0042 49       		.uleb128 0x49
 1706 0043 13       		.uleb128 0x13
 1707 0044 00       		.byte	0
 1708 0045 00       		.byte	0
 1709 0046 07       		.uleb128 0x7
ARM GAS  C:\Users\jsyoon\AppData\Local\Temp\ccC774ap.s 			page 31


 1710 0047 26       		.uleb128 0x26
 1711 0048 00       		.byte	0
 1712 0049 49       		.uleb128 0x49
 1713 004a 13       		.uleb128 0x13
 1714 004b 00       		.byte	0
 1715 004c 00       		.byte	0
 1716 004d 08       		.uleb128 0x8
 1717 004e 15       		.uleb128 0x15
 1718 004f 01       		.byte	0x1
 1719 0050 27       		.uleb128 0x27
 1720 0051 19       		.uleb128 0x19
 1721 0052 49       		.uleb128 0x49
 1722 0053 13       		.uleb128 0x13
 1723 0054 01       		.uleb128 0x1
 1724 0055 13       		.uleb128 0x13
 1725 0056 00       		.byte	0
 1726 0057 00       		.byte	0
 1727 0058 09       		.uleb128 0x9
 1728 0059 05       		.uleb128 0x5
 1729 005a 00       		.byte	0
 1730 005b 49       		.uleb128 0x49
 1731 005c 13       		.uleb128 0x13
 1732 005d 00       		.byte	0
 1733 005e 00       		.byte	0
 1734 005f 0A       		.uleb128 0xa
 1735 0060 13       		.uleb128 0x13
 1736 0061 01       		.byte	0x1
 1737 0062 03       		.uleb128 0x3
 1738 0063 0E       		.uleb128 0xe
 1739 0064 0B       		.uleb128 0xb
 1740 0065 0B       		.uleb128 0xb
 1741 0066 3A       		.uleb128 0x3a
 1742 0067 0B       		.uleb128 0xb
 1743 0068 3B       		.uleb128 0x3b
 1744 0069 0B       		.uleb128 0xb
 1745 006a 01       		.uleb128 0x1
 1746 006b 13       		.uleb128 0x13
 1747 006c 00       		.byte	0
 1748 006d 00       		.byte	0
 1749 006e 0B       		.uleb128 0xb
 1750 006f 0D       		.uleb128 0xd
 1751 0070 00       		.byte	0
 1752 0071 03       		.uleb128 0x3
 1753 0072 0E       		.uleb128 0xe
 1754 0073 3A       		.uleb128 0x3a
 1755 0074 0B       		.uleb128 0xb
 1756 0075 3B       		.uleb128 0x3b
 1757 0076 0B       		.uleb128 0xb
 1758 0077 49       		.uleb128 0x49
 1759 0078 13       		.uleb128 0x13
 1760 0079 38       		.uleb128 0x38
 1761 007a 0B       		.uleb128 0xb
 1762 007b 00       		.byte	0
 1763 007c 00       		.byte	0
 1764 007d 0C       		.uleb128 0xc
 1765 007e 0D       		.uleb128 0xd
 1766 007f 00       		.byte	0
ARM GAS  C:\Users\jsyoon\AppData\Local\Temp\ccC774ap.s 			page 32


 1767 0080 03       		.uleb128 0x3
 1768 0081 08       		.uleb128 0x8
 1769 0082 3A       		.uleb128 0x3a
 1770 0083 0B       		.uleb128 0xb
 1771 0084 3B       		.uleb128 0x3b
 1772 0085 0B       		.uleb128 0xb
 1773 0086 49       		.uleb128 0x49
 1774 0087 13       		.uleb128 0x13
 1775 0088 38       		.uleb128 0x38
 1776 0089 0B       		.uleb128 0xb
 1777 008a 00       		.byte	0
 1778 008b 00       		.byte	0
 1779 008c 0D       		.uleb128 0xd
 1780 008d 13       		.uleb128 0x13
 1781 008e 01       		.byte	0x1
 1782 008f 0B       		.uleb128 0xb
 1783 0090 0B       		.uleb128 0xb
 1784 0091 3A       		.uleb128 0x3a
 1785 0092 0B       		.uleb128 0xb
 1786 0093 3B       		.uleb128 0x3b
 1787 0094 0B       		.uleb128 0xb
 1788 0095 01       		.uleb128 0x1
 1789 0096 13       		.uleb128 0x13
 1790 0097 00       		.byte	0
 1791 0098 00       		.byte	0
 1792 0099 0E       		.uleb128 0xe
 1793 009a 0D       		.uleb128 0xd
 1794 009b 00       		.byte	0
 1795 009c 03       		.uleb128 0x3
 1796 009d 0E       		.uleb128 0xe
 1797 009e 49       		.uleb128 0x49
 1798 009f 13       		.uleb128 0x13
 1799 00a0 38       		.uleb128 0x38
 1800 00a1 0B       		.uleb128 0xb
 1801 00a2 34       		.uleb128 0x34
 1802 00a3 19       		.uleb128 0x19
 1803 00a4 00       		.byte	0
 1804 00a5 00       		.byte	0
 1805 00a6 0F       		.uleb128 0xf
 1806 00a7 2E       		.uleb128 0x2e
 1807 00a8 01       		.byte	0x1
 1808 00a9 03       		.uleb128 0x3
 1809 00aa 0E       		.uleb128 0xe
 1810 00ab 3A       		.uleb128 0x3a
 1811 00ac 0B       		.uleb128 0xb
 1812 00ad 3B       		.uleb128 0x3b
 1813 00ae 0B       		.uleb128 0xb
 1814 00af 27       		.uleb128 0x27
 1815 00b0 19       		.uleb128 0x19
 1816 00b1 49       		.uleb128 0x49
 1817 00b2 13       		.uleb128 0x13
 1818 00b3 20       		.uleb128 0x20
 1819 00b4 0B       		.uleb128 0xb
 1820 00b5 01       		.uleb128 0x1
 1821 00b6 13       		.uleb128 0x13
 1822 00b7 00       		.byte	0
 1823 00b8 00       		.byte	0
ARM GAS  C:\Users\jsyoon\AppData\Local\Temp\ccC774ap.s 			page 33


 1824 00b9 10       		.uleb128 0x10
 1825 00ba 05       		.uleb128 0x5
 1826 00bb 00       		.byte	0
 1827 00bc 03       		.uleb128 0x3
 1828 00bd 08       		.uleb128 0x8
 1829 00be 3A       		.uleb128 0x3a
 1830 00bf 0B       		.uleb128 0xb
 1831 00c0 3B       		.uleb128 0x3b
 1832 00c1 0B       		.uleb128 0xb
 1833 00c2 49       		.uleb128 0x49
 1834 00c3 13       		.uleb128 0x13
 1835 00c4 00       		.byte	0
 1836 00c5 00       		.byte	0
 1837 00c6 11       		.uleb128 0x11
 1838 00c7 05       		.uleb128 0x5
 1839 00c8 00       		.byte	0
 1840 00c9 03       		.uleb128 0x3
 1841 00ca 0E       		.uleb128 0xe
 1842 00cb 3A       		.uleb128 0x3a
 1843 00cc 0B       		.uleb128 0xb
 1844 00cd 3B       		.uleb128 0x3b
 1845 00ce 0B       		.uleb128 0xb
 1846 00cf 49       		.uleb128 0x49
 1847 00d0 13       		.uleb128 0x13
 1848 00d1 00       		.byte	0
 1849 00d2 00       		.byte	0
 1850 00d3 12       		.uleb128 0x12
 1851 00d4 2E       		.uleb128 0x2e
 1852 00d5 01       		.byte	0x1
 1853 00d6 03       		.uleb128 0x3
 1854 00d7 0E       		.uleb128 0xe
 1855 00d8 3A       		.uleb128 0x3a
 1856 00d9 0B       		.uleb128 0xb
 1857 00da 3B       		.uleb128 0x3b
 1858 00db 0B       		.uleb128 0xb
 1859 00dc 27       		.uleb128 0x27
 1860 00dd 19       		.uleb128 0x19
 1861 00de 49       		.uleb128 0x49
 1862 00df 13       		.uleb128 0x13
 1863 00e0 11       		.uleb128 0x11
 1864 00e1 01       		.uleb128 0x1
 1865 00e2 12       		.uleb128 0x12
 1866 00e3 06       		.uleb128 0x6
 1867 00e4 40       		.uleb128 0x40
 1868 00e5 18       		.uleb128 0x18
 1869 00e6 9742     		.uleb128 0x2117
 1870 00e8 19       		.uleb128 0x19
 1871 00e9 01       		.uleb128 0x1
 1872 00ea 13       		.uleb128 0x13
 1873 00eb 00       		.byte	0
 1874 00ec 00       		.byte	0
 1875 00ed 13       		.uleb128 0x13
 1876 00ee 05       		.uleb128 0x5
 1877 00ef 00       		.byte	0
 1878 00f0 03       		.uleb128 0x3
 1879 00f1 08       		.uleb128 0x8
 1880 00f2 3A       		.uleb128 0x3a
ARM GAS  C:\Users\jsyoon\AppData\Local\Temp\ccC774ap.s 			page 34


 1881 00f3 0B       		.uleb128 0xb
 1882 00f4 3B       		.uleb128 0x3b
 1883 00f5 0B       		.uleb128 0xb
 1884 00f6 49       		.uleb128 0x49
 1885 00f7 13       		.uleb128 0x13
 1886 00f8 02       		.uleb128 0x2
 1887 00f9 17       		.uleb128 0x17
 1888 00fa 00       		.byte	0
 1889 00fb 00       		.byte	0
 1890 00fc 14       		.uleb128 0x14
 1891 00fd 05       		.uleb128 0x5
 1892 00fe 00       		.byte	0
 1893 00ff 03       		.uleb128 0x3
 1894 0100 0E       		.uleb128 0xe
 1895 0101 3A       		.uleb128 0x3a
 1896 0102 0B       		.uleb128 0xb
 1897 0103 3B       		.uleb128 0x3b
 1898 0104 0B       		.uleb128 0xb
 1899 0105 49       		.uleb128 0x49
 1900 0106 13       		.uleb128 0x13
 1901 0107 02       		.uleb128 0x2
 1902 0108 17       		.uleb128 0x17
 1903 0109 00       		.byte	0
 1904 010a 00       		.byte	0
 1905 010b 15       		.uleb128 0x15
 1906 010c 34       		.uleb128 0x34
 1907 010d 00       		.byte	0
 1908 010e 03       		.uleb128 0x3
 1909 010f 08       		.uleb128 0x8
 1910 0110 3A       		.uleb128 0x3a
 1911 0111 0B       		.uleb128 0xb
 1912 0112 3B       		.uleb128 0x3b
 1913 0113 0B       		.uleb128 0xb
 1914 0114 49       		.uleb128 0x49
 1915 0115 13       		.uleb128 0x13
 1916 0116 02       		.uleb128 0x2
 1917 0117 17       		.uleb128 0x17
 1918 0118 00       		.byte	0
 1919 0119 00       		.byte	0
 1920 011a 16       		.uleb128 0x16
 1921 011b 34       		.uleb128 0x34
 1922 011c 00       		.byte	0
 1923 011d 03       		.uleb128 0x3
 1924 011e 08       		.uleb128 0x8
 1925 011f 3A       		.uleb128 0x3a
 1926 0120 0B       		.uleb128 0xb
 1927 0121 3B       		.uleb128 0x3b
 1928 0122 0B       		.uleb128 0xb
 1929 0123 49       		.uleb128 0x49
 1930 0124 13       		.uleb128 0x13
 1931 0125 00       		.byte	0
 1932 0126 00       		.byte	0
 1933 0127 17       		.uleb128 0x17
 1934 0128 34       		.uleb128 0x34
 1935 0129 00       		.byte	0
 1936 012a 03       		.uleb128 0x3
 1937 012b 0E       		.uleb128 0xe
ARM GAS  C:\Users\jsyoon\AppData\Local\Temp\ccC774ap.s 			page 35


 1938 012c 3A       		.uleb128 0x3a
 1939 012d 0B       		.uleb128 0xb
 1940 012e 3B       		.uleb128 0x3b
 1941 012f 0B       		.uleb128 0xb
 1942 0130 49       		.uleb128 0x49
 1943 0131 13       		.uleb128 0x13
 1944 0132 00       		.byte	0
 1945 0133 00       		.byte	0
 1946 0134 18       		.uleb128 0x18
 1947 0135 2E       		.uleb128 0x2e
 1948 0136 01       		.byte	0x1
 1949 0137 3F       		.uleb128 0x3f
 1950 0138 19       		.uleb128 0x19
 1951 0139 03       		.uleb128 0x3
 1952 013a 0E       		.uleb128 0xe
 1953 013b 3A       		.uleb128 0x3a
 1954 013c 0B       		.uleb128 0xb
 1955 013d 3B       		.uleb128 0x3b
 1956 013e 0B       		.uleb128 0xb
 1957 013f 27       		.uleb128 0x27
 1958 0140 19       		.uleb128 0x19
 1959 0141 11       		.uleb128 0x11
 1960 0142 01       		.uleb128 0x1
 1961 0143 12       		.uleb128 0x12
 1962 0144 06       		.uleb128 0x6
 1963 0145 40       		.uleb128 0x40
 1964 0146 18       		.uleb128 0x18
 1965 0147 9642     		.uleb128 0x2116
 1966 0149 19       		.uleb128 0x19
 1967 014a 01       		.uleb128 0x1
 1968 014b 13       		.uleb128 0x13
 1969 014c 00       		.byte	0
 1970 014d 00       		.byte	0
 1971 014e 19       		.uleb128 0x19
 1972 014f 34       		.uleb128 0x34
 1973 0150 00       		.byte	0
 1974 0151 03       		.uleb128 0x3
 1975 0152 0E       		.uleb128 0xe
 1976 0153 3A       		.uleb128 0x3a
 1977 0154 0B       		.uleb128 0xb
 1978 0155 3B       		.uleb128 0x3b
 1979 0156 0B       		.uleb128 0xb
 1980 0157 49       		.uleb128 0x49
 1981 0158 13       		.uleb128 0x13
 1982 0159 02       		.uleb128 0x2
 1983 015a 17       		.uleb128 0x17
 1984 015b 00       		.byte	0
 1985 015c 00       		.byte	0
 1986 015d 1A       		.uleb128 0x1a
 1987 015e 34       		.uleb128 0x34
 1988 015f 00       		.byte	0
 1989 0160 03       		.uleb128 0x3
 1990 0161 0E       		.uleb128 0xe
 1991 0162 3A       		.uleb128 0x3a
 1992 0163 0B       		.uleb128 0xb
 1993 0164 3B       		.uleb128 0x3b
 1994 0165 0B       		.uleb128 0xb
ARM GAS  C:\Users\jsyoon\AppData\Local\Temp\ccC774ap.s 			page 36


 1995 0166 49       		.uleb128 0x49
 1996 0167 13       		.uleb128 0x13
 1997 0168 02       		.uleb128 0x2
 1998 0169 18       		.uleb128 0x18
 1999 016a 00       		.byte	0
 2000 016b 00       		.byte	0
 2001 016c 1B       		.uleb128 0x1b
 2002 016d 0A       		.uleb128 0xa
 2003 016e 00       		.byte	0
 2004 016f 03       		.uleb128 0x3
 2005 0170 0E       		.uleb128 0xe
 2006 0171 3A       		.uleb128 0x3a
 2007 0172 0B       		.uleb128 0xb
 2008 0173 3B       		.uleb128 0x3b
 2009 0174 0B       		.uleb128 0xb
 2010 0175 11       		.uleb128 0x11
 2011 0176 01       		.uleb128 0x1
 2012 0177 00       		.byte	0
 2013 0178 00       		.byte	0
 2014 0179 1C       		.uleb128 0x1c
 2015 017a 1D       		.uleb128 0x1d
 2016 017b 01       		.byte	0x1
 2017 017c 31       		.uleb128 0x31
 2018 017d 13       		.uleb128 0x13
 2019 017e 52       		.uleb128 0x52
 2020 017f 01       		.uleb128 0x1
 2021 0180 55       		.uleb128 0x55
 2022 0181 17       		.uleb128 0x17
 2023 0182 58       		.uleb128 0x58
 2024 0183 0B       		.uleb128 0xb
 2025 0184 59       		.uleb128 0x59
 2026 0185 0B       		.uleb128 0xb
 2027 0186 01       		.uleb128 0x1
 2028 0187 13       		.uleb128 0x13
 2029 0188 00       		.byte	0
 2030 0189 00       		.byte	0
 2031 018a 1D       		.uleb128 0x1d
 2032 018b 05       		.uleb128 0x5
 2033 018c 00       		.byte	0
 2034 018d 31       		.uleb128 0x31
 2035 018e 13       		.uleb128 0x13
 2036 018f 00       		.byte	0
 2037 0190 00       		.byte	0
 2038 0191 1E       		.uleb128 0x1e
 2039 0192 898201   		.uleb128 0x4109
 2040 0195 00       		.byte	0
 2041 0196 11       		.uleb128 0x11
 2042 0197 01       		.uleb128 0x1
 2043 0198 31       		.uleb128 0x31
 2044 0199 13       		.uleb128 0x13
 2045 019a 00       		.byte	0
 2046 019b 00       		.byte	0
 2047 019c 1F       		.uleb128 0x1f
 2048 019d 05       		.uleb128 0x5
 2049 019e 00       		.byte	0
 2050 019f 31       		.uleb128 0x31
 2051 01a0 13       		.uleb128 0x13
ARM GAS  C:\Users\jsyoon\AppData\Local\Temp\ccC774ap.s 			page 37


 2052 01a1 02       		.uleb128 0x2
 2053 01a2 17       		.uleb128 0x17
 2054 01a3 00       		.byte	0
 2055 01a4 00       		.byte	0
 2056 01a5 20       		.uleb128 0x20
 2057 01a6 0B       		.uleb128 0xb
 2058 01a7 01       		.byte	0x1
 2059 01a8 55       		.uleb128 0x55
 2060 01a9 17       		.uleb128 0x17
 2061 01aa 00       		.byte	0
 2062 01ab 00       		.byte	0
 2063 01ac 21       		.uleb128 0x21
 2064 01ad 34       		.uleb128 0x34
 2065 01ae 00       		.byte	0
 2066 01af 31       		.uleb128 0x31
 2067 01b0 13       		.uleb128 0x13
 2068 01b1 02       		.uleb128 0x2
 2069 01b2 17       		.uleb128 0x17
 2070 01b3 00       		.byte	0
 2071 01b4 00       		.byte	0
 2072 01b5 22       		.uleb128 0x22
 2073 01b6 898201   		.uleb128 0x4109
 2074 01b9 01       		.byte	0x1
 2075 01ba 11       		.uleb128 0x11
 2076 01bb 01       		.uleb128 0x1
 2077 01bc 31       		.uleb128 0x31
 2078 01bd 13       		.uleb128 0x13
 2079 01be 00       		.byte	0
 2080 01bf 00       		.byte	0
 2081 01c0 23       		.uleb128 0x23
 2082 01c1 8A8201   		.uleb128 0x410a
 2083 01c4 00       		.byte	0
 2084 01c5 02       		.uleb128 0x2
 2085 01c6 18       		.uleb128 0x18
 2086 01c7 9142     		.uleb128 0x2111
 2087 01c9 18       		.uleb128 0x18
 2088 01ca 00       		.byte	0
 2089 01cb 00       		.byte	0
 2090 01cc 24       		.uleb128 0x24
 2091 01cd 1D       		.uleb128 0x1d
 2092 01ce 01       		.byte	0x1
 2093 01cf 31       		.uleb128 0x31
 2094 01d0 13       		.uleb128 0x13
 2095 01d1 11       		.uleb128 0x11
 2096 01d2 01       		.uleb128 0x1
 2097 01d3 12       		.uleb128 0x12
 2098 01d4 06       		.uleb128 0x6
 2099 01d5 58       		.uleb128 0x58
 2100 01d6 0B       		.uleb128 0xb
 2101 01d7 59       		.uleb128 0x59
 2102 01d8 0B       		.uleb128 0xb
 2103 01d9 01       		.uleb128 0x1
 2104 01da 13       		.uleb128 0x13
 2105 01db 00       		.byte	0
 2106 01dc 00       		.byte	0
 2107 01dd 25       		.uleb128 0x25
 2108 01de 898201   		.uleb128 0x4109
ARM GAS  C:\Users\jsyoon\AppData\Local\Temp\ccC774ap.s 			page 38


 2109 01e1 01       		.byte	0x1
 2110 01e2 11       		.uleb128 0x11
 2111 01e3 01       		.uleb128 0x1
 2112 01e4 01       		.uleb128 0x1
 2113 01e5 13       		.uleb128 0x13
 2114 01e6 00       		.byte	0
 2115 01e7 00       		.byte	0
 2116 01e8 26       		.uleb128 0x26
 2117 01e9 898201   		.uleb128 0x4109
 2118 01ec 01       		.byte	0x1
 2119 01ed 11       		.uleb128 0x11
 2120 01ee 01       		.uleb128 0x1
 2121 01ef 00       		.byte	0
 2122 01f0 00       		.byte	0
 2123 01f1 27       		.uleb128 0x27
 2124 01f2 01       		.uleb128 0x1
 2125 01f3 01       		.byte	0x1
 2126 01f4 49       		.uleb128 0x49
 2127 01f5 13       		.uleb128 0x13
 2128 01f6 01       		.uleb128 0x1
 2129 01f7 13       		.uleb128 0x13
 2130 01f8 00       		.byte	0
 2131 01f9 00       		.byte	0
 2132 01fa 28       		.uleb128 0x28
 2133 01fb 21       		.uleb128 0x21
 2134 01fc 00       		.byte	0
 2135 01fd 49       		.uleb128 0x49
 2136 01fe 13       		.uleb128 0x13
 2137 01ff 2F       		.uleb128 0x2f
 2138 0200 0B       		.uleb128 0xb
 2139 0201 00       		.byte	0
 2140 0202 00       		.byte	0
 2141 0203 29       		.uleb128 0x29
 2142 0204 2E       		.uleb128 0x2e
 2143 0205 01       		.byte	0x1
 2144 0206 3F       		.uleb128 0x3f
 2145 0207 19       		.uleb128 0x19
 2146 0208 03       		.uleb128 0x3
 2147 0209 0E       		.uleb128 0xe
 2148 020a 3A       		.uleb128 0x3a
 2149 020b 0B       		.uleb128 0xb
 2150 020c 3B       		.uleb128 0x3b
 2151 020d 05       		.uleb128 0x5
 2152 020e 27       		.uleb128 0x27
 2153 020f 19       		.uleb128 0x19
 2154 0210 49       		.uleb128 0x49
 2155 0211 13       		.uleb128 0x13
 2156 0212 11       		.uleb128 0x11
 2157 0213 01       		.uleb128 0x1
 2158 0214 12       		.uleb128 0x12
 2159 0215 06       		.uleb128 0x6
 2160 0216 40       		.uleb128 0x40
 2161 0217 18       		.uleb128 0x18
 2162 0218 9742     		.uleb128 0x2117
 2163 021a 19       		.uleb128 0x19
 2164 021b 01       		.uleb128 0x1
 2165 021c 13       		.uleb128 0x13
ARM GAS  C:\Users\jsyoon\AppData\Local\Temp\ccC774ap.s 			page 39


 2166 021d 00       		.byte	0
 2167 021e 00       		.byte	0
 2168 021f 2A       		.uleb128 0x2a
 2169 0220 05       		.uleb128 0x5
 2170 0221 00       		.byte	0
 2171 0222 03       		.uleb128 0x3
 2172 0223 08       		.uleb128 0x8
 2173 0224 3A       		.uleb128 0x3a
 2174 0225 0B       		.uleb128 0xb
 2175 0226 3B       		.uleb128 0x3b
 2176 0227 05       		.uleb128 0x5
 2177 0228 49       		.uleb128 0x49
 2178 0229 13       		.uleb128 0x13
 2179 022a 02       		.uleb128 0x2
 2180 022b 17       		.uleb128 0x17
 2181 022c 00       		.byte	0
 2182 022d 00       		.byte	0
 2183 022e 2B       		.uleb128 0x2b
 2184 022f 05       		.uleb128 0x5
 2185 0230 00       		.byte	0
 2186 0231 03       		.uleb128 0x3
 2187 0232 0E       		.uleb128 0xe
 2188 0233 3A       		.uleb128 0x3a
 2189 0234 0B       		.uleb128 0xb
 2190 0235 3B       		.uleb128 0x3b
 2191 0236 05       		.uleb128 0x5
 2192 0237 49       		.uleb128 0x49
 2193 0238 13       		.uleb128 0x13
 2194 0239 02       		.uleb128 0x2
 2195 023a 17       		.uleb128 0x17
 2196 023b 00       		.byte	0
 2197 023c 00       		.byte	0
 2198 023d 2C       		.uleb128 0x2c
 2199 023e 05       		.uleb128 0x5
 2200 023f 00       		.byte	0
 2201 0240 03       		.uleb128 0x3
 2202 0241 08       		.uleb128 0x8
 2203 0242 3A       		.uleb128 0x3a
 2204 0243 0B       		.uleb128 0xb
 2205 0244 3B       		.uleb128 0x3b
 2206 0245 05       		.uleb128 0x5
 2207 0246 49       		.uleb128 0x49
 2208 0247 13       		.uleb128 0x13
 2209 0248 02       		.uleb128 0x2
 2210 0249 18       		.uleb128 0x18
 2211 024a 00       		.byte	0
 2212 024b 00       		.byte	0
 2213 024c 2D       		.uleb128 0x2d
 2214 024d 18       		.uleb128 0x18
 2215 024e 00       		.byte	0
 2216 024f 00       		.byte	0
 2217 0250 00       		.byte	0
 2218 0251 2E       		.uleb128 0x2e
 2219 0252 34       		.uleb128 0x34
 2220 0253 00       		.byte	0
 2221 0254 03       		.uleb128 0x3
 2222 0255 08       		.uleb128 0x8
ARM GAS  C:\Users\jsyoon\AppData\Local\Temp\ccC774ap.s 			page 40


 2223 0256 3A       		.uleb128 0x3a
 2224 0257 0B       		.uleb128 0xb
 2225 0258 3B       		.uleb128 0x3b
 2226 0259 05       		.uleb128 0x5
 2227 025a 49       		.uleb128 0x49
 2228 025b 13       		.uleb128 0x13
 2229 025c 02       		.uleb128 0x2
 2230 025d 18       		.uleb128 0x18
 2231 025e 00       		.byte	0
 2232 025f 00       		.byte	0
 2233 0260 2F       		.uleb128 0x2f
 2234 0261 34       		.uleb128 0x34
 2235 0262 00       		.byte	0
 2236 0263 03       		.uleb128 0x3
 2237 0264 08       		.uleb128 0x8
 2238 0265 3A       		.uleb128 0x3a
 2239 0266 0B       		.uleb128 0xb
 2240 0267 3B       		.uleb128 0x3b
 2241 0268 05       		.uleb128 0x5
 2242 0269 49       		.uleb128 0x49
 2243 026a 13       		.uleb128 0x13
 2244 026b 02       		.uleb128 0x2
 2245 026c 17       		.uleb128 0x17
 2246 026d 00       		.byte	0
 2247 026e 00       		.byte	0
 2248 026f 30       		.uleb128 0x30
 2249 0270 898201   		.uleb128 0x4109
 2250 0273 01       		.byte	0x1
 2251 0274 11       		.uleb128 0x11
 2252 0275 01       		.uleb128 0x1
 2253 0276 31       		.uleb128 0x31
 2254 0277 13       		.uleb128 0x13
 2255 0278 01       		.uleb128 0x1
 2256 0279 13       		.uleb128 0x13
 2257 027a 00       		.byte	0
 2258 027b 00       		.byte	0
 2259 027c 31       		.uleb128 0x31
 2260 027d 2E       		.uleb128 0x2e
 2261 027e 01       		.byte	0x1
 2262 027f 3F       		.uleb128 0x3f
 2263 0280 19       		.uleb128 0x19
 2264 0281 03       		.uleb128 0x3
 2265 0282 0E       		.uleb128 0xe
 2266 0283 3A       		.uleb128 0x3a
 2267 0284 0B       		.uleb128 0xb
 2268 0285 3B       		.uleb128 0x3b
 2269 0286 0B       		.uleb128 0xb
 2270 0287 27       		.uleb128 0x27
 2271 0288 19       		.uleb128 0x19
 2272 0289 3C       		.uleb128 0x3c
 2273 028a 19       		.uleb128 0x19
 2274 028b 01       		.uleb128 0x1
 2275 028c 13       		.uleb128 0x13
 2276 028d 00       		.byte	0
 2277 028e 00       		.byte	0
 2278 028f 00       		.byte	0
 2279              		.section	.debug_loc,"",%progbits
ARM GAS  C:\Users\jsyoon\AppData\Local\Temp\ccC774ap.s 			page 41


 2280              	.Ldebug_loc0:
 2281              	.LLST0:
 2282 0000 00000000 		.4byte	.LVL0
 2283 0004 3E000000 		.4byte	.LVL15
 2284 0008 0100     		.2byte	0x1
 2285 000a 50       		.byte	0x50
 2286 000b 3E000000 		.4byte	.LVL15
 2287 000f 42000000 		.4byte	.LVL16
 2288 0013 0300     		.2byte	0x3
 2289 0015 70       		.byte	0x70
 2290 0016 7F       		.sleb128 -1
 2291 0017 9F       		.byte	0x9f
 2292 0018 42000000 		.4byte	.LVL16
 2293 001c 46000000 		.4byte	.LVL17
 2294 0020 0100     		.2byte	0x1
 2295 0022 50       		.byte	0x50
 2296 0023 46000000 		.4byte	.LVL17
 2297 0027 4E000000 		.4byte	.LFE8
 2298 002b 0300     		.2byte	0x3
 2299 002d 70       		.byte	0x70
 2300 002e 7F       		.sleb128 -1
 2301 002f 9F       		.byte	0x9f
 2302 0030 00000000 		.4byte	0
 2303 0034 00000000 		.4byte	0
 2304              	.LLST1:
 2305 0038 00000000 		.4byte	.LVL0
 2306 003c 10000000 		.4byte	.LVL3
 2307 0040 0100     		.2byte	0x1
 2308 0042 51       		.byte	0x51
 2309 0043 10000000 		.4byte	.LVL3
 2310 0047 4E000000 		.4byte	.LFE8
 2311 004b 0400     		.2byte	0x4
 2312 004d F3       		.byte	0xf3
 2313 004e 01       		.uleb128 0x1
 2314 004f 51       		.byte	0x51
 2315 0050 9F       		.byte	0x9f
 2316 0051 00000000 		.4byte	0
 2317 0055 00000000 		.4byte	0
 2318              	.LLST2:
 2319 0059 00000000 		.4byte	.LVL0
 2320 005d 38000000 		.4byte	.LVL13
 2321 0061 0100     		.2byte	0x1
 2322 0063 52       		.byte	0x52
 2323 0064 38000000 		.4byte	.LVL13
 2324 0068 4E000000 		.4byte	.LFE8
 2325 006c 0400     		.2byte	0x4
 2326 006e F3       		.byte	0xf3
 2327 006f 01       		.uleb128 0x1
 2328 0070 52       		.byte	0x52
 2329 0071 9F       		.byte	0x9f
 2330 0072 00000000 		.4byte	0
 2331 0076 00000000 		.4byte	0
 2332              	.LLST3:
 2333 007a 00000000 		.4byte	.LVL0
 2334 007e 08000000 		.4byte	.LVL1
 2335 0082 0100     		.2byte	0x1
 2336 0084 53       		.byte	0x53
ARM GAS  C:\Users\jsyoon\AppData\Local\Temp\ccC774ap.s 			page 42


 2337 0085 08000000 		.4byte	.LVL1
 2338 0089 4E000000 		.4byte	.LFE8
 2339 008d 0400     		.2byte	0x4
 2340 008f F3       		.byte	0xf3
 2341 0090 01       		.uleb128 0x1
 2342 0091 53       		.byte	0x53
 2343 0092 9F       		.byte	0x9f
 2344 0093 00000000 		.4byte	0
 2345 0097 00000000 		.4byte	0
 2346              	.LLST4:
 2347 009b 18000000 		.4byte	.LVL4
 2348 009f 1C000000 		.4byte	.LVL5
 2349 00a3 0100     		.2byte	0x1
 2350 00a5 51       		.byte	0x51
 2351 00a6 1C000000 		.4byte	.LVL5
 2352 00aa 26000000 		.4byte	.LVL7
 2353 00ae 0100     		.2byte	0x1
 2354 00b0 54       		.byte	0x54
 2355 00b1 36000000 		.4byte	.LVL12
 2356 00b5 4C000000 		.4byte	.LVL18
 2357 00b9 0600     		.2byte	0x6
 2358 00bb 77       		.byte	0x77
 2359 00bc 00       		.sleb128 0
 2360 00bd 76       		.byte	0x76
 2361 00be 00       		.sleb128 0
 2362 00bf 1C       		.byte	0x1c
 2363 00c0 9F       		.byte	0x9f
 2364 00c1 00000000 		.4byte	0
 2365 00c5 00000000 		.4byte	0
 2366              	.LLST5:
 2367 00c9 0C000000 		.4byte	.LVL2
 2368 00cd 10000000 		.4byte	.LVL3
 2369 00d1 0100     		.2byte	0x1
 2370 00d3 57       		.byte	0x57
 2371 00d4 10000000 		.4byte	.LVL3
 2372 00d8 2E000000 		.4byte	.LVL10
 2373 00dc 0300     		.2byte	0x3
 2374 00de 75       		.byte	0x75
 2375 00df 01       		.sleb128 1
 2376 00e0 9F       		.byte	0x9f
 2377 00e1 2E000000 		.4byte	.LVL10
 2378 00e5 32000000 		.4byte	.LVL11
 2379 00e9 0100     		.2byte	0x1
 2380 00eb 55       		.byte	0x55
 2381 00ec 32000000 		.4byte	.LVL11
 2382 00f0 4C000000 		.4byte	.LVL18
 2383 00f4 0100     		.2byte	0x1
 2384 00f6 56       		.byte	0x56
 2385 00f7 00000000 		.4byte	0
 2386 00fb 00000000 		.4byte	0
 2387              	.LLST6:
 2388 00ff 00000000 		.4byte	.LVL0
 2389 0103 18000000 		.4byte	.LVL4
 2390 0107 0100     		.2byte	0x1
 2391 0109 51       		.byte	0x51
 2392 010a 2E000000 		.4byte	.LVL10
 2393 010e 4E000000 		.4byte	.LFE8
ARM GAS  C:\Users\jsyoon\AppData\Local\Temp\ccC774ap.s 			page 43


 2394 0112 0100     		.2byte	0x1
 2395 0114 51       		.byte	0x51
 2396 0115 00000000 		.4byte	0
 2397 0119 00000000 		.4byte	0
 2398              	.LLST7:
 2399 011d 08000000 		.4byte	.LVL1
 2400 0121 2A000000 		.4byte	.LVL8
 2401 0125 0100     		.2byte	0x1
 2402 0127 53       		.byte	0x53
 2403 0128 2E000000 		.4byte	.LVL10
 2404 012c 3A000000 		.4byte	.LVL14
 2405 0130 0100     		.2byte	0x1
 2406 0132 53       		.byte	0x53
 2407 0133 00000000 		.4byte	0
 2408 0137 00000000 		.4byte	0
 2409              	.LLST8:
 2410 013b 00000000 		.4byte	.LVL19
 2411 013f 14000000 		.4byte	.LVL21
 2412 0143 0100     		.2byte	0x1
 2413 0145 50       		.byte	0x50
 2414 0146 14000000 		.4byte	.LVL21
 2415 014a 2C030000 		.4byte	.LFE11
 2416 014e 0100     		.2byte	0x1
 2417 0150 55       		.byte	0x55
 2418 0151 00000000 		.4byte	0
 2419 0155 00000000 		.4byte	0
 2420              	.LLST9:
 2421 0159 00000000 		.4byte	.LVL19
 2422 015d 14000000 		.4byte	.LVL21
 2423 0161 0100     		.2byte	0x1
 2424 0163 51       		.byte	0x51
 2425 0164 14000000 		.4byte	.LVL21
 2426 0168 18000000 		.4byte	.LVL22
 2427 016c 0100     		.2byte	0x1
 2428 016e 54       		.byte	0x54
 2429 016f 18000000 		.4byte	.LVL22
 2430 0173 27000000 		.4byte	.LVL25-1
 2431 0177 0100     		.2byte	0x1
 2432 0179 53       		.byte	0x53
 2433 017a 27000000 		.4byte	.LVL25-1
 2434 017e 2C000000 		.4byte	.LVL26
 2435 0182 0100     		.2byte	0x1
 2436 0184 54       		.byte	0x54
 2437 0185 2C000000 		.4byte	.LVL26
 2438 0189 62000000 		.4byte	.LVL33
 2439 018d 0100     		.2byte	0x1
 2440 018f 53       		.byte	0x53
 2441 0190 62000000 		.4byte	.LVL33
 2442 0194 0A010000 		.4byte	.LVL42
 2443 0198 0100     		.2byte	0x1
 2444 019a 54       		.byte	0x54
 2445 019b 0A010000 		.4byte	.LVL42
 2446 019f 16010000 		.4byte	.LVL46
 2447 01a3 0300     		.2byte	0x3
 2448 01a5 74       		.byte	0x74
 2449 01a6 7F       		.sleb128 -1
 2450 01a7 9F       		.byte	0x9f
ARM GAS  C:\Users\jsyoon\AppData\Local\Temp\ccC774ap.s 			page 44


 2451 01a8 16010000 		.4byte	.LVL46
 2452 01ac 1A010000 		.4byte	.LVL47
 2453 01b0 0100     		.2byte	0x1
 2454 01b2 54       		.byte	0x54
 2455 01b3 1A010000 		.4byte	.LVL47
 2456 01b7 28010000 		.4byte	.LVL48
 2457 01bb 0300     		.2byte	0x3
 2458 01bd 74       		.byte	0x74
 2459 01be 7F       		.sleb128 -1
 2460 01bf 9F       		.byte	0x9f
 2461 01c0 28010000 		.4byte	.LVL48
 2462 01c4 C4020000 		.4byte	.LVL106
 2463 01c8 0100     		.2byte	0x1
 2464 01ca 54       		.byte	0x54
 2465 01cb C4020000 		.4byte	.LVL106
 2466 01cf CC020000 		.4byte	.LVL107
 2467 01d3 0300     		.2byte	0x3
 2468 01d5 73       		.byte	0x73
 2469 01d6 01       		.sleb128 1
 2470 01d7 9F       		.byte	0x9f
 2471 01d8 CC020000 		.4byte	.LVL107
 2472 01dc CE020000 		.4byte	.LVL108
 2473 01e0 0100     		.2byte	0x1
 2474 01e2 53       		.byte	0x53
 2475 01e3 CE020000 		.4byte	.LVL108
 2476 01e7 2C030000 		.4byte	.LFE11
 2477 01eb 0100     		.2byte	0x1
 2478 01ed 54       		.byte	0x54
 2479 01ee 00000000 		.4byte	0
 2480 01f2 00000000 		.4byte	0
 2481              	.LLST10:
 2482 01f6 00000000 		.4byte	.LVL19
 2483 01fa 10000000 		.4byte	.LVL20
 2484 01fe 0100     		.2byte	0x1
 2485 0200 52       		.byte	0x52
 2486 0201 10000000 		.4byte	.LVL20
 2487 0205 14000000 		.4byte	.LVL21
 2488 0209 0300     		.2byte	0x3
 2489 020b 52       		.byte	0x52
 2490 020c 93       		.byte	0x93
 2491 020d 04       		.uleb128 0x4
 2492 020e 14000000 		.4byte	.LVL21
 2493 0212 20000000 		.4byte	.LVL24
 2494 0216 0300     		.2byte	0x3
 2495 0218 57       		.byte	0x57
 2496 0219 93       		.byte	0x93
 2497 021a 04       		.uleb128 0x4
 2498 021b 28000000 		.4byte	.LVL25
 2499 021f 30000000 		.4byte	.LVL27
 2500 0223 0300     		.2byte	0x3
 2501 0225 57       		.byte	0x57
 2502 0226 93       		.byte	0x93
 2503 0227 04       		.uleb128 0x4
 2504 0228 30000000 		.4byte	.LVL27
 2505 022c 3A000000 		.4byte	.LVL28
 2506 0230 0100     		.2byte	0x1
 2507 0232 52       		.byte	0x52
ARM GAS  C:\Users\jsyoon\AppData\Local\Temp\ccC774ap.s 			page 45


 2508 0233 3A000000 		.4byte	.LVL28
 2509 0237 3C000000 		.4byte	.LVL29
 2510 023b 0300     		.2byte	0x3
 2511 023d 57       		.byte	0x57
 2512 023e 93       		.byte	0x93
 2513 023f 04       		.uleb128 0x4
 2514 0240 62000000 		.4byte	.LVL33
 2515 0244 66000000 		.4byte	.LVL35
 2516 0248 0500     		.2byte	0x5
 2517 024a 77       		.byte	0x77
 2518 024b 04       		.sleb128 4
 2519 024c 9F       		.byte	0x9f
 2520 024d 93       		.byte	0x93
 2521 024e 04       		.uleb128 0x4
 2522 024f 66000000 		.4byte	.LVL35
 2523 0253 70000000 		.4byte	.LVL37
 2524 0257 0300     		.2byte	0x3
 2525 0259 57       		.byte	0x57
 2526 025a 93       		.byte	0x93
 2527 025b 04       		.uleb128 0x4
 2528 025c 70000000 		.4byte	.LVL37
 2529 0260 8A000000 		.4byte	.LVL40
 2530 0264 0500     		.2byte	0x5
 2531 0266 77       		.byte	0x77
 2532 0267 04       		.sleb128 4
 2533 0268 9F       		.byte	0x9f
 2534 0269 93       		.byte	0x93
 2535 026a 04       		.uleb128 0x4
 2536 026b 8A000000 		.4byte	.LVL40
 2537 026f 0A010000 		.4byte	.LVL42
 2538 0273 0300     		.2byte	0x3
 2539 0275 57       		.byte	0x57
 2540 0276 93       		.byte	0x93
 2541 0277 04       		.uleb128 0x4
 2542 0278 0A010000 		.4byte	.LVL42
 2543 027c 0E010000 		.4byte	.LVL44
 2544 0280 0500     		.2byte	0x5
 2545 0282 77       		.byte	0x77
 2546 0283 04       		.sleb128 4
 2547 0284 9F       		.byte	0x9f
 2548 0285 93       		.byte	0x93
 2549 0286 04       		.uleb128 0x4
 2550 0287 0E010000 		.4byte	.LVL44
 2551 028b 16010000 		.4byte	.LVL46
 2552 028f 0300     		.2byte	0x3
 2553 0291 57       		.byte	0x57
 2554 0292 93       		.byte	0x93
 2555 0293 04       		.uleb128 0x4
 2556 0294 16010000 		.4byte	.LVL46
 2557 0298 28010000 		.4byte	.LVL48
 2558 029c 0500     		.2byte	0x5
 2559 029e 77       		.byte	0x77
 2560 029f 04       		.sleb128 4
 2561 02a0 9F       		.byte	0x9f
 2562 02a1 93       		.byte	0x93
 2563 02a2 04       		.uleb128 0x4
 2564 02a3 28010000 		.4byte	.LVL48
ARM GAS  C:\Users\jsyoon\AppData\Local\Temp\ccC774ap.s 			page 46


 2565 02a7 44010000 		.4byte	.LVL54
 2566 02ab 0300     		.2byte	0x3
 2567 02ad 57       		.byte	0x57
 2568 02ae 93       		.byte	0x93
 2569 02af 04       		.uleb128 0x4
 2570 02b0 44010000 		.4byte	.LVL54
 2571 02b4 D2010000 		.4byte	.LVL73
 2572 02b8 0300     		.2byte	0x3
 2573 02ba 57       		.byte	0x57
 2574 02bb 93       		.byte	0x93
 2575 02bc 04       		.uleb128 0x4
 2576 02bd D2010000 		.4byte	.LVL73
 2577 02c1 00020000 		.4byte	.LVL79
 2578 02c5 0300     		.2byte	0x3
 2579 02c7 57       		.byte	0x57
 2580 02c8 93       		.byte	0x93
 2581 02c9 04       		.uleb128 0x4
 2582 02ca 00020000 		.4byte	.LVL79
 2583 02ce 04020000 		.4byte	.LVL80
 2584 02d2 0500     		.2byte	0x5
 2585 02d4 77       		.byte	0x77
 2586 02d5 79       		.sleb128 -7
 2587 02d6 9F       		.byte	0x9f
 2588 02d7 93       		.byte	0x93
 2589 02d8 04       		.uleb128 0x4
 2590 02d9 20020000 		.4byte	.LVL82
 2591 02dd 80020000 		.4byte	.LVL93
 2592 02e1 0300     		.2byte	0x3
 2593 02e3 57       		.byte	0x57
 2594 02e4 93       		.byte	0x93
 2595 02e5 04       		.uleb128 0x4
 2596 02e6 80020000 		.4byte	.LVL93
 2597 02ea 94020000 		.4byte	.LVL96
 2598 02ee 0500     		.2byte	0x5
 2599 02f0 77       		.byte	0x77
 2600 02f1 04       		.sleb128 4
 2601 02f2 9F       		.byte	0x9f
 2602 02f3 93       		.byte	0x93
 2603 02f4 04       		.uleb128 0x4
 2604 02f5 94020000 		.4byte	.LVL96
 2605 02f9 A8020000 		.4byte	.LVL100
 2606 02fd 0300     		.2byte	0x3
 2607 02ff 57       		.byte	0x57
 2608 0300 93       		.byte	0x93
 2609 0301 04       		.uleb128 0x4
 2610 0302 A8020000 		.4byte	.LVL100
 2611 0306 2C030000 		.4byte	.LFE11
 2612 030a 0300     		.2byte	0x3
 2613 030c 57       		.byte	0x57
 2614 030d 93       		.byte	0x93
 2615 030e 04       		.uleb128 0x4
 2616 030f 00000000 		.4byte	0
 2617 0313 00000000 		.4byte	0
 2618              	.LLST11:
 2619 0317 3A000000 		.4byte	.LVL28
 2620 031b 44010000 		.4byte	.LVL54
 2621 031f 0100     		.2byte	0x1
ARM GAS  C:\Users\jsyoon\AppData\Local\Temp\ccC774ap.s 			page 47


 2622 0321 5B       		.byte	0x5b
 2623 0322 44010000 		.4byte	.LVL54
 2624 0326 4A010000 		.4byte	.LVL55
 2625 032a 0100     		.2byte	0x1
 2626 032c 50       		.byte	0x50
 2627 032d B6010000 		.4byte	.LVL70
 2628 0331 D8010000 		.4byte	.LVL74
 2629 0335 0100     		.2byte	0x1
 2630 0337 5B       		.byte	0x5b
 2631 0338 D8010000 		.4byte	.LVL74
 2632 033c E4010000 		.4byte	.LVL75
 2633 0340 0200     		.2byte	0x2
 2634 0342 77       		.byte	0x77
 2635 0343 7C       		.sleb128 -4
 2636 0344 E4010000 		.4byte	.LVL75
 2637 0348 FE010000 		.4byte	.LVL78
 2638 034c 0100     		.2byte	0x1
 2639 034e 53       		.byte	0x53
 2640 034f FE010000 		.4byte	.LVL78
 2641 0353 28020000 		.4byte	.LVL84
 2642 0357 0100     		.2byte	0x1
 2643 0359 5B       		.byte	0x5b
 2644 035a 28020000 		.4byte	.LVL84
 2645 035e 3F020000 		.4byte	.LVL86-1
 2646 0362 0100     		.2byte	0x1
 2647 0364 50       		.byte	0x50
 2648 0365 80020000 		.4byte	.LVL93
 2649 0369 84020000 		.4byte	.LVL94
 2650 036d 0400     		.2byte	0x4
 2651 036f 91       		.byte	0x91
 2652 0370 B97F     		.sleb128 -71
 2653 0372 9F       		.byte	0x9f
 2654 0373 84020000 		.4byte	.LVL94
 2655 0377 8E020000 		.4byte	.LVL95
 2656 037b 0100     		.2byte	0x1
 2657 037d 50       		.byte	0x50
 2658 037e 8E020000 		.4byte	.LVL95
 2659 0382 9C020000 		.4byte	.LVL97
 2660 0386 0400     		.2byte	0x4
 2661 0388 91       		.byte	0x91
 2662 0389 B97F     		.sleb128 -71
 2663 038b 9F       		.byte	0x9f
 2664 038c 9C020000 		.4byte	.LVL97
 2665 0390 AC020000 		.4byte	.LVL101
 2666 0394 0100     		.2byte	0x1
 2667 0396 5B       		.byte	0x5b
 2668 0397 AC020000 		.4byte	.LVL101
 2669 039b B0020000 		.4byte	.LVL103
 2670 039f 0100     		.2byte	0x1
 2671 03a1 50       		.byte	0x50
 2672 03a2 B0020000 		.4byte	.LVL103
 2673 03a6 B4020000 		.4byte	.LVL104
 2674 03aa 0400     		.2byte	0x4
 2675 03ac 91       		.byte	0x91
 2676 03ad B97F     		.sleb128 -71
 2677 03af 9F       		.byte	0x9f
 2678 03b0 B4020000 		.4byte	.LVL104
ARM GAS  C:\Users\jsyoon\AppData\Local\Temp\ccC774ap.s 			page 48


 2679 03b4 B8020000 		.4byte	.LVL105
 2680 03b8 0100     		.2byte	0x1
 2681 03ba 50       		.byte	0x50
 2682 03bb B8020000 		.4byte	.LVL105
 2683 03bf C4020000 		.4byte	.LVL106
 2684 03c3 0400     		.2byte	0x4
 2685 03c5 91       		.byte	0x91
 2686 03c6 B97F     		.sleb128 -71
 2687 03c8 9F       		.byte	0x9f
 2688 03c9 C4020000 		.4byte	.LVL106
 2689 03cd CE020000 		.4byte	.LVL108
 2690 03d1 0100     		.2byte	0x1
 2691 03d3 5B       		.byte	0x5b
 2692 03d4 E8020000 		.4byte	.LVL114
 2693 03d8 F6020000 		.4byte	.LVL115
 2694 03dc 0100     		.2byte	0x1
 2695 03de 53       		.byte	0x53
 2696 03df F6020000 		.4byte	.LVL115
 2697 03e3 02030000 		.4byte	.LVL117
 2698 03e7 0400     		.2byte	0x4
 2699 03e9 91       		.byte	0x91
 2700 03ea B97F     		.sleb128 -71
 2701 03ec 9F       		.byte	0x9f
 2702 03ed 02030000 		.4byte	.LVL117
 2703 03f1 04030000 		.4byte	.LVL118
 2704 03f5 0100     		.2byte	0x1
 2705 03f7 50       		.byte	0x50
 2706 03f8 04030000 		.4byte	.LVL118
 2707 03fc 12030000 		.4byte	.LVL120
 2708 0400 0400     		.2byte	0x4
 2709 0402 91       		.byte	0x91
 2710 0403 B97F     		.sleb128 -71
 2711 0405 9F       		.byte	0x9f
 2712 0406 12030000 		.4byte	.LVL120
 2713 040a 14030000 		.4byte	.LVL121
 2714 040e 0100     		.2byte	0x1
 2715 0410 50       		.byte	0x50
 2716 0411 14030000 		.4byte	.LVL121
 2717 0415 2C030000 		.4byte	.LFE11
 2718 0419 0200     		.2byte	0x2
 2719 041b 77       		.byte	0x77
 2720 041c 7C       		.sleb128 -4
 2721 041d 00000000 		.4byte	0
 2722 0421 00000000 		.4byte	0
 2723              	.LLST12:
 2724 0425 3A000000 		.4byte	.LVL28
 2725 0429 5C010000 		.4byte	.LVL57
 2726 042d 0100     		.2byte	0x1
 2727 042f 5B       		.byte	0x5b
 2728 0430 90010000 		.4byte	.LVL64
 2729 0434 96010000 		.4byte	.LVL65
 2730 0438 0300     		.2byte	0x3
 2731 043a 79       		.byte	0x79
 2732 043b 02       		.sleb128 2
 2733 043c 9F       		.byte	0x9f
 2734 043d 96010000 		.4byte	.LVL65
 2735 0441 A0010000 		.4byte	.LVL67
ARM GAS  C:\Users\jsyoon\AppData\Local\Temp\ccC774ap.s 			page 49


 2736 0445 0300     		.2byte	0x3
 2737 0447 79       		.byte	0x79
 2738 0448 01       		.sleb128 1
 2739 0449 9F       		.byte	0x9f
 2740 044a B6010000 		.4byte	.LVL70
 2741 044e D2010000 		.4byte	.LVL73
 2742 0452 0100     		.2byte	0x1
 2743 0454 5B       		.byte	0x5b
 2744 0455 D2010000 		.4byte	.LVL73
 2745 0459 FE010000 		.4byte	.LVL78
 2746 045d 0200     		.2byte	0x2
 2747 045f 77       		.byte	0x77
 2748 0460 7C       		.sleb128 -4
 2749 0461 FE010000 		.4byte	.LVL78
 2750 0465 CE020000 		.4byte	.LVL108
 2751 0469 0100     		.2byte	0x1
 2752 046b 5B       		.byte	0x5b
 2753 046c D6020000 		.4byte	.LVL109
 2754 0470 E2020000 		.4byte	.LVL112
 2755 0474 0300     		.2byte	0x3
 2756 0476 79       		.byte	0x79
 2757 0477 01       		.sleb128 1
 2758 0478 9F       		.byte	0x9f
 2759 0479 E2020000 		.4byte	.LVL112
 2760 047d E8020000 		.4byte	.LVL114
 2761 0481 0100     		.2byte	0x1
 2762 0483 59       		.byte	0x59
 2763 0484 E8020000 		.4byte	.LVL114
 2764 0488 F6020000 		.4byte	.LVL115
 2765 048c 0200     		.2byte	0x2
 2766 048e 77       		.byte	0x77
 2767 048f 7C       		.sleb128 -4
 2768 0490 F6020000 		.4byte	.LVL115
 2769 0494 14030000 		.4byte	.LVL121
 2770 0498 0100     		.2byte	0x1
 2771 049a 5B       		.byte	0x5b
 2772 049b 14030000 		.4byte	.LVL121
 2773 049f 2C030000 		.4byte	.LFE11
 2774 04a3 0200     		.2byte	0x2
 2775 04a5 77       		.byte	0x77
 2776 04a6 7C       		.sleb128 -4
 2777 04a7 00000000 		.4byte	0
 2778 04ab 00000000 		.4byte	0
 2779              	.LLST13:
 2780 04af 18000000 		.4byte	.LVL22
 2781 04b3 1A000000 		.4byte	.LVL23
 2782 04b7 0200     		.2byte	0x2
 2783 04b9 74       		.byte	0x74
 2784 04ba 00       		.sleb128 0
 2785 04bb 2C000000 		.4byte	.LVL26
 2786 04bf 30000000 		.4byte	.LVL27
 2787 04c3 0200     		.2byte	0x2
 2788 04c5 74       		.byte	0x74
 2789 04c6 00       		.sleb128 0
 2790 04c7 62000000 		.4byte	.LVL33
 2791 04cb 64000000 		.4byte	.LVL34
 2792 04cf 0100     		.2byte	0x1
ARM GAS  C:\Users\jsyoon\AppData\Local\Temp\ccC774ap.s 			page 50


 2793 04d1 52       		.byte	0x52
 2794 04d2 64000000 		.4byte	.LVL34
 2795 04d6 66000000 		.4byte	.LVL35
 2796 04da 0200     		.2byte	0x2
 2797 04dc 77       		.byte	0x77
 2798 04dd 00       		.sleb128 0
 2799 04de 66000000 		.4byte	.LVL35
 2800 04e2 70000000 		.4byte	.LVL37
 2801 04e6 0100     		.2byte	0x1
 2802 04e8 53       		.byte	0x53
 2803 04e9 7C000000 		.4byte	.LVL38
 2804 04ed 0A010000 		.4byte	.LVL42
 2805 04f1 0100     		.2byte	0x1
 2806 04f3 52       		.byte	0x52
 2807 04f4 0A010000 		.4byte	.LVL42
 2808 04f8 0C010000 		.4byte	.LVL43
 2809 04fc 0200     		.2byte	0x2
 2810 04fe 74       		.byte	0x74
 2811 04ff 7F       		.sleb128 -1
 2812 0500 0C010000 		.4byte	.LVL43
 2813 0504 0E010000 		.4byte	.LVL44
 2814 0508 0200     		.2byte	0x2
 2815 050a 77       		.byte	0x77
 2816 050b 00       		.sleb128 0
 2817 050c 0E010000 		.4byte	.LVL44
 2818 0510 16010000 		.4byte	.LVL46
 2819 0514 0100     		.2byte	0x1
 2820 0516 53       		.byte	0x53
 2821 0517 1A010000 		.4byte	.LVL47
 2822 051b 30010000 		.4byte	.LVL49
 2823 051f 0200     		.2byte	0x2
 2824 0521 74       		.byte	0x74
 2825 0522 7F       		.sleb128 -1
 2826 0523 38010000 		.4byte	.LVL50
 2827 0527 3C010000 		.4byte	.LVL51
 2828 052b 0200     		.2byte	0x2
 2829 052d 74       		.byte	0x74
 2830 052e 7F       		.sleb128 -1
 2831 052f 3C010000 		.4byte	.LVL51
 2832 0533 3E010000 		.4byte	.LVL52
 2833 0537 0100     		.2byte	0x1
 2834 0539 52       		.byte	0x52
 2835 053a B6010000 		.4byte	.LVL70
 2836 053e B8010000 		.4byte	.LVL71
 2837 0542 0100     		.2byte	0x1
 2838 0544 52       		.byte	0x52
 2839 0545 B8010000 		.4byte	.LVL71
 2840 0549 BA010000 		.4byte	.LVL72
 2841 054d 0400     		.2byte	0x4
 2842 054f 73       		.byte	0x73
 2843 0550 C400     		.sleb128 68
 2844 0552 9F       		.byte	0x9f
 2845 0553 BA010000 		.4byte	.LVL72
 2846 0557 E4010000 		.4byte	.LVL75
 2847 055b 0100     		.2byte	0x1
 2848 055d 52       		.byte	0x52
 2849 055e FE010000 		.4byte	.LVL78
ARM GAS  C:\Users\jsyoon\AppData\Local\Temp\ccC774ap.s 			page 51


 2850 0562 0F020000 		.4byte	.LVL81-1
 2851 0566 0100     		.2byte	0x1
 2852 0568 52       		.byte	0x52
 2853 0569 80020000 		.4byte	.LVL93
 2854 056d 9C020000 		.4byte	.LVL97
 2855 0571 0100     		.2byte	0x1
 2856 0573 52       		.byte	0x52
 2857 0574 9C020000 		.4byte	.LVL97
 2858 0578 A0020000 		.4byte	.LVL98
 2859 057c 0200     		.2byte	0x2
 2860 057e 38       		.byte	0x38
 2861 057f 9F       		.byte	0x9f
 2862 0580 A0020000 		.4byte	.LVL98
 2863 0584 AE020000 		.4byte	.LVL102
 2864 0588 0100     		.2byte	0x1
 2865 058a 52       		.byte	0x52
 2866 058b B0020000 		.4byte	.LVL103
 2867 058f C4020000 		.4byte	.LVL106
 2868 0593 0100     		.2byte	0x1
 2869 0595 52       		.byte	0x52
 2870 0596 F6020000 		.4byte	.LVL115
 2871 059a 04030000 		.4byte	.LVL118
 2872 059e 0100     		.2byte	0x1
 2873 05a0 52       		.byte	0x52
 2874 05a1 14030000 		.4byte	.LVL121
 2875 05a5 2C030000 		.4byte	.LFE11
 2876 05a9 0100     		.2byte	0x1
 2877 05ab 52       		.byte	0x52
 2878 05ac 00000000 		.4byte	0
 2879 05b0 00000000 		.4byte	0
 2880              	.LLST14:
 2881 05b4 4C000000 		.4byte	.LVL31
 2882 05b8 5C000000 		.4byte	.LVL32
 2883 05bc 0300     		.2byte	0x3
 2884 05be 08       		.byte	0x8
 2885 05bf 20       		.byte	0x20
 2886 05c0 9F       		.byte	0x9f
 2887 05c1 5C000000 		.4byte	.LVL32
 2888 05c5 BA010000 		.4byte	.LVL72
 2889 05c9 0100     		.2byte	0x1
 2890 05cb 58       		.byte	0x58
 2891 05cc BA010000 		.4byte	.LVL72
 2892 05d0 FE010000 		.4byte	.LVL78
 2893 05d4 0300     		.2byte	0x3
 2894 05d6 08       		.byte	0x8
 2895 05d7 20       		.byte	0x20
 2896 05d8 9F       		.byte	0x9f
 2897 05d9 FE010000 		.4byte	.LVL78
 2898 05dd 80020000 		.4byte	.LVL93
 2899 05e1 0100     		.2byte	0x1
 2900 05e3 58       		.byte	0x58
 2901 05e4 80020000 		.4byte	.LVL93
 2902 05e8 9C020000 		.4byte	.LVL97
 2903 05ec 0300     		.2byte	0x3
 2904 05ee 08       		.byte	0x8
 2905 05ef 20       		.byte	0x20
 2906 05f0 9F       		.byte	0x9f
ARM GAS  C:\Users\jsyoon\AppData\Local\Temp\ccC774ap.s 			page 52


 2907 05f1 9C020000 		.4byte	.LVL97
 2908 05f5 C4020000 		.4byte	.LVL106
 2909 05f9 0100     		.2byte	0x1
 2910 05fb 58       		.byte	0x58
 2911 05fc C4020000 		.4byte	.LVL106
 2912 0600 CE020000 		.4byte	.LVL108
 2913 0604 0300     		.2byte	0x3
 2914 0606 08       		.byte	0x8
 2915 0607 30       		.byte	0x30
 2916 0608 9F       		.byte	0x9f
 2917 0609 CE020000 		.4byte	.LVL108
 2918 060d E8020000 		.4byte	.LVL114
 2919 0611 0100     		.2byte	0x1
 2920 0613 58       		.byte	0x58
 2921 0614 E8020000 		.4byte	.LVL114
 2922 0618 F6020000 		.4byte	.LVL115
 2923 061c 0300     		.2byte	0x3
 2924 061e 08       		.byte	0x8
 2925 061f 20       		.byte	0x20
 2926 0620 9F       		.byte	0x9f
 2927 0621 F6020000 		.4byte	.LVL115
 2928 0625 14030000 		.4byte	.LVL121
 2929 0629 0100     		.2byte	0x1
 2930 062b 58       		.byte	0x58
 2931 062c 14030000 		.4byte	.LVL121
 2932 0630 2C030000 		.4byte	.LFE11
 2933 0634 0300     		.2byte	0x3
 2934 0636 08       		.byte	0x8
 2935 0637 20       		.byte	0x20
 2936 0638 9F       		.byte	0x9f
 2937 0639 00000000 		.4byte	0
 2938 063d 00000000 		.4byte	0
 2939              	.LLST15:
 2940 0641 5C010000 		.4byte	.LVL57
 2941 0645 76010000 		.4byte	.LVL61
 2942 0649 0100     		.2byte	0x1
 2943 064b 50       		.byte	0x50
 2944 064c CE020000 		.4byte	.LVL108
 2945 0650 DA020000 		.4byte	.LVL110
 2946 0654 0100     		.2byte	0x1
 2947 0656 50       		.byte	0x50
 2948 0657 E2020000 		.4byte	.LVL112
 2949 065b E6020000 		.4byte	.LVL113
 2950 065f 0300     		.2byte	0x3
 2951 0661 7A       		.byte	0x7a
 2952 0662 7F       		.sleb128 -1
 2953 0663 9F       		.byte	0x9f
 2954 0664 E6020000 		.4byte	.LVL113
 2955 0668 E8020000 		.4byte	.LVL114
 2956 066c 0100     		.2byte	0x1
 2957 066e 5A       		.byte	0x5a
 2958 066f 00000000 		.4byte	0
 2959 0673 00000000 		.4byte	0
 2960              	.LLST16:
 2961 0677 82000000 		.4byte	.LVL39
 2962 067b 8A000000 		.4byte	.LVL40
 2963 067f 0200     		.2byte	0x2
ARM GAS  C:\Users\jsyoon\AppData\Local\Temp\ccC774ap.s 			page 53


 2964 0681 30       		.byte	0x30
 2965 0682 9F       		.byte	0x9f
 2966 0683 12010000 		.4byte	.LVL45
 2967 0687 16010000 		.4byte	.LVL46
 2968 068b 0500     		.2byte	0x5
 2969 068d 71       		.byte	0x71
 2970 068e 00       		.sleb128 0
 2971 068f 31       		.byte	0x31
 2972 0690 24       		.byte	0x24
 2973 0691 9F       		.byte	0x9f
 2974 0692 00000000 		.4byte	0
 2975 0696 00000000 		.4byte	0
 2976              	.LLST17:
 2977 069a 5C000000 		.4byte	.LVL32
 2978 069e 62000000 		.4byte	.LVL33
 2979 06a2 0200     		.2byte	0x2
 2980 06a4 30       		.byte	0x30
 2981 06a5 9F       		.byte	0x9f
 2982 06a6 62000000 		.4byte	.LVL33
 2983 06aa 6A000000 		.4byte	.LVL36
 2984 06ae 0100     		.2byte	0x1
 2985 06b0 56       		.byte	0x56
 2986 06b1 70000000 		.4byte	.LVL37
 2987 06b5 80010000 		.4byte	.LVL62
 2988 06b9 0100     		.2byte	0x1
 2989 06bb 56       		.byte	0x56
 2990 06bc 80010000 		.4byte	.LVL62
 2991 06c0 82010000 		.4byte	.LVL63
 2992 06c4 0300     		.2byte	0x3
 2993 06c6 76       		.byte	0x76
 2994 06c7 01       		.sleb128 1
 2995 06c8 9F       		.byte	0x9f
 2996 06c9 82010000 		.4byte	.LVL63
 2997 06cd 90010000 		.4byte	.LVL64
 2998 06d1 0100     		.2byte	0x1
 2999 06d3 56       		.byte	0x56
 3000 06d4 A0010000 		.4byte	.LVL67
 3001 06d8 B0010000 		.4byte	.LVL68
 3002 06dc 0100     		.2byte	0x1
 3003 06de 56       		.byte	0x56
 3004 06df B0010000 		.4byte	.LVL68
 3005 06e3 B2010000 		.4byte	.LVL69
 3006 06e7 0300     		.2byte	0x3
 3007 06e9 76       		.byte	0x76
 3008 06ea 7F       		.sleb128 -1
 3009 06eb 9F       		.byte	0x9f
 3010 06ec B2010000 		.4byte	.LVL69
 3011 06f0 C4020000 		.4byte	.LVL106
 3012 06f4 0100     		.2byte	0x1
 3013 06f6 56       		.byte	0x56
 3014 06f7 CE020000 		.4byte	.LVL108
 3015 06fb 2C030000 		.4byte	.LFE11
 3016 06ff 0100     		.2byte	0x1
 3017 0701 56       		.byte	0x56
 3018 0702 00000000 		.4byte	0
 3019 0706 00000000 		.4byte	0
 3020              	.LLST18:
ARM GAS  C:\Users\jsyoon\AppData\Local\Temp\ccC774ap.s 			page 54


 3021 070a 30010000 		.4byte	.LVL49
 3022 070e 3C010000 		.4byte	.LVL51
 3023 0712 0200     		.2byte	0x2
 3024 0714 31       		.byte	0x31
 3025 0715 9F       		.byte	0x9f
 3026 0716 00000000 		.4byte	0
 3027 071a 00000000 		.4byte	0
 3028              	.LLST19:
 3029 071e 3A000000 		.4byte	.LVL28
 3030 0722 44000000 		.4byte	.LVL30
 3031 0726 0200     		.2byte	0x2
 3032 0728 30       		.byte	0x30
 3033 0729 9F       		.byte	0x9f
 3034 072a 44000000 		.4byte	.LVL30
 3035 072e 4C000000 		.4byte	.LVL31
 3036 0732 0200     		.2byte	0x2
 3037 0734 31       		.byte	0x31
 3038 0735 9F       		.byte	0x9f
 3039 0736 4C000000 		.4byte	.LVL31
 3040 073a 4A010000 		.4byte	.LVL55
 3041 073e 0100     		.2byte	0x1
 3042 0740 5C       		.byte	0x5c
 3043 0741 B6010000 		.4byte	.LVL70
 3044 0745 0F020000 		.4byte	.LVL81-1
 3045 0749 0100     		.2byte	0x1
 3046 074b 5C       		.byte	0x5c
 3047 074c 24020000 		.4byte	.LVL83
 3048 0750 3F020000 		.4byte	.LVL86-1
 3049 0754 0100     		.2byte	0x1
 3050 0756 5C       		.byte	0x5c
 3051 0757 80020000 		.4byte	.LVL93
 3052 075b CE020000 		.4byte	.LVL108
 3053 075f 0100     		.2byte	0x1
 3054 0761 5C       		.byte	0x5c
 3055 0762 E8020000 		.4byte	.LVL114
 3056 0766 2C030000 		.4byte	.LFE11
 3057 076a 0100     		.2byte	0x1
 3058 076c 5C       		.byte	0x5c
 3059 076d 00000000 		.4byte	0
 3060 0771 00000000 		.4byte	0
 3061              	.LLST20:
 3062 0775 40010000 		.4byte	.LVL53
 3063 0779 4A010000 		.4byte	.LVL55
 3064 077d 0100     		.2byte	0x1
 3065 077f 51       		.byte	0x51
 3066 0780 A2020000 		.4byte	.LVL99
 3067 0784 B0020000 		.4byte	.LVL103
 3068 0788 0100     		.2byte	0x1
 3069 078a 51       		.byte	0x51
 3070 078b F6020000 		.4byte	.LVL115
 3071 078f 04030000 		.4byte	.LVL118
 3072 0793 0100     		.2byte	0x1
 3073 0795 51       		.byte	0x51
 3074 0796 00000000 		.4byte	0
 3075 079a 00000000 		.4byte	0
 3076              	.LLST21:
 3077 079e 20020000 		.4byte	.LVL82
ARM GAS  C:\Users\jsyoon\AppData\Local\Temp\ccC774ap.s 			page 55


 3078 07a2 28020000 		.4byte	.LVL84
 3079 07a6 0100     		.2byte	0x1
 3080 07a8 50       		.byte	0x50
 3081 07a9 28020000 		.4byte	.LVL84
 3082 07ad 80020000 		.4byte	.LVL93
 3083 07b1 0200     		.2byte	0x2
 3084 07b3 90       		.byte	0x90
 3085 07b4 50       		.uleb128 0x50
 3086 07b5 04030000 		.4byte	.LVL118
 3087 07b9 0A030000 		.4byte	.LVL119
 3088 07bd 0100     		.2byte	0x1
 3089 07bf 50       		.byte	0x50
 3090 07c0 0A030000 		.4byte	.LVL119
 3091 07c4 14030000 		.4byte	.LVL121
 3092 07c8 0200     		.2byte	0x2
 3093 07ca 90       		.byte	0x90
 3094 07cb 50       		.uleb128 0x50
 3095 07cc 00000000 		.4byte	0
 3096 07d0 00000000 		.4byte	0
 3097              	.LLST22:
 3098 07d4 28020000 		.4byte	.LVL84
 3099 07d8 80020000 		.4byte	.LVL93
 3100 07dc 0600     		.2byte	0x6
 3101 07de F5       		.byte	0xf5
 3102 07df 50       		.uleb128 0x50
 3103 07e0 33       		.uleb128 0x33
 3104 07e1 F7       		.byte	0xf7
 3105 07e2 25       		.uleb128 0x25
 3106 07e3 9F       		.byte	0x9f
 3107 07e4 00000000 		.4byte	0
 3108 07e8 00000000 		.4byte	0
 3109              	.LLST23:
 3110 07ec 28020000 		.4byte	.LVL84
 3111 07f0 3F020000 		.4byte	.LVL86-1
 3112 07f4 0100     		.2byte	0x1
 3113 07f6 50       		.byte	0x50
 3114 07f7 40020000 		.4byte	.LVL86
 3115 07fb 48020000 		.4byte	.LVL87
 3116 07ff 0300     		.2byte	0x3
 3117 0801 70       		.byte	0x70
 3118 0802 01       		.sleb128 1
 3119 0803 9F       		.byte	0x9f
 3120 0804 48020000 		.4byte	.LVL87
 3121 0808 80020000 		.4byte	.LVL93
 3122 080c 0100     		.2byte	0x1
 3123 080e 59       		.byte	0x59
 3124 080f 00000000 		.4byte	0
 3125 0813 00000000 		.4byte	0
 3126              	.LLST24:
 3127 0817 38020000 		.4byte	.LVL85
 3128 081b 3F020000 		.4byte	.LVL86-1
 3129 081f 0100     		.2byte	0x1
 3130 0821 51       		.byte	0x51
 3131 0822 3F020000 		.4byte	.LVL86-1
 3132 0826 70020000 		.4byte	.LVL91
 3133 082a 0100     		.2byte	0x1
 3134 082c 5A       		.byte	0x5a
ARM GAS  C:\Users\jsyoon\AppData\Local\Temp\ccC774ap.s 			page 56


 3135 082d 70020000 		.4byte	.LVL91
 3136 0831 73020000 		.4byte	.LVL92-1
 3137 0835 0800     		.2byte	0x8
 3138 0837 F5       		.byte	0xf5
 3139 0838 00       		.uleb128 0
 3140 0839 25       		.uleb128 0x25
 3141 083a F7       		.byte	0xf7
 3142 083b 2C       		.uleb128 0x2c
 3143 083c F7       		.byte	0xf7
 3144 083d 00       		.uleb128 0
 3145 083e 9F       		.byte	0x9f
 3146 083f 00000000 		.4byte	0
 3147 0843 00000000 		.4byte	0
 3148              	.LLST25:
 3149 0847 28020000 		.4byte	.LVL84
 3150 084b 80020000 		.4byte	.LVL93
 3151 084f 0600     		.2byte	0x6
 3152 0851 0C       		.byte	0xc
 3153 0852 A0860100 		.4byte	0x186a0
 3154 0856 9F       		.byte	0x9f
 3155 0857 00000000 		.4byte	0
 3156 085b 00000000 		.4byte	0
 3157              	.LLST26:
 3158 085f AC020000 		.4byte	.LVL101
 3159 0863 B0020000 		.4byte	.LVL103
 3160 0867 0200     		.2byte	0x2
 3161 0869 3A       		.byte	0x3a
 3162 086a 9F       		.byte	0x9f
 3163 086b 00000000 		.4byte	0
 3164 086f 00000000 		.4byte	0
 3165              	.LLST27:
 3166 0873 AC020000 		.4byte	.LVL101
 3167 0877 B0020000 		.4byte	.LVL103
 3168 087b 0100     		.2byte	0x1
 3169 087d 51       		.byte	0x51
 3170 087e 00000000 		.4byte	0
 3171 0882 00000000 		.4byte	0
 3172              	.LLST28:
 3173 0886 AC020000 		.4byte	.LVL101
 3174 088a B0020000 		.4byte	.LVL103
 3175 088e 0100     		.2byte	0x1
 3176 0890 50       		.byte	0x50
 3177 0891 00000000 		.4byte	0
 3178 0895 00000000 		.4byte	0
 3179              	.LLST29:
 3180 0899 00000000 		.4byte	.LVL122
 3181 089d 14000000 		.4byte	.LVL124
 3182 08a1 0100     		.2byte	0x1
 3183 08a3 50       		.byte	0x50
 3184 08a4 14000000 		.4byte	.LVL124
 3185 08a8 17000000 		.4byte	.LVL125-1
 3186 08ac 0100     		.2byte	0x1
 3187 08ae 51       		.byte	0x51
 3188 08af 17000000 		.4byte	.LVL125-1
 3189 08b3 3C000000 		.4byte	.LFE12
 3190 08b7 0400     		.2byte	0x4
 3191 08b9 F3       		.byte	0xf3
ARM GAS  C:\Users\jsyoon\AppData\Local\Temp\ccC774ap.s 			page 57


 3192 08ba 01       		.uleb128 0x1
 3193 08bb 50       		.byte	0x50
 3194 08bc 9F       		.byte	0x9f
 3195 08bd 00000000 		.4byte	0
 3196 08c1 00000000 		.4byte	0
 3197              	.LLST30:
 3198 08c5 00000000 		.4byte	.LVL122
 3199 08c9 10000000 		.4byte	.LVL123
 3200 08cd 0100     		.2byte	0x1
 3201 08cf 51       		.byte	0x51
 3202 08d0 10000000 		.4byte	.LVL123
 3203 08d4 17000000 		.4byte	.LVL125-1
 3204 08d8 0100     		.2byte	0x1
 3205 08da 52       		.byte	0x52
 3206 08db 17000000 		.4byte	.LVL125-1
 3207 08df 3C000000 		.4byte	.LFE12
 3208 08e3 0400     		.2byte	0x4
 3209 08e5 F3       		.byte	0xf3
 3210 08e6 01       		.uleb128 0x1
 3211 08e7 51       		.byte	0x51
 3212 08e8 9F       		.byte	0x9f
 3213 08e9 00000000 		.4byte	0
 3214 08ed 00000000 		.4byte	0
 3215              	.LLST31:
 3216 08f1 18000000 		.4byte	.LVL125
 3217 08f5 1E000000 		.4byte	.LVL126
 3218 08f9 0300     		.2byte	0x3
 3219 08fb 91       		.byte	0x91
 3220 08fc 44       		.sleb128 -60
 3221 08fd 9F       		.byte	0x9f
 3222 08fe 1E000000 		.4byte	.LVL126
 3223 0902 23000000 		.4byte	.LVL127-1
 3224 0906 0100     		.2byte	0x1
 3225 0908 50       		.byte	0x50
 3226 0909 23000000 		.4byte	.LVL127-1
 3227 090d 28000000 		.4byte	.LVL128
 3228 0911 0300     		.2byte	0x3
 3229 0913 91       		.byte	0x91
 3230 0914 44       		.sleb128 -60
 3231 0915 9F       		.byte	0x9f
 3232 0916 28000000 		.4byte	.LVL128
 3233 091a 2D000000 		.4byte	.LVL129-1
 3234 091e 0100     		.2byte	0x1
 3235 0920 50       		.byte	0x50
 3236 0921 2D000000 		.4byte	.LVL129-1
 3237 0925 3C000000 		.4byte	.LFE12
 3238 0929 0300     		.2byte	0x3
 3239 092b 91       		.byte	0x91
 3240 092c 44       		.sleb128 -60
 3241 092d 9F       		.byte	0x9f
 3242 092e 00000000 		.4byte	0
 3243 0932 00000000 		.4byte	0
 3244              		.section	.debug_aranges,"",%progbits
 3245 0000 2C000000 		.4byte	0x2c
 3246 0004 0200     		.2byte	0x2
 3247 0006 00000000 		.4byte	.Ldebug_info0
 3248 000a 04       		.byte	0x4
ARM GAS  C:\Users\jsyoon\AppData\Local\Temp\ccC774ap.s 			page 58


 3249 000b 00       		.byte	0
 3250 000c 0000     		.2byte	0
 3251 000e 0000     		.2byte	0
 3252 0010 00000000 		.4byte	.LFB8
 3253 0014 4E000000 		.4byte	.LFE8-.LFB8
 3254 0018 00000000 		.4byte	.LFB11
 3255 001c 2C030000 		.4byte	.LFE11-.LFB11
 3256 0020 00000000 		.4byte	.LFB12
 3257 0024 3C000000 		.4byte	.LFE12-.LFB12
 3258 0028 00000000 		.4byte	0
 3259 002c 00000000 		.4byte	0
 3260              		.section	.debug_ranges,"",%progbits
 3261              	.Ldebug_ranges0:
 3262 0000 40010000 		.4byte	.LBB12
 3263 0004 42010000 		.4byte	.LBE12
 3264 0008 44010000 		.4byte	.LBB15
 3265 000c 4E010000 		.4byte	.LBE15
 3266 0010 00000000 		.4byte	0
 3267 0014 00000000 		.4byte	0
 3268 0018 28020000 		.4byte	.LBB16
 3269 001c 48020000 		.4byte	.LBE16
 3270 0020 54020000 		.4byte	.LBB19
 3271 0024 84020000 		.4byte	.LBE19
 3272 0028 00000000 		.4byte	0
 3273 002c 00000000 		.4byte	0
 3274 0030 00000000 		.4byte	.LFB8
 3275 0034 4E000000 		.4byte	.LFE8
 3276 0038 00000000 		.4byte	.LFB11
 3277 003c 2C030000 		.4byte	.LFE11
 3278 0040 00000000 		.4byte	.LFB12
 3279 0044 3C000000 		.4byte	.LFE12
 3280 0048 00000000 		.4byte	0
 3281 004c 00000000 		.4byte	0
 3282              		.section	.debug_line,"",%progbits
 3283              	.Ldebug_line0:
 3284 0000 04030000 		.section	.debug_str,"MS",%progbits,1
 3284      0200C401 
 3284      00000201 
 3284      FB0E0D00 
 3284      01010101 
 3285              	.LASF4:
 3286 0000 73697A65 		.ascii	"size_t\000"
 3286      5F7400
 3287              	.LASF5:
 3288 0007 5F5F7569 		.ascii	"__uint8_t\000"
 3288      6E74385F 
 3288      7400
 3289              	.LASF27:
 3290 0011 76615F6C 		.ascii	"va_list\000"
 3290      69737400 
 3291              	.LASF36:
 3292 0019 66746F61 		.ascii	"ftoa\000"
 3292      00
 3293              	.LASF13:
 3294 001e 6C6F6E67 		.ascii	"long long unsigned int\000"
 3294      206C6F6E 
 3294      6720756E 
ARM GAS  C:\Users\jsyoon\AppData\Local\Temp\ccC774ap.s 			page 59


 3294      7369676E 
 3294      65642069 
 3295              	.LASF44:
 3296 0035 43686962 		.ascii	"ChibiOS_2.6.6/os/various/chprintf.c\000"
 3296      694F535F 
 3296      322E362E 
 3296      362F6F73 
 3296      2F766172 
 3297              	.LASF12:
 3298 0059 6C6F6E67 		.ascii	"long long int\000"
 3298      206C6F6E 
 3298      6720696E 
 3298      7400
 3299              	.LASF3:
 3300 0067 7369676E 		.ascii	"signed char\000"
 3300      65642063 
 3300      68617200 
 3301              	.LASF16:
 3302 0073 626F6F6C 		.ascii	"bool_t\000"
 3302      5F7400
 3303              	.LASF42:
 3304 007a 746D7062 		.ascii	"tmpbuf\000"
 3304      756600
 3305              	.LASF45:
 3306 0081 453A5C4D 		.ascii	"E:\\Maker\\BLDC\\test_eval\\try2\\OROCA-BLDC_R15080"
 3306      616B6572 
 3306      5C424C44 
 3306      435C7465 
 3306      73745F65 
 3307 00af 3700     		.ascii	"7\000"
 3308              	.LASF10:
 3309 00b1 6C6F6E67 		.ascii	"long int\000"
 3309      20696E74 
 3309      00
 3310              	.LASF50:
 3311 00ba 6368736E 		.ascii	"chsnprintf\000"
 3311      7072696E 
 3311      746600
 3312              	.LASF26:
 3313 00c5 5F5F7661 		.ascii	"__va_list\000"
 3313      5F6C6973 
 3313      7400
 3314              	.LASF43:
 3315 00cf 474E5520 		.ascii	"GNU C 4.8.4 20140526 (release) [ARM/embedded-4_8-br"
 3315      4320342E 
 3315      382E3420 
 3315      32303134 
 3315      30353236 
 3316 0102 616E6368 		.ascii	"anch revision 211358] -mcpu=cortex-m4 -mfloat-abi=h"
 3316      20726576 
 3316      6973696F 
 3316      6E203231 
 3316      31333538 
 3317 0135 61726420 		.ascii	"ard -mfpu=fpv4-sp-d16 -mno-thumb-interwork -mthumb "
 3317      2D6D6670 
 3317      753D6670 
 3317      76342D73 
ARM GAS  C:\Users\jsyoon\AppData\Local\Temp\ccC774ap.s 			page 60


 3317      702D6431 
 3318 0168 2D676764 		.ascii	"-ggdb -O2 -std=gnu99 -fomit-frame-pointer -falign-f"
 3318      62202D4F 
 3318      32202D73 
 3318      74643D67 
 3318      6E753939 
 3319 019b 756E6374 		.ascii	"unctions=16 -ffunction-sections -fdata-sections -fn"
 3319      696F6E73 
 3319      3D313620 
 3319      2D666675 
 3319      6E637469 
 3320 01ce 6F2D636F 		.ascii	"o-common -fsingle-precision-constant\000"
 3320      6D6D6F6E 
 3320      202D6673 
 3320      696E676C 
 3320      652D7072 
 3321              	.LASF0:
 3322 01f3 646F7562 		.ascii	"double\000"
 3322      6C6500
 3323              	.LASF29:
 3324 01fa 62756666 		.ascii	"buffer\000"
 3324      657200
 3325              	.LASF38:
 3326 0201 66696C6C 		.ascii	"filler\000"
 3326      657200
 3327              	.LASF40:
 3328 0208 69735F6C 		.ascii	"is_long\000"
 3328      6F6E6700 
 3329              	.LASF23:
 3330 0210 42617365 		.ascii	"BaseSequentialStream\000"
 3330      53657175 
 3330      656E7469 
 3330      616C5374 
 3330      7265616D 
 3331              	.LASF2:
 3332 0225 756E7369 		.ascii	"unsigned int\000"
 3332      676E6564 
 3332      20696E74 
 3332      00
 3333              	.LASF11:
 3334 0232 6C6F6E67 		.ascii	"long unsigned int\000"
 3334      20756E73 
 3334      69676E65 
 3334      6420696E 
 3334      7400
 3335              	.LASF41:
 3336 0244 6C656674 		.ascii	"left_align\000"
 3336      5F616C69 
 3336      676E00
 3337              	.LASF39:
 3338 024f 77696474 		.ascii	"width\000"
 3338      6800
 3339              	.LASF30:
 3340 0255 73697A65 		.ascii	"size\000"
 3340      00
 3341              	.LASF8:
 3342 025a 73686F72 		.ascii	"short unsigned int\000"
ARM GAS  C:\Users\jsyoon\AppData\Local\Temp\ccC774ap.s 			page 61


 3342      7420756E 
 3342      7369676E 
 3342      65642069 
 3342      6E7400
 3343              	.LASF18:
 3344 026d 6D73675F 		.ascii	"msg_t\000"
 3344      7400
 3345              	.LASF35:
 3346 0273 6C746F61 		.ascii	"ltoa\000"
 3346      00
 3347              	.LASF51:
 3348 0278 6D734F62 		.ascii	"msObjectInit\000"
 3348      6A656374 
 3348      496E6974 
 3348      00
 3349              	.LASF21:
 3350 0285 77726974 		.ascii	"write\000"
 3350      6500
 3351              	.LASF19:
 3352 028b 73697A65 		.ascii	"sizetype\000"
 3352      74797065 
 3352      00
 3353              	.LASF49:
 3354 0294 756E7369 		.ascii	"unsigned_common\000"
 3354      676E6564 
 3354      5F636F6D 
 3354      6D6F6E00 
 3355              	.LASF34:
 3356 02a4 64697669 		.ascii	"divisor\000"
 3356      736F7200 
 3357              	.LASF24:
 3358 02ac 5F5F676E 		.ascii	"__gnuc_va_list\000"
 3358      75635F76 
 3358      615F6C69 
 3358      737400
 3359              	.LASF28:
 3360 02bb 4D656D53 		.ascii	"MemStreamVMT\000"
 3360      74726561 
 3360      6D564D54 
 3360      00
 3361              	.LASF1:
 3362 02c8 666C6F61 		.ascii	"float\000"
 3362      7400
 3363              	.LASF32:
 3364 02ce 4D656D6F 		.ascii	"MemoryStream\000"
 3364      72795374 
 3364      7265616D 
 3364      00
 3365              	.LASF17:
 3366 02db 5F426F6F 		.ascii	"_Bool\000"
 3366      6C00
 3367              	.LASF15:
 3368 02e1 696E7433 		.ascii	"int32_t\000"
 3368      325F7400 
 3369              	.LASF6:
 3370 02e9 756E7369 		.ascii	"unsigned char\000"
 3370      676E6564 
ARM GAS  C:\Users\jsyoon\AppData\Local\Temp\ccC774ap.s 			page 62


 3370      20636861 
 3370      7200
 3371              	.LASF7:
 3372 02f7 73686F72 		.ascii	"short int\000"
 3372      7420696E 
 3372      7400
 3373              	.LASF25:
 3374 0301 42617365 		.ascii	"BaseSequentialStreamVMT\000"
 3374      53657175 
 3374      656E7469 
 3374      616C5374 
 3374      7265616D 
 3375              	.LASF33:
 3376 0319 72616469 		.ascii	"radix\000"
 3376      7800
 3377              	.LASF20:
 3378 031f 63686172 		.ascii	"char\000"
 3378      00
 3379              	.LASF37:
 3380 0324 70726563 		.ascii	"precision\000"
 3380      6973696F 
 3380      6E00
 3381              	.LASF9:
 3382 032e 5F5F696E 		.ascii	"__int32_t\000"
 3382      7433325F 
 3382      7400
 3383              	.LASF31:
 3384 0338 6F666673 		.ascii	"offset\000"
 3384      657400
 3385              	.LASF46:
 3386 033f 5F5F6170 		.ascii	"__ap\000"
 3386      00
 3387              	.LASF14:
 3388 0344 75696E74 		.ascii	"uint8_t\000"
 3388      385F7400 
 3389              	.LASF48:
 3390 034c 63687670 		.ascii	"chvprintf\000"
 3390      72696E74 
 3390      6600
 3391              	.LASF22:
 3392 0356 72656164 		.ascii	"read\000"
 3392      00
 3393              	.LASF47:
 3394 035b 6C6F6E67 		.ascii	"long_to_string_with_divisor\000"
 3394      5F746F5F 
 3394      73747269 
 3394      6E675F77 
 3394      6974685F 
 3395              		.ident	"GCC: (GNU Tools for ARM Embedded Processors) 4.8.4 20140526 (release) [ARM/embedded-4_8-br
ARM GAS  C:\Users\jsyoon\AppData\Local\Temp\ccC774ap.s 			page 63


DEFINED SYMBOLS
                            *ABS*:00000000 chprintf.c
C:\Users\jsyoon\AppData\Local\Temp\ccC774ap.s:21     .text.long_to_string_with_divisor:00000000 $t
C:\Users\jsyoon\AppData\Local\Temp\ccC774ap.s:26     .text.long_to_string_with_divisor:00000000 long_to_string_with_divisor
C:\Users\jsyoon\AppData\Local\Temp\ccC774ap.s:115    .text.chvprintf:00000000 $t
C:\Users\jsyoon\AppData\Local\Temp\ccC774ap.s:121    .text.chvprintf:00000000 chvprintf
C:\Users\jsyoon\AppData\Local\Temp\ccC774ap.s:263    .text.chvprintf:000000a0 $d
C:\Users\jsyoon\AppData\Local\Temp\ccC774ap.s:317    .text.chvprintf:0000010a $t
C:\Users\jsyoon\AppData\Local\Temp\ccC774ap.s:722    .text.chvprintf:00000320 $d
C:\Users\jsyoon\AppData\Local\Temp\ccC774ap.s:729    .text.chsnprintf:00000000 $t
C:\Users\jsyoon\AppData\Local\Temp\ccC774ap.s:735    .text.chsnprintf:00000000 chsnprintf
C:\Users\jsyoon\AppData\Local\Temp\ccC774ap.s:796    .rodata.str1.4:00000000 $d
                     .debug_frame:00000010 $d
C:\Users\jsyoon\AppData\Local\Temp\ccC774ap.s:728    .text.chvprintf:0000032c $t

UNDEFINED SYMBOLS
__aeabi_d2f
__aeabi_f2d
__aeabi_i2d
__aeabi_dsub
__aeabi_dmul
__aeabi_d2iz
msObjectInit
