ARM GAS  C:\Users\jsyoon\AppData\Local\Temp\ccC774ap.s 			page 1


   1              		.syntax unified
   2              		.cpu cortex-m4
   3              		.eabi_attribute 27, 3
   4              		.eabi_attribute 28, 1
   5              		.fpu fpv4-sp-d16
   6              		.eabi_attribute 20, 1
   7              		.eabi_attribute 21, 1
   8              		.eabi_attribute 23, 3
   9              		.eabi_attribute 24, 1
  10              		.eabi_attribute 25, 1
  11              		.eabi_attribute 26, 1
  12              		.eabi_attribute 30, 2
  13              		.eabi_attribute 34, 1
  14              		.eabi_attribute 18, 4
  15              		.thumb
  16              		.file	"chprintf.c"
  17              		.text
  18              	.Ltext0:
  19              		.cfi_sections	.debug_frame
  20              		.section	.text.long_to_string_with_divisor,"ax",%progbits
  21              		.align	2
  22              		.p2align 4,,15
  23              		.thumb
  24              		.thumb_func
  25              		.type	long_to_string_with_divisor, %function
  26              	long_to_string_with_divisor:
  27              	.LFB8:
  28              		.file 1 "ChibiOS_2.6.6/os/various/chprintf.c"
  29              		.loc 1 40 0
  30              		.cfi_startproc
  31              		@ args = 0, pretend = 0, frame = 0
  32              		@ frame_needed = 0, uses_anonymous_args = 0
  33              		@ link register save eliminated.
  34              	.LVL0:
  35 0000 F0B4     		push	{r4, r5, r6, r7}
  36              		.cfi_def_cfa_offset 16
  37              		.cfi_offset 4, -16
  38              		.cfi_offset 5, -12
  39              		.cfi_offset 6, -8
  40              		.cfi_offset 7, -4
  41              		.loc 1 47 0
  42 0002 002B     		cmp	r3, #0
  43 0004 08BF     		it	eq
  44 0006 0B46     		moveq	r3, r1
  45              	.LVL1:
  46              		.loc 1 52 0
  47 0008 00F10B07 		add	r7, r0, #11
  48              	.LVL2:
  49 000c 00F10A05 		add	r5, r0, #10
  50              	.LVL3:
  51              	.L5:
  52              		.loc 1 54 0
  53 0010 B1FBF2F6 		udiv	r6, r1, r2
  54 0014 02FB1611 		mls	r1, r2, r6, r1
  55              	.LVL4:
  56              		.loc 1 55 0
  57 0018 01F13004 		add	r4, r1, #48
ARM GAS  C:\Users\jsyoon\AppData\Local\Temp\ccC774ap.s 			page 2


  58              	.LVL5:
  59              		.loc 1 56 0
  60 001c 392C     		cmp	r4, #57
  61              		.loc 1 57 0
  62 001e C8BF     		it	gt
  63 0020 01F13704 		addgt	r4, r1, #55
  64              	.LVL6:
  65              		.loc 1 58 0
  66 0024 E4B2     		uxtb	r4, r4
  67              	.LVL7:
  68              		.loc 1 60 0
  69 0026 B3FBF2F3 		udiv	r3, r3, r2
  70              	.LVL8:
  71              		.loc 1 59 0
  72 002a 3146     		mov	r1, r6
  73              	.LVL9:
  74              		.loc 1 58 0
  75 002c 2E46     		mov	r6, r5
  76              	.LVL10:
  77 002e 05F80149 		strb	r4, [r5], #-1
  78              	.LVL11:
  79              		.loc 1 60 0
  80 0032 002B     		cmp	r3, #0
  81 0034 ECD1     		bne	.L5
  82              	.LVL12:
  83              		.loc 1 62 0
  84 0036 BA1B     		subs	r2, r7, r6
  85              	.LVL13:
  86 0038 3346     		mov	r3, r6
  87              	.LVL14:
  88 003a 0244     		add	r2, r2, r0
  89 003c 01E0     		b	.L7
  90              	.LVL15:
  91              	.L11:
  92 003e 13F8014F 		ldrb	r4, [r3, #1]!	@ zero_extendqisi2
  93              	.LVL16:
  94              	.L7:
  95              		.loc 1 64 0 discriminator 1
  96 0042 00F8014B 		strb	r4, [r0], #1
  97              	.LVL17:
  98              		.loc 1 65 0 discriminator 1
  99 0046 9042     		cmp	r0, r2
 100 0048 F9D1     		bne	.L11
 101              		.loc 1 68 0
 102 004a F0BC     		pop	{r4, r5, r6, r7}
 103              	.LVL18:
 104 004c 7047     		bx	lr
 105              		.cfi_endproc
 106              	.LFE8:
 107              		.size	long_to_string_with_divisor, .-long_to_string_with_divisor
 108              		.global	__aeabi_d2f
 109              		.global	__aeabi_f2d
 110              		.global	__aeabi_i2d
 111              		.global	__aeabi_dsub
 112              		.global	__aeabi_dmul
 113              		.global	__aeabi_d2iz
 114 004e 00BF     		.section	.text.chvprintf,"ax",%progbits
ARM GAS  C:\Users\jsyoon\AppData\Local\Temp\ccC774ap.s 			page 3


 115              		.align	2
 116              		.p2align 4,,15
 117              		.global	chvprintf
 118              		.thumb
 119              		.thumb_func
 120              		.type	chvprintf, %function
 121              	chvprintf:
 122              	.LFB11:
 123              		.loc 1 112 0
 124              		.cfi_startproc
 125              		@ args = 0, pretend = 0, frame = 40
 126              		@ frame_needed = 0, uses_anonymous_args = 0
 127              	.LVL19:
 128 0000 2DE9F04F 		push	{r4, r5, r6, r7, r8, r9, r10, fp, lr}
 129              		.cfi_def_cfa_offset 36
 130              		.cfi_offset 4, -36
 131              		.cfi_offset 5, -32
 132              		.cfi_offset 6, -28
 133              		.cfi_offset 7, -24
 134              		.cfi_offset 8, -20
 135              		.cfi_offset 9, -16
 136              		.cfi_offset 10, -12
 137              		.cfi_offset 11, -8
 138              		.cfi_offset 14, -4
 139 0004 2DED028B 		fstmfdd	sp!, {d8}
 140              		.cfi_def_cfa_offset 44
 141              		.cfi_offset 80, -44
 142 0008 8BB0     		sub	sp, sp, #44
 143              		.cfi_def_cfa_offset 88
 144              		.loc 1 112 0
 145 000a 0546     		mov	r5, r0
 146 000c 0C46     		mov	r4, r1
 147 000e 1746     		mov	r7, r2
 148              	.LVL20:
 149 0010 0DF1100B 		add	fp, sp, #16
 150              	.LVL21:
 151              	.L13:
 152              		.loc 1 125 0
 153 0014 2178     		ldrb	r1, [r4]	@ zero_extendqisi2
 154 0016 631C     		adds	r3, r4, #1
 155              	.LVL22:
 156              		.loc 1 126 0
 157 0018 51B1     		cbz	r1, .L12
 158              	.LVL23:
 159              	.L85:
 160              		.loc 1 128 0
 161 001a 2529     		cmp	r1, #37
 162 001c 0DD0     		beq	.L15
 163              		.loc 1 129 0
 164 001e 2A68     		ldr	r2, [r5]
 165              	.LVL24:
 166              		.loc 1 125 0
 167 0020 1C46     		mov	r4, r3
 168              		.loc 1 129 0
 169 0022 9268     		ldr	r2, [r2, #8]
 170 0024 2846     		mov	r0, r5
 171 0026 9047     		blx	r2
ARM GAS  C:\Users\jsyoon\AppData\Local\Temp\ccC774ap.s 			page 4


 172              	.LVL25:
 173              		.loc 1 125 0
 174 0028 2178     		ldrb	r1, [r4]	@ zero_extendqisi2
 175 002a 631C     		adds	r3, r4, #1
 176              	.LVL26:
 177              		.loc 1 126 0
 178 002c 0029     		cmp	r1, #0
 179 002e F4D1     		bne	.L85
 180              	.LVL27:
 181              	.L12:
 182              		.loc 1 261 0
 183 0030 0BB0     		add	sp, sp, #44
 184              		@ sp needed
 185 0032 BDEC028B 		fldmfdd	sp!, {d8}
 186 0036 BDE8F08F 		pop	{r4, r5, r6, r7, r8, r9, r10, fp, pc}
 187              	.LVL28:
 188              	.L15:
 189              		.loc 1 135 0
 190 003a 6278     		ldrb	r2, [r4, #1]	@ zero_extendqisi2
 191              	.LVL29:
 192 003c 2D2A     		cmp	r2, #45
 193 003e 03BF     		ittte	eq
 194 0040 A278     		ldrbeq	r2, [r4, #2]	@ zero_extendqisi2
 195              		.loc 1 136 0
 196 0042 A31C     		addeq	r3, r4, #2
 197              	.LVL30:
 198              		.loc 1 137 0
 199 0044 4FF0010C 		moveq	ip, #1
 200              		.loc 1 134 0
 201 0048 4FF0000C 		movne	ip, #0
 202              	.LVL31:
 203              		.loc 1 140 0
 204 004c 2E2A     		cmp	r2, #46
 205 004e 00F03981 		beq	.L18
 206              		.loc 1 140 0 is_stmt 0 discriminator 1
 207 0052 302A     		cmp	r2, #48
 208 0054 00F03681 		beq	.L18
 209              		.loc 1 139 0 is_stmt 1
 210 0058 4FF02008 		mov	r8, #32
 211              	.LVL32:
 212              	.L19:
 213              		.loc 1 142 0
 214 005c 1C46     		mov	r4, r3
 215              		.loc 1 144 0
 216 005e 0026     		movs	r6, #0
 217 0060 06E0     		b	.L22
 218              	.LVL33:
 219              	.L86:
 220              		.loc 1 150 0
 221 0062 3B78     		ldrb	r3, [r7]	@ zero_extendqisi2
 222              	.LVL34:
 223 0064 0437     		adds	r7, r7, #4
 224              	.LVL35:
 225              	.L20:
 226              		.loc 1 153 0
 227 0066 06EB8606 		add	r6, r6, r6, lsl #2
 228              	.LVL36:
ARM GAS  C:\Users\jsyoon\AppData\Local\Temp\ccC774ap.s 			page 5


 229 006a 2278     		ldrb	r2, [r4]	@ zero_extendqisi2
 230 006c 03EB4606 		add	r6, r3, r6, lsl #1
 231              	.LVL37:
 232              	.L22:
 233              		.loc 1 147 0
 234 0070 A2F13003 		sub	r3, r2, #48
 235 0074 DBB2     		uxtb	r3, r3
 236 0076 092B     		cmp	r3, #9
 237              		.loc 1 146 0
 238 0078 04F10104 		add	r4, r4, #1
 239              	.LVL38:
 240              		.loc 1 147 0
 241 007c F3D9     		bls	.L20
 242              		.loc 1 149 0
 243 007e 2A2A     		cmp	r2, #42
 244 0080 EFD0     		beq	.L86
 245              	.LVL39:
 246              		.loc 1 156 0
 247 0082 2E2A     		cmp	r2, #46
 248 0084 4FF00001 		mov	r1, #0
 249 0088 45D0     		beq	.L25
 250              	.LVL40:
 251              		.loc 1 170 0
 252 008a 02F0DF03 		and	r3, r2, #223
 253 008e 4C2B     		cmp	r3, #76
 254 0090 4ED0     		beq	.L87
 255              	.LVL41:
 256              	.L27:
 257              		.loc 1 179 0
 258 0092 A2F14403 		sub	r3, r2, #68
 259 0096 342B     		cmp	r3, #52
 260 0098 00F20A81 		bhi	.L28
 261 009c DFE813F0 		tbh	[pc, r3, lsl #1]
 262              	.L30:
 263 00a0 0001     		.2byte	(.L29-.L30)/2
 264 00a2 0801     		.2byte	(.L28-.L30)/2
 265 00a4 0801     		.2byte	(.L28-.L30)/2
 266 00a6 0801     		.2byte	(.L28-.L30)/2
 267 00a8 0801     		.2byte	(.L28-.L30)/2
 268 00aa 0001     		.2byte	(.L29-.L30)/2
 269 00ac 0801     		.2byte	(.L28-.L30)/2
 270 00ae 0801     		.2byte	(.L28-.L30)/2
 271 00b0 0801     		.2byte	(.L28-.L30)/2
 272 00b2 0801     		.2byte	(.L28-.L30)/2
 273 00b4 0801     		.2byte	(.L28-.L30)/2
 274 00b6 FE00     		.2byte	(.L31-.L30)/2
 275 00b8 0801     		.2byte	(.L28-.L30)/2
 276 00ba 0801     		.2byte	(.L28-.L30)/2
 277 00bc 0801     		.2byte	(.L28-.L30)/2
 278 00be 0801     		.2byte	(.L28-.L30)/2
 279 00c0 0801     		.2byte	(.L28-.L30)/2
 280 00c2 4E00     		.2byte	(.L62-.L30)/2
 281 00c4 0801     		.2byte	(.L28-.L30)/2
 282 00c6 0801     		.2byte	(.L28-.L30)/2
 283 00c8 8B00     		.2byte	(.L33-.L30)/2
 284 00ca 0801     		.2byte	(.L28-.L30)/2
 285 00cc 0801     		.2byte	(.L28-.L30)/2
ARM GAS  C:\Users\jsyoon\AppData\Local\Temp\ccC774ap.s 			page 6


 286 00ce 0801     		.2byte	(.L28-.L30)/2
 287 00d0 0801     		.2byte	(.L28-.L30)/2
 288 00d2 0801     		.2byte	(.L28-.L30)/2
 289 00d4 0801     		.2byte	(.L28-.L30)/2
 290 00d6 0801     		.2byte	(.L28-.L30)/2
 291 00d8 0801     		.2byte	(.L28-.L30)/2
 292 00da 0801     		.2byte	(.L28-.L30)/2
 293 00dc 0801     		.2byte	(.L28-.L30)/2
 294 00de F000     		.2byte	(.L34-.L30)/2
 295 00e0 0001     		.2byte	(.L29-.L30)/2
 296 00e2 0801     		.2byte	(.L28-.L30)/2
 297 00e4 AF00     		.2byte	(.L35-.L30)/2
 298 00e6 0801     		.2byte	(.L28-.L30)/2
 299 00e8 0801     		.2byte	(.L28-.L30)/2
 300 00ea 0001     		.2byte	(.L29-.L30)/2
 301 00ec 0801     		.2byte	(.L28-.L30)/2
 302 00ee 0801     		.2byte	(.L28-.L30)/2
 303 00f0 0801     		.2byte	(.L28-.L30)/2
 304 00f2 0801     		.2byte	(.L28-.L30)/2
 305 00f4 0801     		.2byte	(.L28-.L30)/2
 306 00f6 FE00     		.2byte	(.L31-.L30)/2
 307 00f8 0801     		.2byte	(.L28-.L30)/2
 308 00fa 0801     		.2byte	(.L28-.L30)/2
 309 00fc 0801     		.2byte	(.L28-.L30)/2
 310 00fe 8D00     		.2byte	(.L36-.L30)/2
 311 0100 0801     		.2byte	(.L28-.L30)/2
 312 0102 4E00     		.2byte	(.L62-.L30)/2
 313 0104 0801     		.2byte	(.L28-.L30)/2
 314 0106 0801     		.2byte	(.L28-.L30)/2
 315 0108 8B00     		.2byte	(.L33-.L30)/2
 316              	.LVL42:
 317              		.p2align 1
 318              	.L88:
 319              		.loc 1 162 0
 320 010a 3B78     		ldrb	r3, [r7]	@ zero_extendqisi2
 321              	.LVL43:
 322 010c 0437     		adds	r7, r7, #4
 323              	.LVL44:
 324              	.L24:
 325              		.loc 1 165 0
 326 010e 01EB8101 		add	r1, r1, r1, lsl #2
 327              	.LVL45:
 328              		.loc 1 166 0
 329 0112 03EB4101 		add	r1, r3, r1, lsl #1
 330              	.LVL46:
 331              	.L25:
 332              		.loc 1 158 0
 333 0116 14F8012B 		ldrb	r2, [r4], #1	@ zero_extendqisi2
 334              	.LVL47:
 335              		.loc 1 159 0
 336 011a A2F13003 		sub	r3, r2, #48
 337 011e DBB2     		uxtb	r3, r3
 338 0120 092B     		cmp	r3, #9
 339 0122 F4D9     		bls	.L24
 340              		.loc 1 161 0
 341 0124 2A2A     		cmp	r2, #42
 342 0126 F0D0     		beq	.L88
ARM GAS  C:\Users\jsyoon\AppData\Local\Temp\ccC774ap.s 			page 7


 343              	.LVL48:
 344              		.loc 1 170 0
 345 0128 02F0DF03 		and	r3, r2, #223
 346 012c 4C2B     		cmp	r3, #76
 347 012e B0D1     		bne	.L27
 348              	.LVL49:
 349              	.L87:
 350              		.loc 1 172 0
 351 0130 2378     		ldrb	r3, [r4]	@ zero_extendqisi2
 352 0132 002B     		cmp	r3, #0
 353 0134 ADD0     		beq	.L27
 354              		.loc 1 173 0
 355 0136 0134     		adds	r4, r4, #1
 356              	.LVL50:
 357 0138 1A46     		mov	r2, r3
 358 013a AAE7     		b	.L27
 359              	.LVL51:
 360              	.L62:
 361              		.loc 1 179 0
 362 013c 0A22     		movs	r2, #10
 363              	.LVL52:
 364              	.L32:
 365              		.loc 1 230 0
 366 013e 3968     		ldr	r1, [r7]
 367              	.LVL53:
 368              	.LBB12:
 369              	.LBB13:
 370              		.loc 1 72 0
 371 0140 5846     		mov	r0, fp
 372              	.LBE13:
 373              	.LBE12:
 374              		.loc 1 230 0
 375 0142 0437     		adds	r7, r7, #4
 376              	.LVL54:
 377              	.L82:
 378              	.LBB15:
 379              	.LBB14:
 380              		.loc 1 72 0
 381 0144 0023     		movs	r3, #0
 382 0146 CDF804C0 		str	ip, [sp, #4]
 383              	.LVL55:
 384              	.L83:
 385 014a FFF7FEFF 		bl	long_to_string_with_divisor
 386              	.LVL56:
 387              	.LBE14:
 388              	.LBE15:
 389              		.loc 1 234 0
 390 014e DDF804C0 		ldr	ip, [sp, #4]
 391 0152 CBEB0000 		rsb	r0, fp, r0
 392 0156 00F1FF3A 		add	r10, r0, #-1
 393              		.loc 1 133 0
 394 015a D946     		mov	r9, fp
 395              	.LVL57:
 396              	.L37:
 397              		.loc 1 240 0
 398 015c 361A     		subs	r6, r6, r0
 399              	.LVL58:
ARM GAS  C:\Users\jsyoon\AppData\Local\Temp\ccC774ap.s 			page 8


 400 015e 26EAE676 		bic	r6, r6, r6, asr #31
 401              	.LVL59:
 402              		.loc 1 242 0
 403 0162 BCF1000F 		cmp	ip, #0
 404 0166 0DD1     		bne	.L50
 405              		.loc 1 243 0
 406 0168 7642     		negs	r6, r6
 407              	.LVL60:
 408              		.loc 1 244 0
 409 016a 5EB1     		cbz	r6, .L50
 410              		.loc 1 245 0
 411 016c 99F80010 		ldrb	r1, [r9]	@ zero_extendqisi2
 412 0170 2D29     		cmp	r1, #45
 413 0172 00F0AC80 		beq	.L89
 414              	.LVL61:
 415              	.L52:
 416              		.loc 1 250 0 discriminator 1
 417 0176 2B68     		ldr	r3, [r5]
 418 0178 2846     		mov	r0, r5
 419 017a 9B68     		ldr	r3, [r3, #8]
 420 017c 4146     		mov	r1, r8
 421 017e 9847     		blx	r3
 422              	.LVL62:
 423              		.loc 1 251 0 discriminator 1
 424 0180 0136     		adds	r6, r6, #1
 425              	.LVL63:
 426 0182 F8D1     		bne	.L52
 427              	.L50:
 428              		.loc 1 253 0 discriminator 1
 429 0184 BAF1000F 		cmp	r10, #0
 430 0188 0ADB     		blt	.L55
 431 018a CA44     		add	r10, r10, r9
 432 018c 09F1FF39 		add	r9, r9, #-1
 433              	.LVL64:
 434              	.L56:
 435              		.loc 1 254 0
 436 0190 2B68     		ldr	r3, [r5]
 437 0192 19F8011F 		ldrb	r1, [r9, #1]!	@ zero_extendqisi2
 438              	.LVL65:
 439 0196 9B68     		ldr	r3, [r3, #8]
 440 0198 2846     		mov	r0, r5
 441 019a 9847     		blx	r3
 442              	.LVL66:
 443              		.loc 1 253 0
 444 019c D145     		cmp	r9, r10
 445 019e F7D1     		bne	.L56
 446              	.LVL67:
 447              	.L55:
 448              		.loc 1 256 0
 449 01a0 002E     		cmp	r6, #0
 450 01a2 3FF437AF 		beq	.L13
 451              	.L57:
 452              		.loc 1 257 0
 453 01a6 2B68     		ldr	r3, [r5]
 454 01a8 2846     		mov	r0, r5
 455 01aa 9B68     		ldr	r3, [r3, #8]
 456 01ac 4146     		mov	r1, r8
ARM GAS  C:\Users\jsyoon\AppData\Local\Temp\ccC774ap.s 			page 9


 457 01ae 9847     		blx	r3
 458              	.LVL68:
 459              		.loc 1 256 0
 460 01b0 013E     		subs	r6, r6, #1
 461              	.LVL69:
 462 01b2 F8D1     		bne	.L57
 463 01b4 2EE7     		b	.L13
 464              	.LVL70:
 465              	.L33:
 466              		.loc 1 179 0
 467 01b6 1022     		movs	r2, #16
 468              	.LVL71:
 469 01b8 C1E7     		b	.L32
 470              	.LVL72:
 471              	.L36:
 472              		.loc 1 186 0
 473 01ba D7F80090 		ldr	r9, [r7]
 474              		.loc 1 187 0
 475 01be 5A4B     		ldr	r3, .L93+8
 476 01c0 B9F1000F 		cmp	r9, #0
 477 01c4 08BF     		it	eq
 478 01c6 9946     		moveq	r9, r3
 479              		.loc 1 189 0
 480 01c8 47F6FF73 		movw	r3, #32767
 481              		.loc 1 190 0
 482 01cc 99F80000 		ldrb	r0, [r9]	@ zero_extendqisi2
 483              		.loc 1 186 0
 484 01d0 0437     		adds	r7, r7, #4
 485              	.LVL73:
 486              		.loc 1 189 0
 487 01d2 0029     		cmp	r1, #0
 488 01d4 08BF     		it	eq
 489 01d6 1946     		moveq	r1, r3
 490              	.LVL74:
 491              		.loc 1 190 0
 492 01d8 0028     		cmp	r0, #0
 493 01da 00F09B80 		beq	.L65
 494 01de 4944     		add	r1, r1, r9
 495 01e0 4B46     		mov	r3, r9
 496 01e2 01E0     		b	.L42
 497              	.LVL75:
 498              	.L40:
 499              		.loc 1 190 0 is_stmt 0 discriminator 2
 500 01e4 8B42     		cmp	r3, r1
 501 01e6 7FD0     		beq	.L90
 502              	.LVL76:
 503              	.L42:
 504              		.loc 1 190 0 discriminator 1
 505 01e8 5A78     		ldrb	r2, [r3, #1]	@ zero_extendqisi2
 506 01ea 0133     		adds	r3, r3, #1
 507              	.LVL77:
 508 01ec 002A     		cmp	r2, #0
 509 01ee F9D1     		bne	.L40
 510 01f0 C9EB0300 		rsb	r0, r9, r3
 511 01f4 00F1FF3A 		add	r10, r0, #-1
 512              		.loc 1 185 0 is_stmt 1
 513 01f8 4FF02008 		mov	r8, #32
ARM GAS  C:\Users\jsyoon\AppData\Local\Temp\ccC774ap.s 			page 10


 514 01fc AEE7     		b	.L37
 515              	.LVL78:
 516              	.L35:
 517              		.loc 1 209 0
 518 01fe 0737     		adds	r7, r7, #7
 519              	.LVL79:
 520 0200 27F00707 		bic	r7, r7, #7
 521              	.LVL80:
 522 0204 D7E90001 		ldrd	r0, [r7]
 523 0208 CDF804C0 		str	ip, [sp, #4]
 524 020c FFF7FEFF 		bl	__aeabi_d2f
 525              	.LVL81:
 526 0210 08EE100A 		fmsr	s16, r0
 527              		.loc 1 210 0
 528 0214 B5EEC08A 		fcmpezs	s16
 529 0218 F1EE10FA 		fmstat
 530              		.loc 1 209 0
 531 021c 07F10807 		add	r7, r7, #8
 532              	.LVL82:
 533              		.loc 1 210 0
 534 0220 DDF804C0 		ldr	ip, [sp, #4]
 535              	.LVL83:
 536 0224 6ED4     		bmi	.L91
 537              		.loc 1 132 0
 538 0226 5846     		mov	r0, fp
 539              	.LVL84:
 540              	.L46:
 541              	.LBB16:
 542              	.LBB17:
 543              		.loc 1 80 0
 544 0228 FDEEC87A 		ftosizs	s15, s16
 545              		.loc 1 81 0
 546 022c 0A22     		movs	r2, #10
 547 022e 17EE901A 		fmrs	r1, s15	@ int
 548 0232 0023     		movs	r3, #0
 549              		.loc 1 80 0
 550 0234 17EE90AA 		fmrs	r10, s15	@ int
 551              	.LVL85:
 552              		.loc 1 81 0
 553 0238 CDF804C0 		str	ip, [sp, #4]
 554 023c FFF7FEFF 		bl	long_to_string_with_divisor
 555              	.LVL86:
 556              		.loc 1 82 0
 557 0240 8146     		mov	r9, r0
 558 0242 2E23     		movs	r3, #46
 559 0244 09F8013B 		strb	r3, [r9], #1
 560              	.LVL87:
 561              	.LBE17:
 562              	.LBE16:
 563              		.loc 1 214 0
 564 0248 18EE100A 		fmrs	r0, s16
 565 024c FFF7FEFF 		bl	__aeabi_f2d
 566              	.LVL88:
 567 0250 CDE90201 		strd	r0, [sp, #8]
 568              	.LBB19:
 569              	.LBB18:
 570              		.loc 1 83 0
ARM GAS  C:\Users\jsyoon\AppData\Local\Temp\ccC774ap.s 			page 11


 571 0254 5046     		mov	r0, r10
 572 0256 FFF7FEFF 		bl	__aeabi_i2d
 573              	.LVL89:
 574 025a 0246     		mov	r2, r0
 575 025c 0B46     		mov	r3, r1
 576 025e DDE90201 		ldrd	r0, [sp, #8]
 577 0262 FFF7FEFF 		bl	__aeabi_dsub
 578              	.LVL90:
 579 0266 2EA3     		adr	r3, .L93
 580 0268 D3E90023 		ldrd	r2, [r3]
 581 026c FFF7FEFF 		bl	__aeabi_dmul
 582              	.LVL91:
 583 0270 FFF7FEFF 		bl	__aeabi_d2iz
 584              	.LVL92:
 585              		.loc 1 84 0
 586 0274 0A22     		movs	r2, #10
 587              		.loc 1 83 0
 588 0276 0146     		mov	r1, r0
 589              		.loc 1 84 0
 590 0278 42F21073 		movw	r3, #10000
 591 027c 4846     		mov	r0, r9
 592 027e 64E7     		b	.L83
 593              	.LVL93:
 594              	.L34:
 595 0280 0DF11100 		add	r0, sp, #17
 596              	.LVL94:
 597              	.LBE18:
 598              	.LBE19:
 599              		.loc 1 182 0
 600 0284 3B68     		ldr	r3, [r7]
 601 0286 8DF81030 		strb	r3, [sp, #16]
 602 028a CBEB0000 		rsb	r0, fp, r0
 603              	.LVL95:
 604 028e 00F1FF3A 		add	r10, r0, #-1
 605 0292 0437     		adds	r7, r7, #4
 606              	.LVL96:
 607              		.loc 1 181 0
 608 0294 4FF02008 		mov	r8, #32
 609              		.loc 1 133 0
 610 0298 D946     		mov	r9, fp
 611              		.loc 1 183 0
 612 029a 5FE7     		b	.L37
 613              	.LVL97:
 614              	.L31:
 615 029c 0822     		movs	r2, #8
 616 029e 4EE7     		b	.L32
 617              	.LVL98:
 618              	.L29:
 619              		.loc 1 198 0
 620 02a0 3968     		ldr	r1, [r7]
 621              	.LVL99:
 622              		.loc 1 201 0
 623 02a2 0029     		cmp	r1, #0
 624              		.loc 1 198 0
 625 02a4 07F10407 		add	r7, r7, #4
 626              	.LVL100:
 627              		.loc 1 201 0
ARM GAS  C:\Users\jsyoon\AppData\Local\Temp\ccC774ap.s 			page 12


 628 02a8 25DB     		blt	.L92
 629              		.loc 1 132 0
 630 02aa 5846     		mov	r0, fp
 631              	.LVL101:
 632              	.L45:
 633              	.LBB20:
 634              	.LBB21:
 635              		.loc 1 72 0
 636 02ac 0A22     		movs	r2, #10
 637              	.LVL102:
 638 02ae 49E7     		b	.L82
 639              	.LVL103:
 640              	.L28:
 641 02b0 0DF11100 		add	r0, sp, #17
 642              	.LVL104:
 643 02b4 CBEB0000 		rsb	r0, fp, r0
 644              	.LVL105:
 645              	.LBE21:
 646              	.LBE20:
 647              		.loc 1 236 0
 648 02b8 8DF81020 		strb	r2, [sp, #16]
 649 02bc 00F1FF3A 		add	r10, r0, #-1
 650              		.loc 1 133 0
 651 02c0 D946     		mov	r9, fp
 652              		.loc 1 237 0
 653 02c2 4BE7     		b	.L37
 654              	.LVL106:
 655              	.L18:
 656 02c4 5A78     		ldrb	r2, [r3, #1]	@ zero_extendqisi2
 657              		.loc 1 142 0
 658 02c6 4FF03008 		mov	r8, #48
 659              		.loc 1 141 0
 660 02ca 0133     		adds	r3, r3, #1
 661              	.LVL107:
 662 02cc C6E6     		b	.L19
 663              	.LVL108:
 664              	.L89:
 665              		.loc 1 245 0 discriminator 1
 666 02ce B8F1300F 		cmp	r8, #48
 667 02d2 7FF450AF 		bne	.L52
 668              	.LVL109:
 669              		.loc 1 246 0
 670 02d6 2B68     		ldr	r3, [r5]
 671 02d8 2846     		mov	r0, r5
 672              	.LVL110:
 673 02da 9B68     		ldr	r3, [r3, #8]
 674 02dc 9847     		blx	r3
 675              	.LVL111:
 676 02de 09F10109 		add	r9, r9, #1
 677              	.LVL112:
 678 02e2 0AF1FF3A 		add	r10, r10, #-1
 679              	.LVL113:
 680 02e6 46E7     		b	.L52
 681              	.LVL114:
 682              	.L90:
 683 02e8 C9EB0100 		rsb	r0, r9, r1
 684 02ec 00F1FF3A 		add	r10, r0, #-1
ARM GAS  C:\Users\jsyoon\AppData\Local\Temp\ccC774ap.s 			page 13


 685              		.loc 1 185 0
 686 02f0 4FF02008 		mov	r8, #32
 687 02f4 32E7     		b	.L37
 688              	.LVL115:
 689              	.L92:
 690              		.loc 1 202 0
 691 02f6 2D23     		movs	r3, #45
 692              		.loc 1 203 0
 693 02f8 4942     		negs	r1, r1
 694              	.LVL116:
 695              		.loc 1 202 0
 696 02fa 8DF81030 		strb	r3, [sp, #16]
 697 02fe 0DF11100 		add	r0, sp, #17
 698              	.LVL117:
 699 0302 D3E7     		b	.L45
 700              	.LVL118:
 701              	.L91:
 702              		.loc 1 211 0
 703 0304 2D23     		movs	r3, #45
 704              		.loc 1 212 0
 705 0306 B1EE488A 		fnegs	s16, s16
 706              	.LVL119:
 707              		.loc 1 211 0
 708 030a 8DF81030 		strb	r3, [sp, #16]
 709 030e 0DF11100 		add	r0, sp, #17
 710              	.LVL120:
 711 0312 89E7     		b	.L46
 712              	.LVL121:
 713              	.L65:
 714              		.loc 1 190 0
 715 0314 4FF0FF3A 		mov	r10, #-1
 716              		.loc 1 185 0
 717 0318 4FF02008 		mov	r8, #32
 718 031c 1EE7     		b	.L37
 719              	.L94:
 720 031e 00BF     		.align	3
 721              	.L93:
 722 0320 00000000 		.word	0
 723 0324 006AF840 		.word	1090021888
 724 0328 00000000 		.word	.LC0
 725              		.cfi_endproc
 726              	.LFE11:
 727              		.size	chvprintf, .-chvprintf
 728 032c AFF30080 		.section	.text.chsnprintf,"ax",%progbits
 729              		.align	2
 730              		.p2align 4,,15
 731              		.global	chsnprintf
 732              		.thumb
 733              		.thumb_func
 734              		.type	chsnprintf, %function
 735              	chsnprintf:
 736              	.LFB12:
 737              		.loc 1 288 0
 738              		.cfi_startproc
 739              		@ args = 4, pretend = 8, frame = 24
 740              		@ frame_needed = 0, uses_anonymous_args = 1
 741              	.LVL122:
ARM GAS  C:\Users\jsyoon\AppData\Local\Temp\ccC774ap.s 			page 14


 742 0000 0CB4     		push	{r2, r3}
 743              		.cfi_def_cfa_offset 8
 744              		.cfi_offset 2, -8
 745              		.cfi_offset 3, -4
 746 0002 30B5     		push	{r4, r5, lr}
 747              		.cfi_def_cfa_offset 20
 748              		.cfi_offset 4, -20
 749              		.cfi_offset 5, -16
 750              		.cfi_offset 14, -12
 751 0004 87B0     		sub	sp, sp, #28
 752              		.cfi_def_cfa_offset 48
 753              		.loc 1 288 0
 754 0006 0AAC     		add	r4, sp, #40
 755 0008 0A46     		mov	r2, r1
 756 000a 54F8045B 		ldr	r5, [r4], #4
 757              		.loc 1 294 0
 758 000e 0146     		mov	r1, r0
 759              	.LVL123:
 760 0010 0023     		movs	r3, #0
 761 0012 01A8     		add	r0, sp, #4
 762              	.LVL124:
 763 0014 FFF7FEFF 		bl	msObjectInit
 764              	.LVL125:
 765              		.loc 1 299 0
 766 0018 2946     		mov	r1, r5
 767 001a 2246     		mov	r2, r4
 768 001c 01A8     		add	r0, sp, #4
 769              	.LVL126:
 770              		.loc 1 298 0
 771 001e 0094     		str	r4, [sp]
 772              		.loc 1 299 0
 773 0020 FFF7FEFF 		bl	chvprintf
 774              	.LVL127:
 775              		.loc 1 303 0
 776 0024 019B     		ldr	r3, [sp, #4]
 777 0026 01A8     		add	r0, sp, #4
 778              	.LVL128:
 779 0028 9B68     		ldr	r3, [r3, #8]
 780 002a 0021     		movs	r1, #0
 781 002c 9847     		blx	r3
 782              	.LVL129:
 783              		.loc 1 304 0
 784 002e 0498     		ldr	r0, [sp, #16]
 785              		.loc 1 305 0
 786 0030 0138     		subs	r0, r0, #1
 787 0032 07B0     		add	sp, sp, #28
 788              		@ sp needed
 789 0034 BDE83040 		pop	{r4, r5, lr}
 790 0038 02B0     		add	sp, sp, #8
 791 003a 7047     		bx	lr
 792              		.cfi_endproc
 793              	.LFE12:
 794              		.size	chsnprintf, .-chsnprintf
 795 003c AFF30080 		.section	.rodata.str1.4,"aMS",%progbits,1
 796              		.align	2
 797              	.LC0:
 798 0000 286E756C 		.ascii	"(null)\000"
ARM GAS  C:\Users\jsyoon\AppData\Local\Temp\ccC774ap.s 			page 15


 798      6C2900
 799 0007 00       		.text
 800              	.Letext0:
 801              		.file 2 "c:\\crosstools\\gcc-arm-embedded\\4.8_2014q2\\lib\\gcc\\arm-none-eabi\\4.8.4\\include\\st
 802              		.file 3 "c:\\crosstools\\gcc-arm-embedded\\4.8_2014q2\\arm-none-eabi\\include\\machine\\_default_t
 803              		.file 4 "c:\\crosstools\\gcc-arm-embedded\\4.8_2014q2\\arm-none-eabi\\include\\stdint.h"
 804              		.file 5 "ChibiOS_2.6.6/os/ports/GCC/ARMCMx/chtypes.h"
 805              		.file 6 "ChibiOS_2.6.6/os/kernel/include/chstreams.h"
 806              		.file 7 "c:\\crosstools\\gcc-arm-embedded\\4.8_2014q2\\lib\\gcc\\arm-none-eabi\\4.8.4\\include\\st
 807              		.file 8 "<built-in>"
 808              		.file 9 "ChibiOS_2.6.6/os/various/memstreams.h"